   1              		.cpu cortex-a9
   2              		.eabi_attribute 28, 1
   3              		.eabi_attribute 20, 1
   4              		.eabi_attribute 21, 1
   5              		.eabi_attribute 23, 3
   6              		.eabi_attribute 24, 1
   7              		.eabi_attribute 25, 1
   8              		.eabi_attribute 26, 1
   9              		.eabi_attribute 30, 2
  10              		.eabi_attribute 34, 0
  11              		.eabi_attribute 18, 4
  12              		.file	"test_helpers.cc"
  13              		.section	.text._ZN6tflite7testing12_GLOBAL__N_114StackAllocator10deallocateEPhj,"ax",%progbits
  14              		.align	2
  15              		.syntax unified
  16              		.arm
  17              		.fpu neon
  19              	_ZN6tflite7testing12_GLOBAL__N_114StackAllocator10deallocateEPhj:
  20              		.fnstart
  21              	.LFB6954:
  22              		@ args = 0, pretend = 0, frame = 0
  23              		@ frame_needed = 0, uses_anonymous_args = 0
  24              		@ link register save eliminated.
  25 0000 1EFF2FE1 		bx	lr
  26              		.cantunwind
  27              		.fnend
  29              		.section	.text._ZN6tflite7testing10MockCustom4FreeEP13TfLiteContextPv,"ax",%progbits
  30              		.align	2
  31              		.global	_ZN6tflite7testing10MockCustom4FreeEP13TfLiteContextPv
  32              		.syntax unified
  33              		.arm
  34              		.fpu neon
  36              	_ZN6tflite7testing10MockCustom4FreeEP13TfLiteContextPv:
  37              		.fnstart
  38              	.LFB6988:
  39              		@ args = 0, pretend = 0, frame = 0
  40              		@ frame_needed = 0, uses_anonymous_args = 0
  41              		@ link register save eliminated.
  42 0000 003000E3 		movw	r3, #:lower16:.LANCHOR0
  43 0004 0120A0E3 		mov	r2, #1
  44 0008 003040E3 		movt	r3, #:upper16:.LANCHOR0
  45 000c 0020C3E5 		strb	r2, [r3]
  46 0010 1EFF2FE1 		bx	lr
  47              		.cantunwind
  48              		.fnend
  50              		.section	.text._ZN6tflite7testing14MultipleInputs4FreeEP13TfLiteContextPv,"ax",%progbits
  51              		.align	2
  52              		.global	_ZN6tflite7testing14MultipleInputs4FreeEP13TfLiteContextPv
  53              		.syntax unified
  54              		.arm
  55              		.fpu neon
  57              	_ZN6tflite7testing14MultipleInputs4FreeEP13TfLiteContextPv:
  58              		.fnstart
  59              	.LFB6994:
  60              		@ args = 0, pretend = 0, frame = 0
  61              		@ frame_needed = 0, uses_anonymous_args = 0
  62              		@ link register save eliminated.
  63 0000 003000E3 		movw	r3, #:lower16:.LANCHOR1
  64 0004 0120A0E3 		mov	r2, #1
  65 0008 003040E3 		movt	r3, #:upper16:.LANCHOR1
  66 000c 0020C3E5 		strb	r2, [r3]
  67 0010 1EFF2FE1 		bx	lr
  68              		.cantunwind
  69              		.fnend
  71              		.section	.text._ZN6tflite7testing14MultipleInputs7PrepareEP13TfLiteContextP10TfLiteNode,"ax",%prog
  72              		.align	2
  73              		.global	_ZN6tflite7testing14MultipleInputs7PrepareEP13TfLiteContextP10TfLiteNode
  74              		.syntax unified
  75              		.arm
  76              		.fpu neon
  78              	_ZN6tflite7testing14MultipleInputs7PrepareEP13TfLiteContextP10TfLiteNode:
  79              		.fnstart
  80              	.LFB6995:
  81              		@ args = 0, pretend = 0, frame = 0
  82              		@ frame_needed = 0, uses_anonymous_args = 0
  83              		@ link register save eliminated.
  84 0000 0000A0E3 		mov	r0, #0
  85 0004 1EFF2FE1 		bx	lr
  86              		.cantunwind
  87              		.fnend
  89              		.section	.text._ZN6tflite7testing12_GLOBAL__N_114StackAllocatorD2Ev,"ax",%progbits
  90              		.align	2
  91              		.syntax unified
  92              		.arm
  93              		.fpu neon
  95              	_ZN6tflite7testing12_GLOBAL__N_114StackAllocatorD2Ev:
  96              		.fnstart
  97              	.LFB11427:
  98              		@ args = 0, pretend = 0, frame = 0
  99              		@ frame_needed = 0, uses_anonymous_args = 0
 100              		@ link register save eliminated.
 101 0000 1EFF2FE1 		bx	lr
 102              		.cantunwind
 103              		.fnend
 105              		.set	_ZN6tflite7testing12_GLOBAL__N_114StackAllocatorD1Ev,_ZN6tflite7testing12_GLOBAL__N_114StackA
 106              		.section	.text._ZN11flatbuffers16DefaultAllocatorD2Ev,"axG",%progbits,_ZN11flatbuffers16DefaultAll
 107              		.align	2
 108              		.weak	_ZN11flatbuffers16DefaultAllocatorD2Ev
 109              		.syntax unified
 110              		.arm
 111              		.fpu neon
 113              	_ZN11flatbuffers16DefaultAllocatorD2Ev:
 114              		.fnstart
 115              	.LFB11435:
 116              		@ args = 0, pretend = 0, frame = 0
 117              		@ frame_needed = 0, uses_anonymous_args = 0
 118              		@ link register save eliminated.
 119 0000 1EFF2FE1 		bx	lr
 120              		.cantunwind
 121              		.fnend
 123              		.weak	_ZN11flatbuffers16DefaultAllocatorD1Ev
 124              		.set	_ZN11flatbuffers16DefaultAllocatorD1Ev,_ZN11flatbuffers16DefaultAllocatorD2Ev
 125              		.section	.text._ZN6tflite7testing10MockCustom4InitEP13TfLiteContextPKcj,"ax",%progbits
 126              		.align	2
 127              		.global	_ZN6tflite7testing10MockCustom4InitEP13TfLiteContextPKcj
 128              		.syntax unified
 129              		.arm
 130              		.fpu neon
 132              	_ZN6tflite7testing10MockCustom4InitEP13TfLiteContextPKcj:
 133              		.fnstart
 134              	.LFB6987:
 135              		@ args = 0, pretend = 0, frame = 0
 136              		@ frame_needed = 0, uses_anonymous_args = 0
 137 0000 203090E5 		ldr	r3, [r0, #32]
 138 0004 000053E3 		cmp	r3, #0
 139 0008 0400001A 		bne	.L13
 140 000c 002000E3 		movw	r2, #:lower16:.LANCHOR0
 141 0010 0300A0E1 		mov	r0, r3
 142 0014 002040E3 		movt	r2, #:upper16:.LANCHOR0
 143 0018 0030C2E5 		strb	r3, [r2]
 144 001c 1EFF2FE1 		bx	lr
 145              	.L13:
 146 0020 10402DE9 		push	{r4, lr}
 147              		.save {r4, lr}
 148 0024 FEFFFFEB 		bl	abort
 149              		.fnend
 151              		.section	.text._ZN6tflite7testing14MultipleInputs4InitEP13TfLiteContextPKcj,"ax",%progbits
 152              		.align	2
 153              		.global	_ZN6tflite7testing14MultipleInputs4InitEP13TfLiteContextPKcj
 154              		.syntax unified
 155              		.arm
 156              		.fpu neon
 158              	_ZN6tflite7testing14MultipleInputs4InitEP13TfLiteContextPKcj:
 159              		.fnstart
 160              	.LFB6993:
 161              		@ args = 0, pretend = 0, frame = 0
 162              		@ frame_needed = 0, uses_anonymous_args = 0
 163 0000 203090E5 		ldr	r3, [r0, #32]
 164 0004 000053E3 		cmp	r3, #0
 165 0008 0400001A 		bne	.L19
 166 000c 002000E3 		movw	r2, #:lower16:.LANCHOR1
 167 0010 0300A0E1 		mov	r0, r3
 168 0014 002040E3 		movt	r2, #:upper16:.LANCHOR1
 169 0018 0030C2E5 		strb	r3, [r2]
 170 001c 1EFF2FE1 		bx	lr
 171              	.L19:
 172 0020 10402DE9 		push	{r4, lr}
 173              		.save {r4, lr}
 174 0024 FEFFFFEB 		bl	abort
 175              		.fnend
 177              		.section	.text._ZN6tflite7testing12_GLOBAL__N_114StackAllocator8allocateEj,"ax",%progbits
 178              		.align	2
 179              		.syntax unified
 180              		.arm
 181              		.fpu neon
 183              	_ZN6tflite7testing12_GLOBAL__N_114StackAllocator8allocateEj:
 184              		.fnstart
 185              	.LFB6953:
 186              		@ args = 0, pretend = 0, frame = 0
 187              		@ frame_needed = 0, uses_anonymous_args = 0
 188 0000 022A80E2 		add	r2, r0, #8192
 189 0004 083092E5 		ldr	r3, [r2, #8]
 190 0008 033081E0 		add	r3, r1, r3
 191 000c 020A53E3 		cmp	r3, #8192
 192 0010 0400008A 		bhi	.L25
 193 0014 040092E5 		ldr	r0, [r2, #4]
 194 0018 083082E5 		str	r3, [r2, #8]
 195 001c 011080E0 		add	r1, r0, r1
 196 0020 041082E5 		str	r1, [r2, #4]
 197 0024 1EFF2FE1 		bx	lr
 198              	.L25:
 199 0028 10402DE9 		push	{r4, lr}
 200              		.save {r4, lr}
 201 002c FEFFFFEB 		bl	abort
 202              		.fnend
 204              		.section	.text._ZN6tflite7testing16SimpleStatefulOp4InitEP13TfLiteContextPKcj,"ax",%progbits
 205              		.align	2
 206              		.global	_ZN6tflite7testing16SimpleStatefulOp4InitEP13TfLiteContextPKcj
 207              		.syntax unified
 208              		.arm
 209              		.fpu neon
 211              	_ZN6tflite7testing16SimpleStatefulOp4InitEP13TfLiteContextPKcj:
 212              		.fnstart
 213              	.LFB6979:
 214              		@ args = 0, pretend = 0, frame = 0
 215              		@ frame_needed = 0, uses_anonymous_args = 0
 216 0000 3C2090E5 		ldr	r2, [r0, #60]
 217 0004 10402DE9 		push	{r4, lr}
 218              		.save {r4, lr}
 219 0008 000052E3 		cmp	r2, #0
 220 000c 0B00001A 		bne	.L28
 221 0010 442090E5 		ldr	r2, [r0, #68]
 222 0014 000052E3 		cmp	r2, #0
 223 0018 0800001A 		bne	.L28
 224 001c 404090E5 		ldr	r4, [r0, #64]
 225 0020 000054E3 		cmp	r4, #0
 226 0024 0500001A 		bne	.L28
 227 0028 383090E5 		ldr	r3, [r0, #56]
 228 002c 0810A0E3 		mov	r1, #8
 229 0030 33FF2FE1 		blx	r3
 230 0034 004080E5 		str	r4, [r0]
 231 0038 044080E5 		str	r4, [r0, #4]
 232 003c 1080BDE8 		pop	{r4, pc}
 233              	.L28:
 234 0040 FEFFFFEB 		bl	abort
 235              		.fnend
 237              		.section	.text._ZN6tflite7testing16SimpleStatefulOp7PrepareEP13TfLiteContextP10TfLiteNode,"ax",%pr
 238              		.align	2
 239              		.global	_ZN6tflite7testing16SimpleStatefulOp7PrepareEP13TfLiteContextP10TfLiteNode
 240              		.syntax unified
 241              		.arm
 242              		.fpu neon
 244              	_ZN6tflite7testing16SimpleStatefulOp7PrepareEP13TfLiteContextP10TfLiteNode:
 245              		.fnstart
 246              	.LFB6983:
 247              		@ args = 0, pretend = 0, frame = 32
 248              		@ frame_needed = 0, uses_anonymous_args = 0
 249 0000 10C091E5 		ldr	ip, [r1, #16]
 250 0004 0020A0E3 		mov	r2, #0
 251 0008 F04F2DE9 		push	{r4, r5, r6, r7, r8, r9, r10, fp, lr}
 252              		.save {r4, r5, r6, r7, r8, r9, r10, fp, lr}
 253              		.pad #36
 254 000c 24D04DE2 		sub	sp, sp, #36
 255 0010 1C308DE2 		add	r3, sp, #28
 256 0014 04008DE5 		str	r0, [sp, #4]
 257 0018 08C08DE5 		str	ip, [sp, #8]
 258 001c FEFFFFEB 		bl	_ZN6tflite12GetInputSafeEPK13TfLiteContextPK10TfLiteNodeiPPK12TfLiteTensor
 259 0020 000050E3 		cmp	r0, #0
 260 0024 0400001A 		bne	.L53
 261 0028 1C309DE5 		ldr	r3, [sp, #28]
 262 002c 0020D3E5 		ldrb	r2, [r3]	@ zero_extendqisi2
 263 0030 030052E3 		cmp	r2, #3
 264 0034 0200000A 		beq	.L56
 265              	.L48:
 266 0038 0100A0E3 		mov	r0, #1
 267              	.L53:
 268 003c 24D08DE2 		add	sp, sp, #36
 269              		@ sp needed
 270 0040 F08FBDE8 		pop	{r4, r5, r6, r7, r8, r9, r10, fp, pc}
 271              	.L56:
 272 0044 083093E5 		ldr	r3, [r3, #8]
 273 0048 00B093E5 		ldr	fp, [r3]
 274 004c 0320A0E1 		mov	r2, r3
 275 0050 0C308DE5 		str	r3, [sp, #12]
 276 0054 00005BE3 		cmp	fp, #0
 277 0058 BA0000DA 		ble	.L32
 278 005c 08005BE3 		cmp	fp, #8
 279 0060 B40000DA 		ble	.L46
 280 0064 09304BE2 		sub	r3, fp, #9
 281 0068 0080A0E1 		mov	r8, r0
 282 006c 0730C3E3 		bic	r3, r3, #7
 283 0070 A4E082E2 		add	lr, r2, #164
 284 0074 083083E2 		add	r3, r3, #8
 285 0078 0140A0E3 		mov	r4, #1
 286 007c 0050A0E3 		mov	r5, #0
 287 0080 0390A0E1 		mov	r9, r3
 288 0084 10B08DE5 		str	fp, [sp, #16]
 289              	.L34:
 290 0088 A0201EE5 		ldr	r2, [lr, #-160]
 291 008c 088088E2 		add	r8, r8, #8
 292 0090 9CC01EE5 		ldr	ip, [lr, #-156]
 293 0094 090058E1 		cmp	r8, r9
 294 0098 98601EE5 		ldr	r6, [lr, #-152]
 295 009c 94001EE5 		ldr	r0, [lr, #-148]
 296 00a0 920501E0 		mul	r1, r2, r5
 297 00a4 C2BFA0E1 		asr	fp, r2, #31
 298 00a8 00F0DEF5 		pld	[lr]
 299 00ac 20E08EE2 		add	lr, lr, #32
 300 00b0 922483E0 		umull	r2, r3, r2, r4
 301 00b4 941B21E0 		mla	r1, r4, fp, r1
 302 00b8 CCBFA0E1 		asr	fp, ip, #31
 303 00bc 9C4285E0 		umull	r4, r5, ip, r2
 304 00c0 033081E0 		add	r3, r1, r3
 305 00c4 B0101EE5 		ldr	r1, [lr, #-176]
 306 00c8 9C0307E0 		mul	r7, ip, r3
 307 00cc C63FA0E1 		asr	r3, r6, #31
 308 00d0 927B27E0 		mla	r7, r2, fp, r7
 309 00d4 AC201EE5 		ldr	r2, [lr, #-172]
 310 00d8 C0BFA0E1 		asr	fp, r0, #31
 311 00dc 055087E0 		add	r5, r7, r5
 312 00e0 96050CE0 		mul	ip, r6, r5
 313 00e4 C15FA0E1 		asr	r5, r1, #31
 314 00e8 966487E0 		umull	r6, r7, r6, r4
 315 00ec 94C32CE0 		mla	ip, r4, r3, ip
 316 00f0 A8301EE5 		ldr	r3, [lr, #-168]
 317 00f4 A4401EE5 		ldr	r4, [lr, #-164]
 318 00f8 03A0A0E1 		mov	r10, r3
 319 00fc 07708CE0 		add	r7, ip, r7
 320 0100 90070CE0 		mul	ip, r0, r7
 321 0104 96CB2CE0 		mla	ip, r6, fp, ip
 322 0108 906687E0 		umull	r6, r7, r0, r6
 323 010c C3BFA0E1 		asr	fp, r3, #31
 324 0110 07708CE0 		add	r7, ip, r7
 325 0114 91070CE0 		mul	ip, r1, r7
 326 0118 C27FA0E1 		asr	r7, r2, #31
 327 011c 910681E0 		umull	r0, r1, r1, r6
 328 0120 96C52CE0 		mla	ip, r6, r5, ip
 329 0124 01108CE0 		add	r1, ip, r1
 330 0128 92010CE0 		mul	ip, r2, r1
 331 012c 90C72CE0 		mla	ip, r0, r7, ip
 332 0130 920081E0 		umull	r0, r1, r2, r0
 333 0134 C47FA0E1 		asr	r7, r4, #31
 334 0138 01108CE0 		add	r1, ip, r1
 335 013c 930102E0 		mul	r2, r3, r1
 336 0140 902B22E0 		mla	r2, r0, fp, r2
 337 0144 930081E0 		umull	r0, r1, r3, r0
 338 0148 011082E0 		add	r1, r2, r1
 339 014c 940103E0 		mul	r3, r4, r1
 340 0150 944085E0 		umull	r4, r5, r4, r0
 341 0154 903720E0 		mla	r0, r0, r7, r3
 342 0158 055080E0 		add	r5, r0, r5
 343 015c C9FFFF1A 		bne	.L34
 344 0160 10B09DE5 		ldr	fp, [sp, #16]
 345 0164 0C309DE5 		ldr	r3, [sp, #12]
 346              	.L33:
 347 0168 018088E2 		add	r8, r8, #1
 348 016c 080183E0 		add	r0, r3, r8, lsl #2
 349              	.L36:
 350 0170 042090E4 		ldr	r2, [r0], #4
 351 0174 08005BE1 		cmp	fp, r8
 352 0178 018088E2 		add	r8, r8, #1
 353 017c C27FA0E1 		asr	r7, r2, #31
 354 0180 940703E0 		mul	r3, r4, r7
 355 0184 923523E0 		mla	r3, r2, r5, r3
 356 0188 944285E0 		umull	r4, r5, r4, r2
 357 018c 055083E0 		add	r5, r3, r5
 358 0190 F6FFFFCA 		bgt	.L36
 359 0194 053094E1 		orrs	r3, r4, r5
 360 0198 A6FFFF0A 		beq	.L48
 361 019c 04309DE5 		ldr	r3, [sp, #4]
 362 01a0 08005BE3 		cmp	fp, #8
 363 01a4 0180A0D3 		movle	r8, #1
 364 01a8 0090A0D3 		movle	r9, #0
 365 01ac 00A0A0D3 		movle	r10, #0
 366 01b0 403093E5 		ldr	r3, [r3, #64]
 367 01b4 10308DE5 		str	r3, [sp, #16]
 368 01b8 3F0000DA 		ble	.L40
 369 01bc 09304BE2 		sub	r3, fp, #9
 370 01c0 0C209DE5 		ldr	r2, [sp, #12]
 371 01c4 0730C3E3 		bic	r3, r3, #7
 372 01c8 14B08DE5 		str	fp, [sp, #20]
 373 01cc 083083E2 		add	r3, r3, #8
 374 01d0 0180A0E3 		mov	r8, #1
 375 01d4 A4E082E2 		add	lr, r2, #164
 376 01d8 0090A0E3 		mov	r9, #0
 377 01dc 00A0A0E3 		mov	r10, #0
 378 01e0 03B0A0E1 		mov	fp, r3
 379              	.L39:
 380 01e4 A0601EE5 		ldr	r6, [lr, #-160]
 381 01e8 08A08AE2 		add	r10, r10, #8
 382 01ec 9CC01EE5 		ldr	ip, [lr, #-156]
 383 01f0 0B005AE1 		cmp	r10, fp
 384 01f4 98401EE5 		ldr	r4, [lr, #-152]
 385 01f8 94001EE5 		ldr	r0, [lr, #-148]
 386 01fc 960905E0 		mul	r5, r6, r9
 387 0200 C61FA0E1 		asr	r1, r6, #31
 388 0204 CC7FA0E1 		asr	r7, ip, #31
 389 0208 00F0DEF5 		pld	[lr]
 390 020c 962883E0 		umull	r2, r3, r6, r8
 391 0210 20E08EE2 		add	lr, lr, #32
 392 0214 985125E0 		mla	r5, r8, r1, r5
 393 0218 B0101EE5 		ldr	r1, [lr, #-176]
 394 021c A4801EE5 		ldr	r8, [lr, #-164]
 395 0220 033085E0 		add	r3, r5, r3
 396 0224 9C0305E0 		mul	r5, ip, r3
 397 0228 C43FA0E1 		asr	r3, r4, #31
 398 022c 925725E0 		mla	r5, r2, r7, r5
 399 0230 9C6287E0 		umull	r6, r7, ip, r2
 400 0234 AC201EE5 		ldr	r2, [lr, #-172]
 401 0238 077085E0 		add	r7, r5, r7
 402 023c 94070CE0 		mul	ip, r4, r7
 403 0240 C07FA0E1 		asr	r7, r0, #31
 404 0244 944685E0 		umull	r4, r5, r4, r6
 405 0248 96C32CE0 		mla	ip, r6, r3, ip
 406 024c A8301EE5 		ldr	r3, [lr, #-168]
 407 0250 05508CE0 		add	r5, ip, r5
 408 0254 90050CE0 		mul	ip, r0, r5
 409 0258 94C72CE0 		mla	ip, r4, r7, ip
 410 025c 904485E0 		umull	r4, r5, r0, r4
 411 0260 C17FA0E1 		asr	r7, r1, #31
 412 0264 05508CE0 		add	r5, ip, r5
 413 0268 91050CE0 		mul	ip, r1, r5
 414 026c C25FA0E1 		asr	r5, r2, #31
 415 0270 910481E0 		umull	r0, r1, r1, r4
 416 0274 94C72CE0 		mla	ip, r4, r7, ip
 417 0278 C37FA0E1 		asr	r7, r3, #31
 418 027c 01108CE0 		add	r1, ip, r1
 419 0280 92010CE0 		mul	ip, r2, r1
 420 0284 90C52CE0 		mla	ip, r0, r5, ip
 421 0288 920081E0 		umull	r0, r1, r2, r0
 422 028c C85FA0E1 		asr	r5, r8, #31
 423 0290 01108CE0 		add	r1, ip, r1
 424 0294 930102E0 		mul	r2, r3, r1
 425 0298 902722E0 		mla	r2, r0, r7, r2
 426 029c 930081E0 		umull	r0, r1, r3, r0
 427 02a0 011082E0 		add	r1, r2, r1
 428 02a4 980103E0 		mul	r3, r8, r1
 429 02a8 988089E0 		umull	r8, r9, r8, r0
 430 02ac 903520E0 		mla	r0, r0, r5, r3
 431 02b0 099080E0 		add	r9, r0, r9
 432 02b4 CAFFFF1A 		bne	.L39
 433 02b8 14B09DE5 		ldr	fp, [sp, #20]
 434              	.L40:
 435 02bc 0C309DE5 		ldr	r3, [sp, #12]
 436 02c0 01A08AE2 		add	r10, r10, #1
 437 02c4 0A0183E0 		add	r0, r3, r10, lsl #2
 438              	.L38:
 439 02c8 042090E4 		ldr	r2, [r0], #4
 440 02cc 0B005AE1 		cmp	r10, fp
 441 02d0 01A08AE2 		add	r10, r10, #1
 442 02d4 C25FA0E1 		asr	r5, r2, #31
 443 02d8 980503E0 		mul	r3, r8, r5
 444 02dc 923923E0 		mla	r3, r2, r9, r3
 445 02e0 988289E0 		umull	r8, r9, r8, r2
 446 02e4 099083E0 		add	r9, r3, r9
 447 02e8 F6FFFFBA 		blt	.L38
 448 02ec 0810A0E1 		mov	r1, r8
 449              	.L41:
 450 02f0 08309DE5 		ldr	r3, [sp, #8]
 451 02f4 04009DE5 		ldr	r0, [sp, #4]
 452 02f8 042083E2 		add	r2, r3, #4
 453 02fc 10309DE5 		ldr	r3, [sp, #16]
 454 0300 33FF2FE1 		blx	r3
 455 0304 004050E2 		subs	r4, r0, #0
 456 0308 0400A011 		movne	r0, r4
 457 030c 4AFFFF1A 		bne	.L53
 458 0310 04009DE5 		ldr	r0, [sp, #4]
 459 0314 0410A0E3 		mov	r1, #4
 460 0318 383090E5 		ldr	r3, [r0, #56]
 461 031c 33FF2FE1 		blx	r3
 462 0320 08209DE5 		ldr	r2, [sp, #8]
 463 0324 0030A0E1 		mov	r3, r0
 464 0328 000082E5 		str	r0, [r2]
 465 032c 0400A0E1 		mov	r0, r4
 466 0330 004083E5 		str	r4, [r3]
 467 0334 40FFFFEA 		b	.L53
 468              	.L46:
 469 0338 0080A0E1 		mov	r8, r0
 470 033c 0140A0E3 		mov	r4, #1
 471 0340 0050A0E3 		mov	r5, #0
 472 0344 87FFFFEA 		b	.L33
 473              	.L32:
 474 0348 04309DE5 		ldr	r3, [sp, #4]
 475 034c 0110A0E3 		mov	r1, #1
 476 0350 403093E5 		ldr	r3, [r3, #64]
 477 0354 10308DE5 		str	r3, [sp, #16]
 478 0358 E4FFFFEA 		b	.L41
 479              		.fnend
 481              		.section	.text._ZN6tflite7testing10MockCustom6InvokeEP13TfLiteContextP10TfLiteNode,"ax",%progbits
 482              		.align	2
 483              		.global	_ZN6tflite7testing10MockCustom6InvokeEP13TfLiteContextP10TfLiteNode
 484              		.syntax unified
 485              		.arm
 486              		.fpu neon
 488              	_ZN6tflite7testing10MockCustom6InvokeEP13TfLiteContextP10TfLiteNode:
 489              		.fnstart
 490              	.LFB6990:
 491              		@ args = 0, pretend = 0, frame = 16
 492              		@ frame_needed = 0, uses_anonymous_args = 0
 493 0000 70402DE9 		push	{r4, r5, r6, lr}
 494              		.save {r4, r5, r6, lr}
 495              		.pad #16
 496 0004 10D04DE2 		sub	sp, sp, #16
 497 0008 04308DE2 		add	r3, sp, #4
 498 000c 0020A0E3 		mov	r2, #0
 499 0010 0040A0E1 		mov	r4, r0
 500 0014 0150A0E1 		mov	r5, r1
 501 0018 FEFFFFEB 		bl	_ZN6tflite12GetInputSafeEPK13TfLiteContextPK10TfLiteNodeiPPK12TfLiteTensor
 502 001c 000050E3 		cmp	r0, #0
 503 0020 0100000A 		beq	.L63
 504              	.L58:
 505 0024 10D08DE2 		add	sp, sp, #16
 506              		@ sp needed
 507 0028 7080BDE8 		pop	{r4, r5, r6, pc}
 508              	.L63:
 509 002c 04C09DE5 		ldr	ip, [sp, #4]
 510 0030 0120A0E3 		mov	r2, #1
 511 0034 08308DE2 		add	r3, sp, #8
 512 0038 0510A0E1 		mov	r1, r5
 513 003c 0400A0E1 		mov	r0, r4
 514 0040 04609CE5 		ldr	r6, [ip, #4]
 515 0044 FEFFFFEB 		bl	_ZN6tflite12GetInputSafeEPK13TfLiteContextPK10TfLiteNodeiPPK12TfLiteTensor
 516 0048 002050E2 		subs	r2, r0, #0
 517 004c 0200A011 		movne	r0, r2
 518 0050 F3FFFF1A 		bne	.L58
 519 0054 08C09DE5 		ldr	ip, [sp, #8]
 520 0058 0510A0E1 		mov	r1, r5
 521 005c 0C308DE2 		add	r3, sp, #12
 522 0060 0400A0E1 		mov	r0, r4
 523 0064 04409CE5 		ldr	r4, [ip, #4]
 524 0068 FEFFFFEB 		bl	_ZN6tflite13GetOutputSafeEPK13TfLiteContextPK10TfLiteNodeiPP12TfLiteTensor
 525 006c 003050E2 		subs	r3, r0, #0
 526 0070 0C209D05 		ldreq	r2, [sp, #12]
 527 0074 0300A001 		moveq	r0, r3
 528 0078 0300A011 		movne	r0, r3
 529 007c 04209205 		ldreq	r2, [r2, #4]
 530 0080 00308205 		streq	r3, [r2]
 531 0084 0010D405 		ldrbeq	r1, [r4]	@ zero_extendqisi2
 532 0088 00309605 		ldreq	r3, [r6]
 533 008c 01308300 		addeq	r3, r3, r1
 534 0090 00308205 		streq	r3, [r2]
 535 0094 10D08DE2 		add	sp, sp, #16
 536              		@ sp needed
 537 0098 7080BDE8 		pop	{r4, r5, r6, pc}
 538              		.fnend
 540              		.section	.text._ZN6tflite7testing14MultipleInputs6InvokeEP13TfLiteContextP10TfLiteNode,"ax",%progb
 541              		.align	2
 542              		.global	_ZN6tflite7testing14MultipleInputs6InvokeEP13TfLiteContextP10TfLiteNode
 543              		.syntax unified
 544              		.arm
 545              		.fpu neon
 547              	_ZN6tflite7testing14MultipleInputs6InvokeEP13TfLiteContextP10TfLiteNode:
 548              		.fnstart
 549              	.LFB6996:
 550              		@ args = 0, pretend = 0, frame = 16
 551              		@ frame_needed = 0, uses_anonymous_args = 0
 552 0000 F0402DE9 		push	{r4, r5, r6, r7, lr}
 553              		.save {r4, r5, r6, r7, lr}
 554              		.pad #20
 555 0004 14D04DE2 		sub	sp, sp, #20
 556 0008 0D30A0E1 		mov	r3, sp
 557 000c 0020A0E3 		mov	r2, #0
 558 0010 0040A0E1 		mov	r4, r0
 559 0014 0150A0E1 		mov	r5, r1
 560 0018 FEFFFFEB 		bl	_ZN6tflite12GetInputSafeEPK13TfLiteContextPK10TfLiteNodeiPPK12TfLiteTensor
 561 001c 000050E3 		cmp	r0, #0
 562 0020 0100000A 		beq	.L71
 563              	.L65:
 564 0024 14D08DE2 		add	sp, sp, #20
 565              		@ sp needed
 566 0028 F080BDE8 		pop	{r4, r5, r6, r7, pc}
 567              	.L71:
 568 002c 00C09DE5 		ldr	ip, [sp]
 569 0030 04308DE2 		add	r3, sp, #4
 570 0034 0120A0E3 		mov	r2, #1
 571 0038 0510A0E1 		mov	r1, r5
 572 003c 0400A0E1 		mov	r0, r4
 573 0040 04609CE5 		ldr	r6, [ip, #4]
 574 0044 FEFFFFEB 		bl	_ZN6tflite12GetInputSafeEPK13TfLiteContextPK10TfLiteNodeiPPK12TfLiteTensor
 575 0048 000050E3 		cmp	r0, #0
 576 004c F4FFFF1A 		bne	.L65
 577 0050 04C09DE5 		ldr	ip, [sp, #4]
 578 0054 0220A0E3 		mov	r2, #2
 579 0058 08308DE2 		add	r3, sp, #8
 580 005c 0510A0E1 		mov	r1, r5
 581 0060 0400A0E1 		mov	r0, r4
 582 0064 04709CE5 		ldr	r7, [ip, #4]
 583 0068 FEFFFFEB 		bl	_ZN6tflite12GetInputSafeEPK13TfLiteContextPK10TfLiteNodeiPPK12TfLiteTensor
 584 006c 002050E2 		subs	r2, r0, #0
 585 0070 0200A011 		movne	r0, r2
 586 0074 EAFFFF1A 		bne	.L65
 587 0078 08C09DE5 		ldr	ip, [sp, #8]
 588 007c 0400A0E1 		mov	r0, r4
 589 0080 0C308DE2 		add	r3, sp, #12
 590 0084 0510A0E1 		mov	r1, r5
 591 0088 04409CE5 		ldr	r4, [ip, #4]
 592 008c FEFFFFEB 		bl	_ZN6tflite13GetOutputSafeEPK13TfLiteContextPK10TfLiteNodeiPP12TfLiteTensor
 593 0090 003050E2 		subs	r3, r0, #0
 594 0094 0300A011 		movne	r0, r3
 595 0098 E1FFFF1A 		bne	.L65
 596 009c 0C209DE5 		ldr	r2, [sp, #12]
 597 00a0 0300A0E1 		mov	r0, r3
 598 00a4 042092E5 		ldr	r2, [r2, #4]
 599 00a8 003082E5 		str	r3, [r2]
 600 00ac 003096E5 		ldr	r3, [r6]
 601 00b0 00C097E5 		ldr	ip, [r7]
 602 00b4 001094E5 		ldr	r1, [r4]
 603 00b8 0C3083E0 		add	r3, r3, ip
 604 00bc 013083E0 		add	r3, r3, r1
 605 00c0 003082E5 		str	r3, [r2]
 606 00c4 D6FFFFEA 		b	.L65
 607              		.fnend
 609              		.section	.text._ZN6tflite7testing16SimpleStatefulOp6InvokeEP13TfLiteContextP10TfLiteNode,"ax",%pro
 610              		.align	2
 611              		.global	_ZN6tflite7testing16SimpleStatefulOp6InvokeEP13TfLiteContextP10TfLiteNode
 612              		.syntax unified
 613              		.arm
 614              		.fpu neon
 616              	_ZN6tflite7testing16SimpleStatefulOp6InvokeEP13TfLiteContextP10TfLiteNode:
 617              		.fnstart
 618              	.LFB6984:
 619              		@ args = 0, pretend = 0, frame = 48
 620              		@ frame_needed = 0, uses_anonymous_args = 0
 621 0000 102091E5 		ldr	r2, [r1, #16]
 622 0004 F04F2DE9 		push	{r4, r5, r6, r7, r8, r9, r10, fp, lr}
 623              		.save {r4, r5, r6, r7, r8, r9, r10, fp, lr}
 624              		.pad #52
 625 0008 34D04DE2 		sub	sp, sp, #52
 626 000c 24308DE2 		add	r3, sp, #36
 627 0010 0C108DE5 		str	r1, [sp, #12]
 628 0014 02C0A0E1 		mov	ip, r2
 629 0018 00E09CE5 		ldr	lr, [ip]
 630 001c 10208DE5 		str	r2, [sp, #16]
 631 0020 0020A0E3 		mov	r2, #0
 632 0024 08008DE5 		str	r0, [sp, #8]
 633 0028 00C09EE5 		ldr	ip, [lr]
 634 002c 01C08CE2 		add	ip, ip, #1
 635 0030 00C08EE5 		str	ip, [lr]
 636 0034 FEFFFFEB 		bl	_ZN6tflite12GetInputSafeEPK13TfLiteContextPK10TfLiteNodeiPPK12TfLiteTensor
 637 0038 000050E3 		cmp	r0, #0
 638 003c F800001A 		bne	.L112
 639 0040 24309DE5 		ldr	r3, [sp, #36]
 640 0044 000053E3 		cmp	r3, #0
 641 0048 04209315 		ldrne	r2, [r3, #4]
 642 004c 14308D05 		streq	r3, [sp, #20]
 643 0050 083093E5 		ldr	r3, [r3, #8]
 644 0054 14208D15 		strne	r2, [sp, #20]
 645 0058 18308DE5 		str	r3, [sp, #24]
 646 005c 0320A0E1 		mov	r2, r3
 647 0060 003093E5 		ldr	r3, [r3]
 648 0064 000053E3 		cmp	r3, #0
 649 0068 1C308DE5 		str	r3, [sp, #28]
 650 006c FC0000DA 		ble	.L75
 651 0070 080053E3 		cmp	r3, #8
 652 0074 020100DA 		ble	.L99
 653 0078 093043E2 		sub	r3, r3, #9
 654 007c A4E082E2 		add	lr, r2, #164
 655 0080 0730C3E3 		bic	r3, r3, #7
 656 0084 01A0A0E3 		mov	r10, #1
 657 0088 00B0A0E3 		mov	fp, #0
 658 008c 0080A0E3 		mov	r8, #0
 659 0090 083083E2 		add	r3, r3, #8
 660 0094 04308DE5 		str	r3, [sp, #4]
 661              	.L77:
 662 0098 A0201EE5 		ldr	r2, [lr, #-160]
 663 009c 088088E2 		add	r8, r8, #8
 664 00a0 04309DE5 		ldr	r3, [sp, #4]
 665 00a4 9C401EE5 		ldr	r4, [lr, #-156]
 666 00a8 94001EE5 		ldr	r0, [lr, #-148]
 667 00ac 920B01E0 		mul	r1, r2, fp
 668 00b0 C27FA0E1 		asr	r7, r2, #31
 669 00b4 030058E1 		cmp	r8, r3
 670 00b8 00F0DEF5 		pld	[lr]
 671 00bc 922A83E0 		umull	r2, r3, r2, r10
 672 00c0 20E08EE2 		add	lr, lr, #32
 673 00c4 9A172AE0 		mla	r10, r10, r7, r1
 674 00c8 B8101EE5 		ldr	r1, [lr, #-184]
 675 00cc C47FA0E1 		asr	r7, r4, #31
 676 00d0 03308AE0 		add	r3, r10, r3
 677 00d4 A4A01EE5 		ldr	r10, [lr, #-164]
 678 00d8 94030CE0 		mul	ip, r4, r3
 679 00dc B0301EE5 		ldr	r3, [lr, #-176]
 680 00e0 944285E0 		umull	r4, r5, r4, r2
 681 00e4 92C72CE0 		mla	ip, r2, r7, ip
 682 00e8 AC201EE5 		ldr	r2, [lr, #-172]
 683 00ec C17FA0E1 		asr	r7, r1, #31
 684 00f0 05508CE0 		add	r5, ip, r5
 685 00f4 A8C01EE5 		ldr	ip, [lr, #-168]
 686 00f8 910509E0 		mul	r9, r1, r5
 687 00fc 949729E0 		mla	r9, r4, r7, r9
 688 0100 914485E0 		umull	r4, r5, r1, r4
 689 0104 C07FA0E1 		asr	r7, r0, #31
 690 0108 055089E0 		add	r5, r9, r5
 691 010c 900506E0 		mul	r6, r0, r5
 692 0110 C35FA0E1 		asr	r5, r3, #31
 693 0114 900481E0 		umull	r0, r1, r0, r4
 694 0118 946726E0 		mla	r6, r4, r7, r6
 695 011c C27FA0E1 		asr	r7, r2, #31
 696 0120 011086E0 		add	r1, r6, r1
 697 0124 930109E0 		mul	r9, r3, r1
 698 0128 909529E0 		mla	r9, r0, r5, r9
 699 012c 930081E0 		umull	r0, r1, r3, r0
 700 0130 CC5FA0E1 		asr	r5, ip, #31
 701 0134 011089E0 		add	r1, r9, r1
 702 0138 920104E0 		mul	r4, r2, r1
 703 013c CA1FA0E1 		asr	r1, r10, #31
 704 0140 922083E0 		umull	r2, r3, r2, r0
 705 0144 904724E0 		mla	r4, r0, r7, r4
 706 0148 033084E0 		add	r3, r4, r3
 707 014c 9C0300E0 		mul	r0, ip, r3
 708 0150 920520E0 		mla	r0, r2, r5, r0
 709 0154 9C2283E0 		umull	r2, r3, ip, r2
 710 0158 033080E0 		add	r3, r0, r3
 711 015c 9A030CE0 		mul	ip, r10, r3
 712 0160 9AA28BE0 		umull	r10, fp, r10, r2
 713 0164 92C122E0 		mla	r2, r2, r1, ip
 714 0168 0BB082E0 		add	fp, r2, fp
 715 016c C9FFFF1A 		bne	.L77
 716 0170 18309DE5 		ldr	r3, [sp, #24]
 717              	.L76:
 718 0174 018088E2 		add	r8, r8, #1
 719 0178 1C109DE5 		ldr	r1, [sp, #28]
 720 017c 080183E0 		add	r0, r3, r8, lsl #2
 721 0180 000000EA 		b	.L78
 722              	.L115:
 723 0184 018088E2 		add	r8, r8, #1
 724              	.L78:
 725 0188 042090E4 		ldr	r2, [r0], #4
 726 018c 080051E1 		cmp	r1, r8
 727 0190 C25FA0E1 		asr	r5, r2, #31
 728 0194 9A0503E0 		mul	r3, r10, r5
 729 0198 923B23E0 		mla	r3, r2, fp, r3
 730 019c 9AA28BE0 		umull	r10, fp, r10, r2
 731 01a0 0BB083E0 		add	fp, r3, fp
 732 01a4 F6FFFFCA 		bgt	.L115
 733 01a8 08009DE5 		ldr	r0, [sp, #8]
 734 01ac 0A50A0E1 		mov	r5, r10
 735 01b0 10209DE5 		ldr	r2, [sp, #16]
 736 01b4 443090E5 		ldr	r3, [r0, #68]
 737 01b8 041092E5 		ldr	r1, [r2, #4]
 738 01bc 33FF2FE1 		blx	r3
 739 01c0 00005AE3 		cmp	r10, #0
 740 01c4 0040A0E1 		mov	r4, r0
 741 01c8 790000DA 		ble	.L87
 742              	.L79:
 743 01cc 14109DE5 		ldr	r1, [sp, #20]
 744 01d0 103084E2 		add	r3, r4, #16
 745 01d4 102081E2 		add	r2, r1, #16
 746 01d8 020054E1 		cmp	r4, r2
 747 01dc 03005131 		cmpcc	r1, r3
 748 01e0 012084E1 		orr	r2, r4, r1
 749 01e4 0130A023 		movcs	r3, #1
 750 01e8 0030A033 		movcc	r3, #0
 751 01ec 0F0055E3 		cmp	r5, #15
 752 01f0 0030A093 		movls	r3, #0
 753 01f4 01300382 		andhi	r3, r3, #1
 754 01f8 0F0012E3 		tst	r2, #15
 755 01fc 0030A013 		movne	r3, #0
 756 0200 01300302 		andeq	r3, r3, #1
 757 0204 000053E3 		cmp	r3, #0
 758 0208 8B00000A 		beq	.L81
 759 020c 102045E2 		sub	r2, r5, #16
 760 0210 0F0055E3 		cmp	r5, #15
 761 0214 2222A0E1 		lsr	r2, r2, #4
 762 0218 012082E2 		add	r2, r2, #1
 763 021c 0232A0E1 		lsl	r3, r2, #4
 764 0220 8D0000DA 		ble	.L101
 765 0224 01C0A0E1 		mov	ip, r1
 766 0228 0400A0E1 		mov	r0, r4
 767 022c 0010A0E3 		mov	r1, #0
 768              	.L84:
 769 0230 011081E2 		add	r1, r1, #1
 770 0234 DF0A6CF4 		vld1.64	{d16-d17}, [ip:64]
 771 0238 010052E1 		cmp	r2, r1
 772 023c 10C08CE2 		add	ip, ip, #16
 773 0240 DF0A40F4 		vst1.64	{d16-d17}, [r0:64]
 774 0244 100080E2 		add	r0, r0, #16
 775 0248 F8FFFF8A 		bhi	.L84
 776 024c 050053E1 		cmp	r3, r5
 777 0250 4700000A 		beq	.L89
 778              	.L82:
 779 0254 14C09DE5 		ldr	ip, [sp, #20]
 780 0258 012083E2 		add	r2, r3, #1
 781 025c 050052E1 		cmp	r2, r5
 782 0260 0310DCE7 		ldrb	r1, [ip, r3]	@ zero_extendqisi2
 783 0264 0310C4E7 		strb	r1, [r4, r3]
 784 0268 410000AA 		bge	.L89
 785 026c 0200DCE7 		ldrb	r0, [ip, r2]	@ zero_extendqisi2
 786 0270 021083E2 		add	r1, r3, #2
 787 0274 010055E1 		cmp	r5, r1
 788 0278 0200C4E7 		strb	r0, [r4, r2]
 789 027c 3C0000DA 		ble	.L89
 790 0280 0100DCE7 		ldrb	r0, [ip, r1]	@ zero_extendqisi2
 791 0284 032083E2 		add	r2, r3, #3
 792 0288 020055E1 		cmp	r5, r2
 793 028c 0100C4E7 		strb	r0, [r4, r1]
 794 0290 370000DA 		ble	.L89
 795 0294 0200DCE7 		ldrb	r0, [ip, r2]	@ zero_extendqisi2
 796 0298 041083E2 		add	r1, r3, #4
 797 029c 010055E1 		cmp	r5, r1
 798 02a0 0200C4E7 		strb	r0, [r4, r2]
 799 02a4 320000DA 		ble	.L89
 800 02a8 0100DCE7 		ldrb	r0, [ip, r1]	@ zero_extendqisi2
 801 02ac 052083E2 		add	r2, r3, #5
 802 02b0 020055E1 		cmp	r5, r2
 803 02b4 0100C4E7 		strb	r0, [r4, r1]
 804 02b8 2D0000DA 		ble	.L89
 805 02bc 0200DCE7 		ldrb	r0, [ip, r2]	@ zero_extendqisi2
 806 02c0 061083E2 		add	r1, r3, #6
 807 02c4 010055E1 		cmp	r5, r1
 808 02c8 0200C4E7 		strb	r0, [r4, r2]
 809 02cc 280000DA 		ble	.L89
 810 02d0 0100DCE7 		ldrb	r0, [ip, r1]	@ zero_extendqisi2
 811 02d4 072083E2 		add	r2, r3, #7
 812 02d8 020055E1 		cmp	r5, r2
 813 02dc 0100C4E7 		strb	r0, [r4, r1]
 814 02e0 230000DA 		ble	.L89
 815 02e4 0200DCE7 		ldrb	r0, [ip, r2]	@ zero_extendqisi2
 816 02e8 081083E2 		add	r1, r3, #8
 817 02ec 010055E1 		cmp	r5, r1
 818 02f0 0200C4E7 		strb	r0, [r4, r2]
 819 02f4 1E0000DA 		ble	.L89
 820 02f8 0100DCE7 		ldrb	r0, [ip, r1]	@ zero_extendqisi2
 821 02fc 092083E2 		add	r2, r3, #9
 822 0300 020055E1 		cmp	r5, r2
 823 0304 0100C4E7 		strb	r0, [r4, r1]
 824 0308 190000DA 		ble	.L89
 825 030c 0200DCE7 		ldrb	r0, [ip, r2]	@ zero_extendqisi2
 826 0310 0A1083E2 		add	r1, r3, #10
 827 0314 010055E1 		cmp	r5, r1
 828 0318 0200C4E7 		strb	r0, [r4, r2]
 829 031c 140000DA 		ble	.L89
 830 0320 0100DCE7 		ldrb	r0, [ip, r1]	@ zero_extendqisi2
 831 0324 0B2083E2 		add	r2, r3, #11
 832 0328 020055E1 		cmp	r5, r2
 833 032c 0100C4E7 		strb	r0, [r4, r1]
 834 0330 0F0000DA 		ble	.L89
 835 0334 0200DCE7 		ldrb	r0, [ip, r2]	@ zero_extendqisi2
 836 0338 0C1083E2 		add	r1, r3, #12
 837 033c 010055E1 		cmp	r5, r1
 838 0340 0200C4E7 		strb	r0, [r4, r2]
 839 0344 0A0000DA 		ble	.L89
 840 0348 0100DCE7 		ldrb	r0, [ip, r1]	@ zero_extendqisi2
 841 034c 0D2083E2 		add	r2, r3, #13
 842 0350 020055E1 		cmp	r5, r2
 843 0354 0100C4E7 		strb	r0, [r4, r1]
 844 0358 050000DA 		ble	.L89
 845 035c 0E3083E2 		add	r3, r3, #14
 846 0360 0210DCE7 		ldrb	r1, [ip, r2]	@ zero_extendqisi2
 847 0364 030055E1 		cmp	r5, r3
 848 0368 0210C4E7 		strb	r1, [r4, r2]
 849 036c 0320DCC7 		ldrbgt	r2, [ip, r3]	@ zero_extendqisi2
 850 0370 0320C4C7 		strbgt	r2, [r4, r3]
 851              	.L89:
 852 0374 010055E3 		cmp	r5, #1
 853 0378 010084C2 		addgt	r0, r4, #1
 854 037c 05C084C0 		addgt	ip, r4, r5
 855 0380 0B0000DA 		ble	.L87
 856              	.L92:
 857 0384 0030A0E1 		mov	r3, r0
 858              	.L94:
 859 0388 0020D3E5 		ldrb	r2, [r3]	@ zero_extendqisi2
 860 038c 011053E5 		ldrb	r1, [r3, #-1]	@ zero_extendqisi2
 861 0390 010052E1 		cmp	r2, r1
 862 0394 030000AA 		bge	.L93
 863 0398 0010C3E5 		strb	r1, [r3]
 864 039c 012063E5 		strb	r2, [r3, #-1]!
 865 03a0 030054E1 		cmp	r4, r3
 866 03a4 F7FFFF1A 		bne	.L94
 867              	.L93:
 868 03a8 010080E2 		add	r0, r0, #1
 869 03ac 0C0050E1 		cmp	r0, ip
 870 03b0 F3FFFF1A 		bne	.L92
 871              	.L87:
 872 03b4 28308DE2 		add	r3, sp, #40
 873 03b8 0020A0E3 		mov	r2, #0
 874 03bc 0C109DE5 		ldr	r1, [sp, #12]
 875 03c0 08009DE5 		ldr	r0, [sp, #8]
 876 03c4 FEFFFFEB 		bl	_ZN6tflite13GetOutputSafeEPK13TfLiteContextPK10TfLiteNodeiPP12TfLiteTensor
 877 03c8 000050E3 		cmp	r0, #0
 878 03cc 1400001A 		bne	.L112
 879 03d0 28609DE5 		ldr	r6, [sp, #40]
 880 03d4 2C308DE2 		add	r3, sp, #44
 881 03d8 0C109DE5 		ldr	r1, [sp, #12]
 882 03dc 0120A0E3 		mov	r2, #1
 883 03e0 08009DE5 		ldr	r0, [sp, #8]
 884 03e4 000056E3 		cmp	r6, #0
 885 03e8 04609615 		ldrne	r6, [r6, #4]
 886 03ec FEFFFFEB 		bl	_ZN6tflite13GetOutputSafeEPK13TfLiteContextPK10TfLiteNodeiPP12TfLiteTensor
 887 03f0 000050E3 		cmp	r0, #0
 888 03f4 0A00001A 		bne	.L112
 889 03f8 2C309DE5 		ldr	r3, [sp, #44]
 890 03fc A55F85E0 		add	r5, r5, r5, lsr #31
 891 0400 000053E3 		cmp	r3, #0
 892 0404 0800000A 		beq	.L96
 893 0408 C520D4E7 		ldrb	r2, [r4, r5, asr #1]	@ zero_extendqisi2
 894 040c 043093E5 		ldr	r3, [r3, #4]
 895 0410 0020C6E5 		strb	r2, [r6]
 896 0414 10209DE5 		ldr	r2, [sp, #16]
 897 0418 002092E5 		ldr	r2, [r2]
 898 041c 002092E5 		ldr	r2, [r2]
 899 0420 002083E5 		str	r2, [r3]
 900              	.L112:
 901 0424 34D08DE2 		add	sp, sp, #52
 902              		@ sp needed
 903 0428 F08FBDE8 		pop	{r4, r5, r6, r7, r8, r9, r10, fp, pc}
 904              	.L96:
 905 042c C520D4E7 		ldrb	r2, [r4, r5, asr #1]	@ zero_extendqisi2
 906 0430 0020C6E5 		strb	r2, [r6]
 907 0434 003083E5 		str	r3, [r3]
 908 0438 F000F0E7 		.inst	0xe7f000f0
 909              	.L81:
 910 043c 011041E2 		sub	r1, r1, #1
 911 0440 012044E2 		sub	r2, r4, #1
 912              	.L90:
 913 0444 013083E2 		add	r3, r3, #1
 914 0448 0100F1E5 		ldrb	r0, [r1, #1]!	@ zero_extendqisi2
 915 044c 030055E1 		cmp	r5, r3
 916 0450 0100E2E5 		strb	r0, [r2, #1]!
 917 0454 FAFFFFCA 		bgt	.L90
 918 0458 C5FFFFEA 		b	.L89
 919              	.L101:
 920 045c 0030A0E3 		mov	r3, #0
 921 0460 7BFFFFEA 		b	.L82
 922              	.L75:
 923 0464 08009DE5 		ldr	r0, [sp, #8]
 924 0468 0150A0E3 		mov	r5, #1
 925 046c 10209DE5 		ldr	r2, [sp, #16]
 926 0470 443090E5 		ldr	r3, [r0, #68]
 927 0474 041092E5 		ldr	r1, [r2, #4]
 928 0478 33FF2FE1 		blx	r3
 929 047c 0040A0E1 		mov	r4, r0
 930 0480 51FFFFEA 		b	.L79
 931              	.L99:
 932 0484 01A0A0E3 		mov	r10, #1
 933 0488 00B0A0E3 		mov	fp, #0
 934 048c 0080A0E3 		mov	r8, #0
 935 0490 0230A0E1 		mov	r3, r2
 936 0494 36FFFFEA 		b	.L76
 937              		.fnend
 939              		.section	.text._ZNK6tflite22MicroMutableOpResolverILj128EE6FindOpEPKc,"axG",%progbits,_ZNK6tflite2
 940              		.align	2
 941              		.weak	_ZNK6tflite22MicroMutableOpResolverILj128EE6FindOpEPKc
 942              		.syntax unified
 943              		.arm
 944              		.fpu neon
 946              	_ZNK6tflite22MicroMutableOpResolverILj128EE6FindOpEPKc:
 947              		.fnstart
 948              	.LFB9538:
 949              		@ args = 0, pretend = 0, frame = 0
 950              		@ frame_needed = 0, uses_anonymous_args = 0
 951 0000 013A80E2 		add	r3, r0, #4096
 952 0004 F0412DE9 		push	{r4, r5, r6, r7, r8, lr}
 953 0008 046093E5 		ldr	r6, [r3, #4]
 954 000c 000056E3 		cmp	r6, #0
 955 0010 1300000A 		beq	.L123
 956 0014 0170A0E1 		mov	r7, r1
 957 0018 0080A0E1 		mov	r8, r0
 958 001c 0040A0E1 		mov	r4, r0
 959 0020 0050A0E3 		mov	r5, #0
 960 0024 030000EA 		b	.L119
 961              	.L118:
 962 0028 015085E2 		add	r5, r5, #1
 963 002c 204084E2 		add	r4, r4, #32
 964 0030 060055E1 		cmp	r5, r6
 965 0034 0A00000A 		beq	.L123
 966              	.L119:
 967 0038 183094E5 		ldr	r3, [r4, #24]
 968 003c 200053E3 		cmp	r3, #32
 969 0040 F8FFFF1A 		bne	.L118
 970 0044 0710A0E1 		mov	r1, r7
 971 0048 1C0094E5 		ldr	r0, [r4, #28]
 972 004c FEFFFFEB 		bl	strcmp
 973 0050 000050E3 		cmp	r0, #0
 974 0054 F3FFFF1A 		bne	.L118
 975 0058 850288E0 		add	r0, r8, r5, lsl #5
 976 005c 040080E2 		add	r0, r0, #4
 977 0060 F081BDE8 		pop	{r4, r5, r6, r7, r8, pc}
 978              	.L123:
 979 0064 0000A0E3 		mov	r0, #0
 980 0068 F081BDE8 		pop	{r4, r5, r6, r7, r8, pc}
 981              		.cantunwind
 982              		.fnend
 984              		.section	.text._ZN6tflite7testing12_GLOBAL__N_114StackAllocatorD0Ev,"ax",%progbits
 985              		.align	2
 986              		.syntax unified
 987              		.arm
 988              		.fpu neon
 990              	_ZN6tflite7testing12_GLOBAL__N_114StackAllocatorD0Ev:
 991              		.fnstart
 992              	.LFB11429:
 993              		@ args = 0, pretend = 0, frame = 0
 994              		@ frame_needed = 0, uses_anonymous_args = 0
 995 0000 10402DE9 		push	{r4, lr}
 996 0004 0040A0E1 		mov	r4, r0
 997 0008 FEFFFFEB 		bl	_ZdlPv
 998 000c 0400A0E1 		mov	r0, r4
 999 0010 1080BDE8 		pop	{r4, pc}
 1000              		.cantunwind
 1001              		.fnend
 1003              		.section	.text._ZN11flatbuffers16DefaultAllocatorD0Ev,"axG",%progbits,_ZN11flatbuffers16DefaultAll
 1004              		.align	2
 1005              		.weak	_ZN11flatbuffers16DefaultAllocatorD0Ev
 1006              		.syntax unified
 1007              		.arm
 1008              		.fpu neon
 1010              	_ZN11flatbuffers16DefaultAllocatorD0Ev:
 1011              		.fnstart
 1012              	.LFB11437:
 1013              		@ args = 0, pretend = 0, frame = 0
 1014              		@ frame_needed = 0, uses_anonymous_args = 0
 1015 0000 10402DE9 		push	{r4, lr}
 1016 0004 0040A0E1 		mov	r4, r0
 1017 0008 FEFFFFEB 		bl	_ZdlPv
 1018 000c 0400A0E1 		mov	r0, r4
 1019 0010 1080BDE8 		pop	{r4, pc}
 1020              		.cantunwind
 1021              		.fnend
 1023              		.section	.text._ZN6tflite7testing12_GLOBAL__N_115BuilderInstanceEv,"ax",%progbits
 1024              		.align	2
 1025              		.syntax unified
 1026              		.arm
 1027              		.fpu neon
 1029              	_ZN6tflite7testing12_GLOBAL__N_115BuilderInstanceEv:
 1030              		.fnstart
 1031              	.LFB6956:
 1032              		@ args = 0, pretend = 0, frame = 0
 1033              		@ frame_needed = 0, uses_anonymous_args = 0
 1034 0000 000000E3 		movw	r0, #:lower16:.LANCHOR4
 1035 0004 000040E3 		movt	r0, #:upper16:.LANCHOR4
 1036 0008 0030D0E5 		ldrb	r3, [r0]	@ zero_extendqisi2
 1037 000c 5BF07FF5 		dmb	ish
 1038 0010 010013E3 		tst	r3, #1
 1039 0014 0300000A 		beq	.L129
 1040 0018 003000E3 		movw	r3, #:lower16:.LANCHOR5
 1041 001c 003040E3 		movt	r3, #:upper16:.LANCHOR5
 1042 0020 000093E5 		ldr	r0, [r3]
 1043 0024 1EFF2FE1 		bx	lr
 1044              	.L129:
 1045 0028 70402DE9 		push	{r4, r5, r6, lr}
 1046 002c FEFFFFEB 		bl	__cxa_guard_acquire
 1047 0030 000050E3 		cmp	r0, #0
 1048 0034 0300001A 		bne	.L131
 1049 0038 003000E3 		movw	r3, #:lower16:.LANCHOR5
 1050 003c 003040E3 		movt	r3, #:upper16:.LANCHOR5
 1051 0040 000093E5 		ldr	r0, [r3]
 1052 0044 7080BDE8 		pop	{r4, r5, r6, pc}
 1053              	.L131:
 1054 0048 004000E3 		movw	r4, #:lower16:.LANCHOR6
 1055 004c 004040E3 		movt	r4, #:upper16:.LANCHOR6
 1056 0050 0030D4E5 		ldrb	r3, [r4]	@ zero_extendqisi2
 1057 0054 5BF07FF5 		dmb	ish
 1058 0058 015013E2 		ands	r5, r3, #1
 1059 005c 2000000A 		beq	.L139
 1060              	.L138:
 1061 0060 003000E3 		movw	r3, #:lower16:.LANCHOR7
 1062 0064 003040E3 		movt	r3, #:upper16:.LANCHOR7
 1063 0068 001093E5 		ldr	r1, [r3]
 1064              	.L133:
 1065 006c 004000E3 		movw	r4, #:lower16:.LANCHOR3
 1066 0070 0030A0E3 		mov	r3, #0
 1067 0074 004040E3 		movt	r4, #:upper16:.LANCHOR3
 1068 0078 01C0A0E3 		mov	ip, #1
 1069 007c 08E0A0E3 		mov	lr, #8
 1070 0080 025AA0E3 		mov	r5, #8192
 1071 0084 002000E3 		movw	r2, #:lower16:.LANCHOR5
 1072 0088 000000E3 		movw	r0, #:lower16:.LANCHOR4
 1073 008c 002040E3 		movt	r2, #:upper16:.LANCHOR5
 1074 0090 000040E3 		movt	r0, #:upper16:.LANCHOR4
 1075 0094 001084E5 		str	r1, [r4]
 1076 0098 085084E5 		str	r5, [r4, #8]
 1077 009c 0CE084E5 		str	lr, [r4, #12]
 1078 00a0 0430C4E5 		strb	r3, [r4, #4]
 1079 00a4 103084E5 		str	r3, [r4, #16]
 1080 00a8 143084E5 		str	r3, [r4, #20]
 1081 00ac 183084E5 		str	r3, [r4, #24]
 1082 00b0 1C3084E5 		str	r3, [r4, #28]
 1083 00b4 203084E5 		str	r3, [r4, #32]
 1084 00b8 B432C4E1 		strh	r3, [r4, #36]	@ movhi
 1085 00bc 2630C4E5 		strb	r3, [r4, #38]
 1086 00c0 2730C4E5 		strb	r3, [r4, #39]
 1087 00c4 2C30C4E5 		strb	r3, [r4, #44]
 1088 00c8 303084E5 		str	r3, [r4, #48]
 1089 00cc 28C084E5 		str	ip, [r4, #40]
 1090 00d0 2DC0C4E5 		strb	ip, [r4, #45]
 1091 00d4 004082E5 		str	r4, [r2]
 1092 00d8 FEFFFFEB 		bl	__cxa_guard_release
 1093 00dc 0400A0E1 		mov	r0, r4
 1094 00e0 7080BDE8 		pop	{r4, r5, r6, pc}
 1095              	.L139:
 1096 00e4 0400A0E1 		mov	r0, r4
 1097 00e8 FEFFFFEB 		bl	__cxa_guard_acquire
 1098 00ec 000050E3 		cmp	r0, #0
 1099 00f0 DAFFFF0A 		beq	.L138
 1100 00f4 006000E3 		movw	r6, #:lower16:.LANCHOR2
 1101 00f8 2CC09FE5 		ldr	ip, .L140
 1102 00fc 006040E3 		movt	r6, #:upper16:.LANCHOR2
 1103 0100 003000E3 		movw	r3, #:lower16:.LANCHOR7
 1104 0104 041086E2 		add	r1, r6, #4
 1105 0108 022A86E2 		add	r2, r6, #8192
 1106 010c 003040E3 		movt	r3, #:upper16:.LANCHOR7
 1107 0110 220082E9 		stmib	r2, {r1, r5}
 1108 0114 0400A0E1 		mov	r0, r4
 1109 0118 00C086E5 		str	ip, [r6]
 1110 011c 006083E5 		str	r6, [r3]
 1111 0120 FEFFFFEB 		bl	__cxa_guard_release
 1112 0124 0610A0E1 		mov	r1, r6
 1113 0128 CFFFFFEA 		b	.L133
 1114              	.L141:
 1115              		.align	2
 1116              	.L140:
 1117 012c 08000000 		.word	.LANCHOR8+8
 1118              		.cantunwind
 1119              		.fnend
 1121              		.section	.text._ZN11flatbuffers16DefaultAllocator8allocateEj,"axG",%progbits,_ZN11flatbuffers16Def
 1122              		.align	2
 1123              		.weak	_ZN11flatbuffers16DefaultAllocator8allocateEj
 1124              		.syntax unified
 1125              		.arm
 1126              		.fpu neon
 1128              	_ZN11flatbuffers16DefaultAllocator8allocateEj:
 1129              		.fnstart
 1130              	.LFB3432:
 1131              		@ args = 0, pretend = 0, frame = 0
 1132              		@ frame_needed = 0, uses_anonymous_args = 0
 1133              		@ link register save eliminated.
 1134 0000 0100A0E1 		mov	r0, r1
 1135 0004 FEFFFFEA 		b	_Znaj
 1136              		.cantunwind
 1137              		.fnend
 1139              		.section	.text._ZN11flatbuffers16DefaultAllocator10deallocateEPhj,"axG",%progbits,_ZN11flatbuffers
 1140              		.align	2
 1141              		.weak	_ZN11flatbuffers16DefaultAllocator10deallocateEPhj
 1142              		.syntax unified
 1143              		.arm
 1144              		.fpu neon
 1146              	_ZN11flatbuffers16DefaultAllocator10deallocateEPhj:
 1147              		.fnstart
 1148              	.LFB3433:
 1149              		@ args = 0, pretend = 0, frame = 0
 1150              		@ frame_needed = 0, uses_anonymous_args = 0
 1151              		@ link register save eliminated.
 1152 0000 000051E2 		subs	r0, r1, #0
 1153 0004 1EFF2F01 		bxeq	lr
 1154 0008 FEFFFFEA 		b	_ZdaPv
 1155              		.cantunwind
 1156              		.fnend
 1158              		.section	.text._ZN11flatbuffers9Allocator19reallocate_downwardEPhjjjj,"axG",%progbits,_ZN11flatbuf
 1159              		.align	2
 1160              		.weak	_ZN11flatbuffers9Allocator19reallocate_downwardEPhjjjj
 1161              		.syntax unified
 1162              		.arm
 1163              		.fpu neon
 1165              	_ZN11flatbuffers9Allocator19reallocate_downwardEPhjjjj:
 1166              		.fnstart
 1167              	.LFB3430:
 1168              		@ args = 8, pretend = 0, frame = 0
 1169              		@ frame_needed = 0, uses_anonymous_args = 0
 1170 0000 020053E1 		cmp	r3, r2
 1171 0004 F0472DE9 		push	{r4, r5, r6, r7, r8, r9, r10, lr}
 1172              		.save {r4, r5, r6, r7, r8, r9, r10, lr}
 1173 0008 20809DE5 		ldr	r8, [sp, #32]
 1174 000c 1A00009A 		bls	.L148
 1175 0010 0340A0E1 		mov	r4, r3
 1176 0014 003090E5 		ldr	r3, [r0]
 1177 0018 0250A0E1 		mov	r5, r2
 1178 001c 0170A0E1 		mov	r7, r1
 1179 0020 0410A0E1 		mov	r1, r4
 1180 0024 0060A0E1 		mov	r6, r0
 1181 0028 083093E5 		ldr	r3, [r3, #8]
 1182 002c 33FF2FE1 		blx	r3
 1183 0030 081045E0 		sub	r1, r5, r8
 1184 0034 0090A0E1 		mov	r9, r0
 1185 0038 080044E0 		sub	r0, r4, r8
 1186 003c 011087E0 		add	r1, r7, r1
 1187 0040 0820A0E1 		mov	r2, r8
 1188 0044 000089E0 		add	r0, r9, r0
 1189 0048 FEFFFFEB 		bl	memcpy
 1190 004c 24209DE5 		ldr	r2, [sp, #36]
 1191 0050 0710A0E1 		mov	r1, r7
 1192 0054 0900A0E1 		mov	r0, r9
 1193 0058 FEFFFFEB 		bl	memcpy
 1194 005c 003096E5 		ldr	r3, [r6]
 1195 0060 0600A0E1 		mov	r0, r6
 1196 0064 0520A0E1 		mov	r2, r5
 1197 0068 0710A0E1 		mov	r1, r7
 1198 006c 0C3093E5 		ldr	r3, [r3, #12]
 1199 0070 33FF2FE1 		blx	r3
 1200 0074 0900A0E1 		mov	r0, r9
 1201 0078 F087BDE8 		pop	{r4, r5, r6, r7, r8, r9, r10, pc}
 1202              	.L148:
 1203 007c 003000E3 		movw	r3, #:lower16:.LC18
 1204 0080 002000E3 		movw	r2, #:lower16:.LANCHOR9
 1205 0084 000000E3 		movw	r0, #:lower16:.LC19
 1206 0088 003040E3 		movt	r3, #:upper16:.LC18
 1207 008c 002040E3 		movt	r2, #:upper16:.LANCHOR9
 1208 0090 000040E3 		movt	r0, #:upper16:.LC19
 1209 0094 691200E3 		movw	r1, #617
 1210 0098 FEFFFFEB 		bl	__assert_func
 1211              		.fnend
 1213              		.section	.text.unlikely._ZNK11flatbuffers15vector_downward4dataEv.isra.9.part.10,"ax",%progbits
 1214              		.align	2
 1215              		.syntax unified
 1216              		.arm
 1217              		.fpu neon
 1219              	_ZNK11flatbuffers15vector_downward4dataEv.isra.9.part.10:
 1220              		.fnstart
 1221              	.LFB11458:
 1222              		@ args = 0, pretend = 0, frame = 0
 1223              		@ frame_needed = 0, uses_anonymous_args = 0
 1224 0000 003000E3 		movw	r3, #:lower16:.LC20
 1225 0004 002000E3 		movw	r2, #:lower16:.LANCHOR10
 1226 0008 000000E3 		movw	r0, #:lower16:.LC19
 1227 000c 10402DE9 		push	{r4, lr}
 1228              		.save {r4, lr}
 1229 0010 003040E3 		movt	r3, #:upper16:.LC20
 1230 0014 002040E3 		movt	r2, #:upper16:.LANCHOR10
 1231 0018 000040E3 		movt	r0, #:upper16:.LC19
 1232 001c B21300E3 		movw	r1, #946
 1233 0020 FEFFFFEB 		bl	__assert_func
 1234              		.fnend
 1236              		.section	.text.unlikely._ZN11flatbuffers17FlatBufferBuilder9NotNestedEv.isra.19.part.20,"ax",%prog
 1237              		.align	2
 1238              		.syntax unified
 1239              		.arm
 1240              		.fpu neon
 1242              	_ZN11flatbuffers17FlatBufferBuilder9NotNestedEv.isra.19.part.20:
 1243              		.fnstart
 1244              	.LFB11468:
 1245              		@ args = 0, pretend = 0, frame = 0
 1246              		@ frame_needed = 0, uses_anonymous_args = 0
 1247 0000 003000E3 		movw	r3, #:lower16:.LC21
 1248 0004 002000E3 		movw	r2, #:lower16:.LANCHOR11
 1249 0008 000000E3 		movw	r0, #:lower16:.LC19
 1250 000c 10402DE9 		push	{r4, lr}
 1251              		.save {r4, lr}
 1252 0010 003040E3 		movt	r3, #:upper16:.LC21
 1253 0014 002040E3 		movt	r2, #:upper16:.LANCHOR11
 1254 0018 000040E3 		movt	r0, #:upper16:.LC19
 1255 001c 4A1500E3 		movw	r1, #1354
 1256 0020 FEFFFFEB 		bl	__assert_func
 1257              		.fnend
 1259              		.section	.text._ZN6tflite7testing10MockCustom7PrepareEP13TfLiteContextP10TfLiteNode,"ax",%progbits
 1260              		.align	2
 1261              		.global	_ZN6tflite7testing10MockCustom7PrepareEP13TfLiteContextP10TfLiteNode
 1262              		.syntax unified
 1263              		.arm
 1264              		.fpu neon
 1266              	_ZN6tflite7testing10MockCustom7PrepareEP13TfLiteContextP10TfLiteNode:
 1267              		.fnstart
 1268              	.LFB11575:
 1269              		@ args = 0, pretend = 0, frame = 0
 1270              		@ frame_needed = 0, uses_anonymous_args = 0
 1271              		@ link register save eliminated.
 1272 0000 0000A0E3 		mov	r0, #0
 1273 0004 1EFF2FE1 		bx	lr
 1274              		.cantunwind
 1275              		.fnend
 1277              		.section	.text._ZN11flatbuffers15vector_downward12ensure_spaceEj,"axG",%progbits,_ZN11flatbuffers1
 1278              		.align	2
 1279              		.weak	_ZN11flatbuffers15vector_downward12ensure_spaceEj
 1280              		.syntax unified
 1281              		.arm
 1282              		.fpu neon
 1284              	_ZN11flatbuffers15vector_downward12ensure_spaceEj:
 1285              		.fnstart
 1286              	.LFB3480:
 1287              		@ args = 0, pretend = 0, frame = 8
 1288              		@ frame_needed = 0, uses_anonymous_args = 0
 1289 0000 F04F2DE9 		push	{r4, r5, r6, r7, r8, r9, r10, fp, lr}
 1290              		.save {r4, r5, r6, r7, r8, r9, r10, fp, lr}
 1291              		.pad #20
 1292 0004 14D04DE2 		sub	sp, sp, #20
 1293 0008 182090E5 		ldr	r2, [r0, #24]
 1294 000c 1C5090E5 		ldr	r5, [r0, #28]
 1295 0010 050052E1 		cmp	r2, r5
 1296 0014 7A00003A 		bcc	.L155
 1297 0018 146090E5 		ldr	r6, [r0, #20]
 1298 001c 0040A0E1 		mov	r4, r0
 1299 0020 060055E1 		cmp	r5, r6
 1300 0024 7600003A 		bcc	.L155
 1301 0028 0180A0E1 		mov	r8, r1
 1302 002c 051042E0 		sub	r1, r2, r5
 1303 0030 080051E1 		cmp	r1, r8
 1304 0034 0230A0E1 		mov	r3, r2
 1305 0038 0700003A 		bcc	.L157
 1306 003c 102090E5 		ldr	r2, [r0, #16]
 1307              	.L158:
 1308 0040 066043E0 		sub	r6, r3, r6
 1309 0044 066042E0 		sub	r6, r2, r6
 1310 0048 0A0176E3 		cmn	r6, #-2147483646
 1311 004c 7400008A 		bhi	.L172
 1312 0050 0800A0E1 		mov	r0, r8
 1313 0054 14D08DE2 		add	sp, sp, #20
 1314              		@ sp needed
 1315 0058 F08FBDE8 		pop	{r4, r5, r6, r7, r8, r9, r10, fp, pc}
 1316              	.L157:
 1317 005c 109090E5 		ldr	r9, [r0, #16]
 1318 0060 067042E0 		sub	r7, r2, r6
 1319 0064 065045E0 		sub	r5, r5, r6
 1320 0068 000059E3 		cmp	r9, #0
 1321 006c 077049E0 		sub	r7, r9, r7
 1322 0070 08109005 		ldreq	r1, [r0, #8]
 1323 0074 A910A011 		lsrne	r1, r9, #1
 1324 0078 0C0090E5 		ldr	r0, [r0, #12]
 1325 007c 003089E0 		add	r3, r9, r0
 1326 0080 000060E2 		rsb	r0, r0, #0
 1327 0084 013043E2 		sub	r3, r3, #1
 1328 0088 010058E1 		cmp	r8, r1
 1329 008c 08308320 		addcs	r3, r3, r8
 1330 0090 01308330 		addcc	r3, r3, r1
 1331 0094 000056E3 		cmp	r6, #0
 1332 0098 003003E0 		and	r3, r3, r0
 1333 009c 103084E5 		str	r3, [r4, #16]
 1334 00a0 2C00000A 		beq	.L161
 1335 00a4 00A094E5 		ldr	r10, [r4]
 1336 00a8 00005AE3 		cmp	r10, #0
 1337 00ac 3200000A 		beq	.L162
 1338 00b0 00009AE5 		ldr	r0, [r10]
 1339 00b4 001000E3 		movw	r1, #:lower16:_ZN11flatbuffers9Allocator19reallocate_downwardEPhjjjj
 1340 00b8 001040E3 		movt	r1, #:upper16:_ZN11flatbuffers9Allocator19reallocate_downwardEPhjjjj
 1341 00bc 10B090E5 		ldr	fp, [r0, #16]
 1342 00c0 01005BE1 		cmp	fp, r1
 1343 00c4 4600001A 		bne	.L163
 1344 00c8 030059E1 		cmp	r9, r3
 1345 00cc 5C00002A 		bcs	.L166
 1346 00d0 08B090E5 		ldr	fp, [r0, #8]
 1347 00d4 0310A0E1 		mov	r1, r3
 1348 00d8 0C208DE5 		str	r2, [sp, #12]
 1349 00dc 0A00A0E1 		mov	r0, r10
 1350 00e0 08308DE5 		str	r3, [sp, #8]
 1351 00e4 3BFF2FE1 		blx	fp
 1352 00e8 08309DE5 		ldr	r3, [sp, #8]
 1353 00ec 00B0A0E1 		mov	fp, r0
 1354 00f0 0C209DE5 		ldr	r2, [sp, #12]
 1355 00f4 070043E0 		sub	r0, r3, r7
 1356 00f8 0210A0E1 		mov	r1, r2
 1357 00fc 00008BE0 		add	r0, fp, r0
 1358 0100 0720A0E1 		mov	r2, r7
 1359 0104 FEFFFFEB 		bl	memcpy
 1360 0108 0610A0E1 		mov	r1, r6
 1361 010c 0520A0E1 		mov	r2, r5
 1362 0110 0B00A0E1 		mov	r0, fp
 1363 0114 FEFFFFEB 		bl	memcpy
 1364 0118 00309AE5 		ldr	r3, [r10]
 1365 011c 0610A0E1 		mov	r1, r6
 1366 0120 0920A0E1 		mov	r2, r9
 1367 0124 0A00A0E1 		mov	r0, r10
 1368 0128 0B60A0E1 		mov	r6, fp
 1369 012c 0C3093E5 		ldr	r3, [r3, #12]
 1370 0130 33FF2FE1 		blx	r3
 1371              	.L169:
 1372 0134 102094E5 		ldr	r2, [r4, #16]
 1373 0138 055086E0 		add	r5, r6, r5
 1374 013c 146084E5 		str	r6, [r4, #20]
 1375 0140 1C5084E5 		str	r5, [r4, #28]
 1376 0144 077042E0 		sub	r7, r2, r7
 1377 0148 077086E0 		add	r7, r6, r7
 1378 014c 0730A0E1 		mov	r3, r7
 1379 0150 187084E5 		str	r7, [r4, #24]
 1380 0154 B9FFFFEA 		b	.L158
 1381              	.L161:
 1382 0158 000094E5 		ldr	r0, [r4]
 1383 015c 000050E3 		cmp	r0, #0
 1384 0160 1B00000A 		beq	.L168
 1385 0164 002090E5 		ldr	r2, [r0]
 1386 0168 0310A0E1 		mov	r1, r3
 1387 016c 083092E5 		ldr	r3, [r2, #8]
 1388 0170 33FF2FE1 		blx	r3
 1389 0174 0060A0E1 		mov	r6, r0
 1390 0178 EDFFFFEA 		b	.L169
 1391              	.L162:
 1392 017c 030059E1 		cmp	r9, r3
 1393 0180 0C208DE5 		str	r2, [sp, #12]
 1394 0184 2E00002A 		bcs	.L166
 1395 0188 0300A0E1 		mov	r0, r3
 1396 018c 08308DE5 		str	r3, [sp, #8]
 1397 0190 FEFFFFEB 		bl	_Znaj
 1398 0194 08309DE5 		ldr	r3, [sp, #8]
 1399 0198 0090A0E1 		mov	r9, r0
 1400 019c 0C209DE5 		ldr	r2, [sp, #12]
 1401 01a0 070043E0 		sub	r0, r3, r7
 1402 01a4 0210A0E1 		mov	r1, r2
 1403 01a8 000089E0 		add	r0, r9, r0
 1404 01ac 0720A0E1 		mov	r2, r7
 1405 01b0 FEFFFFEB 		bl	memcpy
 1406 01b4 0610A0E1 		mov	r1, r6
 1407 01b8 0520A0E1 		mov	r2, r5
 1408 01bc 0900A0E1 		mov	r0, r9
 1409 01c0 FEFFFFEB 		bl	memcpy
 1410 01c4 0600A0E1 		mov	r0, r6
 1411 01c8 0960A0E1 		mov	r6, r9
 1412 01cc FEFFFFEB 		bl	_ZdaPv
 1413 01d0 D7FFFFEA 		b	.L169
 1414              	.L168:
 1415 01d4 0300A0E1 		mov	r0, r3
 1416 01d8 FEFFFFEB 		bl	_Znaj
 1417 01dc 0060A0E1 		mov	r6, r0
 1418 01e0 D3FFFFEA 		b	.L169
 1419              	.L163:
 1420 01e4 0610A0E1 		mov	r1, r6
 1421 01e8 04508DE5 		str	r5, [sp, #4]
 1422 01ec 00708DE5 		str	r7, [sp]
 1423 01f0 0920A0E1 		mov	r2, r9
 1424 01f4 0A00A0E1 		mov	r0, r10
 1425 01f8 3BFF2FE1 		blx	fp
 1426 01fc 0060A0E1 		mov	r6, r0
 1427 0200 CBFFFFEA 		b	.L169
 1428              	.L155:
 1429 0204 003000E3 		movw	r3, #:lower16:.LC22
 1430 0208 002000E3 		movw	r2, #:lower16:.LANCHOR12
 1431 020c 000000E3 		movw	r0, #:lower16:.LC19
 1432 0210 003040E3 		movt	r3, #:upper16:.LC22
 1433 0214 002040E3 		movt	r2, #:upper16:.LANCHOR12
 1434 0218 000040E3 		movt	r0, #:upper16:.LC19
 1435 021c 961300E3 		movw	r1, #918
 1436 0220 FEFFFFEB 		bl	__assert_func
 1437              	.L172:
 1438 0224 003000E3 		movw	r3, #:lower16:.LC23
 1439 0228 002000E3 		movw	r2, #:lower16:.LANCHOR12
 1440 022c 000000E3 		movw	r0, #:lower16:.LC19
 1441 0230 003040E3 		movt	r3, #:upper16:.LC23
 1442 0234 002040E3 		movt	r2, #:upper16:.LANCHOR12
 1443 0238 000040E3 		movt	r0, #:upper16:.LC19
 1444 023c 9A1300E3 		movw	r1, #922
 1445 0240 FEFFFFEB 		bl	__assert_func
 1446              	.L166:
 1447 0244 003000E3 		movw	r3, #:lower16:.LC18
 1448 0248 002000E3 		movw	r2, #:lower16:.LANCHOR9
 1449 024c 000000E3 		movw	r0, #:lower16:.LC19
 1450 0250 003040E3 		movt	r3, #:upper16:.LC18
 1451 0254 002040E3 		movt	r2, #:upper16:.LANCHOR9
 1452 0258 000040E3 		movt	r0, #:upper16:.LC19
 1453 025c 691200E3 		movw	r1, #617
 1454 0260 FEFFFFEB 		bl	__assert_func
 1455              		.fnend
 1457              		.section	.text._ZN11flatbuffers17FlatBufferBuilder11StartVectorEjj.constprop.148,"ax",%progbits
 1458              		.align	2
 1459              		.syntax unified
 1460              		.arm
 1461              		.fpu neon
 1463              	_ZN11flatbuffers17FlatBufferBuilder11StartVectorEjj.constprop.148:
 1464              		.fnstart
 1465              	.LFB11578:
 1466              		@ args = 0, pretend = 0, frame = 0
 1467              		@ frame_needed = 0, uses_anonymous_args = 0
 1468 0000 2620D0E5 		ldrb	r2, [r0, #38]	@ zero_extendqisi2
 1469 0004 70402DE9 		push	{r4, r5, r6, lr}
 1470              		.save {r4, r5, r6, lr}
 1471 0008 203090E5 		ldr	r3, [r0, #32]
 1472 000c 000052E3 		cmp	r2, #0
 1473 0010 3A00001A 		bne	.L200
 1474 0014 000053E3 		cmp	r3, #0
 1475 0018 4000001A 		bne	.L201
 1476 001c 283090E5 		ldr	r3, [r0, #40]
 1477 0020 0120A0E3 		mov	r2, #1
 1478 0024 2620C0E5 		strb	r2, [r0, #38]
 1479 0028 0040A0E1 		mov	r4, r0
 1480 002c 185090E5 		ldr	r5, [r0, #24]
 1481 0030 030053E3 		cmp	r3, #3
 1482 0034 142090E5 		ldr	r2, [r0, #20]
 1483 0038 0430A093 		movls	r3, #4
 1484 003c 28308095 		strls	r3, [r0, #40]
 1485 0040 103090E5 		ldr	r3, [r0, #16]
 1486 0044 025045E0 		sub	r5, r5, r2
 1487 0048 035045E0 		sub	r5, r5, r3
 1488 004c 035005E2 		and	r5, r5, #3
 1489 0050 0510A0E1 		mov	r1, r5
 1490 0054 FEFFFFEB 		bl	_ZN11flatbuffers15vector_downward12ensure_spaceEj
 1491 0058 183094E5 		ldr	r3, [r4, #24]
 1492 005c 000055E3 		cmp	r5, #0
 1493 0060 003043E0 		sub	r3, r3, r0
 1494 0064 183084E5 		str	r3, [r4, #24]
 1495 0068 0900000A 		beq	.L177
 1496 006c 010055E3 		cmp	r5, #1
 1497 0070 0020A0E3 		mov	r2, #0
 1498 0074 0020C3E5 		strb	r2, [r3]
 1499 0078 0400000A 		beq	.L178
 1500 007c 183094E5 		ldr	r3, [r4, #24]
 1501 0080 020055E3 		cmp	r5, #2
 1502 0084 0120C3E5 		strb	r2, [r3, #1]
 1503 0088 18309415 		ldrne	r3, [r4, #24]
 1504 008c 0220C315 		strbne	r2, [r3, #2]
 1505              	.L178:
 1506 0090 183094E5 		ldr	r3, [r4, #24]
 1507              	.L177:
 1508 0094 282094E5 		ldr	r2, [r4, #40]
 1509 0098 0400A0E1 		mov	r0, r4
 1510 009c 145094E5 		ldr	r5, [r4, #20]
 1511 00a0 030052E3 		cmp	r2, #3
 1512 00a4 0420A093 		movls	r2, #4
 1513 00a8 055043E0 		sub	r5, r3, r5
 1514 00ac 28208495 		strls	r2, [r4, #40]
 1515 00b0 102094E5 		ldr	r2, [r4, #16]
 1516 00b4 025045E0 		sub	r5, r5, r2
 1517 00b8 035005E2 		and	r5, r5, #3
 1518 00bc 0510A0E1 		mov	r1, r5
 1519 00c0 FEFFFFEB 		bl	_ZN11flatbuffers15vector_downward12ensure_spaceEj
 1520 00c4 183094E5 		ldr	r3, [r4, #24]
 1521 00c8 000055E3 		cmp	r5, #0
 1522 00cc 000043E0 		sub	r0, r3, r0
 1523 00d0 180084E5 		str	r0, [r4, #24]
 1524 00d4 7080BD08 		popeq	{r4, r5, r6, pc}
 1525 00d8 0030A0E3 		mov	r3, #0
 1526 00dc 010055E3 		cmp	r5, #1
 1527 00e0 0030C0E5 		strb	r3, [r0]
 1528 00e4 7080BD08 		popeq	{r4, r5, r6, pc}
 1529 00e8 182094E5 		ldr	r2, [r4, #24]
 1530 00ec 020055E3 		cmp	r5, #2
 1531 00f0 0130C2E5 		strb	r3, [r2, #1]
 1532 00f4 18209415 		ldrne	r2, [r4, #24]
 1533 00f8 0230C215 		strbne	r3, [r2, #2]
 1534 00fc 7080BDE8 		pop	{r4, r5, r6, pc}
 1535              	.L200:
 1536 0100 003000E3 		movw	r3, #:lower16:.LC24
 1537 0104 002000E3 		movw	r2, #:lower16:.LANCHOR11
 1538 0108 000000E3 		movw	r0, #:lower16:.LC19
 1539 010c 003040E3 		movt	r3, #:upper16:.LC24
 1540 0110 002040E3 		movt	r2, #:upper16:.LANCHOR11
 1541 0114 000040E3 		movt	r0, #:upper16:.LC19
 1542 0118 481500E3 		movw	r1, #1352
 1543 011c FEFFFFEB 		bl	__assert_func
 1544              	.L201:
 1545 0120 FEFFFFEB 		bl	_ZN11flatbuffers17FlatBufferBuilder9NotNestedEv.isra.19.part.20
 1546              		.fnend
 1548              		.section	.text._ZN11flatbuffers17FlatBufferBuilder10AddElementImEEvtT_S2_.part.45,"ax",%progbits
 1549              		.align	2
 1550              		.syntax unified
 1551              		.arm
 1552              		.fpu neon
 1554              	_ZN11flatbuffers17FlatBufferBuilder10AddElementImEEvtT_S2_.part.45:
 1555              		.fnstart
 1556              	.LFB11493:
 1557              		@ args = 0, pretend = 0, frame = 0
 1558              		@ frame_needed = 0, uses_anonymous_args = 0
 1559 0000 283090E5 		ldr	r3, [r0, #40]
 1560 0004 F0412DE9 		push	{r4, r5, r6, r7, r8, lr}
 1561              		.save {r4, r5, r6, r7, r8, lr}
 1562 0008 0270A0E1 		mov	r7, r2
 1563 000c 185090E5 		ldr	r5, [r0, #24]
 1564 0010 0040A0E1 		mov	r4, r0
 1565 0014 030053E3 		cmp	r3, #3
 1566 0018 0160A0E1 		mov	r6, r1
 1567 001c 0430A093 		movls	r3, #4
 1568 0020 142090E5 		ldr	r2, [r0, #20]
 1569 0024 28308095 		strls	r3, [r0, #40]
 1570 0028 103090E5 		ldr	r3, [r0, #16]
 1571 002c 025045E0 		sub	r5, r5, r2
 1572 0030 035045E0 		sub	r5, r5, r3
 1573 0034 035005E2 		and	r5, r5, #3
 1574 0038 0510A0E1 		mov	r1, r5
 1575 003c FEFFFFEB 		bl	_ZN11flatbuffers15vector_downward12ensure_spaceEj
 1576 0040 183094E5 		ldr	r3, [r4, #24]
 1577 0044 000055E3 		cmp	r5, #0
 1578 0048 000043E0 		sub	r0, r3, r0
 1579 004c 180084E5 		str	r0, [r4, #24]
 1580 0050 0800000A 		beq	.L204
 1581 0054 010055E3 		cmp	r5, #1
 1582 0058 0030A0E3 		mov	r3, #0
 1583 005c 0030C0E5 		strb	r3, [r0]
 1584 0060 0400000A 		beq	.L204
 1585 0064 182094E5 		ldr	r2, [r4, #24]
 1586 0068 020055E3 		cmp	r5, #2
 1587 006c 0130C2E5 		strb	r3, [r2, #1]
 1588 0070 18209415 		ldrne	r2, [r4, #24]
 1589 0074 0230C215 		strbne	r3, [r2, #2]
 1590              	.L204:
 1591 0078 0410A0E3 		mov	r1, #4
 1592 007c 0400A0E1 		mov	r0, r4
 1593 0080 FEFFFFEB 		bl	_ZN11flatbuffers15vector_downward12ensure_spaceEj
 1594 0084 183094E5 		ldr	r3, [r4, #24]
 1595 0088 0810A0E3 		mov	r1, #8
 1596 008c 142094E5 		ldr	r2, [r4, #20]
 1597 0090 105094E5 		ldr	r5, [r4, #16]
 1598 0094 003043E0 		sub	r3, r3, r0
 1599 0098 0400A0E1 		mov	r0, r4
 1600 009c 022043E0 		sub	r2, r3, r2
 1601 00a0 183084E5 		str	r3, [r4, #24]
 1602 00a4 007083E5 		str	r7, [r3]
 1603 00a8 025045E0 		sub	r5, r5, r2
 1604 00ac FEFFFFEB 		bl	_ZN11flatbuffers15vector_downward12ensure_spaceEj
 1605 00b0 1C2094E5 		ldr	r2, [r4, #28]
 1606 00b4 203094E5 		ldr	r3, [r4, #32]
 1607 00b8 081082E2 		add	r1, r2, #8
 1608 00bc B460C2E1 		strh	r6, [r2, #4]	@ movhi
 1609 00c0 005082E5 		str	r5, [r2]
 1610 00c4 013083E2 		add	r3, r3, #1
 1611 00c8 B422D4E1 		ldrh	r2, [r4, #36]
 1612 00cc 1C1084E5 		str	r1, [r4, #28]
 1613 00d0 203084E5 		str	r3, [r4, #32]
 1614 00d4 020056E1 		cmp	r6, r2
 1615 00d8 0260A0B1 		movlt	r6, r2
 1616 00dc B462C4E1 		strh	r6, [r4, #36]	@ movhi
 1617 00e0 F081BDE8 		pop	{r4, r5, r6, r7, r8, pc}
 1618              		.fnend
 1620              		.section	.text._ZN11flatbuffers17FlatBufferBuilder12CreateVectorIN6tflite6BufferEEENS_6OffsetINS_6
 1621              		.align	2
 1622              		.syntax unified
 1623              		.arm
 1624              		.fpu neon
 1626              	_ZN11flatbuffers17FlatBufferBuilder12CreateVectorIN6tflite6BufferEEENS_6OffsetINS_6VectorINS4_IT_EE
 1627              		.fnstart
 1628              	.LFB11590:
 1629              		@ args = 0, pretend = 0, frame = 0
 1630              		@ frame_needed = 0, uses_anonymous_args = 0
 1631 0000 70402DE9 		push	{r4, r5, r6, lr}
 1632              		.save {r4, r5, r6, lr}
 1633 0004 0040A0E1 		mov	r4, r0
 1634 0008 0150A0E1 		mov	r5, r1
 1635 000c 0110A0E3 		mov	r1, #1
 1636 0010 FEFFFFEB 		bl	_ZN11flatbuffers17FlatBufferBuilder11StartVectorEjj.constprop.148
 1637 0014 283094E5 		ldr	r3, [r4, #40]
 1638 0018 0400A0E1 		mov	r0, r4
 1639 001c 006095E5 		ldr	r6, [r5]
 1640 0020 142094E5 		ldr	r2, [r4, #20]
 1641 0024 030053E3 		cmp	r3, #3
 1642 0028 185094E5 		ldr	r5, [r4, #24]
 1643 002c 0430A093 		movls	r3, #4
 1644 0030 28308495 		strls	r3, [r4, #40]
 1645 0034 103094E5 		ldr	r3, [r4, #16]
 1646 0038 025045E0 		sub	r5, r5, r2
 1647 003c 035045E0 		sub	r5, r5, r3
 1648 0040 035005E2 		and	r5, r5, #3
 1649 0044 0510A0E1 		mov	r1, r5
 1650 0048 FEFFFFEB 		bl	_ZN11flatbuffers15vector_downward12ensure_spaceEj
 1651 004c 183094E5 		ldr	r3, [r4, #24]
 1652 0050 000055E3 		cmp	r5, #0
 1653 0054 000043E0 		sub	r0, r3, r0
 1654 0058 180084E5 		str	r0, [r4, #24]
 1655 005c 0800000A 		beq	.L218
 1656 0060 010055E3 		cmp	r5, #1
 1657 0064 0030A0E3 		mov	r3, #0
 1658 0068 0030C0E5 		strb	r3, [r0]
 1659 006c 0400000A 		beq	.L218
 1660 0070 182094E5 		ldr	r2, [r4, #24]
 1661 0074 020055E3 		cmp	r5, #2
 1662 0078 0130C2E5 		strb	r3, [r2, #1]
 1663 007c 18209415 		ldrne	r2, [r4, #24]
 1664 0080 0230C215 		strbne	r3, [r2, #2]
 1665              	.L218:
 1666 0084 000056E3 		cmp	r6, #0
 1667 0088 5300000A 		beq	.L219
 1668 008c 182094E5 		ldr	r2, [r4, #24]
 1669 0090 141094E5 		ldr	r1, [r4, #20]
 1670 0094 103094E5 		ldr	r3, [r4, #16]
 1671 0098 012042E0 		sub	r2, r2, r1
 1672 009c 023043E0 		sub	r3, r3, r2
 1673 00a0 030056E1 		cmp	r6, r3
 1674 00a4 4C00008A 		bhi	.L219
 1675 00a8 282094E5 		ldr	r2, [r4, #40]
 1676 00ac 046066E2 		rsb	r6, r6, #4
 1677 00b0 036086E0 		add	r6, r6, r3
 1678 00b4 003063E2 		rsb	r3, r3, #0
 1679 00b8 035003E2 		and	r5, r3, #3
 1680 00bc 0400A0E1 		mov	r0, r4
 1681 00c0 030052E3 		cmp	r2, #3
 1682 00c4 0510A0E1 		mov	r1, r5
 1683 00c8 0420A093 		movls	r2, #4
 1684 00cc 28208495 		strls	r2, [r4, #40]
 1685 00d0 FEFFFFEB 		bl	_ZN11flatbuffers15vector_downward12ensure_spaceEj
 1686 00d4 183094E5 		ldr	r3, [r4, #24]
 1687 00d8 000055E3 		cmp	r5, #0
 1688 00dc 000043E0 		sub	r0, r3, r0
 1689 00e0 180084E5 		str	r0, [r4, #24]
 1690 00e4 0800000A 		beq	.L221
 1691 00e8 010055E3 		cmp	r5, #1
 1692 00ec 0030A0E3 		mov	r3, #0
 1693 00f0 0030C0E5 		strb	r3, [r0]
 1694 00f4 0400000A 		beq	.L221
 1695 00f8 182094E5 		ldr	r2, [r4, #24]
 1696 00fc 020055E3 		cmp	r5, #2
 1697 0100 0130C2E5 		strb	r3, [r2, #1]
 1698 0104 18209415 		ldrne	r2, [r4, #24]
 1699 0108 0230C215 		strbne	r3, [r2, #2]
 1700              	.L221:
 1701 010c 0410A0E3 		mov	r1, #4
 1702 0110 0400A0E1 		mov	r0, r4
 1703 0114 FEFFFFEB 		bl	_ZN11flatbuffers15vector_downward12ensure_spaceEj
 1704 0118 182094E5 		ldr	r2, [r4, #24]
 1705 011c 26C0D4E5 		ldrb	ip, [r4, #38]	@ zero_extendqisi2
 1706 0120 141094E5 		ldr	r1, [r4, #20]
 1707 0124 103094E5 		ldr	r3, [r4, #16]
 1708 0128 000042E0 		sub	r0, r2, r0
 1709 012c 00005CE3 		cmp	ip, #0
 1710 0130 180084E5 		str	r0, [r4, #24]
 1711 0134 011040E0 		sub	r1, r0, r1
 1712 0138 006080E5 		str	r6, [r0]
 1713 013c 013043E0 		sub	r3, r3, r1
 1714 0140 2D00000A 		beq	.L259
 1715 0144 282094E5 		ldr	r2, [r4, #40]
 1716 0148 003063E2 		rsb	r3, r3, #0
 1717 014c 035003E2 		and	r5, r3, #3
 1718 0150 0010A0E3 		mov	r1, #0
 1719 0154 2610C4E5 		strb	r1, [r4, #38]
 1720 0158 0400A0E1 		mov	r0, r4
 1721 015c 030052E3 		cmp	r2, #3
 1722 0160 0510A0E1 		mov	r1, r5
 1723 0164 0420A093 		movls	r2, #4
 1724 0168 28208495 		strls	r2, [r4, #40]
 1725 016c FEFFFFEB 		bl	_ZN11flatbuffers15vector_downward12ensure_spaceEj
 1726 0170 183094E5 		ldr	r3, [r4, #24]
 1727 0174 000055E3 		cmp	r5, #0
 1728 0178 000043E0 		sub	r0, r3, r0
 1729 017c 180084E5 		str	r0, [r4, #24]
 1730 0180 0800000A 		beq	.L225
 1731 0184 010055E3 		cmp	r5, #1
 1732 0188 0030A0E3 		mov	r3, #0
 1733 018c 0030C0E5 		strb	r3, [r0]
 1734 0190 0400000A 		beq	.L225
 1735 0194 182094E5 		ldr	r2, [r4, #24]
 1736 0198 020055E3 		cmp	r5, #2
 1737 019c 0130C2E5 		strb	r3, [r2, #1]
 1738 01a0 18209415 		ldrne	r2, [r4, #24]
 1739 01a4 0230C215 		strbne	r3, [r2, #2]
 1740              	.L225:
 1741 01a8 0410A0E3 		mov	r1, #4
 1742 01ac 0400A0E1 		mov	r0, r4
 1743 01b0 FEFFFFEB 		bl	_ZN11flatbuffers15vector_downward12ensure_spaceEj
 1744 01b4 183094E5 		ldr	r3, [r4, #24]
 1745 01b8 0110A0E3 		mov	r1, #1
 1746 01bc 142094E5 		ldr	r2, [r4, #20]
 1747 01c0 10C094E5 		ldr	ip, [r4, #16]
 1748 01c4 003043E0 		sub	r3, r3, r0
 1749 01c8 022043E0 		sub	r2, r3, r2
 1750 01cc 183084E5 		str	r3, [r4, #24]
 1751 01d0 02004CE0 		sub	r0, ip, r2
 1752 01d4 001083E5 		str	r1, [r3]
 1753 01d8 7080BDE8 		pop	{r4, r5, r6, pc}
 1754              	.L219:
 1755 01dc 003000E3 		movw	r3, #:lower16:.LC25
 1756 01e0 002000E3 		movw	r2, #:lower16:.LANCHOR13
 1757 01e4 000000E3 		movw	r0, #:lower16:.LC19
 1758 01e8 003040E3 		movt	r3, #:upper16:.LC25
 1759 01ec 002040E3 		movt	r2, #:upper16:.LANCHOR13
 1760 01f0 000040E3 		movt	r0, #:upper16:.LC19
 1761 01f4 3B1500E3 		movw	r1, #1339
 1762 01f8 FEFFFFEB 		bl	__assert_func
 1763              	.L259:
 1764 01fc 003000E3 		movw	r3, #:lower16:.LC26
 1765 0200 002000E3 		movw	r2, #:lower16:.LANCHOR14
 1766 0204 000000E3 		movw	r0, #:lower16:.LC19
 1767 0208 003040E3 		movt	r3, #:upper16:.LC26
 1768 020c 002040E3 		movt	r2, #:upper16:.LANCHOR14
 1769 0210 000040E3 		movt	r0, #:upper16:.LC19
 1770 0214 2C1600E3 		movw	r1, #1580
 1771 0218 FEFFFFEB 		bl	__assert_func
 1772              		.fnend
 1774              		.section	.text._ZN11flatbuffers17FlatBufferBuilder12CreateVectorIN6tflite6TensorEEENS_6OffsetINS_6
 1775              		.align	2
 1776              		.syntax unified
 1777              		.arm
 1778              		.fpu neon
 1780              	_ZN11flatbuffers17FlatBufferBuilder12CreateVectorIN6tflite6TensorEEENS_6OffsetINS_6VectorINS4_IT_EE
 1781              		.fnstart
 1782              	.LFB11601:
 1783              		@ args = 0, pretend = 0, frame = 0
 1784              		@ frame_needed = 0, uses_anonymous_args = 0
 1785 0000 F0472DE9 		push	{r4, r5, r6, r7, r8, r9, r10, lr}
 1786              		.save {r4, r5, r6, r7, r8, r9, r10, lr}
 1787 0004 0190A0E1 		mov	r9, r1
 1788 0008 0040A0E1 		mov	r4, r0
 1789 000c 0410A0E3 		mov	r1, #4
 1790 0010 107089E2 		add	r7, r9, #16
 1791 0014 0480A0E3 		mov	r8, #4
 1792 0018 FEFFFFEB 		bl	_ZN11flatbuffers17FlatBufferBuilder11StartVectorEjj.constprop.148
 1793 001c 185094E5 		ldr	r5, [r4, #24]
 1794 0020 0060A0E3 		mov	r6, #0
 1795              	.L267:
 1796 0024 282094E5 		ldr	r2, [r4, #40]
 1797 0028 0400A0E1 		mov	r0, r4
 1798 002c 143094E5 		ldr	r3, [r4, #20]
 1799 0030 04A037E5 		ldr	r10, [r7, #-4]!
 1800 0034 030052E3 		cmp	r2, #3
 1801 0038 102094E5 		ldr	r2, [r4, #16]
 1802 003c 035045E0 		sub	r5, r5, r3
 1803 0040 28808495 		strls	r8, [r4, #40]
 1804 0044 025045E0 		sub	r5, r5, r2
 1805 0048 035005E2 		and	r5, r5, #3
 1806 004c 0510A0E1 		mov	r1, r5
 1807 0050 FEFFFFEB 		bl	_ZN11flatbuffers15vector_downward12ensure_spaceEj
 1808 0054 183094E5 		ldr	r3, [r4, #24]
 1809 0058 000055E3 		cmp	r5, #0
 1810 005c 000043E0 		sub	r0, r3, r0
 1811 0060 180084E5 		str	r0, [r4, #24]
 1812 0064 0700000A 		beq	.L262
 1813 0068 010055E3 		cmp	r5, #1
 1814 006c 0060C0E5 		strb	r6, [r0]
 1815 0070 0400000A 		beq	.L262
 1816 0074 183094E5 		ldr	r3, [r4, #24]
 1817 0078 020055E3 		cmp	r5, #2
 1818 007c 0160C3E5 		strb	r6, [r3, #1]
 1819 0080 18309415 		ldrne	r3, [r4, #24]
 1820 0084 0260C315 		strbne	r6, [r3, #2]
 1821              	.L262:
 1822 0088 00005AE3 		cmp	r10, #0
 1823 008c 5200000A 		beq	.L263
 1824 0090 183094E5 		ldr	r3, [r4, #24]
 1825 0094 142094E5 		ldr	r2, [r4, #20]
 1826 0098 105094E5 		ldr	r5, [r4, #16]
 1827 009c 023043E0 		sub	r3, r3, r2
 1828 00a0 035045E0 		sub	r5, r5, r3
 1829 00a4 0A0055E1 		cmp	r5, r10
 1830 00a8 4B00003A 		bcc	.L263
 1831 00ac 283094E5 		ldr	r3, [r4, #40]
 1832 00b0 04A06AE2 		rsb	r10, r10, #4
 1833 00b4 05A08AE0 		add	r10, r10, r5
 1834 00b8 005065E2 		rsb	r5, r5, #0
 1835 00bc 035005E2 		and	r5, r5, #3
 1836 00c0 0400A0E1 		mov	r0, r4
 1837 00c4 030053E3 		cmp	r3, #3
 1838 00c8 0510A0E1 		mov	r1, r5
 1839 00cc 28808495 		strls	r8, [r4, #40]
 1840 00d0 FEFFFFEB 		bl	_ZN11flatbuffers15vector_downward12ensure_spaceEj
 1841 00d4 183094E5 		ldr	r3, [r4, #24]
 1842 00d8 000055E3 		cmp	r5, #0
 1843 00dc 000043E0 		sub	r0, r3, r0
 1844 00e0 180084E5 		str	r0, [r4, #24]
 1845 00e4 0700000A 		beq	.L266
 1846 00e8 010055E3 		cmp	r5, #1
 1847 00ec 0060C0E5 		strb	r6, [r0]
 1848 00f0 0400000A 		beq	.L266
 1849 00f4 183094E5 		ldr	r3, [r4, #24]
 1850 00f8 020055E3 		cmp	r5, #2
 1851 00fc 0160C3E5 		strb	r6, [r3, #1]
 1852 0100 18309415 		ldrne	r3, [r4, #24]
 1853 0104 0260C315 		strbne	r6, [r3, #2]
 1854              	.L266:
 1855 0108 0410A0E3 		mov	r1, #4
 1856 010c 0400A0E1 		mov	r0, r4
 1857 0110 FEFFFFEB 		bl	_ZN11flatbuffers15vector_downward12ensure_spaceEj
 1858 0114 185094E5 		ldr	r5, [r4, #24]
 1859 0118 090057E1 		cmp	r7, r9
 1860 011c 005045E0 		sub	r5, r5, r0
 1861 0120 185084E5 		str	r5, [r4, #24]
 1862 0124 00A085E5 		str	r10, [r5]
 1863 0128 BDFFFF1A 		bne	.L267
 1864 012c 2620D4E5 		ldrb	r2, [r4, #38]	@ zero_extendqisi2
 1865 0130 000052E3 		cmp	r2, #0
 1866 0134 3000000A 		beq	.L303
 1867 0138 282094E5 		ldr	r2, [r4, #40]
 1868 013c 0010A0E3 		mov	r1, #0
 1869 0140 143094E5 		ldr	r3, [r4, #20]
 1870 0144 0400A0E1 		mov	r0, r4
 1871 0148 2610C4E5 		strb	r1, [r4, #38]
 1872 014c 030052E3 		cmp	r2, #3
 1873 0150 0420A093 		movls	r2, #4
 1874 0154 035045E0 		sub	r5, r5, r3
 1875 0158 28208495 		strls	r2, [r4, #40]
 1876 015c 102094E5 		ldr	r2, [r4, #16]
 1877 0160 025045E0 		sub	r5, r5, r2
 1878 0164 035005E2 		and	r5, r5, #3
 1879 0168 0510A0E1 		mov	r1, r5
 1880 016c FEFFFFEB 		bl	_ZN11flatbuffers15vector_downward12ensure_spaceEj
 1881 0170 183094E5 		ldr	r3, [r4, #24]
 1882 0174 000055E3 		cmp	r5, #0
 1883 0178 000043E0 		sub	r0, r3, r0
 1884 017c 180084E5 		str	r0, [r4, #24]
 1885 0180 0800000A 		beq	.L270
 1886 0184 010055E3 		cmp	r5, #1
 1887 0188 0030A0E3 		mov	r3, #0
 1888 018c 0030C0E5 		strb	r3, [r0]
 1889 0190 0400000A 		beq	.L270
 1890 0194 182094E5 		ldr	r2, [r4, #24]
 1891 0198 020055E3 		cmp	r5, #2
 1892 019c 0130C2E5 		strb	r3, [r2, #1]
 1893 01a0 18209415 		ldrne	r2, [r4, #24]
 1894 01a4 0230C215 		strbne	r3, [r2, #2]
 1895              	.L270:
 1896 01a8 0410A0E3 		mov	r1, #4
 1897 01ac 0400A0E1 		mov	r0, r4
 1898 01b0 FEFFFFEB 		bl	_ZN11flatbuffers15vector_downward12ensure_spaceEj
 1899 01b4 183094E5 		ldr	r3, [r4, #24]
 1900 01b8 0410A0E3 		mov	r1, #4
 1901 01bc 142094E5 		ldr	r2, [r4, #20]
 1902 01c0 10C094E5 		ldr	ip, [r4, #16]
 1903 01c4 003043E0 		sub	r3, r3, r0
 1904 01c8 022043E0 		sub	r2, r3, r2
 1905 01cc 183084E5 		str	r3, [r4, #24]
 1906 01d0 02004CE0 		sub	r0, ip, r2
 1907 01d4 001083E5 		str	r1, [r3]
 1908 01d8 F087BDE8 		pop	{r4, r5, r6, r7, r8, r9, r10, pc}
 1909              	.L263:
 1910 01dc 003000E3 		movw	r3, #:lower16:.LC25
 1911 01e0 002000E3 		movw	r2, #:lower16:.LANCHOR13
 1912 01e4 000000E3 		movw	r0, #:lower16:.LC19
 1913 01e8 003040E3 		movt	r3, #:upper16:.LC25
 1914 01ec 002040E3 		movt	r2, #:upper16:.LANCHOR13
 1915 01f0 000040E3 		movt	r0, #:upper16:.LC19
 1916 01f4 3B1500E3 		movw	r1, #1339
 1917 01f8 FEFFFFEB 		bl	__assert_func
 1918              	.L303:
 1919 01fc 003000E3 		movw	r3, #:lower16:.LC26
 1920 0200 002000E3 		movw	r2, #:lower16:.LANCHOR14
 1921 0204 000000E3 		movw	r0, #:lower16:.LC19
 1922 0208 003040E3 		movt	r3, #:upper16:.LC26
 1923 020c 002040E3 		movt	r2, #:upper16:.LANCHOR14
 1924 0210 000040E3 		movt	r0, #:upper16:.LC19
 1925 0214 2C1600E3 		movw	r1, #1580
 1926 0218 FEFFFFEB 		bl	__assert_func
 1927              		.fnend
 1929              		.section	.text._ZN11flatbuffers17FlatBufferBuilder12CreateVectorIN6tflite8OperatorEEENS_6OffsetINS
 1930              		.align	2
 1931              		.syntax unified
 1932              		.arm
 1933              		.fpu neon
 1935              	_ZN11flatbuffers17FlatBufferBuilder12CreateVectorIN6tflite8OperatorEEENS_6OffsetINS_6VectorINS4_IT_
 1936              		.fnstart
 1937              	.LFB11597:
 1938              		@ args = 0, pretend = 0, frame = 0
 1939              		@ frame_needed = 0, uses_anonymous_args = 0
 1940 0000 70402DE9 		push	{r4, r5, r6, lr}
 1941              		.save {r4, r5, r6, lr}
 1942 0004 0040A0E1 		mov	r4, r0
 1943 0008 0150A0E1 		mov	r5, r1
 1944 000c 0110A0E3 		mov	r1, #1
 1945 0010 FEFFFFEB 		bl	_ZN11flatbuffers17FlatBufferBuilder11StartVectorEjj.constprop.148
 1946 0014 283094E5 		ldr	r3, [r4, #40]
 1947 0018 0400A0E1 		mov	r0, r4
 1948 001c 006095E5 		ldr	r6, [r5]
 1949 0020 142094E5 		ldr	r2, [r4, #20]
 1950 0024 030053E3 		cmp	r3, #3
 1951 0028 185094E5 		ldr	r5, [r4, #24]
 1952 002c 0430A093 		movls	r3, #4
 1953 0030 28308495 		strls	r3, [r4, #40]
 1954 0034 103094E5 		ldr	r3, [r4, #16]
 1955 0038 025045E0 		sub	r5, r5, r2
 1956 003c 035045E0 		sub	r5, r5, r3
 1957 0040 035005E2 		and	r5, r5, #3
 1958 0044 0510A0E1 		mov	r1, r5
 1959 0048 FEFFFFEB 		bl	_ZN11flatbuffers15vector_downward12ensure_spaceEj
 1960 004c 183094E5 		ldr	r3, [r4, #24]
 1961 0050 000055E3 		cmp	r5, #0
 1962 0054 000043E0 		sub	r0, r3, r0
 1963 0058 180084E5 		str	r0, [r4, #24]
 1964 005c 0800000A 		beq	.L306
 1965 0060 010055E3 		cmp	r5, #1
 1966 0064 0030A0E3 		mov	r3, #0
 1967 0068 0030C0E5 		strb	r3, [r0]
 1968 006c 0400000A 		beq	.L306
 1969 0070 182094E5 		ldr	r2, [r4, #24]
 1970 0074 020055E3 		cmp	r5, #2
 1971 0078 0130C2E5 		strb	r3, [r2, #1]
 1972 007c 18209415 		ldrne	r2, [r4, #24]
 1973 0080 0230C215 		strbne	r3, [r2, #2]
 1974              	.L306:
 1975 0084 000056E3 		cmp	r6, #0
 1976 0088 5300000A 		beq	.L307
 1977 008c 182094E5 		ldr	r2, [r4, #24]
 1978 0090 141094E5 		ldr	r1, [r4, #20]
 1979 0094 103094E5 		ldr	r3, [r4, #16]
 1980 0098 012042E0 		sub	r2, r2, r1
 1981 009c 023043E0 		sub	r3, r3, r2
 1982 00a0 030056E1 		cmp	r6, r3
 1983 00a4 4C00008A 		bhi	.L307
 1984 00a8 282094E5 		ldr	r2, [r4, #40]
 1985 00ac 046066E2 		rsb	r6, r6, #4
 1986 00b0 036086E0 		add	r6, r6, r3
 1987 00b4 003063E2 		rsb	r3, r3, #0
 1988 00b8 035003E2 		and	r5, r3, #3
 1989 00bc 0400A0E1 		mov	r0, r4
 1990 00c0 030052E3 		cmp	r2, #3
 1991 00c4 0510A0E1 		mov	r1, r5
 1992 00c8 0420A093 		movls	r2, #4
 1993 00cc 28208495 		strls	r2, [r4, #40]
 1994 00d0 FEFFFFEB 		bl	_ZN11flatbuffers15vector_downward12ensure_spaceEj
 1995 00d4 183094E5 		ldr	r3, [r4, #24]
 1996 00d8 000055E3 		cmp	r5, #0
 1997 00dc 000043E0 		sub	r0, r3, r0
 1998 00e0 180084E5 		str	r0, [r4, #24]
 1999 00e4 0800000A 		beq	.L309
 2000 00e8 010055E3 		cmp	r5, #1
 2001 00ec 0030A0E3 		mov	r3, #0
 2002 00f0 0030C0E5 		strb	r3, [r0]
 2003 00f4 0400000A 		beq	.L309
 2004 00f8 182094E5 		ldr	r2, [r4, #24]
 2005 00fc 020055E3 		cmp	r5, #2
 2006 0100 0130C2E5 		strb	r3, [r2, #1]
 2007 0104 18209415 		ldrne	r2, [r4, #24]
 2008 0108 0230C215 		strbne	r3, [r2, #2]
 2009              	.L309:
 2010 010c 0410A0E3 		mov	r1, #4
 2011 0110 0400A0E1 		mov	r0, r4
 2012 0114 FEFFFFEB 		bl	_ZN11flatbuffers15vector_downward12ensure_spaceEj
 2013 0118 182094E5 		ldr	r2, [r4, #24]
 2014 011c 26C0D4E5 		ldrb	ip, [r4, #38]	@ zero_extendqisi2
 2015 0120 141094E5 		ldr	r1, [r4, #20]
 2016 0124 103094E5 		ldr	r3, [r4, #16]
 2017 0128 000042E0 		sub	r0, r2, r0
 2018 012c 00005CE3 		cmp	ip, #0
 2019 0130 180084E5 		str	r0, [r4, #24]
 2020 0134 011040E0 		sub	r1, r0, r1
 2021 0138 006080E5 		str	r6, [r0]
 2022 013c 013043E0 		sub	r3, r3, r1
 2023 0140 2D00000A 		beq	.L347
 2024 0144 282094E5 		ldr	r2, [r4, #40]
 2025 0148 003063E2 		rsb	r3, r3, #0
 2026 014c 035003E2 		and	r5, r3, #3
 2027 0150 0010A0E3 		mov	r1, #0
 2028 0154 2610C4E5 		strb	r1, [r4, #38]
 2029 0158 0400A0E1 		mov	r0, r4
 2030 015c 030052E3 		cmp	r2, #3
 2031 0160 0510A0E1 		mov	r1, r5
 2032 0164 0420A093 		movls	r2, #4
 2033 0168 28208495 		strls	r2, [r4, #40]
 2034 016c FEFFFFEB 		bl	_ZN11flatbuffers15vector_downward12ensure_spaceEj
 2035 0170 183094E5 		ldr	r3, [r4, #24]
 2036 0174 000055E3 		cmp	r5, #0
 2037 0178 000043E0 		sub	r0, r3, r0
 2038 017c 180084E5 		str	r0, [r4, #24]
 2039 0180 0800000A 		beq	.L313
 2040 0184 010055E3 		cmp	r5, #1
 2041 0188 0030A0E3 		mov	r3, #0
 2042 018c 0030C0E5 		strb	r3, [r0]
 2043 0190 0400000A 		beq	.L313
 2044 0194 182094E5 		ldr	r2, [r4, #24]
 2045 0198 020055E3 		cmp	r5, #2
 2046 019c 0130C2E5 		strb	r3, [r2, #1]
 2047 01a0 18209415 		ldrne	r2, [r4, #24]
 2048 01a4 0230C215 		strbne	r3, [r2, #2]
 2049              	.L313:
 2050 01a8 0410A0E3 		mov	r1, #4
 2051 01ac 0400A0E1 		mov	r0, r4
 2052 01b0 FEFFFFEB 		bl	_ZN11flatbuffers15vector_downward12ensure_spaceEj
 2053 01b4 183094E5 		ldr	r3, [r4, #24]
 2054 01b8 0110A0E3 		mov	r1, #1
 2055 01bc 142094E5 		ldr	r2, [r4, #20]
 2056 01c0 10C094E5 		ldr	ip, [r4, #16]
 2057 01c4 003043E0 		sub	r3, r3, r0
 2058 01c8 022043E0 		sub	r2, r3, r2
 2059 01cc 183084E5 		str	r3, [r4, #24]
 2060 01d0 02004CE0 		sub	r0, ip, r2
 2061 01d4 001083E5 		str	r1, [r3]
 2062 01d8 7080BDE8 		pop	{r4, r5, r6, pc}
 2063              	.L307:
 2064 01dc 003000E3 		movw	r3, #:lower16:.LC25
 2065 01e0 002000E3 		movw	r2, #:lower16:.LANCHOR13
 2066 01e4 000000E3 		movw	r0, #:lower16:.LC19
 2067 01e8 003040E3 		movt	r3, #:upper16:.LC25
 2068 01ec 002040E3 		movt	r2, #:upper16:.LANCHOR13
 2069 01f0 000040E3 		movt	r0, #:upper16:.LC19
 2070 01f4 3B1500E3 		movw	r1, #1339
 2071 01f8 FEFFFFEB 		bl	__assert_func
 2072              	.L347:
 2073 01fc 003000E3 		movw	r3, #:lower16:.LC26
 2074 0200 002000E3 		movw	r2, #:lower16:.LANCHOR14
 2075 0204 000000E3 		movw	r0, #:lower16:.LC19
 2076 0208 003040E3 		movt	r3, #:upper16:.LC26
 2077 020c 002040E3 		movt	r2, #:upper16:.LANCHOR14
 2078 0210 000040E3 		movt	r0, #:upper16:.LC19
 2079 0214 2C1600E3 		movw	r1, #1580
 2080 0218 FEFFFFEB 		bl	__assert_func
 2081              		.fnend
 2083              		.section	.text._ZN11flatbuffers17FlatBufferBuilder12CreateVectorIN6tflite12OperatorCodeEEENS_6Offs
 2084              		.align	2
 2085              		.syntax unified
 2086              		.arm
 2087              		.fpu neon
 2089              	_ZN11flatbuffers17FlatBufferBuilder12CreateVectorIN6tflite12OperatorCodeEEENS_6OffsetINS_6VectorINS
 2090              		.fnstart
 2091              	.LFB11596:
 2092              		@ args = 0, pretend = 0, frame = 0
 2093              		@ frame_needed = 0, uses_anonymous_args = 0
 2094 0000 70402DE9 		push	{r4, r5, r6, lr}
 2095              		.save {r4, r5, r6, lr}
 2096 0004 0040A0E1 		mov	r4, r0
 2097 0008 0150A0E1 		mov	r5, r1
 2098 000c 0110A0E3 		mov	r1, #1
 2099 0010 FEFFFFEB 		bl	_ZN11flatbuffers17FlatBufferBuilder11StartVectorEjj.constprop.148
 2100 0014 283094E5 		ldr	r3, [r4, #40]
 2101 0018 0400A0E1 		mov	r0, r4
 2102 001c 006095E5 		ldr	r6, [r5]
 2103 0020 142094E5 		ldr	r2, [r4, #20]
 2104 0024 030053E3 		cmp	r3, #3
 2105 0028 185094E5 		ldr	r5, [r4, #24]
 2106 002c 0430A093 		movls	r3, #4
 2107 0030 28308495 		strls	r3, [r4, #40]
 2108 0034 103094E5 		ldr	r3, [r4, #16]
 2109 0038 025045E0 		sub	r5, r5, r2
 2110 003c 035045E0 		sub	r5, r5, r3
 2111 0040 035005E2 		and	r5, r5, #3
 2112 0044 0510A0E1 		mov	r1, r5
 2113 0048 FEFFFFEB 		bl	_ZN11flatbuffers15vector_downward12ensure_spaceEj
 2114 004c 183094E5 		ldr	r3, [r4, #24]
 2115 0050 000055E3 		cmp	r5, #0
 2116 0054 000043E0 		sub	r0, r3, r0
 2117 0058 180084E5 		str	r0, [r4, #24]
 2118 005c 0800000A 		beq	.L350
 2119 0060 010055E3 		cmp	r5, #1
 2120 0064 0030A0E3 		mov	r3, #0
 2121 0068 0030C0E5 		strb	r3, [r0]
 2122 006c 0400000A 		beq	.L350
 2123 0070 182094E5 		ldr	r2, [r4, #24]
 2124 0074 020055E3 		cmp	r5, #2
 2125 0078 0130C2E5 		strb	r3, [r2, #1]
 2126 007c 18209415 		ldrne	r2, [r4, #24]
 2127 0080 0230C215 		strbne	r3, [r2, #2]
 2128              	.L350:
 2129 0084 000056E3 		cmp	r6, #0
 2130 0088 5300000A 		beq	.L351
 2131 008c 182094E5 		ldr	r2, [r4, #24]
 2132 0090 141094E5 		ldr	r1, [r4, #20]
 2133 0094 103094E5 		ldr	r3, [r4, #16]
 2134 0098 012042E0 		sub	r2, r2, r1
 2135 009c 023043E0 		sub	r3, r3, r2
 2136 00a0 030056E1 		cmp	r6, r3
 2137 00a4 4C00008A 		bhi	.L351
 2138 00a8 282094E5 		ldr	r2, [r4, #40]
 2139 00ac 046066E2 		rsb	r6, r6, #4
 2140 00b0 036086E0 		add	r6, r6, r3
 2141 00b4 003063E2 		rsb	r3, r3, #0
 2142 00b8 035003E2 		and	r5, r3, #3
 2143 00bc 0400A0E1 		mov	r0, r4
 2144 00c0 030052E3 		cmp	r2, #3
 2145 00c4 0510A0E1 		mov	r1, r5
 2146 00c8 0420A093 		movls	r2, #4
 2147 00cc 28208495 		strls	r2, [r4, #40]
 2148 00d0 FEFFFFEB 		bl	_ZN11flatbuffers15vector_downward12ensure_spaceEj
 2149 00d4 183094E5 		ldr	r3, [r4, #24]
 2150 00d8 000055E3 		cmp	r5, #0
 2151 00dc 000043E0 		sub	r0, r3, r0
 2152 00e0 180084E5 		str	r0, [r4, #24]
 2153 00e4 0800000A 		beq	.L353
 2154 00e8 010055E3 		cmp	r5, #1
 2155 00ec 0030A0E3 		mov	r3, #0
 2156 00f0 0030C0E5 		strb	r3, [r0]
 2157 00f4 0400000A 		beq	.L353
 2158 00f8 182094E5 		ldr	r2, [r4, #24]
 2159 00fc 020055E3 		cmp	r5, #2
 2160 0100 0130C2E5 		strb	r3, [r2, #1]
 2161 0104 18209415 		ldrne	r2, [r4, #24]
 2162 0108 0230C215 		strbne	r3, [r2, #2]
 2163              	.L353:
 2164 010c 0410A0E3 		mov	r1, #4
 2165 0110 0400A0E1 		mov	r0, r4
 2166 0114 FEFFFFEB 		bl	_ZN11flatbuffers15vector_downward12ensure_spaceEj
 2167 0118 182094E5 		ldr	r2, [r4, #24]
 2168 011c 26C0D4E5 		ldrb	ip, [r4, #38]	@ zero_extendqisi2
 2169 0120 141094E5 		ldr	r1, [r4, #20]
 2170 0124 103094E5 		ldr	r3, [r4, #16]
 2171 0128 000042E0 		sub	r0, r2, r0
 2172 012c 00005CE3 		cmp	ip, #0
 2173 0130 180084E5 		str	r0, [r4, #24]
 2174 0134 011040E0 		sub	r1, r0, r1
 2175 0138 006080E5 		str	r6, [r0]
 2176 013c 013043E0 		sub	r3, r3, r1
 2177 0140 2D00000A 		beq	.L391
 2178 0144 282094E5 		ldr	r2, [r4, #40]
 2179 0148 003063E2 		rsb	r3, r3, #0
 2180 014c 035003E2 		and	r5, r3, #3
 2181 0150 0010A0E3 		mov	r1, #0
 2182 0154 2610C4E5 		strb	r1, [r4, #38]
 2183 0158 0400A0E1 		mov	r0, r4
 2184 015c 030052E3 		cmp	r2, #3
 2185 0160 0510A0E1 		mov	r1, r5
 2186 0164 0420A093 		movls	r2, #4
 2187 0168 28208495 		strls	r2, [r4, #40]
 2188 016c FEFFFFEB 		bl	_ZN11flatbuffers15vector_downward12ensure_spaceEj
 2189 0170 183094E5 		ldr	r3, [r4, #24]
 2190 0174 000055E3 		cmp	r5, #0
 2191 0178 000043E0 		sub	r0, r3, r0
 2192 017c 180084E5 		str	r0, [r4, #24]
 2193 0180 0800000A 		beq	.L357
 2194 0184 010055E3 		cmp	r5, #1
 2195 0188 0030A0E3 		mov	r3, #0
 2196 018c 0030C0E5 		strb	r3, [r0]
 2197 0190 0400000A 		beq	.L357
 2198 0194 182094E5 		ldr	r2, [r4, #24]
 2199 0198 020055E3 		cmp	r5, #2
 2200 019c 0130C2E5 		strb	r3, [r2, #1]
 2201 01a0 18209415 		ldrne	r2, [r4, #24]
 2202 01a4 0230C215 		strbne	r3, [r2, #2]
 2203              	.L357:
 2204 01a8 0410A0E3 		mov	r1, #4
 2205 01ac 0400A0E1 		mov	r0, r4
 2206 01b0 FEFFFFEB 		bl	_ZN11flatbuffers15vector_downward12ensure_spaceEj
 2207 01b4 183094E5 		ldr	r3, [r4, #24]
 2208 01b8 0110A0E3 		mov	r1, #1
 2209 01bc 142094E5 		ldr	r2, [r4, #20]
 2210 01c0 10C094E5 		ldr	ip, [r4, #16]
 2211 01c4 003043E0 		sub	r3, r3, r0
 2212 01c8 022043E0 		sub	r2, r3, r2
 2213 01cc 183084E5 		str	r3, [r4, #24]
 2214 01d0 02004CE0 		sub	r0, ip, r2
 2215 01d4 001083E5 		str	r1, [r3]
 2216 01d8 7080BDE8 		pop	{r4, r5, r6, pc}
 2217              	.L351:
 2218 01dc 003000E3 		movw	r3, #:lower16:.LC25
 2219 01e0 002000E3 		movw	r2, #:lower16:.LANCHOR13
 2220 01e4 000000E3 		movw	r0, #:lower16:.LC19
 2221 01e8 003040E3 		movt	r3, #:upper16:.LC25
 2222 01ec 002040E3 		movt	r2, #:upper16:.LANCHOR13
 2223 01f0 000040E3 		movt	r0, #:upper16:.LC19
 2224 01f4 3B1500E3 		movw	r1, #1339
 2225 01f8 FEFFFFEB 		bl	__assert_func
 2226              	.L391:
 2227 01fc 003000E3 		movw	r3, #:lower16:.LC26
 2228 0200 002000E3 		movw	r2, #:lower16:.LANCHOR14
 2229 0204 000000E3 		movw	r0, #:lower16:.LC19
 2230 0208 003040E3 		movt	r3, #:upper16:.LC26
 2231 020c 002040E3 		movt	r2, #:upper16:.LANCHOR14
 2232 0210 000040E3 		movt	r0, #:upper16:.LC19
 2233 0214 2C1600E3 		movw	r1, #1580
 2234 0218 FEFFFFEB 		bl	__assert_func
 2235              		.fnend
 2237              		.section	.text._ZN11flatbuffers17FlatBufferBuilder12CreateVectorIN6tflite8SubGraphEEENS_6OffsetINS
 2238              		.align	2
 2239              		.syntax unified
 2240              		.arm
 2241              		.fpu neon
 2243              	_ZN11flatbuffers17FlatBufferBuilder12CreateVectorIN6tflite8SubGraphEEENS_6OffsetINS_6VectorINS4_IT_
 2244              		.fnstart
 2245              	.LFB11594:
 2246              		@ args = 0, pretend = 0, frame = 0
 2247              		@ frame_needed = 0, uses_anonymous_args = 0
 2248 0000 70402DE9 		push	{r4, r5, r6, lr}
 2249              		.save {r4, r5, r6, lr}
 2250 0004 0040A0E1 		mov	r4, r0
 2251 0008 0150A0E1 		mov	r5, r1
 2252 000c 0110A0E3 		mov	r1, #1
 2253 0010 FEFFFFEB 		bl	_ZN11flatbuffers17FlatBufferBuilder11StartVectorEjj.constprop.148
 2254 0014 283094E5 		ldr	r3, [r4, #40]
 2255 0018 0400A0E1 		mov	r0, r4
 2256 001c 006095E5 		ldr	r6, [r5]
 2257 0020 142094E5 		ldr	r2, [r4, #20]
 2258 0024 030053E3 		cmp	r3, #3
 2259 0028 185094E5 		ldr	r5, [r4, #24]
 2260 002c 0430A093 		movls	r3, #4
 2261 0030 28308495 		strls	r3, [r4, #40]
 2262 0034 103094E5 		ldr	r3, [r4, #16]
 2263 0038 025045E0 		sub	r5, r5, r2
 2264 003c 035045E0 		sub	r5, r5, r3
 2265 0040 035005E2 		and	r5, r5, #3
 2266 0044 0510A0E1 		mov	r1, r5
 2267 0048 FEFFFFEB 		bl	_ZN11flatbuffers15vector_downward12ensure_spaceEj
 2268 004c 183094E5 		ldr	r3, [r4, #24]
 2269 0050 000055E3 		cmp	r5, #0
 2270 0054 000043E0 		sub	r0, r3, r0
 2271 0058 180084E5 		str	r0, [r4, #24]
 2272 005c 0800000A 		beq	.L394
 2273 0060 010055E3 		cmp	r5, #1
 2274 0064 0030A0E3 		mov	r3, #0
 2275 0068 0030C0E5 		strb	r3, [r0]
 2276 006c 0400000A 		beq	.L394
 2277 0070 182094E5 		ldr	r2, [r4, #24]
 2278 0074 020055E3 		cmp	r5, #2
 2279 0078 0130C2E5 		strb	r3, [r2, #1]
 2280 007c 18209415 		ldrne	r2, [r4, #24]
 2281 0080 0230C215 		strbne	r3, [r2, #2]
 2282              	.L394:
 2283 0084 000056E3 		cmp	r6, #0
 2284 0088 5300000A 		beq	.L395
 2285 008c 182094E5 		ldr	r2, [r4, #24]
 2286 0090 141094E5 		ldr	r1, [r4, #20]
 2287 0094 103094E5 		ldr	r3, [r4, #16]
 2288 0098 012042E0 		sub	r2, r2, r1
 2289 009c 023043E0 		sub	r3, r3, r2
 2290 00a0 030056E1 		cmp	r6, r3
 2291 00a4 4C00008A 		bhi	.L395
 2292 00a8 282094E5 		ldr	r2, [r4, #40]
 2293 00ac 046066E2 		rsb	r6, r6, #4
 2294 00b0 036086E0 		add	r6, r6, r3
 2295 00b4 003063E2 		rsb	r3, r3, #0
 2296 00b8 035003E2 		and	r5, r3, #3
 2297 00bc 0400A0E1 		mov	r0, r4
 2298 00c0 030052E3 		cmp	r2, #3
 2299 00c4 0510A0E1 		mov	r1, r5
 2300 00c8 0420A093 		movls	r2, #4
 2301 00cc 28208495 		strls	r2, [r4, #40]
 2302 00d0 FEFFFFEB 		bl	_ZN11flatbuffers15vector_downward12ensure_spaceEj
 2303 00d4 183094E5 		ldr	r3, [r4, #24]
 2304 00d8 000055E3 		cmp	r5, #0
 2305 00dc 000043E0 		sub	r0, r3, r0
 2306 00e0 180084E5 		str	r0, [r4, #24]
 2307 00e4 0800000A 		beq	.L397
 2308 00e8 010055E3 		cmp	r5, #1
 2309 00ec 0030A0E3 		mov	r3, #0
 2310 00f0 0030C0E5 		strb	r3, [r0]
 2311 00f4 0400000A 		beq	.L397
 2312 00f8 182094E5 		ldr	r2, [r4, #24]
 2313 00fc 020055E3 		cmp	r5, #2
 2314 0100 0130C2E5 		strb	r3, [r2, #1]
 2315 0104 18209415 		ldrne	r2, [r4, #24]
 2316 0108 0230C215 		strbne	r3, [r2, #2]
 2317              	.L397:
 2318 010c 0410A0E3 		mov	r1, #4
 2319 0110 0400A0E1 		mov	r0, r4
 2320 0114 FEFFFFEB 		bl	_ZN11flatbuffers15vector_downward12ensure_spaceEj
 2321 0118 182094E5 		ldr	r2, [r4, #24]
 2322 011c 26C0D4E5 		ldrb	ip, [r4, #38]	@ zero_extendqisi2
 2323 0120 141094E5 		ldr	r1, [r4, #20]
 2324 0124 103094E5 		ldr	r3, [r4, #16]
 2325 0128 000042E0 		sub	r0, r2, r0
 2326 012c 00005CE3 		cmp	ip, #0
 2327 0130 180084E5 		str	r0, [r4, #24]
 2328 0134 011040E0 		sub	r1, r0, r1
 2329 0138 006080E5 		str	r6, [r0]
 2330 013c 013043E0 		sub	r3, r3, r1
 2331 0140 2D00000A 		beq	.L435
 2332 0144 282094E5 		ldr	r2, [r4, #40]
 2333 0148 003063E2 		rsb	r3, r3, #0
 2334 014c 035003E2 		and	r5, r3, #3
 2335 0150 0010A0E3 		mov	r1, #0
 2336 0154 2610C4E5 		strb	r1, [r4, #38]
 2337 0158 0400A0E1 		mov	r0, r4
 2338 015c 030052E3 		cmp	r2, #3
 2339 0160 0510A0E1 		mov	r1, r5
 2340 0164 0420A093 		movls	r2, #4
 2341 0168 28208495 		strls	r2, [r4, #40]
 2342 016c FEFFFFEB 		bl	_ZN11flatbuffers15vector_downward12ensure_spaceEj
 2343 0170 183094E5 		ldr	r3, [r4, #24]
 2344 0174 000055E3 		cmp	r5, #0
 2345 0178 000043E0 		sub	r0, r3, r0
 2346 017c 180084E5 		str	r0, [r4, #24]
 2347 0180 0800000A 		beq	.L401
 2348 0184 010055E3 		cmp	r5, #1
 2349 0188 0030A0E3 		mov	r3, #0
 2350 018c 0030C0E5 		strb	r3, [r0]
 2351 0190 0400000A 		beq	.L401
 2352 0194 182094E5 		ldr	r2, [r4, #24]
 2353 0198 020055E3 		cmp	r5, #2
 2354 019c 0130C2E5 		strb	r3, [r2, #1]
 2355 01a0 18209415 		ldrne	r2, [r4, #24]
 2356 01a4 0230C215 		strbne	r3, [r2, #2]
 2357              	.L401:
 2358 01a8 0410A0E3 		mov	r1, #4
 2359 01ac 0400A0E1 		mov	r0, r4
 2360 01b0 FEFFFFEB 		bl	_ZN11flatbuffers15vector_downward12ensure_spaceEj
 2361 01b4 183094E5 		ldr	r3, [r4, #24]
 2362 01b8 0110A0E3 		mov	r1, #1
 2363 01bc 142094E5 		ldr	r2, [r4, #20]
 2364 01c0 10C094E5 		ldr	ip, [r4, #16]
 2365 01c4 003043E0 		sub	r3, r3, r0
 2366 01c8 022043E0 		sub	r2, r3, r2
 2367 01cc 183084E5 		str	r3, [r4, #24]
 2368 01d0 02004CE0 		sub	r0, ip, r2
 2369 01d4 001083E5 		str	r1, [r3]
 2370 01d8 7080BDE8 		pop	{r4, r5, r6, pc}
 2371              	.L395:
 2372 01dc 003000E3 		movw	r3, #:lower16:.LC25
 2373 01e0 002000E3 		movw	r2, #:lower16:.LANCHOR13
 2374 01e4 000000E3 		movw	r0, #:lower16:.LC19
 2375 01e8 003040E3 		movt	r3, #:upper16:.LC25
 2376 01ec 002040E3 		movt	r2, #:upper16:.LANCHOR13
 2377 01f0 000040E3 		movt	r0, #:upper16:.LC19
 2378 01f4 3B1500E3 		movw	r1, #1339
 2379 01f8 FEFFFFEB 		bl	__assert_func
 2380              	.L435:
 2381 01fc 003000E3 		movw	r3, #:lower16:.LC26
 2382 0200 002000E3 		movw	r2, #:lower16:.LANCHOR14
 2383 0204 000000E3 		movw	r0, #:lower16:.LC19
 2384 0208 003040E3 		movt	r3, #:upper16:.LC26
 2385 020c 002040E3 		movt	r2, #:upper16:.LANCHOR14
 2386 0210 000040E3 		movt	r0, #:upper16:.LC19
 2387 0214 2C1600E3 		movw	r1, #1580
 2388 0218 FEFFFFEB 		bl	__assert_func
 2389              		.fnend
 2391              		.section	.text._ZN11flatbuffers17FlatBufferBuilder7ReferToEm,"axG",%progbits,_ZN11flatbuffers17Fla
 2392              		.align	2
 2393              		.weak	_ZN11flatbuffers17FlatBufferBuilder7ReferToEm
 2394              		.syntax unified
 2395              		.arm
 2396              		.fpu neon
 2398              	_ZN11flatbuffers17FlatBufferBuilder7ReferToEm:
 2399              		.fnstart
 2400              	.LFB3546:
 2401              		@ args = 0, pretend = 0, frame = 0
 2402              		@ frame_needed = 0, uses_anonymous_args = 0
 2403 0000 283090E5 		ldr	r3, [r0, #40]
 2404 0004 70402DE9 		push	{r4, r5, r6, lr}
 2405              		.save {r4, r5, r6, lr}
 2406 0008 0040A0E1 		mov	r4, r0
 2407 000c 185090E5 		ldr	r5, [r0, #24]
 2408 0010 0160A0E1 		mov	r6, r1
 2409 0014 030053E3 		cmp	r3, #3
 2410 0018 0430A093 		movls	r3, #4
 2411 001c 142090E5 		ldr	r2, [r0, #20]
 2412 0020 28308095 		strls	r3, [r0, #40]
 2413 0024 103090E5 		ldr	r3, [r0, #16]
 2414 0028 025045E0 		sub	r5, r5, r2
 2415 002c 035045E0 		sub	r5, r5, r3
 2416 0030 035005E2 		and	r5, r5, #3
 2417 0034 0510A0E1 		mov	r1, r5
 2418 0038 FEFFFFEB 		bl	_ZN11flatbuffers15vector_downward12ensure_spaceEj
 2419 003c 183094E5 		ldr	r3, [r4, #24]
 2420 0040 000055E3 		cmp	r5, #0
 2421 0044 000043E0 		sub	r0, r3, r0
 2422 0048 180084E5 		str	r0, [r4, #24]
 2423 004c 0800000A 		beq	.L438
 2424 0050 010055E3 		cmp	r5, #1
 2425 0054 0030A0E3 		mov	r3, #0
 2426 0058 0030C0E5 		strb	r3, [r0]
 2427 005c 0400000A 		beq	.L438
 2428 0060 182094E5 		ldr	r2, [r4, #24]
 2429 0064 020055E3 		cmp	r5, #2
 2430 0068 0130C2E5 		strb	r3, [r2, #1]
 2431 006c 18209415 		ldrne	r2, [r4, #24]
 2432 0070 0230C215 		strbne	r3, [r2, #2]
 2433              	.L438:
 2434 0074 000056E3 		cmp	r6, #0
 2435 0078 0800000A 		beq	.L439
 2436 007c 100084E2 		add	r0, r4, #16
 2437 0080 0D0090E8 		ldm	r0, {r0, r2, r3}
 2438 0084 023043E0 		sub	r3, r3, r2
 2439 0088 030040E0 		sub	r0, r0, r3
 2440 008c 000056E1 		cmp	r6, r0
 2441 0090 0200008A 		bhi	.L439
 2442 0094 046066E2 		rsb	r6, r6, #4
 2443 0098 000086E0 		add	r0, r6, r0
 2444 009c 7080BDE8 		pop	{r4, r5, r6, pc}
 2445              	.L439:
 2446 00a0 003000E3 		movw	r3, #:lower16:.LC25
 2447 00a4 002000E3 		movw	r2, #:lower16:.LANCHOR13
 2448 00a8 000000E3 		movw	r0, #:lower16:.LC19
 2449 00ac 003040E3 		movt	r3, #:upper16:.LC25
 2450 00b0 002040E3 		movt	r2, #:upper16:.LANCHOR13
 2451 00b4 000040E3 		movt	r0, #:upper16:.LC19
 2452 00b8 3B1500E3 		movw	r1, #1339
 2453 00bc FEFFFFEB 		bl	__assert_func
 2454              		.fnend
 2456              		.section	.text._ZN11flatbuffers17FlatBufferBuilder6FinishEmPKcb.constprop.146,"ax",%progbits
 2457              		.align	2
 2458              		.syntax unified
 2459              		.arm
 2460              		.fpu neon
 2462              	_ZN11flatbuffers17FlatBufferBuilder6FinishEmPKcb.constprop.146:
 2463              		.fnstart
 2464              	.LFB11580:
 2465              		@ args = 0, pretend = 0, frame = 0
 2466              		@ frame_needed = 0, uses_anonymous_args = 0
 2467 0000 2630D0E5 		ldrb	r3, [r0, #38]	@ zero_extendqisi2
 2468 0004 F0412DE9 		push	{r4, r5, r6, r7, r8, lr}
 2469              		.save {r4, r5, r6, r7, r8, lr}
 2470 0008 204090E5 		ldr	r4, [r0, #32]
 2471 000c 000053E3 		cmp	r3, #0
 2472 0010 4E00001A 		bne	.L476
 2473 0014 000054E3 		cmp	r4, #0
 2474 0018 5400001A 		bne	.L477
 2475 001c 0170A0E1 		mov	r7, r1
 2476 0020 101080E2 		add	r1, r0, #16
 2477 0024 460091E8 		ldm	r1, {r1, r2, r6}
 2478 0028 0050A0E1 		mov	r5, r0
 2479 002c 283090E5 		ldr	r3, [r0, #40]
 2480 0030 026046E0 		sub	r6, r6, r2
 2481 0034 1C2080E5 		str	r2, [r0, #28]
 2482 0038 016046E0 		sub	r6, r6, r1
 2483 003c 013043E2 		sub	r3, r3, #1
 2484 0040 086046E2 		sub	r6, r6, #8
 2485 0044 036006E0 		and	r6, r6, r3
 2486 0048 0610A0E1 		mov	r1, r6
 2487 004c FEFFFFEB 		bl	_ZN11flatbuffers15vector_downward12ensure_spaceEj
 2488 0050 183095E5 		ldr	r3, [r5, #24]
 2489 0054 000056E3 		cmp	r6, #0
 2490 0058 000043E0 		sub	r0, r3, r0
 2491 005c 180085E5 		str	r0, [r5, #24]
 2492 0060 0700000A 		beq	.L457
 2493 0064 0430A0E1 		mov	r3, r4
 2494 0068 0420A0E1 		mov	r2, r4
 2495 006c 000000EA 		b	.L458
 2496              	.L478:
 2497 0070 180095E5 		ldr	r0, [r5, #24]
 2498              	.L458:
 2499 0074 0320C0E7 		strb	r2, [r0, r3]
 2500 0078 013083E2 		add	r3, r3, #1
 2501 007c 030056E1 		cmp	r6, r3
 2502 0080 FAFFFF1A 		bne	.L478
 2503              	.L457:
 2504 0084 0410A0E3 		mov	r1, #4
 2505 0088 0500A0E1 		mov	r0, r5
 2506 008c FEFFFFEB 		bl	_ZN11flatbuffers15vector_downward12ensure_spaceEj
 2507 0090 183095E5 		ldr	r3, [r5, #24]
 2508 0094 0440A0E3 		mov	r4, #4
 2509 0098 001000E3 		movw	r1, #:lower16:.LC27
 2510 009c 0420A0E1 		mov	r2, r4
 2511 00a0 001040E3 		movt	r1, #:upper16:.LC27
 2512 00a4 000043E0 		sub	r0, r3, r0
 2513 00a8 180085E5 		str	r0, [r5, #24]
 2514 00ac FEFFFFEB 		bl	memcpy
 2515 00b0 0710A0E1 		mov	r1, r7
 2516 00b4 0500A0E1 		mov	r0, r5
 2517 00b8 FEFFFFEB 		bl	_ZN11flatbuffers17FlatBufferBuilder7ReferToEm
 2518 00bc 283095E5 		ldr	r3, [r5, #40]
 2519 00c0 0060A0E1 		mov	r6, r0
 2520 00c4 142095E5 		ldr	r2, [r5, #20]
 2521 00c8 0500A0E1 		mov	r0, r5
 2522 00cc 030053E3 		cmp	r3, #3
 2523 00d0 103095E5 		ldr	r3, [r5, #16]
 2524 00d4 28408595 		strls	r4, [r5, #40]
 2525 00d8 184095E5 		ldr	r4, [r5, #24]
 2526 00dc 024044E0 		sub	r4, r4, r2
 2527 00e0 034044E0 		sub	r4, r4, r3
 2528 00e4 034004E2 		and	r4, r4, #3
 2529 00e8 0410A0E1 		mov	r1, r4
 2530 00ec FEFFFFEB 		bl	_ZN11flatbuffers15vector_downward12ensure_spaceEj
 2531 00f0 183095E5 		ldr	r3, [r5, #24]
 2532 00f4 000054E3 		cmp	r4, #0
 2533 00f8 000043E0 		sub	r0, r3, r0
 2534 00fc 180085E5 		str	r0, [r5, #24]
 2535 0100 0800000A 		beq	.L461
 2536 0104 010054E3 		cmp	r4, #1
 2537 0108 0030A0E3 		mov	r3, #0
 2538 010c 0030C0E5 		strb	r3, [r0]
 2539 0110 0400000A 		beq	.L461
 2540 0114 182095E5 		ldr	r2, [r5, #24]
 2541 0118 020054E3 		cmp	r4, #2
 2542 011c 0130C2E5 		strb	r3, [r2, #1]
 2543 0120 18209515 		ldrne	r2, [r5, #24]
 2544 0124 0230C215 		strbne	r3, [r2, #2]
 2545              	.L461:
 2546 0128 0410A0E3 		mov	r1, #4
 2547 012c 0500A0E1 		mov	r0, r5
 2548 0130 FEFFFFEB 		bl	_ZN11flatbuffers15vector_downward12ensure_spaceEj
 2549 0134 183095E5 		ldr	r3, [r5, #24]
 2550 0138 0120A0E3 		mov	r2, #1
 2551 013c 000043E0 		sub	r0, r3, r0
 2552 0140 180085E5 		str	r0, [r5, #24]
 2553 0144 006080E5 		str	r6, [r0]
 2554 0148 2720C5E5 		strb	r2, [r5, #39]
 2555 014c F081BDE8 		pop	{r4, r5, r6, r7, r8, pc}
 2556              	.L476:
 2557 0150 003000E3 		movw	r3, #:lower16:.LC24
 2558 0154 002000E3 		movw	r2, #:lower16:.LANCHOR11
 2559 0158 000000E3 		movw	r0, #:lower16:.LC19
 2560 015c 003040E3 		movt	r3, #:upper16:.LC24
 2561 0160 002040E3 		movt	r2, #:upper16:.LANCHOR11
 2562 0164 000040E3 		movt	r0, #:upper16:.LC19
 2563 0168 481500E3 		movw	r1, #1352
 2564 016c FEFFFFEB 		bl	__assert_func
 2565              	.L477:
 2566 0170 FEFFFFEB 		bl	_ZN11flatbuffers17FlatBufferBuilder9NotNestedEv.isra.19.part.20
 2567              		.fnend
 2569              		.section	.text._ZN11flatbuffers17FlatBufferBuilder8EndTableEm,"axG",%progbits,_ZN11flatbuffers17Fl
 2570              		.align	2
 2571              		.weak	_ZN11flatbuffers17FlatBufferBuilder8EndTableEm
 2572              		.syntax unified
 2573              		.arm
 2574              		.fpu neon
 2576              	_ZN11flatbuffers17FlatBufferBuilder8EndTableEm:
 2577              		.fnstart
 2578              	.LFB3549:
 2579              		@ args = 0, pretend = 0, frame = 8
 2580              		@ frame_needed = 0, uses_anonymous_args = 0
 2581 0000 2630D0E5 		ldrb	r3, [r0, #38]	@ zero_extendqisi2
 2582 0004 F04F2DE9 		push	{r4, r5, r6, r7, r8, r9, r10, fp, lr}
 2583              		.save {r4, r5, r6, r7, r8, r9, r10, fp, lr}
 2584              		.pad #12
 2585 0008 0CD04DE2 		sub	sp, sp, #12
 2586 000c 000053E3 		cmp	r3, #0
 2587 0010 B400000A 		beq	.L515
 2588 0014 283090E5 		ldr	r3, [r0, #40]
 2589 0018 0060A0E1 		mov	r6, r0
 2590 001c 184090E5 		ldr	r4, [r0, #24]
 2591 0020 0150A0E1 		mov	r5, r1
 2592 0024 142090E5 		ldr	r2, [r0, #20]
 2593 0028 030053E3 		cmp	r3, #3
 2594 002c 0430A093 		movls	r3, #4
 2595 0030 28308095 		strls	r3, [r0, #40]
 2596 0034 024044E0 		sub	r4, r4, r2
 2597 0038 103090E5 		ldr	r3, [r0, #16]
 2598 003c 034044E0 		sub	r4, r4, r3
 2599 0040 034004E2 		and	r4, r4, #3
 2600 0044 0410A0E1 		mov	r1, r4
 2601 0048 FEFFFFEB 		bl	_ZN11flatbuffers15vector_downward12ensure_spaceEj
 2602 004c 183096E5 		ldr	r3, [r6, #24]
 2603 0050 000054E3 		cmp	r4, #0
 2604 0054 000043E0 		sub	r0, r3, r0
 2605 0058 180086E5 		str	r0, [r6, #24]
 2606 005c 0800000A 		beq	.L482
 2607 0060 010054E3 		cmp	r4, #1
 2608 0064 0030A0E3 		mov	r3, #0
 2609 0068 0030C0E5 		strb	r3, [r0]
 2610 006c 0400000A 		beq	.L482
 2611 0070 182096E5 		ldr	r2, [r6, #24]
 2612 0074 020054E3 		cmp	r4, #2
 2613 0078 0130C2E5 		strb	r3, [r2, #1]
 2614 007c 18209615 		ldrne	r2, [r6, #24]
 2615 0080 0230C215 		strbne	r3, [r2, #2]
 2616              	.L482:
 2617 0084 0410A0E3 		mov	r1, #4
 2618 0088 0600A0E1 		mov	r0, r6
 2619 008c FEFFFFEB 		bl	_ZN11flatbuffers15vector_downward12ensure_spaceEj
 2620 0090 B442D6E1 		ldrh	r4, [r6, #36]
 2621 0094 0070A0E3 		mov	r7, #0
 2622 0098 183096E5 		ldr	r3, [r6, #24]
 2623 009c 14B096E5 		ldr	fp, [r6, #20]
 2624 00a0 024084E2 		add	r4, r4, #2
 2625 00a4 102096E5 		ldr	r2, [r6, #16]
 2626 00a8 7440FFE6 		uxth	r4, r4
 2627 00ac 000043E0 		sub	r0, r3, r0
 2628 00b0 0B3040E0 		sub	r3, r0, fp
 2629 00b4 180086E5 		str	r0, [r6, #24]
 2630 00b8 040054E3 		cmp	r4, #4
 2631 00bc 033042E0 		sub	r3, r2, r3
 2632 00c0 0440A033 		movcc	r4, #4
 2633 00c4 007080E5 		str	r7, [r0]
 2634 00c8 0410A0E1 		mov	r1, r4
 2635 00cc 0600A0E1 		mov	r0, r6
 2636 00d0 B442C6E1 		strh	r4, [r6, #36]	@ movhi
 2637 00d4 0380A0E1 		mov	r8, r3
 2638 00d8 00308DE5 		str	r3, [sp]
 2639 00dc 055048E0 		sub	r5, r8, r5
 2640 00e0 FEFFFFEB 		bl	_ZN11flatbuffers15vector_downward12ensure_spaceEj
 2641 00e4 183096E5 		ldr	r3, [r6, #24]
 2642 00e8 0420A0E1 		mov	r2, r4
 2643 00ec 0710A0E1 		mov	r1, r7
 2644 00f0 000043E0 		sub	r0, r3, r0
 2645 00f4 180086E5 		str	r0, [r6, #24]
 2646 00f8 FEFFFFEB 		bl	memset
 2647 00fc 010855E3 		cmp	r5, #65536
 2648 0100 8100002A 		bcs	.L516
 2649 0104 184096E5 		ldr	r4, [r6, #24]
 2650 0108 000054E3 		cmp	r4, #0
 2651 010c 7D00000A 		beq	.L517
 2652 0110 1C0096E5 		ldr	r0, [r6, #28]
 2653 0114 B250C4E1 		strh	r5, [r4, #2]	@ movhi
 2654 0118 B432D6E1 		ldrh	r3, [r6, #36]
 2655 011c 000050E3 		cmp	r0, #0
 2656 0120 B030C4E1 		strh	r3, [r4]	@ movhi
 2657 0124 5F00000A 		beq	.L496
 2658 0128 209096E5 		ldr	r9, [r6, #32]
 2659 012c 899140E0 		sub	r9, r0, r9, lsl #3
 2660 0130 000059E1 		cmp	r9, r0
 2661 0134 1600002A 		bcs	.L493
 2662 0138 B410D9E1 		ldrh	r1, [r9, #4]
 2663 013c B0C0DDE1 		ldrh	ip, [sp]
 2664 0140 003099E5 		ldr	r3, [r9]
 2665 0144 B12094E1 		ldrh	r2, [r4, r1]
 2666 0148 011084E0 		add	r1, r4, r1
 2667 014c 03304CE0 		sub	r3, ip, r3
 2668 0150 000052E3 		cmp	r2, #0
 2669 0154 7330FFE6 		uxth	r3, r3
 2670 0158 0920A001 		moveq	r2, r9
 2671 015c 0800000A 		beq	.L490
 2672 0160 480000EA 		b	.L491
 2673              	.L492:
 2674 0164 B410D2E1 		ldrh	r1, [r2, #4]
 2675 0168 003092E5 		ldr	r3, [r2]
 2676 016c B1E094E1 		ldrh	lr, [r4, r1]
 2677 0170 011084E0 		add	r1, r4, r1
 2678 0174 03304CE0 		sub	r3, ip, r3
 2679 0178 7330FFE6 		uxth	r3, r3
 2680 017c 00005EE3 		cmp	lr, #0
 2681 0180 4000001A 		bne	.L491
 2682              	.L490:
 2683 0184 082082E2 		add	r2, r2, #8
 2684 0188 B030C1E1 		strh	r3, [r1]	@ movhi
 2685 018c 000052E1 		cmp	r2, r0
 2686 0190 F3FFFF3A 		bcc	.L492
 2687              	.L493:
 2688 0194 2D20D6E5 		ldrb	r2, [r6, #45]	@ zero_extendqisi2
 2689 0198 0030A0E3 		mov	r3, #0
 2690 019c 147096E5 		ldr	r7, [r6, #20]
 2691 01a0 10A096E5 		ldr	r10, [r6, #16]
 2692 01a4 030052E1 		cmp	r2, r3
 2693 01a8 1C9086E5 		str	r9, [r6, #28]
 2694 01ac 072044E0 		sub	r2, r4, r7
 2695 01b0 203086E5 		str	r3, [r6, #32]
 2696 01b4 02204AE0 		sub	r2, r10, r2
 2697 01b8 B432C6E1 		strh	r3, [r6, #36]	@ movhi
 2698 01bc 04208DE5 		str	r2, [sp, #4]
 2699 01c0 1E00000A 		beq	.L488
 2700 01c4 000057E3 		cmp	r7, #0
 2701 01c8 3E00000A 		beq	.L494
 2702 01cc 000059E3 		cmp	r9, #0
 2703 01d0 3400000A 		beq	.L496
 2704 01d4 070059E1 		cmp	r9, r7
 2705 01d8 1800009A 		bls	.L488
 2706 01dc B0B0D4E1 		ldrh	fp, [r4]
 2707 01e0 0750A0E1 		mov	r5, r7
 2708 01e4 010000EA 		b	.L499
 2709              	.L497:
 2710 01e8 050059E1 		cmp	r9, r5
 2711 01ec 1300009A 		bls	.L488
 2712              	.L499:
 2713 01f0 048095E4 		ldr	r8, [r5], #4
 2714 01f4 08004AE0 		sub	r0, r10, r8
 2715 01f8 B03097E1 		ldrh	r3, [r7, r0]
 2716 01fc 000087E0 		add	r0, r7, r0
 2717 0200 0B0053E1 		cmp	r3, fp
 2718 0204 F7FFFF1A 		bne	.L497
 2719 0208 0B20A0E1 		mov	r2, fp
 2720 020c 0410A0E1 		mov	r1, r4
 2721 0210 FEFFFFEB 		bl	memcmp
 2722 0214 000050E3 		cmp	r0, #0
 2723 0218 F2FFFF1A 		bne	.L497
 2724 021c 0C009DE8 		ldm	sp, {r2, r3}
 2725 0220 023043E0 		sub	r3, r3, r2
 2726 0224 034084E0 		add	r4, r4, r3
 2727 0228 073044E0 		sub	r3, r4, r7
 2728 022c 184086E5 		str	r4, [r6, #24]
 2729 0230 03304AE0 		sub	r3, r10, r3
 2730 0234 030058E1 		cmp	r8, r3
 2731 0238 0A00001A 		bne	.L498
 2732 023c 04808DE5 		str	r8, [sp, #4]
 2733              	.L488:
 2734 0240 0410A0E3 		mov	r1, #4
 2735 0244 0600A0E1 		mov	r0, r6
 2736 0248 FEFFFFEB 		bl	_ZN11flatbuffers15vector_downward12ensure_spaceEj
 2737 024c 04209DE5 		ldr	r2, [sp, #4]
 2738 0250 1C3096E5 		ldr	r3, [r6, #28]
 2739 0254 10A096E5 		ldr	r10, [r6, #16]
 2740 0258 0280A0E1 		mov	r8, r2
 2741 025c 147096E5 		ldr	r7, [r6, #20]
 2742 0260 042083E4 		str	r2, [r3], #4
 2743 0264 1C3086E5 		str	r3, [r6, #28]
 2744              	.L498:
 2745 0268 00009DE5 		ldr	r0, [sp]
 2746 026c 0030A0E3 		mov	r3, #0
 2747 0270 00A04AE0 		sub	r10, r10, r0
 2748 0274 008048E0 		sub	r8, r8, r0
 2749 0278 0A8087E7 		str	r8, [r7, r10]
 2750 027c 2630C6E5 		strb	r3, [r6, #38]
 2751 0280 0CD08DE2 		add	sp, sp, #12
 2752              		@ sp needed
 2753 0284 F08FBDE8 		pop	{r4, r5, r6, r7, r8, r9, r10, fp, pc}
 2754              	.L491:
 2755 0288 003000E3 		movw	r3, #:lower16:.LC30
 2756 028c 002000E3 		movw	r2, #:lower16:.LANCHOR15
 2757 0290 000000E3 		movw	r0, #:lower16:.LC19
 2758 0294 003040E3 		movt	r3, #:upper16:.LC30
 2759 0298 002040E3 		movt	r2, #:upper16:.LANCHOR15
 2760 029c 000040E3 		movt	r0, #:upper16:.LC19
 2761 02a0 731500E3 		movw	r1, #1395
 2762 02a4 FEFFFFEB 		bl	__assert_func
 2763              	.L496:
 2764 02a8 003000E3 		movw	r3, #:lower16:.LC29
 2765 02ac 002000E3 		movw	r2, #:lower16:.LANCHOR16
 2766 02b0 000000E3 		movw	r0, #:lower16:.LC19
 2767 02b4 003040E3 		movt	r3, #:upper16:.LC29
 2768 02b8 002040E3 		movt	r2, #:upper16:.LANCHOR16
 2769 02bc 000040E3 		movt	r0, #:upper16:.LC19
 2770 02c0 EF1FA0E3 		mov	r1, #956
 2771 02c4 FEFFFFEB 		bl	__assert_func
 2772              	.L494:
 2773 02c8 003000E3 		movw	r3, #:lower16:.LC31
 2774 02cc 002000E3 		movw	r2, #:lower16:.LANCHOR17
 2775 02d0 000000E3 		movw	r0, #:lower16:.LC19
 2776 02d4 003040E3 		movt	r3, #:upper16:.LC31
 2777 02d8 002040E3 		movt	r2, #:upper16:.LANCHOR17
 2778 02dc 000040E3 		movt	r0, #:upper16:.LC19
 2779 02e0 B71300E3 		movw	r1, #951
 2780 02e4 FEFFFFEB 		bl	__assert_func
 2781              	.L515:
 2782 02e8 003000E3 		movw	r3, #:lower16:.LC26
 2783 02ec 002000E3 		movw	r2, #:lower16:.LANCHOR15
 2784 02f0 000000E3 		movw	r0, #:lower16:.LC19
 2785 02f4 003040E3 		movt	r3, #:upper16:.LC26
 2786 02f8 002040E3 		movt	r2, #:upper16:.LANCHOR15
 2787 02fc 000040E3 		movt	r0, #:upper16:.LC19
 2788 0300 5A1500E3 		movw	r1, #1370
 2789 0304 FEFFFFEB 		bl	__assert_func
 2790              	.L517:
 2791 0308 FEFFFFEB 		bl	_ZNK11flatbuffers15vector_downward4dataEv.isra.9.part.10
 2792              	.L516:
 2793 030c 003000E3 		movw	r3, #:lower16:.LC28
 2794 0310 002000E3 		movw	r2, #:lower16:.LANCHOR15
 2795 0314 000000E3 		movw	r0, #:lower16:.LC19
 2796 0318 003040E3 		movt	r3, #:upper16:.LC28
 2797 031c 002040E3 		movt	r2, #:upper16:.LANCHOR15
 2798 0320 000040E3 		movt	r0, #:upper16:.LC19
 2799 0324 691500E3 		movw	r1, #1385
 2800 0328 FEFFFFEB 		bl	__assert_func
 2801              		.fnend
 2803              		.section	.text._ZN6tflite12CreateTensorERN11flatbuffers17FlatBufferBuilderENS0_6OffsetINS0_6Vector
 2804              		.align	2
 2805              		.syntax unified
 2806              		.arm
 2807              		.fpu neon
 2809              	_ZN6tflite12CreateTensorERN11flatbuffers17FlatBufferBuilderENS0_6OffsetINS0_6VectorIlEEEENS_10Tenso
 2810              		.fnstart
 2811              	.LFB11582:
 2812              		@ args = 16, pretend = 0, frame = 0
 2813              		@ frame_needed = 0, uses_anonymous_args = 0
 2814 0000 F84F2DE9 		push	{r3, r4, r5, r6, r7, r8, r9, r10, fp, lr}
 2815              		.save {r3, r4, r5, r6, r7, r8, r9, r10, fp, lr}
 2816 0004 0180A0E1 		mov	r8, r1
 2817 0008 2610D0E5 		ldrb	r1, [r0, #38]	@ zero_extendqisi2
 2818 000c 0350A0E1 		mov	r5, r3
 2819 0010 28A09DE5 		ldr	r10, [sp, #40]
 2820 0014 000051E3 		cmp	r1, #0
 2821 0018 203090E5 		ldr	r3, [r0, #32]
 2822 001c 2C70DDE5 		ldrb	r7, [sp, #44]	@ zero_extendqisi2
 2823 0020 30B09DE5 		ldr	fp, [sp, #48]
 2824 0024 34109DE5 		ldr	r1, [sp, #52]
 2825 0028 E700001A 		bne	.L584
 2826 002c 000053E3 		cmp	r3, #0
 2827 0030 ED00001A 		bne	.L585
 2828 0034 0290A0E1 		mov	r9, r2
 2829 0038 183090E5 		ldr	r3, [r0, #24]
 2830 003c 142090E5 		ldr	r2, [r0, #20]
 2831 0040 000051E3 		cmp	r1, #0
 2832 0044 106090E5 		ldr	r6, [r0, #16]
 2833 0048 01C0A0E3 		mov	ip, #1
 2834 004c 0040A0E1 		mov	r4, r0
 2835 0050 26C0C0E5 		strb	ip, [r0, #38]
 2836 0054 023043E0 		sub	r3, r3, r2
 2837 0058 036046E0 		sub	r6, r6, r3
 2838 005c D000001A 		bne	.L586
 2839              	.L522:
 2840 0060 00005BE3 		cmp	fp, #0
 2841 0064 C200001A 		bne	.L587
 2842              	.L526:
 2843 0068 00005AE3 		cmp	r10, #0
 2844 006c B400001A 		bne	.L588
 2845              	.L530:
 2846 0070 000055E3 		cmp	r5, #0
 2847 0074 5C00001A 		bne	.L589
 2848              	.L533:
 2849 0078 000059E3 		cmp	r9, #0
 2850 007c 6400001A 		bne	.L536
 2851 0080 2C30D4E5 		ldrb	r3, [r4, #44]	@ zero_extendqisi2
 2852 0084 000053E3 		cmp	r3, #0
 2853 0088 6100001A 		bne	.L536
 2854              	.L537:
 2855 008c 000058E3 		cmp	r8, #0
 2856 0090 9700001A 		bne	.L590
 2857              	.L540:
 2858 0094 000057E3 		cmp	r7, #0
 2859 0098 9F00001A 		bne	.L559
 2860 009c 2C30D4E5 		ldrb	r3, [r4, #44]	@ zero_extendqisi2
 2861 00a0 000053E3 		cmp	r3, #0
 2862 00a4 2500000A 		beq	.L544
 2863              	.L543:
 2864 00a8 283094E5 		ldr	r3, [r4, #40]
 2865 00ac 0010A0E3 		mov	r1, #0
 2866 00b0 0400A0E1 		mov	r0, r4
 2867 00b4 000053E3 		cmp	r3, #0
 2868 00b8 0130A003 		moveq	r3, #1
 2869 00bc 28308405 		streq	r3, [r4, #40]
 2870 00c0 FEFFFFEB 		bl	_ZN11flatbuffers15vector_downward12ensure_spaceEj
 2871 00c4 183094E5 		ldr	r3, [r4, #24]
 2872 00c8 0110A0E3 		mov	r1, #1
 2873 00cc 003043E0 		sub	r3, r3, r0
 2874 00d0 0400A0E1 		mov	r0, r4
 2875 00d4 183084E5 		str	r3, [r4, #24]
 2876 00d8 FEFFFFEB 		bl	_ZN11flatbuffers15vector_downward12ensure_spaceEj
 2877 00dc 183094E5 		ldr	r3, [r4, #24]
 2878 00e0 0810A0E3 		mov	r1, #8
 2879 00e4 003043E0 		sub	r3, r3, r0
 2880 00e8 0400A0E1 		mov	r0, r4
 2881 00ec 183084E5 		str	r3, [r4, #24]
 2882 00f0 0070C3E5 		strb	r7, [r3]
 2883 00f4 142094E5 		ldr	r2, [r4, #20]
 2884 00f8 183094E5 		ldr	r3, [r4, #24]
 2885 00fc 105094E5 		ldr	r5, [r4, #16]
 2886 0100 023043E0 		sub	r3, r3, r2
 2887 0104 035045E0 		sub	r5, r5, r3
 2888 0108 FEFFFFEB 		bl	_ZN11flatbuffers15vector_downward12ensure_spaceEj
 2889 010c 1C3094E5 		ldr	r3, [r4, #28]
 2890 0110 0E00A0E3 		mov	r0, #14
 2891 0114 202094E5 		ldr	r2, [r4, #32]
 2892 0118 081083E2 		add	r1, r3, #8
 2893 011c 005083E5 		str	r5, [r3]
 2894 0120 B400C3E1 		strh	r0, [r3, #4]	@ movhi
 2895 0124 012082E2 		add	r2, r2, #1
 2896 0128 B432D4E1 		ldrh	r3, [r4, #36]
 2897 012c 1C1084E5 		str	r1, [r4, #28]
 2898 0130 202084E5 		str	r2, [r4, #32]
 2899 0134 000053E1 		cmp	r3, r0
 2900 0138 0030A0B1 		movlt	r3, r0
 2901 013c B432C4E1 		strh	r3, [r4, #36]	@ movhi
 2902              	.L544:
 2903 0140 283094E5 		ldr	r3, [r4, #40]
 2904 0144 0010A0E3 		mov	r1, #0
 2905 0148 0400A0E1 		mov	r0, r4
 2906 014c 000053E3 		cmp	r3, #0
 2907 0150 0130A003 		moveq	r3, #1
 2908 0154 28308405 		streq	r3, [r4, #40]
 2909 0158 FEFFFFEB 		bl	_ZN11flatbuffers15vector_downward12ensure_spaceEj
 2910 015c 183094E5 		ldr	r3, [r4, #24]
 2911 0160 0110A0E3 		mov	r1, #1
 2912 0164 003043E0 		sub	r3, r3, r0
 2913 0168 0400A0E1 		mov	r0, r4
 2914 016c 183084E5 		str	r3, [r4, #24]
 2915 0170 FEFFFFEB 		bl	_ZN11flatbuffers15vector_downward12ensure_spaceEj
 2916 0174 183094E5 		ldr	r3, [r4, #24]
 2917 0178 0220A0E3 		mov	r2, #2
 2918 017c 0810A0E3 		mov	r1, #8
 2919 0180 003043E0 		sub	r3, r3, r0
 2920 0184 0400A0E1 		mov	r0, r4
 2921 0188 183084E5 		str	r3, [r4, #24]
 2922 018c 0020C3E5 		strb	r2, [r3]
 2923 0190 142094E5 		ldr	r2, [r4, #20]
 2924 0194 183094E5 		ldr	r3, [r4, #24]
 2925 0198 105094E5 		ldr	r5, [r4, #16]
 2926 019c 023043E0 		sub	r3, r3, r2
 2927 01a0 035045E0 		sub	r5, r5, r3
 2928 01a4 FEFFFFEB 		bl	_ZN11flatbuffers15vector_downward12ensure_spaceEj
 2929 01a8 1C3094E5 		ldr	r3, [r4, #28]
 2930 01ac 06E0A0E3 		mov	lr, #6
 2931 01b0 202094E5 		ldr	r2, [r4, #32]
 2932 01b4 0610A0E1 		mov	r1, r6
 2933 01b8 0400A0E1 		mov	r0, r4
 2934 01bc 005083E5 		str	r5, [r3]
 2935 01c0 08C083E2 		add	ip, r3, #8
 2936 01c4 B4E0C3E1 		strh	lr, [r3, #4]	@ movhi
 2937 01c8 012082E2 		add	r2, r2, #1
 2938 01cc B432D4E1 		ldrh	r3, [r4, #36]
 2939 01d0 1CC084E5 		str	ip, [r4, #28]
 2940 01d4 202084E5 		str	r2, [r4, #32]
 2941 01d8 0E0053E1 		cmp	r3, lr
 2942 01dc 0E30A0B1 		movlt	r3, lr
 2943 01e0 B432C4E1 		strh	r3, [r4, #36]	@ movhi
 2944 01e4 FEFFFFEB 		bl	_ZN11flatbuffers17FlatBufferBuilder8EndTableEm
 2945 01e8 F88FBDE8 		pop	{r3, r4, r5, r6, r7, r8, r9, r10, fp, pc}
 2946              	.L589:
 2947 01ec 0510A0E1 		mov	r1, r5
 2948 01f0 0400A0E1 		mov	r0, r4
 2949 01f4 FEFFFFEB 		bl	_ZN11flatbuffers17FlatBufferBuilder7ReferToEm
 2950 01f8 002050E2 		subs	r2, r0, #0
 2951 01fc 4C00001A 		bne	.L534
 2952 0200 2C30D4E5 		ldrb	r3, [r4, #44]	@ zero_extendqisi2
 2953 0204 000053E3 		cmp	r3, #0
 2954 0208 4900001A 		bne	.L534
 2955 020c 000059E3 		cmp	r9, #0
 2956 0210 9DFFFF0A 		beq	.L537
 2957              	.L536:
 2958 0214 283094E5 		ldr	r3, [r4, #40]
 2959 0218 0400A0E1 		mov	r0, r4
 2960 021c 185094E5 		ldr	r5, [r4, #24]
 2961 0220 142094E5 		ldr	r2, [r4, #20]
 2962 0224 030053E3 		cmp	r3, #3
 2963 0228 0430A093 		movls	r3, #4
 2964 022c 28308495 		strls	r3, [r4, #40]
 2965 0230 025045E0 		sub	r5, r5, r2
 2966 0234 103094E5 		ldr	r3, [r4, #16]
 2967 0238 035045E0 		sub	r5, r5, r3
 2968 023c 035005E2 		and	r5, r5, #3
 2969 0240 0510A0E1 		mov	r1, r5
 2970 0244 FEFFFFEB 		bl	_ZN11flatbuffers15vector_downward12ensure_spaceEj
 2971 0248 183094E5 		ldr	r3, [r4, #24]
 2972 024c 000055E3 		cmp	r5, #0
 2973 0250 000043E0 		sub	r0, r3, r0
 2974 0254 180084E5 		str	r0, [r4, #24]
 2975 0258 0800000A 		beq	.L538
 2976 025c 010055E3 		cmp	r5, #1
 2977 0260 0030A0E3 		mov	r3, #0
 2978 0264 0030C0E5 		strb	r3, [r0]
 2979 0268 0400000A 		beq	.L538
 2980 026c 182094E5 		ldr	r2, [r4, #24]
 2981 0270 020055E3 		cmp	r5, #2
 2982 0274 0130C2E5 		strb	r3, [r2, #1]
 2983 0278 18209415 		ldrne	r2, [r4, #24]
 2984 027c 0230C215 		strbne	r3, [r2, #2]
 2985              	.L538:
 2986 0280 0410A0E3 		mov	r1, #4
 2987 0284 0400A0E1 		mov	r0, r4
 2988 0288 FEFFFFEB 		bl	_ZN11flatbuffers15vector_downward12ensure_spaceEj
 2989 028c 183094E5 		ldr	r3, [r4, #24]
 2990 0290 0810A0E3 		mov	r1, #8
 2991 0294 142094E5 		ldr	r2, [r4, #20]
 2992 0298 105094E5 		ldr	r5, [r4, #16]
 2993 029c 000043E0 		sub	r0, r3, r0
 2994 02a0 023040E0 		sub	r3, r0, r2
 2995 02a4 180084E5 		str	r0, [r4, #24]
 2996 02a8 009080E5 		str	r9, [r0]
 2997 02ac 0400A0E1 		mov	r0, r4
 2998 02b0 035045E0 		sub	r5, r5, r3
 2999 02b4 FEFFFFEB 		bl	_ZN11flatbuffers15vector_downward12ensure_spaceEj
 3000 02b8 1C3094E5 		ldr	r3, [r4, #28]
 3001 02bc 0800A0E3 		mov	r0, #8
 3002 02c0 202094E5 		ldr	r2, [r4, #32]
 3003 02c4 001083E0 		add	r1, r3, r0
 3004 02c8 005083E5 		str	r5, [r3]
 3005 02cc B400C3E1 		strh	r0, [r3, #4]	@ movhi
 3006 02d0 012082E2 		add	r2, r2, #1
 3007 02d4 B432D4E1 		ldrh	r3, [r4, #36]
 3008 02d8 1C1084E5 		str	r1, [r4, #28]
 3009 02dc 202084E5 		str	r2, [r4, #32]
 3010 02e0 000053E1 		cmp	r3, r0
 3011 02e4 0030A0B1 		movlt	r3, r0
 3012 02e8 000058E3 		cmp	r8, #0
 3013 02ec B432C4E1 		strh	r3, [r4, #36]	@ movhi
 3014 02f0 67FFFF0A 		beq	.L540
 3015              	.L590:
 3016 02f4 0810A0E1 		mov	r1, r8
 3017 02f8 0400A0E1 		mov	r0, r4
 3018 02fc FEFFFFEB 		bl	_ZN11flatbuffers17FlatBufferBuilder7ReferToEm
 3019 0300 002050E2 		subs	r2, r0, #0
 3020 0304 0600001A 		bne	.L541
 3021 0308 2C30D4E5 		ldrb	r3, [r4, #44]	@ zero_extendqisi2
 3022 030c 000053E3 		cmp	r3, #0
 3023 0310 0300001A 		bne	.L541
 3024 0314 000057E3 		cmp	r7, #0
 3025 0318 88FFFF0A 		beq	.L544
 3026              	.L559:
 3027 031c 0170A0E3 		mov	r7, #1
 3028 0320 60FFFFEA 		b	.L543
 3029              	.L541:
 3030 0324 0410A0E3 		mov	r1, #4
 3031 0328 0400A0E1 		mov	r0, r4
 3032 032c FEFFFFEB 		bl	_ZN11flatbuffers17FlatBufferBuilder10AddElementImEEvtT_S2_.part.45
 3033 0330 57FFFFEA 		b	.L540
 3034              	.L534:
 3035 0334 0A10A0E3 		mov	r1, #10
 3036 0338 0400A0E1 		mov	r0, r4
 3037 033c FEFFFFEB 		bl	_ZN11flatbuffers17FlatBufferBuilder10AddElementImEEvtT_S2_.part.45
 3038 0340 4CFFFFEA 		b	.L533
 3039              	.L588:
 3040 0344 0A10A0E1 		mov	r1, r10
 3041 0348 0400A0E1 		mov	r0, r4
 3042 034c FEFFFFEB 		bl	_ZN11flatbuffers17FlatBufferBuilder7ReferToEm
 3043 0350 002050E2 		subs	r2, r0, #0
 3044 0354 0200001A 		bne	.L531
 3045 0358 2C30D4E5 		ldrb	r3, [r4, #44]	@ zero_extendqisi2
 3046 035c 000053E3 		cmp	r3, #0
 3047 0360 42FFFF0A 		beq	.L530
 3048              	.L531:
 3049 0364 0C10A0E3 		mov	r1, #12
 3050 0368 0400A0E1 		mov	r0, r4
 3051 036c FEFFFFEB 		bl	_ZN11flatbuffers17FlatBufferBuilder10AddElementImEEvtT_S2_.part.45
 3052 0370 3EFFFFEA 		b	.L530
 3053              	.L587:
 3054 0374 0B10A0E1 		mov	r1, fp
 3055 0378 0400A0E1 		mov	r0, r4
 3056 037c FEFFFFEB 		bl	_ZN11flatbuffers17FlatBufferBuilder7ReferToEm
 3057 0380 002050E2 		subs	r2, r0, #0
 3058 0384 0200001A 		bne	.L527
 3059 0388 2C30D4E5 		ldrb	r3, [r4, #44]	@ zero_extendqisi2
 3060 038c 000053E3 		cmp	r3, #0
 3061 0390 34FFFF0A 		beq	.L526
 3062              	.L527:
 3063 0394 1010A0E3 		mov	r1, #16
 3064 0398 0400A0E1 		mov	r0, r4
 3065 039c FEFFFFEB 		bl	_ZN11flatbuffers17FlatBufferBuilder10AddElementImEEvtT_S2_.part.45
 3066 03a0 30FFFFEA 		b	.L526
 3067              	.L586:
 3068 03a4 FEFFFFEB 		bl	_ZN11flatbuffers17FlatBufferBuilder7ReferToEm
 3069 03a8 002050E2 		subs	r2, r0, #0
 3070 03ac 0200001A 		bne	.L523
 3071 03b0 2C30D4E5 		ldrb	r3, [r4, #44]	@ zero_extendqisi2
 3072 03b4 000053E3 		cmp	r3, #0
 3073 03b8 28FFFF0A 		beq	.L522
 3074              	.L523:
 3075 03bc 1210A0E3 		mov	r1, #18
 3076 03c0 0400A0E1 		mov	r0, r4
 3077 03c4 FEFFFFEB 		bl	_ZN11flatbuffers17FlatBufferBuilder10AddElementImEEvtT_S2_.part.45
 3078 03c8 24FFFFEA 		b	.L522
 3079              	.L584:
 3080 03cc 003000E3 		movw	r3, #:lower16:.LC24
 3081 03d0 002000E3 		movw	r2, #:lower16:.LANCHOR11
 3082 03d4 000000E3 		movw	r0, #:lower16:.LC19
 3083 03d8 003040E3 		movt	r3, #:upper16:.LC24
 3084 03dc 002040E3 		movt	r2, #:upper16:.LANCHOR11
 3085 03e0 000040E3 		movt	r0, #:upper16:.LC19
 3086 03e4 481500E3 		movw	r1, #1352
 3087 03e8 FEFFFFEB 		bl	__assert_func
 3088              	.L585:
 3089 03ec FEFFFFEB 		bl	_ZN11flatbuffers17FlatBufferBuilder9NotNestedEv.isra.19.part.20
 3090              		.fnend
 3092              		.section	.text._ZN6tflite12CreateTensorERN11flatbuffers17FlatBufferBuilderENS0_6OffsetINS0_6Vector
 3093              		.align	2
 3094              		.syntax unified
 3095              		.arm
 3096              		.fpu neon
 3098              	_ZN6tflite12CreateTensorERN11flatbuffers17FlatBufferBuilderENS0_6OffsetINS0_6VectorIlEEEENS_10Tenso
 3099              		.fnstart
 3100              	.LFB11581:
 3101              		@ args = 12, pretend = 0, frame = 0
 3102              		@ frame_needed = 0, uses_anonymous_args = 0
 3103 0000 F0472DE9 		push	{r4, r5, r6, r7, r8, r9, r10, lr}
 3104              		.save {r4, r5, r6, r7, r8, r9, r10, lr}
 3105 0004 0180A0E1 		mov	r8, r1
 3106 0008 2610D0E5 		ldrb	r1, [r0, #38]	@ zero_extendqisi2
 3107 000c 0350A0E1 		mov	r5, r3
 3108 0010 20909DE5 		ldr	r9, [sp, #32]
 3109 0014 000051E3 		cmp	r1, #0
 3110 0018 203090E5 		ldr	r3, [r0, #32]
 3111 001c 24A09DE5 		ldr	r10, [sp, #36]
 3112 0020 28109DE5 		ldr	r1, [sp, #40]
 3113 0024 E700001A 		bne	.L657
 3114 0028 000053E3 		cmp	r3, #0
 3115 002c E400001A 		bne	.L658
 3116 0030 0260A0E1 		mov	r6, r2
 3117 0034 183090E5 		ldr	r3, [r0, #24]
 3118 0038 142090E5 		ldr	r2, [r0, #20]
 3119 003c 000051E3 		cmp	r1, #0
 3120 0040 107090E5 		ldr	r7, [r0, #16]
 3121 0044 01C0A0E3 		mov	ip, #1
 3122 0048 0040A0E1 		mov	r4, r0
 3123 004c 26C0C0E5 		strb	ip, [r0, #38]
 3124 0050 023043E0 		sub	r3, r3, r2
 3125 0054 037047E0 		sub	r7, r7, r3
 3126 0058 CF00001A 		bne	.L659
 3127              	.L595:
 3128 005c 00005AE3 		cmp	r10, #0
 3129 0060 C100001A 		bne	.L660
 3130              	.L599:
 3131 0064 000059E3 		cmp	r9, #0
 3132 0068 B300001A 		bne	.L661
 3133              	.L603:
 3134 006c 000055E3 		cmp	r5, #0
 3135 0070 A500001A 		bne	.L662
 3136              	.L606:
 3137 0074 2C30D4E5 		ldrb	r3, [r4, #44]	@ zero_extendqisi2
 3138 0078 000053E3 		cmp	r3, #0
 3139 007c 3600000A 		beq	.L608
 3140 0080 283094E5 		ldr	r3, [r4, #40]
 3141 0084 0400A0E1 		mov	r0, r4
 3142 0088 185094E5 		ldr	r5, [r4, #24]
 3143 008c 142094E5 		ldr	r2, [r4, #20]
 3144 0090 030053E3 		cmp	r3, #3
 3145 0094 0430A093 		movls	r3, #4
 3146 0098 28308495 		strls	r3, [r4, #40]
 3147 009c 025045E0 		sub	r5, r5, r2
 3148 00a0 103094E5 		ldr	r3, [r4, #16]
 3149 00a4 035045E0 		sub	r5, r5, r3
 3150 00a8 035005E2 		and	r5, r5, #3
 3151 00ac 0510A0E1 		mov	r1, r5
 3152 00b0 FEFFFFEB 		bl	_ZN11flatbuffers15vector_downward12ensure_spaceEj
 3153 00b4 183094E5 		ldr	r3, [r4, #24]
 3154 00b8 000055E3 		cmp	r5, #0
 3155 00bc 000043E0 		sub	r0, r3, r0
 3156 00c0 180084E5 		str	r0, [r4, #24]
 3157 00c4 0800000A 		beq	.L611
 3158 00c8 010055E3 		cmp	r5, #1
 3159 00cc 0030A0E3 		mov	r3, #0
 3160 00d0 0030C0E5 		strb	r3, [r0]
 3161 00d4 0400000A 		beq	.L611
 3162 00d8 182094E5 		ldr	r2, [r4, #24]
 3163 00dc 020055E3 		cmp	r5, #2
 3164 00e0 0130C2E5 		strb	r3, [r2, #1]
 3165 00e4 18209415 		ldrne	r2, [r4, #24]
 3166 00e8 0230C215 		strbne	r3, [r2, #2]
 3167              	.L611:
 3168 00ec 0410A0E3 		mov	r1, #4
 3169 00f0 0400A0E1 		mov	r0, r4
 3170 00f4 FEFFFFEB 		bl	_ZN11flatbuffers15vector_downward12ensure_spaceEj
 3171 00f8 183094E5 		ldr	r3, [r4, #24]
 3172 00fc 00C0A0E3 		mov	ip, #0
 3173 0100 142094E5 		ldr	r2, [r4, #20]
 3174 0104 0810A0E3 		mov	r1, #8
 3175 0108 105094E5 		ldr	r5, [r4, #16]
 3176 010c 000043E0 		sub	r0, r3, r0
 3177 0110 023040E0 		sub	r3, r0, r2
 3178 0114 180084E5 		str	r0, [r4, #24]
 3179 0118 00C080E5 		str	ip, [r0]
 3180 011c 0400A0E1 		mov	r0, r4
 3181 0120 035045E0 		sub	r5, r5, r3
 3182 0124 FEFFFFEB 		bl	_ZN11flatbuffers15vector_downward12ensure_spaceEj
 3183 0128 1C3094E5 		ldr	r3, [r4, #28]
 3184 012c 0800A0E3 		mov	r0, #8
 3185 0130 202094E5 		ldr	r2, [r4, #32]
 3186 0134 001083E0 		add	r1, r3, r0
 3187 0138 005083E5 		str	r5, [r3]
 3188 013c B400C3E1 		strh	r0, [r3, #4]	@ movhi
 3189 0140 012082E2 		add	r2, r2, #1
 3190 0144 B432D4E1 		ldrh	r3, [r4, #36]
 3191 0148 1C1084E5 		str	r1, [r4, #28]
 3192 014c 202084E5 		str	r2, [r4, #32]
 3193 0150 000053E1 		cmp	r3, r0
 3194 0154 0030A0B1 		movlt	r3, r0
 3195 0158 B432C4E1 		strh	r3, [r4, #36]	@ movhi
 3196              	.L608:
 3197 015c 000058E3 		cmp	r8, #0
 3198 0160 5900001A 		bne	.L663
 3199              	.L613:
 3200 0164 2C30D4E5 		ldrb	r3, [r4, #44]	@ zero_extendqisi2
 3201 0168 000053E3 		cmp	r3, #0
 3202 016c 5E00000A 		beq	.L653
 3203 0170 283094E5 		ldr	r3, [r4, #40]
 3204 0174 0010A0E3 		mov	r1, #0
 3205 0178 0400A0E1 		mov	r0, r4
 3206 017c 7660AFE6 		sxtb	r6, r6
 3207 0180 000053E3 		cmp	r3, #0
 3208 0184 0130A003 		moveq	r3, #1
 3209 0188 28308405 		streq	r3, [r4, #40]
 3210 018c FEFFFFEB 		bl	_ZN11flatbuffers15vector_downward12ensure_spaceEj
 3211 0190 183094E5 		ldr	r3, [r4, #24]
 3212 0194 0110A0E3 		mov	r1, #1
 3213 0198 003043E0 		sub	r3, r3, r0
 3214 019c 0400A0E1 		mov	r0, r4
 3215 01a0 183084E5 		str	r3, [r4, #24]
 3216 01a4 FEFFFFEB 		bl	_ZN11flatbuffers15vector_downward12ensure_spaceEj
 3217 01a8 183094E5 		ldr	r3, [r4, #24]
 3218 01ac 0020A0E3 		mov	r2, #0
 3219 01b0 0810A0E3 		mov	r1, #8
 3220 01b4 003043E0 		sub	r3, r3, r0
 3221 01b8 0400A0E1 		mov	r0, r4
 3222 01bc 183084E5 		str	r3, [r4, #24]
 3223 01c0 0020C3E5 		strb	r2, [r3]
 3224 01c4 142094E5 		ldr	r2, [r4, #20]
 3225 01c8 183094E5 		ldr	r3, [r4, #24]
 3226 01cc 105094E5 		ldr	r5, [r4, #16]
 3227 01d0 023043E0 		sub	r3, r3, r2
 3228 01d4 035045E0 		sub	r5, r5, r3
 3229 01d8 FEFFFFEB 		bl	_ZN11flatbuffers15vector_downward12ensure_spaceEj
 3230 01dc 1C3094E5 		ldr	r3, [r4, #28]
 3231 01e0 0E00A0E3 		mov	r0, #14
 3232 01e4 202094E5 		ldr	r2, [r4, #32]
 3233 01e8 081083E2 		add	r1, r3, #8
 3234 01ec 005083E5 		str	r5, [r3]
 3235 01f0 B400C3E1 		strh	r0, [r3, #4]	@ movhi
 3236 01f4 012082E2 		add	r2, r2, #1
 3237 01f8 B432D4E1 		ldrh	r3, [r4, #36]
 3238 01fc 1C1084E5 		str	r1, [r4, #28]
 3239 0200 202084E5 		str	r2, [r4, #32]
 3240 0204 000053E1 		cmp	r3, r0
 3241 0208 0030A0B1 		movlt	r3, r0
 3242 020c 000056E3 		cmp	r6, #0
 3243 0210 B432C4E1 		strh	r3, [r4, #36]	@ movhi
 3244 0214 0200001A 		bne	.L619
 3245 0218 2C30D4E5 		ldrb	r3, [r4, #44]	@ zero_extendqisi2
 3246 021c 000053E3 		cmp	r3, #0
 3247 0220 2500000A 		beq	.L620
 3248              	.L619:
 3249 0224 283094E5 		ldr	r3, [r4, #40]
 3250 0228 0010A0E3 		mov	r1, #0
 3251 022c 0400A0E1 		mov	r0, r4
 3252 0230 000053E3 		cmp	r3, #0
 3253 0234 0130A003 		moveq	r3, #1
 3254 0238 28308405 		streq	r3, [r4, #40]
 3255 023c FEFFFFEB 		bl	_ZN11flatbuffers15vector_downward12ensure_spaceEj
 3256 0240 183094E5 		ldr	r3, [r4, #24]
 3257 0244 0110A0E3 		mov	r1, #1
 3258 0248 003043E0 		sub	r3, r3, r0
 3259 024c 0400A0E1 		mov	r0, r4
 3260 0250 183084E5 		str	r3, [r4, #24]
 3261 0254 FEFFFFEB 		bl	_ZN11flatbuffers15vector_downward12ensure_spaceEj
 3262 0258 183094E5 		ldr	r3, [r4, #24]
 3263 025c 0810A0E3 		mov	r1, #8
 3264 0260 003043E0 		sub	r3, r3, r0
 3265 0264 0400A0E1 		mov	r0, r4
 3266 0268 183084E5 		str	r3, [r4, #24]
 3267 026c 0060C3E5 		strb	r6, [r3]
 3268 0270 142094E5 		ldr	r2, [r4, #20]
 3269 0274 183094E5 		ldr	r3, [r4, #24]
 3270 0278 105094E5 		ldr	r5, [r4, #16]
 3271 027c 023043E0 		sub	r3, r3, r2
 3272 0280 035045E0 		sub	r5, r5, r3
 3273 0284 FEFFFFEB 		bl	_ZN11flatbuffers15vector_downward12ensure_spaceEj
 3274 0288 1C3094E5 		ldr	r3, [r4, #28]
 3275 028c 0600A0E3 		mov	r0, #6
 3276 0290 202094E5 		ldr	r2, [r4, #32]
 3277 0294 081083E2 		add	r1, r3, #8
 3278 0298 005083E5 		str	r5, [r3]
 3279 029c B400C3E1 		strh	r0, [r3, #4]	@ movhi
 3280 02a0 012082E2 		add	r2, r2, #1
 3281 02a4 B432D4E1 		ldrh	r3, [r4, #36]
 3282 02a8 1C1084E5 		str	r1, [r4, #28]
 3283 02ac 202084E5 		str	r2, [r4, #32]
 3284 02b0 000053E1 		cmp	r3, r0
 3285 02b4 0030A0B1 		movlt	r3, r0
 3286 02b8 B432C4E1 		strh	r3, [r4, #36]	@ movhi
 3287              	.L620:
 3288 02bc 0710A0E1 		mov	r1, r7
 3289 02c0 0400A0E1 		mov	r0, r4
 3290 02c4 FEFFFFEB 		bl	_ZN11flatbuffers17FlatBufferBuilder8EndTableEm
 3291 02c8 F087BDE8 		pop	{r4, r5, r6, r7, r8, r9, r10, pc}
 3292              	.L663:
 3293 02cc 0810A0E1 		mov	r1, r8
 3294 02d0 0400A0E1 		mov	r0, r4
 3295 02d4 FEFFFFEB 		bl	_ZN11flatbuffers17FlatBufferBuilder7ReferToEm
 3296 02d8 002050E2 		subs	r2, r0, #0
 3297 02dc 0600001A 		bne	.L614
 3298 02e0 2C30D4E5 		ldrb	r3, [r4, #44]	@ zero_extendqisi2
 3299 02e4 000053E3 		cmp	r3, #0
 3300 02e8 0300001A 		bne	.L614
 3301              	.L653:
 3302 02ec 7660AFE6 		sxtb	r6, r6
 3303 02f0 000056E3 		cmp	r6, #0
 3304 02f4 CAFFFF1A 		bne	.L619
 3305 02f8 EFFFFFEA 		b	.L620
 3306              	.L614:
 3307 02fc 0410A0E3 		mov	r1, #4
 3308 0300 0400A0E1 		mov	r0, r4
 3309 0304 FEFFFFEB 		bl	_ZN11flatbuffers17FlatBufferBuilder10AddElementImEEvtT_S2_.part.45
 3310 0308 95FFFFEA 		b	.L613
 3311              	.L662:
 3312 030c 0510A0E1 		mov	r1, r5
 3313 0310 0400A0E1 		mov	r0, r4
 3314 0314 FEFFFFEB 		bl	_ZN11flatbuffers17FlatBufferBuilder7ReferToEm
 3315 0318 002050E2 		subs	r2, r0, #0
 3316 031c 0200001A 		bne	.L607
 3317 0320 2C30D4E5 		ldrb	r3, [r4, #44]	@ zero_extendqisi2
 3318 0324 000053E3 		cmp	r3, #0
 3319 0328 8BFFFF0A 		beq	.L608
 3320              	.L607:
 3321 032c 0A10A0E3 		mov	r1, #10
 3322 0330 0400A0E1 		mov	r0, r4
 3323 0334 FEFFFFEB 		bl	_ZN11flatbuffers17FlatBufferBuilder10AddElementImEEvtT_S2_.part.45
 3324 0338 4DFFFFEA 		b	.L606
 3325              	.L661:
 3326 033c 0910A0E1 		mov	r1, r9
 3327 0340 0400A0E1 		mov	r0, r4
 3328 0344 FEFFFFEB 		bl	_ZN11flatbuffers17FlatBufferBuilder7ReferToEm
 3329 0348 002050E2 		subs	r2, r0, #0
 3330 034c 0200001A 		bne	.L604
 3331 0350 2C30D4E5 		ldrb	r3, [r4, #44]	@ zero_extendqisi2
 3332 0354 000053E3 		cmp	r3, #0
 3333 0358 43FFFF0A 		beq	.L603
 3334              	.L604:
 3335 035c 0C10A0E3 		mov	r1, #12
 3336 0360 0400A0E1 		mov	r0, r4
 3337 0364 FEFFFFEB 		bl	_ZN11flatbuffers17FlatBufferBuilder10AddElementImEEvtT_S2_.part.45
 3338 0368 3FFFFFEA 		b	.L603
 3339              	.L660:
 3340 036c 0A10A0E1 		mov	r1, r10
 3341 0370 0400A0E1 		mov	r0, r4
 3342 0374 FEFFFFEB 		bl	_ZN11flatbuffers17FlatBufferBuilder7ReferToEm
 3343 0378 002050E2 		subs	r2, r0, #0
 3344 037c 0200001A 		bne	.L600
 3345 0380 2C30D4E5 		ldrb	r3, [r4, #44]	@ zero_extendqisi2
 3346 0384 000053E3 		cmp	r3, #0
 3347 0388 35FFFF0A 		beq	.L599
 3348              	.L600:
 3349 038c 1010A0E3 		mov	r1, #16
 3350 0390 0400A0E1 		mov	r0, r4
 3351 0394 FEFFFFEB 		bl	_ZN11flatbuffers17FlatBufferBuilder10AddElementImEEvtT_S2_.part.45
 3352 0398 31FFFFEA 		b	.L599
 3353              	.L659:
 3354 039c FEFFFFEB 		bl	_ZN11flatbuffers17FlatBufferBuilder7ReferToEm
 3355 03a0 002050E2 		subs	r2, r0, #0
 3356 03a4 0200001A 		bne	.L596
 3357 03a8 2C30D4E5 		ldrb	r3, [r4, #44]	@ zero_extendqisi2
 3358 03ac 000053E3 		cmp	r3, #0
 3359 03b0 29FFFF0A 		beq	.L595
 3360              	.L596:
 3361 03b4 1210A0E3 		mov	r1, #18
 3362 03b8 0400A0E1 		mov	r0, r4
 3363 03bc FEFFFFEB 		bl	_ZN11flatbuffers17FlatBufferBuilder10AddElementImEEvtT_S2_.part.45
 3364 03c0 25FFFFEA 		b	.L595
 3365              	.L658:
 3366 03c4 FEFFFFEB 		bl	_ZN11flatbuffers17FlatBufferBuilder9NotNestedEv.isra.19.part.20
 3367              	.L657:
 3368 03c8 003000E3 		movw	r3, #:lower16:.LC24
 3369 03cc 002000E3 		movw	r2, #:lower16:.LANCHOR11
 3370 03d0 000000E3 		movw	r0, #:lower16:.LC19
 3371 03d4 003040E3 		movt	r3, #:upper16:.LC24
 3372 03d8 002040E3 		movt	r2, #:upper16:.LANCHOR11
 3373 03dc 000040E3 		movt	r0, #:upper16:.LC19
 3374 03e0 481500E3 		movw	r1, #1352
 3375 03e4 FEFFFFEB 		bl	__assert_func
 3376              		.fnend
 3378              		.section	.text._ZN11flatbuffers17FlatBufferBuilder12CreateStringEPKcj,"axG",%progbits,_ZN11flatbuf
 3379              		.align	2
 3380              		.weak	_ZN11flatbuffers17FlatBufferBuilder12CreateStringEPKcj
 3381              		.syntax unified
 3382              		.arm
 3383              		.fpu neon
 3385              	_ZN11flatbuffers17FlatBufferBuilder12CreateStringEPKcj:
 3386              		.fnstart
 3387              	.LFB3556:
 3388              		@ args = 0, pretend = 0, frame = 0
 3389              		@ frame_needed = 0, uses_anonymous_args = 0
 3390 0000 F0412DE9 		push	{r4, r5, r6, r7, r8, lr}
 3391              		.save {r4, r5, r6, r7, r8, lr}
 3392 0004 0170A0E1 		mov	r7, r1
 3393 0008 2610D0E5 		ldrb	r1, [r0, #38]	@ zero_extendqisi2
 3394 000c 203090E5 		ldr	r3, [r0, #32]
 3395 0010 000051E3 		cmp	r1, #0
 3396 0014 5A00001A 		bne	.L694
 3397 0018 000053E3 		cmp	r3, #0
 3398 001c 5700001A 		bne	.L695
 3399 0020 0250A0E1 		mov	r5, r2
 3400 0024 282090E5 		ldr	r2, [r0, #40]
 3401 0028 101090E5 		ldr	r1, [r0, #16]
 3402 002c 013085E2 		add	r3, r5, #1
 3403 0030 186090E5 		ldr	r6, [r0, #24]
 3404 0034 0040A0E1 		mov	r4, r0
 3405 0038 030052E3 		cmp	r2, #3
 3406 003c 0420A093 		movls	r2, #4
 3407 0040 013083E0 		add	r3, r3, r1
 3408 0044 28208095 		strls	r2, [r0, #40]
 3409 0048 142090E5 		ldr	r2, [r0, #20]
 3410 004c 026046E0 		sub	r6, r6, r2
 3411 0050 036046E0 		sub	r6, r6, r3
 3412 0054 036006E2 		and	r6, r6, #3
 3413 0058 0610A0E1 		mov	r1, r6
 3414 005c FEFFFFEB 		bl	_ZN11flatbuffers15vector_downward12ensure_spaceEj
 3415 0060 183094E5 		ldr	r3, [r4, #24]
 3416 0064 000056E3 		cmp	r6, #0
 3417 0068 000043E0 		sub	r0, r3, r0
 3418 006c 180084E5 		str	r0, [r4, #24]
 3419 0070 0800000A 		beq	.L668
 3420 0074 010056E3 		cmp	r6, #1
 3421 0078 0030A0E3 		mov	r3, #0
 3422 007c 0030C0E5 		strb	r3, [r0]
 3423 0080 0400000A 		beq	.L668
 3424 0084 182094E5 		ldr	r2, [r4, #24]
 3425 0088 020056E3 		cmp	r6, #2
 3426 008c 0130C2E5 		strb	r3, [r2, #1]
 3427 0090 18209415 		ldrne	r2, [r4, #24]
 3428 0094 0230C215 		strbne	r3, [r2, #2]
 3429              	.L668:
 3430 0098 0110A0E3 		mov	r1, #1
 3431 009c 0400A0E1 		mov	r0, r4
 3432 00a0 FEFFFFEB 		bl	_ZN11flatbuffers15vector_downward12ensure_spaceEj
 3433 00a4 183094E5 		ldr	r3, [r4, #24]
 3434 00a8 000055E3 		cmp	r5, #0
 3435 00ac 0020A0E3 		mov	r2, #0
 3436 00b0 000043E0 		sub	r0, r3, r0
 3437 00b4 180084E5 		str	r0, [r4, #24]
 3438 00b8 0020C0E5 		strb	r2, [r0]
 3439 00bc 2500001A 		bne	.L696
 3440              	.L669:
 3441 00c0 283094E5 		ldr	r3, [r4, #40]
 3442 00c4 0400A0E1 		mov	r0, r4
 3443 00c8 186094E5 		ldr	r6, [r4, #24]
 3444 00cc 142094E5 		ldr	r2, [r4, #20]
 3445 00d0 030053E3 		cmp	r3, #3
 3446 00d4 0430A093 		movls	r3, #4
 3447 00d8 28308495 		strls	r3, [r4, #40]
 3448 00dc 026046E0 		sub	r6, r6, r2
 3449 00e0 103094E5 		ldr	r3, [r4, #16]
 3450 00e4 036046E0 		sub	r6, r6, r3
 3451 00e8 036006E2 		and	r6, r6, #3
 3452 00ec 0610A0E1 		mov	r1, r6
 3453 00f0 FEFFFFEB 		bl	_ZN11flatbuffers15vector_downward12ensure_spaceEj
 3454 00f4 183094E5 		ldr	r3, [r4, #24]
 3455 00f8 000056E3 		cmp	r6, #0
 3456 00fc 000043E0 		sub	r0, r3, r0
 3457 0100 180084E5 		str	r0, [r4, #24]
 3458 0104 0800000A 		beq	.L671
 3459 0108 010056E3 		cmp	r6, #1
 3460 010c 0030A0E3 		mov	r3, #0
 3461 0110 0030C0E5 		strb	r3, [r0]
 3462 0114 0400000A 		beq	.L671
 3463 0118 182094E5 		ldr	r2, [r4, #24]
 3464 011c 020056E3 		cmp	r6, #2
 3465 0120 0130C2E5 		strb	r3, [r2, #1]
 3466 0124 18209415 		ldrne	r2, [r4, #24]
 3467 0128 0230C215 		strbne	r3, [r2, #2]
 3468              	.L671:
 3469 012c 0410A0E3 		mov	r1, #4
 3470 0130 0400A0E1 		mov	r0, r4
 3471 0134 FEFFFFEB 		bl	_ZN11flatbuffers15vector_downward12ensure_spaceEj
 3472 0138 101084E2 		add	r1, r4, #16
 3473 013c 0E0091E8 		ldm	r1, {r1, r2, r3}
 3474 0140 003043E0 		sub	r3, r3, r0
 3475 0144 020043E0 		sub	r0, r3, r2
 3476 0148 183084E5 		str	r3, [r4, #24]
 3477 014c 000041E0 		sub	r0, r1, r0
 3478 0150 005083E5 		str	r5, [r3]
 3479 0154 F081BDE8 		pop	{r4, r5, r6, r7, r8, pc}
 3480              	.L696:
 3481 0158 0510A0E1 		mov	r1, r5
 3482 015c 0400A0E1 		mov	r0, r4
 3483 0160 FEFFFFEB 		bl	_ZN11flatbuffers15vector_downward12ensure_spaceEj
 3484 0164 183094E5 		ldr	r3, [r4, #24]
 3485 0168 0710A0E1 		mov	r1, r7
 3486 016c 0520A0E1 		mov	r2, r5
 3487 0170 000043E0 		sub	r0, r3, r0
 3488 0174 180084E5 		str	r0, [r4, #24]
 3489 0178 FEFFFFEB 		bl	memcpy
 3490 017c CFFFFFEA 		b	.L669
 3491              	.L695:
 3492 0180 FEFFFFEB 		bl	_ZN11flatbuffers17FlatBufferBuilder9NotNestedEv.isra.19.part.20
 3493              	.L694:
 3494 0184 003000E3 		movw	r3, #:lower16:.LC24
 3495 0188 002000E3 		movw	r2, #:lower16:.LANCHOR11
 3496 018c 000000E3 		movw	r0, #:lower16:.LC19
 3497 0190 003040E3 		movt	r3, #:upper16:.LC24
 3498 0194 002040E3 		movt	r2, #:upper16:.LANCHOR11
 3499 0198 000040E3 		movt	r0, #:upper16:.LC19
 3500 019c 481500E3 		movw	r1, #1352
 3501 01a0 FEFFFFEB 		bl	__assert_func
 3502              		.fnend
 3504              		.section	.text._ZN6tflite24CreateOperatorCodeDirectERN11flatbuffers17FlatBufferBuilderEaPKclNS_15B
 3505              		.align	2
 3506              		.syntax unified
 3507              		.arm
 3508              		.fpu neon
 3510              	_ZN6tflite24CreateOperatorCodeDirectERN11flatbuffers17FlatBufferBuilderEaPKclNS_15BuiltinOperatorE.
 3511              		.fnstart
 3512              	.LFB11583:
 3513              		@ args = 0, pretend = 0, frame = 0
 3514              		@ frame_needed = 0, uses_anonymous_args = 0
 3515 0000 F0412DE9 		push	{r4, r5, r6, r7, r8, lr}
 3516              		.save {r4, r5, r6, r7, r8, lr}
 3517 0004 006051E2 		subs	r6, r1, #0
 3518 0008 0040A0E1 		mov	r4, r0
 3519 000c 0280A0E1 		mov	r8, r2
 3520 0010 0600000A 		beq	.L698
 3521 0014 0600A0E1 		mov	r0, r6
 3522 0018 FEFFFFEB 		bl	strlen
 3523 001c 0610A0E1 		mov	r1, r6
 3524 0020 0020A0E1 		mov	r2, r0
 3525 0024 0400A0E1 		mov	r0, r4
 3526 0028 FEFFFFEB 		bl	_ZN11flatbuffers17FlatBufferBuilder12CreateStringEPKcj
 3527 002c 0060A0E1 		mov	r6, r0
 3528              	.L698:
 3529 0030 2620D4E5 		ldrb	r2, [r4, #38]	@ zero_extendqisi2
 3530 0034 203094E5 		ldr	r3, [r4, #32]
 3531 0038 000052E3 		cmp	r2, #0
 3532 003c E900001A 		bne	.L759
 3533 0040 000053E3 		cmp	r3, #0
 3534 0044 EF00001A 		bne	.L760
 3535 0048 183094E5 		ldr	r3, [r4, #24]
 3536 004c 000058E3 		cmp	r8, #0
 3537 0050 142094E5 		ldr	r2, [r4, #20]
 3538 0054 0110A0E3 		mov	r1, #1
 3539 0058 107094E5 		ldr	r7, [r4, #16]
 3540 005c 2610C4E5 		strb	r1, [r4, #38]
 3541 0060 023043E0 		sub	r3, r3, r2
 3542 0064 037047E0 		sub	r7, r7, r3
 3543 0068 6600001A 		bne	.L701
 3544 006c 2C30D4E5 		ldrb	r3, [r4, #44]	@ zero_extendqisi2
 3545 0070 000053E3 		cmp	r3, #0
 3546 0074 0750A001 		moveq	r5, r7
 3547 0078 6200001A 		bne	.L701
 3548              	.L702:
 3549 007c 283094E5 		ldr	r3, [r4, #40]
 3550 0080 005065E2 		rsb	r5, r5, #0
 3551 0084 035005E2 		and	r5, r5, #3
 3552 0088 0400A0E1 		mov	r0, r4
 3553 008c 0510A0E1 		mov	r1, r5
 3554 0090 030053E3 		cmp	r3, #3
 3555 0094 0430A093 		movls	r3, #4
 3556 0098 28308495 		strls	r3, [r4, #40]
 3557 009c FEFFFFEB 		bl	_ZN11flatbuffers15vector_downward12ensure_spaceEj
 3558 00a0 183094E5 		ldr	r3, [r4, #24]
 3559 00a4 000055E3 		cmp	r5, #0
 3560 00a8 000043E0 		sub	r0, r3, r0
 3561 00ac 180084E5 		str	r0, [r4, #24]
 3562 00b0 0800000A 		beq	.L706
 3563 00b4 010055E3 		cmp	r5, #1
 3564 00b8 0030A0E3 		mov	r3, #0
 3565 00bc 0030C0E5 		strb	r3, [r0]
 3566 00c0 0400000A 		beq	.L706
 3567 00c4 182094E5 		ldr	r2, [r4, #24]
 3568 00c8 020055E3 		cmp	r5, #2
 3569 00cc 0130C2E5 		strb	r3, [r2, #1]
 3570 00d0 18209415 		ldrne	r2, [r4, #24]
 3571 00d4 0230C215 		strbne	r3, [r2, #2]
 3572              	.L706:
 3573 00d8 0410A0E3 		mov	r1, #4
 3574 00dc 0400A0E1 		mov	r0, r4
 3575 00e0 FEFFFFEB 		bl	_ZN11flatbuffers15vector_downward12ensure_spaceEj
 3576 00e4 183094E5 		ldr	r3, [r4, #24]
 3577 00e8 00C0A0E3 		mov	ip, #0
 3578 00ec 142094E5 		ldr	r2, [r4, #20]
 3579 00f0 0810A0E3 		mov	r1, #8
 3580 00f4 105094E5 		ldr	r5, [r4, #16]
 3581 00f8 003043E0 		sub	r3, r3, r0
 3582 00fc 0400A0E1 		mov	r0, r4
 3583 0100 022043E0 		sub	r2, r3, r2
 3584 0104 183084E5 		str	r3, [r4, #24]
 3585 0108 00C083E5 		str	ip, [r3]
 3586 010c 025045E0 		sub	r5, r5, r2
 3587 0110 FEFFFFEB 		bl	_ZN11flatbuffers15vector_downward12ensure_spaceEj
 3588 0114 1C3094E5 		ldr	r3, [r4, #28]
 3589 0118 0800A0E3 		mov	r0, #8
 3590 011c 202094E5 		ldr	r2, [r4, #32]
 3591 0120 001083E0 		add	r1, r3, r0
 3592 0124 005083E5 		str	r5, [r3]
 3593 0128 B400C3E1 		strh	r0, [r3, #4]	@ movhi
 3594 012c 012082E2 		add	r2, r2, #1
 3595 0130 B432D4E1 		ldrh	r3, [r4, #36]
 3596 0134 1C1084E5 		str	r1, [r4, #28]
 3597 0138 202084E5 		str	r2, [r4, #32]
 3598 013c 000053E1 		cmp	r3, r0
 3599 0140 0030A0B1 		movlt	r3, r0
 3600 0144 000056E3 		cmp	r6, #0
 3601 0148 B432C4E1 		strh	r3, [r4, #36]	@ movhi
 3602 014c 6500001A 		bne	.L761
 3603              	.L708:
 3604 0150 2C30D4E5 		ldrb	r3, [r4, #44]	@ zero_extendqisi2
 3605 0154 000053E3 		cmp	r3, #0
 3606 0158 2600000A 		beq	.L710
 3607 015c 283094E5 		ldr	r3, [r4, #40]
 3608 0160 0010A0E3 		mov	r1, #0
 3609 0164 0400A0E1 		mov	r0, r4
 3610 0168 000053E3 		cmp	r3, #0
 3611 016c 0130A003 		moveq	r3, #1
 3612 0170 28308405 		streq	r3, [r4, #40]
 3613 0174 FEFFFFEB 		bl	_ZN11flatbuffers15vector_downward12ensure_spaceEj
 3614 0178 183094E5 		ldr	r3, [r4, #24]
 3615 017c 0110A0E3 		mov	r1, #1
 3616 0180 003043E0 		sub	r3, r3, r0
 3617 0184 0400A0E1 		mov	r0, r4
 3618 0188 183084E5 		str	r3, [r4, #24]
 3619 018c FEFFFFEB 		bl	_ZN11flatbuffers15vector_downward12ensure_spaceEj
 3620 0190 183094E5 		ldr	r3, [r4, #24]
 3621 0194 0020A0E3 		mov	r2, #0
 3622 0198 0810A0E3 		mov	r1, #8
 3623 019c 003043E0 		sub	r3, r3, r0
 3624 01a0 0400A0E1 		mov	r0, r4
 3625 01a4 183084E5 		str	r3, [r4, #24]
 3626 01a8 0020C3E5 		strb	r2, [r3]
 3627 01ac 142094E5 		ldr	r2, [r4, #20]
 3628 01b0 183094E5 		ldr	r3, [r4, #24]
 3629 01b4 105094E5 		ldr	r5, [r4, #16]
 3630 01b8 023043E0 		sub	r3, r3, r2
 3631 01bc 035045E0 		sub	r5, r5, r3
 3632 01c0 FEFFFFEB 		bl	_ZN11flatbuffers15vector_downward12ensure_spaceEj
 3633 01c4 1C3094E5 		ldr	r3, [r4, #28]
 3634 01c8 0400A0E3 		mov	r0, #4
 3635 01cc 202094E5 		ldr	r2, [r4, #32]
 3636 01d0 081083E2 		add	r1, r3, #8
 3637 01d4 005083E5 		str	r5, [r3]
 3638 01d8 B400C3E1 		strh	r0, [r3, #4]	@ movhi
 3639 01dc 012082E2 		add	r2, r2, #1
 3640 01e0 B432D4E1 		ldrh	r3, [r4, #36]
 3641 01e4 1C1084E5 		str	r1, [r4, #28]
 3642 01e8 202084E5 		str	r2, [r4, #32]
 3643 01ec 000053E1 		cmp	r3, r0
 3644 01f0 0030A0B1 		movlt	r3, r0
 3645 01f4 B432C4E1 		strh	r3, [r4, #36]	@ movhi
 3646              	.L710:
 3647 01f8 0710A0E1 		mov	r1, r7
 3648 01fc 0400A0E1 		mov	r0, r4
 3649 0200 FEFFFFEB 		bl	_ZN11flatbuffers17FlatBufferBuilder8EndTableEm
 3650 0204 F081BDE8 		pop	{r4, r5, r6, r7, r8, pc}
 3651              	.L701:
 3652 0208 283094E5 		ldr	r3, [r4, #40]
 3653 020c 005067E2 		rsb	r5, r7, #0
 3654 0210 035005E2 		and	r5, r5, #3
 3655 0214 0400A0E1 		mov	r0, r4
 3656 0218 0510A0E1 		mov	r1, r5
 3657 021c 030053E3 		cmp	r3, #3
 3658 0220 0430A093 		movls	r3, #4
 3659 0224 28308495 		strls	r3, [r4, #40]
 3660 0228 FEFFFFEB 		bl	_ZN11flatbuffers15vector_downward12ensure_spaceEj
 3661 022c 183094E5 		ldr	r3, [r4, #24]
 3662 0230 000055E3 		cmp	r5, #0
 3663 0234 000043E0 		sub	r0, r3, r0
 3664 0238 180084E5 		str	r0, [r4, #24]
 3665 023c 0800000A 		beq	.L703
 3666 0240 010055E3 		cmp	r5, #1
 3667 0244 0030A0E3 		mov	r3, #0
 3668 0248 0030C0E5 		strb	r3, [r0]
 3669 024c 0400000A 		beq	.L703
 3670 0250 182094E5 		ldr	r2, [r4, #24]
 3671 0254 020055E3 		cmp	r5, #2
 3672 0258 0130C2E5 		strb	r3, [r2, #1]
 3673 025c 18209415 		ldrne	r2, [r4, #24]
 3674 0260 0230C215 		strbne	r3, [r2, #2]
 3675              	.L703:
 3676 0264 0410A0E3 		mov	r1, #4
 3677 0268 0400A0E1 		mov	r0, r4
 3678 026c FEFFFFEB 		bl	_ZN11flatbuffers15vector_downward12ensure_spaceEj
 3679 0270 183094E5 		ldr	r3, [r4, #24]
 3680 0274 0810A0E3 		mov	r1, #8
 3681 0278 14C094E5 		ldr	ip, [r4, #20]
 3682 027c 102094E5 		ldr	r2, [r4, #16]
 3683 0280 003043E0 		sub	r3, r3, r0
 3684 0284 0400A0E1 		mov	r0, r4
 3685 0288 0CC043E0 		sub	ip, r3, ip
 3686 028c 183084E5 		str	r3, [r4, #24]
 3687 0290 008083E5 		str	r8, [r3]
 3688 0294 0C8042E0 		sub	r8, r2, ip
 3689 0298 FEFFFFEB 		bl	_ZN11flatbuffers15vector_downward12ensure_spaceEj
 3690 029c 1C3094E5 		ldr	r3, [r4, #28]
 3691 02a0 0AC0A0E3 		mov	ip, #10
 3692 02a4 142094E5 		ldr	r2, [r4, #20]
 3693 02a8 181094E5 		ldr	r1, [r4, #24]
 3694 02ac 080083E2 		add	r0, r3, #8
 3695 02b0 008083E5 		str	r8, [r3]
 3696 02b4 B4C0C3E1 		strh	ip, [r3, #4]	@ movhi
 3697 02b8 B432D4E1 		ldrh	r3, [r4, #36]
 3698 02bc 021041E0 		sub	r1, r1, r2
 3699 02c0 202094E5 		ldr	r2, [r4, #32]
 3700 02c4 105094E5 		ldr	r5, [r4, #16]
 3701 02c8 0C0053E1 		cmp	r3, ip
 3702 02cc 1C0084E5 		str	r0, [r4, #28]
 3703 02d0 0C30A0B1 		movlt	r3, ip
 3704 02d4 012082E2 		add	r2, r2, #1
 3705 02d8 015045E0 		sub	r5, r5, r1
 3706 02dc B432C4E1 		strh	r3, [r4, #36]	@ movhi
 3707 02e0 202084E5 		str	r2, [r4, #32]
 3708 02e4 64FFFFEA 		b	.L702
 3709              	.L761:
 3710 02e8 0610A0E1 		mov	r1, r6
 3711 02ec 0400A0E1 		mov	r0, r4
 3712 02f0 FEFFFFEB 		bl	_ZN11flatbuffers17FlatBufferBuilder7ReferToEm
 3713 02f4 006050E2 		subs	r6, r0, #0
 3714 02f8 3600000A 		beq	.L762
 3715              	.L709:
 3716 02fc 283094E5 		ldr	r3, [r4, #40]
 3717 0300 0400A0E1 		mov	r0, r4
 3718 0304 185094E5 		ldr	r5, [r4, #24]
 3719 0308 142094E5 		ldr	r2, [r4, #20]
 3720 030c 030053E3 		cmp	r3, #3
 3721 0310 0430A093 		movls	r3, #4
 3722 0314 28308495 		strls	r3, [r4, #40]
 3723 0318 025045E0 		sub	r5, r5, r2
 3724 031c 103094E5 		ldr	r3, [r4, #16]
 3725 0320 035045E0 		sub	r5, r5, r3
 3726 0324 035005E2 		and	r5, r5, #3
 3727 0328 0510A0E1 		mov	r1, r5
 3728 032c FEFFFFEB 		bl	_ZN11flatbuffers15vector_downward12ensure_spaceEj
 3729 0330 183094E5 		ldr	r3, [r4, #24]
 3730 0334 000055E3 		cmp	r5, #0
 3731 0338 000043E0 		sub	r0, r3, r0
 3732 033c 180084E5 		str	r0, [r4, #24]
 3733 0340 0800000A 		beq	.L711
 3734 0344 010055E3 		cmp	r5, #1
 3735 0348 0030A0E3 		mov	r3, #0
 3736 034c 0030C0E5 		strb	r3, [r0]
 3737 0350 0400000A 		beq	.L711
 3738 0354 182094E5 		ldr	r2, [r4, #24]
 3739 0358 020055E3 		cmp	r5, #2
 3740 035c 0130C2E5 		strb	r3, [r2, #1]
 3741 0360 18209415 		ldrne	r2, [r4, #24]
 3742 0364 0230C215 		strbne	r3, [r2, #2]
 3743              	.L711:
 3744 0368 0410A0E3 		mov	r1, #4
 3745 036c 0400A0E1 		mov	r0, r4
 3746 0370 FEFFFFEB 		bl	_ZN11flatbuffers15vector_downward12ensure_spaceEj
 3747 0374 183094E5 		ldr	r3, [r4, #24]
 3748 0378 0810A0E3 		mov	r1, #8
 3749 037c 142094E5 		ldr	r2, [r4, #20]
 3750 0380 105094E5 		ldr	r5, [r4, #16]
 3751 0384 003043E0 		sub	r3, r3, r0
 3752 0388 0400A0E1 		mov	r0, r4
 3753 038c 022043E0 		sub	r2, r3, r2
 3754 0390 183084E5 		str	r3, [r4, #24]
 3755 0394 006083E5 		str	r6, [r3]
 3756 0398 025045E0 		sub	r5, r5, r2
 3757 039c FEFFFFEB 		bl	_ZN11flatbuffers15vector_downward12ensure_spaceEj
 3758 03a0 1C3094E5 		ldr	r3, [r4, #28]
 3759 03a4 0600A0E3 		mov	r0, #6
 3760 03a8 202094E5 		ldr	r2, [r4, #32]
 3761 03ac 081083E2 		add	r1, r3, #8
 3762 03b0 005083E5 		str	r5, [r3]
 3763 03b4 B400C3E1 		strh	r0, [r3, #4]	@ movhi
 3764 03b8 012082E2 		add	r2, r2, #1
 3765 03bc B432D4E1 		ldrh	r3, [r4, #36]
 3766 03c0 1C1084E5 		str	r1, [r4, #28]
 3767 03c4 202084E5 		str	r2, [r4, #32]
 3768 03c8 000053E1 		cmp	r3, r0
 3769 03cc 0030A0B1 		movlt	r3, r0
 3770 03d0 B432C4E1 		strh	r3, [r4, #36]	@ movhi
 3771 03d4 5DFFFFEA 		b	.L708
 3772              	.L762:
 3773 03d8 2C30D4E5 		ldrb	r3, [r4, #44]	@ zero_extendqisi2
 3774 03dc 000053E3 		cmp	r3, #0
 3775 03e0 C5FFFF1A 		bne	.L709
 3776 03e4 83FFFFEA 		b	.L710
 3777              	.L759:
 3778 03e8 003000E3 		movw	r3, #:lower16:.LC24
 3779 03ec 002000E3 		movw	r2, #:lower16:.LANCHOR11
 3780 03f0 000000E3 		movw	r0, #:lower16:.LC19
 3781 03f4 003040E3 		movt	r3, #:upper16:.LC24
 3782 03f8 002040E3 		movt	r2, #:upper16:.LANCHOR11
 3783 03fc 000040E3 		movt	r0, #:upper16:.LC19
 3784 0400 481500E3 		movw	r1, #1352
 3785 0404 FEFFFFEB 		bl	__assert_func
 3786              	.L760:
 3787 0408 FEFFFFEB 		bl	_ZN11flatbuffers17FlatBufferBuilder9NotNestedEv.isra.19.part.20
 3788              		.fnend
 3790              		.section	.text._ZN11flatbuffers17FlatBufferBuilder9EndVectorEj,"axG",%progbits,_ZN11flatbuffers17F
 3791              		.align	2
 3792              		.weak	_ZN11flatbuffers17FlatBufferBuilder9EndVectorEj
 3793              		.syntax unified
 3794              		.arm
 3795              		.fpu neon
 3797              	_ZN11flatbuffers17FlatBufferBuilder9EndVectorEj:
 3798              		.fnstart
 3799              	.LFB3566:
 3800              		@ args = 0, pretend = 0, frame = 0
 3801              		@ frame_needed = 0, uses_anonymous_args = 0
 3802 0000 2630D0E5 		ldrb	r3, [r0, #38]	@ zero_extendqisi2
 3803 0004 70402DE9 		push	{r4, r5, r6, lr}
 3804              		.save {r4, r5, r6, lr}
 3805 0008 000053E3 		cmp	r3, #0
 3806 000c 2800000A 		beq	.L777
 3807 0010 283090E5 		ldr	r3, [r0, #40]
 3808 0014 0020A0E3 		mov	r2, #0
 3809 0018 2620C0E5 		strb	r2, [r0, #38]
 3810 001c 0040A0E1 		mov	r4, r0
 3811 0020 185090E5 		ldr	r5, [r0, #24]
 3812 0024 0160A0E1 		mov	r6, r1
 3813 0028 030053E3 		cmp	r3, #3
 3814 002c 142090E5 		ldr	r2, [r0, #20]
 3815 0030 0430A093 		movls	r3, #4
 3816 0034 28308095 		strls	r3, [r0, #40]
 3817 0038 103090E5 		ldr	r3, [r0, #16]
 3818 003c 025045E0 		sub	r5, r5, r2
 3819 0040 035045E0 		sub	r5, r5, r3
 3820 0044 035005E2 		and	r5, r5, #3
 3821 0048 0510A0E1 		mov	r1, r5
 3822 004c FEFFFFEB 		bl	_ZN11flatbuffers15vector_downward12ensure_spaceEj
 3823 0050 183094E5 		ldr	r3, [r4, #24]
 3824 0054 000055E3 		cmp	r5, #0
 3825 0058 000043E0 		sub	r0, r3, r0
 3826 005c 180084E5 		str	r0, [r4, #24]
 3827 0060 0800000A 		beq	.L766
 3828 0064 010055E3 		cmp	r5, #1
 3829 0068 0030A0E3 		mov	r3, #0
 3830 006c 0030C0E5 		strb	r3, [r0]
 3831 0070 0400000A 		beq	.L766
 3832 0074 182094E5 		ldr	r2, [r4, #24]
 3833 0078 020055E3 		cmp	r5, #2
 3834 007c 0130C2E5 		strb	r3, [r2, #1]
 3835 0080 18209415 		ldrne	r2, [r4, #24]
 3836 0084 0230C215 		strbne	r3, [r2, #2]
 3837              	.L766:
 3838 0088 0410A0E3 		mov	r1, #4
 3839 008c 0400A0E1 		mov	r0, r4
 3840 0090 FEFFFFEB 		bl	_ZN11flatbuffers15vector_downward12ensure_spaceEj
 3841 0094 101084E2 		add	r1, r4, #16
 3842 0098 0E0091E8 		ldm	r1, {r1, r2, r3}
 3843 009c 003043E0 		sub	r3, r3, r0
 3844 00a0 020043E0 		sub	r0, r3, r2
 3845 00a4 183084E5 		str	r3, [r4, #24]
 3846 00a8 000041E0 		sub	r0, r1, r0
 3847 00ac 006083E5 		str	r6, [r3]
 3848 00b0 7080BDE8 		pop	{r4, r5, r6, pc}
 3849              	.L777:
 3850 00b4 003000E3 		movw	r3, #:lower16:.LC26
 3851 00b8 002000E3 		movw	r2, #:lower16:.LANCHOR14
 3852 00bc 000000E3 		movw	r0, #:lower16:.LC19
 3853 00c0 003040E3 		movt	r3, #:upper16:.LC26
 3854 00c4 002040E3 		movt	r2, #:upper16:.LANCHOR14
 3855 00c8 000040E3 		movt	r0, #:upper16:.LC19
 3856 00cc 2C1600E3 		movw	r1, #1580
 3857 00d0 FEFFFFEB 		bl	__assert_func
 3858              		.fnend
 3860              		.section	.text._ZN11flatbuffers17FlatBufferBuilder12CreateVectorIlEENS_6OffsetINS_6VectorIT_EEEEPK
 3861              		.align	2
 3862              		.syntax unified
 3863              		.arm
 3864              		.fpu neon
 3866              	_ZN11flatbuffers17FlatBufferBuilder12CreateVectorIlEENS_6OffsetINS_6VectorIT_EEEEPKS4_j.constprop.1
 3867              		.fnstart
 3868              	.LFB11586:
 3869              		@ args = 0, pretend = 0, frame = 0
 3870              		@ frame_needed = 0, uses_anonymous_args = 0
 3871 0000 70402DE9 		push	{r4, r5, r6, lr}
 3872              		.save {r4, r5, r6, lr}
 3873 0004 0040A0E1 		mov	r4, r0
 3874 0008 0150A0E1 		mov	r5, r1
 3875 000c 0210A0E3 		mov	r1, #2
 3876 0010 FEFFFFEB 		bl	_ZN11flatbuffers17FlatBufferBuilder11StartVectorEjj.constprop.148
 3877 0014 0400A0E1 		mov	r0, r4
 3878 0018 0810A0E3 		mov	r1, #8
 3879 001c FEFFFFEB 		bl	_ZN11flatbuffers15vector_downward12ensure_spaceEj
 3880 0020 183094E5 		ldr	r3, [r4, #24]
 3881 0024 0510A0E1 		mov	r1, r5
 3882 0028 0820A0E3 		mov	r2, #8
 3883 002c 000043E0 		sub	r0, r3, r0
 3884 0030 180084E5 		str	r0, [r4, #24]
 3885 0034 FEFFFFEB 		bl	memcpy
 3886 0038 0400A0E1 		mov	r0, r4
 3887 003c 0210A0E3 		mov	r1, #2
 3888 0040 FEFFFFEB 		bl	_ZN11flatbuffers17FlatBufferBuilder9EndVectorEj
 3889 0044 7080BDE8 		pop	{r4, r5, r6, pc}
 3890              		.fnend
 3892              		.section	.text._ZN11flatbuffers17FlatBufferBuilder12CreateVectorIlEENS_6OffsetINS_6VectorIT_EEEEPK
 3893              		.align	2
 3894              		.syntax unified
 3895              		.arm
 3896              		.fpu neon
 3898              	_ZN11flatbuffers17FlatBufferBuilder12CreateVectorIlEENS_6OffsetINS_6VectorIT_EEEEPKS4_j.constprop.1
 3899              		.fnstart
 3900              	.LFB11585:
 3901              		@ args = 0, pretend = 0, frame = 0
 3902              		@ frame_needed = 0, uses_anonymous_args = 0
 3903 0000 70402DE9 		push	{r4, r5, r6, lr}
 3904              		.save {r4, r5, r6, lr}
 3905 0004 0040A0E1 		mov	r4, r0
 3906 0008 0150A0E1 		mov	r5, r1
 3907 000c 0110A0E3 		mov	r1, #1
 3908 0010 FEFFFFEB 		bl	_ZN11flatbuffers17FlatBufferBuilder11StartVectorEjj.constprop.148
 3909 0014 0400A0E1 		mov	r0, r4
 3910 0018 0410A0E3 		mov	r1, #4
 3911 001c FEFFFFEB 		bl	_ZN11flatbuffers15vector_downward12ensure_spaceEj
 3912 0020 183094E5 		ldr	r3, [r4, #24]
 3913 0024 0510A0E1 		mov	r1, r5
 3914 0028 0420A0E3 		mov	r2, #4
 3915 002c 000043E0 		sub	r0, r3, r0
 3916 0030 180084E5 		str	r0, [r4, #24]
 3917 0034 FEFFFFEB 		bl	memcpy
 3918 0038 0400A0E1 		mov	r0, r4
 3919 003c 0110A0E3 		mov	r1, #1
 3920 0040 FEFFFFEB 		bl	_ZN11flatbuffers17FlatBufferBuilder9EndVectorEj
 3921 0044 7080BDE8 		pop	{r4, r5, r6, pc}
 3922              		.fnend
 3924              		.section	.text._ZN6tflite7testing12_GLOBAL__N_112ModelBuilder13AddTensorImplENS_10TensorTypeEbSt16
 3925              		.align	2
 3926              		.syntax unified
 3927              		.arm
 3928              		.fpu neon
 3930              	_ZN6tflite7testing12_GLOBAL__N_112ModelBuilder13AddTensorImplENS_10TensorTypeEbSt16initializer_list
 3931              		.fnstart
 3932              	.LFB11604:
 3933              		@ args = 0, pretend = 0, frame = 8
 3934              		@ frame_needed = 0, uses_anonymous_args = 0
 3935 0000 F0402DE9 		push	{r4, r5, r6, r7, lr}
 3936              		.save {r4, r5, r6, r7, lr}
 3937              		.pad #28
 3938 0004 1CD04DE2 		sub	sp, sp, #28
 3939 0008 184290E5 		ldr	r4, [r0, #536]
 3940 000c 18308DE2 		add	r3, sp, #24
 3941 0010 060003E9 		stmdb	r3, {r1, r2}
 3942 0014 320054E3 		cmp	r4, #50
 3943 0018 230000CA 		bgt	.L785
 3944 001c 005090E5 		ldr	r5, [r0]
 3945 0020 0060A0E1 		mov	r6, r0
 3946 0024 0310A0E3 		mov	r1, #3
 3947 0028 10709DE5 		ldr	r7, [sp, #16]
 3948 002c 3E4084E2 		add	r4, r4, #62
 3949 0030 0500A0E1 		mov	r0, r5
 3950 0034 044186E0 		add	r4, r6, r4, lsl #2
 3951 0038 FEFFFFEB 		bl	_ZN11flatbuffers17FlatBufferBuilder11StartVectorEjj.constprop.148
 3952 003c 0500A0E1 		mov	r0, r5
 3953 0040 0C10A0E3 		mov	r1, #12
 3954 0044 FEFFFFEB 		bl	_ZN11flatbuffers15vector_downward12ensure_spaceEj
 3955 0048 183095E5 		ldr	r3, [r5, #24]
 3956 004c 0710A0E1 		mov	r1, r7
 3957 0050 0C20A0E3 		mov	r2, #12
 3958 0054 000043E0 		sub	r0, r3, r0
 3959 0058 180085E5 		str	r0, [r5, #24]
 3960 005c FEFFFFEB 		bl	memcpy
 3961 0060 0500A0E1 		mov	r0, r5
 3962 0064 0310A0E3 		mov	r1, #3
 3963 0068 FEFFFFEB 		bl	_ZN11flatbuffers17FlatBufferBuilder9EndVectorEj
 3964 006c 00C0A0E3 		mov	ip, #0
 3965 0070 0010A0E1 		mov	r1, r0
 3966 0074 0C30A0E1 		mov	r3, ip
 3967 0078 0C20A0E1 		mov	r2, ip
 3968 007c 0500A0E1 		mov	r0, r5
 3969 0080 08C08DE5 		str	ip, [sp, #8]
 3970 0084 04C08DE5 		str	ip, [sp, #4]
 3971 0088 00C08DE5 		str	ip, [sp]
 3972 008c FEFFFFEB 		bl	_ZN6tflite12CreateTensorERN11flatbuffers17FlatBufferBuilderENS0_6OffsetINS0_6VectorIlEEEENS_10T
 3973 0090 183296E5 		ldr	r3, [r6, #536]
 3974 0094 040084E5 		str	r0, [r4, #4]
 3975 0098 012083E2 		add	r2, r3, #1
 3976 009c 0300A0E1 		mov	r0, r3
 3977 00a0 182286E5 		str	r2, [r6, #536]
 3978 00a4 1CD08DE2 		add	sp, sp, #28
 3979              		@ sp needed
 3980 00a8 F080BDE8 		pop	{r4, r5, r6, r7, pc}
 3981              	.L785:
 3982 00ac FEFFFFEB 		bl	abort
 3983              		.fnend
 3985              		.section	.text._ZN6tflite12CreateTensorERN11flatbuffers17FlatBufferBuilderENS0_6OffsetINS0_6Vector
 3986              		.align	2
 3987              		.weak	_ZN6tflite12CreateTensorERN11flatbuffers17FlatBufferBuilderENS0_6OffsetINS0_6VectorIlEEEENS_
 3988              		.syntax unified
 3989              		.arm
 3990              		.fpu neon
 3992              	_ZN6tflite12CreateTensorERN11flatbuffers17FlatBufferBuilderENS0_6OffsetINS0_6VectorIlEEEENS_10Tenso
 3993              		.fnstart
 3994              	.LFB4279:
 3995              		@ args = 20, pretend = 0, frame = 0
 3996              		@ frame_needed = 0, uses_anonymous_args = 0
 3997 0000 F84F2DE9 		push	{r3, r4, r5, r6, r7, r8, r9, r10, fp, lr}
 3998              		.save {r3, r4, r5, r6, r7, r8, r9, r10, fp, lr}
 3999 0004 0170A0E1 		mov	r7, r1
 4000 0008 2610D0E5 		ldrb	r1, [r0, #38]	@ zero_extendqisi2
 4001 000c 0390A0E1 		mov	r9, r3
 4002 0010 2CA09DE5 		ldr	r10, [sp, #44]
 4003 0014 000051E3 		cmp	r1, #0
 4004 0018 203090E5 		ldr	r3, [r0, #32]
 4005 001c 3080DDE5 		ldrb	r8, [sp, #48]	@ zero_extendqisi2
 4006 0020 34B09DE5 		ldr	fp, [sp, #52]
 4007 0024 38109DE5 		ldr	r1, [sp, #56]
 4008 0028 EE00001A 		bne	.L853
 4009 002c 000053E3 		cmp	r3, #0
 4010 0030 F400001A 		bne	.L854
 4011 0034 0260A0E1 		mov	r6, r2
 4012 0038 183090E5 		ldr	r3, [r0, #24]
 4013 003c 142090E5 		ldr	r2, [r0, #20]
 4014 0040 000051E3 		cmp	r1, #0
 4015 0044 105090E5 		ldr	r5, [r0, #16]
 4016 0048 01C0A0E3 		mov	ip, #1
 4017 004c 0040A0E1 		mov	r4, r0
 4018 0050 26C0C0E5 		strb	ip, [r0, #38]
 4019 0054 023043E0 		sub	r3, r3, r2
 4020 0058 035045E0 		sub	r5, r5, r3
 4021 005c D700001A 		bne	.L855
 4022              	.L790:
 4023 0060 00005BE3 		cmp	fp, #0
 4024 0064 C900001A 		bne	.L856
 4025              	.L794:
 4026 0068 00005AE3 		cmp	r10, #0
 4027 006c BB00001A 		bne	.L857
 4028              	.L798:
 4029 0070 28309DE5 		ldr	r3, [sp, #40]
 4030 0074 000053E3 		cmp	r3, #0
 4031 0078 1200001A 		bne	.L858
 4032              	.L801:
 4033 007c 000059E3 		cmp	r9, #0
 4034 0080 1A00001A 		bne	.L804
 4035 0084 2C30D4E5 		ldrb	r3, [r4, #44]	@ zero_extendqisi2
 4036 0088 000053E3 		cmp	r3, #0
 4037 008c 1700001A 		bne	.L804
 4038              	.L805:
 4039 0090 000057E3 		cmp	r7, #0
 4040 0094 4D00001A 		bne	.L859
 4041              	.L809:
 4042 0098 000058E3 		cmp	r8, #0
 4043 009c 5800001A 		bne	.L812
 4044              	.L860:
 4045 00a0 2C30D4E5 		ldrb	r3, [r4, #44]	@ zero_extendqisi2
 4046 00a4 000053E3 		cmp	r3, #0
 4047 00a8 5500001A 		bne	.L812
 4048 00ac 7660AFE6 		sxtb	r6, r6
 4049 00b0 000056E3 		cmp	r6, #0
 4050 00b4 7E00001A 		bne	.L815
 4051              	.L816:
 4052 00b8 0510A0E1 		mov	r1, r5
 4053 00bc 0400A0E1 		mov	r0, r4
 4054 00c0 FEFFFFEB 		bl	_ZN11flatbuffers17FlatBufferBuilder8EndTableEm
 4055 00c4 F88FBDE8 		pop	{r3, r4, r5, r6, r7, r8, r9, r10, fp, pc}
 4056              	.L858:
 4057 00c8 0310A0E1 		mov	r1, r3
 4058 00cc 0400A0E1 		mov	r0, r4
 4059 00d0 FEFFFFEB 		bl	_ZN11flatbuffers17FlatBufferBuilder7ReferToEm
 4060 00d4 002050E2 		subs	r2, r0, #0
 4061 00d8 9C00001A 		bne	.L802
 4062 00dc 2C30D4E5 		ldrb	r3, [r4, #44]	@ zero_extendqisi2
 4063 00e0 000053E3 		cmp	r3, #0
 4064 00e4 9900001A 		bne	.L802
 4065 00e8 000059E3 		cmp	r9, #0
 4066 00ec E7FFFF0A 		beq	.L805
 4067              	.L804:
 4068 00f0 283094E5 		ldr	r3, [r4, #40]
 4069 00f4 0400A0E1 		mov	r0, r4
 4070 00f8 18A094E5 		ldr	r10, [r4, #24]
 4071 00fc 142094E5 		ldr	r2, [r4, #20]
 4072 0100 030053E3 		cmp	r3, #3
 4073 0104 0430A093 		movls	r3, #4
 4074 0108 28308495 		strls	r3, [r4, #40]
 4075 010c 02A04AE0 		sub	r10, r10, r2
 4076 0110 103094E5 		ldr	r3, [r4, #16]
 4077 0114 03A04AE0 		sub	r10, r10, r3
 4078 0118 03A00AE2 		and	r10, r10, #3
 4079 011c 0A10A0E1 		mov	r1, r10
 4080 0120 FEFFFFEB 		bl	_ZN11flatbuffers15vector_downward12ensure_spaceEj
 4081 0124 183094E5 		ldr	r3, [r4, #24]
 4082 0128 00005AE3 		cmp	r10, #0
 4083 012c 000043E0 		sub	r0, r3, r0
 4084 0130 180084E5 		str	r0, [r4, #24]
 4085 0134 0800000A 		beq	.L806
 4086 0138 01005AE3 		cmp	r10, #1
 4087 013c 0030A0E3 		mov	r3, #0
 4088 0140 0030C0E5 		strb	r3, [r0]
 4089 0144 0400000A 		beq	.L806
 4090 0148 182094E5 		ldr	r2, [r4, #24]
 4091 014c 02005AE3 		cmp	r10, #2
 4092 0150 0130C2E5 		strb	r3, [r2, #1]
 4093 0154 18209415 		ldrne	r2, [r4, #24]
 4094 0158 0230C215 		strbne	r3, [r2, #2]
 4095              	.L806:
 4096 015c 0410A0E3 		mov	r1, #4
 4097 0160 0400A0E1 		mov	r0, r4
 4098 0164 FEFFFFEB 		bl	_ZN11flatbuffers15vector_downward12ensure_spaceEj
 4099 0168 183094E5 		ldr	r3, [r4, #24]
 4100 016c 0810A0E3 		mov	r1, #8
 4101 0170 142094E5 		ldr	r2, [r4, #20]
 4102 0174 000043E0 		sub	r0, r3, r0
 4103 0178 103094E5 		ldr	r3, [r4, #16]
 4104 017c 022040E0 		sub	r2, r0, r2
 4105 0180 180084E5 		str	r0, [r4, #24]
 4106 0184 009080E5 		str	r9, [r0]
 4107 0188 0400A0E1 		mov	r0, r4
 4108 018c 029043E0 		sub	r9, r3, r2
 4109 0190 FEFFFFEB 		bl	_ZN11flatbuffers15vector_downward12ensure_spaceEj
 4110 0194 1C3094E5 		ldr	r3, [r4, #28]
 4111 0198 0800A0E3 		mov	r0, #8
 4112 019c 202094E5 		ldr	r2, [r4, #32]
 4113 01a0 001083E0 		add	r1, r3, r0
 4114 01a4 009083E5 		str	r9, [r3]
 4115 01a8 B400C3E1 		strh	r0, [r3, #4]	@ movhi
 4116 01ac 012082E2 		add	r2, r2, #1
 4117 01b0 B432D4E1 		ldrh	r3, [r4, #36]
 4118 01b4 1C1084E5 		str	r1, [r4, #28]
 4119 01b8 202084E5 		str	r2, [r4, #32]
 4120 01bc 000053E1 		cmp	r3, r0
 4121 01c0 0030A0B1 		movlt	r3, r0
 4122 01c4 000057E3 		cmp	r7, #0
 4123 01c8 B432C4E1 		strh	r3, [r4, #36]	@ movhi
 4124 01cc B1FFFF0A 		beq	.L809
 4125              	.L859:
 4126 01d0 0710A0E1 		mov	r1, r7
 4127 01d4 0400A0E1 		mov	r0, r4
 4128 01d8 FEFFFFEB 		bl	_ZN11flatbuffers17FlatBufferBuilder7ReferToEm
 4129 01dc 002050E2 		subs	r2, r0, #0
 4130 01e0 0200001A 		bne	.L810
 4131 01e4 2C30D4E5 		ldrb	r3, [r4, #44]	@ zero_extendqisi2
 4132 01e8 000053E3 		cmp	r3, #0
 4133 01ec A9FFFF0A 		beq	.L809
 4134              	.L810:
 4135 01f0 0410A0E3 		mov	r1, #4
 4136 01f4 0400A0E1 		mov	r0, r4
 4137 01f8 FEFFFFEB 		bl	_ZN11flatbuffers17FlatBufferBuilder10AddElementImEEvtT_S2_.part.45
 4138 01fc 000058E3 		cmp	r8, #0
 4139 0200 A6FFFF0A 		beq	.L860
 4140              	.L812:
 4141 0204 283094E5 		ldr	r3, [r4, #40]
 4142 0208 0010A0E3 		mov	r1, #0
 4143 020c 0400A0E1 		mov	r0, r4
 4144 0210 7660AFE6 		sxtb	r6, r6
 4145 0214 000053E3 		cmp	r3, #0
 4146 0218 0130A003 		moveq	r3, #1
 4147 021c 28308405 		streq	r3, [r4, #40]
 4148 0220 FEFFFFEB 		bl	_ZN11flatbuffers15vector_downward12ensure_spaceEj
 4149 0224 183094E5 		ldr	r3, [r4, #24]
 4150 0228 0110A0E3 		mov	r1, #1
 4151 022c 003043E0 		sub	r3, r3, r0
 4152 0230 0400A0E1 		mov	r0, r4
 4153 0234 183084E5 		str	r3, [r4, #24]
 4154 0238 FEFFFFEB 		bl	_ZN11flatbuffers15vector_downward12ensure_spaceEj
 4155 023c 183094E5 		ldr	r3, [r4, #24]
 4156 0240 0810A0E3 		mov	r1, #8
 4157 0244 003043E0 		sub	r3, r3, r0
 4158 0248 0400A0E1 		mov	r0, r4
 4159 024c 183084E5 		str	r3, [r4, #24]
 4160 0250 0080C3E5 		strb	r8, [r3]
 4161 0254 142094E5 		ldr	r2, [r4, #20]
 4162 0258 183094E5 		ldr	r3, [r4, #24]
 4163 025c 107094E5 		ldr	r7, [r4, #16]
 4164 0260 023043E0 		sub	r3, r3, r2
 4165 0264 037047E0 		sub	r7, r7, r3
 4166 0268 FEFFFFEB 		bl	_ZN11flatbuffers15vector_downward12ensure_spaceEj
 4167 026c 1C3094E5 		ldr	r3, [r4, #28]
 4168 0270 0E00A0E3 		mov	r0, #14
 4169 0274 202094E5 		ldr	r2, [r4, #32]
 4170 0278 081083E2 		add	r1, r3, #8
 4171 027c 007083E5 		str	r7, [r3]
 4172 0280 B400C3E1 		strh	r0, [r3, #4]	@ movhi
 4173 0284 012082E2 		add	r2, r2, #1
 4174 0288 B432D4E1 		ldrh	r3, [r4, #36]
 4175 028c 1C1084E5 		str	r1, [r4, #28]
 4176 0290 202084E5 		str	r2, [r4, #32]
 4177 0294 000053E1 		cmp	r3, r0
 4178 0298 0030A0B1 		movlt	r3, r0
 4179 029c 000056E3 		cmp	r6, #0
 4180 02a0 B432C4E1 		strh	r3, [r4, #36]	@ movhi
 4181 02a4 0200001A 		bne	.L815
 4182 02a8 2C30D4E5 		ldrb	r3, [r4, #44]	@ zero_extendqisi2
 4183 02ac 000053E3 		cmp	r3, #0
 4184 02b0 80FFFF0A 		beq	.L816
 4185              	.L815:
 4186 02b4 283094E5 		ldr	r3, [r4, #40]
 4187 02b8 0010A0E3 		mov	r1, #0
 4188 02bc 0400A0E1 		mov	r0, r4
 4189 02c0 000053E3 		cmp	r3, #0
 4190 02c4 0130A003 		moveq	r3, #1
 4191 02c8 28308405 		streq	r3, [r4, #40]
 4192 02cc FEFFFFEB 		bl	_ZN11flatbuffers15vector_downward12ensure_spaceEj
 4193 02d0 183094E5 		ldr	r3, [r4, #24]
 4194 02d4 0110A0E3 		mov	r1, #1
 4195 02d8 003043E0 		sub	r3, r3, r0
 4196 02dc 0400A0E1 		mov	r0, r4
 4197 02e0 183084E5 		str	r3, [r4, #24]
 4198 02e4 FEFFFFEB 		bl	_ZN11flatbuffers15vector_downward12ensure_spaceEj
 4199 02e8 183094E5 		ldr	r3, [r4, #24]
 4200 02ec 0810A0E3 		mov	r1, #8
 4201 02f0 003043E0 		sub	r3, r3, r0
 4202 02f4 0400A0E1 		mov	r0, r4
 4203 02f8 183084E5 		str	r3, [r4, #24]
 4204 02fc 0060C3E5 		strb	r6, [r3]
 4205 0300 142094E5 		ldr	r2, [r4, #20]
 4206 0304 183094E5 		ldr	r3, [r4, #24]
 4207 0308 106094E5 		ldr	r6, [r4, #16]
 4208 030c 023043E0 		sub	r3, r3, r2
 4209 0310 036046E0 		sub	r6, r6, r3
 4210 0314 FEFFFFEB 		bl	_ZN11flatbuffers15vector_downward12ensure_spaceEj
 4211 0318 1C3094E5 		ldr	r3, [r4, #28]
 4212 031c 0600A0E3 		mov	r0, #6
 4213 0320 202094E5 		ldr	r2, [r4, #32]
 4214 0324 081083E2 		add	r1, r3, #8
 4215 0328 006083E5 		str	r6, [r3]
 4216 032c B400C3E1 		strh	r0, [r3, #4]	@ movhi
 4217 0330 012082E2 		add	r2, r2, #1
 4218 0334 B432D4E1 		ldrh	r3, [r4, #36]
 4219 0338 1C1084E5 		str	r1, [r4, #28]
 4220 033c 202084E5 		str	r2, [r4, #32]
 4221 0340 000053E1 		cmp	r3, r0
 4222 0344 0030A0B1 		movlt	r3, r0
 4223 0348 B432C4E1 		strh	r3, [r4, #36]	@ movhi
 4224 034c 59FFFFEA 		b	.L816
 4225              	.L802:
 4226 0350 0A10A0E3 		mov	r1, #10
 4227 0354 0400A0E1 		mov	r0, r4
 4228 0358 FEFFFFEB 		bl	_ZN11flatbuffers17FlatBufferBuilder10AddElementImEEvtT_S2_.part.45
 4229 035c 46FFFFEA 		b	.L801
 4230              	.L857:
 4231 0360 0A10A0E1 		mov	r1, r10
 4232 0364 0400A0E1 		mov	r0, r4
 4233 0368 FEFFFFEB 		bl	_ZN11flatbuffers17FlatBufferBuilder7ReferToEm
 4234 036c 002050E2 		subs	r2, r0, #0
 4235 0370 0200001A 		bne	.L799
 4236 0374 2C30D4E5 		ldrb	r3, [r4, #44]	@ zero_extendqisi2
 4237 0378 000053E3 		cmp	r3, #0
 4238 037c 3BFFFF0A 		beq	.L798
 4239              	.L799:
 4240 0380 0C10A0E3 		mov	r1, #12
 4241 0384 0400A0E1 		mov	r0, r4
 4242 0388 FEFFFFEB 		bl	_ZN11flatbuffers17FlatBufferBuilder10AddElementImEEvtT_S2_.part.45
 4243 038c 37FFFFEA 		b	.L798
 4244              	.L856:
 4245 0390 0B10A0E1 		mov	r1, fp
 4246 0394 0400A0E1 		mov	r0, r4
 4247 0398 FEFFFFEB 		bl	_ZN11flatbuffers17FlatBufferBuilder7ReferToEm
 4248 039c 002050E2 		subs	r2, r0, #0
 4249 03a0 0200001A 		bne	.L795
 4250 03a4 2C30D4E5 		ldrb	r3, [r4, #44]	@ zero_extendqisi2
 4251 03a8 000053E3 		cmp	r3, #0
 4252 03ac 2DFFFF0A 		beq	.L794
 4253              	.L795:
 4254 03b0 1010A0E3 		mov	r1, #16
 4255 03b4 0400A0E1 		mov	r0, r4
 4256 03b8 FEFFFFEB 		bl	_ZN11flatbuffers17FlatBufferBuilder10AddElementImEEvtT_S2_.part.45
 4257 03bc 29FFFFEA 		b	.L794
 4258              	.L855:
 4259 03c0 FEFFFFEB 		bl	_ZN11flatbuffers17FlatBufferBuilder7ReferToEm
 4260 03c4 002050E2 		subs	r2, r0, #0
 4261 03c8 0200001A 		bne	.L791
 4262 03cc 2C30D4E5 		ldrb	r3, [r4, #44]	@ zero_extendqisi2
 4263 03d0 000053E3 		cmp	r3, #0
 4264 03d4 21FFFF0A 		beq	.L790
 4265              	.L791:
 4266 03d8 1210A0E3 		mov	r1, #18
 4267 03dc 0400A0E1 		mov	r0, r4
 4268 03e0 FEFFFFEB 		bl	_ZN11flatbuffers17FlatBufferBuilder10AddElementImEEvtT_S2_.part.45
 4269 03e4 1DFFFFEA 		b	.L790
 4270              	.L853:
 4271 03e8 003000E3 		movw	r3, #:lower16:.LC24
 4272 03ec 002000E3 		movw	r2, #:lower16:.LANCHOR11
 4273 03f0 000000E3 		movw	r0, #:lower16:.LC19
 4274 03f4 003040E3 		movt	r3, #:upper16:.LC24
 4275 03f8 002040E3 		movt	r2, #:upper16:.LANCHOR11
 4276 03fc 000040E3 		movt	r0, #:upper16:.LC19
 4277 0400 481500E3 		movw	r1, #1352
 4278 0404 FEFFFFEB 		bl	__assert_func
 4279              	.L854:
 4280 0408 FEFFFFEB 		bl	_ZN11flatbuffers17FlatBufferBuilder9NotNestedEv.isra.19.part.20
 4281              		.fnend
 4283              		.section	.text._ZN6tflite14CreateOperatorERN11flatbuffers17FlatBufferBuilderEmNS0_6OffsetINS0_6Vec
 4284              		.align	2
 4285              		.weak	_ZN6tflite14CreateOperatorERN11flatbuffers17FlatBufferBuilderEmNS0_6OffsetINS0_6VectorIlEEEE
 4286              		.syntax unified
 4287              		.arm
 4288              		.fpu neon
 4290              	_ZN6tflite14CreateOperatorERN11flatbuffers17FlatBufferBuilderEmNS0_6OffsetINS0_6VectorIlEEEES6_NS_1
 4291              		.fnstart
 4292              	.LFB5848:
 4293              		@ args = 24, pretend = 0, frame = 0
 4294              		@ frame_needed = 0, uses_anonymous_args = 0
 4295 0000 F84F2DE9 		push	{r3, r4, r5, r6, r7, r8, r9, r10, fp, lr}
 4296              		.save {r3, r4, r5, r6, r7, r8, r9, r10, fp, lr}
 4297 0004 0170A0E1 		mov	r7, r1
 4298 0008 2610D0E5 		ldrb	r1, [r0, #38]	@ zero_extendqisi2
 4299 000c 0390A0E1 		mov	r9, r3
 4300 0010 28B0DDE5 		ldrb	fp, [sp, #40]	@ zero_extendqisi2
 4301 0014 000051E3 		cmp	r1, #0
 4302 0018 203090E5 		ldr	r3, [r0, #32]
 4303 001c 3460DDE5 		ldrb	r6, [sp, #52]	@ zero_extendqisi2
 4304 0020 38A09DE5 		ldr	r10, [sp, #56]
 4305 0024 3C109DE5 		ldr	r1, [sp, #60]
 4306 0028 FD00001A 		bne	.L927
 4307 002c 000053E3 		cmp	r3, #0
 4308 0030 0301001A 		bne	.L928
 4309 0034 0280A0E1 		mov	r8, r2
 4310 0038 183090E5 		ldr	r3, [r0, #24]
 4311 003c 142090E5 		ldr	r2, [r0, #20]
 4312 0040 000051E3 		cmp	r1, #0
 4313 0044 105090E5 		ldr	r5, [r0, #16]
 4314 0048 01C0A0E3 		mov	ip, #1
 4315 004c 0040A0E1 		mov	r4, r0
 4316 0050 26C0C0E5 		strb	ip, [r0, #38]
 4317 0054 023043E0 		sub	r3, r3, r2
 4318 0058 035045E0 		sub	r5, r5, r3
 4319 005c E600001A 		bne	.L929
 4320              	.L865:
 4321 0060 00005AE3 		cmp	r10, #0
 4322 0064 D800001A 		bne	.L930
 4323              	.L869:
 4324 0068 30309DE5 		ldr	r3, [sp, #48]
 4325 006c 000053E3 		cmp	r3, #0
 4326 0070 C900001A 		bne	.L931
 4327              	.L873:
 4328 0074 2C309DE5 		ldr	r3, [sp, #44]
 4329 0078 000053E3 		cmp	r3, #0
 4330 007c BA00001A 		bne	.L932
 4331              	.L877:
 4332 0080 000059E3 		cmp	r9, #0
 4333 0084 AC00001A 		bne	.L933
 4334              	.L881:
 4335 0088 000058E3 		cmp	r8, #0
 4336 008c 9E00001A 		bne	.L934
 4337              	.L885:
 4338 0090 000057E3 		cmp	r7, #0
 4339 0094 0200001A 		bne	.L888
 4340 0098 2C30D4E5 		ldrb	r3, [r4, #44]	@ zero_extendqisi2
 4341 009c 000053E3 		cmp	r3, #0
 4342 00a0 8D00000A 		beq	.L935
 4343              	.L888:
 4344 00a4 283094E5 		ldr	r3, [r4, #40]
 4345 00a8 0400A0E1 		mov	r0, r4
 4346 00ac 188094E5 		ldr	r8, [r4, #24]
 4347 00b0 142094E5 		ldr	r2, [r4, #20]
 4348 00b4 030053E3 		cmp	r3, #3
 4349 00b8 0430A093 		movls	r3, #4
 4350 00bc 28308495 		strls	r3, [r4, #40]
 4351 00c0 028048E0 		sub	r8, r8, r2
 4352 00c4 103094E5 		ldr	r3, [r4, #16]
 4353 00c8 038048E0 		sub	r8, r8, r3
 4354 00cc 038008E2 		and	r8, r8, #3
 4355 00d0 0810A0E1 		mov	r1, r8
 4356 00d4 FEFFFFEB 		bl	_ZN11flatbuffers15vector_downward12ensure_spaceEj
 4357 00d8 183094E5 		ldr	r3, [r4, #24]
 4358 00dc 000058E3 		cmp	r8, #0
 4359 00e0 000043E0 		sub	r0, r3, r0
 4360 00e4 180084E5 		str	r0, [r4, #24]
 4361 00e8 0800000A 		beq	.L890
 4362 00ec 010058E3 		cmp	r8, #1
 4363 00f0 0030A0E3 		mov	r3, #0
 4364 00f4 0030C0E5 		strb	r3, [r0]
 4365 00f8 0400000A 		beq	.L890
 4366 00fc 182094E5 		ldr	r2, [r4, #24]
 4367 0100 020058E3 		cmp	r8, #2
 4368 0104 0130C2E5 		strb	r3, [r2, #1]
 4369 0108 18209415 		ldrne	r2, [r4, #24]
 4370 010c 0230C215 		strbne	r3, [r2, #2]
 4371              	.L890:
 4372 0110 0410A0E3 		mov	r1, #4
 4373 0114 0400A0E1 		mov	r0, r4
 4374 0118 FEFFFFEB 		bl	_ZN11flatbuffers15vector_downward12ensure_spaceEj
 4375 011c 183094E5 		ldr	r3, [r4, #24]
 4376 0120 0810A0E3 		mov	r1, #8
 4377 0124 142094E5 		ldr	r2, [r4, #20]
 4378 0128 7660AFE6 		sxtb	r6, r6
 4379 012c 000043E0 		sub	r0, r3, r0
 4380 0130 103094E5 		ldr	r3, [r4, #16]
 4381 0134 022040E0 		sub	r2, r0, r2
 4382 0138 180084E5 		str	r0, [r4, #24]
 4383 013c 007080E5 		str	r7, [r0]
 4384 0140 0400A0E1 		mov	r0, r4
 4385 0144 027043E0 		sub	r7, r3, r2
 4386 0148 FEFFFFEB 		bl	_ZN11flatbuffers15vector_downward12ensure_spaceEj
 4387 014c 1C3094E5 		ldr	r3, [r4, #28]
 4388 0150 0400A0E3 		mov	r0, #4
 4389 0154 202094E5 		ldr	r2, [r4, #32]
 4390 0158 081083E2 		add	r1, r3, #8
 4391 015c 007083E5 		str	r7, [r3]
 4392 0160 B400C3E1 		strh	r0, [r3, #4]	@ movhi
 4393 0164 012082E2 		add	r2, r2, #1
 4394 0168 B432D4E1 		ldrh	r3, [r4, #36]
 4395 016c 1C1084E5 		str	r1, [r4, #28]
 4396 0170 202084E5 		str	r2, [r4, #32]
 4397 0174 000053E1 		cmp	r3, r0
 4398 0178 0030A0B1 		movlt	r3, r0
 4399 017c 000056E3 		cmp	r6, #0
 4400 0180 B432C4E1 		strh	r3, [r4, #36]	@ movhi
 4401 0184 5A00000A 		beq	.L936
 4402              	.L892:
 4403 0188 283094E5 		ldr	r3, [r4, #40]
 4404 018c 0010A0E3 		mov	r1, #0
 4405 0190 0400A0E1 		mov	r0, r4
 4406 0194 000053E3 		cmp	r3, #0
 4407 0198 0130A003 		moveq	r3, #1
 4408 019c 28308405 		streq	r3, [r4, #40]
 4409 01a0 FEFFFFEB 		bl	_ZN11flatbuffers15vector_downward12ensure_spaceEj
 4410 01a4 183094E5 		ldr	r3, [r4, #24]
 4411 01a8 0110A0E3 		mov	r1, #1
 4412 01ac 003043E0 		sub	r3, r3, r0
 4413 01b0 0400A0E1 		mov	r0, r4
 4414 01b4 183084E5 		str	r3, [r4, #24]
 4415 01b8 FEFFFFEB 		bl	_ZN11flatbuffers15vector_downward12ensure_spaceEj
 4416 01bc 183094E5 		ldr	r3, [r4, #24]
 4417 01c0 0810A0E3 		mov	r1, #8
 4418 01c4 003043E0 		sub	r3, r3, r0
 4419 01c8 0400A0E1 		mov	r0, r4
 4420 01cc 183084E5 		str	r3, [r4, #24]
 4421 01d0 0060C3E5 		strb	r6, [r3]
 4422 01d4 142094E5 		ldr	r2, [r4, #20]
 4423 01d8 183094E5 		ldr	r3, [r4, #24]
 4424 01dc 106094E5 		ldr	r6, [r4, #16]
 4425 01e0 023043E0 		sub	r3, r3, r2
 4426 01e4 036046E0 		sub	r6, r6, r3
 4427 01e8 FEFFFFEB 		bl	_ZN11flatbuffers15vector_downward12ensure_spaceEj
 4428 01ec 1C3094E5 		ldr	r3, [r4, #28]
 4429 01f0 1000A0E3 		mov	r0, #16
 4430 01f4 202094E5 		ldr	r2, [r4, #32]
 4431 01f8 081083E2 		add	r1, r3, #8
 4432 01fc 006083E5 		str	r6, [r3]
 4433 0200 B400C3E1 		strh	r0, [r3, #4]	@ movhi
 4434 0204 012082E2 		add	r2, r2, #1
 4435 0208 B432D4E1 		ldrh	r3, [r4, #36]
 4436 020c 1C1084E5 		str	r1, [r4, #28]
 4437 0210 202084E5 		str	r2, [r4, #32]
 4438 0214 000053E1 		cmp	r3, r0
 4439 0218 0030A0B1 		movlt	r3, r0
 4440 021c 00005BE3 		cmp	fp, #0
 4441 0220 B432C4E1 		strh	r3, [r4, #36]	@ movhi
 4442 0224 0200001A 		bne	.L895
 4443 0228 2C30D4E5 		ldrb	r3, [r4, #44]	@ zero_extendqisi2
 4444 022c 000053E3 		cmp	r3, #0
 4445 0230 2500000A 		beq	.L896
 4446              	.L895:
 4447 0234 283094E5 		ldr	r3, [r4, #40]
 4448 0238 0010A0E3 		mov	r1, #0
 4449 023c 0400A0E1 		mov	r0, r4
 4450 0240 000053E3 		cmp	r3, #0
 4451 0244 0130A003 		moveq	r3, #1
 4452 0248 28308405 		streq	r3, [r4, #40]
 4453 024c FEFFFFEB 		bl	_ZN11flatbuffers15vector_downward12ensure_spaceEj
 4454 0250 183094E5 		ldr	r3, [r4, #24]
 4455 0254 0110A0E3 		mov	r1, #1
 4456 0258 003043E0 		sub	r3, r3, r0
 4457 025c 0400A0E1 		mov	r0, r4
 4458 0260 183084E5 		str	r3, [r4, #24]
 4459 0264 FEFFFFEB 		bl	_ZN11flatbuffers15vector_downward12ensure_spaceEj
 4460 0268 183094E5 		ldr	r3, [r4, #24]
 4461 026c 0810A0E3 		mov	r1, #8
 4462 0270 003043E0 		sub	r3, r3, r0
 4463 0274 0400A0E1 		mov	r0, r4
 4464 0278 183084E5 		str	r3, [r4, #24]
 4465 027c 00B0C3E5 		strb	fp, [r3]
 4466 0280 142094E5 		ldr	r2, [r4, #20]
 4467 0284 183094E5 		ldr	r3, [r4, #24]
 4468 0288 106094E5 		ldr	r6, [r4, #16]
 4469 028c 023043E0 		sub	r3, r3, r2
 4470 0290 036046E0 		sub	r6, r6, r3
 4471 0294 FEFFFFEB 		bl	_ZN11flatbuffers15vector_downward12ensure_spaceEj
 4472 0298 1C3094E5 		ldr	r3, [r4, #28]
 4473 029c 0A00A0E3 		mov	r0, #10
 4474 02a0 202094E5 		ldr	r2, [r4, #32]
 4475 02a4 081083E2 		add	r1, r3, #8
 4476 02a8 006083E5 		str	r6, [r3]
 4477 02ac B400C3E1 		strh	r0, [r3, #4]	@ movhi
 4478 02b0 012082E2 		add	r2, r2, #1
 4479 02b4 B432D4E1 		ldrh	r3, [r4, #36]
 4480 02b8 1C1084E5 		str	r1, [r4, #28]
 4481 02bc 202084E5 		str	r2, [r4, #32]
 4482 02c0 000053E1 		cmp	r3, r0
 4483 02c4 0030A0B1 		movlt	r3, r0
 4484 02c8 B432C4E1 		strh	r3, [r4, #36]	@ movhi
 4485              	.L896:
 4486 02cc 0510A0E1 		mov	r1, r5
 4487 02d0 0400A0E1 		mov	r0, r4
 4488 02d4 FEFFFFEB 		bl	_ZN11flatbuffers17FlatBufferBuilder8EndTableEm
 4489 02d8 F88FBDE8 		pop	{r3, r4, r5, r6, r7, r8, r9, r10, fp, pc}
 4490              	.L935:
 4491 02dc 7660AFE6 		sxtb	r6, r6
 4492 02e0 000056E3 		cmp	r6, #0
 4493 02e4 A7FFFF1A 		bne	.L892
 4494 02e8 00005BE3 		cmp	fp, #0
 4495 02ec F6FFFF0A 		beq	.L896
 4496 02f0 CFFFFFEA 		b	.L895
 4497              	.L936:
 4498 02f4 2C30D4E5 		ldrb	r3, [r4, #44]	@ zero_extendqisi2
 4499 02f8 000053E3 		cmp	r3, #0
 4500 02fc A1FFFF1A 		bne	.L892
 4501 0300 00005BE3 		cmp	fp, #0
 4502 0304 F0FFFF0A 		beq	.L896
 4503 0308 C9FFFFEA 		b	.L895
 4504              	.L934:
 4505 030c 0810A0E1 		mov	r1, r8
 4506 0310 0400A0E1 		mov	r0, r4
 4507 0314 FEFFFFEB 		bl	_ZN11flatbuffers17FlatBufferBuilder7ReferToEm
 4508 0318 002050E2 		subs	r2, r0, #0
 4509 031c 0200001A 		bne	.L886
 4510 0320 2C30D4E5 		ldrb	r3, [r4, #44]	@ zero_extendqisi2
 4511 0324 000053E3 		cmp	r3, #0
 4512 0328 58FFFF0A 		beq	.L885
 4513              	.L886:
 4514 032c 0610A0E3 		mov	r1, #6
 4515 0330 0400A0E1 		mov	r0, r4
 4516 0334 FEFFFFEB 		bl	_ZN11flatbuffers17FlatBufferBuilder10AddElementImEEvtT_S2_.part.45
 4517 0338 54FFFFEA 		b	.L885
 4518              	.L933:
 4519 033c 0910A0E1 		mov	r1, r9
 4520 0340 0400A0E1 		mov	r0, r4
 4521 0344 FEFFFFEB 		bl	_ZN11flatbuffers17FlatBufferBuilder7ReferToEm
 4522 0348 002050E2 		subs	r2, r0, #0
 4523 034c 0200001A 		bne	.L882
 4524 0350 2C30D4E5 		ldrb	r3, [r4, #44]	@ zero_extendqisi2
 4525 0354 000053E3 		cmp	r3, #0
 4526 0358 4AFFFF0A 		beq	.L881
 4527              	.L882:
 4528 035c 0810A0E3 		mov	r1, #8
 4529 0360 0400A0E1 		mov	r0, r4
 4530 0364 FEFFFFEB 		bl	_ZN11flatbuffers17FlatBufferBuilder10AddElementImEEvtT_S2_.part.45
 4531 0368 46FFFFEA 		b	.L881
 4532              	.L932:
 4533 036c 0310A0E1 		mov	r1, r3
 4534 0370 0400A0E1 		mov	r0, r4
 4535 0374 FEFFFFEB 		bl	_ZN11flatbuffers17FlatBufferBuilder7ReferToEm
 4536 0378 002050E2 		subs	r2, r0, #0
 4537 037c 0200001A 		bne	.L878
 4538 0380 2C30D4E5 		ldrb	r3, [r4, #44]	@ zero_extendqisi2
 4539 0384 000053E3 		cmp	r3, #0
 4540 0388 3CFFFF0A 		beq	.L877
 4541              	.L878:
 4542 038c 0C10A0E3 		mov	r1, #12
 4543 0390 0400A0E1 		mov	r0, r4
 4544 0394 FEFFFFEB 		bl	_ZN11flatbuffers17FlatBufferBuilder10AddElementImEEvtT_S2_.part.45
 4545 0398 38FFFFEA 		b	.L877
 4546              	.L931:
 4547 039c 0310A0E1 		mov	r1, r3
 4548 03a0 0400A0E1 		mov	r0, r4
 4549 03a4 FEFFFFEB 		bl	_ZN11flatbuffers17FlatBufferBuilder7ReferToEm
 4550 03a8 002050E2 		subs	r2, r0, #0
 4551 03ac 0200001A 		bne	.L874
 4552 03b0 2C30D4E5 		ldrb	r3, [r4, #44]	@ zero_extendqisi2
 4553 03b4 000053E3 		cmp	r3, #0
 4554 03b8 2DFFFF0A 		beq	.L873
 4555              	.L874:
 4556 03bc 0E10A0E3 		mov	r1, #14
 4557 03c0 0400A0E1 		mov	r0, r4
 4558 03c4 FEFFFFEB 		bl	_ZN11flatbuffers17FlatBufferBuilder10AddElementImEEvtT_S2_.part.45
 4559 03c8 29FFFFEA 		b	.L873
 4560              	.L930:
 4561 03cc 0A10A0E1 		mov	r1, r10
 4562 03d0 0400A0E1 		mov	r0, r4
 4563 03d4 FEFFFFEB 		bl	_ZN11flatbuffers17FlatBufferBuilder7ReferToEm
 4564 03d8 002050E2 		subs	r2, r0, #0
 4565 03dc 0200001A 		bne	.L870
 4566 03e0 2C30D4E5 		ldrb	r3, [r4, #44]	@ zero_extendqisi2
 4567 03e4 000053E3 		cmp	r3, #0
 4568 03e8 1EFFFF0A 		beq	.L869
 4569              	.L870:
 4570 03ec 1210A0E3 		mov	r1, #18
 4571 03f0 0400A0E1 		mov	r0, r4
 4572 03f4 FEFFFFEB 		bl	_ZN11flatbuffers17FlatBufferBuilder10AddElementImEEvtT_S2_.part.45
 4573 03f8 1AFFFFEA 		b	.L869
 4574              	.L929:
 4575 03fc FEFFFFEB 		bl	_ZN11flatbuffers17FlatBufferBuilder7ReferToEm
 4576 0400 002050E2 		subs	r2, r0, #0
 4577 0404 0200001A 		bne	.L866
 4578 0408 2C30D4E5 		ldrb	r3, [r4, #44]	@ zero_extendqisi2
 4579 040c 000053E3 		cmp	r3, #0
 4580 0410 12FFFF0A 		beq	.L865
 4581              	.L866:
 4582 0414 1410A0E3 		mov	r1, #20
 4583 0418 0400A0E1 		mov	r0, r4
 4584 041c FEFFFFEB 		bl	_ZN11flatbuffers17FlatBufferBuilder10AddElementImEEvtT_S2_.part.45
 4585 0420 0EFFFFEA 		b	.L865
 4586              	.L927:
 4587 0424 003000E3 		movw	r3, #:lower16:.LC24
 4588 0428 002000E3 		movw	r2, #:lower16:.LANCHOR11
 4589 042c 000000E3 		movw	r0, #:lower16:.LC19
 4590 0430 003040E3 		movt	r3, #:upper16:.LC24
 4591 0434 002040E3 		movt	r2, #:upper16:.LANCHOR11
 4592 0438 000040E3 		movt	r0, #:upper16:.LC19
 4593 043c 481500E3 		movw	r1, #1352
 4594 0440 FEFFFFEB 		bl	__assert_func
 4595              	.L928:
 4596 0444 FEFFFFEB 		bl	_ZN11flatbuffers17FlatBufferBuilder9NotNestedEv.isra.19.part.20
 4597              		.fnend
 4599              		.section	.text._ZN6tflite7testing12_GLOBAL__N_112ModelBuilder7AddNodeEiSt16initializer_listIlES4_,
 4600              		.align	2
 4601              		.syntax unified
 4602              		.arm
 4603              		.fpu neon
 4605              	_ZN6tflite7testing12_GLOBAL__N_112ModelBuilder7AddNodeEiSt16initializer_listIlES4_:
 4606              		.fnstart
 4607              	.LFB6963:
 4608              		@ args = 8, pretend = 0, frame = 8
 4609              		@ frame_needed = 0, uses_anonymous_args = 0
 4610 0000 F04F2DE9 		push	{r4, r5, r6, r7, r8, r9, r10, fp, lr}
 4611              		.save {r4, r5, r6, r7, r8, r9, r10, fp, lr}
 4612              		.pad #36
 4613 0004 24D04DE2 		sub	sp, sp, #36
 4614 0008 F86090E5 		ldr	r6, [r0, #248]
 4615 000c 0180A0E1 		mov	r8, r1
 4616 0010 20108DE2 		add	r1, sp, #32
 4617 0014 0C0001E9 		stmdb	r1, {r2, r3}
 4618 0018 320056E3 		cmp	r6, #50
 4619 001c 430000CA 		bgt	.L952
 4620 0020 1C509DE5 		ldr	r5, [sp, #28]
 4621 0024 0040A0E1 		mov	r4, r0
 4622 0028 007090E5 		ldr	r7, [r0]
 4623 002c 18A09DE5 		ldr	r10, [sp, #24]
 4624 0030 0510A0E1 		mov	r1, r5
 4625 0034 0700A0E1 		mov	r0, r7
 4626 0038 FEFFFFEB 		bl	_ZN11flatbuffers17FlatBufferBuilder11StartVectorEjj.constprop.148
 4627 003c 000055E3 		cmp	r5, #0
 4628 0040 0100000A 		beq	.L941
 4629 0044 0591B0E1 		lsls	r9, r5, #2
 4630 0048 2400001A 		bne	.L953
 4631              	.L941:
 4632 004c 0510A0E1 		mov	r1, r5
 4633 0050 0700A0E1 		mov	r0, r7
 4634 0054 FEFFFFEB 		bl	_ZN11flatbuffers17FlatBufferBuilder9EndVectorEj
 4635 0058 4C509DE5 		ldr	r5, [sp, #76]
 4636 005c 0090A0E1 		mov	r9, r0
 4637 0060 007094E5 		ldr	r7, [r4]
 4638 0064 48B09DE5 		ldr	fp, [sp, #72]
 4639 0068 0510A0E1 		mov	r1, r5
 4640 006c 0700A0E1 		mov	r0, r7
 4641 0070 FEFFFFEB 		bl	_ZN11flatbuffers17FlatBufferBuilder11StartVectorEjj.constprop.148
 4642 0074 000055E3 		cmp	r5, #0
 4643 0078 0100000A 		beq	.L944
 4644 007c 05A1B0E1 		lsls	r10, r5, #2
 4645 0080 2000001A 		bne	.L954
 4646              	.L944:
 4647 0084 0510A0E1 		mov	r1, r5
 4648 0088 0700A0E1 		mov	r0, r7
 4649 008c FEFFFFEB 		bl	_ZN11flatbuffers17FlatBufferBuilder9EndVectorEj
 4650 0090 00C0A0E3 		mov	ip, #0
 4651 0094 0030A0E1 		mov	r3, r0
 4652 0098 0920A0E1 		mov	r2, r9
 4653 009c 0810A0E1 		mov	r1, r8
 4654 00a0 0700A0E1 		mov	r0, r7
 4655 00a4 14C08DE5 		str	ip, [sp, #20]
 4656 00a8 10C08DE5 		str	ip, [sp, #16]
 4657 00ac 0C6086E2 		add	r6, r6, #12
 4658 00b0 0CC08DE5 		str	ip, [sp, #12]
 4659 00b4 08C08DE5 		str	ip, [sp, #8]
 4660 00b8 04C08DE5 		str	ip, [sp, #4]
 4661 00bc 00C08DE5 		str	ip, [sp]
 4662 00c0 FEFFFFEB 		bl	_ZN6tflite14CreateOperatorERN11flatbuffers17FlatBufferBuilderEmNS0_6OffsetINS0_6VectorIlEEEES6_
 4663 00c4 F83094E5 		ldr	r3, [r4, #248]
 4664 00c8 060184E7 		str	r0, [r4, r6, lsl #2]
 4665 00cc 012083E2 		add	r2, r3, #1
 4666 00d0 0300A0E1 		mov	r0, r3
 4667 00d4 F82084E5 		str	r2, [r4, #248]
 4668 00d8 24D08DE2 		add	sp, sp, #36
 4669              		@ sp needed
 4670 00dc F08FBDE8 		pop	{r4, r5, r6, r7, r8, r9, r10, fp, pc}
 4671              	.L953:
 4672 00e0 0910A0E1 		mov	r1, r9
 4673 00e4 0700A0E1 		mov	r0, r7
 4674 00e8 FEFFFFEB 		bl	_ZN11flatbuffers15vector_downward12ensure_spaceEj
 4675 00ec 183097E5 		ldr	r3, [r7, #24]
 4676 00f0 0920A0E1 		mov	r2, r9
 4677 00f4 0A10A0E1 		mov	r1, r10
 4678 00f8 000043E0 		sub	r0, r3, r0
 4679 00fc 180087E5 		str	r0, [r7, #24]
 4680 0100 FEFFFFEB 		bl	memcpy
 4681 0104 D0FFFFEA 		b	.L941
 4682              	.L954:
 4683 0108 0A10A0E1 		mov	r1, r10
 4684 010c 0700A0E1 		mov	r0, r7
 4685 0110 FEFFFFEB 		bl	_ZN11flatbuffers15vector_downward12ensure_spaceEj
 4686 0114 183097E5 		ldr	r3, [r7, #24]
 4687 0118 0A20A0E1 		mov	r2, r10
 4688 011c 0B10A0E1 		mov	r1, fp
 4689 0120 000043E0 		sub	r0, r3, r0
 4690 0124 180087E5 		str	r0, [r7, #24]
 4691 0128 FEFFFFEB 		bl	memcpy
 4692 012c D4FFFFEA 		b	.L944
 4693              	.L952:
 4694 0130 FEFFFFEB 		bl	abort
 4695              		.fnend
 4697              		.section	.text._ZN6tflite14CreateSubGraphERN11flatbuffers17FlatBufferBuilderENS0_6OffsetINS0_6Vect
 4698              		.align	2
 4699              		.weak	_ZN6tflite14CreateSubGraphERN11flatbuffers17FlatBufferBuilderENS0_6OffsetINS0_6VectorINS3_IN
 4700              		.syntax unified
 4701              		.arm
 4702              		.fpu neon
 4704              	_ZN6tflite14CreateSubGraphERN11flatbuffers17FlatBufferBuilderENS0_6OffsetINS0_6VectorINS3_INS_6Tens
 4705              		.fnstart
 4706              	.LFB5868:
 4707              		@ args = 8, pretend = 0, frame = 0
 4708              		@ frame_needed = 0, uses_anonymous_args = 0
 4709 0000 F0472DE9 		push	{r4, r5, r6, r7, r8, r9, r10, lr}
 4710              		.save {r4, r5, r6, r7, r8, r9, r10, lr}
 4711 0004 0160A0E1 		mov	r6, r1
 4712 0008 2610D0E5 		ldrb	r1, [r0, #38]	@ zero_extendqisi2
 4713 000c 0380A0E1 		mov	r8, r3
 4714 0010 20909DE5 		ldr	r9, [sp, #32]
 4715 0014 000051E3 		cmp	r1, #0
 4716 0018 203090E5 		ldr	r3, [r0, #32]
 4717 001c 24109DE5 		ldr	r1, [sp, #36]
 4718 0020 5600001A 		bne	.L980
 4719 0024 000053E3 		cmp	r3, #0
 4720 0028 5C00001A 		bne	.L981
 4721 002c 0270A0E1 		mov	r7, r2
 4722 0030 143090E5 		ldr	r3, [r0, #20]
 4723 0034 182090E5 		ldr	r2, [r0, #24]
 4724 0038 000051E3 		cmp	r1, #0
 4725 003c 105090E5 		ldr	r5, [r0, #16]
 4726 0040 01C0A0E3 		mov	ip, #1
 4727 0044 0040A0E1 		mov	r4, r0
 4728 0048 26C0C0E5 		strb	ip, [r0, #38]
 4729 004c 032042E0 		sub	r2, r2, r3
 4730 0050 025045E0 		sub	r5, r5, r2
 4731 0054 0B00001A 		bne	.L982
 4732              	.L959:
 4733 0058 000059E3 		cmp	r9, #0
 4734 005c 1400001A 		bne	.L983
 4735              	.L963:
 4736 0060 000058E3 		cmp	r8, #0
 4737 0064 1F00001A 		bne	.L984
 4738              	.L967:
 4739 0068 000057E3 		cmp	r7, #0
 4740 006c 2A00001A 		bne	.L985
 4741              	.L971:
 4742 0070 000056E3 		cmp	r6, #0
 4743 0074 3500001A 		bne	.L986
 4744              	.L975:
 4745 0078 0510A0E1 		mov	r1, r5
 4746 007c 0400A0E1 		mov	r0, r4
 4747 0080 FEFFFFEB 		bl	_ZN11flatbuffers17FlatBufferBuilder8EndTableEm
 4748 0084 F087BDE8 		pop	{r4, r5, r6, r7, r8, r9, r10, pc}
 4749              	.L982:
 4750 0088 FEFFFFEB 		bl	_ZN11flatbuffers17FlatBufferBuilder7ReferToEm
 4751 008c 002050E2 		subs	r2, r0, #0
 4752 0090 0200001A 		bne	.L960
 4753 0094 2C30D4E5 		ldrb	r3, [r4, #44]	@ zero_extendqisi2
 4754 0098 000053E3 		cmp	r3, #0
 4755 009c EDFFFF0A 		beq	.L959
 4756              	.L960:
 4757 00a0 0C10A0E3 		mov	r1, #12
 4758 00a4 0400A0E1 		mov	r0, r4
 4759 00a8 FEFFFFEB 		bl	_ZN11flatbuffers17FlatBufferBuilder10AddElementImEEvtT_S2_.part.45
 4760 00ac 000059E3 		cmp	r9, #0
 4761 00b0 EAFFFF0A 		beq	.L963
 4762              	.L983:
 4763 00b4 0910A0E1 		mov	r1, r9
 4764 00b8 0400A0E1 		mov	r0, r4
 4765 00bc FEFFFFEB 		bl	_ZN11flatbuffers17FlatBufferBuilder7ReferToEm
 4766 00c0 002050E2 		subs	r2, r0, #0
 4767 00c4 0200001A 		bne	.L964
 4768 00c8 2C30D4E5 		ldrb	r3, [r4, #44]	@ zero_extendqisi2
 4769 00cc 000053E3 		cmp	r3, #0
 4770 00d0 E2FFFF0A 		beq	.L963
 4771              	.L964:
 4772 00d4 0A10A0E3 		mov	r1, #10
 4773 00d8 0400A0E1 		mov	r0, r4
 4774 00dc FEFFFFEB 		bl	_ZN11flatbuffers17FlatBufferBuilder10AddElementImEEvtT_S2_.part.45
 4775 00e0 000058E3 		cmp	r8, #0
 4776 00e4 DFFFFF0A 		beq	.L967
 4777              	.L984:
 4778 00e8 0810A0E1 		mov	r1, r8
 4779 00ec 0400A0E1 		mov	r0, r4
 4780 00f0 FEFFFFEB 		bl	_ZN11flatbuffers17FlatBufferBuilder7ReferToEm
 4781 00f4 002050E2 		subs	r2, r0, #0
 4782 00f8 0200001A 		bne	.L968
 4783 00fc 2C30D4E5 		ldrb	r3, [r4, #44]	@ zero_extendqisi2
 4784 0100 000053E3 		cmp	r3, #0
 4785 0104 D7FFFF0A 		beq	.L967
 4786              	.L968:
 4787 0108 0810A0E3 		mov	r1, #8
 4788 010c 0400A0E1 		mov	r0, r4
 4789 0110 FEFFFFEB 		bl	_ZN11flatbuffers17FlatBufferBuilder10AddElementImEEvtT_S2_.part.45
 4790 0114 000057E3 		cmp	r7, #0
 4791 0118 D4FFFF0A 		beq	.L971
 4792              	.L985:
 4793 011c 0710A0E1 		mov	r1, r7
 4794 0120 0400A0E1 		mov	r0, r4
 4795 0124 FEFFFFEB 		bl	_ZN11flatbuffers17FlatBufferBuilder7ReferToEm
 4796 0128 002050E2 		subs	r2, r0, #0
 4797 012c 0200001A 		bne	.L972
 4798 0130 2C30D4E5 		ldrb	r3, [r4, #44]	@ zero_extendqisi2
 4799 0134 000053E3 		cmp	r3, #0
 4800 0138 CCFFFF0A 		beq	.L971
 4801              	.L972:
 4802 013c 0610A0E3 		mov	r1, #6
 4803 0140 0400A0E1 		mov	r0, r4
 4804 0144 FEFFFFEB 		bl	_ZN11flatbuffers17FlatBufferBuilder10AddElementImEEvtT_S2_.part.45
 4805 0148 000056E3 		cmp	r6, #0
 4806 014c C9FFFF0A 		beq	.L975
 4807              	.L986:
 4808 0150 0610A0E1 		mov	r1, r6
 4809 0154 0400A0E1 		mov	r0, r4
 4810 0158 FEFFFFEB 		bl	_ZN11flatbuffers17FlatBufferBuilder7ReferToEm
 4811 015c 002050E2 		subs	r2, r0, #0
 4812 0160 0200001A 		bne	.L976
 4813 0164 2C30D4E5 		ldrb	r3, [r4, #44]	@ zero_extendqisi2
 4814 0168 000053E3 		cmp	r3, #0
 4815 016c C1FFFF0A 		beq	.L975
 4816              	.L976:
 4817 0170 0410A0E3 		mov	r1, #4
 4818 0174 0400A0E1 		mov	r0, r4
 4819 0178 FEFFFFEB 		bl	_ZN11flatbuffers17FlatBufferBuilder10AddElementImEEvtT_S2_.part.45
 4820 017c BDFFFFEA 		b	.L975
 4821              	.L980:
 4822 0180 003000E3 		movw	r3, #:lower16:.LC24
 4823 0184 002000E3 		movw	r2, #:lower16:.LANCHOR11
 4824 0188 000000E3 		movw	r0, #:lower16:.LC19
 4825 018c 003040E3 		movt	r3, #:upper16:.LC24
 4826 0190 002040E3 		movt	r2, #:upper16:.LANCHOR11
 4827 0194 000040E3 		movt	r0, #:upper16:.LC19
 4828 0198 481500E3 		movw	r1, #1352
 4829 019c FEFFFFEB 		bl	__assert_func
 4830              	.L981:
 4831 01a0 FEFFFFEB 		bl	_ZN11flatbuffers17FlatBufferBuilder9NotNestedEv.isra.19.part.20
 4832              		.fnend
 4834              		.section	.text._ZN6tflite12CreateBufferERN11flatbuffers17FlatBufferBuilderENS0_6OffsetINS0_6Vector
 4835              		.align	2
 4836              		.weak	_ZN6tflite12CreateBufferERN11flatbuffers17FlatBufferBuilderENS0_6OffsetINS0_6VectorIhEEEE
 4837              		.syntax unified
 4838              		.arm
 4839              		.fpu neon
 4841              	_ZN6tflite12CreateBufferERN11flatbuffers17FlatBufferBuilderENS0_6OffsetINS0_6VectorIhEEEE:
 4842              		.fnstart
 4843              	.LFB5880:
 4844              		@ args = 0, pretend = 0, frame = 0
 4845              		@ frame_needed = 0, uses_anonymous_args = 0
 4846 0000 26C0D0E5 		ldrb	ip, [r0, #38]	@ zero_extendqisi2
 4847 0004 F0412DE9 		push	{r4, r5, r6, r7, r8, lr}
 4848              		.save {r4, r5, r6, r7, r8, lr}
 4849 0008 203090E5 		ldr	r3, [r0, #32]
 4850 000c 00005CE3 		cmp	ip, #0
 4851 0010 4D00001A 		bne	.L1010
 4852 0014 000053E3 		cmp	r3, #0
 4853 0018 5300001A 		bne	.L1011
 4854 001c 183090E5 		ldr	r3, [r0, #24]
 4855 0020 000051E3 		cmp	r1, #0
 4856 0024 142090E5 		ldr	r2, [r0, #20]
 4857 0028 01C0A0E3 		mov	ip, #1
 4858 002c 105090E5 		ldr	r5, [r0, #16]
 4859 0030 0040A0E1 		mov	r4, r0
 4860 0034 26C0C0E5 		strb	ip, [r0, #38]
 4861 0038 023043E0 		sub	r3, r3, r2
 4862 003c 035045E0 		sub	r5, r5, r3
 4863 0040 0300001A 		bne	.L1012
 4864              	.L991:
 4865 0044 0510A0E1 		mov	r1, r5
 4866 0048 0400A0E1 		mov	r0, r4
 4867 004c FEFFFFEB 		bl	_ZN11flatbuffers17FlatBufferBuilder8EndTableEm
 4868 0050 F081BDE8 		pop	{r4, r5, r6, r7, r8, pc}
 4869              	.L1012:
 4870 0054 FEFFFFEB 		bl	_ZN11flatbuffers17FlatBufferBuilder7ReferToEm
 4871 0058 007050E2 		subs	r7, r0, #0
 4872 005c 3600000A 		beq	.L1013
 4873              	.L992:
 4874 0060 283094E5 		ldr	r3, [r4, #40]
 4875 0064 0400A0E1 		mov	r0, r4
 4876 0068 186094E5 		ldr	r6, [r4, #24]
 4877 006c 142094E5 		ldr	r2, [r4, #20]
 4878 0070 030053E3 		cmp	r3, #3
 4879 0074 0430A093 		movls	r3, #4
 4880 0078 28308495 		strls	r3, [r4, #40]
 4881 007c 026046E0 		sub	r6, r6, r2
 4882 0080 103094E5 		ldr	r3, [r4, #16]
 4883 0084 036046E0 		sub	r6, r6, r3
 4884 0088 036006E2 		and	r6, r6, #3
 4885 008c 0610A0E1 		mov	r1, r6
 4886 0090 FEFFFFEB 		bl	_ZN11flatbuffers15vector_downward12ensure_spaceEj
 4887 0094 183094E5 		ldr	r3, [r4, #24]
 4888 0098 000056E3 		cmp	r6, #0
 4889 009c 000043E0 		sub	r0, r3, r0
 4890 00a0 180084E5 		str	r0, [r4, #24]
 4891 00a4 0800000A 		beq	.L994
 4892 00a8 010056E3 		cmp	r6, #1
 4893 00ac 0030A0E3 		mov	r3, #0
 4894 00b0 0030C0E5 		strb	r3, [r0]
 4895 00b4 0400000A 		beq	.L994
 4896 00b8 182094E5 		ldr	r2, [r4, #24]
 4897 00bc 020056E3 		cmp	r6, #2
 4898 00c0 0130C2E5 		strb	r3, [r2, #1]
 4899 00c4 18209415 		ldrne	r2, [r4, #24]
 4900 00c8 0230C215 		strbne	r3, [r2, #2]
 4901              	.L994:
 4902 00cc 0410A0E3 		mov	r1, #4
 4903 00d0 0400A0E1 		mov	r0, r4
 4904 00d4 FEFFFFEB 		bl	_ZN11flatbuffers15vector_downward12ensure_spaceEj
 4905 00d8 183094E5 		ldr	r3, [r4, #24]
 4906 00dc 0810A0E3 		mov	r1, #8
 4907 00e0 142094E5 		ldr	r2, [r4, #20]
 4908 00e4 106094E5 		ldr	r6, [r4, #16]
 4909 00e8 003043E0 		sub	r3, r3, r0
 4910 00ec 0400A0E1 		mov	r0, r4
 4911 00f0 022043E0 		sub	r2, r3, r2
 4912 00f4 183084E5 		str	r3, [r4, #24]
 4913 00f8 007083E5 		str	r7, [r3]
 4914 00fc 026046E0 		sub	r6, r6, r2
 4915 0100 FEFFFFEB 		bl	_ZN11flatbuffers15vector_downward12ensure_spaceEj
 4916 0104 1C3094E5 		ldr	r3, [r4, #28]
 4917 0108 0400A0E3 		mov	r0, #4
 4918 010c 202094E5 		ldr	r2, [r4, #32]
 4919 0110 081083E2 		add	r1, r3, #8
 4920 0114 006083E5 		str	r6, [r3]
 4921 0118 B400C3E1 		strh	r0, [r3, #4]	@ movhi
 4922 011c 012082E2 		add	r2, r2, #1
 4923 0120 B432D4E1 		ldrh	r3, [r4, #36]
 4924 0124 1C1084E5 		str	r1, [r4, #28]
 4925 0128 202084E5 		str	r2, [r4, #32]
 4926 012c 000053E1 		cmp	r3, r0
 4927 0130 0030A0B1 		movlt	r3, r0
 4928 0134 B432C4E1 		strh	r3, [r4, #36]	@ movhi
 4929 0138 C1FFFFEA 		b	.L991
 4930              	.L1013:
 4931 013c 2C30D4E5 		ldrb	r3, [r4, #44]	@ zero_extendqisi2
 4932 0140 000053E3 		cmp	r3, #0
 4933 0144 C5FFFF1A 		bne	.L992
 4934 0148 BDFFFFEA 		b	.L991
 4935              	.L1010:
 4936 014c 003000E3 		movw	r3, #:lower16:.LC24
 4937 0150 002000E3 		movw	r2, #:lower16:.LANCHOR11
 4938 0154 000000E3 		movw	r0, #:lower16:.LC19
 4939 0158 003040E3 		movt	r3, #:upper16:.LC24
 4940 015c 002040E3 		movt	r2, #:upper16:.LANCHOR11
 4941 0160 000040E3 		movt	r0, #:upper16:.LC19
 4942 0164 481500E3 		movw	r1, #1352
 4943 0168 FEFFFFEB 		bl	__assert_func
 4944              	.L1011:
 4945 016c FEFFFFEB 		bl	_ZN11flatbuffers17FlatBufferBuilder9NotNestedEv.isra.19.part.20
 4946              		.fnend
 4948              		.section	.text._ZN6tflite11CreateModelERN11flatbuffers17FlatBufferBuilderEmNS0_6OffsetINS0_6Vector
 4949              		.align	2
 4950              		.weak	_ZN6tflite11CreateModelERN11flatbuffers17FlatBufferBuilderEmNS0_6OffsetINS0_6VectorINS3_INS_
 4951              		.syntax unified
 4952              		.arm
 4953              		.fpu neon
 4955              	_ZN6tflite11CreateModelERN11flatbuffers17FlatBufferBuilderEmNS0_6OffsetINS0_6VectorINS3_INS_12Opera
 4956              		.fnstart
 4957              	.LFB5954:
 4958              		@ args = 20, pretend = 0, frame = 0
 4959              		@ frame_needed = 0, uses_anonymous_args = 0
 4960 0000 F84F2DE9 		push	{r3, r4, r5, r6, r7, r8, r9, r10, fp, lr}
 4961              		.save {r3, r4, r5, r6, r7, r8, r9, r10, fp, lr}
 4962 0004 0160A0E1 		mov	r6, r1
 4963 0008 2610D0E5 		ldrb	r1, [r0, #38]	@ zero_extendqisi2
 4964 000c 2C908DE2 		add	r9, sp, #44
 4965 0010 0380A0E1 		mov	r8, r3
 4966 0014 000E99E8 		ldm	r9, {r9, r10, fp}
 4967 0018 000051E3 		cmp	r1, #0
 4968 001c 203090E5 		ldr	r3, [r0, #32]
 4969 0020 38109DE5 		ldr	r1, [sp, #56]
 4970 0024 AD00001A 		bne	.L1071
 4971 0028 000053E3 		cmp	r3, #0
 4972 002c B300001A 		bne	.L1072
 4973 0030 0270A0E1 		mov	r7, r2
 4974 0034 183090E5 		ldr	r3, [r0, #24]
 4975 0038 142090E5 		ldr	r2, [r0, #20]
 4976 003c 000051E3 		cmp	r1, #0
 4977 0040 105090E5 		ldr	r5, [r0, #16]
 4978 0044 01C0A0E3 		mov	ip, #1
 4979 0048 0040A0E1 		mov	r4, r0
 4980 004c 26C0C0E5 		strb	ip, [r0, #38]
 4981 0050 023043E0 		sub	r3, r3, r2
 4982 0054 035045E0 		sub	r5, r5, r3
 4983 0058 9600001A 		bne	.L1073
 4984              	.L1018:
 4985 005c 00005BE3 		cmp	fp, #0
 4986 0060 8800001A 		bne	.L1074
 4987              	.L1022:
 4988 0064 00005AE3 		cmp	r10, #0
 4989 0068 7A00001A 		bne	.L1075
 4990              	.L1026:
 4991 006c 000059E3 		cmp	r9, #0
 4992 0070 6C00001A 		bne	.L1076
 4993              	.L1030:
 4994 0074 28309DE5 		ldr	r3, [sp, #40]
 4995 0078 000053E3 		cmp	r3, #0
 4996 007c 5D00001A 		bne	.L1077
 4997              	.L1034:
 4998 0080 000058E3 		cmp	r8, #0
 4999 0084 4F00001A 		bne	.L1078
 5000              	.L1038:
 5001 0088 000057E3 		cmp	r7, #0
 5002 008c 0800001A 		bne	.L1079
 5003              	.L1041:
 5004 0090 000056E3 		cmp	r6, #0
 5005 0094 1000001A 		bne	.L1044
 5006 0098 2C30D4E5 		ldrb	r3, [r4, #44]	@ zero_extendqisi2
 5007 009c 000053E3 		cmp	r3, #0
 5008 00a0 0D00001A 		bne	.L1044
 5009              	.L1045:
 5010 00a4 0510A0E1 		mov	r1, r5
 5011 00a8 0400A0E1 		mov	r0, r4
 5012 00ac FEFFFFEB 		bl	_ZN11flatbuffers17FlatBufferBuilder8EndTableEm
 5013 00b0 F88FBDE8 		pop	{r3, r4, r5, r6, r7, r8, r9, r10, fp, pc}
 5014              	.L1079:
 5015 00b4 0710A0E1 		mov	r1, r7
 5016 00b8 0400A0E1 		mov	r0, r4
 5017 00bc FEFFFFEB 		bl	_ZN11flatbuffers17FlatBufferBuilder7ReferToEm
 5018 00c0 002050E2 		subs	r2, r0, #0
 5019 00c4 3B00001A 		bne	.L1042
 5020 00c8 2C30D4E5 		ldrb	r3, [r4, #44]	@ zero_extendqisi2
 5021 00cc 000053E3 		cmp	r3, #0
 5022 00d0 3800001A 		bne	.L1042
 5023 00d4 000056E3 		cmp	r6, #0
 5024 00d8 F1FFFF0A 		beq	.L1045
 5025              	.L1044:
 5026 00dc 283094E5 		ldr	r3, [r4, #40]
 5027 00e0 0400A0E1 		mov	r0, r4
 5028 00e4 187094E5 		ldr	r7, [r4, #24]
 5029 00e8 142094E5 		ldr	r2, [r4, #20]
 5030 00ec 030053E3 		cmp	r3, #3
 5031 00f0 0430A093 		movls	r3, #4
 5032 00f4 28308495 		strls	r3, [r4, #40]
 5033 00f8 027047E0 		sub	r7, r7, r2
 5034 00fc 103094E5 		ldr	r3, [r4, #16]
 5035 0100 037047E0 		sub	r7, r7, r3
 5036 0104 037007E2 		and	r7, r7, #3
 5037 0108 0710A0E1 		mov	r1, r7
 5038 010c FEFFFFEB 		bl	_ZN11flatbuffers15vector_downward12ensure_spaceEj
 5039 0110 183094E5 		ldr	r3, [r4, #24]
 5040 0114 000057E3 		cmp	r7, #0
 5041 0118 000043E0 		sub	r0, r3, r0
 5042 011c 180084E5 		str	r0, [r4, #24]
 5043 0120 0800000A 		beq	.L1046
 5044 0124 010057E3 		cmp	r7, #1
 5045 0128 0030A0E3 		mov	r3, #0
 5046 012c 0030C0E5 		strb	r3, [r0]
 5047 0130 0400000A 		beq	.L1046
 5048 0134 182094E5 		ldr	r2, [r4, #24]
 5049 0138 020057E3 		cmp	r7, #2
 5050 013c 0130C2E5 		strb	r3, [r2, #1]
 5051 0140 18209415 		ldrne	r2, [r4, #24]
 5052 0144 0230C215 		strbne	r3, [r2, #2]
 5053              	.L1046:
 5054 0148 0410A0E3 		mov	r1, #4
 5055 014c 0400A0E1 		mov	r0, r4
 5056 0150 FEFFFFEB 		bl	_ZN11flatbuffers15vector_downward12ensure_spaceEj
 5057 0154 183094E5 		ldr	r3, [r4, #24]
 5058 0158 0810A0E3 		mov	r1, #8
 5059 015c 14C094E5 		ldr	ip, [r4, #20]
 5060 0160 102094E5 		ldr	r2, [r4, #16]
 5061 0164 003043E0 		sub	r3, r3, r0
 5062 0168 0400A0E1 		mov	r0, r4
 5063 016c 183084E5 		str	r3, [r4, #24]
 5064 0170 0CC043E0 		sub	ip, r3, ip
 5065 0174 006083E5 		str	r6, [r3]
 5066 0178 0C6042E0 		sub	r6, r2, ip
 5067 017c FEFFFFEB 		bl	_ZN11flatbuffers15vector_downward12ensure_spaceEj
 5068 0180 1C3094E5 		ldr	r3, [r4, #28]
 5069 0184 0400A0E3 		mov	r0, #4
 5070 0188 202094E5 		ldr	r2, [r4, #32]
 5071 018c 081083E2 		add	r1, r3, #8
 5072 0190 006083E5 		str	r6, [r3]
 5073 0194 B400C3E1 		strh	r0, [r3, #4]	@ movhi
 5074 0198 012082E2 		add	r2, r2, #1
 5075 019c B432D4E1 		ldrh	r3, [r4, #36]
 5076 01a0 1C1084E5 		str	r1, [r4, #28]
 5077 01a4 202084E5 		str	r2, [r4, #32]
 5078 01a8 000053E1 		cmp	r3, r0
 5079 01ac 0030A0B1 		movlt	r3, r0
 5080 01b0 B432C4E1 		strh	r3, [r4, #36]	@ movhi
 5081 01b4 BAFFFFEA 		b	.L1045
 5082              	.L1042:
 5083 01b8 0610A0E3 		mov	r1, #6
 5084 01bc 0400A0E1 		mov	r0, r4
 5085 01c0 FEFFFFEB 		bl	_ZN11flatbuffers17FlatBufferBuilder10AddElementImEEvtT_S2_.part.45
 5086 01c4 B1FFFFEA 		b	.L1041
 5087              	.L1078:
 5088 01c8 0810A0E1 		mov	r1, r8
 5089 01cc 0400A0E1 		mov	r0, r4
 5090 01d0 FEFFFFEB 		bl	_ZN11flatbuffers17FlatBufferBuilder7ReferToEm
 5091 01d4 002050E2 		subs	r2, r0, #0
 5092 01d8 0200001A 		bne	.L1039
 5093 01dc 2C30D4E5 		ldrb	r3, [r4, #44]	@ zero_extendqisi2
 5094 01e0 000053E3 		cmp	r3, #0
 5095 01e4 A7FFFF0A 		beq	.L1038
 5096              	.L1039:
 5097 01e8 0810A0E3 		mov	r1, #8
 5098 01ec 0400A0E1 		mov	r0, r4
 5099 01f0 FEFFFFEB 		bl	_ZN11flatbuffers17FlatBufferBuilder10AddElementImEEvtT_S2_.part.45
 5100 01f4 A3FFFFEA 		b	.L1038
 5101              	.L1077:
 5102 01f8 0310A0E1 		mov	r1, r3
 5103 01fc 0400A0E1 		mov	r0, r4
 5104 0200 FEFFFFEB 		bl	_ZN11flatbuffers17FlatBufferBuilder7ReferToEm
 5105 0204 002050E2 		subs	r2, r0, #0
 5106 0208 0200001A 		bne	.L1035
 5107 020c 2C30D4E5 		ldrb	r3, [r4, #44]	@ zero_extendqisi2
 5108 0210 000053E3 		cmp	r3, #0
 5109 0214 99FFFF0A 		beq	.L1034
 5110              	.L1035:
 5111 0218 0A10A0E3 		mov	r1, #10
 5112 021c 0400A0E1 		mov	r0, r4
 5113 0220 FEFFFFEB 		bl	_ZN11flatbuffers17FlatBufferBuilder10AddElementImEEvtT_S2_.part.45
 5114 0224 95FFFFEA 		b	.L1034
 5115              	.L1076:
 5116 0228 0910A0E1 		mov	r1, r9
 5117 022c 0400A0E1 		mov	r0, r4
 5118 0230 FEFFFFEB 		bl	_ZN11flatbuffers17FlatBufferBuilder7ReferToEm
 5119 0234 002050E2 		subs	r2, r0, #0
 5120 0238 0200001A 		bne	.L1031
 5121 023c 2C30D4E5 		ldrb	r3, [r4, #44]	@ zero_extendqisi2
 5122 0240 000053E3 		cmp	r3, #0
 5123 0244 8AFFFF0A 		beq	.L1030
 5124              	.L1031:
 5125 0248 0C10A0E3 		mov	r1, #12
 5126 024c 0400A0E1 		mov	r0, r4
 5127 0250 FEFFFFEB 		bl	_ZN11flatbuffers17FlatBufferBuilder10AddElementImEEvtT_S2_.part.45
 5128 0254 86FFFFEA 		b	.L1030
 5129              	.L1075:
 5130 0258 0A10A0E1 		mov	r1, r10
 5131 025c 0400A0E1 		mov	r0, r4
 5132 0260 FEFFFFEB 		bl	_ZN11flatbuffers17FlatBufferBuilder7ReferToEm
 5133 0264 002050E2 		subs	r2, r0, #0
 5134 0268 0200001A 		bne	.L1027
 5135 026c 2C30D4E5 		ldrb	r3, [r4, #44]	@ zero_extendqisi2
 5136 0270 000053E3 		cmp	r3, #0
 5137 0274 7CFFFF0A 		beq	.L1026
 5138              	.L1027:
 5139 0278 0E10A0E3 		mov	r1, #14
 5140 027c 0400A0E1 		mov	r0, r4
 5141 0280 FEFFFFEB 		bl	_ZN11flatbuffers17FlatBufferBuilder10AddElementImEEvtT_S2_.part.45
 5142 0284 78FFFFEA 		b	.L1026
 5143              	.L1074:
 5144 0288 0B10A0E1 		mov	r1, fp
 5145 028c 0400A0E1 		mov	r0, r4
 5146 0290 FEFFFFEB 		bl	_ZN11flatbuffers17FlatBufferBuilder7ReferToEm
 5147 0294 002050E2 		subs	r2, r0, #0
 5148 0298 0200001A 		bne	.L1023
 5149 029c 2C30D4E5 		ldrb	r3, [r4, #44]	@ zero_extendqisi2
 5150 02a0 000053E3 		cmp	r3, #0
 5151 02a4 6EFFFF0A 		beq	.L1022
 5152              	.L1023:
 5153 02a8 1010A0E3 		mov	r1, #16
 5154 02ac 0400A0E1 		mov	r0, r4
 5155 02b0 FEFFFFEB 		bl	_ZN11flatbuffers17FlatBufferBuilder10AddElementImEEvtT_S2_.part.45
 5156 02b4 6AFFFFEA 		b	.L1022
 5157              	.L1073:
 5158 02b8 FEFFFFEB 		bl	_ZN11flatbuffers17FlatBufferBuilder7ReferToEm
 5159 02bc 002050E2 		subs	r2, r0, #0
 5160 02c0 0200001A 		bne	.L1019
 5161 02c4 2C30D4E5 		ldrb	r3, [r4, #44]	@ zero_extendqisi2
 5162 02c8 000053E3 		cmp	r3, #0
 5163 02cc 62FFFF0A 		beq	.L1018
 5164              	.L1019:
 5165 02d0 1210A0E3 		mov	r1, #18
 5166 02d4 0400A0E1 		mov	r0, r4
 5167 02d8 FEFFFFEB 		bl	_ZN11flatbuffers17FlatBufferBuilder10AddElementImEEvtT_S2_.part.45
 5168 02dc 5EFFFFEA 		b	.L1018
 5169              	.L1071:
 5170 02e0 003000E3 		movw	r3, #:lower16:.LC24
 5171 02e4 002000E3 		movw	r2, #:lower16:.LANCHOR11
 5172 02e8 000000E3 		movw	r0, #:lower16:.LC19
 5173 02ec 003040E3 		movt	r3, #:upper16:.LC24
 5174 02f0 002040E3 		movt	r2, #:upper16:.LANCHOR11
 5175 02f4 000040E3 		movt	r0, #:upper16:.LC19
 5176 02f8 481500E3 		movw	r1, #1352
 5177 02fc FEFFFFEB 		bl	__assert_func
 5178              	.L1072:
 5179 0300 FEFFFFEB 		bl	_ZN11flatbuffers17FlatBufferBuilder9NotNestedEv.isra.19.part.20
 5180              		.fnend
 5182              		.section	.text._ZN6tflite7testing12_GLOBAL__N_112ModelBuilder10BuildModelESt16initializer_listIlES
 5183              		.align	2
 5184              		.syntax unified
 5185              		.arm
 5186              		.fpu neon
 5188              	_ZN6tflite7testing12_GLOBAL__N_112ModelBuilder10BuildModelESt16initializer_listIlES4_j:
 5189              		.fnstart
 5190              	.LFB6967:
 5191              		@ args = 16, pretend = 8, frame = 80
 5192              		@ frame_needed = 0, uses_anonymous_args = 0
 5193              		.pad #8
 5194 0000 08D04DE2 		sub	sp, sp, #8
 5195 0004 5000C0F2 		vmov.i32	q8, #0  @ v4si
 5196 0008 F04F2DE9 		push	{r4, r5, r6, r7, r8, r9, r10, fp, lr}
 5197              		.save {r4, r5, r6, r7, r8, r9, r10, fp, lr}
 5198 000c 0050A0E1 		mov	r5, r0
 5199              		.pad #108
 5200 0010 6CD04DE2 		sub	sp, sp, #108
 5201 0014 00C0A0E3 		mov	ip, #0
 5202 0018 94308DE5 		str	r3, [sp, #148]
 5203 001c 143295E5 		ldr	r3, [r5, #532]
 5204 0020 18008DE5 		str	r0, [sp, #24]
 5205 0024 30008DE2 		add	r0, sp, #48
 5206 0028 060080E8 		stm	r0, {r1, r2}
 5207 002c 0C10A0E1 		mov	r1, ip
 5208 0030 24308DE5 		str	r3, [sp, #36]
 5209 0034 013083E2 		add	r3, r3, #1
 5210 0038 000095E5 		ldr	r0, [r5]
 5211 003c 34409DE5 		ldr	r4, [sp, #52]
 5212 0040 100BCDED 		vstr	d16, [sp, #64]
 5213 0044 121BCDED 		vstr	d17, [sp, #72]
 5214 0048 60C08DE5 		str	ip, [sp, #96]
 5215 004c 140BCDED 		vstr	d16, [sp, #80]
 5216 0050 161BCDED 		vstr	d17, [sp, #88]
 5217 0054 1C308DE5 		str	r3, [sp, #28]
 5218 0058 64C08DE5 		str	ip, [sp, #100]
 5219 005c FEFFFFEB 		bl	_ZN6tflite12CreateBufferERN11flatbuffers17FlatBufferBuilderENS0_6OffsetINS0_6VectorIhEEEE
 5220 0060 142295E5 		ldr	r2, [r5, #532]
 5221 0064 40008DE5 		str	r0, [sp, #64]
 5222 0068 000052E3 		cmp	r2, #0
 5223 006c 040000DA 		ble	.L1084
 5224 0070 18309DE5 		ldr	r3, [sp, #24]
 5225 0074 0221A0E1 		lsl	r2, r2, #2
 5226 0078 44008DE2 		add	r0, sp, #68
 5227 007c 7B1F83E2 		add	r1, r3, #492
 5228 0080 FEFFFFEB 		bl	memcpy
 5229              	.L1084:
 5230 0084 9C309DE5 		ldr	r3, [sp, #156]
 5231 0088 000053E3 		cmp	r3, #0
 5232 008c 8902000A 		beq	.L1310
 5233 0090 030054E1 		cmp	r4, r3
 5234 0094 C802003A 		bcc	.L1311
 5235 0098 18309DE5 		ldr	r3, [sp, #24]
 5236 009c 0370A0E1 		mov	r7, r3
 5237 00a0 18A293E5 		ldr	r10, [r3, #536]
 5238 00a4 FCB097E4 		ldr	fp, [r7], #252
 5239 00a8 0A10A0E1 		mov	r1, r10
 5240 00ac 0B00A0E1 		mov	r0, fp
 5241 00b0 FEFFFFEB 		bl	_ZN11flatbuffers17FlatBufferBuilder11StartVectorEjj.constprop.148
 5242 00b4 00005AE3 		cmp	r10, #0
 5243 00b8 A202000A 		beq	.L1312
 5244              	.L1144:
 5245 00bc 18209BE5 		ldr	r2, [fp, #24]
 5246 00c0 0A7187E0 		add	r7, r7, r10, lsl #2
 5247 00c4 0A60A0E1 		mov	r6, r10
 5248 00c8 0480A0E3 		mov	r8, #4
 5249 00cc 0050A0E3 		mov	r5, #0
 5250              	.L1093:
 5251 00d0 28309BE5 		ldr	r3, [fp, #40]
 5252 00d4 0B00A0E1 		mov	r0, fp
 5253 00d8 14409BE5 		ldr	r4, [fp, #20]
 5254 00dc 016046E2 		sub	r6, r6, #1
 5255 00e0 049037E5 		ldr	r9, [r7, #-4]!
 5256 00e4 030053E3 		cmp	r3, #3
 5257 00e8 10309BE5 		ldr	r3, [fp, #16]
 5258 00ec 044042E0 		sub	r4, r2, r4
 5259 00f0 28808B95 		strls	r8, [fp, #40]
 5260 00f4 034044E0 		sub	r4, r4, r3
 5261 00f8 034004E2 		and	r4, r4, #3
 5262 00fc 0410A0E1 		mov	r1, r4
 5263 0100 FEFFFFEB 		bl	_ZN11flatbuffers15vector_downward12ensure_spaceEj
 5264 0104 18309BE5 		ldr	r3, [fp, #24]
 5265 0108 000054E3 		cmp	r4, #0
 5266 010c 000043E0 		sub	r0, r3, r0
 5267 0110 18008BE5 		str	r0, [fp, #24]
 5268 0114 0700000A 		beq	.L1088
 5269 0118 010054E3 		cmp	r4, #1
 5270 011c 0050C0E5 		strb	r5, [r0]
 5271 0120 0400000A 		beq	.L1088
 5272 0124 18309BE5 		ldr	r3, [fp, #24]
 5273 0128 020054E3 		cmp	r4, #2
 5274 012c 0150C3E5 		strb	r5, [r3, #1]
 5275 0130 18309B15 		ldrne	r3, [fp, #24]
 5276 0134 0250C315 		strbne	r5, [r3, #2]
 5277              	.L1088:
 5278 0138 000059E3 		cmp	r9, #0
 5279 013c 8D02000A 		beq	.L1090
 5280 0140 18309BE5 		ldr	r3, [fp, #24]
 5281 0144 14209BE5 		ldr	r2, [fp, #20]
 5282 0148 10409BE5 		ldr	r4, [fp, #16]
 5283 014c 023043E0 		sub	r3, r3, r2
 5284 0150 034044E0 		sub	r4, r4, r3
 5285 0154 090054E1 		cmp	r4, r9
 5286 0158 8602003A 		bcc	.L1090
 5287 015c 28309BE5 		ldr	r3, [fp, #40]
 5288 0160 049069E2 		rsb	r9, r9, #4
 5289 0164 049089E0 		add	r9, r9, r4
 5290 0168 004064E2 		rsb	r4, r4, #0
 5291 016c 034004E2 		and	r4, r4, #3
 5292 0170 0B00A0E1 		mov	r0, fp
 5293 0174 030053E3 		cmp	r3, #3
 5294 0178 0410A0E1 		mov	r1, r4
 5295 017c 28808B95 		strls	r8, [fp, #40]
 5296 0180 FEFFFFEB 		bl	_ZN11flatbuffers15vector_downward12ensure_spaceEj
 5297 0184 18309BE5 		ldr	r3, [fp, #24]
 5298 0188 000054E3 		cmp	r4, #0
 5299 018c 000043E0 		sub	r0, r3, r0
 5300 0190 18008BE5 		str	r0, [fp, #24]
 5301 0194 0700000A 		beq	.L1092
 5302 0198 010054E3 		cmp	r4, #1
 5303 019c 0050C0E5 		strb	r5, [r0]
 5304 01a0 0400000A 		beq	.L1092
 5305 01a4 18309BE5 		ldr	r3, [fp, #24]
 5306 01a8 020054E3 		cmp	r4, #2
 5307 01ac 0150C3E5 		strb	r5, [r3, #1]
 5308 01b0 18309B15 		ldrne	r3, [fp, #24]
 5309 01b4 0250C315 		strbne	r5, [r3, #2]
 5310              	.L1092:
 5311 01b8 0410A0E3 		mov	r1, #4
 5312 01bc 0B00A0E1 		mov	r0, fp
 5313 01c0 FEFFFFEB 		bl	_ZN11flatbuffers15vector_downward12ensure_spaceEj
 5314 01c4 18209BE5 		ldr	r2, [fp, #24]
 5315 01c8 000056E3 		cmp	r6, #0
 5316 01cc 002042E0 		sub	r2, r2, r0
 5317 01d0 18208BE5 		str	r2, [fp, #24]
 5318 01d4 009082E5 		str	r9, [r2]
 5319 01d8 BCFFFF1A 		bne	.L1093
 5320              	.L1086:
 5321 01dc 0A10A0E1 		mov	r1, r10
 5322 01e0 0B00A0E1 		mov	r0, fp
 5323 01e4 FEFFFFEB 		bl	_ZN11flatbuffers17FlatBufferBuilder9EndVectorEj
 5324 01e8 18309DE5 		ldr	r3, [sp, #24]
 5325 01ec 20008DE5 		str	r0, [sp, #32]
 5326 01f0 9C109DE5 		ldr	r1, [sp, #156]
 5327 01f4 004093E5 		ldr	r4, [r3]
 5328 01f8 30509DE5 		ldr	r5, [sp, #48]
 5329 01fc 0400A0E1 		mov	r0, r4
 5330 0200 FEFFFFEB 		bl	_ZN11flatbuffers17FlatBufferBuilder11StartVectorEjj.constprop.148
 5331 0204 9C309DE5 		ldr	r3, [sp, #156]
 5332 0208 000053E3 		cmp	r3, #0
 5333 020c 4802000A 		beq	.L1313
 5334              	.L1094:
 5335 0210 0361B0E1 		lsls	r6, r3, #2
 5336 0214 3C02001A 		bne	.L1314
 5337              	.L1096:
 5338 0218 9C109DE5 		ldr	r1, [sp, #156]
 5339 021c 0400A0E1 		mov	r0, r4
 5340 0220 FEFFFFEB 		bl	_ZN11flatbuffers17FlatBufferBuilder9EndVectorEj
 5341 0224 2C008DE5 		str	r0, [sp, #44]
 5342              	.L1095:
 5343 0228 18309DE5 		ldr	r3, [sp, #24]
 5344 022c 98409DE5 		ldr	r4, [sp, #152]
 5345 0230 94609DE5 		ldr	r6, [sp, #148]
 5346 0234 005093E5 		ldr	r5, [r3]
 5347 0238 0410A0E1 		mov	r1, r4
 5348 023c 0500A0E1 		mov	r0, r5
 5349 0240 FEFFFFEB 		bl	_ZN11flatbuffers17FlatBufferBuilder11StartVectorEjj.constprop.148
 5350 0244 000054E3 		cmp	r4, #0
 5351 0248 0100000A 		beq	.L1099
 5352 024c 0471B0E1 		lsls	r7, r4, #2
 5353 0250 2302001A 		bne	.L1315
 5354              	.L1099:
 5355 0254 0410A0E1 		mov	r1, r4
 5356 0258 0500A0E1 		mov	r0, r5
 5357 025c FEFFFFEB 		bl	_ZN11flatbuffers17FlatBufferBuilder9EndVectorEj
 5358 0260 18309DE5 		ldr	r3, [sp, #24]
 5359 0264 28008DE5 		str	r0, [sp, #40]
 5360 0268 0370A0E1 		mov	r7, r3
 5361 026c F89093E5 		ldr	r9, [r3, #248]
 5362 0270 30A097E4 		ldr	r10, [r7], #48
 5363 0274 0910A0E1 		mov	r1, r9
 5364 0278 0A00A0E1 		mov	r0, r10
 5365 027c FEFFFFEB 		bl	_ZN11flatbuffers17FlatBufferBuilder11StartVectorEjj.constprop.148
 5366 0280 000059E3 		cmp	r9, #0
 5367 0284 4700000A 		beq	.L1107
 5368 0288 18309AE5 		ldr	r3, [r10, #24]
 5369 028c 097187E0 		add	r7, r7, r9, lsl #2
 5370 0290 0960A0E1 		mov	r6, r9
 5371 0294 0480A0E3 		mov	r8, #4
 5372 0298 0050A0E3 		mov	r5, #0
 5373              	.L1108:
 5374 029c 28209AE5 		ldr	r2, [r10, #40]
 5375 02a0 0A00A0E1 		mov	r0, r10
 5376 02a4 14409AE5 		ldr	r4, [r10, #20]
 5377 02a8 016046E2 		sub	r6, r6, #1
 5378 02ac 04B037E5 		ldr	fp, [r7, #-4]!
 5379 02b0 030052E3 		cmp	r2, #3
 5380 02b4 10209AE5 		ldr	r2, [r10, #16]
 5381 02b8 044043E0 		sub	r4, r3, r4
 5382 02bc 28808A95 		strls	r8, [r10, #40]
 5383 02c0 024044E0 		sub	r4, r4, r2
 5384 02c4 034004E2 		and	r4, r4, #3
 5385 02c8 0410A0E1 		mov	r1, r4
 5386 02cc FEFFFFEB 		bl	_ZN11flatbuffers15vector_downward12ensure_spaceEj
 5387 02d0 18309AE5 		ldr	r3, [r10, #24]
 5388 02d4 000054E3 		cmp	r4, #0
 5389 02d8 000043E0 		sub	r0, r3, r0
 5390 02dc 18008AE5 		str	r0, [r10, #24]
 5391 02e0 0700000A 		beq	.L1104
 5392 02e4 010054E3 		cmp	r4, #1
 5393 02e8 0050C0E5 		strb	r5, [r0]
 5394 02ec 0400000A 		beq	.L1104
 5395 02f0 18309AE5 		ldr	r3, [r10, #24]
 5396 02f4 020054E3 		cmp	r4, #2
 5397 02f8 0150C3E5 		strb	r5, [r3, #1]
 5398 02fc 18309A15 		ldrne	r3, [r10, #24]
 5399 0300 0250C315 		strbne	r5, [r3, #2]
 5400              	.L1104:
 5401 0304 00005BE3 		cmp	fp, #0
 5402 0308 1A02000A 		beq	.L1090
 5403 030c 18309AE5 		ldr	r3, [r10, #24]
 5404 0310 14209AE5 		ldr	r2, [r10, #20]
 5405 0314 10409AE5 		ldr	r4, [r10, #16]
 5406 0318 023043E0 		sub	r3, r3, r2
 5407 031c 034044E0 		sub	r4, r4, r3
 5408 0320 0B0054E1 		cmp	r4, fp
 5409 0324 1302003A 		bcc	.L1090
 5410 0328 28309AE5 		ldr	r3, [r10, #40]
 5411 032c 04B06BE2 		rsb	fp, fp, #4
 5412 0330 04B08BE0 		add	fp, fp, r4
 5413 0334 004064E2 		rsb	r4, r4, #0
 5414 0338 034004E2 		and	r4, r4, #3
 5415 033c 0A00A0E1 		mov	r0, r10
 5416 0340 030053E3 		cmp	r3, #3
 5417 0344 0410A0E1 		mov	r1, r4
 5418 0348 28808A95 		strls	r8, [r10, #40]
 5419 034c FEFFFFEB 		bl	_ZN11flatbuffers15vector_downward12ensure_spaceEj
 5420 0350 18309AE5 		ldr	r3, [r10, #24]
 5421 0354 000054E3 		cmp	r4, #0
 5422 0358 000043E0 		sub	r0, r3, r0
 5423 035c 18008AE5 		str	r0, [r10, #24]
 5424 0360 0700000A 		beq	.L1106
 5425 0364 010054E3 		cmp	r4, #1
 5426 0368 0050C0E5 		strb	r5, [r0]
 5427 036c 0400000A 		beq	.L1106
 5428 0370 18309AE5 		ldr	r3, [r10, #24]
 5429 0374 020054E3 		cmp	r4, #2
 5430 0378 0150C3E5 		strb	r5, [r3, #1]
 5431 037c 18309A15 		ldrne	r3, [r10, #24]
 5432 0380 0250C315 		strbne	r5, [r3, #2]
 5433              	.L1106:
 5434 0384 0410A0E3 		mov	r1, #4
 5435 0388 0A00A0E1 		mov	r0, r10
 5436 038c FEFFFFEB 		bl	_ZN11flatbuffers15vector_downward12ensure_spaceEj
 5437 0390 18309AE5 		ldr	r3, [r10, #24]
 5438 0394 000056E3 		cmp	r6, #0
 5439 0398 003043E0 		sub	r3, r3, r0
 5440 039c 18308AE5 		str	r3, [r10, #24]
 5441 03a0 00B083E5 		str	fp, [r3]
 5442 03a4 BCFFFF1A 		bne	.L1108
 5443              	.L1107:
 5444 03a8 0910A0E1 		mov	r1, r9
 5445 03ac 0A00A0E1 		mov	r0, r10
 5446 03b0 FEFFFFEB 		bl	_ZN11flatbuffers17FlatBufferBuilder9EndVectorEj
 5447 03b4 18609DE5 		ldr	r6, [sp, #24]
 5448 03b8 001000E3 		movw	r1, #:lower16:.LC32
 5449 03bc 0050A0E1 		mov	r5, r0
 5450 03c0 001040E3 		movt	r1, #:upper16:.LC32
 5451 03c4 0D20A0E3 		mov	r2, #13
 5452 03c8 004096E5 		ldr	r4, [r6]
 5453 03cc 0400A0E1 		mov	r0, r4
 5454 03d0 FEFFFFEB 		bl	_ZN11flatbuffers17FlatBufferBuilder12CreateStringEPKcj
 5455 03d4 28309DE5 		ldr	r3, [sp, #40]
 5456 03d8 04008DE5 		str	r0, [sp, #4]
 5457 03dc 0400A0E1 		mov	r0, r4
 5458 03e0 00508DE5 		str	r5, [sp]
 5459 03e4 2C209DE5 		ldr	r2, [sp, #44]
 5460 03e8 20109DE5 		ldr	r1, [sp, #32]
 5461 03ec FEFFFFEB 		bl	_ZN6tflite14CreateSubGraphERN11flatbuffers17FlatBufferBuilderENS0_6OffsetINS0_6VectorINS3_INS_6
 5462 03f0 143296E5 		ldr	r3, [r6, #532]
 5463 03f4 3C008DE5 		str	r0, [sp, #60]
 5464 03f8 000053E3 		cmp	r3, #0
 5465 03fc 250100DA 		ble	.L1316
 5466 0400 18309DE5 		ldr	r3, [sp, #24]
 5467 0404 0370A0E1 		mov	r7, r3
 5468 0408 2C9093E5 		ldr	r9, [r3, #44]
 5469 040c 04A097E4 		ldr	r10, [r7], #4
 5470 0410 0910A0E1 		mov	r1, r9
 5471 0414 0A00A0E1 		mov	r0, r10
 5472 0418 FEFFFFEB 		bl	_ZN11flatbuffers17FlatBufferBuilder11StartVectorEjj.constprop.148
 5473 041c 000059E3 		cmp	r9, #0
 5474 0420 4700000A 		beq	.L1116
 5475 0424 18309AE5 		ldr	r3, [r10, #24]
 5476 0428 097187E0 		add	r7, r7, r9, lsl #2
 5477 042c 0960A0E1 		mov	r6, r9
 5478 0430 0480A0E3 		mov	r8, #4
 5479 0434 0050A0E3 		mov	r5, #0
 5480              	.L1117:
 5481 0438 28209AE5 		ldr	r2, [r10, #40]
 5482 043c 0A00A0E1 		mov	r0, r10
 5483 0440 14409AE5 		ldr	r4, [r10, #20]
 5484 0444 016046E2 		sub	r6, r6, #1
 5485 0448 04B037E5 		ldr	fp, [r7, #-4]!
 5486 044c 030052E3 		cmp	r2, #3
 5487 0450 10209AE5 		ldr	r2, [r10, #16]
 5488 0454 044043E0 		sub	r4, r3, r4
 5489 0458 28808A95 		strls	r8, [r10, #40]
 5490 045c 024044E0 		sub	r4, r4, r2
 5491 0460 034004E2 		and	r4, r4, #3
 5492 0464 0410A0E1 		mov	r1, r4
 5493 0468 FEFFFFEB 		bl	_ZN11flatbuffers15vector_downward12ensure_spaceEj
 5494 046c 18309AE5 		ldr	r3, [r10, #24]
 5495 0470 000054E3 		cmp	r4, #0
 5496 0474 000043E0 		sub	r0, r3, r0
 5497 0478 18008AE5 		str	r0, [r10, #24]
 5498 047c 0700000A 		beq	.L1113
 5499 0480 010054E3 		cmp	r4, #1
 5500 0484 0050C0E5 		strb	r5, [r0]
 5501 0488 0400000A 		beq	.L1113
 5502 048c 18309AE5 		ldr	r3, [r10, #24]
 5503 0490 020054E3 		cmp	r4, #2
 5504 0494 0150C3E5 		strb	r5, [r3, #1]
 5505 0498 18309A15 		ldrne	r3, [r10, #24]
 5506 049c 0250C315 		strbne	r5, [r3, #2]
 5507              	.L1113:
 5508 04a0 00005BE3 		cmp	fp, #0
 5509 04a4 B301000A 		beq	.L1090
 5510 04a8 18209AE5 		ldr	r2, [r10, #24]
 5511 04ac 14109AE5 		ldr	r1, [r10, #20]
 5512 04b0 10309AE5 		ldr	r3, [r10, #16]
 5513 04b4 012042E0 		sub	r2, r2, r1
 5514 04b8 023043E0 		sub	r3, r3, r2
 5515 04bc 0B0053E1 		cmp	r3, fp
 5516 04c0 AC01003A 		bcc	.L1090
 5517 04c4 28209AE5 		ldr	r2, [r10, #40]
 5518 04c8 04406BE2 		rsb	r4, fp, #4
 5519 04cc 00B063E2 		rsb	fp, r3, #0
 5520 04d0 0A00A0E1 		mov	r0, r10
 5521 04d4 03B00BE2 		and	fp, fp, #3
 5522 04d8 034084E0 		add	r4, r4, r3
 5523 04dc 030052E3 		cmp	r2, #3
 5524 04e0 0B10A0E1 		mov	r1, fp
 5525 04e4 28808A95 		strls	r8, [r10, #40]
 5526 04e8 FEFFFFEB 		bl	_ZN11flatbuffers15vector_downward12ensure_spaceEj
 5527 04ec 18309AE5 		ldr	r3, [r10, #24]
 5528 04f0 00005BE3 		cmp	fp, #0
 5529 04f4 000043E0 		sub	r0, r3, r0
 5530 04f8 18008AE5 		str	r0, [r10, #24]
 5531 04fc 0700000A 		beq	.L1115
 5532 0500 01005BE3 		cmp	fp, #1
 5533 0504 0050C0E5 		strb	r5, [r0]
 5534 0508 0400000A 		beq	.L1115
 5535 050c 18309AE5 		ldr	r3, [r10, #24]
 5536 0510 02005BE3 		cmp	fp, #2
 5537 0514 0150C3E5 		strb	r5, [r3, #1]
 5538 0518 18309A15 		ldrne	r3, [r10, #24]
 5539 051c 0250C315 		strbne	r5, [r3, #2]
 5540              	.L1115:
 5541 0520 0410A0E3 		mov	r1, #4
 5542 0524 0A00A0E1 		mov	r0, r10
 5543 0528 FEFFFFEB 		bl	_ZN11flatbuffers15vector_downward12ensure_spaceEj
 5544 052c 18309AE5 		ldr	r3, [r10, #24]
 5545 0530 000056E3 		cmp	r6, #0
 5546 0534 003043E0 		sub	r3, r3, r0
 5547 0538 18308AE5 		str	r3, [r10, #24]
 5548 053c 004083E5 		str	r4, [r3]
 5549 0540 BCFFFF1A 		bne	.L1117
 5550              	.L1116:
 5551 0544 0910A0E1 		mov	r1, r9
 5552 0548 0A00A0E1 		mov	r0, r10
 5553 054c FEFFFFEB 		bl	_ZN11flatbuffers17FlatBufferBuilder9EndVectorEj
 5554 0550 18409DE5 		ldr	r4, [sp, #24]
 5555 0554 3C108DE2 		add	r1, sp, #60
 5556 0558 2C008DE5 		str	r0, [sp, #44]
 5557 055c 000094E5 		ldr	r0, [r4]
 5558 0560 FEFFFFEB 		bl	_ZN11flatbuffers17FlatBufferBuilder12CreateVectorIN6tflite8SubGraphEEENS_6OffsetINS_6VectorINS4
 5559 0564 001000E3 		movw	r1, #:lower16:.LC33
 5560 0568 28008DE5 		str	r0, [sp, #40]
 5561 056c 0B20A0E3 		mov	r2, #11
 5562 0570 000094E5 		ldr	r0, [r4]
 5563 0574 001040E3 		movt	r1, #:upper16:.LC33
 5564 0578 FEFFFFEB 		bl	_ZN11flatbuffers17FlatBufferBuilder12CreateStringEPKcj
 5565 057c 009094E5 		ldr	r9, [r4]
 5566 0580 1C409DE5 		ldr	r4, [sp, #28]
 5567 0584 20008DE5 		str	r0, [sp, #32]
 5568 0588 0900A0E1 		mov	r0, r9
 5569 058c 0410A0E1 		mov	r1, r4
 5570 0590 FEFFFFEB 		bl	_ZN11flatbuffers17FlatBufferBuilder11StartVectorEjj.constprop.148
 5571 0594 000054E3 		cmp	r4, #0
 5572 0598 4900000A 		beq	.L1110
 5573 059c 24109DE5 		ldr	r1, [sp, #36]
 5574 05a0 40208DE2 		add	r2, sp, #64
 5575 05a4 183099E5 		ldr	r3, [r9, #24]
 5576 05a8 0480A0E3 		mov	r8, #4
 5577 05ac 1C609DE5 		ldr	r6, [sp, #28]
 5578 05b0 0050A0E3 		mov	r5, #0
 5579 05b4 017182E0 		add	r7, r2, r1, lsl #2
 5580              	.L1124:
 5581 05b8 282099E5 		ldr	r2, [r9, #40]
 5582 05bc 0900A0E1 		mov	r0, r9
 5583 05c0 144099E5 		ldr	r4, [r9, #20]
 5584 05c4 016046E2 		sub	r6, r6, #1
 5585 05c8 04B017E4 		ldr	fp, [r7], #-4
 5586 05cc 030052E3 		cmp	r2, #3
 5587 05d0 102099E5 		ldr	r2, [r9, #16]
 5588 05d4 044043E0 		sub	r4, r3, r4
 5589 05d8 28808995 		strls	r8, [r9, #40]
 5590 05dc 024044E0 		sub	r4, r4, r2
 5591 05e0 034004E2 		and	r4, r4, #3
 5592 05e4 0410A0E1 		mov	r1, r4
 5593 05e8 FEFFFFEB 		bl	_ZN11flatbuffers15vector_downward12ensure_spaceEj
 5594 05ec 183099E5 		ldr	r3, [r9, #24]
 5595 05f0 000054E3 		cmp	r4, #0
 5596 05f4 000043E0 		sub	r0, r3, r0
 5597 05f8 180089E5 		str	r0, [r9, #24]
 5598 05fc 0700000A 		beq	.L1121
 5599 0600 010054E3 		cmp	r4, #1
 5600 0604 0050C0E5 		strb	r5, [r0]
 5601 0608 0400000A 		beq	.L1121
 5602 060c 183099E5 		ldr	r3, [r9, #24]
 5603 0610 020054E3 		cmp	r4, #2
 5604 0614 0150C3E5 		strb	r5, [r3, #1]
 5605 0618 18309915 		ldrne	r3, [r9, #24]
 5606 061c 0250C315 		strbne	r5, [r3, #2]
 5607              	.L1121:
 5608 0620 00005BE3 		cmp	fp, #0
 5609 0624 5301000A 		beq	.L1090
 5610 0628 183099E5 		ldr	r3, [r9, #24]
 5611 062c 142099E5 		ldr	r2, [r9, #20]
 5612 0630 10A099E5 		ldr	r10, [r9, #16]
 5613 0634 023043E0 		sub	r3, r3, r2
 5614 0638 03A04AE0 		sub	r10, r10, r3
 5615 063c 0B005AE1 		cmp	r10, fp
 5616 0640 4C01003A 		bcc	.L1090
 5617 0644 283099E5 		ldr	r3, [r9, #40]
 5618 0648 04408AE2 		add	r4, r10, #4
 5619 064c 00A06AE2 		rsb	r10, r10, #0
 5620 0650 0900A0E1 		mov	r0, r9
 5621 0654 03A00AE2 		and	r10, r10, #3
 5622 0658 0B4044E0 		sub	r4, r4, fp
 5623 065c 030053E3 		cmp	r3, #3
 5624 0660 0A10A0E1 		mov	r1, r10
 5625 0664 28808995 		strls	r8, [r9, #40]
 5626 0668 FEFFFFEB 		bl	_ZN11flatbuffers15vector_downward12ensure_spaceEj
 5627 066c 183099E5 		ldr	r3, [r9, #24]
 5628 0670 00005AE3 		cmp	r10, #0
 5629 0674 000043E0 		sub	r0, r3, r0
 5630 0678 180089E5 		str	r0, [r9, #24]
 5631 067c 0700000A 		beq	.L1123
 5632 0680 01005AE3 		cmp	r10, #1
 5633 0684 0050C0E5 		strb	r5, [r0]
 5634 0688 0400000A 		beq	.L1123
 5635 068c 183099E5 		ldr	r3, [r9, #24]
 5636 0690 02005AE3 		cmp	r10, #2
 5637 0694 0150C3E5 		strb	r5, [r3, #1]
 5638 0698 18309915 		ldrne	r3, [r9, #24]
 5639 069c 0250C315 		strbne	r5, [r3, #2]
 5640              	.L1123:
 5641 06a0 0410A0E3 		mov	r1, #4
 5642 06a4 0900A0E1 		mov	r0, r9
 5643 06a8 FEFFFFEB 		bl	_ZN11flatbuffers15vector_downward12ensure_spaceEj
 5644 06ac 183099E5 		ldr	r3, [r9, #24]
 5645 06b0 000056E3 		cmp	r6, #0
 5646 06b4 003043E0 		sub	r3, r3, r0
 5647 06b8 183089E5 		str	r3, [r9, #24]
 5648 06bc 004083E5 		str	r4, [r3]
 5649 06c0 BCFFFF1A 		bne	.L1124
 5650              	.L1110:
 5651 06c4 18509DE5 		ldr	r5, [sp, #24]
 5652 06c8 0900A0E1 		mov	r0, r9
 5653 06cc 1C109DE5 		ldr	r1, [sp, #28]
 5654 06d0 FEFFFFEB 		bl	_ZN11flatbuffers17FlatBufferBuilder9EndVectorEj
 5655 06d4 0580A0E1 		mov	r8, r5
 5656 06d8 14A295E5 		ldr	r10, [r5, #532]
 5657 06dc C44198E4 		ldr	r4, [r8], #452
 5658 06e0 1C008DE5 		str	r0, [sp, #28]
 5659 06e4 0A10A0E1 		mov	r1, r10
 5660 06e8 0400A0E1 		mov	r0, r4
 5661 06ec FEFFFFEB 		bl	_ZN11flatbuffers17FlatBufferBuilder11StartVectorEjj.constprop.148
 5662 06f0 00005AE3 		cmp	r10, #0
 5663 06f4 4700000A 		beq	.L1118
 5664 06f8 183094E5 		ldr	r3, [r4, #24]
 5665 06fc 0A8188E0 		add	r8, r8, r10, lsl #2
 5666 0700 0A70A0E1 		mov	r7, r10
 5667 0704 0490A0E3 		mov	r9, #4
 5668 0708 0060A0E3 		mov	r6, #0
 5669              	.L1130:
 5670 070c 282094E5 		ldr	r2, [r4, #40]
 5671 0710 0400A0E1 		mov	r0, r4
 5672 0714 145094E5 		ldr	r5, [r4, #20]
 5673 0718 017047E2 		sub	r7, r7, #1
 5674 071c 04B038E5 		ldr	fp, [r8, #-4]!
 5675 0720 030052E3 		cmp	r2, #3
 5676 0724 102094E5 		ldr	r2, [r4, #16]
 5677 0728 055043E0 		sub	r5, r3, r5
 5678 072c 28908495 		strls	r9, [r4, #40]
 5679 0730 025045E0 		sub	r5, r5, r2
 5680 0734 035005E2 		and	r5, r5, #3
 5681 0738 0510A0E1 		mov	r1, r5
 5682 073c FEFFFFEB 		bl	_ZN11flatbuffers15vector_downward12ensure_spaceEj
 5683 0740 183094E5 		ldr	r3, [r4, #24]
 5684 0744 000055E3 		cmp	r5, #0
 5685 0748 000043E0 		sub	r0, r3, r0
 5686 074c 180084E5 		str	r0, [r4, #24]
 5687 0750 0700000A 		beq	.L1127
 5688 0754 010055E3 		cmp	r5, #1
 5689 0758 0060C0E5 		strb	r6, [r0]
 5690 075c 0400000A 		beq	.L1127
 5691 0760 183094E5 		ldr	r3, [r4, #24]
 5692 0764 020055E3 		cmp	r5, #2
 5693 0768 0160C3E5 		strb	r6, [r3, #1]
 5694 076c 18309415 		ldrne	r3, [r4, #24]
 5695 0770 0260C315 		strbne	r6, [r3, #2]
 5696              	.L1127:
 5697 0774 00005BE3 		cmp	fp, #0
 5698 0778 FE00000A 		beq	.L1090
 5699 077c 182094E5 		ldr	r2, [r4, #24]
 5700 0780 141094E5 		ldr	r1, [r4, #20]
 5701 0784 103094E5 		ldr	r3, [r4, #16]
 5702 0788 012042E0 		sub	r2, r2, r1
 5703 078c 023043E0 		sub	r3, r3, r2
 5704 0790 0B0053E1 		cmp	r3, fp
 5705 0794 F700003A 		bcc	.L1090
 5706 0798 282094E5 		ldr	r2, [r4, #40]
 5707 079c 04506BE2 		rsb	r5, fp, #4
 5708 07a0 00B063E2 		rsb	fp, r3, #0
 5709 07a4 0400A0E1 		mov	r0, r4
 5710 07a8 03B00BE2 		and	fp, fp, #3
 5711 07ac 035085E0 		add	r5, r5, r3
 5712 07b0 030052E3 		cmp	r2, #3
 5713 07b4 0B10A0E1 		mov	r1, fp
 5714 07b8 28908495 		strls	r9, [r4, #40]
 5715 07bc FEFFFFEB 		bl	_ZN11flatbuffers15vector_downward12ensure_spaceEj
 5716 07c0 183094E5 		ldr	r3, [r4, #24]
 5717 07c4 00005BE3 		cmp	fp, #0
 5718 07c8 000043E0 		sub	r0, r3, r0
 5719 07cc 180084E5 		str	r0, [r4, #24]
 5720 07d0 0700000A 		beq	.L1129
 5721 07d4 01005BE3 		cmp	fp, #1
 5722 07d8 0060C0E5 		strb	r6, [r0]
 5723 07dc 0400000A 		beq	.L1129
 5724 07e0 183094E5 		ldr	r3, [r4, #24]
 5725 07e4 02005BE3 		cmp	fp, #2
 5726 07e8 0160C3E5 		strb	r6, [r3, #1]
 5727 07ec 18309415 		ldrne	r3, [r4, #24]
 5728 07f0 0260C315 		strbne	r6, [r3, #2]
 5729              	.L1129:
 5730 07f4 0410A0E3 		mov	r1, #4
 5731 07f8 0400A0E1 		mov	r0, r4
 5732 07fc FEFFFFEB 		bl	_ZN11flatbuffers15vector_downward12ensure_spaceEj
 5733 0800 183094E5 		ldr	r3, [r4, #24]
 5734 0804 000057E3 		cmp	r7, #0
 5735 0808 003043E0 		sub	r3, r3, r0
 5736 080c 183084E5 		str	r3, [r4, #24]
 5737 0810 005083E5 		str	r5, [r3]
 5738 0814 BCFFFF1A 		bne	.L1130
 5739              	.L1118:
 5740 0818 0A10A0E1 		mov	r1, r10
 5741 081c 0400A0E1 		mov	r0, r4
 5742 0820 FEFFFFEB 		bl	_ZN11flatbuffers17FlatBufferBuilder9EndVectorEj
 5743 0824 1C209DE5 		ldr	r2, [sp, #28]
 5744 0828 0010A0E3 		mov	r1, #0
 5745 082c 0C008DE5 		str	r0, [sp, #12]
 5746 0830 20009DE5 		ldr	r0, [sp, #32]
 5747 0834 08108DE5 		str	r1, [sp, #8]
 5748 0838 04208DE5 		str	r2, [sp, #4]
 5749 083c 00008DE5 		str	r0, [sp]
 5750 0840 0400A0E1 		mov	r0, r4
 5751 0844 10108DE5 		str	r1, [sp, #16]
 5752 0848 28309DE5 		ldr	r3, [sp, #40]
 5753 084c 2C209DE5 		ldr	r2, [sp, #44]
 5754 0850 FEFFFFEB 		bl	_ZN6tflite11CreateModelERN11flatbuffers17FlatBufferBuilderEmNS0_6OffsetINS0_6VectorINS3_INS_12O
 5755 0854 0010A0E1 		mov	r1, r0
 5756              	.L1125:
 5757 0858 18409DE5 		ldr	r4, [sp, #24]
 5758 085c 000094E5 		ldr	r0, [r4]
 5759 0860 FEFFFFEB 		bl	_ZN11flatbuffers17FlatBufferBuilder6FinishEmPKcb.constprop.146
 5760 0864 003094E5 		ldr	r3, [r4]
 5761 0868 2720D3E5 		ldrb	r2, [r3, #39]	@ zero_extendqisi2
 5762 086c 000052E3 		cmp	r2, #0
 5763 0870 C900000A 		beq	.L1317
 5764 0874 183093E5 		ldr	r3, [r3, #24]
 5765 0878 000053E3 		cmp	r3, #0
 5766 087c C500000A 		beq	.L1318
 5767 0880 000093E5 		ldr	r0, [r3]
 5768 0884 000083E0 		add	r0, r3, r0
 5769 0888 6CD08DE2 		add	sp, sp, #108
 5770              		@ sp needed
 5771 088c F04FBDE8 		pop	{r4, r5, r6, r7, r8, r9, r10, fp, lr}
 5772 0890 08D08DE2 		add	sp, sp, #8
 5773 0894 1EFF2FE1 		bx	lr
 5774              	.L1316:
 5775 0898 18309DE5 		ldr	r3, [sp, #24]
 5776 089c 0360A0E1 		mov	r6, r3
 5777 08a0 2C9093E5 		ldr	r9, [r3, #44]
 5778 08a4 04B096E4 		ldr	fp, [r6], #4
 5779 08a8 0910A0E1 		mov	r1, r9
 5780 08ac 0B00A0E1 		mov	r0, fp
 5781 08b0 FEFFFFEB 		bl	_ZN11flatbuffers17FlatBufferBuilder11StartVectorEjj.constprop.148
 5782 08b4 000059E3 		cmp	r9, #0
 5783 08b8 2A00000A 		beq	.L1136
 5784 08bc 096186E0 		add	r6, r6, r9, lsl #2
 5785 08c0 0940A0E1 		mov	r4, r9
 5786 08c4 0480A0E3 		mov	r8, #4
 5787 08c8 0050A0E3 		mov	r5, #0
 5788              	.L1137:
 5789 08cc 041036E5 		ldr	r1, [r6, #-4]!
 5790 08d0 0B00A0E1 		mov	r0, fp
 5791 08d4 FEFFFFEB 		bl	_ZN11flatbuffers17FlatBufferBuilder7ReferToEm
 5792 08d8 28309BE5 		ldr	r3, [fp, #40]
 5793 08dc 00A0A0E1 		mov	r10, r0
 5794 08e0 18709BE5 		ldr	r7, [fp, #24]
 5795 08e4 0B00A0E1 		mov	r0, fp
 5796 08e8 14209BE5 		ldr	r2, [fp, #20]
 5797 08ec 014044E2 		sub	r4, r4, #1
 5798 08f0 030053E3 		cmp	r3, #3
 5799 08f4 10309BE5 		ldr	r3, [fp, #16]
 5800 08f8 28808B95 		strls	r8, [fp, #40]
 5801 08fc 027047E0 		sub	r7, r7, r2
 5802 0900 037047E0 		sub	r7, r7, r3
 5803 0904 037007E2 		and	r7, r7, #3
 5804 0908 0710A0E1 		mov	r1, r7
 5805 090c FEFFFFEB 		bl	_ZN11flatbuffers15vector_downward12ensure_spaceEj
 5806 0910 18309BE5 		ldr	r3, [fp, #24]
 5807 0914 000057E3 		cmp	r7, #0
 5808 0918 000043E0 		sub	r0, r3, r0
 5809 091c 18008BE5 		str	r0, [fp, #24]
 5810 0920 0700000A 		beq	.L1135
 5811 0924 010057E3 		cmp	r7, #1
 5812 0928 0050C0E5 		strb	r5, [r0]
 5813 092c 0400000A 		beq	.L1135
 5814 0930 18309BE5 		ldr	r3, [fp, #24]
 5815 0934 020057E3 		cmp	r7, #2
 5816 0938 0150C3E5 		strb	r5, [r3, #1]
 5817 093c 18309B15 		ldrne	r3, [fp, #24]
 5818 0940 0250C315 		strbne	r5, [r3, #2]
 5819              	.L1135:
 5820 0944 0410A0E3 		mov	r1, #4
 5821 0948 0B00A0E1 		mov	r0, fp
 5822 094c FEFFFFEB 		bl	_ZN11flatbuffers15vector_downward12ensure_spaceEj
 5823 0950 18309BE5 		ldr	r3, [fp, #24]
 5824 0954 000054E3 		cmp	r4, #0
 5825 0958 000043E0 		sub	r0, r3, r0
 5826 095c 18008BE5 		str	r0, [fp, #24]
 5827 0960 00A080E5 		str	r10, [r0]
 5828 0964 D8FFFF1A 		bne	.L1137
 5829              	.L1136:
 5830 0968 0910A0E1 		mov	r1, r9
 5831 096c 0B00A0E1 		mov	r0, fp
 5832 0970 FEFFFFEB 		bl	_ZN11flatbuffers17FlatBufferBuilder9EndVectorEj
 5833 0974 18409DE5 		ldr	r4, [sp, #24]
 5834 0978 3C108DE2 		add	r1, sp, #60
 5835 097c 00B0A0E1 		mov	fp, r0
 5836 0980 000094E5 		ldr	r0, [r4]
 5837 0984 FEFFFFEB 		bl	_ZN11flatbuffers17FlatBufferBuilder12CreateVectorIN6tflite8SubGraphEEENS_6OffsetINS_6VectorINS4
 5838 0988 001000E3 		movw	r1, #:lower16:.LC33
 5839 098c 28008DE5 		str	r0, [sp, #40]
 5840 0990 0B20A0E3 		mov	r2, #11
 5841 0994 000094E5 		ldr	r0, [r4]
 5842 0998 001040E3 		movt	r1, #:upper16:.LC33
 5843 099c FEFFFFEB 		bl	_ZN11flatbuffers17FlatBufferBuilder12CreateStringEPKcj
 5844 09a0 1C509DE5 		ldr	r5, [sp, #28]
 5845 09a4 004094E5 		ldr	r4, [r4]
 5846 09a8 20008DE5 		str	r0, [sp, #32]
 5847 09ac 0510A0E1 		mov	r1, r5
 5848 09b0 0400A0E1 		mov	r0, r4
 5849 09b4 FEFFFFEB 		bl	_ZN11flatbuffers17FlatBufferBuilder11StartVectorEjj.constprop.148
 5850 09b8 000055E3 		cmp	r5, #0
 5851 09bc 2C00000A 		beq	.L1132
 5852 09c0 24209DE5 		ldr	r2, [sp, #36]
 5853 09c4 40308DE2 		add	r3, sp, #64
 5854 09c8 1C509DE5 		ldr	r5, [sp, #28]
 5855 09cc 0490A0E3 		mov	r9, #4
 5856 09d0 0060A0E3 		mov	r6, #0
 5857 09d4 027183E0 		add	r7, r3, r2, lsl #2
 5858              	.L1140:
 5859 09d8 041017E4 		ldr	r1, [r7], #-4
 5860 09dc 0400A0E1 		mov	r0, r4
 5861 09e0 FEFFFFEB 		bl	_ZN11flatbuffers17FlatBufferBuilder7ReferToEm
 5862 09e4 283094E5 		ldr	r3, [r4, #40]
 5863 09e8 00A0A0E1 		mov	r10, r0
 5864 09ec 188094E5 		ldr	r8, [r4, #24]
 5865 09f0 0400A0E1 		mov	r0, r4
 5866 09f4 142094E5 		ldr	r2, [r4, #20]
 5867 09f8 015045E2 		sub	r5, r5, #1
 5868 09fc 030053E3 		cmp	r3, #3
 5869 0a00 103094E5 		ldr	r3, [r4, #16]
 5870 0a04 28908495 		strls	r9, [r4, #40]
 5871 0a08 028048E0 		sub	r8, r8, r2
 5872 0a0c 038048E0 		sub	r8, r8, r3
 5873 0a10 038008E2 		and	r8, r8, #3
 5874 0a14 0810A0E1 		mov	r1, r8
 5875 0a18 FEFFFFEB 		bl	_ZN11flatbuffers15vector_downward12ensure_spaceEj
 5876 0a1c 183094E5 		ldr	r3, [r4, #24]
 5877 0a20 000058E3 		cmp	r8, #0
 5878 0a24 000043E0 		sub	r0, r3, r0
 5879 0a28 180084E5 		str	r0, [r4, #24]
 5880 0a2c 0700000A 		beq	.L1139
 5881 0a30 010058E3 		cmp	r8, #1
 5882 0a34 0060C0E5 		strb	r6, [r0]
 5883 0a38 0400000A 		beq	.L1139
 5884 0a3c 183094E5 		ldr	r3, [r4, #24]
 5885 0a40 020058E3 		cmp	r8, #2
 5886 0a44 0160C3E5 		strb	r6, [r3, #1]
 5887 0a48 18309415 		ldrne	r3, [r4, #24]
 5888 0a4c 0260C315 		strbne	r6, [r3, #2]
 5889              	.L1139:
 5890 0a50 0410A0E3 		mov	r1, #4
 5891 0a54 0400A0E1 		mov	r0, r4
 5892 0a58 FEFFFFEB 		bl	_ZN11flatbuffers15vector_downward12ensure_spaceEj
 5893 0a5c 183094E5 		ldr	r3, [r4, #24]
 5894 0a60 000055E3 		cmp	r5, #0
 5895 0a64 000043E0 		sub	r0, r3, r0
 5896 0a68 180084E5 		str	r0, [r4, #24]
 5897 0a6c 00A080E5 		str	r10, [r0]
 5898 0a70 D8FFFF1A 		bne	.L1140
 5899              	.L1132:
 5900 0a74 1C109DE5 		ldr	r1, [sp, #28]
 5901 0a78 0400A0E1 		mov	r0, r4
 5902 0a7c FEFFFFEB 		bl	_ZN11flatbuffers17FlatBufferBuilder9EndVectorEj
 5903 0a80 20309DE5 		ldr	r3, [sp, #32]
 5904 0a84 00C0A0E3 		mov	ip, #0
 5905 0a88 04008DE5 		str	r0, [sp, #4]
 5906 0a8c 0C10A0E1 		mov	r1, ip
 5907 0a90 0B20A0E1 		mov	r2, fp
 5908 0a94 0400A0E1 		mov	r0, r4
 5909 0a98 00308DE5 		str	r3, [sp]
 5910 0a9c 10C08DE5 		str	ip, [sp, #16]
 5911 0aa0 28309DE5 		ldr	r3, [sp, #40]
 5912 0aa4 0CC08DE5 		str	ip, [sp, #12]
 5913 0aa8 08C08DE5 		str	ip, [sp, #8]
 5914 0aac FEFFFFEB 		bl	_ZN6tflite11CreateModelERN11flatbuffers17FlatBufferBuilderEmNS0_6OffsetINS0_6VectorINS3_INS_12O
 5915 0ab0 0010A0E1 		mov	r1, r0
 5916 0ab4 67FFFFEA 		b	.L1125
 5917              	.L1310:
 5918 0ab8 18309DE5 		ldr	r3, [sp, #24]
 5919 0abc 0370A0E1 		mov	r7, r3
 5920 0ac0 18A293E5 		ldr	r10, [r3, #536]
 5921 0ac4 FCB097E4 		ldr	fp, [r7], #252
 5922 0ac8 0A10A0E1 		mov	r1, r10
 5923 0acc 0B00A0E1 		mov	r0, fp
 5924 0ad0 FEFFFFEB 		bl	_ZN11flatbuffers17FlatBufferBuilder11StartVectorEjj.constprop.148
 5925 0ad4 00005AE3 		cmp	r10, #0
 5926 0ad8 9C408DE5 		str	r4, [sp, #156]
 5927 0adc 76FDFF1A 		bne	.L1144
 5928 0ae0 BDFDFFEA 		b	.L1086
 5929              	.L1315:
 5930 0ae4 0710A0E1 		mov	r1, r7
 5931 0ae8 0500A0E1 		mov	r0, r5
 5932 0aec FEFFFFEB 		bl	_ZN11flatbuffers15vector_downward12ensure_spaceEj
 5933 0af0 183095E5 		ldr	r3, [r5, #24]
 5934 0af4 0720A0E1 		mov	r2, r7
 5935 0af8 0610A0E1 		mov	r1, r6
 5936 0afc 000043E0 		sub	r0, r3, r0
 5937 0b00 180085E5 		str	r0, [r5, #24]
 5938 0b04 FEFFFFEB 		bl	memcpy
 5939 0b08 D1FDFFEA 		b	.L1099
 5940              	.L1314:
 5941 0b0c 0610A0E1 		mov	r1, r6
 5942 0b10 0400A0E1 		mov	r0, r4
 5943 0b14 FEFFFFEB 		bl	_ZN11flatbuffers15vector_downward12ensure_spaceEj
 5944 0b18 183094E5 		ldr	r3, [r4, #24]
 5945 0b1c 0620A0E1 		mov	r2, r6
 5946 0b20 0510A0E1 		mov	r1, r5
 5947 0b24 000043E0 		sub	r0, r3, r0
 5948 0b28 180084E5 		str	r0, [r4, #24]
 5949 0b2c FEFFFFEB 		bl	memcpy
 5950 0b30 B8FDFFEA 		b	.L1096
 5951              	.L1313:
 5952 0b34 0310A0E1 		mov	r1, r3
 5953 0b38 0400A0E1 		mov	r0, r4
 5954 0b3c FEFFFFEB 		bl	_ZN11flatbuffers17FlatBufferBuilder9EndVectorEj
 5955 0b40 2C008DE5 		str	r0, [sp, #44]
 5956 0b44 B7FDFFEA 		b	.L1095
 5957              	.L1312:
 5958 0b48 0A10A0E1 		mov	r1, r10
 5959 0b4c 0B00A0E1 		mov	r0, fp
 5960 0b50 FEFFFFEB 		bl	_ZN11flatbuffers17FlatBufferBuilder9EndVectorEj
 5961 0b54 18309DE5 		ldr	r3, [sp, #24]
 5962 0b58 20008DE5 		str	r0, [sp, #32]
 5963 0b5c 9C109DE5 		ldr	r1, [sp, #156]
 5964 0b60 004093E5 		ldr	r4, [r3]
 5965 0b64 30509DE5 		ldr	r5, [sp, #48]
 5966 0b68 0400A0E1 		mov	r0, r4
 5967 0b6c FEFFFFEB 		bl	_ZN11flatbuffers17FlatBufferBuilder11StartVectorEjj.constprop.148
 5968 0b70 9C309DE5 		ldr	r3, [sp, #156]
 5969 0b74 A5FDFFEA 		b	.L1094
 5970              	.L1090:
 5971 0b78 003000E3 		movw	r3, #:lower16:.LC25
 5972 0b7c 002000E3 		movw	r2, #:lower16:.LANCHOR13
 5973 0b80 000000E3 		movw	r0, #:lower16:.LC19
 5974 0b84 003040E3 		movt	r3, #:upper16:.LC25
 5975 0b88 002040E3 		movt	r2, #:upper16:.LANCHOR13
 5976 0b8c 000040E3 		movt	r0, #:upper16:.LC19
 5977 0b90 3B1500E3 		movw	r1, #1339
 5978 0b94 FEFFFFEB 		bl	__assert_func
 5979              	.L1318:
 5980 0b98 FEFFFFEB 		bl	_ZNK11flatbuffers15vector_downward4dataEv.isra.9.part.10
 5981              	.L1317:
 5982 0b9c 003000E3 		movw	r3, #:lower16:.LC34
 5983 0ba0 002000E3 		movw	r2, #:lower16:.LANCHOR18
 5984 0ba4 000000E3 		movw	r0, #:lower16:.LC19
 5985 0ba8 003040E3 		movt	r3, #:upper16:.LC34
 5986 0bac 002040E3 		movt	r2, #:upper16:.LANCHOR18
 5987 0bb0 000040E3 		movt	r0, #:upper16:.LC19
 5988 0bb4 D71400E3 		movw	r1, #1239
 5989 0bb8 FEFFFFEB 		bl	__assert_func
 5990              	.L1311:
 5991 0bbc FEFFFFEB 		bl	abort
 5992              		.fnend
 5994              		.section	.text._ZN6tflite7testing12_GLOBAL__N_126BuildSimpleModelWithBranchEv,"ax",%progbits
 5995              		.align	2
 5996              		.syntax unified
 5997              		.arm
 5998              		.fpu neon
 6000              	_ZN6tflite7testing12_GLOBAL__N_126BuildSimpleModelWithBranchEv:
 6001              		.fnstart
 6002              	.LFB6970:
 6003              		@ args = 0, pretend = 0, frame = 656
 6004              		@ frame_needed = 0, uses_anonymous_args = 0
 6005 0000 F04F2DE9 		push	{r4, r5, r6, r7, r8, r9, r10, fp, lr}
 6006              		.save {r4, r5, r6, r7, r8, r9, r10, fp, lr}
 6007              		.pad #668
 6008 0004 A7DF4DE2 		sub	sp, sp, #668
 6009 0008 FEFFFFEB 		bl	_ZN6tflite7testing12_GLOBAL__N_115BuilderInstanceEv
 6010 000c 001000E3 		movw	r1, #:lower16:.LC35
 6011 0010 0040A0E3 		mov	r4, #0
 6012 0014 5000C0F2 		vmov.i32	q8, #0  @ v4si
 6013 0018 001040E3 		movt	r1, #:upper16:.LC35
 6014 001c 2020A0E3 		mov	r2, #32
 6015 0020 78008DE5 		str	r0, [sp, #120]
 6016 0024 7C408DE5 		str	r4, [sp, #124]
 6017 0028 0150A0E3 		mov	r5, #1
 6018 002c 220BCDED 		vstr	d16, [sp, #136]
 6019 0030 241BCDED 		vstr	d17, [sp, #144]
 6020 0034 0360A0E3 		mov	r6, #3
 6021 0038 80408DE5 		str	r4, [sp, #128]
 6022 003c A67F8DE2 		add	r7, sp, #664
 6023 0040 2A0BCDED 		vstr	d16, [sp, #168]
 6024 0044 2C1BCDED 		vstr	d17, [sp, #176]
 6025 0048 84408DE5 		str	r4, [sp, #132]
 6026 004c 2E0BCDED 		vstr	d16, [sp, #184]
 6027 0050 301BCDED 		vstr	d17, [sp, #192]
 6028 0054 98408DE5 		str	r4, [sp, #152]
 6029 0058 320BCDED 		vstr	d16, [sp, #200]
 6030 005c 341BCDED 		vstr	d17, [sp, #208]
 6031 0060 9C408DE5 		str	r4, [sp, #156]
 6032 0064 360BCDED 		vstr	d16, [sp, #216]
 6033 0068 381BCDED 		vstr	d17, [sp, #224]
 6034 006c A0408DE5 		str	r4, [sp, #160]
 6035 0070 3A0BCDED 		vstr	d16, [sp, #232]
 6036 0074 3C1BCDED 		vstr	d17, [sp, #240]
 6037 0078 A4408DE5 		str	r4, [sp, #164]
 6038 007c 3E0BCDED 		vstr	d16, [sp, #248]
 6039 0080 401BCDED 		vstr	d17, [sp, #256]
 6040 0084 68418DE5 		str	r4, [sp, #360]
 6041 0088 420BCDED 		vstr	d16, [sp, #264]
 6042 008c 441BCDED 		vstr	d17, [sp, #272]
 6043 0090 6C418DE5 		str	r4, [sp, #364]
 6044 0094 460BCDED 		vstr	d16, [sp, #280]
 6045 0098 481BCDED 		vstr	d17, [sp, #288]
 6046 009c 70418DE5 		str	r4, [sp, #368]
 6047 00a0 4A0BCDED 		vstr	d16, [sp, #296]
 6048 00a4 4C1BCDED 		vstr	d17, [sp, #304]
 6049 00a8 74418DE5 		str	r4, [sp, #372]
 6050 00ac 4E0BCDED 		vstr	d16, [sp, #312]
 6051 00b0 501BCDED 		vstr	d17, [sp, #320]
 6052 00b4 78418DE5 		str	r4, [sp, #376]
 6053 00b8 520BCDED 		vstr	d16, [sp, #328]
 6054 00bc 541BCDED 		vstr	d17, [sp, #336]
 6055 00c0 7C418DE5 		str	r4, [sp, #380]
 6056 00c4 560BCDED 		vstr	d16, [sp, #344]
 6057 00c8 581BCDED 		vstr	d17, [sp, #352]
 6058 00cc 600BCDED 		vstr	d16, [sp, #384]
 6059 00d0 621BCDED 		vstr	d17, [sp, #392]
 6060 00d4 640BCDED 		vstr	d16, [sp, #400]
 6061 00d8 661BCDED 		vstr	d17, [sp, #408]
 6062 00dc 680BCDED 		vstr	d16, [sp, #416]
 6063 00e0 6A1BCDED 		vstr	d17, [sp, #424]
 6064 00e4 6C0BCDED 		vstr	d16, [sp, #432]
 6065 00e8 6E1BCDED 		vstr	d17, [sp, #440]
 6066 00ec 700BCDED 		vstr	d16, [sp, #448]
 6067 00f0 721BCDED 		vstr	d17, [sp, #456]
 6068 00f4 740BCDED 		vstr	d16, [sp, #464]
 6069 00f8 761BCDED 		vstr	d17, [sp, #472]
 6070 00fc 30428DE5 		str	r4, [sp, #560]
 6071 0100 780BCDED 		vstr	d16, [sp, #480]
 6072 0104 7A1BCDED 		vstr	d17, [sp, #488]
 6073 0108 34428DE5 		str	r4, [sp, #564]
 6074 010c 7C0BCDED 		vstr	d16, [sp, #496]
 6075 0110 7E1BCDED 		vstr	d17, [sp, #504]
 6076 0114 38428DE5 		str	r4, [sp, #568]
 6077 0118 800BCDED 		vstr	d16, [sp, #512]
 6078 011c 821BCDED 		vstr	d17, [sp, #520]
 6079 0120 3C428DE5 		str	r4, [sp, #572]
 6080 0124 840BCDED 		vstr	d16, [sp, #528]
 6081 0128 861BCDED 		vstr	d17, [sp, #536]
 6082 012c 40428DE5 		str	r4, [sp, #576]
 6083 0130 880BCDED 		vstr	d16, [sp, #544]
 6084 0134 8A1BCDED 		vstr	d17, [sp, #552]
 6085 0138 44428DE5 		str	r4, [sp, #580]
 6086 013c 920BCDED 		vstr	d16, [sp, #584]
 6087 0140 941BCDED 		vstr	d17, [sp, #592]
 6088 0144 58428DE5 		str	r4, [sp, #600]
 6089 0148 9C0BCDED 		vstr	d16, [sp, #624]
 6090 014c 9E1BCDED 		vstr	d17, [sp, #632]
 6091 0150 5C428DE5 		str	r4, [sp, #604]
 6092 0154 60428DE5 		str	r4, [sp, #608]
 6093 0158 64428DE5 		str	r4, [sp, #612]
 6094 015c 68428DE5 		str	r4, [sp, #616]
 6095 0160 6C428DE5 		str	r4, [sp, #620]
 6096 0164 80428DE5 		str	r4, [sp, #640]
 6097 0168 84428DE5 		str	r4, [sp, #644]
 6098 016c 88428DE5 		str	r4, [sp, #648]
 6099 0170 8C428DE5 		str	r4, [sp, #652]
 6100 0174 90428DE5 		str	r4, [sp, #656]
 6101 0178 FEFFFFEB 		bl	_ZN6tflite24CreateOperatorCodeDirectERN11flatbuffers17FlatBufferBuilderEaPKclNS_15BuiltinOperat
 6102 017c A4809DE5 		ldr	r8, [sp, #164]
 6103 0180 003000E3 		movw	r3, #:lower16:.LANCHOR19
 6104 0184 003040E3 		movt	r3, #:upper16:.LANCHOR19
 6105 0188 58208DE2 		add	r2, sp, #88
 6106 018c 58308DE5 		str	r3, [sp, #88]
 6107 0190 5C608DE5 		str	r6, [sp, #92]
 6108 0194 053088E0 		add	r3, r8, r5
 6109 0198 7C008DE5 		str	r0, [sp, #124]
 6110 019c 78008DE2 		add	r0, sp, #120
 6111 01a0 060092E8 		ldm	r2, {r1, r2}
 6112 01a4 A4308DE5 		str	r3, [sp, #164]
 6113 01a8 FEFFFFEB 		bl	_ZN6tflite7testing12_GLOBAL__N_112ModelBuilder13AddTensorImplENS_10TensorTypeEbSt16initializer_
 6114 01ac 003000E3 		movw	r3, #:lower16:.LANCHOR20
 6115 01b0 60208DE2 		add	r2, sp, #96
 6116 01b4 003040E3 		movt	r3, #:upper16:.LANCHOR20
 6117 01b8 0090A0E1 		mov	r9, r0
 6118 01bc 64608DE5 		str	r6, [sp, #100]
 6119 01c0 78008DE2 		add	r0, sp, #120
 6120 01c4 60308DE5 		str	r3, [sp, #96]
 6121 01c8 060092E8 		ldm	r2, {r1, r2}
 6122 01cc FEFFFFEB 		bl	_ZN6tflite7testing12_GLOBAL__N_112ModelBuilder13AddTensorImplENS_10TensorTypeEbSt16initializer_
 6123 01d0 003000E3 		movw	r3, #:lower16:.LANCHOR21
 6124 01d4 68208DE2 		add	r2, sp, #104
 6125 01d8 003040E3 		movt	r3, #:upper16:.LANCHOR21
 6126 01dc 00B0A0E1 		mov	fp, r0
 6127 01e0 6C608DE5 		str	r6, [sp, #108]
 6128 01e4 78008DE2 		add	r0, sp, #120
 6129 01e8 68308DE5 		str	r3, [sp, #104]
 6130 01ec 060092E8 		ldm	r2, {r1, r2}
 6131 01f0 FEFFFFEB 		bl	_ZN6tflite7testing12_GLOBAL__N_112ModelBuilder13AddTensorImplENS_10TensorTypeEbSt16initializer_
 6132 01f4 003000E3 		movw	r3, #:lower16:.LANCHOR22
 6133 01f8 70208DE2 		add	r2, sp, #112
 6134 01fc 003040E3 		movt	r3, #:upper16:.LANCHOR22
 6135 0200 00A0A0E1 		mov	r10, r0
 6136 0204 74608DE5 		str	r6, [sp, #116]
 6137 0208 78008DE2 		add	r0, sp, #120
 6138 020c 70308DE5 		str	r3, [sp, #112]
 6139 0210 A66F8DE2 		add	r6, sp, #664
 6140 0214 060092E8 		ldm	r2, {r1, r2}
 6141 0218 FEFFFFEB 		bl	_ZN6tflite7testing12_GLOBAL__N_112ModelBuilder13AddTensorImplENS_10TensorTypeEbSt16initializer_
 6142 021c 20208DE2 		add	r2, sp, #32
 6143 0220 48B227E5 		str	fp, [r7, #-584]!
 6144 0224 0C008DE5 		str	r0, [sp, #12]
 6145 0228 18308DE2 		add	r3, sp, #24
 6146 022c 20708DE5 		str	r7, [sp, #32]
 6147 0230 24508DE5 		str	r5, [sp, #36]
 6148 0234 030092E8 		ldm	r2, {r0, r1}
 6149 0238 78208DE2 		add	r2, sp, #120
 6150 023c 509226E5 		str	r9, [r6, #-592]!
 6151 0240 1C508DE5 		str	r5, [sp, #28]
 6152 0244 03008DE8 		stm	sp, {r0, r1}
 6153 0248 0810A0E1 		mov	r1, r8
 6154 024c 18608DE5 		str	r6, [sp, #24]
 6155 0250 0200A0E1 		mov	r0, r2
 6156 0254 0C0093E8 		ldm	r3, {r2, r3}
 6157 0258 FEFFFFEB 		bl	_ZN6tflite7testing12_GLOBAL__N_112ModelBuilder7AddNodeEiSt16initializer_listIlES4_
 6158 025c 30208DE2 		add	r2, sp, #48
 6159 0260 30708DE5 		str	r7, [sp, #48]
 6160 0264 34508DE5 		str	r5, [sp, #52]
 6161 0268 28308DE2 		add	r3, sp, #40
 6162 026c 030092E8 		ldm	r2, {r0, r1}
 6163 0270 28608DE5 		str	r6, [sp, #40]
 6164 0274 2C508DE5 		str	r5, [sp, #44]
 6165 0278 03008DE8 		stm	sp, {r0, r1}
 6166 027c 0810A0E1 		mov	r1, r8
 6167 0280 0C0093E8 		ldm	r3, {r2, r3}
 6168 0284 78008DE2 		add	r0, sp, #120
 6169 0288 48908DE5 		str	r9, [sp, #72]
 6170 028c 50A08DE5 		str	r10, [sp, #80]
 6171 0290 FEFFFFEB 		bl	_ZN6tflite7testing12_GLOBAL__N_112ModelBuilder7AddNodeEiSt16initializer_listIlES4_
 6172 0294 40308DE2 		add	r3, sp, #64
 6173 0298 38708DE5 		str	r7, [sp, #56]
 6174 029c 40608DE5 		str	r6, [sp, #64]
 6175 02a0 0220A0E3 		mov	r2, #2
 6176 02a4 0C709DE5 		ldr	r7, [sp, #12]
 6177 02a8 44508DE5 		str	r5, [sp, #68]
 6178 02ac 030093E8 		ldm	r3, {r0, r1}
 6179 02b0 38308DE2 		add	r3, sp, #56
 6180 02b4 3C208DE5 		str	r2, [sp, #60]
 6181 02b8 50B08DE5 		str	fp, [sp, #80]
 6182 02bc 03008DE8 		stm	sp, {r0, r1}
 6183 02c0 0810A0E1 		mov	r1, r8
 6184 02c4 0C0093E8 		ldm	r3, {r2, r3}
 6185 02c8 78008DE2 		add	r0, sp, #120
 6186 02cc 54A08DE5 		str	r10, [sp, #84]
 6187 02d0 48708DE5 		str	r7, [sp, #72]
 6188 02d4 FEFFFFEB 		bl	_ZN6tflite7testing12_GLOBAL__N_112ModelBuilder7AddNodeEiSt16initializer_listIlES4_
 6189 02d8 A62F8DE2 		add	r2, sp, #664
 6190 02dc 04408DE5 		str	r4, [sp, #4]
 6191 02e0 02C0A0E1 		mov	ip, r2
 6192 02e4 00508DE5 		str	r5, [sp]
 6193 02e8 4C508DE5 		str	r5, [sp, #76]
 6194 02ec 78008DE2 		add	r0, sp, #120
 6195 02f0 889222E5 		str	r9, [r2, #-648]!
 6196 02f4 84722CE5 		str	r7, [ip, #-644]!
 6197 02f8 0C30A0E1 		mov	r3, ip
 6198 02fc 48208DE5 		str	r2, [sp, #72]
 6199 0300 060096E8 		ldm	r6, {r1, r2}
 6200 0304 54508DE5 		str	r5, [sp, #84]
 6201 0308 50C08DE5 		str	ip, [sp, #80]
 6202 030c FEFFFFEB 		bl	_ZN6tflite7testing12_GLOBAL__N_112ModelBuilder10BuildModelESt16initializer_listIlES4_j
 6203 0310 A7DF8DE2 		add	sp, sp, #668
 6204              		@ sp needed
 6205 0314 F08FBDE8 		pop	{r4, r5, r6, r7, r8, r9, r10, fp, pc}
 6206              		.fnend
 6208              		.section	.text._ZN6tflite7testing12_GLOBAL__N_129BuildModelWithOfflinePlanningEiPKlPNS0_15NodeConn
 6209              		.align	2
 6210              		.syntax unified
 6211              		.arm
 6212              		.fpu neon
 6214              	_ZN6tflite7testing12_GLOBAL__N_129BuildModelWithOfflinePlanningEiPKlPNS0_15NodeConnection_Eii:
 6215              		.fnstart
 6216              	.LFB6971:
 6217              		@ args = 4, pretend = 0, frame = 584
 6218              		@ frame_needed = 0, uses_anonymous_args = 0
 6219 0000 F04F2DE9 		push	{r4, r5, r6, r7, r8, r9, r10, fp, lr}
 6220              		.save {r4, r5, r6, r7, r8, r9, r10, fp, lr}
 6221              		.pad #612
 6222 0004 99DF4DE2 		sub	sp, sp, #612
 6223 0008 0040A0E1 		mov	r4, r0
 6224 000c 3C108DE5 		str	r1, [sp, #60]
 6225 0010 34208DE5 		str	r2, [sp, #52]
 6226 0014 24308DE5 		str	r3, [sp, #36]
 6227 0018 38008DE5 		str	r0, [sp, #56]
 6228 001c FEFFFFEB 		bl	_ZN6tflite7testing12_GLOBAL__N_115BuilderInstanceEv
 6229 0020 5000C0F2 		vmov.i32	q8, #0  @ v4si
 6230 0024 001000E3 		movw	r1, #:lower16:.LC35
 6231 0028 0030A0E3 		mov	r3, #0
 6232 002c 001040E3 		movt	r1, #:upper16:.LC35
 6233 0030 2020A0E3 		mov	r2, #32
 6234 0034 44308DE5 		str	r3, [sp, #68]
 6235 0038 48308DE5 		str	r3, [sp, #72]
 6236 003c 4C308DE5 		str	r3, [sp, #76]
 6237 0040 60308DE5 		str	r3, [sp, #96]
 6238 0044 64308DE5 		str	r3, [sp, #100]
 6239 0048 68308DE5 		str	r3, [sp, #104]
 6240 004c 6C308DE5 		str	r3, [sp, #108]
 6241 0050 30318DE5 		str	r3, [sp, #304]
 6242 0054 34318DE5 		str	r3, [sp, #308]
 6243 0058 38318DE5 		str	r3, [sp, #312]
 6244 005c 3C318DE5 		str	r3, [sp, #316]
 6245 0060 40318DE5 		str	r3, [sp, #320]
 6246 0064 44318DE5 		str	r3, [sp, #324]
 6247 0068 40008DE5 		str	r0, [sp, #64]
 6248 006c 140BCDED 		vstr	d16, [sp, #80]
 6249 0070 161BCDED 		vstr	d17, [sp, #88]
 6250 0074 1C0BCDED 		vstr	d16, [sp, #112]
 6251 0078 1E1BCDED 		vstr	d17, [sp, #120]
 6252 007c 200BCDED 		vstr	d16, [sp, #128]
 6253 0080 221BCDED 		vstr	d17, [sp, #136]
 6254 0084 240BCDED 		vstr	d16, [sp, #144]
 6255 0088 261BCDED 		vstr	d17, [sp, #152]
 6256 008c 280BCDED 		vstr	d16, [sp, #160]
 6257 0090 2A1BCDED 		vstr	d17, [sp, #168]
 6258 0094 2C0BCDED 		vstr	d16, [sp, #176]
 6259 0098 2E1BCDED 		vstr	d17, [sp, #184]
 6260 009c 300BCDED 		vstr	d16, [sp, #192]
 6261 00a0 321BCDED 		vstr	d17, [sp, #200]
 6262 00a4 340BCDED 		vstr	d16, [sp, #208]
 6263 00a8 361BCDED 		vstr	d17, [sp, #216]
 6264 00ac 380BCDED 		vstr	d16, [sp, #224]
 6265 00b0 3A1BCDED 		vstr	d17, [sp, #232]
 6266 00b4 3C0BCDED 		vstr	d16, [sp, #240]
 6267 00b8 3E1BCDED 		vstr	d17, [sp, #248]
 6268 00bc 400BCDED 		vstr	d16, [sp, #256]
 6269 00c0 421BCDED 		vstr	d17, [sp, #264]
 6270 00c4 440BCDED 		vstr	d16, [sp, #272]
 6271 00c8 461BCDED 		vstr	d17, [sp, #280]
 6272 00cc 480BCDED 		vstr	d16, [sp, #288]
 6273 00d0 4A1BCDED 		vstr	d17, [sp, #296]
 6274 00d4 520BCDED 		vstr	d16, [sp, #328]
 6275 00d8 541BCDED 		vstr	d17, [sp, #336]
 6276 00dc 560BCDED 		vstr	d16, [sp, #344]
 6277 00e0 581BCDED 		vstr	d17, [sp, #352]
 6278 00e4 5A0BCDED 		vstr	d16, [sp, #360]
 6279 00e8 5C1BCDED 		vstr	d17, [sp, #368]
 6280 00ec 5E0BCDED 		vstr	d16, [sp, #376]
 6281 00f0 601BCDED 		vstr	d17, [sp, #384]
 6282 00f4 620BCDED 		vstr	d16, [sp, #392]
 6283 00f8 641BCDED 		vstr	d17, [sp, #400]
 6284 00fc 660BCDED 		vstr	d16, [sp, #408]
 6285 0100 681BCDED 		vstr	d17, [sp, #416]
 6286 0104 F8318DE5 		str	r3, [sp, #504]
 6287 0108 FC318DE5 		str	r3, [sp, #508]
 6288 010c 00328DE5 		str	r3, [sp, #512]
 6289 0110 04328DE5 		str	r3, [sp, #516]
 6290 0114 08328DE5 		str	r3, [sp, #520]
 6291 0118 0C328DE5 		str	r3, [sp, #524]
 6292 011c 20328DE5 		str	r3, [sp, #544]
 6293 0120 24328DE5 		str	r3, [sp, #548]
 6294 0124 28328DE5 		str	r3, [sp, #552]
 6295 0128 2C328DE5 		str	r3, [sp, #556]
 6296 012c 30328DE5 		str	r3, [sp, #560]
 6297 0130 34328DE5 		str	r3, [sp, #564]
 6298 0134 48328DE5 		str	r3, [sp, #584]
 6299 0138 4C328DE5 		str	r3, [sp, #588]
 6300 013c 50328DE5 		str	r3, [sp, #592]
 6301 0140 54328DE5 		str	r3, [sp, #596]
 6302 0144 58328DE5 		str	r3, [sp, #600]
 6303 0148 6A0BCDED 		vstr	d16, [sp, #424]
 6304 014c 6C1BCDED 		vstr	d17, [sp, #432]
 6305 0150 6E0BCDED 		vstr	d16, [sp, #440]
 6306 0154 701BCDED 		vstr	d17, [sp, #448]
 6307 0158 720BCDED 		vstr	d16, [sp, #456]
 6308 015c 741BCDED 		vstr	d17, [sp, #464]
 6309 0160 760BCDED 		vstr	d16, [sp, #472]
 6310 0164 781BCDED 		vstr	d17, [sp, #480]
 6311 0168 7A0BCDED 		vstr	d16, [sp, #488]
 6312 016c 7C1BCDED 		vstr	d17, [sp, #496]
 6313 0170 840BCDED 		vstr	d16, [sp, #528]
 6314 0174 861BCDED 		vstr	d17, [sp, #536]
 6315 0178 8E0BCDED 		vstr	d16, [sp, #568]
 6316 017c 901BCDED 		vstr	d17, [sp, #576]
 6317 0180 FEFFFFEB 		bl	_ZN6tflite24CreateOperatorCodeDirectERN11flatbuffers17FlatBufferBuilderEaPKclNS_15BuiltinOperat
 6318 0184 6C309DE5 		ldr	r3, [sp, #108]
 6319 0188 000054E3 		cmp	r4, #0
 6320 018c 44008DE5 		str	r0, [sp, #68]
 6321 0190 30308DE5 		str	r3, [sp, #48]
 6322 0194 013083E2 		add	r3, r3, #1
 6323 0198 6C308DE5 		str	r3, [sp, #108]
 6324 019c 940000DA 		ble	.L1322
 6325 01a0 58529DE5 		ldr	r5, [sp, #600]
 6326 01a4 320055E3 		cmp	r5, #50
 6327 01a8 BD0200CA 		bgt	.L1330
 6328 01ac 40409DE5 		ldr	r4, [sp, #64]
 6329 01b0 2630D4E5 		ldrb	r3, [r4, #38]	@ zero_extendqisi2
 6330 01b4 206094E5 		ldr	r6, [r4, #32]
 6331 01b8 000053E3 		cmp	r3, #0
 6332 01bc C202001A 		bne	.L1325
 6333 01c0 000056E3 		cmp	r6, #0
 6334 01c4 BF02001A 		bne	.L1327
 6335 01c8 007000E3 		movw	r7, #:lower16:.LANCHOR23
 6336 01cc 38909DE5 		ldr	r9, [sp, #56]
 6337 01d0 007040E3 		movt	r7, #:upper16:.LANCHOR23
 6338 01d4 080000EA 		b	.L1333
 6339              	.L1529:
 6340 01d8 320055E3 		cmp	r5, #50
 6341 01dc B00200CA 		bgt	.L1330
 6342 01e0 40409DE5 		ldr	r4, [sp, #64]
 6343 01e4 2620D4E5 		ldrb	r2, [r4, #38]	@ zero_extendqisi2
 6344 01e8 203094E5 		ldr	r3, [r4, #32]
 6345 01ec 000052E3 		cmp	r2, #0
 6346 01f0 B502001A 		bne	.L1325
 6347 01f4 000053E3 		cmp	r3, #0
 6348 01f8 B202001A 		bne	.L1327
 6349              	.L1333:
 6350 01fc 283094E5 		ldr	r3, [r4, #40]
 6351 0200 0120A0E3 		mov	r2, #1
 6352 0204 2620C4E5 		strb	r2, [r4, #38]
 6353 0208 0400A0E1 		mov	r0, r4
 6354 020c 188094E5 		ldr	r8, [r4, #24]
 6355 0210 030053E3 		cmp	r3, #3
 6356 0214 142094E5 		ldr	r2, [r4, #20]
 6357 0218 0430A093 		movls	r3, #4
 6358 021c 28308495 		strls	r3, [r4, #40]
 6359 0220 103094E5 		ldr	r3, [r4, #16]
 6360 0224 028048E0 		sub	r8, r8, r2
 6361 0228 038048E0 		sub	r8, r8, r3
 6362 022c 038008E2 		and	r8, r8, #3
 6363 0230 0810A0E1 		mov	r1, r8
 6364 0234 FEFFFFEB 		bl	_ZN11flatbuffers15vector_downward12ensure_spaceEj
 6365 0238 183094E5 		ldr	r3, [r4, #24]
 6366 023c 000058E3 		cmp	r8, #0
 6367 0240 003043E0 		sub	r3, r3, r0
 6368 0244 183084E5 		str	r3, [r4, #24]
 6369 0248 0900000A 		beq	.L1336
 6370 024c 010058E3 		cmp	r8, #1
 6371 0250 0020A0E3 		mov	r2, #0
 6372 0254 0020C3E5 		strb	r2, [r3]
 6373 0258 0400000A 		beq	.L1337
 6374 025c 183094E5 		ldr	r3, [r4, #24]
 6375 0260 020058E3 		cmp	r8, #2
 6376 0264 0120C3E5 		strb	r2, [r3, #1]
 6377 0268 18309415 		ldrne	r3, [r4, #24]
 6378 026c 0220C315 		strbne	r2, [r3, #2]
 6379              	.L1337:
 6380 0270 183094E5 		ldr	r3, [r4, #24]
 6381              	.L1336:
 6382 0274 282094E5 		ldr	r2, [r4, #40]
 6383 0278 0400A0E1 		mov	r0, r4
 6384 027c 148094E5 		ldr	r8, [r4, #20]
 6385 0280 030052E3 		cmp	r2, #3
 6386 0284 0420A093 		movls	r2, #4
 6387 0288 088043E0 		sub	r8, r3, r8
 6388 028c 28208495 		strls	r2, [r4, #40]
 6389 0290 102094E5 		ldr	r2, [r4, #16]
 6390 0294 028048E0 		sub	r8, r8, r2
 6391 0298 038008E2 		and	r8, r8, #3
 6392 029c 0810A0E1 		mov	r1, r8
 6393 02a0 FEFFFFEB 		bl	_ZN11flatbuffers15vector_downward12ensure_spaceEj
 6394 02a4 183094E5 		ldr	r3, [r4, #24]
 6395 02a8 000058E3 		cmp	r8, #0
 6396 02ac 000043E0 		sub	r0, r3, r0
 6397 02b0 180084E5 		str	r0, [r4, #24]
 6398 02b4 0800000A 		beq	.L1339
 6399 02b8 010058E3 		cmp	r8, #1
 6400 02bc 0030A0E3 		mov	r3, #0
 6401 02c0 0030C0E5 		strb	r3, [r0]
 6402 02c4 0400000A 		beq	.L1339
 6403 02c8 182094E5 		ldr	r2, [r4, #24]
 6404 02cc 020058E3 		cmp	r8, #2
 6405 02d0 0130C2E5 		strb	r3, [r2, #1]
 6406 02d4 18209415 		ldrne	r2, [r4, #24]
 6407 02d8 0230C215 		strbne	r3, [r2, #2]
 6408              	.L1339:
 6409 02dc 0C10A0E3 		mov	r1, #12
 6410 02e0 0400A0E1 		mov	r0, r4
 6411 02e4 FEFFFFEB 		bl	_ZN11flatbuffers15vector_downward12ensure_spaceEj
 6412 02e8 183094E5 		ldr	r3, [r4, #24]
 6413 02ec 0C20A0E3 		mov	r2, #12
 6414 02f0 0710A0E1 		mov	r1, r7
 6415 02f4 000043E0 		sub	r0, r3, r0
 6416 02f8 180084E5 		str	r0, [r4, #24]
 6417 02fc FEFFFFEB 		bl	memcpy
 6418 0300 2630D4E5 		ldrb	r3, [r4, #38]	@ zero_extendqisi2
 6419 0304 000053E3 		cmp	r3, #0
 6420 0308 6602000A 		beq	.L1352
 6421 030c 283094E5 		ldr	r3, [r4, #40]
 6422 0310 0020A0E3 		mov	r2, #0
 6423 0314 2620C4E5 		strb	r2, [r4, #38]
 6424 0318 0400A0E1 		mov	r0, r4
 6425 031c 188094E5 		ldr	r8, [r4, #24]
 6426 0320 030053E3 		cmp	r3, #3
 6427 0324 142094E5 		ldr	r2, [r4, #20]
 6428 0328 0430A093 		movls	r3, #4
 6429 032c 28308495 		strls	r3, [r4, #40]
 6430 0330 103094E5 		ldr	r3, [r4, #16]
 6431 0334 028048E0 		sub	r8, r8, r2
 6432 0338 038048E0 		sub	r8, r8, r3
 6433 033c 038008E2 		and	r8, r8, #3
 6434 0340 0810A0E1 		mov	r1, r8
 6435 0344 FEFFFFEB 		bl	_ZN11flatbuffers15vector_downward12ensure_spaceEj
 6436 0348 183094E5 		ldr	r3, [r4, #24]
 6437 034c 000058E3 		cmp	r8, #0
 6438 0350 000043E0 		sub	r0, r3, r0
 6439 0354 180084E5 		str	r0, [r4, #24]
 6440 0358 0800000A 		beq	.L1342
 6441 035c 010058E3 		cmp	r8, #1
 6442 0360 0030A0E3 		mov	r3, #0
 6443 0364 0030C0E5 		strb	r3, [r0]
 6444 0368 0400000A 		beq	.L1342
 6445 036c 182094E5 		ldr	r2, [r4, #24]
 6446 0370 020058E3 		cmp	r8, #2
 6447 0374 0130C2E5 		strb	r3, [r2, #1]
 6448 0378 18209415 		ldrne	r2, [r4, #24]
 6449 037c 0230C215 		strbne	r3, [r2, #2]
 6450              	.L1342:
 6451 0380 0410A0E3 		mov	r1, #4
 6452 0384 0400A0E1 		mov	r0, r4
 6453 0388 FEFFFFEB 		bl	_ZN11flatbuffers15vector_downward12ensure_spaceEj
 6454 038c 182094E5 		ldr	r2, [r4, #24]
 6455 0390 0030A0E3 		mov	r3, #0
 6456 0394 141094E5 		ldr	r1, [r4, #20]
 6457 0398 03E0A0E3 		mov	lr, #3
 6458 039c 10C094E5 		ldr	ip, [r4, #16]
 6459 03a0 3E5085E2 		add	r5, r5, #62
 6460 03a4 002042E0 		sub	r2, r2, r0
 6461 03a8 0400A0E1 		mov	r0, r4
 6462 03ac 011042E0 		sub	r1, r2, r1
 6463 03b0 182084E5 		str	r2, [r4, #24]
 6464 03b4 01104CE0 		sub	r1, ip, r1
 6465 03b8 00E082E5 		str	lr, [r2]
 6466 03bc 26CE8DE2 		add	ip, sp, #608
 6467 03c0 08308DE5 		str	r3, [sp, #8]
 6468 03c4 04308DE5 		str	r3, [sp, #4]
 6469 03c8 0320A0E1 		mov	r2, r3
 6470 03cc 00308DE5 		str	r3, [sp]
 6471 03d0 05418CE0 		add	r4, ip, r5, lsl #2
 6472 03d4 016086E2 		add	r6, r6, #1
 6473 03d8 FEFFFFEB 		bl	_ZN6tflite12CreateTensorERN11flatbuffers17FlatBufferBuilderENS0_6OffsetINS0_6VectorIlEEEENS_10T
 6474 03dc 58529DE5 		ldr	r5, [sp, #600]
 6475 03e0 060059E1 		cmp	r9, r6
 6476 03e4 1C0204E5 		str	r0, [r4, #-540]
 6477 03e8 015085E2 		add	r5, r5, #1
 6478 03ec 58528DE5 		str	r5, [sp, #600]
 6479 03f0 78FFFF1A 		bne	.L1529
 6480              	.L1322:
 6481 03f4 24309DE5 		ldr	r3, [sp, #36]
 6482 03f8 000053E3 		cmp	r3, #0
 6483 03fc 6E0100DA 		ble	.L1371
 6484 0400 34309DE5 		ldr	r3, [sp, #52]
 6485 0404 38619DE5 		ldr	r6, [sp, #312]
 6486 0408 002093E5 		ldr	r2, [r3]
 6487 040c 320056E3 		cmp	r6, #50
 6488 0410 044093E5 		ldr	r4, [r3, #4]
 6489 0414 0C9093E5 		ldr	r9, [r3, #12]
 6490 0418 28208DE5 		str	r2, [sp, #40]
 6491 041c 082093E5 		ldr	r2, [r3, #8]
 6492 0420 2C208DE5 		str	r2, [sp, #44]
 6493 0424 1E0200CA 		bgt	.L1330
 6494 0428 0380A0E1 		mov	r8, r3
 6495 042c 0030A0E3 		mov	r3, #0
 6496 0430 1C308DE5 		str	r3, [sp, #28]
 6497 0434 0350A0E1 		mov	r5, r3
 6498 0438 04A0A0E3 		mov	r10, #4
 6499 043c B40000EA 		b	.L1345
 6500              	.L1356:
 6501 0440 2620DBE5 		ldrb	r2, [fp, #38]	@ zero_extendqisi2
 6502 0444 000052E3 		cmp	r2, #0
 6503 0448 1602000A 		beq	.L1352
 6504 044c 28209BE5 		ldr	r2, [fp, #40]
 6505 0450 0B00A0E1 		mov	r0, fp
 6506 0454 14109BE5 		ldr	r1, [fp, #20]
 6507 0458 18709BE5 		ldr	r7, [fp, #24]
 6508 045c 030052E3 		cmp	r2, #3
 6509 0460 10209BE5 		ldr	r2, [fp, #16]
 6510 0464 28A08B95 		strls	r10, [fp, #40]
 6511 0468 017047E0 		sub	r7, r7, r1
 6512 046c 2650CBE5 		strb	r5, [fp, #38]
 6513 0470 027047E0 		sub	r7, r7, r2
 6514 0474 037007E2 		and	r7, r7, #3
 6515 0478 0710A0E1 		mov	r1, r7
 6516 047c FEFFFFEB 		bl	_ZN11flatbuffers15vector_downward12ensure_spaceEj
 6517 0480 18209BE5 		ldr	r2, [fp, #24]
 6518 0484 000057E3 		cmp	r7, #0
 6519 0488 000042E0 		sub	r0, r2, r0
 6520 048c 18008BE5 		str	r0, [fp, #24]
 6521 0490 0700000A 		beq	.L1358
 6522 0494 010057E3 		cmp	r7, #1
 6523 0498 0050C0E5 		strb	r5, [r0]
 6524 049c 0400000A 		beq	.L1358
 6525 04a0 18209BE5 		ldr	r2, [fp, #24]
 6526 04a4 020057E3 		cmp	r7, #2
 6527 04a8 0150C2E5 		strb	r5, [r2, #1]
 6528 04ac 18209B15 		ldrne	r2, [fp, #24]
 6529 04b0 0250C215 		strbne	r5, [r2, #2]
 6530              	.L1358:
 6531 04b4 0410A0E3 		mov	r1, #4
 6532 04b8 0B00A0E1 		mov	r0, fp
 6533 04bc FEFFFFEB 		bl	_ZN11flatbuffers15vector_downward12ensure_spaceEj
 6534 04c0 18209BE5 		ldr	r2, [fp, #24]
 6535 04c4 14109BE5 		ldr	r1, [fp, #20]
 6536 04c8 10709BE5 		ldr	r7, [fp, #16]
 6537 04cc 000042E0 		sub	r0, r2, r0
 6538 04d0 011040E0 		sub	r1, r0, r1
 6539 04d4 18008BE5 		str	r0, [fp, #24]
 6540 04d8 017047E0 		sub	r7, r7, r1
 6541 04dc 004080E5 		str	r4, [r0]
 6542              	.L1355:
 6543 04e0 40409DE5 		ldr	r4, [sp, #64]
 6544 04e4 2620D4E5 		ldrb	r2, [r4, #38]	@ zero_extendqisi2
 6545 04e8 203094E5 		ldr	r3, [r4, #32]
 6546 04ec 000052E3 		cmp	r2, #0
 6547 04f0 F501001A 		bne	.L1325
 6548 04f4 000053E3 		cmp	r3, #0
 6549 04f8 F201001A 		bne	.L1327
 6550 04fc 283094E5 		ldr	r3, [r4, #40]
 6551 0500 0120A0E3 		mov	r2, #1
 6552 0504 141094E5 		ldr	r1, [r4, #20]
 6553 0508 0400A0E1 		mov	r0, r4
 6554 050c 2620C4E5 		strb	r2, [r4, #38]
 6555 0510 09B1A0E1 		lsl	fp, r9, #2
 6556 0514 182094E5 		ldr	r2, [r4, #24]
 6557 0518 030053E3 		cmp	r3, #3
 6558 051c 103094E5 		ldr	r3, [r4, #16]
 6559 0520 28A08495 		strls	r10, [r4, #40]
 6560 0524 012042E0 		sub	r2, r2, r1
 6561 0528 032042E0 		sub	r2, r2, r3
 6562 052c 032002E2 		and	r2, r2, #3
 6563 0530 0210A0E1 		mov	r1, r2
 6564 0534 20208DE5 		str	r2, [sp, #32]
 6565 0538 FEFFFFEB 		bl	_ZN11flatbuffers15vector_downward12ensure_spaceEj
 6566 053c 20209DE5 		ldr	r2, [sp, #32]
 6567 0540 183094E5 		ldr	r3, [r4, #24]
 6568 0544 000052E3 		cmp	r2, #0
 6569 0548 003043E0 		sub	r3, r3, r0
 6570 054c 183084E5 		str	r3, [r4, #24]
 6571 0550 0800000A 		beq	.L1360
 6572 0554 010052E3 		cmp	r2, #1
 6573 0558 0050C3E5 		strb	r5, [r3]
 6574 055c 0400000A 		beq	.L1361
 6575 0560 183094E5 		ldr	r3, [r4, #24]
 6576 0564 020052E3 		cmp	r2, #2
 6577 0568 0150C3E5 		strb	r5, [r3, #1]
 6578 056c 18309415 		ldrne	r3, [r4, #24]
 6579 0570 0250C315 		strbne	r5, [r3, #2]
 6580              	.L1361:
 6581 0574 183094E5 		ldr	r3, [r4, #24]
 6582              	.L1360:
 6583 0578 282094E5 		ldr	r2, [r4, #40]
 6584 057c 0400A0E1 		mov	r0, r4
 6585 0580 141094E5 		ldr	r1, [r4, #20]
 6586 0584 030052E3 		cmp	r2, #3
 6587 0588 102094E5 		ldr	r2, [r4, #16]
 6588 058c 013043E0 		sub	r3, r3, r1
 6589 0590 28A08495 		strls	r10, [r4, #40]
 6590 0594 023043E0 		sub	r3, r3, r2
 6591 0598 033003E2 		and	r3, r3, #3
 6592 059c 0310A0E1 		mov	r1, r3
 6593 05a0 20308DE5 		str	r3, [sp, #32]
 6594 05a4 FEFFFFEB 		bl	_ZN11flatbuffers15vector_downward12ensure_spaceEj
 6595 05a8 20309DE5 		ldr	r3, [sp, #32]
 6596 05ac 182094E5 		ldr	r2, [r4, #24]
 6597 05b0 000053E3 		cmp	r3, #0
 6598 05b4 000042E0 		sub	r0, r2, r0
 6599 05b8 180084E5 		str	r0, [r4, #24]
 6600 05bc 0700000A 		beq	.L1363
 6601 05c0 010053E3 		cmp	r3, #1
 6602 05c4 0050C0E5 		strb	r5, [r0]
 6603 05c8 0400000A 		beq	.L1363
 6604 05cc 182094E5 		ldr	r2, [r4, #24]
 6605 05d0 020053E3 		cmp	r3, #2
 6606 05d4 0150C2E5 		strb	r5, [r2, #1]
 6607 05d8 18309415 		ldrne	r3, [r4, #24]
 6608 05dc 0250C315 		strbne	r5, [r3, #2]
 6609              	.L1363:
 6610 05e0 000059E3 		cmp	r9, #0
 6611 05e4 A200000A 		beq	.L1534
 6612 05e8 00005BE3 		cmp	fp, #0
 6613 05ec 9600001A 		bne	.L1535
 6614              	.L1368:
 6615 05f0 2630D4E5 		ldrb	r3, [r4, #38]	@ zero_extendqisi2
 6616 05f4 000053E3 		cmp	r3, #0
 6617 05f8 AA01000A 		beq	.L1352
 6618 05fc 283094E5 		ldr	r3, [r4, #40]
 6619 0600 0400A0E1 		mov	r0, r4
 6620 0604 18B094E5 		ldr	fp, [r4, #24]
 6621 0608 142094E5 		ldr	r2, [r4, #20]
 6622 060c 030053E3 		cmp	r3, #3
 6623 0610 103094E5 		ldr	r3, [r4, #16]
 6624 0614 28A08495 		strls	r10, [r4, #40]
 6625 0618 02B04BE0 		sub	fp, fp, r2
 6626 061c 2650C4E5 		strb	r5, [r4, #38]
 6627 0620 03B04BE0 		sub	fp, fp, r3
 6628 0624 03B00BE2 		and	fp, fp, #3
 6629 0628 0B10A0E1 		mov	r1, fp
 6630 062c FEFFFFEB 		bl	_ZN11flatbuffers15vector_downward12ensure_spaceEj
 6631 0630 183094E5 		ldr	r3, [r4, #24]
 6632 0634 00005BE3 		cmp	fp, #0
 6633 0638 000043E0 		sub	r0, r3, r0
 6634 063c 180084E5 		str	r0, [r4, #24]
 6635 0640 0700000A 		beq	.L1370
 6636 0644 01005BE3 		cmp	fp, #1
 6637 0648 0050C0E5 		strb	r5, [r0]
 6638 064c 0400000A 		beq	.L1370
 6639 0650 183094E5 		ldr	r3, [r4, #24]
 6640 0654 02005BE3 		cmp	fp, #2
 6641 0658 0150C3E5 		strb	r5, [r3, #1]
 6642 065c 18309415 		ldrne	r3, [r4, #24]
 6643 0660 0250C315 		strbne	r5, [r3, #2]
 6644              	.L1370:
 6645 0664 0410A0E3 		mov	r1, #4
 6646 0668 0400A0E1 		mov	r0, r4
 6647 066c FEFFFFEB 		bl	_ZN11flatbuffers15vector_downward12ensure_spaceEj
 6648 0670 182094E5 		ldr	r2, [r4, #24]
 6649 0674 141094E5 		ldr	r1, [r4, #20]
 6650 0678 103094E5 		ldr	r3, [r4, #16]
 6651 067c 000042E0 		sub	r0, r2, r0
 6652 0680 011040E0 		sub	r1, r0, r1
 6653 0684 180084E5 		str	r0, [r4, #24]
 6654 0688 013043E0 		sub	r3, r3, r1
 6655 068c 009080E5 		str	r9, [r0]
 6656              	.L1367:
 6657 0690 0C6086E2 		add	r6, r6, #12
 6658 0694 26CE8DE2 		add	ip, sp, #608
 6659 0698 0400A0E1 		mov	r0, r4
 6660 069c 06418CE0 		add	r4, ip, r6, lsl #2
 6661 06a0 1CC09DE5 		ldr	ip, [sp, #28]
 6662 06a4 0720A0E1 		mov	r2, r7
 6663 06a8 14508DE5 		str	r5, [sp, #20]
 6664 06ac 10508DE5 		str	r5, [sp, #16]
 6665 06b0 01C08CE2 		add	ip, ip, #1
 6666 06b4 0C508DE5 		str	r5, [sp, #12]
 6667 06b8 08508DE5 		str	r5, [sp, #8]
 6668 06bc 0C70A0E1 		mov	r7, ip
 6669 06c0 04508DE5 		str	r5, [sp, #4]
 6670 06c4 30109DE5 		ldr	r1, [sp, #48]
 6671 06c8 00508DE5 		str	r5, [sp]
 6672 06cc 1CC08DE5 		str	ip, [sp, #28]
 6673 06d0 FEFFFFEB 		bl	_ZN6tflite14CreateOperatorERN11flatbuffers17FlatBufferBuilderEmNS0_6OffsetINS0_6VectorIlEEEES6_
 6674 06d4 24309DE5 		ldr	r3, [sp, #36]
 6675 06d8 38619DE5 		ldr	r6, [sp, #312]
 6676 06dc 200204E5 		str	r0, [r4, #-544]
 6677 06e0 070053E1 		cmp	r3, r7
 6678 06e4 016086E2 		add	r6, r6, #1
 6679 06e8 38618DE5 		str	r6, [sp, #312]
 6680 06ec B200000A 		beq	.L1371
 6681 06f0 103098E5 		ldr	r3, [r8, #16]
 6682 06f4 320056E3 		cmp	r6, #50
 6683 06f8 144098E5 		ldr	r4, [r8, #20]
 6684 06fc 108088E2 		add	r8, r8, #16
 6685 0700 28308DE5 		str	r3, [sp, #40]
 6686 0704 083098E5 		ldr	r3, [r8, #8]
 6687 0708 2C308DE5 		str	r3, [sp, #44]
 6688 070c 0C9098E5 		ldr	r9, [r8, #12]
 6689 0710 630100CA 		bgt	.L1330
 6690              	.L1345:
 6691 0714 40B09DE5 		ldr	fp, [sp, #64]
 6692 0718 2610DBE5 		ldrb	r1, [fp, #38]	@ zero_extendqisi2
 6693 071c 20209BE5 		ldr	r2, [fp, #32]
 6694 0720 000051E3 		cmp	r1, #0
 6695 0724 6801001A 		bne	.L1325
 6696 0728 000052E3 		cmp	r2, #0
 6697 072c 6501001A 		bne	.L1327
 6698 0730 28209BE5 		ldr	r2, [fp, #40]
 6699 0734 0130A0E3 		mov	r3, #1
 6700 0738 14C09BE5 		ldr	ip, [fp, #20]
 6701 073c 0B00A0E1 		mov	r0, fp
 6702 0740 10109BE5 		ldr	r1, [fp, #16]
 6703 0744 0471A0E1 		lsl	r7, r4, #2
 6704 0748 030052E3 		cmp	r2, #3
 6705 074c 18209BE5 		ldr	r2, [fp, #24]
 6706 0750 28A08B95 		strls	r10, [fp, #40]
 6707 0754 2630CBE5 		strb	r3, [fp, #38]
 6708 0758 0C2042E0 		sub	r2, r2, ip
 6709 075c 012042E0 		sub	r2, r2, r1
 6710 0760 032002E2 		and	r2, r2, #3
 6711 0764 0210A0E1 		mov	r1, r2
 6712 0768 20208DE5 		str	r2, [sp, #32]
 6713 076c FEFFFFEB 		bl	_ZN11flatbuffers15vector_downward12ensure_spaceEj
 6714 0770 20209DE5 		ldr	r2, [sp, #32]
 6715 0774 18109BE5 		ldr	r1, [fp, #24]
 6716 0778 000052E3 		cmp	r2, #0
 6717 077c 001041E0 		sub	r1, r1, r0
 6718 0780 18108BE5 		str	r1, [fp, #24]
 6719 0784 0800000A 		beq	.L1347
 6720 0788 010052E3 		cmp	r2, #1
 6721 078c 0050C1E5 		strb	r5, [r1]
 6722 0790 0400000A 		beq	.L1348
 6723 0794 18109BE5 		ldr	r1, [fp, #24]
 6724 0798 020052E3 		cmp	r2, #2
 6725 079c 0150C1E5 		strb	r5, [r1, #1]
 6726 07a0 18209B15 		ldrne	r2, [fp, #24]
 6727 07a4 0250C215 		strbne	r5, [r2, #2]
 6728              	.L1348:
 6729 07a8 18109BE5 		ldr	r1, [fp, #24]
 6730              	.L1347:
 6731 07ac 28209BE5 		ldr	r2, [fp, #40]
 6732 07b0 0B00A0E1 		mov	r0, fp
 6733 07b4 10C09BE5 		ldr	ip, [fp, #16]
 6734 07b8 030052E3 		cmp	r2, #3
 6735 07bc 14209BE5 		ldr	r2, [fp, #20]
 6736 07c0 28A08B95 		strls	r10, [fp, #40]
 6737 07c4 022041E0 		sub	r2, r1, r2
 6738 07c8 0C2042E0 		sub	r2, r2, ip
 6739 07cc 032002E2 		and	r2, r2, #3
 6740 07d0 0210A0E1 		mov	r1, r2
 6741 07d4 20208DE5 		str	r2, [sp, #32]
 6742 07d8 FEFFFFEB 		bl	_ZN11flatbuffers15vector_downward12ensure_spaceEj
 6743 07dc 20209DE5 		ldr	r2, [sp, #32]
 6744 07e0 18109BE5 		ldr	r1, [fp, #24]
 6745 07e4 000052E3 		cmp	r2, #0
 6746 07e8 000041E0 		sub	r0, r1, r0
 6747 07ec 18008BE5 		str	r0, [fp, #24]
 6748 07f0 0700000A 		beq	.L1350
 6749 07f4 010052E3 		cmp	r2, #1
 6750 07f8 0050C0E5 		strb	r5, [r0]
 6751 07fc 0400000A 		beq	.L1350
 6752 0800 18109BE5 		ldr	r1, [fp, #24]
 6753 0804 020052E3 		cmp	r2, #2
 6754 0808 0150C1E5 		strb	r5, [r1, #1]
 6755 080c 18209B15 		ldrne	r2, [fp, #24]
 6756 0810 0250C215 		strbne	r5, [r2, #2]
 6757              	.L1350:
 6758 0814 000054E3 		cmp	r4, #0
 6759 0818 3E00000A 		beq	.L1536
 6760 081c 000057E3 		cmp	r7, #0
 6761 0820 06FFFF0A 		beq	.L1356
 6762 0824 0710A0E1 		mov	r1, r7
 6763 0828 0B00A0E1 		mov	r0, fp
 6764 082c FEFFFFEB 		bl	_ZN11flatbuffers15vector_downward12ensure_spaceEj
 6765 0830 18C09BE5 		ldr	ip, [fp, #24]
 6766 0834 0720A0E1 		mov	r2, r7
 6767 0838 28109DE5 		ldr	r1, [sp, #40]
 6768 083c 00004CE0 		sub	r0, ip, r0
 6769 0840 18008BE5 		str	r0, [fp, #24]
 6770 0844 FEFFFFEB 		bl	memcpy
 6771 0848 FCFEFFEA 		b	.L1356
 6772              	.L1535:
 6773 084c 0B10A0E1 		mov	r1, fp
 6774 0850 0400A0E1 		mov	r0, r4
 6775 0854 FEFFFFEB 		bl	_ZN11flatbuffers15vector_downward12ensure_spaceEj
 6776 0858 183094E5 		ldr	r3, [r4, #24]
 6777 085c 0B20A0E1 		mov	r2, fp
 6778 0860 2C109DE5 		ldr	r1, [sp, #44]
 6779 0864 000043E0 		sub	r0, r3, r0
 6780 0868 180084E5 		str	r0, [r4, #24]
 6781 086c FEFFFFEB 		bl	memcpy
 6782 0870 5EFFFFEA 		b	.L1368
 6783              	.L1534:
 6784 0874 2630D4E5 		ldrb	r3, [r4, #38]	@ zero_extendqisi2
 6785 0878 000053E3 		cmp	r3, #0
 6786 087c 0901000A 		beq	.L1352
 6787 0880 283094E5 		ldr	r3, [r4, #40]
 6788 0884 0400A0E1 		mov	r0, r4
 6789 0888 2690C4E5 		strb	r9, [r4, #38]
 6790 088c 142094E5 		ldr	r2, [r4, #20]
 6791 0890 189094E5 		ldr	r9, [r4, #24]
 6792 0894 030053E3 		cmp	r3, #3
 6793 0898 103094E5 		ldr	r3, [r4, #16]
 6794 089c 28A08495 		strls	r10, [r4, #40]
 6795 08a0 029049E0 		sub	r9, r9, r2
 6796 08a4 039049E0 		sub	r9, r9, r3
 6797 08a8 039009E2 		and	r9, r9, #3
 6798 08ac 0910A0E1 		mov	r1, r9
 6799 08b0 FEFFFFEB 		bl	_ZN11flatbuffers15vector_downward12ensure_spaceEj
 6800 08b4 183094E5 		ldr	r3, [r4, #24]
 6801 08b8 000059E3 		cmp	r9, #0
 6802 08bc 000043E0 		sub	r0, r3, r0
 6803 08c0 180084E5 		str	r0, [r4, #24]
 6804 08c4 0700000A 		beq	.L1366
 6805 08c8 010059E3 		cmp	r9, #1
 6806 08cc 0050C0E5 		strb	r5, [r0]
 6807 08d0 0400000A 		beq	.L1366
 6808 08d4 183094E5 		ldr	r3, [r4, #24]
 6809 08d8 020059E3 		cmp	r9, #2
 6810 08dc 0150C3E5 		strb	r5, [r3, #1]
 6811 08e0 18309415 		ldrne	r3, [r4, #24]
 6812 08e4 0250C315 		strbne	r5, [r3, #2]
 6813              	.L1366:
 6814 08e8 0410A0E3 		mov	r1, #4
 6815 08ec 0400A0E1 		mov	r0, r4
 6816 08f0 FEFFFFEB 		bl	_ZN11flatbuffers15vector_downward12ensure_spaceEj
 6817 08f4 182094E5 		ldr	r2, [r4, #24]
 6818 08f8 141094E5 		ldr	r1, [r4, #20]
 6819 08fc 103094E5 		ldr	r3, [r4, #16]
 6820 0900 000042E0 		sub	r0, r2, r0
 6821 0904 011040E0 		sub	r1, r0, r1
 6822 0908 180084E5 		str	r0, [r4, #24]
 6823 090c 013043E0 		sub	r3, r3, r1
 6824 0910 005080E5 		str	r5, [r0]
 6825 0914 5DFFFFEA 		b	.L1367
 6826              	.L1536:
 6827 0918 2620DBE5 		ldrb	r2, [fp, #38]	@ zero_extendqisi2
 6828 091c 000052E3 		cmp	r2, #0
 6829 0920 E000000A 		beq	.L1352
 6830 0924 28209BE5 		ldr	r2, [fp, #40]
 6831 0928 0B00A0E1 		mov	r0, fp
 6832 092c 14109BE5 		ldr	r1, [fp, #20]
 6833 0930 2640CBE5 		strb	r4, [fp, #38]
 6834 0934 18409BE5 		ldr	r4, [fp, #24]
 6835 0938 030052E3 		cmp	r2, #3
 6836 093c 10209BE5 		ldr	r2, [fp, #16]
 6837 0940 28A08B95 		strls	r10, [fp, #40]
 6838 0944 014044E0 		sub	r4, r4, r1
 6839 0948 024044E0 		sub	r4, r4, r2
 6840 094c 034004E2 		and	r4, r4, #3
 6841 0950 0410A0E1 		mov	r1, r4
 6842 0954 FEFFFFEB 		bl	_ZN11flatbuffers15vector_downward12ensure_spaceEj
 6843 0958 18209BE5 		ldr	r2, [fp, #24]
 6844 095c 000054E3 		cmp	r4, #0
 6845 0960 000042E0 		sub	r0, r2, r0
 6846 0964 18008BE5 		str	r0, [fp, #24]
 6847 0968 0700000A 		beq	.L1354
 6848 096c 010054E3 		cmp	r4, #1
 6849 0970 0050C0E5 		strb	r5, [r0]
 6850 0974 0400000A 		beq	.L1354
 6851 0978 18209BE5 		ldr	r2, [fp, #24]
 6852 097c 020054E3 		cmp	r4, #2
 6853 0980 0150C2E5 		strb	r5, [r2, #1]
 6854 0984 18209B15 		ldrne	r2, [fp, #24]
 6855 0988 0250C215 		strbne	r5, [r2, #2]
 6856              	.L1354:
 6857 098c 0410A0E3 		mov	r1, #4
 6858 0990 0B00A0E1 		mov	r0, fp
 6859 0994 FEFFFFEB 		bl	_ZN11flatbuffers15vector_downward12ensure_spaceEj
 6860 0998 18209BE5 		ldr	r2, [fp, #24]
 6861 099c 14109BE5 		ldr	r1, [fp, #20]
 6862 09a0 10709BE5 		ldr	r7, [fp, #16]
 6863 09a4 000042E0 		sub	r0, r2, r0
 6864 09a8 011040E0 		sub	r1, r0, r1
 6865 09ac 18008BE5 		str	r0, [fp, #24]
 6866 09b0 017047E0 		sub	r7, r7, r1
 6867 09b4 005080E5 		str	r5, [r0]
 6868 09b8 C8FEFFEA 		b	.L1355
 6869              	.L1371:
 6870 09bc 40409DE5 		ldr	r4, [sp, #64]
 6871 09c0 001000E3 		movw	r1, #:lower16:.LC36
 6872 09c4 38309DE5 		ldr	r3, [sp, #56]
 6873 09c8 1720A0E3 		mov	r2, #23
 6874 09cc 001040E3 		movt	r1, #:upper16:.LC36
 6875 09d0 0400A0E1 		mov	r0, r4
 6876 09d4 036083E2 		add	r6, r3, #3
 6877 09d8 FEFFFFEB 		bl	_ZN11flatbuffers17FlatBufferBuilder12CreateStringEPKcj
 6878 09dc 2620D4E5 		ldrb	r2, [r4, #38]	@ zero_extendqisi2
 6879 09e0 0090A0E1 		mov	r9, r0
 6880 09e4 54529DE5 		ldr	r5, [sp, #596]
 6881 09e8 203094E5 		ldr	r3, [r4, #32]
 6882 09ec 000052E3 		cmp	r2, #0
 6883 09f0 018085E2 		add	r8, r5, #1
 6884 09f4 B400001A 		bne	.L1325
 6885 09f8 000053E3 		cmp	r3, #0
 6886 09fc B100001A 		bne	.L1327
 6887 0a00 183094E5 		ldr	r3, [r4, #24]
 6888 0a04 000058E3 		cmp	r8, #0
 6889 0a08 142094E5 		ldr	r2, [r4, #20]
 6890 0a0c 0110A0E3 		mov	r1, #1
 6891 0a10 107094E5 		ldr	r7, [r4, #16]
 6892 0a14 2610C4E5 		strb	r1, [r4, #38]
 6893 0a18 023043E0 		sub	r3, r3, r2
 6894 0a1c 037047E0 		sub	r7, r7, r3
 6895 0a20 5F00001A 		bne	.L1373
 6896 0a24 2C30D4E5 		ldrb	r3, [r4, #44]	@ zero_extendqisi2
 6897 0a28 000053E3 		cmp	r3, #0
 6898 0a2c 5C00001A 		bne	.L1373
 6899 0a30 000059E3 		cmp	r9, #0
 6900 0a34 8E00001A 		bne	.L1537
 6901              	.L1378:
 6902 0a38 0710A0E1 		mov	r1, r7
 6903 0a3c 0400A0E1 		mov	r0, r4
 6904 0a40 FEFFFFEB 		bl	_ZN11flatbuffers17FlatBufferBuilder8EndTableEm
 6905 0a44 40409DE5 		ldr	r4, [sp, #64]
 6906 0a48 263E8DE2 		add	r3, sp, #608
 6907 0a4c 055183E0 		add	r5, r3, r5, lsl #2
 6908 0a50 54729DE5 		ldr	r7, [sp, #596]
 6909 0a54 0661A0E1 		lsl	r6, r6, #2
 6910 0a58 2620D4E5 		ldrb	r2, [r4, #38]	@ zero_extendqisi2
 6911 0a5c 5C0005E5 		str	r0, [r5, #-92]
 6912 0a60 203094E5 		ldr	r3, [r4, #32]
 6913 0a64 000052E3 		cmp	r2, #0
 6914 0a68 9700001A 		bne	.L1325
 6915 0a6c 000053E3 		cmp	r3, #0
 6916 0a70 9400001A 		bne	.L1327
 6917 0a74 283094E5 		ldr	r3, [r4, #40]
 6918 0a78 0120A0E3 		mov	r2, #1
 6919 0a7c 2620C4E5 		strb	r2, [r4, #38]
 6920 0a80 0400A0E1 		mov	r0, r4
 6921 0a84 185094E5 		ldr	r5, [r4, #24]
 6922 0a88 030053E3 		cmp	r3, #3
 6923 0a8c 142094E5 		ldr	r2, [r4, #20]
 6924 0a90 0430A093 		movls	r3, #4
 6925 0a94 28308495 		strls	r3, [r4, #40]
 6926 0a98 103094E5 		ldr	r3, [r4, #16]
 6927 0a9c 025045E0 		sub	r5, r5, r2
 6928 0aa0 035045E0 		sub	r5, r5, r3
 6929 0aa4 035005E2 		and	r5, r5, #3
 6930 0aa8 0510A0E1 		mov	r1, r5
 6931 0aac FEFFFFEB 		bl	_ZN11flatbuffers15vector_downward12ensure_spaceEj
 6932 0ab0 183094E5 		ldr	r3, [r4, #24]
 6933 0ab4 000055E3 		cmp	r5, #0
 6934 0ab8 000043E0 		sub	r0, r3, r0
 6935 0abc 180084E5 		str	r0, [r4, #24]
 6936 0ac0 0800000A 		beq	.L1382
 6937 0ac4 010055E3 		cmp	r5, #1
 6938 0ac8 0030A0E3 		mov	r3, #0
 6939 0acc 0030C0E5 		strb	r3, [r0]
 6940 0ad0 0400000A 		beq	.L1382
 6941 0ad4 182094E5 		ldr	r2, [r4, #24]
 6942 0ad8 020055E3 		cmp	r5, #2
 6943 0adc 0130C2E5 		strb	r3, [r2, #1]
 6944 0ae0 18209415 		ldrne	r2, [r4, #24]
 6945 0ae4 0230C215 		strbne	r3, [r2, #2]
 6946              	.L1382:
 6947 0ae8 283094E5 		ldr	r3, [r4, #40]
 6948 0aec 0010A0E3 		mov	r1, #0
 6949 0af0 0400A0E1 		mov	r0, r4
 6950 0af4 000053E3 		cmp	r3, #0
 6951 0af8 0130A003 		moveq	r3, #1
 6952 0afc 28308405 		streq	r3, [r4, #40]
 6953 0b00 FEFFFFEB 		bl	_ZN11flatbuffers15vector_downward12ensure_spaceEj
 6954 0b04 183094E5 		ldr	r3, [r4, #24]
 6955 0b08 001056E2 		subs	r1, r6, #0
 6956 0b0c 003043E0 		sub	r3, r3, r0
 6957 0b10 0400A0E1 		mov	r0, r4
 6958 0b14 183084E5 		str	r3, [r4, #24]
 6959 0b18 0800000A 		beq	.L1533
 6960 0b1c FEFFFFEB 		bl	_ZN11flatbuffers15vector_downward12ensure_spaceEj
 6961 0b20 183094E5 		ldr	r3, [r4, #24]
 6962 0b24 0620A0E1 		mov	r2, r6
 6963 0b28 3C109DE5 		ldr	r1, [sp, #60]
 6964 0b2c 000043E0 		sub	r0, r3, r0
 6965 0b30 180084E5 		str	r0, [r4, #24]
 6966 0b34 FEFFFFEB 		bl	memcpy
 6967 0b38 0610A0E1 		mov	r1, r6
 6968 0b3c 0400A0E1 		mov	r0, r4
 6969              	.L1533:
 6970 0b40 FEFFFFEB 		bl	_ZN11flatbuffers17FlatBufferBuilder9EndVectorEj
 6971 0b44 7A3087E2 		add	r3, r7, #122
 6972 0b48 262E8DE2 		add	r2, sp, #608
 6973 0b4c 0010A0E1 		mov	r1, r0
 6974 0b50 0400A0E1 		mov	r0, r4
 6975 0b54 034182E0 		add	r4, r2, r3, lsl #2
 6976 0b58 FEFFFFEB 		bl	_ZN6tflite12CreateBufferERN11flatbuffers17FlatBufferBuilderENS0_6OffsetINS0_6VectorIhEEEE
 6977 0b5c 34209DE5 		ldr	r2, [sp, #52]
 6978 0b60 24309DE5 		ldr	r3, [sp, #36]
 6979 0b64 88129DE5 		ldr	r1, [sp, #648]
 6980 0b68 1C0204E5 		str	r0, [r4, #-540]
 6981 0b6c 40008DE2 		add	r0, sp, #64
 6982 0b70 1F3243E2 		sub	r3, r3, #-268435455
 6983 0b74 54C29DE5 		ldr	ip, [sp, #596]
 6984 0b78 033282E0 		add	r3, r2, r3, lsl #4
 6985 0b7c 04108DE5 		str	r1, [sp, #4]
 6986 0b80 060092E8 		ldm	r2, {r1, r2}
 6987 0b84 0CE093E5 		ldr	lr, [r3, #12]
 6988 0b88 01C08CE2 		add	ip, ip, #1
 6989 0b8c 083093E5 		ldr	r3, [r3, #8]
 6990 0b90 54C28DE5 		str	ip, [sp, #596]
 6991 0b94 00E08DE5 		str	lr, [sp]
 6992 0b98 FEFFFFEB 		bl	_ZN6tflite7testing12_GLOBAL__N_112ModelBuilder10BuildModelESt16initializer_listIlES4_j
 6993 0b9c 99DF8DE2 		add	sp, sp, #612
 6994              		@ sp needed
 6995 0ba0 F08FBDE8 		pop	{r4, r5, r6, r7, r8, r9, r10, fp, pc}
 6996              	.L1373:
 6997 0ba4 283094E5 		ldr	r3, [r4, #40]
 6998 0ba8 00A067E2 		rsb	r10, r7, #0
 6999 0bac 03A00AE2 		and	r10, r10, #3
 7000 0bb0 0400A0E1 		mov	r0, r4
 7001 0bb4 0A10A0E1 		mov	r1, r10
 7002 0bb8 030053E3 		cmp	r3, #3
 7003 0bbc 0430A093 		movls	r3, #4
 7004 0bc0 28308495 		strls	r3, [r4, #40]
 7005 0bc4 FEFFFFEB 		bl	_ZN11flatbuffers15vector_downward12ensure_spaceEj
 7006 0bc8 183094E5 		ldr	r3, [r4, #24]
 7007 0bcc 00005AE3 		cmp	r10, #0
 7008 0bd0 000043E0 		sub	r0, r3, r0
 7009 0bd4 180084E5 		str	r0, [r4, #24]
 7010 0bd8 0800000A 		beq	.L1375
 7011 0bdc 01005AE3 		cmp	r10, #1
 7012 0be0 0030A0E3 		mov	r3, #0
 7013 0be4 0030C0E5 		strb	r3, [r0]
 7014 0be8 0400000A 		beq	.L1375
 7015 0bec 182094E5 		ldr	r2, [r4, #24]
 7016 0bf0 02005AE3 		cmp	r10, #2
 7017 0bf4 0130C2E5 		strb	r3, [r2, #1]
 7018 0bf8 18209415 		ldrne	r2, [r4, #24]
 7019 0bfc 0230C215 		strbne	r3, [r2, #2]
 7020              	.L1375:
 7021 0c00 0410A0E3 		mov	r1, #4
 7022 0c04 0400A0E1 		mov	r0, r4
 7023 0c08 FEFFFFEB 		bl	_ZN11flatbuffers15vector_downward12ensure_spaceEj
 7024 0c0c 183094E5 		ldr	r3, [r4, #24]
 7025 0c10 0810A0E3 		mov	r1, #8
 7026 0c14 142094E5 		ldr	r2, [r4, #20]
 7027 0c18 000043E0 		sub	r0, r3, r0
 7028 0c1c 103094E5 		ldr	r3, [r4, #16]
 7029 0c20 022040E0 		sub	r2, r0, r2
 7030 0c24 180084E5 		str	r0, [r4, #24]
 7031 0c28 008080E5 		str	r8, [r0]
 7032 0c2c 0400A0E1 		mov	r0, r4
 7033 0c30 028043E0 		sub	r8, r3, r2
 7034 0c34 FEFFFFEB 		bl	_ZN11flatbuffers15vector_downward12ensure_spaceEj
 7035 0c38 1C3094E5 		ldr	r3, [r4, #28]
 7036 0c3c 0600A0E3 		mov	r0, #6
 7037 0c40 202094E5 		ldr	r2, [r4, #32]
 7038 0c44 081083E2 		add	r1, r3, #8
 7039 0c48 008083E5 		str	r8, [r3]
 7040 0c4c B400C3E1 		strh	r0, [r3, #4]	@ movhi
 7041 0c50 012082E2 		add	r2, r2, #1
 7042 0c54 B432D4E1 		ldrh	r3, [r4, #36]
 7043 0c58 1C1084E5 		str	r1, [r4, #28]
 7044 0c5c 202084E5 		str	r2, [r4, #32]
 7045 0c60 000053E1 		cmp	r3, r0
 7046 0c64 0030A0B1 		movlt	r3, r0
 7047 0c68 000059E3 		cmp	r9, #0
 7048 0c6c B432C4E1 		strh	r3, [r4, #36]	@ movhi
 7049 0c70 70FFFF0A 		beq	.L1378
 7050              	.L1537:
 7051 0c74 0910A0E1 		mov	r1, r9
 7052 0c78 0400A0E1 		mov	r0, r4
 7053 0c7c FEFFFFEB 		bl	_ZN11flatbuffers17FlatBufferBuilder7ReferToEm
 7054 0c80 002050E2 		subs	r2, r0, #0
 7055 0c84 0200001A 		bne	.L1379
 7056 0c88 2C30D4E5 		ldrb	r3, [r4, #44]	@ zero_extendqisi2
 7057 0c8c 000053E3 		cmp	r3, #0
 7058 0c90 68FFFF0A 		beq	.L1378
 7059              	.L1379:
 7060 0c94 0410A0E3 		mov	r1, #4
 7061 0c98 0400A0E1 		mov	r0, r4
 7062 0c9c FEFFFFEB 		bl	_ZN11flatbuffers17FlatBufferBuilder10AddElementImEEvtT_S2_.part.45
 7063 0ca0 64FFFFEA 		b	.L1378
 7064              	.L1330:
 7065 0ca4 FEFFFFEB 		bl	abort
 7066              	.L1352:
 7067 0ca8 003000E3 		movw	r3, #:lower16:.LC26
 7068 0cac 002000E3 		movw	r2, #:lower16:.LANCHOR14
 7069 0cb0 000000E3 		movw	r0, #:lower16:.LC19
 7070 0cb4 003040E3 		movt	r3, #:upper16:.LC26
 7071 0cb8 002040E3 		movt	r2, #:upper16:.LANCHOR14
 7072 0cbc 000040E3 		movt	r0, #:upper16:.LC19
 7073 0cc0 2C1600E3 		movw	r1, #1580
 7074 0cc4 FEFFFFEB 		bl	__assert_func
 7075              	.L1327:
 7076 0cc8 FEFFFFEB 		bl	_ZN11flatbuffers17FlatBufferBuilder9NotNestedEv.isra.19.part.20
 7077              	.L1325:
 7078 0ccc 003000E3 		movw	r3, #:lower16:.LC24
 7079 0cd0 002000E3 		movw	r2, #:lower16:.LANCHOR11
 7080 0cd4 000000E3 		movw	r0, #:lower16:.LC19
 7081 0cd8 003040E3 		movt	r3, #:upper16:.LC24
 7082 0cdc 002040E3 		movt	r2, #:upper16:.LANCHOR11
 7083 0ce0 000040E3 		movt	r0, #:upper16:.LC19
 7084 0ce4 481500E3 		movw	r1, #1352
 7085 0ce8 FEFFFFEB 		bl	__assert_func
 7086              		.fnend
 7088              		.section	.text._ZN6tflite7testing12_GLOBAL__N_124BuildSimpleStatefulModelEv,"ax",%progbits
 7089              		.align	2
 7090              		.syntax unified
 7091              		.arm
 7092              		.fpu neon
 7094              	_ZN6tflite7testing12_GLOBAL__N_124BuildSimpleStatefulModelEv:
 7095              		.fnstart
 7096              	.LFB6969:
 7097              		@ args = 0, pretend = 0, frame = 592
 7098              		@ frame_needed = 0, uses_anonymous_args = 0
 7099 0000 F04F2DE9 		push	{r4, r5, r6, r7, r8, r9, r10, fp, lr}
 7100              		.save {r4, r5, r6, r7, r8, r9, r10, fp, lr}
 7101              		.pad #612
 7102 0004 99DF4DE2 		sub	sp, sp, #612
 7103 0008 FEFFFFEB 		bl	_ZN6tflite7testing12_GLOBAL__N_115BuilderInstanceEv
 7104 000c 001000E3 		movw	r1, #:lower16:.LC37
 7105 0010 0040A0E3 		mov	r4, #0
 7106 0014 5000C0F2 		vmov.i32	q8, #0  @ v4si
 7107 0018 001040E3 		movt	r1, #:upper16:.LC37
 7108 001c 2020A0E3 		mov	r2, #32
 7109 0020 40008DE5 		str	r0, [sp, #64]
 7110 0024 44408DE5 		str	r4, [sp, #68]
 7111 0028 140BCDED 		vstr	d16, [sp, #80]
 7112 002c 161BCDED 		vstr	d17, [sp, #88]
 7113 0030 48408DE5 		str	r4, [sp, #72]
 7114 0034 1C0BCDED 		vstr	d16, [sp, #112]
 7115 0038 1E1BCDED 		vstr	d17, [sp, #120]
 7116 003c 4C408DE5 		str	r4, [sp, #76]
 7117 0040 200BCDED 		vstr	d16, [sp, #128]
 7118 0044 221BCDED 		vstr	d17, [sp, #136]
 7119 0048 60408DE5 		str	r4, [sp, #96]
 7120 004c 240BCDED 		vstr	d16, [sp, #144]
 7121 0050 261BCDED 		vstr	d17, [sp, #152]
 7122 0054 64408DE5 		str	r4, [sp, #100]
 7123 0058 280BCDED 		vstr	d16, [sp, #160]
 7124 005c 2A1BCDED 		vstr	d17, [sp, #168]
 7125 0060 68408DE5 		str	r4, [sp, #104]
 7126 0064 2C0BCDED 		vstr	d16, [sp, #176]
 7127 0068 2E1BCDED 		vstr	d17, [sp, #184]
 7128 006c 6C408DE5 		str	r4, [sp, #108]
 7129 0070 300BCDED 		vstr	d16, [sp, #192]
 7130 0074 321BCDED 		vstr	d17, [sp, #200]
 7131 0078 30418DE5 		str	r4, [sp, #304]
 7132 007c 340BCDED 		vstr	d16, [sp, #208]
 7133 0080 361BCDED 		vstr	d17, [sp, #216]
 7134 0084 34418DE5 		str	r4, [sp, #308]
 7135 0088 380BCDED 		vstr	d16, [sp, #224]
 7136 008c 3A1BCDED 		vstr	d17, [sp, #232]
 7137 0090 38418DE5 		str	r4, [sp, #312]
 7138 0094 3C0BCDED 		vstr	d16, [sp, #240]
 7139 0098 3E1BCDED 		vstr	d17, [sp, #248]
 7140 009c 3C418DE5 		str	r4, [sp, #316]
 7141 00a0 400BCDED 		vstr	d16, [sp, #256]
 7142 00a4 421BCDED 		vstr	d17, [sp, #264]
 7143 00a8 40418DE5 		str	r4, [sp, #320]
 7144 00ac 440BCDED 		vstr	d16, [sp, #272]
 7145 00b0 461BCDED 		vstr	d17, [sp, #280]
 7146 00b4 44418DE5 		str	r4, [sp, #324]
 7147 00b8 480BCDED 		vstr	d16, [sp, #288]
 7148 00bc 4A1BCDED 		vstr	d17, [sp, #296]
 7149 00c0 520BCDED 		vstr	d16, [sp, #328]
 7150 00c4 541BCDED 		vstr	d17, [sp, #336]
 7151 00c8 560BCDED 		vstr	d16, [sp, #344]
 7152 00cc 581BCDED 		vstr	d17, [sp, #352]
 7153 00d0 5A0BCDED 		vstr	d16, [sp, #360]
 7154 00d4 5C1BCDED 		vstr	d17, [sp, #368]
 7155 00d8 5E0BCDED 		vstr	d16, [sp, #376]
 7156 00dc 601BCDED 		vstr	d17, [sp, #384]
 7157 00e0 620BCDED 		vstr	d16, [sp, #392]
 7158 00e4 641BCDED 		vstr	d17, [sp, #400]
 7159 00e8 660BCDED 		vstr	d16, [sp, #408]
 7160 00ec 681BCDED 		vstr	d17, [sp, #416]
 7161 00f0 F8418DE5 		str	r4, [sp, #504]
 7162 00f4 6A0BCDED 		vstr	d16, [sp, #424]
 7163 00f8 6C1BCDED 		vstr	d17, [sp, #432]
 7164 00fc FC418DE5 		str	r4, [sp, #508]
 7165 0100 6E0BCDED 		vstr	d16, [sp, #440]
 7166 0104 701BCDED 		vstr	d17, [sp, #448]
 7167 0108 00428DE5 		str	r4, [sp, #512]
 7168 010c 720BCDED 		vstr	d16, [sp, #456]
 7169 0110 741BCDED 		vstr	d17, [sp, #464]
 7170 0114 04428DE5 		str	r4, [sp, #516]
 7171 0118 760BCDED 		vstr	d16, [sp, #472]
 7172 011c 781BCDED 		vstr	d17, [sp, #480]
 7173 0120 08428DE5 		str	r4, [sp, #520]
 7174 0124 7A0BCDED 		vstr	d16, [sp, #488]
 7175 0128 7C1BCDED 		vstr	d17, [sp, #496]
 7176 012c 0C428DE5 		str	r4, [sp, #524]
 7177 0130 840BCDED 		vstr	d16, [sp, #528]
 7178 0134 861BCDED 		vstr	d17, [sp, #536]
 7179 0138 20428DE5 		str	r4, [sp, #544]
 7180 013c 24428DE5 		str	r4, [sp, #548]
 7181 0140 28428DE5 		str	r4, [sp, #552]
 7182 0144 2C428DE5 		str	r4, [sp, #556]
 7183 0148 30428DE5 		str	r4, [sp, #560]
 7184 014c 34428DE5 		str	r4, [sp, #564]
 7185 0150 8E0BCDED 		vstr	d16, [sp, #568]
 7186 0154 901BCDED 		vstr	d17, [sp, #576]
 7187 0158 48428DE5 		str	r4, [sp, #584]
 7188 015c 4C428DE5 		str	r4, [sp, #588]
 7189 0160 50428DE5 		str	r4, [sp, #592]
 7190 0164 54428DE5 		str	r4, [sp, #596]
 7191 0168 58428DE5 		str	r4, [sp, #600]
 7192 016c FEFFFFEB 		bl	_ZN6tflite24CreateOperatorCodeDirectERN11flatbuffers17FlatBufferBuilderEaPKclNS_15BuiltinOperat
 7193 0170 58529DE5 		ldr	r5, [sp, #600]
 7194 0174 6C709DE5 		ldr	r7, [sp, #108]
 7195 0178 44008DE5 		str	r0, [sp, #68]
 7196 017c 320055E3 		cmp	r5, #50
 7197 0180 013087E2 		add	r3, r7, #1
 7198 0184 6C308DE5 		str	r3, [sp, #108]
 7199 0188 870000CA 		bgt	.L1540
 7200 018c 40609DE5 		ldr	r6, [sp, #64]
 7201 0190 0110A0E3 		mov	r1, #1
 7202 0194 3E5085E2 		add	r5, r5, #62
 7203 0198 0600A0E1 		mov	r0, r6
 7204 019c FEFFFFEB 		bl	_ZN11flatbuffers17FlatBufferBuilder11StartVectorEjj.constprop.148
 7205 01a0 0410A0E3 		mov	r1, #4
 7206 01a4 0600A0E1 		mov	r0, r6
 7207 01a8 FEFFFFEB 		bl	_ZN11flatbuffers15vector_downward12ensure_spaceEj
 7208 01ac 183096E5 		ldr	r3, [r6, #24]
 7209 01b0 001000E3 		movw	r1, #:lower16:.LANCHOR24
 7210 01b4 0420A0E3 		mov	r2, #4
 7211 01b8 001040E3 		movt	r1, #:upper16:.LANCHOR24
 7212 01bc 000043E0 		sub	r0, r3, r0
 7213 01c0 180086E5 		str	r0, [r6, #24]
 7214 01c4 FEFFFFEB 		bl	memcpy
 7215 01c8 0110A0E3 		mov	r1, #1
 7216 01cc 0600A0E1 		mov	r0, r6
 7217 01d0 FEFFFFEB 		bl	_ZN11flatbuffers17FlatBufferBuilder9EndVectorEj
 7218 01d4 0430A0E1 		mov	r3, r4
 7219 01d8 0010A0E1 		mov	r1, r0
 7220 01dc 26CE8DE2 		add	ip, sp, #608
 7221 01e0 08408DE5 		str	r4, [sp, #8]
 7222 01e4 0600A0E1 		mov	r0, r6
 7223 01e8 04408DE5 		str	r4, [sp, #4]
 7224 01ec 00408DE5 		str	r4, [sp]
 7225 01f0 0320A0E3 		mov	r2, #3
 7226 01f4 05518CE0 		add	r5, ip, r5, lsl #2
 7227 01f8 FEFFFFEB 		bl	_ZN6tflite12CreateTensorERN11flatbuffers17FlatBufferBuilderENS0_6OffsetINS0_6VectorIlEEEENS_10T
 7228 01fc 58829DE5 		ldr	r8, [sp, #600]
 7229 0200 1C0205E5 		str	r0, [r5, #-540]
 7230 0204 013088E2 		add	r3, r8, #1
 7231 0208 320053E3 		cmp	r3, #50
 7232 020c 58328DE5 		str	r3, [sp, #600]
 7233 0210 650000CA 		bgt	.L1540
 7234 0214 40509DE5 		ldr	r5, [sp, #64]
 7235 0218 0110A0E3 		mov	r1, #1
 7236 021c 0500A0E1 		mov	r0, r5
 7237 0220 FEFFFFEB 		bl	_ZN11flatbuffers17FlatBufferBuilder11StartVectorEjj.constprop.148
 7238 0224 0500A0E1 		mov	r0, r5
 7239 0228 0410A0E3 		mov	r1, #4
 7240 022c FEFFFFEB 		bl	_ZN11flatbuffers15vector_downward12ensure_spaceEj
 7241 0230 183095E5 		ldr	r3, [r5, #24]
 7242 0234 001000E3 		movw	r1, #:lower16:.LANCHOR25
 7243 0238 0420A0E3 		mov	r2, #4
 7244 023c 001040E3 		movt	r1, #:upper16:.LANCHOR25
 7245 0240 000043E0 		sub	r0, r3, r0
 7246 0244 180085E5 		str	r0, [r5, #24]
 7247 0248 FEFFFFEB 		bl	memcpy
 7248 024c 0500A0E1 		mov	r0, r5
 7249 0250 0110A0E3 		mov	r1, #1
 7250 0254 FEFFFFEB 		bl	_ZN11flatbuffers17FlatBufferBuilder9EndVectorEj
 7251 0258 0430A0E1 		mov	r3, r4
 7252 025c 0010A0E1 		mov	r1, r0
 7253 0260 26CE8DE2 		add	ip, sp, #608
 7254 0264 0500A0E1 		mov	r0, r5
 7255 0268 08408DE5 		str	r4, [sp, #8]
 7256 026c 3F5088E2 		add	r5, r8, #63
 7257 0270 04408DE5 		str	r4, [sp, #4]
 7258 0274 0320A0E3 		mov	r2, #3
 7259 0278 00408DE5 		str	r4, [sp]
 7260 027c 05518CE0 		add	r5, ip, r5, lsl #2
 7261 0280 FEFFFFEB 		bl	_ZN6tflite12CreateTensorERN11flatbuffers17FlatBufferBuilderENS0_6OffsetINS0_6VectorIlEEEENS_10T
 7262 0284 58929DE5 		ldr	r9, [sp, #600]
 7263 0288 1C0205E5 		str	r0, [r5, #-540]
 7264 028c 013089E2 		add	r3, r9, #1
 7265 0290 320053E3 		cmp	r3, #50
 7266 0294 58328DE5 		str	r3, [sp, #600]
 7267 0298 430000CA 		bgt	.L1540
 7268 029c 40509DE5 		ldr	r5, [sp, #64]
 7269 02a0 0110A0E3 		mov	r1, #1
 7270 02a4 01B0A0E1 		mov	fp, r1
 7271 02a8 02A0A0E3 		mov	r10, #2
 7272 02ac 266E8DE2 		add	r6, sp, #608
 7273 02b0 0500A0E1 		mov	r0, r5
 7274 02b4 FEFFFFEB 		bl	_ZN11flatbuffers17FlatBufferBuilder11StartVectorEjj.constprop.148
 7275 02b8 0500A0E1 		mov	r0, r5
 7276 02bc 0410A0E3 		mov	r1, #4
 7277 02c0 FEFFFFEB 		bl	_ZN11flatbuffers15vector_downward12ensure_spaceEj
 7278 02c4 183095E5 		ldr	r3, [r5, #24]
 7279 02c8 001000E3 		movw	r1, #:lower16:.LANCHOR26
 7280 02cc 0420A0E3 		mov	r2, #4
 7281 02d0 001040E3 		movt	r1, #:upper16:.LANCHOR26
 7282 02d4 000043E0 		sub	r0, r3, r0
 7283 02d8 180085E5 		str	r0, [r5, #24]
 7284 02dc FEFFFFEB 		bl	memcpy
 7285 02e0 0B10A0E1 		mov	r1, fp
 7286 02e4 0500A0E1 		mov	r0, r5
 7287 02e8 FEFFFFEB 		bl	_ZN11flatbuffers17FlatBufferBuilder9EndVectorEj
 7288 02ec 3F3089E2 		add	r3, r9, #63
 7289 02f0 262E8DE2 		add	r2, sp, #608
 7290 02f4 0010A0E1 		mov	r1, r0
 7291 02f8 0500A0E1 		mov	r0, r5
 7292 02fc 135A82E0 		add	r5, r2, r3, lsl r10
 7293 0300 08408DE5 		str	r4, [sp, #8]
 7294 0304 0430A0E1 		mov	r3, r4
 7295 0308 04408DE5 		str	r4, [sp, #4]
 7296 030c 0A20A0E1 		mov	r2, r10
 7297 0310 00408DE5 		str	r4, [sp]
 7298 0314 FEFFFFEB 		bl	_ZN6tflite12CreateTensorERN11flatbuffers17FlatBufferBuilderENS0_6OffsetINS0_6VectorIlEEEENS_10T
 7299 0318 38108DE2 		add	r1, sp, #56
 7300 031c 1C0205E5 		str	r0, [r5, #-540]
 7301 0320 28208DE2 		add	r2, sp, #40
 7302 0324 58529DE5 		ldr	r5, [sp, #600]
 7303 0328 28108DE5 		str	r1, [sp, #40]
 7304 032c 20308DE2 		add	r3, sp, #32
 7305 0330 2CA08DE5 		str	r10, [sp, #44]
 7306 0334 030092E8 		ldm	r2, {r0, r1}
 7307 0338 0BC085E0 		add	ip, r5, fp
 7308 033c 308226E5 		str	r8, [r6, #-560]!
 7309 0340 24B08DE5 		str	fp, [sp, #36]
 7310 0344 03008DE8 		stm	sp, {r0, r1}
 7311 0348 0710A0E1 		mov	r1, r7
 7312 034c 20608DE5 		str	r6, [sp, #32]
 7313 0350 40008DE2 		add	r0, sp, #64
 7314 0354 0C0093E8 		ldm	r3, {r2, r3}
 7315 0358 58C28DE5 		str	ip, [sp, #600]
 7316 035c 38908DE5 		str	r9, [sp, #56]
 7317 0360 3C508DE5 		str	r5, [sp, #60]
 7318 0364 FEFFFFEB 		bl	_ZN6tflite7testing12_GLOBAL__N_112ModelBuilder7AddNodeEiSt16initializer_listIlES4_
 7319 0368 262E8DE2 		add	r2, sp, #608
 7320 036c 18C08DE2 		add	ip, sp, #24
 7321 0370 00A08DE5 		str	r10, [sp]
 7322 0374 40008DE2 		add	r0, sp, #64
 7323 0378 04408DE5 		str	r4, [sp, #4]
 7324 037c 0C30A0E1 		mov	r3, ip
 7325 0380 4C8222E5 		str	r8, [r2, #-588]!
 7326 0384 34B08DE5 		str	fp, [sp, #52]
 7327 0388 30208DE5 		str	r2, [sp, #48]
 7328 038c 060096E8 		ldm	r6, {r1, r2}
 7329 0390 1C508DE5 		str	r5, [sp, #28]
 7330 0394 3CA08DE5 		str	r10, [sp, #60]
 7331 0398 18908DE5 		str	r9, [sp, #24]
 7332 039c 38C08DE5 		str	ip, [sp, #56]
 7333 03a0 FEFFFFEB 		bl	_ZN6tflite7testing12_GLOBAL__N_112ModelBuilder10BuildModelESt16initializer_listIlES4_j
 7334 03a4 99DF8DE2 		add	sp, sp, #612
 7335              		@ sp needed
 7336 03a8 F08FBDE8 		pop	{r4, r5, r6, r7, r8, r9, r10, fp, pc}
 7337              	.L1540:
 7338 03ac FEFFFFEB 		bl	abort
 7339              		.fnend
 7341              		.section	.text._ZN6tflite7testing16SimpleStatefulOp15getRegistrationEv,"ax",%progbits
 7342              		.align	2
 7343              		.global	_ZN6tflite7testing16SimpleStatefulOp15getRegistrationEv
 7344              		.syntax unified
 7345              		.arm
 7346              		.fpu neon
 7348              	_ZN6tflite7testing16SimpleStatefulOp15getRegistrationEv:
 7349              		.fnstart
 7350              	.LFB11569:
 7351              		@ args = 0, pretend = 0, frame = 0
 7352              		@ frame_needed = 0, uses_anonymous_args = 0
 7353              		@ link register save eliminated.
 7354 0000 003000E3 		movw	r3, #:lower16:.LANCHOR27
 7355 0004 000000E3 		movw	r0, #:lower16:_ZN6tflite7testing16SimpleStatefulOp4InitEP13TfLiteContextPKcj
 7356 0008 001000E3 		movw	r1, #:lower16:_ZN6tflite7testing16SimpleStatefulOp7PrepareEP13TfLiteContextP10TfLiteNode
 7357 000c 002000E3 		movw	r2, #:lower16:_ZN6tflite7testing16SimpleStatefulOp6InvokeEP13TfLiteContextP10TfLiteNode
 7358 0010 003040E3 		movt	r3, #:upper16:.LANCHOR27
 7359 0014 000040E3 		movt	r0, #:upper16:_ZN6tflite7testing16SimpleStatefulOp4InitEP13TfLiteContextPKcj
 7360 0018 001040E3 		movt	r1, #:upper16:_ZN6tflite7testing16SimpleStatefulOp7PrepareEP13TfLiteContextP10TfLiteNode
 7361 001c 002040E3 		movt	r2, #:upper16:_ZN6tflite7testing16SimpleStatefulOp6InvokeEP13TfLiteContextP10TfLiteNode
 7362 0020 000083E5 		str	r0, [r3]
 7363 0024 0300A0E1 		mov	r0, r3
 7364 0028 081083E5 		str	r1, [r3, #8]
 7365 002c 0C2083E5 		str	r2, [r3, #12]
 7366 0030 1EFF2FE1 		bx	lr
 7367              		.cantunwind
 7368              		.fnend
 7370              		.section	.text._ZN6tflite7testing16SimpleStatefulOp22GetMutableRegistrationEv,"ax",%progbits
 7371              		.align	2
 7372              		.global	_ZN6tflite7testing16SimpleStatefulOp22GetMutableRegistrationEv
 7373              		.syntax unified
 7374              		.arm
 7375              		.fpu neon
 7377              	_ZN6tflite7testing16SimpleStatefulOp22GetMutableRegistrationEv:
 7378              		.fnstart
 7379              	.LFB6978:
 7380              		@ args = 0, pretend = 0, frame = 0
 7381              		@ frame_needed = 0, uses_anonymous_args = 0
 7382              		@ link register save eliminated.
 7383 0000 003000E3 		movw	r3, #:lower16:.LANCHOR27
 7384 0004 000000E3 		movw	r0, #:lower16:_ZN6tflite7testing16SimpleStatefulOp4InitEP13TfLiteContextPKcj
 7385 0008 001000E3 		movw	r1, #:lower16:_ZN6tflite7testing16SimpleStatefulOp7PrepareEP13TfLiteContextP10TfLiteNode
 7386 000c 002000E3 		movw	r2, #:lower16:_ZN6tflite7testing16SimpleStatefulOp6InvokeEP13TfLiteContextP10TfLiteNode
 7387 0010 003040E3 		movt	r3, #:upper16:.LANCHOR27
 7388 0014 000040E3 		movt	r0, #:upper16:_ZN6tflite7testing16SimpleStatefulOp4InitEP13TfLiteContextPKcj
 7389 0018 001040E3 		movt	r1, #:upper16:_ZN6tflite7testing16SimpleStatefulOp7PrepareEP13TfLiteContextP10TfLiteNode
 7390 001c 002040E3 		movt	r2, #:upper16:_ZN6tflite7testing16SimpleStatefulOp6InvokeEP13TfLiteContextP10TfLiteNode
 7391 0020 000083E5 		str	r0, [r3]
 7392 0024 0300A0E1 		mov	r0, r3
 7393 0028 081083E5 		str	r1, [r3, #8]
 7394 002c 0C2083E5 		str	r2, [r3, #12]
 7395 0030 1EFF2FE1 		bx	lr
 7396              		.cantunwind
 7397              		.fnend
 7399              		.section	.text._ZN6tflite7testing10MockCustom15getRegistrationEv,"ax",%progbits
 7400              		.align	2
 7401              		.global	_ZN6tflite7testing10MockCustom15getRegistrationEv
 7402              		.syntax unified
 7403              		.arm
 7404              		.fpu neon
 7406              	_ZN6tflite7testing10MockCustom15getRegistrationEv:
 7407              		.fnstart
 7408              	.LFB11571:
 7409              		@ args = 0, pretend = 0, frame = 16
 7410              		@ frame_needed = 0, uses_anonymous_args = 0
 7411              		@ link register save eliminated.
 7412 0000 003000E3 		movw	r3, #:lower16:_ZN6tflite7testing10MockCustom4InitEP13TfLiteContextPKcj
 7413 0004 000000E3 		movw	r0, #:lower16:_ZN6tflite7testing10MockCustom4FreeEP13TfLiteContextPv
 7414 0008 001000E3 		movw	r1, #:lower16:_ZN6tflite7testing10MockCustom7PrepareEP13TfLiteContextP10TfLiteNode
 7415 000c 002000E3 		movw	r2, #:lower16:_ZN6tflite7testing10MockCustom6InvokeEP13TfLiteContextP10TfLiteNode
 7416 0010 10D04DE2 		sub	sp, sp, #16
 7417 0014 003040E3 		movt	r3, #:upper16:_ZN6tflite7testing10MockCustom4InitEP13TfLiteContextPKcj
 7418 0018 000040E3 		movt	r0, #:upper16:_ZN6tflite7testing10MockCustom4FreeEP13TfLiteContextPv
 7419 001c 001040E3 		movt	r1, #:upper16:_ZN6tflite7testing10MockCustom7PrepareEP13TfLiteContextP10TfLiteNode
 7420 0020 002040E3 		movt	r2, #:upper16:_ZN6tflite7testing10MockCustom6InvokeEP13TfLiteContextP10TfLiteNode
 7421 0024 00308DE5 		str	r3, [sp]
 7422 0028 04008DE5 		str	r0, [sp, #4]
 7423 002c 003000E3 		movw	r3, #:lower16:.LANCHOR28
 7424 0030 08108DE5 		str	r1, [sp, #8]
 7425 0034 003040E3 		movt	r3, #:upper16:.LANCHOR28
 7426 0038 0C208DE5 		str	r2, [sp, #12]
 7427 003c 0300A0E1 		mov	r0, r3
 7428 0040 DF0A6DF4 		vld1.64	{d16-d17}, [sp:64]
 7429 0044 DF0A43F4 		vst1.64	{d16-d17}, [r3:64]
 7430 0048 10D08DE2 		add	sp, sp, #16
 7431              		@ sp needed
 7432 004c 1EFF2FE1 		bx	lr
 7433              		.cantunwind
 7434              		.fnend
 7436              		.section	.text._ZN6tflite7testing10MockCustom22GetMutableRegistrationEv,"ax",%progbits
 7437              		.align	2
 7438              		.global	_ZN6tflite7testing10MockCustom22GetMutableRegistrationEv
 7439              		.syntax unified
 7440              		.arm
 7441              		.fpu neon
 7443              	_ZN6tflite7testing10MockCustom22GetMutableRegistrationEv:
 7444              		.fnstart
 7445              	.LFB6986:
 7446              		@ args = 0, pretend = 0, frame = 16
 7447              		@ frame_needed = 0, uses_anonymous_args = 0
 7448              		@ link register save eliminated.
 7449 0000 003000E3 		movw	r3, #:lower16:_ZN6tflite7testing10MockCustom4InitEP13TfLiteContextPKcj
 7450 0004 000000E3 		movw	r0, #:lower16:_ZN6tflite7testing10MockCustom4FreeEP13TfLiteContextPv
 7451 0008 001000E3 		movw	r1, #:lower16:_ZN6tflite7testing10MockCustom7PrepareEP13TfLiteContextP10TfLiteNode
 7452 000c 002000E3 		movw	r2, #:lower16:_ZN6tflite7testing10MockCustom6InvokeEP13TfLiteContextP10TfLiteNode
 7453 0010 10D04DE2 		sub	sp, sp, #16
 7454 0014 003040E3 		movt	r3, #:upper16:_ZN6tflite7testing10MockCustom4InitEP13TfLiteContextPKcj
 7455 0018 000040E3 		movt	r0, #:upper16:_ZN6tflite7testing10MockCustom4FreeEP13TfLiteContextPv
 7456 001c 001040E3 		movt	r1, #:upper16:_ZN6tflite7testing10MockCustom7PrepareEP13TfLiteContextP10TfLiteNode
 7457 0020 002040E3 		movt	r2, #:upper16:_ZN6tflite7testing10MockCustom6InvokeEP13TfLiteContextP10TfLiteNode
 7458 0024 00308DE5 		str	r3, [sp]
 7459 0028 04008DE5 		str	r0, [sp, #4]
 7460 002c 003000E3 		movw	r3, #:lower16:.LANCHOR28
 7461 0030 08108DE5 		str	r1, [sp, #8]
 7462 0034 003040E3 		movt	r3, #:upper16:.LANCHOR28
 7463 0038 0C208DE5 		str	r2, [sp, #12]
 7464 003c 0300A0E1 		mov	r0, r3
 7465 0040 DF0A6DF4 		vld1.64	{d16-d17}, [sp:64]
 7466 0044 DF0A43F4 		vst1.64	{d16-d17}, [r3:64]
 7467 0048 10D08DE2 		add	sp, sp, #16
 7468              		@ sp needed
 7469 004c 1EFF2FE1 		bx	lr
 7470              		.cantunwind
 7471              		.fnend
 7473              		.section	.text._ZN6tflite7testing14MultipleInputs15getRegistrationEv,"ax",%progbits
 7474              		.align	2
 7475              		.global	_ZN6tflite7testing14MultipleInputs15getRegistrationEv
 7476              		.syntax unified
 7477              		.arm
 7478              		.fpu neon
 7480              	_ZN6tflite7testing14MultipleInputs15getRegistrationEv:
 7481              		.fnstart
 7482              	.LFB11573:
 7483              		@ args = 0, pretend = 0, frame = 16
 7484              		@ frame_needed = 0, uses_anonymous_args = 0
 7485              		@ link register save eliminated.
 7486 0000 003000E3 		movw	r3, #:lower16:_ZN6tflite7testing14MultipleInputs4InitEP13TfLiteContextPKcj
 7487 0004 000000E3 		movw	r0, #:lower16:_ZN6tflite7testing14MultipleInputs4FreeEP13TfLiteContextPv
 7488 0008 001000E3 		movw	r1, #:lower16:_ZN6tflite7testing14MultipleInputs7PrepareEP13TfLiteContextP10TfLiteNode
 7489 000c 002000E3 		movw	r2, #:lower16:_ZN6tflite7testing14MultipleInputs6InvokeEP13TfLiteContextP10TfLiteNode
 7490 0010 10D04DE2 		sub	sp, sp, #16
 7491 0014 003040E3 		movt	r3, #:upper16:_ZN6tflite7testing14MultipleInputs4InitEP13TfLiteContextPKcj
 7492 0018 000040E3 		movt	r0, #:upper16:_ZN6tflite7testing14MultipleInputs4FreeEP13TfLiteContextPv
 7493 001c 001040E3 		movt	r1, #:upper16:_ZN6tflite7testing14MultipleInputs7PrepareEP13TfLiteContextP10TfLiteNode
 7494 0020 002040E3 		movt	r2, #:upper16:_ZN6tflite7testing14MultipleInputs6InvokeEP13TfLiteContextP10TfLiteNode
 7495 0024 00308DE5 		str	r3, [sp]
 7496 0028 04008DE5 		str	r0, [sp, #4]
 7497 002c 003000E3 		movw	r3, #:lower16:.LANCHOR29
 7498 0030 08108DE5 		str	r1, [sp, #8]
 7499 0034 003040E3 		movt	r3, #:upper16:.LANCHOR29
 7500 0038 0C208DE5 		str	r2, [sp, #12]
 7501 003c 0300A0E1 		mov	r0, r3
 7502 0040 DF0A6DF4 		vld1.64	{d16-d17}, [sp:64]
 7503 0044 DF0A43F4 		vst1.64	{d16-d17}, [r3:64]
 7504 0048 10D08DE2 		add	sp, sp, #16
 7505              		@ sp needed
 7506 004c 1EFF2FE1 		bx	lr
 7507              		.cantunwind
 7508              		.fnend
 7510              		.section	.text._ZN6tflite7testing14MultipleInputs22GetMutableRegistrationEv,"ax",%progbits
 7511              		.align	2
 7512              		.global	_ZN6tflite7testing14MultipleInputs22GetMutableRegistrationEv
 7513              		.syntax unified
 7514              		.arm
 7515              		.fpu neon
 7517              	_ZN6tflite7testing14MultipleInputs22GetMutableRegistrationEv:
 7518              		.fnstart
 7519              	.LFB6992:
 7520              		@ args = 0, pretend = 0, frame = 16
 7521              		@ frame_needed = 0, uses_anonymous_args = 0
 7522              		@ link register save eliminated.
 7523 0000 003000E3 		movw	r3, #:lower16:_ZN6tflite7testing14MultipleInputs4InitEP13TfLiteContextPKcj
 7524 0004 000000E3 		movw	r0, #:lower16:_ZN6tflite7testing14MultipleInputs4FreeEP13TfLiteContextPv
 7525 0008 001000E3 		movw	r1, #:lower16:_ZN6tflite7testing14MultipleInputs7PrepareEP13TfLiteContextP10TfLiteNode
 7526 000c 002000E3 		movw	r2, #:lower16:_ZN6tflite7testing14MultipleInputs6InvokeEP13TfLiteContextP10TfLiteNode
 7527 0010 10D04DE2 		sub	sp, sp, #16
 7528 0014 003040E3 		movt	r3, #:upper16:_ZN6tflite7testing14MultipleInputs4InitEP13TfLiteContextPKcj
 7529 0018 000040E3 		movt	r0, #:upper16:_ZN6tflite7testing14MultipleInputs4FreeEP13TfLiteContextPv
 7530 001c 001040E3 		movt	r1, #:upper16:_ZN6tflite7testing14MultipleInputs7PrepareEP13TfLiteContextP10TfLiteNode
 7531 0020 002040E3 		movt	r2, #:upper16:_ZN6tflite7testing14MultipleInputs6InvokeEP13TfLiteContextP10TfLiteNode
 7532 0024 00308DE5 		str	r3, [sp]
 7533 0028 04008DE5 		str	r0, [sp, #4]
 7534 002c 003000E3 		movw	r3, #:lower16:.LANCHOR29
 7535 0030 08108DE5 		str	r1, [sp, #8]
 7536 0034 003040E3 		movt	r3, #:upper16:.LANCHOR29
 7537 0038 0C208DE5 		str	r2, [sp, #12]
 7538 003c 0300A0E1 		mov	r0, r3
 7539 0040 DF0A6DF4 		vld1.64	{d16-d17}, [sp:64]
 7540 0044 DF0A43F4 		vst1.64	{d16-d17}, [r3:64]
 7541 0048 10D08DE2 		add	sp, sp, #16
 7542              		@ sp needed
 7543 004c 1EFF2FE1 		bx	lr
 7544              		.cantunwind
 7545              		.fnend
 7547              		.section	.text._ZN6tflite7testing13GetOpResolverEv,"ax",%progbits
 7548              		.align	2
 7549              		.global	_ZN6tflite7testing13GetOpResolverEv
 7550              		.syntax unified
 7551              		.arm
 7552              		.fpu neon
 7554              	_ZN6tflite7testing13GetOpResolverEv:
 7555              		.fnstart
 7556              	.LFB6997:
 7557              		@ args = 0, pretend = 0, frame = 80
 7558              		@ frame_needed = 0, uses_anonymous_args = 0
 7559 0000 00C000E3 		movw	ip, #:lower16:_ZN6tflite7testing10MockCustom4InitEP13TfLiteContextPKcj
 7560 0004 001000E3 		movw	r1, #:lower16:_ZN6tflite7testing10MockCustom4FreeEP13TfLiteContextPv
 7561 0008 002000E3 		movw	r2, #:lower16:_ZN6tflite7testing10MockCustom7PrepareEP13TfLiteContextP10TfLiteNode
 7562 000c 003000E3 		movw	r3, #:lower16:_ZN6tflite7testing10MockCustom6InvokeEP13TfLiteContextP10TfLiteNode
 7563 0010 F04F2DE9 		push	{r4, r5, r6, r7, r8, r9, r10, fp, lr}
 7564              		.save {r4, r5, r6, r7, r8, r9, r10, fp, lr}
 7565 0014 003040E3 		movt	r3, #:upper16:_ZN6tflite7testing10MockCustom6InvokeEP13TfLiteContextP10TfLiteNode
 7566 0018 048B2DED 		vpush.64	{d8, d9}
 7567              		.vsave {d8, d9}
 7568 001c 00C040E3 		movt	ip, #:upper16:_ZN6tflite7testing10MockCustom4InitEP13TfLiteContextPKcj
 7569              		.pad #84
 7570 0020 54D04DE2 		sub	sp, sp, #84
 7571 0024 001040E3 		movt	r1, #:upper16:_ZN6tflite7testing10MockCustom4FreeEP13TfLiteContextPv
 7572 0028 002040E3 		movt	r2, #:upper16:_ZN6tflite7testing10MockCustom7PrepareEP13TfLiteContextP10TfLiteNode
 7573 002c 4C308DE5 		str	r3, [sp, #76]
 7574 0030 40C08DE5 		str	ip, [sp, #64]
 7575 0034 016A80E2 		add	r6, r0, #4096
 7576 0038 44108DE5 		str	r1, [sp, #68]
 7577 003c 0050A0E1 		mov	r5, r0
 7578 0040 48208DE5 		str	r2, [sp, #72]
 7579 0044 108B9DED 		vldr	d8, [sp, #64]
 7580 0048 129B9DED 		vldr	d9, [sp, #72]
 7581 004c FEFFFFEB 		bl	_ZN6tflite14AllOpsResolverC1Ev
 7582 0050 048096E5 		ldr	r8, [r6, #4]
 7583 0054 003000E3 		movw	r3, #:lower16:.LANCHOR28
 7584 0058 003040E3 		movt	r3, #:upper16:.LANCHOR28
 7585 005c 7F0058E3 		cmp	r8, #127
 7586 0060 DF8A03F4 		vst1.64	{d8-d9}, [r3:64]
 7587 0064 1F00009A 		bls	.L1588
 7588 0068 000000E3 		movw	r0, #:lower16:_ZN6tflite7testing14MultipleInputs4InitEP13TfLiteContextPKcj
 7589 006c 001000E3 		movw	r1, #:lower16:_ZN6tflite7testing14MultipleInputs4FreeEP13TfLiteContextPv
 7590 0070 003000E3 		movw	r3, #:lower16:_ZN6tflite7testing14MultipleInputs7PrepareEP13TfLiteContextP10TfLiteNode
 7591 0074 002000E3 		movw	r2, #:lower16:_ZN6tflite7testing14MultipleInputs6InvokeEP13TfLiteContextP10TfLiteNode
 7592 0078 000040E3 		movt	r0, #:upper16:_ZN6tflite7testing14MultipleInputs4InitEP13TfLiteContextPKcj
 7593 007c 001040E3 		movt	r1, #:upper16:_ZN6tflite7testing14MultipleInputs4FreeEP13TfLiteContextPv
 7594 0080 003040E3 		movt	r3, #:upper16:_ZN6tflite7testing14MultipleInputs7PrepareEP13TfLiteContextP10TfLiteNode
 7595 0084 002040E3 		movt	r2, #:upper16:_ZN6tflite7testing14MultipleInputs6InvokeEP13TfLiteContextP10TfLiteNode
 7596 0088 20008DE5 		str	r0, [sp, #32]
 7597 008c 00C000E3 		movw	ip, #:lower16:.LANCHOR29
 7598 0090 24108DE5 		str	r1, [sp, #36]
 7599 0094 00C040E3 		movt	ip, #:upper16:.LANCHOR29
 7600 0098 28308DE5 		str	r3, [sp, #40]
 7601 009c 000000E3 		movw	r0, #:lower16:_ZN6tflite7testing16SimpleStatefulOp4InitEP13TfLiteContextPKcj
 7602 00a0 2C208DE5 		str	r2, [sp, #44]
 7603 00a4 003000E3 		movw	r3, #:lower16:.LANCHOR27
 7604 00a8 080BDDED 		vldr	d16, [sp, #32]
 7605 00ac 0A1BDDED 		vldr	d17, [sp, #40]
 7606 00b0 001000E3 		movw	r1, #:lower16:_ZN6tflite7testing16SimpleStatefulOp7PrepareEP13TfLiteContextP10TfLiteNode
 7607 00b4 002000E3 		movw	r2, #:lower16:_ZN6tflite7testing16SimpleStatefulOp6InvokeEP13TfLiteContextP10TfLiteNode
 7608 00b8 003040E3 		movt	r3, #:upper16:.LANCHOR27
 7609 00bc 000040E3 		movt	r0, #:upper16:_ZN6tflite7testing16SimpleStatefulOp4InitEP13TfLiteContextPKcj
 7610 00c0 001040E3 		movt	r1, #:upper16:_ZN6tflite7testing16SimpleStatefulOp7PrepareEP13TfLiteContextP10TfLiteNode
 7611 00c4 002040E3 		movt	r2, #:upper16:_ZN6tflite7testing16SimpleStatefulOp6InvokeEP13TfLiteContextP10TfLiteNode
 7612 00c8 DF0A4CF4 		vst1.64	{d16-d17}, [ip:64]
 7613 00cc 000083E5 		str	r0, [r3]
 7614 00d0 081083E5 		str	r1, [r3, #8]
 7615 00d4 0C2083E5 		str	r2, [r3, #12]
 7616              	.L1552:
 7617 00d8 0500A0E1 		mov	r0, r5
 7618 00dc 54D08DE2 		add	sp, sp, #84
 7619              		@ sp needed
 7620 00e0 048BBDEC 		vldm	sp!, {d8-d9}
 7621 00e4 F08FBDE8 		pop	{r4, r5, r6, r7, r8, r9, r10, fp, pc}
 7622              	.L1588:
 7623 00e8 000058E3 		cmp	r8, #0
 7624 00ec 0890A001 		moveq	r9, r8
 7625 00f0 1D00000A 		beq	.L1554
 7626 00f4 8892A0E1 		lsl	r9, r8, #5
 7627 00f8 00A000E3 		movw	r10, #:lower16:.LC35
 7628 00fc 00A040E3 		movt	r10, #:upper16:.LC35
 7629 0100 097085E0 		add	r7, r5, r9
 7630 0104 0540A0E1 		mov	r4, r5
 7631 0108 020000EA 		b	.L1557
 7632              	.L1555:
 7633 010c 204084E2 		add	r4, r4, #32
 7634 0110 040057E1 		cmp	r7, r4
 7635 0114 1400000A 		beq	.L1554
 7636              	.L1557:
 7637 0118 183094E5 		ldr	r3, [r4, #24]
 7638 011c 200053E3 		cmp	r3, #32
 7639 0120 F9FFFF1A 		bne	.L1555
 7640 0124 0A10A0E1 		mov	r1, r10
 7641 0128 1C0094E5 		ldr	r0, [r4, #28]
 7642 012c FEFFFFEB 		bl	strcmp
 7643 0130 000050E3 		cmp	r0, #0
 7644 0134 F4FFFF1A 		bne	.L1555
 7645 0138 004000E3 		movw	r4, #:lower16:.LANCHOR27
 7646 013c 001000E3 		movw	r1, #:lower16:_ZN6tflite7testing16SimpleStatefulOp4InitEP13TfLiteContextPKcj
 7647 0140 002000E3 		movw	r2, #:lower16:_ZN6tflite7testing16SimpleStatefulOp7PrepareEP13TfLiteContextP10TfLiteNode
 7648 0144 003000E3 		movw	r3, #:lower16:_ZN6tflite7testing16SimpleStatefulOp6InvokeEP13TfLiteContextP10TfLiteNode
 7649 0148 004040E3 		movt	r4, #:upper16:.LANCHOR27
 7650 014c 001040E3 		movt	r1, #:upper16:_ZN6tflite7testing16SimpleStatefulOp4InitEP13TfLiteContextPKcj
 7651 0150 002040E3 		movt	r2, #:upper16:_ZN6tflite7testing16SimpleStatefulOp7PrepareEP13TfLiteContextP10TfLiteNode
 7652 0154 003040E3 		movt	r3, #:upper16:_ZN6tflite7testing16SimpleStatefulOp6InvokeEP13TfLiteContextP10TfLiteNode
 7653 0158 0870A0E1 		mov	r7, r8
 7654 015c 001084E5 		str	r1, [r4]
 7655 0160 082084E5 		str	r2, [r4, #8]
 7656 0164 0C3084E5 		str	r3, [r4, #12]
 7657 0168 1B0000EA 		b	.L1568
 7658              	.L1554:
 7659 016c 00C000E3 		movw	ip, #:lower16:.LANCHOR28
 7660 0170 099085E0 		add	r9, r5, r9
 7661 0174 00C040E3 		movt	ip, #:upper16:.LANCHOR28
 7662 0178 017088E2 		add	r7, r8, #1
 7663 017c 0F00BCE8 		ldmia	ip!, {r0, r1, r2, r3}
 7664 0180 04E089E2 		add	lr, r9, #4
 7665 0184 008000E3 		movw	r8, #:lower16:.LC35
 7666 0188 004000E3 		movw	r4, #:lower16:.LANCHOR27
 7667 018c 047086E5 		str	r7, [r6, #4]
 7668 0190 00A000E3 		movw	r10, #:lower16:_ZN6tflite7testing16SimpleStatefulOp4InitEP13TfLiteContextPKcj
 7669 0194 800057E3 		cmp	r7, #128
 7670 0198 004040E3 		movt	r4, #:upper16:.LANCHOR27
 7671 019c 0F00AEE8 		stmia	lr!, {r0, r1, r2, r3}
 7672 01a0 008040E3 		movt	r8, #:upper16:.LC35
 7673 01a4 00A040E3 		movt	r10, #:upper16:_ZN6tflite7testing16SimpleStatefulOp4InitEP13TfLiteContextPKcj
 7674 01a8 0F009CE8 		ldm	ip, {r0, r1, r2, r3}
 7675 01ac 00C000E3 		movw	ip, #:lower16:_ZN6tflite7testing16SimpleStatefulOp7PrepareEP13TfLiteContextP10TfLiteNode
 7676 01b0 00C040E3 		movt	ip, #:upper16:_ZN6tflite7testing16SimpleStatefulOp7PrepareEP13TfLiteContextP10TfLiteNode
 7677 01b4 00A084E5 		str	r10, [r4]
 7678 01b8 0F008EE8 		stm	lr, {r0, r1, r2, r3}
 7679 01bc 003000E3 		movw	r3, #:lower16:_ZN6tflite7testing16SimpleStatefulOp6InvokeEP13TfLiteContextP10TfLiteNode
 7680 01c0 2020A0E3 		mov	r2, #32
 7681 01c4 003040E3 		movt	r3, #:upper16:_ZN6tflite7testing16SimpleStatefulOp6InvokeEP13TfLiteContextP10TfLiteNode
 7682 01c8 182089E5 		str	r2, [r9, #24]
 7683 01cc 1C8089E5 		str	r8, [r9, #28]
 7684 01d0 08C084E5 		str	ip, [r4, #8]
 7685 01d4 0C3084E5 		str	r3, [r4, #12]
 7686 01d8 8100000A 		beq	.L1589
 7687              	.L1568:
 7688 01dc 003095E5 		ldr	r3, [r5]
 7689 01e0 009000E3 		movw	r9, #:lower16:_ZNK6tflite22MicroMutableOpResolverILj128EE6FindOpEPKc
 7690 01e4 009040E3 		movt	r9, #:upper16:_ZNK6tflite22MicroMutableOpResolverILj128EE6FindOpEPKc
 7691 01e8 1C3093E5 		ldr	r3, [r3, #28]
 7692 01ec 090053E1 		cmp	r3, r9
 7693 01f0 2200001A 		bne	.L1590
 7694 01f4 87A2A0E1 		lsl	r10, r7, #5
 7695 01f8 008000E3 		movw	r8, #:lower16:.LC37
 7696 01fc 008040E3 		movt	r8, #:upper16:.LC37
 7697 0200 0AB085E0 		add	fp, r5, r10
 7698 0204 0540A0E1 		mov	r4, r5
 7699 0208 020000EA 		b	.L1561
 7700              	.L1558:
 7701 020c 204084E2 		add	r4, r4, #32
 7702 0210 04005BE1 		cmp	fp, r4
 7703 0214 2000000A 		beq	.L1560
 7704              	.L1561:
 7705 0218 183094E5 		ldr	r3, [r4, #24]
 7706 021c 200053E3 		cmp	r3, #32
 7707 0220 F9FFFF1A 		bne	.L1558
 7708 0224 0810A0E1 		mov	r1, r8
 7709 0228 1C0094E5 		ldr	r0, [r4, #28]
 7710 022c FEFFFFEB 		bl	strcmp
 7711 0230 000050E3 		cmp	r0, #0
 7712 0234 F4FFFF1A 		bne	.L1558
 7713              	.L1559:
 7714 0238 000000E3 		movw	r0, #:lower16:_ZN6tflite7testing14MultipleInputs4InitEP13TfLiteContextPKcj
 7715 023c 003000E3 		movw	r3, #:lower16:_ZN6tflite7testing14MultipleInputs4FreeEP13TfLiteContextPv
 7716 0240 001000E3 		movw	r1, #:lower16:_ZN6tflite7testing14MultipleInputs7PrepareEP13TfLiteContextP10TfLiteNode
 7717 0244 002000E3 		movw	r2, #:lower16:_ZN6tflite7testing14MultipleInputs6InvokeEP13TfLiteContextP10TfLiteNode
 7718 0248 003040E3 		movt	r3, #:upper16:_ZN6tflite7testing14MultipleInputs4FreeEP13TfLiteContextPv
 7719 024c 000040E3 		movt	r0, #:upper16:_ZN6tflite7testing14MultipleInputs4InitEP13TfLiteContextPKcj
 7720 0250 001040E3 		movt	r1, #:upper16:_ZN6tflite7testing14MultipleInputs7PrepareEP13TfLiteContextP10TfLiteNode
 7721 0254 002040E3 		movt	r2, #:upper16:_ZN6tflite7testing14MultipleInputs6InvokeEP13TfLiteContextP10TfLiteNode
 7722 0258 14308DE5 		str	r3, [sp, #20]
 7723 025c 003000E3 		movw	r3, #:lower16:.LANCHOR29
 7724 0260 10008DE5 		str	r0, [sp, #16]
 7725 0264 003040E3 		movt	r3, #:upper16:.LANCHOR29
 7726 0268 18108DE5 		str	r1, [sp, #24]
 7727 026c 1C208DE5 		str	r2, [sp, #28]
 7728 0270 040BDDED 		vldr	d16, [sp, #16]
 7729 0274 061BDDED 		vldr	d17, [sp, #24]
 7730 0278 DF0A43F4 		vst1.64	{d16-d17}, [r3:64]
 7731 027c 280000EA 		b	.L1563
 7732              	.L1590:
 7733 0280 001000E3 		movw	r1, #:lower16:.LC37
 7734 0284 0500A0E1 		mov	r0, r5
 7735 0288 001040E3 		movt	r1, #:upper16:.LC37
 7736 028c FEFFFFEB 		bl	_ZNK6tflite22MicroMutableOpResolverILj128EE6FindOpEPKc
 7737 0290 000050E3 		cmp	r0, #0
 7738 0294 E7FFFF1A 		bne	.L1559
 7739 0298 87A2A0E1 		lsl	r10, r7, #5
 7740              	.L1560:
 7741 029c 00C000E3 		movw	ip, #:lower16:.LANCHOR27
 7742 02a0 00C040E3 		movt	ip, #:upper16:.LANCHOR27
 7743 02a4 0AA085E0 		add	r10, r5, r10
 7744 02a8 0F00BCE8 		ldmia	ip!, {r0, r1, r2, r3}
 7745 02ac 017087E2 		add	r7, r7, #1
 7746 02b0 04E08AE2 		add	lr, r10, #4
 7747 02b4 008000E3 		movw	r8, #:lower16:_ZN6tflite7testing14MultipleInputs4InitEP13TfLiteContextPKcj
 7748 02b8 047086E5 		str	r7, [r6, #4]
 7749 02bc 004000E3 		movw	r4, #:lower16:_ZN6tflite7testing14MultipleInputs4FreeEP13TfLiteContextPv
 7750 02c0 00B000E3 		movw	fp, #:lower16:_ZN6tflite7testing14MultipleInputs7PrepareEP13TfLiteContextP10TfLiteNode
 7751 02c4 008040E3 		movt	r8, #:upper16:_ZN6tflite7testing14MultipleInputs4InitEP13TfLiteContextPKcj
 7752 02c8 0F00AEE8 		stmia	lr!, {r0, r1, r2, r3}
 7753 02cc 004040E3 		movt	r4, #:upper16:_ZN6tflite7testing14MultipleInputs4FreeEP13TfLiteContextPv
 7754 02d0 00B040E3 		movt	fp, #:upper16:_ZN6tflite7testing14MultipleInputs7PrepareEP13TfLiteContextP10TfLiteNode
 7755 02d4 7F0057E3 		cmp	r7, #127
 7756 02d8 0F009CE8 		ldm	ip, {r0, r1, r2, r3}
 7757 02dc 00C000E3 		movw	ip, #:lower16:_ZN6tflite7testing14MultipleInputs6InvokeEP13TfLiteContextP10TfLiteNode
 7758 02e0 00C040E3 		movt	ip, #:upper16:_ZN6tflite7testing14MultipleInputs6InvokeEP13TfLiteContextP10TfLiteNode
 7759 02e4 0F008EE8 		stm	lr, {r0, r1, r2, r3}
 7760 02e8 003000E3 		movw	r3, #:lower16:.LANCHOR29
 7761 02ec 30808DE5 		str	r8, [sp, #48]
 7762 02f0 002000E3 		movw	r2, #:lower16:.LC37
 7763 02f4 003040E3 		movt	r3, #:upper16:.LANCHOR29
 7764 02f8 2010A0E3 		mov	r1, #32
 7765 02fc 34408DE5 		str	r4, [sp, #52]
 7766 0300 002040E3 		movt	r2, #:upper16:.LC37
 7767 0304 38B08DE5 		str	fp, [sp, #56]
 7768 0308 3CC08DE5 		str	ip, [sp, #60]
 7769 030c 0C0BDDED 		vldr	d16, [sp, #48]
 7770 0310 0E1BDDED 		vldr	d17, [sp, #56]
 7771 0314 18108AE5 		str	r1, [r10, #24]
 7772 0318 1C208AE5 		str	r2, [r10, #28]
 7773 031c DF0A43F4 		vst1.64	{d16-d17}, [r3:64]
 7774 0320 6CFFFF8A 		bhi	.L1552
 7775              	.L1563:
 7776 0324 003095E5 		ldr	r3, [r5]
 7777 0328 1C3093E5 		ldr	r3, [r3, #28]
 7778 032c 090053E1 		cmp	r3, r9
 7779 0330 2300001A 		bne	.L1591
 7780 0334 87A2A0E1 		lsl	r10, r7, #5
 7781 0338 009000E3 		movw	r9, #:lower16:.LC38
 7782 033c 009040E3 		movt	r9, #:upper16:.LC38
 7783 0340 0A8085E0 		add	r8, r5, r10
 7784 0344 0540A0E1 		mov	r4, r5
 7785 0348 020000EA 		b	.L1566
 7786              	.L1564:
 7787 034c 204084E2 		add	r4, r4, #32
 7788 0350 040058E1 		cmp	r8, r4
 7789 0354 0A00000A 		beq	.L1565
 7790              	.L1566:
 7791 0358 183094E5 		ldr	r3, [r4, #24]
 7792 035c 200053E3 		cmp	r3, #32
 7793 0360 F9FFFF1A 		bne	.L1564
 7794 0364 0910A0E1 		mov	r1, r9
 7795 0368 1C0094E5 		ldr	r0, [r4, #28]
 7796 036c FEFFFFEB 		bl	strcmp
 7797 0370 000050E3 		cmp	r0, #0
 7798 0374 57FFFF0A 		beq	.L1552
 7799 0378 204084E2 		add	r4, r4, #32
 7800 037c 040058E1 		cmp	r8, r4
 7801 0380 F4FFFF1A 		bne	.L1566
 7802              	.L1565:
 7803 0384 00C000E3 		movw	ip, #:lower16:.LANCHOR29
 7804 0388 0AA085E0 		add	r10, r5, r10
 7805 038c 00C040E3 		movt	ip, #:upper16:.LANCHOR29
 7806 0390 017087E2 		add	r7, r7, #1
 7807 0394 0F00BCE8 		ldmia	ip!, {r0, r1, r2, r3}
 7808 0398 04E08AE2 		add	lr, r10, #4
 7809 039c 004000E3 		movw	r4, #:lower16:.LC38
 7810 03a0 047086E5 		str	r7, [r6, #4]
 7811 03a4 004040E3 		movt	r4, #:upper16:.LC38
 7812 03a8 2060A0E3 		mov	r6, #32
 7813 03ac 0F00AEE8 		stmia	lr!, {r0, r1, r2, r3}
 7814 03b0 0F009CE8 		ldm	ip, {r0, r1, r2, r3}
 7815 03b4 0F008EE8 		stm	lr, {r0, r1, r2, r3}
 7816 03b8 18608AE5 		str	r6, [r10, #24]
 7817 03bc 1C408AE5 		str	r4, [r10, #28]
 7818 03c0 44FFFFEA 		b	.L1552
 7819              	.L1591:
 7820 03c4 001000E3 		movw	r1, #:lower16:.LC38
 7821 03c8 0500A0E1 		mov	r0, r5
 7822 03cc 001040E3 		movt	r1, #:upper16:.LC38
 7823 03d0 FEFFFFEB 		bl	_ZNK6tflite22MicroMutableOpResolverILj128EE6FindOpEPKc
 7824 03d4 000050E3 		cmp	r0, #0
 7825 03d8 3EFFFF1A 		bne	.L1552
 7826 03dc 87A2A0E1 		lsl	r10, r7, #5
 7827 03e0 E7FFFFEA 		b	.L1565
 7828              	.L1589:
 7829 03e4 003000E3 		movw	r3, #:lower16:_ZN6tflite7testing14MultipleInputs4InitEP13TfLiteContextPKcj
 7830 03e8 000000E3 		movw	r0, #:lower16:_ZN6tflite7testing14MultipleInputs4FreeEP13TfLiteContextPv
 7831 03ec 001000E3 		movw	r1, #:lower16:_ZN6tflite7testing14MultipleInputs7PrepareEP13TfLiteContextP10TfLiteNode
 7832 03f0 002000E3 		movw	r2, #:lower16:_ZN6tflite7testing14MultipleInputs6InvokeEP13TfLiteContextP10TfLiteNode
 7833 03f4 003040E3 		movt	r3, #:upper16:_ZN6tflite7testing14MultipleInputs4InitEP13TfLiteContextPKcj
 7834 03f8 000040E3 		movt	r0, #:upper16:_ZN6tflite7testing14MultipleInputs4FreeEP13TfLiteContextPv
 7835 03fc 001040E3 		movt	r1, #:upper16:_ZN6tflite7testing14MultipleInputs7PrepareEP13TfLiteContextP10TfLiteNode
 7836 0400 002040E3 		movt	r2, #:upper16:_ZN6tflite7testing14MultipleInputs6InvokeEP13TfLiteContextP10TfLiteNode
 7837 0404 00308DE5 		str	r3, [sp]
 7838 0408 003000E3 		movw	r3, #:lower16:.LANCHOR29
 7839 040c 04008DE5 		str	r0, [sp, #4]
 7840 0410 003040E3 		movt	r3, #:upper16:.LANCHOR29
 7841 0414 08108DE5 		str	r1, [sp, #8]
 7842 0418 0C208DE5 		str	r2, [sp, #12]
 7843 041c DF0A6DF4 		vld1.64	{d16-d17}, [sp:64]
 7844 0420 DF0A43F4 		vst1.64	{d16-d17}, [r3:64]
 7845 0424 2BFFFFEA 		b	.L1552
 7846              		.fnend
 7848              		.section	.text._ZN6tflite7testing24GetModelWithUnusedInputsEv,"ax",%progbits
 7849              		.align	2
 7850              		.global	_ZN6tflite7testing24GetModelWithUnusedInputsEv
 7851              		.syntax unified
 7852              		.arm
 7853              		.fpu neon
 7855              	_ZN6tflite7testing24GetModelWithUnusedInputsEv:
 7856              		.fnstart
 7857              	.LFB7014:
 7858              		@ args = 0, pretend = 0, frame = 64
 7859              		@ frame_needed = 0, uses_anonymous_args = 0
 7860 0000 F0472DE9 		push	{r4, r5, r6, r7, r8, r9, r10, lr}
 7861              		.save {r4, r5, r6, r7, r8, r9, r10, lr}
 7862 0004 005000E3 		movw	r5, #:lower16:.LANCHOR30
 7863 0008 005040E3 		movt	r5, #:upper16:.LANCHOR30
 7864              		.pad #88
 7865 000c 58D04DE2 		sub	sp, sp, #88
 7866 0010 004095E5 		ldr	r4, [r5]
 7867 0014 000054E3 		cmp	r4, #0
 7868 0018 0200000A 		beq	.L1597
 7869 001c 0400A0E1 		mov	r0, r4
 7870 0020 58D08DE2 		add	sp, sp, #88
 7871              		@ sp needed
 7872 0024 F087BDE8 		pop	{r4, r5, r6, r7, r8, r9, r10, pc}
 7873              	.L1597:
 7874 0028 FEFFFFEB 		bl	_ZN6tflite7testing12_GLOBAL__N_115BuilderInstanceEv
 7875 002c 0410A0E1 		mov	r1, r4
 7876 0030 0060A0E1 		mov	r6, r0
 7877 0034 FEFFFFEB 		bl	_ZN6tflite12CreateBufferERN11flatbuffers17FlatBufferBuilderENS0_6OffsetINS0_6VectorIhEEEE
 7878 0038 C40BDFED 		vldr	d16, .L1600
 7879 003c 38108DE2 		add	r1, sp, #56
 7880 0040 1C008DE5 		str	r0, [sp, #28]
 7881 0044 0600A0E1 		mov	r0, r6
 7882 0048 0E0BCDED 		vstr	d16, [sp, #56]
 7883 004c FEFFFFEB 		bl	_ZN11flatbuffers17FlatBufferBuilder12CreateVectorIlEENS_6OffsetINS_6VectorIT_EEEEPKS4_j.constpr
 7884 0050 001000E3 		movw	r1, #:lower16:.LC39
 7885 0054 0070A0E1 		mov	r7, r0
 7886 0058 1120A0E3 		mov	r2, #17
 7887 005c 001040E3 		movt	r1, #:upper16:.LC39
 7888 0060 0600A0E1 		mov	r0, r6
 7889 0064 FEFFFFEB 		bl	_ZN11flatbuffers17FlatBufferBuilder12CreateStringEPKcj
 7890 0068 0710A0E1 		mov	r1, r7
 7891 006c 0030A0E1 		mov	r3, r0
 7892 0070 0920A0E3 		mov	r2, #9
 7893 0074 08408DE5 		str	r4, [sp, #8]
 7894 0078 0600A0E1 		mov	r0, r6
 7895 007c 04408DE5 		str	r4, [sp, #4]
 7896 0080 00408DE5 		str	r4, [sp]
 7897 0084 FEFFFFEB 		bl	_ZN6tflite12CreateTensorERN11flatbuffers17FlatBufferBuilderENS0_6OffsetINS0_6VectorIlEEEENS_10T
 7898 0088 38108DE2 		add	r1, sp, #56
 7899 008c 48008DE5 		str	r0, [sp, #72]
 7900 0090 0600A0E1 		mov	r0, r6
 7901 0094 FEFFFFEB 		bl	_ZN11flatbuffers17FlatBufferBuilder12CreateVectorIlEENS_6OffsetINS_6VectorIT_EEEEPKS4_j.constpr
 7902 0098 001000E3 		movw	r1, #:lower16:.LC40
 7903 009c 0070A0E1 		mov	r7, r0
 7904 00a0 1820A0E3 		mov	r2, #24
 7905 00a4 001040E3 		movt	r1, #:upper16:.LC40
 7906 00a8 0600A0E1 		mov	r0, r6
 7907 00ac FEFFFFEB 		bl	_ZN11flatbuffers17FlatBufferBuilder12CreateStringEPKcj
 7908 00b0 0710A0E1 		mov	r1, r7
 7909 00b4 0030A0E1 		mov	r3, r0
 7910 00b8 0920A0E3 		mov	r2, #9
 7911 00bc 08408DE5 		str	r4, [sp, #8]
 7912 00c0 0600A0E1 		mov	r0, r6
 7913 00c4 04408DE5 		str	r4, [sp, #4]
 7914 00c8 00408DE5 		str	r4, [sp]
 7915 00cc FEFFFFEB 		bl	_ZN6tflite12CreateTensorERN11flatbuffers17FlatBufferBuilderENS0_6OffsetINS0_6VectorIlEEEENS_10T
 7916 00d0 38108DE2 		add	r1, sp, #56
 7917 00d4 4C008DE5 		str	r0, [sp, #76]
 7918 00d8 0600A0E1 		mov	r0, r6
 7919 00dc FEFFFFEB 		bl	_ZN11flatbuffers17FlatBufferBuilder12CreateVectorIlEENS_6OffsetINS_6VectorIT_EEEEPKS4_j.constpr
 7920 00e0 001000E3 		movw	r1, #:lower16:.LC41
 7921 00e4 0070A0E1 		mov	r7, r0
 7922 00e8 1220A0E3 		mov	r2, #18
 7923 00ec 001040E3 		movt	r1, #:upper16:.LC41
 7924 00f0 0600A0E1 		mov	r0, r6
 7925 00f4 FEFFFFEB 		bl	_ZN11flatbuffers17FlatBufferBuilder12CreateStringEPKcj
 7926 00f8 0920A0E3 		mov	r2, #9
 7927 00fc 0030A0E1 		mov	r3, r0
 7928 0100 0710A0E1 		mov	r1, r7
 7929 0104 08408DE5 		str	r4, [sp, #8]
 7930 0108 0600A0E1 		mov	r0, r6
 7931 010c 04408DE5 		str	r4, [sp, #4]
 7932 0110 00408DE5 		str	r4, [sp]
 7933 0114 FEFFFFEB 		bl	_ZN6tflite12CreateTensorERN11flatbuffers17FlatBufferBuilderENS0_6OffsetINS0_6VectorIlEEEENS_10T
 7934 0118 0210A0E3 		mov	r1, #2
 7935 011c 50008DE5 		str	r0, [sp, #80]
 7936 0120 0600A0E1 		mov	r0, r6
 7937 0124 FEFFFFEB 		bl	_ZN11flatbuffers17FlatBufferBuilder11StartVectorEjj.constprop.148
 7938 0128 0810A0E3 		mov	r1, #8
 7939 012c 0600A0E1 		mov	r0, r6
 7940 0130 FEFFFFEB 		bl	_ZN11flatbuffers15vector_downward12ensure_spaceEj
 7941 0134 183096E5 		ldr	r3, [r6, #24]
 7942 0138 0820A0E3 		mov	r2, #8
 7943 013c 38108DE2 		add	r1, sp, #56
 7944 0140 000043E0 		sub	r0, r3, r0
 7945 0144 180086E5 		str	r0, [r6, #24]
 7946 0148 FEFFFFEB 		bl	memcpy
 7947 014c 0210A0E3 		mov	r1, #2
 7948 0150 0600A0E1 		mov	r0, r6
 7949 0154 FEFFFFEB 		bl	_ZN11flatbuffers17FlatBufferBuilder9EndVectorEj
 7950 0158 001000E3 		movw	r1, #:lower16:.LC42
 7951 015c 0070A0E1 		mov	r7, r0
 7952 0160 1220A0E3 		mov	r2, #18
 7953 0164 001040E3 		movt	r1, #:upper16:.LC42
 7954 0168 0600A0E1 		mov	r0, r6
 7955 016c FEFFFFEB 		bl	_ZN11flatbuffers17FlatBufferBuilder12CreateStringEPKcj
 7956 0170 0920A0E3 		mov	r2, #9
 7957 0174 0710A0E1 		mov	r1, r7
 7958 0178 0030A0E1 		mov	r3, r0
 7959 017c 08408DE5 		str	r4, [sp, #8]
 7960 0180 0600A0E1 		mov	r0, r6
 7961 0184 04408DE5 		str	r4, [sp, #4]
 7962 0188 00408DE5 		str	r4, [sp]
 7963 018c FEFFFFEB 		bl	_ZN6tflite12CreateTensorERN11flatbuffers17FlatBufferBuilderENS0_6OffsetINS0_6VectorIlEEEENS_10T
 7964 0190 700BDFED 		vldr	d16, .L1600+8
 7965 0194 0230A0E3 		mov	r3, #2
 7966 0198 54008DE5 		str	r0, [sp, #84]
 7967 019c 24108DE2 		add	r1, sp, #36
 7968 01a0 0600A0E1 		mov	r0, r6
 7969 01a4 100BCDED 		vstr	d16, [sp, #64]
 7970 01a8 20308DE5 		str	r3, [sp, #32]
 7971 01ac 28308DE5 		str	r3, [sp, #40]
 7972 01b0 24408DE5 		str	r4, [sp, #36]
 7973 01b4 FEFFFFEB 		bl	_ZN11flatbuffers17FlatBufferBuilder12CreateVectorIlEENS_6OffsetINS_6VectorIT_EEEEPKS4_j.constpr
 7974 01b8 28108DE2 		add	r1, sp, #40
 7975 01bc 0070A0E1 		mov	r7, r0
 7976 01c0 0600A0E1 		mov	r0, r6
 7977 01c4 FEFFFFEB 		bl	_ZN11flatbuffers17FlatBufferBuilder12CreateVectorIlEENS_6OffsetINS_6VectorIT_EEEEPKS4_j.constpr
 7978 01c8 0720A0E1 		mov	r2, r7
 7979 01cc 0030A0E1 		mov	r3, r0
 7980 01d0 0410A0E1 		mov	r1, r4
 7981 01d4 14408DE5 		str	r4, [sp, #20]
 7982 01d8 0600A0E1 		mov	r0, r6
 7983 01dc 10408DE5 		str	r4, [sp, #16]
 7984 01e0 0C408DE5 		str	r4, [sp, #12]
 7985 01e4 08408DE5 		str	r4, [sp, #8]
 7986 01e8 04408DE5 		str	r4, [sp, #4]
 7987 01ec 00408DE5 		str	r4, [sp]
 7988 01f0 FEFFFFEB 		bl	_ZN6tflite14CreateOperatorERN11flatbuffers17FlatBufferBuilderEmNS0_6OffsetINS0_6VectorIlEEEES6_
 7989 01f4 48108DE2 		add	r1, sp, #72
 7990 01f8 2C008DE5 		str	r0, [sp, #44]
 7991 01fc 0600A0E1 		mov	r0, r6
 7992 0200 FEFFFFEB 		bl	_ZN11flatbuffers17FlatBufferBuilder12CreateVectorIN6tflite6TensorEEENS_6OffsetINS_6VectorINS4_I
 7993 0204 40108DE2 		add	r1, sp, #64
 7994 0208 0070A0E1 		mov	r7, r0
 7995 020c 0600A0E1 		mov	r0, r6
 7996 0210 FEFFFFEB 		bl	_ZN11flatbuffers17FlatBufferBuilder12CreateVectorIlEENS_6OffsetINS_6VectorIT_EEEEPKS4_j.constpr
 7997 0214 20108DE2 		add	r1, sp, #32
 7998 0218 0080A0E1 		mov	r8, r0
 7999 021c 0600A0E1 		mov	r0, r6
 8000 0220 FEFFFFEB 		bl	_ZN11flatbuffers17FlatBufferBuilder12CreateVectorIlEENS_6OffsetINS_6VectorIT_EEEEPKS4_j.constpr
 8001 0224 2C108DE2 		add	r1, sp, #44
 8002 0228 0090A0E1 		mov	r9, r0
 8003 022c 0600A0E1 		mov	r0, r6
 8004 0230 FEFFFFEB 		bl	_ZN11flatbuffers17FlatBufferBuilder12CreateVectorIN6tflite8OperatorEEENS_6OffsetINS_6VectorINS4
 8005 0234 001000E3 		movw	r1, #:lower16:.LC32
 8006 0238 00A0A0E1 		mov	r10, r0
 8007 023c 0D20A0E3 		mov	r2, #13
 8008 0240 001040E3 		movt	r1, #:upper16:.LC32
 8009 0244 0600A0E1 		mov	r0, r6
 8010 0248 FEFFFFEB 		bl	_ZN11flatbuffers17FlatBufferBuilder12CreateStringEPKcj
 8011 024c 0930A0E1 		mov	r3, r9
 8012 0250 0820A0E1 		mov	r2, r8
 8013 0254 0710A0E1 		mov	r1, r7
 8014 0258 04008DE5 		str	r0, [sp, #4]
 8015 025c 00A08DE5 		str	r10, [sp]
 8016 0260 0600A0E1 		mov	r0, r6
 8017 0264 FEFFFFEB 		bl	_ZN6tflite14CreateSubGraphERN11flatbuffers17FlatBufferBuilderENS0_6OffsetINS0_6VectorINS3_INS_6
 8018 0268 001000E3 		movw	r1, #:lower16:.LC35
 8019 026c 2020A0E3 		mov	r2, #32
 8020 0270 30008DE5 		str	r0, [sp, #48]
 8021 0274 001040E3 		movt	r1, #:upper16:.LC35
 8022 0278 0600A0E1 		mov	r0, r6
 8023 027c FEFFFFEB 		bl	_ZN6tflite24CreateOperatorCodeDirectERN11flatbuffers17FlatBufferBuilderEaPKclNS_15BuiltinOperat
 8024 0280 58108DE2 		add	r1, sp, #88
 8025 0284 240021E5 		str	r0, [r1, #-36]!
 8026 0288 0600A0E1 		mov	r0, r6
 8027 028c FEFFFFEB 		bl	_ZN11flatbuffers17FlatBufferBuilder12CreateVectorIN6tflite12OperatorCodeEEENS_6OffsetINS_6Vecto
 8028 0290 30108DE2 		add	r1, sp, #48
 8029 0294 0070A0E1 		mov	r7, r0
 8030 0298 0600A0E1 		mov	r0, r6
 8031 029c FEFFFFEB 		bl	_ZN11flatbuffers17FlatBufferBuilder12CreateVectorIN6tflite8SubGraphEEENS_6OffsetINS_6VectorINS4
 8032 02a0 001000E3 		movw	r1, #:lower16:.LC43
 8033 02a4 0A20A0E3 		mov	r2, #10
 8034 02a8 0080A0E1 		mov	r8, r0
 8035 02ac 001040E3 		movt	r1, #:upper16:.LC43
 8036 02b0 0600A0E1 		mov	r0, r6
 8037 02b4 FEFFFFEB 		bl	_ZN11flatbuffers17FlatBufferBuilder12CreateStringEPKcj
 8038 02b8 1C108DE2 		add	r1, sp, #28
 8039 02bc 0090A0E1 		mov	r9, r0
 8040 02c0 0600A0E1 		mov	r0, r6
 8041 02c4 FEFFFFEB 		bl	_ZN11flatbuffers17FlatBufferBuilder12CreateVectorIN6tflite6BufferEEENS_6OffsetINS_6VectorINS4_I
 8042 02c8 0830A0E1 		mov	r3, r8
 8043 02cc 04008DE5 		str	r0, [sp, #4]
 8044 02d0 0720A0E1 		mov	r2, r7
 8045 02d4 0410A0E1 		mov	r1, r4
 8046 02d8 00908DE5 		str	r9, [sp]
 8047 02dc 0600A0E1 		mov	r0, r6
 8048 02e0 10408DE5 		str	r4, [sp, #16]
 8049 02e4 0C408DE5 		str	r4, [sp, #12]
 8050 02e8 08408DE5 		str	r4, [sp, #8]
 8051 02ec FEFFFFEB 		bl	_ZN6tflite11CreateModelERN11flatbuffers17FlatBufferBuilderEmNS0_6OffsetINS0_6VectorINS3_INS_12O
 8052 02f0 0010A0E1 		mov	r1, r0
 8053 02f4 0600A0E1 		mov	r0, r6
 8054 02f8 FEFFFFEB 		bl	_ZN11flatbuffers17FlatBufferBuilder6FinishEmPKcb.constprop.146
 8055 02fc 2730D6E5 		ldrb	r3, [r6, #39]	@ zero_extendqisi2
 8056 0300 000053E3 		cmp	r3, #0
 8057 0304 0800000A 		beq	.L1598
 8058 0308 184096E5 		ldr	r4, [r6, #24]
 8059 030c 000054E3 		cmp	r4, #0
 8060 0310 0D00000A 		beq	.L1599
 8061 0314 003094E5 		ldr	r3, [r4]
 8062 0318 034084E0 		add	r4, r4, r3
 8063 031c 0400A0E1 		mov	r0, r4
 8064 0320 004085E5 		str	r4, [r5]
 8065 0324 58D08DE2 		add	sp, sp, #88
 8066              		@ sp needed
 8067 0328 F087BDE8 		pop	{r4, r5, r6, r7, r8, r9, r10, pc}
 8068              	.L1598:
 8069 032c 003000E3 		movw	r3, #:lower16:.LC34
 8070 0330 002000E3 		movw	r2, #:lower16:.LANCHOR18
 8071 0334 000000E3 		movw	r0, #:lower16:.LC19
 8072 0338 003040E3 		movt	r3, #:upper16:.LC34
 8073 033c 002040E3 		movt	r2, #:upper16:.LANCHOR18
 8074 0340 000040E3 		movt	r0, #:upper16:.LC19
 8075 0344 D71400E3 		movw	r1, #1239
 8076 0348 FEFFFFEB 		bl	__assert_func
 8077              	.L1599:
 8078 034c FEFFFFEB 		bl	_ZNK11flatbuffers15vector_downward4dataEv.isra.9.part.10
 8079              	.L1601:
 8080              		.align	3
 8081              	.L1600:
 8082 0350 01000000 		.word	1
 8083 0354 40000000 		.word	64
 8084 0358 00000000 		.word	0
 8085 035c 01000000 		.word	1
 8086              		.fnend
 8088              		.section	.text._ZN6tflite7testing18GetSimpleMockModelEv,"ax",%progbits
 8089              		.align	2
 8090              		.global	_ZN6tflite7testing18GetSimpleMockModelEv
 8091              		.syntax unified
 8092              		.arm
 8093              		.fpu neon
 8095              	_ZN6tflite7testing18GetSimpleMockModelEv:
 8096              		.fnstart
 8097              	.LFB7015:
 8098              		@ args = 0, pretend = 0, frame = 80
 8099              		@ frame_needed = 0, uses_anonymous_args = 0
 8100 0000 F04F2DE9 		push	{r4, r5, r6, r7, r8, r9, r10, fp, lr}
 8101              		.save {r4, r5, r6, r7, r8, r9, r10, fp, lr}
 8102 0004 007000E3 		movw	r7, #:lower16:.LANCHOR31
 8103 0008 007040E3 		movt	r7, #:upper16:.LANCHOR31
 8104              		.pad #108
 8105 000c 6CD04DE2 		sub	sp, sp, #108
 8106 0010 005097E5 		ldr	r5, [r7]
 8107 0014 000055E3 		cmp	r5, #0
 8108 0018 0200000A 		beq	.L1674
 8109 001c 0500A0E1 		mov	r0, r5
 8110 0020 6CD08DE2 		add	sp, sp, #108
 8111              		@ sp needed
 8112 0024 F08FBDE8 		pop	{r4, r5, r6, r7, r8, r9, r10, fp, pc}
 8113              	.L1674:
 8114 0028 FEFFFFEB 		bl	_ZN6tflite7testing12_GLOBAL__N_115BuilderInstanceEv
 8115 002c 0510A0E1 		mov	r1, r5
 8116 0030 0040A0E1 		mov	r4, r0
 8117 0034 FEFFFFEB 		bl	_ZN6tflite12CreateBufferERN11flatbuffers17FlatBufferBuilderENS0_6OffsetINS0_6VectorIhEEEE
 8118 0038 2620D4E5 		ldrb	r2, [r4, #38]	@ zero_extendqisi2
 8119 003c 48008DE5 		str	r0, [sp, #72]
 8120 0040 203094E5 		ldr	r3, [r4, #32]
 8121 0044 000052E3 		cmp	r2, #0
 8122 0048 AB01001A 		bne	.L1675
 8123 004c 000053E3 		cmp	r3, #0
 8124 0050 A801001A 		bne	.L1676
 8125 0054 283094E5 		ldr	r3, [r4, #40]
 8126 0058 0120A0E3 		mov	r2, #1
 8127 005c 2620C4E5 		strb	r2, [r4, #38]
 8128 0060 0400A0E1 		mov	r0, r4
 8129 0064 142094E5 		ldr	r2, [r4, #20]
 8130 0068 030053E3 		cmp	r3, #3
 8131 006c 105094E5 		ldr	r5, [r4, #16]
 8132 0070 0430A093 		movls	r3, #4
 8133 0074 28308495 		strls	r3, [r4, #40]
 8134 0078 183094E5 		ldr	r3, [r4, #24]
 8135 007c 023043E0 		sub	r3, r3, r2
 8136 0080 035045E0 		sub	r5, r5, r3
 8137 0084 0550E0E1 		mvn	r5, r5
 8138 0088 035005E2 		and	r5, r5, #3
 8139 008c 0510A0E1 		mov	r1, r5
 8140 0090 FEFFFFEB 		bl	_ZN11flatbuffers15vector_downward12ensure_spaceEj
 8141 0094 183094E5 		ldr	r3, [r4, #24]
 8142 0098 000055E3 		cmp	r5, #0
 8143 009c 000043E0 		sub	r0, r3, r0
 8144 00a0 180084E5 		str	r0, [r4, #24]
 8145 00a4 0800000A 		beq	.L1607
 8146 00a8 010055E3 		cmp	r5, #1
 8147 00ac 0030A0E3 		mov	r3, #0
 8148 00b0 0030C0E5 		strb	r3, [r0]
 8149 00b4 0400000A 		beq	.L1607
 8150 00b8 182094E5 		ldr	r2, [r4, #24]
 8151 00bc 020055E3 		cmp	r5, #2
 8152 00c0 0130C2E5 		strb	r3, [r2, #1]
 8153 00c4 18209415 		ldrne	r2, [r4, #24]
 8154 00c8 0230C215 		strbne	r3, [r2, #2]
 8155              	.L1607:
 8156 00cc 283094E5 		ldr	r3, [r4, #40]
 8157 00d0 0010A0E3 		mov	r1, #0
 8158 00d4 0400A0E1 		mov	r0, r4
 8159 00d8 68508DE2 		add	r5, sp, #104
 8160 00dc 00A0A0E3 		mov	r10, #0
 8161 00e0 0280A0E3 		mov	r8, #2
 8162 00e4 000053E3 		cmp	r3, #0
 8163 00e8 0130A003 		moveq	r3, #1
 8164 00ec 28308405 		streq	r3, [r4, #40]
 8165 00f0 FEFFFFEB 		bl	_ZN11flatbuffers15vector_downward12ensure_spaceEj
 8166 00f4 183094E5 		ldr	r3, [r4, #24]
 8167 00f8 0110A0E3 		mov	r1, #1
 8168 00fc 0160A0E1 		mov	r6, r1
 8169 0100 003043E0 		sub	r3, r3, r0
 8170 0104 0400A0E1 		mov	r0, r4
 8171 0108 183084E5 		str	r3, [r4, #24]
 8172 010c FEFFFFEB 		bl	_ZN11flatbuffers15vector_downward12ensure_spaceEj
 8173 0110 183094E5 		ldr	r3, [r4, #24]
 8174 0114 1520A0E3 		mov	r2, #21
 8175 0118 0610A0E1 		mov	r1, r6
 8176 011c 003043E0 		sub	r3, r3, r0
 8177 0120 0400A0E1 		mov	r0, r4
 8178 0124 183084E5 		str	r3, [r4, #24]
 8179 0128 0020C3E5 		strb	r2, [r3]
 8180 012c FEFFFFEB 		bl	_ZN11flatbuffers17FlatBufferBuilder9EndVectorEj
 8181 0130 0010A0E1 		mov	r1, r0
 8182 0134 0400A0E1 		mov	r0, r4
 8183 0138 FEFFFFEB 		bl	_ZN6tflite12CreateBufferERN11flatbuffers17FlatBufferBuilderENS0_6OffsetINS0_6VectorIhEEEE
 8184 013c 486025E5 		str	r6, [r5, #-72]!
 8185 0140 0510A0E1 		mov	r1, r5
 8186 0144 4C008DE5 		str	r0, [sp, #76]
 8187 0148 0400A0E1 		mov	r0, r4
 8188 014c FEFFFFEB 		bl	_ZN11flatbuffers17FlatBufferBuilder12CreateVectorIlEENS_6OffsetINS_6VectorIT_EEEEPKS4_j.constpr
 8189 0150 001000E3 		movw	r1, #:lower16:.LC39
 8190 0154 0090A0E1 		mov	r9, r0
 8191 0158 1120A0E3 		mov	r2, #17
 8192 015c 001040E3 		movt	r1, #:upper16:.LC39
 8193 0160 0400A0E1 		mov	r0, r4
 8194 0164 FEFFFFEB 		bl	_ZN11flatbuffers17FlatBufferBuilder12CreateStringEPKcj
 8195 0168 0910A0E1 		mov	r1, r9
 8196 016c 0030A0E1 		mov	r3, r0
 8197 0170 0A20A0E1 		mov	r2, r10
 8198 0174 0CA08DE5 		str	r10, [sp, #12]
 8199 0178 08A08DE5 		str	r10, [sp, #8]
 8200 017c 0400A0E1 		mov	r0, r4
 8201 0180 04A08DE5 		str	r10, [sp, #4]
 8202 0184 00A08DE5 		str	r10, [sp]
 8203 0188 FEFFFFEB 		bl	_ZN6tflite12CreateTensorERN11flatbuffers17FlatBufferBuilderENS0_6OffsetINS0_6VectorIlEEEENS_10T
 8204 018c 0510A0E1 		mov	r1, r5
 8205 0190 58008DE5 		str	r0, [sp, #88]
 8206 0194 0400A0E1 		mov	r0, r4
 8207 0198 FEFFFFEB 		bl	_ZN11flatbuffers17FlatBufferBuilder12CreateVectorIlEENS_6OffsetINS_6VectorIT_EEEEPKS4_j.constpr
 8208 019c 001000E3 		movw	r1, #:lower16:.LC44
 8209 01a0 0090A0E1 		mov	r9, r0
 8210 01a4 1220A0E3 		mov	r2, #18
 8211 01a8 001040E3 		movt	r1, #:upper16:.LC44
 8212 01ac 0400A0E1 		mov	r0, r4
 8213 01b0 FEFFFFEB 		bl	_ZN11flatbuffers17FlatBufferBuilder12CreateStringEPKcj
 8214 01b4 0630A0E1 		mov	r3, r6
 8215 01b8 0910A0E1 		mov	r1, r9
 8216 01bc 0320A0E3 		mov	r2, #3
 8217 01c0 00008DE5 		str	r0, [sp]
 8218 01c4 10A08DE5 		str	r10, [sp, #16]
 8219 01c8 0400A0E1 		mov	r0, r4
 8220 01cc 0CA08DE5 		str	r10, [sp, #12]
 8221 01d0 0490A0E3 		mov	r9, #4
 8222 01d4 08A08DE5 		str	r10, [sp, #8]
 8223 01d8 04A08DE5 		str	r10, [sp, #4]
 8224 01dc FEFFFFEB 		bl	_ZN6tflite12CreateTensorERN11flatbuffers17FlatBufferBuilderENS0_6OffsetINS0_6VectorIlEEEENS_10T
 8225 01e0 0510A0E1 		mov	r1, r5
 8226 01e4 5C008DE5 		str	r0, [sp, #92]
 8227 01e8 0400A0E1 		mov	r0, r4
 8228 01ec FEFFFFEB 		bl	_ZN11flatbuffers17FlatBufferBuilder12CreateVectorIlEENS_6OffsetINS_6VectorIT_EEEEPKS4_j.constpr
 8229 01f0 001000E3 		movw	r1, #:lower16:.LC41
 8230 01f4 0060A0E1 		mov	r6, r0
 8231 01f8 1220A0E3 		mov	r2, #18
 8232 01fc 001040E3 		movt	r1, #:upper16:.LC41
 8233 0200 0400A0E1 		mov	r0, r4
 8234 0204 FEFFFFEB 		bl	_ZN11flatbuffers17FlatBufferBuilder12CreateStringEPKcj
 8235 0208 0610A0E1 		mov	r1, r6
 8236 020c 0030A0E1 		mov	r3, r0
 8237 0210 0A20A0E1 		mov	r2, r10
 8238 0214 0CA08DE5 		str	r10, [sp, #12]
 8239 0218 08A08DE5 		str	r10, [sp, #8]
 8240 021c 0400A0E1 		mov	r0, r4
 8241 0220 04A08DE5 		str	r10, [sp, #4]
 8242 0224 0A60A0E1 		mov	r6, r10
 8243 0228 00A08DE5 		str	r10, [sp]
 8244 022c FEFFFFEB 		bl	_ZN6tflite12CreateTensorERN11flatbuffers17FlatBufferBuilderENS0_6OffsetINS0_6VectorIlEEEENS_10T
 8245 0230 0510A0E1 		mov	r1, r5
 8246 0234 60008DE5 		str	r0, [sp, #96]
 8247 0238 0400A0E1 		mov	r0, r4
 8248 023c FEFFFFEB 		bl	_ZN11flatbuffers17FlatBufferBuilder12CreateVectorIlEENS_6OffsetINS_6VectorIT_EEEEPKS4_j.constpr
 8249 0240 001000E3 		movw	r1, #:lower16:.LC45
 8250 0244 0050A0E1 		mov	r5, r0
 8251 0248 1320A0E3 		mov	r2, #19
 8252 024c 001040E3 		movt	r1, #:upper16:.LC45
 8253 0250 0400A0E1 		mov	r0, r4
 8254 0254 FEFFFFEB 		bl	_ZN11flatbuffers17FlatBufferBuilder12CreateStringEPKcj
 8255 0258 0A20A0E1 		mov	r2, r10
 8256 025c 0030A0E1 		mov	r3, r0
 8257 0260 0510A0E1 		mov	r1, r5
 8258 0264 0CA08DE5 		str	r10, [sp, #12]
 8259 0268 08A08DE5 		str	r10, [sp, #8]
 8260 026c 0400A0E1 		mov	r0, r4
 8261 0270 04A08DE5 		str	r10, [sp, #4]
 8262 0274 00A08DE5 		str	r10, [sp]
 8263 0278 FEFFFFEB 		bl	_ZN6tflite12CreateTensorERN11flatbuffers17FlatBufferBuilderENS0_6OffsetINS0_6VectorIlEEEENS_10T
 8264 027c EB1BDFED 		vldr	d17, .L1679
 8265 0280 0330A0E3 		mov	r3, #3
 8266 0284 40108DE2 		add	r1, sp, #64
 8267 0288 64008DE5 		str	r0, [sp, #100]
 8268 028c E90BDFED 		vldr	d16, .L1679+8
 8269 0290 0400A0E1 		mov	r0, r4
 8270 0294 2C308DE5 		str	r3, [sp, #44]
 8271 0298 0E1BCDED 		vstr	d17, [sp, #56]
 8272 029c 24A08DE5 		str	r10, [sp, #36]
 8273 02a0 100BCDED 		vstr	d16, [sp, #64]
 8274 02a4 28808DE5 		str	r8, [sp, #40]
 8275 02a8 FEFFFFEB 		bl	_ZN11flatbuffers17FlatBufferBuilder12CreateVectorIlEENS_6OffsetINS_6VectorIT_EEEEPKS4_j.constpr
 8276 02ac 28108DE2 		add	r1, sp, #40
 8277 02b0 0050A0E1 		mov	r5, r0
 8278 02b4 0400A0E1 		mov	r0, r4
 8279 02b8 FEFFFFEB 		bl	_ZN11flatbuffers17FlatBufferBuilder12CreateVectorIlEENS_6OffsetINS_6VectorIT_EEEEPKS4_j.constpr
 8280 02bc 0520A0E1 		mov	r2, r5
 8281 02c0 0030A0E1 		mov	r3, r0
 8282 02c4 0A10A0E1 		mov	r1, r10
 8283 02c8 14A08DE5 		str	r10, [sp, #20]
 8284 02cc 10A08DE5 		str	r10, [sp, #16]
 8285 02d0 0400A0E1 		mov	r0, r4
 8286 02d4 0CA08DE5 		str	r10, [sp, #12]
 8287 02d8 0850A0E1 		mov	r5, r8
 8288 02dc 08A08DE5 		str	r10, [sp, #8]
 8289 02e0 04A08DE5 		str	r10, [sp, #4]
 8290 02e4 00A08DE5 		str	r10, [sp]
 8291 02e8 FEFFFFEB 		bl	_ZN6tflite14CreateOperatorERN11flatbuffers17FlatBufferBuilderEmNS0_6OffsetINS0_6VectorIlEEEES6_
 8292 02ec 40108DE2 		add	r1, sp, #64
 8293 02f0 50008DE5 		str	r0, [sp, #80]
 8294 02f4 0400A0E1 		mov	r0, r4
 8295 02f8 FEFFFFEB 		bl	_ZN11flatbuffers17FlatBufferBuilder12CreateVectorIlEENS_6OffsetINS_6VectorIT_EEEEPKS4_j.constpr
 8296 02fc 2C108DE2 		add	r1, sp, #44
 8297 0300 00B0A0E1 		mov	fp, r0
 8298 0304 0400A0E1 		mov	r0, r4
 8299 0308 FEFFFFEB 		bl	_ZN11flatbuffers17FlatBufferBuilder12CreateVectorIlEENS_6OffsetINS_6VectorIT_EEEEPKS4_j.constpr
 8300 030c 0B20A0E1 		mov	r2, fp
 8301 0310 0030A0E1 		mov	r3, r0
 8302 0314 0A10A0E1 		mov	r1, r10
 8303 0318 14A08DE5 		str	r10, [sp, #20]
 8304 031c 10A08DE5 		str	r10, [sp, #16]
 8305 0320 0400A0E1 		mov	r0, r4
 8306 0324 0CA08DE5 		str	r10, [sp, #12]
 8307 0328 08A08DE5 		str	r10, [sp, #8]
 8308 032c 04A08DE5 		str	r10, [sp, #4]
 8309 0330 00A08DE5 		str	r10, [sp]
 8310 0334 FEFFFFEB 		bl	_ZN6tflite14CreateOperatorERN11flatbuffers17FlatBufferBuilderEmNS0_6OffsetINS0_6VectorIlEEEES6_
 8311 0338 58108DE2 		add	r1, sp, #88
 8312 033c 54008DE5 		str	r0, [sp, #84]
 8313 0340 0400A0E1 		mov	r0, r4
 8314 0344 FEFFFFEB 		bl	_ZN11flatbuffers17FlatBufferBuilder12CreateVectorIN6tflite6TensorEEENS_6OffsetINS_6VectorINS4_I
 8315 0348 24108DE2 		add	r1, sp, #36
 8316 034c 18008DE5 		str	r0, [sp, #24]
 8317 0350 0400A0E1 		mov	r0, r4
 8318 0354 FEFFFFEB 		bl	_ZN11flatbuffers17FlatBufferBuilder12CreateVectorIlEENS_6OffsetINS_6VectorIT_EEEEPKS4_j.constpr
 8319 0358 38108DE2 		add	r1, sp, #56
 8320 035c 1C008DE5 		str	r0, [sp, #28]
 8321 0360 0400A0E1 		mov	r0, r4
 8322 0364 FEFFFFEB 		bl	_ZN11flatbuffers17FlatBufferBuilder12CreateVectorIlEENS_6OffsetINS_6VectorIT_EEEEPKS4_j.constpr
 8323 0368 0810A0E1 		mov	r1, r8
 8324 036c 00B0A0E1 		mov	fp, r0
 8325 0370 0400A0E1 		mov	r0, r4
 8326 0374 FEFFFFEB 		bl	_ZN11flatbuffers17FlatBufferBuilder11StartVectorEjj.constprop.148
 8327 0378 182094E5 		ldr	r2, [r4, #24]
 8328              	.L1615:
 8329 037c 015045E2 		sub	r5, r5, #1
 8330 0380 68308DE2 		add	r3, sp, #104
 8331 0384 281094E5 		ldr	r1, [r4, #40]
 8332 0388 053183E0 		add	r3, r3, r5, lsl #2
 8333 038c 0400A0E1 		mov	r0, r4
 8334 0390 188013E5 		ldr	r8, [r3, #-24]
 8335 0394 143094E5 		ldr	r3, [r4, #20]
 8336 0398 030051E3 		cmp	r1, #3
 8337 039c 101094E5 		ldr	r1, [r4, #16]
 8338 03a0 28908495 		strls	r9, [r4, #40]
 8339 03a4 033042E0 		sub	r3, r2, r3
 8340 03a8 013043E0 		sub	r3, r3, r1
 8341 03ac 03A003E2 		and	r10, r3, #3
 8342 03b0 0A10A0E1 		mov	r1, r10
 8343 03b4 FEFFFFEB 		bl	_ZN11flatbuffers15vector_downward12ensure_spaceEj
 8344 03b8 182094E5 		ldr	r2, [r4, #24]
 8345 03bc 00005AE3 		cmp	r10, #0
 8346 03c0 000042E0 		sub	r0, r2, r0
 8347 03c4 180084E5 		str	r0, [r4, #24]
 8348 03c8 0700000A 		beq	.L1610
 8349 03cc 01005AE3 		cmp	r10, #1
 8350 03d0 0060C0E5 		strb	r6, [r0]
 8351 03d4 0400000A 		beq	.L1610
 8352 03d8 182094E5 		ldr	r2, [r4, #24]
 8353 03dc 02005AE3 		cmp	r10, #2
 8354 03e0 0160C2E5 		strb	r6, [r2, #1]
 8355 03e4 18309415 		ldrne	r3, [r4, #24]
 8356 03e8 0260C315 		strbne	r6, [r3, #2]
 8357              	.L1610:
 8358 03ec 000058E3 		cmp	r8, #0
 8359 03f0 B800000A 		beq	.L1612
 8360 03f4 182094E5 		ldr	r2, [r4, #24]
 8361 03f8 141094E5 		ldr	r1, [r4, #20]
 8362 03fc 103094E5 		ldr	r3, [r4, #16]
 8363 0400 012042E0 		sub	r2, r2, r1
 8364 0404 023043E0 		sub	r3, r3, r2
 8365 0408 080053E1 		cmp	r3, r8
 8366 040c B100003A 		bcc	.L1612
 8367 0410 282094E5 		ldr	r2, [r4, #40]
 8368 0414 041083E2 		add	r1, r3, #4
 8369 0418 003063E2 		rsb	r3, r3, #0
 8370 041c 088041E0 		sub	r8, r1, r8
 8371 0420 03A003E2 		and	r10, r3, #3
 8372 0424 0400A0E1 		mov	r0, r4
 8373 0428 030052E3 		cmp	r2, #3
 8374 042c 0A10A0E1 		mov	r1, r10
 8375 0430 28908495 		strls	r9, [r4, #40]
 8376 0434 FEFFFFEB 		bl	_ZN11flatbuffers15vector_downward12ensure_spaceEj
 8377 0438 182094E5 		ldr	r2, [r4, #24]
 8378 043c 00005AE3 		cmp	r10, #0
 8379 0440 000042E0 		sub	r0, r2, r0
 8380 0444 180084E5 		str	r0, [r4, #24]
 8381 0448 0700000A 		beq	.L1614
 8382 044c 01005AE3 		cmp	r10, #1
 8383 0450 0060C0E5 		strb	r6, [r0]
 8384 0454 0400000A 		beq	.L1614
 8385 0458 182094E5 		ldr	r2, [r4, #24]
 8386 045c 02005AE3 		cmp	r10, #2
 8387 0460 0160C2E5 		strb	r6, [r2, #1]
 8388 0464 18309415 		ldrne	r3, [r4, #24]
 8389 0468 0260C315 		strbne	r6, [r3, #2]
 8390              	.L1614:
 8391 046c 0410A0E3 		mov	r1, #4
 8392 0470 0400A0E1 		mov	r0, r4
 8393 0474 FEFFFFEB 		bl	_ZN11flatbuffers15vector_downward12ensure_spaceEj
 8394 0478 182094E5 		ldr	r2, [r4, #24]
 8395 047c 000055E3 		cmp	r5, #0
 8396 0480 002042E0 		sub	r2, r2, r0
 8397 0484 182084E5 		str	r2, [r4, #24]
 8398 0488 008082E5 		str	r8, [r2]
 8399 048c BAFFFF1A 		bne	.L1615
 8400 0490 0210A0E3 		mov	r1, #2
 8401 0494 0400A0E1 		mov	r0, r4
 8402 0498 FEFFFFEB 		bl	_ZN11flatbuffers17FlatBufferBuilder9EndVectorEj
 8403 049c 001000E3 		movw	r1, #:lower16:.LC32
 8404 04a0 0060A0E1 		mov	r6, r0
 8405 04a4 0D20A0E3 		mov	r2, #13
 8406 04a8 001040E3 		movt	r1, #:upper16:.LC32
 8407 04ac 0400A0E1 		mov	r0, r4
 8408 04b0 0490A0E3 		mov	r9, #4
 8409 04b4 FEFFFFEB 		bl	_ZN11flatbuffers17FlatBufferBuilder12CreateStringEPKcj
 8410 04b8 0B30A0E1 		mov	r3, fp
 8411 04bc 00608DE5 		str	r6, [sp]
 8412 04c0 04008DE5 		str	r0, [sp, #4]
 8413 04c4 0400A0E1 		mov	r0, r4
 8414 04c8 1C209DE5 		ldr	r2, [sp, #28]
 8415 04cc 0260A0E3 		mov	r6, #2
 8416 04d0 18109DE5 		ldr	r1, [sp, #24]
 8417 04d4 FEFFFFEB 		bl	_ZN6tflite14CreateSubGraphERN11flatbuffers17FlatBufferBuilderENS0_6OffsetINS0_6VectorINS3_INS_6
 8418 04d8 001000E3 		movw	r1, #:lower16:.LC35
 8419 04dc 2020A0E3 		mov	r2, #32
 8420 04e0 30008DE5 		str	r0, [sp, #48]
 8421 04e4 001040E3 		movt	r1, #:upper16:.LC35
 8422 04e8 0400A0E1 		mov	r0, r4
 8423 04ec FEFFFFEB 		bl	_ZN6tflite24CreateOperatorCodeDirectERN11flatbuffers17FlatBufferBuilderEaPKclNS_15BuiltinOperat
 8424 04f0 68108DE2 		add	r1, sp, #104
 8425 04f4 340021E5 		str	r0, [r1, #-52]!
 8426 04f8 0400A0E1 		mov	r0, r4
 8427 04fc FEFFFFEB 		bl	_ZN11flatbuffers17FlatBufferBuilder12CreateVectorIN6tflite12OperatorCodeEEENS_6OffsetINS_6Vecto
 8428 0500 30108DE2 		add	r1, sp, #48
 8429 0504 18008DE5 		str	r0, [sp, #24]
 8430 0508 0400A0E1 		mov	r0, r4
 8431 050c FEFFFFEB 		bl	_ZN11flatbuffers17FlatBufferBuilder12CreateVectorIN6tflite8SubGraphEEENS_6OffsetINS_6VectorINS4
 8432 0510 001000E3 		movw	r1, #:lower16:.LC43
 8433 0514 0A20A0E3 		mov	r2, #10
 8434 0518 001040E3 		movt	r1, #:upper16:.LC43
 8435 051c 00B0A0E1 		mov	fp, r0
 8436 0520 0400A0E1 		mov	r0, r4
 8437 0524 FEFFFFEB 		bl	_ZN11flatbuffers17FlatBufferBuilder12CreateStringEPKcj
 8438 0528 0610A0E1 		mov	r1, r6
 8439 052c 1C008DE5 		str	r0, [sp, #28]
 8440 0530 0400A0E1 		mov	r0, r4
 8441 0534 FEFFFFEB 		bl	_ZN11flatbuffers17FlatBufferBuilder11StartVectorEjj.constprop.148
 8442 0538 183094E5 		ldr	r3, [r4, #24]
 8443              	.L1620:
 8444 053c 281094E5 		ldr	r1, [r4, #40]
 8445 0540 016046E2 		sub	r6, r6, #1
 8446 0544 148094E5 		ldr	r8, [r4, #20]
 8447 0548 68208DE2 		add	r2, sp, #104
 8448 054c 062182E0 		add	r2, r2, r6, lsl #2
 8449 0550 0400A0E1 		mov	r0, r4
 8450 0554 030051E3 		cmp	r1, #3
 8451 0558 101094E5 		ldr	r1, [r4, #16]
 8452 055c 088043E0 		sub	r8, r3, r8
 8453 0560 28908495 		strls	r9, [r4, #40]
 8454 0564 20A012E5 		ldr	r10, [r2, #-32]
 8455 0568 018048E0 		sub	r8, r8, r1
 8456 056c 038008E2 		and	r8, r8, #3
 8457 0570 0810A0E1 		mov	r1, r8
 8458 0574 FEFFFFEB 		bl	_ZN11flatbuffers15vector_downward12ensure_spaceEj
 8459 0578 183094E5 		ldr	r3, [r4, #24]
 8460 057c 000058E3 		cmp	r8, #0
 8461 0580 000043E0 		sub	r0, r3, r0
 8462 0584 180084E5 		str	r0, [r4, #24]
 8463 0588 0700000A 		beq	.L1617
 8464 058c 010058E3 		cmp	r8, #1
 8465 0590 0050C0E5 		strb	r5, [r0]
 8466 0594 0400000A 		beq	.L1617
 8467 0598 183094E5 		ldr	r3, [r4, #24]
 8468 059c 020058E3 		cmp	r8, #2
 8469 05a0 0150C3E5 		strb	r5, [r3, #1]
 8470 05a4 18309415 		ldrne	r3, [r4, #24]
 8471 05a8 0250C315 		strbne	r5, [r3, #2]
 8472              	.L1617:
 8473 05ac 00005AE3 		cmp	r10, #0
 8474 05b0 4800000A 		beq	.L1612
 8475 05b4 181094E5 		ldr	r1, [r4, #24]
 8476 05b8 140094E5 		ldr	r0, [r4, #20]
 8477 05bc 103094E5 		ldr	r3, [r4, #16]
 8478 05c0 001041E0 		sub	r1, r1, r0
 8479 05c4 013043E0 		sub	r3, r3, r1
 8480 05c8 0A0053E1 		cmp	r3, r10
 8481 05cc 4100003A 		bcc	.L1612
 8482 05d0 281094E5 		ldr	r1, [r4, #40]
 8483 05d4 048083E2 		add	r8, r3, #4
 8484 05d8 003063E2 		rsb	r3, r3, #0
 8485 05dc 0A8048E0 		sub	r8, r8, r10
 8486 05e0 03A003E2 		and	r10, r3, #3
 8487 05e4 0400A0E1 		mov	r0, r4
 8488 05e8 030051E3 		cmp	r1, #3
 8489 05ec 0A10A0E1 		mov	r1, r10
 8490 05f0 28908495 		strls	r9, [r4, #40]
 8491 05f4 FEFFFFEB 		bl	_ZN11flatbuffers15vector_downward12ensure_spaceEj
 8492 05f8 182094E5 		ldr	r2, [r4, #24]
 8493 05fc 00005AE3 		cmp	r10, #0
 8494 0600 000042E0 		sub	r0, r2, r0
 8495 0604 180084E5 		str	r0, [r4, #24]
 8496 0608 0C00000A 		beq	.L1619
 8497 060c 01005AE3 		cmp	r10, #1
 8498 0610 0050C0E5 		strb	r5, [r0]
 8499 0614 0900000A 		beq	.L1619
 8500 0618 182094E5 		ldr	r2, [r4, #24]
 8501 061c 02005AE3 		cmp	r10, #2
 8502 0620 0150C2E5 		strb	r5, [r2, #1]
 8503 0624 18309415 		ldrne	r3, [r4, #24]
 8504 0628 0250C315 		strbne	r5, [r3, #2]
 8505 062c 030000EA 		b	.L1680
 8506              	.L1681:
 8507              		.align	3
 8508              	.L1679:
 8509 0630 02000000 		.word	2
 8510 0634 03000000 		.word	3
 8511 0638 00000000 		.word	0
 8512 063c 01000000 		.word	1
 8513              	.L1680:
 8514              	.L1619:
 8515 0640 0410A0E3 		mov	r1, #4
 8516 0644 0400A0E1 		mov	r0, r4
 8517 0648 FEFFFFEB 		bl	_ZN11flatbuffers15vector_downward12ensure_spaceEj
 8518 064c 183094E5 		ldr	r3, [r4, #24]
 8519 0650 000056E3 		cmp	r6, #0
 8520 0654 003043E0 		sub	r3, r3, r0
 8521 0658 183084E5 		str	r3, [r4, #24]
 8522 065c 008083E5 		str	r8, [r3]
 8523 0660 B5FFFF1A 		bne	.L1620
 8524 0664 0210A0E3 		mov	r1, #2
 8525 0668 0400A0E1 		mov	r0, r4
 8526 066c FEFFFFEB 		bl	_ZN11flatbuffers17FlatBufferBuilder9EndVectorEj
 8527 0670 1CC09DE5 		ldr	ip, [sp, #28]
 8528 0674 0B30A0E1 		mov	r3, fp
 8529 0678 04008DE5 		str	r0, [sp, #4]
 8530 067c 0610A0E1 		mov	r1, r6
 8531 0680 18209DE5 		ldr	r2, [sp, #24]
 8532 0684 0400A0E1 		mov	r0, r4
 8533 0688 00C08DE5 		str	ip, [sp]
 8534 068c 10608DE5 		str	r6, [sp, #16]
 8535 0690 0C608DE5 		str	r6, [sp, #12]
 8536 0694 08608DE5 		str	r6, [sp, #8]
 8537 0698 FEFFFFEB 		bl	_ZN6tflite11CreateModelERN11flatbuffers17FlatBufferBuilderEmNS0_6OffsetINS0_6VectorINS3_INS_12O
 8538 069c 0010A0E1 		mov	r1, r0
 8539 06a0 0400A0E1 		mov	r0, r4
 8540 06a4 FEFFFFEB 		bl	_ZN11flatbuffers17FlatBufferBuilder6FinishEmPKcb.constprop.146
 8541 06a8 2730D4E5 		ldrb	r3, [r4, #39]	@ zero_extendqisi2
 8542 06ac 000053E3 		cmp	r3, #0
 8543 06b0 1A00000A 		beq	.L1677
 8544 06b4 185094E5 		ldr	r5, [r4, #24]
 8545 06b8 000055E3 		cmp	r5, #0
 8546 06bc 1600000A 		beq	.L1678
 8547 06c0 003095E5 		ldr	r3, [r5]
 8548 06c4 035085E0 		add	r5, r5, r3
 8549 06c8 0500A0E1 		mov	r0, r5
 8550 06cc 005087E5 		str	r5, [r7]
 8551 06d0 6CD08DE2 		add	sp, sp, #108
 8552              		@ sp needed
 8553 06d4 F08FBDE8 		pop	{r4, r5, r6, r7, r8, r9, r10, fp, pc}
 8554              	.L1612:
 8555 06d8 003000E3 		movw	r3, #:lower16:.LC25
 8556 06dc 002000E3 		movw	r2, #:lower16:.LANCHOR13
 8557 06e0 000000E3 		movw	r0, #:lower16:.LC19
 8558 06e4 003040E3 		movt	r3, #:upper16:.LC25
 8559 06e8 002040E3 		movt	r2, #:upper16:.LANCHOR13
 8560 06ec 000040E3 		movt	r0, #:upper16:.LC19
 8561 06f0 3B1500E3 		movw	r1, #1339
 8562 06f4 FEFFFFEB 		bl	__assert_func
 8563              	.L1676:
 8564 06f8 FEFFFFEB 		bl	_ZN11flatbuffers17FlatBufferBuilder9NotNestedEv.isra.19.part.20
 8565              	.L1675:
 8566 06fc 003000E3 		movw	r3, #:lower16:.LC24
 8567 0700 002000E3 		movw	r2, #:lower16:.LANCHOR11
 8568 0704 000000E3 		movw	r0, #:lower16:.LC19
 8569 0708 003040E3 		movt	r3, #:upper16:.LC24
 8570 070c 002040E3 		movt	r2, #:upper16:.LANCHOR11
 8571 0710 000040E3 		movt	r0, #:upper16:.LC19
 8572 0714 481500E3 		movw	r1, #1352
 8573 0718 FEFFFFEB 		bl	__assert_func
 8574              	.L1678:
 8575 071c FEFFFFEB 		bl	_ZNK11flatbuffers15vector_downward4dataEv.isra.9.part.10
 8576              	.L1677:
 8577 0720 003000E3 		movw	r3, #:lower16:.LC34
 8578 0724 002000E3 		movw	r2, #:lower16:.LANCHOR18
 8579 0728 000000E3 		movw	r0, #:lower16:.LC19
 8580 072c 003040E3 		movt	r3, #:upper16:.LC34
 8581 0730 002040E3 		movt	r2, #:upper16:.LANCHOR18
 8582 0734 000040E3 		movt	r0, #:upper16:.LC19
 8583 0738 D71400E3 		movw	r1, #1239
 8584 073c FEFFFFEB 		bl	__assert_func
 8585              		.fnend
 8587              		.section	.text._ZN6tflite7testing28GetSimpleMultipleInputsModelEv,"ax",%progbits
 8588              		.align	2
 8589              		.global	_ZN6tflite7testing28GetSimpleMultipleInputsModelEv
 8590              		.syntax unified
 8591              		.arm
 8592              		.fpu neon
 8594              	_ZN6tflite7testing28GetSimpleMultipleInputsModelEv:
 8595              		.fnstart
 8596              	.LFB7016:
 8597              		@ args = 0, pretend = 0, frame = 72
 8598              		@ frame_needed = 0, uses_anonymous_args = 0
 8599 0000 F04F2DE9 		push	{r4, r5, r6, r7, r8, r9, r10, fp, lr}
 8600              		.save {r4, r5, r6, r7, r8, r9, r10, fp, lr}
 8601 0004 005000E3 		movw	r5, #:lower16:.LANCHOR32
 8602 0008 005040E3 		movt	r5, #:upper16:.LANCHOR32
 8603              		.pad #100
 8604 000c 64D04DE2 		sub	sp, sp, #100
 8605 0010 004095E5 		ldr	r4, [r5]
 8606 0014 000054E3 		cmp	r4, #0
 8607 0018 0200000A 		beq	.L1687
 8608 001c 0400A0E1 		mov	r0, r4
 8609 0020 64D08DE2 		add	sp, sp, #100
 8610              		@ sp needed
 8611 0024 F08FBDE8 		pop	{r4, r5, r6, r7, r8, r9, r10, fp, pc}
 8612              	.L1687:
 8613 0028 FEFFFFEB 		bl	_ZN6tflite7testing12_GLOBAL__N_115BuilderInstanceEv
 8614 002c 0410A0E1 		mov	r1, r4
 8615 0030 0060A0E1 		mov	r6, r0
 8616 0034 60808DE2 		add	r8, sp, #96
 8617 0038 38908DE2 		add	r9, sp, #56
 8618 003c FEFFFFEB 		bl	_ZN6tflite12CreateBufferERN11flatbuffers17FlatBufferBuilderENS0_6OffsetINS0_6VectorIhEEEE
 8619 0040 0130A0E3 		mov	r3, #1
 8620 0044 1C008DE5 		str	r0, [sp, #28]
 8621 0048 403028E5 		str	r3, [r8, #-64]!
 8622 004c 0600A0E1 		mov	r0, r6
 8623 0050 0810A0E1 		mov	r1, r8
 8624 0054 44A08DE2 		add	r10, sp, #68
 8625 0058 FEFFFFEB 		bl	_ZN11flatbuffers17FlatBufferBuilder12CreateVectorIlEENS_6OffsetINS_6VectorIT_EEEEPKS4_j.constpr
 8626 005c 001000E3 		movw	r1, #:lower16:.LC46
 8627 0060 0070A0E1 		mov	r7, r0
 8628 0064 1220A0E3 		mov	r2, #18
 8629 0068 001040E3 		movt	r1, #:upper16:.LC46
 8630 006c 0600A0E1 		mov	r0, r6
 8631 0070 FEFFFFEB 		bl	_ZN11flatbuffers17FlatBufferBuilder12CreateStringEPKcj
 8632 0074 0710A0E1 		mov	r1, r7
 8633 0078 0030A0E1 		mov	r3, r0
 8634 007c 0420A0E1 		mov	r2, r4
 8635 0080 0C408DE5 		str	r4, [sp, #12]
 8636 0084 0600A0E1 		mov	r0, r6
 8637 0088 08408DE5 		str	r4, [sp, #8]
 8638 008c 04408DE5 		str	r4, [sp, #4]
 8639 0090 0370A0E3 		mov	r7, #3
 8640 0094 00408DE5 		str	r4, [sp]
 8641 0098 FEFFFFEB 		bl	_ZN6tflite12CreateTensorERN11flatbuffers17FlatBufferBuilderENS0_6OffsetINS0_6VectorIlEEEENS_10T
 8642 009c 0810A0E1 		mov	r1, r8
 8643 00a0 50008DE5 		str	r0, [sp, #80]
 8644 00a4 0600A0E1 		mov	r0, r6
 8645 00a8 FEFFFFEB 		bl	_ZN11flatbuffers17FlatBufferBuilder12CreateVectorIlEENS_6OffsetINS_6VectorIT_EEEEPKS4_j.constpr
 8646 00ac 001000E3 		movw	r1, #:lower16:.LC47
 8647 00b0 00B0A0E1 		mov	fp, r0
 8648 00b4 1220A0E3 		mov	r2, #18
 8649 00b8 001040E3 		movt	r1, #:upper16:.LC47
 8650 00bc 0600A0E1 		mov	r0, r6
 8651 00c0 FEFFFFEB 		bl	_ZN11flatbuffers17FlatBufferBuilder12CreateStringEPKcj
 8652 00c4 0B10A0E1 		mov	r1, fp
 8653 00c8 0030A0E1 		mov	r3, r0
 8654 00cc 0920A0E3 		mov	r2, #9
 8655 00d0 08408DE5 		str	r4, [sp, #8]
 8656 00d4 0600A0E1 		mov	r0, r6
 8657 00d8 04408DE5 		str	r4, [sp, #4]
 8658 00dc 00408DE5 		str	r4, [sp]
 8659 00e0 FEFFFFEB 		bl	_ZN6tflite12CreateTensorERN11flatbuffers17FlatBufferBuilderENS0_6OffsetINS0_6VectorIlEEEENS_10T
 8660 00e4 0810A0E1 		mov	r1, r8
 8661 00e8 54008DE5 		str	r0, [sp, #84]
 8662 00ec 0600A0E1 		mov	r0, r6
 8663 00f0 FEFFFFEB 		bl	_ZN11flatbuffers17FlatBufferBuilder12CreateVectorIlEENS_6OffsetINS_6VectorIT_EEEEPKS4_j.constpr
 8664 00f4 001000E3 		movw	r1, #:lower16:.LC48
 8665 00f8 00B0A0E1 		mov	fp, r0
 8666 00fc 1220A0E3 		mov	r2, #18
 8667 0100 001040E3 		movt	r1, #:upper16:.LC48
 8668 0104 0600A0E1 		mov	r0, r6
 8669 0108 FEFFFFEB 		bl	_ZN11flatbuffers17FlatBufferBuilder12CreateStringEPKcj
 8670 010c 0B10A0E1 		mov	r1, fp
 8671 0110 0030A0E1 		mov	r3, r0
 8672 0114 0420A0E1 		mov	r2, r4
 8673 0118 0C408DE5 		str	r4, [sp, #12]
 8674 011c 0600A0E1 		mov	r0, r6
 8675 0120 08408DE5 		str	r4, [sp, #8]
 8676 0124 04408DE5 		str	r4, [sp, #4]
 8677 0128 00408DE5 		str	r4, [sp]
 8678 012c FEFFFFEB 		bl	_ZN6tflite12CreateTensorERN11flatbuffers17FlatBufferBuilderENS0_6OffsetINS0_6VectorIlEEEENS_10T
 8679 0130 0810A0E1 		mov	r1, r8
 8680 0134 58008DE5 		str	r0, [sp, #88]
 8681 0138 0600A0E1 		mov	r0, r6
 8682 013c 60808DE2 		add	r8, sp, #96
 8683 0140 FEFFFFEB 		bl	_ZN11flatbuffers17FlatBufferBuilder12CreateVectorIlEENS_6OffsetINS_6VectorIT_EEEEPKS4_j.constpr
 8684 0144 001000E3 		movw	r1, #:lower16:.LC41
 8685 0148 00B0A0E1 		mov	fp, r0
 8686 014c 1220A0E3 		mov	r2, #18
 8687 0150 001040E3 		movt	r1, #:upper16:.LC41
 8688 0154 0600A0E1 		mov	r0, r6
 8689 0158 FEFFFFEB 		bl	_ZN11flatbuffers17FlatBufferBuilder12CreateStringEPKcj
 8690 015c 0B10A0E1 		mov	r1, fp
 8691 0160 0030A0E1 		mov	r3, r0
 8692 0164 0420A0E1 		mov	r2, r4
 8693 0168 0C408DE5 		str	r4, [sp, #12]
 8694 016c 0600A0E1 		mov	r0, r6
 8695 0170 08408DE5 		str	r4, [sp, #8]
 8696 0174 04408DE5 		str	r4, [sp, #4]
 8697 0178 00408DE5 		str	r4, [sp]
 8698 017c FEFFFFEB 		bl	_ZN6tflite12CreateTensorERN11flatbuffers17FlatBufferBuilderENS0_6OffsetINS0_6VectorIlEEEENS_10T
 8699 0180 003000E3 		movw	r3, #:lower16:.LANCHOR33
 8700 0184 5C008DE5 		str	r0, [sp, #92]
 8701 0188 003040E3 		movt	r3, #:upper16:.LANCHOR33
 8702 018c 387028E5 		str	r7, [r8, #-56]!
 8703 0190 070093E8 		ldm	r3, {r0, r1, r2}
 8704 0194 24708DE5 		str	r7, [sp, #36]
 8705 0198 070089E8 		stm	r9, {r0, r1, r2}
 8706 019c 07008AE8 		stm	r10, {r0, r1, r2}
 8707 01a0 0710A0E1 		mov	r1, r7
 8708 01a4 0600A0E1 		mov	r0, r6
 8709 01a8 FEFFFFEB 		bl	_ZN11flatbuffers17FlatBufferBuilder11StartVectorEjj.constprop.148
 8710 01ac 0C10A0E3 		mov	r1, #12
 8711 01b0 0600A0E1 		mov	r0, r6
 8712 01b4 FEFFFFEB 		bl	_ZN11flatbuffers15vector_downward12ensure_spaceEj
 8713 01b8 183096E5 		ldr	r3, [r6, #24]
 8714 01bc 0C20A0E3 		mov	r2, #12
 8715 01c0 0A10A0E1 		mov	r1, r10
 8716 01c4 000043E0 		sub	r0, r3, r0
 8717 01c8 180086E5 		str	r0, [r6, #24]
 8718 01cc FEFFFFEB 		bl	memcpy
 8719 01d0 0710A0E1 		mov	r1, r7
 8720 01d4 0600A0E1 		mov	r0, r6
 8721 01d8 FEFFFFEB 		bl	_ZN11flatbuffers17FlatBufferBuilder9EndVectorEj
 8722 01dc 0810A0E1 		mov	r1, r8
 8723 01e0 00A0A0E1 		mov	r10, r0
 8724 01e4 0600A0E1 		mov	r0, r6
 8725 01e8 FEFFFFEB 		bl	_ZN11flatbuffers17FlatBufferBuilder12CreateVectorIlEENS_6OffsetINS_6VectorIT_EEEEPKS4_j.constpr
 8726 01ec 0A20A0E1 		mov	r2, r10
 8727 01f0 0030A0E1 		mov	r3, r0
 8728 01f4 0410A0E1 		mov	r1, r4
 8729 01f8 14408DE5 		str	r4, [sp, #20]
 8730 01fc 0600A0E1 		mov	r0, r6
 8731 0200 10408DE5 		str	r4, [sp, #16]
 8732 0204 0C408DE5 		str	r4, [sp, #12]
 8733 0208 08408DE5 		str	r4, [sp, #8]
 8734 020c 04408DE5 		str	r4, [sp, #4]
 8735 0210 00408DE5 		str	r4, [sp]
 8736 0214 FEFFFFEB 		bl	_ZN6tflite14CreateOperatorERN11flatbuffers17FlatBufferBuilderEmNS0_6OffsetINS0_6VectorIlEEEES6_
 8737 0218 50108DE2 		add	r1, sp, #80
 8738 021c 2C008DE5 		str	r0, [sp, #44]
 8739 0220 0600A0E1 		mov	r0, r6
 8740 0224 FEFFFFEB 		bl	_ZN11flatbuffers17FlatBufferBuilder12CreateVectorIN6tflite6TensorEEENS_6OffsetINS_6VectorINS4_I
 8741 0228 0710A0E1 		mov	r1, r7
 8742 022c 0080A0E1 		mov	r8, r0
 8743 0230 0600A0E1 		mov	r0, r6
 8744 0234 FEFFFFEB 		bl	_ZN11flatbuffers17FlatBufferBuilder11StartVectorEjj.constprop.148
 8745 0238 0C10A0E3 		mov	r1, #12
 8746 023c 0600A0E1 		mov	r0, r6
 8747 0240 FEFFFFEB 		bl	_ZN11flatbuffers15vector_downward12ensure_spaceEj
 8748 0244 183096E5 		ldr	r3, [r6, #24]
 8749 0248 0C20A0E3 		mov	r2, #12
 8750 024c 0910A0E1 		mov	r1, r9
 8751 0250 000043E0 		sub	r0, r3, r0
 8752 0254 180086E5 		str	r0, [r6, #24]
 8753 0258 FEFFFFEB 		bl	memcpy
 8754 025c 0710A0E1 		mov	r1, r7
 8755 0260 0600A0E1 		mov	r0, r6
 8756 0264 FEFFFFEB 		bl	_ZN11flatbuffers17FlatBufferBuilder9EndVectorEj
 8757 0268 24108DE2 		add	r1, sp, #36
 8758 026c 0070A0E1 		mov	r7, r0
 8759 0270 0600A0E1 		mov	r0, r6
 8760 0274 FEFFFFEB 		bl	_ZN11flatbuffers17FlatBufferBuilder12CreateVectorIlEENS_6OffsetINS_6VectorIT_EEEEPKS4_j.constpr
 8761 0278 2C108DE2 		add	r1, sp, #44
 8762 027c 0090A0E1 		mov	r9, r0
 8763 0280 0600A0E1 		mov	r0, r6
 8764 0284 FEFFFFEB 		bl	_ZN11flatbuffers17FlatBufferBuilder12CreateVectorIN6tflite8OperatorEEENS_6OffsetINS_6VectorINS4
 8765 0288 001000E3 		movw	r1, #:lower16:.LC32
 8766 028c 00A0A0E1 		mov	r10, r0
 8767 0290 0D20A0E3 		mov	r2, #13
 8768 0294 001040E3 		movt	r1, #:upper16:.LC32
 8769 0298 0600A0E1 		mov	r0, r6
 8770 029c FEFFFFEB 		bl	_ZN11flatbuffers17FlatBufferBuilder12CreateStringEPKcj
 8771 02a0 0930A0E1 		mov	r3, r9
 8772 02a4 0720A0E1 		mov	r2, r7
 8773 02a8 0810A0E1 		mov	r1, r8
 8774 02ac 04008DE5 		str	r0, [sp, #4]
 8775 02b0 00A08DE5 		str	r10, [sp]
 8776 02b4 0600A0E1 		mov	r0, r6
 8777 02b8 FEFFFFEB 		bl	_ZN6tflite14CreateSubGraphERN11flatbuffers17FlatBufferBuilderENS0_6OffsetINS0_6VectorINS3_INS_6
 8778 02bc 001000E3 		movw	r1, #:lower16:.LC38
 8779 02c0 2020A0E3 		mov	r2, #32
 8780 02c4 30008DE5 		str	r0, [sp, #48]
 8781 02c8 001040E3 		movt	r1, #:upper16:.LC38
 8782 02cc 0600A0E1 		mov	r0, r6
 8783 02d0 FEFFFFEB 		bl	_ZN6tflite24CreateOperatorCodeDirectERN11flatbuffers17FlatBufferBuilderEaPKclNS_15BuiltinOperat
 8784 02d4 60108DE2 		add	r1, sp, #96
 8785 02d8 2C0021E5 		str	r0, [r1, #-44]!
 8786 02dc 0600A0E1 		mov	r0, r6
 8787 02e0 FEFFFFEB 		bl	_ZN11flatbuffers17FlatBufferBuilder12CreateVectorIN6tflite12OperatorCodeEEENS_6OffsetINS_6Vecto
 8788 02e4 30108DE2 		add	r1, sp, #48
 8789 02e8 0070A0E1 		mov	r7, r0
 8790 02ec 0600A0E1 		mov	r0, r6
 8791 02f0 FEFFFFEB 		bl	_ZN11flatbuffers17FlatBufferBuilder12CreateVectorIN6tflite8SubGraphEEENS_6OffsetINS_6VectorINS4
 8792 02f4 001000E3 		movw	r1, #:lower16:.LC43
 8793 02f8 0A20A0E3 		mov	r2, #10
 8794 02fc 0080A0E1 		mov	r8, r0
 8795 0300 001040E3 		movt	r1, #:upper16:.LC43
 8796 0304 0600A0E1 		mov	r0, r6
 8797 0308 FEFFFFEB 		bl	_ZN11flatbuffers17FlatBufferBuilder12CreateStringEPKcj
 8798 030c 1C108DE2 		add	r1, sp, #28
 8799 0310 0090A0E1 		mov	r9, r0
 8800 0314 0600A0E1 		mov	r0, r6
 8801 0318 FEFFFFEB 		bl	_ZN11flatbuffers17FlatBufferBuilder12CreateVectorIN6tflite6BufferEEENS_6OffsetINS_6VectorINS4_I
 8802 031c 0830A0E1 		mov	r3, r8
 8803 0320 04008DE5 		str	r0, [sp, #4]
 8804 0324 0720A0E1 		mov	r2, r7
 8805 0328 0410A0E1 		mov	r1, r4
 8806 032c 00908DE5 		str	r9, [sp]
 8807 0330 0600A0E1 		mov	r0, r6
 8808 0334 10408DE5 		str	r4, [sp, #16]
 8809 0338 0C408DE5 		str	r4, [sp, #12]
 8810 033c 08408DE5 		str	r4, [sp, #8]
 8811 0340 FEFFFFEB 		bl	_ZN6tflite11CreateModelERN11flatbuffers17FlatBufferBuilderEmNS0_6OffsetINS0_6VectorINS3_INS_12O
 8812 0344 0010A0E1 		mov	r1, r0
 8813 0348 0600A0E1 		mov	r0, r6
 8814 034c FEFFFFEB 		bl	_ZN11flatbuffers17FlatBufferBuilder6FinishEmPKcb.constprop.146
 8815 0350 2730D6E5 		ldrb	r3, [r6, #39]	@ zero_extendqisi2
 8816 0354 000053E3 		cmp	r3, #0
 8817 0358 0800000A 		beq	.L1688
 8818 035c 184096E5 		ldr	r4, [r6, #24]
 8819 0360 000054E3 		cmp	r4, #0
 8820 0364 0D00000A 		beq	.L1689
 8821 0368 003094E5 		ldr	r3, [r4]
 8822 036c 034084E0 		add	r4, r4, r3
 8823 0370 0400A0E1 		mov	r0, r4
 8824 0374 004085E5 		str	r4, [r5]
 8825 0378 64D08DE2 		add	sp, sp, #100
 8826              		@ sp needed
 8827 037c F08FBDE8 		pop	{r4, r5, r6, r7, r8, r9, r10, fp, pc}
 8828              	.L1688:
 8829 0380 003000E3 		movw	r3, #:lower16:.LC34
 8830 0384 002000E3 		movw	r2, #:lower16:.LANCHOR18
 8831 0388 000000E3 		movw	r0, #:lower16:.LC19
 8832 038c 003040E3 		movt	r3, #:upper16:.LC34
 8833 0390 002040E3 		movt	r2, #:upper16:.LANCHOR18
 8834 0394 000040E3 		movt	r0, #:upper16:.LC19
 8835 0398 D71400E3 		movw	r1, #1239
 8836 039c FEFFFFEB 		bl	__assert_func
 8837              	.L1689:
 8838 03a0 FEFFFFEB 		bl	_ZNK11flatbuffers15vector_downward4dataEv.isra.9.part.10
 8839              		.fnend
 8841              		.section	.text._ZN6tflite7testing32GetSimpleModelWithSubgraphsAndIfEv,"ax",%progbits
 8842              		.align	2
 8843              		.global	_ZN6tflite7testing32GetSimpleModelWithSubgraphsAndIfEv
 8844              		.syntax unified
 8845              		.arm
 8846              		.fpu neon
 8848              	_ZN6tflite7testing32GetSimpleModelWithSubgraphsAndIfEv:
 8849              		.fnstart
 8850              	.LFB7017:
 8851              		@ args = 0, pretend = 0, frame = 136
 8852              		@ frame_needed = 0, uses_anonymous_args = 0
 8853 0000 F04F2DE9 		push	{r4, r5, r6, r7, r8, r9, r10, fp, lr}
 8854              		.save {r4, r5, r6, r7, r8, r9, r10, fp, lr}
 8855 0004 008000E3 		movw	r8, #:lower16:.LANCHOR34
 8856 0008 008040E3 		movt	r8, #:upper16:.LANCHOR34
 8857              		.pad #164
 8858 000c A4D04DE2 		sub	sp, sp, #164
 8859 0010 005098E5 		ldr	r5, [r8]
 8860 0014 000055E3 		cmp	r5, #0
 8861 0018 0200000A 		beq	.L1853
 8862 001c 0500A0E1 		mov	r0, r5
 8863 0020 A4D08DE2 		add	sp, sp, #164
 8864              		@ sp needed
 8865 0024 F08FBDE8 		pop	{r4, r5, r6, r7, r8, r9, r10, fp, pc}
 8866              	.L1853:
 8867 0028 FEFFFFEB 		bl	_ZN6tflite7testing12_GLOBAL__N_115BuilderInstanceEv
 8868 002c 0510A0E1 		mov	r1, r5
 8869 0030 0040A0E1 		mov	r4, r0
 8870 0034 FEFFFFEB 		bl	_ZN6tflite12CreateBufferERN11flatbuffers17FlatBufferBuilderENS0_6OffsetINS0_6VectorIhEEEE
 8871 0038 FC0BDFED 		vldr	d16, .L1858
 8872 003c 0160A0E3 		mov	r6, #1
 8873 0040 18008DE5 		str	r0, [sp, #24]
 8874 0044 20108DE2 		add	r1, sp, #32
 8875 0048 0400A0E1 		mov	r0, r4
 8876 004c 0E0BCDED 		vstr	d16, [sp, #56]
 8877 0050 20608DE5 		str	r6, [sp, #32]
 8878 0054 FEFFFFEB 		bl	_ZN11flatbuffers17FlatBufferBuilder12CreateVectorIlEENS_6OffsetINS_6VectorIT_EEEEPKS4_j.constpr
 8879 0058 001000E3 		movw	r1, #:lower16:.LC49
 8880 005c 0070A0E1 		mov	r7, r0
 8881 0060 1020A0E3 		mov	r2, #16
 8882 0064 001040E3 		movt	r1, #:upper16:.LC49
 8883 0068 0400A0E1 		mov	r0, r4
 8884 006c FEFFFFEB 		bl	_ZN11flatbuffers17FlatBufferBuilder12CreateStringEPKcj
 8885 0070 0710A0E1 		mov	r1, r7
 8886 0074 0030A0E1 		mov	r3, r0
 8887 0078 0620A0E3 		mov	r2, #6
 8888 007c 08508DE5 		str	r5, [sp, #8]
 8889 0080 0400A0E1 		mov	r0, r4
 8890 0084 04508DE5 		str	r5, [sp, #4]
 8891 0088 00508DE5 		str	r5, [sp]
 8892 008c FEFFFFEB 		bl	_ZN6tflite12CreateTensorERN11flatbuffers17FlatBufferBuilderENS0_6OffsetINS0_6VectorIlEEEENS_10T
 8893 0090 38108DE2 		add	r1, sp, #56
 8894 0094 70008DE5 		str	r0, [sp, #112]
 8895 0098 0400A0E1 		mov	r0, r4
 8896 009c FEFFFFEB 		bl	_ZN11flatbuffers17FlatBufferBuilder12CreateVectorIlEENS_6OffsetINS_6VectorIT_EEEEPKS4_j.constpr
 8897 00a0 001000E3 		movw	r1, #:lower16:.LC50
 8898 00a4 0070A0E1 		mov	r7, r0
 8899 00a8 0D20A0E3 		mov	r2, #13
 8900 00ac 001040E3 		movt	r1, #:upper16:.LC50
 8901 00b0 0400A0E1 		mov	r0, r4
 8902 00b4 FEFFFFEB 		bl	_ZN11flatbuffers17FlatBufferBuilder12CreateStringEPKcj
 8903 00b8 0710A0E1 		mov	r1, r7
 8904 00bc 0030A0E1 		mov	r3, r0
 8905 00c0 0520A0E1 		mov	r2, r5
 8906 00c4 08508DE5 		str	r5, [sp, #8]
 8907 00c8 0400A0E1 		mov	r0, r4
 8908 00cc 04508DE5 		str	r5, [sp, #4]
 8909 00d0 00508DE5 		str	r5, [sp]
 8910 00d4 FEFFFFEB 		bl	_ZN6tflite12CreateTensorERN11flatbuffers17FlatBufferBuilderENS0_6OffsetINS0_6VectorIlEEEENS_10T
 8911 00d8 38108DE2 		add	r1, sp, #56
 8912 00dc 74008DE5 		str	r0, [sp, #116]
 8913 00e0 0400A0E1 		mov	r0, r4
 8914 00e4 FEFFFFEB 		bl	_ZN11flatbuffers17FlatBufferBuilder12CreateVectorIlEENS_6OffsetINS_6VectorIT_EEEEPKS4_j.constpr
 8915 00e8 001000E3 		movw	r1, #:lower16:.LC51
 8916 00ec 0070A0E1 		mov	r7, r0
 8917 00f0 0D20A0E3 		mov	r2, #13
 8918 00f4 001040E3 		movt	r1, #:upper16:.LC51
 8919 00f8 0400A0E1 		mov	r0, r4
 8920 00fc FEFFFFEB 		bl	_ZN11flatbuffers17FlatBufferBuilder12CreateStringEPKcj
 8921 0100 0710A0E1 		mov	r1, r7
 8922 0104 0030A0E1 		mov	r3, r0
 8923 0108 0520A0E1 		mov	r2, r5
 8924 010c 08508DE5 		str	r5, [sp, #8]
 8925 0110 0400A0E1 		mov	r0, r4
 8926 0114 04508DE5 		str	r5, [sp, #4]
 8927 0118 00508DE5 		str	r5, [sp]
 8928 011c FEFFFFEB 		bl	_ZN6tflite12CreateTensorERN11flatbuffers17FlatBufferBuilderENS0_6OffsetINS0_6VectorIlEEEENS_10T
 8929 0120 38108DE2 		add	r1, sp, #56
 8930 0124 78008DE5 		str	r0, [sp, #120]
 8931 0128 0400A0E1 		mov	r0, r4
 8932 012c FEFFFFEB 		bl	_ZN11flatbuffers17FlatBufferBuilder12CreateVectorIlEENS_6OffsetINS_6VectorIT_EEEEPKS4_j.constpr
 8933 0130 001000E3 		movw	r1, #:lower16:.LC52
 8934 0134 0070A0E1 		mov	r7, r0
 8935 0138 0D20A0E3 		mov	r2, #13
 8936 013c 001040E3 		movt	r1, #:upper16:.LC52
 8937 0140 0400A0E1 		mov	r0, r4
 8938 0144 FEFFFFEB 		bl	_ZN11flatbuffers17FlatBufferBuilder12CreateStringEPKcj
 8939 0148 0710A0E1 		mov	r1, r7
 8940 014c 0030A0E1 		mov	r3, r0
 8941 0150 0520A0E1 		mov	r2, r5
 8942 0154 08508DE5 		str	r5, [sp, #8]
 8943 0158 0400A0E1 		mov	r0, r4
 8944 015c 04508DE5 		str	r5, [sp, #4]
 8945 0160 00508DE5 		str	r5, [sp]
 8946 0164 FEFFFFEB 		bl	_ZN6tflite12CreateTensorERN11flatbuffers17FlatBufferBuilderENS0_6OffsetINS0_6VectorIlEEEENS_10T
 8947 0168 38108DE2 		add	r1, sp, #56
 8948 016c 7C008DE5 		str	r0, [sp, #124]
 8949 0170 0400A0E1 		mov	r0, r4
 8950 0174 FEFFFFEB 		bl	_ZN11flatbuffers17FlatBufferBuilder12CreateVectorIlEENS_6OffsetINS_6VectorIT_EEEEPKS4_j.constpr
 8951 0178 001000E3 		movw	r1, #:lower16:.LC50
 8952 017c 0070A0E1 		mov	r7, r0
 8953 0180 0D20A0E3 		mov	r2, #13
 8954 0184 001040E3 		movt	r1, #:upper16:.LC50
 8955 0188 0400A0E1 		mov	r0, r4
 8956 018c FEFFFFEB 		bl	_ZN11flatbuffers17FlatBufferBuilder12CreateStringEPKcj
 8957 0190 0710A0E1 		mov	r1, r7
 8958 0194 0030A0E1 		mov	r3, r0
 8959 0198 0520A0E1 		mov	r2, r5
 8960 019c 08508DE5 		str	r5, [sp, #8]
 8961 01a0 0400A0E1 		mov	r0, r4
 8962 01a4 04508DE5 		str	r5, [sp, #4]
 8963 01a8 00508DE5 		str	r5, [sp]
 8964 01ac FEFFFFEB 		bl	_ZN6tflite12CreateTensorERN11flatbuffers17FlatBufferBuilderENS0_6OffsetINS0_6VectorIlEEEENS_10T
 8965 01b0 38108DE2 		add	r1, sp, #56
 8966 01b4 80008DE5 		str	r0, [sp, #128]
 8967 01b8 0400A0E1 		mov	r0, r4
 8968 01bc FEFFFFEB 		bl	_ZN11flatbuffers17FlatBufferBuilder12CreateVectorIlEENS_6OffsetINS_6VectorIT_EEEEPKS4_j.constpr
 8969 01c0 001000E3 		movw	r1, #:lower16:.LC51
 8970 01c4 0070A0E1 		mov	r7, r0
 8971 01c8 0D20A0E3 		mov	r2, #13
 8972 01cc 001040E3 		movt	r1, #:upper16:.LC51
 8973 01d0 0400A0E1 		mov	r0, r4
 8974 01d4 FEFFFFEB 		bl	_ZN11flatbuffers17FlatBufferBuilder12CreateStringEPKcj
 8975 01d8 0710A0E1 		mov	r1, r7
 8976 01dc 0030A0E1 		mov	r3, r0
 8977 01e0 0520A0E1 		mov	r2, r5
 8978 01e4 08508DE5 		str	r5, [sp, #8]
 8979 01e8 0400A0E1 		mov	r0, r4
 8980 01ec 04508DE5 		str	r5, [sp, #4]
 8981 01f0 00508DE5 		str	r5, [sp]
 8982 01f4 FEFFFFEB 		bl	_ZN6tflite12CreateTensorERN11flatbuffers17FlatBufferBuilderENS0_6OffsetINS0_6VectorIlEEEENS_10T
 8983 01f8 38108DE2 		add	r1, sp, #56
 8984 01fc 84008DE5 		str	r0, [sp, #132]
 8985 0200 0400A0E1 		mov	r0, r4
 8986 0204 FEFFFFEB 		bl	_ZN11flatbuffers17FlatBufferBuilder12CreateVectorIlEENS_6OffsetINS_6VectorIT_EEEEPKS4_j.constpr
 8987 0208 001000E3 		movw	r1, #:lower16:.LC52
 8988 020c 0070A0E1 		mov	r7, r0
 8989 0210 0D20A0E3 		mov	r2, #13
 8990 0214 001040E3 		movt	r1, #:upper16:.LC52
 8991 0218 0400A0E1 		mov	r0, r4
 8992 021c FEFFFFEB 		bl	_ZN11flatbuffers17FlatBufferBuilder12CreateStringEPKcj
 8993 0220 0710A0E1 		mov	r1, r7
 8994 0224 0030A0E1 		mov	r3, r0
 8995 0228 0520A0E1 		mov	r2, r5
 8996 022c 08508DE5 		str	r5, [sp, #8]
 8997 0230 0400A0E1 		mov	r0, r4
 8998 0234 04508DE5 		str	r5, [sp, #4]
 8999 0238 00508DE5 		str	r5, [sp]
 9000 023c FEFFFFEB 		bl	_ZN6tflite12CreateTensorERN11flatbuffers17FlatBufferBuilderENS0_6OffsetINS0_6VectorIlEEEENS_10T
 9001 0240 38108DE2 		add	r1, sp, #56
 9002 0244 88008DE5 		str	r0, [sp, #136]
 9003 0248 0400A0E1 		mov	r0, r4
 9004 024c 8C508DE5 		str	r5, [sp, #140]
 9005 0250 FEFFFFEB 		bl	_ZN11flatbuffers17FlatBufferBuilder12CreateVectorIlEENS_6OffsetINS_6VectorIT_EEEEPKS4_j.constpr
 9006 0254 001000E3 		movw	r1, #:lower16:.LC50
 9007 0258 0070A0E1 		mov	r7, r0
 9008 025c 0D20A0E3 		mov	r2, #13
 9009 0260 001040E3 		movt	r1, #:upper16:.LC50
 9010 0264 0400A0E1 		mov	r0, r4
 9011 0268 FEFFFFEB 		bl	_ZN11flatbuffers17FlatBufferBuilder12CreateStringEPKcj
 9012 026c 0710A0E1 		mov	r1, r7
 9013 0270 0030A0E1 		mov	r3, r0
 9014 0274 0520A0E1 		mov	r2, r5
 9015 0278 08508DE5 		str	r5, [sp, #8]
 9016 027c 0400A0E1 		mov	r0, r4
 9017 0280 04508DE5 		str	r5, [sp, #4]
 9018 0284 00508DE5 		str	r5, [sp]
 9019 0288 FEFFFFEB 		bl	_ZN6tflite12CreateTensorERN11flatbuffers17FlatBufferBuilderENS0_6OffsetINS0_6VectorIlEEEENS_10T
 9020 028c 38108DE2 		add	r1, sp, #56
 9021 0290 90008DE5 		str	r0, [sp, #144]
 9022 0294 0400A0E1 		mov	r0, r4
 9023 0298 FEFFFFEB 		bl	_ZN11flatbuffers17FlatBufferBuilder12CreateVectorIlEENS_6OffsetINS_6VectorIT_EEEEPKS4_j.constpr
 9024 029c 001000E3 		movw	r1, #:lower16:.LC51
 9025 02a0 0070A0E1 		mov	r7, r0
 9026 02a4 0D20A0E3 		mov	r2, #13
 9027 02a8 001040E3 		movt	r1, #:upper16:.LC51
 9028 02ac 0400A0E1 		mov	r0, r4
 9029 02b0 FEFFFFEB 		bl	_ZN11flatbuffers17FlatBufferBuilder12CreateStringEPKcj
 9030 02b4 0710A0E1 		mov	r1, r7
 9031 02b8 0030A0E1 		mov	r3, r0
 9032 02bc 0520A0E1 		mov	r2, r5
 9033 02c0 08508DE5 		str	r5, [sp, #8]
 9034 02c4 0400A0E1 		mov	r0, r4
 9035 02c8 04508DE5 		str	r5, [sp, #4]
 9036 02cc 00508DE5 		str	r5, [sp]
 9037 02d0 0370A0E3 		mov	r7, #3
 9038 02d4 FEFFFFEB 		bl	_ZN6tflite12CreateTensorERN11flatbuffers17FlatBufferBuilderENS0_6OffsetINS0_6VectorIlEEEENS_10T
 9039 02d8 38108DE2 		add	r1, sp, #56
 9040 02dc 94008DE5 		str	r0, [sp, #148]
 9041 02e0 0400A0E1 		mov	r0, r4
 9042 02e4 FEFFFFEB 		bl	_ZN11flatbuffers17FlatBufferBuilder12CreateVectorIlEENS_6OffsetINS_6VectorIT_EEEEPKS4_j.constpr
 9043 02e8 001000E3 		movw	r1, #:lower16:.LC52
 9044 02ec 0090A0E1 		mov	r9, r0
 9045 02f0 0D20A0E3 		mov	r2, #13
 9046 02f4 001040E3 		movt	r1, #:upper16:.LC52
 9047 02f8 0400A0E1 		mov	r0, r4
 9048 02fc FEFFFFEB 		bl	_ZN11flatbuffers17FlatBufferBuilder12CreateStringEPKcj
 9049 0300 0910A0E1 		mov	r1, r9
 9050 0304 0030A0E1 		mov	r3, r0
 9051 0308 0520A0E1 		mov	r2, r5
 9052 030c 08508DE5 		str	r5, [sp, #8]
 9053 0310 0400A0E1 		mov	r0, r4
 9054 0314 04508DE5 		str	r5, [sp, #4]
 9055 0318 00508DE5 		str	r5, [sp]
 9056 031c FEFFFFEB 		bl	_ZN6tflite12CreateTensorERN11flatbuffers17FlatBufferBuilderENS0_6OffsetINS0_6VectorIlEEEENS_10T
 9057 0320 003000E3 		movw	r3, #:lower16:.LANCHOR33
 9058 0324 98008DE5 		str	r0, [sp, #152]
 9059 0328 003040E3 		movt	r3, #:upper16:.LANCHOR33
 9060 032c 02C0A0E3 		mov	ip, #2
 9061 0330 070093E8 		ldm	r3, {r0, r1, r2}
 9062 0334 4C308DE2 		add	r3, sp, #76
 9063 0338 28C08DE5 		str	ip, [sp, #40]
 9064 033c 48608DE5 		str	r6, [sp, #72]
 9065 0340 070083E8 		stm	r3, {r0, r1, r2}
 9066 0344 0400A0E1 		mov	r0, r4
 9067 0348 0710A0E1 		mov	r1, r7
 9068 034c 9C508DE5 		str	r5, [sp, #156]
 9069 0350 44508DE5 		str	r5, [sp, #68]
 9070 0354 24708DE5 		str	r7, [sp, #36]
 9071 0358 FEFFFFEB 		bl	_ZN11flatbuffers17FlatBufferBuilder11StartVectorEjj.constprop.148
 9072 035c 0C10A0E3 		mov	r1, #12
 9073 0360 0400A0E1 		mov	r0, r4
 9074 0364 FEFFFFEB 		bl	_ZN11flatbuffers15vector_downward12ensure_spaceEj
 9075 0368 183094E5 		ldr	r3, [r4, #24]
 9076 036c 0C20A0E3 		mov	r2, #12
 9077 0370 4C108DE2 		add	r1, sp, #76
 9078 0374 000043E0 		sub	r0, r3, r0
 9079 0378 180084E5 		str	r0, [r4, #24]
 9080 037c FEFFFFEB 		bl	memcpy
 9081 0380 0710A0E1 		mov	r1, r7
 9082 0384 0400A0E1 		mov	r0, r4
 9083 0388 FEFFFFEB 		bl	_ZN11flatbuffers17FlatBufferBuilder9EndVectorEj
 9084 038c 24108DE2 		add	r1, sp, #36
 9085 0390 0090A0E1 		mov	r9, r0
 9086 0394 0400A0E1 		mov	r0, r4
 9087 0398 FEFFFFEB 		bl	_ZN11flatbuffers17FlatBufferBuilder12CreateVectorIlEENS_6OffsetINS_6VectorIT_EEEEPKS4_j.constpr
 9088 039c 2620D4E5 		ldrb	r2, [r4, #38]	@ zero_extendqisi2
 9089 03a0 00A0A0E1 		mov	r10, r0
 9090 03a4 203094E5 		ldr	r3, [r4, #32]
 9091 03a8 000052E3 		cmp	r2, #0
 9092 03ac EA02001A 		bne	.L1854
 9093 03b0 000053E3 		cmp	r3, #0
 9094 03b4 E702001A 		bne	.L1855
 9095 03b8 281094E5 		ldr	r1, [r4, #40]
 9096 03bc 0400A0E1 		mov	r0, r4
 9097 03c0 183094E5 		ldr	r3, [r4, #24]
 9098 03c4 142094E5 		ldr	r2, [r4, #20]
 9099 03c8 105094E5 		ldr	r5, [r4, #16]
 9100 03cc 030051E3 		cmp	r1, #3
 9101 03d0 2660C4E5 		strb	r6, [r4, #38]
 9102 03d4 023043E0 		sub	r3, r3, r2
 9103 03d8 035045E0 		sub	r5, r5, r3
 9104 03dc 0430A093 		movls	r3, #4
 9105 03e0 28308495 		strls	r3, [r4, #40]
 9106 03e4 003065E2 		rsb	r3, r5, #0
 9107 03e8 036003E2 		and	r6, r3, #3
 9108 03ec 0610A0E1 		mov	r1, r6
 9109 03f0 FEFFFFEB 		bl	_ZN11flatbuffers15vector_downward12ensure_spaceEj
 9110 03f4 183094E5 		ldr	r3, [r4, #24]
 9111 03f8 000056E3 		cmp	r6, #0
 9112 03fc 000043E0 		sub	r0, r3, r0
 9113 0400 180084E5 		str	r0, [r4, #24]
 9114 0404 0B00000A 		beq	.L1695
 9115 0408 010056E3 		cmp	r6, #1
 9116 040c 0030A0E3 		mov	r3, #0
 9117 0410 0030C0E5 		strb	r3, [r0]
 9118 0414 0700000A 		beq	.L1695
 9119 0418 182094E5 		ldr	r2, [r4, #24]
 9120 041c 020056E3 		cmp	r6, #2
 9121 0420 0130C2E5 		strb	r3, [r2, #1]
 9122 0424 18209415 		ldrne	r2, [r4, #24]
 9123 0428 0230C215 		strbne	r3, [r2, #2]
 9124 042c 010000EA 		b	.L1859
 9125              	.L1860:
 9126              		.align	3
 9127              	.L1858:
 9128 0430 01000000 		.word	1
 9129 0434 02000000 		.word	2
 9130              	.L1859:
 9131              	.L1695:
 9132 0438 0410A0E3 		mov	r1, #4
 9133 043c 0400A0E1 		mov	r0, r4
 9134 0440 FEFFFFEB 		bl	_ZN11flatbuffers15vector_downward12ensure_spaceEj
 9135 0444 183094E5 		ldr	r3, [r4, #24]
 9136 0448 02C0A0E3 		mov	ip, #2
 9137 044c 142094E5 		ldr	r2, [r4, #20]
 9138 0450 0810A0E3 		mov	r1, #8
 9139 0454 106094E5 		ldr	r6, [r4, #16]
 9140 0458 000043E0 		sub	r0, r3, r0
 9141 045c 023040E0 		sub	r3, r0, r2
 9142 0460 180084E5 		str	r0, [r4, #24]
 9143 0464 00C080E5 		str	ip, [r0]
 9144 0468 0400A0E1 		mov	r0, r4
 9145 046c 036046E0 		sub	r6, r6, r3
 9146 0470 FEFFFFEB 		bl	_ZN11flatbuffers15vector_downward12ensure_spaceEj
 9147 0474 1C3094E5 		ldr	r3, [r4, #28]
 9148 0478 0620A0E3 		mov	r2, #6
 9149 047c 281094E5 		ldr	r1, [r4, #40]
 9150 0480 080083E2 		add	r0, r3, #8
 9151 0484 006083E5 		str	r6, [r3]
 9152 0488 B420C3E1 		strh	r2, [r3, #4]	@ movhi
 9153 048c B432D4E1 		ldrh	r3, [r4, #36]
 9154 0490 202094E5 		ldr	r2, [r4, #32]
 9155 0494 1C0084E5 		str	r0, [r4, #28]
 9156 0498 0400A0E1 		mov	r0, r4
 9157 049c 060053E3 		cmp	r3, #6
 9158 04a0 0630A0B3 		movlt	r3, #6
 9159 04a4 030051E3 		cmp	r1, #3
 9160 04a8 B432C4E1 		strh	r3, [r4, #36]	@ movhi
 9161 04ac 0430A093 		movls	r3, #4
 9162 04b0 28308495 		strls	r3, [r4, #40]
 9163 04b4 012082E2 		add	r2, r2, #1
 9164 04b8 141094E5 		ldr	r1, [r4, #20]
 9165 04bc 183094E5 		ldr	r3, [r4, #24]
 9166 04c0 202084E5 		str	r2, [r4, #32]
 9167 04c4 102094E5 		ldr	r2, [r4, #16]
 9168 04c8 013043E0 		sub	r3, r3, r1
 9169 04cc 023043E0 		sub	r3, r3, r2
 9170 04d0 036003E2 		and	r6, r3, #3
 9171 04d4 0610A0E1 		mov	r1, r6
 9172 04d8 FEFFFFEB 		bl	_ZN11flatbuffers15vector_downward12ensure_spaceEj
 9173 04dc 182094E5 		ldr	r2, [r4, #24]
 9174 04e0 000056E3 		cmp	r6, #0
 9175 04e4 000042E0 		sub	r0, r2, r0
 9176 04e8 180084E5 		str	r0, [r4, #24]
 9177 04ec 0800000A 		beq	.L1698
 9178 04f0 010056E3 		cmp	r6, #1
 9179 04f4 0030A0E3 		mov	r3, #0
 9180 04f8 0030C0E5 		strb	r3, [r0]
 9181 04fc 0400000A 		beq	.L1698
 9182 0500 182094E5 		ldr	r2, [r4, #24]
 9183 0504 020056E3 		cmp	r6, #2
 9184 0508 0130C2E5 		strb	r3, [r2, #1]
 9185 050c 18209415 		ldrne	r2, [r4, #24]
 9186 0510 0230C215 		strbne	r3, [r2, #2]
 9187              	.L1698:
 9188 0514 0410A0E3 		mov	r1, #4
 9189 0518 0400A0E1 		mov	r0, r4
 9190 051c FEFFFFEB 		bl	_ZN11flatbuffers15vector_downward12ensure_spaceEj
 9191 0520 183094E5 		ldr	r3, [r4, #24]
 9192 0524 0170A0E3 		mov	r7, #1
 9193 0528 142094E5 		ldr	r2, [r4, #20]
 9194 052c 0810A0E3 		mov	r1, #8
 9195 0530 10C094E5 		ldr	ip, [r4, #16]
 9196 0534 0460A0E3 		mov	r6, #4
 9197 0538 003043E0 		sub	r3, r3, r0
 9198 053c 0400A0E1 		mov	r0, r4
 9199 0540 022043E0 		sub	r2, r3, r2
 9200 0544 183084E5 		str	r3, [r4, #24]
 9201 0548 007083E5 		str	r7, [r3]
 9202 054c 02B04CE0 		sub	fp, ip, r2
 9203 0550 FEFFFFEB 		bl	_ZN11flatbuffers15vector_downward12ensure_spaceEj
 9204 0554 1C3094E5 		ldr	r3, [r4, #28]
 9205 0558 0510A0E1 		mov	r1, r5
 9206 055c 202094E5 		ldr	r2, [r4, #32]
 9207 0560 0400A0E1 		mov	r0, r4
 9208 0564 0050A0E3 		mov	r5, #0
 9209 0568 00B083E5 		str	fp, [r3]
 9210 056c 08C083E2 		add	ip, r3, #8
 9211 0570 B460C3E1 		strh	r6, [r3, #4]	@ movhi
 9212 0574 072082E0 		add	r2, r2, r7
 9213 0578 B432D4E1 		ldrh	r3, [r4, #36]
 9214 057c 80B08DE2 		add	fp, sp, #128
 9215 0580 1CC084E5 		str	ip, [r4, #28]
 9216 0584 202084E5 		str	r2, [r4, #32]
 9217 0588 060053E1 		cmp	r3, r6
 9218 058c 0630A0B1 		movlt	r3, r6
 9219 0590 B432C4E1 		strh	r3, [r4, #36]	@ movhi
 9220 0594 FEFFFFEB 		bl	_ZN11flatbuffers17FlatBufferBuilder8EndTableEm
 9221 0598 5CC0A0E3 		mov	ip, #92
 9222 059c 0A30A0E1 		mov	r3, r10
 9223 05a0 00C08DE5 		str	ip, [sp]
 9224 05a4 0920A0E1 		mov	r2, r9
 9225 05a8 04008DE5 		str	r0, [sp, #4]
 9226 05ac 0510A0E1 		mov	r1, r5
 9227 05b0 14508DE5 		str	r5, [sp, #20]
 9228 05b4 0400A0E1 		mov	r0, r4
 9229 05b8 10508DE5 		str	r5, [sp, #16]
 9230 05bc 06A0A0E1 		mov	r10, r6
 9231 05c0 0C508DE5 		str	r5, [sp, #12]
 9232 05c4 08508DE5 		str	r5, [sp, #8]
 9233 05c8 FEFFFFEB 		bl	_ZN6tflite14CreateOperatorERN11flatbuffers17FlatBufferBuilderEmNS0_6OffsetINS0_6VectorIlEEEES6_
 9234 05cc 44108DE2 		add	r1, sp, #68
 9235 05d0 2C008DE5 		str	r0, [sp, #44]
 9236 05d4 0400A0E1 		mov	r0, r4
 9237 05d8 FEFFFFEB 		bl	_ZN11flatbuffers17FlatBufferBuilder12CreateVectorIlEENS_6OffsetINS_6VectorIT_EEEEPKS4_j.constpr
 9238 05dc 28108DE2 		add	r1, sp, #40
 9239 05e0 0090A0E1 		mov	r9, r0
 9240 05e4 0400A0E1 		mov	r0, r4
 9241 05e8 FEFFFFEB 		bl	_ZN11flatbuffers17FlatBufferBuilder12CreateVectorIlEENS_6OffsetINS_6VectorIT_EEEEPKS4_j.constpr
 9242 05ec 0920A0E1 		mov	r2, r9
 9243 05f0 0030A0E1 		mov	r3, r0
 9244 05f4 0710A0E1 		mov	r1, r7
 9245 05f8 14508DE5 		str	r5, [sp, #20]
 9246 05fc 10508DE5 		str	r5, [sp, #16]
 9247 0600 0400A0E1 		mov	r0, r4
 9248 0604 0C508DE5 		str	r5, [sp, #12]
 9249 0608 0570A0E1 		mov	r7, r5
 9250 060c 08508DE5 		str	r5, [sp, #8]
 9251 0610 04508DE5 		str	r5, [sp, #4]
 9252 0614 00508DE5 		str	r5, [sp]
 9253 0618 FEFFFFEB 		bl	_ZN6tflite14CreateOperatorERN11flatbuffers17FlatBufferBuilderEmNS0_6OffsetINS0_6VectorIlEEEES6_
 9254 061c 44108DE2 		add	r1, sp, #68
 9255 0620 30008DE5 		str	r0, [sp, #48]
 9256 0624 0400A0E1 		mov	r0, r4
 9257 0628 FEFFFFEB 		bl	_ZN11flatbuffers17FlatBufferBuilder12CreateVectorIlEENS_6OffsetINS_6VectorIT_EEEEPKS4_j.constpr
 9258 062c 28108DE2 		add	r1, sp, #40
 9259 0630 0090A0E1 		mov	r9, r0
 9260 0634 0400A0E1 		mov	r0, r4
 9261 0638 FEFFFFEB 		bl	_ZN11flatbuffers17FlatBufferBuilder12CreateVectorIlEENS_6OffsetINS_6VectorIT_EEEEPKS4_j.constpr
 9262 063c 0920A0E1 		mov	r2, r9
 9263 0640 0030A0E1 		mov	r3, r0
 9264 0644 0210A0E3 		mov	r1, #2
 9265 0648 14508DE5 		str	r5, [sp, #20]
 9266 064c 10508DE5 		str	r5, [sp, #16]
 9267 0650 0400A0E1 		mov	r0, r4
 9268 0654 0C508DE5 		str	r5, [sp, #12]
 9269 0658 0B90A0E1 		mov	r9, fp
 9270 065c 08508DE5 		str	r5, [sp, #8]
 9271 0660 04508DE5 		str	r5, [sp, #4]
 9272 0664 00508DE5 		str	r5, [sp]
 9273 0668 FEFFFFEB 		bl	_ZN6tflite14CreateOperatorERN11flatbuffers17FlatBufferBuilderEmNS0_6OffsetINS0_6VectorIlEEEES6_
 9274 066c 0610A0E1 		mov	r1, r6
 9275 0670 34008DE5 		str	r0, [sp, #52]
 9276 0674 0400A0E1 		mov	r0, r4
 9277 0678 FEFFFFEB 		bl	_ZN11flatbuffers17FlatBufferBuilder11StartVectorEjj.constprop.148
 9278 067c 183094E5 		ldr	r3, [r4, #24]
 9279              	.L1706:
 9280 0680 282094E5 		ldr	r2, [r4, #40]
 9281 0684 0400A0E1 		mov	r0, r4
 9282 0688 145094E5 		ldr	r5, [r4, #20]
 9283 068c 046039E5 		ldr	r6, [r9, #-4]!
 9284 0690 030052E3 		cmp	r2, #3
 9285 0694 102094E5 		ldr	r2, [r4, #16]
 9286 0698 055043E0 		sub	r5, r3, r5
 9287 069c 28A08495 		strls	r10, [r4, #40]
 9288 06a0 025045E0 		sub	r5, r5, r2
 9289 06a4 035005E2 		and	r5, r5, #3
 9290 06a8 0510A0E1 		mov	r1, r5
 9291 06ac FEFFFFEB 		bl	_ZN11flatbuffers15vector_downward12ensure_spaceEj
 9292 06b0 183094E5 		ldr	r3, [r4, #24]
 9293 06b4 000055E3 		cmp	r5, #0
 9294 06b8 000043E0 		sub	r0, r3, r0
 9295 06bc 180084E5 		str	r0, [r4, #24]
 9296 06c0 0700000A 		beq	.L1701
 9297 06c4 010055E3 		cmp	r5, #1
 9298 06c8 0070C0E5 		strb	r7, [r0]
 9299 06cc 0400000A 		beq	.L1701
 9300 06d0 183094E5 		ldr	r3, [r4, #24]
 9301 06d4 020055E3 		cmp	r5, #2
 9302 06d8 0170C3E5 		strb	r7, [r3, #1]
 9303 06dc 18309415 		ldrne	r3, [r4, #24]
 9304 06e0 0270C315 		strbne	r7, [r3, #2]
 9305              	.L1701:
 9306 06e4 000056E3 		cmp	r6, #0
 9307 06e8 1202000A 		beq	.L1703
 9308 06ec 183094E5 		ldr	r3, [r4, #24]
 9309 06f0 142094E5 		ldr	r2, [r4, #20]
 9310 06f4 105094E5 		ldr	r5, [r4, #16]
 9311 06f8 023043E0 		sub	r3, r3, r2
 9312 06fc 035045E0 		sub	r5, r5, r3
 9313 0700 060055E1 		cmp	r5, r6
 9314 0704 0B02003A 		bcc	.L1703
 9315 0708 283094E5 		ldr	r3, [r4, #40]
 9316 070c 046066E2 		rsb	r6, r6, #4
 9317 0710 056086E0 		add	r6, r6, r5
 9318 0714 005065E2 		rsb	r5, r5, #0
 9319 0718 035005E2 		and	r5, r5, #3
 9320 071c 0400A0E1 		mov	r0, r4
 9321 0720 030053E3 		cmp	r3, #3
 9322 0724 0510A0E1 		mov	r1, r5
 9323 0728 28A08495 		strls	r10, [r4, #40]
 9324 072c FEFFFFEB 		bl	_ZN11flatbuffers15vector_downward12ensure_spaceEj
 9325 0730 183094E5 		ldr	r3, [r4, #24]
 9326 0734 000055E3 		cmp	r5, #0
 9327 0738 000043E0 		sub	r0, r3, r0
 9328 073c 180084E5 		str	r0, [r4, #24]
 9329 0740 0700000A 		beq	.L1705
 9330 0744 010055E3 		cmp	r5, #1
 9331 0748 0070C0E5 		strb	r7, [r0]
 9332 074c 0400000A 		beq	.L1705
 9333 0750 183094E5 		ldr	r3, [r4, #24]
 9334 0754 020055E3 		cmp	r5, #2
 9335 0758 0170C3E5 		strb	r7, [r3, #1]
 9336 075c 18309415 		ldrne	r3, [r4, #24]
 9337 0760 0270C315 		strbne	r7, [r3, #2]
 9338              	.L1705:
 9339 0764 0410A0E3 		mov	r1, #4
 9340 0768 0400A0E1 		mov	r0, r4
 9341 076c FEFFFFEB 		bl	_ZN11flatbuffers15vector_downward12ensure_spaceEj
 9342 0770 183094E5 		ldr	r3, [r4, #24]
 9343 0774 70208DE2 		add	r2, sp, #112
 9344 0778 090052E1 		cmp	r2, r9
 9345 077c 003043E0 		sub	r3, r3, r0
 9346 0780 183084E5 		str	r3, [r4, #24]
 9347 0784 006083E5 		str	r6, [r3]
 9348 0788 BCFFFF1A 		bne	.L1706
 9349 078c 2620D4E5 		ldrb	r2, [r4, #38]	@ zero_extendqisi2
 9350 0790 000052E3 		cmp	r2, #0
 9351 0794 0102000A 		beq	.L1726
 9352 0798 282094E5 		ldr	r2, [r4, #40]
 9353 079c 0010A0E3 		mov	r1, #0
 9354 07a0 2610C4E5 		strb	r1, [r4, #38]
 9355 07a4 0400A0E1 		mov	r0, r4
 9356 07a8 141094E5 		ldr	r1, [r4, #20]
 9357 07ac 030052E3 		cmp	r2, #3
 9358 07b0 0420A093 		movls	r2, #4
 9359 07b4 28208495 		strls	r2, [r4, #40]
 9360 07b8 013043E0 		sub	r3, r3, r1
 9361 07bc 102094E5 		ldr	r2, [r4, #16]
 9362 07c0 023043E0 		sub	r3, r3, r2
 9363 07c4 035003E2 		and	r5, r3, #3
 9364 07c8 0510A0E1 		mov	r1, r5
 9365 07cc FEFFFFEB 		bl	_ZN11flatbuffers15vector_downward12ensure_spaceEj
 9366 07d0 183094E5 		ldr	r3, [r4, #24]
 9367 07d4 000055E3 		cmp	r5, #0
 9368 07d8 000043E0 		sub	r0, r3, r0
 9369 07dc 180084E5 		str	r0, [r4, #24]
 9370 07e0 0800000A 		beq	.L1709
 9371 07e4 010055E3 		cmp	r5, #1
 9372 07e8 0030A0E3 		mov	r3, #0
 9373 07ec 0030C0E5 		strb	r3, [r0]
 9374 07f0 0400000A 		beq	.L1709
 9375 07f4 182094E5 		ldr	r2, [r4, #24]
 9376 07f8 020055E3 		cmp	r5, #2
 9377 07fc 0130C2E5 		strb	r3, [r2, #1]
 9378 0800 18209415 		ldrne	r2, [r4, #24]
 9379 0804 0230C215 		strbne	r3, [r2, #2]
 9380              	.L1709:
 9381 0808 0410A0E3 		mov	r1, #4
 9382 080c 0400A0E1 		mov	r0, r4
 9383 0810 FEFFFFEB 		bl	_ZN11flatbuffers15vector_downward12ensure_spaceEj
 9384 0814 183094E5 		ldr	r3, [r4, #24]
 9385 0818 04C0A0E3 		mov	ip, #4
 9386 081c 142094E5 		ldr	r2, [r4, #20]
 9387 0820 0310A0E3 		mov	r1, #3
 9388 0824 10E094E5 		ldr	lr, [r4, #16]
 9389 0828 8C508DE2 		add	r5, sp, #140
 9390 082c 003043E0 		sub	r3, r3, r0
 9391 0830 0400A0E1 		mov	r0, r4
 9392 0834 022043E0 		sub	r2, r3, r2
 9393 0838 183084E5 		str	r3, [r4, #24]
 9394 083c 00C083E5 		str	ip, [r3]
 9395 0840 02A04EE0 		sub	r10, lr, r2
 9396 0844 FEFFFFEB 		bl	_ZN11flatbuffers17FlatBufferBuilder11StartVectorEjj.constprop.148
 9397 0848 0C10A0E3 		mov	r1, #12
 9398 084c 0400A0E1 		mov	r0, r4
 9399 0850 FEFFFFEB 		bl	_ZN11flatbuffers15vector_downward12ensure_spaceEj
 9400 0854 183094E5 		ldr	r3, [r4, #24]
 9401 0858 0C20A0E3 		mov	r2, #12
 9402 085c 4C108DE2 		add	r1, sp, #76
 9403 0860 0070A0E3 		mov	r7, #0
 9404 0864 000043E0 		sub	r0, r3, r0
 9405 0868 180084E5 		str	r0, [r4, #24]
 9406 086c FEFFFFEB 		bl	memcpy
 9407 0870 0310A0E3 		mov	r1, #3
 9408 0874 0400A0E1 		mov	r0, r4
 9409 0878 FEFFFFEB 		bl	_ZN11flatbuffers17FlatBufferBuilder9EndVectorEj
 9410 087c 24108DE2 		add	r1, sp, #36
 9411 0880 0090A0E1 		mov	r9, r0
 9412 0884 0400A0E1 		mov	r0, r4
 9413 0888 FEFFFFEB 		bl	_ZN11flatbuffers17FlatBufferBuilder12CreateVectorIlEENS_6OffsetINS_6VectorIT_EEEEPKS4_j.constpr
 9414 088c 2C108DE2 		add	r1, sp, #44
 9415 0890 1C008DE5 		str	r0, [sp, #28]
 9416 0894 0400A0E1 		mov	r0, r4
 9417 0898 FEFFFFEB 		bl	_ZN11flatbuffers17FlatBufferBuilder12CreateVectorIN6tflite8OperatorEEENS_6OffsetINS_6VectorINS4
 9418 089c 001000E3 		movw	r1, #:lower16:.LC53
 9419 08a0 0060A0E1 		mov	r6, r0
 9420 08a4 0B20A0E3 		mov	r2, #11
 9421 08a8 001040E3 		movt	r1, #:upper16:.LC53
 9422 08ac 0400A0E1 		mov	r0, r4
 9423 08b0 FEFFFFEB 		bl	_ZN11flatbuffers17FlatBufferBuilder12CreateStringEPKcj
 9424 08b4 0A10A0E1 		mov	r1, r10
 9425 08b8 04008DE5 		str	r0, [sp, #4]
 9426 08bc 00608DE5 		str	r6, [sp]
 9427 08c0 0920A0E1 		mov	r2, r9
 9428 08c4 1C309DE5 		ldr	r3, [sp, #28]
 9429 08c8 0400A0E1 		mov	r0, r4
 9430 08cc FEFFFFEB 		bl	_ZN6tflite14CreateSubGraphERN11flatbuffers17FlatBufferBuilderENS0_6OffsetINS0_6VectorINS3_INS_6
 9431 08d0 0310A0E3 		mov	r1, #3
 9432 08d4 58008DE5 		str	r0, [sp, #88]
 9433 08d8 0400A0E1 		mov	r0, r4
 9434 08dc FEFFFFEB 		bl	_ZN11flatbuffers17FlatBufferBuilder11StartVectorEjj.constprop.148
 9435              	.L1712:
 9436 08e0 041035E5 		ldr	r1, [r5, #-4]!
 9437 08e4 0400A0E1 		mov	r0, r4
 9438 08e8 FEFFFFEB 		bl	_ZN11flatbuffers17FlatBufferBuilder7ReferToEm
 9439 08ec 283094E5 		ldr	r3, [r4, #40]
 9440 08f0 0090A0E1 		mov	r9, r0
 9441 08f4 186094E5 		ldr	r6, [r4, #24]
 9442 08f8 0400A0E1 		mov	r0, r4
 9443 08fc 142094E5 		ldr	r2, [r4, #20]
 9444 0900 030053E3 		cmp	r3, #3
 9445 0904 0430A093 		movls	r3, #4
 9446 0908 28308495 		strls	r3, [r4, #40]
 9447 090c 026046E0 		sub	r6, r6, r2
 9448 0910 103094E5 		ldr	r3, [r4, #16]
 9449 0914 036046E0 		sub	r6, r6, r3
 9450 0918 036006E2 		and	r6, r6, #3
 9451 091c 0610A0E1 		mov	r1, r6
 9452 0920 FEFFFFEB 		bl	_ZN11flatbuffers15vector_downward12ensure_spaceEj
 9453 0924 183094E5 		ldr	r3, [r4, #24]
 9454 0928 000056E3 		cmp	r6, #0
 9455 092c 000043E0 		sub	r0, r3, r0
 9456 0930 180084E5 		str	r0, [r4, #24]
 9457 0934 0700000A 		beq	.L1711
 9458 0938 010056E3 		cmp	r6, #1
 9459 093c 0070C0E5 		strb	r7, [r0]
 9460 0940 0400000A 		beq	.L1711
 9461 0944 183094E5 		ldr	r3, [r4, #24]
 9462 0948 020056E3 		cmp	r6, #2
 9463 094c 0170C3E5 		strb	r7, [r3, #1]
 9464 0950 18309415 		ldrne	r3, [r4, #24]
 9465 0954 0270C315 		strbne	r7, [r3, #2]
 9466              	.L1711:
 9467 0958 0410A0E3 		mov	r1, #4
 9468 095c 0400A0E1 		mov	r0, r4
 9469 0960 FEFFFFEB 		bl	_ZN11flatbuffers15vector_downward12ensure_spaceEj
 9470 0964 183094E5 		ldr	r3, [r4, #24]
 9471 0968 05005BE1 		cmp	fp, r5
 9472 096c 000043E0 		sub	r0, r3, r0
 9473 0970 180084E5 		str	r0, [r4, #24]
 9474 0974 009080E5 		str	r9, [r0]
 9475 0978 D8FFFF1A 		bne	.L1712
 9476 097c 0310A0E3 		mov	r1, #3
 9477 0980 0400A0E1 		mov	r0, r4
 9478 0984 FEFFFFEB 		bl	_ZN11flatbuffers17FlatBufferBuilder9EndVectorEj
 9479 0988 44108DE2 		add	r1, sp, #68
 9480 098c 0070A0E1 		mov	r7, r0
 9481 0990 0400A0E1 		mov	r0, r4
 9482 0994 90A08DE2 		add	r10, sp, #144
 9483 0998 FEFFFFEB 		bl	_ZN11flatbuffers17FlatBufferBuilder12CreateVectorIlEENS_6OffsetINS_6VectorIT_EEEEPKS4_j.constpr
 9484 099c 28108DE2 		add	r1, sp, #40
 9485 09a0 0090A0E1 		mov	r9, r0
 9486 09a4 0400A0E1 		mov	r0, r4
 9487 09a8 9C508DE2 		add	r5, sp, #156
 9488 09ac FEFFFFEB 		bl	_ZN11flatbuffers17FlatBufferBuilder12CreateVectorIlEENS_6OffsetINS_6VectorIT_EEEEPKS4_j.constpr
 9489 09b0 30108DE2 		add	r1, sp, #48
 9490 09b4 00B0A0E1 		mov	fp, r0
 9491 09b8 0400A0E1 		mov	r0, r4
 9492 09bc 0460A0E3 		mov	r6, #4
 9493 09c0 FEFFFFEB 		bl	_ZN11flatbuffers17FlatBufferBuilder12CreateVectorIN6tflite8OperatorEEENS_6OffsetINS_6VectorINS4
 9494 09c4 001000E3 		movw	r1, #:lower16:.LC54
 9495 09c8 1C008DE5 		str	r0, [sp, #28]
 9496 09cc 0D20A0E3 		mov	r2, #13
 9497 09d0 001040E3 		movt	r1, #:upper16:.LC54
 9498 09d4 0400A0E1 		mov	r0, r4
 9499 09d8 FEFFFFEB 		bl	_ZN11flatbuffers17FlatBufferBuilder12CreateStringEPKcj
 9500 09dc 1C309DE5 		ldr	r3, [sp, #28]
 9501 09e0 0710A0E1 		mov	r1, r7
 9502 09e4 04008DE5 		str	r0, [sp, #4]
 9503 09e8 0920A0E1 		mov	r2, r9
 9504 09ec 0400A0E1 		mov	r0, r4
 9505 09f0 0070A0E3 		mov	r7, #0
 9506 09f4 00308DE5 		str	r3, [sp]
 9507 09f8 0B30A0E1 		mov	r3, fp
 9508 09fc FEFFFFEB 		bl	_ZN6tflite14CreateSubGraphERN11flatbuffers17FlatBufferBuilderENS0_6OffsetINS0_6VectorINS3_INS_6
 9509 0a00 0310A0E3 		mov	r1, #3
 9510 0a04 5C008DE5 		str	r0, [sp, #92]
 9511 0a08 0400A0E1 		mov	r0, r4
 9512 0a0c FEFFFFEB 		bl	_ZN11flatbuffers17FlatBufferBuilder11StartVectorEjj.constprop.148
 9513              	.L1715:
 9514 0a10 041035E5 		ldr	r1, [r5, #-4]!
 9515 0a14 0400A0E1 		mov	r0, r4
 9516 0a18 FEFFFFEB 		bl	_ZN11flatbuffers17FlatBufferBuilder7ReferToEm
 9517 0a1c 283094E5 		ldr	r3, [r4, #40]
 9518 0a20 00B0A0E1 		mov	fp, r0
 9519 0a24 189094E5 		ldr	r9, [r4, #24]
 9520 0a28 0400A0E1 		mov	r0, r4
 9521 0a2c 142094E5 		ldr	r2, [r4, #20]
 9522 0a30 030053E3 		cmp	r3, #3
 9523 0a34 103094E5 		ldr	r3, [r4, #16]
 9524 0a38 28608495 		strls	r6, [r4, #40]
 9525 0a3c 029049E0 		sub	r9, r9, r2
 9526 0a40 039049E0 		sub	r9, r9, r3
 9527 0a44 039009E2 		and	r9, r9, #3
 9528 0a48 0910A0E1 		mov	r1, r9
 9529 0a4c FEFFFFEB 		bl	_ZN11flatbuffers15vector_downward12ensure_spaceEj
 9530 0a50 183094E5 		ldr	r3, [r4, #24]
 9531 0a54 000059E3 		cmp	r9, #0
 9532 0a58 000043E0 		sub	r0, r3, r0
 9533 0a5c 180084E5 		str	r0, [r4, #24]
 9534 0a60 0700000A 		beq	.L1714
 9535 0a64 010059E3 		cmp	r9, #1
 9536 0a68 0070C0E5 		strb	r7, [r0]
 9537 0a6c 0400000A 		beq	.L1714
 9538 0a70 183094E5 		ldr	r3, [r4, #24]
 9539 0a74 020059E3 		cmp	r9, #2
 9540 0a78 0170C3E5 		strb	r7, [r3, #1]
 9541 0a7c 18309415 		ldrne	r3, [r4, #24]
 9542 0a80 0270C315 		strbne	r7, [r3, #2]
 9543              	.L1714:
 9544 0a84 0410A0E3 		mov	r1, #4
 9545 0a88 0400A0E1 		mov	r0, r4
 9546 0a8c FEFFFFEB 		bl	_ZN11flatbuffers15vector_downward12ensure_spaceEj
 9547 0a90 183094E5 		ldr	r3, [r4, #24]
 9548 0a94 0A0055E1 		cmp	r5, r10
 9549 0a98 000043E0 		sub	r0, r3, r0
 9550 0a9c 180084E5 		str	r0, [r4, #24]
 9551 0aa0 00B080E5 		str	fp, [r0]
 9552 0aa4 D9FFFF1A 		bne	.L1715
 9553 0aa8 0310A0E3 		mov	r1, #3
 9554 0aac 0400A0E1 		mov	r0, r4
 9555 0ab0 FEFFFFEB 		bl	_ZN11flatbuffers17FlatBufferBuilder9EndVectorEj
 9556 0ab4 44108DE2 		add	r1, sp, #68
 9557 0ab8 0050A0E1 		mov	r5, r0
 9558 0abc 0400A0E1 		mov	r0, r4
 9559 0ac0 70608DE2 		add	r6, sp, #112
 9560 0ac4 FEFFFFEB 		bl	_ZN11flatbuffers17FlatBufferBuilder12CreateVectorIlEENS_6OffsetINS_6VectorIT_EEEEPKS4_j.constpr
 9561 0ac8 28108DE2 		add	r1, sp, #40
 9562 0acc 0070A0E1 		mov	r7, r0
 9563 0ad0 0400A0E1 		mov	r0, r4
 9564 0ad4 64908DE2 		add	r9, sp, #100
 9565 0ad8 FEFFFFEB 		bl	_ZN11flatbuffers17FlatBufferBuilder12CreateVectorIlEENS_6OffsetINS_6VectorIT_EEEEPKS4_j.constpr
 9566 0adc 34108DE2 		add	r1, sp, #52
 9567 0ae0 00A0A0E1 		mov	r10, r0
 9568 0ae4 0400A0E1 		mov	r0, r4
 9569 0ae8 FEFFFFEB 		bl	_ZN11flatbuffers17FlatBufferBuilder12CreateVectorIN6tflite8OperatorEEENS_6OffsetINS_6VectorINS4
 9570 0aec 001000E3 		movw	r1, #:lower16:.LC55
 9571 0af0 00B0A0E1 		mov	fp, r0
 9572 0af4 0D20A0E3 		mov	r2, #13
 9573 0af8 001040E3 		movt	r1, #:upper16:.LC55
 9574 0afc 0400A0E1 		mov	r0, r4
 9575 0b00 FEFFFFEB 		bl	_ZN11flatbuffers17FlatBufferBuilder12CreateStringEPKcj
 9576 0b04 0A30A0E1 		mov	r3, r10
 9577 0b08 0510A0E1 		mov	r1, r5
 9578 0b0c 04008DE5 		str	r0, [sp, #4]
 9579 0b10 0720A0E1 		mov	r2, r7
 9580 0b14 00B08DE5 		str	fp, [sp]
 9581 0b18 0400A0E1 		mov	r0, r4
 9582 0b1c FEFFFFEB 		bl	_ZN6tflite14CreateSubGraphERN11flatbuffers17FlatBufferBuilderENS0_6OffsetINS0_6VectorINS3_INS_6
 9583 0b20 001000E3 		movw	r1, #:lower16:.LC38
 9584 0b24 60008DE5 		str	r0, [sp, #96]
 9585 0b28 001040E3 		movt	r1, #:upper16:.LC38
 9586 0b2c 7620A0E3 		mov	r2, #118
 9587 0b30 0400A0E1 		mov	r0, r4
 9588 0b34 04A0A0E3 		mov	r10, #4
 9589 0b38 FEFFFFEB 		bl	_ZN6tflite24CreateOperatorCodeDirectERN11flatbuffers17FlatBufferBuilderEaPKclNS_15BuiltinOperat
 9590 0b3c 001000E3 		movw	r1, #:lower16:.LC38
 9591 0b40 0020A0E3 		mov	r2, #0
 9592 0b44 64008DE5 		str	r0, [sp, #100]
 9593 0b48 001040E3 		movt	r1, #:upper16:.LC38
 9594 0b4c 0400A0E1 		mov	r0, r4
 9595 0b50 0250A0E1 		mov	r5, r2
 9596 0b54 FEFFFFEB 		bl	_ZN6tflite24CreateOperatorCodeDirectERN11flatbuffers17FlatBufferBuilderEaPKclNS_15BuiltinOperat
 9597 0b58 001000E3 		movw	r1, #:lower16:.LC38
 9598 0b5c 68008DE5 		str	r0, [sp, #104]
 9599 0b60 001040E3 		movt	r1, #:upper16:.LC38
 9600 0b64 1220A0E3 		mov	r2, #18
 9601 0b68 0400A0E1 		mov	r0, r4
 9602 0b6c FEFFFFEB 		bl	_ZN6tflite24CreateOperatorCodeDirectERN11flatbuffers17FlatBufferBuilderEaPKclNS_15BuiltinOperat
 9603 0b70 0310A0E3 		mov	r1, #3
 9604 0b74 6C008DE5 		str	r0, [sp, #108]
 9605 0b78 0400A0E1 		mov	r0, r4
 9606 0b7c FEFFFFEB 		bl	_ZN11flatbuffers17FlatBufferBuilder11StartVectorEjj.constprop.148
 9607              	.L1718:
 9608 0b80 041036E5 		ldr	r1, [r6, #-4]!
 9609 0b84 0400A0E1 		mov	r0, r4
 9610 0b88 FEFFFFEB 		bl	_ZN11flatbuffers17FlatBufferBuilder7ReferToEm
 9611 0b8c 283094E5 		ldr	r3, [r4, #40]
 9612 0b90 00B0A0E1 		mov	fp, r0
 9613 0b94 187094E5 		ldr	r7, [r4, #24]
 9614 0b98 0400A0E1 		mov	r0, r4
 9615 0b9c 142094E5 		ldr	r2, [r4, #20]
 9616 0ba0 030053E3 		cmp	r3, #3
 9617 0ba4 103094E5 		ldr	r3, [r4, #16]
 9618 0ba8 28A08495 		strls	r10, [r4, #40]
 9619 0bac 027047E0 		sub	r7, r7, r2
 9620 0bb0 037047E0 		sub	r7, r7, r3
 9621 0bb4 037007E2 		and	r7, r7, #3
 9622 0bb8 0710A0E1 		mov	r1, r7
 9623 0bbc FEFFFFEB 		bl	_ZN11flatbuffers15vector_downward12ensure_spaceEj
 9624 0bc0 183094E5 		ldr	r3, [r4, #24]
 9625 0bc4 000057E3 		cmp	r7, #0
 9626 0bc8 000043E0 		sub	r0, r3, r0
 9627 0bcc 180084E5 		str	r0, [r4, #24]
 9628 0bd0 0700000A 		beq	.L1717
 9629 0bd4 010057E3 		cmp	r7, #1
 9630 0bd8 0050C0E5 		strb	r5, [r0]
 9631 0bdc 0400000A 		beq	.L1717
 9632 0be0 183094E5 		ldr	r3, [r4, #24]
 9633 0be4 020057E3 		cmp	r7, #2
 9634 0be8 0150C3E5 		strb	r5, [r3, #1]
 9635 0bec 18309415 		ldrne	r3, [r4, #24]
 9636 0bf0 0250C315 		strbne	r5, [r3, #2]
 9637              	.L1717:
 9638 0bf4 0410A0E3 		mov	r1, #4
 9639 0bf8 0400A0E1 		mov	r0, r4
 9640 0bfc FEFFFFEB 		bl	_ZN11flatbuffers15vector_downward12ensure_spaceEj
 9641 0c00 183094E5 		ldr	r3, [r4, #24]
 9642 0c04 090056E1 		cmp	r6, r9
 9643 0c08 000043E0 		sub	r0, r3, r0
 9644 0c0c 180084E5 		str	r0, [r4, #24]
 9645 0c10 00B080E5 		str	fp, [r0]
 9646 0c14 D9FFFF1A 		bne	.L1718
 9647 0c18 0310A0E3 		mov	r1, #3
 9648 0c1c 0400A0E1 		mov	r0, r4
 9649 0c20 FEFFFFEB 		bl	_ZN11flatbuffers17FlatBufferBuilder9EndVectorEj
 9650 0c24 0310A0E3 		mov	r1, #3
 9651 0c28 1C008DE5 		str	r0, [sp, #28]
 9652 0c2c 0400A0E1 		mov	r0, r4
 9653 0c30 58908DE2 		add	r9, sp, #88
 9654 0c34 04A0A0E3 		mov	r10, #4
 9655 0c38 0050A0E3 		mov	r5, #0
 9656 0c3c FEFFFFEB 		bl	_ZN11flatbuffers17FlatBufferBuilder11StartVectorEjj.constprop.148
 9657              	.L1721:
 9658 0c40 041036E5 		ldr	r1, [r6, #-4]!
 9659 0c44 0400A0E1 		mov	r0, r4
 9660 0c48 FEFFFFEB 		bl	_ZN11flatbuffers17FlatBufferBuilder7ReferToEm
 9661 0c4c 283094E5 		ldr	r3, [r4, #40]
 9662 0c50 00B0A0E1 		mov	fp, r0
 9663 0c54 187094E5 		ldr	r7, [r4, #24]
 9664 0c58 0400A0E1 		mov	r0, r4
 9665 0c5c 142094E5 		ldr	r2, [r4, #20]
 9666 0c60 030053E3 		cmp	r3, #3
 9667 0c64 103094E5 		ldr	r3, [r4, #16]
 9668 0c68 28A08495 		strls	r10, [r4, #40]
 9669 0c6c 027047E0 		sub	r7, r7, r2
 9670 0c70 037047E0 		sub	r7, r7, r3
 9671 0c74 037007E2 		and	r7, r7, #3
 9672 0c78 0710A0E1 		mov	r1, r7
 9673 0c7c FEFFFFEB 		bl	_ZN11flatbuffers15vector_downward12ensure_spaceEj
 9674 0c80 183094E5 		ldr	r3, [r4, #24]
 9675 0c84 000057E3 		cmp	r7, #0
 9676 0c88 000043E0 		sub	r0, r3, r0
 9677 0c8c 180084E5 		str	r0, [r4, #24]
 9678 0c90 0700000A 		beq	.L1720
 9679 0c94 010057E3 		cmp	r7, #1
 9680 0c98 0050C0E5 		strb	r5, [r0]
 9681 0c9c 0400000A 		beq	.L1720
 9682 0ca0 183094E5 		ldr	r3, [r4, #24]
 9683 0ca4 020057E3 		cmp	r7, #2
 9684 0ca8 0150C3E5 		strb	r5, [r3, #1]
 9685 0cac 18309415 		ldrne	r3, [r4, #24]
 9686 0cb0 0250C315 		strbne	r5, [r3, #2]
 9687              	.L1720:
 9688 0cb4 0410A0E3 		mov	r1, #4
 9689 0cb8 0400A0E1 		mov	r0, r4
 9690 0cbc FEFFFFEB 		bl	_ZN11flatbuffers15vector_downward12ensure_spaceEj
 9691 0cc0 183094E5 		ldr	r3, [r4, #24]
 9692 0cc4 060059E1 		cmp	r9, r6
 9693 0cc8 000043E0 		sub	r0, r3, r0
 9694 0ccc 180084E5 		str	r0, [r4, #24]
 9695 0cd0 00B080E5 		str	fp, [r0]
 9696 0cd4 D9FFFF1A 		bne	.L1721
 9697 0cd8 0310A0E3 		mov	r1, #3
 9698 0cdc 0400A0E1 		mov	r0, r4
 9699 0ce0 FEFFFFEB 		bl	_ZN11flatbuffers17FlatBufferBuilder9EndVectorEj
 9700 0ce4 001000E3 		movw	r1, #:lower16:.LC43
 9701 0ce8 0A20A0E3 		mov	r2, #10
 9702 0cec 001040E3 		movt	r1, #:upper16:.LC43
 9703 0cf0 0070A0E1 		mov	r7, r0
 9704 0cf4 0400A0E1 		mov	r0, r4
 9705 0cf8 FEFFFFEB 		bl	_ZN11flatbuffers17FlatBufferBuilder12CreateStringEPKcj
 9706 0cfc 0110A0E3 		mov	r1, #1
 9707 0d00 0060A0E1 		mov	r6, r0
 9708 0d04 0400A0E1 		mov	r0, r4
 9709 0d08 FEFFFFEB 		bl	_ZN11flatbuffers17FlatBufferBuilder11StartVectorEjj.constprop.148
 9710 0d0c 283094E5 		ldr	r3, [r4, #40]
 9711 0d10 0400A0E1 		mov	r0, r4
 9712 0d14 185094E5 		ldr	r5, [r4, #24]
 9713 0d18 142094E5 		ldr	r2, [r4, #20]
 9714 0d1c 030053E3 		cmp	r3, #3
 9715 0d20 0430A093 		movls	r3, #4
 9716 0d24 28308495 		strls	r3, [r4, #40]
 9717 0d28 025045E0 		sub	r5, r5, r2
 9718 0d2c 103094E5 		ldr	r3, [r4, #16]
 9719 0d30 035045E0 		sub	r5, r5, r3
 9720 0d34 035005E2 		and	r5, r5, #3
 9721 0d38 0510A0E1 		mov	r1, r5
 9722 0d3c FEFFFFEB 		bl	_ZN11flatbuffers15vector_downward12ensure_spaceEj
 9723 0d40 183094E5 		ldr	r3, [r4, #24]
 9724 0d44 000055E3 		cmp	r5, #0
 9725 0d48 000043E0 		sub	r0, r3, r0
 9726 0d4c 180084E5 		str	r0, [r4, #24]
 9727 0d50 0800000A 		beq	.L1723
 9728 0d54 010055E3 		cmp	r5, #1
 9729 0d58 0030A0E3 		mov	r3, #0
 9730 0d5c 0030C0E5 		strb	r3, [r0]
 9731 0d60 0400000A 		beq	.L1723
 9732 0d64 182094E5 		ldr	r2, [r4, #24]
 9733 0d68 020055E3 		cmp	r5, #2
 9734 0d6c 0130C2E5 		strb	r3, [r2, #1]
 9735 0d70 18209415 		ldrne	r2, [r4, #24]
 9736 0d74 0230C215 		strbne	r3, [r2, #2]
 9737              	.L1723:
 9738 0d78 18009DE5 		ldr	r0, [sp, #24]
 9739 0d7c 000050E3 		cmp	r0, #0
 9740 0d80 6C00000A 		beq	.L1703
 9741 0d84 182094E5 		ldr	r2, [r4, #24]
 9742 0d88 141094E5 		ldr	r1, [r4, #20]
 9743 0d8c 103094E5 		ldr	r3, [r4, #16]
 9744 0d90 012042E0 		sub	r2, r2, r1
 9745 0d94 023043E0 		sub	r3, r3, r2
 9746 0d98 000053E1 		cmp	r3, r0
 9747 0d9c 6500003A 		bcc	.L1703
 9748 0da0 282094E5 		ldr	r2, [r4, #40]
 9749 0da4 049060E2 		rsb	r9, r0, #4
 9750 0da8 039089E0 		add	r9, r9, r3
 9751 0dac 003063E2 		rsb	r3, r3, #0
 9752 0db0 035003E2 		and	r5, r3, #3
 9753 0db4 0400A0E1 		mov	r0, r4
 9754 0db8 030052E3 		cmp	r2, #3
 9755 0dbc 0510A0E1 		mov	r1, r5
 9756 0dc0 0420A093 		movls	r2, #4
 9757 0dc4 28208495 		strls	r2, [r4, #40]
 9758 0dc8 FEFFFFEB 		bl	_ZN11flatbuffers15vector_downward12ensure_spaceEj
 9759 0dcc 183094E5 		ldr	r3, [r4, #24]
 9760 0dd0 000055E3 		cmp	r5, #0
 9761 0dd4 000043E0 		sub	r0, r3, r0
 9762 0dd8 180084E5 		str	r0, [r4, #24]
 9763 0ddc 0800000A 		beq	.L1725
 9764 0de0 010055E3 		cmp	r5, #1
 9765 0de4 0030A0E3 		mov	r3, #0
 9766 0de8 0030C0E5 		strb	r3, [r0]
 9767 0dec 0400000A 		beq	.L1725
 9768 0df0 182094E5 		ldr	r2, [r4, #24]
 9769 0df4 020055E3 		cmp	r5, #2
 9770 0df8 0130C2E5 		strb	r3, [r2, #1]
 9771 0dfc 18209415 		ldrne	r2, [r4, #24]
 9772 0e00 0230C215 		strbne	r3, [r2, #2]
 9773              	.L1725:
 9774 0e04 0410A0E3 		mov	r1, #4
 9775 0e08 0400A0E1 		mov	r0, r4
 9776 0e0c FEFFFFEB 		bl	_ZN11flatbuffers15vector_downward12ensure_spaceEj
 9777 0e10 183094E5 		ldr	r3, [r4, #24]
 9778 0e14 2610D4E5 		ldrb	r1, [r4, #38]	@ zero_extendqisi2
 9779 0e18 142094E5 		ldr	r2, [r4, #20]
 9780 0e1c 105094E5 		ldr	r5, [r4, #16]
 9781 0e20 000043E0 		sub	r0, r3, r0
 9782 0e24 000051E3 		cmp	r1, #0
 9783 0e28 180084E5 		str	r0, [r4, #24]
 9784 0e2c 022040E0 		sub	r2, r0, r2
 9785 0e30 009080E5 		str	r9, [r0]
 9786 0e34 025045E0 		sub	r5, r5, r2
 9787 0e38 5800000A 		beq	.L1726
 9788 0e3c 283094E5 		ldr	r3, [r4, #40]
 9789 0e40 005065E2 		rsb	r5, r5, #0
 9790 0e44 0020A0E3 		mov	r2, #0
 9791 0e48 035005E2 		and	r5, r5, #3
 9792 0e4c 2620C4E5 		strb	r2, [r4, #38]
 9793 0e50 0400A0E1 		mov	r0, r4
 9794 0e54 030053E3 		cmp	r3, #3
 9795 0e58 0510A0E1 		mov	r1, r5
 9796 0e5c 0430A093 		movls	r3, #4
 9797 0e60 28308495 		strls	r3, [r4, #40]
 9798 0e64 FEFFFFEB 		bl	_ZN11flatbuffers15vector_downward12ensure_spaceEj
 9799 0e68 183094E5 		ldr	r3, [r4, #24]
 9800 0e6c 000055E3 		cmp	r5, #0
 9801 0e70 000043E0 		sub	r0, r3, r0
 9802 0e74 180084E5 		str	r0, [r4, #24]
 9803 0e78 0800000A 		beq	.L1728
 9804 0e7c 010055E3 		cmp	r5, #1
 9805 0e80 0030A0E3 		mov	r3, #0
 9806 0e84 0030C0E5 		strb	r3, [r0]
 9807 0e88 0400000A 		beq	.L1728
 9808 0e8c 182094E5 		ldr	r2, [r4, #24]
 9809 0e90 020055E3 		cmp	r5, #2
 9810 0e94 0130C2E5 		strb	r3, [r2, #1]
 9811 0e98 18209415 		ldrne	r2, [r4, #24]
 9812 0e9c 0230C215 		strbne	r3, [r2, #2]
 9813              	.L1728:
 9814 0ea0 0410A0E3 		mov	r1, #4
 9815 0ea4 0400A0E1 		mov	r0, r4
 9816 0ea8 FEFFFFEB 		bl	_ZN11flatbuffers15vector_downward12ensure_spaceEj
 9817 0eac 181094E5 		ldr	r1, [r4, #24]
 9818 0eb0 0150A0E3 		mov	r5, #1
 9819 0eb4 14C094E5 		ldr	ip, [r4, #20]
 9820 0eb8 0730A0E1 		mov	r3, r7
 9821 0ebc 1C209DE5 		ldr	r2, [sp, #28]
 9822 0ec0 000041E0 		sub	r0, r1, r0
 9823 0ec4 101094E5 		ldr	r1, [r4, #16]
 9824 0ec8 0CE040E0 		sub	lr, r0, ip
 9825 0ecc 00C0A0E3 		mov	ip, #0
 9826 0ed0 180084E5 		str	r0, [r4, #24]
 9827 0ed4 0E1041E0 		sub	r1, r1, lr
 9828 0ed8 005080E5 		str	r5, [r0]
 9829 0edc 04108DE5 		str	r1, [sp, #4]
 9830 0ee0 0400A0E1 		mov	r0, r4
 9831 0ee4 0C10A0E1 		mov	r1, ip
 9832 0ee8 10C08DE5 		str	ip, [sp, #16]
 9833 0eec 0CC08DE5 		str	ip, [sp, #12]
 9834 0ef0 08C08DE5 		str	ip, [sp, #8]
 9835 0ef4 00608DE5 		str	r6, [sp]
 9836 0ef8 FEFFFFEB 		bl	_ZN6tflite11CreateModelERN11flatbuffers17FlatBufferBuilderEmNS0_6OffsetINS0_6VectorINS3_INS_12O
 9837 0efc 0010A0E1 		mov	r1, r0
 9838 0f00 0400A0E1 		mov	r0, r4
 9839 0f04 FEFFFFEB 		bl	_ZN11flatbuffers17FlatBufferBuilder6FinishEmPKcb.constprop.146
 9840 0f08 2730D4E5 		ldrb	r3, [r4, #39]	@ zero_extendqisi2
 9841 0f0c 000053E3 		cmp	r3, #0
 9842 0f10 1A00000A 		beq	.L1856
 9843 0f14 185094E5 		ldr	r5, [r4, #24]
 9844 0f18 000055E3 		cmp	r5, #0
 9845 0f1c 1600000A 		beq	.L1857
 9846 0f20 003095E5 		ldr	r3, [r5]
 9847 0f24 035085E0 		add	r5, r5, r3
 9848 0f28 0500A0E1 		mov	r0, r5
 9849 0f2c 005088E5 		str	r5, [r8]
 9850 0f30 A4D08DE2 		add	sp, sp, #164
 9851              		@ sp needed
 9852 0f34 F08FBDE8 		pop	{r4, r5, r6, r7, r8, r9, r10, fp, pc}
 9853              	.L1703:
 9854 0f38 003000E3 		movw	r3, #:lower16:.LC25
 9855 0f3c 002000E3 		movw	r2, #:lower16:.LANCHOR13
 9856 0f40 000000E3 		movw	r0, #:lower16:.LC19
 9857 0f44 003040E3 		movt	r3, #:upper16:.LC25
 9858 0f48 002040E3 		movt	r2, #:upper16:.LANCHOR13
 9859 0f4c 000040E3 		movt	r0, #:upper16:.LC19
 9860 0f50 3B1500E3 		movw	r1, #1339
 9861 0f54 FEFFFFEB 		bl	__assert_func
 9862              	.L1855:
 9863 0f58 FEFFFFEB 		bl	_ZN11flatbuffers17FlatBufferBuilder9NotNestedEv.isra.19.part.20
 9864              	.L1854:
 9865 0f5c 003000E3 		movw	r3, #:lower16:.LC24
 9866 0f60 002000E3 		movw	r2, #:lower16:.LANCHOR11
 9867 0f64 000000E3 		movw	r0, #:lower16:.LC19
 9868 0f68 003040E3 		movt	r3, #:upper16:.LC24
 9869 0f6c 002040E3 		movt	r2, #:upper16:.LANCHOR11
 9870 0f70 000040E3 		movt	r0, #:upper16:.LC19
 9871 0f74 481500E3 		movw	r1, #1352
 9872 0f78 FEFFFFEB 		bl	__assert_func
 9873              	.L1857:
 9874 0f7c FEFFFFEB 		bl	_ZNK11flatbuffers15vector_downward4dataEv.isra.9.part.10
 9875              	.L1856:
 9876 0f80 003000E3 		movw	r3, #:lower16:.LC34
 9877 0f84 002000E3 		movw	r2, #:lower16:.LANCHOR18
 9878 0f88 000000E3 		movw	r0, #:lower16:.LC19
 9879 0f8c 003040E3 		movt	r3, #:upper16:.LC34
 9880 0f90 002040E3 		movt	r2, #:upper16:.LANCHOR18
 9881 0f94 000040E3 		movt	r0, #:upper16:.LC19
 9882 0f98 D71400E3 		movw	r1, #1239
 9883 0f9c FEFFFFEB 		bl	__assert_func
 9884              	.L1726:
 9885 0fa0 003000E3 		movw	r3, #:lower16:.LC26
 9886 0fa4 002000E3 		movw	r2, #:lower16:.LANCHOR14
 9887 0fa8 000000E3 		movw	r0, #:lower16:.LC19
 9888 0fac 003040E3 		movt	r3, #:upper16:.LC26
 9889 0fb0 002040E3 		movt	r2, #:upper16:.LANCHOR14
 9890 0fb4 000040E3 		movt	r0, #:upper16:.LC19
 9891 0fb8 2C1600E3 		movw	r1, #1580
 9892 0fbc FEFFFFEB 		bl	__assert_func
 9893              		.fnend
 9895              		.section	.text._ZN6tflite7testing19GetComplexMockModelEv,"ax",%progbits
 9896              		.align	2
 9897              		.global	_ZN6tflite7testing19GetComplexMockModelEv
 9898              		.syntax unified
 9899              		.arm
 9900              		.fpu neon
 9902              	_ZN6tflite7testing19GetComplexMockModelEv:
 9903              		.fnstart
 9904              	.LFB7018:
 9905              		@ args = 0, pretend = 0, frame = 120
 9906              		@ frame_needed = 0, uses_anonymous_args = 0
 9907 0000 F04F2DE9 		push	{r4, r5, r6, r7, r8, r9, r10, fp, lr}
 9908              		.save {r4, r5, r6, r7, r8, r9, r10, fp, lr}
 9909 0004 008000E3 		movw	r8, #:lower16:.LANCHOR35
 9910 0008 008040E3 		movt	r8, #:upper16:.LANCHOR35
 9911              		.pad #148
 9912 000c 94D04DE2 		sub	sp, sp, #148
 9913 0010 005098E5 		ldr	r5, [r8]
 9914 0014 000055E3 		cmp	r5, #0
 9915 0018 0200000A 		beq	.L2009
 9916              	.L1862:
 9917 001c 0500A0E1 		mov	r0, r5
 9918 0020 94D08DE2 		add	sp, sp, #148
 9919              		@ sp needed
 9920 0024 F08FBDE8 		pop	{r4, r5, r6, r7, r8, r9, r10, fp, pc}
 9921              	.L2009:
 9922 0028 FEFFFFEB 		bl	_ZN6tflite7testing12_GLOBAL__N_115BuilderInstanceEv
 9923 002c 0510A0E1 		mov	r1, r5
 9924 0030 0040A0E1 		mov	r4, r0
 9925 0034 FEFFFFEB 		bl	_ZN6tflite12CreateBufferERN11flatbuffers17FlatBufferBuilderENS0_6OffsetINS0_6VectorIhEEEE
 9926 0038 0510A0E1 		mov	r1, r5
 9927 003c 4C008DE5 		str	r0, [sp, #76]
 9928 0040 0400A0E1 		mov	r0, r4
 9929 0044 FEFFFFEB 		bl	_ZN6tflite12CreateBufferERN11flatbuffers17FlatBufferBuilderENS0_6OffsetINS0_6VectorIhEEEE
 9930 0048 2620D4E5 		ldrb	r2, [r4, #38]	@ zero_extendqisi2
 9931 004c 50008DE5 		str	r0, [sp, #80]
 9932 0050 203094E5 		ldr	r3, [r4, #32]
 9933 0054 000052E3 		cmp	r2, #0
 9934 0058 7903001A 		bne	.L1868
 9935 005c 000053E3 		cmp	r3, #0
 9936 0060 7603001A 		bne	.L1869
 9937 0064 283094E5 		ldr	r3, [r4, #40]
 9938 0068 0120A0E3 		mov	r2, #1
 9939 006c 2620C4E5 		strb	r2, [r4, #38]
 9940 0070 0400A0E1 		mov	r0, r4
 9941 0074 142094E5 		ldr	r2, [r4, #20]
 9942 0078 030053E3 		cmp	r3, #3
 9943 007c 105094E5 		ldr	r5, [r4, #16]
 9944 0080 0430A093 		movls	r3, #4
 9945 0084 28308495 		strls	r3, [r4, #40]
 9946 0088 183094E5 		ldr	r3, [r4, #24]
 9947 008c 023043E0 		sub	r3, r3, r2
 9948 0090 035045E0 		sub	r5, r5, r3
 9949 0094 0550E0E1 		mvn	r5, r5
 9950 0098 035005E2 		and	r5, r5, #3
 9951 009c 0510A0E1 		mov	r1, r5
 9952 00a0 FEFFFFEB 		bl	_ZN11flatbuffers15vector_downward12ensure_spaceEj
 9953 00a4 183094E5 		ldr	r3, [r4, #24]
 9954 00a8 000055E3 		cmp	r5, #0
 9955 00ac 000043E0 		sub	r0, r3, r0
 9956 00b0 180084E5 		str	r0, [r4, #24]
 9957 00b4 0800000A 		beq	.L1866
 9958 00b8 010055E3 		cmp	r5, #1
 9959 00bc 0030A0E3 		mov	r3, #0
 9960 00c0 0030C0E5 		strb	r3, [r0]
 9961 00c4 0400000A 		beq	.L1866
 9962 00c8 182094E5 		ldr	r2, [r4, #24]
 9963 00cc 020055E3 		cmp	r5, #2
 9964 00d0 0130C2E5 		strb	r3, [r2, #1]
 9965 00d4 18209415 		ldrne	r2, [r4, #24]
 9966 00d8 0230C215 		strbne	r3, [r2, #2]
 9967              	.L1866:
 9968 00dc 283094E5 		ldr	r3, [r4, #40]
 9969 00e0 0010A0E3 		mov	r1, #0
 9970 00e4 0400A0E1 		mov	r0, r4
 9971 00e8 000053E3 		cmp	r3, #0
 9972 00ec 0130A003 		moveq	r3, #1
 9973 00f0 28308405 		streq	r3, [r4, #40]
 9974 00f4 FEFFFFEB 		bl	_ZN11flatbuffers15vector_downward12ensure_spaceEj
 9975 00f8 183094E5 		ldr	r3, [r4, #24]
 9976 00fc 0110A0E3 		mov	r1, #1
 9977 0100 003043E0 		sub	r3, r3, r0
 9978 0104 0400A0E1 		mov	r0, r4
 9979 0108 183084E5 		str	r3, [r4, #24]
 9980 010c FEFFFFEB 		bl	_ZN11flatbuffers15vector_downward12ensure_spaceEj
 9981 0110 183094E5 		ldr	r3, [r4, #24]
 9982 0114 1520A0E3 		mov	r2, #21
 9983 0118 0110A0E3 		mov	r1, #1
 9984 011c 003043E0 		sub	r3, r3, r0
 9985 0120 0400A0E1 		mov	r0, r4
 9986 0124 183084E5 		str	r3, [r4, #24]
 9987 0128 0020C3E5 		strb	r2, [r3]
 9988 012c FEFFFFEB 		bl	_ZN11flatbuffers17FlatBufferBuilder9EndVectorEj
 9989 0130 0010A0E1 		mov	r1, r0
 9990 0134 0400A0E1 		mov	r0, r4
 9991 0138 FEFFFFEB 		bl	_ZN6tflite12CreateBufferERN11flatbuffers17FlatBufferBuilderENS0_6OffsetINS0_6VectorIhEEEE
 9992 013c 0010A0E3 		mov	r1, #0
 9993 0140 54008DE5 		str	r0, [sp, #84]
 9994 0144 0400A0E1 		mov	r0, r4
 9995 0148 FEFFFFEB 		bl	_ZN6tflite12CreateBufferERN11flatbuffers17FlatBufferBuilderENS0_6OffsetINS0_6VectorIhEEEE
 9996 014c 2620D4E5 		ldrb	r2, [r4, #38]	@ zero_extendqisi2
 9997 0150 58008DE5 		str	r0, [sp, #88]
 9998 0154 203094E5 		ldr	r3, [r4, #32]
 9999 0158 000052E3 		cmp	r2, #0
 10000 015c 3803001A 		bne	.L1868
 10001 0160 000053E3 		cmp	r3, #0
 10002 0164 3503001A 		bne	.L1869
 10003 0168 283094E5 		ldr	r3, [r4, #40]
 10004 016c 0120A0E3 		mov	r2, #1
 10005 0170 2620C4E5 		strb	r2, [r4, #38]
 10006 0174 0400A0E1 		mov	r0, r4
 10007 0178 142094E5 		ldr	r2, [r4, #20]
 10008 017c 030053E3 		cmp	r3, #3
 10009 0180 105094E5 		ldr	r5, [r4, #16]
 10010 0184 0430A093 		movls	r3, #4
 10011 0188 28308495 		strls	r3, [r4, #40]
 10012 018c 183094E5 		ldr	r3, [r4, #24]
 10013 0190 023043E0 		sub	r3, r3, r2
 10014 0194 035045E0 		sub	r5, r5, r3
 10015 0198 0550E0E1 		mvn	r5, r5
 10016 019c 035005E2 		and	r5, r5, #3
 10017 01a0 0510A0E1 		mov	r1, r5
 10018 01a4 FEFFFFEB 		bl	_ZN11flatbuffers15vector_downward12ensure_spaceEj
 10019 01a8 183094E5 		ldr	r3, [r4, #24]
 10020 01ac 000055E3 		cmp	r5, #0
 10021 01b0 000043E0 		sub	r0, r3, r0
 10022 01b4 180084E5 		str	r0, [r4, #24]
 10023 01b8 0800000A 		beq	.L1871
 10024 01bc 010055E3 		cmp	r5, #1
 10025 01c0 0030A0E3 		mov	r3, #0
 10026 01c4 0030C0E5 		strb	r3, [r0]
 10027 01c8 0400000A 		beq	.L1871
 10028 01cc 182094E5 		ldr	r2, [r4, #24]
 10029 01d0 020055E3 		cmp	r5, #2
 10030 01d4 0130C2E5 		strb	r3, [r2, #1]
 10031 01d8 18209415 		ldrne	r2, [r4, #24]
 10032 01dc 0230C215 		strbne	r3, [r2, #2]
 10033              	.L1871:
 10034 01e0 283094E5 		ldr	r3, [r4, #40]
 10035 01e4 0010A0E3 		mov	r1, #0
 10036 01e8 0400A0E1 		mov	r0, r4
 10037 01ec 000053E3 		cmp	r3, #0
 10038 01f0 0130A003 		moveq	r3, #1
 10039 01f4 28308405 		streq	r3, [r4, #40]
 10040 01f8 FEFFFFEB 		bl	_ZN11flatbuffers15vector_downward12ensure_spaceEj
 10041 01fc 183094E5 		ldr	r3, [r4, #24]
 10042 0200 0110A0E3 		mov	r1, #1
 10043 0204 003043E0 		sub	r3, r3, r0
 10044 0208 0400A0E1 		mov	r0, r4
 10045 020c 183084E5 		str	r3, [r4, #24]
 10046 0210 FEFFFFEB 		bl	_ZN11flatbuffers15vector_downward12ensure_spaceEj
 10047 0214 183094E5 		ldr	r3, [r4, #24]
 10048 0218 1520A0E3 		mov	r2, #21
 10049 021c 0110A0E3 		mov	r1, #1
 10050 0220 003043E0 		sub	r3, r3, r0
 10051 0224 0400A0E1 		mov	r0, r4
 10052 0228 183084E5 		str	r3, [r4, #24]
 10053 022c 0020C3E5 		strb	r2, [r3]
 10054 0230 FEFFFFEB 		bl	_ZN11flatbuffers17FlatBufferBuilder9EndVectorEj
 10055 0234 0010A0E1 		mov	r1, r0
 10056 0238 0400A0E1 		mov	r0, r4
 10057 023c FEFFFFEB 		bl	_ZN6tflite12CreateBufferERN11flatbuffers17FlatBufferBuilderENS0_6OffsetINS0_6VectorIhEEEE
 10058 0240 0010A0E3 		mov	r1, #0
 10059 0244 5C008DE5 		str	r0, [sp, #92]
 10060 0248 0400A0E1 		mov	r0, r4
 10061 024c FEFFFFEB 		bl	_ZN6tflite12CreateBufferERN11flatbuffers17FlatBufferBuilderENS0_6OffsetINS0_6VectorIhEEEE
 10062 0250 2620D4E5 		ldrb	r2, [r4, #38]	@ zero_extendqisi2
 10063 0254 60008DE5 		str	r0, [sp, #96]
 10064 0258 203094E5 		ldr	r3, [r4, #32]
 10065 025c 000052E3 		cmp	r2, #0
 10066 0260 F702001A 		bne	.L1868
 10067 0264 000053E3 		cmp	r3, #0
 10068 0268 F402001A 		bne	.L1869
 10069 026c 283094E5 		ldr	r3, [r4, #40]
 10070 0270 0120A0E3 		mov	r2, #1
 10071 0274 2620C4E5 		strb	r2, [r4, #38]
 10072 0278 0400A0E1 		mov	r0, r4
 10073 027c 142094E5 		ldr	r2, [r4, #20]
 10074 0280 030053E3 		cmp	r3, #3
 10075 0284 105094E5 		ldr	r5, [r4, #16]
 10076 0288 0430A093 		movls	r3, #4
 10077 028c 28308495 		strls	r3, [r4, #40]
 10078 0290 183094E5 		ldr	r3, [r4, #24]
 10079 0294 023043E0 		sub	r3, r3, r2
 10080 0298 035045E0 		sub	r5, r5, r3
 10081 029c 0550E0E1 		mvn	r5, r5
 10082 02a0 035005E2 		and	r5, r5, #3
 10083 02a4 0510A0E1 		mov	r1, r5
 10084 02a8 FEFFFFEB 		bl	_ZN11flatbuffers15vector_downward12ensure_spaceEj
 10085 02ac 183094E5 		ldr	r3, [r4, #24]
 10086 02b0 000055E3 		cmp	r5, #0
 10087 02b4 000043E0 		sub	r0, r3, r0
 10088 02b8 180084E5 		str	r0, [r4, #24]
 10089 02bc 0800000A 		beq	.L1874
 10090 02c0 010055E3 		cmp	r5, #1
 10091 02c4 0030A0E3 		mov	r3, #0
 10092 02c8 0030C0E5 		strb	r3, [r0]
 10093 02cc 0400000A 		beq	.L1874
 10094 02d0 182094E5 		ldr	r2, [r4, #24]
 10095 02d4 020055E3 		cmp	r5, #2
 10096 02d8 0130C2E5 		strb	r3, [r2, #1]
 10097 02dc 18209415 		ldrne	r2, [r4, #24]
 10098 02e0 0230C215 		strbne	r3, [r2, #2]
 10099              	.L1874:
 10100 02e4 283094E5 		ldr	r3, [r4, #40]
 10101 02e8 0010A0E3 		mov	r1, #0
 10102 02ec 0400A0E1 		mov	r0, r4
 10103 02f0 90708DE2 		add	r7, sp, #144
 10104 02f4 0050A0E3 		mov	r5, #0
 10105 02f8 0390A0E3 		mov	r9, #3
 10106 02fc 000053E3 		cmp	r3, #0
 10107 0300 006000E3 		movw	r6, #:lower16:.LANCHOR33
 10108 0304 0130A003 		moveq	r3, #1
 10109 0308 006040E3 		movt	r6, #:upper16:.LANCHOR33
 10110 030c 28308405 		streq	r3, [r4, #40]
 10111 0310 FEFFFFEB 		bl	_ZN11flatbuffers15vector_downward12ensure_spaceEj
 10112 0314 183094E5 		ldr	r3, [r4, #24]
 10113 0318 0110A0E3 		mov	r1, #1
 10114 031c 01A0A0E1 		mov	r10, r1
 10115 0320 003043E0 		sub	r3, r3, r0
 10116 0324 0400A0E1 		mov	r0, r4
 10117 0328 183084E5 		str	r3, [r4, #24]
 10118 032c FEFFFFEB 		bl	_ZN11flatbuffers15vector_downward12ensure_spaceEj
 10119 0330 183094E5 		ldr	r3, [r4, #24]
 10120 0334 1520A0E3 		mov	r2, #21
 10121 0338 0A10A0E1 		mov	r1, r10
 10122 033c 003043E0 		sub	r3, r3, r0
 10123 0340 0400A0E1 		mov	r0, r4
 10124 0344 183084E5 		str	r3, [r4, #24]
 10125 0348 0020C3E5 		strb	r2, [r3]
 10126 034c FEFFFFEB 		bl	_ZN11flatbuffers17FlatBufferBuilder9EndVectorEj
 10127 0350 0010A0E1 		mov	r1, r0
 10128 0354 0400A0E1 		mov	r0, r4
 10129 0358 FEFFFFEB 		bl	_ZN6tflite12CreateBufferERN11flatbuffers17FlatBufferBuilderENS0_6OffsetINS0_6VectorIhEEEE
 10130 035c 68A027E5 		str	r10, [r7, #-104]!
 10131 0360 0710A0E1 		mov	r1, r7
 10132 0364 64008DE5 		str	r0, [sp, #100]
 10133 0368 0400A0E1 		mov	r0, r4
 10134 036c FEFFFFEB 		bl	_ZN11flatbuffers17FlatBufferBuilder12CreateVectorIlEENS_6OffsetINS_6VectorIT_EEEEPKS4_j.constpr
 10135 0370 001000E3 		movw	r1, #:lower16:.LC56
 10136 0374 00B0A0E1 		mov	fp, r0
 10137 0378 1320A0E3 		mov	r2, #19
 10138 037c 001040E3 		movt	r1, #:upper16:.LC56
 10139 0380 0400A0E1 		mov	r0, r4
 10140 0384 FEFFFFEB 		bl	_ZN11flatbuffers17FlatBufferBuilder12CreateStringEPKcj
 10141 0388 0B10A0E1 		mov	r1, fp
 10142 038c 0030A0E1 		mov	r3, r0
 10143 0390 0520A0E1 		mov	r2, r5
 10144 0394 0C508DE5 		str	r5, [sp, #12]
 10145 0398 08508DE5 		str	r5, [sp, #8]
 10146 039c 0400A0E1 		mov	r0, r4
 10147 03a0 04508DE5 		str	r5, [sp, #4]
 10148 03a4 00508DE5 		str	r5, [sp]
 10149 03a8 FEFFFFEB 		bl	_ZN6tflite12CreateTensorERN11flatbuffers17FlatBufferBuilderENS0_6OffsetINS0_6VectorIlEEEENS_10T
 10150 03ac 0710A0E1 		mov	r1, r7
 10151 03b0 68008DE5 		str	r0, [sp, #104]
 10152 03b4 0400A0E1 		mov	r0, r4
 10153 03b8 FEFFFFEB 		bl	_ZN11flatbuffers17FlatBufferBuilder12CreateVectorIlEENS_6OffsetINS_6VectorIT_EEEEPKS4_j.constpr
 10154 03bc 001000E3 		movw	r1, #:lower16:.LC57
 10155 03c0 00B0A0E1 		mov	fp, r0
 10156 03c4 1620A0E3 		mov	r2, #22
 10157 03c8 001040E3 		movt	r1, #:upper16:.LC57
 10158 03cc 0400A0E1 		mov	r0, r4
 10159 03d0 FEFFFFEB 		bl	_ZN11flatbuffers17FlatBufferBuilder12CreateStringEPKcj
 10160 03d4 0A20A0E1 		mov	r2, r10
 10161 03d8 0030A0E1 		mov	r3, r0
 10162 03dc 0B10A0E1 		mov	r1, fp
 10163 03e0 04A08DE5 		str	r10, [sp, #4]
 10164 03e4 0C508DE5 		str	r5, [sp, #12]
 10165 03e8 0400A0E1 		mov	r0, r4
 10166 03ec 08508DE5 		str	r5, [sp, #8]
 10167 03f0 00508DE5 		str	r5, [sp]
 10168 03f4 FEFFFFEB 		bl	_ZN6tflite12CreateTensorERN11flatbuffers17FlatBufferBuilderENS0_6OffsetINS0_6VectorIlEEEENS_10T
 10169 03f8 0710A0E1 		mov	r1, r7
 10170 03fc 6C008DE5 		str	r0, [sp, #108]
 10171 0400 0400A0E1 		mov	r0, r4
 10172 0404 FEFFFFEB 		bl	_ZN11flatbuffers17FlatBufferBuilder12CreateVectorIlEENS_6OffsetINS_6VectorIT_EEEEPKS4_j.constpr
 10173 0408 001000E3 		movw	r1, #:lower16:.LC58
 10174 040c 00B0A0E1 		mov	fp, r0
 10175 0410 1420A0E3 		mov	r2, #20
 10176 0414 001040E3 		movt	r1, #:upper16:.LC58
 10177 0418 0400A0E1 		mov	r0, r4
 10178 041c FEFFFFEB 		bl	_ZN11flatbuffers17FlatBufferBuilder12CreateStringEPKcj
 10179 0420 0230A0E3 		mov	r3, #2
 10180 0424 0920A0E1 		mov	r2, r9
 10181 0428 0B10A0E1 		mov	r1, fp
 10182 042c 00008DE5 		str	r0, [sp]
 10183 0430 10508DE5 		str	r5, [sp, #16]
 10184 0434 0400A0E1 		mov	r0, r4
 10185 0438 0C508DE5 		str	r5, [sp, #12]
 10186 043c 08508DE5 		str	r5, [sp, #8]
 10187 0440 04508DE5 		str	r5, [sp, #4]
 10188 0444 FEFFFFEB 		bl	_ZN6tflite12CreateTensorERN11flatbuffers17FlatBufferBuilderENS0_6OffsetINS0_6VectorIlEEEENS_10T
 10189 0448 0710A0E1 		mov	r1, r7
 10190 044c 70008DE5 		str	r0, [sp, #112]
 10191 0450 0400A0E1 		mov	r0, r4
 10192 0454 FEFFFFEB 		bl	_ZN11flatbuffers17FlatBufferBuilder12CreateVectorIlEENS_6OffsetINS_6VectorIT_EEEEPKS4_j.constpr
 10193 0458 001000E3 		movw	r1, #:lower16:.LC59
 10194 045c 00B0A0E1 		mov	fp, r0
 10195 0460 1420A0E3 		mov	r2, #20
 10196 0464 001040E3 		movt	r1, #:upper16:.LC59
 10197 0468 0400A0E1 		mov	r0, r4
 10198 046c FEFFFFEB 		bl	_ZN11flatbuffers17FlatBufferBuilder12CreateStringEPKcj
 10199 0470 0B10A0E1 		mov	r1, fp
 10200 0474 0030A0E1 		mov	r3, r0
 10201 0478 0520A0E1 		mov	r2, r5
 10202 047c 0C508DE5 		str	r5, [sp, #12]
 10203 0480 08508DE5 		str	r5, [sp, #8]
 10204 0484 0400A0E1 		mov	r0, r4
 10205 0488 04508DE5 		str	r5, [sp, #4]
 10206 048c 00508DE5 		str	r5, [sp]
 10207 0490 FEFFFFEB 		bl	_ZN6tflite12CreateTensorERN11flatbuffers17FlatBufferBuilderENS0_6OffsetINS0_6VectorIlEEEENS_10T
 10208 0494 0710A0E1 		mov	r1, r7
 10209 0498 74008DE5 		str	r0, [sp, #116]
 10210 049c 0400A0E1 		mov	r0, r4
 10211 04a0 FEFFFFEB 		bl	_ZN11flatbuffers17FlatBufferBuilder12CreateVectorIlEENS_6OffsetINS_6VectorIT_EEEEPKS4_j.constpr
 10212 04a4 001000E3 		movw	r1, #:lower16:.LC60
 10213 04a8 00B0A0E1 		mov	fp, r0
 10214 04ac 1620A0E3 		mov	r2, #22
 10215 04b0 001040E3 		movt	r1, #:upper16:.LC60
 10216 04b4 0400A0E1 		mov	r0, r4
 10217 04b8 FEFFFFEB 		bl	_ZN11flatbuffers17FlatBufferBuilder12CreateStringEPKcj
 10218 04bc 0A20A0E1 		mov	r2, r10
 10219 04c0 0030A0E1 		mov	r3, r0
 10220 04c4 0B10A0E1 		mov	r1, fp
 10221 04c8 04A08DE5 		str	r10, [sp, #4]
 10222 04cc 0C508DE5 		str	r5, [sp, #12]
 10223 04d0 0400A0E1 		mov	r0, r4
 10224 04d4 08508DE5 		str	r5, [sp, #8]
 10225 04d8 00508DE5 		str	r5, [sp]
 10226 04dc FEFFFFEB 		bl	_ZN6tflite12CreateTensorERN11flatbuffers17FlatBufferBuilderENS0_6OffsetINS0_6VectorIlEEEENS_10T
 10227 04e0 0710A0E1 		mov	r1, r7
 10228 04e4 78008DE5 		str	r0, [sp, #120]
 10229 04e8 0400A0E1 		mov	r0, r4
 10230 04ec FEFFFFEB 		bl	_ZN11flatbuffers17FlatBufferBuilder12CreateVectorIlEENS_6OffsetINS_6VectorIT_EEEEPKS4_j.constpr
 10231 04f0 001000E3 		movw	r1, #:lower16:.LC61
 10232 04f4 00B0A0E1 		mov	fp, r0
 10233 04f8 1420A0E3 		mov	r2, #20
 10234 04fc 001040E3 		movt	r1, #:upper16:.LC61
 10235 0500 0400A0E1 		mov	r0, r4
 10236 0504 FEFFFFEB 		bl	_ZN11flatbuffers17FlatBufferBuilder12CreateStringEPKcj
 10237 0508 0230A0E3 		mov	r3, #2
 10238 050c 0920A0E1 		mov	r2, r9
 10239 0510 0B10A0E1 		mov	r1, fp
 10240 0514 00008DE5 		str	r0, [sp]
 10241 0518 10508DE5 		str	r5, [sp, #16]
 10242 051c 0400A0E1 		mov	r0, r4
 10243 0520 0C508DE5 		str	r5, [sp, #12]
 10244 0524 08508DE5 		str	r5, [sp, #8]
 10245 0528 04508DE5 		str	r5, [sp, #4]
 10246 052c FEFFFFEB 		bl	_ZN6tflite12CreateTensorERN11flatbuffers17FlatBufferBuilderENS0_6OffsetINS0_6VectorIlEEEENS_10T
 10247 0530 0710A0E1 		mov	r1, r7
 10248 0534 7C008DE5 		str	r0, [sp, #124]
 10249 0538 0400A0E1 		mov	r0, r4
 10250 053c FEFFFFEB 		bl	_ZN11flatbuffers17FlatBufferBuilder12CreateVectorIlEENS_6OffsetINS_6VectorIT_EEEEPKS4_j.constpr
 10251 0540 001000E3 		movw	r1, #:lower16:.LC62
 10252 0544 00B0A0E1 		mov	fp, r0
 10253 0548 1420A0E3 		mov	r2, #20
 10254 054c 001040E3 		movt	r1, #:upper16:.LC62
 10255 0550 0400A0E1 		mov	r0, r4
 10256 0554 FEFFFFEB 		bl	_ZN11flatbuffers17FlatBufferBuilder12CreateStringEPKcj
 10257 0558 0B10A0E1 		mov	r1, fp
 10258 055c 0030A0E1 		mov	r3, r0
 10259 0560 0520A0E1 		mov	r2, r5
 10260 0564 0C508DE5 		str	r5, [sp, #12]
 10261 0568 08508DE5 		str	r5, [sp, #8]
 10262 056c 0400A0E1 		mov	r0, r4
 10263 0570 04508DE5 		str	r5, [sp, #4]
 10264 0574 00508DE5 		str	r5, [sp]
 10265 0578 FEFFFFEB 		bl	_ZN6tflite12CreateTensorERN11flatbuffers17FlatBufferBuilderENS0_6OffsetINS0_6VectorIlEEEENS_10T
 10266 057c 0710A0E1 		mov	r1, r7
 10267 0580 80008DE5 		str	r0, [sp, #128]
 10268 0584 0400A0E1 		mov	r0, r4
 10269 0588 FEFFFFEB 		bl	_ZN11flatbuffers17FlatBufferBuilder12CreateVectorIlEENS_6OffsetINS_6VectorIT_EEEEPKS4_j.constpr
 10270 058c 001000E3 		movw	r1, #:lower16:.LC63
 10271 0590 00B0A0E1 		mov	fp, r0
 10272 0594 1620A0E3 		mov	r2, #22
 10273 0598 001040E3 		movt	r1, #:upper16:.LC63
 10274 059c 0400A0E1 		mov	r0, r4
 10275 05a0 FEFFFFEB 		bl	_ZN11flatbuffers17FlatBufferBuilder12CreateStringEPKcj
 10276 05a4 0A20A0E1 		mov	r2, r10
 10277 05a8 0030A0E1 		mov	r3, r0
 10278 05ac 0B10A0E1 		mov	r1, fp
 10279 05b0 04A08DE5 		str	r10, [sp, #4]
 10280 05b4 0C508DE5 		str	r5, [sp, #12]
 10281 05b8 0400A0E1 		mov	r0, r4
 10282 05bc 08508DE5 		str	r5, [sp, #8]
 10283 05c0 90A08DE2 		add	r10, sp, #144
 10284 05c4 00508DE5 		str	r5, [sp]
 10285 05c8 FEFFFFEB 		bl	_ZN6tflite12CreateTensorERN11flatbuffers17FlatBufferBuilderENS0_6OffsetINS0_6VectorIlEEEENS_10T
 10286 05cc 0710A0E1 		mov	r1, r7
 10287 05d0 84008DE5 		str	r0, [sp, #132]
 10288 05d4 0400A0E1 		mov	r0, r4
 10289 05d8 FEFFFFEB 		bl	_ZN11flatbuffers17FlatBufferBuilder12CreateVectorIlEENS_6OffsetINS_6VectorIT_EEEEPKS4_j.constpr
 10290 05dc 001000E3 		movw	r1, #:lower16:.LC64
 10291 05e0 00B0A0E1 		mov	fp, r0
 10292 05e4 1420A0E3 		mov	r2, #20
 10293 05e8 001040E3 		movt	r1, #:upper16:.LC64
 10294 05ec 0400A0E1 		mov	r0, r4
 10295 05f0 FEFFFFEB 		bl	_ZN11flatbuffers17FlatBufferBuilder12CreateStringEPKcj
 10296 05f4 0230A0E3 		mov	r3, #2
 10297 05f8 0920A0E1 		mov	r2, r9
 10298 05fc 0B10A0E1 		mov	r1, fp
 10299 0600 00008DE5 		str	r0, [sp]
 10300 0604 10508DE5 		str	r5, [sp, #16]
 10301 0608 0400A0E1 		mov	r0, r4
 10302 060c 0C508DE5 		str	r5, [sp, #12]
 10303 0610 09B0A0E3 		mov	fp, #9
 10304 0614 08508DE5 		str	r5, [sp, #8]
 10305 0618 04508DE5 		str	r5, [sp, #4]
 10306 061c FEFFFFEB 		bl	_ZN6tflite12CreateTensorERN11flatbuffers17FlatBufferBuilderENS0_6OffsetINS0_6VectorIlEEEENS_10T
 10307 0620 0710A0E1 		mov	r1, r7
 10308 0624 88008DE5 		str	r0, [sp, #136]
 10309 0628 0400A0E1 		mov	r0, r4
 10310 062c FEFFFFEB 		bl	_ZN11flatbuffers17FlatBufferBuilder12CreateVectorIlEENS_6OffsetINS_6VectorIT_EEEEPKS4_j.constpr
 10311 0630 001000E3 		movw	r1, #:lower16:.LC65
 10312 0634 0070A0E1 		mov	r7, r0
 10313 0638 1420A0E3 		mov	r2, #20
 10314 063c 001040E3 		movt	r1, #:upper16:.LC65
 10315 0640 0400A0E1 		mov	r0, r4
 10316 0644 FEFFFFEB 		bl	_ZN11flatbuffers17FlatBufferBuilder12CreateStringEPKcj
 10317 0648 0710A0E1 		mov	r1, r7
 10318 064c 0030A0E1 		mov	r3, r0
 10319 0650 0520A0E1 		mov	r2, r5
 10320 0654 0C508DE5 		str	r5, [sp, #12]
 10321 0658 08508DE5 		str	r5, [sp, #8]
 10322 065c 0400A0E1 		mov	r0, r4
 10323 0660 04508DE5 		str	r5, [sp, #4]
 10324 0664 00508DE5 		str	r5, [sp]
 10325 0668 FEFFFFEB 		bl	_ZN6tflite12CreateTensorERN11flatbuffers17FlatBufferBuilderENS0_6OffsetINS0_6VectorIlEEEENS_10T
 10326 066c 8C008DE5 		str	r0, [sp, #140]
 10327 0670 40308DE2 		add	r3, sp, #64
 10328 0674 070096E8 		ldm	r6, {r0, r1, r2}
 10329 0678 60902AE5 		str	r9, [r10, #-96]!
 10330 067c 070083E8 		stm	r3, {r0, r1, r2}
 10331 0680 0910A0E1 		mov	r1, r9
 10332 0684 0400A0E1 		mov	r0, r4
 10333 0688 FEFFFFEB 		bl	_ZN11flatbuffers17FlatBufferBuilder11StartVectorEjj.constprop.148
 10334 068c 0C10A0E3 		mov	r1, #12
 10335 0690 0400A0E1 		mov	r0, r4
 10336 0694 FEFFFFEB 		bl	_ZN11flatbuffers15vector_downward12ensure_spaceEj
 10337 0698 183094E5 		ldr	r3, [r4, #24]
 10338 069c 0C20A0E3 		mov	r2, #12
 10339 06a0 40108DE2 		add	r1, sp, #64
 10340 06a4 000043E0 		sub	r0, r3, r0
 10341 06a8 180084E5 		str	r0, [r4, #24]
 10342 06ac FEFFFFEB 		bl	memcpy
 10343 06b0 0910A0E1 		mov	r1, r9
 10344 06b4 0400A0E1 		mov	r0, r4
 10345 06b8 FEFFFFEB 		bl	_ZN11flatbuffers17FlatBufferBuilder9EndVectorEj
 10346 06bc 0A10A0E1 		mov	r1, r10
 10347 06c0 0070A0E1 		mov	r7, r0
 10348 06c4 0400A0E1 		mov	r0, r4
 10349 06c8 FEFFFFEB 		bl	_ZN11flatbuffers17FlatBufferBuilder12CreateVectorIlEENS_6OffsetINS_6VectorIT_EEEEPKS4_j.constpr
 10350 06cc 0720A0E1 		mov	r2, r7
 10351 06d0 0030A0E1 		mov	r3, r0
 10352 06d4 0510A0E1 		mov	r1, r5
 10353 06d8 14508DE5 		str	r5, [sp, #20]
 10354 06dc 10508DE5 		str	r5, [sp, #16]
 10355 06e0 0400A0E1 		mov	r0, r4
 10356 06e4 0C508DE5 		str	r5, [sp, #12]
 10357 06e8 0570A0E1 		mov	r7, r5
 10358 06ec 08508DE5 		str	r5, [sp, #8]
 10359 06f0 04508DE5 		str	r5, [sp, #4]
 10360 06f4 00508DE5 		str	r5, [sp]
 10361 06f8 FEFFFFEB 		bl	_ZN6tflite14CreateOperatorERN11flatbuffers17FlatBufferBuilderEmNS0_6OffsetINS0_6VectorIlEEEES6_
 10362 06fc 0C3086E2 		add	r3, r6, #12
 10363 0700 34008DE5 		str	r0, [sp, #52]
 10364 0704 070093E8 		ldm	r3, {r0, r1, r2}
 10365 0708 0630A0E3 		mov	r3, #6
 10366 070c 186086E2 		add	r6, r6, #24
 10367 0710 30308DE5 		str	r3, [sp, #48]
 10368 0714 40308DE2 		add	r3, sp, #64
 10369 0718 070083E8 		stm	r3, {r0, r1, r2}
 10370 071c 0910A0E1 		mov	r1, r9
 10371 0720 0400A0E1 		mov	r0, r4
 10372 0724 FEFFFFEB 		bl	_ZN11flatbuffers17FlatBufferBuilder11StartVectorEjj.constprop.148
 10373 0728 0C10A0E3 		mov	r1, #12
 10374 072c 0400A0E1 		mov	r0, r4
 10375 0730 FEFFFFEB 		bl	_ZN11flatbuffers15vector_downward12ensure_spaceEj
 10376 0734 183094E5 		ldr	r3, [r4, #24]
 10377 0738 0C20A0E3 		mov	r2, #12
 10378 073c 40108DE2 		add	r1, sp, #64
 10379 0740 000043E0 		sub	r0, r3, r0
 10380 0744 180084E5 		str	r0, [r4, #24]
 10381 0748 FEFFFFEB 		bl	memcpy
 10382 074c 0910A0E1 		mov	r1, r9
 10383 0750 0400A0E1 		mov	r0, r4
 10384 0754 FEFFFFEB 		bl	_ZN11flatbuffers17FlatBufferBuilder9EndVectorEj
 10385 0758 0A10A0E1 		mov	r1, r10
 10386 075c 1C008DE5 		str	r0, [sp, #28]
 10387 0760 0400A0E1 		mov	r0, r4
 10388 0764 FEFFFFEB 		bl	_ZN11flatbuffers17FlatBufferBuilder12CreateVectorIlEENS_6OffsetINS_6VectorIT_EEEEPKS4_j.constpr
 10389 0768 1C209DE5 		ldr	r2, [sp, #28]
 10390 076c 0030A0E1 		mov	r3, r0
 10391 0770 0510A0E1 		mov	r1, r5
 10392 0774 14508DE5 		str	r5, [sp, #20]
 10393 0778 10508DE5 		str	r5, [sp, #16]
 10394 077c 0400A0E1 		mov	r0, r4
 10395 0780 0C508DE5 		str	r5, [sp, #12]
 10396 0784 08508DE5 		str	r5, [sp, #8]
 10397 0788 04508DE5 		str	r5, [sp, #4]
 10398 078c 00508DE5 		str	r5, [sp]
 10399 0790 FEFFFFEB 		bl	_ZN6tflite14CreateOperatorERN11flatbuffers17FlatBufferBuilderEmNS0_6OffsetINS0_6VectorIlEEEES6_
 10400 0794 38008DE5 		str	r0, [sp, #56]
 10401 0798 40308DE2 		add	r3, sp, #64
 10402 079c 070096E8 		ldm	r6, {r0, r1, r2}
 10403 07a0 90608DE2 		add	r6, sp, #144
 10404 07a4 30B08DE5 		str	fp, [sp, #48]
 10405 07a8 070083E8 		stm	r3, {r0, r1, r2}
 10406 07ac 0910A0E1 		mov	r1, r9
 10407 07b0 0400A0E1 		mov	r0, r4
 10408 07b4 FEFFFFEB 		bl	_ZN11flatbuffers17FlatBufferBuilder11StartVectorEjj.constprop.148
 10409 07b8 0C10A0E3 		mov	r1, #12
 10410 07bc 0400A0E1 		mov	r0, r4
 10411 07c0 FEFFFFEB 		bl	_ZN11flatbuffers15vector_downward12ensure_spaceEj
 10412 07c4 183094E5 		ldr	r3, [r4, #24]
 10413 07c8 0C20A0E3 		mov	r2, #12
 10414 07cc 40108DE2 		add	r1, sp, #64
 10415 07d0 000043E0 		sub	r0, r3, r0
 10416 07d4 180084E5 		str	r0, [r4, #24]
 10417 07d8 FEFFFFEB 		bl	memcpy
 10418 07dc 0910A0E1 		mov	r1, r9
 10419 07e0 0400A0E1 		mov	r0, r4
 10420 07e4 FEFFFFEB 		bl	_ZN11flatbuffers17FlatBufferBuilder9EndVectorEj
 10421 07e8 0A10A0E1 		mov	r1, r10
 10422 07ec 0090A0E1 		mov	r9, r0
 10423 07f0 0400A0E1 		mov	r0, r4
 10424 07f4 FEFFFFEB 		bl	_ZN11flatbuffers17FlatBufferBuilder12CreateVectorIlEENS_6OffsetINS_6VectorIT_EEEEPKS4_j.constpr
 10425 07f8 0920A0E1 		mov	r2, r9
 10426 07fc 0030A0E1 		mov	r3, r0
 10427 0800 0510A0E1 		mov	r1, r5
 10428 0804 14508DE5 		str	r5, [sp, #20]
 10429 0808 10508DE5 		str	r5, [sp, #16]
 10430 080c 0400A0E1 		mov	r0, r4
 10431 0810 0C508DE5 		str	r5, [sp, #12]
 10432 0814 0490A0E3 		mov	r9, #4
 10433 0818 08508DE5 		str	r5, [sp, #8]
 10434 081c 04508DE5 		str	r5, [sp, #4]
 10435 0820 00508DE5 		str	r5, [sp]
 10436 0824 FEFFFFEB 		bl	_ZN6tflite14CreateOperatorERN11flatbuffers17FlatBufferBuilderEmNS0_6OffsetINS0_6VectorIlEEEES6_
 10437 0828 0A10A0E3 		mov	r1, #10
 10438 082c 3C008DE5 		str	r0, [sp, #60]
 10439 0830 0400A0E1 		mov	r0, r4
 10440 0834 30B08DE5 		str	fp, [sp, #48]
 10441 0838 2C508DE5 		str	r5, [sp, #44]
 10442 083c FEFFFFEB 		bl	_ZN11flatbuffers17FlatBufferBuilder11StartVectorEjj.constprop.148
 10443              	.L1878:
 10444 0840 041036E5 		ldr	r1, [r6, #-4]!
 10445 0844 0400A0E1 		mov	r0, r4
 10446 0848 FEFFFFEB 		bl	_ZN11flatbuffers17FlatBufferBuilder7ReferToEm
 10447 084c 283094E5 		ldr	r3, [r4, #40]
 10448 0850 00B0A0E1 		mov	fp, r0
 10449 0854 185094E5 		ldr	r5, [r4, #24]
 10450 0858 0400A0E1 		mov	r0, r4
 10451 085c 142094E5 		ldr	r2, [r4, #20]
 10452 0860 030053E3 		cmp	r3, #3
 10453 0864 103094E5 		ldr	r3, [r4, #16]
 10454 0868 28908495 		strls	r9, [r4, #40]
 10455 086c 025045E0 		sub	r5, r5, r2
 10456 0870 035045E0 		sub	r5, r5, r3
 10457 0874 035005E2 		and	r5, r5, #3
 10458 0878 0510A0E1 		mov	r1, r5
 10459 087c FEFFFFEB 		bl	_ZN11flatbuffers15vector_downward12ensure_spaceEj
 10460 0880 183094E5 		ldr	r3, [r4, #24]
 10461 0884 000055E3 		cmp	r5, #0
 10462 0888 000043E0 		sub	r0, r3, r0
 10463 088c 180084E5 		str	r0, [r4, #24]
 10464 0890 0700000A 		beq	.L1877
 10465 0894 010055E3 		cmp	r5, #1
 10466 0898 0070C0E5 		strb	r7, [r0]
 10467 089c 0400000A 		beq	.L1877
 10468 08a0 183094E5 		ldr	r3, [r4, #24]
 10469 08a4 020055E3 		cmp	r5, #2
 10470 08a8 0170C3E5 		strb	r7, [r3, #1]
 10471 08ac 18309415 		ldrne	r3, [r4, #24]
 10472 08b0 0270C315 		strbne	r7, [r3, #2]
 10473              	.L1877:
 10474 08b4 0410A0E3 		mov	r1, #4
 10475 08b8 0400A0E1 		mov	r0, r4
 10476 08bc FEFFFFEB 		bl	_ZN11flatbuffers15vector_downward12ensure_spaceEj
 10477 08c0 183094E5 		ldr	r3, [r4, #24]
 10478 08c4 68208DE2 		add	r2, sp, #104
 10479 08c8 020056E1 		cmp	r6, r2
 10480 08cc 000043E0 		sub	r0, r3, r0
 10481 08d0 180084E5 		str	r0, [r4, #24]
 10482 08d4 00B080E5 		str	fp, [r0]
 10483 08d8 D8FFFF1A 		bne	.L1878
 10484 08dc 0A10A0E3 		mov	r1, #10
 10485 08e0 0400A0E1 		mov	r0, r4
 10486 08e4 FEFFFFEB 		bl	_ZN11flatbuffers17FlatBufferBuilder9EndVectorEj
 10487 08e8 2C108DE2 		add	r1, sp, #44
 10488 08ec 1C008DE5 		str	r0, [sp, #28]
 10489 08f0 0400A0E1 		mov	r0, r4
 10490 08f4 34908DE2 		add	r9, sp, #52
 10491 08f8 FEFFFFEB 		bl	_ZN11flatbuffers17FlatBufferBuilder12CreateVectorIlEENS_6OffsetINS_6VectorIT_EEEEPKS4_j.constpr
 10492 08fc 0A10A0E1 		mov	r1, r10
 10493 0900 20008DE5 		str	r0, [sp, #32]
 10494 0904 0400A0E1 		mov	r0, r4
 10495 0908 40708DE2 		add	r7, sp, #64
 10496 090c FEFFFFEB 		bl	_ZN11flatbuffers17FlatBufferBuilder12CreateVectorIlEENS_6OffsetINS_6VectorIT_EEEEPKS4_j.constpr
 10497 0910 0310A0E3 		mov	r1, #3
 10498 0914 24008DE5 		str	r0, [sp, #36]
 10499 0918 0400A0E1 		mov	r0, r4
 10500 091c 04A0A0E3 		mov	r10, #4
 10501 0920 FEFFFFEB 		bl	_ZN11flatbuffers17FlatBufferBuilder11StartVectorEjj.constprop.148
 10502 0924 182094E5 		ldr	r2, [r4, #24]
 10503 0928 0060A0E3 		mov	r6, #0
 10504              	.L1885:
 10505 092c 283094E5 		ldr	r3, [r4, #40]
 10506 0930 0400A0E1 		mov	r0, r4
 10507 0934 145094E5 		ldr	r5, [r4, #20]
 10508 0938 04B037E5 		ldr	fp, [r7, #-4]!
 10509 093c 030053E3 		cmp	r3, #3
 10510 0940 103094E5 		ldr	r3, [r4, #16]
 10511 0944 055042E0 		sub	r5, r2, r5
 10512 0948 28A08495 		strls	r10, [r4, #40]
 10513 094c 035045E0 		sub	r5, r5, r3
 10514 0950 035005E2 		and	r5, r5, #3
 10515 0954 0510A0E1 		mov	r1, r5
 10516 0958 FEFFFFEB 		bl	_ZN11flatbuffers15vector_downward12ensure_spaceEj
 10517 095c 183094E5 		ldr	r3, [r4, #24]
 10518 0960 000055E3 		cmp	r5, #0
 10519 0964 000043E0 		sub	r0, r3, r0
 10520 0968 180084E5 		str	r0, [r4, #24]
 10521 096c 0700000A 		beq	.L1880
 10522 0970 010055E3 		cmp	r5, #1
 10523 0974 0060C0E5 		strb	r6, [r0]
 10524 0978 0400000A 		beq	.L1880
 10525 097c 183094E5 		ldr	r3, [r4, #24]
 10526 0980 020055E3 		cmp	r5, #2
 10527 0984 0160C3E5 		strb	r6, [r3, #1]
 10528 0988 18309415 		ldrne	r3, [r4, #24]
 10529 098c 0260C315 		strbne	r6, [r3, #2]
 10530              	.L1880:
 10531 0990 00005BE3 		cmp	fp, #0
 10532 0994 2101000A 		beq	.L1882
 10533 0998 183094E5 		ldr	r3, [r4, #24]
 10534 099c 142094E5 		ldr	r2, [r4, #20]
 10535 09a0 105094E5 		ldr	r5, [r4, #16]
 10536 09a4 023043E0 		sub	r3, r3, r2
 10537 09a8 035045E0 		sub	r5, r5, r3
 10538 09ac 05005BE1 		cmp	fp, r5
 10539 09b0 1A01008A 		bhi	.L1882
 10540 09b4 283094E5 		ldr	r3, [r4, #40]
 10541 09b8 04B06BE2 		rsb	fp, fp, #4
 10542 09bc 05B08BE0 		add	fp, fp, r5
 10543 09c0 005065E2 		rsb	r5, r5, #0
 10544 09c4 035005E2 		and	r5, r5, #3
 10545 09c8 0400A0E1 		mov	r0, r4
 10546 09cc 030053E3 		cmp	r3, #3
 10547 09d0 0510A0E1 		mov	r1, r5
 10548 09d4 28A08495 		strls	r10, [r4, #40]
 10549 09d8 FEFFFFEB 		bl	_ZN11flatbuffers15vector_downward12ensure_spaceEj
 10550 09dc 183094E5 		ldr	r3, [r4, #24]
 10551 09e0 000055E3 		cmp	r5, #0
 10552 09e4 000043E0 		sub	r0, r3, r0
 10553 09e8 180084E5 		str	r0, [r4, #24]
 10554 09ec 0700000A 		beq	.L1884
 10555 09f0 010055E3 		cmp	r5, #1
 10556 09f4 0060C0E5 		strb	r6, [r0]
 10557 09f8 0400000A 		beq	.L1884
 10558 09fc 183094E5 		ldr	r3, [r4, #24]
 10559 0a00 020055E3 		cmp	r5, #2
 10560 0a04 0160C3E5 		strb	r6, [r3, #1]
 10561 0a08 18309415 		ldrne	r3, [r4, #24]
 10562 0a0c 0260C315 		strbne	r6, [r3, #2]
 10563              	.L1884:
 10564 0a10 0410A0E3 		mov	r1, #4
 10565 0a14 0400A0E1 		mov	r0, r4
 10566 0a18 FEFFFFEB 		bl	_ZN11flatbuffers15vector_downward12ensure_spaceEj
 10567 0a1c 182094E5 		ldr	r2, [r4, #24]
 10568 0a20 090057E1 		cmp	r7, r9
 10569 0a24 002042E0 		sub	r2, r2, r0
 10570 0a28 182084E5 		str	r2, [r4, #24]
 10571 0a2c 00B082E5 		str	fp, [r2]
 10572 0a30 BDFFFF1A 		bne	.L1885
 10573 0a34 0310A0E3 		mov	r1, #3
 10574 0a38 0400A0E1 		mov	r0, r4
 10575 0a3c FEFFFFEB 		bl	_ZN11flatbuffers17FlatBufferBuilder9EndVectorEj
 10576 0a40 001000E3 		movw	r1, #:lower16:.LC32
 10577 0a44 0050A0E1 		mov	r5, r0
 10578 0a48 0D20A0E3 		mov	r2, #13
 10579 0a4c 001040E3 		movt	r1, #:upper16:.LC32
 10580 0a50 0400A0E1 		mov	r0, r4
 10581 0a54 FEFFFFEB 		bl	_ZN11flatbuffers17FlatBufferBuilder12CreateStringEPKcj
 10582 0a58 24309DE5 		ldr	r3, [sp, #36]
 10583 0a5c 00508DE5 		str	r5, [sp]
 10584 0a60 04008DE5 		str	r0, [sp, #4]
 10585 0a64 0400A0E1 		mov	r0, r4
 10586 0a68 20209DE5 		ldr	r2, [sp, #32]
 10587 0a6c 1C109DE5 		ldr	r1, [sp, #28]
 10588 0a70 FEFFFFEB 		bl	_ZN6tflite14CreateSubGraphERN11flatbuffers17FlatBufferBuilderENS0_6OffsetINS0_6VectorINS3_INS_6
 10589 0a74 001000E3 		movw	r1, #:lower16:.LC35
 10590 0a78 2020A0E3 		mov	r2, #32
 10591 0a7c 40008DE5 		str	r0, [sp, #64]
 10592 0a80 001040E3 		movt	r1, #:upper16:.LC35
 10593 0a84 0400A0E1 		mov	r0, r4
 10594 0a88 FEFFFFEB 		bl	_ZN6tflite24CreateOperatorCodeDirectERN11flatbuffers17FlatBufferBuilderEaPKclNS_15BuiltinOperat
 10595 0a8c 0110A0E3 		mov	r1, #1
 10596 0a90 0060A0E1 		mov	r6, r0
 10597 0a94 0400A0E1 		mov	r0, r4
 10598 0a98 FEFFFFEB 		bl	_ZN11flatbuffers17FlatBufferBuilder11StartVectorEjj.constprop.148
 10599 0a9c 283094E5 		ldr	r3, [r4, #40]
 10600 0aa0 0400A0E1 		mov	r0, r4
 10601 0aa4 185094E5 		ldr	r5, [r4, #24]
 10602 0aa8 142094E5 		ldr	r2, [r4, #20]
 10603 0aac 030053E3 		cmp	r3, #3
 10604 0ab0 0430A093 		movls	r3, #4
 10605 0ab4 28308495 		strls	r3, [r4, #40]
 10606 0ab8 025045E0 		sub	r5, r5, r2
 10607 0abc 103094E5 		ldr	r3, [r4, #16]
 10608 0ac0 035045E0 		sub	r5, r5, r3
 10609 0ac4 035005E2 		and	r5, r5, #3
 10610 0ac8 0510A0E1 		mov	r1, r5
 10611 0acc FEFFFFEB 		bl	_ZN11flatbuffers15vector_downward12ensure_spaceEj
 10612 0ad0 183094E5 		ldr	r3, [r4, #24]
 10613 0ad4 000055E3 		cmp	r5, #0
 10614 0ad8 000043E0 		sub	r0, r3, r0
 10615 0adc 180084E5 		str	r0, [r4, #24]
 10616 0ae0 0800000A 		beq	.L1887
 10617 0ae4 010055E3 		cmp	r5, #1
 10618 0ae8 0030A0E3 		mov	r3, #0
 10619 0aec 0030C0E5 		strb	r3, [r0]
 10620 0af0 0400000A 		beq	.L1887
 10621 0af4 182094E5 		ldr	r2, [r4, #24]
 10622 0af8 020055E3 		cmp	r5, #2
 10623 0afc 0130C2E5 		strb	r3, [r2, #1]
 10624 0b00 18209415 		ldrne	r2, [r4, #24]
 10625 0b04 0230C215 		strbne	r3, [r2, #2]
 10626              	.L1887:
 10627 0b08 000056E3 		cmp	r6, #0
 10628 0b0c C300000A 		beq	.L1882
 10629 0b10 182094E5 		ldr	r2, [r4, #24]
 10630 0b14 141094E5 		ldr	r1, [r4, #20]
 10631 0b18 103094E5 		ldr	r3, [r4, #16]
 10632 0b1c 012042E0 		sub	r2, r2, r1
 10633 0b20 023043E0 		sub	r3, r3, r2
 10634 0b24 060053E1 		cmp	r3, r6
 10635 0b28 BC00003A 		bcc	.L1882
 10636 0b2c 282094E5 		ldr	r2, [r4, #40]
 10637 0b30 046066E2 		rsb	r6, r6, #4
 10638 0b34 036086E0 		add	r6, r6, r3
 10639 0b38 003063E2 		rsb	r3, r3, #0
 10640 0b3c 035003E2 		and	r5, r3, #3
 10641 0b40 0400A0E1 		mov	r0, r4
 10642 0b44 030052E3 		cmp	r2, #3
 10643 0b48 0510A0E1 		mov	r1, r5
 10644 0b4c 0420A093 		movls	r2, #4
 10645 0b50 28208495 		strls	r2, [r4, #40]
 10646 0b54 FEFFFFEB 		bl	_ZN11flatbuffers15vector_downward12ensure_spaceEj
 10647 0b58 183094E5 		ldr	r3, [r4, #24]
 10648 0b5c 000055E3 		cmp	r5, #0
 10649 0b60 000043E0 		sub	r0, r3, r0
 10650 0b64 180084E5 		str	r0, [r4, #24]
 10651 0b68 0800000A 		beq	.L1889
 10652 0b6c 010055E3 		cmp	r5, #1
 10653 0b70 0030A0E3 		mov	r3, #0
 10654 0b74 0030C0E5 		strb	r3, [r0]
 10655 0b78 0400000A 		beq	.L1889
 10656 0b7c 182094E5 		ldr	r2, [r4, #24]
 10657 0b80 020055E3 		cmp	r5, #2
 10658 0b84 0130C2E5 		strb	r3, [r2, #1]
 10659 0b88 18209415 		ldrne	r2, [r4, #24]
 10660 0b8c 0230C215 		strbne	r3, [r2, #2]
 10661              	.L1889:
 10662 0b90 0410A0E3 		mov	r1, #4
 10663 0b94 0400A0E1 		mov	r0, r4
 10664 0b98 FEFFFFEB 		bl	_ZN11flatbuffers15vector_downward12ensure_spaceEj
 10665 0b9c 183094E5 		ldr	r3, [r4, #24]
 10666 0ba0 2610D4E5 		ldrb	r1, [r4, #38]	@ zero_extendqisi2
 10667 0ba4 142094E5 		ldr	r2, [r4, #20]
 10668 0ba8 105094E5 		ldr	r5, [r4, #16]
 10669 0bac 000043E0 		sub	r0, r3, r0
 10670 0bb0 000051E3 		cmp	r1, #0
 10671 0bb4 180084E5 		str	r0, [r4, #24]
 10672 0bb8 022040E0 		sub	r2, r0, r2
 10673 0bbc 006080E5 		str	r6, [r0]
 10674 0bc0 025045E0 		sub	r5, r5, r2
 10675 0bc4 AF00000A 		beq	.L2010
 10676 0bc8 283094E5 		ldr	r3, [r4, #40]
 10677 0bcc 005065E2 		rsb	r5, r5, #0
 10678 0bd0 0020A0E3 		mov	r2, #0
 10679 0bd4 035005E2 		and	r5, r5, #3
 10680 0bd8 2620C4E5 		strb	r2, [r4, #38]
 10681 0bdc 0400A0E1 		mov	r0, r4
 10682 0be0 030053E3 		cmp	r3, #3
 10683 0be4 0510A0E1 		mov	r1, r5
 10684 0be8 0430A093 		movls	r3, #4
 10685 0bec 28308495 		strls	r3, [r4, #40]
 10686 0bf0 FEFFFFEB 		bl	_ZN11flatbuffers15vector_downward12ensure_spaceEj
 10687 0bf4 183094E5 		ldr	r3, [r4, #24]
 10688 0bf8 000055E3 		cmp	r5, #0
 10689 0bfc 000043E0 		sub	r0, r3, r0
 10690 0c00 180084E5 		str	r0, [r4, #24]
 10691 0c04 0800000A 		beq	.L1892
 10692 0c08 010055E3 		cmp	r5, #1
 10693 0c0c 0030A0E3 		mov	r3, #0
 10694 0c10 0030C0E5 		strb	r3, [r0]
 10695 0c14 0400000A 		beq	.L1892
 10696 0c18 182094E5 		ldr	r2, [r4, #24]
 10697 0c1c 020055E3 		cmp	r5, #2
 10698 0c20 0130C2E5 		strb	r3, [r2, #1]
 10699 0c24 18209415 		ldrne	r2, [r4, #24]
 10700 0c28 0230C215 		strbne	r3, [r2, #2]
 10701              	.L1892:
 10702 0c2c 0410A0E3 		mov	r1, #4
 10703 0c30 0400A0E1 		mov	r0, r4
 10704 0c34 FEFFFFEB 		bl	_ZN11flatbuffers15vector_downward12ensure_spaceEj
 10705 0c38 183094E5 		ldr	r3, [r4, #24]
 10706 0c3c 01E0A0E3 		mov	lr, #1
 10707 0c40 142094E5 		ldr	r2, [r4, #20]
 10708 0c44 40108DE2 		add	r1, sp, #64
 10709 0c48 10C094E5 		ldr	ip, [r4, #16]
 10710 0c4c 68708DE2 		add	r7, sp, #104
 10711 0c50 003043E0 		sub	r3, r3, r0
 10712 0c54 0400A0E1 		mov	r0, r4
 10713 0c58 022043E0 		sub	r2, r3, r2
 10714 0c5c 183084E5 		str	r3, [r4, #24]
 10715 0c60 00E083E5 		str	lr, [r3]
 10716 0c64 02304CE0 		sub	r3, ip, r2
 10717 0c68 1C308DE5 		str	r3, [sp, #28]
 10718 0c6c 4CA08DE2 		add	r10, sp, #76
 10719 0c70 FEFFFFEB 		bl	_ZN11flatbuffers17FlatBufferBuilder12CreateVectorIN6tflite8SubGraphEEENS_6OffsetINS_6VectorINS4
 10720 0c74 001000E3 		movw	r1, #:lower16:.LC43
 10721 0c78 0A20A0E3 		mov	r2, #10
 10722 0c7c 20008DE5 		str	r0, [sp, #32]
 10723 0c80 001040E3 		movt	r1, #:upper16:.LC43
 10724 0c84 0400A0E1 		mov	r0, r4
 10725 0c88 0490A0E3 		mov	r9, #4
 10726 0c8c FEFFFFEB 		bl	_ZN11flatbuffers17FlatBufferBuilder12CreateStringEPKcj
 10727 0c90 0710A0E3 		mov	r1, #7
 10728 0c94 24008DE5 		str	r0, [sp, #36]
 10729 0c98 0400A0E1 		mov	r0, r4
 10730 0c9c 0060A0E3 		mov	r6, #0
 10731 0ca0 FEFFFFEB 		bl	_ZN11flatbuffers17FlatBufferBuilder11StartVectorEjj.constprop.148
 10732 0ca4 182094E5 		ldr	r2, [r4, #24]
 10733              	.L1897:
 10734 0ca8 283094E5 		ldr	r3, [r4, #40]
 10735 0cac 0400A0E1 		mov	r0, r4
 10736 0cb0 145094E5 		ldr	r5, [r4, #20]
 10737 0cb4 04B037E5 		ldr	fp, [r7, #-4]!
 10738 0cb8 030053E3 		cmp	r3, #3
 10739 0cbc 103094E5 		ldr	r3, [r4, #16]
 10740 0cc0 055042E0 		sub	r5, r2, r5
 10741 0cc4 28908495 		strls	r9, [r4, #40]
 10742 0cc8 035045E0 		sub	r5, r5, r3
 10743 0ccc 035005E2 		and	r5, r5, #3
 10744 0cd0 0510A0E1 		mov	r1, r5
 10745 0cd4 FEFFFFEB 		bl	_ZN11flatbuffers15vector_downward12ensure_spaceEj
 10746 0cd8 183094E5 		ldr	r3, [r4, #24]
 10747 0cdc 000055E3 		cmp	r5, #0
 10748 0ce0 000043E0 		sub	r0, r3, r0
 10749 0ce4 180084E5 		str	r0, [r4, #24]
 10750 0ce8 0700000A 		beq	.L1894
 10751 0cec 010055E3 		cmp	r5, #1
 10752 0cf0 0060C0E5 		strb	r6, [r0]
 10753 0cf4 0400000A 		beq	.L1894
 10754 0cf8 183094E5 		ldr	r3, [r4, #24]
 10755 0cfc 020055E3 		cmp	r5, #2
 10756 0d00 0160C3E5 		strb	r6, [r3, #1]
 10757 0d04 18309415 		ldrne	r3, [r4, #24]
 10758 0d08 0260C315 		strbne	r6, [r3, #2]
 10759              	.L1894:
 10760 0d0c 00005BE3 		cmp	fp, #0
 10761 0d10 4200000A 		beq	.L1882
 10762 0d14 183094E5 		ldr	r3, [r4, #24]
 10763 0d18 142094E5 		ldr	r2, [r4, #20]
 10764 0d1c 105094E5 		ldr	r5, [r4, #16]
 10765 0d20 023043E0 		sub	r3, r3, r2
 10766 0d24 035045E0 		sub	r5, r5, r3
 10767 0d28 05005BE1 		cmp	fp, r5
 10768 0d2c 3B00008A 		bhi	.L1882
 10769 0d30 283094E5 		ldr	r3, [r4, #40]
 10770 0d34 04B06BE2 		rsb	fp, fp, #4
 10771 0d38 05B08BE0 		add	fp, fp, r5
 10772 0d3c 005065E2 		rsb	r5, r5, #0
 10773 0d40 035005E2 		and	r5, r5, #3
 10774 0d44 0400A0E1 		mov	r0, r4
 10775 0d48 030053E3 		cmp	r3, #3
 10776 0d4c 0510A0E1 		mov	r1, r5
 10777 0d50 28908495 		strls	r9, [r4, #40]
 10778 0d54 FEFFFFEB 		bl	_ZN11flatbuffers15vector_downward12ensure_spaceEj
 10779 0d58 183094E5 		ldr	r3, [r4, #24]
 10780 0d5c 000055E3 		cmp	r5, #0
 10781 0d60 000043E0 		sub	r0, r3, r0
 10782 0d64 180084E5 		str	r0, [r4, #24]
 10783 0d68 0700000A 		beq	.L1896
 10784 0d6c 010055E3 		cmp	r5, #1
 10785 0d70 0060C0E5 		strb	r6, [r0]
 10786 0d74 0400000A 		beq	.L1896
 10787 0d78 183094E5 		ldr	r3, [r4, #24]
 10788 0d7c 020055E3 		cmp	r5, #2
 10789 0d80 0160C3E5 		strb	r6, [r3, #1]
 10790 0d84 18309415 		ldrne	r3, [r4, #24]
 10791 0d88 0260C315 		strbne	r6, [r3, #2]
 10792              	.L1896:
 10793 0d8c 0410A0E3 		mov	r1, #4
 10794 0d90 0400A0E1 		mov	r0, r4
 10795 0d94 FEFFFFEB 		bl	_ZN11flatbuffers15vector_downward12ensure_spaceEj
 10796 0d98 182094E5 		ldr	r2, [r4, #24]
 10797 0d9c 0A0057E1 		cmp	r7, r10
 10798 0da0 002042E0 		sub	r2, r2, r0
 10799 0da4 182084E5 		str	r2, [r4, #24]
 10800 0da8 00B082E5 		str	fp, [r2]
 10801 0dac BDFFFF1A 		bne	.L1897
 10802 0db0 0710A0E3 		mov	r1, #7
 10803 0db4 0400A0E1 		mov	r0, r4
 10804 0db8 FEFFFFEB 		bl	_ZN11flatbuffers17FlatBufferBuilder9EndVectorEj
 10805 0dbc 24309DE5 		ldr	r3, [sp, #36]
 10806 0dc0 00C0A0E3 		mov	ip, #0
 10807 0dc4 0C10A0E1 		mov	r1, ip
 10808 0dc8 04008DE5 		str	r0, [sp, #4]
 10809 0dcc 1C209DE5 		ldr	r2, [sp, #28]
 10810 0dd0 0400A0E1 		mov	r0, r4
 10811 0dd4 00308DE5 		str	r3, [sp]
 10812 0dd8 10C08DE5 		str	ip, [sp, #16]
 10813 0ddc 20309DE5 		ldr	r3, [sp, #32]
 10814 0de0 0CC08DE5 		str	ip, [sp, #12]
 10815 0de4 08C08DE5 		str	ip, [sp, #8]
 10816 0de8 FEFFFFEB 		bl	_ZN6tflite11CreateModelERN11flatbuffers17FlatBufferBuilderEmNS0_6OffsetINS0_6VectorINS3_INS_12O
 10817 0dec 0010A0E1 		mov	r1, r0
 10818 0df0 0400A0E1 		mov	r0, r4
 10819 0df4 FEFFFFEB 		bl	_ZN11flatbuffers17FlatBufferBuilder6FinishEmPKcb.constprop.146
 10820 0df8 2730D4E5 		ldrb	r3, [r4, #39]	@ zero_extendqisi2
 10821 0dfc 000053E3 		cmp	r3, #0
 10822 0e00 1800000A 		beq	.L2011
 10823 0e04 185094E5 		ldr	r5, [r4, #24]
 10824 0e08 000055E3 		cmp	r5, #0
 10825 0e0c 1400000A 		beq	.L2012
 10826 0e10 003095E5 		ldr	r3, [r5]
 10827 0e14 035085E0 		add	r5, r5, r3
 10828 0e18 005088E5 		str	r5, [r8]
 10829 0e1c 7EFCFFEA 		b	.L1862
 10830              	.L1882:
 10831 0e20 003000E3 		movw	r3, #:lower16:.LC25
 10832 0e24 002000E3 		movw	r2, #:lower16:.LANCHOR13
 10833 0e28 000000E3 		movw	r0, #:lower16:.LC19
 10834 0e2c 003040E3 		movt	r3, #:upper16:.LC25
 10835 0e30 002040E3 		movt	r2, #:upper16:.LANCHOR13
 10836 0e34 000040E3 		movt	r0, #:upper16:.LC19
 10837 0e38 3B1500E3 		movw	r1, #1339
 10838 0e3c FEFFFFEB 		bl	__assert_func
 10839              	.L1869:
 10840 0e40 FEFFFFEB 		bl	_ZN11flatbuffers17FlatBufferBuilder9NotNestedEv.isra.19.part.20
 10841              	.L1868:
 10842 0e44 003000E3 		movw	r3, #:lower16:.LC24
 10843 0e48 002000E3 		movw	r2, #:lower16:.LANCHOR11
 10844 0e4c 000000E3 		movw	r0, #:lower16:.LC19
 10845 0e50 003040E3 		movt	r3, #:upper16:.LC24
 10846 0e54 002040E3 		movt	r2, #:upper16:.LANCHOR11
 10847 0e58 000040E3 		movt	r0, #:upper16:.LC19
 10848 0e5c 481500E3 		movw	r1, #1352
 10849 0e60 FEFFFFEB 		bl	__assert_func
 10850              	.L2012:
 10851 0e64 FEFFFFEB 		bl	_ZNK11flatbuffers15vector_downward4dataEv.isra.9.part.10
 10852              	.L2011:
 10853 0e68 003000E3 		movw	r3, #:lower16:.LC34
 10854 0e6c 002000E3 		movw	r2, #:lower16:.LANCHOR18
 10855 0e70 000000E3 		movw	r0, #:lower16:.LC19
 10856 0e74 003040E3 		movt	r3, #:upper16:.LC34
 10857 0e78 002040E3 		movt	r2, #:upper16:.LANCHOR18
 10858 0e7c 000040E3 		movt	r0, #:upper16:.LC19
 10859 0e80 D71400E3 		movw	r1, #1239
 10860 0e84 FEFFFFEB 		bl	__assert_func
 10861              	.L2010:
 10862 0e88 003000E3 		movw	r3, #:lower16:.LC26
 10863 0e8c 002000E3 		movw	r2, #:lower16:.LANCHOR14
 10864 0e90 000000E3 		movw	r0, #:lower16:.LC19
 10865 0e94 003040E3 		movt	r3, #:upper16:.LC26
 10866 0e98 002040E3 		movt	r2, #:upper16:.LANCHOR14
 10867 0e9c 000040E3 		movt	r0, #:upper16:.LC19
 10868 0ea0 2C1600E3 		movw	r1, #1580
 10869 0ea4 FEFFFFEB 		bl	__assert_func
 10870              		.fnend
 10872              		.section	.text._ZN6tflite7testing24GetSimpleModelWithBranchEv,"ax",%progbits
 10873              		.align	2
 10874              		.global	_ZN6tflite7testing24GetSimpleModelWithBranchEv
 10875              		.syntax unified
 10876              		.arm
 10877              		.fpu neon
 10879              	_ZN6tflite7testing24GetSimpleModelWithBranchEv:
 10880              		.fnstart
 10881              	.LFB7019:
 10882              		@ args = 0, pretend = 0, frame = 0
 10883              		@ frame_needed = 0, uses_anonymous_args = 0
 10884 0000 10402DE9 		push	{r4, lr}
 10885              		.save {r4, lr}
 10886 0004 004000E3 		movw	r4, #:lower16:.LANCHOR36
 10887 0008 004040E3 		movt	r4, #:upper16:.LANCHOR36
 10888 000c 000094E5 		ldr	r0, [r4]
 10889 0010 000050E3 		cmp	r0, #0
 10890 0014 1080BD18 		popne	{r4, pc}
 10891 0018 FEFFFFEB 		bl	_ZN6tflite7testing12_GLOBAL__N_126BuildSimpleModelWithBranchEv
 10892 001c 000084E5 		str	r0, [r4]
 10893 0020 1080BDE8 		pop	{r4, pc}
 10894              		.fnend
 10896              		.section	.text._ZN6tflite7testing27GetModelWithOfflinePlanningEiPKlPNS0_15NodeConnection_Eii,"ax",
 10897              		.align	2
 10898              		.global	_ZN6tflite7testing27GetModelWithOfflinePlanningEiPKlPNS0_15NodeConnection_Eii
 10899              		.syntax unified
 10900              		.arm
 10901              		.fpu neon
 10903              	_ZN6tflite7testing27GetModelWithOfflinePlanningEiPKlPNS0_15NodeConnection_Eii:
 10904              		.fnstart
 10905              	.LFB7020:
 10906              		@ args = 4, pretend = 0, frame = 0
 10907              		@ frame_needed = 0, uses_anonymous_args = 0
 10908              		@ link register save eliminated.
 10909 0000 FEFFFFEA 		b	_ZN6tflite7testing12_GLOBAL__N_129BuildModelWithOfflinePlanningEiPKlPNS0_15NodeConnection_Eii
 10910              		.cantunwind
 10911              		.fnend
 10913              		.section	.text._ZN6tflite7testing22GetSimpleStatefulModelEv,"ax",%progbits
 10914              		.align	2
 10915              		.global	_ZN6tflite7testing22GetSimpleStatefulModelEv
 10916              		.syntax unified
 10917              		.arm
 10918              		.fpu neon
 10920              	_ZN6tflite7testing22GetSimpleStatefulModelEv:
 10921              		.fnstart
 10922              	.LFB7021:
 10923              		@ args = 0, pretend = 0, frame = 0
 10924              		@ frame_needed = 0, uses_anonymous_args = 0
 10925 0000 10402DE9 		push	{r4, lr}
 10926              		.save {r4, lr}
 10927 0004 004000E3 		movw	r4, #:lower16:.LANCHOR37
 10928 0008 004040E3 		movt	r4, #:upper16:.LANCHOR37
 10929 000c 000094E5 		ldr	r0, [r4]
 10930 0010 000050E3 		cmp	r0, #0
 10931 0014 1080BD18 		popne	{r4, pc}
 10932 0018 FEFFFFEB 		bl	_ZN6tflite7testing12_GLOBAL__N_124BuildSimpleStatefulModelEv
 10933 001c 000084E5 		str	r0, [r4]
 10934 0020 1080BDE8 		pop	{r4, pc}
 10935              		.fnend
 10937              		.section	.text._ZN6tflite7testing24Create1dFlatbufferTensorEib,"ax",%progbits
 10938              		.align	2
 10939              		.global	_ZN6tflite7testing24Create1dFlatbufferTensorEib
 10940              		.syntax unified
 10941              		.arm
 10942              		.fpu neon
 10944              	_ZN6tflite7testing24Create1dFlatbufferTensorEib:
 10945              		.fnstart
 10946              	.LFB7022:
 10947              		@ args = 0, pretend = 0, frame = 8
 10948              		@ frame_needed = 0, uses_anonymous_args = 0
 10949 0000 F0402DE9 		push	{r4, r5, r6, r7, lr}
 10950              		.save {r4, r5, r6, r7, lr}
 10951              		.pad #28
 10952 0004 1CD04DE2 		sub	sp, sp, #28
 10953 0008 0160A0E1 		mov	r6, r1
 10954 000c 18408DE2 		add	r4, sp, #24
 10955 0010 0070A0E1 		mov	r7, r0
 10956 0014 FEFFFFEB 		bl	_ZN6tflite7testing12_GLOBAL__N_115BuilderInstanceEv
 10957 0018 0110A0E3 		mov	r1, #1
 10958 001c 0050A0E1 		mov	r5, r0
 10959 0020 047024E5 		str	r7, [r4, #-4]!
 10960 0024 FEFFFFEB 		bl	_ZN11flatbuffers17FlatBufferBuilder11StartVectorEjj.constprop.148
 10961 0028 0410A0E3 		mov	r1, #4
 10962 002c 0500A0E1 		mov	r0, r5
 10963 0030 FEFFFFEB 		bl	_ZN11flatbuffers15vector_downward12ensure_spaceEj
 10964 0034 183095E5 		ldr	r3, [r5, #24]
 10965 0038 0410A0E1 		mov	r1, r4
 10966 003c 0420A0E3 		mov	r2, #4
 10967 0040 000043E0 		sub	r0, r3, r0
 10968 0044 180085E5 		str	r0, [r5, #24]
 10969 0048 FEFFFFEB 		bl	memcpy
 10970 004c 0110A0E3 		mov	r1, #1
 10971 0050 0500A0E1 		mov	r0, r5
 10972 0054 FEFFFFEB 		bl	_ZN11flatbuffers17FlatBufferBuilder9EndVectorEj
 10973 0058 001000E3 		movw	r1, #:lower16:.LC66
 10974 005c 0040A0E1 		mov	r4, r0
 10975 0060 0B20A0E3 		mov	r2, #11
 10976 0064 001040E3 		movt	r1, #:upper16:.LC66
 10977 0068 0500A0E1 		mov	r0, r5
 10978 006c FEFFFFEB 		bl	_ZN11flatbuffers17FlatBufferBuilder12CreateStringEPKcj
 10979 0070 00C0A0E3 		mov	ip, #0
 10980 0074 0030A0E1 		mov	r3, r0
 10981 0078 0410A0E1 		mov	r1, r4
 10982 007c 04608DE5 		str	r6, [sp, #4]
 10983 0080 0500A0E1 		mov	r0, r5
 10984 0084 0CC08DE5 		str	ip, [sp, #12]
 10985 0088 08C08DE5 		str	ip, [sp, #8]
 10986 008c 0C20A0E1 		mov	r2, ip
 10987 0090 00C08DE5 		str	ip, [sp]
 10988 0094 FEFFFFEB 		bl	_ZN6tflite12CreateTensorERN11flatbuffers17FlatBufferBuilderENS0_6OffsetINS0_6VectorIlEEEENS_10T
 10989 0098 2630D5E5 		ldrb	r3, [r5, #38]	@ zero_extendqisi2
 10990 009c 204095E5 		ldr	r4, [r5, #32]
 10991 00a0 000053E3 		cmp	r3, #0
 10992 00a4 4700001A 		bne	.L2042
 10993 00a8 000054E3 		cmp	r4, #0
 10994 00ac 4D00001A 		bne	.L2043
 10995 00b0 142095E5 		ldr	r2, [r5, #20]
 10996 00b4 0070A0E1 		mov	r7, r0
 10997 00b8 186095E5 		ldr	r6, [r5, #24]
 10998 00bc 0500A0E1 		mov	r0, r5
 10999 00c0 101095E5 		ldr	r1, [r5, #16]
 11000 00c4 283095E5 		ldr	r3, [r5, #40]
 11001 00c8 026046E0 		sub	r6, r6, r2
 11002 00cc 1C2085E5 		str	r2, [r5, #28]
 11003 00d0 016046E0 		sub	r6, r6, r1
 11004 00d4 013043E2 		sub	r3, r3, #1
 11005 00d8 046046E2 		sub	r6, r6, #4
 11006 00dc 036006E0 		and	r6, r6, r3
 11007 00e0 0610A0E1 		mov	r1, r6
 11008 00e4 FEFFFFEB 		bl	_ZN11flatbuffers15vector_downward12ensure_spaceEj
 11009 00e8 183095E5 		ldr	r3, [r5, #24]
 11010 00ec 000056E3 		cmp	r6, #0
 11011 00f0 000043E0 		sub	r0, r3, r0
 11012 00f4 180085E5 		str	r0, [r5, #24]
 11013 00f8 0700000A 		beq	.L2023
 11014 00fc 0430A0E1 		mov	r3, r4
 11015 0100 0420A0E1 		mov	r2, r4
 11016 0104 000000EA 		b	.L2024
 11017              	.L2044:
 11018 0108 180095E5 		ldr	r0, [r5, #24]
 11019              	.L2024:
 11020 010c 0320C0E7 		strb	r2, [r0, r3]
 11021 0110 013083E2 		add	r3, r3, #1
 11022 0114 030056E1 		cmp	r6, r3
 11023 0118 FAFFFF1A 		bne	.L2044
 11024              	.L2023:
 11025 011c 0710A0E1 		mov	r1, r7
 11026 0120 0500A0E1 		mov	r0, r5
 11027 0124 FEFFFFEB 		bl	_ZN11flatbuffers17FlatBufferBuilder7ReferToEm
 11028 0128 283095E5 		ldr	r3, [r5, #40]
 11029 012c 0060A0E1 		mov	r6, r0
 11030 0130 184095E5 		ldr	r4, [r5, #24]
 11031 0134 0500A0E1 		mov	r0, r5
 11032 0138 142095E5 		ldr	r2, [r5, #20]
 11033 013c 030053E3 		cmp	r3, #3
 11034 0140 0430A093 		movls	r3, #4
 11035 0144 28308595 		strls	r3, [r5, #40]
 11036 0148 024044E0 		sub	r4, r4, r2
 11037 014c 103095E5 		ldr	r3, [r5, #16]
 11038 0150 034044E0 		sub	r4, r4, r3
 11039 0154 034004E2 		and	r4, r4, #3
 11040 0158 0410A0E1 		mov	r1, r4
 11041 015c FEFFFFEB 		bl	_ZN11flatbuffers15vector_downward12ensure_spaceEj
 11042 0160 183095E5 		ldr	r3, [r5, #24]
 11043 0164 000054E3 		cmp	r4, #0
 11044 0168 000043E0 		sub	r0, r3, r0
 11045 016c 180085E5 		str	r0, [r5, #24]
 11046 0170 0800000A 		beq	.L2027
 11047 0174 010054E3 		cmp	r4, #1
 11048 0178 0030A0E3 		mov	r3, #0
 11049 017c 0030C0E5 		strb	r3, [r0]
 11050 0180 0400000A 		beq	.L2027
 11051 0184 182095E5 		ldr	r2, [r5, #24]
 11052 0188 020054E3 		cmp	r4, #2
 11053 018c 0130C2E5 		strb	r3, [r2, #1]
 11054 0190 18209515 		ldrne	r2, [r5, #24]
 11055 0194 0230C215 		strbne	r3, [r2, #2]
 11056              	.L2027:
 11057 0198 0410A0E3 		mov	r1, #4
 11058 019c 0500A0E1 		mov	r0, r5
 11059 01a0 FEFFFFEB 		bl	_ZN11flatbuffers15vector_downward12ensure_spaceEj
 11060 01a4 183095E5 		ldr	r3, [r5, #24]
 11061 01a8 0120A0E3 		mov	r2, #1
 11062 01ac 003043E0 		sub	r3, r3, r0
 11063 01b0 0300A0E1 		mov	r0, r3
 11064 01b4 183085E5 		str	r3, [r5, #24]
 11065 01b8 066080E6 		str	r6, [r0], r6
 11066 01bc 2720C5E5 		strb	r2, [r5, #39]
 11067 01c0 1CD08DE2 		add	sp, sp, #28
 11068              		@ sp needed
 11069 01c4 F080BDE8 		pop	{r4, r5, r6, r7, pc}
 11070              	.L2042:
 11071 01c8 003000E3 		movw	r3, #:lower16:.LC24
 11072 01cc 002000E3 		movw	r2, #:lower16:.LANCHOR11
 11073 01d0 000000E3 		movw	r0, #:lower16:.LC19
 11074 01d4 003040E3 		movt	r3, #:upper16:.LC24
 11075 01d8 002040E3 		movt	r2, #:upper16:.LANCHOR11
 11076 01dc 000040E3 		movt	r0, #:upper16:.LC19
 11077 01e0 481500E3 		movw	r1, #1352
 11078 01e4 FEFFFFEB 		bl	__assert_func
 11079              	.L2043:
 11080 01e8 FEFFFFEB 		bl	_ZN11flatbuffers17FlatBufferBuilder9NotNestedEv.isra.19.part.20
 11081              		.fnend
 11083              		.section	.text._ZN6tflite7testing31CreateQuantizedFlatbufferTensorEi,"ax",%progbits
 11084              		.align	2
 11085              		.global	_ZN6tflite7testing31CreateQuantizedFlatbufferTensorEi
 11086              		.syntax unified
 11087              		.arm
 11088              		.fpu neon
 11090              	_ZN6tflite7testing31CreateQuantizedFlatbufferTensorEi:
 11091              		.fnstart
 11092              	.LFB7023:
 11093              		@ args = 0, pretend = 0, frame = 24
 11094              		@ frame_needed = 0, uses_anonymous_args = 0
 11095 0000 F04F2DE9 		push	{r4, r5, r6, r7, r8, r9, r10, fp, lr}
 11096              		.save {r4, r5, r6, r7, r8, r9, r10, fp, lr}
 11097              		.pad #44
 11098 0004 2CD04DE2 		sub	sp, sp, #44
 11099 0008 1C008DE5 		str	r0, [sp, #28]
 11100 000c FEFFFFEB 		bl	_ZN6tflite7testing12_GLOBAL__N_115BuilderInstanceEv
 11101 0010 0040A0E1 		mov	r4, r0
 11102 0014 0400A0E3 		mov	r0, #4
 11103              	.LEHB0:
 11104 0018 FEFFFFEB 		bl	_Znwj
 11105              	.LEHE0:
 11106 001c 001000E3 		movw	r1, #:lower16:.LANCHOR38
 11107 0020 0420A0E3 		mov	r2, #4
 11108 0024 001040E3 		movt	r1, #:upper16:.LANCHOR38
 11109 0028 0080A0E1 		mov	r8, r0
 11110 002c FEFFFFEB 		bl	memcpy
 11111 0030 0400A0E1 		mov	r0, r4
 11112 0034 0110A0E3 		mov	r1, #1
 11113              	.LEHB1:
 11114 0038 FEFFFFEB 		bl	_ZN11flatbuffers17FlatBufferBuilder11StartVectorEjj.constprop.148
 11115 003c 0410A0E3 		mov	r1, #4
 11116 0040 0400A0E1 		mov	r0, r4
 11117 0044 FEFFFFEB 		bl	_ZN11flatbuffers15vector_downward12ensure_spaceEj
 11118 0048 183094E5 		ldr	r3, [r4, #24]
 11119 004c 0810A0E1 		mov	r1, r8
 11120 0050 0420A0E3 		mov	r2, #4
 11121 0054 000043E0 		sub	r0, r3, r0
 11122 0058 180084E5 		str	r0, [r4, #24]
 11123 005c FEFFFFEB 		bl	memcpy
 11124 0060 0110A0E3 		mov	r1, #1
 11125 0064 0400A0E1 		mov	r0, r4
 11126 0068 FEFFFFEB 		bl	_ZN11flatbuffers17FlatBufferBuilder9EndVectorEj
 11127 006c 14008DE5 		str	r0, [sp, #20]
 11128 0070 0400A0E3 		mov	r0, #4
 11129 0074 FEFFFFEB 		bl	_Znwj
 11130              	.LEHE1:
 11131 0078 001000E3 		movw	r1, #:lower16:.LANCHOR39
 11132 007c 0420A0E3 		mov	r2, #4
 11133 0080 001040E3 		movt	r1, #:upper16:.LANCHOR39
 11134 0084 0090A0E1 		mov	r9, r0
 11135 0088 FEFFFFEB 		bl	memcpy
 11136 008c 0110A0E3 		mov	r1, #1
 11137 0090 0400A0E1 		mov	r0, r4
 11138              	.LEHB2:
 11139 0094 FEFFFFEB 		bl	_ZN11flatbuffers17FlatBufferBuilder11StartVectorEjj.constprop.148
 11140 0098 0410A0E3 		mov	r1, #4
 11141 009c 0400A0E1 		mov	r0, r4
 11142 00a0 FEFFFFEB 		bl	_ZN11flatbuffers15vector_downward12ensure_spaceEj
 11143 00a4 183094E5 		ldr	r3, [r4, #24]
 11144 00a8 0910A0E1 		mov	r1, r9
 11145 00ac 0420A0E3 		mov	r2, #4
 11146 00b0 000043E0 		sub	r0, r3, r0
 11147 00b4 180084E5 		str	r0, [r4, #24]
 11148 00b8 FEFFFFEB 		bl	memcpy
 11149 00bc 0110A0E3 		mov	r1, #1
 11150 00c0 0400A0E1 		mov	r0, r4
 11151 00c4 FEFFFFEB 		bl	_ZN11flatbuffers17FlatBufferBuilder9EndVectorEj
 11152 00c8 00B0A0E1 		mov	fp, r0
 11153 00cc 0400A0E3 		mov	r0, #4
 11154 00d0 FEFFFFEB 		bl	_Znwj
 11155              	.LEHE2:
 11156 00d4 001000E3 		movw	r1, #:lower16:.LANCHOR40
 11157 00d8 0420A0E3 		mov	r2, #4
 11158 00dc 001040E3 		movt	r1, #:upper16:.LANCHOR40
 11159 00e0 00A0A0E1 		mov	r10, r0
 11160 00e4 FEFFFFEB 		bl	memcpy
 11161 00e8 0110A0E3 		mov	r1, #1
 11162 00ec 0400A0E1 		mov	r0, r4
 11163              	.LEHB3:
 11164 00f0 FEFFFFEB 		bl	_ZN11flatbuffers17FlatBufferBuilder11StartVectorEjj.constprop.148
 11165 00f4 0410A0E3 		mov	r1, #4
 11166 00f8 0400A0E1 		mov	r0, r4
 11167 00fc FEFFFFEB 		bl	_ZN11flatbuffers15vector_downward12ensure_spaceEj
 11168 0100 183094E5 		ldr	r3, [r4, #24]
 11169 0104 0A10A0E1 		mov	r1, r10
 11170 0108 0420A0E3 		mov	r2, #4
 11171 010c 000043E0 		sub	r0, r3, r0
 11172 0110 180084E5 		str	r0, [r4, #24]
 11173 0114 FEFFFFEB 		bl	memcpy
 11174 0118 0110A0E3 		mov	r1, #1
 11175 011c 0400A0E1 		mov	r0, r4
 11176 0120 FEFFFFEB 		bl	_ZN11flatbuffers17FlatBufferBuilder9EndVectorEj
 11177 0124 10008DE5 		str	r0, [sp, #16]
 11178 0128 0800A0E3 		mov	r0, #8
 11179 012c FEFFFFEB 		bl	_Znwj
 11180              	.LEHE3:
 11181 0130 001000E3 		movw	r1, #:lower16:.LANCHOR41
 11182 0134 0820A0E3 		mov	r2, #8
 11183 0138 001040E3 		movt	r1, #:upper16:.LANCHOR41
 11184 013c 0070A0E1 		mov	r7, r0
 11185 0140 FEFFFFEB 		bl	memcpy
 11186 0144 2620D4E5 		ldrb	r2, [r4, #38]	@ zero_extendqisi2
 11187 0148 203094E5 		ldr	r3, [r4, #32]
 11188 014c 000052E3 		cmp	r2, #0
 11189 0150 8201001A 		bne	.L2170
 11190 0154 000053E3 		cmp	r3, #0
 11191 0158 7F01001A 		bne	.L2171
 11192 015c 283094E5 		ldr	r3, [r4, #40]
 11193 0160 0120A0E3 		mov	r2, #1
 11194 0164 2620C4E5 		strb	r2, [r4, #38]
 11195 0168 0400A0E1 		mov	r0, r4
 11196 016c 186094E5 		ldr	r6, [r4, #24]
 11197 0170 030053E3 		cmp	r3, #3
 11198 0174 142094E5 		ldr	r2, [r4, #20]
 11199 0178 0430A093 		movls	r3, #4
 11200 017c 28308495 		strls	r3, [r4, #40]
 11201 0180 103094E5 		ldr	r3, [r4, #16]
 11202 0184 026046E0 		sub	r6, r6, r2
 11203 0188 036046E0 		sub	r6, r6, r3
 11204 018c 036006E2 		and	r6, r6, #3
 11205 0190 0610A0E1 		mov	r1, r6
 11206              	.LEHB4:
 11207 0194 FEFFFFEB 		bl	_ZN11flatbuffers15vector_downward12ensure_spaceEj
 11208 0198 183094E5 		ldr	r3, [r4, #24]
 11209 019c 000056E3 		cmp	r6, #0
 11210 01a0 003043E0 		sub	r3, r3, r0
 11211 01a4 183084E5 		str	r3, [r4, #24]
 11212 01a8 0900000A 		beq	.L2049
 11213 01ac 010056E3 		cmp	r6, #1
 11214 01b0 0020A0E3 		mov	r2, #0
 11215 01b4 0020C3E5 		strb	r2, [r3]
 11216 01b8 0400000A 		beq	.L2050
 11217 01bc 183094E5 		ldr	r3, [r4, #24]
 11218 01c0 020056E3 		cmp	r6, #2
 11219 01c4 0120C3E5 		strb	r2, [r3, #1]
 11220 01c8 18309415 		ldrne	r3, [r4, #24]
 11221 01cc 0220C315 		strbne	r2, [r3, #2]
 11222              	.L2050:
 11223 01d0 183094E5 		ldr	r3, [r4, #24]
 11224              	.L2049:
 11225 01d4 282094E5 		ldr	r2, [r4, #40]
 11226 01d8 0400A0E1 		mov	r0, r4
 11227 01dc 145094E5 		ldr	r5, [r4, #20]
 11228 01e0 070052E3 		cmp	r2, #7
 11229 01e4 0820A093 		movls	r2, #8
 11230 01e8 055043E0 		sub	r5, r3, r5
 11231 01ec 28208495 		strls	r2, [r4, #40]
 11232 01f0 102094E5 		ldr	r2, [r4, #16]
 11233 01f4 025045E0 		sub	r5, r5, r2
 11234 01f8 075005E2 		and	r5, r5, #7
 11235 01fc 0510A0E1 		mov	r1, r5
 11236 0200 FEFFFFEB 		bl	_ZN11flatbuffers15vector_downward12ensure_spaceEj
 11237 0204 183094E5 		ldr	r3, [r4, #24]
 11238 0208 000055E3 		cmp	r5, #0
 11239 020c 000043E0 		sub	r0, r3, r0
 11240 0210 180084E5 		str	r0, [r4, #24]
 11241 0214 1800000A 		beq	.L2052
 11242 0218 010055E3 		cmp	r5, #1
 11243 021c 0030A0E3 		mov	r3, #0
 11244 0220 0030C0E5 		strb	r3, [r0]
 11245 0224 1400000A 		beq	.L2052
 11246 0228 182094E5 		ldr	r2, [r4, #24]
 11247 022c 020055E3 		cmp	r5, #2
 11248 0230 0130C2E5 		strb	r3, [r2, #1]
 11249 0234 1000000A 		beq	.L2052
 11250 0238 182094E5 		ldr	r2, [r4, #24]
 11251 023c 030055E3 		cmp	r5, #3
 11252 0240 0230C2E5 		strb	r3, [r2, #2]
 11253 0244 0C00000A 		beq	.L2052
 11254 0248 182094E5 		ldr	r2, [r4, #24]
 11255 024c 040055E3 		cmp	r5, #4
 11256 0250 0330C2E5 		strb	r3, [r2, #3]
 11257 0254 0800000A 		beq	.L2052
 11258 0258 182094E5 		ldr	r2, [r4, #24]
 11259 025c 050055E3 		cmp	r5, #5
 11260 0260 0430C2E5 		strb	r3, [r2, #4]
 11261 0264 0400000A 		beq	.L2052
 11262 0268 182094E5 		ldr	r2, [r4, #24]
 11263 026c 060055E3 		cmp	r5, #6
 11264 0270 0530C2E5 		strb	r3, [r2, #5]
 11265 0274 18209415 		ldrne	r2, [r4, #24]
 11266 0278 0630C215 		strbne	r3, [r2, #6]
 11267              	.L2052:
 11268 027c 0810A0E3 		mov	r1, #8
 11269 0280 0400A0E1 		mov	r0, r4
 11270 0284 FEFFFFEB 		bl	_ZN11flatbuffers15vector_downward12ensure_spaceEj
 11271 0288 183094E5 		ldr	r3, [r4, #24]
 11272 028c 0710A0E1 		mov	r1, r7
 11273 0290 0820A0E3 		mov	r2, #8
 11274 0294 000043E0 		sub	r0, r3, r0
 11275 0298 180084E5 		str	r0, [r4, #24]
 11276 029c FEFFFFEB 		bl	memcpy
 11277 02a0 0110A0E3 		mov	r1, #1
 11278 02a4 0400A0E1 		mov	r0, r4
 11279 02a8 FEFFFFEB 		bl	_ZN11flatbuffers17FlatBufferBuilder9EndVectorEj
 11280 02ac 2620D4E5 		ldrb	r2, [r4, #38]	@ zero_extendqisi2
 11281 02b0 18008DE5 		str	r0, [sp, #24]
 11282 02b4 203094E5 		ldr	r3, [r4, #32]
 11283 02b8 000052E3 		cmp	r2, #0
 11284 02bc 1501001A 		bne	.L2172
 11285 02c0 000053E3 		cmp	r3, #0
 11286 02c4 2F01001A 		bne	.L2173
 11287 02c8 2C10D4E5 		ldrb	r1, [r4, #44]	@ zero_extendqisi2
 11288 02cc 142094E5 		ldr	r2, [r4, #20]
 11289 02d0 183094E5 		ldr	r3, [r4, #24]
 11290 02d4 105094E5 		ldr	r5, [r4, #16]
 11291 02d8 000051E3 		cmp	r1, #0
 11292 02dc 023043E0 		sub	r3, r3, r2
 11293 02e0 0120A0E3 		mov	r2, #1
 11294 02e4 035045E0 		sub	r5, r5, r3
 11295 02e8 2620C4E5 		strb	r2, [r4, #38]
 11296 02ec 0030A001 		moveq	r3, r0
 11297 02f0 3300000A 		beq	.L2056
 11298 02f4 283094E5 		ldr	r3, [r4, #40]
 11299 02f8 006065E2 		rsb	r6, r5, #0
 11300 02fc 036006E2 		and	r6, r6, #3
 11301 0300 0400A0E1 		mov	r0, r4
 11302 0304 0610A0E1 		mov	r1, r6
 11303 0308 030053E3 		cmp	r3, #3
 11304 030c 0430A093 		movls	r3, #4
 11305 0310 28308495 		strls	r3, [r4, #40]
 11306 0314 FEFFFFEB 		bl	_ZN11flatbuffers15vector_downward12ensure_spaceEj
 11307 0318 183094E5 		ldr	r3, [r4, #24]
 11308 031c 000056E3 		cmp	r6, #0
 11309 0320 000043E0 		sub	r0, r3, r0
 11310 0324 180084E5 		str	r0, [r4, #24]
 11311 0328 0800000A 		beq	.L2057
 11312 032c 010056E3 		cmp	r6, #1
 11313 0330 0030A0E3 		mov	r3, #0
 11314 0334 0030C0E5 		strb	r3, [r0]
 11315 0338 0400000A 		beq	.L2057
 11316 033c 182094E5 		ldr	r2, [r4, #24]
 11317 0340 020056E3 		cmp	r6, #2
 11318 0344 0130C2E5 		strb	r3, [r2, #1]
 11319 0348 18209415 		ldrne	r2, [r4, #24]
 11320 034c 0230C215 		strbne	r3, [r2, #2]
 11321              	.L2057:
 11322 0350 0410A0E3 		mov	r1, #4
 11323 0354 0400A0E1 		mov	r0, r4
 11324 0358 FEFFFFEB 		bl	_ZN11flatbuffers15vector_downward12ensure_spaceEj
 11325 035c 183094E5 		ldr	r3, [r4, #24]
 11326 0360 00C0A0E3 		mov	ip, #0
 11327 0364 142094E5 		ldr	r2, [r4, #20]
 11328 0368 0810A0E3 		mov	r1, #8
 11329 036c 106094E5 		ldr	r6, [r4, #16]
 11330 0370 000043E0 		sub	r0, r3, r0
 11331 0374 180084E5 		str	r0, [r4, #24]
 11332 0378 022040E0 		sub	r2, r0, r2
 11333 037c 00C080E5 		str	ip, [r0]
 11334 0380 0400A0E1 		mov	r0, r4
 11335 0384 026046E0 		sub	r6, r6, r2
 11336 0388 FEFFFFEB 		bl	_ZN11flatbuffers15vector_downward12ensure_spaceEj
 11337 038c 1C3094E5 		ldr	r3, [r4, #28]
 11338 0390 1020A0E3 		mov	r2, #16
 11339 0394 201094E5 		ldr	r1, [r4, #32]
 11340 0398 083083E2 		add	r3, r3, #8
 11341 039c 086003E5 		str	r6, [r3, #-8]
 11342 03a0 B42043E1 		strh	r2, [r3, #-4]	@ movhi
 11343 03a4 011081E2 		add	r1, r1, #1
 11344 03a8 B422D4E1 		ldrh	r2, [r4, #36]
 11345 03ac 1C3084E5 		str	r3, [r4, #28]
 11346 03b0 18309DE5 		ldr	r3, [sp, #24]
 11347 03b4 100052E3 		cmp	r2, #16
 11348 03b8 201084E5 		str	r1, [r4, #32]
 11349 03bc 1020A0B3 		movlt	r2, #16
 11350 03c0 B422C4E1 		strh	r2, [r4, #36]	@ movhi
 11351              	.L2056:
 11352 03c4 000053E3 		cmp	r3, #0
 11353 03c8 C500001A 		bne	.L2059
 11354              	.L2063:
 11355 03cc 10309DE5 		ldr	r3, [sp, #16]
 11356 03d0 000053E3 		cmp	r3, #0
 11357 03d4 B600001A 		bne	.L2174
 11358              	.L2060:
 11359 03d8 00005BE3 		cmp	fp, #0
 11360 03dc 9900001A 		bne	.L2175
 11361              	.L2064:
 11362 03e0 14309DE5 		ldr	r3, [sp, #20]
 11363 03e4 000053E3 		cmp	r3, #0
 11364 03e8 A100001A 		bne	.L2090
 11365              	.L2069:
 11366 03ec 2C30D4E5 		ldrb	r3, [r4, #44]	@ zero_extendqisi2
 11367 03f0 000053E3 		cmp	r3, #0
 11368 03f4 2600000A 		beq	.L2071
 11369 03f8 283094E5 		ldr	r3, [r4, #40]
 11370 03fc 0010A0E3 		mov	r1, #0
 11371 0400 0400A0E1 		mov	r0, r4
 11372 0404 000053E3 		cmp	r3, #0
 11373 0408 0130A003 		moveq	r3, #1
 11374 040c 28308405 		streq	r3, [r4, #40]
 11375 0410 FEFFFFEB 		bl	_ZN11flatbuffers15vector_downward12ensure_spaceEj
 11376 0414 183094E5 		ldr	r3, [r4, #24]
 11377 0418 0110A0E3 		mov	r1, #1
 11378 041c 003043E0 		sub	r3, r3, r0
 11379 0420 0400A0E1 		mov	r0, r4
 11380 0424 183084E5 		str	r3, [r4, #24]
 11381 0428 FEFFFFEB 		bl	_ZN11flatbuffers15vector_downward12ensure_spaceEj
 11382 042c 183094E5 		ldr	r3, [r4, #24]
 11383 0430 0020A0E3 		mov	r2, #0
 11384 0434 0810A0E3 		mov	r1, #8
 11385 0438 003043E0 		sub	r3, r3, r0
 11386 043c 0400A0E1 		mov	r0, r4
 11387 0440 183084E5 		str	r3, [r4, #24]
 11388 0444 0020C3E5 		strb	r2, [r3]
 11389 0448 183094E5 		ldr	r3, [r4, #24]
 11390 044c 142094E5 		ldr	r2, [r4, #20]
 11391 0450 106094E5 		ldr	r6, [r4, #16]
 11392 0454 023043E0 		sub	r3, r3, r2
 11393 0458 036046E0 		sub	r6, r6, r3
 11394 045c FEFFFFEB 		bl	_ZN11flatbuffers15vector_downward12ensure_spaceEj
 11395 0460 1C3094E5 		ldr	r3, [r4, #28]
 11396 0464 0C20A0E3 		mov	r2, #12
 11397 0468 201094E5 		ldr	r1, [r4, #32]
 11398 046c 006083E5 		str	r6, [r3]
 11399 0470 083083E2 		add	r3, r3, #8
 11400 0474 B42043E1 		strh	r2, [r3, #-4]	@ movhi
 11401 0478 011081E2 		add	r1, r1, #1
 11402 047c B422D4E1 		ldrh	r2, [r4, #36]
 11403 0480 1C3084E5 		str	r3, [r4, #28]
 11404 0484 201084E5 		str	r1, [r4, #32]
 11405 0488 0C0052E3 		cmp	r2, #12
 11406 048c 0C20A0B3 		movlt	r2, #12
 11407 0490 B422C4E1 		strh	r2, [r4, #36]	@ movhi
 11408              	.L2071:
 11409 0494 0510A0E1 		mov	r1, r5
 11410 0498 0400A0E1 		mov	r0, r4
 11411 049c FEFFFFEB 		bl	_ZN11flatbuffers17FlatBufferBuilder8EndTableEm
 11412              	.LEHE4:
 11413 04a0 0050A0E1 		mov	r5, r0
 11414 04a4 0700A0E1 		mov	r0, r7
 11415 04a8 FEFFFFEB 		bl	_ZdlPv
 11416 04ac 0A00A0E1 		mov	r0, r10
 11417 04b0 FEFFFFEB 		bl	_ZdlPv
 11418 04b4 0900A0E1 		mov	r0, r9
 11419 04b8 FEFFFFEB 		bl	_ZdlPv
 11420 04bc 0800A0E1 		mov	r0, r8
 11421 04c0 FEFFFFEB 		bl	_ZdlPv
 11422 04c4 1C309DE5 		ldr	r3, [sp, #28]
 11423 04c8 28108DE2 		add	r1, sp, #40
 11424 04cc 0400A0E1 		mov	r0, r4
 11425 04d0 043021E5 		str	r3, [r1, #-4]!
 11426              	.LEHB5:
 11427 04d4 FEFFFFEB 		bl	_ZN11flatbuffers17FlatBufferBuilder12CreateVectorIlEENS_6OffsetINS_6VectorIT_EEEEPKS4_j.constpr
 11428 04d8 001000E3 		movw	r1, #:lower16:.LC66
 11429 04dc 0060A0E1 		mov	r6, r0
 11430 04e0 0B20A0E3 		mov	r2, #11
 11431 04e4 001040E3 		movt	r1, #:upper16:.LC66
 11432 04e8 0400A0E1 		mov	r0, r4
 11433 04ec FEFFFFEB 		bl	_ZN11flatbuffers17FlatBufferBuilder12CreateStringEPKcj
 11434 04f0 00C0A0E3 		mov	ip, #0
 11435 04f4 0030A0E1 		mov	r3, r0
 11436 04f8 00508DE5 		str	r5, [sp]
 11437 04fc 0610A0E1 		mov	r1, r6
 11438 0500 0CC08DE5 		str	ip, [sp, #12]
 11439 0504 0C20A0E1 		mov	r2, ip
 11440 0508 08C08DE5 		str	ip, [sp, #8]
 11441 050c 0400A0E1 		mov	r0, r4
 11442 0510 04C08DE5 		str	ip, [sp, #4]
 11443 0514 FEFFFFEB 		bl	_ZN6tflite12CreateTensorERN11flatbuffers17FlatBufferBuilderENS0_6OffsetINS0_6VectorIlEEEENS_10T
 11444 0518 2630D4E5 		ldrb	r3, [r4, #38]	@ zero_extendqisi2
 11445 051c 0070A0E1 		mov	r7, r0
 11446 0520 205094E5 		ldr	r5, [r4, #32]
 11447 0524 000053E3 		cmp	r3, #0
 11448 0528 9700001A 		bne	.L2176
 11449 052c 000055E3 		cmp	r5, #0
 11450 0530 7700001A 		bne	.L2177
 11451 0534 142094E5 		ldr	r2, [r4, #20]
 11452 0538 0400A0E1 		mov	r0, r4
 11453 053c 186094E5 		ldr	r6, [r4, #24]
 11454 0540 101094E5 		ldr	r1, [r4, #16]
 11455 0544 283094E5 		ldr	r3, [r4, #40]
 11456 0548 026046E0 		sub	r6, r6, r2
 11457 054c 1C2084E5 		str	r2, [r4, #28]
 11458 0550 016046E0 		sub	r6, r6, r1
 11459 0554 013043E2 		sub	r3, r3, #1
 11460 0558 046046E2 		sub	r6, r6, #4
 11461 055c 036006E0 		and	r6, r6, r3
 11462 0560 0610A0E1 		mov	r1, r6
 11463 0564 FEFFFFEB 		bl	_ZN11flatbuffers15vector_downward12ensure_spaceEj
 11464 0568 183094E5 		ldr	r3, [r4, #24]
 11465 056c 000056E3 		cmp	r6, #0
 11466 0570 000043E0 		sub	r0, r3, r0
 11467 0574 180084E5 		str	r0, [r4, #24]
 11468 0578 0700000A 		beq	.L2077
 11469 057c 0530A0E1 		mov	r3, r5
 11470 0580 0520A0E1 		mov	r2, r5
 11471 0584 000000EA 		b	.L2078
 11472              	.L2178:
 11473 0588 180094E5 		ldr	r0, [r4, #24]
 11474              	.L2078:
 11475 058c 0320C0E7 		strb	r2, [r0, r3]
 11476 0590 013083E2 		add	r3, r3, #1
 11477 0594 030056E1 		cmp	r6, r3
 11478 0598 FAFFFF1A 		bne	.L2178
 11479              	.L2077:
 11480 059c 0710A0E1 		mov	r1, r7
 11481 05a0 0400A0E1 		mov	r0, r4
 11482 05a4 FEFFFFEB 		bl	_ZN11flatbuffers17FlatBufferBuilder7ReferToEm
 11483 05a8 283094E5 		ldr	r3, [r4, #40]
 11484 05ac 0060A0E1 		mov	r6, r0
 11485 05b0 185094E5 		ldr	r5, [r4, #24]
 11486 05b4 0400A0E1 		mov	r0, r4
 11487 05b8 142094E5 		ldr	r2, [r4, #20]
 11488 05bc 030053E3 		cmp	r3, #3
 11489 05c0 0430A093 		movls	r3, #4
 11490 05c4 28308495 		strls	r3, [r4, #40]
 11491 05c8 025045E0 		sub	r5, r5, r2
 11492 05cc 103094E5 		ldr	r3, [r4, #16]
 11493 05d0 035045E0 		sub	r5, r5, r3
 11494 05d4 035005E2 		and	r5, r5, #3
 11495 05d8 0510A0E1 		mov	r1, r5
 11496 05dc FEFFFFEB 		bl	_ZN11flatbuffers15vector_downward12ensure_spaceEj
 11497 05e0 183094E5 		ldr	r3, [r4, #24]
 11498 05e4 000055E3 		cmp	r5, #0
 11499 05e8 000043E0 		sub	r0, r3, r0
 11500 05ec 180084E5 		str	r0, [r4, #24]
 11501 05f0 0800000A 		beq	.L2081
 11502 05f4 010055E3 		cmp	r5, #1
 11503 05f8 0030A0E3 		mov	r3, #0
 11504 05fc 0030C0E5 		strb	r3, [r0]
 11505 0600 0400000A 		beq	.L2081
 11506 0604 182094E5 		ldr	r2, [r4, #24]
 11507 0608 020055E3 		cmp	r5, #2
 11508 060c 0130C2E5 		strb	r3, [r2, #1]
 11509 0610 18209415 		ldrne	r2, [r4, #24]
 11510 0614 0230C215 		strbne	r3, [r2, #2]
 11511              	.L2081:
 11512 0618 0410A0E3 		mov	r1, #4
 11513 061c 0400A0E1 		mov	r0, r4
 11514 0620 FEFFFFEB 		bl	_ZN11flatbuffers15vector_downward12ensure_spaceEj
 11515              	.LEHE5:
 11516 0624 183094E5 		ldr	r3, [r4, #24]
 11517 0628 0120A0E3 		mov	r2, #1
 11518 062c 003043E0 		sub	r3, r3, r0
 11519 0630 0300A0E1 		mov	r0, r3
 11520 0634 183084E5 		str	r3, [r4, #24]
 11521 0638 066080E6 		str	r6, [r0], r6
 11522 063c 2720C4E5 		strb	r2, [r4, #39]
 11523 0640 2CD08DE2 		add	sp, sp, #44
 11524              		@ sp needed
 11525 0644 F08FBDE8 		pop	{r4, r5, r6, r7, r8, r9, r10, fp, pc}
 11526              	.L2175:
 11527 0648 0B10A0E1 		mov	r1, fp
 11528 064c 0400A0E1 		mov	r0, r4
 11529              	.LEHB6:
 11530 0650 FEFFFFEB 		bl	_ZN11flatbuffers17FlatBufferBuilder7ReferToEm
 11531 0654 002050E2 		subs	r2, r0, #0
 11532 0658 1100001A 		bne	.L2067
 11533 065c 2C30D4E5 		ldrb	r3, [r4, #44]	@ zero_extendqisi2
 11534 0660 000053E3 		cmp	r3, #0
 11535 0664 0E00001A 		bne	.L2067
 11536 0668 14309DE5 		ldr	r3, [sp, #20]
 11537 066c 000053E3 		cmp	r3, #0
 11538 0670 87FFFF0A 		beq	.L2071
 11539              	.L2090:
 11540 0674 14109DE5 		ldr	r1, [sp, #20]
 11541 0678 0400A0E1 		mov	r0, r4
 11542 067c FEFFFFEB 		bl	_ZN11flatbuffers17FlatBufferBuilder7ReferToEm
 11543 0680 002050E2 		subs	r2, r0, #0
 11544 0684 0200001A 		bne	.L2070
 11545 0688 2C30D4E5 		ldrb	r3, [r4, #44]	@ zero_extendqisi2
 11546 068c 000053E3 		cmp	r3, #0
 11547 0690 7FFFFF0A 		beq	.L2071
 11548              	.L2070:
 11549 0694 0410A0E3 		mov	r1, #4
 11550 0698 0400A0E1 		mov	r0, r4
 11551 069c FEFFFFEB 		bl	_ZN11flatbuffers17FlatBufferBuilder10AddElementImEEvtT_S2_.part.45
 11552 06a0 51FFFFEA 		b	.L2069
 11553              	.L2067:
 11554 06a4 0610A0E3 		mov	r1, #6
 11555 06a8 0400A0E1 		mov	r0, r4
 11556 06ac FEFFFFEB 		bl	_ZN11flatbuffers17FlatBufferBuilder10AddElementImEEvtT_S2_.part.45
 11557 06b0 4AFFFFEA 		b	.L2064
 11558              	.L2174:
 11559 06b4 0310A0E1 		mov	r1, r3
 11560 06b8 0400A0E1 		mov	r0, r4
 11561 06bc FEFFFFEB 		bl	_ZN11flatbuffers17FlatBufferBuilder7ReferToEm
 11562 06c0 002050E2 		subs	r2, r0, #0
 11563 06c4 0200001A 		bne	.L2066
 11564 06c8 2C30D4E5 		ldrb	r3, [r4, #44]	@ zero_extendqisi2
 11565 06cc 000053E3 		cmp	r3, #0
 11566 06d0 40FFFF0A 		beq	.L2060
 11567              	.L2066:
 11568 06d4 0810A0E3 		mov	r1, #8
 11569 06d8 0400A0E1 		mov	r0, r4
 11570 06dc FEFFFFEB 		bl	_ZN11flatbuffers17FlatBufferBuilder10AddElementImEEvtT_S2_.part.45
 11571 06e0 3CFFFFEA 		b	.L2060
 11572              	.L2059:
 11573 06e4 0310A0E1 		mov	r1, r3
 11574 06e8 0400A0E1 		mov	r0, r4
 11575 06ec FEFFFFEB 		bl	_ZN11flatbuffers17FlatBufferBuilder7ReferToEm
 11576 06f0 002050E2 		subs	r2, r0, #0
 11577 06f4 0200001A 		bne	.L2062
 11578 06f8 2C30D4E5 		ldrb	r3, [r4, #44]	@ zero_extendqisi2
 11579 06fc 000053E3 		cmp	r3, #0
 11580 0700 31FFFF0A 		beq	.L2063
 11581              	.L2062:
 11582 0704 0A10A0E3 		mov	r1, #10
 11583 0708 0400A0E1 		mov	r0, r4
 11584 070c FEFFFFEB 		bl	_ZN11flatbuffers17FlatBufferBuilder10AddElementImEEvtT_S2_.part.45
 11585              	.LEHE6:
 11586 0710 2DFFFFEA 		b	.L2063
 11587              	.L2177:
 11588              	.LEHB7:
 11589 0714 FEFFFFEB 		bl	_ZN11flatbuffers17FlatBufferBuilder9NotNestedEv.isra.19.part.20
 11590              	.LEHE7:
 11591              	.L2172:
 11592 0718 003000E3 		movw	r3, #:lower16:.LC24
 11593 071c 002000E3 		movw	r2, #:lower16:.LANCHOR11
 11594 0720 000000E3 		movw	r0, #:lower16:.LC19
 11595 0724 003040E3 		movt	r3, #:upper16:.LC24
 11596 0728 002040E3 		movt	r2, #:upper16:.LANCHOR11
 11597 072c 000040E3 		movt	r0, #:upper16:.LC19
 11598 0730 481500E3 		movw	r1, #1352
 11599              	.LEHB8:
 11600 0734 FEFFFFEB 		bl	__assert_func
 11601              	.LEHE8:
 11602              	.L2096:
 11603 0738 0700A0E1 		mov	r0, r7
 11604 073c FEFFFFEB 		bl	_ZdlPv
 11605              	.L2083:
 11606 0740 0A00A0E1 		mov	r0, r10
 11607 0744 FEFFFFEB 		bl	_ZdlPv
 11608              	.L2084:
 11609 0748 0900A0E1 		mov	r0, r9
 11610 074c FEFFFFEB 		bl	_ZdlPv
 11611              	.L2085:
 11612 0750 0800A0E1 		mov	r0, r8
 11613 0754 FEFFFFEB 		bl	_ZdlPv
 11614              	.LEHB9:
 11615 0758 FEFFFFEB 		bl	__cxa_end_cleanup
 11616              	.LEHE9:
 11617              	.L2171:
 11618              	.LEHB10:
 11619 075c FEFFFFEB 		bl	_ZN11flatbuffers17FlatBufferBuilder9NotNestedEv.isra.19.part.20
 11620              	.L2170:
 11621 0760 003000E3 		movw	r3, #:lower16:.LC24
 11622 0764 002000E3 		movw	r2, #:lower16:.LANCHOR11
 11623 0768 000000E3 		movw	r0, #:lower16:.LC19
 11624 076c 003040E3 		movt	r3, #:upper16:.LC24
 11625 0770 002040E3 		movt	r2, #:upper16:.LANCHOR11
 11626 0774 000040E3 		movt	r0, #:upper16:.LC19
 11627 0778 481500E3 		movw	r1, #1352
 11628 077c FEFFFFEB 		bl	__assert_func
 11629              	.L2095:
 11630 0780 EEFFFFEA 		b	.L2083
 11631              	.L2094:
 11632 0784 EFFFFFEA 		b	.L2084
 11633              	.L2173:
 11634 0788 FEFFFFEB 		bl	_ZN11flatbuffers17FlatBufferBuilder9NotNestedEv.isra.19.part.20
 11635              	.LEHE10:
 11636              	.L2176:
 11637 078c 003000E3 		movw	r3, #:lower16:.LC24
 11638 0790 002000E3 		movw	r2, #:lower16:.LANCHOR11
 11639 0794 000000E3 		movw	r0, #:lower16:.LC19
 11640 0798 003040E3 		movt	r3, #:upper16:.LC24
 11641 079c 002040E3 		movt	r2, #:upper16:.LANCHOR11
 11642 07a0 000040E3 		movt	r0, #:upper16:.LC19
 11643 07a4 481500E3 		movw	r1, #1352
 11644              	.LEHB11:
 11645 07a8 FEFFFFEB 		bl	__assert_func
 11646              	.LEHE11:
 11647              	.L2093:
 11648 07ac E7FFFFEA 		b	.L2085
 11649              		.global	__gxx_personality_v0
 11650              		.personality	__gxx_personality_v0
 11651              		.handlerdata
 11652              	.LLSDA7023:
 11653 0008 FF       		.byte	0xff
 11654 0009 FF       		.byte	0xff
 11655 000a 01       		.byte	0x1
 11656 000b 44       		.uleb128 .LLSDACSE7023-.LLSDACSB7023
 11657              	.LLSDACSB7023:
 11658 000c 18       		.uleb128 .LEHB0-.LFB7023
 11659 000d 04       		.uleb128 .LEHE0-.LEHB0
 11660 000e 00       		.uleb128 0
 11661 000f 00       		.uleb128 0
 11662 0010 38       		.uleb128 .LEHB1-.LFB7023
 11663 0011 40       		.uleb128 .LEHE1-.LEHB1
 11664 0012 AC0F     		.uleb128 .L2093-.LFB7023
 11665 0014 00       		.uleb128 0
 11666 0015 9401     		.uleb128 .LEHB2-.LFB7023
 11667 0017 40       		.uleb128 .LEHE2-.LEHB2
 11668 0018 840F     		.uleb128 .L2094-.LFB7023
 11669 001a 00       		.uleb128 0
 11670 001b F001     		.uleb128 .LEHB3-.LFB7023
 11671 001d 40       		.uleb128 .LEHE3-.LEHB3
 11672 001e 800F     		.uleb128 .L2095-.LFB7023
 11673 0020 00       		.uleb128 0
 11674 0021 9403     		.uleb128 .LEHB4-.LFB7023
 11675 0023 8C06     		.uleb128 .LEHE4-.LEHB4
 11676 0025 B80E     		.uleb128 .L2096-.LFB7023
 11677 0027 00       		.uleb128 0
 11678 0028 D409     		.uleb128 .LEHB5-.LFB7023
 11679 002a D002     		.uleb128 .LEHE5-.LEHB5
 11680 002c 00       		.uleb128 0
 11681 002d 00       		.uleb128 0
 11682 002e D00C     		.uleb128 .LEHB6-.LFB7023
 11683 0030 C001     		.uleb128 .LEHE6-.LEHB6
 11684 0032 B80E     		.uleb128 .L2096-.LFB7023
 11685 0034 00       		.uleb128 0
 11686 0035 940E     		.uleb128 .LEHB7-.LFB7023
 11687 0037 04       		.uleb128 .LEHE7-.LEHB7
 11688 0038 00       		.uleb128 0
 11689 0039 00       		.uleb128 0
 11690 003a B40E     		.uleb128 .LEHB8-.LFB7023
 11691 003c 04       		.uleb128 .LEHE8-.LEHB8
 11692 003d B80E     		.uleb128 .L2096-.LFB7023
 11693 003f 00       		.uleb128 0
 11694 0040 D80E     		.uleb128 .LEHB9-.LFB7023
 11695 0042 04       		.uleb128 .LEHE9-.LEHB9
 11696 0043 00       		.uleb128 0
 11697 0044 00       		.uleb128 0
 11698 0045 DC0E     		.uleb128 .LEHB10-.LFB7023
 11699 0047 30       		.uleb128 .LEHE10-.LEHB10
 11700 0048 B80E     		.uleb128 .L2096-.LFB7023
 11701 004a 00       		.uleb128 0
 11702 004b A80F     		.uleb128 .LEHB11-.LFB7023
 11703 004d 04       		.uleb128 .LEHE11-.LEHB11
 11704 004e 00       		.uleb128 0
 11705 004f 00       		.uleb128 0
 11706              	.LLSDACSE7023:
 11707              		.section	.text._ZN6tflite7testing31CreateQuantizedFlatbufferTensorEi
 11708              		.fnend
 11710              		.section	.text._ZN6tflite7testing41CreateMissingQuantizationFlatbufferTensorEi,"ax",%progbits
 11711              		.align	2
 11712              		.global	_ZN6tflite7testing41CreateMissingQuantizationFlatbufferTensorEi
 11713              		.syntax unified
 11714              		.arm
 11715              		.fpu neon
 11717              	_ZN6tflite7testing41CreateMissingQuantizationFlatbufferTensorEi:
 11718              		.fnstart
 11719              	.LFB7024:
 11720              		@ args = 0, pretend = 0, frame = 8
 11721              		@ frame_needed = 0, uses_anonymous_args = 0
 11722 0000 F0402DE9 		push	{r4, r5, r6, r7, lr}
 11723              		.save {r4, r5, r6, r7, lr}
 11724              		.pad #28
 11725 0004 1CD04DE2 		sub	sp, sp, #28
 11726 0008 0070A0E1 		mov	r7, r0
 11727 000c FEFFFFEB 		bl	_ZN6tflite7testing12_GLOBAL__N_115BuilderInstanceEv
 11728 0010 2620D0E5 		ldrb	r2, [r0, #38]	@ zero_extendqisi2
 11729 0014 203090E5 		ldr	r3, [r0, #32]
 11730 0018 000052E3 		cmp	r2, #0
 11731 001c DB00001A 		bne	.L2188
 11732 0020 000053E3 		cmp	r3, #0
 11733 0024 D800001A 		bne	.L2189
 11734 0028 0040A0E1 		mov	r4, r0
 11735 002c 2C00D0E5 		ldrb	r0, [r0, #44]	@ zero_extendqisi2
 11736 0030 183094E5 		ldr	r3, [r4, #24]
 11737 0034 0110A0E3 		mov	r1, #1
 11738 0038 142094E5 		ldr	r2, [r4, #20]
 11739 003c 105094E5 		ldr	r5, [r4, #16]
 11740 0040 000050E3 		cmp	r0, #0
 11741 0044 2610C4E5 		strb	r1, [r4, #38]
 11742 0048 023043E0 		sub	r3, r3, r2
 11743 004c 035045E0 		sub	r5, r5, r3
 11744 0050 5C00000A 		beq	.L2183
 11745 0054 283094E5 		ldr	r3, [r4, #40]
 11746 0058 006065E2 		rsb	r6, r5, #0
 11747 005c 036006E2 		and	r6, r6, #3
 11748 0060 0400A0E1 		mov	r0, r4
 11749 0064 0610A0E1 		mov	r1, r6
 11750 0068 030053E3 		cmp	r3, #3
 11751 006c 0430A093 		movls	r3, #4
 11752 0070 28308495 		strls	r3, [r4, #40]
 11753 0074 FEFFFFEB 		bl	_ZN11flatbuffers15vector_downward12ensure_spaceEj
 11754 0078 183094E5 		ldr	r3, [r4, #24]
 11755 007c 000056E3 		cmp	r6, #0
 11756 0080 000043E0 		sub	r0, r3, r0
 11757 0084 180084E5 		str	r0, [r4, #24]
 11758 0088 0800000A 		beq	.L2184
 11759 008c 010056E3 		cmp	r6, #1
 11760 0090 0030A0E3 		mov	r3, #0
 11761 0094 0030C0E5 		strb	r3, [r0]
 11762 0098 0400000A 		beq	.L2184
 11763 009c 182094E5 		ldr	r2, [r4, #24]
 11764 00a0 020056E3 		cmp	r6, #2
 11765 00a4 0130C2E5 		strb	r3, [r2, #1]
 11766 00a8 18209415 		ldrne	r2, [r4, #24]
 11767 00ac 0230C215 		strbne	r3, [r2, #2]
 11768              	.L2184:
 11769 00b0 0410A0E3 		mov	r1, #4
 11770 00b4 0400A0E1 		mov	r0, r4
 11771 00b8 FEFFFFEB 		bl	_ZN11flatbuffers15vector_downward12ensure_spaceEj
 11772 00bc 183094E5 		ldr	r3, [r4, #24]
 11773 00c0 00C0A0E3 		mov	ip, #0
 11774 00c4 142094E5 		ldr	r2, [r4, #20]
 11775 00c8 0810A0E3 		mov	r1, #8
 11776 00cc 106094E5 		ldr	r6, [r4, #16]
 11777 00d0 003043E0 		sub	r3, r3, r0
 11778 00d4 0400A0E1 		mov	r0, r4
 11779 00d8 022043E0 		sub	r2, r3, r2
 11780 00dc 183084E5 		str	r3, [r4, #24]
 11781 00e0 00C083E5 		str	ip, [r3]
 11782 00e4 026046E0 		sub	r6, r6, r2
 11783 00e8 FEFFFFEB 		bl	_ZN11flatbuffers15vector_downward12ensure_spaceEj
 11784 00ec 1C3094E5 		ldr	r3, [r4, #28]
 11785 00f0 10C0A0E3 		mov	ip, #16
 11786 00f4 202094E5 		ldr	r2, [r4, #32]
 11787 00f8 2C10D4E5 		ldrb	r1, [r4, #44]	@ zero_extendqisi2
 11788 00fc 080083E2 		add	r0, r3, #8
 11789 0100 006083E5 		str	r6, [r3]
 11790 0104 B4C0C3E1 		strh	ip, [r3, #4]	@ movhi
 11791 0108 012082E2 		add	r2, r2, #1
 11792 010c B432D4E1 		ldrh	r3, [r4, #36]
 11793 0110 1C0084E5 		str	r0, [r4, #28]
 11794 0114 202084E5 		str	r2, [r4, #32]
 11795 0118 0C0053E1 		cmp	r3, ip
 11796 011c 0C30A0B1 		movlt	r3, ip
 11797 0120 000051E3 		cmp	r1, #0
 11798 0124 B432C4E1 		strh	r3, [r4, #36]	@ movhi
 11799 0128 2600000A 		beq	.L2183
 11800 012c 283094E5 		ldr	r3, [r4, #40]
 11801 0130 0010A0E3 		mov	r1, #0
 11802 0134 0400A0E1 		mov	r0, r4
 11803 0138 000053E3 		cmp	r3, #0
 11804 013c 0130A003 		moveq	r3, #1
 11805 0140 28308405 		streq	r3, [r4, #40]
 11806 0144 FEFFFFEB 		bl	_ZN11flatbuffers15vector_downward12ensure_spaceEj
 11807 0148 183094E5 		ldr	r3, [r4, #24]
 11808 014c 0110A0E3 		mov	r1, #1
 11809 0150 003043E0 		sub	r3, r3, r0
 11810 0154 0400A0E1 		mov	r0, r4
 11811 0158 183084E5 		str	r3, [r4, #24]
 11812 015c FEFFFFEB 		bl	_ZN11flatbuffers15vector_downward12ensure_spaceEj
 11813 0160 183094E5 		ldr	r3, [r4, #24]
 11814 0164 0020A0E3 		mov	r2, #0
 11815 0168 0810A0E3 		mov	r1, #8
 11816 016c 003043E0 		sub	r3, r3, r0
 11817 0170 0400A0E1 		mov	r0, r4
 11818 0174 183084E5 		str	r3, [r4, #24]
 11819 0178 0020C3E5 		strb	r2, [r3]
 11820 017c 142094E5 		ldr	r2, [r4, #20]
 11821 0180 183094E5 		ldr	r3, [r4, #24]
 11822 0184 106094E5 		ldr	r6, [r4, #16]
 11823 0188 023043E0 		sub	r3, r3, r2
 11824 018c 036046E0 		sub	r6, r6, r3
 11825 0190 FEFFFFEB 		bl	_ZN11flatbuffers15vector_downward12ensure_spaceEj
 11826 0194 1C3094E5 		ldr	r3, [r4, #28]
 11827 0198 0C00A0E3 		mov	r0, #12
 11828 019c 202094E5 		ldr	r2, [r4, #32]
 11829 01a0 081083E2 		add	r1, r3, #8
 11830 01a4 006083E5 		str	r6, [r3]
 11831 01a8 B400C3E1 		strh	r0, [r3, #4]	@ movhi
 11832 01ac 012082E2 		add	r2, r2, #1
 11833 01b0 B432D4E1 		ldrh	r3, [r4, #36]
 11834 01b4 1C1084E5 		str	r1, [r4, #28]
 11835 01b8 202084E5 		str	r2, [r4, #32]
 11836 01bc 000053E1 		cmp	r3, r0
 11837 01c0 0030A0B1 		movlt	r3, r0
 11838 01c4 B432C4E1 		strh	r3, [r4, #36]	@ movhi
 11839              	.L2183:
 11840 01c8 0510A0E1 		mov	r1, r5
 11841 01cc 0400A0E1 		mov	r0, r4
 11842 01d0 FEFFFFEB 		bl	_ZN11flatbuffers17FlatBufferBuilder8EndTableEm
 11843 01d4 18508DE2 		add	r5, sp, #24
 11844 01d8 0060A0E1 		mov	r6, r0
 11845 01dc 0110A0E3 		mov	r1, #1
 11846 01e0 0400A0E1 		mov	r0, r4
 11847 01e4 047025E5 		str	r7, [r5, #-4]!
 11848 01e8 FEFFFFEB 		bl	_ZN11flatbuffers17FlatBufferBuilder11StartVectorEjj.constprop.148
 11849 01ec 0410A0E3 		mov	r1, #4
 11850 01f0 0400A0E1 		mov	r0, r4
 11851 01f4 FEFFFFEB 		bl	_ZN11flatbuffers15vector_downward12ensure_spaceEj
 11852 01f8 183094E5 		ldr	r3, [r4, #24]
 11853 01fc 0510A0E1 		mov	r1, r5
 11854 0200 0420A0E3 		mov	r2, #4
 11855 0204 000043E0 		sub	r0, r3, r0
 11856 0208 180084E5 		str	r0, [r4, #24]
 11857 020c FEFFFFEB 		bl	memcpy
 11858 0210 0110A0E3 		mov	r1, #1
 11859 0214 0400A0E1 		mov	r0, r4
 11860 0218 FEFFFFEB 		bl	_ZN11flatbuffers17FlatBufferBuilder9EndVectorEj
 11861 021c 001000E3 		movw	r1, #:lower16:.LC66
 11862 0220 0050A0E1 		mov	r5, r0
 11863 0224 0B20A0E3 		mov	r2, #11
 11864 0228 001040E3 		movt	r1, #:upper16:.LC66
 11865 022c 0400A0E1 		mov	r0, r4
 11866 0230 FEFFFFEB 		bl	_ZN11flatbuffers17FlatBufferBuilder12CreateStringEPKcj
 11867 0234 00C0A0E3 		mov	ip, #0
 11868 0238 0030A0E1 		mov	r3, r0
 11869 023c 0510A0E1 		mov	r1, r5
 11870 0240 00608DE5 		str	r6, [sp]
 11871 0244 0CC08DE5 		str	ip, [sp, #12]
 11872 0248 0C20A0E1 		mov	r2, ip
 11873 024c 08C08DE5 		str	ip, [sp, #8]
 11874 0250 0400A0E1 		mov	r0, r4
 11875 0254 04C08DE5 		str	ip, [sp, #4]
 11876 0258 FEFFFFEB 		bl	_ZN6tflite12CreateTensorERN11flatbuffers17FlatBufferBuilderENS0_6OffsetINS0_6VectorIlEEEENS_10T
 11877 025c 2630D4E5 		ldrb	r3, [r4, #38]	@ zero_extendqisi2
 11878 0260 0070A0E1 		mov	r7, r0
 11879 0264 205094E5 		ldr	r5, [r4, #32]
 11880 0268 000053E3 		cmp	r3, #0
 11881 026c 4700001A 		bne	.L2188
 11882 0270 000055E3 		cmp	r5, #0
 11883 0274 4400001A 		bne	.L2189
 11884 0278 142094E5 		ldr	r2, [r4, #20]
 11885 027c 0400A0E1 		mov	r0, r4
 11886 0280 186094E5 		ldr	r6, [r4, #24]
 11887 0284 101094E5 		ldr	r1, [r4, #16]
 11888 0288 283094E5 		ldr	r3, [r4, #40]
 11889 028c 026046E0 		sub	r6, r6, r2
 11890 0290 1C2084E5 		str	r2, [r4, #28]
 11891 0294 016046E0 		sub	r6, r6, r1
 11892 0298 013043E2 		sub	r3, r3, #1
 11893 029c 046046E2 		sub	r6, r6, #4
 11894 02a0 036006E0 		and	r6, r6, r3
 11895 02a4 0610A0E1 		mov	r1, r6
 11896 02a8 FEFFFFEB 		bl	_ZN11flatbuffers15vector_downward12ensure_spaceEj
 11897 02ac 183094E5 		ldr	r3, [r4, #24]
 11898 02b0 000056E3 		cmp	r6, #0
 11899 02b4 000043E0 		sub	r0, r3, r0
 11900 02b8 180084E5 		str	r0, [r4, #24]
 11901 02bc 0700000A 		beq	.L2190
 11902 02c0 0530A0E1 		mov	r3, r5
 11903 02c4 0520A0E1 		mov	r2, r5
 11904 02c8 000000EA 		b	.L2191
 11905              	.L2225:
 11906 02cc 180094E5 		ldr	r0, [r4, #24]
 11907              	.L2191:
 11908 02d0 0320C0E7 		strb	r2, [r0, r3]
 11909 02d4 013083E2 		add	r3, r3, #1
 11910 02d8 030056E1 		cmp	r6, r3
 11911 02dc FAFFFF1A 		bne	.L2225
 11912              	.L2190:
 11913 02e0 0710A0E1 		mov	r1, r7
 11914 02e4 0400A0E1 		mov	r0, r4
 11915 02e8 FEFFFFEB 		bl	_ZN11flatbuffers17FlatBufferBuilder7ReferToEm
 11916 02ec 283094E5 		ldr	r3, [r4, #40]
 11917 02f0 0060A0E1 		mov	r6, r0
 11918 02f4 185094E5 		ldr	r5, [r4, #24]
 11919 02f8 0400A0E1 		mov	r0, r4
 11920 02fc 142094E5 		ldr	r2, [r4, #20]
 11921 0300 030053E3 		cmp	r3, #3
 11922 0304 0430A093 		movls	r3, #4
 11923 0308 28308495 		strls	r3, [r4, #40]
 11924 030c 025045E0 		sub	r5, r5, r2
 11925 0310 103094E5 		ldr	r3, [r4, #16]
 11926 0314 035045E0 		sub	r5, r5, r3
 11927 0318 035005E2 		and	r5, r5, #3
 11928 031c 0510A0E1 		mov	r1, r5
 11929 0320 FEFFFFEB 		bl	_ZN11flatbuffers15vector_downward12ensure_spaceEj
 11930 0324 183094E5 		ldr	r3, [r4, #24]
 11931 0328 000055E3 		cmp	r5, #0
 11932 032c 000043E0 		sub	r0, r3, r0
 11933 0330 180084E5 		str	r0, [r4, #24]
 11934 0334 0800000A 		beq	.L2194
 11935 0338 010055E3 		cmp	r5, #1
 11936 033c 0030A0E3 		mov	r3, #0
 11937 0340 0030C0E5 		strb	r3, [r0]
 11938 0344 0400000A 		beq	.L2194
 11939 0348 182094E5 		ldr	r2, [r4, #24]
 11940 034c 020055E3 		cmp	r5, #2
 11941 0350 0130C2E5 		strb	r3, [r2, #1]
 11942 0354 18209415 		ldrne	r2, [r4, #24]
 11943 0358 0230C215 		strbne	r3, [r2, #2]
 11944              	.L2194:
 11945 035c 0410A0E3 		mov	r1, #4
 11946 0360 0400A0E1 		mov	r0, r4
 11947 0364 FEFFFFEB 		bl	_ZN11flatbuffers15vector_downward12ensure_spaceEj
 11948 0368 183094E5 		ldr	r3, [r4, #24]
 11949 036c 0120A0E3 		mov	r2, #1
 11950 0370 003043E0 		sub	r3, r3, r0
 11951 0374 0300A0E1 		mov	r0, r3
 11952 0378 183084E5 		str	r3, [r4, #24]
 11953 037c 066080E6 		str	r6, [r0], r6
 11954 0380 2720C4E5 		strb	r2, [r4, #39]
 11955 0384 1CD08DE2 		add	sp, sp, #28
 11956              		@ sp needed
 11957 0388 F080BDE8 		pop	{r4, r5, r6, r7, pc}
 11958              	.L2189:
 11959 038c FEFFFFEB 		bl	_ZN11flatbuffers17FlatBufferBuilder9NotNestedEv.isra.19.part.20
 11960              	.L2188:
 11961 0390 003000E3 		movw	r3, #:lower16:.LC24
 11962 0394 002000E3 		movw	r2, #:lower16:.LANCHOR11
 11963 0398 000000E3 		movw	r0, #:lower16:.LC19
 11964 039c 003040E3 		movt	r3, #:upper16:.LC24
 11965 03a0 002040E3 		movt	r2, #:upper16:.LANCHOR11
 11966 03a4 000040E3 		movt	r0, #:upper16:.LC19
 11967 03a8 481500E3 		movw	r1, #1352
 11968 03ac FEFFFFEB 		bl	__assert_func
 11969              		.fnend
 11971              		.section	.text._ZN6tflite7testing23CreateFlatbufferBuffersEv,"ax",%progbits
 11972              		.align	2
 11973              		.global	_ZN6tflite7testing23CreateFlatbufferBuffersEv
 11974              		.syntax unified
 11975              		.arm
 11976              		.fpu neon
 11978              	_ZN6tflite7testing23CreateFlatbufferBuffersEv:
 11979              		.fnstart
 11980              	.LFB7025:
 11981              		@ args = 0, pretend = 0, frame = 0
 11982              		@ frame_needed = 0, uses_anonymous_args = 0
 11983 0000 F0412DE9 		push	{r4, r5, r6, r7, r8, lr}
 11984              		.save {r4, r5, r6, r7, r8, lr}
 11985 0004 FEFFFFEB 		bl	_ZN6tflite7testing12_GLOBAL__N_115BuilderInstanceEv
 11986 0008 0010A0E3 		mov	r1, #0
 11987 000c 0040A0E1 		mov	r4, r0
 11988 0010 FEFFFFEB 		bl	_ZN6tflite12CreateBufferERN11flatbuffers17FlatBufferBuilderENS0_6OffsetINS0_6VectorIhEEEE
 11989 0014 0110A0E3 		mov	r1, #1
 11990 0018 0060A0E1 		mov	r6, r0
 11991 001c 0400A0E1 		mov	r0, r4
 11992 0020 FEFFFFEB 		bl	_ZN11flatbuffers17FlatBufferBuilder11StartVectorEjj.constprop.148
 11993 0024 283094E5 		ldr	r3, [r4, #40]
 11994 0028 0400A0E1 		mov	r0, r4
 11995 002c 185094E5 		ldr	r5, [r4, #24]
 11996 0030 142094E5 		ldr	r2, [r4, #20]
 11997 0034 030053E3 		cmp	r3, #3
 11998 0038 0430A093 		movls	r3, #4
 11999 003c 28308495 		strls	r3, [r4, #40]
 12000 0040 025045E0 		sub	r5, r5, r2
 12001 0044 103094E5 		ldr	r3, [r4, #16]
 12002 0048 035045E0 		sub	r5, r5, r3
 12003 004c 035005E2 		and	r5, r5, #3
 12004 0050 0510A0E1 		mov	r1, r5
 12005 0054 FEFFFFEB 		bl	_ZN11flatbuffers15vector_downward12ensure_spaceEj
 12006 0058 183094E5 		ldr	r3, [r4, #24]
 12007 005c 000055E3 		cmp	r5, #0
 12008 0060 000043E0 		sub	r0, r3, r0
 12009 0064 180084E5 		str	r0, [r4, #24]
 12010 0068 0800000A 		beq	.L2228
 12011 006c 010055E3 		cmp	r5, #1
 12012 0070 0030A0E3 		mov	r3, #0
 12013 0074 0030C0E5 		strb	r3, [r0]
 12014 0078 0400000A 		beq	.L2228
 12015 007c 182094E5 		ldr	r2, [r4, #24]
 12016 0080 020055E3 		cmp	r5, #2
 12017 0084 0130C2E5 		strb	r3, [r2, #1]
 12018 0088 18209415 		ldrne	r2, [r4, #24]
 12019 008c 0230C215 		strbne	r3, [r2, #2]
 12020              	.L2228:
 12021 0090 000056E3 		cmp	r6, #0
 12022 0094 7400000A 		beq	.L2229
 12023 0098 182094E5 		ldr	r2, [r4, #24]
 12024 009c 141094E5 		ldr	r1, [r4, #20]
 12025 00a0 103094E5 		ldr	r3, [r4, #16]
 12026 00a4 012042E0 		sub	r2, r2, r1
 12027 00a8 023043E0 		sub	r3, r3, r2
 12028 00ac 030056E1 		cmp	r6, r3
 12029 00b0 6D00008A 		bhi	.L2229
 12030 00b4 282094E5 		ldr	r2, [r4, #40]
 12031 00b8 046066E2 		rsb	r6, r6, #4
 12032 00bc 036086E0 		add	r6, r6, r3
 12033 00c0 003063E2 		rsb	r3, r3, #0
 12034 00c4 035003E2 		and	r5, r3, #3
 12035 00c8 0400A0E1 		mov	r0, r4
 12036 00cc 030052E3 		cmp	r2, #3
 12037 00d0 0510A0E1 		mov	r1, r5
 12038 00d4 0420A093 		movls	r2, #4
 12039 00d8 28208495 		strls	r2, [r4, #40]
 12040 00dc FEFFFFEB 		bl	_ZN11flatbuffers15vector_downward12ensure_spaceEj
 12041 00e0 183094E5 		ldr	r3, [r4, #24]
 12042 00e4 000055E3 		cmp	r5, #0
 12043 00e8 000043E0 		sub	r0, r3, r0
 12044 00ec 180084E5 		str	r0, [r4, #24]
 12045 00f0 0800000A 		beq	.L2231
 12046 00f4 010055E3 		cmp	r5, #1
 12047 00f8 0030A0E3 		mov	r3, #0
 12048 00fc 0030C0E5 		strb	r3, [r0]
 12049 0100 0400000A 		beq	.L2231
 12050 0104 182094E5 		ldr	r2, [r4, #24]
 12051 0108 020055E3 		cmp	r5, #2
 12052 010c 0130C2E5 		strb	r3, [r2, #1]
 12053 0110 18209415 		ldrne	r2, [r4, #24]
 12054 0114 0230C215 		strbne	r3, [r2, #2]
 12055              	.L2231:
 12056 0118 0410A0E3 		mov	r1, #4
 12057 011c 0400A0E1 		mov	r0, r4
 12058 0120 FEFFFFEB 		bl	_ZN11flatbuffers15vector_downward12ensure_spaceEj
 12059 0124 183094E5 		ldr	r3, [r4, #24]
 12060 0128 0110A0E3 		mov	r1, #1
 12061 012c 003043E0 		sub	r3, r3, r0
 12062 0130 0400A0E1 		mov	r0, r4
 12063 0134 183084E5 		str	r3, [r4, #24]
 12064 0138 006083E5 		str	r6, [r3]
 12065 013c FEFFFFEB 		bl	_ZN11flatbuffers17FlatBufferBuilder9EndVectorEj
 12066 0140 2630D4E5 		ldrb	r3, [r4, #38]	@ zero_extendqisi2
 12067 0144 0070A0E1 		mov	r7, r0
 12068 0148 205094E5 		ldr	r5, [r4, #32]
 12069 014c 000053E3 		cmp	r3, #0
 12070 0150 4E00001A 		bne	.L2277
 12071 0154 000055E3 		cmp	r5, #0
 12072 0158 4B00001A 		bne	.L2278
 12073 015c 142094E5 		ldr	r2, [r4, #20]
 12074 0160 0400A0E1 		mov	r0, r4
 12075 0164 186094E5 		ldr	r6, [r4, #24]
 12076 0168 101094E5 		ldr	r1, [r4, #16]
 12077 016c 283094E5 		ldr	r3, [r4, #40]
 12078 0170 026046E0 		sub	r6, r6, r2
 12079 0174 1C2084E5 		str	r2, [r4, #28]
 12080 0178 016046E0 		sub	r6, r6, r1
 12081 017c 013043E2 		sub	r3, r3, #1
 12082 0180 046046E2 		sub	r6, r6, #4
 12083 0184 036006E0 		and	r6, r6, r3
 12084 0188 0610A0E1 		mov	r1, r6
 12085 018c FEFFFFEB 		bl	_ZN11flatbuffers15vector_downward12ensure_spaceEj
 12086 0190 183094E5 		ldr	r3, [r4, #24]
 12087 0194 000056E3 		cmp	r6, #0
 12088 0198 000043E0 		sub	r0, r3, r0
 12089 019c 180084E5 		str	r0, [r4, #24]
 12090 01a0 0700000A 		beq	.L2235
 12091 01a4 0530A0E1 		mov	r3, r5
 12092 01a8 0520A0E1 		mov	r2, r5
 12093 01ac 000000EA 		b	.L2236
 12094              	.L2279:
 12095 01b0 180094E5 		ldr	r0, [r4, #24]
 12096              	.L2236:
 12097 01b4 0320C0E7 		strb	r2, [r0, r3]
 12098 01b8 013083E2 		add	r3, r3, #1
 12099 01bc 030056E1 		cmp	r6, r3
 12100 01c0 FAFFFF1A 		bne	.L2279
 12101              	.L2235:
 12102 01c4 0710A0E1 		mov	r1, r7
 12103 01c8 0400A0E1 		mov	r0, r4
 12104 01cc FEFFFFEB 		bl	_ZN11flatbuffers17FlatBufferBuilder7ReferToEm
 12105 01d0 283094E5 		ldr	r3, [r4, #40]
 12106 01d4 0060A0E1 		mov	r6, r0
 12107 01d8 185094E5 		ldr	r5, [r4, #24]
 12108 01dc 0400A0E1 		mov	r0, r4
 12109 01e0 142094E5 		ldr	r2, [r4, #20]
 12110 01e4 030053E3 		cmp	r3, #3
 12111 01e8 0430A093 		movls	r3, #4
 12112 01ec 28308495 		strls	r3, [r4, #40]
 12113 01f0 025045E0 		sub	r5, r5, r2
 12114 01f4 103094E5 		ldr	r3, [r4, #16]
 12115 01f8 035045E0 		sub	r5, r5, r3
 12116 01fc 035005E2 		and	r5, r5, #3
 12117 0200 0510A0E1 		mov	r1, r5
 12118 0204 FEFFFFEB 		bl	_ZN11flatbuffers15vector_downward12ensure_spaceEj
 12119 0208 183094E5 		ldr	r3, [r4, #24]
 12120 020c 000055E3 		cmp	r5, #0
 12121 0210 000043E0 		sub	r0, r3, r0
 12122 0214 180084E5 		str	r0, [r4, #24]
 12123 0218 0800000A 		beq	.L2239
 12124 021c 010055E3 		cmp	r5, #1
 12125 0220 0030A0E3 		mov	r3, #0
 12126 0224 0030C0E5 		strb	r3, [r0]
 12127 0228 0400000A 		beq	.L2239
 12128 022c 182094E5 		ldr	r2, [r4, #24]
 12129 0230 020055E3 		cmp	r5, #2
 12130 0234 0130C2E5 		strb	r3, [r2, #1]
 12131 0238 18209415 		ldrne	r2, [r4, #24]
 12132 023c 0230C215 		strbne	r3, [r2, #2]
 12133              	.L2239:
 12134 0240 0410A0E3 		mov	r1, #4
 12135 0244 0400A0E1 		mov	r0, r4
 12136 0248 FEFFFFEB 		bl	_ZN11flatbuffers15vector_downward12ensure_spaceEj
 12137 024c 183094E5 		ldr	r3, [r4, #24]
 12138 0250 0120A0E3 		mov	r2, #1
 12139 0254 003043E0 		sub	r3, r3, r0
 12140 0258 0300A0E1 		mov	r0, r3
 12141 025c 183084E5 		str	r3, [r4, #24]
 12142 0260 066080E6 		str	r6, [r0], r6
 12143 0264 2720C4E5 		strb	r2, [r4, #39]
 12144 0268 F081BDE8 		pop	{r4, r5, r6, r7, r8, pc}
 12145              	.L2229:
 12146 026c 003000E3 		movw	r3, #:lower16:.LC25
 12147 0270 002000E3 		movw	r2, #:lower16:.LANCHOR13
 12148 0274 000000E3 		movw	r0, #:lower16:.LC19
 12149 0278 003040E3 		movt	r3, #:upper16:.LC25
 12150 027c 002040E3 		movt	r2, #:upper16:.LANCHOR13
 12151 0280 000040E3 		movt	r0, #:upper16:.LC19
 12152 0284 3B1500E3 		movw	r1, #1339
 12153 0288 FEFFFFEB 		bl	__assert_func
 12154              	.L2278:
 12155 028c FEFFFFEB 		bl	_ZN11flatbuffers17FlatBufferBuilder9NotNestedEv.isra.19.part.20
 12156              	.L2277:
 12157 0290 003000E3 		movw	r3, #:lower16:.LC24
 12158 0294 002000E3 		movw	r2, #:lower16:.LANCHOR11
 12159 0298 000000E3 		movw	r0, #:lower16:.LC19
 12160 029c 003040E3 		movt	r3, #:upper16:.LC24
 12161 02a0 002040E3 		movt	r2, #:upper16:.LANCHOR11
 12162 02a4 000040E3 		movt	r0, #:upper16:.LC19
 12163 02a8 481500E3 		movw	r1, #1352
 12164 02ac FEFFFFEB 		bl	__assert_func
 12165              		.fnend
 12167              		.section	.text._ZN6tflite7testing10TestStrcmpEPKcS2_,"ax",%progbits
 12168              		.align	2
 12169              		.global	_ZN6tflite7testing10TestStrcmpEPKcS2_
 12170              		.syntax unified
 12171              		.arm
 12172              		.fpu neon
 12174              	_ZN6tflite7testing10TestStrcmpEPKcS2_:
 12175              		.fnstart
 12176              	.LFB7026:
 12177              		@ args = 0, pretend = 0, frame = 0
 12178              		@ frame_needed = 0, uses_anonymous_args = 0
 12179              		@ link register save eliminated.
 12180 0000 000051E3 		cmp	r1, #0
 12181 0004 00005013 		cmpne	r0, #0
 12182 0008 0F00000A 		beq	.L2287
 12183 000c 0030D0E5 		ldrb	r3, [r0]	@ zero_extendqisi2
 12184 0010 0020D1E5 		ldrb	r2, [r1]	@ zero_extendqisi2
 12185 0014 000053E3 		cmp	r3, #0
 12186 0018 0900000A 		beq	.L2283
 12187 001c 030052E1 		cmp	r2, r3
 12188 0020 0300000A 		beq	.L2285
 12189 0024 060000EA 		b	.L2283
 12190              	.L2286:
 12191 0028 0120F1E5 		ldrb	r2, [r1, #1]!	@ zero_extendqisi2
 12192 002c 020053E1 		cmp	r3, r2
 12193 0030 0300001A 		bne	.L2283
 12194              	.L2285:
 12195 0034 0130F0E5 		ldrb	r3, [r0, #1]!	@ zero_extendqisi2
 12196 0038 000053E3 		cmp	r3, #0
 12197 003c F9FFFF1A 		bne	.L2286
 12198 0040 0120D1E5 		ldrb	r2, [r1, #1]	@ zero_extendqisi2
 12199              	.L2283:
 12200 0044 020043E0 		sub	r0, r3, r2
 12201 0048 1EFF2FE1 		bx	lr
 12202              	.L2287:
 12203 004c 0000E0E3 		mvn	r0, #0
 12204 0050 1EFF2FE1 		bx	lr
 12205              		.cantunwind
 12206              		.fnend
 12208              		.section	.text._ZN6tflite7testing13ReportOpErrorEP13TfLiteContextPKcz,"ax",%progbits
 12209              		.align	2
 12210              		.global	_ZN6tflite7testing13ReportOpErrorEP13TfLiteContextPKcz
 12211              		.syntax unified
 12212              		.arm
 12213              		.fpu neon
 12215              	_ZN6tflite7testing13ReportOpErrorEP13TfLiteContextPKcz:
 12216              		.fnstart
 12217              	.LFB7027:
 12218              		@ args = 4, pretend = 12, frame = 0
 12219              		@ frame_needed = 0, uses_anonymous_args = 1
 12220              		@ link register save eliminated.
 12221 0000 0E002DE9 		push	{r1, r2, r3}
 12222 0004 0CD08DE2 		add	sp, sp, #12
 12223 0008 1EFF2FE1 		bx	lr
 12224              		.cantunwind
 12225              		.fnend
 12227              		.section	.text._ZN6tflite7testing16IntArrayFromIntsEPi,"ax",%progbits
 12228              		.align	2
 12229              		.global	_ZN6tflite7testing16IntArrayFromIntsEPi
 12230              		.syntax unified
 12231              		.arm
 12232              		.fpu neon
 12234              	_ZN6tflite7testing16IntArrayFromIntsEPi:
 12235              		.fnstart
 12236              	.LFB7028:
 12237              		@ args = 0, pretend = 0, frame = 0
 12238              		@ frame_needed = 0, uses_anonymous_args = 0
 12239              		@ link register save eliminated.
 12240 0000 1EFF2FE1 		bx	lr
 12241              		.cantunwind
 12242              		.fnend
 12244              		.section	.text._ZN6tflite7testing20FloatArrayFromFloatsEPKf,"ax",%progbits
 12245              		.align	2
 12246              		.global	_ZN6tflite7testing20FloatArrayFromFloatsEPKf
 12247              		.syntax unified
 12248              		.arm
 12249              		.fpu neon
 12251              	_ZN6tflite7testing20FloatArrayFromFloatsEPKf:
 12252              		.fnstart
 12253              	.LFB7029:
 12254              		@ args = 0, pretend = 0, frame = 0
 12255              		@ frame_needed = 0, uses_anonymous_args = 0
 12256              		@ link register save eliminated.
 12257 0000 007AD0ED 		vldr.32	s15, [r0]
 12258 0004 E77AFDEE 		vcvt.s32.f32	s15, s15
 12259 0008 007AC0ED 		vstr.32	s15, [r0]	@ int
 12260 000c 1EFF2FE1 		bx	lr
 12261              		.cantunwind
 12262              		.fnend
 12264              		.section	.text._ZN6tflite7testing25CreateQuantizedBiasTensorEPKfPlP14TfLiteIntArrayffb,"ax",%progb
 12265              		.align	2
 12266              		.global	_ZN6tflite7testing25CreateQuantizedBiasTensorEPKfPlP14TfLiteIntArrayffb
 12267              		.syntax unified
 12268              		.arm
 12269              		.fpu neon
 12271              	_ZN6tflite7testing25CreateQuantizedBiasTensorEPKfPlP14TfLiteIntArrayffb:
 12272              		.fnstart
 12273              	.LFB7030:
 12274              		@ args = 4, pretend = 0, frame = 8
 12275              		@ frame_needed = 0, uses_anonymous_args = 0
 12276 0000 F04F2DE9 		push	{r4, r5, r6, r7, r8, r9, r10, fp, lr}
 12277              		.save {r4, r5, r6, r7, r8, r9, r10, fp, lr}
 12278 0004 0390A0E1 		mov	r9, r3
 12279 0008 028B2DED 		vpush.64	{d8}
 12280              		.vsave {d8}
 12281              		.pad #12
 12282 000c 0CD04DE2 		sub	sp, sp, #12
 12283 0010 0060A0E1 		mov	r6, r0
 12284 0014 0300A0E1 		mov	r0, r3
 12285 0018 3830DDE5 		ldrb	r3, [sp, #56]	@ zero_extendqisi2
 12286 001c 02A0A0E1 		mov	r10, r2
 12287 0020 00108DE5 		str	r1, [sp]
 12288 0024 208A20EE 		vmul.f32	s16, s0, s1
 12289 0028 04308DE5 		str	r3, [sp, #4]
 12290 002c FEFFFFEB 		bl	_ZN6tflite12ElementCountERK14TfLiteIntArray
 12291 0030 007050E2 		subs	r7, r0, #0
 12292 0034 670000DA 		ble	.L2297
 12293 0038 080057E3 		cmp	r7, #8
 12294 003c 7B0000DA 		ble	.L2299
 12295 0040 00309DE5 		ldr	r3, [sp]
 12296 0044 098047E2 		sub	r8, r7, #9
 12297 0048 0780C8E3 		bic	r8, r8, #7
 12298 004c 18408AE2 		add	r4, r10, #24
 12299 0050 088088E2 		add	r8, r8, #8
 12300 0054 00B0A0E3 		mov	fp, #0
 12301 0058 185083E2 		add	r5, r3, #24
 12302              	.L2296:
 12303 005c 067A55ED 		vldr.32	s15, [r5, #-24]
 12304 0060 08B08BE2 		add	fp, fp, #8
 12305 0064 00F0D5F5 		pld	[r5]
 12306 0068 205085E2 		add	r5, r5, #32
 12307 006c 00F0D4F5 		pld	[r4]
 12308 0070 204084E2 		add	r4, r4, #32
 12309 0074 880A87EE 		vdiv.f32	s0, s15, s16
 12310 0078 C00AB7EE 		vcvt.f64.f32	d0, s0
 12311 007c FEFFFFEB 		bl	round
 12312 0080 0D7A55ED 		vldr.32	s15, [r5, #-52]
 12313 0084 C07BBDEE 		vcvt.s32.f64	s14, d0
 12314 0088 880A87EE 		vdiv.f32	s0, s15, s16
 12315 008c 101A17EE 		vmov	r1, s14	@ int
 12316 0090 060151E3 		cmp	r1, #-2147483647
 12317 0094 0611A0B3 		movlt	r1, #-2147483647
 12318 0098 381004E5 		str	r1, [r4, #-56]
 12319 009c C00AB7EE 		vcvt.f64.f32	d0, s0
 12320 00a0 FEFFFFEB 		bl	round
 12321 00a4 0C7A55ED 		vldr.32	s15, [r5, #-48]
 12322 00a8 C07BBDEE 		vcvt.s32.f64	s14, d0
 12323 00ac 880A87EE 		vdiv.f32	s0, s15, s16
 12324 00b0 101A17EE 		vmov	r1, s14	@ int
 12325 00b4 060151E3 		cmp	r1, #-2147483647
 12326 00b8 0611A0B3 		movlt	r1, #-2147483647
 12327 00bc 341004E5 		str	r1, [r4, #-52]
 12328 00c0 C00AB7EE 		vcvt.f64.f32	d0, s0
 12329 00c4 FEFFFFEB 		bl	round
 12330 00c8 0B7A55ED 		vldr.32	s15, [r5, #-44]
 12331 00cc C07BBDEE 		vcvt.s32.f64	s14, d0
 12332 00d0 880A87EE 		vdiv.f32	s0, s15, s16
 12333 00d4 101A17EE 		vmov	r1, s14	@ int
 12334 00d8 060151E3 		cmp	r1, #-2147483647
 12335 00dc 0611A0B3 		movlt	r1, #-2147483647
 12336 00e0 301004E5 		str	r1, [r4, #-48]
 12337 00e4 C00AB7EE 		vcvt.f64.f32	d0, s0
 12338 00e8 FEFFFFEB 		bl	round
 12339 00ec 0A7A55ED 		vldr.32	s15, [r5, #-40]
 12340 00f0 C07BBDEE 		vcvt.s32.f64	s14, d0
 12341 00f4 880A87EE 		vdiv.f32	s0, s15, s16
 12342 00f8 101A17EE 		vmov	r1, s14	@ int
 12343 00fc 060151E3 		cmp	r1, #-2147483647
 12344 0100 0611A0B3 		movlt	r1, #-2147483647
 12345 0104 2C1004E5 		str	r1, [r4, #-44]
 12346 0108 C00AB7EE 		vcvt.f64.f32	d0, s0
 12347 010c FEFFFFEB 		bl	round
 12348 0110 097A55ED 		vldr.32	s15, [r5, #-36]
 12349 0114 C07BBDEE 		vcvt.s32.f64	s14, d0
 12350 0118 880A87EE 		vdiv.f32	s0, s15, s16
 12351 011c 101A17EE 		vmov	r1, s14	@ int
 12352 0120 060151E3 		cmp	r1, #-2147483647
 12353 0124 0611A0B3 		movlt	r1, #-2147483647
 12354 0128 281004E5 		str	r1, [r4, #-40]
 12355 012c C00AB7EE 		vcvt.f64.f32	d0, s0
 12356 0130 FEFFFFEB 		bl	round
 12357 0134 087A55ED 		vldr.32	s15, [r5, #-32]
 12358 0138 C07BBDEE 		vcvt.s32.f64	s14, d0
 12359 013c 880A87EE 		vdiv.f32	s0, s15, s16
 12360 0140 101A17EE 		vmov	r1, s14	@ int
 12361 0144 060151E3 		cmp	r1, #-2147483647
 12362 0148 0611A0B3 		movlt	r1, #-2147483647
 12363 014c 241004E5 		str	r1, [r4, #-36]
 12364 0150 C00AB7EE 		vcvt.f64.f32	d0, s0
 12365 0154 FEFFFFEB 		bl	round
 12366 0158 077A55ED 		vldr.32	s15, [r5, #-28]
 12367 015c C07BBDEE 		vcvt.s32.f64	s14, d0
 12368 0160 880A87EE 		vdiv.f32	s0, s15, s16
 12369 0164 101A17EE 		vmov	r1, s14	@ int
 12370 0168 060151E3 		cmp	r1, #-2147483647
 12371 016c 0611A0B3 		movlt	r1, #-2147483647
 12372 0170 201004E5 		str	r1, [r4, #-32]
 12373 0174 C00AB7EE 		vcvt.f64.f32	d0, s0
 12374 0178 FEFFFFEB 		bl	round
 12375 017c C07BFDEE 		vcvt.s32.f64	s15, d0
 12376 0180 901A17EE 		vmov	r1, s15	@ int
 12377 0184 060151E3 		cmp	r1, #-2147483647
 12378 0188 0611A0B3 		movlt	r1, #-2147483647
 12379 018c 08005BE1 		cmp	fp, r8
 12380 0190 1C1004E5 		str	r1, [r4, #-28]
 12381 0194 B0FFFF1A 		bne	.L2296
 12382              	.L2295:
 12383 0198 00309DE5 		ldr	r3, [sp]
 12384 019c 0B41A0E1 		lsl	r4, fp, #2
 12385 01a0 045083E0 		add	r5, r3, r4
 12386 01a4 04408AE0 		add	r4, r10, r4
 12387              	.L2298:
 12388 01a8 017AF5EC 		vldmia.32	r5!, {s15}
 12389 01ac 01B08BE2 		add	fp, fp, #1
 12390 01b0 880A87EE 		vdiv.f32	s0, s15, s16
 12391 01b4 C00AB7EE 		vcvt.f64.f32	d0, s0
 12392 01b8 FEFFFFEB 		bl	round
 12393 01bc C07BFDEE 		vcvt.s32.f64	s15, d0
 12394 01c0 903A17EE 		vmov	r3, s15	@ int
 12395 01c4 060153E3 		cmp	r3, #-2147483647
 12396 01c8 0631A0B3 		movlt	r3, #-2147483647
 12397 01cc 0B0057E1 		cmp	r7, fp
 12398 01d0 043084E4 		str	r3, [r4], #4
 12399 01d4 F3FFFFCA 		bgt	.L2298
 12400              	.L2297:
 12401 01d8 04E0DDE5 		ldrb	lr, [sp, #4]	@ zero_extendqisi2
 12402 01dc 0030A0E3 		mov	r3, #0
 12403 01e0 02C0A0E3 		mov	ip, #2
 12404 01e4 0110A0E3 		mov	r1, #1
 12405 01e8 089086E5 		str	r9, [r6, #8]
 12406 01ec 0900A0E1 		mov	r0, r9
 12407 01f0 2DE0C6E5 		strb	lr, [r6, #45]
 12408 01f4 04A086E5 		str	r10, [r6, #4]
 12409 01f8 103086E5 		str	r3, [r6, #16]
 12410 01fc 0C3086E5 		str	r3, [r6, #12]
 12411 0200 343086E5 		str	r3, [r6, #52]
 12412 0204 1430C6E5 		strb	r3, [r6, #20]
 12413 0208 00C0C6E5 		strb	ip, [r6]
 12414 020c 3010C6E5 		strb	r1, [r6, #48]
 12415 0210 FEFFFFEB 		bl	_ZN6tflite12ElementCountERK14TfLiteIntArray
 12416 0214 0001A0E1 		lsl	r0, r0, #2
 12417 0218 038A86ED 		vstr.32	s16, [r6, #12]
 12418 021c 180086E5 		str	r0, [r6, #24]
 12419 0220 0600A0E1 		mov	r0, r6
 12420 0224 0CD08DE2 		add	sp, sp, #12
 12421              		@ sp needed
 12422 0228 028BBDEC 		vldm	sp!, {d8}
 12423 022c F08FBDE8 		pop	{r4, r5, r6, r7, r8, r9, r10, fp, pc}
 12424              	.L2299:
 12425 0230 00B0A0E3 		mov	fp, #0
 12426 0234 D7FFFFEA 		b	.L2295
 12427              		.fnend
 12429              		.global	__aeabi_idiv
 12430              		.section	.text._ZN6tflite7testing35CreatePerChannelQuantizedBiasTensorEPKfPlP14TfLiteIntArrayfPfS6
 12431              		.align	2
 12432              		.global	_ZN6tflite7testing35CreatePerChannelQuantizedBiasTensorEPKfPlP14TfLiteIntArrayfPfS6_PiP24T
 12433              		.syntax unified
 12434              		.arm
 12435              		.fpu neon
 12437              	_ZN6tflite7testing35CreatePerChannelQuantizedBiasTensorEPKfPlP14TfLiteIntArrayfPfS6_PiP24TfLiteAffi
 12438              		.fnstart
 12439              	.LFB7031:
 12440              		@ args = 24, pretend = 0, frame = 32
 12441              		@ frame_needed = 0, uses_anonymous_args = 0
 12442 0000 F04F2DE9 		push	{r4, r5, r6, r7, r8, r9, r10, fp, lr}
 12443              		.save {r4, r5, r6, r7, r8, r9, r10, fp, lr}
 12444 0004 0340A0E1 		mov	r4, r3
 12445 0008 028B2DED 		vpush.64	{d8}
 12446              		.vsave {d8}
 12447              		.pad #36
 12448 000c 24D04DE2 		sub	sp, sp, #36
 12449 0010 18308DE5 		str	r3, [sp, #24]
 12450 0014 14008DE5 		str	r0, [sp, #20]
 12451 0018 0300A0E1 		mov	r0, r3
 12452 001c 6430DDE5 		ldrb	r3, [sp, #100]	@ zero_extendqisi2
 12453 0020 04208DE5 		str	r2, [sp, #4]
 12454 0024 08108DE5 		str	r1, [sp, #8]
 12455 0028 1C308DE5 		str	r3, [sp, #28]
 12456 002c 408AB0EE 		vmov.f32	s16, s0
 12457 0030 50609DE5 		ldr	r6, [sp, #80]
 12458 0034 FEFFFFEB 		bl	_ZN6tflite12ElementCountERK14TfLiteIntArray
 12459 0038 60209DE5 		ldr	r2, [sp, #96]
 12460 003c 023184E0 		add	r3, r4, r2, lsl #2
 12461 0040 044093E5 		ldr	r4, [r3, #4]
 12462 0044 58309DE5 		ldr	r3, [sp, #88]
 12463 0048 000054E3 		cmp	r4, #0
 12464 004c 904A07EE 		vmov	s15, r4	@ int
 12465 0050 004083E5 		str	r4, [r3]
 12466 0054 E77AF8EE 		vcvt.f32.s32	s15, s15
 12467 0058 54309DE5 		ldr	r3, [sp, #84]
 12468 005c 007AC3ED 		vstr.32	s15, [r3]
 12469 0060 C70000DA 		ble	.L2304
 12470 0064 080054E3 		cmp	r4, #8
 12471 0068 EA0000DA 		ble	.L2316
 12472 006c 095044E2 		sub	r5, r4, #9
 12473 0070 58C09DE5 		ldr	ip, [sp, #88]
 12474 0074 0010A0E3 		mov	r1, #0
 12475 0078 0750C5E3 		bic	r5, r5, #7
 12476 007c 01E0A0E1 		mov	lr, r1
 12477 0080 085085E2 		add	r5, r5, #8
 12478 0084 402086E2 		add	r2, r6, #64
 12479 0088 443083E2 		add	r3, r3, #68
 12480              	.L2306:
 12481 008c 107A52ED 		vldr.32	s15, [r2, #-64]
 12482 0090 081081E2 		add	r1, r1, #8
 12483 0094 00F0D2F5 		pld	[r2]
 12484 0098 050051E1 		cmp	r1, r5
 12485 009c 00F0D3F5 		pld	[r3]
 12486 00a0 202082E2 		add	r2, r2, #32
 12487 00a4 203083E2 		add	r3, r3, #32
 12488 00a8 887A67EE 		vmul.f32	s15, s15, s16
 12489 00ac 187A43ED 		vstr.32	s15, [r3, #-96]
 12490 00b0 177A52ED 		vldr.32	s15, [r2, #-92]
 12491 00b4 04E08CE5 		str	lr, [ip, #4]
 12492 00b8 887A67EE 		vmul.f32	s15, s15, s16
 12493 00bc 177A43ED 		vstr.32	s15, [r3, #-92]
 12494 00c0 167A52ED 		vldr.32	s15, [r2, #-88]
 12495 00c4 08E08CE5 		str	lr, [ip, #8]
 12496 00c8 887A67EE 		vmul.f32	s15, s15, s16
 12497 00cc 167A43ED 		vstr.32	s15, [r3, #-88]
 12498 00d0 157A52ED 		vldr.32	s15, [r2, #-84]
 12499 00d4 0CE08CE5 		str	lr, [ip, #12]
 12500 00d8 887A67EE 		vmul.f32	s15, s15, s16
 12501 00dc 157A43ED 		vstr.32	s15, [r3, #-84]
 12502 00e0 147A52ED 		vldr.32	s15, [r2, #-80]
 12503 00e4 10E08CE5 		str	lr, [ip, #16]
 12504 00e8 887A67EE 		vmul.f32	s15, s15, s16
 12505 00ec 147A43ED 		vstr.32	s15, [r3, #-80]
 12506 00f0 137A52ED 		vldr.32	s15, [r2, #-76]
 12507 00f4 14E08CE5 		str	lr, [ip, #20]
 12508 00f8 887A67EE 		vmul.f32	s15, s15, s16
 12509 00fc 137A43ED 		vstr.32	s15, [r3, #-76]
 12510 0100 127A52ED 		vldr.32	s15, [r2, #-72]
 12511 0104 18E08CE5 		str	lr, [ip, #24]
 12512 0108 887A67EE 		vmul.f32	s15, s15, s16
 12513 010c 127A43ED 		vstr.32	s15, [r3, #-72]
 12514 0110 117A52ED 		vldr.32	s15, [r2, #-68]
 12515 0114 1CE08CE5 		str	lr, [ip, #28]
 12516 0118 887A67EE 		vmul.f32	s15, s15, s16
 12517 011c 117A43ED 		vstr.32	s15, [r3, #-68]
 12518 0120 20E0ACE5 		str	lr, [ip, #32]!
 12519 0124 D8FFFF1A 		bne	.L2306
 12520 0128 54509DE5 		ldr	r5, [sp, #84]
 12521              	.L2305:
 12522 012c 0131A0E1 		lsl	r3, r1, #2
 12523 0130 00E0A0E3 		mov	lr, #0
 12524 0134 042083E2 		add	r2, r3, #4
 12525 0138 03C086E0 		add	ip, r6, r3
 12526 013c 022085E0 		add	r2, r5, r2
 12527 0140 58509DE5 		ldr	r5, [sp, #88]
 12528 0144 033085E0 		add	r3, r5, r3
 12529              	.L2308:
 12530 0148 017AFCEC 		vldmia.32	ip!, {s15}
 12531 014c 011081E2 		add	r1, r1, #1
 12532 0150 010054E1 		cmp	r4, r1
 12533 0154 277A68EE 		vmul.f32	s15, s16, s15
 12534 0158 017AE2EC 		vstmia.32	r2!, {s15}
 12535 015c 04E0A3E5 		str	lr, [r3, #4]!
 12536 0160 F8FFFFCA 		bgt	.L2308
 12537 0164 0410A0E1 		mov	r1, r4
 12538 0168 FEFFFFEB 		bl	__aeabi_idiv
 12539 016c 005050E2 		subs	r5, r0, #0
 12540 0170 810000DA 		ble	.L2311
 12541 0174 013084E2 		add	r3, r4, #1
 12542 0178 096045E2 		sub	r6, r5, #9
 12543 017c 10308DE5 		str	r3, [sp, #16]
 12544 0180 0531A0E1 		lsl	r3, r5, #2
 12545 0184 0760C6E3 		bic	r6, r6, #7
 12546 0188 0C308DE5 		str	r3, [sp, #12]
 12547 018c 086086E2 		add	r6, r6, #8
 12548 0190 08309DE5 		ldr	r3, [sp, #8]
 12549 0194 0080A0E3 		mov	r8, #0
 12550 0198 0170A0E3 		mov	r7, #1
 12551 019c 18A083E2 		add	r10, r3, #24
 12552 01a0 04309DE5 		ldr	r3, [sp, #4]
 12553 01a4 183083E2 		add	r3, r3, #24
 12554 01a8 00308DE5 		str	r3, [sp]
 12555              	.L2312:
 12556 01ac 54309DE5 		ldr	r3, [sp, #84]
 12557 01b0 080055E3 		cmp	r5, #8
 12558 01b4 0090A0D3 		movle	r9, #0
 12559 01b8 073183E0 		add	r3, r3, r7, lsl #2
 12560 01bc 008A93ED 		vldr.32	s16, [r3]
 12561 01c0 510000DA 		ble	.L2310
 12562 01c4 00409DE5 		ldr	r4, [sp]
 12563 01c8 0AB0A0E1 		mov	fp, r10
 12564 01cc 0090A0E3 		mov	r9, #0
 12565              	.L2313:
 12566 01d0 067A5BED 		vldr.32	s15, [fp, #-24]
 12567 01d4 089089E2 		add	r9, r9, #8
 12568 01d8 00F0DBF5 		pld	[fp]
 12569 01dc 20B08BE2 		add	fp, fp, #32
 12570 01e0 00F0D4F5 		pld	[r4]
 12571 01e4 204084E2 		add	r4, r4, #32
 12572 01e8 880A87EE 		vdiv.f32	s0, s15, s16
 12573 01ec C00AB7EE 		vcvt.f64.f32	d0, s0
 12574 01f0 FEFFFFEB 		bl	round
 12575 01f4 0D7A5BED 		vldr.32	s15, [fp, #-52]
 12576 01f8 C07BBDEE 		vcvt.s32.f64	s14, d0
 12577 01fc 880A87EE 		vdiv.f32	s0, s15, s16
 12578 0200 103A17EE 		vmov	r3, s14	@ int
 12579 0204 060153E3 		cmp	r3, #-2147483647
 12580 0208 0631A0B3 		movlt	r3, #-2147483647
 12581 020c 383004E5 		str	r3, [r4, #-56]
 12582 0210 C00AB7EE 		vcvt.f64.f32	d0, s0
 12583 0214 FEFFFFEB 		bl	round
 12584 0218 0C7A5BED 		vldr.32	s15, [fp, #-48]
 12585 021c C07BBDEE 		vcvt.s32.f64	s14, d0
 12586 0220 880A87EE 		vdiv.f32	s0, s15, s16
 12587 0224 103A17EE 		vmov	r3, s14	@ int
 12588 0228 060153E3 		cmp	r3, #-2147483647
 12589 022c 0631A0B3 		movlt	r3, #-2147483647
 12590 0230 343004E5 		str	r3, [r4, #-52]
 12591 0234 C00AB7EE 		vcvt.f64.f32	d0, s0
 12592 0238 FEFFFFEB 		bl	round
 12593 023c 0B7A5BED 		vldr.32	s15, [fp, #-44]
 12594 0240 C07BBDEE 		vcvt.s32.f64	s14, d0
 12595 0244 880A87EE 		vdiv.f32	s0, s15, s16
 12596 0248 103A17EE 		vmov	r3, s14	@ int
 12597 024c 060153E3 		cmp	r3, #-2147483647
 12598 0250 0631A0B3 		movlt	r3, #-2147483647
 12599 0254 303004E5 		str	r3, [r4, #-48]
 12600 0258 C00AB7EE 		vcvt.f64.f32	d0, s0
 12601 025c FEFFFFEB 		bl	round
 12602 0260 0A7A5BED 		vldr.32	s15, [fp, #-40]
 12603 0264 C07BBDEE 		vcvt.s32.f64	s14, d0
 12604 0268 880A87EE 		vdiv.f32	s0, s15, s16
 12605 026c 103A17EE 		vmov	r3, s14	@ int
 12606 0270 060153E3 		cmp	r3, #-2147483647
 12607 0274 0631A0B3 		movlt	r3, #-2147483647
 12608 0278 2C3004E5 		str	r3, [r4, #-44]
 12609 027c C00AB7EE 		vcvt.f64.f32	d0, s0
 12610 0280 FEFFFFEB 		bl	round
 12611 0284 097A5BED 		vldr.32	s15, [fp, #-36]
 12612 0288 C07BBDEE 		vcvt.s32.f64	s14, d0
 12613 028c 880A87EE 		vdiv.f32	s0, s15, s16
 12614 0290 103A17EE 		vmov	r3, s14	@ int
 12615 0294 060153E3 		cmp	r3, #-2147483647
 12616 0298 0631A0B3 		movlt	r3, #-2147483647
 12617 029c 283004E5 		str	r3, [r4, #-40]
 12618 02a0 C00AB7EE 		vcvt.f64.f32	d0, s0
 12619 02a4 FEFFFFEB 		bl	round
 12620 02a8 087A5BED 		vldr.32	s15, [fp, #-32]
 12621 02ac C07BBDEE 		vcvt.s32.f64	s14, d0
 12622 02b0 880A87EE 		vdiv.f32	s0, s15, s16
 12623 02b4 103A17EE 		vmov	r3, s14	@ int
 12624 02b8 060153E3 		cmp	r3, #-2147483647
 12625 02bc 0631A0B3 		movlt	r3, #-2147483647
 12626 02c0 243004E5 		str	r3, [r4, #-36]
 12627 02c4 C00AB7EE 		vcvt.f64.f32	d0, s0
 12628 02c8 FEFFFFEB 		bl	round
 12629 02cc 077A5BED 		vldr.32	s15, [fp, #-28]
 12630 02d0 C07BBDEE 		vcvt.s32.f64	s14, d0
 12631 02d4 880A87EE 		vdiv.f32	s0, s15, s16
 12632 02d8 103A17EE 		vmov	r3, s14	@ int
 12633 02dc 060153E3 		cmp	r3, #-2147483647
 12634 02e0 0631A0B3 		movlt	r3, #-2147483647
 12635 02e4 203004E5 		str	r3, [r4, #-32]
 12636 02e8 C00AB7EE 		vcvt.f64.f32	d0, s0
 12637 02ec FEFFFFEB 		bl	round
 12638 02f0 C07BFDEE 		vcvt.s32.f64	s15, d0
 12639 02f4 903A17EE 		vmov	r3, s15	@ int
 12640 02f8 060153E3 		cmp	r3, #-2147483647
 12641 02fc 0631A0B3 		movlt	r3, #-2147483647
 12642 0300 060059E1 		cmp	r9, r6
 12643 0304 1C3004E5 		str	r3, [r4, #-28]
 12644 0308 B0FFFF1A 		bne	.L2313
 12645              	.L2310:
 12646 030c 08309DE5 		ldr	r3, [sp, #8]
 12647 0310 084089E0 		add	r4, r9, r8
 12648 0314 0441A0E1 		lsl	r4, r4, #2
 12649 0318 04B083E0 		add	fp, r3, r4
 12650 031c 04309DE5 		ldr	r3, [sp, #4]
 12651 0320 044083E0 		add	r4, r3, r4
 12652              	.L2315:
 12653 0324 017AFBEC 		vldmia.32	fp!, {s15}
 12654 0328 019089E2 		add	r9, r9, #1
 12655 032c 880A87EE 		vdiv.f32	s0, s15, s16
 12656 0330 C00AB7EE 		vcvt.f64.f32	d0, s0
 12657 0334 FEFFFFEB 		bl	round
 12658 0338 C07BFDEE 		vcvt.s32.f64	s15, d0
 12659 033c 903A17EE 		vmov	r3, s15	@ int
 12660 0340 060153E3 		cmp	r3, #-2147483647
 12661 0344 0631A0B3 		movlt	r3, #-2147483647
 12662 0348 090055E1 		cmp	r5, r9
 12663 034c 043084E4 		str	r3, [r4], #4
 12664 0350 F3FFFFCA 		bgt	.L2315
 12665 0354 10309DE5 		ldr	r3, [sp, #16]
 12666 0358 017087E2 		add	r7, r7, #1
 12667 035c 00209DE5 		ldr	r2, [sp]
 12668 0360 058088E0 		add	r8, r8, r5
 12669 0364 030057E1 		cmp	r7, r3
 12670 0368 0C309DE5 		ldr	r3, [sp, #12]
 12671 036c 03A08AE0 		add	r10, r10, r3
 12672 0370 033082E0 		add	r3, r2, r3
 12673 0374 00308DE5 		str	r3, [sp]
 12674 0378 8BFFFF1A 		bne	.L2312
 12675              	.L2311:
 12676 037c 54309DE5 		ldr	r3, [sp, #84]
 12677 0380 007AD3ED 		vldr.32	s15, [r3]
 12678              	.L2304:
 12679 0384 14E09DE5 		ldr	lr, [sp, #20]
 12680 0388 0030A0E3 		mov	r3, #0
 12681 038c 18109DE5 		ldr	r1, [sp, #24]
 12682 0390 E77AFDEE 		vcvt.s32.f32	s15, s15
 12683 0394 5C409DE5 		ldr	r4, [sp, #92]
 12684 0398 0C208EE2 		add	r2, lr, #12
 12685 039c 08108EE5 		str	r1, [lr, #8]
 12686 03a0 0100A0E1 		mov	r0, r1
 12687 03a4 1C10DDE5 		ldrb	r1, [sp, #28]	@ zero_extendqisi2
 12688 03a8 54509DE5 		ldr	r5, [sp, #84]
 12689 03ac 04C09DE5 		ldr	ip, [sp, #4]
 12690 03b0 2D10CEE5 		strb	r1, [lr, #45]
 12691 03b4 54109DE5 		ldr	r1, [sp, #84]
 12692 03b8 04C08EE5 		str	ip, [lr, #4]
 12693 03bc 02C0A0E3 		mov	ip, #2
 12694 03c0 043082E5 		str	r3, [r2, #4]
 12695 03c4 007AC1ED 		vstr.32	s15, [r1]	@ int
 12696 03c8 0110A0E3 		mov	r1, #1
 12697 03cc 005084E5 		str	r5, [r4]
 12698 03d0 58509DE5 		ldr	r5, [sp, #88]
 12699 03d4 0C308EE5 		str	r3, [lr, #12]
 12700 03d8 1430CEE5 		strb	r3, [lr, #20]
 12701 03dc 045084E5 		str	r5, [r4, #4]
 12702 03e0 60509DE5 		ldr	r5, [sp, #96]
 12703 03e4 00C0CEE5 		strb	ip, [lr]
 12704 03e8 3010CEE5 		strb	r1, [lr, #48]
 12705 03ec 085084E5 		str	r5, [r4, #8]
 12706 03f0 0E40A0E1 		mov	r4, lr
 12707 03f4 FEFFFFEB 		bl	_ZN6tflite12ElementCountERK14TfLiteIntArray
 12708 03f8 5C309DE5 		ldr	r3, [sp, #92]
 12709 03fc 0001A0E1 		lsl	r0, r0, #2
 12710 0400 180084E5 		str	r0, [r4, #24]
 12711 0404 343084E5 		str	r3, [r4, #52]
 12712 0408 14009DE5 		ldr	r0, [sp, #20]
 12713 040c 24D08DE2 		add	sp, sp, #36
 12714              		@ sp needed
 12715 0410 028BBDEC 		vldm	sp!, {d8}
 12716 0414 F08FBDE8 		pop	{r4, r5, r6, r7, r8, r9, r10, fp, pc}
 12717              	.L2316:
 12718 0418 0010A0E3 		mov	r1, #0
 12719 041c 0350A0E1 		mov	r5, r3
 12720 0420 41FFFFEA 		b	.L2305
 12721              		.fnend
 12723              		.section	.text._ZN6tflite7testing40CreateSymmetricPerChannelQuantizedTensorEPKfPaP14TfLiteIntArray
 12724              		.align	2
 12725              		.global	_ZN6tflite7testing40CreateSymmetricPerChannelQuantizedTensorEPKfPaP14TfLiteIntArrayPfPiP24
 12726              		.syntax unified
 12727              		.arm
 12728              		.fpu neon
 12730              	_ZN6tflite7testing40CreateSymmetricPerChannelQuantizedTensorEPKfPaP14TfLiteIntArrayPfPiP24TfLiteAff
 12731              		.fnstart
 12732              	.LFB7032:
 12733              		@ args = 20, pretend = 0, frame = 0
 12734              		@ frame_needed = 0, uses_anonymous_args = 0
 12735 0000 F04F2DE9 		push	{r4, r5, r6, r7, r8, r9, r10, fp, lr}
 12736              		.save {r4, r5, r6, r7, r8, r9, r10, fp, lr}
 12737              		.pad #12
 12738 0004 0CD04DE2 		sub	sp, sp, #12
 12739 0008 3C909DE5 		ldr	r9, [sp, #60]
 12740 000c 0350A0E1 		mov	r5, r3
 12741 0010 02A0A0E1 		mov	r10, r2
 12742 0014 0230A0E1 		mov	r3, r2
 12743 0018 30609DE5 		ldr	r6, [sp, #48]
 12744 001c 0040A0E1 		mov	r4, r0
 12745 0020 34E09DE5 		ldr	lr, [sp, #52]
 12746 0024 0100A0E1 		mov	r0, r1
 12747 0028 092185E0 		add	r2, r5, r9, lsl #2
 12748 002c 0510A0E1 		mov	r1, r5
 12749 0030 06C0A0E1 		mov	ip, r6
 12750 0034 38709DE5 		ldr	r7, [sp, #56]
 12751 0038 048092E5 		ldr	r8, [r2, #4]
 12752 003c 0920A0E1 		mov	r2, r9
 12753 0040 40B0DDE5 		ldrb	fp, [sp, #64]	@ zero_extendqisi2
 12754 0044 908A07EE 		vmov	s15, r8	@ int
 12755 0048 E77AF8EE 		vcvt.f32.s32	s15, s15
 12756 004c 017AECEC 		vstmia.32	ip!, {s15}
 12757 0050 00808EE5 		str	r8, [lr]
 12758 0054 00C08DE5 		str	ip, [sp]
 12759 0058 FEFFFFEB 		bl	_ZN6tflite33SignedSymmetricPerChannelQuantizeEPKfP14TfLiteIntArrayiPaPf
 12760 005c 000058E3 		cmp	r8, #0
 12761 0060 040000DA 		ble	.L2327
 12762 0064 34309DE5 		ldr	r3, [sp, #52]
 12763 0068 0821A0E1 		lsl	r2, r8, #2
 12764 006c 0010A0E3 		mov	r1, #0
 12765 0070 040083E2 		add	r0, r3, #4
 12766 0074 FEFFFFEB 		bl	memset
 12767              	.L2327:
 12768 0078 007AD6ED 		vldr.32	s15, [r6]
 12769 007c 0030A0E3 		mov	r3, #0
 12770 0080 103084E5 		str	r3, [r4, #16]
 12771 0084 0910A0E3 		mov	r1, #9
 12772 0088 0C3084E5 		str	r3, [r4, #12]
 12773 008c 0120A0E3 		mov	r2, #1
 12774 0090 1430C4E5 		strb	r3, [r4, #20]
 12775 0094 0500A0E1 		mov	r0, r5
 12776 0098 E77AFDEE 		vcvt.s32.f32	s15, s15
 12777 009c 34309DE5 		ldr	r3, [sp, #52]
 12778 00a0 085084E5 		str	r5, [r4, #8]
 12779 00a4 2DB0C4E5 		strb	fp, [r4, #45]
 12780 00a8 007AC6ED 		vstr.32	s15, [r6]	@ int
 12781 00ac 04A084E5 		str	r10, [r4, #4]
 12782 00b0 0010C4E5 		strb	r1, [r4]
 12783 00b4 006087E5 		str	r6, [r7]
 12784 00b8 080287E9 		stmib	r7, {r3, r9}
 12785 00bc 3020C4E5 		strb	r2, [r4, #48]
 12786 00c0 FEFFFFEB 		bl	_ZN6tflite12ElementCountERK14TfLiteIntArray
 12787 00c4 347084E5 		str	r7, [r4, #52]
 12788 00c8 180084E5 		str	r0, [r4, #24]
 12789 00cc 0400A0E1 		mov	r0, r4
 12790 00d0 0CD08DE2 		add	sp, sp, #12
 12791              		@ sp needed
 12792 00d4 F08FBDE8 		pop	{r4, r5, r6, r7, r8, r9, r10, fp, pc}
 12793              		.fnend
 12795              		.section	.text._ZN6tflite7testing19GetModelTensorCountEPKNS_5ModelE,"ax",%progbits
 12796              		.align	2
 12797              		.global	_ZN6tflite7testing19GetModelTensorCountEPKNS_5ModelE
 12798              		.syntax unified
 12799              		.arm
 12800              		.fpu neon
 12802              	_ZN6tflite7testing19GetModelTensorCountEPKNS_5ModelE:
 12803              		.fnstart
 12804              	.LFB7033:
 12805              		@ args = 0, pretend = 0, frame = 0
 12806              		@ frame_needed = 0, uses_anonymous_args = 0
 12807 0000 003090E5 		ldr	r3, [r0]
 12808 0004 033040E0 		sub	r3, r0, r3
 12809 0008 B020D3E1 		ldrh	r2, [r3]
 12810 000c 080052E3 		cmp	r2, #8
 12811 0010 1B0000DA 		ble	.L2334
 12812 0014 B830D3E1 		ldrh	r3, [r3, #8]
 12813 0018 000053E3 		cmp	r3, #0
 12814 001c 031080E0 		add	r1, r0, r3
 12815 0020 1700000A 		beq	.L2334
 12816 0024 032090E7 		ldr	r2, [r0, r3]
 12817 0028 023091E0 		adds	r3, r1, r2
 12818 002c 1400000A 		beq	.L2334
 12819 0030 022091E7 		ldr	r2, [r1, r2]
 12820 0034 000052E3 		cmp	r2, #0
 12821 0038 1300000A 		beq	.L2343
 12822 003c 041093E5 		ldr	r1, [r3, #4]
 12823 0040 043083E2 		add	r3, r3, #4
 12824 0044 012093E7 		ldr	r2, [r3, r1]
 12825 0048 013083E0 		add	r3, r3, r1
 12826 004c 022043E0 		sub	r2, r3, r2
 12827 0050 B010D2E1 		ldrh	r1, [r2]
 12828 0054 040051E3 		cmp	r1, #4
 12829 0058 060000DA 		ble	.L2333
 12830 005c B420D2E1 		ldrh	r2, [r2, #4]
 12831 0060 000052E3 		cmp	r2, #0
 12832 0064 021083E0 		add	r1, r3, r2
 12833 0068 0200000A 		beq	.L2333
 12834 006c 023093E7 		ldr	r3, [r3, r2]
 12835 0070 030091E7 		ldr	r0, [r1, r3]
 12836 0074 1EFF2FE1 		bx	lr
 12837              	.L2333:
 12838 0078 0030A0E3 		mov	r3, #0
 12839 007c 003093E5 		ldr	r3, [r3]
 12840 0080 F000F0E7 		.inst	0xe7f000f0
 12841              	.L2334:
 12842 0084 0000A0E3 		mov	r0, #0
 12843 0088 1EFF2FE1 		bx	lr
 12844              	.L2343:
 12845 008c 003000E3 		movw	r3, #:lower16:.LC67
 12846 0090 002000E3 		movw	r2, #:lower16:.LANCHOR42
 12847 0094 000000E3 		movw	r0, #:lower16:.LC19
 12848 0098 10402DE9 		push	{r4, lr}
 12849              		.save {r4, lr}
 12850 009c 003040E3 		movt	r3, #:upper16:.LC67
 12851 00a0 002040E3 		movt	r2, #:upper16:.LANCHOR42
 12852 00a4 000040E3 		movt	r0, #:upper16:.LC19
 12853 00a8 061100E3 		movw	r1, #262
 12854 00ac FEFFFFEB 		bl	__assert_func
 12855              		.fnend
 12857              		.weak	_ZTSN11flatbuffers9AllocatorE
 12858              		.section	.rodata._ZTSN11flatbuffers9AllocatorE,"aG",%progbits,_ZTSN11flatbuffers9AllocatorE,comdat
 12859              		.align	2
 12862              	_ZTSN11flatbuffers9AllocatorE:
 12863 0000 4E313166 		.ascii	"N11flatbuffers9AllocatorE\000"
 12863      6C617462 
 12863      75666665 
 12863      72733941 
 12863      6C6C6F63 
 12864              		.weak	_ZTIN11flatbuffers9AllocatorE
 12865              		.section	.rodata._ZTIN11flatbuffers9AllocatorE,"aG",%progbits,_ZTIN11flatbuffers9AllocatorE,comdat
 12866              		.align	2
 12869              	_ZTIN11flatbuffers9AllocatorE:
 12870 0000 08000000 		.word	_ZTVN10__cxxabiv117__class_type_infoE+8
 12871 0004 00000000 		.word	_ZTSN11flatbuffers9AllocatorE
 12872              		.global	_ZN6tflite7testing14MultipleInputs6freed_E
 12873              		.global	_ZN6tflite7testing10MockCustom6freed_E
 12874              		.weak	_ZN11flatbuffers25flatbuffer_version_stringE
 12875              		.section	.rodata
 12876              		.align	2
 12877              		.set	.LANCHOR33,. + 0
 12878              	.LC2:
 12879 0000 00000000 		.word	0
 12880 0004 01000000 		.word	1
 12881 0008 02000000 		.word	2
 12882              	.LC4:
 12883 000c 03000000 		.word	3
 12884 0010 04000000 		.word	4
 12885 0014 05000000 		.word	5
 12886              	.LC5:
 12887 0018 06000000 		.word	6
 12888 001c 07000000 		.word	7
 12889 0020 08000000 		.word	8
 12890              		.section	.bss._ZGVZN6tflite7testing12_GLOBAL__N_114StackAllocator8instanceEvE4inst,"aw",%nobits
 12891              		.align	2
 12892              		.set	.LANCHOR6,. + 0
 12895              	_ZGVZN6tflite7testing12_GLOBAL__N_114StackAllocator8instanceEvE4inst:
 12896 0000 00000000 		.space	4
 12897              		.section	.bss._ZGVZN6tflite7testing12_GLOBAL__N_115BuilderInstanceEvE4inst,"aw",%nobits
 12898              		.align	2
 12899              		.set	.LANCHOR4,. + 0
 12902              	_ZGVZN6tflite7testing12_GLOBAL__N_115BuilderInstanceEvE4inst:
 12903 0000 00000000 		.space	4
 12904              		.section	.bss._ZN6tflite7testing10MockCustom6freed_E,"aw",%nobits
 12905              		.set	.LANCHOR0,. + 0
 12908              	_ZN6tflite7testing10MockCustom6freed_E:
 12909 0000 00       		.space	1
 12910              		.section	.bss._ZN6tflite7testing14MultipleInputs6freed_E,"aw",%nobits
 12911              		.set	.LANCHOR1,. + 0
 12914              	_ZN6tflite7testing14MultipleInputs6freed_E:
 12915 0000 00       		.space	1
 12916              		.section	.bss._ZZN6tflite7testing10MockCustom22GetMutableRegistrationEvE1r,"aw",%nobits
 12917              		.align	3
 12918              		.set	.LANCHOR28,. + 0
 12921              	_ZZN6tflite7testing10MockCustom22GetMutableRegistrationEvE1r:
 12922 0000 00000000 		.space	32
 12922      00000000 
 12922      00000000 
 12922      00000000 
 12922      00000000 
 12923              		.section	.bss._ZZN6tflite7testing12_GLOBAL__N_114StackAllocator8instanceEvE11inst_memory,"aw",%nob
 12924              		.align	3
 12925              		.set	.LANCHOR2,. + 0
 12928              	_ZZN6tflite7testing12_GLOBAL__N_114StackAllocator8instanceEvE11inst_memory:
 12929 0000 00000000 		.space	8204
 12929      00000000 
 12929      00000000 
 12929      00000000 
 12929      00000000 
 12930              		.section	.bss._ZZN6tflite7testing12_GLOBAL__N_114StackAllocator8instanceEvE4inst,"aw",%nobits
 12931              		.align	2
 12932              		.set	.LANCHOR7,. + 0
 12935              	_ZZN6tflite7testing12_GLOBAL__N_114StackAllocator8instanceEvE4inst:
 12936 0000 00000000 		.space	4
 12937              		.section	.bss._ZZN6tflite7testing12_GLOBAL__N_115BuilderInstanceEvE11inst_memory,"aw",%nobits
 12938              		.align	3
 12939              		.set	.LANCHOR3,. + 0
 12942              	_ZZN6tflite7testing12_GLOBAL__N_115BuilderInstanceEvE11inst_memory:
 12943 0000 00000000 		.space	52
 12943      00000000 
 12943      00000000 
 12943      00000000 
 12943      00000000 
 12944              		.section	.bss._ZZN6tflite7testing12_GLOBAL__N_115BuilderInstanceEvE4inst,"aw",%nobits
 12945              		.align	2
 12946              		.set	.LANCHOR5,. + 0
 12949              	_ZZN6tflite7testing12_GLOBAL__N_115BuilderInstanceEvE4inst:
 12950 0000 00000000 		.space	4
 12951              		.section	.bss._ZZN6tflite7testing14MultipleInputs22GetMutableRegistrationEvE1r,"aw",%nobits
 12952              		.align	3
 12953              		.set	.LANCHOR29,. + 0
 12956              	_ZZN6tflite7testing14MultipleInputs22GetMutableRegistrationEvE1r:
 12957 0000 00000000 		.space	32
 12957      00000000 
 12957      00000000 
 12957      00000000 
 12957      00000000 
 12958              		.section	.bss._ZZN6tflite7testing16SimpleStatefulOp22GetMutableRegistrationEvE1r,"aw",%nobits
 12959              		.align	2
 12960              		.set	.LANCHOR27,. + 0
 12963              	_ZZN6tflite7testing16SimpleStatefulOp22GetMutableRegistrationEvE1r:
 12964 0000 00000000 		.space	32
 12964      00000000 
 12964      00000000 
 12964      00000000 
 12964      00000000 
 12965              		.section	.bss._ZZN6tflite7testing18GetSimpleMockModelEvE5model,"aw",%nobits
 12966              		.align	2
 12967              		.set	.LANCHOR31,. + 0
 12970              	_ZZN6tflite7testing18GetSimpleMockModelEvE5model:
 12971 0000 00000000 		.space	4
 12972              		.section	.bss._ZZN6tflite7testing19GetComplexMockModelEvE5model,"aw",%nobits
 12973              		.align	2
 12974              		.set	.LANCHOR35,. + 0
 12977              	_ZZN6tflite7testing19GetComplexMockModelEvE5model:
 12978 0000 00000000 		.space	4
 12979              		.section	.bss._ZZN6tflite7testing22GetSimpleStatefulModelEvE5model,"aw",%nobits
 12980              		.align	2
 12981              		.set	.LANCHOR37,. + 0
 12984              	_ZZN6tflite7testing22GetSimpleStatefulModelEvE5model:
 12985 0000 00000000 		.space	4
 12986              		.section	.bss._ZZN6tflite7testing24GetModelWithUnusedInputsEvE5model,"aw",%nobits
 12987              		.align	2
 12988              		.set	.LANCHOR30,. + 0
 12991              	_ZZN6tflite7testing24GetModelWithUnusedInputsEvE5model:
 12992 0000 00000000 		.space	4
 12993              		.section	.bss._ZZN6tflite7testing24GetSimpleModelWithBranchEvE5model,"aw",%nobits
 12994              		.align	2
 12995              		.set	.LANCHOR36,. + 0
 12998              	_ZZN6tflite7testing24GetSimpleModelWithBranchEvE5model:
 12999 0000 00000000 		.space	4
 13000              		.section	.bss._ZZN6tflite7testing28GetSimpleMultipleInputsModelEvE5model,"aw",%nobits
 13001              		.align	2
 13002              		.set	.LANCHOR32,. + 0
 13005              	_ZZN6tflite7testing28GetSimpleMultipleInputsModelEvE5model:
 13006 0000 00000000 		.space	4
 13007              		.section	.bss._ZZN6tflite7testing32GetSimpleModelWithSubgraphsAndIfEvE5model,"aw",%nobits
 13008              		.align	2
 13009              		.set	.LANCHOR34,. + 0
 13012              	_ZZN6tflite7testing32GetSimpleModelWithSubgraphsAndIfEvE5model:
 13013 0000 00000000 		.space	4
 13014              		.section	.data._ZN11flatbuffers25flatbuffer_version_stringE,"aw",%progbits
 13015              		.align	2
 13018              	_ZN11flatbuffers25flatbuffer_version_stringE:
 13019 0000 00000000 		.word	.LC68
 13020              		.section	.rodata.._138,"a",%progbits
 13021              		.align	2
 13022              		.set	.LANCHOR24,. + 0
 13025              	._138:
 13026 0000 03000000 		.word	3
 13027              		.section	.rodata.._139,"a",%progbits
 13028              		.align	2
 13029              		.set	.LANCHOR25,. + 0
 13032              	._139:
 13033 0000 03000000 		.word	3
 13034              		.section	.rodata.._140,"a",%progbits
 13035              		.align	2
 13036              		.set	.LANCHOR26,. + 0
 13039              	._140:
 13040 0000 01000000 		.word	1
 13041              		.section	.rodata.._141,"a",%progbits
 13042              		.align	2
 13043              		.set	.LANCHOR19,. + 0
 13046              	._141:
 13047 0000 02000000 		.word	2
 13048 0004 02000000 		.word	2
 13049 0008 03000000 		.word	3
 13050              		.section	.rodata.._142,"a",%progbits
 13051              		.align	2
 13052              		.set	.LANCHOR20,. + 0
 13055              	._142:
 13056 0000 02000000 		.word	2
 13057 0004 02000000 		.word	2
 13058 0008 03000000 		.word	3
 13059              		.section	.rodata.._143,"a",%progbits
 13060              		.align	2
 13061              		.set	.LANCHOR21,. + 0
 13064              	._143:
 13065 0000 02000000 		.word	2
 13066 0004 02000000 		.word	2
 13067 0008 03000000 		.word	3
 13068              		.section	.rodata.._144,"a",%progbits
 13069              		.align	2
 13070              		.set	.LANCHOR22,. + 0
 13073              	._144:
 13074 0000 02000000 		.word	2
 13075 0004 02000000 		.word	2
 13076 0008 03000000 		.word	3
 13077              		.section	.rodata.._145,"a",%progbits
 13078              		.align	2
 13079              		.set	.LANCHOR23,. + 0
 13082              	._145:
 13083 0000 02000000 		.word	2
 13084 0004 02000000 		.word	2
 13085 0008 03000000 		.word	3
 13086              		.section	.rodata.._146,"a",%progbits
 13087              		.align	2
 13088              		.set	.LANCHOR38,. + 0
 13091              	._146:
 13092 0000 CDCCCC3D 		.word	1036831949
 13093              		.section	.rodata.._147,"a",%progbits
 13094              		.align	2
 13095              		.set	.LANCHOR39,. + 0
 13098              	._147:
 13099 0000 CDCC4C3E 		.word	1045220557
 13100              		.section	.rodata.._148,"a",%progbits
 13101              		.align	2
 13102              		.set	.LANCHOR40,. + 0
 13105              	._148:
 13106 0000 9A99993E 		.word	1050253722
 13107              		.section	.rodata.._149,"a",%progbits
 13108              		.align	3
 13109              		.set	.LANCHOR41,. + 0
 13112              	._149:
 13113 0000 64000000 		.word	100
 13114 0004 00000000 		.word	0
 13115              		.section	.rodata._ZN11flatbuffers15vector_downward12ensure_spaceEj.str1.4,"aMS",%progbits,1
 13116              		.align	2
 13117              	.LC22:
 13118 0000 6375725F 		.ascii	"cur_ >= scratch_ && scratch_ >= buf_\000"
 13118      203E3D20 
 13118      73637261 
 13118      7463685F 
 13118      20262620 
 13119 0025 000000   		.space	3
 13120              	.LC23:
 13121 0028 73697A65 		.ascii	"size() < FLATBUFFERS_MAX_BUFFER_SIZE\000"
 13121      2829203C 
 13121      20464C41 
 13121      54425546 
 13121      46455253 
 13122              		.section	.rodata._ZN11flatbuffers17FlatBufferBuilder11StartVectorEjj.constprop.148.str1.4,"aMS",%p
 13123              		.align	2
 13124              	.LC24:
 13125 0000 216E6573 		.ascii	"!nested\000"
 13125      74656400 
 13126              		.section	.rodata._ZN11flatbuffers17FlatBufferBuilder12CreateVectorIN6tflite6BufferEEENS_6OffsetINS
 13127              		.align	2
 13128              	.LC25:
 13129 0000 6F666620 		.ascii	"off && off <= GetSize()\000"
 13129      2626206F 
 13129      6666203C 
 13129      3D204765 
 13129      7453697A 
 13130              	.LC26:
 13131 0018 6E657374 		.ascii	"nested\000"
 13131      656400
 13132              		.section	.rodata._ZN11flatbuffers17FlatBufferBuilder6FinishEmPKcb.constprop.146.str1.4,"aMS",%prog
 13133              		.align	2
 13134              	.LC27:
 13135 0000 54464C33 		.ascii	"TFL3\000"
 13135      00
 13136              		.section	.rodata._ZN11flatbuffers17FlatBufferBuilder8EndTableEm.str1.4,"aMS",%progbits,1
 13137              		.align	2
 13138              	.LC28:
 13139 0000 7461626C 		.ascii	"table_object_size < 0x10000\000"
 13139      655F6F62 
 13139      6A656374 
 13139      5F73697A 
 13139      65203C20 
 13140              	.LC29:
 13141 001c 73637261 		.ascii	"scratch_\000"
 13141      7463685F 
 13141      00
 13142 0025 000000   		.space	3
 13143              	.LC30:
 13144 0028 21526561 		.ascii	"!ReadScalar<voffset_t>(buf_.data() + field_location"
 13144      64536361 
 13144      6C61723C 
 13144      766F6666 
 13144      7365745F 
 13145 005b 2D3E6964 		.ascii	"->id)\000"
 13145      2900
 13146 0061 000000   		.space	3
 13147              	.LC31:
 13148 0064 6275665F 		.ascii	"buf_\000"
 13148      00
 13149              		.section	.rodata._ZN11flatbuffers17FlatBufferBuilder9NotNestedEv.isra.19.part.20.str1.4,"aMS",%pro
 13150              		.align	2
 13151              	.LC21:
 13152 0000 216E756D 		.ascii	"!num_field_loc\000"
 13152      5F666965 
 13152      6C645F6C 
 13152      6F6300
 13153              		.section	.rodata._ZN11flatbuffers9Allocator19reallocate_downwardEPhjjjj.str1.4,"aMS",%progbits,1
 13154              		.align	2
 13155              	.LC18:
 13156 0000 6E65775F 		.ascii	"new_size > old_size\000"
 13156      73697A65 
 13156      203E206F 
 13156      6C645F73 
 13156      697A6500 
 13157              	.LC19:
 13158 0014 433A2F52 		.ascii	"C:/Renesas/e2studio_2021_01_workspace_RZA2M_ANPR/AN"
 13158      656E6573 
 13158      61732F65 
 13158      32737475 
 13158      64696F5F 
 13159 0047 50525F52 		.ascii	"PR_RZA2M_EBK/src/tensorflow_lite/third_party/flatbu"
 13159      5A41324D 
 13159      5F45424B 
 13159      2F737263 
 13159      2F74656E 
 13160 007a 66666572 		.ascii	"ffers/include/flatbuffers/flatbuffers.h\000"
 13160      732F696E 
 13160      636C7564 
 13160      652F666C 
 13160      61746275 
 13161              		.section	.rodata._ZN6tflite7testing12_GLOBAL__N_112ModelBuilder10BuildModelESt16initializer_listIl
 13162              		.align	2
 13163              	.LC32:
 13164 0000 74657374 		.ascii	"test_subgraph\000"
 13164      5F737562 
 13164      67726170 
 13164      6800
 13165 000e 0000     		.space	2
 13166              	.LC33:
 13167 0010 74657365 		.ascii	"teset_model\000"
 13167      745F6D6F 
 13167      64656C00 
 13168              	.LC34:
 13169 001c 66696E69 		.ascii	"finished\000"
 13169      73686564 
 13169      00
 13170              		.section	.rodata._ZN6tflite7testing12_GLOBAL__N_124BuildSimpleStatefulModelEv.str1.4,"aMS",%progbi
 13171              		.align	2
 13172              	.LC37:
 13173 0000 73696D70 		.ascii	"simple_stateful_op\000"
 13173      6C655F73 
 13173      74617465 
 13173      66756C5F 
 13173      6F7000
 13174              		.section	.rodata._ZN6tflite7testing12_GLOBAL__N_126BuildSimpleModelWithBranchEv.str1.4,"aMS",%prog
 13175              		.align	2
 13176              	.LC35:
 13177 0000 6D6F636B 		.ascii	"mock_custom\000"
 13177      5F637573 
 13177      746F6D00 
 13178              		.section	.rodata._ZN6tflite7testing12_GLOBAL__N_129BuildModelWithOfflinePlanningEiPKlPNS0_15NodeCo
 13179              		.align	2
 13180              	.LC36:
 13181 0000 4F66666C 		.ascii	"OfflineMemoryAllocation\000"
 13181      696E654D 
 13181      656D6F72 
 13181      79416C6C 
 13181      6F636174 
 13182              		.section	.rodata._ZN6tflite7testing13GetOpResolverEv.str1.4,"aMS",%progbits,1
 13183              		.align	2
 13184              	.LC38:
 13185 0000 6D756C74 		.ascii	"multiple_inputs_op\000"
 13185      69706C65 
 13185      5F696E70 
 13185      7574735F 
 13185      6F7000
 13186              		.section	.rodata._ZN6tflite7testing18GetSimpleMockModelEv.str1.4,"aMS",%progbits,1
 13187              		.align	2
 13188              	.LC44:
 13189 0000 74657374 		.ascii	"test_weight_tensor\000"
 13189      5F776569 
 13189      6768745F 
 13189      74656E73 
 13189      6F7200
 13190 0013 00       		.space	1
 13191              	.LC45:
 13192 0014 74657374 		.ascii	"test_output2_tensor\000"
 13192      5F6F7574 
 13192      70757432 
 13192      5F74656E 
 13192      736F7200 
 13193              		.section	.rodata._ZN6tflite7testing19GetComplexMockModelEv.str1.4,"aMS",%progbits,1
 13194              		.align	2
 13195              	.LC56:
 13196 0000 74657374 		.ascii	"test_input_tensor_1\000"
 13196      5F696E70 
 13196      75745F74 
 13196      656E736F 
 13196      725F3100 
 13197              	.LC57:
 13198 0014 74657374 		.ascii	"test_variable_tensor_1\000"
 13198      5F766172 
 13198      6961626C 
 13198      655F7465 
 13198      6E736F72 
 13199 002b 00       		.space	1
 13200              	.LC58:
 13201 002c 74657374 		.ascii	"test_weight_tensor_1\000"
 13201      5F776569 
 13201      6768745F 
 13201      74656E73 
 13201      6F725F31 
 13202 0041 000000   		.space	3
 13203              	.LC59:
 13204 0044 74657374 		.ascii	"test_output_tensor_1\000"
 13204      5F6F7574 
 13204      7075745F 
 13204      74656E73 
 13204      6F725F31 
 13205 0059 000000   		.space	3
 13206              	.LC60:
 13207 005c 74657374 		.ascii	"test_variable_tensor_2\000"
 13207      5F766172 
 13207      6961626C 
 13207      655F7465 
 13207      6E736F72 
 13208 0073 00       		.space	1
 13209              	.LC61:
 13210 0074 74657374 		.ascii	"test_weight_tensor_2\000"
 13210      5F776569 
 13210      6768745F 
 13210      74656E73 
 13210      6F725F32 
 13211 0089 000000   		.space	3
 13212              	.LC62:
 13213 008c 74657374 		.ascii	"test_output_tensor_2\000"
 13213      5F6F7574 
 13213      7075745F 
 13213      74656E73 
 13213      6F725F32 
 13214 00a1 000000   		.space	3
 13215              	.LC63:
 13216 00a4 74657374 		.ascii	"test_variable_tensor_3\000"
 13216      5F766172 
 13216      6961626C 
 13216      655F7465 
 13216      6E736F72 
 13217 00bb 00       		.space	1
 13218              	.LC64:
 13219 00bc 74657374 		.ascii	"test_weight_tensor_3\000"
 13219      5F776569 
 13219      6768745F 
 13219      74656E73 
 13219      6F725F33 
 13220 00d1 000000   		.space	3
 13221              	.LC65:
 13222 00d4 74657374 		.ascii	"test_output_tensor_3\000"
 13222      5F6F7574 
 13222      7075745F 
 13222      74656E73 
 13222      6F725F33 
 13223              		.section	.rodata._ZN6tflite7testing19GetModelTensorCountEPKNS_5ModelE.str1.4,"aMS",%progbits,1
 13224              		.align	2
 13225              	.LC67:
 13226 0000 69203C20 		.ascii	"i < size()\000"
 13226      73697A65 
 13226      282900
 13227              		.section	.rodata._ZN6tflite7testing24Create1dFlatbufferTensorEib.str1.4,"aMS",%progbits,1
 13228              		.align	2
 13229              	.LC66:
 13230 0000 74657374 		.ascii	"test_tensor\000"
 13230      5F74656E 
 13230      736F7200 
 13231              		.section	.rodata._ZN6tflite7testing24GetModelWithUnusedInputsEv.str1.4,"aMS",%progbits,1
 13232              		.align	2
 13233              	.LC39:
 13234 0000 74657374 		.ascii	"test_input_tensor\000"
 13234      5F696E70 
 13234      75745F74 
 13234      656E736F 
 13234      7200
 13235 0012 0000     		.space	2
 13236              	.LC40:
 13237 0014 74657374 		.ascii	"test_unused_input_tensor\000"
 13237      5F756E75 
 13237      7365645F 
 13237      696E7075 
 13237      745F7465 
 13238 002d 000000   		.space	3
 13239              	.LC41:
 13240 0030 74657374 		.ascii	"test_output_tensor\000"
 13240      5F6F7574 
 13240      7075745F 
 13240      74656E73 
 13240      6F7200
 13241 0043 00       		.space	1
 13242              	.LC42:
 13243 0044 74657374 		.ascii	"test_unused_tensor\000"
 13243      5F756E75 
 13243      7365645F 
 13243      74656E73 
 13243      6F7200
 13244 0057 00       		.space	1
 13245              	.LC43:
 13246 0058 74657374 		.ascii	"test_model\000"
 13246      5F6D6F64 
 13246      656C00
 13247              		.section	.rodata._ZN6tflite7testing28GetSimpleMultipleInputsModelEv.str1.4,"aMS",%progbits,1
 13248              		.align	2
 13249              	.LC46:
 13250 0000 74657374 		.ascii	"test_input_tensor1\000"
 13250      5F696E70 
 13250      75745F74 
 13250      656E736F 
 13250      723100
 13251 0013 00       		.space	1
 13252              	.LC47:
 13253 0014 74657374 		.ascii	"test_input_tensor2\000"
 13253      5F696E70 
 13253      75745F74 
 13253      656E736F 
 13253      723200
 13254 0027 00       		.space	1
 13255              	.LC48:
 13256 0028 74657374 		.ascii	"test_input_tensor3\000"
 13256      5F696E70 
 13256      75745F74 
 13256      656E736F 
 13256      723300
 13257              		.section	.rodata._ZN6tflite7testing32GetSimpleModelWithSubgraphsAndIfEv.str1.4,"aMS",%progbits,1
 13258              		.align	2
 13259              	.LC49:
 13260 0000 636F6E64 		.ascii	"condition tensor\000"
 13260      6974696F 
 13260      6E207465 
 13260      6E736F72 
 13260      00
 13261 0011 000000   		.space	3
 13262              	.LC50:
 13263 0014 696E7075 		.ascii	"input_tensor1\000"
 13263      745F7465 
 13263      6E736F72 
 13263      3100
 13264 0022 0000     		.space	2
 13265              	.LC51:
 13266 0024 696E7075 		.ascii	"input_tensor2\000"
 13266      745F7465 
 13266      6E736F72 
 13266      3200
 13267 0032 0000     		.space	2
 13268              	.LC52:
 13269 0034 6F757470 		.ascii	"output_tensor\000"
 13269      75745F74 
 13269      656E736F 
 13269      7200
 13270 0042 0000     		.space	2
 13271              	.LC53:
 13272 0044 69665F73 		.ascii	"if_subgraph\000"
 13272      75626772 
 13272      61706800 
 13273              	.LC54:
 13274 0050 7468656E 		.ascii	"then_subgraph\000"
 13274      5F737562 
 13274      67726170 
 13274      6800
 13275 005e 0000     		.space	2
 13276              	.LC55:
 13277 0060 656C7365 		.ascii	"else_subgraph\000"
 13277      5F737562 
 13277      67726170 
 13277      6800
 13278              		.section	.rodata._ZNK11flatbuffers15vector_downward4dataEv.isra.9.part.10.str1.4,"aMS",%progbits,1
 13279              		.align	2
 13280              	.LC20:
 13281 0000 6375725F 		.ascii	"cur_\000"
 13281      00
 13282              		.section	.rodata._ZTIN6tflite7testing12_GLOBAL__N_114StackAllocatorE,"a",%progbits
 13283              		.align	2
 13286              	_ZTIN6tflite7testing12_GLOBAL__N_114StackAllocatorE:
 13287 0000 08000000 		.word	_ZTVN10__cxxabiv120__si_class_type_infoE+8
 13288 0004 00000000 		.word	_ZTSN6tflite7testing12_GLOBAL__N_114StackAllocatorE
 13289 0008 00000000 		.word	_ZTIN11flatbuffers9AllocatorE
 13290              		.section	.rodata._ZTSN6tflite7testing12_GLOBAL__N_114StackAllocatorE,"a",%progbits
 13291              		.align	3
 13294              	_ZTSN6tflite7testing12_GLOBAL__N_114StackAllocatorE:
 13295 0000 2A4E3674 		.ascii	"*N6tflite7testing12_GLOBAL__N_114StackAllocatorE\000"
 13295      666C6974 
 13295      65377465 
 13295      7374696E 
 13295      6731325F 
 13296              		.section	.rodata._ZTVN6tflite7testing12_GLOBAL__N_114StackAllocatorE,"a",%progbits
 13297              		.align	3
 13298              		.set	.LANCHOR8,. + 0
 13301              	_ZTVN6tflite7testing12_GLOBAL__N_114StackAllocatorE:
 13302 0000 00000000 		.word	0
 13303 0004 00000000 		.word	_ZTIN6tflite7testing12_GLOBAL__N_114StackAllocatorE
 13304 0008 00000000 		.word	_ZN6tflite7testing12_GLOBAL__N_114StackAllocatorD1Ev
 13305 000c 00000000 		.word	_ZN6tflite7testing12_GLOBAL__N_114StackAllocatorD0Ev
 13306 0010 00000000 		.word	_ZN6tflite7testing12_GLOBAL__N_114StackAllocator8allocateEj
 13307 0014 00000000 		.word	_ZN6tflite7testing12_GLOBAL__N_114StackAllocator10deallocateEPhj
 13308 0018 00000000 		.word	_ZN11flatbuffers9Allocator19reallocate_downwardEPhjjjj
 13309              		.section	.rodata._ZZN11flatbuffers15vector_downward12ensure_spaceEjE19__PRETTY_FUNCTION__,"a",%pro
 13310              		.align	3
 13311              		.set	.LANCHOR12,. + 0
 13314              	_ZZN11flatbuffers15vector_downward12ensure_spaceEjE19__PRETTY_FUNCTION__:
 13315 0000 73697A65 		.ascii	"size_t flatbuffers::vector_downward::ensure_space(s"
 13315      5F742066 
 13315      6C617462 
 13315      75666665 
 13315      72733A3A 
 13316 0033 697A655F 		.ascii	"ize_t)\000"
 13316      742900
 13317              		.section	.rodata._ZZN11flatbuffers17FlatBufferBuilder7ReferToEmE19__PRETTY_FUNCTION__,"a",%progbit
 13318              		.align	3
 13319              		.set	.LANCHOR13,. + 0
 13322              	_ZZN11flatbuffers17FlatBufferBuilder7ReferToEmE19__PRETTY_FUNCTION__:
 13323 0000 666C6174 		.ascii	"flatbuffers::uoffset_t flatbuffers::FlatBufferBuild"
 13323      62756666 
 13323      6572733A 
 13323      3A756F66 
 13323      66736574 
 13324 0033 65723A3A 		.ascii	"er::ReferTo(flatbuffers::uoffset_t)\000"
 13324      52656665 
 13324      72546F28 
 13324      666C6174 
 13324      62756666 
 13325              		.section	.rodata._ZZN11flatbuffers17FlatBufferBuilder8EndTableEmE19__PRETTY_FUNCTION__,"a",%progbi
 13326              		.align	3
 13327              		.set	.LANCHOR15,. + 0
 13330              	_ZZN11flatbuffers17FlatBufferBuilder8EndTableEmE19__PRETTY_FUNCTION__:
 13331 0000 666C6174 		.ascii	"flatbuffers::uoffset_t flatbuffers::FlatBufferBuild"
 13331      62756666 
 13331      6572733A 
 13331      3A756F66 
 13331      66736574 
 13332 0033 65723A3A 		.ascii	"er::EndTable(flatbuffers::uoffset_t)\000"
 13332      456E6454 
 13332      61626C65 
 13332      28666C61 
 13332      74627566 
 13333              		.section	.rodata._ZZN11flatbuffers17FlatBufferBuilder9EndVectorEjE19__PRETTY_FUNCTION__,"a",%progb
 13334              		.align	3
 13335              		.set	.LANCHOR14,. + 0
 13338              	_ZZN11flatbuffers17FlatBufferBuilder9EndVectorEjE19__PRETTY_FUNCTION__:
 13339 0000 666C6174 		.ascii	"flatbuffers::uoffset_t flatbuffers::FlatBufferBuild"
 13339      62756666 
 13339      6572733A 
 13339      3A756F66 
 13339      66736574 
 13340 0033 65723A3A 		.ascii	"er::EndVector(size_t)\000"
 13340      456E6456 
 13340      6563746F 
 13340      72287369 
 13340      7A655F74 
 13341              		.section	.rodata._ZZN11flatbuffers17FlatBufferBuilder9NotNestedEvE19__PRETTY_FUNCTION__,"a",%progb
 13342              		.align	3
 13343              		.set	.LANCHOR11,. + 0
 13346              	_ZZN11flatbuffers17FlatBufferBuilder9NotNestedEvE19__PRETTY_FUNCTION__:
 13347 0000 766F6964 		.ascii	"void flatbuffers::FlatBufferBuilder::NotNested()\000"
 13347      20666C61 
 13347      74627566 
 13347      66657273 
 13347      3A3A466C 
 13348              		.section	.rodata._ZZN11flatbuffers9Allocator19reallocate_downwardEPhjjjjE19__PRETTY_FUNCTION__,"a"
 13349              		.align	3
 13350              		.set	.LANCHOR9,. + 0
 13353              	_ZZN11flatbuffers9Allocator19reallocate_downwardEPhjjjjE19__PRETTY_FUNCTION__:
 13354 0000 76697274 		.ascii	"virtual uint8_t* flatbuffers::Allocator::reallocate"
 13354      75616C20 
 13354      75696E74 
 13354      385F742A 
 13354      20666C61 
 13355 0033 5F646F77 		.ascii	"_downward(uint8_t*, size_t, size_t, size_t, size_t)"
 13355      6E776172 
 13355      64287569 
 13355      6E74385F 
 13355      742A2C20 
 13356 0066 00       		.ascii	"\000"
 13357              		.section	.rodata._ZZNK11flatbuffers15vector_downward11scratch_endEvE19__PRETTY_FUNCTION__,"a",%pro
 13358              		.align	3
 13359              		.set	.LANCHOR16,. + 0
 13362              	_ZZNK11flatbuffers15vector_downward11scratch_endEvE19__PRETTY_FUNCTION__:
 13363 0000 75696E74 		.ascii	"uint8_t* flatbuffers::vector_downward::scratch_end("
 13363      385F742A 
 13363      20666C61 
 13363      74627566 
 13363      66657273 
 13364 0033 2920636F 		.ascii	") const\000"
 13364      6E737400 
 13365              		.section	.rodata._ZZNK11flatbuffers15vector_downward12scratch_dataEvE19__PRETTY_FUNCTION__,"a",%pr
 13366              		.align	3
 13367              		.set	.LANCHOR17,. + 0
 13370              	_ZZNK11flatbuffers15vector_downward12scratch_dataEvE19__PRETTY_FUNCTION__:
 13371 0000 75696E74 		.ascii	"uint8_t* flatbuffers::vector_downward::scratch_data"
 13371      385F742A 
 13371      20666C61 
 13371      74627566 
 13371      66657273 
 13372 0033 28292063 		.ascii	"() const\000"
 13372      6F6E7374 
 13372      00
 13373              		.section	.rodata._ZZNK11flatbuffers15vector_downward4dataEvE19__PRETTY_FUNCTION__,"a",%progbits
 13374              		.align	3
 13375              		.set	.LANCHOR10,. + 0
 13378              	_ZZNK11flatbuffers15vector_downward4dataEvE19__PRETTY_FUNCTION__:
 13379 0000 75696E74 		.ascii	"uint8_t* flatbuffers::vector_downward::data() const"
 13379      385F742A 
 13379      20666C61 
 13379      74627566 
 13379      66657273 
 13380 0033 00       		.ascii	"\000"
 13381              		.section	.rodata._ZZNK11flatbuffers17FlatBufferBuilder8FinishedEvE19__PRETTY_FUNCTION__,"a",%progb
 13382              		.align	3
 13383              		.set	.LANCHOR18,. + 0
 13386              	_ZZNK11flatbuffers17FlatBufferBuilder8FinishedEvE19__PRETTY_FUNCTION__:
 13387 0000 766F6964 		.ascii	"void flatbuffers::FlatBufferBuilder::Finished() con"
 13387      20666C61 
 13387      74627566 
 13387      66657273 
 13387      3A3A466C 
 13388 0033 737400   		.ascii	"st\000"
 13389              		.section	.rodata._ZZNK11flatbuffers6VectorINS_6OffsetIN6tflite8SubGraphEEEE3GetEmE19__PRETTY_FUNCT
 13390              		.align	3
 13391              		.set	.LANCHOR42,. + 0
 13394              	_ZZNK11flatbuffers6VectorINS_6OffsetIN6tflite8SubGraphEEEE3GetEmE19__PRETTY_FUNCTION__:
 13395 0000 666C6174 		.ascii	"flatbuffers::Vector<T>::return_type flatbuffers::Ve"
 13395      62756666 
 13395      6572733A 
 13395      3A566563 
 13395      746F723C 
 13396 0033 63746F72 		.ascii	"ctor<T>::Get(flatbuffers::uoffset_t) const [with T "
 13396      3C543E3A 
 13396      3A476574 
 13396      28666C61 
 13396      74627566 
 13397 0066 3D20666C 		.ascii	"= flatbuffers::Offset<tflite::SubGraph>; flatbuffer"
 13397      61746275 
 13397      66666572 
 13397      733A3A4F 
 13397      66667365 
 13398 0099 733A3A56 		.ascii	"s::Vector<T>::return_type = const tflite::SubGraph*"
 13398      6563746F 
 13398      723C543E 
 13398      3A3A7265 
 13398      7475726E 
 13399 00cc 3B20666C 		.ascii	"; flatbuffers::uoffset_t = long unsigned int]\000"
 13399      61746275 
 13399      66666572 
 13399      733A3A75 
 13399      6F666673 
 13400              		.section	.rodata.str1.4,"aMS",%progbits,1
 13401              		.align	2
 13402              	.LC68:
 13403 0000 466C6174 		.ascii	"FlatBuffers 1.12.0\000"
 13403      42756666 
 13403      65727320 
 13403      312E3132 
 13403      2E3000
 13404              		.ident	"GCC: (GNU Tools for ARM Embedded Processors 6-2017-q2-update) 6.3.1 20170620 (release) [AR
DEFINED SYMBOLS
                            *ABS*:00000000 test_helpers.cc
C:\Users\a5050395\AppData\Local\Temp\cckt0tp7.s:14     .text._ZN6tflite7testing12_GLOBAL__N_114StackAllocator10deallocateEPhj:00000000 $a
C:\Users\a5050395\AppData\Local\Temp\cckt0tp7.s:19     .text._ZN6tflite7testing12_GLOBAL__N_114StackAllocator10deallocateEPhj:00000000 _ZN6tflite7testing12_GLOBAL__N_114StackAllocator10deallocateEPhj
.ARM.exidx.text._ZN6tflite7testing12_GLOBAL__N_114StackAllocator10deallocateEPhj:00000000 $d
C:\Users\a5050395\AppData\Local\Temp\cckt0tp7.s:30     .text._ZN6tflite7testing10MockCustom4FreeEP13TfLiteContextPv:00000000 $a
C:\Users\a5050395\AppData\Local\Temp\cckt0tp7.s:36     .text._ZN6tflite7testing10MockCustom4FreeEP13TfLiteContextPv:00000000 _ZN6tflite7testing10MockCustom4FreeEP13TfLiteContextPv
C:\Users\a5050395\AppData\Local\Temp\cckt0tp7.s:12905  .bss._ZN6tflite7testing10MockCustom6freed_E:00000000 .LANCHOR0
.ARM.exidx.text._ZN6tflite7testing10MockCustom4FreeEP13TfLiteContextPv:00000000 $d
C:\Users\a5050395\AppData\Local\Temp\cckt0tp7.s:51     .text._ZN6tflite7testing14MultipleInputs4FreeEP13TfLiteContextPv:00000000 $a
C:\Users\a5050395\AppData\Local\Temp\cckt0tp7.s:57     .text._ZN6tflite7testing14MultipleInputs4FreeEP13TfLiteContextPv:00000000 _ZN6tflite7testing14MultipleInputs4FreeEP13TfLiteContextPv
C:\Users\a5050395\AppData\Local\Temp\cckt0tp7.s:12911  .bss._ZN6tflite7testing14MultipleInputs6freed_E:00000000 .LANCHOR1
.ARM.exidx.text._ZN6tflite7testing14MultipleInputs4FreeEP13TfLiteContextPv:00000000 $d
C:\Users\a5050395\AppData\Local\Temp\cckt0tp7.s:72     .text._ZN6tflite7testing14MultipleInputs7PrepareEP13TfLiteContextP10TfLiteNode:00000000 $a
C:\Users\a5050395\AppData\Local\Temp\cckt0tp7.s:78     .text._ZN6tflite7testing14MultipleInputs7PrepareEP13TfLiteContextP10TfLiteNode:00000000 _ZN6tflite7testing14MultipleInputs7PrepareEP13TfLiteContextP10TfLiteNode
.ARM.exidx.text._ZN6tflite7testing14MultipleInputs7PrepareEP13TfLiteContextP10TfLiteNode:00000000 $d
C:\Users\a5050395\AppData\Local\Temp\cckt0tp7.s:90     .text._ZN6tflite7testing12_GLOBAL__N_114StackAllocatorD2Ev:00000000 $a
C:\Users\a5050395\AppData\Local\Temp\cckt0tp7.s:95     .text._ZN6tflite7testing12_GLOBAL__N_114StackAllocatorD2Ev:00000000 _ZN6tflite7testing12_GLOBAL__N_114StackAllocatorD2Ev
.ARM.exidx.text._ZN6tflite7testing12_GLOBAL__N_114StackAllocatorD2Ev:00000000 $d
C:\Users\a5050395\AppData\Local\Temp\cckt0tp7.s:95     .text._ZN6tflite7testing12_GLOBAL__N_114StackAllocatorD2Ev:00000000 _ZN6tflite7testing12_GLOBAL__N_114StackAllocatorD1Ev
C:\Users\a5050395\AppData\Local\Temp\cckt0tp7.s:107    .text._ZN11flatbuffers16DefaultAllocatorD2Ev:00000000 $a
C:\Users\a5050395\AppData\Local\Temp\cckt0tp7.s:113    .text._ZN11flatbuffers16DefaultAllocatorD2Ev:00000000 _ZN11flatbuffers16DefaultAllocatorD2Ev
.ARM.exidx.text._ZN11flatbuffers16DefaultAllocatorD2Ev:00000000 $d
C:\Users\a5050395\AppData\Local\Temp\cckt0tp7.s:113    .text._ZN11flatbuffers16DefaultAllocatorD2Ev:00000000 _ZN11flatbuffers16DefaultAllocatorD1Ev
C:\Users\a5050395\AppData\Local\Temp\cckt0tp7.s:126    .text._ZN6tflite7testing10MockCustom4InitEP13TfLiteContextPKcj:00000000 $a
C:\Users\a5050395\AppData\Local\Temp\cckt0tp7.s:132    .text._ZN6tflite7testing10MockCustom4InitEP13TfLiteContextPKcj:00000000 _ZN6tflite7testing10MockCustom4InitEP13TfLiteContextPKcj
.ARM.exidx.text._ZN6tflite7testing10MockCustom4InitEP13TfLiteContextPKcj:00000000 $d
C:\Users\a5050395\AppData\Local\Temp\cckt0tp7.s:152    .text._ZN6tflite7testing14MultipleInputs4InitEP13TfLiteContextPKcj:00000000 $a
C:\Users\a5050395\AppData\Local\Temp\cckt0tp7.s:158    .text._ZN6tflite7testing14MultipleInputs4InitEP13TfLiteContextPKcj:00000000 _ZN6tflite7testing14MultipleInputs4InitEP13TfLiteContextPKcj
.ARM.exidx.text._ZN6tflite7testing14MultipleInputs4InitEP13TfLiteContextPKcj:00000000 $d
C:\Users\a5050395\AppData\Local\Temp\cckt0tp7.s:178    .text._ZN6tflite7testing12_GLOBAL__N_114StackAllocator8allocateEj:00000000 $a
C:\Users\a5050395\AppData\Local\Temp\cckt0tp7.s:183    .text._ZN6tflite7testing12_GLOBAL__N_114StackAllocator8allocateEj:00000000 _ZN6tflite7testing12_GLOBAL__N_114StackAllocator8allocateEj
.ARM.exidx.text._ZN6tflite7testing12_GLOBAL__N_114StackAllocator8allocateEj:00000000 $d
C:\Users\a5050395\AppData\Local\Temp\cckt0tp7.s:205    .text._ZN6tflite7testing16SimpleStatefulOp4InitEP13TfLiteContextPKcj:00000000 $a
C:\Users\a5050395\AppData\Local\Temp\cckt0tp7.s:211    .text._ZN6tflite7testing16SimpleStatefulOp4InitEP13TfLiteContextPKcj:00000000 _ZN6tflite7testing16SimpleStatefulOp4InitEP13TfLiteContextPKcj
.ARM.exidx.text._ZN6tflite7testing16SimpleStatefulOp4InitEP13TfLiteContextPKcj:00000000 $d
C:\Users\a5050395\AppData\Local\Temp\cckt0tp7.s:238    .text._ZN6tflite7testing16SimpleStatefulOp7PrepareEP13TfLiteContextP10TfLiteNode:00000000 $a
C:\Users\a5050395\AppData\Local\Temp\cckt0tp7.s:244    .text._ZN6tflite7testing16SimpleStatefulOp7PrepareEP13TfLiteContextP10TfLiteNode:00000000 _ZN6tflite7testing16SimpleStatefulOp7PrepareEP13TfLiteContextP10TfLiteNode
.ARM.exidx.text._ZN6tflite7testing16SimpleStatefulOp7PrepareEP13TfLiteContextP10TfLiteNode:00000000 $d
C:\Users\a5050395\AppData\Local\Temp\cckt0tp7.s:482    .text._ZN6tflite7testing10MockCustom6InvokeEP13TfLiteContextP10TfLiteNode:00000000 $a
C:\Users\a5050395\AppData\Local\Temp\cckt0tp7.s:488    .text._ZN6tflite7testing10MockCustom6InvokeEP13TfLiteContextP10TfLiteNode:00000000 _ZN6tflite7testing10MockCustom6InvokeEP13TfLiteContextP10TfLiteNode
.ARM.exidx.text._ZN6tflite7testing10MockCustom6InvokeEP13TfLiteContextP10TfLiteNode:00000000 $d
C:\Users\a5050395\AppData\Local\Temp\cckt0tp7.s:541    .text._ZN6tflite7testing14MultipleInputs6InvokeEP13TfLiteContextP10TfLiteNode:00000000 $a
C:\Users\a5050395\AppData\Local\Temp\cckt0tp7.s:547    .text._ZN6tflite7testing14MultipleInputs6InvokeEP13TfLiteContextP10TfLiteNode:00000000 _ZN6tflite7testing14MultipleInputs6InvokeEP13TfLiteContextP10TfLiteNode
.ARM.exidx.text._ZN6tflite7testing14MultipleInputs6InvokeEP13TfLiteContextP10TfLiteNode:00000000 $d
C:\Users\a5050395\AppData\Local\Temp\cckt0tp7.s:610    .text._ZN6tflite7testing16SimpleStatefulOp6InvokeEP13TfLiteContextP10TfLiteNode:00000000 $a
C:\Users\a5050395\AppData\Local\Temp\cckt0tp7.s:616    .text._ZN6tflite7testing16SimpleStatefulOp6InvokeEP13TfLiteContextP10TfLiteNode:00000000 _ZN6tflite7testing16SimpleStatefulOp6InvokeEP13TfLiteContextP10TfLiteNode
.ARM.exidx.text._ZN6tflite7testing16SimpleStatefulOp6InvokeEP13TfLiteContextP10TfLiteNode:00000000 $d
C:\Users\a5050395\AppData\Local\Temp\cckt0tp7.s:940    .text._ZNK6tflite22MicroMutableOpResolverILj128EE6FindOpEPKc:00000000 $a
C:\Users\a5050395\AppData\Local\Temp\cckt0tp7.s:946    .text._ZNK6tflite22MicroMutableOpResolverILj128EE6FindOpEPKc:00000000 _ZNK6tflite22MicroMutableOpResolverILj128EE6FindOpEPKc
.ARM.exidx.text._ZNK6tflite22MicroMutableOpResolverILj128EE6FindOpEPKc:00000000 $d
C:\Users\a5050395\AppData\Local\Temp\cckt0tp7.s:985    .text._ZN6tflite7testing12_GLOBAL__N_114StackAllocatorD0Ev:00000000 $a
C:\Users\a5050395\AppData\Local\Temp\cckt0tp7.s:990    .text._ZN6tflite7testing12_GLOBAL__N_114StackAllocatorD0Ev:00000000 _ZN6tflite7testing12_GLOBAL__N_114StackAllocatorD0Ev
.ARM.exidx.text._ZN6tflite7testing12_GLOBAL__N_114StackAllocatorD0Ev:00000000 $d
C:\Users\a5050395\AppData\Local\Temp\cckt0tp7.s:1004   .text._ZN11flatbuffers16DefaultAllocatorD0Ev:00000000 $a
C:\Users\a5050395\AppData\Local\Temp\cckt0tp7.s:1010   .text._ZN11flatbuffers16DefaultAllocatorD0Ev:00000000 _ZN11flatbuffers16DefaultAllocatorD0Ev
.ARM.exidx.text._ZN11flatbuffers16DefaultAllocatorD0Ev:00000000 $d
C:\Users\a5050395\AppData\Local\Temp\cckt0tp7.s:1024   .text._ZN6tflite7testing12_GLOBAL__N_115BuilderInstanceEv:00000000 $a
C:\Users\a5050395\AppData\Local\Temp\cckt0tp7.s:1029   .text._ZN6tflite7testing12_GLOBAL__N_115BuilderInstanceEv:00000000 _ZN6tflite7testing12_GLOBAL__N_115BuilderInstanceEv
C:\Users\a5050395\AppData\Local\Temp\cckt0tp7.s:12899  .bss._ZGVZN6tflite7testing12_GLOBAL__N_115BuilderInstanceEvE4inst:00000000 .LANCHOR4
C:\Users\a5050395\AppData\Local\Temp\cckt0tp7.s:12946  .bss._ZZN6tflite7testing12_GLOBAL__N_115BuilderInstanceEvE4inst:00000000 .LANCHOR5
C:\Users\a5050395\AppData\Local\Temp\cckt0tp7.s:12892  .bss._ZGVZN6tflite7testing12_GLOBAL__N_114StackAllocator8instanceEvE4inst:00000000 .LANCHOR6
C:\Users\a5050395\AppData\Local\Temp\cckt0tp7.s:12932  .bss._ZZN6tflite7testing12_GLOBAL__N_114StackAllocator8instanceEvE4inst:00000000 .LANCHOR7
C:\Users\a5050395\AppData\Local\Temp\cckt0tp7.s:12939  .bss._ZZN6tflite7testing12_GLOBAL__N_115BuilderInstanceEvE11inst_memory:00000000 .LANCHOR3
C:\Users\a5050395\AppData\Local\Temp\cckt0tp7.s:12925  .bss._ZZN6tflite7testing12_GLOBAL__N_114StackAllocator8instanceEvE11inst_memory:00000000 .LANCHOR2
C:\Users\a5050395\AppData\Local\Temp\cckt0tp7.s:1117   .text._ZN6tflite7testing12_GLOBAL__N_115BuilderInstanceEv:0000012c $d
.ARM.exidx.text._ZN6tflite7testing12_GLOBAL__N_115BuilderInstanceEv:00000000 $d
C:\Users\a5050395\AppData\Local\Temp\cckt0tp7.s:1122   .text._ZN11flatbuffers16DefaultAllocator8allocateEj:00000000 $a
C:\Users\a5050395\AppData\Local\Temp\cckt0tp7.s:1128   .text._ZN11flatbuffers16DefaultAllocator8allocateEj:00000000 _ZN11flatbuffers16DefaultAllocator8allocateEj
.ARM.exidx.text._ZN11flatbuffers16DefaultAllocator8allocateEj:00000000 $d
C:\Users\a5050395\AppData\Local\Temp\cckt0tp7.s:1140   .text._ZN11flatbuffers16DefaultAllocator10deallocateEPhj:00000000 $a
C:\Users\a5050395\AppData\Local\Temp\cckt0tp7.s:1146   .text._ZN11flatbuffers16DefaultAllocator10deallocateEPhj:00000000 _ZN11flatbuffers16DefaultAllocator10deallocateEPhj
.ARM.exidx.text._ZN11flatbuffers16DefaultAllocator10deallocateEPhj:00000000 $d
C:\Users\a5050395\AppData\Local\Temp\cckt0tp7.s:1159   .text._ZN11flatbuffers9Allocator19reallocate_downwardEPhjjjj:00000000 $a
C:\Users\a5050395\AppData\Local\Temp\cckt0tp7.s:1165   .text._ZN11flatbuffers9Allocator19reallocate_downwardEPhjjjj:00000000 _ZN11flatbuffers9Allocator19reallocate_downwardEPhjjjj
C:\Users\a5050395\AppData\Local\Temp\cckt0tp7.s:13155  .rodata._ZN11flatbuffers9Allocator19reallocate_downwardEPhjjjj.str1.4:00000000 .LC18
C:\Users\a5050395\AppData\Local\Temp\cckt0tp7.s:13350  .rodata._ZZN11flatbuffers9Allocator19reallocate_downwardEPhjjjjE19__PRETTY_FUNCTION__:00000000 .LANCHOR9
C:\Users\a5050395\AppData\Local\Temp\cckt0tp7.s:13157  .rodata._ZN11flatbuffers9Allocator19reallocate_downwardEPhjjjj.str1.4:00000014 .LC19
.ARM.exidx.text._ZN11flatbuffers9Allocator19reallocate_downwardEPhjjjj:00000000 $d
C:\Users\a5050395\AppData\Local\Temp\cckt0tp7.s:1214   .text.unlikely._ZNK11flatbuffers15vector_downward4dataEv.isra.9.part.10:00000000 $a
C:\Users\a5050395\AppData\Local\Temp\cckt0tp7.s:1219   .text.unlikely._ZNK11flatbuffers15vector_downward4dataEv.isra.9.part.10:00000000 _ZNK11flatbuffers15vector_downward4dataEv.isra.9.part.10
C:\Users\a5050395\AppData\Local\Temp\cckt0tp7.s:13280  .rodata._ZNK11flatbuffers15vector_downward4dataEv.isra.9.part.10.str1.4:00000000 .LC20
C:\Users\a5050395\AppData\Local\Temp\cckt0tp7.s:13375  .rodata._ZZNK11flatbuffers15vector_downward4dataEvE19__PRETTY_FUNCTION__:00000000 .LANCHOR10
.ARM.exidx.text.unlikely._ZNK11flatbuffers15vector_downward4dataEv.isra.9.part.10:00000000 $d
C:\Users\a5050395\AppData\Local\Temp\cckt0tp7.s:1237   .text.unlikely._ZN11flatbuffers17FlatBufferBuilder9NotNestedEv.isra.19.part.20:00000000 $a
C:\Users\a5050395\AppData\Local\Temp\cckt0tp7.s:1242   .text.unlikely._ZN11flatbuffers17FlatBufferBuilder9NotNestedEv.isra.19.part.20:00000000 _ZN11flatbuffers17FlatBufferBuilder9NotNestedEv.isra.19.part.20
C:\Users\a5050395\AppData\Local\Temp\cckt0tp7.s:13151  .rodata._ZN11flatbuffers17FlatBufferBuilder9NotNestedEv.isra.19.part.20.str1.4:00000000 .LC21
C:\Users\a5050395\AppData\Local\Temp\cckt0tp7.s:13343  .rodata._ZZN11flatbuffers17FlatBufferBuilder9NotNestedEvE19__PRETTY_FUNCTION__:00000000 .LANCHOR11
.ARM.exidx.text.unlikely._ZN11flatbuffers17FlatBufferBuilder9NotNestedEv.isra.19.part.20:00000000 $d
C:\Users\a5050395\AppData\Local\Temp\cckt0tp7.s:1260   .text._ZN6tflite7testing10MockCustom7PrepareEP13TfLiteContextP10TfLiteNode:00000000 $a
C:\Users\a5050395\AppData\Local\Temp\cckt0tp7.s:1266   .text._ZN6tflite7testing10MockCustom7PrepareEP13TfLiteContextP10TfLiteNode:00000000 _ZN6tflite7testing10MockCustom7PrepareEP13TfLiteContextP10TfLiteNode
.ARM.exidx.text._ZN6tflite7testing10MockCustom7PrepareEP13TfLiteContextP10TfLiteNode:00000000 $d
C:\Users\a5050395\AppData\Local\Temp\cckt0tp7.s:1278   .text._ZN11flatbuffers15vector_downward12ensure_spaceEj:00000000 $a
C:\Users\a5050395\AppData\Local\Temp\cckt0tp7.s:1284   .text._ZN11flatbuffers15vector_downward12ensure_spaceEj:00000000 _ZN11flatbuffers15vector_downward12ensure_spaceEj
C:\Users\a5050395\AppData\Local\Temp\cckt0tp7.s:13117  .rodata._ZN11flatbuffers15vector_downward12ensure_spaceEj.str1.4:00000000 .LC22
C:\Users\a5050395\AppData\Local\Temp\cckt0tp7.s:13311  .rodata._ZZN11flatbuffers15vector_downward12ensure_spaceEjE19__PRETTY_FUNCTION__:00000000 .LANCHOR12
C:\Users\a5050395\AppData\Local\Temp\cckt0tp7.s:13120  .rodata._ZN11flatbuffers15vector_downward12ensure_spaceEj.str1.4:00000028 .LC23
.ARM.exidx.text._ZN11flatbuffers15vector_downward12ensure_spaceEj:00000000 $d
C:\Users\a5050395\AppData\Local\Temp\cckt0tp7.s:1458   .text._ZN11flatbuffers17FlatBufferBuilder11StartVectorEjj.constprop.148:00000000 $a
C:\Users\a5050395\AppData\Local\Temp\cckt0tp7.s:1463   .text._ZN11flatbuffers17FlatBufferBuilder11StartVectorEjj.constprop.148:00000000 _ZN11flatbuffers17FlatBufferBuilder11StartVectorEjj.constprop.148
C:\Users\a5050395\AppData\Local\Temp\cckt0tp7.s:13124  .rodata._ZN11flatbuffers17FlatBufferBuilder11StartVectorEjj.constprop.148.str1.4:00000000 .LC24
.ARM.exidx.text._ZN11flatbuffers17FlatBufferBuilder11StartVectorEjj.constprop.148:00000000 $d
C:\Users\a5050395\AppData\Local\Temp\cckt0tp7.s:1549   .text._ZN11flatbuffers17FlatBufferBuilder10AddElementImEEvtT_S2_.part.45:00000000 $a
C:\Users\a5050395\AppData\Local\Temp\cckt0tp7.s:1554   .text._ZN11flatbuffers17FlatBufferBuilder10AddElementImEEvtT_S2_.part.45:00000000 _ZN11flatbuffers17FlatBufferBuilder10AddElementImEEvtT_S2_.part.45
.ARM.exidx.text._ZN11flatbuffers17FlatBufferBuilder10AddElementImEEvtT_S2_.part.45:00000000 $d
C:\Users\a5050395\AppData\Local\Temp\cckt0tp7.s:1621   .text._ZN11flatbuffers17FlatBufferBuilder12CreateVectorIN6tflite6BufferEEENS_6OffsetINS_6VectorINS4_IT_EEEEEEPKS7_j.constprop.136:00000000 $a
C:\Users\a5050395\AppData\Local\Temp\cckt0tp7.s:1626   .text._ZN11flatbuffers17FlatBufferBuilder12CreateVectorIN6tflite6BufferEEENS_6OffsetINS_6VectorINS4_IT_EEEEEEPKS7_j.constprop.136:00000000 _ZN11flatbuffers17FlatBufferBuilder12CreateVectorIN6tflite6BufferEEENS_6OffsetINS_6VectorINS4_IT_EEEEEEPKS7_j.constprop.136
C:\Users\a5050395\AppData\Local\Temp\cckt0tp7.s:13128  .rodata._ZN11flatbuffers17FlatBufferBuilder12CreateVectorIN6tflite6BufferEEENS_6OffsetINS_6VectorINS4_IT_EEEEEEPKS7_j.constprop.136.str1.4:00000000 .LC25
C:\Users\a5050395\AppData\Local\Temp\cckt0tp7.s:13319  .rodata._ZZN11flatbuffers17FlatBufferBuilder7ReferToEmE19__PRETTY_FUNCTION__:00000000 .LANCHOR13
C:\Users\a5050395\AppData\Local\Temp\cckt0tp7.s:13130  .rodata._ZN11flatbuffers17FlatBufferBuilder12CreateVectorIN6tflite6BufferEEENS_6OffsetINS_6VectorINS4_IT_EEEEEEPKS7_j.constprop.136.str1.4:00000018 .LC26
C:\Users\a5050395\AppData\Local\Temp\cckt0tp7.s:13335  .rodata._ZZN11flatbuffers17FlatBufferBuilder9EndVectorEjE19__PRETTY_FUNCTION__:00000000 .LANCHOR14
.ARM.exidx.text._ZN11flatbuffers17FlatBufferBuilder12CreateVectorIN6tflite6BufferEEENS_6OffsetINS_6VectorINS4_IT_EEEEEEPKS7_j.constprop.136:00000000 $d
C:\Users\a5050395\AppData\Local\Temp\cckt0tp7.s:1775   .text._ZN11flatbuffers17FlatBufferBuilder12CreateVectorIN6tflite6TensorEEENS_6OffsetINS_6VectorINS4_IT_EEEEEEPKS7_j.constprop.125:00000000 $a
C:\Users\a5050395\AppData\Local\Temp\cckt0tp7.s:1780   .text._ZN11flatbuffers17FlatBufferBuilder12CreateVectorIN6tflite6TensorEEENS_6OffsetINS_6VectorINS4_IT_EEEEEEPKS7_j.constprop.125:00000000 _ZN11flatbuffers17FlatBufferBuilder12CreateVectorIN6tflite6TensorEEENS_6OffsetINS_6VectorINS4_IT_EEEEEEPKS7_j.constprop.125
.ARM.exidx.text._ZN11flatbuffers17FlatBufferBuilder12CreateVectorIN6tflite6TensorEEENS_6OffsetINS_6VectorINS4_IT_EEEEEEPKS7_j.constprop.125:00000000 $d
C:\Users\a5050395\AppData\Local\Temp\cckt0tp7.s:1930   .text._ZN11flatbuffers17FlatBufferBuilder12CreateVectorIN6tflite8OperatorEEENS_6OffsetINS_6VectorINS4_IT_EEEEEEPKS7_j.constprop.129:00000000 $a
C:\Users\a5050395\AppData\Local\Temp\cckt0tp7.s:1935   .text._ZN11flatbuffers17FlatBufferBuilder12CreateVectorIN6tflite8OperatorEEENS_6OffsetINS_6VectorINS4_IT_EEEEEEPKS7_j.constprop.129:00000000 _ZN11flatbuffers17FlatBufferBuilder12CreateVectorIN6tflite8OperatorEEENS_6OffsetINS_6VectorINS4_IT_EEEEEEPKS7_j.constprop.129
.ARM.exidx.text._ZN11flatbuffers17FlatBufferBuilder12CreateVectorIN6tflite8OperatorEEENS_6OffsetINS_6VectorINS4_IT_EEEEEEPKS7_j.constprop.129:00000000 $d
C:\Users\a5050395\AppData\Local\Temp\cckt0tp7.s:2084   .text._ZN11flatbuffers17FlatBufferBuilder12CreateVectorIN6tflite12OperatorCodeEEENS_6OffsetINS_6VectorINS4_IT_EEEEEEPKS7_j.constprop.130:00000000 $a
C:\Users\a5050395\AppData\Local\Temp\cckt0tp7.s:2089   .text._ZN11flatbuffers17FlatBufferBuilder12CreateVectorIN6tflite12OperatorCodeEEENS_6OffsetINS_6VectorINS4_IT_EEEEEEPKS7_j.constprop.130:00000000 _ZN11flatbuffers17FlatBufferBuilder12CreateVectorIN6tflite12OperatorCodeEEENS_6OffsetINS_6VectorINS4_IT_EEEEEEPKS7_j.constprop.130
.ARM.exidx.text._ZN11flatbuffers17FlatBufferBuilder12CreateVectorIN6tflite12OperatorCodeEEENS_6OffsetINS_6VectorINS4_IT_EEEEEEPKS7_j.constprop.130:00000000 $d
C:\Users\a5050395\AppData\Local\Temp\cckt0tp7.s:2238   .text._ZN11flatbuffers17FlatBufferBuilder12CreateVectorIN6tflite8SubGraphEEENS_6OffsetINS_6VectorINS4_IT_EEEEEEPKS7_j.constprop.132:00000000 $a
C:\Users\a5050395\AppData\Local\Temp\cckt0tp7.s:2243   .text._ZN11flatbuffers17FlatBufferBuilder12CreateVectorIN6tflite8SubGraphEEENS_6OffsetINS_6VectorINS4_IT_EEEEEEPKS7_j.constprop.132:00000000 _ZN11flatbuffers17FlatBufferBuilder12CreateVectorIN6tflite8SubGraphEEENS_6OffsetINS_6VectorINS4_IT_EEEEEEPKS7_j.constprop.132
.ARM.exidx.text._ZN11flatbuffers17FlatBufferBuilder12CreateVectorIN6tflite8SubGraphEEENS_6OffsetINS_6VectorINS4_IT_EEEEEEPKS7_j.constprop.132:00000000 $d
C:\Users\a5050395\AppData\Local\Temp\cckt0tp7.s:2392   .text._ZN11flatbuffers17FlatBufferBuilder7ReferToEm:00000000 $a
C:\Users\a5050395\AppData\Local\Temp\cckt0tp7.s:2398   .text._ZN11flatbuffers17FlatBufferBuilder7ReferToEm:00000000 _ZN11flatbuffers17FlatBufferBuilder7ReferToEm
.ARM.exidx.text._ZN11flatbuffers17FlatBufferBuilder7ReferToEm:00000000 $d
C:\Users\a5050395\AppData\Local\Temp\cckt0tp7.s:2457   .text._ZN11flatbuffers17FlatBufferBuilder6FinishEmPKcb.constprop.146:00000000 $a
C:\Users\a5050395\AppData\Local\Temp\cckt0tp7.s:2462   .text._ZN11flatbuffers17FlatBufferBuilder6FinishEmPKcb.constprop.146:00000000 _ZN11flatbuffers17FlatBufferBuilder6FinishEmPKcb.constprop.146
C:\Users\a5050395\AppData\Local\Temp\cckt0tp7.s:13134  .rodata._ZN11flatbuffers17FlatBufferBuilder6FinishEmPKcb.constprop.146.str1.4:00000000 .LC27
.ARM.exidx.text._ZN11flatbuffers17FlatBufferBuilder6FinishEmPKcb.constprop.146:00000000 $d
C:\Users\a5050395\AppData\Local\Temp\cckt0tp7.s:2570   .text._ZN11flatbuffers17FlatBufferBuilder8EndTableEm:00000000 $a
C:\Users\a5050395\AppData\Local\Temp\cckt0tp7.s:2576   .text._ZN11flatbuffers17FlatBufferBuilder8EndTableEm:00000000 _ZN11flatbuffers17FlatBufferBuilder8EndTableEm
C:\Users\a5050395\AppData\Local\Temp\cckt0tp7.s:13143  .rodata._ZN11flatbuffers17FlatBufferBuilder8EndTableEm.str1.4:00000028 .LC30
C:\Users\a5050395\AppData\Local\Temp\cckt0tp7.s:13327  .rodata._ZZN11flatbuffers17FlatBufferBuilder8EndTableEmE19__PRETTY_FUNCTION__:00000000 .LANCHOR15
C:\Users\a5050395\AppData\Local\Temp\cckt0tp7.s:13140  .rodata._ZN11flatbuffers17FlatBufferBuilder8EndTableEm.str1.4:0000001c .LC29
C:\Users\a5050395\AppData\Local\Temp\cckt0tp7.s:13359  .rodata._ZZNK11flatbuffers15vector_downward11scratch_endEvE19__PRETTY_FUNCTION__:00000000 .LANCHOR16
C:\Users\a5050395\AppData\Local\Temp\cckt0tp7.s:13147  .rodata._ZN11flatbuffers17FlatBufferBuilder8EndTableEm.str1.4:00000064 .LC31
C:\Users\a5050395\AppData\Local\Temp\cckt0tp7.s:13367  .rodata._ZZNK11flatbuffers15vector_downward12scratch_dataEvE19__PRETTY_FUNCTION__:00000000 .LANCHOR17
C:\Users\a5050395\AppData\Local\Temp\cckt0tp7.s:13138  .rodata._ZN11flatbuffers17FlatBufferBuilder8EndTableEm.str1.4:00000000 .LC28
.ARM.exidx.text._ZN11flatbuffers17FlatBufferBuilder8EndTableEm:00000000 $d
C:\Users\a5050395\AppData\Local\Temp\cckt0tp7.s:2804   .text._ZN6tflite12CreateTensorERN11flatbuffers17FlatBufferBuilderENS0_6OffsetINS0_6VectorIlEEEENS_10TensorTypeEmNS3_INS0_6StringEEENS3_INS_22QuantizationParametersEEEbNS3_INS_18SparsityParametersEEES6_.constprop.144:00000000 $a
C:\Users\a5050395\AppData\Local\Temp\cckt0tp7.s:2809   .text._ZN6tflite12CreateTensorERN11flatbuffers17FlatBufferBuilderENS0_6OffsetINS0_6VectorIlEEEENS_10TensorTypeEmNS3_INS0_6StringEEENS3_INS_22QuantizationParametersEEEbNS3_INS_18SparsityParametersEEES6_.constprop.144:00000000 _ZN6tflite12CreateTensorERN11flatbuffers17FlatBufferBuilderENS0_6OffsetINS0_6VectorIlEEEENS_10TensorTypeEmNS3_INS0_6StringEEENS3_INS_22QuantizationParametersEEEbNS3_INS_18SparsityParametersEEES6_.constprop.144
.ARM.exidx.text._ZN6tflite12CreateTensorERN11flatbuffers17FlatBufferBuilderENS0_6OffsetINS0_6VectorIlEEEENS_10TensorTypeEmNS3_INS0_6StringEEENS3_INS_22QuantizationParametersEEEbNS3_INS_18SparsityParametersEEES6_.constprop.144:00000000 $d
C:\Users\a5050395\AppData\Local\Temp\cckt0tp7.s:3093   .text._ZN6tflite12CreateTensorERN11flatbuffers17FlatBufferBuilderENS0_6OffsetINS0_6VectorIlEEEENS_10TensorTypeEmNS3_INS0_6StringEEENS3_INS_22QuantizationParametersEEEbNS3_INS_18SparsityParametersEEES6_.constprop.145:00000000 $a
C:\Users\a5050395\AppData\Local\Temp\cckt0tp7.s:3098   .text._ZN6tflite12CreateTensorERN11flatbuffers17FlatBufferBuilderENS0_6OffsetINS0_6VectorIlEEEENS_10TensorTypeEmNS3_INS0_6StringEEENS3_INS_22QuantizationParametersEEEbNS3_INS_18SparsityParametersEEES6_.constprop.145:00000000 _ZN6tflite12CreateTensorERN11flatbuffers17FlatBufferBuilderENS0_6OffsetINS0_6VectorIlEEEENS_10TensorTypeEmNS3_INS0_6StringEEENS3_INS_22QuantizationParametersEEEbNS3_INS_18SparsityParametersEEES6_.constprop.145
.ARM.exidx.text._ZN6tflite12CreateTensorERN11flatbuffers17FlatBufferBuilderENS0_6OffsetINS0_6VectorIlEEEENS_10TensorTypeEmNS3_INS0_6StringEEENS3_INS_22QuantizationParametersEEEbNS3_INS_18SparsityParametersEEES6_.constprop.145:00000000 $d
C:\Users\a5050395\AppData\Local\Temp\cckt0tp7.s:3379   .text._ZN11flatbuffers17FlatBufferBuilder12CreateStringEPKcj:00000000 $a
C:\Users\a5050395\AppData\Local\Temp\cckt0tp7.s:3385   .text._ZN11flatbuffers17FlatBufferBuilder12CreateStringEPKcj:00000000 _ZN11flatbuffers17FlatBufferBuilder12CreateStringEPKcj
.ARM.exidx.text._ZN11flatbuffers17FlatBufferBuilder12CreateStringEPKcj:00000000 $d
C:\Users\a5050395\AppData\Local\Temp\cckt0tp7.s:3505   .text._ZN6tflite24CreateOperatorCodeDirectERN11flatbuffers17FlatBufferBuilderEaPKclNS_15BuiltinOperatorE.constprop.143:00000000 $a
C:\Users\a5050395\AppData\Local\Temp\cckt0tp7.s:3510   .text._ZN6tflite24CreateOperatorCodeDirectERN11flatbuffers17FlatBufferBuilderEaPKclNS_15BuiltinOperatorE.constprop.143:00000000 _ZN6tflite24CreateOperatorCodeDirectERN11flatbuffers17FlatBufferBuilderEaPKclNS_15BuiltinOperatorE.constprop.143
.ARM.exidx.text._ZN6tflite24CreateOperatorCodeDirectERN11flatbuffers17FlatBufferBuilderEaPKclNS_15BuiltinOperatorE.constprop.143:00000000 $d
C:\Users\a5050395\AppData\Local\Temp\cckt0tp7.s:3791   .text._ZN11flatbuffers17FlatBufferBuilder9EndVectorEj:00000000 $a
C:\Users\a5050395\AppData\Local\Temp\cckt0tp7.s:3797   .text._ZN11flatbuffers17FlatBufferBuilder9EndVectorEj:00000000 _ZN11flatbuffers17FlatBufferBuilder9EndVectorEj
.ARM.exidx.text._ZN11flatbuffers17FlatBufferBuilder9EndVectorEj:00000000 $d
C:\Users\a5050395\AppData\Local\Temp\cckt0tp7.s:3861   .text._ZN11flatbuffers17FlatBufferBuilder12CreateVectorIlEENS_6OffsetINS_6VectorIT_EEEEPKS4_j.constprop.140:00000000 $a
C:\Users\a5050395\AppData\Local\Temp\cckt0tp7.s:3866   .text._ZN11flatbuffers17FlatBufferBuilder12CreateVectorIlEENS_6OffsetINS_6VectorIT_EEEEPKS4_j.constprop.140:00000000 _ZN11flatbuffers17FlatBufferBuilder12CreateVectorIlEENS_6OffsetINS_6VectorIT_EEEEPKS4_j.constprop.140
.ARM.exidx.text._ZN11flatbuffers17FlatBufferBuilder12CreateVectorIlEENS_6OffsetINS_6VectorIT_EEEEPKS4_j.constprop.140:00000000 $d
C:\Users\a5050395\AppData\Local\Temp\cckt0tp7.s:3893   .text._ZN11flatbuffers17FlatBufferBuilder12CreateVectorIlEENS_6OffsetINS_6VectorIT_EEEEPKS4_j.constprop.141:00000000 $a
C:\Users\a5050395\AppData\Local\Temp\cckt0tp7.s:3898   .text._ZN11flatbuffers17FlatBufferBuilder12CreateVectorIlEENS_6OffsetINS_6VectorIT_EEEEPKS4_j.constprop.141:00000000 _ZN11flatbuffers17FlatBufferBuilder12CreateVectorIlEENS_6OffsetINS_6VectorIT_EEEEPKS4_j.constprop.141
.ARM.exidx.text._ZN11flatbuffers17FlatBufferBuilder12CreateVectorIlEENS_6OffsetINS_6VectorIT_EEEEPKS4_j.constprop.141:00000000 $d
C:\Users\a5050395\AppData\Local\Temp\cckt0tp7.s:3925   .text._ZN6tflite7testing12_GLOBAL__N_112ModelBuilder13AddTensorImplENS_10TensorTypeEbSt16initializer_listIlE.constprop.122:00000000 $a
C:\Users\a5050395\AppData\Local\Temp\cckt0tp7.s:3930   .text._ZN6tflite7testing12_GLOBAL__N_112ModelBuilder13AddTensorImplENS_10TensorTypeEbSt16initializer_listIlE.constprop.122:00000000 _ZN6tflite7testing12_GLOBAL__N_112ModelBuilder13AddTensorImplENS_10TensorTypeEbSt16initializer_listIlE.constprop.122
.ARM.exidx.text._ZN6tflite7testing12_GLOBAL__N_112ModelBuilder13AddTensorImplENS_10TensorTypeEbSt16initializer_listIlE.constprop.122:00000000 $d
C:\Users\a5050395\AppData\Local\Temp\cckt0tp7.s:3986   .text._ZN6tflite12CreateTensorERN11flatbuffers17FlatBufferBuilderENS0_6OffsetINS0_6VectorIlEEEENS_10TensorTypeEmNS3_INS0_6StringEEENS3_INS_22QuantizationParametersEEEbNS3_INS_18SparsityParametersEEES6_:00000000 $a
C:\Users\a5050395\AppData\Local\Temp\cckt0tp7.s:3992   .text._ZN6tflite12CreateTensorERN11flatbuffers17FlatBufferBuilderENS0_6OffsetINS0_6VectorIlEEEENS_10TensorTypeEmNS3_INS0_6StringEEENS3_INS_22QuantizationParametersEEEbNS3_INS_18SparsityParametersEEES6_:00000000 _ZN6tflite12CreateTensorERN11flatbuffers17FlatBufferBuilderENS0_6OffsetINS0_6VectorIlEEEENS_10TensorTypeEmNS3_INS0_6StringEEENS3_INS_22QuantizationParametersEEEbNS3_INS_18SparsityParametersEEES6_
.ARM.exidx.text._ZN6tflite12CreateTensorERN11flatbuffers17FlatBufferBuilderENS0_6OffsetINS0_6VectorIlEEEENS_10TensorTypeEmNS3_INS0_6StringEEENS3_INS_22QuantizationParametersEEEbNS3_INS_18SparsityParametersEEES6_:00000000 $d
C:\Users\a5050395\AppData\Local\Temp\cckt0tp7.s:4284   .text._ZN6tflite14CreateOperatorERN11flatbuffers17FlatBufferBuilderEmNS0_6OffsetINS0_6VectorIlEEEES6_NS_14BuiltinOptionsENS3_IvEENS3_INS4_IhEEEENS_19CustomOptionsFormatESA_S6_:00000000 $a
C:\Users\a5050395\AppData\Local\Temp\cckt0tp7.s:4290   .text._ZN6tflite14CreateOperatorERN11flatbuffers17FlatBufferBuilderEmNS0_6OffsetINS0_6VectorIlEEEES6_NS_14BuiltinOptionsENS3_IvEENS3_INS4_IhEEEENS_19CustomOptionsFormatESA_S6_:00000000 _ZN6tflite14CreateOperatorERN11flatbuffers17FlatBufferBuilderEmNS0_6OffsetINS0_6VectorIlEEEES6_NS_14BuiltinOptionsENS3_IvEENS3_INS4_IhEEEENS_19CustomOptionsFormatESA_S6_
.ARM.exidx.text._ZN6tflite14CreateOperatorERN11flatbuffers17FlatBufferBuilderEmNS0_6OffsetINS0_6VectorIlEEEES6_NS_14BuiltinOptionsENS3_IvEENS3_INS4_IhEEEENS_19CustomOptionsFormatESA_S6_:00000000 $d
C:\Users\a5050395\AppData\Local\Temp\cckt0tp7.s:4600   .text._ZN6tflite7testing12_GLOBAL__N_112ModelBuilder7AddNodeEiSt16initializer_listIlES4_:00000000 $a
C:\Users\a5050395\AppData\Local\Temp\cckt0tp7.s:4605   .text._ZN6tflite7testing12_GLOBAL__N_112ModelBuilder7AddNodeEiSt16initializer_listIlES4_:00000000 _ZN6tflite7testing12_GLOBAL__N_112ModelBuilder7AddNodeEiSt16initializer_listIlES4_
.ARM.exidx.text._ZN6tflite7testing12_GLOBAL__N_112ModelBuilder7AddNodeEiSt16initializer_listIlES4_:00000000 $d
C:\Users\a5050395\AppData\Local\Temp\cckt0tp7.s:4698   .text._ZN6tflite14CreateSubGraphERN11flatbuffers17FlatBufferBuilderENS0_6OffsetINS0_6VectorINS3_INS_6TensorEEEEEEENS3_INS4_IlEEEESA_NS3_INS4_INS3_INS_8OperatorEEEEEEENS3_INS0_6StringEEE:00000000 $a
C:\Users\a5050395\AppData\Local\Temp\cckt0tp7.s:4704   .text._ZN6tflite14CreateSubGraphERN11flatbuffers17FlatBufferBuilderENS0_6OffsetINS0_6VectorINS3_INS_6TensorEEEEEEENS3_INS4_IlEEEESA_NS3_INS4_INS3_INS_8OperatorEEEEEEENS3_INS0_6StringEEE:00000000 _ZN6tflite14CreateSubGraphERN11flatbuffers17FlatBufferBuilderENS0_6OffsetINS0_6VectorINS3_INS_6TensorEEEEEEENS3_INS4_IlEEEESA_NS3_INS4_INS3_INS_8OperatorEEEEEEENS3_INS0_6StringEEE
.ARM.exidx.text._ZN6tflite14CreateSubGraphERN11flatbuffers17FlatBufferBuilderENS0_6OffsetINS0_6VectorINS3_INS_6TensorEEEEEEENS3_INS4_IlEEEESA_NS3_INS4_INS3_INS_8OperatorEEEEEEENS3_INS0_6StringEEE:00000000 $d
C:\Users\a5050395\AppData\Local\Temp\cckt0tp7.s:4835   .text._ZN6tflite12CreateBufferERN11flatbuffers17FlatBufferBuilderENS0_6OffsetINS0_6VectorIhEEEE:00000000 $a
C:\Users\a5050395\AppData\Local\Temp\cckt0tp7.s:4841   .text._ZN6tflite12CreateBufferERN11flatbuffers17FlatBufferBuilderENS0_6OffsetINS0_6VectorIhEEEE:00000000 _ZN6tflite12CreateBufferERN11flatbuffers17FlatBufferBuilderENS0_6OffsetINS0_6VectorIhEEEE
.ARM.exidx.text._ZN6tflite12CreateBufferERN11flatbuffers17FlatBufferBuilderENS0_6OffsetINS0_6VectorIhEEEE:00000000 $d
C:\Users\a5050395\AppData\Local\Temp\cckt0tp7.s:4949   .text._ZN6tflite11CreateModelERN11flatbuffers17FlatBufferBuilderEmNS0_6OffsetINS0_6VectorINS3_INS_12OperatorCodeEEEEEEENS3_INS4_INS3_INS_8SubGraphEEEEEEENS3_INS0_6StringEEENS3_INS4_INS3_INS_6BufferEEEEEEENS3_INS4_IlEEEENS3_INS4_INS3_INS_8MetadataEEEEEEENS3_INS4_INS3_INS_12SignatureDefEEEEEEE:00000000 $a
C:\Users\a5050395\AppData\Local\Temp\cckt0tp7.s:4955   .text._ZN6tflite11CreateModelERN11flatbuffers17FlatBufferBuilderEmNS0_6OffsetINS0_6VectorINS3_INS_12OperatorCodeEEEEEEENS3_INS4_INS3_INS_8SubGraphEEEEEEENS3_INS0_6StringEEENS3_INS4_INS3_INS_6BufferEEEEEEENS3_INS4_IlEEEENS3_INS4_INS3_INS_8MetadataEEEEEEENS3_INS4_INS3_INS_12SignatureDefEEEEEEE:00000000 _ZN6tflite11CreateModelERN11flatbuffers17FlatBufferBuilderEmNS0_6OffsetINS0_6VectorINS3_INS_12OperatorCodeEEEEEEENS3_INS4_INS3_INS_8SubGraphEEEEEEENS3_INS0_6StringEEENS3_INS4_INS3_INS_6BufferEEEEEEENS3_INS4_IlEEEENS3_INS4_INS3_INS_8MetadataEEEEEEENS3_INS4_INS3_INS_12SignatureDefEEEEEEE
.ARM.exidx.text._ZN6tflite11CreateModelERN11flatbuffers17FlatBufferBuilderEmNS0_6OffsetINS0_6VectorINS3_INS_12OperatorCodeEEEEEEENS3_INS4_INS3_INS_8SubGraphEEEEEEENS3_INS0_6StringEEENS3_INS4_INS3_INS_6BufferEEEEEEENS3_INS4_IlEEEENS3_INS4_INS3_INS_8MetadataEEEEEEENS3_INS4_INS3_INS_12SignatureDefEEEEEEE:00000000 $d
C:\Users\a5050395\AppData\Local\Temp\cckt0tp7.s:5183   .text._ZN6tflite7testing12_GLOBAL__N_112ModelBuilder10BuildModelESt16initializer_listIlES4_j:00000000 $a
C:\Users\a5050395\AppData\Local\Temp\cckt0tp7.s:5188   .text._ZN6tflite7testing12_GLOBAL__N_112ModelBuilder10BuildModelESt16initializer_listIlES4_j:00000000 _ZN6tflite7testing12_GLOBAL__N_112ModelBuilder10BuildModelESt16initializer_listIlES4_j
C:\Users\a5050395\AppData\Local\Temp\cckt0tp7.s:13163  .rodata._ZN6tflite7testing12_GLOBAL__N_112ModelBuilder10BuildModelESt16initializer_listIlES4_j.str1.4:00000000 .LC32
C:\Users\a5050395\AppData\Local\Temp\cckt0tp7.s:13166  .rodata._ZN6tflite7testing12_GLOBAL__N_112ModelBuilder10BuildModelESt16initializer_listIlES4_j.str1.4:00000010 .LC33
C:\Users\a5050395\AppData\Local\Temp\cckt0tp7.s:13168  .rodata._ZN6tflite7testing12_GLOBAL__N_112ModelBuilder10BuildModelESt16initializer_listIlES4_j.str1.4:0000001c .LC34
C:\Users\a5050395\AppData\Local\Temp\cckt0tp7.s:13383  .rodata._ZZNK11flatbuffers17FlatBufferBuilder8FinishedEvE19__PRETTY_FUNCTION__:00000000 .LANCHOR18
.ARM.exidx.text._ZN6tflite7testing12_GLOBAL__N_112ModelBuilder10BuildModelESt16initializer_listIlES4_j:00000000 $d
C:\Users\a5050395\AppData\Local\Temp\cckt0tp7.s:5995   .text._ZN6tflite7testing12_GLOBAL__N_126BuildSimpleModelWithBranchEv:00000000 $a
C:\Users\a5050395\AppData\Local\Temp\cckt0tp7.s:6000   .text._ZN6tflite7testing12_GLOBAL__N_126BuildSimpleModelWithBranchEv:00000000 _ZN6tflite7testing12_GLOBAL__N_126BuildSimpleModelWithBranchEv
C:\Users\a5050395\AppData\Local\Temp\cckt0tp7.s:13176  .rodata._ZN6tflite7testing12_GLOBAL__N_126BuildSimpleModelWithBranchEv.str1.4:00000000 .LC35
C:\Users\a5050395\AppData\Local\Temp\cckt0tp7.s:13043  .rodata.._141:00000000 .LANCHOR19
C:\Users\a5050395\AppData\Local\Temp\cckt0tp7.s:13052  .rodata.._142:00000000 .LANCHOR20
C:\Users\a5050395\AppData\Local\Temp\cckt0tp7.s:13061  .rodata.._143:00000000 .LANCHOR21
C:\Users\a5050395\AppData\Local\Temp\cckt0tp7.s:13070  .rodata.._144:00000000 .LANCHOR22
.ARM.exidx.text._ZN6tflite7testing12_GLOBAL__N_126BuildSimpleModelWithBranchEv:00000000 $d
C:\Users\a5050395\AppData\Local\Temp\cckt0tp7.s:6209   .text._ZN6tflite7testing12_GLOBAL__N_129BuildModelWithOfflinePlanningEiPKlPNS0_15NodeConnection_Eii:00000000 $a
C:\Users\a5050395\AppData\Local\Temp\cckt0tp7.s:6214   .text._ZN6tflite7testing12_GLOBAL__N_129BuildModelWithOfflinePlanningEiPKlPNS0_15NodeConnection_Eii:00000000 _ZN6tflite7testing12_GLOBAL__N_129BuildModelWithOfflinePlanningEiPKlPNS0_15NodeConnection_Eii
C:\Users\a5050395\AppData\Local\Temp\cckt0tp7.s:13079  .rodata.._145:00000000 .LANCHOR23
C:\Users\a5050395\AppData\Local\Temp\cckt0tp7.s:13180  .rodata._ZN6tflite7testing12_GLOBAL__N_129BuildModelWithOfflinePlanningEiPKlPNS0_15NodeConnection_Eii.str1.4:00000000 .LC36
.ARM.exidx.text._ZN6tflite7testing12_GLOBAL__N_129BuildModelWithOfflinePlanningEiPKlPNS0_15NodeConnection_Eii:00000000 $d
C:\Users\a5050395\AppData\Local\Temp\cckt0tp7.s:7089   .text._ZN6tflite7testing12_GLOBAL__N_124BuildSimpleStatefulModelEv:00000000 $a
C:\Users\a5050395\AppData\Local\Temp\cckt0tp7.s:7094   .text._ZN6tflite7testing12_GLOBAL__N_124BuildSimpleStatefulModelEv:00000000 _ZN6tflite7testing12_GLOBAL__N_124BuildSimpleStatefulModelEv
C:\Users\a5050395\AppData\Local\Temp\cckt0tp7.s:13172  .rodata._ZN6tflite7testing12_GLOBAL__N_124BuildSimpleStatefulModelEv.str1.4:00000000 .LC37
C:\Users\a5050395\AppData\Local\Temp\cckt0tp7.s:13022  .rodata.._138:00000000 .LANCHOR24
C:\Users\a5050395\AppData\Local\Temp\cckt0tp7.s:13029  .rodata.._139:00000000 .LANCHOR25
C:\Users\a5050395\AppData\Local\Temp\cckt0tp7.s:13036  .rodata.._140:00000000 .LANCHOR26
.ARM.exidx.text._ZN6tflite7testing12_GLOBAL__N_124BuildSimpleStatefulModelEv:00000000 $d
C:\Users\a5050395\AppData\Local\Temp\cckt0tp7.s:7342   .text._ZN6tflite7testing16SimpleStatefulOp15getRegistrationEv:00000000 $a
C:\Users\a5050395\AppData\Local\Temp\cckt0tp7.s:7348   .text._ZN6tflite7testing16SimpleStatefulOp15getRegistrationEv:00000000 _ZN6tflite7testing16SimpleStatefulOp15getRegistrationEv
C:\Users\a5050395\AppData\Local\Temp\cckt0tp7.s:12960  .bss._ZZN6tflite7testing16SimpleStatefulOp22GetMutableRegistrationEvE1r:00000000 .LANCHOR27
.ARM.exidx.text._ZN6tflite7testing16SimpleStatefulOp15getRegistrationEv:00000000 $d
C:\Users\a5050395\AppData\Local\Temp\cckt0tp7.s:7371   .text._ZN6tflite7testing16SimpleStatefulOp22GetMutableRegistrationEv:00000000 $a
C:\Users\a5050395\AppData\Local\Temp\cckt0tp7.s:7377   .text._ZN6tflite7testing16SimpleStatefulOp22GetMutableRegistrationEv:00000000 _ZN6tflite7testing16SimpleStatefulOp22GetMutableRegistrationEv
.ARM.exidx.text._ZN6tflite7testing16SimpleStatefulOp22GetMutableRegistrationEv:00000000 $d
C:\Users\a5050395\AppData\Local\Temp\cckt0tp7.s:7400   .text._ZN6tflite7testing10MockCustom15getRegistrationEv:00000000 $a
C:\Users\a5050395\AppData\Local\Temp\cckt0tp7.s:7406   .text._ZN6tflite7testing10MockCustom15getRegistrationEv:00000000 _ZN6tflite7testing10MockCustom15getRegistrationEv
C:\Users\a5050395\AppData\Local\Temp\cckt0tp7.s:12918  .bss._ZZN6tflite7testing10MockCustom22GetMutableRegistrationEvE1r:00000000 .LANCHOR28
.ARM.exidx.text._ZN6tflite7testing10MockCustom15getRegistrationEv:00000000 $d
C:\Users\a5050395\AppData\Local\Temp\cckt0tp7.s:7437   .text._ZN6tflite7testing10MockCustom22GetMutableRegistrationEv:00000000 $a
C:\Users\a5050395\AppData\Local\Temp\cckt0tp7.s:7443   .text._ZN6tflite7testing10MockCustom22GetMutableRegistrationEv:00000000 _ZN6tflite7testing10MockCustom22GetMutableRegistrationEv
.ARM.exidx.text._ZN6tflite7testing10MockCustom22GetMutableRegistrationEv:00000000 $d
C:\Users\a5050395\AppData\Local\Temp\cckt0tp7.s:7474   .text._ZN6tflite7testing14MultipleInputs15getRegistrationEv:00000000 $a
C:\Users\a5050395\AppData\Local\Temp\cckt0tp7.s:7480   .text._ZN6tflite7testing14MultipleInputs15getRegistrationEv:00000000 _ZN6tflite7testing14MultipleInputs15getRegistrationEv
C:\Users\a5050395\AppData\Local\Temp\cckt0tp7.s:12953  .bss._ZZN6tflite7testing14MultipleInputs22GetMutableRegistrationEvE1r:00000000 .LANCHOR29
.ARM.exidx.text._ZN6tflite7testing14MultipleInputs15getRegistrationEv:00000000 $d
C:\Users\a5050395\AppData\Local\Temp\cckt0tp7.s:7511   .text._ZN6tflite7testing14MultipleInputs22GetMutableRegistrationEv:00000000 $a
C:\Users\a5050395\AppData\Local\Temp\cckt0tp7.s:7517   .text._ZN6tflite7testing14MultipleInputs22GetMutableRegistrationEv:00000000 _ZN6tflite7testing14MultipleInputs22GetMutableRegistrationEv
.ARM.exidx.text._ZN6tflite7testing14MultipleInputs22GetMutableRegistrationEv:00000000 $d
C:\Users\a5050395\AppData\Local\Temp\cckt0tp7.s:7548   .text._ZN6tflite7testing13GetOpResolverEv:00000000 $a
C:\Users\a5050395\AppData\Local\Temp\cckt0tp7.s:7554   .text._ZN6tflite7testing13GetOpResolverEv:00000000 _ZN6tflite7testing13GetOpResolverEv
C:\Users\a5050395\AppData\Local\Temp\cckt0tp7.s:13184  .rodata._ZN6tflite7testing13GetOpResolverEv.str1.4:00000000 .LC38
.ARM.extab.text._ZN6tflite7testing13GetOpResolverEv:00000000 $d
.ARM.exidx.text._ZN6tflite7testing13GetOpResolverEv:00000000 $d
C:\Users\a5050395\AppData\Local\Temp\cckt0tp7.s:7849   .text._ZN6tflite7testing24GetModelWithUnusedInputsEv:00000000 $a
C:\Users\a5050395\AppData\Local\Temp\cckt0tp7.s:7855   .text._ZN6tflite7testing24GetModelWithUnusedInputsEv:00000000 _ZN6tflite7testing24GetModelWithUnusedInputsEv
C:\Users\a5050395\AppData\Local\Temp\cckt0tp7.s:12988  .bss._ZZN6tflite7testing24GetModelWithUnusedInputsEvE5model:00000000 .LANCHOR30
C:\Users\a5050395\AppData\Local\Temp\cckt0tp7.s:13233  .rodata._ZN6tflite7testing24GetModelWithUnusedInputsEv.str1.4:00000000 .LC39
C:\Users\a5050395\AppData\Local\Temp\cckt0tp7.s:13236  .rodata._ZN6tflite7testing24GetModelWithUnusedInputsEv.str1.4:00000014 .LC40
C:\Users\a5050395\AppData\Local\Temp\cckt0tp7.s:13239  .rodata._ZN6tflite7testing24GetModelWithUnusedInputsEv.str1.4:00000030 .LC41
C:\Users\a5050395\AppData\Local\Temp\cckt0tp7.s:13242  .rodata._ZN6tflite7testing24GetModelWithUnusedInputsEv.str1.4:00000044 .LC42
C:\Users\a5050395\AppData\Local\Temp\cckt0tp7.s:13245  .rodata._ZN6tflite7testing24GetModelWithUnusedInputsEv.str1.4:00000058 .LC43
C:\Users\a5050395\AppData\Local\Temp\cckt0tp7.s:8082   .text._ZN6tflite7testing24GetModelWithUnusedInputsEv:00000350 $d
.ARM.exidx.text._ZN6tflite7testing24GetModelWithUnusedInputsEv:00000000 $d
C:\Users\a5050395\AppData\Local\Temp\cckt0tp7.s:8089   .text._ZN6tflite7testing18GetSimpleMockModelEv:00000000 $a
C:\Users\a5050395\AppData\Local\Temp\cckt0tp7.s:8095   .text._ZN6tflite7testing18GetSimpleMockModelEv:00000000 _ZN6tflite7testing18GetSimpleMockModelEv
C:\Users\a5050395\AppData\Local\Temp\cckt0tp7.s:12967  .bss._ZZN6tflite7testing18GetSimpleMockModelEvE5model:00000000 .LANCHOR31
C:\Users\a5050395\AppData\Local\Temp\cckt0tp7.s:13188  .rodata._ZN6tflite7testing18GetSimpleMockModelEv.str1.4:00000000 .LC44
C:\Users\a5050395\AppData\Local\Temp\cckt0tp7.s:13191  .rodata._ZN6tflite7testing18GetSimpleMockModelEv.str1.4:00000014 .LC45
C:\Users\a5050395\AppData\Local\Temp\cckt0tp7.s:8509   .text._ZN6tflite7testing18GetSimpleMockModelEv:00000630 $d
C:\Users\a5050395\AppData\Local\Temp\cckt0tp7.s:8515   .text._ZN6tflite7testing18GetSimpleMockModelEv:00000640 $a
.ARM.exidx.text._ZN6tflite7testing18GetSimpleMockModelEv:00000000 $d
C:\Users\a5050395\AppData\Local\Temp\cckt0tp7.s:8588   .text._ZN6tflite7testing28GetSimpleMultipleInputsModelEv:00000000 $a
C:\Users\a5050395\AppData\Local\Temp\cckt0tp7.s:8594   .text._ZN6tflite7testing28GetSimpleMultipleInputsModelEv:00000000 _ZN6tflite7testing28GetSimpleMultipleInputsModelEv
C:\Users\a5050395\AppData\Local\Temp\cckt0tp7.s:13002  .bss._ZZN6tflite7testing28GetSimpleMultipleInputsModelEvE5model:00000000 .LANCHOR32
C:\Users\a5050395\AppData\Local\Temp\cckt0tp7.s:13249  .rodata._ZN6tflite7testing28GetSimpleMultipleInputsModelEv.str1.4:00000000 .LC46
C:\Users\a5050395\AppData\Local\Temp\cckt0tp7.s:13252  .rodata._ZN6tflite7testing28GetSimpleMultipleInputsModelEv.str1.4:00000014 .LC47
C:\Users\a5050395\AppData\Local\Temp\cckt0tp7.s:13255  .rodata._ZN6tflite7testing28GetSimpleMultipleInputsModelEv.str1.4:00000028 .LC48
C:\Users\a5050395\AppData\Local\Temp\cckt0tp7.s:12877  .rodata:00000000 .LANCHOR33
.ARM.exidx.text._ZN6tflite7testing28GetSimpleMultipleInputsModelEv:00000000 $d
C:\Users\a5050395\AppData\Local\Temp\cckt0tp7.s:8842   .text._ZN6tflite7testing32GetSimpleModelWithSubgraphsAndIfEv:00000000 $a
C:\Users\a5050395\AppData\Local\Temp\cckt0tp7.s:8848   .text._ZN6tflite7testing32GetSimpleModelWithSubgraphsAndIfEv:00000000 _ZN6tflite7testing32GetSimpleModelWithSubgraphsAndIfEv
C:\Users\a5050395\AppData\Local\Temp\cckt0tp7.s:13009  .bss._ZZN6tflite7testing32GetSimpleModelWithSubgraphsAndIfEvE5model:00000000 .LANCHOR34
C:\Users\a5050395\AppData\Local\Temp\cckt0tp7.s:13259  .rodata._ZN6tflite7testing32GetSimpleModelWithSubgraphsAndIfEv.str1.4:00000000 .LC49
C:\Users\a5050395\AppData\Local\Temp\cckt0tp7.s:13262  .rodata._ZN6tflite7testing32GetSimpleModelWithSubgraphsAndIfEv.str1.4:00000014 .LC50
C:\Users\a5050395\AppData\Local\Temp\cckt0tp7.s:13265  .rodata._ZN6tflite7testing32GetSimpleModelWithSubgraphsAndIfEv.str1.4:00000024 .LC51
C:\Users\a5050395\AppData\Local\Temp\cckt0tp7.s:13268  .rodata._ZN6tflite7testing32GetSimpleModelWithSubgraphsAndIfEv.str1.4:00000034 .LC52
C:\Users\a5050395\AppData\Local\Temp\cckt0tp7.s:9128   .text._ZN6tflite7testing32GetSimpleModelWithSubgraphsAndIfEv:00000430 $d
C:\Users\a5050395\AppData\Local\Temp\cckt0tp7.s:9132   .text._ZN6tflite7testing32GetSimpleModelWithSubgraphsAndIfEv:00000438 $a
C:\Users\a5050395\AppData\Local\Temp\cckt0tp7.s:13271  .rodata._ZN6tflite7testing32GetSimpleModelWithSubgraphsAndIfEv.str1.4:00000044 .LC53
C:\Users\a5050395\AppData\Local\Temp\cckt0tp7.s:13273  .rodata._ZN6tflite7testing32GetSimpleModelWithSubgraphsAndIfEv.str1.4:00000050 .LC54
C:\Users\a5050395\AppData\Local\Temp\cckt0tp7.s:13276  .rodata._ZN6tflite7testing32GetSimpleModelWithSubgraphsAndIfEv.str1.4:00000060 .LC55
.ARM.exidx.text._ZN6tflite7testing32GetSimpleModelWithSubgraphsAndIfEv:00000000 $d
C:\Users\a5050395\AppData\Local\Temp\cckt0tp7.s:9896   .text._ZN6tflite7testing19GetComplexMockModelEv:00000000 $a
C:\Users\a5050395\AppData\Local\Temp\cckt0tp7.s:9902   .text._ZN6tflite7testing19GetComplexMockModelEv:00000000 _ZN6tflite7testing19GetComplexMockModelEv
C:\Users\a5050395\AppData\Local\Temp\cckt0tp7.s:12974  .bss._ZZN6tflite7testing19GetComplexMockModelEvE5model:00000000 .LANCHOR35
C:\Users\a5050395\AppData\Local\Temp\cckt0tp7.s:13195  .rodata._ZN6tflite7testing19GetComplexMockModelEv.str1.4:00000000 .LC56
C:\Users\a5050395\AppData\Local\Temp\cckt0tp7.s:13197  .rodata._ZN6tflite7testing19GetComplexMockModelEv.str1.4:00000014 .LC57
C:\Users\a5050395\AppData\Local\Temp\cckt0tp7.s:13200  .rodata._ZN6tflite7testing19GetComplexMockModelEv.str1.4:0000002c .LC58
C:\Users\a5050395\AppData\Local\Temp\cckt0tp7.s:13203  .rodata._ZN6tflite7testing19GetComplexMockModelEv.str1.4:00000044 .LC59
C:\Users\a5050395\AppData\Local\Temp\cckt0tp7.s:13206  .rodata._ZN6tflite7testing19GetComplexMockModelEv.str1.4:0000005c .LC60
C:\Users\a5050395\AppData\Local\Temp\cckt0tp7.s:13209  .rodata._ZN6tflite7testing19GetComplexMockModelEv.str1.4:00000074 .LC61
C:\Users\a5050395\AppData\Local\Temp\cckt0tp7.s:13212  .rodata._ZN6tflite7testing19GetComplexMockModelEv.str1.4:0000008c .LC62
C:\Users\a5050395\AppData\Local\Temp\cckt0tp7.s:13215  .rodata._ZN6tflite7testing19GetComplexMockModelEv.str1.4:000000a4 .LC63
C:\Users\a5050395\AppData\Local\Temp\cckt0tp7.s:13218  .rodata._ZN6tflite7testing19GetComplexMockModelEv.str1.4:000000bc .LC64
C:\Users\a5050395\AppData\Local\Temp\cckt0tp7.s:13221  .rodata._ZN6tflite7testing19GetComplexMockModelEv.str1.4:000000d4 .LC65
.ARM.exidx.text._ZN6tflite7testing19GetComplexMockModelEv:00000000 $d
C:\Users\a5050395\AppData\Local\Temp\cckt0tp7.s:10873  .text._ZN6tflite7testing24GetSimpleModelWithBranchEv:00000000 $a
C:\Users\a5050395\AppData\Local\Temp\cckt0tp7.s:10879  .text._ZN6tflite7testing24GetSimpleModelWithBranchEv:00000000 _ZN6tflite7testing24GetSimpleModelWithBranchEv
C:\Users\a5050395\AppData\Local\Temp\cckt0tp7.s:12995  .bss._ZZN6tflite7testing24GetSimpleModelWithBranchEvE5model:00000000 .LANCHOR36
.ARM.exidx.text._ZN6tflite7testing24GetSimpleModelWithBranchEv:00000000 $d
C:\Users\a5050395\AppData\Local\Temp\cckt0tp7.s:10897  .text._ZN6tflite7testing27GetModelWithOfflinePlanningEiPKlPNS0_15NodeConnection_Eii:00000000 $a
C:\Users\a5050395\AppData\Local\Temp\cckt0tp7.s:10903  .text._ZN6tflite7testing27GetModelWithOfflinePlanningEiPKlPNS0_15NodeConnection_Eii:00000000 _ZN6tflite7testing27GetModelWithOfflinePlanningEiPKlPNS0_15NodeConnection_Eii
.ARM.exidx.text._ZN6tflite7testing27GetModelWithOfflinePlanningEiPKlPNS0_15NodeConnection_Eii:00000000 $d
C:\Users\a5050395\AppData\Local\Temp\cckt0tp7.s:10914  .text._ZN6tflite7testing22GetSimpleStatefulModelEv:00000000 $a
C:\Users\a5050395\AppData\Local\Temp\cckt0tp7.s:10920  .text._ZN6tflite7testing22GetSimpleStatefulModelEv:00000000 _ZN6tflite7testing22GetSimpleStatefulModelEv
C:\Users\a5050395\AppData\Local\Temp\cckt0tp7.s:12981  .bss._ZZN6tflite7testing22GetSimpleStatefulModelEvE5model:00000000 .LANCHOR37
.ARM.exidx.text._ZN6tflite7testing22GetSimpleStatefulModelEv:00000000 $d
C:\Users\a5050395\AppData\Local\Temp\cckt0tp7.s:10938  .text._ZN6tflite7testing24Create1dFlatbufferTensorEib:00000000 $a
C:\Users\a5050395\AppData\Local\Temp\cckt0tp7.s:10944  .text._ZN6tflite7testing24Create1dFlatbufferTensorEib:00000000 _ZN6tflite7testing24Create1dFlatbufferTensorEib
C:\Users\a5050395\AppData\Local\Temp\cckt0tp7.s:13229  .rodata._ZN6tflite7testing24Create1dFlatbufferTensorEib.str1.4:00000000 .LC66
.ARM.exidx.text._ZN6tflite7testing24Create1dFlatbufferTensorEib:00000000 $d
C:\Users\a5050395\AppData\Local\Temp\cckt0tp7.s:11084  .text._ZN6tflite7testing31CreateQuantizedFlatbufferTensorEi:00000000 $a
C:\Users\a5050395\AppData\Local\Temp\cckt0tp7.s:11090  .text._ZN6tflite7testing31CreateQuantizedFlatbufferTensorEi:00000000 _ZN6tflite7testing31CreateQuantizedFlatbufferTensorEi
C:\Users\a5050395\AppData\Local\Temp\cckt0tp7.s:13088  .rodata.._146:00000000 .LANCHOR38
C:\Users\a5050395\AppData\Local\Temp\cckt0tp7.s:13095  .rodata.._147:00000000 .LANCHOR39
C:\Users\a5050395\AppData\Local\Temp\cckt0tp7.s:13102  .rodata.._148:00000000 .LANCHOR40
C:\Users\a5050395\AppData\Local\Temp\cckt0tp7.s:13109  .rodata.._149:00000000 .LANCHOR41
.ARM.extab.text._ZN6tflite7testing31CreateQuantizedFlatbufferTensorEi:00000000 $d
.ARM.exidx.text._ZN6tflite7testing31CreateQuantizedFlatbufferTensorEi:00000000 $d
C:\Users\a5050395\AppData\Local\Temp\cckt0tp7.s:11711  .text._ZN6tflite7testing41CreateMissingQuantizationFlatbufferTensorEi:00000000 $a
C:\Users\a5050395\AppData\Local\Temp\cckt0tp7.s:11717  .text._ZN6tflite7testing41CreateMissingQuantizationFlatbufferTensorEi:00000000 _ZN6tflite7testing41CreateMissingQuantizationFlatbufferTensorEi
.ARM.exidx.text._ZN6tflite7testing41CreateMissingQuantizationFlatbufferTensorEi:00000000 $d
C:\Users\a5050395\AppData\Local\Temp\cckt0tp7.s:11972  .text._ZN6tflite7testing23CreateFlatbufferBuffersEv:00000000 $a
C:\Users\a5050395\AppData\Local\Temp\cckt0tp7.s:11978  .text._ZN6tflite7testing23CreateFlatbufferBuffersEv:00000000 _ZN6tflite7testing23CreateFlatbufferBuffersEv
.ARM.exidx.text._ZN6tflite7testing23CreateFlatbufferBuffersEv:00000000 $d
C:\Users\a5050395\AppData\Local\Temp\cckt0tp7.s:12168  .text._ZN6tflite7testing10TestStrcmpEPKcS2_:00000000 $a
C:\Users\a5050395\AppData\Local\Temp\cckt0tp7.s:12174  .text._ZN6tflite7testing10TestStrcmpEPKcS2_:00000000 _ZN6tflite7testing10TestStrcmpEPKcS2_
.ARM.exidx.text._ZN6tflite7testing10TestStrcmpEPKcS2_:00000000 $d
C:\Users\a5050395\AppData\Local\Temp\cckt0tp7.s:12209  .text._ZN6tflite7testing13ReportOpErrorEP13TfLiteContextPKcz:00000000 $a
C:\Users\a5050395\AppData\Local\Temp\cckt0tp7.s:12215  .text._ZN6tflite7testing13ReportOpErrorEP13TfLiteContextPKcz:00000000 _ZN6tflite7testing13ReportOpErrorEP13TfLiteContextPKcz
.ARM.exidx.text._ZN6tflite7testing13ReportOpErrorEP13TfLiteContextPKcz:00000000 $d
C:\Users\a5050395\AppData\Local\Temp\cckt0tp7.s:12228  .text._ZN6tflite7testing16IntArrayFromIntsEPi:00000000 $a
C:\Users\a5050395\AppData\Local\Temp\cckt0tp7.s:12234  .text._ZN6tflite7testing16IntArrayFromIntsEPi:00000000 _ZN6tflite7testing16IntArrayFromIntsEPi
.ARM.exidx.text._ZN6tflite7testing16IntArrayFromIntsEPi:00000000 $d
C:\Users\a5050395\AppData\Local\Temp\cckt0tp7.s:12245  .text._ZN6tflite7testing20FloatArrayFromFloatsEPKf:00000000 $a
C:\Users\a5050395\AppData\Local\Temp\cckt0tp7.s:12251  .text._ZN6tflite7testing20FloatArrayFromFloatsEPKf:00000000 _ZN6tflite7testing20FloatArrayFromFloatsEPKf
.ARM.exidx.text._ZN6tflite7testing20FloatArrayFromFloatsEPKf:00000000 $d
C:\Users\a5050395\AppData\Local\Temp\cckt0tp7.s:12265  .text._ZN6tflite7testing25CreateQuantizedBiasTensorEPKfPlP14TfLiteIntArrayffb:00000000 $a
C:\Users\a5050395\AppData\Local\Temp\cckt0tp7.s:12271  .text._ZN6tflite7testing25CreateQuantizedBiasTensorEPKfPlP14TfLiteIntArrayffb:00000000 _ZN6tflite7testing25CreateQuantizedBiasTensorEPKfPlP14TfLiteIntArrayffb
.ARM.extab.text._ZN6tflite7testing25CreateQuantizedBiasTensorEPKfPlP14TfLiteIntArrayffb:00000000 $d
.ARM.exidx.text._ZN6tflite7testing25CreateQuantizedBiasTensorEPKfPlP14TfLiteIntArrayffb:00000000 $d
C:\Users\a5050395\AppData\Local\Temp\cckt0tp7.s:12431  .text._ZN6tflite7testing35CreatePerChannelQuantizedBiasTensorEPKfPlP14TfLiteIntArrayfPfS6_PiP24TfLiteAffineQuantizationib:00000000 $a
C:\Users\a5050395\AppData\Local\Temp\cckt0tp7.s:12437  .text._ZN6tflite7testing35CreatePerChannelQuantizedBiasTensorEPKfPlP14TfLiteIntArrayfPfS6_PiP24TfLiteAffineQuantizationib:00000000 _ZN6tflite7testing35CreatePerChannelQuantizedBiasTensorEPKfPlP14TfLiteIntArrayfPfS6_PiP24TfLiteAffineQuantizationib
.ARM.extab.text._ZN6tflite7testing35CreatePerChannelQuantizedBiasTensorEPKfPlP14TfLiteIntArrayfPfS6_PiP24TfLiteAffineQuantizationib:00000000 $d
.ARM.exidx.text._ZN6tflite7testing35CreatePerChannelQuantizedBiasTensorEPKfPlP14TfLiteIntArrayfPfS6_PiP24TfLiteAffineQuantizationib:00000000 $d
C:\Users\a5050395\AppData\Local\Temp\cckt0tp7.s:12724  .text._ZN6tflite7testing40CreateSymmetricPerChannelQuantizedTensorEPKfPaP14TfLiteIntArrayPfPiP24TfLiteAffineQuantizationib:00000000 $a
C:\Users\a5050395\AppData\Local\Temp\cckt0tp7.s:12730  .text._ZN6tflite7testing40CreateSymmetricPerChannelQuantizedTensorEPKfPaP14TfLiteIntArrayPfPiP24TfLiteAffineQuantizationib:00000000 _ZN6tflite7testing40CreateSymmetricPerChannelQuantizedTensorEPKfPaP14TfLiteIntArrayPfPiP24TfLiteAffineQuantizationib
.ARM.exidx.text._ZN6tflite7testing40CreateSymmetricPerChannelQuantizedTensorEPKfPaP14TfLiteIntArrayPfPiP24TfLiteAffineQuantizationib:00000000 $d
C:\Users\a5050395\AppData\Local\Temp\cckt0tp7.s:12796  .text._ZN6tflite7testing19GetModelTensorCountEPKNS_5ModelE:00000000 $a
C:\Users\a5050395\AppData\Local\Temp\cckt0tp7.s:12802  .text._ZN6tflite7testing19GetModelTensorCountEPKNS_5ModelE:00000000 _ZN6tflite7testing19GetModelTensorCountEPKNS_5ModelE
C:\Users\a5050395\AppData\Local\Temp\cckt0tp7.s:13225  .rodata._ZN6tflite7testing19GetModelTensorCountEPKNS_5ModelE.str1.4:00000000 .LC67
C:\Users\a5050395\AppData\Local\Temp\cckt0tp7.s:13391  .rodata._ZZNK11flatbuffers6VectorINS_6OffsetIN6tflite8SubGraphEEEE3GetEmE19__PRETTY_FUNCTION__:00000000 .LANCHOR42
.ARM.exidx.text._ZN6tflite7testing19GetModelTensorCountEPKNS_5ModelE:00000000 $d
C:\Users\a5050395\AppData\Local\Temp\cckt0tp7.s:12862  .rodata._ZTSN11flatbuffers9AllocatorE:00000000 _ZTSN11flatbuffers9AllocatorE
C:\Users\a5050395\AppData\Local\Temp\cckt0tp7.s:12859  .rodata._ZTSN11flatbuffers9AllocatorE:00000000 $d
C:\Users\a5050395\AppData\Local\Temp\cckt0tp7.s:12869  .rodata._ZTIN11flatbuffers9AllocatorE:00000000 _ZTIN11flatbuffers9AllocatorE
C:\Users\a5050395\AppData\Local\Temp\cckt0tp7.s:12866  .rodata._ZTIN11flatbuffers9AllocatorE:00000000 $d
C:\Users\a5050395\AppData\Local\Temp\cckt0tp7.s:12914  .bss._ZN6tflite7testing14MultipleInputs6freed_E:00000000 _ZN6tflite7testing14MultipleInputs6freed_E
C:\Users\a5050395\AppData\Local\Temp\cckt0tp7.s:12908  .bss._ZN6tflite7testing10MockCustom6freed_E:00000000 _ZN6tflite7testing10MockCustom6freed_E
C:\Users\a5050395\AppData\Local\Temp\cckt0tp7.s:13018  .data._ZN11flatbuffers25flatbuffer_version_stringE:00000000 _ZN11flatbuffers25flatbuffer_version_stringE
C:\Users\a5050395\AppData\Local\Temp\cckt0tp7.s:12876  .rodata:00000000 $d
C:\Users\a5050395\AppData\Local\Temp\cckt0tp7.s:12891  .bss._ZGVZN6tflite7testing12_GLOBAL__N_114StackAllocator8instanceEvE4inst:00000000 $d
C:\Users\a5050395\AppData\Local\Temp\cckt0tp7.s:12895  .bss._ZGVZN6tflite7testing12_GLOBAL__N_114StackAllocator8instanceEvE4inst:00000000 _ZGVZN6tflite7testing12_GLOBAL__N_114StackAllocator8instanceEvE4inst
C:\Users\a5050395\AppData\Local\Temp\cckt0tp7.s:12898  .bss._ZGVZN6tflite7testing12_GLOBAL__N_115BuilderInstanceEvE4inst:00000000 $d
C:\Users\a5050395\AppData\Local\Temp\cckt0tp7.s:12902  .bss._ZGVZN6tflite7testing12_GLOBAL__N_115BuilderInstanceEvE4inst:00000000 _ZGVZN6tflite7testing12_GLOBAL__N_115BuilderInstanceEvE4inst
C:\Users\a5050395\AppData\Local\Temp\cckt0tp7.s:12909  .bss._ZN6tflite7testing10MockCustom6freed_E:00000000 $d
C:\Users\a5050395\AppData\Local\Temp\cckt0tp7.s:12915  .bss._ZN6tflite7testing14MultipleInputs6freed_E:00000000 $d
C:\Users\a5050395\AppData\Local\Temp\cckt0tp7.s:12917  .bss._ZZN6tflite7testing10MockCustom22GetMutableRegistrationEvE1r:00000000 $d
C:\Users\a5050395\AppData\Local\Temp\cckt0tp7.s:12921  .bss._ZZN6tflite7testing10MockCustom22GetMutableRegistrationEvE1r:00000000 _ZZN6tflite7testing10MockCustom22GetMutableRegistrationEvE1r
C:\Users\a5050395\AppData\Local\Temp\cckt0tp7.s:12924  .bss._ZZN6tflite7testing12_GLOBAL__N_114StackAllocator8instanceEvE11inst_memory:00000000 $d
C:\Users\a5050395\AppData\Local\Temp\cckt0tp7.s:12928  .bss._ZZN6tflite7testing12_GLOBAL__N_114StackAllocator8instanceEvE11inst_memory:00000000 _ZZN6tflite7testing12_GLOBAL__N_114StackAllocator8instanceEvE11inst_memory
C:\Users\a5050395\AppData\Local\Temp\cckt0tp7.s:12931  .bss._ZZN6tflite7testing12_GLOBAL__N_114StackAllocator8instanceEvE4inst:00000000 $d
C:\Users\a5050395\AppData\Local\Temp\cckt0tp7.s:12935  .bss._ZZN6tflite7testing12_GLOBAL__N_114StackAllocator8instanceEvE4inst:00000000 _ZZN6tflite7testing12_GLOBAL__N_114StackAllocator8instanceEvE4inst
C:\Users\a5050395\AppData\Local\Temp\cckt0tp7.s:12938  .bss._ZZN6tflite7testing12_GLOBAL__N_115BuilderInstanceEvE11inst_memory:00000000 $d
C:\Users\a5050395\AppData\Local\Temp\cckt0tp7.s:12942  .bss._ZZN6tflite7testing12_GLOBAL__N_115BuilderInstanceEvE11inst_memory:00000000 _ZZN6tflite7testing12_GLOBAL__N_115BuilderInstanceEvE11inst_memory
C:\Users\a5050395\AppData\Local\Temp\cckt0tp7.s:12945  .bss._ZZN6tflite7testing12_GLOBAL__N_115BuilderInstanceEvE4inst:00000000 $d
C:\Users\a5050395\AppData\Local\Temp\cckt0tp7.s:12949  .bss._ZZN6tflite7testing12_GLOBAL__N_115BuilderInstanceEvE4inst:00000000 _ZZN6tflite7testing12_GLOBAL__N_115BuilderInstanceEvE4inst
C:\Users\a5050395\AppData\Local\Temp\cckt0tp7.s:12952  .bss._ZZN6tflite7testing14MultipleInputs22GetMutableRegistrationEvE1r:00000000 $d
C:\Users\a5050395\AppData\Local\Temp\cckt0tp7.s:12956  .bss._ZZN6tflite7testing14MultipleInputs22GetMutableRegistrationEvE1r:00000000 _ZZN6tflite7testing14MultipleInputs22GetMutableRegistrationEvE1r
C:\Users\a5050395\AppData\Local\Temp\cckt0tp7.s:12959  .bss._ZZN6tflite7testing16SimpleStatefulOp22GetMutableRegistrationEvE1r:00000000 $d
C:\Users\a5050395\AppData\Local\Temp\cckt0tp7.s:12963  .bss._ZZN6tflite7testing16SimpleStatefulOp22GetMutableRegistrationEvE1r:00000000 _ZZN6tflite7testing16SimpleStatefulOp22GetMutableRegistrationEvE1r
C:\Users\a5050395\AppData\Local\Temp\cckt0tp7.s:12966  .bss._ZZN6tflite7testing18GetSimpleMockModelEvE5model:00000000 $d
C:\Users\a5050395\AppData\Local\Temp\cckt0tp7.s:12970  .bss._ZZN6tflite7testing18GetSimpleMockModelEvE5model:00000000 _ZZN6tflite7testing18GetSimpleMockModelEvE5model
C:\Users\a5050395\AppData\Local\Temp\cckt0tp7.s:12973  .bss._ZZN6tflite7testing19GetComplexMockModelEvE5model:00000000 $d
C:\Users\a5050395\AppData\Local\Temp\cckt0tp7.s:12977  .bss._ZZN6tflite7testing19GetComplexMockModelEvE5model:00000000 _ZZN6tflite7testing19GetComplexMockModelEvE5model
C:\Users\a5050395\AppData\Local\Temp\cckt0tp7.s:12980  .bss._ZZN6tflite7testing22GetSimpleStatefulModelEvE5model:00000000 $d
C:\Users\a5050395\AppData\Local\Temp\cckt0tp7.s:12984  .bss._ZZN6tflite7testing22GetSimpleStatefulModelEvE5model:00000000 _ZZN6tflite7testing22GetSimpleStatefulModelEvE5model
C:\Users\a5050395\AppData\Local\Temp\cckt0tp7.s:12987  .bss._ZZN6tflite7testing24GetModelWithUnusedInputsEvE5model:00000000 $d
C:\Users\a5050395\AppData\Local\Temp\cckt0tp7.s:12991  .bss._ZZN6tflite7testing24GetModelWithUnusedInputsEvE5model:00000000 _ZZN6tflite7testing24GetModelWithUnusedInputsEvE5model
C:\Users\a5050395\AppData\Local\Temp\cckt0tp7.s:12994  .bss._ZZN6tflite7testing24GetSimpleModelWithBranchEvE5model:00000000 $d
C:\Users\a5050395\AppData\Local\Temp\cckt0tp7.s:12998  .bss._ZZN6tflite7testing24GetSimpleModelWithBranchEvE5model:00000000 _ZZN6tflite7testing24GetSimpleModelWithBranchEvE5model
C:\Users\a5050395\AppData\Local\Temp\cckt0tp7.s:13001  .bss._ZZN6tflite7testing28GetSimpleMultipleInputsModelEvE5model:00000000 $d
C:\Users\a5050395\AppData\Local\Temp\cckt0tp7.s:13005  .bss._ZZN6tflite7testing28GetSimpleMultipleInputsModelEvE5model:00000000 _ZZN6tflite7testing28GetSimpleMultipleInputsModelEvE5model
C:\Users\a5050395\AppData\Local\Temp\cckt0tp7.s:13008  .bss._ZZN6tflite7testing32GetSimpleModelWithSubgraphsAndIfEvE5model:00000000 $d
C:\Users\a5050395\AppData\Local\Temp\cckt0tp7.s:13012  .bss._ZZN6tflite7testing32GetSimpleModelWithSubgraphsAndIfEvE5model:00000000 _ZZN6tflite7testing32GetSimpleModelWithSubgraphsAndIfEvE5model
C:\Users\a5050395\AppData\Local\Temp\cckt0tp7.s:13015  .data._ZN11flatbuffers25flatbuffer_version_stringE:00000000 $d
C:\Users\a5050395\AppData\Local\Temp\cckt0tp7.s:13021  .rodata.._138:00000000 $d
C:\Users\a5050395\AppData\Local\Temp\cckt0tp7.s:13025  .rodata.._138:00000000 ._138
C:\Users\a5050395\AppData\Local\Temp\cckt0tp7.s:13028  .rodata.._139:00000000 $d
C:\Users\a5050395\AppData\Local\Temp\cckt0tp7.s:13032  .rodata.._139:00000000 ._139
C:\Users\a5050395\AppData\Local\Temp\cckt0tp7.s:13035  .rodata.._140:00000000 $d
C:\Users\a5050395\AppData\Local\Temp\cckt0tp7.s:13039  .rodata.._140:00000000 ._140
C:\Users\a5050395\AppData\Local\Temp\cckt0tp7.s:13042  .rodata.._141:00000000 $d
C:\Users\a5050395\AppData\Local\Temp\cckt0tp7.s:13046  .rodata.._141:00000000 ._141
C:\Users\a5050395\AppData\Local\Temp\cckt0tp7.s:13051  .rodata.._142:00000000 $d
C:\Users\a5050395\AppData\Local\Temp\cckt0tp7.s:13055  .rodata.._142:00000000 ._142
C:\Users\a5050395\AppData\Local\Temp\cckt0tp7.s:13060  .rodata.._143:00000000 $d
C:\Users\a5050395\AppData\Local\Temp\cckt0tp7.s:13064  .rodata.._143:00000000 ._143
C:\Users\a5050395\AppData\Local\Temp\cckt0tp7.s:13069  .rodata.._144:00000000 $d
C:\Users\a5050395\AppData\Local\Temp\cckt0tp7.s:13073  .rodata.._144:00000000 ._144
C:\Users\a5050395\AppData\Local\Temp\cckt0tp7.s:13078  .rodata.._145:00000000 $d
C:\Users\a5050395\AppData\Local\Temp\cckt0tp7.s:13082  .rodata.._145:00000000 ._145
C:\Users\a5050395\AppData\Local\Temp\cckt0tp7.s:13087  .rodata.._146:00000000 $d
C:\Users\a5050395\AppData\Local\Temp\cckt0tp7.s:13091  .rodata.._146:00000000 ._146
C:\Users\a5050395\AppData\Local\Temp\cckt0tp7.s:13094  .rodata.._147:00000000 $d
C:\Users\a5050395\AppData\Local\Temp\cckt0tp7.s:13098  .rodata.._147:00000000 ._147
C:\Users\a5050395\AppData\Local\Temp\cckt0tp7.s:13101  .rodata.._148:00000000 $d
C:\Users\a5050395\AppData\Local\Temp\cckt0tp7.s:13105  .rodata.._148:00000000 ._148
C:\Users\a5050395\AppData\Local\Temp\cckt0tp7.s:13108  .rodata.._149:00000000 $d
C:\Users\a5050395\AppData\Local\Temp\cckt0tp7.s:13112  .rodata.._149:00000000 ._149
C:\Users\a5050395\AppData\Local\Temp\cckt0tp7.s:13116  .rodata._ZN11flatbuffers15vector_downward12ensure_spaceEj.str1.4:00000000 $d
C:\Users\a5050395\AppData\Local\Temp\cckt0tp7.s:13123  .rodata._ZN11flatbuffers17FlatBufferBuilder11StartVectorEjj.constprop.148.str1.4:00000000 $d
C:\Users\a5050395\AppData\Local\Temp\cckt0tp7.s:13127  .rodata._ZN11flatbuffers17FlatBufferBuilder12CreateVectorIN6tflite6BufferEEENS_6OffsetINS_6VectorINS4_IT_EEEEEEPKS7_j.constprop.136.str1.4:00000000 $d
C:\Users\a5050395\AppData\Local\Temp\cckt0tp7.s:13133  .rodata._ZN11flatbuffers17FlatBufferBuilder6FinishEmPKcb.constprop.146.str1.4:00000000 $d
C:\Users\a5050395\AppData\Local\Temp\cckt0tp7.s:13137  .rodata._ZN11flatbuffers17FlatBufferBuilder8EndTableEm.str1.4:00000000 $d
C:\Users\a5050395\AppData\Local\Temp\cckt0tp7.s:13150  .rodata._ZN11flatbuffers17FlatBufferBuilder9NotNestedEv.isra.19.part.20.str1.4:00000000 $d
C:\Users\a5050395\AppData\Local\Temp\cckt0tp7.s:13154  .rodata._ZN11flatbuffers9Allocator19reallocate_downwardEPhjjjj.str1.4:00000000 $d
C:\Users\a5050395\AppData\Local\Temp\cckt0tp7.s:13162  .rodata._ZN6tflite7testing12_GLOBAL__N_112ModelBuilder10BuildModelESt16initializer_listIlES4_j.str1.4:00000000 $d
C:\Users\a5050395\AppData\Local\Temp\cckt0tp7.s:13171  .rodata._ZN6tflite7testing12_GLOBAL__N_124BuildSimpleStatefulModelEv.str1.4:00000000 $d
C:\Users\a5050395\AppData\Local\Temp\cckt0tp7.s:13175  .rodata._ZN6tflite7testing12_GLOBAL__N_126BuildSimpleModelWithBranchEv.str1.4:00000000 $d
C:\Users\a5050395\AppData\Local\Temp\cckt0tp7.s:13179  .rodata._ZN6tflite7testing12_GLOBAL__N_129BuildModelWithOfflinePlanningEiPKlPNS0_15NodeConnection_Eii.str1.4:00000000 $d
C:\Users\a5050395\AppData\Local\Temp\cckt0tp7.s:13183  .rodata._ZN6tflite7testing13GetOpResolverEv.str1.4:00000000 $d
C:\Users\a5050395\AppData\Local\Temp\cckt0tp7.s:13187  .rodata._ZN6tflite7testing18GetSimpleMockModelEv.str1.4:00000000 $d
C:\Users\a5050395\AppData\Local\Temp\cckt0tp7.s:13194  .rodata._ZN6tflite7testing19GetComplexMockModelEv.str1.4:00000000 $d
C:\Users\a5050395\AppData\Local\Temp\cckt0tp7.s:13224  .rodata._ZN6tflite7testing19GetModelTensorCountEPKNS_5ModelE.str1.4:00000000 $d
C:\Users\a5050395\AppData\Local\Temp\cckt0tp7.s:13228  .rodata._ZN6tflite7testing24Create1dFlatbufferTensorEib.str1.4:00000000 $d
C:\Users\a5050395\AppData\Local\Temp\cckt0tp7.s:13232  .rodata._ZN6tflite7testing24GetModelWithUnusedInputsEv.str1.4:00000000 $d
C:\Users\a5050395\AppData\Local\Temp\cckt0tp7.s:13248  .rodata._ZN6tflite7testing28GetSimpleMultipleInputsModelEv.str1.4:00000000 $d
C:\Users\a5050395\AppData\Local\Temp\cckt0tp7.s:13258  .rodata._ZN6tflite7testing32GetSimpleModelWithSubgraphsAndIfEv.str1.4:00000000 $d
C:\Users\a5050395\AppData\Local\Temp\cckt0tp7.s:13279  .rodata._ZNK11flatbuffers15vector_downward4dataEv.isra.9.part.10.str1.4:00000000 $d
C:\Users\a5050395\AppData\Local\Temp\cckt0tp7.s:13283  .rodata._ZTIN6tflite7testing12_GLOBAL__N_114StackAllocatorE:00000000 $d
C:\Users\a5050395\AppData\Local\Temp\cckt0tp7.s:13286  .rodata._ZTIN6tflite7testing12_GLOBAL__N_114StackAllocatorE:00000000 _ZTIN6tflite7testing12_GLOBAL__N_114StackAllocatorE
C:\Users\a5050395\AppData\Local\Temp\cckt0tp7.s:13294  .rodata._ZTSN6tflite7testing12_GLOBAL__N_114StackAllocatorE:00000000 _ZTSN6tflite7testing12_GLOBAL__N_114StackAllocatorE
C:\Users\a5050395\AppData\Local\Temp\cckt0tp7.s:13291  .rodata._ZTSN6tflite7testing12_GLOBAL__N_114StackAllocatorE:00000000 $d
C:\Users\a5050395\AppData\Local\Temp\cckt0tp7.s:13297  .rodata._ZTVN6tflite7testing12_GLOBAL__N_114StackAllocatorE:00000000 $d
C:\Users\a5050395\AppData\Local\Temp\cckt0tp7.s:13301  .rodata._ZTVN6tflite7testing12_GLOBAL__N_114StackAllocatorE:00000000 _ZTVN6tflite7testing12_GLOBAL__N_114StackAllocatorE
C:\Users\a5050395\AppData\Local\Temp\cckt0tp7.s:13310  .rodata._ZZN11flatbuffers15vector_downward12ensure_spaceEjE19__PRETTY_FUNCTION__:00000000 $d
C:\Users\a5050395\AppData\Local\Temp\cckt0tp7.s:13314  .rodata._ZZN11flatbuffers15vector_downward12ensure_spaceEjE19__PRETTY_FUNCTION__:00000000 _ZZN11flatbuffers15vector_downward12ensure_spaceEjE19__PRETTY_FUNCTION__
C:\Users\a5050395\AppData\Local\Temp\cckt0tp7.s:13318  .rodata._ZZN11flatbuffers17FlatBufferBuilder7ReferToEmE19__PRETTY_FUNCTION__:00000000 $d
C:\Users\a5050395\AppData\Local\Temp\cckt0tp7.s:13322  .rodata._ZZN11flatbuffers17FlatBufferBuilder7ReferToEmE19__PRETTY_FUNCTION__:00000000 _ZZN11flatbuffers17FlatBufferBuilder7ReferToEmE19__PRETTY_FUNCTION__
C:\Users\a5050395\AppData\Local\Temp\cckt0tp7.s:13326  .rodata._ZZN11flatbuffers17FlatBufferBuilder8EndTableEmE19__PRETTY_FUNCTION__:00000000 $d
C:\Users\a5050395\AppData\Local\Temp\cckt0tp7.s:13330  .rodata._ZZN11flatbuffers17FlatBufferBuilder8EndTableEmE19__PRETTY_FUNCTION__:00000000 _ZZN11flatbuffers17FlatBufferBuilder8EndTableEmE19__PRETTY_FUNCTION__
C:\Users\a5050395\AppData\Local\Temp\cckt0tp7.s:13334  .rodata._ZZN11flatbuffers17FlatBufferBuilder9EndVectorEjE19__PRETTY_FUNCTION__:00000000 $d
C:\Users\a5050395\AppData\Local\Temp\cckt0tp7.s:13338  .rodata._ZZN11flatbuffers17FlatBufferBuilder9EndVectorEjE19__PRETTY_FUNCTION__:00000000 _ZZN11flatbuffers17FlatBufferBuilder9EndVectorEjE19__PRETTY_FUNCTION__
C:\Users\a5050395\AppData\Local\Temp\cckt0tp7.s:13342  .rodata._ZZN11flatbuffers17FlatBufferBuilder9NotNestedEvE19__PRETTY_FUNCTION__:00000000 $d
C:\Users\a5050395\AppData\Local\Temp\cckt0tp7.s:13346  .rodata._ZZN11flatbuffers17FlatBufferBuilder9NotNestedEvE19__PRETTY_FUNCTION__:00000000 _ZZN11flatbuffers17FlatBufferBuilder9NotNestedEvE19__PRETTY_FUNCTION__
C:\Users\a5050395\AppData\Local\Temp\cckt0tp7.s:13349  .rodata._ZZN11flatbuffers9Allocator19reallocate_downwardEPhjjjjE19__PRETTY_FUNCTION__:00000000 $d
C:\Users\a5050395\AppData\Local\Temp\cckt0tp7.s:13353  .rodata._ZZN11flatbuffers9Allocator19reallocate_downwardEPhjjjjE19__PRETTY_FUNCTION__:00000000 _ZZN11flatbuffers9Allocator19reallocate_downwardEPhjjjjE19__PRETTY_FUNCTION__
C:\Users\a5050395\AppData\Local\Temp\cckt0tp7.s:13358  .rodata._ZZNK11flatbuffers15vector_downward11scratch_endEvE19__PRETTY_FUNCTION__:00000000 $d
C:\Users\a5050395\AppData\Local\Temp\cckt0tp7.s:13362  .rodata._ZZNK11flatbuffers15vector_downward11scratch_endEvE19__PRETTY_FUNCTION__:00000000 _ZZNK11flatbuffers15vector_downward11scratch_endEvE19__PRETTY_FUNCTION__
C:\Users\a5050395\AppData\Local\Temp\cckt0tp7.s:13366  .rodata._ZZNK11flatbuffers15vector_downward12scratch_dataEvE19__PRETTY_FUNCTION__:00000000 $d
C:\Users\a5050395\AppData\Local\Temp\cckt0tp7.s:13370  .rodata._ZZNK11flatbuffers15vector_downward12scratch_dataEvE19__PRETTY_FUNCTION__:00000000 _ZZNK11flatbuffers15vector_downward12scratch_dataEvE19__PRETTY_FUNCTION__
C:\Users\a5050395\AppData\Local\Temp\cckt0tp7.s:13374  .rodata._ZZNK11flatbuffers15vector_downward4dataEvE19__PRETTY_FUNCTION__:00000000 $d
C:\Users\a5050395\AppData\Local\Temp\cckt0tp7.s:13378  .rodata._ZZNK11flatbuffers15vector_downward4dataEvE19__PRETTY_FUNCTION__:00000000 _ZZNK11flatbuffers15vector_downward4dataEvE19__PRETTY_FUNCTION__
C:\Users\a5050395\AppData\Local\Temp\cckt0tp7.s:13382  .rodata._ZZNK11flatbuffers17FlatBufferBuilder8FinishedEvE19__PRETTY_FUNCTION__:00000000 $d
C:\Users\a5050395\AppData\Local\Temp\cckt0tp7.s:13386  .rodata._ZZNK11flatbuffers17FlatBufferBuilder8FinishedEvE19__PRETTY_FUNCTION__:00000000 _ZZNK11flatbuffers17FlatBufferBuilder8FinishedEvE19__PRETTY_FUNCTION__
C:\Users\a5050395\AppData\Local\Temp\cckt0tp7.s:13390  .rodata._ZZNK11flatbuffers6VectorINS_6OffsetIN6tflite8SubGraphEEEE3GetEmE19__PRETTY_FUNCTION__:00000000 $d
C:\Users\a5050395\AppData\Local\Temp\cckt0tp7.s:13394  .rodata._ZZNK11flatbuffers6VectorINS_6OffsetIN6tflite8SubGraphEEEE3GetEmE19__PRETTY_FUNCTION__:00000000 _ZZNK11flatbuffers6VectorINS_6OffsetIN6tflite8SubGraphEEEE3GetEmE19__PRETTY_FUNCTION__
C:\Users\a5050395\AppData\Local\Temp\cckt0tp7.s:13401  .rodata.str1.4:00000000 $d
                           .group:00000000 _ZN11flatbuffers16DefaultAllocatorD5Ev

UNDEFINED SYMBOLS
abort
__aeabi_unwind_cpp_pr0
_ZN6tflite12GetInputSafeEPK13TfLiteContextPK10TfLiteNodeiPPK12TfLiteTensor
_ZN6tflite13GetOutputSafeEPK13TfLiteContextPK10TfLiteNodeiPP12TfLiteTensor
strcmp
_ZdlPv
__cxa_guard_acquire
__cxa_guard_release
_Znaj
_ZdaPv
memcpy
__assert_func
memset
memcmp
strlen
_ZN6tflite14AllOpsResolverC1Ev
__aeabi_unwind_cpp_pr1
_Znwj
__cxa_end_cleanup
__gxx_personality_v0
_ZN6tflite12ElementCountERK14TfLiteIntArray
round
__aeabi_idiv
_ZN6tflite33SignedSymmetricPerChannelQuantizeEPKfP14TfLiteIntArrayiPaPf
_ZTVN10__cxxabiv117__class_type_infoE
_ZTVN10__cxxabiv120__si_class_type_infoE
