   1              		.cpu cortex-a9
   2              		.eabi_attribute 28, 1
   3              		.eabi_attribute 20, 1
   4              		.eabi_attribute 21, 1
   5              		.eabi_attribute 23, 3
   6              		.eabi_attribute 24, 1
   7              		.eabi_attribute 25, 1
   8              		.eabi_attribute 26, 1
   9              		.eabi_attribute 30, 2
  10              		.eabi_attribute 34, 0
  11              		.eabi_attribute 18, 4
  12              		.file	"r_gpio_lld_rza2m.c"
  13              		.section	.text.R_GPIO_PinDirectionSet.constprop.4,"ax",%progbits
  14              		.align	2
  15              		.syntax unified
  16              		.arm
  17              		.fpu neon
  19              	R_GPIO_PinDirectionSet.constprop.4:
  20              		@ args = 0, pretend = 0, frame = 0
  21              		@ frame_needed = 0, uses_anonymous_args = 0
  22 0000 7020EFE6 		uxtb	r2, r0
  23 0004 070052E3 		cmp	r2, #7
  24 0008 1900008A 		bhi	.L3
  25 000c 2004A0E1 		lsr	r0, r0, #8
  26 0010 003000E3 		movw	r3, #:lower16:.LANCHOR0
  27 0014 003040E3 		movt	r3, #:upper16:.LANCHOR0
  28 0018 10402DE9 		push	{r4, lr}
  29 001c 0040D3E7 		ldrb	r4, [r3, r0]	@ zero_extendqisi2
  30 0020 3442E0E1 		mvn	r4, r4, lsr r2
  31 0024 014004E2 		and	r4, r4, #1
  32 0028 150050E3 		cmp	r0, #21
  33 002c 01408483 		orrhi	r4, r4, #1
  34 0030 000054E3 		cmp	r4, #0
  35 0034 1000001A 		bne	.L4
  36 0038 003000E3 		movw	r3, #:lower16:.LANCHOR1
  37 003c 001000E3 		movw	r1, #:lower16:.LANCHOR2
  38 0040 001040E3 		movt	r1, #:upper16:.LANCHOR2
  39 0044 003040E3 		movt	r3, #:upper16:.LANCHOR1
  40 0048 023193E7 		ldr	r3, [r3, r2, lsl #2]
  41 004c 8000A0E1 		lsl	r0, r0, #1
  42 0050 022191E7 		ldr	r2, [r1, r2, lsl #2]
  43 0054 0410A0E1 		mov	r1, r4
  44 0058 FD0480E2 		add	r0, r0, #-50331648
  45 005c 020A40E2 		sub	r0, r0, #8192
  46 0060 7330FFE6 		uxth	r3, r3
  47 0064 7220FFE6 		uxth	r2, r2
  48 0068 FEFFFFEB 		bl	RZA_IO_RegWrite_16
  49 006c 0400A0E1 		mov	r0, r4
  50 0070 1080BDE8 		pop	{r4, pc}
  51              	.L3:
  52 0074 0000E0E3 		mvn	r0, #0
  53 0078 1EFF2FE1 		bx	lr
  54              	.L4:
  55 007c 0000E0E3 		mvn	r0, #0
  56 0080 1080BDE8 		pop	{r4, pc}
  58              		.section	.text.R_GPIO_HWUninitialise,"ax",%progbits
  59              		.align	2
  60              		.global	R_GPIO_HWUninitialise
  61              		.syntax unified
  62              		.arm
  63              		.fpu neon
  65              	R_GPIO_HWUninitialise:
  66              		@ args = 0, pretend = 0, frame = 0
  67              		@ frame_needed = 0, uses_anonymous_args = 0
  68              		@ link register save eliminated.
  69 0000 003000E3 		movw	r3, #:lower16:.LANCHOR3
  70 0004 0020A0E3 		mov	r2, #0
  71 0008 003040E3 		movt	r3, #:upper16:.LANCHOR3
  72 000c 0200A0E1 		mov	r0, r2
  73 0010 002083E5 		str	r2, [r3]
  74 0014 1EFF2FE1 		bx	lr
  76              		.section	.text.R_GPIO_PortWrite,"ax",%progbits
  77              		.align	2
  78              		.global	R_GPIO_PortWrite
  79              		.syntax unified
  80              		.arm
  81              		.fpu neon
  83              	R_GPIO_PortWrite:
  84              		@ args = 0, pretend = 0, frame = 0
  85              		@ frame_needed = 0, uses_anonymous_args = 0
  86 0000 2004A0E1 		lsr	r0, r0, #8
  87 0004 150050E3 		cmp	r0, #21
  88 0008 0700008A 		bhi	.L13
  89 000c FD0480E2 		add	r0, r0, #-50331648
  90 0010 10402DE9 		push	{r4, lr}
  91 0014 0030E0E3 		mvn	r3, #0
  92 0018 7F0D40E2 		sub	r0, r0, #8128
  93 001c 0020A0E3 		mov	r2, #0
  94 0020 FEFFFFEB 		bl	RZA_IO_RegWrite_8
  95 0024 0000A0E3 		mov	r0, #0
  96 0028 1080BDE8 		pop	{r4, pc}
  97              	.L13:
  98 002c 0400E0E3 		mvn	r0, #4
  99 0030 1EFF2FE1 		bx	lr
 101              		.section	.text.R_GPIO_PortRead,"ax",%progbits
 102              		.align	2
 103              		.global	R_GPIO_PortRead
 104              		.syntax unified
 105              		.arm
 106              		.fpu neon
 108              	R_GPIO_PortRead:
 109              		@ args = 0, pretend = 0, frame = 0
 110              		@ frame_needed = 0, uses_anonymous_args = 0
 111 0000 2034A0E1 		lsr	r3, r0, #8
 112 0004 150053E3 		cmp	r3, #21
 113 0008 0B00008A 		bhi	.L20
 114 000c 60000EE3 		movw	r0, #57440
 115 0010 10402DE9 		push	{r4, lr}
 116 0014 FF0C4FE3 		movt	r0, 64767
 117 0018 0140A0E1 		mov	r4, r1
 118 001c 0020E0E3 		mvn	r2, #0
 119 0020 0010A0E3 		mov	r1, #0
 120 0024 000083E0 		add	r0, r3, r0
 121 0028 FEFFFFEB 		bl	RZA_IO_RegRead_8
 122 002c 0030A0E3 		mov	r3, #0
 123 0030 0000C4E5 		strb	r0, [r4]
 124 0034 0300A0E1 		mov	r0, r3
 125 0038 1080BDE8 		pop	{r4, pc}
 126              	.L20:
 127 003c 0430E0E3 		mvn	r3, #4
 128 0040 0300A0E1 		mov	r0, r3
 129 0044 1EFF2FE1 		bx	lr
 131              		.section	.text.R_GPIO_PortDirectionSet,"ax",%progbits
 132              		.align	2
 133              		.global	R_GPIO_PortDirectionSet
 134              		.syntax unified
 135              		.arm
 136              		.fpu neon
 138              	R_GPIO_PortDirectionSet:
 139              		@ args = 0, pretend = 0, frame = 0
 140              		@ frame_needed = 0, uses_anonymous_args = 0
 141 0000 F84F2DE9 		push	{r3, r4, r5, r6, r7, r8, r9, r10, fp, lr}
 142 0004 0060A0E1 		mov	r6, r0
 143 0008 2004A0E1 		lsr	r0, r0, #8
 144 000c 150050E3 		cmp	r0, #21
 145 0010 9E00008A 		bhi	.L46
 146 0014 00C000E3 		movw	ip, #:lower16:.LANCHOR0
 147 0018 0150A0E1 		mov	r5, r1
 148 001c 0240A0E1 		mov	r4, r2
 149 0020 0210A0E1 		mov	r1, r2
 150 0024 00C040E3 		movt	ip, #:upper16:.LANCHOR0
 151 0028 0020A0E3 		mov	r2, #0
 152              	.L28:
 153 002c 017011E2 		ands	r7, r1, #1
 154 0030 0130A0E3 		mov	r3, #1
 155 0034 0030DC17 		ldrbne	r3, [ip, r0]	@ zero_extendqisi2
 156 0038 A110A0E1 		lsr	r1, r1, #1
 157 003c 3332E011 		mvnne	r3, r3, lsr r2
 158 0040 012082E2 		add	r2, r2, #1
 159 0044 7220EFE6 		uxtb	r2, r2
 160 0048 01300312 		andne	r3, r3, #1
 161 004c 00706312 		rsbne	r7, r3, #0
 162 0050 01302312 		eorne	r3, r3, #1
 163 0054 070052E3 		cmp	r2, #7
 164 0058 0030A083 		movhi	r3, #0
 165 005c 01300392 		andls	r3, r3, #1
 166 0060 000053E3 		cmp	r3, #0
 167 0064 F0FFFF1A 		bne	.L28
 168 0068 000057E3 		cmp	r7, #0
 169 006c 1800001A 		bne	.L49
 170 0070 00B000E3 		movw	fp, #:lower16:.LANCHOR0
 171 0074 00A000E3 		movw	r10, #:lower16:.LANCHOR2
 172 0078 009000E3 		movw	r9, #:lower16:.LANCHOR1
 173 007c 00B040E3 		movt	fp, #:upper16:.LANCHOR0
 174 0080 00A040E3 		movt	r10, #:upper16:.LANCHOR2
 175 0084 009040E3 		movt	r9, #:upper16:.LANCHOR1
 176 0088 0180A0E3 		mov	r8, #1
 177 008c 070000EA 		b	.L42
 178              	.L73:
 179 0090 070058E3 		cmp	r8, #7
 180 0094 0030A083 		movhi	r3, #0
 181 0098 0130A093 		movls	r3, #1
 182              	.L30:
 183 009c 000053E3 		cmp	r3, #0
 184 00a0 018088E2 		add	r8, r8, #1
 185 00a4 7880EFE6 		uxtb	r8, r8
 186 00a8 A440A0E1 		lsr	r4, r4, #1
 187 00ac 0900000A 		beq	.L69
 188              	.L42:
 189 00b0 010014E3 		tst	r4, #1
 190 00b4 013048E2 		sub	r3, r8, #1
 191 00b8 7330EFE6 		uxtb	r3, r3
 192 00bc F3FFFF0A 		beq	.L73
 193 00c0 033086E1 		orr	r3, r6, r3
 194 00c4 73C0EFE6 		uxtb	ip, r3
 195 00c8 2304A0E1 		lsr	r0, r3, #8
 196 00cc 07005CE3 		cmp	ip, #7
 197 00d0 0200009A 		bls	.L77
 198              	.L49:
 199 00d4 0070E0E3 		mvn	r7, #0
 200              	.L69:
 201 00d8 0700A0E1 		mov	r0, r7
 202 00dc F88FBDE8 		pop	{r3, r4, r5, r6, r7, r8, r9, r10, fp, pc}
 203              	.L77:
 204 00e0 0010DBE7 		ldrb	r1, [fp, r0]	@ zero_extendqisi2
 205 00e4 311CE0E1 		mvn	r1, r1, lsr ip
 206 00e8 011001E2 		and	r1, r1, #1
 207 00ec 150050E3 		cmp	r0, #21
 208 00f0 01108183 		orrhi	r1, r1, #1
 209 00f4 000051E3 		cmp	r1, #0
 210 00f8 F5FFFF1A 		bne	.L49
 211 00fc 000055E3 		cmp	r5, #0
 212 0100 1B00001A 		bne	.L33
 213 0104 062600E3 		movw	r2, #1542
 214 0108 020053E1 		cmp	r3, r2
 215 010c 4C00000A 		beq	.L50
 216 0110 072600E3 		movw	r2, #1543
 217 0114 020053E1 		cmp	r3, r2
 218 0118 4B00000A 		beq	.L51
 219 011c 062D00E3 		movw	r2, #3334
 220 0120 020053E1 		cmp	r3, r2
 221 0124 2800000A 		beq	.L52
 222 0128 072D00E3 		movw	r2, #3335
 223 012c 020053E1 		cmp	r3, r2
 224 0130 1420A003 		moveq	r2, #20
 225 0134 2500000A 		beq	.L34
 226 0138 010053E3 		cmp	r3, #1
 227 013c 4400000A 		beq	.L53
 228 0140 030053E3 		cmp	r3, #3
 229 0144 4700000A 		beq	.L54
 230 0148 050053E3 		cmp	r3, #5
 231 014c 4900000A 		beq	.L55
 232 0150 022800E3 		movw	r2, #2050
 233 0154 020053E1 		cmp	r3, r2
 234 0158 4800000A 		beq	.L56
 235 015c 052301E3 		movw	r2, #4869
 236 0160 020053E1 		cmp	r3, r2
 237 0164 4700000A 		beq	.L78
 238              	.L57:
 239 0168 0370E0E3 		mvn	r7, #3
 240 016c 0700A0E1 		mov	r0, r7
 241 0170 F88FBDE8 		pop	{r3, r4, r5, r6, r7, r8, r9, r10, fp, pc}
 242              	.L33:
 243 0174 0C219AE7 		ldr	r2, [r10, ip, lsl #2]
 244 0178 8000A0E1 		lsl	r0, r0, #1
 245 017c 020055E3 		cmp	r5, #2
 246 0180 0C3199E7 		ldr	r3, [r9, ip, lsl #2]
 247 0184 FD0480E2 		add	r0, r0, #-50331648
 248 0188 020A40E2 		sub	r0, r0, #8192
 249 018c 7220FFE6 		uxth	r2, r2
 250 0190 1B00000A 		beq	.L40
 251 0194 030055E3 		cmp	r5, #3
 252 0198 0200001A 		bne	.L79
 253 019c 7330FFE6 		uxth	r3, r3
 254 01a0 FEFFFFEB 		bl	RZA_IO_RegWrite_16
 255 01a4 B9FFFFEA 		b	.L73
 256              	.L79:
 257 01a8 010055E3 		cmp	r5, #1
 258 01ac 2F00001A 		bne	.L80
 259              	.L39:
 260 01b0 7330FFE6 		uxth	r3, r3
 261 01b4 0210A0E3 		mov	r1, #2
 262 01b8 FEFFFFEB 		bl	RZA_IO_RegWrite_16
 263 01bc 070058E3 		cmp	r8, #7
 264 01c0 0030A083 		movhi	r3, #0
 265 01c4 0130A093 		movls	r3, #1
 266 01c8 B3FFFFEA 		b	.L30
 267              	.L52:
 268 01cc 0E20A0E3 		mov	r2, #14
 269              	.L34:
 270 01d0 003000E3 		movw	r3, #:lower16:.LANCHOR4
 271 01d4 003040E3 		movt	r3, #:upper16:.LANCHOR4
 272 01d8 023083E0 		add	r3, r3, r2
 273              	.L36:
 274 01dc 0030D3E5 		ldrb	r3, [r3]	@ zero_extendqisi2
 275 01e0 032043E2 		sub	r2, r3, #3
 276 01e4 020052E3 		cmp	r2, #2
 277 01e8 0C00008A 		bhi	.L81
 278 01ec 0C219AE7 		ldr	r2, [r10, ip, lsl #2]
 279 01f0 8000A0E1 		lsl	r0, r0, #1
 280 01f4 0C3199E7 		ldr	r3, [r9, ip, lsl #2]
 281 01f8 FD0480E2 		add	r0, r0, #-50331648
 282 01fc 020A40E2 		sub	r0, r0, #8192
 283 0200 7220FFE6 		uxth	r2, r2
 284              	.L40:
 285 0204 7330FFE6 		uxth	r3, r3
 286 0208 0310A0E3 		mov	r1, #3
 287 020c FEFFFFEB 		bl	RZA_IO_RegWrite_16
 288 0210 070058E3 		cmp	r8, #7
 289 0214 0030A083 		movhi	r3, #0
 290 0218 0130A093 		movls	r3, #1
 291 021c 9EFFFFEA 		b	.L30
 292              	.L81:
 293 0220 020053E3 		cmp	r3, #2
 294 0224 CFFFFF1A 		bne	.L57
 295 0228 0C219AE7 		ldr	r2, [r10, ip, lsl #2]
 296 022c 8000A0E1 		lsl	r0, r0, #1
 297 0230 0C3199E7 		ldr	r3, [r9, ip, lsl #2]
 298 0234 FD0480E2 		add	r0, r0, #-50331648
 299 0238 020A40E2 		sub	r0, r0, #8192
 300 023c 7220FFE6 		uxth	r2, r2
 301 0240 DAFFFFEA 		b	.L39
 302              	.L50:
 303 0244 0220A0E3 		mov	r2, #2
 304 0248 E0FFFFEA 		b	.L34
 305              	.L51:
 306 024c 0820A0E3 		mov	r2, #8
 307 0250 DEFFFFEA 		b	.L34
 308              	.L53:
 309 0254 0220A0E3 		mov	r2, #2
 310              	.L37:
 311 0258 003000E3 		movw	r3, #:lower16:.LANCHOR5
 312 025c 003040E3 		movt	r3, #:upper16:.LANCHOR5
 313 0260 023083E0 		add	r3, r3, r2
 314 0264 DCFFFFEA 		b	.L36
 315              	.L54:
 316 0268 0820A0E3 		mov	r2, #8
 317 026c F9FFFFEA 		b	.L37
 318              	.L80:
 319 0270 0270E0E3 		mvn	r7, #2
 320 0274 97FFFFEA 		b	.L69
 321              	.L55:
 322 0278 0E20A0E3 		mov	r2, #14
 323 027c F5FFFFEA 		b	.L37
 324              	.L56:
 325 0280 1420A0E3 		mov	r2, #20
 326 0284 F3FFFFEA 		b	.L37
 327              	.L78:
 328 0288 1A20A0E3 		mov	r2, #26
 329 028c F1FFFFEA 		b	.L37
 330              	.L46:
 331 0290 0470E0E3 		mvn	r7, #4
 332 0294 8FFFFFEA 		b	.L69
 334              		.section	.text.R_GPIO_PinWrite,"ax",%progbits
 335              		.align	2
 336              		.global	R_GPIO_PinWrite
 337              		.syntax unified
 338              		.arm
 339              		.fpu neon
 341              	R_GPIO_PinWrite:
 342              		@ args = 0, pretend = 0, frame = 0
 343              		@ frame_needed = 0, uses_anonymous_args = 0
 344 0000 7020EFE6 		uxtb	r2, r0
 345 0004 10402DE9 		push	{r4, lr}
 346 0008 070052E3 		cmp	r2, #7
 347 000c 3400008A 		bhi	.L94
 348 0010 2034A0E1 		lsr	r3, r0, #8
 349 0014 00C000E3 		movw	ip, #:lower16:.LANCHOR0
 350 0018 00C040E3 		movt	ip, #:upper16:.LANCHOR0
 351 001c 03C0DCE7 		ldrb	ip, [ip, r3]	@ zero_extendqisi2
 352 0020 3CC2A0E1 		lsr	ip, ip, r2
 353 0024 01001CE3 		tst	ip, #1
 354 0028 2D00000A 		beq	.L94
 355 002c 150053E3 		cmp	r3, #21
 356 0030 2B00008A 		bhi	.L94
 357 0034 000051E3 		cmp	r1, #0
 358 0038 0E00000A 		beq	.L89
 359 003c 010051E3 		cmp	r1, #1
 360 0040 3800000A 		beq	.L105
 361 0044 020051E3 		cmp	r1, #2
 362 0048 0110A003 		moveq	r1, #1
 363 004c 0010A013 		movne	r1, #0
 364 0050 0040A003 		moveq	r4, #0
 365 0054 0340E013 		mvnne	r4, #3
 366              	.L88:
 367 0058 00C000E3 		movw	ip, #:lower16:.LANCHOR6
 368 005c FD0483E2 		add	r0, r3, #-50331648
 369 0060 00C040E3 		movt	ip, #:upper16:.LANCHOR6
 370 0064 7F0D40E2 		sub	r0, r0, #8128
 371 0068 0231DCE7 		ldrb	r3, [ip, r2, lsl #2]	@ zero_extendqisi2
 372 006c FEFFFFEB 		bl	RZA_IO_RegWrite_8
 373 0070 0400A0E1 		mov	r0, r4
 374 0074 1080BDE8 		pop	{r4, pc}
 375              	.L89:
 376 0078 06C600E3 		movw	ip, #1542
 377 007c 0C0050E1 		cmp	r0, ip
 378 0080 2B00000A 		beq	.L95
 379 0084 07C600E3 		movw	ip, #1543
 380 0088 0C0050E1 		cmp	r0, ip
 381 008c 2D00000A 		beq	.L96
 382 0090 06CD00E3 		movw	ip, #3334
 383 0094 0C0050E1 		cmp	r0, ip
 384 0098 2C00000A 		beq	.L97
 385 009c 07CD00E3 		movw	ip, #3335
 386 00a0 0C0050E1 		cmp	r0, ip
 387 00a4 2B00000A 		beq	.L98
 388 00a8 010050E3 		cmp	r0, #1
 389 00ac 1000000A 		beq	.L86
 390 00b0 030050E3 		cmp	r0, #3
 391 00b4 2900000A 		beq	.L100
 392 00b8 050050E3 		cmp	r0, #5
 393 00bc 2900000A 		beq	.L101
 394 00c0 021800E3 		movw	r1, #2050
 395 00c4 010050E1 		cmp	r0, r1
 396 00c8 2800000A 		beq	.L102
 397 00cc 051301E3 		movw	r1, #4869
 398 00d0 010050E1 		cmp	r0, r1
 399 00d4 0500000A 		beq	.L103
 400 00d8 0340E0E3 		mvn	r4, #3
 401 00dc 0400A0E1 		mov	r0, r4
 402 00e0 1080BDE8 		pop	{r4, pc}
 403              	.L94:
 404 00e4 0040E0E3 		mvn	r4, #0
 405              	.L108:
 406 00e8 0400A0E1 		mov	r0, r4
 407 00ec 1080BDE8 		pop	{r4, pc}
 408              	.L103:
 409 00f0 0410A0E3 		mov	r1, #4
 410              	.L86:
 411 00f4 811081E0 		add	r1, r1, r1, lsl #1
 412 00f8 000000E3 		movw	r0, #:lower16:.LANCHOR5
 413 00fc 000040E3 		movt	r0, #:upper16:.LANCHOR5
 414 0100 811080E0 		add	r1, r0, r1, lsl #1
 415 0104 021081E2 		add	r1, r1, #2
 416              	.L87:
 417 0108 0010D1E5 		ldrb	r1, [r1]	@ zero_extendqisi2
 418 010c 030051E3 		cmp	r1, #3
 419 0110 0110A003 		moveq	r1, #1
 420 0114 0040A003 		moveq	r4, #0
 421 0118 CEFFFF0A 		beq	.L88
 422 011c 040051E3 		cmp	r1, #4
 423 0120 0040A013 		movne	r4, #0
 424 0124 EFFFFF1A 		bne	.L108
 425              	.L105:
 426 0128 0010A0E3 		mov	r1, #0
 427 012c 0140A0E1 		mov	r4, r1
 428 0130 C8FFFFEA 		b	.L88
 429              	.L95:
 430 0134 0200A0E3 		mov	r0, #2
 431              	.L85:
 432 0138 001000E3 		movw	r1, #:lower16:.LANCHOR4
 433 013c 001040E3 		movt	r1, #:upper16:.LANCHOR4
 434 0140 001081E0 		add	r1, r1, r0
 435 0144 EFFFFFEA 		b	.L87
 436              	.L96:
 437 0148 0800A0E3 		mov	r0, #8
 438 014c F9FFFFEA 		b	.L85
 439              	.L97:
 440 0150 0E00A0E3 		mov	r0, #14
 441 0154 F7FFFFEA 		b	.L85
 442              	.L98:
 443 0158 1400A0E3 		mov	r0, #20
 444 015c F5FFFFEA 		b	.L85
 445              	.L100:
 446 0160 0110A0E3 		mov	r1, #1
 447 0164 E2FFFFEA 		b	.L86
 448              	.L101:
 449 0168 0210A0E3 		mov	r1, #2
 450 016c E0FFFFEA 		b	.L86
 451              	.L102:
 452 0170 0310A0E3 		mov	r1, #3
 453 0174 DEFFFFEA 		b	.L86
 455              		.section	.text.R_GPIO_PinRead,"ax",%progbits
 456              		.align	2
 457              		.global	R_GPIO_PinRead
 458              		.syntax unified
 459              		.arm
 460              		.fpu neon
 462              	R_GPIO_PinRead:
 463              		@ args = 0, pretend = 0, frame = 0
 464              		@ frame_needed = 0, uses_anonymous_args = 0
 465 0000 70C0EFE6 		uxtb	ip, r0
 466 0004 07005CE3 		cmp	ip, #7
 467 0008 1900008A 		bhi	.L115
 468 000c 2034A0E1 		lsr	r3, r0, #8
 469 0010 002000E3 		movw	r2, #:lower16:.LANCHOR0
 470 0014 002040E3 		movt	r2, #:upper16:.LANCHOR0
 471 0018 70402DE9 		push	{r4, r5, r6, lr}
 472 001c 0340D2E7 		ldrb	r4, [r2, r3]	@ zero_extendqisi2
 473 0020 344CE0E1 		mvn	r4, r4, lsr ip
 474 0024 014004E2 		and	r4, r4, #1
 475 0028 150053E3 		cmp	r3, #21
 476 002c 01408483 		orrhi	r4, r4, #1
 477 0030 000054E3 		cmp	r4, #0
 478 0034 1000001A 		bne	.L116
 479 0038 002000E3 		movw	r2, #:lower16:.LANCHOR6
 480 003c 60000EE3 		movw	r0, #57440
 481 0040 002040E3 		movt	r2, #:upper16:.LANCHOR6
 482 0044 FF0C4FE3 		movt	r0, 64767
 483 0048 000083E0 		add	r0, r3, r0
 484 004c 0150A0E1 		mov	r5, r1
 485 0050 0C21D2E7 		ldrb	r2, [r2, ip, lsl #2]	@ zero_extendqisi2
 486 0054 0C10A0E1 		mov	r1, ip
 487 0058 FEFFFFEB 		bl	RZA_IO_RegRead_8
 488 005c 000050E3 		cmp	r0, #0
 489 0060 0230A013 		movne	r3, #2
 490 0064 0130A003 		moveq	r3, #1
 491 0068 0400A011 		movne	r0, r4
 492 006c 0030C5E5 		strb	r3, [r5]
 493 0070 7080BDE8 		pop	{r4, r5, r6, pc}
 494              	.L115:
 495 0074 0000E0E3 		mvn	r0, #0
 496 0078 1EFF2FE1 		bx	lr
 497              	.L116:
 498 007c 0000E0E3 		mvn	r0, #0
 499 0080 7080BDE8 		pop	{r4, r5, r6, pc}
 501              		.section	.text.R_GPIO_PinDirectionSet,"ax",%progbits
 502              		.align	2
 503              		.global	R_GPIO_PinDirectionSet
 504              		.syntax unified
 505              		.arm
 506              		.fpu neon
 508              	R_GPIO_PinDirectionSet:
 509              		@ args = 0, pretend = 0, frame = 0
 510              		@ frame_needed = 0, uses_anonymous_args = 0
 511 0000 70C0EFE6 		uxtb	ip, r0
 512 0004 07005CE3 		cmp	ip, #7
 513 0008 2600008A 		bhi	.L133
 514 000c 2034A0E1 		lsr	r3, r0, #8
 515 0010 002000E3 		movw	r2, #:lower16:.LANCHOR0
 516 0014 002040E3 		movt	r2, #:upper16:.LANCHOR0
 517 0018 10402DE9 		push	{r4, lr}
 518 001c 0340D2E7 		ldrb	r4, [r2, r3]	@ zero_extendqisi2
 519 0020 344CE0E1 		mvn	r4, r4, lsr ip
 520 0024 014004E2 		and	r4, r4, #1
 521 0028 150053E3 		cmp	r3, #21
 522 002c 01408483 		orrhi	r4, r4, #1
 523 0030 000054E3 		cmp	r4, #0
 524 0034 6F00001A 		bne	.L134
 525 0038 000051E3 		cmp	r1, #0
 526 003c 1B00001A 		bne	.L123
 527 0040 062600E3 		movw	r2, #1542
 528 0044 020050E1 		cmp	r0, r2
 529 0048 5900000A 		beq	.L135
 530 004c 072600E3 		movw	r2, #1543
 531 0050 020050E1 		cmp	r0, r2
 532 0054 5B00000A 		beq	.L136
 533 0058 062D00E3 		movw	r2, #3334
 534 005c 020050E1 		cmp	r0, r2
 535 0060 5A00000A 		beq	.L137
 536 0064 072D00E3 		movw	r2, #3335
 537 0068 020050E1 		cmp	r0, r2
 538 006c 5900000A 		beq	.L138
 539 0070 010050E3 		cmp	r0, #1
 540 0074 2000000A 		beq	.L125
 541 0078 030050E3 		cmp	r0, #3
 542 007c 5700000A 		beq	.L140
 543 0080 050050E3 		cmp	r0, #5
 544 0084 5700000A 		beq	.L141
 545 0088 022800E3 		movw	r2, #2050
 546 008c 020050E1 		cmp	r0, r2
 547 0090 5600000A 		beq	.L142
 548 0094 052301E3 		movw	r2, #4869
 549 0098 020050E1 		cmp	r0, r2
 550 009c 1500000A 		beq	.L160
 551              	.L158:
 552 00a0 0300E0E3 		mvn	r0, #3
 553 00a4 1080BDE8 		pop	{r4, pc}
 554              	.L133:
 555 00a8 0000E0E3 		mvn	r0, #0
 556 00ac 1EFF2FE1 		bx	lr
 557              	.L123:
 558 00b0 002000E3 		movw	r2, #:lower16:.LANCHOR2
 559 00b4 8330A0E1 		lsl	r3, r3, #1
 560 00b8 002040E3 		movt	r2, #:upper16:.LANCHOR2
 561 00bc 0C2192E7 		ldr	r2, [r2, ip, lsl #2]
 562 00c0 00E000E3 		movw	lr, #:lower16:.LANCHOR1
 563 00c4 020051E3 		cmp	r1, #2
 564 00c8 FD0483E2 		add	r0, r3, #-50331648
 565 00cc 00E040E3 		movt	lr, #:upper16:.LANCHOR1
 566 00d0 020A40E2 		sub	r0, r0, #8192
 567 00d4 0C319EE7 		ldr	r3, [lr, ip, lsl #2]
 568 00d8 7220FFE6 		uxth	r2, r2
 569 00dc 1900000A 		beq	.L129
 570 00e0 030051E3 		cmp	r1, #3
 571 00e4 2D00000A 		beq	.L130
 572 00e8 010051E3 		cmp	r1, #1
 573 00ec 2600000A 		beq	.L128
 574 00f0 0200E0E3 		mvn	r0, #2
 575 00f4 1080BDE8 		pop	{r4, pc}
 576              	.L160:
 577 00f8 0410A0E3 		mov	r1, #4
 578              	.L125:
 579 00fc 811081E0 		add	r1, r1, r1, lsl #1
 580 0100 002000E3 		movw	r2, #:lower16:.LANCHOR5
 581 0104 002040E3 		movt	r2, #:upper16:.LANCHOR5
 582 0108 812082E0 		add	r2, r2, r1, lsl #1
 583 010c 022082E2 		add	r2, r2, #2
 584              	.L126:
 585 0110 0020D2E5 		ldrb	r2, [r2]	@ zero_extendqisi2
 586 0114 031042E2 		sub	r1, r2, #3
 587 0118 020051E3 		cmp	r1, #2
 588 011c 0E00008A 		bhi	.L161
 589 0120 002000E3 		movw	r2, #:lower16:.LANCHOR2
 590 0124 8330A0E1 		lsl	r3, r3, #1
 591 0128 002040E3 		movt	r2, #:upper16:.LANCHOR2
 592 012c 0C2192E7 		ldr	r2, [r2, ip, lsl #2]
 593 0130 001000E3 		movw	r1, #:lower16:.LANCHOR1
 594 0134 001040E3 		movt	r1, #:upper16:.LANCHOR1
 595 0138 FD0483E2 		add	r0, r3, #-50331648
 596 013c 0C3191E7 		ldr	r3, [r1, ip, lsl #2]
 597 0140 020A40E2 		sub	r0, r0, #8192
 598 0144 7220FFE6 		uxth	r2, r2
 599              	.L129:
 600 0148 7330FFE6 		uxth	r3, r3
 601 014c 0310A0E3 		mov	r1, #3
 602 0150 FEFFFFEB 		bl	RZA_IO_RegWrite_16
 603 0154 0000A0E3 		mov	r0, #0
 604 0158 1080BDE8 		pop	{r4, pc}
 605              	.L161:
 606 015c 020052E3 		cmp	r2, #2
 607 0160 CEFFFF1A 		bne	.L158
 608 0164 002000E3 		movw	r2, #:lower16:.LANCHOR2
 609 0168 8330A0E1 		lsl	r3, r3, #1
 610 016c 002040E3 		movt	r2, #:upper16:.LANCHOR2
 611 0170 0C2192E7 		ldr	r2, [r2, ip, lsl #2]
 612 0174 001000E3 		movw	r1, #:lower16:.LANCHOR1
 613 0178 001040E3 		movt	r1, #:upper16:.LANCHOR1
 614 017c FD0483E2 		add	r0, r3, #-50331648
 615 0180 0C3191E7 		ldr	r3, [r1, ip, lsl #2]
 616 0184 020A40E2 		sub	r0, r0, #8192
 617 0188 7220FFE6 		uxth	r2, r2
 618              	.L128:
 619 018c 7330FFE6 		uxth	r3, r3
 620 0190 0210A0E3 		mov	r1, #2
 621 0194 FEFFFFEB 		bl	RZA_IO_RegWrite_16
 622 0198 0000A0E3 		mov	r0, #0
 623 019c 1080BDE8 		pop	{r4, pc}
 624              	.L130:
 625 01a0 7330FFE6 		uxth	r3, r3
 626 01a4 0410A0E1 		mov	r1, r4
 627 01a8 FEFFFFEB 		bl	RZA_IO_RegWrite_16
 628 01ac 0400A0E1 		mov	r0, r4
 629 01b0 1080BDE8 		pop	{r4, pc}
 630              	.L135:
 631 01b4 0210A0E3 		mov	r1, #2
 632              	.L124:
 633 01b8 002000E3 		movw	r2, #:lower16:.LANCHOR4
 634 01bc 002040E3 		movt	r2, #:upper16:.LANCHOR4
 635 01c0 012082E0 		add	r2, r2, r1
 636 01c4 D1FFFFEA 		b	.L126
 637              	.L136:
 638 01c8 0810A0E3 		mov	r1, #8
 639 01cc F9FFFFEA 		b	.L124
 640              	.L137:
 641 01d0 0E10A0E3 		mov	r1, #14
 642 01d4 F7FFFFEA 		b	.L124
 643              	.L138:
 644 01d8 1410A0E3 		mov	r1, #20
 645 01dc F5FFFFEA 		b	.L124
 646              	.L140:
 647 01e0 0110A0E3 		mov	r1, #1
 648 01e4 C4FFFFEA 		b	.L125
 649              	.L141:
 650 01e8 0210A0E3 		mov	r1, #2
 651 01ec C2FFFFEA 		b	.L125
 652              	.L142:
 653 01f0 0310A0E3 		mov	r1, #3
 654 01f4 C0FFFFEA 		b	.L125
 655              	.L134:
 656 01f8 0000E0E3 		mvn	r0, #0
 657 01fc 1080BDE8 		pop	{r4, pc}
 659              		.section	.text.R_GPIO_PinDirectionGet,"ax",%progbits
 660              		.align	2
 661              		.global	R_GPIO_PinDirectionGet
 662              		.syntax unified
 663              		.arm
 664              		.fpu neon
 666              	R_GPIO_PinDirectionGet:
 667              		@ args = 0, pretend = 0, frame = 0
 668              		@ frame_needed = 0, uses_anonymous_args = 0
 669 0000 7030EFE6 		uxtb	r3, r0
 670 0004 070053E3 		cmp	r3, #7
 671 0008 1F00008A 		bhi	.L167
 672 000c 2004A0E1 		lsr	r0, r0, #8
 673 0010 002000E3 		movw	r2, #:lower16:.LANCHOR0
 674 0014 002040E3 		movt	r2, #:upper16:.LANCHOR0
 675 0018 70402DE9 		push	{r4, r5, r6, lr}
 676 001c 0040D2E7 		ldrb	r4, [r2, r0]	@ zero_extendqisi2
 677 0020 3443E0E1 		mvn	r4, r4, lsr r3
 678 0024 014004E2 		and	r4, r4, #1
 679 0028 150050E3 		cmp	r0, #21
 680 002c 01408483 		orrhi	r4, r4, #1
 681 0030 000054E3 		cmp	r4, #0
 682 0034 2100001A 		bne	.L168
 683 0038 002000E3 		movw	r2, #:lower16:.LANCHOR1
 684 003c 00C000E3 		movw	ip, #:lower16:.LANCHOR2
 685 0040 00C040E3 		movt	ip, #:upper16:.LANCHOR2
 686 0044 002040E3 		movt	r2, #:upper16:.LANCHOR1
 687 0048 032192E7 		ldr	r2, [r2, r3, lsl #2]
 688 004c 0150A0E1 		mov	r5, r1
 689 0050 03119CE7 		ldr	r1, [ip, r3, lsl #2]
 690 0054 8000A0E1 		lsl	r0, r0, #1
 691 0058 FD0480E2 		add	r0, r0, #-50331648
 692 005c 020A40E2 		sub	r0, r0, #8192
 693 0060 7220FFE6 		uxth	r2, r2
 694 0064 7110FFE6 		uxth	r1, r1
 695 0068 FEFFFFEB 		bl	RZA_IO_RegRead_16
 696 006c 020050E3 		cmp	r0, #2
 697 0070 0E00000A 		beq	.L164
 698 0074 030050E3 		cmp	r0, #3
 699 0078 0500000A 		beq	.L165
 700 007c 000050E3 		cmp	r0, #0
 701 0080 0700000A 		beq	.L176
 702 0084 0300E0E3 		mvn	r0, #3
 703 0088 7080BDE8 		pop	{r4, r5, r6, pc}
 704              	.L167:
 705 008c 0000E0E3 		mvn	r0, #0
 706 0090 1EFF2FE1 		bx	lr
 707              	.L165:
 708 0094 0230A0E3 		mov	r3, #2
 709 0098 0400A0E1 		mov	r0, r4
 710 009c 0030C5E5 		strb	r3, [r5]
 711 00a0 7080BDE8 		pop	{r4, r5, r6, pc}
 712              	.L176:
 713 00a4 0330A0E3 		mov	r3, #3
 714 00a8 0030C5E5 		strb	r3, [r5]
 715 00ac 7080BDE8 		pop	{r4, r5, r6, pc}
 716              	.L164:
 717 00b0 0130A0E3 		mov	r3, #1
 718 00b4 0400A0E1 		mov	r0, r4
 719 00b8 0030C5E5 		strb	r3, [r5]
 720 00bc 7080BDE8 		pop	{r4, r5, r6, pc}
 721              	.L168:
 722 00c0 0000E0E3 		mvn	r0, #0
 723 00c4 7080BDE8 		pop	{r4, r5, r6, pc}
 725              		.section	.text.R_GPIO_PinAssignmentSet,"ax",%progbits
 726              		.align	2
 727              		.global	R_GPIO_PinAssignmentSet
 728              		.syntax unified
 729              		.arm
 730              		.fpu neon
 732              	R_GPIO_PinAssignmentSet:
 733              		@ args = 0, pretend = 0, frame = 0
 734              		@ frame_needed = 0, uses_anonymous_args = 0
 735 0000 7020EFE6 		uxtb	r2, r0
 736 0004 070052E3 		cmp	r2, #7
 737 0008 1600008A 		bhi	.L182
 738 000c 2004A0E1 		lsr	r0, r0, #8
 739 0010 003000E3 		movw	r3, #:lower16:.LANCHOR0
 740 0014 003040E3 		movt	r3, #:upper16:.LANCHOR0
 741 0018 0030D3E7 		ldrb	r3, [r3, r0]	@ zero_extendqisi2
 742 001c 3332A0E1 		lsr	r3, r3, r2
 743 0020 010013E3 		tst	r3, #1
 744 0024 0F00000A 		beq	.L182
 745 0028 150050E3 		cmp	r0, #21
 746 002c 0D00008A 		bhi	.L182
 747 0030 000051E3 		cmp	r1, #0
 748 0034 0D00001A 		bne	.L191
 749              	.L179:
 750 0038 003000E3 		movw	r3, #:lower16:.LANCHOR6
 751 003c 00C000E3 		movw	ip, #:lower16:.LANCHOR7
 752 0040 00C040E3 		movt	ip, #:upper16:.LANCHOR7
 753 0044 FD0480E2 		add	r0, r0, #-50331648
 754 0048 003040E3 		movt	r3, #:upper16:.LANCHOR6
 755 004c 10402DE9 		push	{r4, lr}
 756 0050 0231D3E7 		ldrb	r3, [r3, r2, lsl #2]	@ zero_extendqisi2
 757 0054 7E0D40E2 		sub	r0, r0, #8064
 758 0058 0221DCE7 		ldrb	r2, [ip, r2, lsl #2]	@ zero_extendqisi2
 759 005c FEFFFFEB 		bl	RZA_IO_RegWrite_8
 760 0060 0000A0E3 		mov	r0, #0
 761 0064 1080BDE8 		pop	{r4, pc}
 762              	.L182:
 763 0068 0000E0E3 		mvn	r0, #0
 764 006c 1EFF2FE1 		bx	lr
 765              	.L191:
 766 0070 010051E3 		cmp	r1, #1
 767 0074 EFFFFF0A 		beq	.L179
 768 0078 0300E0E3 		mvn	r0, #3
 769 007c 1EFF2FE1 		bx	lr
 771              		.section	.text.R_GPIO_PinAssignmentGet,"ax",%progbits
 772              		.align	2
 773              		.global	R_GPIO_PinAssignmentGet
 774              		.syntax unified
 775              		.arm
 776              		.fpu neon
 778              	R_GPIO_PinAssignmentGet:
 779              		@ args = 0, pretend = 0, frame = 0
 780              		@ frame_needed = 0, uses_anonymous_args = 0
 781 0000 7030EFE6 		uxtb	r3, r0
 782 0004 070053E3 		cmp	r3, #7
 783 0008 1900008A 		bhi	.L195
 784 000c 2004A0E1 		lsr	r0, r0, #8
 785 0010 002000E3 		movw	r2, #:lower16:.LANCHOR0
 786 0014 002040E3 		movt	r2, #:upper16:.LANCHOR0
 787 0018 70402DE9 		push	{r4, r5, r6, lr}
 788 001c 0040D2E7 		ldrb	r4, [r2, r0]	@ zero_extendqisi2
 789 0020 3443E0E1 		mvn	r4, r4, lsr r3
 790 0024 014004E2 		and	r4, r4, #1
 791 0028 150050E3 		cmp	r0, #21
 792 002c 01408483 		orrhi	r4, r4, #1
 793 0030 000054E3 		cmp	r4, #0
 794 0034 1000001A 		bne	.L196
 795 0038 0150A0E1 		mov	r5, r1
 796 003c 002000E3 		movw	r2, #:lower16:.LANCHOR6
 797 0040 001000E3 		movw	r1, #:lower16:.LANCHOR7
 798 0044 FD0480E2 		add	r0, r0, #-50331648
 799 0048 002040E3 		movt	r2, #:upper16:.LANCHOR6
 800 004c 001040E3 		movt	r1, #:upper16:.LANCHOR7
 801 0050 0321D2E7 		ldrb	r2, [r2, r3, lsl #2]	@ zero_extendqisi2
 802 0054 7E0D40E2 		sub	r0, r0, #8064
 803 0058 0311D1E7 		ldrb	r1, [r1, r3, lsl #2]	@ zero_extendqisi2
 804 005c FEFFFFEB 		bl	RZA_IO_RegRead_8
 805 0060 010050E3 		cmp	r0, #1
 806 0064 0000C505 		strbeq	r0, [r5]
 807 0068 0400A0E1 		mov	r0, r4
 808 006c 0040C515 		strbne	r4, [r5]
 809 0070 7080BDE8 		pop	{r4, r5, r6, pc}
 810              	.L195:
 811 0074 0000E0E3 		mvn	r0, #0
 812 0078 1EFF2FE1 		bx	lr
 813              	.L196:
 814 007c 0000E0E3 		mvn	r0, #0
 815 0080 7080BDE8 		pop	{r4, r5, r6, pc}
 817              		.section	.text.R_GPIO_PinTintSet,"ax",%progbits
 818              		.align	2
 819              		.global	R_GPIO_PinTintSet
 820              		.syntax unified
 821              		.arm
 822              		.fpu neon
 824              	R_GPIO_PinTintSet:
 825              		@ args = 0, pretend = 0, frame = 0
 826              		@ frame_needed = 0, uses_anonymous_args = 0
 827 0000 030051E3 		cmp	r1, #3
 828 0004 F0412DE9 		push	{r4, r5, r6, r7, r8, lr}
 829 0008 5E00000A 		beq	.L230
 830 000c 000051E3 		cmp	r1, #0
 831 0010 0150A0E1 		mov	r5, r1
 832 0014 5300001A 		bne	.L228
 833 0018 063600E3 		movw	r3, #1542
 834 001c 030050E1 		cmp	r0, r3
 835 0020 7A00000A 		beq	.L212
 836 0024 073600E3 		movw	r3, #1543
 837 0028 030050E1 		cmp	r0, r3
 838 002c 7C00000A 		beq	.L213
 839 0030 063D00E3 		movw	r3, #3334
 840 0034 030050E1 		cmp	r0, r3
 841 0038 7B00000A 		beq	.L214
 842 003c 073D00E3 		movw	r3, #3335
 843 0040 030050E1 		cmp	r0, r3
 844 0044 7A00000A 		beq	.L215
 845 0048 010050E3 		cmp	r0, #1
 846 004c 3F00000A 		beq	.L205
 847 0050 030050E3 		cmp	r0, #3
 848 0054 7800000A 		beq	.L217
 849 0058 050050E3 		cmp	r0, #5
 850 005c 7800000A 		beq	.L218
 851 0060 023800E3 		movw	r3, #2050
 852 0064 030050E1 		cmp	r0, r3
 853 0068 7700000A 		beq	.L219
 854 006c 053301E3 		movw	r3, #4869
 855 0070 030050E1 		cmp	r0, r3
 856 0074 3400000A 		beq	.L220
 857 0078 7040EFE6 		uxtb	r4, r0
 858 007c 0370E0E3 		mvn	r7, #3
 859 0080 2004A0E1 		lsr	r0, r0, #8
 860 0084 070054E3 		cmp	r4, #7
 861 0088 3B00008A 		bhi	.L222
 862              	.L231:
 863 008c 003000E3 		movw	r3, #:lower16:.LANCHOR0
 864 0090 003040E3 		movt	r3, #:upper16:.LANCHOR0
 865 0094 0060D3E7 		ldrb	r6, [r3, r0]	@ zero_extendqisi2
 866 0098 3664E0E1 		mvn	r6, r6, lsr r4
 867 009c 016006E2 		and	r6, r6, #1
 868 00a0 150050E3 		cmp	r0, #21
 869 00a4 01608683 		orrhi	r6, r6, #1
 870 00a8 000056E3 		cmp	r6, #0
 871 00ac 3200001A 		bne	.L222
 872 00b0 804184E0 		add	r4, r4, r0, lsl #3
 873 00b4 010055E3 		cmp	r5, #1
 874 00b8 FD4484E2 		add	r4, r4, #-50331648
 875 00bc 1E4C44E2 		sub	r4, r4, #7680
 876 00c0 3300000A 		beq	.L208
 877 00c4 020055E3 		cmp	r5, #2
 878 00c8 0370E013 		mvnne	r7, #3
 879 00cc 2B00001A 		bne	.L226
 880 00d0 FF020EE3 		movw	r0, #58111
 881 00d4 0610A0E1 		mov	r1, r6
 882 00d8 8030A0E3 		mov	r3, #128
 883 00dc FF0C4FE3 		movt	r0, 64767
 884 00e0 0720A0E3 		mov	r2, #7
 885 00e4 FEFFFFEB 		bl	RZA_IO_RegWrite_8
 886 00e8 FF020EE3 		movw	r0, #58111
 887 00ec 4030A0E3 		mov	r3, #64
 888 00f0 FF0C4FE3 		movt	r0, 64767
 889 00f4 0620A0E3 		mov	r2, #6
 890 00f8 0110A0E3 		mov	r1, #1
 891 00fc FEFFFFEB 		bl	RZA_IO_RegWrite_8
 892 0100 0400A0E1 		mov	r0, r4
 893 0104 4030A0E3 		mov	r3, #64
 894 0108 0620A0E3 		mov	r2, #6
 895 010c 0110A0E3 		mov	r1, #1
 896 0110 FEFFFFEB 		bl	RZA_IO_RegWrite_8
 897 0114 FF020EE3 		movw	r0, #58111
 898 0118 0610A0E1 		mov	r1, r6
 899 011c FF0C4FE3 		movt	r0, 64767
 900 0120 4030A0E3 		mov	r3, #64
 901 0124 0620A0E3 		mov	r2, #6
 902 0128 FEFFFFEB 		bl	RZA_IO_RegWrite_8
 903 012c FF020EE3 		movw	r0, #58111
 904 0130 8030A0E3 		mov	r3, #128
 905 0134 FF0C4FE3 		movt	r0, 64767
 906 0138 0720A0E3 		mov	r2, #7
 907 013c 0110A0E3 		mov	r1, #1
 908 0140 FEFFFFEB 		bl	RZA_IO_RegWrite_8
 909 0144 0700A0E1 		mov	r0, r7
 910 0148 F081BDE8 		pop	{r4, r5, r6, r7, r8, pc}
 911              	.L220:
 912 014c 0450A0E3 		mov	r5, #4
 913              	.L205:
 914 0150 855085E0 		add	r5, r5, r5, lsl #1
 915 0154 003000E3 		movw	r3, #:lower16:.LANCHOR5
 916 0158 003040E3 		movt	r3, #:upper16:.LANCHOR5
 917 015c 853083E0 		add	r3, r3, r5, lsl #1
 918 0160 023083E2 		add	r3, r3, #2
 919              	.L207:
 920 0164 0150D3E5 		ldrb	r5, [r3, #1]	@ zero_extendqisi2
 921              	.L228:
 922 0168 7040EFE6 		uxtb	r4, r0
 923 016c 0070A0E3 		mov	r7, #0
 924 0170 2004A0E1 		lsr	r0, r0, #8
 925 0174 070054E3 		cmp	r4, #7
 926 0178 C3FFFF9A 		bls	.L231
 927              	.L222:
 928 017c 0070E0E3 		mvn	r7, #0
 929              	.L226:
 930 0180 0700A0E1 		mov	r0, r7
 931 0184 F081BDE8 		pop	{r4, r5, r6, r7, r8, pc}
 932              	.L230:
 933 0188 0070A0E3 		mov	r7, #0
 934 018c 0700A0E1 		mov	r0, r7
 935 0190 F081BDE8 		pop	{r4, r5, r6, r7, r8, pc}
 936              	.L208:
 937 0194 FF020EE3 		movw	r0, #58111
 938 0198 0610A0E1 		mov	r1, r6
 939 019c 8030A0E3 		mov	r3, #128
 940 01a0 FF0C4FE3 		movt	r0, 64767
 941 01a4 0720A0E3 		mov	r2, #7
 942 01a8 FEFFFFEB 		bl	RZA_IO_RegWrite_8
 943 01ac FF020EE3 		movw	r0, #58111
 944 01b0 0510A0E1 		mov	r1, r5
 945 01b4 4030A0E3 		mov	r3, #64
 946 01b8 FF0C4FE3 		movt	r0, 64767
 947 01bc 0620A0E3 		mov	r2, #6
 948 01c0 FEFFFFEB 		bl	RZA_IO_RegWrite_8
 949 01c4 0400A0E1 		mov	r0, r4
 950 01c8 0610A0E1 		mov	r1, r6
 951 01cc 4030A0E3 		mov	r3, #64
 952 01d0 0620A0E3 		mov	r2, #6
 953 01d4 FEFFFFEB 		bl	RZA_IO_RegWrite_8
 954 01d8 FF020EE3 		movw	r0, #58111
 955 01dc 0610A0E1 		mov	r1, r6
 956 01e0 FF0C4FE3 		movt	r0, 64767
 957 01e4 4030A0E3 		mov	r3, #64
 958 01e8 0620A0E3 		mov	r2, #6
 959 01ec FEFFFFEB 		bl	RZA_IO_RegWrite_8
 960 01f0 FF020EE3 		movw	r0, #58111
 961 01f4 0510A0E1 		mov	r1, r5
 962 01f8 FF0C4FE3 		movt	r0, 64767
 963 01fc 8030A0E3 		mov	r3, #128
 964 0200 0720A0E3 		mov	r2, #7
 965 0204 FEFFFFEB 		bl	RZA_IO_RegWrite_8
 966 0208 0700A0E1 		mov	r0, r7
 967 020c F081BDE8 		pop	{r4, r5, r6, r7, r8, pc}
 968              	.L212:
 969 0210 0220A0E3 		mov	r2, #2
 970              	.L204:
 971 0214 003000E3 		movw	r3, #:lower16:.LANCHOR4
 972 0218 003040E3 		movt	r3, #:upper16:.LANCHOR4
 973 021c 023083E0 		add	r3, r3, r2
 974 0220 CFFFFFEA 		b	.L207
 975              	.L213:
 976 0224 0820A0E3 		mov	r2, #8
 977 0228 F9FFFFEA 		b	.L204
 978              	.L214:
 979 022c 0E20A0E3 		mov	r2, #14
 980 0230 F7FFFFEA 		b	.L204
 981              	.L215:
 982 0234 1420A0E3 		mov	r2, #20
 983 0238 F5FFFFEA 		b	.L204
 984              	.L217:
 985 023c 0150A0E3 		mov	r5, #1
 986 0240 C2FFFFEA 		b	.L205
 987              	.L218:
 988 0244 0250A0E3 		mov	r5, #2
 989 0248 C0FFFFEA 		b	.L205
 990              	.L219:
 991 024c 0350A0E3 		mov	r5, #3
 992 0250 BEFFFFEA 		b	.L205
 994              		.section	.text.R_GPIO_PinTintGet,"ax",%progbits
 995              		.align	2
 996              		.global	R_GPIO_PinTintGet
 997              		.syntax unified
 998              		.arm
 999              		.fpu neon
 1001              	R_GPIO_PinTintGet:
 1002              		@ args = 0, pretend = 0, frame = 0
 1003              		@ frame_needed = 0, uses_anonymous_args = 0
 1004 0000 7030EFE6 		uxtb	r3, r0
 1005 0004 070053E3 		cmp	r3, #7
 1006 0008 1700008A 		bhi	.L235
 1007 000c 2004A0E1 		lsr	r0, r0, #8
 1008 0010 002000E3 		movw	r2, #:lower16:.LANCHOR0
 1009 0014 002040E3 		movt	r2, #:upper16:.LANCHOR0
 1010 0018 70402DE9 		push	{r4, r5, r6, lr}
 1011 001c 0040D2E7 		ldrb	r4, [r2, r0]	@ zero_extendqisi2
 1012 0020 3443E0E1 		mvn	r4, r4, lsr r3
 1013 0024 014004E2 		and	r4, r4, #1
 1014 0028 150050E3 		cmp	r0, #21
 1015 002c 01408483 		orrhi	r4, r4, #1
 1016 0030 000054E3 		cmp	r4, #0
 1017 0034 0E00001A 		bne	.L236
 1018 0038 800183E0 		add	r0, r3, r0, lsl #3
 1019 003c 0150A0E1 		mov	r5, r1
 1020 0040 4020A0E3 		mov	r2, #64
 1021 0044 FD0480E2 		add	r0, r0, #-50331648
 1022 0048 0610A0E3 		mov	r1, #6
 1023 004c 1E0C40E2 		sub	r0, r0, #7680
 1024 0050 FEFFFFEB 		bl	RZA_IO_RegRead_8
 1025 0054 000050E3 		cmp	r0, #0
 1026 0058 0130A003 		moveq	r3, #1
 1027 005c 0230A013 		movne	r3, #2
 1028 0060 0400A011 		movne	r0, r4
 1029 0064 0030C5E5 		strb	r3, [r5]
 1030 0068 7080BDE8 		pop	{r4, r5, r6, pc}
 1031              	.L235:
 1032 006c 0000E0E3 		mvn	r0, #0
 1033 0070 1EFF2FE1 		bx	lr
 1034              	.L236:
 1035 0074 0000E0E3 		mvn	r0, #0
 1036 0078 7080BDE8 		pop	{r4, r5, r6, pc}
 1038              		.section	.text.R_GPIO_PinDscrSet,"ax",%progbits
 1039              		.align	2
 1040              		.global	R_GPIO_PinDscrSet
 1041              		.syntax unified
 1042              		.arm
 1043              		.fpu neon
 1045              	R_GPIO_PinDscrSet:
 1046              		@ args = 0, pretend = 0, frame = 0
 1047              		@ frame_needed = 0, uses_anonymous_args = 0
 1048 0000 70402DE9 		push	{r4, r5, r6, lr}
 1049 0004 005051E2 		subs	r5, r1, #0
 1050 0008 0040A0E1 		mov	r4, r0
 1051 000c 2000001A 		bne	.L242
 1052 0010 063600E3 		movw	r3, #1542
 1053 0014 030050E1 		cmp	r0, r3
 1054 0018 9900000A 		beq	.L272
 1055 001c 073600E3 		movw	r3, #1543
 1056 0020 030050E1 		cmp	r0, r3
 1057 0024 CF00000A 		beq	.L273
 1058 0028 063D00E3 		movw	r3, #3334
 1059 002c 030050E1 		cmp	r0, r3
 1060 0030 CE00000A 		beq	.L274
 1061 0034 073D00E3 		movw	r3, #3335
 1062 0038 030050E1 		cmp	r0, r3
 1063 003c CD00000A 		beq	.L275
 1064 0040 010050E3 		cmp	r0, #1
 1065 0044 0C00000A 		beq	.L244
 1066 0048 030050E3 		cmp	r0, #3
 1067 004c CB00000A 		beq	.L277
 1068 0050 050050E3 		cmp	r0, #5
 1069 0054 CB00000A 		beq	.L278
 1070 0058 023800E3 		movw	r3, #2050
 1071 005c 030050E1 		cmp	r0, r3
 1072 0060 CA00000A 		beq	.L279
 1073 0064 053301E3 		movw	r3, #4869
 1074 0068 030050E1 		cmp	r0, r3
 1075 006c 0100000A 		beq	.L312
 1076              	.L303:
 1077 0070 0300E0E3 		mvn	r0, #3
 1078 0074 7080BDE8 		pop	{r4, r5, r6, pc}
 1079              	.L312:
 1080 0078 0450A0E3 		mov	r5, #4
 1081              	.L244:
 1082 007c 855085E0 		add	r5, r5, r5, lsl #1
 1083 0080 003000E3 		movw	r3, #:lower16:.LANCHOR5
 1084 0084 003040E3 		movt	r3, #:upper16:.LANCHOR5
 1085 0088 853083E0 		add	r3, r3, r5, lsl #1
 1086 008c 023083E2 		add	r3, r3, #2
 1087              	.L246:
 1088 0090 0250D3E5 		ldrb	r5, [r3, #2]	@ zero_extendqisi2
 1089              	.L242:
 1090 0094 050055E3 		cmp	r5, #5
 1091 0098 2400000A 		beq	.L308
 1092 009c 020914E3 		tst	r4, #32768
 1093 00a0 2400000A 		beq	.L313
 1094 00a4 020954E3 		cmp	r4, #32768
 1095 00a8 9000000A 		beq	.L314
 1096 00ac 7F3C84E2 		add	r3, r4, #32512
 1097 00b0 7330FFE6 		uxth	r3, r3
 1098 00b4 0A0053E3 		cmp	r3, #10
 1099 00b8 7A00009A 		bls	.L315
 1100 00bc 7E3C84E2 		add	r3, r4, #32256
 1101 00c0 7330FFE6 		uxth	r3, r3
 1102 00c4 050053E3 		cmp	r3, #5
 1103 00c8 9400009A 		bls	.L316
 1104 00cc 7D3C84E2 		add	r3, r4, #32000
 1105 00d0 7330FFE6 		uxth	r3, r3
 1106 00d4 0D0053E3 		cmp	r3, #13
 1107 00d8 4A00008A 		bhi	.L299
 1108 00dc E90CA0E3 		mov	r0, #59648
 1109 00e0 0020E0E3 		mvn	r2, #0
 1110 00e4 FF0C4FE3 		movt	r0, 64767
 1111 00e8 0010A0E3 		mov	r1, #0
 1112 00ec FEFFFFEB 		bl	RZA_IO_RegRead_32
 1113 00f0 013100E3 		movw	r3, #257
 1114 00f4 0030D3E1 		bics	r3, r3, r0
 1115 00f8 6600000A 		beq	.L317
 1116 00fc 010055E3 		cmp	r5, #1
 1117 0100 0310A003 		moveq	r1, #3
 1118 0104 D9FFFF1A 		bne	.L303
 1119              	.L266:
 1120 0108 834C44E2 		sub	r4, r4, #33536
 1121 010c 002000E3 		movw	r2, #:lower16:.LANCHOR12
 1122 0110 844084E0 		add	r4, r4, r4, lsl #1
 1123 0114 002040E3 		movt	r2, #:upper16:.LANCHOR12
 1124 0118 0431A0E1 		lsl	r3, r4, #2
 1125              	.L307:
 1126 011c 03C082E0 		add	ip, r2, r3
 1127 0120 030092E7 		ldr	r0, [r2, r3]
 1128 0124 08309CE5 		ldr	r3, [ip, #8]
 1129 0128 0420DCE5 		ldrb	r2, [ip, #4]	@ zero_extendqisi2
 1130 012c FEFFFFEB 		bl	RZA_IO_RegWrite_32
 1131              	.L308:
 1132 0130 0000A0E3 		mov	r0, #0
 1133 0134 7080BDE8 		pop	{r4, r5, r6, pc}
 1134              	.L313:
 1135 0138 000055E3 		cmp	r5, #0
 1136 013c 1E00001A 		bne	.L249
 1137 0140 063600E3 		movw	r3, #1542
 1138 0144 030054E1 		cmp	r4, r3
 1139 0148 A000000A 		beq	.L282
 1140 014c 073600E3 		movw	r3, #1543
 1141 0150 030054E1 		cmp	r4, r3
 1142 0154 A200000A 		beq	.L283
 1143 0158 063D00E3 		movw	r3, #3334
 1144 015c 030054E1 		cmp	r4, r3
 1145 0160 A100000A 		beq	.L284
 1146 0164 073D00E3 		movw	r3, #3335
 1147 0168 030054E1 		cmp	r4, r3
 1148 016c A000000A 		beq	.L285
 1149 0170 010054E3 		cmp	r4, #1
 1150 0174 0A00000A 		beq	.L251
 1151 0178 030054E3 		cmp	r4, #3
 1152 017c 9E00000A 		beq	.L287
 1153 0180 050054E3 		cmp	r4, #5
 1154 0184 9E00000A 		beq	.L288
 1155 0188 023800E3 		movw	r3, #2050
 1156 018c 030054E1 		cmp	r4, r3
 1157 0190 9D00000A 		beq	.L289
 1158 0194 053301E3 		movw	r3, #4869
 1159 0198 030054E1 		cmp	r4, r3
 1160 019c B3FFFF1A 		bne	.L303
 1161 01a0 0450A0E3 		mov	r5, #4
 1162              	.L251:
 1163 01a4 855085E0 		add	r5, r5, r5, lsl #1
 1164 01a8 003000E3 		movw	r3, #:lower16:.LANCHOR5
 1165 01ac 003040E3 		movt	r3, #:upper16:.LANCHOR5
 1166 01b0 853083E0 		add	r3, r3, r5, lsl #1
 1167 01b4 023083E2 		add	r3, r3, #2
 1168              	.L252:
 1169 01b8 0250D3E5 		ldrb	r5, [r3, #2]	@ zero_extendqisi2
 1170              	.L249:
 1171 01bc 020055E3 		cmp	r5, #2
 1172 01c0 2404A0E1 		lsr	r0, r4, #8
 1173 01c4 7440EFE6 		uxtb	r4, r4
 1174 01c8 1000000A 		beq	.L318
 1175 01cc 040055E3 		cmp	r5, #4
 1176 01d0 A6FFFF1A 		bne	.L303
 1177 01d4 070054E3 		cmp	r4, #7
 1178 01d8 0030A083 		movhi	r3, #0
 1179 01dc 0200008A 		bhi	.L255
 1180 01e0 150050E3 		cmp	r0, #21
 1181 01e4 0030A083 		movhi	r3, #0
 1182 01e8 0130A093 		movls	r3, #1
 1183              	.L255:
 1184 01ec 002000E3 		movw	r2, #:lower16:.LANCHOR9
 1185 01f0 002040E3 		movt	r2, #:upper16:.LANCHOR9
 1186 01f4 0020D2E7 		ldrb	r2, [r2, r0]	@ zero_extendqisi2
 1187 01f8 3224A0E1 		lsr	r2, r2, r4
 1188 01fc 010012E3 		tst	r2, #1
 1189 0200 0110A013 		movne	r1, #1
 1190 0204 0E00001A 		bne	.L254
 1191              	.L299:
 1192 0208 0000E0E3 		mvn	r0, #0
 1193 020c 7080BDE8 		pop	{r4, r5, r6, pc}
 1194              	.L318:
 1195 0210 070054E3 		cmp	r4, #7
 1196 0214 0030A083 		movhi	r3, #0
 1197 0218 0200008A 		bhi	.L253
 1198 021c 150050E3 		cmp	r0, #21
 1199 0220 0030A083 		movhi	r3, #0
 1200 0224 0130A093 		movls	r3, #1
 1201              	.L253:
 1202 0228 002000E3 		movw	r2, #:lower16:.LANCHOR8
 1203 022c 002040E3 		movt	r2, #:upper16:.LANCHOR8
 1204 0230 0020D2E7 		ldrb	r2, [r2, r0]	@ zero_extendqisi2
 1205 0234 3224A0E1 		lsr	r2, r2, r4
 1206 0238 010012E3 		tst	r2, #1
 1207 023c 0310A013 		movne	r1, #3
 1208 0240 F0FFFF0A 		beq	.L299
 1209              	.L254:
 1210 0244 010053E3 		cmp	r3, #1
 1211 0248 EEFFFF1A 		bne	.L299
 1212 024c 003000E3 		movw	r3, #:lower16:.LANCHOR1
 1213 0250 002000E3 		movw	r2, #:lower16:.LANCHOR2
 1214 0254 003040E3 		movt	r3, #:upper16:.LANCHOR1
 1215 0258 002040E3 		movt	r2, #:upper16:.LANCHOR2
 1216 025c 043193E7 		ldr	r3, [r3, r4, lsl #2]
 1217 0260 8000A0E1 		lsl	r0, r0, #1
 1218 0264 042192E7 		ldr	r2, [r2, r4, lsl #2]
 1219 0268 FD0480E2 		add	r0, r0, #-50331648
 1220 026c 7B0D40E2 		sub	r0, r0, #7872
 1221 0270 7330FFE6 		uxth	r3, r3
 1222 0274 7220FFE6 		uxth	r2, r2
 1223 0278 FEFFFFEB 		bl	RZA_IO_RegWrite_16
 1224 027c 0000A0E3 		mov	r0, #0
 1225 0280 7080BDE8 		pop	{r4, r5, r6, pc}
 1226              	.L272:
 1227 0284 0220A0E3 		mov	r2, #2
 1228              	.L243:
 1229 0288 003000E3 		movw	r3, #:lower16:.LANCHOR4
 1230 028c 003040E3 		movt	r3, #:upper16:.LANCHOR4
 1231 0290 023083E0 		add	r3, r3, r2
 1232 0294 7DFFFFEA 		b	.L246
 1233              	.L317:
 1234 0298 020055E3 		cmp	r5, #2
 1235 029c 0110A003 		moveq	r1, #1
 1236 02a0 98FFFF0A 		beq	.L266
 1237 02a4 71FFFFEA 		b	.L303
 1238              	.L315:
 1239 02a8 810C54E3 		cmp	r4, #33024
 1240 02ac 4100000A 		beq	.L319
 1241 02b0 030055E3 		cmp	r5, #3
 1242 02b4 6DFFFF1A 		bne	.L303
 1243              	.L261:
 1244 02b8 E90CA0E3 		mov	r0, #59648
 1245 02bc 814C44E2 		sub	r4, r4, #33024
 1246 02c0 0210A0E3 		mov	r1, #2
 1247 02c4 0420A0E3 		mov	r2, #4
 1248 02c8 FF0C4FE3 		movt	r0, 64767
 1249 02cc 844084E0 		add	r4, r4, r4, lsl #1
 1250 02d0 FEFFFFEB 		bl	RZA_IO_RegRead_32
 1251 02d4 002000E3 		movw	r2, #:lower16:.LANCHOR10
 1252 02d8 010050E3 		cmp	r0, #1
 1253 02dc 002040E3 		movt	r2, #:upper16:.LANCHOR10
 1254 02e0 0431A0E1 		lsl	r3, r4, #2
 1255 02e4 0310A013 		movne	r1, #3
 1256 02e8 0210A003 		moveq	r1, #2
 1257 02ec 8AFFFFEA 		b	.L307
 1258              	.L314:
 1259 02f0 010055E3 		cmp	r5, #1
 1260 02f4 2700000A 		beq	.L257
 1261 02f8 020055E3 		cmp	r5, #2
 1262 02fc 5BFFFF1A 		bne	.L303
 1263 0300 D0090EE3 		movw	r0, #59856
 1264 0304 0030E0E3 		mvn	r3, #0
 1265 0308 FF0C4FE3 		movt	r0, 64767
 1266 030c 0020A0E3 		mov	r2, #0
 1267 0310 0110A0E3 		mov	r1, #1
 1268 0314 FEFFFFEB 		bl	RZA_IO_RegWrite_8
 1269 0318 0000A0E3 		mov	r0, #0
 1270 031c 7080BDE8 		pop	{r4, r5, r6, pc}
 1271              	.L316:
 1272 0320 820C54E3 		cmp	r4, #33280
 1273 0324 2600000A 		beq	.L320
 1274 0328 030055E3 		cmp	r5, #3
 1275 032c 4FFFFF1A 		bne	.L303
 1276              	.L264:
 1277 0330 E90CA0E3 		mov	r0, #59648
 1278 0334 824C44E2 		sub	r4, r4, #33280
 1279 0338 0310A0E3 		mov	r1, #3
 1280 033c 0820A0E3 		mov	r2, #8
 1281 0340 FF0C4FE3 		movt	r0, 64767
 1282 0344 844084E0 		add	r4, r4, r4, lsl #1
 1283 0348 FEFFFFEB 		bl	RZA_IO_RegRead_32
 1284 034c 002000E3 		movw	r2, #:lower16:.LANCHOR11
 1285 0350 010050E3 		cmp	r0, #1
 1286 0354 002040E3 		movt	r2, #:upper16:.LANCHOR11
 1287 0358 0431A0E1 		lsl	r3, r4, #2
 1288 035c 0310A013 		movne	r1, #3
 1289 0360 0210A003 		moveq	r1, #2
 1290 0364 6CFFFFEA 		b	.L307
 1291              	.L273:
 1292 0368 0820A0E3 		mov	r2, #8
 1293 036c C5FFFFEA 		b	.L243
 1294              	.L274:
 1295 0370 0E20A0E3 		mov	r2, #14
 1296 0374 C3FFFFEA 		b	.L243
 1297              	.L275:
 1298 0378 1420A0E3 		mov	r2, #20
 1299 037c C1FFFFEA 		b	.L243
 1300              	.L277:
 1301 0380 0150A0E3 		mov	r5, #1
 1302 0384 3CFFFFEA 		b	.L244
 1303              	.L278:
 1304 0388 0250A0E3 		mov	r5, #2
 1305 038c 3AFFFFEA 		b	.L244
 1306              	.L279:
 1307 0390 0350A0E3 		mov	r5, #3
 1308 0394 38FFFFEA 		b	.L244
 1309              	.L257:
 1310 0398 D0090EE3 		movw	r0, #59856
 1311 039c 0030E0E3 		mvn	r3, #0
 1312 03a0 FF0C4FE3 		movt	r0, 64767
 1313 03a4 0020A0E3 		mov	r2, #0
 1314 03a8 0210A0E3 		mov	r1, #2
 1315 03ac FEFFFFEB 		bl	RZA_IO_RegWrite_8
 1316 03b0 0000A0E3 		mov	r0, #0
 1317 03b4 7080BDE8 		pop	{r4, r5, r6, pc}
 1318              	.L319:
 1319 03b8 010055E3 		cmp	r5, #1
 1320 03bc BDFFFF0A 		beq	.L261
 1321 03c0 2AFFFFEA 		b	.L303
 1322              	.L320:
 1323 03c4 010055E3 		cmp	r5, #1
 1324 03c8 D8FFFF0A 		beq	.L264
 1325 03cc 27FFFFEA 		b	.L303
 1326              	.L282:
 1327 03d0 0220A0E3 		mov	r2, #2
 1328              	.L250:
 1329 03d4 003000E3 		movw	r3, #:lower16:.LANCHOR4
 1330 03d8 003040E3 		movt	r3, #:upper16:.LANCHOR4
 1331 03dc 023083E0 		add	r3, r3, r2
 1332 03e0 74FFFFEA 		b	.L252
 1333              	.L283:
 1334 03e4 0820A0E3 		mov	r2, #8
 1335 03e8 F9FFFFEA 		b	.L250
 1336              	.L284:
 1337 03ec 0E20A0E3 		mov	r2, #14
 1338 03f0 F7FFFFEA 		b	.L250
 1339              	.L285:
 1340 03f4 1420A0E3 		mov	r2, #20
 1341 03f8 F5FFFFEA 		b	.L250
 1342              	.L287:
 1343 03fc 0150A0E3 		mov	r5, #1
 1344 0400 67FFFFEA 		b	.L251
 1345              	.L288:
 1346 0404 0250A0E3 		mov	r5, #2
 1347 0408 65FFFFEA 		b	.L251
 1348              	.L289:
 1349 040c 0350A0E3 		mov	r5, #3
 1350 0410 63FFFFEA 		b	.L251
 1352              		.section	.text.R_GPIO_PinDscrGet,"ax",%progbits
 1353              		.align	2
 1354              		.global	R_GPIO_PinDscrGet
 1355              		.syntax unified
 1356              		.arm
 1357              		.fpu neon
 1359              	R_GPIO_PinDscrGet:
 1360              		@ args = 0, pretend = 0, frame = 0
 1361              		@ frame_needed = 0, uses_anonymous_args = 0
 1362 0000 020910E3 		tst	r0, #32768
 1363 0004 10402DE9 		push	{r4, lr}
 1364 0008 0140A0E1 		mov	r4, r1
 1365 000c 2500000A 		beq	.L352
 1366 0010 020950E3 		cmp	r0, #32768
 1367 0014 5700000A 		beq	.L353
 1368 0018 7F3C80E2 		add	r3, r0, #32512
 1369 001c 7330FFE6 		uxth	r3, r3
 1370 0020 0A0053E3 		cmp	r3, #10
 1371 0024 0500008A 		bhi	.L331
 1372 0028 810C50E3 		cmp	r0, #33024
 1373 002c 1900000A 		beq	.L336
 1374              	.L332:
 1375 0030 0330A0E3 		mov	r3, #3
 1376 0034 0000A0E3 		mov	r0, #0
 1377 0038 0030C4E5 		strb	r3, [r4]
 1378 003c 1080BDE8 		pop	{r4, pc}
 1379              	.L331:
 1380 0040 7E3C80E2 		add	r3, r0, #32256
 1381 0044 7330FFE6 		uxth	r3, r3
 1382 0048 050053E3 		cmp	r3, #5
 1383 004c 4000009A 		bls	.L354
 1384 0050 7D3C80E2 		add	r3, r0, #32000
 1385 0054 7330FFE6 		uxth	r3, r3
 1386 0058 0D0053E3 		cmp	r3, #13
 1387 005c 3A00008A 		bhi	.L340
 1388 0060 830C40E2 		sub	r0, r0, #33536
 1389 0064 002000E3 		movw	r2, #:lower16:.LANCHOR12
 1390 0068 800080E0 		add	r0, r0, r0, lsl #1
 1391 006c 002040E3 		movt	r2, #:upper16:.LANCHOR12
 1392 0070 0031A0E1 		lsl	r3, r0, #2
 1393 0074 031082E0 		add	r1, r2, r3
 1394 0078 030092E7 		ldr	r0, [r2, r3]
 1395 007c 082091E5 		ldr	r2, [r1, #8]
 1396 0080 0410D1E5 		ldrb	r1, [r1, #4]	@ zero_extendqisi2
 1397 0084 FEFFFFEB 		bl	RZA_IO_RegRead_32
 1398 0088 010050E3 		cmp	r0, #1
 1399 008c 2300000A 		beq	.L335
 1400 0090 030050E3 		cmp	r0, #3
 1401 0094 3100001A 		bne	.L350
 1402              	.L336:
 1403 0098 0130A0E3 		mov	r3, #1
 1404 009c 0000A0E3 		mov	r0, #0
 1405 00a0 0030C4E5 		strb	r3, [r4]
 1406 00a4 1080BDE8 		pop	{r4, pc}
 1407              	.L352:
 1408 00a8 7030EFE6 		uxtb	r3, r0
 1409 00ac 2004A0E1 		lsr	r0, r0, #8
 1410 00b0 070053E3 		cmp	r3, #7
 1411 00b4 2400008A 		bhi	.L340
 1412 00b8 002000E3 		movw	r2, #:lower16:.LANCHOR8
 1413 00bc 150050E3 		cmp	r0, #21
 1414 00c0 002040E3 		movt	r2, #:upper16:.LANCHOR8
 1415 00c4 0010A093 		movls	r1, #0
 1416 00c8 0020D2E7 		ldrb	r2, [r2, r0]	@ zero_extendqisi2
 1417 00cc 0110A083 		movhi	r1, #1
 1418 00d0 3223E0E1 		mvn	r2, r2, lsr r3
 1419 00d4 012002E2 		and	r2, r2, #1
 1420 00d8 022091E1 		orrs	r2, r1, r2
 1421 00dc 1300001A 		bne	.L355
 1422              	.L324:
 1423 00e0 002000E3 		movw	r2, #:lower16:.LANCHOR1
 1424 00e4 001000E3 		movw	r1, #:lower16:.LANCHOR2
 1425 00e8 002040E3 		movt	r2, #:upper16:.LANCHOR1
 1426 00ec 001040E3 		movt	r1, #:upper16:.LANCHOR2
 1427 00f0 032192E7 		ldr	r2, [r2, r3, lsl #2]
 1428 00f4 8000A0E1 		lsl	r0, r0, #1
 1429 00f8 031191E7 		ldr	r1, [r1, r3, lsl #2]
 1430 00fc FD0480E2 		add	r0, r0, #-50331648
 1431 0100 7B0D40E2 		sub	r0, r0, #7872
 1432 0104 7220FFE6 		uxth	r2, r2
 1433 0108 7110FFE6 		uxth	r1, r1
 1434 010c FEFFFFEB 		bl	RZA_IO_RegRead_16
 1435 0110 010050E3 		cmp	r0, #1
 1436 0114 1300000A 		beq	.L325
 1437 0118 030050E3 		cmp	r0, #3
 1438 011c 0F00001A 		bne	.L350
 1439              	.L335:
 1440 0120 0230A0E3 		mov	r3, #2
 1441 0124 0000A0E3 		mov	r0, #0
 1442 0128 0030C4E5 		strb	r3, [r4]
 1443 012c 1080BDE8 		pop	{r4, pc}
 1444              	.L355:
 1445 0130 002000E3 		movw	r2, #:lower16:.LANCHOR9
 1446 0134 002040E3 		movt	r2, #:upper16:.LANCHOR9
 1447 0138 0020D2E7 		ldrb	r2, [r2, r0]	@ zero_extendqisi2
 1448 013c 3223E0E1 		mvn	r2, r2, lsr r3
 1449 0140 012002E2 		and	r2, r2, #1
 1450 0144 022091E1 		orrs	r2, r1, r2
 1451 0148 E4FFFF0A 		beq	.L324
 1452              	.L340:
 1453 014c 0000E0E3 		mvn	r0, #0
 1454 0150 1080BDE8 		pop	{r4, pc}
 1455              	.L354:
 1456 0154 820C50E3 		cmp	r0, #33280
 1457 0158 B4FFFF1A 		bne	.L332
 1458 015c CDFFFFEA 		b	.L336
 1459              	.L350:
 1460 0160 0300E0E3 		mvn	r0, #3
 1461 0164 1080BDE8 		pop	{r4, pc}
 1462              	.L325:
 1463 0168 0430A0E3 		mov	r3, #4
 1464 016c 0000A0E3 		mov	r0, #0
 1465 0170 0030C4E5 		strb	r3, [r4]
 1466 0174 1080BDE8 		pop	{r4, pc}
 1467              	.L353:
 1468 0178 D0090EE3 		movw	r0, #59856
 1469 017c 0020E0E3 		mvn	r2, #0
 1470 0180 FF0C4FE3 		movt	r0, 64767
 1471 0184 0010A0E3 		mov	r1, #0
 1472 0188 FEFFFFEB 		bl	RZA_IO_RegRead_8
 1473 018c 010050E3 		cmp	r0, #1
 1474 0190 E2FFFF0A 		beq	.L335
 1475 0194 020050E3 		cmp	r0, #2
 1476 0198 BEFFFF0A 		beq	.L336
 1477 019c 0530A0E3 		mov	r3, #5
 1478 01a0 0300E0E3 		mvn	r0, #3
 1479 01a4 0030C4E5 		strb	r3, [r4]
 1480 01a8 1080BDE8 		pop	{r4, pc}
 1482              		.section	.text.R_GPIO_PinGetConfiguration,"ax",%progbits
 1483              		.align	2
 1484              		.global	R_GPIO_PinGetConfiguration
 1485              		.syntax unified
 1486              		.arm
 1487              		.fpu neon
 1489              	R_GPIO_PinGetConfiguration:
 1490              		@ args = 0, pretend = 0, frame = 0
 1491              		@ frame_needed = 0, uses_anonymous_args = 0
 1492 0000 F84F2DE9 		push	{r3, r4, r5, r6, r7, r8, r9, r10, fp, lr}
 1493 0004 0330A0E3 		mov	r3, #3
 1494 0008 B050D0E1 		ldrh	r5, [r0]
 1495 000c 01A0A0E3 		mov	r10, #1
 1496 0010 0590A0E3 		mov	r9, #5
 1497 0014 0330C0E5 		strb	r3, [r0, #3]
 1498 0018 02A0C0E5 		strb	r10, [r0, #2]
 1499 001c 7560EFE6 		uxtb	r6, r5
 1500 0020 0490C0E5 		strb	r9, [r0, #4]
 1501 0024 070056E3 		cmp	r6, #7
 1502 0028 1F00008A 		bhi	.L357
 1503 002c 2554A0E1 		lsr	r5, r5, #8
 1504 0030 007000E3 		movw	r7, #:lower16:.LANCHOR0
 1505 0034 007040E3 		movt	r7, #:upper16:.LANCHOR0
 1506 0038 0530D7E7 		ldrb	r3, [r7, r5]	@ zero_extendqisi2
 1507 003c 3336A0E1 		lsr	r3, r3, r6
 1508 0040 010013E3 		tst	r3, #1
 1509 0044 1800000A 		beq	.L357
 1510 0048 150055E3 		cmp	r5, #21
 1511 004c 1600008A 		bhi	.L357
 1512 0050 0080A0E3 		mov	r8, #0
 1513 0054 0280C0E5 		strb	r8, [r0, #2]
 1514 0058 0530D7E7 		ldrb	r3, [r7, r5]	@ zero_extendqisi2
 1515 005c 3336A0E1 		lsr	r3, r3, r6
 1516 0060 010013E3 		tst	r3, #1
 1517 0064 1000000A 		beq	.L357
 1518 0068 002000E3 		movw	r2, #:lower16:.LANCHOR6
 1519 006c 003000E3 		movw	r3, #:lower16:.LANCHOR7
 1520 0070 002040E3 		movt	r2, #:upper16:.LANCHOR6
 1521 0074 003040E3 		movt	r3, #:upper16:.LANCHOR7
 1522 0078 06B1D2E7 		ldrb	fp, [r2, r6, lsl #2]	@ zero_extendqisi2
 1523 007c 0040A0E1 		mov	r4, r0
 1524 0080 FD0485E2 		add	r0, r5, #-50331648
 1525 0084 0611D3E7 		ldrb	r1, [r3, r6, lsl #2]	@ zero_extendqisi2
 1526 0088 7E0D40E2 		sub	r0, r0, #8064
 1527 008c 0B20A0E1 		mov	r2, fp
 1528 0090 FEFFFFEB 		bl	RZA_IO_RegRead_8
 1529 0094 0530D7E7 		ldrb	r3, [r7, r5]	@ zero_extendqisi2
 1530 0098 0A0050E1 		cmp	r0, r10
 1531 009c 3336A0E1 		lsr	r3, r3, r6
 1532 00a0 0300000A 		beq	.L358
 1533 00a4 010013E3 		tst	r3, #1
 1534 00a8 2700001A 		bne	.L395
 1535              	.L357:
 1536 00ac 0000E0E3 		mvn	r0, #0
 1537 00b0 F88FBDE8 		pop	{r3, r4, r5, r6, r7, r8, r9, r10, fp, pc}
 1538              	.L358:
 1539 00b4 010013E3 		tst	r3, #1
 1540 00b8 FBFFFF0A 		beq	.L357
 1541 00bc 850186E0 		add	r0, r6, r5, lsl #3
 1542 00c0 0810A0E1 		mov	r1, r8
 1543 00c4 0720A0E3 		mov	r2, #7
 1544 00c8 FD0480E2 		add	r0, r0, #-50331648
 1545 00cc 1E0C40E2 		sub	r0, r0, #7680
 1546 00d0 FEFFFFEB 		bl	RZA_IO_RegRead_8
 1547 00d4 070050E3 		cmp	r0, #7
 1548 00d8 06008092 		addls	r0, r0, #6
 1549 00dc 0000008A 		bhi	.L365
 1550              	.L392:
 1551 00e0 0200C4E5 		strb	r0, [r4, #2]
 1552              	.L365:
 1553 00e4 B000D4E1 		ldrh	r0, [r4]
 1554 00e8 7030EFE6 		uxtb	r3, r0
 1555 00ec 2004A0E1 		lsr	r0, r0, #8
 1556 00f0 070053E3 		cmp	r3, #7
 1557 00f4 ECFFFF8A 		bhi	.L357
 1558 00f8 0020D7E7 		ldrb	r2, [r7, r0]	@ zero_extendqisi2
 1559 00fc 3223A0E1 		lsr	r2, r2, r3
 1560 0100 010012E3 		tst	r2, #1
 1561 0104 E8FFFF0A 		beq	.L357
 1562 0108 150050E3 		cmp	r0, #21
 1563 010c E6FFFF8A 		bhi	.L357
 1564 0110 800183E0 		add	r0, r3, r0, lsl #3
 1565 0114 4020A0E3 		mov	r2, #64
 1566 0118 0610A0E3 		mov	r1, #6
 1567 011c FD0480E2 		add	r0, r0, #-50331648
 1568 0120 1E0C40E2 		sub	r0, r0, #7680
 1569 0124 FEFFFFEB 		bl	RZA_IO_RegRead_8
 1570 0128 000050E3 		cmp	r0, #0
 1571 012c 041084E2 		add	r1, r4, #4
 1572 0130 0130A003 		moveq	r3, #1
 1573 0134 0230A013 		movne	r3, #2
 1574 0138 B000D4E1 		ldrh	r0, [r4]
 1575 013c 0330C4E5 		strb	r3, [r4, #3]
 1576 0140 FEFFFFEB 		bl	R_GPIO_PinDscrGet
 1577 0144 0000A0E3 		mov	r0, #0
 1578 0148 F88FBDE8 		pop	{r3, r4, r5, r6, r7, r8, r9, r10, fp, pc}
 1579              	.L395:
 1580 014c 002000E3 		movw	r2, #:lower16:.LANCHOR1
 1581 0150 003000E3 		movw	r3, #:lower16:.LANCHOR2
 1582 0154 003040E3 		movt	r3, #:upper16:.LANCHOR2
 1583 0158 002040E3 		movt	r2, #:upper16:.LANCHOR1
 1584 015c 062192E7 		ldr	r2, [r2, r6, lsl #2]
 1585 0160 150AA0E1 		lsl	r0, r5, r10
 1586 0164 061193E7 		ldr	r1, [r3, r6, lsl #2]
 1587 0168 FD0480E2 		add	r0, r0, #-50331648
 1588 016c 020A40E2 		sub	r0, r0, #8192
 1589 0170 7220FFE6 		uxth	r2, r2
 1590 0174 7110FFE6 		uxth	r1, r1
 1591 0178 FEFFFFEB 		bl	RZA_IO_RegRead_16
 1592 017c 020050E3 		cmp	r0, #2
 1593 0180 D6FFFF0A 		beq	.L392
 1594 0184 030050E3 		cmp	r0, #3
 1595 0188 0300000A 		beq	.L361
 1596 018c 080050E1 		cmp	r0, r8
 1597 0190 0D00000A 		beq	.L396
 1598 0194 0300E0E3 		mvn	r0, #3
 1599 0198 F88FBDE8 		pop	{r3, r4, r5, r6, r7, r8, r9, r10, fp, pc}
 1600              	.L361:
 1601 019c 0530D7E7 		ldrb	r3, [r7, r5]	@ zero_extendqisi2
 1602 01a0 3336A0E1 		lsr	r3, r3, r6
 1603 01a4 010013E3 		tst	r3, #1
 1604 01a8 BFFFFF0A 		beq	.L357
 1605 01ac 60000EE3 		movw	r0, #57440
 1606 01b0 0B20A0E1 		mov	r2, fp
 1607 01b4 FF0C4FE3 		movt	r0, 64767
 1608 01b8 0610A0E1 		mov	r1, r6
 1609 01bc 000085E0 		add	r0, r5, r0
 1610 01c0 FEFFFFEB 		bl	RZA_IO_RegRead_8
 1611 01c4 0290C4E5 		strb	r9, [r4, #2]
 1612 01c8 C5FFFFEA 		b	.L365
 1613              	.L396:
 1614 01cc 02A0C4E5 		strb	r10, [r4, #2]
 1615 01d0 C3FFFFEA 		b	.L365
 1617              		.section	.text.R_GPIO_PeripheralFunctionWrite,"ax",%progbits
 1618              		.align	2
 1619              		.global	R_GPIO_PeripheralFunctionWrite
 1620              		.syntax unified
 1621              		.arm
 1622              		.fpu neon
 1624              	R_GPIO_PeripheralFunctionWrite:
 1625              		@ args = 0, pretend = 0, frame = 0
 1626              		@ frame_needed = 0, uses_anonymous_args = 0
 1627 0000 F0412DE9 		push	{r4, r5, r6, r7, r8, lr}
 1628 0004 7060EFE6 		uxtb	r6, r0
 1629 0008 070056E3 		cmp	r6, #7
 1630 000c 2B00008A 		bhi	.L400
 1631 0010 2074A0E1 		lsr	r7, r0, #8
 1632 0014 003000E3 		movw	r3, #:lower16:.LANCHOR0
 1633 0018 003040E3 		movt	r3, #:upper16:.LANCHOR0
 1634 001c 0740D3E7 		ldrb	r4, [r3, r7]	@ zero_extendqisi2
 1635 0020 3446E0E1 		mvn	r4, r4, lsr r6
 1636 0024 014004E2 		and	r4, r4, #1
 1637 0028 150057E3 		cmp	r7, #21
 1638 002c 01408483 		orrhi	r4, r4, #1
 1639 0030 000054E3 		cmp	r4, #0
 1640 0034 2100001A 		bne	.L400
 1641 0038 FF020EE3 		movw	r0, #58111
 1642 003c 0150A0E1 		mov	r5, r1
 1643 0040 8030A0E3 		mov	r3, #128
 1644 0044 0410A0E1 		mov	r1, r4
 1645 0048 FF0C4FE3 		movt	r0, 64767
 1646 004c 0720A0E3 		mov	r2, #7
 1647 0050 FEFFFFEB 		bl	RZA_IO_RegWrite_8
 1648 0054 FF020EE3 		movw	r0, #58111
 1649 0058 4030A0E3 		mov	r3, #64
 1650 005c FF0C4FE3 		movt	r0, 64767
 1651 0060 0620A0E3 		mov	r2, #6
 1652 0064 0110A0E3 		mov	r1, #1
 1653 0068 FEFFFFEB 		bl	RZA_IO_RegWrite_8
 1654 006c 870186E0 		add	r0, r6, r7, lsl #3
 1655 0070 0510A0E1 		mov	r1, r5
 1656 0074 0420A0E1 		mov	r2, r4
 1657 0078 FD0480E2 		add	r0, r0, #-50331648
 1658 007c 0730A0E3 		mov	r3, #7
 1659 0080 1E0C40E2 		sub	r0, r0, #7680
 1660 0084 FEFFFFEB 		bl	RZA_IO_RegWrite_8
 1661 0088 FF020EE3 		movw	r0, #58111
 1662 008c 0410A0E1 		mov	r1, r4
 1663 0090 4030A0E3 		mov	r3, #64
 1664 0094 FF0C4FE3 		movt	r0, 64767
 1665 0098 0620A0E3 		mov	r2, #6
 1666 009c FEFFFFEB 		bl	RZA_IO_RegWrite_8
 1667 00a0 FF020EE3 		movw	r0, #58111
 1668 00a4 8030A0E3 		mov	r3, #128
 1669 00a8 FF0C4FE3 		movt	r0, 64767
 1670 00ac 0720A0E3 		mov	r2, #7
 1671 00b0 0110A0E3 		mov	r1, #1
 1672 00b4 FEFFFFEB 		bl	RZA_IO_RegWrite_8
 1673 00b8 0400A0E1 		mov	r0, r4
 1674 00bc F081BDE8 		pop	{r4, r5, r6, r7, r8, pc}
 1675              	.L400:
 1676 00c0 0000E0E3 		mvn	r0, #0
 1677 00c4 F081BDE8 		pop	{r4, r5, r6, r7, r8, pc}
 1679              		.section	.text.R_GPIO_PeripheralFunctionRead,"ax",%progbits
 1680              		.align	2
 1681              		.global	R_GPIO_PeripheralFunctionRead
 1682              		.syntax unified
 1683              		.arm
 1684              		.fpu neon
 1686              	R_GPIO_PeripheralFunctionRead:
 1687              		@ args = 0, pretend = 0, frame = 0
 1688              		@ frame_needed = 0, uses_anonymous_args = 0
 1689 0000 7030EFE6 		uxtb	r3, r0
 1690 0004 70402DE9 		push	{r4, r5, r6, lr}
 1691 0008 070053E3 		cmp	r3, #7
 1692 000c 1300008A 		bhi	.L405
 1693 0010 2004A0E1 		lsr	r0, r0, #8
 1694 0014 002000E3 		movw	r2, #:lower16:.LANCHOR0
 1695 0018 002040E3 		movt	r2, #:upper16:.LANCHOR0
 1696 001c 0040D2E7 		ldrb	r4, [r2, r0]	@ zero_extendqisi2
 1697 0020 3443E0E1 		mvn	r4, r4, lsr r3
 1698 0024 014004E2 		and	r4, r4, #1
 1699 0028 150050E3 		cmp	r0, #21
 1700 002c 01408483 		orrhi	r4, r4, #1
 1701 0030 000054E3 		cmp	r4, #0
 1702 0034 0900001A 		bne	.L405
 1703 0038 800183E0 		add	r0, r3, r0, lsl #3
 1704 003c 0150A0E1 		mov	r5, r1
 1705 0040 0720A0E3 		mov	r2, #7
 1706 0044 FD0480E2 		add	r0, r0, #-50331648
 1707 0048 0410A0E1 		mov	r1, r4
 1708 004c 1E0C40E2 		sub	r0, r0, #7680
 1709 0050 FEFFFFEB 		bl	RZA_IO_RegRead_8
 1710 0054 0000C5E5 		strb	r0, [r5]
 1711 0058 0400A0E1 		mov	r0, r4
 1712 005c 7080BDE8 		pop	{r4, r5, r6, pc}
 1713              	.L405:
 1714 0060 0040E0E3 		mvn	r4, #0
 1715 0064 0400A0E1 		mov	r0, r4
 1716 0068 7080BDE8 		pop	{r4, r5, r6, pc}
 1718              		.section	.text.R_GPIO_PinSetFunction,"ax",%progbits
 1719              		.align	2
 1720              		.global	R_GPIO_PinSetFunction
 1721              		.syntax unified
 1722              		.arm
 1723              		.fpu neon
 1725              	R_GPIO_PinSetFunction:
 1726              		@ args = 0, pretend = 0, frame = 0
 1727              		@ frame_needed = 0, uses_anonymous_args = 0
 1728 0000 F84F2DE9 		push	{r3, r4, r5, r6, r7, r8, r9, r10, fp, lr}
 1729 0004 004051E2 		subs	r4, r1, #0
 1730 0008 0050A0E1 		mov	r5, r0
 1731 000c 2100001A 		bne	.L408
 1732 0010 063600E3 		movw	r3, #1542
 1733 0014 030050E1 		cmp	r0, r3
 1734 0018 FC00000A 		beq	.L423
 1735 001c 073600E3 		movw	r3, #1543
 1736 0020 030050E1 		cmp	r0, r3
 1737 0024 0501000A 		beq	.L424
 1738 0028 063D00E3 		movw	r3, #3334
 1739 002c 030050E1 		cmp	r0, r3
 1740 0030 0401000A 		beq	.L425
 1741 0034 073D00E3 		movw	r3, #3335
 1742 0038 030050E1 		cmp	r0, r3
 1743 003c 0301000A 		beq	.L426
 1744 0040 010050E3 		cmp	r0, #1
 1745 0044 0D00000A 		beq	.L410
 1746 0048 030050E3 		cmp	r0, #3
 1747 004c 0101000A 		beq	.L428
 1748 0050 050050E3 		cmp	r0, #5
 1749 0054 0101000A 		beq	.L429
 1750 0058 023800E3 		movw	r3, #2050
 1751 005c 030050E1 		cmp	r0, r3
 1752 0060 0001000A 		beq	.L430
 1753 0064 053301E3 		movw	r3, #4869
 1754 0068 030050E1 		cmp	r0, r3
 1755 006c 0200000A 		beq	.L443
 1756              	.L432:
 1757 0070 0360E0E3 		mvn	r6, #3
 1758 0074 0600A0E1 		mov	r0, r6
 1759 0078 F88FBDE8 		pop	{r3, r4, r5, r6, r7, r8, r9, r10, fp, pc}
 1760              	.L443:
 1761 007c 0440A0E3 		mov	r4, #4
 1762              	.L410:
 1763 0080 844084E0 		add	r4, r4, r4, lsl #1
 1764 0084 003000E3 		movw	r3, #:lower16:.LANCHOR5
 1765 0088 003040E3 		movt	r3, #:upper16:.LANCHOR5
 1766 008c 843083E0 		add	r3, r3, r4, lsl #1
 1767 0090 023083E2 		add	r3, r3, #2
 1768              	.L412:
 1769 0094 0040D3E5 		ldrb	r4, [r3]	@ zero_extendqisi2
 1770              	.L408:
 1771 0098 010054E3 		cmp	r4, #1
 1772 009c 7F00000A 		beq	.L444
 1773 00a0 020054E3 		cmp	r4, #2
 1774 00a4 BB00000A 		beq	.L445
 1775 00a8 033044E2 		sub	r3, r4, #3
 1776 00ac 020053E3 		cmp	r3, #2
 1777 00b0 0900009A 		bls	.L446
 1778 00b4 064044E2 		sub	r4, r4, #6
 1779 00b8 7440EFE6 		uxtb	r4, r4
 1780 00bc 070054E3 		cmp	r4, #7
 1781 00c0 EAFFFF8A 		bhi	.L432
 1782 00c4 0500A0E1 		mov	r0, r5
 1783 00c8 FEFFFFEB 		bl	R_GPIO_PinDirectionSet.constprop.4
 1784 00cc 006050E2 		subs	r6, r0, #0
 1785 00d0 2C00000A 		beq	.L447
 1786              	.L433:
 1787 00d4 0600A0E1 		mov	r0, r6
 1788 00d8 F88FBDE8 		pop	{r3, r4, r5, r6, r7, r8, r9, r10, fp, pc}
 1789              	.L446:
 1790 00dc 0500A0E1 		mov	r0, r5
 1791 00e0 FEFFFFEB 		bl	R_GPIO_PinDirectionSet.constprop.4
 1792 00e4 006050E2 		subs	r6, r0, #0
 1793 00e8 F9FFFF1A 		bne	.L433
 1794 00ec 75C0EFE6 		uxtb	ip, r5
 1795 00f0 2504A0E1 		lsr	r0, r5, #8
 1796 00f4 07005CE3 		cmp	ip, #7
 1797 00f8 1F00008A 		bhi	.L415
 1798 00fc 003000E3 		movw	r3, #:lower16:.LANCHOR0
 1799 0100 003040E3 		movt	r3, #:upper16:.LANCHOR0
 1800 0104 0010D3E7 		ldrb	r1, [r3, r0]	@ zero_extendqisi2
 1801 0108 311CE0E1 		mvn	r1, r1, lsr ip
 1802 010c 011001E2 		and	r1, r1, #1
 1803 0110 150050E3 		cmp	r0, #21
 1804 0114 01108183 		orrhi	r1, r1, #1
 1805 0118 000051E3 		cmp	r1, #0
 1806 011c 1600001A 		bne	.L415
 1807 0120 003000E3 		movw	r3, #:lower16:.LANCHOR6
 1808 0124 002000E3 		movw	r2, #:lower16:.LANCHOR7
 1809 0128 FD0480E2 		add	r0, r0, #-50331648
 1810 012c 003040E3 		movt	r3, #:upper16:.LANCHOR6
 1811 0130 002040E3 		movt	r2, #:upper16:.LANCHOR7
 1812 0134 7E0D40E2 		sub	r0, r0, #8064
 1813 0138 0C31D3E7 		ldrb	r3, [r3, ip, lsl #2]	@ zero_extendqisi2
 1814 013c 0C21D2E7 		ldrb	r2, [r2, ip, lsl #2]	@ zero_extendqisi2
 1815 0140 FEFFFFEB 		bl	RZA_IO_RegWrite_8
 1816 0144 030054E3 		cmp	r4, #3
 1817 0148 B700000A 		beq	.L419
 1818 014c 040054E3 		cmp	r4, #4
 1819 0150 B300001A 		bne	.L448
 1820 0154 0110A0E3 		mov	r1, #1
 1821 0158 0500A0E1 		mov	r0, r5
 1822 015c FEFFFFEB 		bl	R_GPIO_PinWrite
 1823 0160 0060A0E1 		mov	r6, r0
 1824              	.L421:
 1825 0164 000056E3 		cmp	r6, #0
 1826 0168 D9FFFF1A 		bne	.L433
 1827              	.L422:
 1828 016c 0500A0E1 		mov	r0, r5
 1829 0170 0210A0E3 		mov	r1, #2
 1830 0174 F84FBDE8 		pop	{r3, r4, r5, r6, r7, r8, r9, r10, fp, lr}
 1831 0178 FEFFFFEA 		b	R_GPIO_PinDirectionSet
 1832              	.L415:
 1833 017c 0060E0E3 		mvn	r6, #0
 1834 0180 0600A0E1 		mov	r0, r6
 1835 0184 F88FBDE8 		pop	{r3, r4, r5, r6, r7, r8, r9, r10, fp, pc}
 1836              	.L447:
 1837 0188 7570EFE6 		uxtb	r7, r5
 1838 018c 2554A0E1 		lsr	r5, r5, #8
 1839 0190 070057E3 		cmp	r7, #7
 1840 0194 F8FFFF8A 		bhi	.L415
 1841 0198 00B000E3 		movw	fp, #:lower16:.LANCHOR0
 1842 019c 00B040E3 		movt	fp, #:upper16:.LANCHOR0
 1843 01a0 0530DBE7 		ldrb	r3, [fp, r5]	@ zero_extendqisi2
 1844 01a4 3337E0E1 		mvn	r3, r3, lsr r7
 1845 01a8 150055E3 		cmp	r5, #21
 1846 01ac 01308383 		orrhi	r3, r3, #1
 1847 01b0 010013E3 		tst	r3, #1
 1848 01b4 F0FFFF1A 		bne	.L415
 1849 01b8 002000E3 		movw	r2, #:lower16:.LANCHOR7
 1850 01bc 003000E3 		movw	r3, #:lower16:.LANCHOR6
 1851 01c0 002040E3 		movt	r2, #:upper16:.LANCHOR7
 1852 01c4 003040E3 		movt	r3, #:upper16:.LANCHOR6
 1853 01c8 0791D2E7 		ldrb	r9, [r2, r7, lsl #2]	@ zero_extendqisi2
 1854 01cc FD8485E2 		add	r8, r5, #-50331648
 1855 01d0 07A1D3E7 		ldrb	r10, [r3, r7, lsl #2]	@ zero_extendqisi2
 1856 01d4 7E8D48E2 		sub	r8, r8, #8064
 1857 01d8 0800A0E1 		mov	r0, r8
 1858 01dc 0610A0E1 		mov	r1, r6
 1859 01e0 0920A0E1 		mov	r2, r9
 1860 01e4 0A30A0E1 		mov	r3, r10
 1861 01e8 FEFFFFEB 		bl	RZA_IO_RegWrite_8
 1862 01ec 0530DBE7 		ldrb	r3, [fp, r5]	@ zero_extendqisi2
 1863 01f0 3337A0E1 		lsr	r3, r3, r7
 1864 01f4 010013E3 		tst	r3, #1
 1865 01f8 DFFFFF0A 		beq	.L415
 1866 01fc FF020EE3 		movw	r0, #58111
 1867 0200 8030A0E3 		mov	r3, #128
 1868 0204 FF0C4FE3 		movt	r0, 64767
 1869 0208 0720A0E3 		mov	r2, #7
 1870 020c 0610A0E1 		mov	r1, r6
 1871 0210 FEFFFFEB 		bl	RZA_IO_RegWrite_8
 1872 0214 FF020EE3 		movw	r0, #58111
 1873 0218 4030A0E3 		mov	r3, #64
 1874 021c FF0C4FE3 		movt	r0, 64767
 1875 0220 0620A0E3 		mov	r2, #6
 1876 0224 0110A0E3 		mov	r1, #1
 1877 0228 FEFFFFEB 		bl	RZA_IO_RegWrite_8
 1878 022c 850187E0 		add	r0, r7, r5, lsl #3
 1879 0230 0410A0E1 		mov	r1, r4
 1880 0234 0730A0E3 		mov	r3, #7
 1881 0238 FD0480E2 		add	r0, r0, #-50331648
 1882 023c 0620A0E1 		mov	r2, r6
 1883 0240 1E0C40E2 		sub	r0, r0, #7680
 1884 0244 FEFFFFEB 		bl	RZA_IO_RegWrite_8
 1885 0248 FF020EE3 		movw	r0, #58111
 1886 024c 4030A0E3 		mov	r3, #64
 1887 0250 FF0C4FE3 		movt	r0, 64767
 1888 0254 0620A0E3 		mov	r2, #6
 1889 0258 0610A0E1 		mov	r1, r6
 1890 025c FEFFFFEB 		bl	RZA_IO_RegWrite_8
 1891 0260 FF020EE3 		movw	r0, #58111
 1892 0264 8030A0E3 		mov	r3, #128
 1893 0268 FF0C4FE3 		movt	r0, 64767
 1894 026c 0720A0E3 		mov	r2, #7
 1895 0270 0110A0E3 		mov	r1, #1
 1896 0274 FEFFFFEB 		bl	RZA_IO_RegWrite_8
 1897 0278 0530DBE7 		ldrb	r3, [fp, r5]	@ zero_extendqisi2
 1898 027c 3377E0E1 		mvn	r7, r3, lsr r7
 1899 0280 010017E3 		tst	r7, #1
 1900 0284 BCFFFF1A 		bne	.L415
 1901 0288 0A30A0E1 		mov	r3, r10
 1902 028c 0920A0E1 		mov	r2, r9
 1903 0290 0800A0E1 		mov	r0, r8
 1904 0294 0110A0E3 		mov	r1, #1
 1905 0298 FEFFFFEB 		bl	RZA_IO_RegWrite_8
 1906 029c 8CFFFFEA 		b	.L433
 1907              	.L444:
 1908 02a0 0500A0E1 		mov	r0, r5
 1909 02a4 FEFFFFEB 		bl	R_GPIO_PinDirectionSet.constprop.4
 1910 02a8 006050E2 		subs	r6, r0, #0
 1911 02ac 88FFFF1A 		bne	.L433
 1912 02b0 7570EFE6 		uxtb	r7, r5
 1913 02b4 2554A0E1 		lsr	r5, r5, #8
 1914 02b8 070057E3 		cmp	r7, #7
 1915 02bc AEFFFF8A 		bhi	.L415
 1916 02c0 008000E3 		movw	r8, #:lower16:.LANCHOR0
 1917 02c4 008040E3 		movt	r8, #:upper16:.LANCHOR0
 1918 02c8 0530D8E7 		ldrb	r3, [r8, r5]	@ zero_extendqisi2
 1919 02cc 3337A0E1 		lsr	r3, r3, r7
 1920 02d0 010013E3 		tst	r3, #1
 1921 02d4 A8FFFF0A 		beq	.L415
 1922 02d8 150055E3 		cmp	r5, #21
 1923 02dc A6FFFF8A 		bhi	.L415
 1924 02e0 FF020EE3 		movw	r0, #58111
 1925 02e4 8030A0E3 		mov	r3, #128
 1926 02e8 FF0C4FE3 		movt	r0, 64767
 1927 02ec 0720A0E3 		mov	r2, #7
 1928 02f0 0610A0E1 		mov	r1, r6
 1929 02f4 FEFFFFEB 		bl	RZA_IO_RegWrite_8
 1930 02f8 FF020EE3 		movw	r0, #58111
 1931 02fc 4030A0E3 		mov	r3, #64
 1932 0300 FF0C4FE3 		movt	r0, 64767
 1933 0304 0620A0E3 		mov	r2, #6
 1934 0308 0410A0E1 		mov	r1, r4
 1935 030c FEFFFFEB 		bl	RZA_IO_RegWrite_8
 1936 0310 850187E0 		add	r0, r7, r5, lsl #3
 1937 0314 0730A0E3 		mov	r3, #7
 1938 0318 0620A0E1 		mov	r2, r6
 1939 031c FD0480E2 		add	r0, r0, #-50331648
 1940 0320 0610A0E1 		mov	r1, r6
 1941 0324 1E0C40E2 		sub	r0, r0, #7680
 1942 0328 FEFFFFEB 		bl	RZA_IO_RegWrite_8
 1943 032c FF020EE3 		movw	r0, #58111
 1944 0330 4030A0E3 		mov	r3, #64
 1945 0334 FF0C4FE3 		movt	r0, 64767
 1946 0338 0620A0E3 		mov	r2, #6
 1947 033c 0610A0E1 		mov	r1, r6
 1948 0340 FEFFFFEB 		bl	RZA_IO_RegWrite_8
 1949 0344 FF020EE3 		movw	r0, #58111
 1950 0348 8030A0E3 		mov	r3, #128
 1951 034c 0410A0E1 		mov	r1, r4
 1952 0350 FF0C4FE3 		movt	r0, 64767
 1953 0354 0720A0E3 		mov	r2, #7
 1954 0358 FEFFFFEB 		bl	RZA_IO_RegWrite_8
 1955 035c 0530D8E7 		ldrb	r3, [r8, r5]	@ zero_extendqisi2
 1956 0360 3337E0E1 		mvn	r3, r3, lsr r7
 1957 0364 010013E3 		tst	r3, #1
 1958 0368 83FFFF1A 		bne	.L415
 1959 036c 003000E3 		movw	r3, #:lower16:.LANCHOR6
 1960 0370 002000E3 		movw	r2, #:lower16:.LANCHOR7
 1961 0374 FD0485E2 		add	r0, r5, #-50331648
 1962 0378 003040E3 		movt	r3, #:upper16:.LANCHOR6
 1963 037c 002040E3 		movt	r2, #:upper16:.LANCHOR7
 1964 0380 7E0D40E2 		sub	r0, r0, #8064
 1965 0384 0731D3E7 		ldrb	r3, [r3, r7, lsl #2]	@ zero_extendqisi2
 1966 0388 0610A0E1 		mov	r1, r6
 1967 038c 0721D2E7 		ldrb	r2, [r2, r7, lsl #2]	@ zero_extendqisi2
 1968 0390 FEFFFFEB 		bl	RZA_IO_RegWrite_8
 1969 0394 4EFFFFEA 		b	.L433
 1970              	.L445:
 1971 0398 0500A0E1 		mov	r0, r5
 1972 039c FEFFFFEB 		bl	R_GPIO_PinDirectionSet.constprop.4
 1973 03a0 006050E2 		subs	r6, r0, #0
 1974 03a4 4AFFFF1A 		bne	.L433
 1975 03a8 7520EFE6 		uxtb	r2, r5
 1976 03ac 2504A0E1 		lsr	r0, r5, #8
 1977 03b0 070052E3 		cmp	r2, #7
 1978 03b4 70FFFF8A 		bhi	.L415
 1979 03b8 003000E3 		movw	r3, #:lower16:.LANCHOR0
 1980 03bc 003040E3 		movt	r3, #:upper16:.LANCHOR0
 1981 03c0 0010D3E7 		ldrb	r1, [r3, r0]	@ zero_extendqisi2
 1982 03c4 3112E0E1 		mvn	r1, r1, lsr r2
 1983 03c8 011001E2 		and	r1, r1, #1
 1984 03cc 150050E3 		cmp	r0, #21
 1985 03d0 01108183 		orrhi	r1, r1, #1
 1986 03d4 000051E3 		cmp	r1, #0
 1987 03d8 67FFFF1A 		bne	.L415
 1988 03dc 003000E3 		movw	r3, #:lower16:.LANCHOR6
 1989 03e0 00C000E3 		movw	ip, #:lower16:.LANCHOR7
 1990 03e4 00C040E3 		movt	ip, #:upper16:.LANCHOR7
 1991 03e8 FD0480E2 		add	r0, r0, #-50331648
 1992 03ec 003040E3 		movt	r3, #:upper16:.LANCHOR6
 1993 03f0 7E0D40E2 		sub	r0, r0, #8064
 1994 03f4 0231D3E7 		ldrb	r3, [r3, r2, lsl #2]	@ zero_extendqisi2
 1995 03f8 0221DCE7 		ldrb	r2, [ip, r2, lsl #2]	@ zero_extendqisi2
 1996 03fc FEFFFFEB 		bl	RZA_IO_RegWrite_8
 1997 0400 0500A0E1 		mov	r0, r5
 1998 0404 0110A0E3 		mov	r1, #1
 1999 0408 F84FBDE8 		pop	{r3, r4, r5, r6, r7, r8, r9, r10, fp, lr}
 2000 040c FEFFFFEA 		b	R_GPIO_PinDirectionSet
 2001              	.L423:
 2002 0410 0220A0E3 		mov	r2, #2
 2003              	.L409:
 2004 0414 003000E3 		movw	r3, #:lower16:.LANCHOR4
 2005 0418 003040E3 		movt	r3, #:upper16:.LANCHOR4
 2006 041c 023083E0 		add	r3, r3, r2
 2007 0420 1BFFFFEA 		b	.L412
 2008              	.L448:
 2009              		.syntax divided
 2010              	@ 47 "C:/Renesas/e2studio_2021_01_workspace_RZA2M_ANPR/ANPR_RZA2M_GR_MANGO/generate/compiler/inc/r_
 2011 0424 00F020E3 		nop
 2012              	@ 0 "" 2
 2013              		.arm
 2014              		.syntax unified
 2015 0428 4FFFFFEA 		b	.L422
 2016              	.L419:
 2017 042c 0210A0E3 		mov	r1, #2
 2018 0430 0500A0E1 		mov	r0, r5
 2019 0434 FEFFFFEB 		bl	R_GPIO_PinWrite
 2020 0438 0060A0E1 		mov	r6, r0
 2021 043c 48FFFFEA 		b	.L421
 2022              	.L424:
 2023 0440 0820A0E3 		mov	r2, #8
 2024 0444 F2FFFFEA 		b	.L409
 2025              	.L425:
 2026 0448 0E20A0E3 		mov	r2, #14
 2027 044c F0FFFFEA 		b	.L409
 2028              	.L426:
 2029 0450 1420A0E3 		mov	r2, #20
 2030 0454 EEFFFFEA 		b	.L409
 2031              	.L428:
 2032 0458 0140A0E3 		mov	r4, #1
 2033 045c 07FFFFEA 		b	.L410
 2034              	.L429:
 2035 0460 0240A0E3 		mov	r4, #2
 2036 0464 05FFFFEA 		b	.L410
 2037              	.L430:
 2038 0468 0340A0E3 		mov	r4, #3
 2039 046c 03FFFFEA 		b	.L410
 2041              		.section	.text.R_GPIO_PinSetConfiguration,"ax",%progbits
 2042              		.align	2
 2043              		.global	R_GPIO_PinSetConfiguration
 2044              		.syntax unified
 2045              		.arm
 2046              		.fpu neon
 2048              	R_GPIO_PinSetConfiguration:
 2049              		@ args = 0, pretend = 0, frame = 0
 2050              		@ frame_needed = 0, uses_anonymous_args = 0
 2051 0000 F0472DE9 		push	{r4, r5, r6, r7, r8, r9, r10, lr}
 2052 0004 004000E3 		movw	r4, #:lower16:.LANCHOR13
 2053 0008 004040E3 		movt	r4, #:upper16:.LANCHOR13
 2054 000c 0160A0E1 		mov	r6, r1
 2055 0010 0080A0E1 		mov	r8, r0
 2056 0014 000094E5 		ldr	r0, [r4]
 2057 0018 FEFFFFEB 		bl	R_OS_MutexAcquire
 2058 001c B050D6E1 		ldrh	r5, [r6]
 2059 0020 023925E2 		eor	r3, r5, #32768
 2060 0024 010B53E3 		cmp	r3, #1024
 2061 0028 0400002A 		bcs	.L462
 2062              	.L451:
 2063 002c 0070E0E3 		mvn	r7, #0
 2064              	.L454:
 2065 0030 000094E5 		ldr	r0, [r4]
 2066 0034 FEFFFFEB 		bl	R_OS_MutexRelease
 2067 0038 0700A0E1 		mov	r0, r7
 2068 003c F087BDE8 		pop	{r4, r5, r6, r7, r8, r9, r10, pc}
 2069              	.L462:
 2070 0040 2524A0E1 		lsr	r2, r5, #8
 2071 0044 7530EFE6 		uxtb	r3, r5
 2072 0048 150052E3 		cmp	r2, #21
 2073 004c 0000A083 		movhi	r0, #0
 2074 0050 0100A093 		movls	r0, #1
 2075 0054 070053E3 		cmp	r3, #7
 2076 0058 F3FFFF8A 		bhi	.L451
 2077 005c 009000E3 		movw	r9, #:lower16:.LANCHOR0
 2078 0060 009040E3 		movt	r9, #:upper16:.LANCHOR0
 2079 0064 0210D9E7 		ldrb	r1, [r9, r2]	@ zero_extendqisi2
 2080 0068 3113E0E1 		mvn	r1, r1, lsr r3
 2081 006c 150052E3 		cmp	r2, #21
 2082 0070 01108183 		orrhi	r1, r1, #1
 2083 0074 010011E3 		tst	r1, #1
 2084 0078 EBFFFF1A 		bne	.L451
 2085 007c 823183E0 		add	r3, r3, r2, lsl #3
 2086 0080 002000E3 		movw	r2, #:lower16:.LANCHOR14
 2087 0084 002040E3 		movt	r2, #:upper16:.LANCHOR14
 2088 0088 8330A0E1 		lsl	r3, r3, #1
 2089 008c F33092E1 		ldrsh	r3, [r2, r3]
 2090 0090 030058E1 		cmp	r8, r3
 2091 0094 01007313 		cmnne	r3, #1
 2092 0098 0570E013 		mvnne	r7, #5
 2093 009c E3FFFF1A 		bne	.L454
 2094 00a0 000050E3 		cmp	r0, #0
 2095 00a4 E0FFFF0A 		beq	.L451
 2096 00a8 0410D6E5 		ldrb	r1, [r6, #4]	@ zero_extendqisi2
 2097 00ac 0500A0E1 		mov	r0, r5
 2098 00b0 FEFFFFEB 		bl	R_GPIO_PinDscrSet
 2099 00b4 007050E2 		subs	r7, r0, #0
 2100 00b8 DCFFFF1A 		bne	.L454
 2101 00bc 0210D6E5 		ldrb	r1, [r6, #2]	@ zero_extendqisi2
 2102 00c0 0500A0E1 		mov	r0, r5
 2103 00c4 FEFFFFEB 		bl	R_GPIO_PinSetFunction
 2104 00c8 007050E2 		subs	r7, r0, #0
 2105 00cc D7FFFF1A 		bne	.L454
 2106 00d0 0500A0E1 		mov	r0, r5
 2107 00d4 0310D6E5 		ldrb	r1, [r6, #3]	@ zero_extendqisi2
 2108 00d8 FEFFFFEB 		bl	R_GPIO_PinTintSet
 2109 00dc 007050E2 		subs	r7, r0, #0
 2110 00e0 D2FFFF1A 		bne	.L454
 2111 00e4 B020D6E1 		ldrh	r2, [r6]
 2112 00e8 7230EFE6 		uxtb	r3, r2
 2113 00ec 2224A0E1 		lsr	r2, r2, #8
 2114 00f0 070053E3 		cmp	r3, #7
 2115 00f4 CCFFFF8A 		bhi	.L451
 2116 00f8 0210D9E7 		ldrb	r1, [r9, r2]	@ zero_extendqisi2
 2117 00fc 3113E0E1 		mvn	r1, r1, lsr r3
 2118 0100 150052E3 		cmp	r2, #21
 2119 0104 01108183 		orrhi	r1, r1, #1
 2120 0108 010011E3 		tst	r1, #1
 2121 010c C6FFFF1A 		bne	.L451
 2122 0110 823183E0 		add	r3, r3, r2, lsl #3
 2123 0114 002000E3 		movw	r2, #:lower16:.LANCHOR14
 2124 0118 002040E3 		movt	r2, #:upper16:.LANCHOR14
 2125 011c 8330A0E1 		lsl	r3, r3, #1
 2126 0120 B38082E1 		strh	r8, [r2, r3]	@ movhi
 2127 0124 C1FFFFEA 		b	.L454
 2129              		.section	.text.R_GPIO_HWInitialise,"ax",%progbits
 2130              		.align	2
 2131              		.global	R_GPIO_HWInitialise
 2132              		.syntax unified
 2133              		.arm
 2134              		.fpu neon
 2136              	R_GPIO_HWInitialise:
 2137              		@ args = 0, pretend = 0, frame = 0
 2138              		@ frame_needed = 0, uses_anonymous_args = 0
 2139 0000 F0412DE9 		push	{r4, r5, r6, r7, r8, lr}
 2140 0004 006000E3 		movw	r6, #:lower16:.LANCHOR13
 2141 0008 006040E3 		movt	r6, #:upper16:.LANCHOR13
 2142 000c 0050A0E1 		mov	r5, r0
 2143 0010 FEFFFFEB 		bl	R_OS_EnterCritical
 2144 0014 003096E5 		ldr	r3, [r6]
 2145 0018 000053E3 		cmp	r3, #0
 2146 001c 2400000A 		beq	.L488
 2147              	.L464:
 2148 0020 007000E3 		movw	r7, #:lower16:.LANCHOR3
 2149 0024 007040E3 		movt	r7, #:upper16:.LANCHOR3
 2150 0028 FEFFFFEB 		bl	R_OS_ExitCritical
 2151 002c 003097E5 		ldr	r3, [r7]
 2152 0030 000053E3 		cmp	r3, #0
 2153 0034 1C00001A 		bne	.L465
 2154 0038 004000E3 		movw	r4, #:lower16:.LANCHOR14
 2155 003c 152EA0E3 		mov	r2, #336
 2156 0040 004040E3 		movt	r4, #:upper16:.LANCHOR14
 2157 0044 FF10A0E3 		mov	r1, #255
 2158 0048 0400A0E1 		mov	r0, r4
 2159 004c FEFFFFEB 		bl	memset
 2160 0050 000096E5 		ldr	r0, [r6]
 2161 0054 FEFFFFEB 		bl	R_OS_MutexAcquire
 2162 0058 FC36D4E1 		ldrsh	r3, [r4, #108]
 2163 005c FE06D4E1 		ldrsh	r0, [r4, #110]
 2164 0060 FC1DD4E1 		ldrsh	r1, [r4, #220]
 2165 0064 030055E1 		cmp	r5, r3
 2166 0068 01007313 		cmnne	r3, #1
 2167 006c FE2DD4E1 		ldrsh	r2, [r4, #222]
 2168 0070 0130A013 		movne	r3, #1
 2169 0074 0030A003 		moveq	r3, #0
 2170 0078 000055E1 		cmp	r5, r0
 2171 007c 01007013 		cmnne	r0, #1
 2172 0080 0130A013 		movne	r3, #1
 2173 0084 010055E1 		cmp	r5, r1
 2174 0088 01007113 		cmnne	r1, #1
 2175 008c 0130A013 		movne	r3, #1
 2176 0090 020055E1 		cmp	r5, r2
 2177 0094 01007213 		cmnne	r2, #1
 2178 0098 0800000A 		beq	.L489
 2179              	.L468:
 2180 009c 000096E5 		ldr	r0, [r6]
 2181 00a0 FEFFFFEB 		bl	R_OS_MutexRelease
 2182 00a4 0130A0E3 		mov	r3, #1
 2183 00a8 003087E5 		str	r3, [r7]
 2184              	.L465:
 2185 00ac 0000A0E3 		mov	r0, #0
 2186 00b0 F081BDE8 		pop	{r4, r5, r6, r7, r8, pc}
 2187              	.L488:
 2188 00b4 FEFFFFEB 		bl	R_OS_MutexCreate
 2189 00b8 000086E5 		str	r0, [r6]
 2190 00bc D7FFFFEA 		b	.L464
 2191              	.L489:
 2192 00c0 000053E3 		cmp	r3, #0
 2193 00c4 F4FFFF1A 		bne	.L468
 2194              		.syntax divided
 2195              	@ 47 "C:/Renesas/e2studio_2021_01_workspace_RZA2M_ANPR/ANPR_RZA2M_GR_MANGO/generate/compiler/inc/r_
 2196 00c8 00F020E3 		nop
 2197              	@ 0 "" 2
 2198              		.arm
 2199              		.syntax unified
 2200 00cc 0410A0E3 		mov	r1, #4
 2201 00d0 060600E3 		movw	r0, #1542
 2202 00d4 FEFFFFEB 		bl	R_GPIO_PinDscrSet
 2203 00d8 000050E3 		cmp	r0, #0
 2204 00dc 1300000A 		beq	.L470
 2205              	.L474:
 2206 00e0 0510A0E3 		mov	r1, #5
 2207 00e4 070600E3 		movw	r0, #1543
 2208 00e8 BC56C4E1 		strh	r5, [r4, #108]	@ movhi
 2209 00ec FEFFFFEB 		bl	R_GPIO_PinDscrSet
 2210 00f0 000050E3 		cmp	r0, #0
 2211 00f4 2800000A 		beq	.L490
 2212              	.L477:
 2213 00f8 0510A0E3 		mov	r1, #5
 2214 00fc 060D00E3 		movw	r0, #3334
 2215 0100 BE56C4E1 		strh	r5, [r4, #110]	@ movhi
 2216 0104 FEFFFFEB 		bl	R_GPIO_PinDscrSet
 2217 0108 000050E3 		cmp	r0, #0
 2218 010c 1900000A 		beq	.L491
 2219              	.L480:
 2220 0110 0510A0E3 		mov	r1, #5
 2221 0114 070D00E3 		movw	r0, #3335
 2222 0118 BC5DC4E1 		strh	r5, [r4, #220]	@ movhi
 2223 011c FEFFFFEB 		bl	R_GPIO_PinDscrSet
 2224 0120 000050E3 		cmp	r0, #0
 2225 0124 0A00000A 		beq	.L492
 2226              	.L481:
 2227 0128 BE5DC4E1 		strh	r5, [r4, #222]	@ movhi
 2228 012c DAFFFFEA 		b	.L468
 2229              	.L470:
 2230 0130 0310A0E3 		mov	r1, #3
 2231 0134 060600E3 		movw	r0, #1542
 2232 0138 FEFFFFEB 		bl	R_GPIO_PinSetFunction
 2233 013c 000050E3 		cmp	r0, #0
 2234 0140 E6FFFF1A 		bne	.L474
 2235 0144 0110A0E3 		mov	r1, #1
 2236 0148 060600E3 		movw	r0, #1542
 2237 014c FEFFFFEB 		bl	R_GPIO_PinTintSet
 2238 0150 E2FFFFEA 		b	.L474
 2239              	.L492:
 2240 0154 0210A0E3 		mov	r1, #2
 2241 0158 070D00E3 		movw	r0, #3335
 2242 015c FEFFFFEB 		bl	R_GPIO_PinSetFunction
 2243 0160 000050E3 		cmp	r0, #0
 2244 0164 EFFFFF1A 		bne	.L481
 2245 0168 0110A0E3 		mov	r1, #1
 2246 016c 070D00E3 		movw	r0, #3335
 2247 0170 FEFFFFEB 		bl	R_GPIO_PinTintSet
 2248 0174 EBFFFFEA 		b	.L481
 2249              	.L491:
 2250 0178 0210A0E3 		mov	r1, #2
 2251 017c 060D00E3 		movw	r0, #3334
 2252 0180 FEFFFFEB 		bl	R_GPIO_PinSetFunction
 2253 0184 000050E3 		cmp	r0, #0
 2254 0188 E0FFFF1A 		bne	.L480
 2255 018c 0110A0E3 		mov	r1, #1
 2256 0190 060D00E3 		movw	r0, #3334
 2257 0194 FEFFFFEB 		bl	R_GPIO_PinTintSet
 2258 0198 DCFFFFEA 		b	.L480
 2259              	.L490:
 2260 019c 0210A0E3 		mov	r1, #2
 2261 01a0 070600E3 		movw	r0, #1543
 2262 01a4 FEFFFFEB 		bl	R_GPIO_PinSetFunction
 2263 01a8 000050E3 		cmp	r0, #0
 2264 01ac D1FFFF1A 		bne	.L477
 2265 01b0 0110A0E3 		mov	r1, #1
 2266 01b4 070600E3 		movw	r0, #1543
 2267 01b8 FEFFFFEB 		bl	R_GPIO_PinTintSet
 2268 01bc CDFFFFEA 		b	.L477
 2270              		.section	.text.R_GPIO_InitByTable,"ax",%progbits
 2271              		.align	2
 2272              		.global	R_GPIO_InitByTable
 2273              		.syntax unified
 2274              		.arm
 2275              		.fpu neon
 2277              	R_GPIO_InitByTable:
 2278              		@ args = 0, pretend = 0, frame = 8
 2279              		@ frame_needed = 0, uses_anonymous_args = 0
 2280 0000 003000E3 		movw	r3, #:lower16:.LANCHOR13
 2281 0004 F04F2DE9 		push	{r4, r5, r6, r7, r8, r9, r10, fp, lr}
 2282 0008 003040E3 		movt	r3, #:upper16:.LANCHOR13
 2283 000c 0CD04DE2 		sub	sp, sp, #12
 2284 0010 0260A0E1 		mov	r6, r2
 2285 0014 0070A0E1 		mov	r7, r0
 2286 0018 000093E5 		ldr	r0, [r3]
 2287 001c 0150A0E1 		mov	r5, r1
 2288 0020 04308DE5 		str	r3, [sp, #4]
 2289 0024 FEFFFFEB 		bl	R_OS_MutexAcquire
 2290 0028 000056E3 		cmp	r6, #0
 2291 002c 7300000A 		beq	.L511
 2292 0030 86C086E0 		add	ip, r6, r6, lsl #1
 2293 0034 0010A0E3 		mov	r1, #0
 2294 0038 008000E3 		movw	r8, #:lower16:.LANCHOR0
 2295 003c 00108DE5 		str	r1, [sp]
 2296 0040 00B000E3 		movw	fp, #:lower16:.LANCHOR14
 2297 0044 8CC0A0E1 		lsl	ip, ip, #1
 2298 0048 01A0A0E1 		mov	r10, r1
 2299 004c 008040E3 		movt	r8, #:upper16:.LANCHOR0
 2300 0050 00B040E3 		movt	fp, #:upper16:.LANCHOR14
 2301 0054 020000EA 		b	.L497
 2302              	.L495:
 2303 0058 061081E2 		add	r1, r1, #6
 2304 005c 01005CE1 		cmp	ip, r1
 2305 0060 1A00000A 		beq	.L530
 2306              	.L497:
 2307 0064 B13095E1 		ldrh	r3, [r5, r1]
 2308 0068 0100A0E3 		mov	r0, #1
 2309 006c 0040A0E3 		mov	r4, #0
 2310 0070 022923E2 		eor	r2, r3, #32768
 2311 0074 010B52E3 		cmp	r2, #1024
 2312 0078 0090E033 		mvncc	r9, #0
 2313 007c F5FFFF3A 		bcc	.L495
 2314 0080 73E0EFE6 		uxtb	lr, r3
 2315 0084 2334A0E1 		lsr	r3, r3, #8
 2316 0088 07005EE3 		cmp	lr, #7
 2317 008c 83218EE0 		add	r2, lr, r3, lsl #3
 2318 0090 1220A0E1 		lsl	r2, r2, r0
 2319 0094 4D00008A 		bhi	.L514
 2320 0098 0340D8E7 		ldrb	r4, [r8, r3]	@ zero_extendqisi2
 2321 009c 344EE0E1 		mvn	r4, r4, lsr lr
 2322 00a0 004004E0 		and	r4, r4, r0
 2323 00a4 150053E3 		cmp	r3, #21
 2324 00a8 01408483 		orrhi	r4, r4, #1
 2325 00ac 000054E3 		cmp	r4, #0
 2326 00b0 4600001A 		bne	.L514
 2327 00b4 F2909BE1 		ldrsh	r9, [fp, r2]
 2328              	.L496:
 2329 00b8 090057E1 		cmp	r7, r9
 2330 00bc 01007913 		cmnne	r9, #1
 2331 00c0 061081E2 		add	r1, r1, #6
 2332 00c4 01A0A013 		movne	r10, #1
 2333 00c8 01005CE1 		cmp	ip, r1
 2334 00cc E4FFFF1A 		bne	.L497
 2335              	.L530:
 2336 00d0 00309DE5 		ldr	r3, [sp]
 2337 00d4 000053E3 		cmp	r3, #0
 2338 00d8 4100001A 		bne	.L516
 2339 00dc 00005AE3 		cmp	r10, #0
 2340 00e0 4900001A 		bne	.L531
 2341              	.L494:
 2342              		.syntax divided
 2343              	@ 47 "C:/Renesas/e2studio_2021_01_workspace_RZA2M_ANPR/ANPR_RZA2M_GR_MANGO/generate/compiler/inc/r_
 2344 00e4 00F020E3 		nop
 2345              	@ 0 "" 2
 2346              		.arm
 2347              		.syntax unified
 2348 00e8 000056E3 		cmp	r6, #0
 2349 00ec 0000A003 		moveq	r0, #0
 2350 00f0 01000012 		andne	r0, r0, #1
 2351 00f4 000050E3 		cmp	r0, #0
 2352 00f8 3A00000A 		beq	.L498
 2353 00fc 009000E3 		movw	r9, #:lower16:.LANCHOR0
 2354 0100 00A000E3 		movw	r10, #:lower16:.LANCHOR14
 2355 0104 009040E3 		movt	r9, #:upper16:.LANCHOR0
 2356 0108 00A040E3 		movt	r10, #:upper16:.LANCHOR14
 2357 010c 0080A0E3 		mov	r8, #0
 2358 0110 130000EA 		b	.L505
 2359              	.L502:
 2360 0114 B030D5E1 		ldrh	r3, [r5]
 2361 0118 2314A0E1 		lsr	r1, r3, #8
 2362 011c 7330EFE6 		uxtb	r3, r3
 2363 0120 150051E3 		cmp	r1, #21
 2364 0124 0000A083 		movhi	r0, #0
 2365 0128 0100A093 		movls	r0, #1
 2366 012c 070053E3 		cmp	r3, #7
 2367 0130 0700008A 		bhi	.L510
 2368 0134 0120D9E7 		ldrb	r2, [r9, r1]	@ zero_extendqisi2
 2369 0138 3223E0E1 		mvn	r2, r2, lsr r3
 2370 013c 012002E2 		and	r2, r2, #1
 2371              	.L507:
 2372 0140 010020E2 		eor	r0, r0, #1
 2373 0144 002092E1 		orrs	r2, r2, r0
 2374 0148 81318300 		addeq	r3, r3, r1, lsl #3
 2375 014c 8330A001 		lsleq	r3, r3, #1
 2376 0150 B3708A01 		strheq	r7, [r10, r3]	@ movhi
 2377              	.L510:
 2378 0154 018088E2 		add	r8, r8, #1
 2379 0158 065085E2 		add	r5, r5, #6
 2380 015c 080056E1 		cmp	r6, r8
 2381 0160 2000009A 		bls	.L498
 2382              	.L505:
 2383 0164 B0B0D5E1 		ldrh	fp, [r5]
 2384 0168 7B30EFE6 		uxtb	r3, fp
 2385 016c 070053E3 		cmp	r3, #7
 2386 0170 F7FFFF8A 		bhi	.L510
 2387 0174 2B14A0E1 		lsr	r1, fp, #8
 2388 0178 0120D9E7 		ldrb	r2, [r9, r1]	@ zero_extendqisi2
 2389 017c 3223E0E1 		mvn	r2, r2, lsr r3
 2390 0180 012002E2 		and	r2, r2, #1
 2391 0184 150051E3 		cmp	r1, #21
 2392 0188 0200A091 		movls	r0, r2
 2393 018c 01008283 		orrhi	r0, r2, #1
 2394 0190 000050E3 		cmp	r0, #0
 2395 0194 1E00001A 		bne	.L532
 2396 0198 0410D5E5 		ldrb	r1, [r5, #4]	@ zero_extendqisi2
 2397 019c 0B00A0E1 		mov	r0, fp
 2398 01a0 FEFFFFEB 		bl	R_GPIO_PinDscrSet
 2399 01a4 000050E3 		cmp	r0, #0
 2400 01a8 D9FFFF1A 		bne	.L502
 2401 01ac 0210D5E5 		ldrb	r1, [r5, #2]	@ zero_extendqisi2
 2402 01b0 0B00A0E1 		mov	r0, fp
 2403 01b4 FEFFFFEB 		bl	R_GPIO_PinSetFunction
 2404 01b8 000050E3 		cmp	r0, #0
 2405 01bc D4FFFF1A 		bne	.L502
 2406 01c0 0B00A0E1 		mov	r0, fp
 2407 01c4 0310D5E5 		ldrb	r1, [r5, #3]	@ zero_extendqisi2
 2408 01c8 FEFFFFEB 		bl	R_GPIO_PinTintSet
 2409 01cc D0FFFFEA 		b	.L502
 2410              	.L514:
 2411 01d0 0130A0E3 		mov	r3, #1
 2412 01d4 0000A0E3 		mov	r0, #0
 2413 01d8 0040E0E3 		mvn	r4, #0
 2414 01dc 00308DE5 		str	r3, [sp]
 2415 01e0 B4FFFFEA 		b	.L496
 2416              	.L516:
 2417 01e4 0040E0E3 		mvn	r4, #0
 2418              	.L498:
 2419 01e8 04309DE5 		ldr	r3, [sp, #4]
 2420 01ec 000093E5 		ldr	r0, [r3]
 2421 01f0 FEFFFFEB 		bl	R_OS_MutexRelease
 2422 01f4 0400A0E1 		mov	r0, r4
 2423 01f8 0CD08DE2 		add	sp, sp, #12
 2424              		@ sp needed
 2425 01fc F08FBDE8 		pop	{r4, r5, r6, r7, r8, r9, r10, fp, pc}
 2426              	.L511:
 2427 0200 0100A0E3 		mov	r0, #1
 2428 0204 0640A0E1 		mov	r4, r6
 2429 0208 B5FFFFEA 		b	.L494
 2430              	.L531:
 2431 020c 0540E0E3 		mvn	r4, #5
 2432 0210 F4FFFFEA 		b	.L498
 2433              	.L532:
 2434 0214 150051E3 		cmp	r1, #21
 2435 0218 0000A083 		movhi	r0, #0
 2436 021c 0100A093 		movls	r0, #1
 2437 0220 C6FFFFEA 		b	.L507
 2439              		.section	.text.R_GPIO_ClearByPinList,"ax",%progbits
 2440              		.align	2
 2441              		.global	R_GPIO_ClearByPinList
 2442              		.syntax unified
 2443              		.arm
 2444              		.fpu neon
 2446              	R_GPIO_ClearByPinList:
 2447              		@ args = 0, pretend = 0, frame = 16
 2448              		@ frame_needed = 0, uses_anonymous_args = 0
 2449 0000 003000E3 		movw	r3, #:lower16:.LANCHOR13
 2450 0004 F04F2DE9 		push	{r4, r5, r6, r7, r8, r9, r10, fp, lr}
 2451 0008 003040E3 		movt	r3, #:upper16:.LANCHOR13
 2452 000c 14D04DE2 		sub	sp, sp, #20
 2453 0010 0180A0E1 		mov	r8, r1
 2454 0014 0070A0E1 		mov	r7, r0
 2455 0018 000093E5 		ldr	r0, [r3]
 2456 001c 08308DE5 		str	r3, [sp, #8]
 2457 0020 FEFFFFEB 		bl	R_OS_MutexAcquire
 2458 0024 000058E3 		cmp	r8, #0
 2459 0028 1F00000A 		beq	.L534
 2460 002c 027047E2 		sub	r7, r7, #2
 2461 0030 00B000E3 		movw	fp, #:lower16:.LANCHOR0
 2462 0034 0710A0E1 		mov	r1, r7
 2463 0038 00B040E3 		movt	fp, #:upper16:.LANCHOR0
 2464 003c 0060A0E3 		mov	r6, #0
 2465 0040 029800E3 		movw	r9, #2050
 2466 0044 055301E3 		movw	r5, #4869
 2467              	.L543:
 2468 0048 B220F1E1 		ldrh	r2, [r1, #2]!
 2469 004c FD0F0FE3 		movw	r0, #65533
 2470 0050 023922E2 		eor	r3, r2, #32768
 2471 0054 0DEC42E2 		sub	lr, r2, #3328
 2472 0058 010B53E3 		cmp	r3, #1024
 2473 005c 06CC42E2 		sub	ip, r2, #1536
 2474 0060 06E04EE2 		sub	lr, lr, #6
 2475 0064 06C04CE2 		sub	ip, ip, #6
 2476 0068 020000E0 		and	r0, r0, r2
 2477 006c 6100002A 		bcs	.L563
 2478              	.L535:
 2479 0070 050052E3 		cmp	r2, #5
 2480 0074 09005211 		cmpne	r2, r9
 2481 0078 0130A003 		moveq	r3, #1
 2482 007c 0030A013 		movne	r3, #0
 2483 0080 050052E1 		cmp	r2, r5
 2484 0084 01308303 		orreq	r3, r3, #1
 2485 0088 01005EE3 		cmp	lr, #1
 2486 008c 01308393 		orrls	r3, r3, #1
 2487 0090 01005CE3 		cmp	ip, #1
 2488 0094 01308393 		orrls	r3, r3, #1
 2489 0098 010050E3 		cmp	r0, #1
 2490 009c 01308303 		orreq	r3, r3, #1
 2491 00a0 000053E3 		cmp	r3, #0
 2492 00a4 0600001A 		bne	.L564
 2493              	.L537:
 2494 00a8 0080E0E3 		mvn	r8, #0
 2495              	.L534:
 2496 00ac 08309DE5 		ldr	r3, [sp, #8]
 2497 00b0 000093E5 		ldr	r0, [r3]
 2498 00b4 FEFFFFEB 		bl	R_OS_MutexRelease
 2499 00b8 0800A0E1 		mov	r0, r8
 2500 00bc 14D08DE2 		add	sp, sp, #20
 2501              		@ sp needed
 2502 00c0 F08FBDE8 		pop	{r4, r5, r6, r7, r8, r9, r10, fp, pc}
 2503              	.L564:
 2504 00c4 016086E2 		add	r6, r6, #1
 2505 00c8 060058E1 		cmp	r8, r6
 2506 00cc DDFFFF1A 		bne	.L543
 2507 00d0 003000E3 		movw	r3, #:lower16:.LANCHOR8
 2508 00d4 002000E3 		movw	r2, #:lower16:.LANCHOR9
 2509 00d8 00A000E3 		movw	r10, #:lower16:.LANCHOR0
 2510 00dc 003040E3 		movt	r3, #:upper16:.LANCHOR8
 2511 00e0 002040E3 		movt	r2, #:upper16:.LANCHOR9
 2512 00e4 04308DE5 		str	r3, [sp, #4]
 2513 00e8 0C208DE5 		str	r2, [sp, #12]
 2514 00ec 00A040E3 		movt	r10, #:upper16:.LANCHOR0
 2515 00f0 0090A0E3 		mov	r9, #0
 2516 00f4 160000EA 		b	.L542
 2517              	.L565:
 2518 00f8 003000E3 		movw	r3, #:lower16:.LANCHOR6
 2519 00fc 002000E3 		movw	r2, #:lower16:.LANCHOR7
 2520 0100 003040E3 		movt	r3, #:upper16:.LANCHOR6
 2521 0104 002040E3 		movt	r2, #:upper16:.LANCHOR7
 2522 0108 FD0485E2 		add	r0, r5, #-50331648
 2523 010c 0431D3E7 		ldrb	r3, [r3, r4, lsl #2]	@ zero_extendqisi2
 2524 0110 0421D2E7 		ldrb	r2, [r2, r4, lsl #2]	@ zero_extendqisi2
 2525 0114 7E0D40E2 		sub	r0, r0, #8064
 2526 0118 0810A0E1 		mov	r1, r8
 2527 011c FEFFFFEB 		bl	RZA_IO_RegWrite_8
 2528 0120 0530DAE7 		ldrb	r3, [r10, r5]	@ zero_extendqisi2
 2529 0124 3334E0E1 		mvn	r3, r3, lsr r4
 2530 0128 010013E3 		tst	r3, #1
 2531 012c 0500001A 		bne	.L541
 2532 0130 854184E0 		add	r4, r4, r5, lsl #3
 2533 0134 003000E3 		movw	r3, #:lower16:.LANCHOR14
 2534 0138 003040E3 		movt	r3, #:upper16:.LANCHOR14
 2535 013c 8440A0E1 		lsl	r4, r4, #1
 2536 0140 0020E0E3 		mvn	r2, #0
 2537 0144 B42083E1 		strh	r2, [r3, r4]	@ movhi
 2538              	.L541:
 2539 0148 019089E2 		add	r9, r9, #1
 2540 014c 090056E1 		cmp	r6, r9
 2541 0150 D5FFFF0A 		beq	.L534
 2542              	.L542:
 2543 0154 B2B0F7E1 		ldrh	fp, [r7, #2]!
 2544 0158 7B40EFE6 		uxtb	r4, fp
 2545 015c 2B54A0E1 		lsr	r5, fp, #8
 2546 0160 070054E3 		cmp	r4, #7
 2547 0164 CFFFFF8A 		bhi	.L537
 2548 0168 04309DE5 		ldr	r3, [sp, #4]
 2549 016c 150055E3 		cmp	r5, #21
 2550 0170 0020A083 		movhi	r2, #0
 2551 0174 0120A093 		movls	r2, #1
 2552 0178 0510D3E7 		ldrb	r1, [r3, r5]	@ zero_extendqisi2
 2553 017c 313412E0 		ands	r3, r2, r1, lsr r4
 2554 0180 2700000A 		beq	.L544
 2555 0184 150055E3 		cmp	r5, #21
 2556 0188 0210A0E3 		mov	r1, #2
 2557 018c 0000A093 		movls	r0, #0
 2558 0190 0100A083 		movhi	r0, #1
 2559              	.L540:
 2560 0194 0520DAE7 		ldrb	r2, [r10, r5]	@ zero_extendqisi2
 2561 0198 3224E0E1 		mvn	r2, r2, lsr r4
 2562 019c 012002E2 		and	r2, r2, #1
 2563 01a0 023090E1 		orrs	r3, r0, r2
 2564 01a4 BFFFFF1A 		bne	.L537
 2565 01a8 0B00A0E1 		mov	r0, fp
 2566 01ac FEFFFFEB 		bl	R_GPIO_PinDscrSet
 2567 01b0 008050E2 		subs	r8, r0, #0
 2568 01b4 BCFFFF1A 		bne	.L534
 2569 01b8 0110A0E3 		mov	r1, #1
 2570 01bc 0B00A0E1 		mov	r0, fp
 2571 01c0 FEFFFFEB 		bl	R_GPIO_PinSetFunction
 2572 01c4 008050E2 		subs	r8, r0, #0
 2573 01c8 B7FFFF1A 		bne	.L534
 2574 01cc 0B00A0E1 		mov	r0, fp
 2575 01d0 0110A0E3 		mov	r1, #1
 2576 01d4 FEFFFFEB 		bl	R_GPIO_PinTintSet
 2577 01d8 008050E2 		subs	r8, r0, #0
 2578 01dc B2FFFF1A 		bne	.L534
 2579 01e0 0530DAE7 		ldrb	r3, [r10, r5]	@ zero_extendqisi2
 2580 01e4 3334E0E1 		mvn	r3, r3, lsr r4
 2581 01e8 010013E3 		tst	r3, #1
 2582 01ec C1FFFF0A 		beq	.L565
 2583 01f0 0080E0E3 		mvn	r8, #0
 2584 01f4 D3FFFFEA 		b	.L541
 2585              	.L563:
 2586 01f8 7230EFE6 		uxtb	r3, r2
 2587 01fc 2244A0E1 		lsr	r4, r2, #8
 2588 0200 070053E3 		cmp	r3, #7
 2589 0204 A7FFFF8A 		bhi	.L537
 2590 0208 04A0DBE7 		ldrb	r10, [fp, r4]	@ zero_extendqisi2
 2591 020c 3A33A0E1 		lsr	r3, r10, r3
 2592 0210 010013E3 		tst	r3, #1
 2593 0214 A3FFFF0A 		beq	.L537
 2594 0218 150054E3 		cmp	r4, #21
 2595 021c 93FFFF9A 		bls	.L535
 2596 0220 A0FFFFEA 		b	.L537
 2597              	.L544:
 2598 0224 0C309DE5 		ldr	r3, [sp, #12]
 2599 0228 150055E3 		cmp	r5, #21
 2600 022c 0000A093 		movls	r0, #0
 2601 0230 0100A083 		movhi	r0, #1
 2602 0234 0510D3E7 		ldrb	r1, [r3, r5]	@ zero_extendqisi2
 2603 0238 313412E0 		ands	r3, r2, r1, lsr r4
 2604 023c 0510A003 		moveq	r1, #5
 2605 0240 0410A013 		movne	r1, #4
 2606 0244 D2FFFFEA 		b	.L540
 2608              		.section	.text.R_GPIO_ClearByTable,"ax",%progbits
 2609              		.align	2
 2610              		.global	R_GPIO_ClearByTable
 2611              		.syntax unified
 2612              		.arm
 2613              		.fpu neon
 2615              	R_GPIO_ClearByTable:
 2616              		@ args = 0, pretend = 0, frame = 16
 2617              		@ frame_needed = 0, uses_anonymous_args = 0
 2618 0000 003000E3 		movw	r3, #:lower16:.LANCHOR13
 2619 0004 F04F2DE9 		push	{r4, r5, r6, r7, r8, r9, r10, fp, lr}
 2620 0008 003040E3 		movt	r3, #:upper16:.LANCHOR13
 2621 000c 14D04DE2 		sub	sp, sp, #20
 2622 0010 0190A0E1 		mov	r9, r1
 2623 0014 0080A0E1 		mov	r8, r0
 2624 0018 000093E5 		ldr	r0, [r3]
 2625 001c 0C308DE5 		str	r3, [sp, #12]
 2626 0020 FEFFFFEB 		bl	R_OS_MutexAcquire
 2627 0024 000059E3 		cmp	r9, #0
 2628 0028 7600000A 		beq	.L582
 2629 002c 0040A0E3 		mov	r4, #0
 2630 0030 00B000E3 		movw	fp, #:lower16:.LANCHOR6
 2631 0034 003000E3 		movw	r3, #:lower16:.LANCHOR8
 2632 0038 002000E3 		movw	r2, #:lower16:.LANCHOR7
 2633 003c 0460A0E1 		mov	r6, r4
 2634 0040 0470A0E1 		mov	r7, r4
 2635 0044 00B040E3 		movt	fp, #:upper16:.LANCHOR6
 2636 0048 003040E3 		movt	r3, #:upper16:.LANCHOR8
 2637 004c 002040E3 		movt	r2, #:upper16:.LANCHOR7
 2638 0050 08308DE5 		str	r3, [sp, #8]
 2639 0054 04208DE5 		str	r2, [sp, #4]
 2640              	.L576:
 2641 0058 B4A098E1 		ldrh	r10, [r8, r4]
 2642 005c 02091AE3 		tst	r10, #32768
 2643 0060 1800001A 		bne	.L605
 2644 0064 2A04A0E1 		lsr	r0, r10, #8
 2645 0068 7A10EFE6 		uxtb	r1, r10
 2646 006c 150050E3 		cmp	r0, #21
 2647 0070 00C0A083 		movhi	ip, #0
 2648 0074 01C0A093 		movls	ip, #1
 2649 0078 070051E3 		cmp	r1, #7
 2650 007c 0700008A 		bhi	.L574
 2651 0080 005000E3 		movw	r5, #:lower16:.LANCHOR0
 2652 0084 005040E3 		movt	r5, #:upper16:.LANCHOR0
 2653 0088 0020D5E7 		ldrb	r2, [r5, r0]	@ zero_extendqisi2
 2654 008c 3221A0E1 		lsr	r2, r2, r1
 2655 0090 012012E2 		ands	r2, r2, #1
 2656 0094 0100000A 		beq	.L574
 2657 0098 150050E3 		cmp	r0, #21
 2658 009c 1400009A 		bls	.L571
 2659              	.L574:
 2660 00a0 016086E2 		add	r6, r6, #1
 2661 00a4 064084E2 		add	r4, r4, #6
 2662 00a8 060059E1 		cmp	r9, r6
 2663 00ac E9FFFF1A 		bne	.L576
 2664              	.L567:
 2665 00b0 0C309DE5 		ldr	r3, [sp, #12]
 2666 00b4 000093E5 		ldr	r0, [r3]
 2667 00b8 FEFFFFEB 		bl	R_OS_MutexRelease
 2668 00bc 0700A0E1 		mov	r0, r7
 2669 00c0 14D08DE2 		add	sp, sp, #20
 2670              		@ sp needed
 2671 00c4 F08FBDE8 		pop	{r4, r5, r6, r7, r8, r9, r10, fp, pc}
 2672              	.L605:
 2673              		.syntax divided
 2674              	@ 47 "C:/Renesas/e2studio_2021_01_workspace_RZA2M_ANPR/ANPR_RZA2M_GR_MANGO/generate/compiler/inc/r_
 2675 00c8 00F020E3 		nop
 2676              	@ 0 "" 2
 2677              		.arm
 2678              		.syntax unified
 2679 00cc 005000E3 		movw	r5, #:lower16:.LANCHOR0
 2680 00d0 2A04A0E1 		lsr	r0, r10, #8
 2681 00d4 005040E3 		movt	r5, #:upper16:.LANCHOR0
 2682 00d8 7A10EFE6 		uxtb	r1, r10
 2683 00dc 0020D5E7 		ldrb	r2, [r5, r0]	@ zero_extendqisi2
 2684 00e0 070051E3 		cmp	r1, #7
 2685 00e4 3221A0E1 		lsr	r2, r2, r1
 2686 00e8 012002E2 		and	r2, r2, #1
 2687 00ec 3F00008A 		bhi	.L587
 2688 00f0 00C0A0E3 		mov	ip, #0
 2689              	.L571:
 2690 00f4 08309DE5 		ldr	r3, [sp, #8]
 2691 00f8 00E0D3E7 		ldrb	lr, [r3, r0]	@ zero_extendqisi2
 2692 00fc 3E311CE0 		ands	r3, ip, lr, lsr r1
 2693 0100 0210A013 		movne	r1, #2
 2694 0104 4100000A 		beq	.L606
 2695              	.L572:
 2696 0108 000052E3 		cmp	r2, #0
 2697 010c 3700000A 		beq	.L587
 2698 0110 00005CE3 		cmp	ip, #0
 2699 0114 3500000A 		beq	.L587
 2700 0118 0A00A0E1 		mov	r0, r10
 2701 011c FEFFFFEB 		bl	R_GPIO_PinDscrSet
 2702 0120 007050E2 		subs	r7, r0, #0
 2703 0124 DDFFFF1A 		bne	.L574
 2704 0128 0110A0E3 		mov	r1, #1
 2705 012c 0A00A0E1 		mov	r0, r10
 2706 0130 FEFFFFEB 		bl	R_GPIO_PinSetFunction
 2707 0134 007050E2 		subs	r7, r0, #0
 2708 0138 D8FFFF1A 		bne	.L574
 2709 013c 0A00A0E1 		mov	r0, r10
 2710 0140 0110A0E3 		mov	r1, #1
 2711 0144 FEFFFFEB 		bl	R_GPIO_PinTintSet
 2712 0148 007050E2 		subs	r7, r0, #0
 2713 014c D3FFFF1A 		bne	.L574
 2714 0150 B40098E1 		ldrh	r0, [r8, r4]
 2715 0154 7020EFE6 		uxtb	r2, r0
 2716 0158 2004A0E1 		lsr	r0, r0, #8
 2717 015c 070052E3 		cmp	r2, #7
 2718 0160 2200008A 		bhi	.L587
 2719 0164 0030D5E7 		ldrb	r3, [r5, r0]	@ zero_extendqisi2
 2720 0168 3332E0E1 		mvn	r3, r3, lsr r2
 2721 016c 150050E3 		cmp	r0, #21
 2722 0170 01308383 		orrhi	r3, r3, #1
 2723 0174 010013E3 		tst	r3, #1
 2724 0178 1C00001A 		bne	.L587
 2725 017c 04109DE5 		ldr	r1, [sp, #4]
 2726 0180 FD0480E2 		add	r0, r0, #-50331648
 2727 0184 0231DBE7 		ldrb	r3, [fp, r2, lsl #2]	@ zero_extendqisi2
 2728 0188 7E0D40E2 		sub	r0, r0, #8064
 2729 018c 0221D1E7 		ldrb	r2, [r1, r2, lsl #2]	@ zero_extendqisi2
 2730 0190 0710A0E1 		mov	r1, r7
 2731 0194 FEFFFFEB 		bl	RZA_IO_RegWrite_8
 2732 0198 B43098E1 		ldrh	r3, [r8, r4]
 2733 019c 7320EFE6 		uxtb	r2, r3
 2734 01a0 2334A0E1 		lsr	r3, r3, #8
 2735 01a4 070052E3 		cmp	r2, #7
 2736 01a8 BCFFFF8A 		bhi	.L574
 2737 01ac 0310D5E7 		ldrb	r1, [r5, r3]	@ zero_extendqisi2
 2738 01b0 3112E0E1 		mvn	r1, r1, lsr r2
 2739 01b4 150053E3 		cmp	r3, #21
 2740 01b8 01108183 		orrhi	r1, r1, #1
 2741 01bc 010011E3 		tst	r1, #1
 2742 01c0 B6FFFF1A 		bne	.L574
 2743 01c4 833182E0 		add	r3, r2, r3, lsl #3
 2744 01c8 016086E2 		add	r6, r6, #1
 2745 01cc 002000E3 		movw	r2, #:lower16:.LANCHOR14
 2746 01d0 8330A0E1 		lsl	r3, r3, #1
 2747 01d4 060059E1 		cmp	r9, r6
 2748 01d8 002040E3 		movt	r2, #:upper16:.LANCHOR14
 2749 01dc 0010E0E3 		mvn	r1, #0
 2750 01e0 064084E2 		add	r4, r4, #6
 2751 01e4 B31082E1 		strh	r1, [r2, r3]	@ movhi
 2752 01e8 9AFFFF1A 		bne	.L576
 2753 01ec AFFFFFEA 		b	.L567
 2754              	.L587:
 2755 01f0 016086E2 		add	r6, r6, #1
 2756 01f4 0070E0E3 		mvn	r7, #0
 2757 01f8 060059E1 		cmp	r9, r6
 2758 01fc 064084E2 		add	r4, r4, #6
 2759 0200 94FFFF1A 		bne	.L576
 2760 0204 A9FFFFEA 		b	.L567
 2761              	.L582:
 2762 0208 0970A0E1 		mov	r7, r9
 2763 020c A7FFFFEA 		b	.L567
 2764              	.L606:
 2765 0210 00E000E3 		movw	lr, #:lower16:.LANCHOR9
 2766 0214 00E040E3 		movt	lr, #:upper16:.LANCHOR9
 2767 0218 0000DEE7 		ldrb	r0, [lr, r0]	@ zero_extendqisi2
 2768 021c 30311CE0 		ands	r3, ip, r0, lsr r1
 2769 0220 0510A003 		moveq	r1, #5
 2770 0224 0410A013 		movne	r1, #4
 2771 0228 B6FFFFEA 		b	.L572
 2773              		.section	.text.R_GPIO_InitByPinList,"ax",%progbits
 2774              		.align	2
 2775              		.global	R_GPIO_InitByPinList
 2776              		.syntax unified
 2777              		.arm
 2778              		.fpu neon
 2780              	R_GPIO_InitByPinList:
 2781              		@ args = 0, pretend = 0, frame = 24
 2782              		@ frame_needed = 0, uses_anonymous_args = 0
 2783 0000 003000E3 		movw	r3, #:lower16:.LANCHOR13
 2784 0004 F04F2DE9 		push	{r4, r5, r6, r7, r8, r9, r10, fp, lr}
 2785 0008 003040E3 		movt	r3, #:upper16:.LANCHOR13
 2786 000c 1CD04DE2 		sub	sp, sp, #28
 2787 0010 0240A0E1 		mov	r4, r2
 2788 0014 0150A0E1 		mov	r5, r1
 2789 0018 00008DE5 		str	r0, [sp]
 2790 001c 000093E5 		ldr	r0, [r3]
 2791 0020 10308DE5 		str	r3, [sp, #16]
 2792 0024 08108DE5 		str	r1, [sp, #8]
 2793 0028 FEFFFFEB 		bl	R_OS_MutexAcquire
 2794 002c 000054E3 		cmp	r4, #0
 2795 0030 CD00000A 		beq	.L631
 2796 0034 003000E3 		movw	r3, #:lower16:.LANCHOR0
 2797 0038 0000A0E3 		mov	r0, #0
 2798 003c 0320A0E1 		mov	r2, r3
 2799 0040 00A000E3 		movw	r10, #:lower16:.LANCHOR14
 2800 0044 002040E3 		movt	r2, #:upper16:.LANCHOR0
 2801 0048 848085E0 		add	r8, r5, r4, lsl #1
 2802 004c 04208DE5 		str	r2, [sp, #4]
 2803 0050 0090A0E1 		mov	r9, r0
 2804 0054 00A040E3 		movt	r10, #:upper16:.LANCHOR14
 2805 0058 0520A0E1 		mov	r2, r5
 2806 005c 027800E3 		movw	r7, #2050
 2807 0060 05E301E3 		movw	lr, #4869
 2808 0064 150000EA 		b	.L612
 2809              	.L609:
 2810 0068 050051E3 		cmp	r1, #5
 2811 006c 07005111 		cmpne	r1, r7
 2812 0070 0DBC41E2 		sub	fp, r1, #3328
 2813 0074 0130A003 		moveq	r3, #1
 2814 0078 0030A013 		movne	r3, #0
 2815 007c 0E0051E1 		cmp	r1, lr
 2816 0080 01308303 		orreq	r3, r3, #1
 2817 0084 06B04BE2 		sub	fp, fp, #6
 2818 0088 06CC41E2 		sub	ip, r1, #1536
 2819 008c 01005BE3 		cmp	fp, #1
 2820 0090 01308393 		orrls	r3, r3, #1
 2821 0094 06C04CE2 		sub	ip, ip, #6
 2822 0098 FDBF0FE3 		movw	fp, #65533
 2823 009c 01005CE3 		cmp	ip, #1
 2824 00a0 01308393 		orrls	r3, r3, #1
 2825 00a4 01B00BE0 		and	fp, fp, r1
 2826 00a8 01005BE3 		cmp	fp, #1
 2827 00ac 01308303 		orreq	r3, r3, #1
 2828 00b0 000053E3 		cmp	r3, #0
 2829 00b4 0100A003 		moveq	r0, #1
 2830 00b8 020058E1 		cmp	r8, r2
 2831 00bc 1D00000A 		beq	.L662
 2832              	.L612:
 2833 00c0 B210D2E0 		ldrh	r1, [r2], #2
 2834 00c4 0050A0E3 		mov	r5, #0
 2835 00c8 023921E2 		eor	r3, r1, #32768
 2836 00cc 010B53E3 		cmp	r3, #1024
 2837 00d0 0060E033 		mvncc	r6, #0
 2838 00d4 E3FFFF3A 		bcc	.L609
 2839 00d8 71C0EFE6 		uxtb	ip, r1
 2840 00dc 21B4A0E1 		lsr	fp, r1, #8
 2841 00e0 07005CE3 		cmp	ip, #7
 2842 00e4 8B318CE0 		add	r3, ip, fp, lsl #3
 2843 00e8 0050E0E3 		mvn	r5, #0
 2844 00ec 8330A0E1 		lsl	r3, r3, #1
 2845 00f0 0E00008A 		bhi	.L659
 2846 00f4 04509DE5 		ldr	r5, [sp, #4]
 2847 00f8 0B50D5E7 		ldrb	r5, [r5, fp]	@ zero_extendqisi2
 2848 00fc 355CE0E1 		mvn	r5, r5, lsr ip
 2849 0100 015005E2 		and	r5, r5, #1
 2850 0104 15005BE3 		cmp	fp, #21
 2851 0108 01508583 		orrhi	r5, r5, #1
 2852 010c 000055E3 		cmp	r5, #0
 2853 0110 0500001A 		bne	.L634
 2854 0114 F3609AE1 		ldrsh	r6, [r10, r3]
 2855              	.L610:
 2856 0118 00309DE5 		ldr	r3, [sp]
 2857 011c 060053E1 		cmp	r3, r6
 2858 0120 01007613 		cmnne	r6, #1
 2859 0124 0190A013 		movne	r9, #1
 2860 0128 CEFFFFEA 		b	.L609
 2861              	.L634:
 2862 012c 0050E0E3 		mvn	r5, #0
 2863              	.L659:
 2864 0130 0100A0E3 		mov	r0, #1
 2865 0134 F7FFFFEA 		b	.L610
 2866              	.L662:
 2867 0138 000050E3 		cmp	r0, #0
 2868 013c 8800001A 		bne	.L637
 2869 0140 000059E3 		cmp	r9, #0
 2870 0144 8A00001A 		bne	.L638
 2871 0148 000055E3 		cmp	r5, #0
 2872 014c 8400001A 		bne	.L637
 2873 0150 08109DE5 		ldr	r1, [sp, #8]
 2874 0154 00A000E3 		movw	r10, #:lower16:.LANCHOR4
 2875 0158 00A040E3 		movt	r10, #:upper16:.LANCHOR4
 2876 015c 003000E3 		movw	r3, #:lower16:.LANCHOR0
 2877 0160 002000E3 		movw	r2, #:lower16:.LANCHOR14
 2878 0164 14508DE5 		str	r5, [sp, #20]
 2879 0168 0A50A0E1 		mov	r5, r10
 2880 016c 021041E2 		sub	r1, r1, #2
 2881 0170 003040E3 		movt	r3, #:upper16:.LANCHOR0
 2882 0174 002040E3 		movt	r2, #:upper16:.LANCHOR14
 2883 0178 04108DE5 		str	r1, [sp, #4]
 2884 017c 08308DE5 		str	r3, [sp, #8]
 2885 0180 0C208DE5 		str	r2, [sp, #12]
 2886              	.L629:
 2887 0184 B080D5E1 		ldrh	r8, [r5]
 2888 0188 0060A0E3 		mov	r6, #0
 2889 018c 08309DE5 		ldr	r3, [sp, #8]
 2890 0190 04709DE5 		ldr	r7, [sp, #4]
 2891 0194 28B4A0E1 		lsr	fp, r8, #8
 2892 0198 78A0EFE6 		uxtb	r10, r8
 2893 019c 0B9083E0 		add	r9, r3, fp
 2894 01a0 020000EA 		b	.L619
 2895              	.L615:
 2896 01a4 016086E2 		add	r6, r6, #1
 2897 01a8 060054E1 		cmp	r4, r6
 2898 01ac 1B00000A 		beq	.L663
 2899              	.L619:
 2900 01b0 B230F7E1 		ldrh	r3, [r7, #2]!
 2901 01b4 080053E1 		cmp	r3, r8
 2902 01b8 F9FFFF1A 		bne	.L615
 2903 01bc 07005AE3 		cmp	r10, #7
 2904 01c0 F7FFFF8A 		bhi	.L615
 2905 01c4 0030D9E5 		ldrb	r3, [r9]	@ zero_extendqisi2
 2906 01c8 333AA0E1 		lsr	r3, r3, r10
 2907 01cc 010013E3 		tst	r3, #1
 2908 01d0 F3FFFF0A 		beq	.L615
 2909 01d4 15005BE3 		cmp	fp, #21
 2910 01d8 F1FFFF8A 		bhi	.L615
 2911 01dc 0410D5E5 		ldrb	r1, [r5, #4]	@ zero_extendqisi2
 2912 01e0 0800A0E1 		mov	r0, r8
 2913 01e4 FEFFFFEB 		bl	R_GPIO_PinDscrSet
 2914 01e8 000050E3 		cmp	r0, #0
 2915 01ec 5300000A 		beq	.L664
 2916              	.L618:
 2917 01f0 0030D9E5 		ldrb	r3, [r9]	@ zero_extendqisi2
 2918 01f4 333AA0E1 		lsr	r3, r3, r10
 2919 01f8 010013E3 		tst	r3, #1
 2920 01fc E8FFFF0A 		beq	.L615
 2921 0200 8B318AE0 		add	r3, r10, fp, lsl #3
 2922 0204 0C209DE5 		ldr	r2, [sp, #12]
 2923 0208 B010DDE1 		ldrh	r1, [sp]
 2924 020c 016086E2 		add	r6, r6, #1
 2925 0210 8330A0E1 		lsl	r3, r3, #1
 2926 0214 060054E1 		cmp	r4, r6
 2927 0218 B31082E1 		strh	r1, [r2, r3]	@ movhi
 2928 021c E3FFFF1A 		bne	.L619
 2929              	.L663:
 2930 0220 54319FE5 		ldr	r3, .L667
 2931 0224 065085E2 		add	r5, r5, #6
 2932 0228 050053E1 		cmp	r3, r5
 2933 022c D4FFFF1A 		bne	.L629
 2934 0230 00B000E3 		movw	fp, #:lower16:.LANCHOR5
 2935 0234 003000E3 		movw	r3, #:lower16:.LANCHOR0
 2936 0238 00B040E3 		movt	fp, #:upper16:.LANCHOR5
 2937 023c 002000E3 		movw	r2, #:lower16:.LANCHOR14
 2938 0240 0B50A0E1 		mov	r5, fp
 2939 0244 003040E3 		movt	r3, #:upper16:.LANCHOR0
 2940 0248 002040E3 		movt	r2, #:upper16:.LANCHOR14
 2941 024c 08308DE5 		str	r3, [sp, #8]
 2942 0250 0C208DE5 		str	r2, [sp, #12]
 2943              	.L630:
 2944 0254 B080D5E1 		ldrh	r8, [r5]
 2945 0258 0060A0E3 		mov	r6, #0
 2946 025c 08309DE5 		ldr	r3, [sp, #8]
 2947 0260 04709DE5 		ldr	r7, [sp, #4]
 2948 0264 28A4A0E1 		lsr	r10, r8, #8
 2949 0268 78B0EFE6 		uxtb	fp, r8
 2950 026c 0A9083E0 		add	r9, r3, r10
 2951 0270 020000EA 		b	.L626
 2952              	.L622:
 2953 0274 016086E2 		add	r6, r6, #1
 2954 0278 060054E1 		cmp	r4, r6
 2955 027c 1B00000A 		beq	.L665
 2956              	.L626:
 2957 0280 B230F7E1 		ldrh	r3, [r7, #2]!
 2958 0284 080053E1 		cmp	r3, r8
 2959 0288 F9FFFF1A 		bne	.L622
 2960 028c 07005BE3 		cmp	fp, #7
 2961 0290 F7FFFF8A 		bhi	.L622
 2962 0294 0030D9E5 		ldrb	r3, [r9]	@ zero_extendqisi2
 2963 0298 333BA0E1 		lsr	r3, r3, fp
 2964 029c 010013E3 		tst	r3, #1
 2965 02a0 F3FFFF0A 		beq	.L622
 2966 02a4 15005AE3 		cmp	r10, #21
 2967 02a8 F1FFFF8A 		bhi	.L622
 2968 02ac 0410D5E5 		ldrb	r1, [r5, #4]	@ zero_extendqisi2
 2969 02b0 0800A0E1 		mov	r0, r8
 2970 02b4 FEFFFFEB 		bl	R_GPIO_PinDscrSet
 2971 02b8 000050E3 		cmp	r0, #0
 2972 02bc 1600000A 		beq	.L666
 2973              	.L625:
 2974 02c0 0030D9E5 		ldrb	r3, [r9]	@ zero_extendqisi2
 2975 02c4 333BA0E1 		lsr	r3, r3, fp
 2976 02c8 010013E3 		tst	r3, #1
 2977 02cc E8FFFF0A 		beq	.L622
 2978 02d0 8A318BE0 		add	r3, fp, r10, lsl #3
 2979 02d4 0C209DE5 		ldr	r2, [sp, #12]
 2980 02d8 B010DDE1 		ldrh	r1, [sp]
 2981 02dc 016086E2 		add	r6, r6, #1
 2982 02e0 8330A0E1 		lsl	r3, r3, #1
 2983 02e4 060054E1 		cmp	r4, r6
 2984 02e8 B31082E1 		strh	r1, [r2, r3]	@ movhi
 2985 02ec E3FFFF1A 		bne	.L626
 2986              	.L665:
 2987 02f0 88309FE5 		ldr	r3, .L667+4
 2988 02f4 065085E2 		add	r5, r5, #6
 2989 02f8 050053E1 		cmp	r3, r5
 2990 02fc D4FFFF1A 		bne	.L630
 2991 0300 14509DE5 		ldr	r5, [sp, #20]
 2992              	.L608:
 2993 0304 10309DE5 		ldr	r3, [sp, #16]
 2994 0308 000093E5 		ldr	r0, [r3]
 2995 030c FEFFFFEB 		bl	R_OS_MutexRelease
 2996 0310 0500A0E1 		mov	r0, r5
 2997 0314 1CD08DE2 		add	sp, sp, #28
 2998              		@ sp needed
 2999 0318 F08FBDE8 		pop	{r4, r5, r6, r7, r8, r9, r10, fp, pc}
 3000              	.L666:
 3001 031c 0210D5E5 		ldrb	r1, [r5, #2]	@ zero_extendqisi2
 3002 0320 0800A0E1 		mov	r0, r8
 3003 0324 FEFFFFEB 		bl	R_GPIO_PinSetFunction
 3004 0328 000050E3 		cmp	r0, #0
 3005 032c E3FFFF1A 		bne	.L625
 3006 0330 0310D5E5 		ldrb	r1, [r5, #3]	@ zero_extendqisi2
 3007 0334 0800A0E1 		mov	r0, r8
 3008 0338 FEFFFFEB 		bl	R_GPIO_PinTintSet
 3009 033c DFFFFFEA 		b	.L625
 3010              	.L664:
 3011 0340 0210D5E5 		ldrb	r1, [r5, #2]	@ zero_extendqisi2
 3012 0344 0800A0E1 		mov	r0, r8
 3013 0348 FEFFFFEB 		bl	R_GPIO_PinSetFunction
 3014 034c 000050E3 		cmp	r0, #0
 3015 0350 A6FFFF1A 		bne	.L618
 3016 0354 0310D5E5 		ldrb	r1, [r5, #3]	@ zero_extendqisi2
 3017 0358 0800A0E1 		mov	r0, r8
 3018 035c FEFFFFEB 		bl	R_GPIO_PinTintSet
 3019 0360 A2FFFFEA 		b	.L618
 3020              	.L637:
 3021 0364 0050E0E3 		mvn	r5, #0
 3022 0368 E5FFFFEA 		b	.L608
 3023              	.L631:
 3024 036c 0450A0E1 		mov	r5, r4
 3025 0370 E3FFFFEA 		b	.L608
 3026              	.L638:
 3027 0374 0550E0E3 		mvn	r5, #5
 3028 0378 E1FFFFEA 		b	.L608
 3029              	.L668:
 3030              		.align	2
 3031              	.L667:
 3032 037c 18000000 		.word	.LANCHOR4+24
 3033 0380 1E000000 		.word	.LANCHOR5+30
 3035              		.section	.text.R_GPIO_PinGetFunction,"ax",%progbits
 3036              		.align	2
 3037              		.global	R_GPIO_PinGetFunction
 3038              		.syntax unified
 3039              		.arm
 3040              		.fpu neon
 3042              	R_GPIO_PinGetFunction:
 3043              		@ args = 0, pretend = 0, frame = 0
 3044              		@ frame_needed = 0, uses_anonymous_args = 0
 3045 0000 F0472DE9 		push	{r4, r5, r6, r7, r8, r9, r10, lr}
 3046 0004 7060EFE6 		uxtb	r6, r0
 3047 0008 0030A0E3 		mov	r3, #0
 3048 000c 070056E3 		cmp	r6, #7
 3049 0010 0030C1E5 		strb	r3, [r1]
 3050 0014 1B00008A 		bhi	.L672
 3051 0018 2044A0E1 		lsr	r4, r0, #8
 3052 001c 007000E3 		movw	r7, #:lower16:.LANCHOR0
 3053 0020 007040E3 		movt	r7, #:upper16:.LANCHOR0
 3054 0024 0400D7E7 		ldrb	r0, [r7, r4]	@ zero_extendqisi2
 3055 0028 3006E0E1 		mvn	r0, r0, lsr r6
 3056 002c 010000E2 		and	r0, r0, #1
 3057 0030 150054E3 		cmp	r4, #21
 3058 0034 0050A091 		movls	r5, r0
 3059 0038 01508083 		orrhi	r5, r0, #1
 3060 003c 000055E3 		cmp	r5, #0
 3061 0040 1000001A 		bne	.L672
 3062 0044 002000E3 		movw	r2, #:lower16:.LANCHOR6
 3063 0048 003000E3 		movw	r3, #:lower16:.LANCHOR7
 3064 004c 002040E3 		movt	r2, #:upper16:.LANCHOR6
 3065 0050 003040E3 		movt	r3, #:upper16:.LANCHOR7
 3066 0054 0691D2E7 		ldrb	r9, [r2, r6, lsl #2]	@ zero_extendqisi2
 3067 0058 FD0484E2 		add	r0, r4, #-50331648
 3068 005c 0180A0E1 		mov	r8, r1
 3069 0060 7E0D40E2 		sub	r0, r0, #8064
 3070 0064 0611D3E7 		ldrb	r1, [r3, r6, lsl #2]	@ zero_extendqisi2
 3071 0068 0920A0E1 		mov	r2, r9
 3072 006c FEFFFFEB 		bl	RZA_IO_RegRead_8
 3073 0070 0430D7E7 		ldrb	r3, [r7, r4]	@ zero_extendqisi2
 3074 0074 010050E3 		cmp	r0, #1
 3075 0078 3336A0E1 		lsr	r3, r3, r6
 3076 007c 0300000A 		beq	.L673
 3077 0080 010013E3 		tst	r3, #1
 3078 0084 0F00001A 		bne	.L690
 3079              	.L672:
 3080 0088 0000E0E3 		mvn	r0, #0
 3081 008c F087BDE8 		pop	{r4, r5, r6, r7, r8, r9, r10, pc}
 3082              	.L673:
 3083 0090 010013E3 		tst	r3, #1
 3084 0094 FBFFFF0A 		beq	.L672
 3085 0098 840186E0 		add	r0, r6, r4, lsl #3
 3086 009c 0720A0E3 		mov	r2, #7
 3087 00a0 0510A0E1 		mov	r1, r5
 3088 00a4 FD0480E2 		add	r0, r0, #-50331648
 3089 00a8 1E0C40E2 		sub	r0, r0, #7680
 3090 00ac FEFFFFEB 		bl	RZA_IO_RegRead_8
 3091 00b0 070050E3 		cmp	r0, #7
 3092 00b4 2300008A 		bhi	.L678
 3093 00b8 063080E2 		add	r3, r0, #6
 3094 00bc 0500A0E1 		mov	r0, r5
 3095 00c0 0030C8E5 		strb	r3, [r8]
 3096 00c4 F087BDE8 		pop	{r4, r5, r6, r7, r8, r9, r10, pc}
 3097              	.L690:
 3098 00c8 002000E3 		movw	r2, #:lower16:.LANCHOR1
 3099 00cc 003000E3 		movw	r3, #:lower16:.LANCHOR2
 3100 00d0 003040E3 		movt	r3, #:upper16:.LANCHOR2
 3101 00d4 002040E3 		movt	r2, #:upper16:.LANCHOR1
 3102 00d8 062192E7 		ldr	r2, [r2, r6, lsl #2]
 3103 00dc 8400A0E1 		lsl	r0, r4, #1
 3104 00e0 061193E7 		ldr	r1, [r3, r6, lsl #2]
 3105 00e4 FD0480E2 		add	r0, r0, #-50331648
 3106 00e8 020A40E2 		sub	r0, r0, #8192
 3107 00ec 7220FFE6 		uxth	r2, r2
 3108 00f0 7110FFE6 		uxth	r1, r1
 3109 00f4 FEFFFFEB 		bl	RZA_IO_RegRead_16
 3110 00f8 020050E3 		cmp	r0, #2
 3111 00fc 1300000A 		beq	.L674
 3112 0100 030050E3 		cmp	r0, #3
 3113 0104 0300000A 		beq	.L675
 3114 0108 000050E3 		cmp	r0, #0
 3115 010c 1100000A 		beq	.L691
 3116 0110 0300E0E3 		mvn	r0, #3
 3117 0114 F087BDE8 		pop	{r4, r5, r6, r7, r8, r9, r10, pc}
 3118              	.L675:
 3119 0118 0430D7E7 		ldrb	r3, [r7, r4]	@ zero_extendqisi2
 3120 011c 3336E0E1 		mvn	r3, r3, lsr r6
 3121 0120 010013E3 		tst	r3, #1
 3122 0124 D7FFFF1A 		bne	.L672
 3123 0128 60000EE3 		movw	r0, #57440
 3124 012c 0920A0E1 		mov	r2, r9
 3125 0130 FF0C4FE3 		movt	r0, 64767
 3126 0134 0610A0E1 		mov	r1, r6
 3127 0138 000084E0 		add	r0, r4, r0
 3128 013c FEFFFFEB 		bl	RZA_IO_RegRead_8
 3129 0140 0530A0E3 		mov	r3, #5
 3130 0144 0030C8E5 		strb	r3, [r8]
 3131              	.L678:
 3132 0148 0000A0E3 		mov	r0, #0
 3133 014c F087BDE8 		pop	{r4, r5, r6, r7, r8, r9, r10, pc}
 3134              	.L674:
 3135 0150 0000C8E5 		strb	r0, [r8]
 3136 0154 FBFFFFEA 		b	.L678
 3137              	.L691:
 3138 0158 0130A0E3 		mov	r3, #1
 3139 015c 0030C8E5 		strb	r3, [r8]
 3140 0160 F8FFFFEA 		b	.L678
 3142              		.section	.text.R_GPIO_DeallocateAllPins,"ax",%progbits
 3143              		.align	2
 3144              		.global	R_GPIO_DeallocateAllPins
 3145              		.syntax unified
 3146              		.arm
 3147              		.fpu neon
 3149              	R_GPIO_DeallocateAllPins:
 3150              		@ args = 0, pretend = 0, frame = 0
 3151              		@ frame_needed = 0, uses_anonymous_args = 0
 3152              		@ link register save eliminated.
 3153 0000 003000E3 		movw	r3, #:lower16:.LANCHOR14
 3154 0004 00C0E0E3 		mvn	ip, #0
 3155 0008 003040E3 		movt	r3, #:upper16:.LANCHOR14
 3156 000c 151E83E2 		add	r1, r3, #336
 3157              	.L694:
 3158 0010 F020D3E1 		ldrsh	r2, [r3]
 3159 0014 023083E2 		add	r3, r3, #2
 3160 0018 000052E1 		cmp	r2, r0
 3161 001c B2C04301 		strheq	ip, [r3, #-2]	@ movhi
 3162 0020 010053E1 		cmp	r3, r1
 3163 0024 F9FFFF1A 		bne	.L694
 3164 0028 1EFF2FE1 		bx	lr
 3166              		.section	.text.R_GPIO_GetVersion,"ax",%progbits
 3167              		.align	2
 3168              		.global	R_GPIO_GetVersion
 3169              		.syntax unified
 3170              		.arm
 3171              		.fpu neon
 3173              	R_GPIO_GetVersion:
 3174              		@ args = 0, pretend = 0, frame = 0
 3175              		@ frame_needed = 0, uses_anonymous_args = 0
 3176 0000 002000E3 		movw	r2, #:lower16:.LC0
 3177 0004 04E02DE5 		str	lr, [sp, #-4]!
 3178 0008 0030A0E1 		mov	r3, r0
 3179 000c 0010A0E3 		mov	r1, #0
 3180 0010 002040E3 		movt	r2, #:upper16:.LC0
 3181 0014 01E0A0E3 		mov	lr, #1
 3182 0018 04C0A0E3 		mov	ip, #4
 3183 001c 142080E5 		str	r2, [r0, #20]
 3184 0020 0100A0E1 		mov	r0, r1
 3185 0024 BEE0C3E1 		strh	lr, [r3, #14]	@ movhi
 3186 0028 BCC0C3E1 		strh	ip, [r3, #12]	@ movhi
 3187 002c 101083E5 		str	r1, [r3, #16]
 3188 0030 04F09DE4 		ldr	pc, [sp], #4
 3190              		.section	.bss.s_gpio_pin_allocation,"aw",%nobits
 3191              		.align	3
 3192              		.set	.LANCHOR14,. + 0
 3195              	s_gpio_pin_allocation:
 3196 0000 00000000 		.space	336
 3196      00000000 
 3196      00000000 
 3196      00000000 
 3196      00000000 
 3197              		.section	.bss.s_r_drv_gpio_initialised,"aw",%nobits
 3198              		.align	2
 3199              		.set	.LANCHOR3,. + 0
 3202              	s_r_drv_gpio_initialised:
 3203 0000 00000000 		.space	4
 3204              		.section	.bss.sp_gpio_mutex,"aw",%nobits
 3205              		.align	2
 3206              		.set	.LANCHOR13,. + 0
 3209              	sp_gpio_mutex:
 3210 0000 00000000 		.space	4
 3211              		.section	.rodata.GPIO_SC_TABLE_INIT,"a",%progbits
 3212              		.align	2
 3213              		.set	.LANCHOR4,. + 0
 3216              	GPIO_SC_TABLE_INIT:
 3217 0000 0606     		.short	1542
 3218 0002 03       		.byte	3
 3219 0003 01       		.byte	1
 3220 0004 04       		.byte	4
 3221 0005 00       		.space	1
 3222 0006 0706     		.short	1543
 3223 0008 02       		.byte	2
 3224 0009 01       		.byte	1
 3225 000a 05       		.byte	5
 3226 000b 00       		.space	1
 3227 000c 060D     		.short	3334
 3228 000e 02       		.byte	2
 3229 000f 01       		.byte	1
 3230 0010 05       		.byte	5
 3231 0011 00       		.space	1
 3232 0012 070D     		.short	3335
 3233 0014 02       		.byte	2
 3234 0015 01       		.byte	1
 3235 0016 05       		.byte	5
 3236 0017 00       		.space	1
 3237              		.section	.rodata.GPIO_SC_TABLE_MANUAL,"a",%progbits
 3238              		.align	2
 3239              		.set	.LANCHOR5,. + 0
 3242              	GPIO_SC_TABLE_MANUAL:
 3243 0000 0100     		.short	1
 3244 0002 04       		.byte	4
 3245 0003 01       		.byte	1
 3246 0004 04       		.byte	4
 3247 0005 00       		.space	1
 3248 0006 0300     		.short	3
 3249 0008 04       		.byte	4
 3250 0009 01       		.byte	1
 3251 000a 04       		.byte	4
 3252 000b 00       		.space	1
 3253 000c 0500     		.short	5
 3254 000e 04       		.byte	4
 3255 000f 01       		.byte	1
 3256 0010 04       		.byte	4
 3257 0011 00       		.space	1
 3258 0012 0208     		.short	2050
 3259 0014 04       		.byte	4
 3260 0015 01       		.byte	1
 3261 0016 04       		.byte	4
 3262 0017 00       		.space	1
 3263 0018 0513     		.short	4869
 3264 001a 04       		.byte	4
 3265 001b 01       		.byte	1
 3266 001c 04       		.byte	4
 3267 001d 00       		.space	1
 3268              		.section	.rodata.R_GPIO_GetVersion.str1.4,"aMS",%progbits,1
 3269              		.align	2
 3270              	.LC0:
 3271 0000 4C4C4420 		.ascii	"LLD EBK_RZA2M GPIO\000"
 3271      45424B5F 
 3271      525A4132 
 3271      4D204750 
 3271      494F00
 3272              		.section	.rodata.s_mask_1bit_register,"a",%progbits
 3273              		.align	3
 3274              		.set	.LANCHOR6,. + 0
 3277              	s_mask_1bit_register:
 3278 0000 01000000 		.word	1
 3279 0004 02000000 		.word	2
 3280 0008 04000000 		.word	4
 3281 000c 08000000 		.word	8
 3282 0010 10000000 		.word	16
 3283 0014 20000000 		.word	32
 3284 0018 40000000 		.word	64
 3285 001c 80000000 		.word	128
 3286 0020 00010000 		.word	256
 3287 0024 00020000 		.word	512
 3288 0028 00040000 		.word	1024
 3289 002c 00080000 		.word	2048
 3290 0030 00100000 		.word	4096
 3291 0034 00200000 		.word	8192
 3292 0038 00400000 		.word	16384
 3293 003c 00800000 		.word	32768
 3294              		.section	.rodata.s_mask_2bit_register,"a",%progbits
 3295              		.align	3
 3296              		.set	.LANCHOR1,. + 0
 3299              	s_mask_2bit_register:
 3300 0000 03000000 		.word	3
 3301 0004 0C000000 		.word	12
 3302 0008 30000000 		.word	48
 3303 000c C0000000 		.word	192
 3304 0010 00030000 		.word	768
 3305 0014 000C0000 		.word	3072
 3306 0018 00300000 		.word	12288
 3307 001c 00C00000 		.word	49152
 3308 0020 00000300 		.word	196608
 3309 0024 00000C00 		.word	786432
 3310 0028 00003000 		.word	3145728
 3311 002c 0000C000 		.word	12582912
 3312 0030 00000003 		.word	50331648
 3313 0034 0000000C 		.word	201326592
 3314 0038 00000030 		.word	805306368
 3315 003c 000000C0 		.word	-1073741824
 3316              		.section	.rodata.s_qspi_reg,"a",%progbits
 3317              		.align	2
 3318              		.set	.LANCHOR12,. + 0
 3321              	s_qspi_reg:
 3322 0000 60E9FFFC 		.word	-50337440
 3323 0004 00       		.byte	0
 3324 0005 000000   		.space	3
 3325 0008 03000000 		.word	3
 3326 000c 60E9FFFC 		.word	-50337440
 3327 0010 02       		.byte	2
 3328 0011 000000   		.space	3
 3329 0014 0C000000 		.word	12
 3330 0018 60E9FFFC 		.word	-50337440
 3331 001c 04       		.byte	4
 3332 001d 000000   		.space	3
 3333 0020 30000000 		.word	48
 3334 0024 60E9FFFC 		.word	-50337440
 3335 0028 06       		.byte	6
 3336 0029 000000   		.space	3
 3337 002c C0000000 		.word	192
 3338 0030 60E9FFFC 		.word	-50337440
 3339 0034 08       		.byte	8
 3340 0035 000000   		.space	3
 3341 0038 00030000 		.word	768
 3342 003c 60E9FFFC 		.word	-50337440
 3343 0040 0A       		.byte	10
 3344 0041 000000   		.space	3
 3345 0044 000C0000 		.word	3072
 3346 0048 60E9FFFC 		.word	-50337440
 3347 004c 0C       		.byte	12
 3348 004d 000000   		.space	3
 3349 0050 00300000 		.word	12288
 3350 0054 60E9FFFC 		.word	-50337440
 3351 0058 0E       		.byte	14
 3352 0059 000000   		.space	3
 3353 005c 00C00000 		.word	49152
 3354 0060 60E9FFFC 		.word	-50337440
 3355 0064 10       		.byte	16
 3356 0065 000000   		.space	3
 3357 0068 00000300 		.word	196608
 3358 006c 60E9FFFC 		.word	-50337440
 3359 0070 12       		.byte	18
 3360 0071 000000   		.space	3
 3361 0074 00000C00 		.word	786432
 3362 0078 60E9FFFC 		.word	-50337440
 3363 007c 14       		.byte	20
 3364 007d 000000   		.space	3
 3365 0080 00003000 		.word	3145728
 3366 0084 60E9FFFC 		.word	-50337440
 3367 0088 16       		.byte	22
 3368 0089 000000   		.space	3
 3369 008c 0000C000 		.word	12582912
 3370 0090 60E9FFFC 		.word	-50337440
 3371 0094 18       		.byte	24
 3372 0095 000000   		.space	3
 3373 0098 00000003 		.word	50331648
 3374 009c 60E9FFFC 		.word	-50337440
 3375 00a0 1A       		.byte	26
 3376 00a1 000000   		.space	3
 3377 00a4 0000000C 		.word	201326592
 3378              		.section	.rodata.s_r_drv_gpio_dscr_4ma_support,"a",%progbits
 3379              		.align	3
 3380              		.set	.LANCHOR9,. + 0
 3383              	s_r_drv_gpio_dscr_4ma_support:
 3384 0000 7F       		.byte	127
 3385 0001 1F       		.byte	31
 3386 0002 0F       		.byte	15
 3387 0003 3F       		.byte	63
 3388 0004 FF       		.byte	-1
 3389 0005 FF       		.byte	-1
 3390 0006 FF       		.byte	-1
 3391 0007 FF       		.byte	-1
 3392 0008 FF       		.byte	-1
 3393 0009 FF       		.byte	-1
 3394 000a FF       		.byte	-1
 3395 000b 3F       		.byte	63
 3396 000c FF       		.byte	-1
 3397 000d FF       		.byte	-1
 3398 000e 7F       		.byte	127
 3399 000f FF       		.byte	-1
 3400 0010 FF       		.byte	-1
 3401 0011 7F       		.byte	127
 3402 0012 FF       		.byte	-1
 3403 0013 3F       		.byte	63
 3404 0014 1F       		.byte	31
 3405 0015 00       		.byte	0
 3406              		.section	.rodata.s_r_drv_gpio_dscr_8ma_support,"a",%progbits
 3407              		.align	3
 3408              		.set	.LANCHOR8,. + 0
 3411              	s_r_drv_gpio_dscr_8ma_support:
 3412 0000 00       		.byte	0
 3413 0001 00       		.byte	0
 3414 0002 00       		.byte	0
 3415 0003 00       		.byte	0
 3416 0004 00       		.byte	0
 3417 0005 00       		.byte	0
 3418 0006 00       		.byte	0
 3419 0007 00       		.byte	0
 3420 0008 00       		.byte	0
 3421 0009 00       		.byte	0
 3422 000a 00       		.byte	0
 3423 000b 00       		.byte	0
 3424 000c 00       		.byte	0
 3425 000d 00       		.byte	0
 3426 000e 00       		.byte	0
 3427 000f 00       		.byte	0
 3428 0010 FC       		.byte	-4
 3429 0011 00       		.byte	0
 3430 0012 7F       		.byte	127
 3431 0013 00       		.byte	0
 3432 0014 00       		.byte	0
 3433 0015 00       		.byte	0
 3434              		.section	.rodata.s_r_drv_gpio_support,"a",%progbits
 3435              		.align	3
 3436              		.set	.LANCHOR0,. + 0
 3439              	s_r_drv_gpio_support:
 3440 0000 7F       		.byte	127
 3441 0001 1F       		.byte	31
 3442 0002 0F       		.byte	15
 3443 0003 3F       		.byte	63
 3444 0004 FF       		.byte	-1
 3445 0005 FF       		.byte	-1
 3446 0006 FF       		.byte	-1
 3447 0007 FF       		.byte	-1
 3448 0008 FF       		.byte	-1
 3449 0009 FF       		.byte	-1
 3450 000a FF       		.byte	-1
 3451 000b 3F       		.byte	63
 3452 000c FF       		.byte	-1
 3453 000d FF       		.byte	-1
 3454 000e 7F       		.byte	127
 3455 000f FF       		.byte	-1
 3456 0010 FF       		.byte	-1
 3457 0011 7F       		.byte	127
 3458 0012 FF       		.byte	-1
 3459 0013 3F       		.byte	63
 3460 0014 1F       		.byte	31
 3461 0015 03       		.byte	3
 3462              		.section	.rodata.s_sd0_reg,"a",%progbits
 3463              		.align	2
 3464              		.set	.LANCHOR10,. + 0
 3467              	s_sd0_reg:
 3468 0000 20E9FFFC 		.word	-50337504
 3469 0004 00       		.byte	0
 3470 0005 000000   		.space	3
 3471 0008 03000000 		.word	3
 3472 000c 20E9FFFC 		.word	-50337504
 3473 0010 02       		.byte	2
 3474 0011 000000   		.space	3
 3475 0014 0C000000 		.word	12
 3476 0018 20E9FFFC 		.word	-50337504
 3477 001c 04       		.byte	4
 3478 001d 000000   		.space	3
 3479 0020 30000000 		.word	48
 3480 0024 20E9FFFC 		.word	-50337504
 3481 0028 06       		.byte	6
 3482 0029 000000   		.space	3
 3483 002c C0000000 		.word	192
 3484 0030 20E9FFFC 		.word	-50337504
 3485 0034 08       		.byte	8
 3486 0035 000000   		.space	3
 3487 0038 00030000 		.word	768
 3488 003c 20E9FFFC 		.word	-50337504
 3489 0040 0A       		.byte	10
 3490 0041 000000   		.space	3
 3491 0044 000C0000 		.word	3072
 3492 0048 30E9FFFC 		.word	-50337488
 3493 004c 00       		.byte	0
 3494 004d 000000   		.space	3
 3495 0050 03000000 		.word	3
 3496 0054 30E9FFFC 		.word	-50337488
 3497 0058 02       		.byte	2
 3498 0059 000000   		.space	3
 3499 005c 0C000000 		.word	12
 3500 0060 30E9FFFC 		.word	-50337488
 3501 0064 04       		.byte	4
 3502 0065 000000   		.space	3
 3503 0068 30000000 		.word	48
 3504 006c 30E9FFFC 		.word	-50337488
 3505 0070 06       		.byte	6
 3506 0071 000000   		.space	3
 3507 0074 C0000000 		.word	192
 3508 0078 30E9FFFC 		.word	-50337488
 3509 007c 08       		.byte	8
 3510 007d 000000   		.space	3
 3511 0080 00030000 		.word	768
 3512              		.section	.rodata.s_sd1_reg,"a",%progbits
 3513              		.align	2
 3514              		.set	.LANCHOR11,. + 0
 3517              	s_sd1_reg:
 3518 0000 40E9FFFC 		.word	-50337472
 3519 0004 00       		.byte	0
 3520 0005 000000   		.space	3
 3521 0008 03000000 		.word	3
 3522 000c 40E9FFFC 		.word	-50337472
 3523 0010 02       		.byte	2
 3524 0011 000000   		.space	3
 3525 0014 0C000000 		.word	12
 3526 0018 40E9FFFC 		.word	-50337472
 3527 001c 04       		.byte	4
 3528 001d 000000   		.space	3
 3529 0020 30000000 		.word	48
 3530 0024 40E9FFFC 		.word	-50337472
 3531 0028 06       		.byte	6
 3532 0029 000000   		.space	3
 3533 002c C0000000 		.word	192
 3534 0030 40E9FFFC 		.word	-50337472
 3535 0034 08       		.byte	8
 3536 0035 000000   		.space	3
 3537 0038 00030000 		.word	768
 3538 003c 40E9FFFC 		.word	-50337472
 3539 0040 0A       		.byte	10
 3540 0041 000000   		.space	3
 3541 0044 000C0000 		.word	3072
 3542              		.section	.rodata.s_shift_1bit_register,"a",%progbits
 3543              		.align	3
 3544              		.set	.LANCHOR7,. + 0
 3547              	s_shift_1bit_register:
 3548 0000 00000000 		.word	0
 3549 0004 01000000 		.word	1
 3550 0008 02000000 		.word	2
 3551 000c 03000000 		.word	3
 3552 0010 04000000 		.word	4
 3553 0014 05000000 		.word	5
 3554 0018 06000000 		.word	6
 3555 001c 07000000 		.word	7
 3556 0020 08000000 		.word	8
 3557 0024 09000000 		.word	9
 3558 0028 0A000000 		.word	10
 3559 002c 0B000000 		.word	11
 3560 0030 0C000000 		.word	12
 3561 0034 0D000000 		.word	13
 3562 0038 0E000000 		.word	14
 3563 003c 0F000000 		.word	15
 3564              		.section	.rodata.s_shift_2bit_register,"a",%progbits
 3565              		.align	3
 3566              		.set	.LANCHOR2,. + 0
 3569              	s_shift_2bit_register:
 3570 0000 00000000 		.word	0
 3571 0004 02000000 		.word	2
 3572 0008 04000000 		.word	4
 3573 000c 06000000 		.word	6
 3574 0010 08000000 		.word	8
 3575 0014 0A000000 		.word	10
 3576 0018 0C000000 		.word	12
 3577 001c 0E000000 		.word	14
 3578 0020 10000000 		.word	16
 3579 0024 12000000 		.word	18
 3580 0028 14000000 		.word	20
 3581 002c 16000000 		.word	22
 3582 0030 18000000 		.word	24
 3583 0034 1A000000 		.word	26
 3584 0038 1C000000 		.word	28
 3585 003c 1E000000 		.word	30
 3586              		.ident	"GCC: (GNU Tools for ARM Embedded Processors 6-2017-q2-update) 6.3.1 20170620 (release) [AR