   1              		.cpu cortex-a9
   2              		.eabi_attribute 28, 1
   3              		.eabi_attribute 20, 1
   4              		.eabi_attribute 21, 1
   5              		.eabi_attribute 23, 3
   6              		.eabi_attribute 24, 1
   7              		.eabi_attribute 25, 1
   8              		.eabi_attribute 26, 1
   9              		.eabi_attribute 30, 4
  10              		.eabi_attribute 34, 0
  11              		.eabi_attribute 18, 4
  12              		.file	"greedy_memory_planner.cpp"
  13              		.section	.text._ZN6tflite19GreedyMemoryPlannerD2Ev,"ax",%progbits
  14              		.align	2
  15              		.global	_ZN6tflite19GreedyMemoryPlannerD2Ev
  16              		.syntax unified
  17              		.arm
  18              		.fpu neon
  20              	_ZN6tflite19GreedyMemoryPlannerD2Ev:
  21              		.fnstart
  22              	.LFB16:
  23              		@ args = 0, pretend = 0, frame = 0
  24              		@ frame_needed = 0, uses_anonymous_args = 0
  25              		@ link register save eliminated.
  26 0000 1EFF2FE1 		bx	lr
  27              		.cantunwind
  28              		.fnend
  30              		.global	_ZN6tflite19GreedyMemoryPlannerD1Ev
  31              		.set	_ZN6tflite19GreedyMemoryPlannerD1Ev,_ZN6tflite19GreedyMemoryPlannerD2Ev
  32              		.section	.text._ZN6tflite19GreedyMemoryPlanner14GetBufferCountEv,"ax",%progbits
  33              		.align	2
  34              		.global	_ZN6tflite19GreedyMemoryPlanner14GetBufferCountEv
  35              		.syntax unified
  36              		.arm
  37              		.fpu neon
  39              	_ZN6tflite19GreedyMemoryPlanner14GetBufferCountEv:
  40              		.fnstart
  41              	.LFB25:
  42              		@ args = 0, pretend = 0, frame = 0
  43              		@ frame_needed = 0, uses_anonymous_args = 0
  44              		@ link register save eliminated.
  45 0000 080090E5 		ldr	r0, [r0, #8]
  46 0004 1EFF2FE1 		bx	lr
  47              		.cantunwind
  48              		.fnend
  50              		.section	.text._ZN6tflite19GreedyMemoryPlannerD0Ev,"ax",%progbits
  51              		.align	2
  52              		.global	_ZN6tflite19GreedyMemoryPlannerD0Ev
  53              		.syntax unified
  54              		.arm
  55              		.fpu neon
  57              	_ZN6tflite19GreedyMemoryPlannerD0Ev:
  58              		.fnstart
  59              	.LFB18:
  60              		@ args = 0, pretend = 0, frame = 0
  61              		@ frame_needed = 0, uses_anonymous_args = 0
  62 0000 10402DE9 		push	{r4, lr}
  63 0004 2810A0E3 		mov	r1, #40
  64 0008 0040A0E1 		mov	r4, r0
  65 000c FEFFFFEB 		bl	_ZdlPvj
  66 0010 0400A0E1 		mov	r0, r4
  67 0014 1080BDE8 		pop	{r4, pc}
  68              		.cantunwind
  69              		.fnend
  71              		.section	.text._ZN6tflite19GreedyMemoryPlanner9AddBufferEPNS_13ErrorReporterEiii,"ax",%progbits
  72              		.align	2
  73              		.global	_ZN6tflite19GreedyMemoryPlanner9AddBufferEPNS_13ErrorReporterEiii
  74              		.syntax unified
  75              		.arm
  76              		.fpu neon
  78              	_ZN6tflite19GreedyMemoryPlanner9AddBufferEPNS_13ErrorReporterEiii:
  79              		.fnstart
  80              	.LFB19:
  81              		@ args = 4, pretend = 0, frame = 0
  82              		@ frame_needed = 0, uses_anonymous_args = 0
  83 0000 70402DE9 		push	{r4, r5, r6, lr}
  84              		.save {r4, r5, r6, lr}
  85 0004 0250A0E1 		mov	r5, r2
  86 0008 041090E9 		ldmib	r0, {r2, ip}
  87 000c 02005CE1 		cmp	ip, r2
  88 0010 040000BA 		blt	.L6
  89 0014 0100A0E1 		mov	r0, r1
  90 0018 40109FE5 		ldr	r1, .L9
  91 001c FEFFFFEB 		bl	_ZN6tflite13ErrorReporter6ReportEPKcz
  92 0020 0100A0E3 		mov	r0, #1
  93 0024 7080BDE8 		pop	{r4, r5, r6, pc}
  94              	.L6:
  95 0028 0C10A0E3 		mov	r1, #12
  96 002c 0C4090E5 		ldr	r4, [r0, #12]
  97 0030 910C01E0 		mul	r1, r1, ip
  98 0034 01C08CE2 		add	ip, ip, #1
  99 0038 01E084E0 		add	lr, r4, r1
 100 003c 015084E7 		str	r5, [r4, r1]
 101 0040 04308EE5 		str	r3, [lr, #4]
 102 0044 10309DE5 		ldr	r3, [sp, #16]
 103 0048 08308EE5 		str	r3, [lr, #8]
 104 004c 0130A0E3 		mov	r3, #1
 105 0050 08C080E5 		str	ip, [r0, #8]
 106 0054 2430C0E5 		strb	r3, [r0, #36]
 107 0058 0000A0E3 		mov	r0, #0
 108 005c 7080BDE8 		pop	{r4, r5, r6, pc}
 109              	.L10:
 110              		.align	2
 111              	.L9:
 112 0060 00000000 		.word	.LC0
 113              		.fnend
 115              		.section	.text._ZN6tflite18ReverseSortInPlaceEPiS0_i,"ax",%progbits
 116              		.align	2
 117              		.global	_ZN6tflite18ReverseSortInPlaceEPiS0_i
 118              		.syntax unified
 119              		.arm
 120              		.fpu neon
 122              	_ZN6tflite18ReverseSortInPlaceEPiS0_i:
 123              		.fnstart
 124              	.LFB11:
 125              		@ args = 0, pretend = 0, frame = 0
 126              		@ frame_needed = 0, uses_anonymous_args = 0
 127 0000 70402DE9 		push	{r4, r5, r6, lr}
 128              	.L15:
 129 0004 00C0A0E1 		mov	ip, r0
 130 0008 0130A0E1 		mov	r3, r1
 131 000c 01E0A0E3 		mov	lr, #1
 132 0010 0040A0E3 		mov	r4, #0
 133              	.L14:
 134 0014 02005EE1 		cmp	lr, r2
 135 0018 0B0000AA 		bge	.L12
 136 001c 60009CE8 		ldm	ip, {r5, r6}
 137 0020 01E08EE2 		add	lr, lr, #1
 138 0024 04C08CE2 		add	ip, ip, #4
 139 0028 060055E1 		cmp	r5, r6
 140 002c 04600CB5 		strlt	r6, [ip, #-4]
 141 0030 00508CB5 		strlt	r5, [ip]
 142 0034 300093B8 		ldmlt	r3, {r4, r5}
 143 0038 043083E2 		add	r3, r3, #4
 144 003c 004083B5 		strlt	r4, [r3]
 145 0040 0140A0B3 		movlt	r4, #1
 146 0044 045003B5 		strlt	r5, [r3, #-4]
 147 0048 F1FFFFEA 		b	.L14
 148              	.L12:
 149 004c 000054E3 		cmp	r4, #0
 150 0050 EBFFFF1A 		bne	.L15
 151 0054 7080BDE8 		pop	{r4, r5, r6, pc}
 152              		.cantunwind
 153              		.fnend
 155              		.global	__aeabi_idiv
 156              		.section	.text._ZN6tflite19GreedyMemoryPlannerC2EPhi,"ax",%progbits
 157              		.align	2
 158              		.global	_ZN6tflite19GreedyMemoryPlannerC2EPhi
 159              		.syntax unified
 160              		.arm
 161              		.fpu neon
 163              	_ZN6tflite19GreedyMemoryPlannerC2EPhi:
 164              		.fnstart
 165              	.LFB13:
 166              		@ args = 0, pretend = 0, frame = 0
 167              		@ frame_needed = 0, uses_anonymous_args = 0
 168 0000 64309FE5 		ldr	r3, .L21
 169 0004 70402DE9 		push	{r4, r5, r6, lr}
 170 0008 0050A0E1 		mov	r5, r0
 171 000c 0140A0E1 		mov	r4, r1
 172 0010 2410A0E3 		mov	r1, #36
 173 0014 003080E5 		str	r3, [r0]
 174 0018 0030A0E3 		mov	r3, #0
 175 001c 083080E5 		str	r3, [r0, #8]
 176 0020 0130A0E3 		mov	r3, #1
 177 0024 2430C0E5 		strb	r3, [r0, #36]
 178 0028 0200A0E1 		mov	r0, r2
 179 002c FEFFFFEB 		bl	__aeabi_idiv
 180 0030 0C20A0E3 		mov	r2, #12
 181 0034 0031A0E1 		lsl	r3, r0, #2
 182 0038 920002E0 		mul	r2, r2, r0
 183 003c 0C4085E5 		str	r4, [r5, #12]
 184 0040 040085E5 		str	r0, [r5, #4]
 185 0044 024084E0 		add	r4, r4, r2
 186 0048 030084E0 		add	r0, r4, r3
 187 004c 104085E5 		str	r4, [r5, #16]
 188 0050 140085E5 		str	r0, [r5, #20]
 189 0054 030080E0 		add	r0, r0, r3
 190 0058 180085E5 		str	r0, [r5, #24]
 191 005c 020080E0 		add	r0, r0, r2
 192 0060 200085E5 		str	r0, [r5, #32]
 193 0064 0500A0E1 		mov	r0, r5
 194 0068 7080BDE8 		pop	{r4, r5, r6, pc}
 195              	.L22:
 196              		.align	2
 197              	.L21:
 198 006c 08000000 		.word	.LANCHOR0+8
 199              		.cantunwind
 200              		.fnend
 202              		.global	_ZN6tflite19GreedyMemoryPlannerC1EPhi
 203              		.set	_ZN6tflite19GreedyMemoryPlannerC1EPhi,_ZN6tflite19GreedyMemoryPlannerC2EPhi
 204              		.section	.text._ZNK6tflite19GreedyMemoryPlanner22DoesEntryOverlapInTimeEPKNS0_9ListEntryEii,"ax",%
 205              		.align	2
 206              		.global	_ZNK6tflite19GreedyMemoryPlanner22DoesEntryOverlapInTimeEPKNS0_9ListEntryEii
 207              		.syntax unified
 208              		.arm
 209              		.fpu neon
 211              	_ZNK6tflite19GreedyMemoryPlanner22DoesEntryOverlapInTimeEPKNS0_9ListEntryEii:
 212              		.fnstart
 213              	.LFB20:
 214              		@ args = 0, pretend = 0, frame = 0
 215              		@ frame_needed = 0, uses_anonymous_args = 0
 216              		@ link register save eliminated.
 217 0000 0C0090E5 		ldr	r0, [r0, #12]
 218 0004 0CC0A0E3 		mov	ip, #12
 219 0008 041091E5 		ldr	r1, [r1, #4]
 220 000c 9C0121E0 		mla	r1, ip, r1, r0
 221 0010 040091E5 		ldr	r0, [r1, #4]
 222 0014 030050E1 		cmp	r0, r3
 223 0018 040000CA 		bgt	.L25
 224 001c 080091E5 		ldr	r0, [r1, #8]
 225 0020 020050E1 		cmp	r0, r2
 226 0024 0000A0B3 		movlt	r0, #0
 227 0028 0100A0A3 		movge	r0, #1
 228 002c 1EFF2FE1 		bx	lr
 229              	.L25:
 230 0030 0000A0E3 		mov	r0, #0
 231 0034 1EFF2FE1 		bx	lr
 232              		.cantunwind
 233              		.fnend
 235              		.section	.text._ZN6tflite19GreedyMemoryPlanner30NextSimultaneouslyActiveBufferEPKNS0_9ListEntryEii
 236              		.align	2
 237              		.global	_ZN6tflite19GreedyMemoryPlanner30NextSimultaneouslyActiveBufferEPKNS0_9ListEntryEii
 238              		.syntax unified
 239              		.arm
 240              		.fpu neon
 242              	_ZN6tflite19GreedyMemoryPlanner30NextSimultaneouslyActiveBufferEPKNS0_9ListEntryEii:
 243              		.fnstart
 244              	.LFB21:
 245              		@ args = 0, pretend = 0, frame = 0
 246              		@ frame_needed = 0, uses_anonymous_args = 0
 247 0000 000051E3 		cmp	r1, #0
 248 0004 F0412DE9 		push	{r4, r5, r6, r7, r8, lr}
 249 0008 18409005 		ldreq	r4, [r0, #24]
 250 000c 0600000A 		beq	.L28
 251 0010 084091E5 		ldr	r4, [r1, #8]
 252 0014 010074E3 		cmn	r4, #1
 253 0018 0040A003 		moveq	r4, #0
 254 001c 1300000A 		beq	.L26
 255 0020 181090E5 		ldr	r1, [r0, #24]
 256 0024 0CC0A0E3 		mov	ip, #12
 257 0028 9C1424E0 		mla	r4, ip, r4, r1
 258              	.L28:
 259 002c 0370A0E1 		mov	r7, r3
 260 0030 0260A0E1 		mov	r6, r2
 261 0034 0050A0E1 		mov	r5, r0
 262 0038 0C80A0E3 		mov	r8, #12
 263              	.L30:
 264 003c 0730A0E1 		mov	r3, r7
 265 0040 0620A0E1 		mov	r2, r6
 266 0044 0410A0E1 		mov	r1, r4
 267 0048 0500A0E1 		mov	r0, r5
 268 004c FEFFFFEB 		bl	_ZNK6tflite19GreedyMemoryPlanner22DoesEntryOverlapInTimeEPKNS0_9ListEntryEii
 269 0050 000050E3 		cmp	r0, #0
 270 0054 0500001A 		bne	.L26
 271 0058 084094E5 		ldr	r4, [r4, #8]
 272 005c 010074E3 		cmn	r4, #1
 273 0060 18309515 		ldrne	r3, [r5, #24]
 274 0064 98342410 		mlane	r4, r8, r4, r3
 275 0068 F3FFFF1A 		bne	.L30
 276              	.L32:
 277 006c 0040A0E1 		mov	r4, r0
 278              	.L26:
 279 0070 0400A0E1 		mov	r0, r4
 280 0074 F081BDE8 		pop	{r4, r5, r6, r7, r8, pc}
 281              		.cantunwind
 282              		.fnend
 284              		.section	.text._ZN6tflite19GreedyMemoryPlanner24CalculateOffsetsIfNeededEv,"ax",%progbits
 285              		.align	2
 286              		.global	_ZN6tflite19GreedyMemoryPlanner24CalculateOffsetsIfNeededEv
 287              		.syntax unified
 288              		.arm
 289              		.fpu neon
 291              	_ZN6tflite19GreedyMemoryPlanner24CalculateOffsetsIfNeededEv:
 292              		.fnstart
 293              	.LFB22:
 294              		@ args = 0, pretend = 0, frame = 24
 295              		@ frame_needed = 0, uses_anonymous_args = 0
 296 0000 2430D0E5 		ldrb	r3, [r0, #36]	@ zero_extendqisi2
 297 0004 000053E3 		cmp	r3, #0
 298 0008 1EFF2F01 		bxeq	lr
 299 000c 083090E5 		ldr	r3, [r0, #8]
 300 0010 000053E3 		cmp	r3, #0
 301 0014 1EFF2F01 		bxeq	lr
 302 0018 F04F2DE9 		push	{r4, r5, r6, r7, r8, r9, r10, fp, lr}
 303 001c 0010E0E3 		mvn	r1, #0
 304 0020 1CD04DE2 		sub	sp, sp, #28
 305 0024 0CE0A0E3 		mov	lr, #12
 306 0028 0030A0E3 		mov	r3, #0
 307 002c 2430C0E5 		strb	r3, [r0, #36]
 308              	.L37:
 309 0030 082090E5 		ldr	r2, [r0, #8]
 310 0034 030052E1 		cmp	r2, r3
 311 0038 0A0000DA 		ble	.L36
 312 003c 9E0302E0 		mul	r2, lr, r3
 313 0040 0CC090E5 		ldr	ip, [r0, #12]
 314 0044 02C09CE7 		ldr	ip, [ip, r2]
 315 0048 102090E5 		ldr	r2, [r0, #16]
 316 004c 03C182E7 		str	ip, [r2, r3, lsl #2]
 317 0050 142090E5 		ldr	r2, [r0, #20]
 318 0054 033182E7 		str	r3, [r2, r3, lsl #2]
 319 0058 202090E5 		ldr	r2, [r0, #32]
 320 005c 031182E7 		str	r1, [r2, r3, lsl #2]
 321 0060 013083E2 		add	r3, r3, #1
 322 0064 F1FFFFEA 		b	.L37
 323              	.L36:
 324 0068 0040A0E1 		mov	r4, r0
 325 006c 141090E5 		ldr	r1, [r0, #20]
 326 0070 100090E5 		ldr	r0, [r0, #16]
 327 0074 0160A0E3 		mov	r6, #1
 328 0078 FEFFFFEB 		bl	_ZN6tflite18ReverseSortInPlaceEPiS0_i
 329 007c 142094E5 		ldr	r2, [r4, #20]
 330 0080 0030A0E3 		mov	r3, #0
 331 0084 188094E5 		ldr	r8, [r4, #24]
 332 0088 0CA0A0E3 		mov	r10, #12
 333 008c 189094E5 		ldr	r9, [r4, #24]
 334 0090 003088E5 		str	r3, [r8]
 335 0094 001092E5 		ldr	r1, [r2]
 336 0098 041088E5 		str	r1, [r8, #4]
 337 009c 0010E0E3 		mvn	r1, #0
 338 00a0 081088E5 		str	r1, [r8, #8]
 339 00a4 1C6084E5 		str	r6, [r4, #28]
 340 00a8 001092E5 		ldr	r1, [r2]
 341 00ac 202094E5 		ldr	r2, [r4, #32]
 342 00b0 013182E7 		str	r3, [r2, r1, lsl #2]
 343 00b4 143094E5 		ldr	r3, [r4, #20]
 344 00b8 10308DE5 		str	r3, [sp, #16]
 345 00bc 203094E5 		ldr	r3, [r4, #32]
 346 00c0 14308DE5 		str	r3, [sp, #20]
 347              	.L45:
 348 00c4 083094E5 		ldr	r3, [r4, #8]
 349 00c8 060053E1 		cmp	r3, r6
 350 00cc 410000DA 		ble	.L34
 351 00d0 10309DE5 		ldr	r3, [sp, #16]
 352 00d4 0050A0E3 		mov	r5, #0
 353 00d8 0CB094E5 		ldr	fp, [r4, #12]
 354 00dc 0570A0E1 		mov	r7, r5
 355 00e0 063193E7 		ldr	r3, [r3, r6, lsl #2]
 356 00e4 00308DE5 		str	r3, [sp]
 357 00e8 9A0302E0 		mul	r2, r10, r3
 358 00ec 02308BE0 		add	r3, fp, r2
 359 00f0 02209BE7 		ldr	r2, [fp, r2]
 360 00f4 04208DE5 		str	r2, [sp, #4]
 361 00f8 042093E5 		ldr	r2, [r3, #4]
 362 00fc 083093E5 		ldr	r3, [r3, #8]
 363 0100 08208DE5 		str	r2, [sp, #8]
 364 0104 0C308DE5 		str	r3, [sp, #12]
 365              	.L42:
 366 0108 0C309DE5 		ldr	r3, [sp, #12]
 367 010c 0710A0E1 		mov	r1, r7
 368 0110 08209DE5 		ldr	r2, [sp, #8]
 369 0114 0400A0E1 		mov	r0, r4
 370 0118 FEFFFFEB 		bl	_ZN6tflite19GreedyMemoryPlanner30NextSimultaneouslyActiveBufferEPKNS0_9ListEntryEii
 371 011c 000057E3 		cmp	r7, #0
 372 0120 0600000A 		beq	.L38
 373 0124 043097E5 		ldr	r3, [r7, #4]
 374 0128 002097E5 		ldr	r2, [r7]
 375 012c 9A0303E0 		mul	r3, r10, r3
 376 0130 03309BE7 		ldr	r3, [fp, r3]
 377 0134 023083E0 		add	r3, r3, r2
 378 0138 030055E1 		cmp	r5, r3
 379 013c 0350A0B1 		movlt	r5, r3
 380              	.L38:
 381 0140 000050E3 		cmp	r0, #0
 382 0144 1200001A 		bne	.L39
 383              	.L41:
 384 0148 14309DE5 		ldr	r3, [sp, #20]
 385 014c 00209DE5 		ldr	r2, [sp]
 386 0150 025183E7 		str	r5, [r3, r2, lsl #2]
 387 0154 1C2094E5 		ldr	r2, [r4, #28]
 388 0158 9A0203E0 		mul	r3, r10, r2
 389 015c 035089E7 		str	r5, [r9, r3]
 390 0160 030089E0 		add	r0, r9, r3
 391 0164 00309DE5 		ldr	r3, [sp]
 392 0168 043080E5 		str	r3, [r0, #4]
 393 016c 013082E2 		add	r3, r2, #1
 394 0170 1C3084E5 		str	r3, [r4, #28]
 395 0174 0830A0E1 		mov	r3, r8
 396              	.L40:
 397 0178 081093E5 		ldr	r1, [r3, #8]
 398 017c 010071E3 		cmn	r1, #1
 399 0180 0C00001A 		bne	.L43
 400 0184 082083E5 		str	r2, [r3, #8]
 401 0188 081080E5 		str	r1, [r0, #8]
 402              	.L44:
 403 018c 016086E2 		add	r6, r6, #1
 404 0190 CBFFFFEA 		b	.L45
 405              	.L39:
 406 0194 003090E5 		ldr	r3, [r0]
 407 0198 0070A0E1 		mov	r7, r0
 408 019c 04209DE5 		ldr	r2, [sp, #4]
 409 01a0 053043E0 		sub	r3, r3, r5
 410 01a4 030052E1 		cmp	r2, r3
 411 01a8 D6FFFFCA 		bgt	.L42
 412 01ac E5FFFFEA 		b	.L41
 413              	.L46:
 414 01b0 0E30A0E1 		mov	r3, lr
 415 01b4 EFFFFFEA 		b	.L40
 416              	.L43:
 417 01b8 9A010CE0 		mul	ip, r10, r1
 418 01bc 0CE089E0 		add	lr, r9, ip
 419 01c0 0CC099E7 		ldr	ip, [r9, ip]
 420 01c4 0C0055E1 		cmp	r5, ip
 421 01c8 F8FFFFAA 		bge	.L46
 422 01cc 081080E5 		str	r1, [r0, #8]
 423 01d0 082083E5 		str	r2, [r3, #8]
 424 01d4 ECFFFFEA 		b	.L44
 425              	.L34:
 426 01d8 1CD08DE2 		add	sp, sp, #28
 427              		@ sp needed
 428 01dc F08FBDE8 		pop	{r4, r5, r6, r7, r8, r9, r10, fp, pc}
 429              		.cantunwind
 430              		.fnend
 432              		.section	.text._ZN6tflite19GreedyMemoryPlanner20GetMaximumMemorySizeEv,"ax",%progbits
 433              		.align	2
 434              		.global	_ZN6tflite19GreedyMemoryPlanner20GetMaximumMemorySizeEv
 435              		.syntax unified
 436              		.arm
 437              		.fpu neon
 439              	_ZN6tflite19GreedyMemoryPlanner20GetMaximumMemorySizeEv:
 440              		.fnstart
 441              	.LFB23:
 442              		@ args = 0, pretend = 0, frame = 0
 443              		@ frame_needed = 0, uses_anonymous_args = 0
 444 0000 10402DE9 		push	{r4, lr}
 445 0004 0040A0E1 		mov	r4, r0
 446 0008 FEFFFFEB 		bl	_ZN6tflite19GreedyMemoryPlanner24CalculateOffsetsIfNeededEv
 447 000c 080094E5 		ldr	r0, [r4, #8]
 448 0010 000050E3 		cmp	r0, #0
 449 0014 1080BD08 		popeq	{r4, pc}
 450 0018 181094E5 		ldr	r1, [r4, #24]
 451 001c 0000A0E3 		mov	r0, #0
 452 0020 0CC0A0E3 		mov	ip, #12
 453 0024 0130A0E1 		mov	r3, r1
 454              	.L62:
 455 0028 000053E3 		cmp	r3, #0
 456 002c 1080BD08 		popeq	{r4, pc}
 457 0030 042093E5 		ldr	r2, [r3, #4]
 458 0034 0CE094E5 		ldr	lr, [r4, #12]
 459 0038 9C0202E0 		mul	r2, ip, r2
 460 003c 02209EE7 		ldr	r2, [lr, r2]
 461 0040 00E093E5 		ldr	lr, [r3]
 462 0044 083093E5 		ldr	r3, [r3, #8]
 463 0048 0E2082E0 		add	r2, r2, lr
 464 004c 020050E1 		cmp	r0, r2
 465 0050 0200A031 		movcc	r0, r2
 466 0054 010073E3 		cmn	r3, #1
 467 0058 1080BD08 		popeq	{r4, pc}
 468 005c 9C1323E0 		mla	r3, ip, r3, r1
 469 0060 F0FFFFEA 		b	.L62
 470              		.cantunwind
 471              		.fnend
 473              		.section	.text._ZN6tflite19GreedyMemoryPlanner18GetOffsetForBufferEPNS_13ErrorReporterEiPi,"ax",%p
 474              		.align	2
 475              		.global	_ZN6tflite19GreedyMemoryPlanner18GetOffsetForBufferEPNS_13ErrorReporterEiPi
 476              		.syntax unified
 477              		.arm
 478              		.fpu neon
 480              	_ZN6tflite19GreedyMemoryPlanner18GetOffsetForBufferEPNS_13ErrorReporterEiPi:
 481              		.fnstart
 482              	.LFB26:
 483              		@ args = 0, pretend = 0, frame = 0
 484              		@ frame_needed = 0, uses_anonymous_args = 0
 485 0000 F0412DE9 		push	{r4, r5, r6, r7, r8, lr}
 486              		.save {r4, r5, r6, r7, r8, lr}
 487 0004 0240A0E1 		mov	r4, r2
 488 0008 0050A0E1 		mov	r5, r0
 489 000c 0170A0E1 		mov	r7, r1
 490 0010 0360A0E1 		mov	r6, r3
 491 0014 FEFFFFEB 		bl	_ZN6tflite19GreedyMemoryPlanner24CalculateOffsetsIfNeededEv
 492 0018 000054E3 		cmp	r4, #0
 493 001c 020000BA 		blt	.L72
 494 0020 083095E5 		ldr	r3, [r5, #8]
 495 0024 030054E1 		cmp	r4, r3
 496 0028 060000BA 		blt	.L73
 497              	.L72:
 498 002c 083095E5 		ldr	r3, [r5, #8]
 499 0030 0420A0E1 		mov	r2, r4
 500 0034 20109FE5 		ldr	r1, .L76
 501 0038 0700A0E1 		mov	r0, r7
 502 003c FEFFFFEB 		bl	_ZN6tflite13ErrorReporter6ReportEPKcz
 503 0040 0100A0E3 		mov	r0, #1
 504 0044 F081BDE8 		pop	{r4, r5, r6, r7, r8, pc}
 505              	.L73:
 506 0048 203095E5 		ldr	r3, [r5, #32]
 507 004c 0000A0E3 		mov	r0, #0
 508 0050 043193E7 		ldr	r3, [r3, r4, lsl #2]
 509 0054 003086E5 		str	r3, [r6]
 510 0058 F081BDE8 		pop	{r4, r5, r6, r7, r8, pc}
 511              	.L77:
 512              		.align	2
 513              	.L76:
 514 005c 00000000 		.word	.LC1
 515              		.fnend
 517              		.section	.text._ZN6tflite19GreedyMemoryPlanner15PrintMemoryPlanEPNS_13ErrorReporterE,"ax",%progbit
 518              		.align	2
 519              		.global	_ZN6tflite19GreedyMemoryPlanner15PrintMemoryPlanEPNS_13ErrorReporterE
 520              		.syntax unified
 521              		.arm
 522              		.fpu neon
 524              	_ZN6tflite19GreedyMemoryPlanner15PrintMemoryPlanEPNS_13ErrorReporterE:
 525              		.fnstart
 526              	.LFB24:
 527              		@ args = 0, pretend = 0, frame = 104
 528              		@ frame_needed = 0, uses_anonymous_args = 0
 529 0000 F04F2DE9 		push	{r4, r5, r6, r7, r8, r9, r10, fp, lr}
 530              		.save {r4, r5, r6, r7, r8, r9, r10, fp, lr}
 531 0004 0040A0E3 		mov	r4, #0
 532 0008 E8619FE5 		ldr	r6, .L104
 533 000c 0C70A0E3 		mov	r7, #12
 534              		.pad #124
 535 0010 7CD04DE2 		sub	sp, sp, #124
 536 0014 0050A0E1 		mov	r5, r0
 537 0018 01A0A0E1 		mov	r10, r1
 538 001c FEFFFFEB 		bl	_ZN6tflite19GreedyMemoryPlanner24CalculateOffsetsIfNeededEv
 539              	.L81:
 540 0020 08C095E5 		ldr	ip, [r5, #8]
 541 0024 0C0054E1 		cmp	r4, ip
 542 0028 130000BA 		blt	.L79
 543 002c 0030A0E3 		mov	r3, #0
 544 0030 5080A0E3 		mov	r8, #80
 545 0034 0390A0E1 		mov	r9, r3
 546 0038 0C40A0E3 		mov	r4, #12
 547              	.L80:
 548 003c 0C0053E1 		cmp	r3, ip
 549 0040 1E0000AA 		bge	.L82
 550 0044 940301E0 		mul	r1, r4, r3
 551 0048 0C0095E5 		ldr	r0, [r5, #12]
 552 004c 202095E5 		ldr	r2, [r5, #32]
 553 0050 01E080E0 		add	lr, r0, r1
 554 0054 032192E7 		ldr	r2, [r2, r3, lsl #2]
 555 0058 011090E7 		ldr	r1, [r0, r1]
 556 005c 013083E2 		add	r3, r3, #1
 557 0060 012082E0 		add	r2, r2, r1
 558 0064 020058E1 		cmp	r8, r2
 559 0068 0280A0B1 		movlt	r8, r2
 560 006c 08209EE5 		ldr	r2, [lr, #8]
 561 0070 020059E1 		cmp	r9, r2
 562 0074 0290A0B1 		movlt	r9, r2
 563 0078 EFFFFFEA 		b	.L80
 564              	.L79:
 565 007c 970403E0 		mul	r3, r7, r4
 566 0080 0C2095E5 		ldr	r2, [r5, #12]
 567 0084 200095E5 		ldr	r0, [r5, #32]
 568 0088 031082E0 		add	r1, r2, r3
 569 008c 08C091E5 		ldr	ip, [r1, #8]
 570 0090 08C08DE5 		str	ip, [sp, #8]
 571 0094 041091E5 		ldr	r1, [r1, #4]
 572 0098 04108DE5 		str	r1, [sp, #4]
 573 009c 0610A0E1 		mov	r1, r6
 574 00a0 033092E7 		ldr	r3, [r2, r3]
 575 00a4 0420A0E1 		mov	r2, r4
 576 00a8 00308DE5 		str	r3, [sp]
 577 00ac 043190E7 		ldr	r3, [r0, r4, lsl #2]
 578 00b0 0A00A0E1 		mov	r0, r10
 579 00b4 FEFFFFEB 		bl	_ZN6tflite13ErrorReporter6ReportEPKcz
 580 00b8 014084E2 		add	r4, r4, #1
 581 00bc D7FFFFEA 		b	.L81
 582              	.L82:
 583 00c0 0070A0E3 		mov	r7, #0
 584              	.L93:
 585 00c4 0060A0E3 		mov	r6, #0
 586 00c8 24B08DE2 		add	fp, sp, #36
 587 00cc 2E30A0E3 		mov	r3, #46
 588              	.L83:
 589 00d0 0B30C6E7 		strb	r3, [r6, fp]
 590 00d4 016086E2 		add	r6, r6, #1
 591 00d8 500056E3 		cmp	r6, #80
 592 00dc FBFFFF1A 		bne	.L83
 593 00e0 083095E5 		ldr	r3, [r5, #8]
 594 00e4 0040A0E3 		mov	r4, #0
 595 00e8 14308DE5 		str	r3, [sp, #20]
 596              	.L92:
 597 00ec 14309DE5 		ldr	r3, [sp, #20]
 598 00f0 030054E1 		cmp	r4, r3
 599 00f4 340000AA 		bge	.L84
 600 00f8 0C30A0E3 		mov	r3, #12
 601 00fc 0C1095E5 		ldr	r1, [r5, #12]
 602 0100 930403E0 		mul	r3, r3, r4
 603 0104 032081E0 		add	r2, r1, r3
 604 0108 040092E5 		ldr	r0, [r2, #4]
 605 010c 070050E1 		cmp	r0, r7
 606 0110 2B0000CA 		bgt	.L85
 607 0114 082092E5 		ldr	r2, [r2, #8]
 608 0118 070052E1 		cmp	r2, r7
 609 011c 280000BA 		blt	.L85
 610 0120 202095E5 		ldr	r2, [r5, #32]
 611 0124 042192E7 		ldr	r2, [r2, r4, lsl #2]
 612 0128 010072E3 		cmn	r2, #1
 613 012c 2400000A 		beq	.L85
 614 0130 030091E7 		ldr	r0, [r1, r3]
 615 0134 0810A0E1 		mov	r1, r8
 616 0138 1C208DE5 		str	r2, [sp, #28]
 617 013c 000082E0 		add	r0, r2, r0
 618 0140 960000E0 		mul	r0, r6, r0
 619 0144 FEFFFFEB 		bl	__aeabi_idiv
 620 0148 1C209DE5 		ldr	r2, [sp, #28]
 621 014c 0810A0E1 		mov	r1, r8
 622 0150 18008DE5 		str	r0, [sp, #24]
 623 0154 960200E0 		mul	r0, r6, r2
 624 0158 FEFFFFEB 		bl	__aeabi_idiv
 625 015c 1D2084E2 		add	r2, r4, #29
 626 0160 571084E2 		add	r1, r4, #87
 627 0164 30C084E2 		add	ip, r4, #48
 628 0168 18309DE5 		ldr	r3, [sp, #24]
 629 016c 7220EFE6 		uxtb	r2, r2
 630 0170 7110EFE6 		uxtb	r1, r1
 631 0174 7CC0EFE6 		uxtb	ip, ip
 632 0178 00008BE0 		add	r0, fp, r0
 633              	.L91:
 634 017c 0BE040E0 		sub	lr, r0, fp
 635 0180 03005EE1 		cmp	lr, r3
 636 0184 0E0000AA 		bge	.L85
 637 0188 01E0D0E4 		ldrb	lr, [r0], #1	@ zero_extendqisi2
 638 018c 2E005EE3 		cmp	lr, #46
 639 0190 21E0A013 		movne	lr, #33
 640 0194 0800001A 		bne	.L103
 641 0198 090054E3 		cmp	r4, #9
 642 019c 0CE0A0D1 		movle	lr, ip
 643 01a0 050000DA 		ble	.L103
 644 01a4 230054E3 		cmp	r4, #35
 645 01a8 01E0A0D1 		movle	lr, r1
 646 01ac 020000DA 		ble	.L103
 647 01b0 3D0054E3 		cmp	r4, #61
 648 01b4 02E0A0D1 		movle	lr, r2
 649 01b8 2AE0A0C3 		movgt	lr, #42
 650              	.L103:
 651 01bc 01E040E5 		strb	lr, [r0, #-1]
 652 01c0 EDFFFFEA 		b	.L91
 653              	.L85:
 654 01c4 014084E2 		add	r4, r4, #1
 655 01c8 C7FFFFEA 		b	.L92
 656              	.L84:
 657 01cc 0030A0E3 		mov	r3, #0
 658 01d0 0B20A0E1 		mov	r2, fp
 659 01d4 20109FE5 		ldr	r1, .L104+4
 660 01d8 0A00A0E1 		mov	r0, r10
 661 01dc 017087E2 		add	r7, r7, #1
 662 01e0 7430CDE5 		strb	r3, [sp, #116]
 663 01e4 FEFFFFEB 		bl	_ZN6tflite13ErrorReporter6ReportEPKcz
 664 01e8 070059E1 		cmp	r9, r7
 665 01ec B4FFFFAA 		bge	.L93
 666 01f0 7CD08DE2 		add	sp, sp, #124
 667              		@ sp needed
 668 01f4 F08FBDE8 		pop	{r4, r5, r6, r7, r8, r9, r10, fp, pc}
 669              	.L105:
 670              		.align	2
 671              	.L104:
 672 01f8 00000000 		.word	.LC2
 673 01fc 6C000000 		.word	.LC3
 674              		.fnend
 676              		.section	.text._ZN6tflite19GreedyMemoryPlanner19DoAnyBuffersOverlapEPNS_13ErrorReporterE,"ax",%pro
 677              		.align	2
 678              		.global	_ZN6tflite19GreedyMemoryPlanner19DoAnyBuffersOverlapEPNS_13ErrorReporterE
 679              		.syntax unified
 680              		.arm
 681              		.fpu neon
 683              	_ZN6tflite19GreedyMemoryPlanner19DoAnyBuffersOverlapEPNS_13ErrorReporterE:
 684              		.fnstart
 685              	.LFB27:
 686              		@ args = 0, pretend = 0, frame = 8
 687              		@ frame_needed = 0, uses_anonymous_args = 0
 688 0000 F04F2DE9 		push	{r4, r5, r6, r7, r8, r9, r10, fp, lr}
 689              		.save {r4, r5, r6, r7, r8, r9, r10, fp, lr}
 690 0004 0040A0E3 		mov	r4, #0
 691              		.pad #44
 692 0008 2CD04DE2 		sub	sp, sp, #44
 693 000c 0060A0E1 		mov	r6, r0
 694 0010 0C90A0E3 		mov	r9, #12
 695 0014 24108DE5 		str	r1, [sp, #36]
 696 0018 FEFFFFEB 		bl	_ZN6tflite19GreedyMemoryPlanner24CalculateOffsetsIfNeededEv
 697 001c 0400A0E1 		mov	r0, r4
 698              	.L111:
 699 0020 083096E5 		ldr	r3, [r6, #8]
 700 0024 030054E1 		cmp	r4, r3
 701 0028 350000AA 		bge	.L107
 702 002c 990403E0 		mul	r3, r9, r4
 703 0030 0C2096E5 		ldr	r2, [r6, #12]
 704 0034 20C096E5 		ldr	ip, [r6, #32]
 705 0038 0050A0E3 		mov	r5, #0
 706 003c 031082E0 		add	r1, r2, r3
 707 0040 04819CE7 		ldr	r8, [ip, r4, lsl #2]
 708 0044 037092E7 		ldr	r7, [r2, r3]
 709 0048 000C91E9 		ldmib	r1, {r10, fp}
 710 004c 077088E0 		add	r7, r8, r7
 711              	.L110:
 712 0050 083096E5 		ldr	r3, [r6, #8]
 713 0054 030055E1 		cmp	r5, r3
 714 0058 270000AA 		bge	.L108
 715 005c 050054E1 		cmp	r4, r5
 716 0060 2300000A 		beq	.L109
 717 0064 990503E0 		mul	r3, r9, r5
 718 0068 0C1096E5 		ldr	r1, [r6, #12]
 719 006c 032081E0 		add	r2, r1, r3
 720 0070 005092E9 		ldmib	r2, {ip, lr}
 721 0074 0C005BE1 		cmp	fp, ip
 722 0078 0020A0A3 		movge	r2, #0
 723 007c 0120A0B3 		movlt	r2, #1
 724 0080 0E005AE1 		cmp	r10, lr
 725 0084 012082C3 		orrgt	r2, r2, #1
 726 0088 000052E3 		cmp	r2, #0
 727 008c 1800001A 		bne	.L109
 728 0090 202096E5 		ldr	r2, [r6, #32]
 729 0094 033091E7 		ldr	r3, [r1, r3]
 730 0098 052192E7 		ldr	r2, [r2, r5, lsl #2]
 731 009c 020057E1 		cmp	r7, r2
 732 00a0 033082E0 		add	r3, r2, r3
 733 00a4 0010A0C3 		movgt	r1, #0
 734 00a8 0110A0D3 		movle	r1, #1
 735 00ac 030058E1 		cmp	r8, r3
 736 00b0 011081A3 		orrge	r1, r1, #1
 737 00b4 000051E3 		cmp	r1, #0
 738 00b8 0D00001A 		bne	.L109
 739 00bc 1C308DE5 		str	r3, [sp, #28]
 740 00c0 0A30A0E1 		mov	r3, r10
 741 00c4 18208DE5 		str	r2, [sp, #24]
 742 00c8 0420A0E1 		mov	r2, r4
 743 00cc 14E08DE5 		str	lr, [sp, #20]
 744 00d0 10C08DE5 		str	ip, [sp, #16]
 745 00d4 0C508DE5 		str	r5, [sp, #12]
 746 00d8 08708DE5 		str	r7, [sp, #8]
 747 00dc 04808DE5 		str	r8, [sp, #4]
 748 00e0 00B08DE5 		str	fp, [sp]
 749 00e4 20109FE5 		ldr	r1, .L113
 750 00e8 24009DE5 		ldr	r0, [sp, #36]
 751 00ec FEFFFFEB 		bl	_ZN6tflite13ErrorReporter6ReportEPKcz
 752 00f0 0100A0E3 		mov	r0, #1
 753              	.L109:
 754 00f4 015085E2 		add	r5, r5, #1
 755 00f8 D4FFFFEA 		b	.L110
 756              	.L108:
 757 00fc 014084E2 		add	r4, r4, #1
 758 0100 C6FFFFEA 		b	.L111
 759              	.L107:
 760 0104 2CD08DE2 		add	sp, sp, #44
 761              		@ sp needed
 762 0108 F08FBDE8 		pop	{r4, r5, r6, r7, r8, r9, r10, fp, pc}
 763              	.L114:
 764              		.align	2
 765              	.L113:
 766 010c 00000000 		.word	.LC4
 767              		.fnend
 769              		.weak	_ZTSN6tflite13MemoryPlannerE
 770              		.section	.rodata._ZTSN6tflite13MemoryPlannerE,"aG",%progbits,_ZTSN6tflite13MemoryPlannerE,comdat
 773              	_ZTSN6tflite13MemoryPlannerE:
 774 0000 4E367466 		.ascii	"N6tflite13MemoryPlannerE\000"
 774      6C697465 
 774      31334D65 
 774      6D6F7279 
 774      506C616E 
 775              		.weak	_ZTIN6tflite13MemoryPlannerE
 776              		.section	.rodata._ZTIN6tflite13MemoryPlannerE,"aG",%progbits,_ZTIN6tflite13MemoryPlannerE,comdat
 777              		.align	2
 780              	_ZTIN6tflite13MemoryPlannerE:
 781 0000 08000000 		.word	_ZTVN10__cxxabiv117__class_type_infoE+8
 782 0004 00000000 		.word	_ZTSN6tflite13MemoryPlannerE
 783              		.global	_ZTSN6tflite19GreedyMemoryPlannerE
 784              		.global	_ZTIN6tflite19GreedyMemoryPlannerE
 785              		.global	_ZTVN6tflite19GreedyMemoryPlannerE
 786              		.section	.rodata._ZN6tflite19GreedyMemoryPlanner15PrintMemoryPlanEPNS_13ErrorReporterE.str1.1,"aMS
 787              	.LC2:
 788 0000 506C616E 		.ascii	"Planner buffer ID: %d, calculated offset: %d, size "
 788      6E657220 
 788      62756666 
 788      65722049 
 788      443A2025 
 789 0033 72657175 		.ascii	"required: %d, first_time_created: %d, last_time_use"
 789      69726564 
 789      3A202564 
 789      2C206669 
 789      7273745F 
 790 0066 643A2025 		.ascii	"d: %d\000"
 790      6400
 791              	.LC3:
 792 006c 257300   		.ascii	"%s\000"
 793              		.section	.rodata._ZN6tflite19GreedyMemoryPlanner18GetOffsetForBufferEPNS_13ErrorReporterEiPi.str1.
 794              	.LC1:
 795 0000 62756666 		.ascii	"buffer index %d is outside range 0 to %d\000"
 795      65722069 
 795      6E646578 
 795      20256420 
 795      6973206F 
 796              		.section	.rodata._ZN6tflite19GreedyMemoryPlanner19DoAnyBuffersOverlapEPNS_13ErrorReporterE.str1.1,
 797              	.LC4:
 798 0000 4F766572 		.ascii	"Overlap: %d (%d=>%d, %d->%d) vs %d (%d=>%d, %d->%d)"
 798      6C61703A 
 798      20256420 
 798      2825643D 
 798      3E25642C 
 799 0033 00       		.ascii	"\000"
 800              		.section	.rodata._ZN6tflite19GreedyMemoryPlanner9AddBufferEPNS_13ErrorReporterEiii.str1.1,"aMS",%p
 801              	.LC0:
 802 0000 546F6F20 		.ascii	"Too many buffers (max is %d)\000"
 802      6D616E79 
 802      20627566 
 802      66657273 
 802      20286D61 
 803              		.section	.rodata._ZTIN6tflite19GreedyMemoryPlannerE,"a",%progbits
 804              		.align	2
 807              	_ZTIN6tflite19GreedyMemoryPlannerE:
 808 0000 08000000 		.word	_ZTVN10__cxxabiv120__si_class_type_infoE+8
 809 0004 00000000 		.word	_ZTSN6tflite19GreedyMemoryPlannerE
 810 0008 00000000 		.word	_ZTIN6tflite13MemoryPlannerE
 811              		.section	.rodata._ZTSN6tflite19GreedyMemoryPlannerE,"a",%progbits
 814              	_ZTSN6tflite19GreedyMemoryPlannerE:
 815 0000 4E367466 		.ascii	"N6tflite19GreedyMemoryPlannerE\000"
 815      6C697465 
 815      31394772 
 815      65656479 
 815      4D656D6F 
 816              		.section	.rodata._ZTVN6tflite19GreedyMemoryPlannerE,"a",%progbits
 817              		.align	2
 818              		.set	.LANCHOR0,. + 0
 821              	_ZTVN6tflite19GreedyMemoryPlannerE:
 822 0000 00000000 		.word	0
 823 0004 00000000 		.word	_ZTIN6tflite19GreedyMemoryPlannerE
 824 0008 00000000 		.word	_ZN6tflite19GreedyMemoryPlannerD1Ev
 825 000c 00000000 		.word	_ZN6tflite19GreedyMemoryPlannerD0Ev
 826 0010 00000000 		.word	_ZN6tflite19GreedyMemoryPlanner9AddBufferEPNS_13ErrorReporterEiii
 827 0014 00000000 		.word	_ZN6tflite19GreedyMemoryPlanner20GetMaximumMemorySizeEv
 828 0018 00000000 		.word	_ZN6tflite19GreedyMemoryPlanner14GetBufferCountEv
 829 001c 00000000 		.word	_ZN6tflite19GreedyMemoryPlanner18GetOffsetForBufferEPNS_13ErrorReporterEiPi
 830              		.ident	"GCC: (GNU Tools for ARM Embedded Processors 6-2017-q2-update) 6.3.1 20170620 (release) [AR