   1              		.cpu cortex-a9
   2              		.eabi_attribute 28, 1
   3              		.eabi_attribute 20, 1
   4              		.eabi_attribute 21, 1
   5              		.eabi_attribute 23, 3
   6              		.eabi_attribute 24, 1
   7              		.eabi_attribute 25, 1
   8              		.eabi_attribute 26, 1
   9              		.eabi_attribute 30, 4
  10              		.eabi_attribute 34, 0
  11              		.eabi_attribute 18, 4
  12              		.file	"linear_memory_planner.cpp"
  13              		.section	.text._ZN6tflite19LinearMemoryPlannerD2Ev,"ax",%progbits
  14              		.align	2
  15              		.global	_ZN6tflite19LinearMemoryPlannerD2Ev
  16              		.syntax unified
  17              		.arm
  18              		.fpu neon
  20              	_ZN6tflite19LinearMemoryPlannerD2Ev:
  21              		.fnstart
  22              	.LFB15:
  23              		@ args = 0, pretend = 0, frame = 0
  24              		@ frame_needed = 0, uses_anonymous_args = 0
  25              		@ link register save eliminated.
  26 0000 1EFF2FE1 		bx	lr
  27              		.cantunwind
  28              		.fnend
  30              		.global	_ZN6tflite19LinearMemoryPlannerD1Ev
  31              		.set	_ZN6tflite19LinearMemoryPlannerD1Ev,_ZN6tflite19LinearMemoryPlannerD2Ev
  32              		.section	.text._ZN6tflite19LinearMemoryPlanner20GetMaximumMemorySizeEv,"ax",%progbits
  33              		.align	2
  34              		.global	_ZN6tflite19LinearMemoryPlanner20GetMaximumMemorySizeEv
  35              		.syntax unified
  36              		.arm
  37              		.fpu neon
  39              	_ZN6tflite19LinearMemoryPlanner20GetMaximumMemorySizeEv:
  40              		.fnstart
  41              	.LFB19:
  42              		@ args = 0, pretend = 0, frame = 0
  43              		@ frame_needed = 0, uses_anonymous_args = 0
  44              		@ link register save eliminated.
  45 0000 010A80E2 		add	r0, r0, #4096
  46 0004 080090E5 		ldr	r0, [r0, #8]
  47 0008 1EFF2FE1 		bx	lr
  48              		.cantunwind
  49              		.fnend
  51              		.section	.text._ZN6tflite19LinearMemoryPlanner14GetBufferCountEv,"ax",%progbits
  52              		.align	2
  53              		.global	_ZN6tflite19LinearMemoryPlanner14GetBufferCountEv
  54              		.syntax unified
  55              		.arm
  56              		.fpu neon
  58              	_ZN6tflite19LinearMemoryPlanner14GetBufferCountEv:
  59              		.fnstart
  60              	.LFB20:
  61              		@ args = 0, pretend = 0, frame = 0
  62              		@ frame_needed = 0, uses_anonymous_args = 0
  63              		@ link register save eliminated.
  64 0000 010A80E2 		add	r0, r0, #4096
  65 0004 040090E5 		ldr	r0, [r0, #4]
  66 0008 1EFF2FE1 		bx	lr
  67              		.cantunwind
  68              		.fnend
  70              		.section	.text._ZN6tflite19LinearMemoryPlannerD0Ev,"ax",%progbits
  71              		.align	2
  72              		.global	_ZN6tflite19LinearMemoryPlannerD0Ev
  73              		.syntax unified
  74              		.arm
  75              		.fpu neon
  77              	_ZN6tflite19LinearMemoryPlannerD0Ev:
  78              		.fnstart
  79              	.LFB17:
  80              		@ args = 0, pretend = 0, frame = 0
  81              		@ frame_needed = 0, uses_anonymous_args = 0
  82 0000 10402DE9 		push	{r4, lr}
  83 0004 0C1001E3 		movw	r1, #4108
  84 0008 0040A0E1 		mov	r4, r0
  85 000c FEFFFFEB 		bl	_ZdlPvj
  86 0010 0400A0E1 		mov	r0, r4
  87 0014 1080BDE8 		pop	{r4, pc}
  88              		.cantunwind
  89              		.fnend
  91              		.section	.text._ZN6tflite19LinearMemoryPlanner9AddBufferEPNS_13ErrorReporterEiii,"ax",%progbits
  92              		.align	2
  93              		.global	_ZN6tflite19LinearMemoryPlanner9AddBufferEPNS_13ErrorReporterEiii
  94              		.syntax unified
  95              		.arm
  96              		.fpu neon
  98              	_ZN6tflite19LinearMemoryPlanner9AddBufferEPNS_13ErrorReporterEiii:
  99              		.fnstart
 100              	.LFB18:
 101              		@ args = 4, pretend = 0, frame = 0
 102              		@ frame_needed = 0, uses_anonymous_args = 0
 103 0000 01CA80E2 		add	ip, r0, #4096
 104 0004 04309CE5 		ldr	r3, [ip, #4]
 105 0008 010B53E3 		cmp	r3, #1024
 106 000c 060000BA 		blt	.L7
 107 0010 10402DE9 		push	{r4, lr}
 108              		.save {r4, lr}
 109 0014 0100A0E1 		mov	r0, r1
 110 0018 012BA0E3 		mov	r2, #1024
 111 001c 2C109FE5 		ldr	r1, .L13
 112 0020 FEFFFFEB 		bl	_ZN6tflite13ErrorReporter6ReportEPKcz
 113 0024 0100A0E3 		mov	r0, #1
 114 0028 1080BDE8 		pop	{r4, pc}
 115              	.L7:
 116 002c 08109CE5 		ldr	r1, [ip, #8]
 117 0030 030180E0 		add	r0, r0, r3, lsl #2
 118 0034 013083E2 		add	r3, r3, #1
 119 0038 012082E0 		add	r2, r2, r1
 120 003c 041080E5 		str	r1, [r0, #4]
 121 0040 08208CE5 		str	r2, [ip, #8]
 122 0044 0000A0E3 		mov	r0, #0
 123 0048 04308CE5 		str	r3, [ip, #4]
 124 004c 1EFF2FE1 		bx	lr
 125              	.L14:
 126              		.align	2
 127              	.L13:
 128 0050 00000000 		.word	.LC0
 129              		.fnend
 131              		.section	.text._ZN6tflite19LinearMemoryPlanner18GetOffsetForBufferEPNS_13ErrorReporterEiPi,"ax",%p
 132              		.align	2
 133              		.global	_ZN6tflite19LinearMemoryPlanner18GetOffsetForBufferEPNS_13ErrorReporterEiPi
 134              		.syntax unified
 135              		.arm
 136              		.fpu neon
 138              	_ZN6tflite19LinearMemoryPlanner18GetOffsetForBufferEPNS_13ErrorReporterEiPi:
 139              		.fnstart
 140              	.LFB21:
 141              		@ args = 0, pretend = 0, frame = 0
 142              		@ frame_needed = 0, uses_anonymous_args = 0
 143 0000 000052E3 		cmp	r2, #0
 144 0004 10402DE9 		push	{r4, lr}
 145              		.save {r4, lr}
 146 0008 01CA80E2 		add	ip, r0, #4096
 147 000c 020000BA 		blt	.L16
 148 0010 04E09CE5 		ldr	lr, [ip, #4]
 149 0014 0E0052E1 		cmp	r2, lr
 150 0018 050000BA 		blt	.L17
 151              	.L16:
 152 001c 0100A0E1 		mov	r0, r1
 153 0020 04309CE5 		ldr	r3, [ip, #4]
 154 0024 1C109FE5 		ldr	r1, .L20
 155 0028 FEFFFFEB 		bl	_ZN6tflite13ErrorReporter6ReportEPKcz
 156 002c 0100A0E3 		mov	r0, #1
 157 0030 1080BDE8 		pop	{r4, pc}
 158              	.L17:
 159 0034 022180E0 		add	r2, r0, r2, lsl #2
 160 0038 0000A0E3 		mov	r0, #0
 161 003c 042092E5 		ldr	r2, [r2, #4]
 162 0040 002083E5 		str	r2, [r3]
 163 0044 1080BDE8 		pop	{r4, pc}
 164              	.L21:
 165              		.align	2
 166              	.L20:
 167 0048 00000000 		.word	.LC1
 168              		.fnend
 170              		.section	.text._ZN6tflite19LinearMemoryPlannerC2Ev,"ax",%progbits
 171              		.align	2
 172              		.global	_ZN6tflite19LinearMemoryPlannerC2Ev
 173              		.syntax unified
 174              		.arm
 175              		.fpu neon
 177              	_ZN6tflite19LinearMemoryPlannerC2Ev:
 178              		.fnstart
 179              	.LFB12:
 180              		@ args = 0, pretend = 0, frame = 0
 181              		@ frame_needed = 0, uses_anonymous_args = 0
 182              		@ link register save eliminated.
 183 0000 14209FE5 		ldr	r2, .L23
 184 0004 013A80E2 		add	r3, r0, #4096
 185 0008 002080E5 		str	r2, [r0]
 186 000c 0020A0E3 		mov	r2, #0
 187 0010 042083E5 		str	r2, [r3, #4]
 188 0014 082083E5 		str	r2, [r3, #8]
 189 0018 1EFF2FE1 		bx	lr
 190              	.L24:
 191              		.align	2
 192              	.L23:
 193 001c 08000000 		.word	.LANCHOR0+8
 194              		.cantunwind
 195              		.fnend
 197              		.global	_ZN6tflite19LinearMemoryPlannerC1Ev
 198              		.set	_ZN6tflite19LinearMemoryPlannerC1Ev,_ZN6tflite19LinearMemoryPlannerC2Ev
 199              		.weak	_ZTSN6tflite13MemoryPlannerE
 200              		.section	.rodata._ZTSN6tflite13MemoryPlannerE,"aG",%progbits,_ZTSN6tflite13MemoryPlannerE,comdat
 203              	_ZTSN6tflite13MemoryPlannerE:
 204 0000 4E367466 		.ascii	"N6tflite13MemoryPlannerE\000"
 204      6C697465 
 204      31334D65 
 204      6D6F7279 
 204      506C616E 
 205              		.weak	_ZTIN6tflite13MemoryPlannerE
 206              		.section	.rodata._ZTIN6tflite13MemoryPlannerE,"aG",%progbits,_ZTIN6tflite13MemoryPlannerE,comdat
 207              		.align	2
 210              	_ZTIN6tflite13MemoryPlannerE:
 211 0000 08000000 		.word	_ZTVN10__cxxabiv117__class_type_infoE+8
 212 0004 00000000 		.word	_ZTSN6tflite13MemoryPlannerE
 213              		.global	_ZTSN6tflite19LinearMemoryPlannerE
 214              		.global	_ZTIN6tflite19LinearMemoryPlannerE
 215              		.global	_ZTVN6tflite19LinearMemoryPlannerE
 216              		.section	.rodata._ZN6tflite19LinearMemoryPlanner18GetOffsetForBufferEPNS_13ErrorReporterEiPi.str1.
 217              	.LC1:
 218 0000 62756666 		.ascii	"buffer index %d is outside range 0 to %d\000"
 218      65722069 
 218      6E646578 
 218      20256420 
 218      6973206F 
 219              		.section	.rodata._ZN6tflite19LinearMemoryPlanner9AddBufferEPNS_13ErrorReporterEiii.str1.1,"aMS",%p
 220              	.LC0:
 221 0000 546F6F20 		.ascii	"Too many buffers (max is %d)\000"
 221      6D616E79 
 221      20627566 
 221      66657273 
 221      20286D61 
 222              		.section	.rodata._ZTIN6tflite19LinearMemoryPlannerE,"a",%progbits
 223              		.align	2
 226              	_ZTIN6tflite19LinearMemoryPlannerE:
 227 0000 08000000 		.word	_ZTVN10__cxxabiv120__si_class_type_infoE+8
 228 0004 00000000 		.word	_ZTSN6tflite19LinearMemoryPlannerE
 229 0008 00000000 		.word	_ZTIN6tflite13MemoryPlannerE
 230              		.section	.rodata._ZTSN6tflite19LinearMemoryPlannerE,"a",%progbits
 233              	_ZTSN6tflite19LinearMemoryPlannerE:
 234 0000 4E367466 		.ascii	"N6tflite19LinearMemoryPlannerE\000"
 234      6C697465 
 234      31394C69 
 234      6E656172 
 234      4D656D6F 
 235              		.section	.rodata._ZTVN6tflite19LinearMemoryPlannerE,"a",%progbits
 236              		.align	2
 237              		.set	.LANCHOR0,. + 0
 240              	_ZTVN6tflite19LinearMemoryPlannerE:
 241 0000 00000000 		.word	0
 242 0004 00000000 		.word	_ZTIN6tflite19LinearMemoryPlannerE
 243 0008 00000000 		.word	_ZN6tflite19LinearMemoryPlannerD1Ev
 244 000c 00000000 		.word	_ZN6tflite19LinearMemoryPlannerD0Ev
 245 0010 00000000 		.word	_ZN6tflite19LinearMemoryPlanner9AddBufferEPNS_13ErrorReporterEiii
 246 0014 00000000 		.word	_ZN6tflite19LinearMemoryPlanner20GetMaximumMemorySizeEv
 247 0018 00000000 		.word	_ZN6tflite19LinearMemoryPlanner14GetBufferCountEv
 248 001c 00000000 		.word	_ZN6tflite19LinearMemoryPlanner18GetOffsetForBufferEPNS_13ErrorReporterEiPi
 249              		.ident	"GCC: (GNU Tools for ARM Embedded Processors 6-2017-q2-update) 6.3.1 20170620 (release) [AR