   1              		.cpu cortex-a9
   2              		.eabi_attribute 28, 1
   3              		.eabi_attribute 20, 1
   4              		.eabi_attribute 21, 1
   5              		.eabi_attribute 23, 3
   6              		.eabi_attribute 24, 1
   7              		.eabi_attribute 25, 1
   8              		.eabi_attribute 26, 1
   9              		.eabi_attribute 30, 4
  10              		.eabi_attribute 34, 0
  11              		.eabi_attribute 18, 4
  12              		.file	"add.cpp"
  13              		.section	.text._ZN6tflite3ops5micro3add4InitEP13TfLiteContextPKcj,"ax",%progbits
  14              		.align	2
  15              		.global	_ZN6tflite3ops5micro3add4InitEP13TfLiteContextPKcj
  16              		.syntax unified
  17              		.arm
  18              		.fpu neon
  20              	_ZN6tflite3ops5micro3add4InitEP13TfLiteContextPKcj:
  21              		.fnstart
  22              	.LFB6232:
  23              		@ args = 0, pretend = 0, frame = 0
  24              		@ frame_needed = 0, uses_anonymous_args = 0
  25              		@ link register save eliminated.
  26 0000 0000A0E3 		mov	r0, #0
  27 0004 1EFF2FE1 		bx	lr
  28              		.cantunwind
  29              		.fnend
  31              		.section	.text._ZN6tflite3ops5micro3add4FreeEP13TfLiteContextPv,"ax",%progbits
  32              		.align	2
  33              		.global	_ZN6tflite3ops5micro3add4FreeEP13TfLiteContextPv
  34              		.syntax unified
  35              		.arm
  36              		.fpu neon
  38              	_ZN6tflite3ops5micro3add4FreeEP13TfLiteContextPv:
  39              		.fnstart
  40              	.LFB6233:
  41              		@ args = 0, pretend = 0, frame = 0
  42              		@ frame_needed = 0, uses_anonymous_args = 0
  43              		@ link register save eliminated.
  44 0000 1EFF2FE1 		bx	lr
  45              		.cantunwind
  46              		.fnend
  48              		.section	.text._ZN6tflite3ops5micro3add7PrepareEP13TfLiteContextP10TfLiteNode,"ax",%progbits
  49              		.align	2
  50              		.global	_ZN6tflite3ops5micro3add7PrepareEP13TfLiteContextP10TfLiteNode
  51              		.syntax unified
  52              		.arm
  53              		.fpu neon
  55              	_ZN6tflite3ops5micro3add7PrepareEP13TfLiteContextP10TfLiteNode:
  56              		.fnstart
  57              	.LFB6234:
  58              		@ args = 0, pretend = 0, frame = 0
  59              		@ frame_needed = 0, uses_anonymous_args = 0
  60              		@ link register save eliminated.
  61 0000 0000A0E3 		mov	r0, #0
  62 0004 1EFF2FE1 		bx	lr
  63              		.cantunwind
  64              		.fnend
  66              		.section	.text._ZN6tflite12RuntimeShapeD2Ev,"axG",%progbits,_ZN6tflite12RuntimeShapeD5Ev,comdat
  67              		.align	2
  68              		.weak	_ZN6tflite12RuntimeShapeD2Ev
  69              		.syntax unified
  70              		.arm
  71              		.fpu neon
  73              	_ZN6tflite12RuntimeShapeD2Ev:
  74              		.fnstart
  75              	.LFB3207:
  76              		@ args = 0, pretend = 0, frame = 0
  77              		@ frame_needed = 0, uses_anonymous_args = 0
  78 0000 003090E5 		ldr	r3, [r0]
  79 0004 10402DE9 		push	{r4, lr}
  80 0008 0040A0E1 		mov	r4, r0
  81 000c 040053E3 		cmp	r3, #4
  82 0010 030000DA 		ble	.L5
  83 0014 040090E5 		ldr	r0, [r0, #4]
  84 0018 000050E3 		cmp	r0, #0
  85 001c 0000000A 		beq	.L5
  86 0020 FEFFFFEB 		bl	_ZdaPv
  87              	.L5:
  88 0024 0400A0E1 		mov	r0, r4
  89 0028 1080BDE8 		pop	{r4, pc}
  90              		.cantunwind
  91              		.fnend
  93              		.weak	_ZN6tflite12RuntimeShapeD1Ev
  94              		.set	_ZN6tflite12RuntimeShapeD1Ev,_ZN6tflite12RuntimeShapeD2Ev
  95              		.section	.text._ZNK6tflite12RuntimeShape4DimsEi,"axG",%progbits,_ZNK6tflite12RuntimeShape4DimsEi,c
  96              		.align	2
  97              		.weak	_ZNK6tflite12RuntimeShape4DimsEi
  98              		.syntax unified
  99              		.arm
 100              		.fpu neon
 102              	_ZNK6tflite12RuntimeShape4DimsEi:
 103              		.fnstart
 104              	.LFB3210:
 105              		@ args = 0, pretend = 0, frame = 0
 106              		@ frame_needed = 0, uses_anonymous_args = 0
 107 0000 000051E3 		cmp	r1, #0
 108 0004 010000AA 		bge	.L11
 109              	.L12:
 110 0008 10402DE9 		push	{r4, lr}
 111              		.save {r4, lr}
 112 000c FEFFFFEB 		bl	abort
 113              	.L11:
 114 0010 003090E5 		ldr	r3, [r0]
 115 0014 010053E1 		cmp	r3, r1
 116 0018 FAFFFFDA 		ble	.L12
 117 001c 040053E3 		cmp	r3, #4
 118 0020 043090C5 		ldrgt	r3, [r0, #4]
 119 0024 010180D0 		addle	r0, r0, r1, lsl #2
 120 0028 040090D5 		ldrle	r0, [r0, #4]
 121 002c 010193C7 		ldrgt	r0, [r3, r1, lsl #2]
 122 0030 1EFF2FE1 		bx	lr
 123              		.fnend
 125              		.section	.text._ZN6tflite12RuntimeShape6SetDimEil,"axG",%progbits,_ZN6tflite12RuntimeShape6SetDimE
 126              		.align	2
 127              		.weak	_ZN6tflite12RuntimeShape6SetDimEil
 128              		.syntax unified
 129              		.arm
 130              		.fpu neon
 132              	_ZN6tflite12RuntimeShape6SetDimEil:
 133              		.fnstart
 134              	.LFB3211:
 135              		@ args = 0, pretend = 0, frame = 0
 136              		@ frame_needed = 0, uses_anonymous_args = 0
 137 0000 000051E3 		cmp	r1, #0
 138 0004 010000AA 		bge	.L18
 139              	.L19:
 140 0008 10402DE9 		push	{r4, lr}
 141              		.save {r4, lr}
 142 000c FEFFFFEB 		bl	abort
 143              	.L18:
 144 0010 003090E5 		ldr	r3, [r0]
 145 0014 010053E1 		cmp	r3, r1
 146 0018 FAFFFFDA 		ble	.L19
 147 001c 040053E3 		cmp	r3, #4
 148 0020 043090C5 		ldrgt	r3, [r0, #4]
 149 0024 010180D0 		addle	r0, r0, r1, lsl #2
 150 0028 042080D5 		strle	r2, [r0, #4]
 151 002c 012183C7 		strgt	r2, [r3, r1, lsl #2]
 152 0030 1EFF2FE1 		bx	lr
 153              		.fnend
 155              		.section	.text._ZN6tflite12RuntimeShape6ResizeEi,"axG",%progbits,_ZN6tflite12RuntimeShape6ResizeEi
 156              		.align	2
 157              		.weak	_ZN6tflite12RuntimeShape6ResizeEi
 158              		.syntax unified
 159              		.arm
 160              		.fpu neon
 162              	_ZN6tflite12RuntimeShape6ResizeEi:
 163              		.fnstart
 164              	.LFB3215:
 165              		@ args = 0, pretend = 0, frame = 0
 166              		@ frame_needed = 0, uses_anonymous_args = 0
 167 0000 003090E5 		ldr	r3, [r0]
 168 0004 70402DE9 		push	{r4, r5, r6, lr}
 169              		.save {r4, r5, r6, lr}
 170 0008 0040A0E1 		mov	r4, r0
 171 000c 0150A0E1 		mov	r5, r1
 172 0010 040053E3 		cmp	r3, #4
 173 0014 030000DA 		ble	.L25
 174 0018 040090E5 		ldr	r0, [r0, #4]
 175 001c 000050E3 		cmp	r0, #0
 176 0020 0000000A 		beq	.L25
 177 0024 FEFFFFEB 		bl	_ZdaPv
 178              	.L25:
 179 0028 040055E3 		cmp	r5, #4
 180 002c 005084E5 		str	r5, [r4]
 181 0030 7080BDD8 		pople	{r4, r5, r6, pc}
 182 0034 2E0275E3 		cmn	r5, #-536870910
 183 0038 030000CA 		bgt	.L27
 184 003c 0501A0E1 		lsl	r0, r5, #2
 185 0040 FEFFFFEB 		bl	_Znaj
 186 0044 040084E5 		str	r0, [r4, #4]
 187 0048 7080BDE8 		pop	{r4, r5, r6, pc}
 188              	.L27:
 189 004c FEFFFFEB 		bl	__cxa_throw_bad_array_new_length
 190              		.fnend
 192              		.section	.text._ZNK6tflite12RuntimeShape8FlatSizeEv,"axG",%progbits,_ZNK6tflite12RuntimeShape8Flat
 193              		.align	2
 194              		.weak	_ZNK6tflite12RuntimeShape8FlatSizeEv
 195              		.syntax unified
 196              		.arm
 197              		.fpu neon
 199              	_ZNK6tflite12RuntimeShape8FlatSizeEv:
 200              		.fnstart
 201              	.LFB3220:
 202              		@ args = 0, pretend = 0, frame = 0
 203              		@ frame_needed = 0, uses_anonymous_args = 0
 204              		@ link register save eliminated.
 205 0000 001090E5 		ldr	r1, [r0]
 206 0004 0020A0E3 		mov	r2, #0
 207 0008 040051E3 		cmp	r1, #4
 208 000c 043090C5 		ldrgt	r3, [r0, #4]
 209 0010 043080D2 		addle	r3, r0, #4
 210 0014 0100A0E3 		mov	r0, #1
 211              	.L36:
 212 0018 010052E1 		cmp	r2, r1
 213 001c 1EFF2FA1 		bxge	lr
 214 0020 02C193E7 		ldr	ip, [r3, r2, lsl #2]
 215 0024 012082E2 		add	r2, r2, #1
 216 0028 9C0000E0 		mul	r0, ip, r0
 217 002c F9FFFFEA 		b	.L36
 218              		.cantunwind
 219              		.fnend
 221              		.section	.text._ZN6tflite12RuntimeShapeC2EiRKS0_i,"axG",%progbits,_ZN6tflite12RuntimeShapeC5EiRKS0
 222              		.align	2
 223              		.weak	_ZN6tflite12RuntimeShapeC2EiRKS0_i
 224              		.syntax unified
 225              		.arm
 226              		.fpu neon
 228              	_ZN6tflite12RuntimeShapeC2EiRKS0_i:
 229              		.fnstart
 230              	.LFB3223:
 231              		@ args = 0, pretend = 0, frame = 0
 232              		@ frame_needed = 0, uses_anonymous_args = 0
 233 0000 F0412DE9 		push	{r4, r5, r6, r7, r8, lr}
 234              		.save {r4, r5, r6, r7, r8, lr}
 235 0004 0050A0E3 		mov	r5, #0
 236 0008 0380A0E1 		mov	r8, r3
 237 000c 005080E5 		str	r5, [r0]
 238 0010 003092E5 		ldr	r3, [r2]
 239 0014 010053E1 		cmp	r3, r1
 240 0018 000000DA 		ble	.L39
 241 001c FEFFFFEB 		bl	abort
 242              	.L39:
 243 0020 0240A0E1 		mov	r4, r2
 244 0024 0060A0E1 		mov	r6, r0
 245 0028 0170A0E1 		mov	r7, r1
 246 002c FEFFFFEB 		bl	_ZN6tflite12RuntimeShape6ResizeEi
 247 0030 000094E5 		ldr	r0, [r4]
 248 0034 007047E0 		sub	r7, r7, r0
 249              	.L41:
 250 0038 070055E1 		cmp	r5, r7
 251 003c 050000AA 		bge	.L40
 252 0040 0510A0E1 		mov	r1, r5
 253 0044 0820A0E1 		mov	r2, r8
 254 0048 0600A0E1 		mov	r0, r6
 255 004c 015085E2 		add	r5, r5, #1
 256 0050 FEFFFFEB 		bl	_ZN6tflite12RuntimeShape6SetDimEil
 257 0054 F7FFFFEA 		b	.L41
 258              	.L40:
 259 0058 003096E5 		ldr	r3, [r6]
 260 005c 002094E5 		ldr	r2, [r4]
 261 0060 040053E3 		cmp	r3, #4
 262 0064 040096C5 		ldrgt	r0, [r6, #4]
 263 0068 040086D2 		addle	r0, r6, #4
 264 006c 040052E3 		cmp	r2, #4
 265 0070 0221A0E1 		lsl	r2, r2, #2
 266 0074 041094C5 		ldrgt	r1, [r4, #4]
 267 0078 041084D2 		addle	r1, r4, #4
 268 007c 070180E0 		add	r0, r0, r7, lsl #2
 269 0080 FEFFFFEB 		bl	memcpy
 270 0084 0600A0E1 		mov	r0, r6
 271 0088 F081BDE8 		pop	{r4, r5, r6, r7, r8, pc}
 272              		.fnend
 274              		.weak	_ZN6tflite12RuntimeShapeC1EiRKS0_i
 275              		.set	_ZN6tflite12RuntimeShapeC1EiRKS0_i,_ZN6tflite12RuntimeShapeC2EiRKS0_i
 276              		.section	.text._ZN6tflite6OffsetERKNS_12RuntimeShapeEiiii,"axG",%progbits,_ZN6tflite6OffsetERKNS_1
 277              		.align	2
 278              		.weak	_ZN6tflite6OffsetERKNS_12RuntimeShapeEiiii
 279              		.syntax unified
 280              		.arm
 281              		.fpu neon
 283              	_ZN6tflite6OffsetERKNS_12RuntimeShapeEiiii:
 284              		.fnstart
 285              	.LFB3229:
 286              		@ args = 4, pretend = 0, frame = 0
 287              		@ frame_needed = 0, uses_anonymous_args = 0
 288 0000 10402DE9 		push	{r4, lr}
 289              		.save {r4, lr}
 290 0004 00E090E5 		ldr	lr, [r0]
 291 0008 08C09DE5 		ldr	ip, [sp, #8]
 292 000c 04005EE3 		cmp	lr, #4
 293 0010 0000000A 		beq	.L48
 294              	.L49:
 295 0014 FEFFFFEB 		bl	abort
 296              	.L48:
 297 0018 000051E3 		cmp	r1, #0
 298 001c FCFFFFBA 		blt	.L49
 299 0020 04E090E5 		ldr	lr, [r0, #4]
 300 0024 0E0051E1 		cmp	r1, lr
 301 0028 F9FFFFAA 		bge	.L49
 302 002c 000052E3 		cmp	r2, #0
 303 0030 F7FFFFBA 		blt	.L49
 304 0034 084090E5 		ldr	r4, [r0, #8]
 305 0038 040052E1 		cmp	r2, r4
 306 003c F4FFFFAA 		bge	.L49
 307 0040 000053E3 		cmp	r3, #0
 308 0044 F2FFFFBA 		blt	.L49
 309 0048 0CE090E5 		ldr	lr, [r0, #12]
 310 004c 0E0053E1 		cmp	r3, lr
 311 0050 EFFFFFAA 		bge	.L49
 312 0054 00005CE3 		cmp	ip, #0
 313 0058 EDFFFFBA 		blt	.L49
 314 005c 100090E5 		ldr	r0, [r0, #16]
 315 0060 00005CE1 		cmp	ip, r0
 316 0064 EAFFFFAA 		bge	.L49
 317 0068 942121E0 		mla	r1, r4, r1, r2
 318 006c 9E3123E0 		mla	r3, lr, r1, r3
 319 0070 90C320E0 		mla	r0, r0, r3, ip
 320 0074 1080BDE8 		pop	{r4, pc}
 321              		.fnend
 323              		.section	.text._ZN6tflite20MatchingElementsSizeERKNS_12RuntimeShapeES2_S2_,"axG",%progbits,_ZN6tfl
 324              		.align	2
 325              		.weak	_ZN6tflite20MatchingElementsSizeERKNS_12RuntimeShapeES2_S2_
 326              		.syntax unified
 327              		.arm
 328              		.fpu neon
 330              	_ZN6tflite20MatchingElementsSizeERKNS_12RuntimeShapeES2_S2_:
 331              		.fnstart
 332              	.LFB3241:
 333              		@ args = 0, pretend = 0, frame = 0
 334              		@ frame_needed = 0, uses_anonymous_args = 0
 335 0000 70402DE9 		push	{r4, r5, r6, lr}
 336              		.save {r4, r5, r6, lr}
 337 0004 0150A0E1 		mov	r5, r1
 338 0008 0260A0E1 		mov	r6, r2
 339 000c FEFFFFEB 		bl	_ZNK6tflite12RuntimeShape8FlatSizeEv
 340 0010 0040A0E1 		mov	r4, r0
 341 0014 0500A0E1 		mov	r0, r5
 342 0018 FEFFFFEB 		bl	_ZNK6tflite12RuntimeShape8FlatSizeEv
 343 001c 0050A0E1 		mov	r5, r0
 344 0020 0600A0E1 		mov	r0, r6
 345 0024 FEFFFFEB 		bl	_ZNK6tflite12RuntimeShape8FlatSizeEv
 346 0028 050054E1 		cmp	r4, r5
 347 002c 0000000A 		beq	.L52
 348              	.L53:
 349 0030 FEFFFFEB 		bl	abort
 350              	.L52:
 351 0034 000054E1 		cmp	r4, r0
 352 0038 FCFFFF1A 		bne	.L53
 353 003c 7080BDE8 		pop	{r4, r5, r6, pc}
 354              		.fnend
 356              		.section	.text._ZN6tflite46MultiplyByQuantizedMultiplierSmallerThanOneExpElli,"axG",%progbits,_ZN6
 357              		.align	2
 358              		.weak	_ZN6tflite46MultiplyByQuantizedMultiplierSmallerThanOneExpElli
 359              		.syntax unified
 360              		.arm
 361              		.fpu neon
 363              	_ZN6tflite46MultiplyByQuantizedMultiplierSmallerThanOneExpElli:
 364              		.fnstart
 365              	.LFB3272:
 366              		@ args = 0, pretend = 0, frame = 0
 367              		@ frame_needed = 0, uses_anonymous_args = 0
 368 0000 70402DE9 		push	{r4, r5, r6, lr}
 369              		.save {r4, r5, r6, lr}
 370 0004 9041C5E0 		smull	r4, r5, r0, r1
 371 0008 000054E3 		cmp	r4, #0
 372 000c 0030D5E2 		sbcs	r3, r5, #0
 373 0010 0131A0A3 		movge	r3, #1073741824
 374 0014 0731A0B3 		movlt	r3, #-1073741823
 375 0018 010050E1 		cmp	r0, r1
 376 001c 02015003 		cmpeq	r0, #-2147483648
 377 0020 0201E003 		mvneq	r0, #-2147483648
 378 0024 0800000A 		beq	.L57
 379 0028 034094E0 		adds	r4, r4, r3
 380 002c 0010A0E3 		mov	r1, #0
 381 0030 C35FA5E0 		adc	r5, r5, r3, asr #31
 382 0034 C50FA0E1 		asr	r0, r5, #31
 383 0038 0201C0E3 		bic	r0, r0, #-2147483648
 384 003c 040090E0 		adds	r0, r0, r4
 385 0040 A00FA0E1 		lsr	r0, r0, #31
 386 0044 0510A1E0 		adc	r1, r1, r5
 387 0048 810080E1 		orr	r0, r0, r1, lsl #1
 388              	.L57:
 389 004c 000052E3 		cmp	r2, #0
 390 0050 001062E2 		rsb	r1, r2, #0
 391 0054 040000DA 		ble	.L58
 392 0058 58309FE5 		ldr	r3, .L64+8
 393 005c 661100E3 		movw	r1, #358
 394 0060 54209FE5 		ldr	r2, .L64+12
 395              	.L63:
 396 0064 54009FE5 		ldr	r0, .L64+16
 397 0068 FEFFFFEB 		bl	__assert_func
 398              	.L58:
 399 006c 1F0072E3 		cmn	r2, #31
 400 0070 4C309FB5 		ldrlt	r3, .L64+20
 401 0074 671100B3 		movwlt	r1, #359
 402 0078 3C209FB5 		ldrlt	r2, .L64+12
 403 007c F8FFFFBA 		blt	.L63
 404              	.L59:
 405 0080 0A0BDFED 		vldr.64	d16, .L64	@ int
 406 0084 901B01EE 		vmov.32	d17[0], r1
 407 0088 A00471F3 		vshl.u64	d16, d16, d17
 408 008c 302B53EC 		vmov	r2, r3, d16	@ int
 409 0090 012042E2 		sub	r2, r2, #1
 410 0094 003002E0 		and	r3, r2, r0
 411 0098 C220A0E1 		asr	r2, r2, #1
 412 009c A02F82E0 		add	r2, r2, r0, lsr #31
 413 00a0 5001A0E1 		asr	r0, r0, r1
 414 00a4 020053E1 		cmp	r3, r2
 415 00a8 010080C2 		addgt	r0, r0, #1
 416 00ac 7080BDE8 		pop	{r4, r5, r6, pc}
 417              	.L65:
 418              		.align	3
 419              	.L64:
 420 00b0 01000000 		.word	1
 421 00b4 00000000 		.word	0
 422 00b8 00000000 		.word	.LC0
 423 00bc 00000000 		.word	.LANCHOR0
 424 00c0 0E000000 		.word	.LC1
 425 00c4 98000000 		.word	.LC2
 426              		.fnend
 428              		.section	.text._ZN6tflite16SubscriptToIndexERKNS_11NdArrayDescILi4EEEiiii,"axG",%progbits,_ZN6tfli
 429              		.align	2
 430              		.weak	_ZN6tflite16SubscriptToIndexERKNS_11NdArrayDescILi4EEEiiii
 431              		.syntax unified
 432              		.arm
 433              		.fpu neon
 435              	_ZN6tflite16SubscriptToIndexERKNS_11NdArrayDescILi4EEEiiii:
 436              		.fnstart
 437              	.LFB3293:
 438              		@ args = 4, pretend = 0, frame = 0
 439              		@ frame_needed = 0, uses_anonymous_args = 0
 440 0000 000051E3 		cmp	r1, #0
 441 0004 10402DE9 		push	{r4, lr}
 442              		.save {r4, lr}
 443 0008 08C09DE5 		ldr	ip, [sp, #8]
 444 000c 020000BA 		blt	.L67
 445 0010 00E090E5 		ldr	lr, [r0]
 446 0014 0E0051E1 		cmp	r1, lr
 447 0018 000000BA 		blt	.L68
 448              	.L67:
 449 001c FEFFFFEB 		bl	abort
 450              	.L68:
 451 0020 000052E3 		cmp	r2, #0
 452 0024 FCFFFFBA 		blt	.L67
 453 0028 04E090E5 		ldr	lr, [r0, #4]
 454 002c 0E0052E1 		cmp	r2, lr
 455 0030 F9FFFFAA 		bge	.L67
 456 0034 000053E3 		cmp	r3, #0
 457 0038 F7FFFFBA 		blt	.L67
 458 003c 08E090E5 		ldr	lr, [r0, #8]
 459 0040 0E0053E1 		cmp	r3, lr
 460 0044 F4FFFFAA 		bge	.L67
 461 0048 00005CE3 		cmp	ip, #0
 462 004c F2FFFFBA 		blt	.L67
 463 0050 0CE090E5 		ldr	lr, [r0, #12]
 464 0054 0E005CE1 		cmp	ip, lr
 465 0058 EFFFFFAA 		bge	.L67
 466 005c 14E090E5 		ldr	lr, [r0, #20]
 467 0060 104090E5 		ldr	r4, [r0, #16]
 468 0064 9E0202E0 		mul	r2, lr, r2
 469 0068 942121E0 		mla	r1, r4, r1, r2
 470 006c 182090E5 		ldr	r2, [r0, #24]
 471 0070 1C0090E5 		ldr	r0, [r0, #28]
 472 0074 921323E0 		mla	r3, r2, r3, r1
 473 0078 903C20E0 		mla	r0, r0, ip, r3
 474 007c 1080BDE8 		pop	{r4, pc}
 475              		.fnend
 477              		.section	.text._ZN6tflite13reference_ops3AddERKNS_16ArithmeticParamsERKNS_12RuntimeShapeEPKhS6_S8_
 478              		.align	2
 479              		.weak	_ZN6tflite13reference_ops3AddERKNS_16ArithmeticParamsERKNS_12RuntimeShapeEPKhS6_S8_S6_Ph
 480              		.syntax unified
 481              		.arm
 482              		.fpu neon
 484              	_ZN6tflite13reference_ops3AddERKNS_16ArithmeticParamsERKNS_12RuntimeShapeEPKhS6_S8_S6_Ph:
 485              		.fnstart
 486              	.LFB3309:
 487              		@ args = 12, pretend = 0, frame = 0
 488              		@ frame_needed = 0, uses_anonymous_args = 0
 489 0000 F84F2DE9 		push	{r3, r4, r5, r6, r7, r8, r9, r10, fp, lr}
 490              		.save {r3, r4, r5, r6, r7, r8, r9, r10, fp, lr}
 491 0004 0040A0E1 		mov	r4, r0
 492 0008 0270A0E1 		mov	r7, r2
 493 000c 0100A0E1 		mov	r0, r1
 494 0010 302094E5 		ldr	r2, [r4, #48]
 495 0014 2C1094E5 		ldr	r1, [r4, #44]
 496 0018 28809DE5 		ldr	r8, [sp, #40]
 497 001c 30609DE5 		ldr	r6, [sp, #48]
 498 0020 020051E1 		cmp	r1, r2
 499 0024 000000DA 		ble	.L71
 500              	.L72:
 501 0028 FEFFFFEB 		bl	abort
 502              	.L71:
 503 002c 2C209DE5 		ldr	r2, [sp, #44]
 504 0030 0310A0E1 		mov	r1, r3
 505 0034 FEFFFFEB 		bl	_ZN6tflite20MatchingElementsSizeERKNS_12RuntimeShapeES2_S2_
 506 0038 042094E5 		ldr	r2, [r4, #4]
 507 003c 0090A0E1 		mov	r9, r0
 508 0040 FF0072E3 		cmn	r2, #255
 509 0044 F7FFFFBA 		blt	.L72
 510 0048 FF0052E3 		cmp	r2, #255
 511 004c 083094E5 		ldr	r3, [r4, #8]
 512 0050 F4FFFFCA 		bgt	.L72
 513 0054 FF3083E2 		add	r3, r3, #255
 514 0058 FE2100E3 		movw	r2, #510
 515 005c 020053E1 		cmp	r3, r2
 516 0060 F0FFFF8A 		bhi	.L72
 517 0064 0050A0E3 		mov	r5, #0
 518              	.L74:
 519 0068 050059E1 		cmp	r9, r5
 520 006c F88FBDD8 		pople	{r3, r4, r5, r6, r7, r8, r9, r10, fp, pc}
 521 0070 05A0D8E7 		ldrb	r10, [r8, r5]	@ zero_extendqisi2
 522 0074 083094E5 		ldr	r3, [r4, #8]
 523 0078 180094E5 		ldr	r0, [r4, #24]
 524 007c 042094E5 		ldr	r2, [r4, #4]
 525 0080 03A08AE0 		add	r10, r10, r3
 526 0084 0530D7E7 		ldrb	r3, [r7, r5]	@ zero_extendqisi2
 527 0088 1C1094E5 		ldr	r1, [r4, #28]
 528 008c 1AA0A0E1 		lsl	r10, r10, r0
 529 0090 023083E0 		add	r3, r3, r2
 530 0094 202094E5 		ldr	r2, [r4, #32]
 531 0098 1300A0E1 		lsl	r0, r3, r0
 532 009c FEFFFFEB 		bl	_ZN6tflite46MultiplyByQuantizedMultiplierSmallerThanOneExpElli
 533 00a0 282094E5 		ldr	r2, [r4, #40]
 534 00a4 00B0A0E1 		mov	fp, r0
 535 00a8 241094E5 		ldr	r1, [r4, #36]
 536 00ac 0A00A0E1 		mov	r0, r10
 537 00b0 FEFFFFEB 		bl	_ZN6tflite46MultiplyByQuantizedMultiplierSmallerThanOneExpElli
 538 00b4 142094E5 		ldr	r2, [r4, #20]
 539 00b8 00008BE0 		add	r0, fp, r0
 540 00bc 101094E5 		ldr	r1, [r4, #16]
 541 00c0 FEFFFFEB 		bl	_ZN6tflite46MultiplyByQuantizedMultiplierSmallerThanOneExpElli
 542 00c4 0C3094E5 		ldr	r3, [r4, #12]
 543 00c8 030080E0 		add	r0, r0, r3
 544 00cc 2C3094E5 		ldr	r3, [r4, #44]
 545 00d0 030050E1 		cmp	r0, r3
 546 00d4 0300A0B1 		movlt	r0, r3
 547 00d8 303094E5 		ldr	r3, [r4, #48]
 548 00dc 030050E1 		cmp	r0, r3
 549 00e0 0300A0A1 		movge	r0, r3
 550 00e4 0500C6E7 		strb	r0, [r6, r5]
 551 00e8 015085E2 		add	r5, r5, #1
 552 00ec DDFFFFEA 		b	.L74
 553              		.fnend
 555              		.section	.text._ZN6tflite21reference_integer_ops3AddERKNS_16ArithmeticParamsERKNS_12RuntimeShapeEP
 556              		.align	2
 557              		.weak	_ZN6tflite21reference_integer_ops3AddERKNS_16ArithmeticParamsERKNS_12RuntimeShapeEPKaS6_S8_S
 558              		.syntax unified
 559              		.arm
 560              		.fpu neon
 562              	_ZN6tflite21reference_integer_ops3AddERKNS_16ArithmeticParamsERKNS_12RuntimeShapeEPKaS6_S8_S6_Pa:
 563              		.fnstart
 564              	.LFB3322:
 565              		@ args = 12, pretend = 0, frame = 0
 566              		@ frame_needed = 0, uses_anonymous_args = 0
 567 0000 F84F2DE9 		push	{r3, r4, r5, r6, r7, r8, r9, r10, fp, lr}
 568              		.save {r3, r4, r5, r6, r7, r8, r9, r10, fp, lr}
 569 0004 0040A0E1 		mov	r4, r0
 570 0008 0270A0E1 		mov	r7, r2
 571 000c 0100A0E1 		mov	r0, r1
 572 0010 302094E5 		ldr	r2, [r4, #48]
 573 0014 2C1094E5 		ldr	r1, [r4, #44]
 574 0018 28809DE5 		ldr	r8, [sp, #40]
 575 001c 30609DE5 		ldr	r6, [sp, #48]
 576 0020 020051E1 		cmp	r1, r2
 577 0024 000000DA 		ble	.L77
 578              	.L78:
 579 0028 FEFFFFEB 		bl	abort
 580              	.L77:
 581 002c 2C209DE5 		ldr	r2, [sp, #44]
 582 0030 0310A0E1 		mov	r1, r3
 583 0034 FEFFFFEB 		bl	_ZN6tflite20MatchingElementsSizeERKNS_12RuntimeShapeES2_S2_
 584 0038 042094E5 		ldr	r2, [r4, #4]
 585 003c 0090A0E1 		mov	r9, r0
 586 0040 7F0072E3 		cmn	r2, #127
 587 0044 F7FFFFBA 		blt	.L78
 588 0048 7F0052E3 		cmp	r2, #127
 589 004c 083094E5 		ldr	r3, [r4, #8]
 590 0050 F4FFFFCA 		bgt	.L78
 591 0054 7F3083E2 		add	r3, r3, #127
 592 0058 FE0053E3 		cmp	r3, #254
 593 005c F1FFFF8A 		bhi	.L78
 594 0060 0050A0E3 		mov	r5, #0
 595              	.L80:
 596 0064 050059E1 		cmp	r9, r5
 597 0068 F88FBDD8 		pople	{r3, r4, r5, r6, r7, r8, r9, r10, fp, pc}
 598 006c D5A098E1 		ldrsb	r10, [r8, r5]
 599 0070 083094E5 		ldr	r3, [r4, #8]
 600 0074 180094E5 		ldr	r0, [r4, #24]
 601 0078 042094E5 		ldr	r2, [r4, #4]
 602 007c 03A08AE0 		add	r10, r10, r3
 603 0080 D53097E1 		ldrsb	r3, [r7, r5]
 604 0084 1C1094E5 		ldr	r1, [r4, #28]
 605 0088 1AA0A0E1 		lsl	r10, r10, r0
 606 008c 023083E0 		add	r3, r3, r2
 607 0090 202094E5 		ldr	r2, [r4, #32]
 608 0094 1300A0E1 		lsl	r0, r3, r0
 609 0098 FEFFFFEB 		bl	_ZN6tflite46MultiplyByQuantizedMultiplierSmallerThanOneExpElli
 610 009c 282094E5 		ldr	r2, [r4, #40]
 611 00a0 00B0A0E1 		mov	fp, r0
 612 00a4 241094E5 		ldr	r1, [r4, #36]
 613 00a8 0A00A0E1 		mov	r0, r10
 614 00ac FEFFFFEB 		bl	_ZN6tflite46MultiplyByQuantizedMultiplierSmallerThanOneExpElli
 615 00b0 142094E5 		ldr	r2, [r4, #20]
 616 00b4 00008BE0 		add	r0, fp, r0
 617 00b8 101094E5 		ldr	r1, [r4, #16]
 618 00bc FEFFFFEB 		bl	_ZN6tflite46MultiplyByQuantizedMultiplierSmallerThanOneExpElli
 619 00c0 0C3094E5 		ldr	r3, [r4, #12]
 620 00c4 030080E0 		add	r0, r0, r3
 621 00c8 2C3094E5 		ldr	r3, [r4, #44]
 622 00cc 030050E1 		cmp	r0, r3
 623 00d0 0300A0B1 		movlt	r0, r3
 624 00d4 303094E5 		ldr	r3, [r4, #48]
 625 00d8 030050E1 		cmp	r0, r3
 626 00dc 0300A0A1 		movge	r0, r3
 627 00e0 0500C6E7 		strb	r0, [r6, r5]
 628 00e4 015085E2 		add	r5, r5, #1
 629 00e8 DDFFFFEA 		b	.L80
 630              		.fnend
 632              		.section	.text._ZN6tflite13reference_ops22ProcessBroadcastShapesERKNS_12RuntimeShapeES3_PNS_16Arit
 633              		.align	2
 634              		.weak	_ZN6tflite13reference_ops22ProcessBroadcastShapesERKNS_12RuntimeShapeES3_PNS_16ArithmeticPar
 635              		.syntax unified
 636              		.arm
 637              		.fpu neon
 639              	_ZN6tflite13reference_ops22ProcessBroadcastShapesERKNS_12RuntimeShapeES3_PNS_16ArithmeticParamsE:
 640              		.fnstart
 641              	.LFB3324:
 642              		@ args = 0, pretend = 0, frame = 64
 643              		@ frame_needed = 0, uses_anonymous_args = 0
 644 0000 F0432DE9 		push	{r4, r5, r6, r7, r8, r9, lr}
 645              		.save {r4, r5, r6, r7, r8, r9, lr}
 646              		.pad #68
 647 0004 44D04DE2 		sub	sp, sp, #68
 648 0008 004090E5 		ldr	r4, [r0]
 649 000c 40808DE2 		add	r8, sp, #64
 650 0010 0050A0E3 		mov	r5, #0
 651 0014 0090A0E1 		mov	r9, r0
 652 0018 003091E5 		ldr	r3, [r1]
 653 001c 0170A0E1 		mov	r7, r1
 654 0020 3C5028E5 		str	r5, [r8, #-60]!
 655 0024 0800A0E1 		mov	r0, r8
 656 0028 0260A0E1 		mov	r6, r2
 657 002c 030054E1 		cmp	r4, r3
 658 0030 0340A0B1 		movlt	r4, r3
 659 0034 0430A0E3 		mov	r3, #4
 660 0038 0030C2E5 		strb	r3, [r2]
 661 003c 0410A0E1 		mov	r1, r4
 662              	.LEHB0:
 663 0040 FEFFFFEB 		bl	_ZN6tflite12RuntimeShape6ResizeEi
 664              	.L84:
 665 0044 040055E1 		cmp	r5, r4
 666 0048 050000AA 		bge	.L83
 667 004c 0510A0E1 		mov	r1, r5
 668 0050 0120A0E3 		mov	r2, #1
 669 0054 0800A0E1 		mov	r0, r8
 670 0058 015085E2 		add	r5, r5, #1
 671 005c FEFFFFEB 		bl	_ZN6tflite12RuntimeShape6SetDimEil
 672              	.LEHE0:
 673 0060 F7FFFFEA 		b	.L84
 674              	.L83:
 675 0064 0130A0E3 		mov	r3, #1
 676 0068 0920A0E1 		mov	r2, r9
 677 006c 0410A0E1 		mov	r1, r4
 678 0070 18008DE2 		add	r0, sp, #24
 679              	.LEHB1:
 680 0074 FEFFFFEB 		bl	_ZN6tflite12RuntimeShapeC1EiRKS0_i
 681              	.LEHE1:
 682 0078 0130A0E3 		mov	r3, #1
 683 007c 0720A0E1 		mov	r2, r7
 684 0080 0410A0E1 		mov	r1, r4
 685 0084 2C008DE2 		add	r0, sp, #44
 686              	.LEHB2:
 687 0088 FEFFFFEB 		bl	_ZN6tflite12RuntimeShapeC1EiRKS0_i
 688              	.LEHE2:
 689 008c 18209DE5 		ldr	r2, [sp, #24]
 690 0090 2C309DE5 		ldr	r3, [sp, #44]
 691 0094 030052E1 		cmp	r2, r3
 692 0098 7600001A 		bne	.L85
 693 009c 040052E3 		cmp	r2, #4
 694 00a0 0221A0E1 		lsl	r2, r2, #2
 695 00a4 1C009DC5 		ldrgt	r0, [sp, #28]
 696 00a8 1C008DD2 		addle	r0, sp, #28
 697 00ac 30109DC5 		ldrgt	r1, [sp, #48]
 698 00b0 30108DD2 		addle	r1, sp, #48
 699 00b4 FEFFFFEB 		bl	memcmp
 700 00b8 000050E3 		cmp	r0, #0
 701 00bc 6D00001A 		bne	.L85
 702 00c0 0130A0E3 		mov	r3, #1
 703 00c4 0030C6E5 		strb	r3, [r6]
 704              	.L123:
 705 00c8 0040A0E3 		mov	r4, #0
 706              	.L94:
 707 00cc 2C008DE2 		add	r0, sp, #44
 708 00d0 FEFFFFEB 		bl	_ZN6tflite12RuntimeShapeD1Ev
 709 00d4 18008DE2 		add	r0, sp, #24
 710 00d8 FEFFFFEB 		bl	_ZN6tflite12RuntimeShapeD1Ev
 711 00dc 0800A0E1 		mov	r0, r8
 712 00e0 FEFFFFEB 		bl	_ZN6tflite12RuntimeShapeD1Ev
 713 00e4 0400A0E1 		mov	r0, r4
 714 00e8 44D08DE2 		add	sp, sp, #68
 715              		@ sp needed
 716 00ec F083BDE8 		pop	{r4, r5, r6, r7, r8, r9, pc}
 717              	.L137:
 718 00f0 0070A0E1 		mov	r7, r0
 719 00f4 0510A0E1 		mov	r1, r5
 720 00f8 2C008DE2 		add	r0, sp, #44
 721              	.LEHB3:
 722 00fc FEFFFFEB 		bl	_ZNK6tflite12RuntimeShape4DimsEi
 723 0100 000057E1 		cmp	r7, r0
 724 0104 2500000A 		beq	.L91
 725 0108 0510A0E1 		mov	r1, r5
 726 010c 18008DE2 		add	r0, sp, #24
 727 0110 FEFFFFEB 		bl	_ZNK6tflite12RuntimeShape4DimsEi
 728 0114 010050E3 		cmp	r0, #1
 729 0118 0230A003 		moveq	r3, #2
 730 011c 0500000A 		beq	.L135
 731 0120 0510A0E1 		mov	r1, r5
 732 0124 2C008DE2 		add	r0, sp, #44
 733 0128 FEFFFFEB 		bl	_ZNK6tflite12RuntimeShape4DimsEi
 734 012c 010050E3 		cmp	r0, #1
 735 0130 1600001A 		bne	.L93
 736 0134 0330A0E3 		mov	r3, #3
 737              	.L135:
 738 0138 0030C6E5 		strb	r3, [r6]
 739              	.L90:
 740 013c 0030D6E5 		ldrb	r3, [r6]	@ zero_extendqisi2
 741 0140 022043E2 		sub	r2, r3, #2
 742 0144 010052E3 		cmp	r2, #1
 743 0148 DEFFFF8A 		bhi	.L123
 744 014c 030053E3 		cmp	r3, #3
 745 0150 0130A0E3 		mov	r3, #1
 746 0154 18708D12 		addne	r7, sp, #24
 747 0158 2C508D12 		addne	r5, sp, #44
 748 015c 2C708D02 		addeq	r7, sp, #44
 749 0160 18508D02 		addeq	r5, sp, #24
 750 0164 3C3086E5 		str	r3, [r6, #60]
 751 0168 403086E5 		str	r3, [r6, #64]
 752 016c 443086E5 		str	r3, [r6, #68]
 753 0170 483086E5 		str	r3, [r6, #72]
 754 0174 4C3086E5 		str	r3, [r6, #76]
 755              	.L100:
 756 0178 000054E3 		cmp	r4, #0
 757 017c 050000BA 		blt	.L105
 758 0180 0410A0E1 		mov	r1, r4
 759 0184 0700A0E1 		mov	r0, r7
 760 0188 FEFFFFEB 		bl	_ZNK6tflite12RuntimeShape4DimsEi
 761 018c 0A0000EA 		b	.L136
 762              	.L93:
 763 0190 0430A0E3 		mov	r3, #4
 764 0194 0030C6E5 		strb	r3, [r6]
 765              	.L105:
 766 0198 0140A0E3 		mov	r4, #1
 767 019c CAFFFFEA 		b	.L94
 768              	.L91:
 769 01a0 015045E2 		sub	r5, r5, #1
 770              	.L95:
 771 01a4 000055E3 		cmp	r5, #0
 772 01a8 E3FFFFBA 		blt	.L90
 773 01ac 0510A0E1 		mov	r1, r5
 774 01b0 18008DE2 		add	r0, sp, #24
 775 01b4 FEFFFFEB 		bl	_ZNK6tflite12RuntimeShape4DimsEi
 776 01b8 CCFFFFEA 		b	.L137
 777              	.L136:
 778 01bc 0090A0E1 		mov	r9, r0
 779 01c0 0410A0E1 		mov	r1, r4
 780 01c4 0500A0E1 		mov	r0, r5
 781 01c8 FEFFFFEB 		bl	_ZNK6tflite12RuntimeShape4DimsEi
 782 01cc 000059E1 		cmp	r9, r0
 783 01d0 2B00000A 		beq	.L98
 784              	.L104:
 785 01d4 0410A0E1 		mov	r1, r4
 786 01d8 0700A0E1 		mov	r0, r7
 787 01dc FEFFFFEB 		bl	_ZNK6tflite12RuntimeShape4DimsEi
 788 01e0 010050E3 		cmp	r0, #1
 789 01e4 2E00000A 		beq	.L102
 790              	.L108:
 791 01e8 0410A0E1 		mov	r1, r4
 792 01ec 0700A0E1 		mov	r0, r7
 793 01f0 FEFFFFEB 		bl	_ZNK6tflite12RuntimeShape4DimsEi
 794 01f4 0090A0E1 		mov	r9, r0
 795 01f8 0410A0E1 		mov	r1, r4
 796 01fc 0500A0E1 		mov	r0, r5
 797 0200 FEFFFFEB 		bl	_ZNK6tflite12RuntimeShape4DimsEi
 798 0204 000059E1 		cmp	r9, r0
 799 0208 2E00000A 		beq	.L106
 800              	.L111:
 801 020c 0410A0E1 		mov	r1, r4
 802 0210 0500A0E1 		mov	r0, r5
 803 0214 FEFFFFEB 		bl	_ZNK6tflite12RuntimeShape4DimsEi
 804 0218 010050E3 		cmp	r0, #1
 805 021c 3200000A 		beq	.L109
 806              	.L113:
 807 0220 0410A0E1 		mov	r1, r4
 808 0224 0700A0E1 		mov	r0, r7
 809 0228 FEFFFFEB 		bl	_ZNK6tflite12RuntimeShape4DimsEi
 810 022c 0090A0E1 		mov	r9, r0
 811 0230 0410A0E1 		mov	r1, r4
 812 0234 0500A0E1 		mov	r0, r5
 813 0238 FEFFFFEB 		bl	_ZNK6tflite12RuntimeShape4DimsEi
 814 023c 000059E1 		cmp	r9, r0
 815 0240 D2FFFF1A 		bne	.L93
 816 0244 0410A0E1 		mov	r1, r4
 817 0248 0500A0E1 		mov	r0, r5
 818 024c FEFFFFEB 		bl	_ZNK6tflite12RuntimeShape4DimsEi
 819              	.LEHE3:
 820 0250 2E0000EA 		b	.L138
 821              	.L127:
 822 0254 2C008DE2 		add	r0, sp, #44
 823 0258 FEFFFFEB 		bl	_ZN6tflite12RuntimeShapeD1Ev
 824              	.L115:
 825 025c 18008DE2 		add	r0, sp, #24
 826 0260 FEFFFFEB 		bl	_ZN6tflite12RuntimeShapeD1Ev
 827              	.L116:
 828 0264 0800A0E1 		mov	r0, r8
 829 0268 FEFFFFEB 		bl	_ZN6tflite12RuntimeShapeD1Ev
 830              	.LEHB4:
 831 026c FEFFFFEB 		bl	__cxa_end_cleanup
 832              	.LEHE4:
 833              	.L126:
 834 0270 F9FFFFEA 		b	.L115
 835              	.L125:
 836 0274 FAFFFFEA 		b	.L116
 837              	.L85:
 838 0278 014044E2 		sub	r4, r4, #1
 839 027c 0450A0E1 		mov	r5, r4
 840 0280 C7FFFFEA 		b	.L95
 841              	.L98:
 842 0284 0410A0E1 		mov	r1, r4
 843 0288 0500A0E1 		mov	r0, r5
 844              	.LEHB5:
 845 028c FEFFFFEB 		bl	_ZNK6tflite12RuntimeShape4DimsEi
 846 0290 4C3096E5 		ldr	r3, [r6, #76]
 847 0294 014044E2 		sub	r4, r4, #1
 848 0298 900300E0 		mul	r0, r0, r3
 849 029c 4C0086E5 		str	r0, [r6, #76]
 850 02a0 B4FFFFEA 		b	.L100
 851              	.L102:
 852 02a4 0410A0E1 		mov	r1, r4
 853 02a8 0500A0E1 		mov	r0, r5
 854 02ac FEFFFFEB 		bl	_ZNK6tflite12RuntimeShape4DimsEi
 855 02b0 483096E5 		ldr	r3, [r6, #72]
 856 02b4 014054E2 		subs	r4, r4, #1
 857 02b8 900300E0 		mul	r0, r0, r3
 858 02bc 480086E5 		str	r0, [r6, #72]
 859 02c0 C3FFFF2A 		bcs	.L104
 860 02c4 B3FFFFEA 		b	.L105
 861              	.L106:
 862 02c8 0410A0E1 		mov	r1, r4
 863 02cc 0700A0E1 		mov	r0, r7
 864 02d0 FEFFFFEB 		bl	_ZNK6tflite12RuntimeShape4DimsEi
 865 02d4 443096E5 		ldr	r3, [r6, #68]
 866 02d8 014054E2 		subs	r4, r4, #1
 867 02dc 900300E0 		mul	r0, r0, r3
 868 02e0 440086E5 		str	r0, [r6, #68]
 869 02e4 BFFFFF2A 		bcs	.L108
 870 02e8 AAFFFFEA 		b	.L105
 871              	.L109:
 872 02ec 0410A0E1 		mov	r1, r4
 873 02f0 0700A0E1 		mov	r0, r7
 874 02f4 FEFFFFEB 		bl	_ZNK6tflite12RuntimeShape4DimsEi
 875              	.LEHE5:
 876 02f8 403096E5 		ldr	r3, [r6, #64]
 877 02fc 014054E2 		subs	r4, r4, #1
 878 0300 900300E0 		mul	r0, r0, r3
 879 0304 400086E5 		str	r0, [r6, #64]
 880 0308 BFFFFF2A 		bcs	.L111
 881 030c A1FFFFEA 		b	.L105
 882              	.L138:
 883 0310 3C3096E5 		ldr	r3, [r6, #60]
 884 0314 014054E2 		subs	r4, r4, #1
 885 0318 900300E0 		mul	r0, r0, r3
 886 031c 3C0086E5 		str	r0, [r6, #60]
 887 0320 BEFFFF2A 		bcs	.L113
 888 0324 9BFFFFEA 		b	.L105
 889              		.global	__gxx_personality_v0
 890              		.personality	__gxx_personality_v0
 891              		.handlerdata
 892              	.LLSDA3324:
 893 0008 FF       		.byte	0xff
 894 0009 FF       		.byte	0xff
 895 000a 01       		.byte	0x1
 896 000b 21       		.uleb128 .LLSDACSE3324-.LLSDACSB3324
 897              	.LLSDACSB3324:
 898 000c 40       		.uleb128 .LEHB0-.LFB3324
 899 000d 20       		.uleb128 .LEHE0-.LEHB0
 900 000e 00       		.uleb128 0
 901 000f 00       		.uleb128 0
 902 0010 74       		.uleb128 .LEHB1-.LFB3324
 903 0011 04       		.uleb128 .LEHE1-.LEHB1
 904 0012 F404     		.uleb128 .L125-.LFB3324
 905 0014 00       		.uleb128 0
 906 0015 8801     		.uleb128 .LEHB2-.LFB3324
 907 0017 04       		.uleb128 .LEHE2-.LEHB2
 908 0018 F004     		.uleb128 .L126-.LFB3324
 909 001a 00       		.uleb128 0
 910 001b FC01     		.uleb128 .LEHB3-.LFB3324
 911 001d D402     		.uleb128 .LEHE3-.LEHB3
 912 001f D404     		.uleb128 .L127-.LFB3324
 913 0021 00       		.uleb128 0
 914 0022 EC04     		.uleb128 .LEHB4-.LFB3324
 915 0024 04       		.uleb128 .LEHE4-.LEHB4
 916 0025 00       		.uleb128 0
 917 0026 00       		.uleb128 0
 918 0027 8C05     		.uleb128 .LEHB5-.LFB3324
 919 0029 6C       		.uleb128 .LEHE5-.LEHB5
 920 002a D404     		.uleb128 .L127-.LFB3324
 921 002c 00       		.uleb128 0
 922              	.LLSDACSE3324:
 923              		.section	.text._ZN6tflite13reference_ops22ProcessBroadcastShapesERKNS_12RuntimeShapeES3_PNS_16Arit
 924              		.fnend
 926              		.section	.text._ZN6tflite14GetTensorShapeEPK12TfLiteTensor,"axG",%progbits,_ZN6tflite14GetTensorSh
 927              		.align	2
 928              		.weak	_ZN6tflite14GetTensorShapeEPK12TfLiteTensor
 929              		.syntax unified
 930              		.arm
 931              		.fpu neon
 933              	_ZN6tflite14GetTensorShapeEPK12TfLiteTensor:
 934              		.fnstart
 935              	.LFB3327:
 936              		@ args = 0, pretend = 0, frame = 0
 937              		@ frame_needed = 0, uses_anonymous_args = 0
 938 0000 000051E3 		cmp	r1, #0
 939 0004 70402DE9 		push	{r4, r5, r6, lr}
 940              		.save {r4, r5, r6, lr}
 941 0008 0040A0E1 		mov	r4, r0
 942 000c 00108005 		streq	r1, [r0]
 943 0010 0C00000A 		beq	.L139
 944 0014 085091E5 		ldr	r5, [r1, #8]
 945 0018 0030A0E3 		mov	r3, #0
 946 001c 046095E4 		ldr	r6, [r5], #4
 947 0020 003080E5 		str	r3, [r0]
 948 0024 0610A0E1 		mov	r1, r6
 949 0028 FEFFFFEB 		bl	_ZN6tflite12RuntimeShape6ResizeEi
 950 002c 003094E5 		ldr	r3, [r4]
 951 0030 0621A0E1 		lsl	r2, r6, #2
 952 0034 0510A0E1 		mov	r1, r5
 953 0038 040053E3 		cmp	r3, #4
 954 003c 040094C5 		ldrgt	r0, [r4, #4]
 955 0040 040084D2 		addle	r0, r4, #4
 956 0044 FEFFFFEB 		bl	memcpy
 957              	.L139:
 958 0048 0400A0E1 		mov	r0, r4
 959 004c 7080BDE8 		pop	{r4, r5, r6, pc}
 960              		.fnend
 962              		.section	.text._ZN6tflite3ops5micro3add15CalculateOpDataEP13TfLiteContextP15TfLiteAddParamsPK12TfL
 963              		.align	2
 964              		.global	_ZN6tflite3ops5micro3add15CalculateOpDataEP13TfLiteContextP15TfLiteAddParamsPK12TfLiteTens
 965              		.syntax unified
 966              		.arm
 967              		.fpu neon
 969              	_ZN6tflite3ops5micro3add15CalculateOpDataEP13TfLiteContextP15TfLiteAddParamsPK12TfLiteTensorS9_PS7_
 970              		.fnstart
 971              	.LFB6235:
 972              		@ args = 8, pretend = 0, frame = 0
 973              		@ frame_needed = 0, uses_anonymous_args = 0
 974 0000 F0432DE9 		push	{r4, r5, r6, r7, r8, r9, lr}
 975              		.save {r4, r5, r6, r7, r8, r9, lr}
 976 0004 0080A0E1 		mov	r8, r0
 977 0008 048B2DED 		vpush.64	{d8, d9}
 978              		.vsave {d8, d9}
 979              		.pad #12
 980 000c 0CD04DE2 		sub	sp, sp, #12
 981 0010 0190A0E1 		mov	r9, r1
 982 0014 0200A0E1 		mov	r0, r2
 983 0018 38509DE5 		ldr	r5, [sp, #56]
 984 001c 0310A0E1 		mov	r1, r3
 985 0020 3C409DE5 		ldr	r4, [sp, #60]
 986 0024 0270A0E1 		mov	r7, r2
 987 0028 0360A0E1 		mov	r6, r3
 988 002c FEFFFFEB 		bl	_ZN6tflite14HaveSameShapesEPK12TfLiteTensorS2_
 989 0030 010020E2 		eor	r0, r0, #1
 990 0034 0000C4E5 		strb	r0, [r4]
 991 0038 0000D5E5 		ldrb	r0, [r5]	@ zero_extendqisi2
 992 003c 090050E3 		cmp	r0, #9
 993 0040 03005013 		cmpne	r0, #3
 994 0044 0100A003 		moveq	r0, #1
 995 0048 0000A013 		movne	r0, #0
 996 004c 2E00001A 		bne	.L146
 997 0050 037AD7ED 		vldr.32	s15, [r7, #12]
 998 0054 041084E2 		add	r1, r4, #4
 999 0058 037A96ED 		vldr.32	s14, [r6, #12]
 1000 005c 2D2BDFED 		vldr.64	d18, .L153
 1001 0060 103097E5 		ldr	r3, [r7, #16]
 1002 0064 C77AF4EE 		vcmpe.f32	s15, s14
 1003 0068 10FAF1EE 		vmrs	APSR_nzcv, FPSCR
 1004 006c 003063E2 		rsb	r3, r3, #0
 1005 0070 670AB05E 		vmovpl.f32	s0, s15
 1006 0074 470AB04E 		vmovmi.f32	s0, s14
 1007 0078 C00AF7EE 		vcvt.f64.f32	d16, s0
 1008 007c C71AF7EE 		vcvt.f64.f32	d17, s14
 1009 0080 037A95ED 		vldr.32	s14, [r5, #12]
 1010 0084 E70AB7EE 		vcvt.f64.f32	d0, s15
 1011 0088 A00B70EE 		vadd.f64	d16, d16, d16
 1012 008c 283084E5 		str	r3, [r4, #40]
 1013 0090 103096E5 		ldr	r3, [r6, #16]
 1014 0094 A09B81EE 		vdiv.f64	d9, d17, d16
 1015 0098 C71AF7EE 		vcvt.f64.f32	d17, s14
 1016 009c 003063E2 		rsb	r3, r3, #0
 1017 00a0 200B80EE 		vdiv.f64	d0, d0, d16
 1018 00a4 2C3084E5 		str	r3, [r4, #44]
 1019 00a8 103095E5 		ldr	r3, [r5, #16]
 1020 00ac A21B61EE 		vmul.f64	d17, d17, d18
 1021 00b0 303084E5 		str	r3, [r4, #48]
 1022 00b4 1430A0E3 		mov	r3, #20
 1023 00b8 030084E0 		add	r0, r4, r3
 1024 00bc 243084E5 		str	r3, [r4, #36]
 1025 00c0 A18B80EE 		vdiv.f64	d8, d16, d17
 1026 00c4 FEFFFFEB 		bl	_ZN6tflite35QuantizeMultiplierSmallerThanOneExpEdPlPi
 1027 00c8 081084E2 		add	r1, r4, #8
 1028 00cc 180084E2 		add	r0, r4, #24
 1029 00d0 490BB0EE 		vmov.f64	d0, d9
 1030 00d4 FEFFFFEB 		bl	_ZN6tflite35QuantizeMultiplierSmallerThanOneExpEdPlPi
 1031 00d8 201084E2 		add	r1, r4, #32
 1032 00dc 1C0084E2 		add	r0, r4, #28
 1033 00e0 480BB0EE 		vmov.f64	d0, d8
 1034 00e4 FEFFFFEB 		bl	_ZN6tflite35QuantizeMultiplierSmallerThanOneExpEdPlPi
 1035 00e8 103084E2 		add	r3, r4, #16
 1036 00ec 0010D9E5 		ldrb	r1, [r9]	@ zero_extendqisi2
 1037 00f0 00308DE5 		str	r3, [sp]
 1038 00f4 0520A0E1 		mov	r2, r5
 1039 00f8 0C3084E2 		add	r3, r4, #12
 1040 00fc 0800A0E1 		mov	r0, r8
 1041 0100 FEFFFFEB 		bl	_ZN6tflite33CalculateActivationRangeQuantizedEP13TfLiteContext21TfLiteFusedActivationP12TfLiteT
 1042 0104 000090E2 		adds	r0, r0, #0
 1043 0108 0100A013 		movne	r0, #1
 1044              	.L146:
 1045 010c 0CD08DE2 		add	sp, sp, #12
 1046              		@ sp needed
 1047 0110 048BBDEC 		vldm	sp!, {d8-d9}
 1048 0114 F083BDE8 		pop	{r4, r5, r6, r7, r8, r9, pc}
 1049              	.L154:
 1050              		.align	3
 1051              	.L153:
 1052 0118 00000000 		.word	0
 1053 011c 00003041 		.word	1093664768
 1054              		.fnend
 1056              		.section	.text._ZN6tflite3ops5micro12Register_ADDEv,"ax",%progbits
 1057              		.align	2
 1058              		.global	_ZN6tflite3ops5micro12Register_ADDEv
 1059              		.syntax unified
 1060              		.arm
 1061              		.fpu neon
 1063              	_ZN6tflite3ops5micro12Register_ADDEv:
 1064              		.fnstart
 1065              	.LFB6239:
 1066              		@ args = 0, pretend = 0, frame = 0
 1067              		@ frame_needed = 0, uses_anonymous_args = 0
 1068              		@ link register save eliminated.
 1069 0000 20009FE5 		ldr	r0, .L156
 1070 0004 20309FE5 		ldr	r3, .L156+4
 1071 0008 003080E5 		str	r3, [r0]
 1072 000c 1C309FE5 		ldr	r3, .L156+8
 1073 0010 043080E5 		str	r3, [r0, #4]
 1074 0014 18309FE5 		ldr	r3, .L156+12
 1075 0018 083080E5 		str	r3, [r0, #8]
 1076 001c 14309FE5 		ldr	r3, .L156+16
 1077 0020 0C3080E5 		str	r3, [r0, #12]
 1078 0024 1EFF2FE1 		bx	lr
 1079              	.L157:
 1080              		.align	2
 1081              	.L156:
 1082 0028 00000000 		.word	.LANCHOR1
 1083 002c 00000000 		.word	_ZN6tflite3ops5micro3add4InitEP13TfLiteContextPKcj
 1084 0030 00000000 		.word	_ZN6tflite3ops5micro3add4FreeEP13TfLiteContextPv
 1085 0034 00000000 		.word	_ZN6tflite3ops5micro3add7PrepareEP13TfLiteContextP10TfLiteNode
 1086 0038 00000000 		.word	_ZN6tflite3ops5micro3add4EvalEP13TfLiteContextP10TfLiteNode
 1087              		.cantunwind
 1088              		.fnend
 1090              		.section	.text._ZN6tflite14CopyDimsToDescILi4EEEvRKNS_12RuntimeShapeEPNS_11NdArrayDescIXT_EEE,"axG
 1091              		.align	2
 1092              		.weak	_ZN6tflite14CopyDimsToDescILi4EEEvRKNS_12RuntimeShapeEPNS_11NdArrayDescIXT_EEE
 1093              		.syntax unified
 1094              		.arm
 1095              		.fpu neon
 1097              	_ZN6tflite14CopyDimsToDescILi4EEEvRKNS_12RuntimeShapeEPNS_11NdArrayDescIXT_EEE:
 1098              		.fnstart
 1099              	.LFB6624:
 1100              		@ args = 0, pretend = 0, frame = 0
 1101              		@ frame_needed = 0, uses_anonymous_args = 0
 1102 0000 F0412DE9 		push	{r4, r5, r6, r7, r8, lr}
 1103              		.save {r4, r5, r6, r7, r8, lr}
 1104 0004 0070A0E1 		mov	r7, r0
 1105 0008 0C6081E2 		add	r6, r1, #12
 1106 000c 0340A0E3 		mov	r4, #3
 1107 0010 0150A0E3 		mov	r5, #1
 1108              	.L159:
 1109 0014 0410A0E1 		mov	r1, r4
 1110 0018 0700A0E1 		mov	r0, r7
 1111 001c FEFFFFEB 		bl	_ZNK6tflite12RuntimeShape4DimsEi
 1112 0020 0410A0E1 		mov	r1, r4
 1113 0024 040006E4 		str	r0, [r6], #-4
 1114 0028 0700A0E1 		mov	r0, r7
 1115 002c 145086E5 		str	r5, [r6, #20]
 1116 0030 FEFFFFEB 		bl	_ZNK6tflite12RuntimeShape4DimsEi
 1117 0034 014054E2 		subs	r4, r4, #1
 1118 0038 900505E0 		mul	r5, r0, r5
 1119 003c F4FFFF2A 		bcs	.L159
 1120 0040 F081BDE8 		pop	{r4, r5, r6, r7, r8, pc}
 1121              		.fnend
 1123              		.section	.text._ZN6tflite35NdArrayDescsForElementwiseBroadcastILi4EEEvRKNS_12RuntimeShapeES3_PNS_1
 1124              		.align	2
 1125              		.weak	_ZN6tflite35NdArrayDescsForElementwiseBroadcastILi4EEEvRKNS_12RuntimeShapeES3_PNS_11NdArrayD
 1126              		.syntax unified
 1127              		.arm
 1128              		.fpu neon
 1130              	_ZN6tflite35NdArrayDescsForElementwiseBroadcastILi4EEEvRKNS_12RuntimeShapeES3_PNS_11NdArrayDescIXT_
 1131              		.fnstart
 1132              	.LFB6268:
 1133              		@ args = 0, pretend = 0, frame = 40
 1134              		@ frame_needed = 0, uses_anonymous_args = 0
 1135 0000 F0412DE9 		push	{r4, r5, r6, r7, r8, lr}
 1136              		.save {r4, r5, r6, r7, r8, lr}
 1137 0004 005052E2 		subs	r5, r2, #0
 1138              		.pad #40
 1139 0008 28D04DE2 		sub	sp, sp, #40
 1140 000c 0000001A 		bne	.L163
 1141              	.L164:
 1142              	.LEHB6:
 1143 0010 FEFFFFEB 		bl	abort
 1144              	.L163:
 1145 0014 000053E3 		cmp	r3, #0
 1146 0018 0340A0E1 		mov	r4, r3
 1147 001c FBFFFF0A 		beq	.L164
 1148 0020 0020A0E1 		mov	r2, r0
 1149 0024 0160A0E1 		mov	r6, r1
 1150 0028 0130A0E3 		mov	r3, #1
 1151 002c 0410A0E3 		mov	r1, #4
 1152 0030 0D00A0E1 		mov	r0, sp
 1153 0034 FEFFFFEB 		bl	_ZN6tflite12RuntimeShapeC1EiRKS0_i
 1154              	.LEHE6:
 1155 0038 0130A0E3 		mov	r3, #1
 1156 003c 0620A0E1 		mov	r2, r6
 1157 0040 0410A0E3 		mov	r1, #4
 1158 0044 14008DE2 		add	r0, sp, #20
 1159              	.LEHB7:
 1160 0048 FEFFFFEB 		bl	_ZN6tflite12RuntimeShapeC1EiRKS0_i
 1161              	.LEHE7:
 1162 004c 0510A0E1 		mov	r1, r5
 1163 0050 0D00A0E1 		mov	r0, sp
 1164              	.LEHB8:
 1165 0054 FEFFFFEB 		bl	_ZN6tflite14CopyDimsToDescILi4EEEvRKNS_12RuntimeShapeEPNS_11NdArrayDescIXT_EEE
 1166 0058 0410A0E1 		mov	r1, r4
 1167 005c 14008DE2 		add	r0, sp, #20
 1168 0060 FEFFFFEB 		bl	_ZN6tflite14CopyDimsToDescILi4EEEvRKNS_12RuntimeShapeEPNS_11NdArrayDescIXT_EEE
 1169 0064 0060A0E3 		mov	r6, #0
 1170 0068 0680A0E1 		mov	r8, r6
 1171              	.L168:
 1172 006c 0610A0E1 		mov	r1, r6
 1173 0070 0D00A0E1 		mov	r0, sp
 1174 0074 FEFFFFEB 		bl	_ZNK6tflite12RuntimeShape4DimsEi
 1175 0078 0070A0E1 		mov	r7, r0
 1176 007c 0610A0E1 		mov	r1, r6
 1177 0080 14008DE2 		add	r0, sp, #20
 1178 0084 FEFFFFEB 		bl	_ZNK6tflite12RuntimeShape4DimsEi
 1179 0088 000057E1 		cmp	r7, r0
 1180 008c 0D00000A 		beq	.L165
 1181 0090 010057E3 		cmp	r7, #1
 1182 0094 10808505 		streq	r8, [r5, #16]
 1183 0098 00008505 		streq	r0, [r5]
 1184 009c 0900000A 		beq	.L165
 1185 00a0 010050E3 		cmp	r0, #1
 1186 00a4 0500000A 		beq	.L167
 1187 00a8 FEFFFFEB 		bl	abort
 1188              	.LEHE8:
 1189              	.L172:
 1190 00ac 14008DE2 		add	r0, sp, #20
 1191 00b0 FEFFFFEB 		bl	_ZN6tflite12RuntimeShapeD1Ev
 1192              	.L170:
 1193 00b4 0D00A0E1 		mov	r0, sp
 1194 00b8 FEFFFFEB 		bl	_ZN6tflite12RuntimeShapeD1Ev
 1195              	.LEHB9:
 1196 00bc FEFFFFEB 		bl	__cxa_end_cleanup
 1197              	.LEHE9:
 1198              	.L167:
 1199 00c0 108084E5 		str	r8, [r4, #16]
 1200 00c4 007084E5 		str	r7, [r4]
 1201              	.L165:
 1202 00c8 016086E2 		add	r6, r6, #1
 1203 00cc 044084E2 		add	r4, r4, #4
 1204 00d0 040056E3 		cmp	r6, #4
 1205 00d4 045085E2 		add	r5, r5, #4
 1206 00d8 E3FFFF1A 		bne	.L168
 1207 00dc 14008DE2 		add	r0, sp, #20
 1208 00e0 FEFFFFEB 		bl	_ZN6tflite12RuntimeShapeD1Ev
 1209 00e4 0D00A0E1 		mov	r0, sp
 1210 00e8 FEFFFFEB 		bl	_ZN6tflite12RuntimeShapeD1Ev
 1211 00ec 28D08DE2 		add	sp, sp, #40
 1212              		@ sp needed
 1213 00f0 F081BDE8 		pop	{r4, r5, r6, r7, r8, pc}
 1214              	.L171:
 1215 00f4 EEFFFFEA 		b	.L170
 1216              		.personality	__gxx_personality_v0
 1217              		.handlerdata
 1218              	.LLSDA6268:
 1219 0008 FF       		.byte	0xff
 1220 0009 FF       		.byte	0xff
 1221 000a 01       		.byte	0x1
 1222 000b 13       		.uleb128 .LLSDACSE6268-.LLSDACSB6268
 1223              	.LLSDACSB6268:
 1224 000c 10       		.uleb128 .LEHB6-.LFB6268
 1225 000d 28       		.uleb128 .LEHE6-.LEHB6
 1226 000e 00       		.uleb128 0
 1227 000f 00       		.uleb128 0
 1228 0010 48       		.uleb128 .LEHB7-.LFB6268
 1229 0011 04       		.uleb128 .LEHE7-.LEHB7
 1230 0012 F401     		.uleb128 .L171-.LFB6268
 1231 0014 00       		.uleb128 0
 1232 0015 54       		.uleb128 .LEHB8-.LFB6268
 1233 0016 58       		.uleb128 .LEHE8-.LEHB8
 1234 0017 AC01     		.uleb128 .L172-.LFB6268
 1235 0019 00       		.uleb128 0
 1236 001a BC01     		.uleb128 .LEHB9-.LFB6268
 1237 001c 04       		.uleb128 .LEHE9-.LEHB9
 1238 001d 00       		.uleb128 0
 1239 001e 00       		.uleb128 0
 1240              	.LLSDACSE6268:
 1241              		.section	.text._ZN6tflite35NdArrayDescsForElementwiseBroadcastILi4EEEvRKNS_12RuntimeShapeES3_PNS_1
 1242              		.fnend
 1244              		.section	.text._ZN6tflite13reference_ops18BroadcastAdd4DSlowERKNS_16ArithmeticParamsERKNS_12Runtim
 1245              		.align	2
 1246              		.weak	_ZN6tflite13reference_ops18BroadcastAdd4DSlowERKNS_16ArithmeticParamsERKNS_12RuntimeShapeEPK
 1247              		.syntax unified
 1248              		.arm
 1249              		.fpu neon
 1251              	_ZN6tflite13reference_ops18BroadcastAdd4DSlowERKNS_16ArithmeticParamsERKNS_12RuntimeShapeEPKfS6_S8_
 1252              		.fnstart
 1253              	.LFB3313:
 1254              		@ args = 12, pretend = 0, frame = 88
 1255              		@ frame_needed = 0, uses_anonymous_args = 0
 1256 0000 F04F2DE9 		push	{r4, r5, r6, r7, r8, r9, r10, fp, lr}
 1257              		.save {r4, r5, r6, r7, r8, r9, r10, fp, lr}
 1258 0004 0090A0E1 		mov	r9, r0
 1259 0008 028B2DED 		vpush.64	{d8}
 1260              		.vsave {d8}
 1261              		.pad #100
 1262 000c 64D04DE2 		sub	sp, sp, #100
 1263 0010 20808DE2 		add	r8, sp, #32
 1264 0014 0100A0E1 		mov	r0, r1
 1265 0018 02A0A0E1 		mov	r10, r2
 1266 001c 0310A0E1 		mov	r1, r3
 1267 0020 0820A0E1 		mov	r2, r8
 1268 0024 40308DE2 		add	r3, sp, #64
 1269 0028 0040A0E3 		mov	r4, #0
 1270              	.LEHB10:
 1271 002c FEFFFFEB 		bl	_ZN6tflite35NdArrayDescsForElementwiseBroadcastILi4EEEvRKNS_12RuntimeShapeES3_PNS_11NdArrayDesc
 1272 0030 0130A0E3 		mov	r3, #1
 1273 0034 94209DE5 		ldr	r2, [sp, #148]
 1274 0038 0410A0E3 		mov	r1, #4
 1275 003c 0C008DE2 		add	r0, sp, #12
 1276 0040 FEFFFFEB 		bl	_ZN6tflite12RuntimeShapeC1EiRKS0_i
 1277              	.LEHE10:
 1278              	.L191:
 1279 0044 0010A0E3 		mov	r1, #0
 1280 0048 0C008DE2 		add	r0, sp, #12
 1281              	.LEHB11:
 1282 004c FEFFFFEB 		bl	_ZNK6tflite12RuntimeShape4DimsEi
 1283 0050 000054E1 		cmp	r4, r0
 1284 0054 3C0000AA 		bge	.L180
 1285 0058 0050A0E3 		mov	r5, #0
 1286              	.L190:
 1287 005c 0110A0E3 		mov	r1, #1
 1288 0060 0C008DE2 		add	r0, sp, #12
 1289 0064 FEFFFFEB 		bl	_ZNK6tflite12RuntimeShape4DimsEi
 1290 0068 000055E1 		cmp	r5, r0
 1291 006c 340000AA 		bge	.L181
 1292 0070 0060A0E3 		mov	r6, #0
 1293              	.L189:
 1294 0074 0210A0E3 		mov	r1, #2
 1295 0078 0C008DE2 		add	r0, sp, #12
 1296 007c FEFFFFEB 		bl	_ZNK6tflite12RuntimeShape4DimsEi
 1297 0080 000056E1 		cmp	r6, r0
 1298 0084 2C0000AA 		bge	.L182
 1299 0088 0070A0E3 		mov	r7, #0
 1300              	.L188:
 1301 008c 0310A0E3 		mov	r1, #3
 1302 0090 0C008DE2 		add	r0, sp, #12
 1303 0094 FEFFFFEB 		bl	_ZNK6tflite12RuntimeShape4DimsEi
 1304 0098 000057E1 		cmp	r7, r0
 1305 009c 240000AA 		bge	.L183
 1306 00a0 00708DE5 		str	r7, [sp]
 1307 00a4 0630A0E1 		mov	r3, r6
 1308 00a8 0520A0E1 		mov	r2, r5
 1309 00ac 0410A0E1 		mov	r1, r4
 1310 00b0 0C008DE2 		add	r0, sp, #12
 1311 00b4 FEFFFFEB 		bl	_ZN6tflite6OffsetERKNS_12RuntimeShapeEiiii
 1312 00b8 98309DE5 		ldr	r3, [sp, #152]
 1313 00bc 0520A0E1 		mov	r2, r5
 1314 00c0 00708DE5 		str	r7, [sp]
 1315 00c4 0410A0E1 		mov	r1, r4
 1316 00c8 00B183E0 		add	fp, r3, r0, lsl #2
 1317 00cc 0630A0E1 		mov	r3, r6
 1318 00d0 0800A0E1 		mov	r0, r8
 1319 00d4 FEFFFFEB 		bl	_ZN6tflite16SubscriptToIndexERKNS_11NdArrayDescILi4EEEiiii
 1320 00d8 00018AE0 		add	r0, r10, r0, lsl #2
 1321 00dc 0630A0E1 		mov	r3, r6
 1322 00e0 0520A0E1 		mov	r2, r5
 1323 00e4 008A90ED 		vldr.32	s16, [r0]
 1324 00e8 0410A0E1 		mov	r1, r4
 1325 00ec 00708DE5 		str	r7, [sp]
 1326 00f0 40008DE2 		add	r0, sp, #64
 1327 00f4 FEFFFFEB 		bl	_ZN6tflite16SubscriptToIndexERKNS_11NdArrayDescILi4EEEiiii
 1328              	.LEHE11:
 1329 00f8 90309DE5 		ldr	r3, [sp, #144]
 1330 00fc 017087E2 		add	r7, r7, #1
 1331 0100 0D6AD9ED 		vldr.32	s13, [r9, #52]
 1332 0104 0E7A99ED 		vldr.32	s14, [r9, #56]
 1333 0108 000183E0 		add	r0, r3, r0, lsl #2
 1334 010c 007AD0ED 		vldr.32	s15, [r0]
 1335 0110 277A78EE 		vadd.f32	s15, s16, s15
 1336 0114 667AF4EE 		vcmp.f32	s15, s13
 1337 0118 10FAF1EE 		vmrs	APSR_nzcv, FPSCR
 1338 011c 667AF04E 		vmovmi.f32	s15, s13
 1339 0120 677AB4EE 		vcmp.f32	s14, s15
 1340 0124 10FAF1EE 		vmrs	APSR_nzcv, FPSCR
 1341 0128 477AF04E 		vmovmi.f32	s15, s14
 1342 012c 007ACBED 		vstr.32	s15, [fp]
 1343 0130 D5FFFFEA 		b	.L188
 1344              	.L183:
 1345 0134 016086E2 		add	r6, r6, #1
 1346 0138 CDFFFFEA 		b	.L189
 1347              	.L182:
 1348 013c 015085E2 		add	r5, r5, #1
 1349 0140 C5FFFFEA 		b	.L190
 1350              	.L181:
 1351 0144 014084E2 		add	r4, r4, #1
 1352 0148 BDFFFFEA 		b	.L191
 1353              	.L180:
 1354 014c 0C008DE2 		add	r0, sp, #12
 1355 0150 FEFFFFEB 		bl	_ZN6tflite12RuntimeShapeD1Ev
 1356 0154 64D08DE2 		add	sp, sp, #100
 1357              		@ sp needed
 1358 0158 028BBDEC 		vldm	sp!, {d8}
 1359 015c F08FBDE8 		pop	{r4, r5, r6, r7, r8, r9, r10, fp, pc}
 1360              	.L193:
 1361 0160 0C008DE2 		add	r0, sp, #12
 1362 0164 FEFFFFEB 		bl	_ZN6tflite12RuntimeShapeD1Ev
 1363              	.LEHB12:
 1364 0168 FEFFFFEB 		bl	__cxa_end_cleanup
 1365              	.LEHE12:
 1366              		.personality	__gxx_personality_v0
 1367              		.handlerdata
 1368              	.LLSDA3313:
 1369 000c FF       		.byte	0xff
 1370 000d FF       		.byte	0xff
 1371 000e 01       		.byte	0x1
 1372 000f 0F       		.uleb128 .LLSDACSE3313-.LLSDACSB3313
 1373              	.LLSDACSB3313:
 1374 0010 2C       		.uleb128 .LEHB10-.LFB3313
 1375 0011 18       		.uleb128 .LEHE10-.LEHB10
 1376 0012 00       		.uleb128 0
 1377 0013 00       		.uleb128 0
 1378 0014 4C       		.uleb128 .LEHB11-.LFB3313
 1379 0015 AC01     		.uleb128 .LEHE11-.LEHB11
 1380 0017 E002     		.uleb128 .L193-.LFB3313
 1381 0019 00       		.uleb128 0
 1382 001a E802     		.uleb128 .LEHB12-.LFB3313
 1383 001c 04       		.uleb128 .LEHE12-.LEHB12
 1384 001d 00       		.uleb128 0
 1385 001e 00       		.uleb128 0
 1386              	.LLSDACSE3313:
 1387              		.section	.text._ZN6tflite13reference_ops18BroadcastAdd4DSlowERKNS_16ArithmeticParamsERKNS_12Runtim
 1388              		.fnend
 1390              		.section	.text._ZN6tflite3ops5micro3add7EvalAddEP13TfLiteContextP10TfLiteNodeP15TfLiteAddParamsPKN
 1391              		.align	2
 1392              		.global	_ZN6tflite3ops5micro3add7EvalAddEP13TfLiteContextP10TfLiteNodeP15TfLiteAddParamsPKNS2_6OpD
 1393              		.syntax unified
 1394              		.arm
 1395              		.fpu neon
 1397              	_ZN6tflite3ops5micro3add7EvalAddEP13TfLiteContextP10TfLiteNodeP15TfLiteAddParamsPKNS2_6OpDataEPK12T
 1398              		.fnstart
 1399              	.LFB6236:
 1400              		@ args = 12, pretend = 0, frame = 144
 1401              		@ frame_needed = 0, uses_anonymous_args = 0
 1402 0000 0020D2E5 		ldrb	r2, [r2]	@ zero_extendqisi2
 1403 0004 F0402DE9 		push	{r4, r5, r6, r7, lr}
 1404              		.save {r4, r5, r6, r7, lr}
 1405              		.pad #164
 1406 0008 A4D04DE2 		sub	sp, sp, #164
 1407 000c B8609DE5 		ldr	r6, [sp, #184]
 1408 0010 010052E3 		cmp	r2, #1
 1409 0014 BC509DE5 		ldr	r5, [sp, #188]
 1410 0018 C0409DE5 		ldr	r4, [sp, #192]
 1411 001c 1700000A 		beq	.L220
 1412 0020 030052E3 		cmp	r2, #3
 1413 0024 1800000A 		beq	.L221
 1414 0028 5E7A9FED 		vldr.32	s14, .L242
 1415 002c 020052E3 		cmp	r2, #2
 1416 0030 007AF7EE 		vmov.f32	s15, #1.0e+0
 1417 0034 5C6ADFED 		vldr.32	s13, .L242+4
 1418 0038 477AF01E 		vmovne.f32	s15, s14
 1419 003c 007ABFEE 		vmov.f32	s14, #-1.0e+0
 1420 0040 667AB01E 		vmovne.f32	s14, s13
 1421              	.L199:
 1422 0044 0030D3E5 		ldrb	r3, [r3]	@ zero_extendqisi2
 1423 0048 0610A0E1 		mov	r1, r6
 1424 004c 217A8DED 		vstr.32	s14, [sp, #132]
 1425 0050 14008DE2 		add	r0, sp, #20
 1426 0054 227ACDED 		vstr.32	s15, [sp, #136]
 1427 0058 3C708DE2 		add	r7, sp, #60
 1428 005c 000053E3 		cmp	r3, #0
 1429 0060 1A00000A 		beq	.L200
 1430              	.LEHB13:
 1431 0064 FEFFFFEB 		bl	_ZN6tflite14GetTensorShapeEPK12TfLiteTensor
 1432              	.LEHE13:
 1433 0068 000056E3 		cmp	r6, #0
 1434 006c 0510A0E1 		mov	r1, r5
 1435 0070 28008DE2 		add	r0, sp, #40
 1436 0074 04609615 		ldrne	r6, [r6, #4]
 1437              	.LEHB14:
 1438 0078 FEFFFFEB 		bl	_ZN6tflite14GetTensorShapeEPK12TfLiteTensor
 1439              	.LEHE14:
 1440 007c 040000EA 		b	.L241
 1441              	.L220:
 1442 0080 487ADFED 		vldr.32	s15, .L242
 1443              	.L239:
 1444 0084 497A9FED 		vldr.32	s14, .L242+8
 1445 0088 EDFFFFEA 		b	.L199
 1446              	.L221:
 1447 008c 087AF1EE 		vmov.f32	s15, #6.0e+0
 1448 0090 FBFFFFEA 		b	.L239
 1449              	.L241:
 1450 0094 000055E3 		cmp	r5, #0
 1451 0098 0410A0E1 		mov	r1, r4
 1452 009c 0700A0E1 		mov	r0, r7
 1453 00a0 04509515 		ldrne	r5, [r5, #4]
 1454              	.LEHB15:
 1455 00a4 FEFFFFEB 		bl	_ZN6tflite14GetTensorShapeEPK12TfLiteTensor
 1456              	.LEHE15:
 1457 00a8 000054E3 		cmp	r4, #0
 1458 00ac 28308DE2 		add	r3, sp, #40
 1459 00b0 04409415 		ldrne	r4, [r4, #4]
 1460 00b4 0620A0E1 		mov	r2, r6
 1461 00b8 A0008DE8 		stm	sp, {r5, r7}
 1462 00bc 14108DE2 		add	r1, sp, #20
 1463 00c0 50008DE2 		add	r0, sp, #80
 1464 00c4 08408DE5 		str	r4, [sp, #8]
 1465              	.LEHB16:
 1466 00c8 FEFFFFEB 		bl	_ZN6tflite13reference_ops18BroadcastAdd4DSlowERKNS_16ArithmeticParamsERKNS_12RuntimeShapeEPKfS6
 1467              	.LEHE16:
 1468 00cc 210000EA 		b	.L208
 1469              	.L200:
 1470              	.LEHB17:
 1471 00d0 FEFFFFEB 		bl	_ZN6tflite14GetTensorShapeEPK12TfLiteTensor
 1472              	.LEHE17:
 1473 00d4 000056E3 		cmp	r6, #0
 1474 00d8 0510A0E1 		mov	r1, r5
 1475 00dc 28008DE2 		add	r0, sp, #40
 1476 00e0 04609615 		ldrne	r6, [r6, #4]
 1477              	.LEHB18:
 1478 00e4 FEFFFFEB 		bl	_ZN6tflite14GetTensorShapeEPK12TfLiteTensor
 1479              	.LEHE18:
 1480 00e8 000055E3 		cmp	r5, #0
 1481 00ec 0410A0E1 		mov	r1, r4
 1482 00f0 0700A0E1 		mov	r0, r7
 1483 00f4 04509515 		ldrne	r5, [r5, #4]
 1484              	.LEHB19:
 1485 00f8 FEFFFFEB 		bl	_ZN6tflite14GetTensorShapeEPK12TfLiteTensor
 1486              	.LEHE19:
 1487 00fc 000054E3 		cmp	r4, #0
 1488 0100 0720A0E1 		mov	r2, r7
 1489 0104 28108DE2 		add	r1, sp, #40
 1490 0108 14008DE2 		add	r0, sp, #20
 1491 010c 04409415 		ldrne	r4, [r4, #4]
 1492              	.LEHB20:
 1493 0110 FEFFFFEB 		bl	_ZN6tflite20MatchingElementsSizeERKNS_12RuntimeShapeES2_S2_
 1494              	.LEHE20:
 1495 0114 0030A0E3 		mov	r3, #0
 1496              	.L213:
 1497 0118 030050E1 		cmp	r0, r3
 1498 011c 0D0000DA 		ble	.L208
 1499 0120 017AB5EC 		vldmia.32	r5!, {s14}
 1500 0124 013083E2 		add	r3, r3, #1
 1501 0128 017AF6EC 		vldmia.32	r6!, {s15}
 1502 012c 216ADDED 		vldr.32	s13, [sp, #132]
 1503 0130 877A77EE 		vadd.f32	s15, s15, s14
 1504 0134 227A9DED 		vldr.32	s14, [sp, #136]
 1505 0138 667AF4EE 		vcmp.f32	s15, s13
 1506 013c 10FAF1EE 		vmrs	APSR_nzcv, FPSCR
 1507 0140 667AF04E 		vmovmi.f32	s15, s13
 1508 0144 677AB4EE 		vcmp.f32	s14, s15
 1509 0148 10FAF1EE 		vmrs	APSR_nzcv, FPSCR
 1510 014c 477AF04E 		vmovmi.f32	s15, s14
 1511 0150 017AE4EC 		vstmia.32	r4!, {s15}
 1512 0154 EFFFFFEA 		b	.L213
 1513              	.L208:
 1514 0158 0700A0E1 		mov	r0, r7
 1515 015c FEFFFFEB 		bl	_ZN6tflite12RuntimeShapeD1Ev
 1516 0160 28008DE2 		add	r0, sp, #40
 1517 0164 FEFFFFEB 		bl	_ZN6tflite12RuntimeShapeD1Ev
 1518 0168 14008DE2 		add	r0, sp, #20
 1519 016c FEFFFFEB 		bl	_ZN6tflite12RuntimeShapeD1Ev
 1520 0170 A4D08DE2 		add	sp, sp, #164
 1521              		@ sp needed
 1522 0174 F080BDE8 		pop	{r4, r5, r6, r7, pc}
 1523              	.L231:
 1524              	.L240:
 1525 0178 0700A0E1 		mov	r0, r7
 1526 017c FEFFFFEB 		bl	_ZN6tflite12RuntimeShapeD1Ev
 1527 0180 FFFFFFEA 		b	.L218
 1528              	.L230:
 1529              	.L218:
 1530 0184 28008DE2 		add	r0, sp, #40
 1531 0188 FEFFFFEB 		bl	_ZN6tflite12RuntimeShapeD1Ev
 1532 018c FFFFFFEA 		b	.L219
 1533              	.L229:
 1534              	.L219:
 1535 0190 14008DE2 		add	r0, sp, #20
 1536 0194 FEFFFFEB 		bl	_ZN6tflite12RuntimeShapeD1Ev
 1537              	.LEHB21:
 1538 0198 FEFFFFEB 		bl	__cxa_end_cleanup
 1539              	.LEHE21:
 1540              	.L234:
 1541 019c F5FFFFEA 		b	.L240
 1542              	.L233:
 1543 01a0 F7FFFFEA 		b	.L218
 1544              	.L232:
 1545 01a4 F9FFFFEA 		b	.L219
 1546              	.L243:
 1547              		.align	2
 1548              	.L242:
 1549 01a8 FFFF7F7F 		.word	2139095039
 1550 01ac FFFF7FFF 		.word	-8388609
 1551 01b0 00000000 		.word	0
 1552              		.personality	__gxx_personality_v0
 1553              		.handlerdata
 1554              	.LLSDA6236:
 1555 0008 FF       		.byte	0xff
 1556 0009 FF       		.byte	0xff
 1557 000a 01       		.byte	0x1
 1558 000b 31       		.uleb128 .LLSDACSE6236-.LLSDACSB6236
 1559              	.LLSDACSB6236:
 1560 000c 64       		.uleb128 .LEHB13-.LFB6236
 1561 000d 04       		.uleb128 .LEHE13-.LEHB13
 1562 000e 00       		.uleb128 0
 1563 000f 00       		.uleb128 0
 1564 0010 78       		.uleb128 .LEHB14-.LFB6236
 1565 0011 04       		.uleb128 .LEHE14-.LEHB14
 1566 0012 9003     		.uleb128 .L229-.LFB6236
 1567 0014 00       		.uleb128 0
 1568 0015 A401     		.uleb128 .LEHB15-.LFB6236
 1569 0017 04       		.uleb128 .LEHE15-.LEHB15
 1570 0018 8403     		.uleb128 .L230-.LFB6236
 1571 001a 00       		.uleb128 0
 1572 001b C801     		.uleb128 .LEHB16-.LFB6236
 1573 001d 04       		.uleb128 .LEHE16-.LEHB16
 1574 001e F802     		.uleb128 .L231-.LFB6236
 1575 0020 00       		.uleb128 0
 1576 0021 D001     		.uleb128 .LEHB17-.LFB6236
 1577 0023 04       		.uleb128 .LEHE17-.LEHB17
 1578 0024 00       		.uleb128 0
 1579 0025 00       		.uleb128 0
 1580 0026 E401     		.uleb128 .LEHB18-.LFB6236
 1581 0028 04       		.uleb128 .LEHE18-.LEHB18
 1582 0029 A403     		.uleb128 .L232-.LFB6236
 1583 002b 00       		.uleb128 0
 1584 002c F801     		.uleb128 .LEHB19-.LFB6236
 1585 002e 04       		.uleb128 .LEHE19-.LEHB19
 1586 002f A003     		.uleb128 .L233-.LFB6236
 1587 0031 00       		.uleb128 0
 1588 0032 9002     		.uleb128 .LEHB20-.LFB6236
 1589 0034 04       		.uleb128 .LEHE20-.LEHB20
 1590 0035 9C03     		.uleb128 .L234-.LFB6236
 1591 0037 00       		.uleb128 0
 1592 0038 9803     		.uleb128 .LEHB21-.LFB6236
 1593 003a 04       		.uleb128 .LEHE21-.LEHB21
 1594 003b 00       		.uleb128 0
 1595 003c 00       		.uleb128 0
 1596              	.LLSDACSE6236:
 1597              		.section	.text._ZN6tflite3ops5micro3add7EvalAddEP13TfLiteContextP10TfLiteNodeP15TfLiteAddParamsPKN
 1598              		.fnend
 1600              		.section	.text._ZN6tflite21reference_integer_ops18BroadcastAdd4DSlowERKNS_16ArithmeticParamsERKNS_
 1601              		.align	2
 1602              		.weak	_ZN6tflite21reference_integer_ops18BroadcastAdd4DSlowERKNS_16ArithmeticParamsERKNS_12Runtime
 1603              		.syntax unified
 1604              		.arm
 1605              		.fpu neon
 1607              	_ZN6tflite21reference_integer_ops18BroadcastAdd4DSlowERKNS_16ArithmeticParamsERKNS_12RuntimeShapeEP
 1608              		.fnstart
 1609              	.LFB3323:
 1610              		@ args = 12, pretend = 0, frame = 96
 1611              		@ frame_needed = 0, uses_anonymous_args = 0
 1612 0000 F04F2DE9 		push	{r4, r5, r6, r7, r8, r9, r10, fp, lr}
 1613              		.save {r4, r5, r6, r7, r8, r9, r10, fp, lr}
 1614              		.pad #108
 1615 0004 6CD04DE2 		sub	sp, sp, #108
 1616 0008 28608DE2 		add	r6, sp, #40
 1617 000c 0040A0E1 		mov	r4, r0
 1618 0010 02B0A0E1 		mov	fp, r2
 1619 0014 0100A0E1 		mov	r0, r1
 1620 0018 0620A0E1 		mov	r2, r6
 1621 001c 0310A0E1 		mov	r1, r3
 1622 0020 0050A0E3 		mov	r5, #0
 1623 0024 48308DE2 		add	r3, sp, #72
 1624              	.LEHB22:
 1625 0028 FEFFFFEB 		bl	_ZN6tflite35NdArrayDescsForElementwiseBroadcastILi4EEEvRKNS_12RuntimeShapeES3_PNS_11NdArrayDesc
 1626 002c 0130A0E3 		mov	r3, #1
 1627 0030 94209DE5 		ldr	r2, [sp, #148]
 1628 0034 0410A0E3 		mov	r1, #4
 1629 0038 14008DE2 		add	r0, sp, #20
 1630 003c FEFFFFEB 		bl	_ZN6tflite12RuntimeShapeC1EiRKS0_i
 1631              	.LEHE22:
 1632 0040 0C608DE5 		str	r6, [sp, #12]
 1633              	.L252:
 1634 0044 0010A0E3 		mov	r1, #0
 1635 0048 14008DE2 		add	r0, sp, #20
 1636              	.LEHB23:
 1637 004c FEFFFFEB 		bl	_ZNK6tflite12RuntimeShape4DimsEi
 1638 0050 000055E1 		cmp	r5, r0
 1639 0054 4B0000AA 		bge	.L245
 1640 0058 0060A0E3 		mov	r6, #0
 1641              	.L251:
 1642 005c 0110A0E3 		mov	r1, #1
 1643 0060 14008DE2 		add	r0, sp, #20
 1644 0064 FEFFFFEB 		bl	_ZNK6tflite12RuntimeShape4DimsEi
 1645 0068 000056E1 		cmp	r6, r0
 1646 006c 430000AA 		bge	.L246
 1647 0070 0070A0E3 		mov	r7, #0
 1648              	.L250:
 1649 0074 0210A0E3 		mov	r1, #2
 1650 0078 14008DE2 		add	r0, sp, #20
 1651 007c FEFFFFEB 		bl	_ZNK6tflite12RuntimeShape4DimsEi
 1652 0080 000057E1 		cmp	r7, r0
 1653 0084 3B0000AA 		bge	.L247
 1654 0088 0080A0E3 		mov	r8, #0
 1655              	.L249:
 1656 008c 0310A0E3 		mov	r1, #3
 1657 0090 14008DE2 		add	r0, sp, #20
 1658 0094 FEFFFFEB 		bl	_ZNK6tflite12RuntimeShape4DimsEi
 1659 0098 000058E1 		cmp	r8, r0
 1660 009c 330000AA 		bge	.L248
 1661 00a0 00808DE5 		str	r8, [sp]
 1662 00a4 0730A0E1 		mov	r3, r7
 1663 00a8 0620A0E1 		mov	r2, r6
 1664 00ac 0510A0E1 		mov	r1, r5
 1665 00b0 0C009DE5 		ldr	r0, [sp, #12]
 1666 00b4 049094E5 		ldr	r9, [r4, #4]
 1667 00b8 FEFFFFEB 		bl	_ZN6tflite16SubscriptToIndexERKNS_11NdArrayDescILi4EEEiiii
 1668 00bc D0A09BE1 		ldrsb	r10, [fp, r0]
 1669 00c0 0730A0E1 		mov	r3, r7
 1670 00c4 00808DE5 		str	r8, [sp]
 1671 00c8 0620A0E1 		mov	r2, r6
 1672 00cc 0510A0E1 		mov	r1, r5
 1673 00d0 48008DE2 		add	r0, sp, #72
 1674 00d4 09A08AE0 		add	r10, r10, r9
 1675 00d8 089094E5 		ldr	r9, [r4, #8]
 1676 00dc FEFFFFEB 		bl	_ZN6tflite16SubscriptToIndexERKNS_11NdArrayDescILi4EEEiiii
 1677 00e0 90309DE5 		ldr	r3, [sp, #144]
 1678 00e4 18C094E5 		ldr	ip, [r4, #24]
 1679 00e8 202094E5 		ldr	r2, [r4, #32]
 1680 00ec D03093E1 		ldrsb	r3, [r3, r0]
 1681 00f0 1C1094E5 		ldr	r1, [r4, #28]
 1682 00f4 1A0CA0E1 		lsl	r0, r10, ip
 1683 00f8 099083E0 		add	r9, r3, r9
 1684 00fc 199CA0E1 		lsl	r9, r9, ip
 1685 0100 FEFFFFEB 		bl	_ZN6tflite46MultiplyByQuantizedMultiplierSmallerThanOneExpElli
 1686 0104 00A0A0E1 		mov	r10, r0
 1687 0108 282094E5 		ldr	r2, [r4, #40]
 1688 010c 241094E5 		ldr	r1, [r4, #36]
 1689 0110 0900A0E1 		mov	r0, r9
 1690 0114 FEFFFFEB 		bl	_ZN6tflite46MultiplyByQuantizedMultiplierSmallerThanOneExpElli
 1691 0118 142094E5 		ldr	r2, [r4, #20]
 1692 011c 00008AE0 		add	r0, r10, r0
 1693 0120 101094E5 		ldr	r1, [r4, #16]
 1694 0124 FEFFFFEB 		bl	_ZN6tflite46MultiplyByQuantizedMultiplierSmallerThanOneExpElli
 1695 0128 0C9094E5 		ldr	r9, [r4, #12]
 1696 012c 0730A0E1 		mov	r3, r7
 1697 0130 00808DE5 		str	r8, [sp]
 1698 0134 0620A0E1 		mov	r2, r6
 1699 0138 0510A0E1 		mov	r1, r5
 1700 013c 099080E0 		add	r9, r0, r9
 1701 0140 2C0094E5 		ldr	r0, [r4, #44]
 1702 0144 000059E1 		cmp	r9, r0
 1703 0148 0090A0B1 		movlt	r9, r0
 1704 014c 300094E5 		ldr	r0, [r4, #48]
 1705 0150 000059E1 		cmp	r9, r0
 1706 0154 0090A0A1 		movge	r9, r0
 1707 0158 14008DE2 		add	r0, sp, #20
 1708 015c FEFFFFEB 		bl	_ZN6tflite6OffsetERKNS_12RuntimeShapeEiiii
 1709              	.LEHE23:
 1710 0160 98309DE5 		ldr	r3, [sp, #152]
 1711 0164 018088E2 		add	r8, r8, #1
 1712 0168 0090C3E7 		strb	r9, [r3, r0]
 1713 016c C6FFFFEA 		b	.L249
 1714              	.L248:
 1715 0170 017087E2 		add	r7, r7, #1
 1716 0174 BEFFFFEA 		b	.L250
 1717              	.L247:
 1718 0178 016086E2 		add	r6, r6, #1
 1719 017c B6FFFFEA 		b	.L251
 1720              	.L246:
 1721 0180 015085E2 		add	r5, r5, #1
 1722 0184 AEFFFFEA 		b	.L252
 1723              	.L245:
 1724 0188 14008DE2 		add	r0, sp, #20
 1725 018c FEFFFFEB 		bl	_ZN6tflite12RuntimeShapeD1Ev
 1726 0190 6CD08DE2 		add	sp, sp, #108
 1727              		@ sp needed
 1728 0194 F08FBDE8 		pop	{r4, r5, r6, r7, r8, r9, r10, fp, pc}
 1729              	.L254:
 1730 0198 14008DE2 		add	r0, sp, #20
 1731 019c FEFFFFEB 		bl	_ZN6tflite12RuntimeShapeD1Ev
 1732              	.LEHB24:
 1733 01a0 FEFFFFEB 		bl	__cxa_end_cleanup
 1734              	.LEHE24:
 1735              		.personality	__gxx_personality_v0
 1736              		.handlerdata
 1737              	.LLSDA3323:
 1738 0008 FF       		.byte	0xff
 1739 0009 FF       		.byte	0xff
 1740 000a 01       		.byte	0x1
 1741 000b 0F       		.uleb128 .LLSDACSE3323-.LLSDACSB3323
 1742              	.LLSDACSB3323:
 1743 000c 28       		.uleb128 .LEHB22-.LFB3323
 1744 000d 18       		.uleb128 .LEHE22-.LEHB22
 1745 000e 00       		.uleb128 0
 1746 000f 00       		.uleb128 0
 1747 0010 4C       		.uleb128 .LEHB23-.LFB3323
 1748 0011 9402     		.uleb128 .LEHE23-.LEHB23
 1749 0013 9803     		.uleb128 .L254-.LFB3323
 1750 0015 00       		.uleb128 0
 1751 0016 A003     		.uleb128 .LEHB24-.LFB3323
 1752 0018 04       		.uleb128 .LEHE24-.LEHB24
 1753 0019 00       		.uleb128 0
 1754 001a 00       		.uleb128 0
 1755              	.LLSDACSE3323:
 1756              		.section	.text._ZN6tflite21reference_integer_ops18BroadcastAdd4DSlowERKNS_16ArithmeticParamsERKNS_
 1757              		.fnend
 1759              		.section	.text._ZN6tflite13reference_ops18BroadcastAdd4DSlowERKNS_16ArithmeticParamsERKNS_12Runtim
 1760              		.align	2
 1761              		.weak	_ZN6tflite13reference_ops18BroadcastAdd4DSlowERKNS_16ArithmeticParamsERKNS_12RuntimeShapeEPK
 1762              		.syntax unified
 1763              		.arm
 1764              		.fpu neon
 1766              	_ZN6tflite13reference_ops18BroadcastAdd4DSlowERKNS_16ArithmeticParamsERKNS_12RuntimeShapeEPKhS6_S8_
 1767              		.fnstart
 1768              	.LFB3315:
 1769              		@ args = 12, pretend = 0, frame = 96
 1770              		@ frame_needed = 0, uses_anonymous_args = 0
 1771 0000 F04F2DE9 		push	{r4, r5, r6, r7, r8, r9, r10, fp, lr}
 1772              		.save {r4, r5, r6, r7, r8, r9, r10, fp, lr}
 1773              		.pad #108
 1774 0004 6CD04DE2 		sub	sp, sp, #108
 1775 0008 28608DE2 		add	r6, sp, #40
 1776 000c 0040A0E1 		mov	r4, r0
 1777 0010 02B0A0E1 		mov	fp, r2
 1778 0014 0100A0E1 		mov	r0, r1
 1779 0018 0620A0E1 		mov	r2, r6
 1780 001c 0310A0E1 		mov	r1, r3
 1781 0020 0050A0E3 		mov	r5, #0
 1782 0024 48308DE2 		add	r3, sp, #72
 1783              	.LEHB25:
 1784 0028 FEFFFFEB 		bl	_ZN6tflite35NdArrayDescsForElementwiseBroadcastILi4EEEvRKNS_12RuntimeShapeES3_PNS_11NdArrayDesc
 1785 002c 0130A0E3 		mov	r3, #1
 1786 0030 94209DE5 		ldr	r2, [sp, #148]
 1787 0034 0410A0E3 		mov	r1, #4
 1788 0038 14008DE2 		add	r0, sp, #20
 1789 003c FEFFFFEB 		bl	_ZN6tflite12RuntimeShapeC1EiRKS0_i
 1790              	.LEHE25:
 1791 0040 0C608DE5 		str	r6, [sp, #12]
 1792              	.L265:
 1793 0044 0010A0E3 		mov	r1, #0
 1794 0048 14008DE2 		add	r0, sp, #20
 1795              	.LEHB26:
 1796 004c FEFFFFEB 		bl	_ZNK6tflite12RuntimeShape4DimsEi
 1797 0050 000055E1 		cmp	r5, r0
 1798 0054 4B0000AA 		bge	.L258
 1799 0058 0060A0E3 		mov	r6, #0
 1800              	.L264:
 1801 005c 0110A0E3 		mov	r1, #1
 1802 0060 14008DE2 		add	r0, sp, #20
 1803 0064 FEFFFFEB 		bl	_ZNK6tflite12RuntimeShape4DimsEi
 1804 0068 000056E1 		cmp	r6, r0
 1805 006c 430000AA 		bge	.L259
 1806 0070 0070A0E3 		mov	r7, #0
 1807              	.L263:
 1808 0074 0210A0E3 		mov	r1, #2
 1809 0078 14008DE2 		add	r0, sp, #20
 1810 007c FEFFFFEB 		bl	_ZNK6tflite12RuntimeShape4DimsEi
 1811 0080 000057E1 		cmp	r7, r0
 1812 0084 3B0000AA 		bge	.L260
 1813 0088 0080A0E3 		mov	r8, #0
 1814              	.L262:
 1815 008c 0310A0E3 		mov	r1, #3
 1816 0090 14008DE2 		add	r0, sp, #20
 1817 0094 FEFFFFEB 		bl	_ZNK6tflite12RuntimeShape4DimsEi
 1818 0098 000058E1 		cmp	r8, r0
 1819 009c 330000AA 		bge	.L261
 1820 00a0 00808DE5 		str	r8, [sp]
 1821 00a4 0730A0E1 		mov	r3, r7
 1822 00a8 0620A0E1 		mov	r2, r6
 1823 00ac 0510A0E1 		mov	r1, r5
 1824 00b0 0C009DE5 		ldr	r0, [sp, #12]
 1825 00b4 049094E5 		ldr	r9, [r4, #4]
 1826 00b8 FEFFFFEB 		bl	_ZN6tflite16SubscriptToIndexERKNS_11NdArrayDescILi4EEEiiii
 1827 00bc 00A0DBE7 		ldrb	r10, [fp, r0]	@ zero_extendqisi2
 1828 00c0 0730A0E1 		mov	r3, r7
 1829 00c4 00808DE5 		str	r8, [sp]
 1830 00c8 0620A0E1 		mov	r2, r6
 1831 00cc 0510A0E1 		mov	r1, r5
 1832 00d0 48008DE2 		add	r0, sp, #72
 1833 00d4 09A08AE0 		add	r10, r10, r9
 1834 00d8 089094E5 		ldr	r9, [r4, #8]
 1835 00dc FEFFFFEB 		bl	_ZN6tflite16SubscriptToIndexERKNS_11NdArrayDescILi4EEEiiii
 1836 00e0 90309DE5 		ldr	r3, [sp, #144]
 1837 00e4 18C094E5 		ldr	ip, [r4, #24]
 1838 00e8 202094E5 		ldr	r2, [r4, #32]
 1839 00ec 0030D3E7 		ldrb	r3, [r3, r0]	@ zero_extendqisi2
 1840 00f0 1C1094E5 		ldr	r1, [r4, #28]
 1841 00f4 1A0CA0E1 		lsl	r0, r10, ip
 1842 00f8 099083E0 		add	r9, r3, r9
 1843 00fc 199CA0E1 		lsl	r9, r9, ip
 1844 0100 FEFFFFEB 		bl	_ZN6tflite46MultiplyByQuantizedMultiplierSmallerThanOneExpElli
 1845 0104 00A0A0E1 		mov	r10, r0
 1846 0108 282094E5 		ldr	r2, [r4, #40]
 1847 010c 241094E5 		ldr	r1, [r4, #36]
 1848 0110 0900A0E1 		mov	r0, r9
 1849 0114 FEFFFFEB 		bl	_ZN6tflite46MultiplyByQuantizedMultiplierSmallerThanOneExpElli
 1850 0118 142094E5 		ldr	r2, [r4, #20]
 1851 011c 00008AE0 		add	r0, r10, r0
 1852 0120 101094E5 		ldr	r1, [r4, #16]
 1853 0124 FEFFFFEB 		bl	_ZN6tflite46MultiplyByQuantizedMultiplierSmallerThanOneExpElli
 1854 0128 0C9094E5 		ldr	r9, [r4, #12]
 1855 012c 0730A0E1 		mov	r3, r7
 1856 0130 00808DE5 		str	r8, [sp]
 1857 0134 0620A0E1 		mov	r2, r6
 1858 0138 0510A0E1 		mov	r1, r5
 1859 013c 099080E0 		add	r9, r0, r9
 1860 0140 2C0094E5 		ldr	r0, [r4, #44]
 1861 0144 000059E1 		cmp	r9, r0
 1862 0148 0090A0B1 		movlt	r9, r0
 1863 014c 300094E5 		ldr	r0, [r4, #48]
 1864 0150 000059E1 		cmp	r9, r0
 1865 0154 0090A0A1 		movge	r9, r0
 1866 0158 14008DE2 		add	r0, sp, #20
 1867 015c FEFFFFEB 		bl	_ZN6tflite6OffsetERKNS_12RuntimeShapeEiiii
 1868              	.LEHE26:
 1869 0160 98309DE5 		ldr	r3, [sp, #152]
 1870 0164 018088E2 		add	r8, r8, #1
 1871 0168 0090C3E7 		strb	r9, [r3, r0]
 1872 016c C6FFFFEA 		b	.L262
 1873              	.L261:
 1874 0170 017087E2 		add	r7, r7, #1
 1875 0174 BEFFFFEA 		b	.L263
 1876              	.L260:
 1877 0178 016086E2 		add	r6, r6, #1
 1878 017c B6FFFFEA 		b	.L264
 1879              	.L259:
 1880 0180 015085E2 		add	r5, r5, #1
 1881 0184 AEFFFFEA 		b	.L265
 1882              	.L258:
 1883 0188 14008DE2 		add	r0, sp, #20
 1884 018c FEFFFFEB 		bl	_ZN6tflite12RuntimeShapeD1Ev
 1885 0190 6CD08DE2 		add	sp, sp, #108
 1886              		@ sp needed
 1887 0194 F08FBDE8 		pop	{r4, r5, r6, r7, r8, r9, r10, fp, pc}
 1888              	.L267:
 1889 0198 14008DE2 		add	r0, sp, #20
 1890 019c FEFFFFEB 		bl	_ZN6tflite12RuntimeShapeD1Ev
 1891              	.LEHB27:
 1892 01a0 FEFFFFEB 		bl	__cxa_end_cleanup
 1893              	.LEHE27:
 1894              		.personality	__gxx_personality_v0
 1895              		.handlerdata
 1896              	.LLSDA3315:
 1897 0008 FF       		.byte	0xff
 1898 0009 FF       		.byte	0xff
 1899 000a 01       		.byte	0x1
 1900 000b 0F       		.uleb128 .LLSDACSE3315-.LLSDACSB3315
 1901              	.LLSDACSB3315:
 1902 000c 28       		.uleb128 .LEHB25-.LFB3315
 1903 000d 18       		.uleb128 .LEHE25-.LEHB25
 1904 000e 00       		.uleb128 0
 1905 000f 00       		.uleb128 0
 1906 0010 4C       		.uleb128 .LEHB26-.LFB3315
 1907 0011 9402     		.uleb128 .LEHE26-.LEHB26
 1908 0013 9803     		.uleb128 .L267-.LFB3315
 1909 0015 00       		.uleb128 0
 1910 0016 A003     		.uleb128 .LEHB27-.LFB3315
 1911 0018 04       		.uleb128 .LEHE27-.LEHB27
 1912 0019 00       		.uleb128 0
 1913 001a 00       		.uleb128 0
 1914              	.LLSDACSE3315:
 1915              		.section	.text._ZN6tflite13reference_ops18BroadcastAdd4DSlowERKNS_16ArithmeticParamsERKNS_12Runtim
 1916              		.fnend
 1918              		.section	.text._ZN6tflite3ops5micro3add16EvalAddQuantizedEP13TfLiteContextP10TfLiteNodeP15TfLiteAd
 1919              		.align	2
 1920              		.global	_ZN6tflite3ops5micro3add16EvalAddQuantizedEP13TfLiteContextP10TfLiteNodeP15TfLiteAddParams
 1921              		.syntax unified
 1922              		.arm
 1923              		.fpu neon
 1925              	_ZN6tflite3ops5micro3add16EvalAddQuantizedEP13TfLiteContextP10TfLiteNodeP15TfLiteAddParamsPKNS2_6Op
 1926              		.fnstart
 1927              	.LFB6237:
 1928              		@ args = 12, pretend = 0, frame = 144
 1929              		@ frame_needed = 0, uses_anonymous_args = 0
 1930 0000 F0412DE9 		push	{r4, r5, r6, r7, r8, lr}
 1931              		.save {r4, r5, r6, r7, r8, lr}
 1932              		.pad #160
 1933 0004 A0D04DE2 		sub	sp, sp, #160
 1934 0008 B8408DE2 		add	r4, sp, #184
 1935 000c 700094E8 		ldm	r4, {r4, r5, r6}
 1936 0010 0020D6E5 		ldrb	r2, [r6]	@ zero_extendqisi2
 1937 0014 090052E3 		cmp	r2, #9
 1938 0018 03005213 		cmpne	r2, #3
 1939 001c 8500001A 		bne	.L322
 1940 0020 242093E5 		ldr	r2, [r3, #36]
 1941 0024 0410A0E1 		mov	r1, r4
 1942 0028 28008DE2 		add	r0, sp, #40
 1943 002c 3C708DE2 		add	r7, sp, #60
 1944 0030 68208DE5 		str	r2, [sp, #104]
 1945 0034 282093E5 		ldr	r2, [r3, #40]
 1946 0038 54208DE5 		str	r2, [sp, #84]
 1947 003c 142093E5 		ldr	r2, [r3, #20]
 1948 0040 6C208DE5 		str	r2, [sp, #108]
 1949 0044 042093E5 		ldr	r2, [r3, #4]
 1950 0048 70208DE5 		str	r2, [sp, #112]
 1951 004c 2C2093E5 		ldr	r2, [r3, #44]
 1952 0050 58208DE5 		str	r2, [sp, #88]
 1953 0054 182093E5 		ldr	r2, [r3, #24]
 1954 0058 74208DE5 		str	r2, [sp, #116]
 1955 005c 082093E5 		ldr	r2, [r3, #8]
 1956 0060 78208DE5 		str	r2, [sp, #120]
 1957 0064 302093E5 		ldr	r2, [r3, #48]
 1958 0068 5C208DE5 		str	r2, [sp, #92]
 1959 006c 1C2093E5 		ldr	r2, [r3, #28]
 1960 0070 60208DE5 		str	r2, [sp, #96]
 1961 0074 202093E5 		ldr	r2, [r3, #32]
 1962 0078 64208DE5 		str	r2, [sp, #100]
 1963 007c 102093E5 		ldr	r2, [r3, #16]
 1964 0080 0C3093E5 		ldr	r3, [r3, #12]
 1965 0084 80208DE5 		str	r2, [sp, #128]
 1966 0088 7C308DE5 		str	r3, [sp, #124]
 1967              	.LEHB28:
 1968 008c FEFFFFEB 		bl	_ZN6tflite14GetTensorShapeEPK12TfLiteTensor
 1969              	.LEHE28:
 1970 0090 0510A0E1 		mov	r1, r5
 1971 0094 0700A0E1 		mov	r0, r7
 1972              	.LEHB29:
 1973 0098 FEFFFFEB 		bl	_ZN6tflite14GetTensorShapeEPK12TfLiteTensor
 1974              	.LEHE29:
 1975 009c 50208DE2 		add	r2, sp, #80
 1976 00a0 0710A0E1 		mov	r1, r7
 1977 00a4 28008DE2 		add	r0, sp, #40
 1978              	.LEHB30:
 1979 00a8 FEFFFFEB 		bl	_ZN6tflite13reference_ops22ProcessBroadcastShapesERKNS_12RuntimeShapeES3_PNS_16ArithmeticParams
 1980              	.LEHE30:
 1981 00ac 0080A0E1 		mov	r8, r0
 1982 00b0 0700A0E1 		mov	r0, r7
 1983 00b4 FEFFFFEB 		bl	_ZN6tflite12RuntimeShapeD1Ev
 1984 00b8 28008DE2 		add	r0, sp, #40
 1985 00bc FEFFFFEB 		bl	_ZN6tflite12RuntimeShapeD1Ev
 1986 00c0 0030D6E5 		ldrb	r3, [r6]	@ zero_extendqisi2
 1987 00c4 0410A0E1 		mov	r1, r4
 1988 00c8 14008DE2 		add	r0, sp, #20
 1989 00cc 090053E3 		cmp	r3, #9
 1990 00d0 2900001A 		bne	.L272
 1991 00d4 000058E3 		cmp	r8, #0
 1992 00d8 1300000A 		beq	.L273
 1993              	.LEHB31:
 1994 00dc FEFFFFEB 		bl	_ZN6tflite14GetTensorShapeEPK12TfLiteTensor
 1995              	.LEHE31:
 1996 00e0 000054E3 		cmp	r4, #0
 1997 00e4 0510A0E1 		mov	r1, r5
 1998 00e8 28008DE2 		add	r0, sp, #40
 1999 00ec 04409415 		ldrne	r4, [r4, #4]
 2000              	.LEHB32:
 2001 00f0 FEFFFFEB 		bl	_ZN6tflite14GetTensorShapeEPK12TfLiteTensor
 2002              	.LEHE32:
 2003 00f4 000055E3 		cmp	r5, #0
 2004 00f8 0610A0E1 		mov	r1, r6
 2005 00fc 0700A0E1 		mov	r0, r7
 2006 0100 04509515 		ldrne	r5, [r5, #4]
 2007              	.LEHB33:
 2008 0104 FEFFFFEB 		bl	_ZN6tflite14GetTensorShapeEPK12TfLiteTensor
 2009              	.LEHE33:
 2010 0108 043096E5 		ldr	r3, [r6, #4]
 2011 010c 0420A0E1 		mov	r2, r4
 2012 0110 A0008DE8 		stm	sp, {r5, r7}
 2013 0114 14108DE2 		add	r1, sp, #20
 2014 0118 50008DE2 		add	r0, sp, #80
 2015 011c 08308DE5 		str	r3, [sp, #8]
 2016 0120 28308DE2 		add	r3, sp, #40
 2017              	.LEHB34:
 2018 0124 FEFFFFEB 		bl	_ZN6tflite21reference_integer_ops18BroadcastAdd4DSlowERKNS_16ArithmeticParamsERKNS_12RuntimeSha
 2019              	.LEHE34:
 2020 0128 3C0000EA 		b	.L325
 2021              	.L273:
 2022              	.LEHB35:
 2023 012c FEFFFFEB 		bl	_ZN6tflite14GetTensorShapeEPK12TfLiteTensor
 2024              	.LEHE35:
 2025 0130 000054E3 		cmp	r4, #0
 2026 0134 0510A0E1 		mov	r1, r5
 2027 0138 28008DE2 		add	r0, sp, #40
 2028 013c 04409415 		ldrne	r4, [r4, #4]
 2029              	.LEHB36:
 2030 0140 FEFFFFEB 		bl	_ZN6tflite14GetTensorShapeEPK12TfLiteTensor
 2031              	.LEHE36:
 2032 0144 000055E3 		cmp	r5, #0
 2033 0148 0610A0E1 		mov	r1, r6
 2034 014c 0700A0E1 		mov	r0, r7
 2035 0150 04509515 		ldrne	r5, [r5, #4]
 2036              	.LEHB37:
 2037 0154 FEFFFFEB 		bl	_ZN6tflite14GetTensorShapeEPK12TfLiteTensor
 2038              	.LEHE37:
 2039 0158 043096E5 		ldr	r3, [r6, #4]
 2040 015c 0420A0E1 		mov	r2, r4
 2041 0160 A0008DE8 		stm	sp, {r5, r7}
 2042 0164 14108DE2 		add	r1, sp, #20
 2043 0168 50008DE2 		add	r0, sp, #80
 2044 016c 08308DE5 		str	r3, [sp, #8]
 2045 0170 28308DE2 		add	r3, sp, #40
 2046              	.LEHB38:
 2047 0174 FEFFFFEB 		bl	_ZN6tflite21reference_integer_ops3AddERKNS_16ArithmeticParamsERKNS_12RuntimeShapeEPKaS6_S8_S6_P
 2048              	.LEHE38:
 2049 0178 280000EA 		b	.L325
 2050              	.L272:
 2051 017c 000058E3 		cmp	r8, #0
 2052 0180 1300000A 		beq	.L279
 2053              	.LEHB39:
 2054 0184 FEFFFFEB 		bl	_ZN6tflite14GetTensorShapeEPK12TfLiteTensor
 2055              	.LEHE39:
 2056 0188 000054E3 		cmp	r4, #0
 2057 018c 0510A0E1 		mov	r1, r5
 2058 0190 28008DE2 		add	r0, sp, #40
 2059 0194 04409415 		ldrne	r4, [r4, #4]
 2060              	.LEHB40:
 2061 0198 FEFFFFEB 		bl	_ZN6tflite14GetTensorShapeEPK12TfLiteTensor
 2062              	.LEHE40:
 2063 019c 000055E3 		cmp	r5, #0
 2064 01a0 0610A0E1 		mov	r1, r6
 2065 01a4 0700A0E1 		mov	r0, r7
 2066 01a8 04509515 		ldrne	r5, [r5, #4]
 2067              	.LEHB41:
 2068 01ac FEFFFFEB 		bl	_ZN6tflite14GetTensorShapeEPK12TfLiteTensor
 2069              	.LEHE41:
 2070 01b0 043096E5 		ldr	r3, [r6, #4]
 2071 01b4 0420A0E1 		mov	r2, r4
 2072 01b8 A0008DE8 		stm	sp, {r5, r7}
 2073 01bc 14108DE2 		add	r1, sp, #20
 2074 01c0 50008DE2 		add	r0, sp, #80
 2075 01c4 08308DE5 		str	r3, [sp, #8]
 2076 01c8 28308DE2 		add	r3, sp, #40
 2077              	.LEHB42:
 2078 01cc FEFFFFEB 		bl	_ZN6tflite13reference_ops18BroadcastAdd4DSlowERKNS_16ArithmeticParamsERKNS_12RuntimeShapeEPKhS6
 2079              	.LEHE42:
 2080 01d0 120000EA 		b	.L325
 2081              	.L279:
 2082              	.LEHB43:
 2083 01d4 FEFFFFEB 		bl	_ZN6tflite14GetTensorShapeEPK12TfLiteTensor
 2084              	.LEHE43:
 2085 01d8 000054E3 		cmp	r4, #0
 2086 01dc 0510A0E1 		mov	r1, r5
 2087 01e0 28008DE2 		add	r0, sp, #40
 2088 01e4 04409415 		ldrne	r4, [r4, #4]
 2089              	.LEHB44:
 2090 01e8 FEFFFFEB 		bl	_ZN6tflite14GetTensorShapeEPK12TfLiteTensor
 2091              	.LEHE44:
 2092 01ec 000055E3 		cmp	r5, #0
 2093 01f0 0610A0E1 		mov	r1, r6
 2094 01f4 0700A0E1 		mov	r0, r7
 2095 01f8 04509515 		ldrne	r5, [r5, #4]
 2096              	.LEHB45:
 2097 01fc FEFFFFEB 		bl	_ZN6tflite14GetTensorShapeEPK12TfLiteTensor
 2098              	.LEHE45:
 2099 0200 043096E5 		ldr	r3, [r6, #4]
 2100 0204 0420A0E1 		mov	r2, r4
 2101 0208 A0008DE8 		stm	sp, {r5, r7}
 2102 020c 14108DE2 		add	r1, sp, #20
 2103 0210 50008DE2 		add	r0, sp, #80
 2104 0214 08308DE5 		str	r3, [sp, #8]
 2105 0218 28308DE2 		add	r3, sp, #40
 2106              	.LEHB46:
 2107 021c FEFFFFEB 		bl	_ZN6tflite13reference_ops3AddERKNS_16ArithmeticParamsERKNS_12RuntimeShapeEPKhS6_S8_S6_Ph
 2108              	.LEHE46:
 2109              	.L325:
 2110 0220 0700A0E1 		mov	r0, r7
 2111 0224 FEFFFFEB 		bl	_ZN6tflite12RuntimeShapeD1Ev
 2112 0228 28008DE2 		add	r0, sp, #40
 2113 022c FEFFFFEB 		bl	_ZN6tflite12RuntimeShapeD1Ev
 2114 0230 14008DE2 		add	r0, sp, #20
 2115 0234 FEFFFFEB 		bl	_ZN6tflite12RuntimeShapeD1Ev
 2116              	.L322:
 2117 0238 0000A0E3 		mov	r0, #0
 2118 023c A0D08DE2 		add	sp, sp, #160
 2119              		@ sp needed
 2120 0240 F081BDE8 		pop	{r4, r5, r6, r7, r8, pc}
 2121              	.L307:
 2122 0244 0700A0E1 		mov	r0, r7
 2123 0248 FEFFFFEB 		bl	_ZN6tflite12RuntimeShapeD1Ev
 2124              	.L285:
 2125 024c 28008DE2 		add	r0, sp, #40
 2126              	.L326:
 2127 0250 FEFFFFEB 		bl	_ZN6tflite12RuntimeShapeD1Ev
 2128              	.LEHB47:
 2129 0254 FEFFFFEB 		bl	__cxa_end_cleanup
 2130              	.LEHE47:
 2131              	.L306:
 2132 0258 FBFFFFEA 		b	.L285
 2133              	.L310:
 2134              	.L327:
 2135 025c 0700A0E1 		mov	r0, r7
 2136 0260 FEFFFFEB 		bl	_ZN6tflite12RuntimeShapeD1Ev
 2137 0264 FFFFFFEA 		b	.L296
 2138              	.L309:
 2139              	.L296:
 2140 0268 28008DE2 		add	r0, sp, #40
 2141 026c FEFFFFEB 		bl	_ZN6tflite12RuntimeShapeD1Ev
 2142 0270 FFFFFFEA 		b	.L288
 2143              	.L308:
 2144              	.L288:
 2145 0274 14008DE2 		add	r0, sp, #20
 2146 0278 F4FFFFEA 		b	.L326
 2147              	.L313:
 2148 027c F6FFFFEA 		b	.L327
 2149              	.L312:
 2150 0280 F8FFFFEA 		b	.L296
 2151              	.L311:
 2152 0284 FAFFFFEA 		b	.L288
 2153              	.L316:
 2154 0288 F3FFFFEA 		b	.L327
 2155              	.L315:
 2156 028c F5FFFFEA 		b	.L296
 2157              	.L314:
 2158 0290 F7FFFFEA 		b	.L288
 2159              	.L319:
 2160 0294 F0FFFFEA 		b	.L327
 2161              	.L318:
 2162 0298 F2FFFFEA 		b	.L296
 2163              	.L317:
 2164 029c F4FFFFEA 		b	.L288
 2165              		.personality	__gxx_personality_v0
 2166              		.handlerdata
 2167              	.LLSDA6237:
 2168 0008 FF       		.byte	0xff
 2169 0009 FF       		.byte	0xff
 2170 000a 01       		.byte	0x1
 2171 000b 72       		.uleb128 .LLSDACSE6237-.LLSDACSB6237
 2172              	.LLSDACSB6237:
 2173 000c 8C01     		.uleb128 .LEHB28-.LFB6237
 2174 000e 04       		.uleb128 .LEHE28-.LEHB28
 2175 000f 00       		.uleb128 0
 2176 0010 00       		.uleb128 0
 2177 0011 9801     		.uleb128 .LEHB29-.LFB6237
 2178 0013 04       		.uleb128 .LEHE29-.LEHB29
 2179 0014 D804     		.uleb128 .L306-.LFB6237
 2180 0016 00       		.uleb128 0
 2181 0017 A801     		.uleb128 .LEHB30-.LFB6237
 2182 0019 04       		.uleb128 .LEHE30-.LEHB30
 2183 001a C404     		.uleb128 .L307-.LFB6237
 2184 001c 00       		.uleb128 0
 2185 001d DC01     		.uleb128 .LEHB31-.LFB6237
 2186 001f 04       		.uleb128 .LEHE31-.LEHB31
 2187 0020 00       		.uleb128 0
 2188 0021 00       		.uleb128 0
 2189 0022 F001     		.uleb128 .LEHB32-.LFB6237
 2190 0024 04       		.uleb128 .LEHE32-.LEHB32
 2191 0025 F404     		.uleb128 .L308-.LFB6237
 2192 0027 00       		.uleb128 0
 2193 0028 8402     		.uleb128 .LEHB33-.LFB6237
 2194 002a 04       		.uleb128 .LEHE33-.LEHB33
 2195 002b E804     		.uleb128 .L309-.LFB6237
 2196 002d 00       		.uleb128 0
 2197 002e A402     		.uleb128 .LEHB34-.LFB6237
 2198 0030 04       		.uleb128 .LEHE34-.LEHB34
 2199 0031 DC04     		.uleb128 .L310-.LFB6237
 2200 0033 00       		.uleb128 0
 2201 0034 AC02     		.uleb128 .LEHB35-.LFB6237
 2202 0036 04       		.uleb128 .LEHE35-.LEHB35
 2203 0037 00       		.uleb128 0
 2204 0038 00       		.uleb128 0
 2205 0039 C002     		.uleb128 .LEHB36-.LFB6237
 2206 003b 04       		.uleb128 .LEHE36-.LEHB36
 2207 003c 8405     		.uleb128 .L311-.LFB6237
 2208 003e 00       		.uleb128 0
 2209 003f D402     		.uleb128 .LEHB37-.LFB6237
 2210 0041 04       		.uleb128 .LEHE37-.LEHB37
 2211 0042 8005     		.uleb128 .L312-.LFB6237
 2212 0044 00       		.uleb128 0
 2213 0045 F402     		.uleb128 .LEHB38-.LFB6237
 2214 0047 04       		.uleb128 .LEHE38-.LEHB38
 2215 0048 FC04     		.uleb128 .L313-.LFB6237
 2216 004a 00       		.uleb128 0
 2217 004b 8403     		.uleb128 .LEHB39-.LFB6237
 2218 004d 04       		.uleb128 .LEHE39-.LEHB39
 2219 004e 00       		.uleb128 0
 2220 004f 00       		.uleb128 0
 2221 0050 9803     		.uleb128 .LEHB40-.LFB6237
 2222 0052 04       		.uleb128 .LEHE40-.LEHB40
 2223 0053 9005     		.uleb128 .L314-.LFB6237
 2224 0055 00       		.uleb128 0
 2225 0056 AC03     		.uleb128 .LEHB41-.LFB6237
 2226 0058 04       		.uleb128 .LEHE41-.LEHB41
 2227 0059 8C05     		.uleb128 .L315-.LFB6237
 2228 005b 00       		.uleb128 0
 2229 005c CC03     		.uleb128 .LEHB42-.LFB6237
 2230 005e 04       		.uleb128 .LEHE42-.LEHB42
 2231 005f 8805     		.uleb128 .L316-.LFB6237
 2232 0061 00       		.uleb128 0
 2233 0062 D403     		.uleb128 .LEHB43-.LFB6237
 2234 0064 04       		.uleb128 .LEHE43-.LEHB43
 2235 0065 00       		.uleb128 0
 2236 0066 00       		.uleb128 0
 2237 0067 E803     		.uleb128 .LEHB44-.LFB6237
 2238 0069 04       		.uleb128 .LEHE44-.LEHB44
 2239 006a 9C05     		.uleb128 .L317-.LFB6237
 2240 006c 00       		.uleb128 0
 2241 006d FC03     		.uleb128 .LEHB45-.LFB6237
 2242 006f 04       		.uleb128 .LEHE45-.LEHB45
 2243 0070 9805     		.uleb128 .L318-.LFB6237
 2244 0072 00       		.uleb128 0
 2245 0073 9C04     		.uleb128 .LEHB46-.LFB6237
 2246 0075 04       		.uleb128 .LEHE46-.LEHB46
 2247 0076 9405     		.uleb128 .L319-.LFB6237
 2248 0078 00       		.uleb128 0
 2249 0079 D404     		.uleb128 .LEHB47-.LFB6237
 2250 007b 04       		.uleb128 .LEHE47-.LEHB47
 2251 007c 00       		.uleb128 0
 2252 007d 00       		.uleb128 0
 2253              	.LLSDACSE6237:
 2254              		.section	.text._ZN6tflite3ops5micro3add16EvalAddQuantizedEP13TfLiteContextP10TfLiteNodeP15TfLiteAd
 2255              		.fnend
 2257              		.section	.text._ZN6tflite3ops5micro3add4EvalEP13TfLiteContextP10TfLiteNode,"ax",%progbits
 2258              		.align	2
 2259              		.global	_ZN6tflite3ops5micro3add4EvalEP13TfLiteContextP10TfLiteNode
 2260              		.syntax unified
 2261              		.arm
 2262              		.fpu neon
 2264              	_ZN6tflite3ops5micro3add4EvalEP13TfLiteContextP10TfLiteNode:
 2265              		.fnstart
 2266              	.LFB6238:
 2267              		@ args = 0, pretend = 0, frame = 64
 2268              		@ frame_needed = 0, uses_anonymous_args = 0
 2269 0000 003091E5 		ldr	r3, [r1]
 2270 0004 F04F2DE9 		push	{r4, r5, r6, r7, r8, r9, r10, fp, lr}
 2271              		.save {r4, r5, r6, r7, r8, r9, r10, fp, lr}
 2272              		.pad #84
 2273 0008 54D04DE2 		sub	sp, sp, #84
 2274 000c 087090E5 		ldr	r7, [r0, #8]
 2275 0010 1C908DE2 		add	r9, sp, #28
 2276 0014 0160A0E1 		mov	r6, r1
 2277 0018 0050A0E1 		mov	r5, r0
 2278 001c 042093E5 		ldr	r2, [r3, #4]
 2279 0020 083093E5 		ldr	r3, [r3, #8]
 2280 0024 148091E5 		ldr	r8, [r1, #20]
 2281 0028 024387E0 		add	r4, r7, r2, lsl #6
 2282 002c 03B387E0 		add	fp, r7, r3, lsl #6
 2283 0030 043091E5 		ldr	r3, [r1, #4]
 2284 0034 0420A0E1 		mov	r2, r4
 2285 0038 0810A0E1 		mov	r1, r8
 2286 003c 043093E5 		ldr	r3, [r3, #4]
 2287 0040 04908DE5 		str	r9, [sp, #4]
 2288 0044 10308DE5 		str	r3, [sp, #16]
 2289 0048 03A387E0 		add	r10, r7, r3, lsl #6
 2290 004c 0B30A0E1 		mov	r3, fp
 2291 0050 00A08DE5 		str	r10, [sp]
 2292 0054 FEFFFFEB 		bl	_ZN6tflite3ops5micro3add15CalculateOpDataEP13TfLiteContextP15TfLiteAddParamsPK12TfLiteTensorS9_
 2293 0058 003050E2 		subs	r3, r0, #0
 2294 005c 14308DE5 		str	r3, [sp, #20]
 2295 0060 1E00001A 		bne	.L332
 2296 0064 10309DE5 		ldr	r3, [sp, #16]
 2297 0068 0333D7E7 		ldrb	r3, [r7, r3, lsl #6]	@ zero_extendqisi2
 2298 006c 010053E3 		cmp	r3, #1
 2299 0070 0900001A 		bne	.L330
 2300 0074 0500A0E1 		mov	r0, r5
 2301 0078 08A08DE5 		str	r10, [sp, #8]
 2302 007c 10088DE8 		stm	sp, {r4, fp}
 2303 0080 0930A0E1 		mov	r3, r9
 2304 0084 0820A0E1 		mov	r2, r8
 2305 0088 0610A0E1 		mov	r1, r6
 2306 008c FEFFFFEB 		bl	_ZN6tflite3ops5micro3add7EvalAddEP13TfLiteContextP10TfLiteNodeP15TfLiteAddParamsPKNS2_6OpDataEP
 2307 0090 14009DE5 		ldr	r0, [sp, #20]
 2308              	.L329:
 2309 0094 54D08DE2 		add	sp, sp, #84
 2310              		@ sp needed
 2311 0098 F08FBDE8 		pop	{r4, r5, r6, r7, r8, r9, r10, fp, pc}
 2312              	.L330:
 2313 009c 090053E3 		cmp	r3, #9
 2314 00a0 03005313 		cmpne	r3, #3
 2315 00a4 0900001A 		bne	.L331
 2316 00a8 08A08DE5 		str	r10, [sp, #8]
 2317 00ac 0930A0E1 		mov	r3, r9
 2318 00b0 10088DE8 		stm	sp, {r4, fp}
 2319 00b4 0820A0E1 		mov	r2, r8
 2320 00b8 0610A0E1 		mov	r1, r6
 2321 00bc 0500A0E1 		mov	r0, r5
 2322 00c0 FEFFFFEB 		bl	_ZN6tflite3ops5micro3add16EvalAddQuantizedEP13TfLiteContextP10TfLiteNodeP15TfLiteAddParamsPKNS2
 2323 00c4 000090E2 		adds	r0, r0, #0
 2324 00c8 0100A013 		movne	r0, #1
 2325 00cc F0FFFFEA 		b	.L329
 2326              	.L331:
 2327 00d0 143095E5 		ldr	r3, [r5, #20]
 2328 00d4 0500A0E1 		mov	r0, r5
 2329 00d8 08109FE5 		ldr	r1, .L334
 2330 00dc 33FF2FE1 		blx	r3
 2331              	.L332:
 2332 00e0 0100A0E3 		mov	r0, #1
 2333 00e4 EAFFFFEA 		b	.L329
 2334              	.L335:
 2335              		.align	2
 2336              	.L334:
 2337 00e8 00000000 		.word	.LC3
 2338              		.fnend
 2340              		.weak	_ZN11flatbuffers25flatbuffer_version_stringE
 2341              		.section	.bss._ZZN6tflite3ops5micro12Register_ADDEvE1r,"aw",%nobits
 2342              		.align	2
 2343              		.set	.LANCHOR1,. + 0
 2346              	_ZZN6tflite3ops5micro12Register_ADDEvE1r:
 2347 0000 00000000 		.space	32
 2347      00000000 
 2347      00000000 
 2347      00000000 
 2347      00000000 
 2348              		.section	.data._ZN11flatbuffers25flatbuffer_version_stringE,"aw",%progbits
 2349              		.align	2
 2352              	_ZN11flatbuffers25flatbuffer_version_stringE:
 2353 0000 00000000 		.word	.LC4
 2354              		.section	.rodata._ZN6tflite3ops5micro3add4EvalEP13TfLiteContextP10TfLiteNode.str1.1,"aMS",%progbit
 2355              	.LC3:
 2356 0000 496E7075 		.ascii	"Inputs and outputs not all float|uint8|int8 types.\000"
 2356      74732061 
 2356      6E64206F 
 2356      75747075 
 2356      7473206E 
 2357              		.section	.rodata._ZN6tflite46MultiplyByQuantizedMultiplierSmallerThanOneExpElli.str1.1,"aMS",%prog
 2358              	.LC0:
 2359 0000 6578706F 		.ascii	"exponent >= 0\000"
 2359      6E656E74 
 2359      203E3D20 
 2359      3000
 2360              	.LC1:
 2361 000e 433A2F52 		.ascii	"C:/Renesas/e2studio_2021_01_workspace_RZA2M_ANPR/AN"
 2361      656E6573 
 2361      61732F65 
 2361      32737475 
 2361      64696F5F 
 2362 0041 50525F52 		.ascii	"PR_RZA2M_GR_MANGO/src/tensorflow_lite/src/third_par"
 2362      5A41324D 
 2362      5F47525F 
 2362      4D414E47 
 2362      4F2F7372 
 2363 0074 74792F67 		.ascii	"ty/gemmlowp/fixedpoint/fixedpoint.h\000"
 2363      656D6D6C 
 2363      6F77702F 
 2363      66697865 
 2363      64706F69 
 2364              	.LC2:
 2365 0098 6578706F 		.ascii	"exponent <= 31\000"
 2365      6E656E74 
 2365      203C3D20 
 2365      333100
 2366              		.section	.rodata._ZZN8gemmlowp19RoundingDivideByPOTIlEET_S1_iE19__PRETTY_FUNCTION__,"a",%progbits
 2367              		.set	.LANCHOR0,. + 0
 2370              	_ZZN8gemmlowp19RoundingDivideByPOTIlEET_S1_iE19__PRETTY_FUNCTION__:
 2371 0000 496E7465 		.ascii	"IntegerType gemmlowp::RoundingDivideByPOT(IntegerTy"
 2371      67657254 
 2371      79706520 
 2371      67656D6D 
 2371      6C6F7770 
 2372 0033 70652C20 		.ascii	"pe, int) [with IntegerType = long int]\000"
 2372      696E7429 
 2372      205B7769 
 2372      74682049 
 2372      6E746567 
 2373              		.section	.rodata.str1.1,"aMS",%progbits,1
 2374              	.LC4:
 2375 0000 466C6174 		.ascii	"FlatBuffers 1.11.0\000"
 2375      42756666 
 2375      65727320 
 2375      312E3131 
 2375      2E3000
 2376              		.ident	"GCC: (GNU Tools for ARM Embedded Processors 6-2017-q2-update) 6.3.1 20170620 (release) [AR