   1              		.cpu cortex-a9
   2              		.eabi_attribute 28, 1
   3              		.eabi_attribute 20, 1
   4              		.eabi_attribute 21, 1
   5              		.eabi_attribute 23, 3
   6              		.eabi_attribute 24, 1
   7              		.eabi_attribute 25, 1
   8              		.eabi_attribute 26, 1
   9              		.eabi_attribute 30, 4
  10              		.eabi_attribute 34, 0
  11              		.eabi_attribute 18, 4
  12              		.file	"all_ops_resolver.cpp"
  13              		.section	.text._ZN6tflite3ops5micro14AllOpsResolverD2Ev,"axG",%progbits,_ZN6tflite3ops5micro14AllO
  14              		.align	2
  15              		.weak	_ZN6tflite3ops5micro14AllOpsResolverD2Ev
  16              		.syntax unified
  17              		.arm
  18              		.fpu neon
  20              	_ZN6tflite3ops5micro14AllOpsResolverD2Ev:
  21              		.fnstart
  22              	.LFB9756:
  23              		@ args = 0, pretend = 0, frame = 0
  24              		@ frame_needed = 0, uses_anonymous_args = 0
  25              		@ link register save eliminated.
  26 0000 1EFF2FE1 		bx	lr
  27              		.cantunwind
  28              		.fnend
  30              		.weak	_ZN6tflite3ops5micro14AllOpsResolverD1Ev
  31              		.set	_ZN6tflite3ops5micro14AllOpsResolverD1Ev,_ZN6tflite3ops5micro14AllOpsResolverD2Ev
  32              		.section	.text._ZNK6tflite15MicroOpResolverILj128EE6FindOpENS_15BuiltinOperatorEi,"axG",%progbits,
  33              		.align	2
  34              		.weak	_ZNK6tflite15MicroOpResolverILj128EE6FindOpENS_15BuiltinOperatorEi
  35              		.syntax unified
  36              		.arm
  37              		.fpu neon
  39              	_ZNK6tflite15MicroOpResolverILj128EE6FindOpENS_15BuiltinOperatorEi:
  40              		.fnstart
  41              	.LFB9771:
  42              		@ args = 0, pretend = 0, frame = 0
  43              		@ frame_needed = 0, uses_anonymous_args = 0
  44 0000 013A80E2 		add	r3, r0, #4096
  45 0004 10402DE9 		push	{r4, lr}
  46 0008 00C0A0E3 		mov	ip, #0
  47 000c 04E093E5 		ldr	lr, [r3, #4]
  48 0010 0030A0E1 		mov	r3, r0
  49              	.L5:
  50 0014 0E005CE1 		cmp	ip, lr
  51 0018 0B00000A 		beq	.L6
  52 001c 184093E5 		ldr	r4, [r3, #24]
  53 0020 010054E1 		cmp	r4, r1
  54 0024 0500001A 		bne	.L4
  55 0028 204093E5 		ldr	r4, [r3, #32]
  56 002c 020054E1 		cmp	r4, r2
  57 0030 0200001A 		bne	.L4
  58 0034 8C0280E0 		add	r0, r0, ip, lsl #5
  59 0038 040080E2 		add	r0, r0, #4
  60 003c 1080BDE8 		pop	{r4, pc}
  61              	.L4:
  62 0040 01C08CE2 		add	ip, ip, #1
  63 0044 203083E2 		add	r3, r3, #32
  64 0048 F1FFFFEA 		b	.L5
  65              	.L6:
  66 004c 0000A0E3 		mov	r0, #0
  67 0050 1080BDE8 		pop	{r4, pc}
  68              		.cantunwind
  69              		.fnend
  71              		.section	.text._ZN6tflite3ops5micro14AllOpsResolverD0Ev,"axG",%progbits,_ZN6tflite3ops5micro14AllO
  72              		.align	2
  73              		.weak	_ZN6tflite3ops5micro14AllOpsResolverD0Ev
  74              		.syntax unified
  75              		.arm
  76              		.fpu neon
  78              	_ZN6tflite3ops5micro14AllOpsResolverD0Ev:
  79              		.fnstart
  80              	.LFB9758:
  81              		@ args = 0, pretend = 0, frame = 0
  82              		@ frame_needed = 0, uses_anonymous_args = 0
  83 0000 10402DE9 		push	{r4, lr}
  84 0004 081001E3 		movw	r1, #4104
  85 0008 0040A0E1 		mov	r4, r0
  86 000c FEFFFFEB 		bl	_ZdlPvj
  87 0010 0400A0E1 		mov	r0, r4
  88 0014 1080BDE8 		pop	{r4, pc}
  89              		.cantunwind
  90              		.fnend
  92              		.section	.text._ZNK6tflite15MicroOpResolverILj128EE6FindOpEPKci,"axG",%progbits,_ZNK6tflite15Micro
  93              		.align	2
  94              		.weak	_ZNK6tflite15MicroOpResolverILj128EE6FindOpEPKci
  95              		.syntax unified
  96              		.arm
  97              		.fpu neon
  99              	_ZNK6tflite15MicroOpResolverILj128EE6FindOpEPKci:
 100              		.fnstart
 101              	.LFB9772:
 102              		@ args = 0, pretend = 0, frame = 0
 103              		@ frame_needed = 0, uses_anonymous_args = 0
 104 0000 013A80E2 		add	r3, r0, #4096
 105 0004 F0472DE9 		push	{r4, r5, r6, r7, r8, r9, r10, lr}
 106 0008 047093E5 		ldr	r7, [r3, #4]
 107 000c 0040A0E1 		mov	r4, r0
 108 0010 0180A0E1 		mov	r8, r1
 109 0014 0290A0E1 		mov	r9, r2
 110 0018 0050A0E1 		mov	r5, r0
 111 001c 0060A0E3 		mov	r6, #0
 112              	.L14:
 113 0020 070056E1 		cmp	r6, r7
 114 0024 1000000A 		beq	.L15
 115 0028 183095E5 		ldr	r3, [r5, #24]
 116 002c 200053E3 		cmp	r3, #32
 117 0030 0A00001A 		bne	.L13
 118 0034 0810A0E1 		mov	r1, r8
 119 0038 1C0095E5 		ldr	r0, [r5, #28]
 120 003c FEFFFFEB 		bl	strcmp
 121 0040 000050E3 		cmp	r0, #0
 122 0044 0500001A 		bne	.L13
 123 0048 203095E5 		ldr	r3, [r5, #32]
 124 004c 090053E1 		cmp	r3, r9
 125 0050 0200001A 		bne	.L13
 126 0054 860284E0 		add	r0, r4, r6, lsl #5
 127 0058 040080E2 		add	r0, r0, #4
 128 005c F087BDE8 		pop	{r4, r5, r6, r7, r8, r9, r10, pc}
 129              	.L13:
 130 0060 016086E2 		add	r6, r6, #1
 131 0064 205085E2 		add	r5, r5, #32
 132 0068 ECFFFFEA 		b	.L14
 133              	.L15:
 134 006c 0000A0E3 		mov	r0, #0
 135 0070 F087BDE8 		pop	{r4, r5, r6, r7, r8, r9, r10, pc}
 136              		.cantunwind
 137              		.fnend
 139              		.section	.text._ZN6tflite15MicroOpResolverILj128EE10AddBuiltinENS_15BuiltinOperatorEP18TfLiteRegis
 140              		.align	2
 141              		.weak	_ZN6tflite15MicroOpResolverILj128EE10AddBuiltinENS_15BuiltinOperatorEP18TfLiteRegistrationii
 142              		.syntax unified
 143              		.arm
 144              		.fpu neon
 146              	_ZN6tflite15MicroOpResolverILj128EE10AddBuiltinENS_15BuiltinOperatorEP18TfLiteRegistrationii:
 147              		.fnstart
 148              	.LFB7564:
 149              		@ args = 4, pretend = 0, frame = 0
 150              		@ frame_needed = 0, uses_anonymous_args = 0
 151 0000 F84F2DE9 		push	{r3, r4, r5, r6, r7, r8, r9, r10, fp, lr}
 152              		.save {r3, r4, r5, r6, r7, r8, r9, r10, fp, lr}
 153 0004 0070A0E1 		mov	r7, r0
 154 0008 28A09DE5 		ldr	r10, [sp, #40]
 155 000c 0180A0E1 		mov	r8, r1
 156 0010 0290A0E1 		mov	r9, r2
 157 0014 0340A0E1 		mov	r4, r3
 158 0018 88509FE5 		ldr	r5, .L22
 159 001c 016A80E2 		add	r6, r0, #4096
 160              	.L20:
 161 0020 0A0054E1 		cmp	r4, r10
 162 0024 F88FBDC8 		popgt	{r3, r4, r5, r6, r7, r8, r9, r10, fp, pc}
 163 0028 042096E5 		ldr	r2, [r6, #4]
 164 002c 8030A0E3 		mov	r3, #128
 165 0030 000095E5 		ldr	r0, [r5]
 166 0034 7F0052E3 		cmp	r2, #127
 167 0038 0600009A 		bls	.L19
 168 003c 68109FE5 		ldr	r1, .L22+4
 169 0040 080090E5 		ldr	r0, [r0, #8]
 170 0044 FEFFFFEB 		bl	fprintf
 171 0048 003095E5 		ldr	r3, [r5]
 172 004c 080093E5 		ldr	r0, [r3, #8]
 173 0050 F84FBDE8 		pop	{r3, r4, r5, r6, r7, r8, r9, r10, fp, lr}
 174 0054 FEFFFFEA 		b	fflush
 175              	.L19:
 176 0058 50109FE5 		ldr	r1, .L22+8
 177 005c 080090E5 		ldr	r0, [r0, #8]
 178 0060 FEFFFFEB 		bl	fprintf
 179 0064 003095E5 		ldr	r3, [r5]
 180 0068 080093E5 		ldr	r0, [r3, #8]
 181 006c FEFFFFEB 		bl	fflush
 182 0070 04B096E5 		ldr	fp, [r6, #4]
 183 0074 09E0A0E1 		mov	lr, r9
 184 0078 01308BE2 		add	r3, fp, #1
 185 007c 043086E5 		str	r3, [r6, #4]
 186 0080 8BB287E0 		add	fp, r7, fp, lsl #5
 187 0084 0F00BEE8 		ldmia	lr!, {r0, r1, r2, r3}
 188 0088 04C08BE2 		add	ip, fp, #4
 189 008c 0F00ACE8 		stmia	ip!, {r0, r1, r2, r3}
 190 0090 0F009EE8 		ldm	lr, {r0, r1, r2, r3}
 191 0094 0F008CE8 		stm	ip, {r0, r1, r2, r3}
 192 0098 20408BE5 		str	r4, [fp, #32]
 193 009c 014084E2 		add	r4, r4, #1
 194 00a0 18808BE5 		str	r8, [fp, #24]
 195 00a4 DDFFFFEA 		b	.L20
 196              	.L23:
 197              		.align	2
 198              	.L22:
 199 00a8 00000000 		.word	_impure_ptr
 200 00ac 00000000 		.word	.LC0
 201 00b0 4F000000 		.word	.LC1
 202              		.fnend
 204              		.section	.text._ZN6tflite3ops5micro14AllOpsResolverC2Ev,"ax",%progbits
 205              		.align	2
 206              		.global	_ZN6tflite3ops5micro14AllOpsResolverC2Ev
 207              		.syntax unified
 208              		.arm
 209              		.fpu neon
 211              	_ZN6tflite3ops5micro14AllOpsResolverC2Ev:
 212              		.fnstart
 213              	.LFB6103:
 214              		@ args = 0, pretend = 0, frame = 0
 215              		@ frame_needed = 0, uses_anonymous_args = 0
 216 0000 F7432DE9 		push	{r0, r1, r2, r4, r5, r6, r7, r8, r9, lr}
 217              		.save {r4, r5, r6, r7, r8, r9, lr}
 218              		.pad #12
 219 0004 013A80E2 		add	r3, r0, #4096
 220 0008 0080A0E3 		mov	r8, #0
 221 000c 0050A0E1 		mov	r5, r0
 222 0010 0490A0E3 		mov	r9, #4
 223 0014 0140A0E3 		mov	r4, #1
 224 0018 048083E5 		str	r8, [r3, #4]
 225 001c 0260A0E3 		mov	r6, #2
 226 0020 50359FE5 		ldr	r3, .L26
 227 0024 0370A0E3 		mov	r7, #3
 228 0028 003080E5 		str	r3, [r0]
 229 002c FEFFFFEB 		bl	_ZN6tflite3ops5micro24Register_FULLY_CONNECTEDEv
 230 0030 0130A0E3 		mov	r3, #1
 231 0034 0020A0E1 		mov	r2, r0
 232 0038 0910A0E3 		mov	r1, #9
 233 003c 0500A0E1 		mov	r0, r5
 234 0040 00908DE5 		str	r9, [sp]
 235 0044 FEFFFFEB 		bl	_ZN6tflite15MicroOpResolverILj128EE10AddBuiltinENS_15BuiltinOperatorEP18TfLiteRegistrationii
 236 0048 FEFFFFEB 		bl	_ZN6tflite3ops5micro20Register_MAX_POOL_2DEv
 237 004c 0430A0E1 		mov	r3, r4
 238 0050 0020A0E1 		mov	r2, r0
 239 0054 1110A0E3 		mov	r1, #17
 240 0058 0500A0E1 		mov	r0, r5
 241 005c 00408DE5 		str	r4, [sp]
 242 0060 FEFFFFEB 		bl	_ZN6tflite15MicroOpResolverILj128EE10AddBuiltinENS_15BuiltinOperatorEP18TfLiteRegistrationii
 243 0064 FEFFFFEB 		bl	_ZN6tflite3ops5micro16Register_SOFTMAXEv
 244 0068 0430A0E1 		mov	r3, r4
 245 006c 0020A0E1 		mov	r2, r0
 246 0070 1910A0E3 		mov	r1, #25
 247 0074 0500A0E1 		mov	r0, r5
 248 0078 00608DE5 		str	r6, [sp]
 249 007c FEFFFFEB 		bl	_ZN6tflite15MicroOpResolverILj128EE10AddBuiltinENS_15BuiltinOperatorEP18TfLiteRegistrationii
 250 0080 FEFFFFEB 		bl	_ZN6tflite3ops5micro17Register_LOGISTICEv
 251 0084 0430A0E1 		mov	r3, r4
 252 0088 0020A0E1 		mov	r2, r0
 253 008c 0E10A0E3 		mov	r1, #14
 254 0090 0500A0E1 		mov	r0, r5
 255 0094 00408DE5 		str	r4, [sp]
 256 0098 FEFFFFEB 		bl	_ZN6tflite15MicroOpResolverILj128EE10AddBuiltinENS_15BuiltinOperatorEP18TfLiteRegistrationii
 257 009c FEFFFFEB 		bl	_ZN6tflite3ops5micro13Register_SVDFEv
 258 00a0 0430A0E1 		mov	r3, r4
 259 00a4 0020A0E1 		mov	r2, r0
 260 00a8 1B10A0E3 		mov	r1, #27
 261 00ac 0500A0E1 		mov	r0, r5
 262 00b0 00708DE5 		str	r7, [sp]
 263 00b4 FEFFFFEB 		bl	_ZN6tflite15MicroOpResolverILj128EE10AddBuiltinENS_15BuiltinOperatorEP18TfLiteRegistrationii
 264 00b8 FEFFFFEB 		bl	_ZN6tflite3ops5micro16Register_CONV_2DEv
 265 00bc 0430A0E1 		mov	r3, r4
 266 00c0 0020A0E1 		mov	r2, r0
 267 00c4 0710A0E1 		mov	r1, r7
 268 00c8 0500A0E1 		mov	r0, r5
 269 00cc 00708DE5 		str	r7, [sp]
 270 00d0 FEFFFFEB 		bl	_ZN6tflite15MicroOpResolverILj128EE10AddBuiltinENS_15BuiltinOperatorEP18TfLiteRegistrationii
 271 00d4 FEFFFFEB 		bl	_ZN6tflite3ops5micro22Register_CONCATENATIONEv
 272 00d8 0430A0E1 		mov	r3, r4
 273 00dc 0020A0E1 		mov	r2, r0
 274 00e0 0610A0E1 		mov	r1, r6
 275 00e4 0500A0E1 		mov	r0, r5
 276 00e8 00708DE5 		str	r7, [sp]
 277 00ec FEFFFFEB 		bl	_ZN6tflite15MicroOpResolverILj128EE10AddBuiltinENS_15BuiltinOperatorEP18TfLiteRegistrationii
 278 00f0 FEFFFFEB 		bl	_ZN6tflite3ops5micro26Register_DEPTHWISE_CONV_2DEv
 279 00f4 0430A0E1 		mov	r3, r4
 280 00f8 0020A0E1 		mov	r2, r0
 281 00fc 0910A0E1 		mov	r1, r9
 282 0100 0500A0E1 		mov	r0, r5
 283 0104 00708DE5 		str	r7, [sp]
 284 0108 FEFFFFEB 		bl	_ZN6tflite15MicroOpResolverILj128EE10AddBuiltinENS_15BuiltinOperatorEP18TfLiteRegistrationii
 285 010c FEFFFFEB 		bl	_ZN6tflite3ops5micro24Register_AVERAGE_POOL_2DEv
 286 0110 0430A0E1 		mov	r3, r4
 287 0114 0020A0E1 		mov	r2, r0
 288 0118 0410A0E1 		mov	r1, r4
 289 011c 0500A0E1 		mov	r0, r5
 290 0120 00608DE5 		str	r6, [sp]
 291 0124 FEFFFFEB 		bl	_ZN6tflite15MicroOpResolverILj128EE10AddBuiltinENS_15BuiltinOperatorEP18TfLiteRegistrationii
 292 0128 FEFFFFEB 		bl	_ZN6tflite3ops5micro12Register_ABSEv
 293 012c 0430A0E1 		mov	r3, r4
 294 0130 0020A0E1 		mov	r2, r0
 295 0134 6510A0E3 		mov	r1, #101
 296 0138 0500A0E1 		mov	r0, r5
 297 013c 00408DE5 		str	r4, [sp]
 298 0140 FEFFFFEB 		bl	_ZN6tflite15MicroOpResolverILj128EE10AddBuiltinENS_15BuiltinOperatorEP18TfLiteRegistrationii
 299 0144 FEFFFFEB 		bl	_ZN6tflite3ops5micro12Register_SINEv
 300 0148 0430A0E1 		mov	r3, r4
 301 014c 0020A0E1 		mov	r2, r0
 302 0150 4210A0E3 		mov	r1, #66
 303 0154 0500A0E1 		mov	r0, r5
 304 0158 00408DE5 		str	r4, [sp]
 305 015c FEFFFFEB 		bl	_ZN6tflite15MicroOpResolverILj128EE10AddBuiltinENS_15BuiltinOperatorEP18TfLiteRegistrationii
 306 0160 FEFFFFEB 		bl	_ZN6tflite3ops5micro12Register_COSEv
 307 0164 0430A0E1 		mov	r3, r4
 308 0168 0020A0E1 		mov	r2, r0
 309 016c 6C10A0E3 		mov	r1, #108
 310 0170 0500A0E1 		mov	r0, r5
 311 0174 00408DE5 		str	r4, [sp]
 312 0178 FEFFFFEB 		bl	_ZN6tflite15MicroOpResolverILj128EE10AddBuiltinENS_15BuiltinOperatorEP18TfLiteRegistrationii
 313 017c FEFFFFEB 		bl	_ZN6tflite3ops5micro12Register_LOGEv
 314 0180 0430A0E1 		mov	r3, r4
 315 0184 0020A0E1 		mov	r2, r0
 316 0188 4910A0E3 		mov	r1, #73
 317 018c 0500A0E1 		mov	r0, r5
 318 0190 00408DE5 		str	r4, [sp]
 319 0194 FEFFFFEB 		bl	_ZN6tflite15MicroOpResolverILj128EE10AddBuiltinENS_15BuiltinOperatorEP18TfLiteRegistrationii
 320 0198 FEFFFFEB 		bl	_ZN6tflite3ops5micro13Register_SQRTEv
 321 019c 0430A0E1 		mov	r3, r4
 322 01a0 0020A0E1 		mov	r2, r0
 323 01a4 4B10A0E3 		mov	r1, #75
 324 01a8 0500A0E1 		mov	r0, r5
 325 01ac 00408DE5 		str	r4, [sp]
 326 01b0 FEFFFFEB 		bl	_ZN6tflite15MicroOpResolverILj128EE10AddBuiltinENS_15BuiltinOperatorEP18TfLiteRegistrationii
 327 01b4 FEFFFFEB 		bl	_ZN6tflite3ops5micro14Register_RSQRTEv
 328 01b8 0430A0E1 		mov	r3, r4
 329 01bc 0020A0E1 		mov	r2, r0
 330 01c0 4C10A0E3 		mov	r1, #76
 331 01c4 0500A0E1 		mov	r0, r5
 332 01c8 00408DE5 		str	r4, [sp]
 333 01cc FEFFFFEB 		bl	_ZN6tflite15MicroOpResolverILj128EE10AddBuiltinENS_15BuiltinOperatorEP18TfLiteRegistrationii
 334 01d0 FEFFFFEB 		bl	_ZN6tflite3ops5micro15Register_SQUAREEv
 335 01d4 0430A0E1 		mov	r3, r4
 336 01d8 0020A0E1 		mov	r2, r0
 337 01dc 5C10A0E3 		mov	r1, #92
 338 01e0 0500A0E1 		mov	r0, r5
 339 01e4 00408DE5 		str	r4, [sp]
 340 01e8 FEFFFFEB 		bl	_ZN6tflite15MicroOpResolverILj128EE10AddBuiltinENS_15BuiltinOperatorEP18TfLiteRegistrationii
 341 01ec FEFFFFEB 		bl	_ZN6tflite3ops5micro14Register_PRELUEv
 342 01f0 0430A0E1 		mov	r3, r4
 343 01f4 0020A0E1 		mov	r2, r0
 344 01f8 3610A0E3 		mov	r1, #54
 345 01fc 0500A0E1 		mov	r0, r5
 346 0200 00408DE5 		str	r4, [sp]
 347 0204 FEFFFFEB 		bl	_ZN6tflite15MicroOpResolverILj128EE10AddBuiltinENS_15BuiltinOperatorEP18TfLiteRegistrationii
 348 0208 FEFFFFEB 		bl	_ZN6tflite3ops5micro14Register_FLOOREv
 349 020c 0430A0E1 		mov	r3, r4
 350 0210 0020A0E1 		mov	r2, r0
 351 0214 0810A0E3 		mov	r1, #8
 352 0218 0500A0E1 		mov	r0, r5
 353 021c 00408DE5 		str	r4, [sp]
 354 0220 FEFFFFEB 		bl	_ZN6tflite15MicroOpResolverILj128EE10AddBuiltinENS_15BuiltinOperatorEP18TfLiteRegistrationii
 355 0224 FEFFFFEB 		bl	_ZN6tflite3ops5micro16Register_MAXIMUMEv
 356 0228 0430A0E1 		mov	r3, r4
 357 022c 0020A0E1 		mov	r2, r0
 358 0230 3710A0E3 		mov	r1, #55
 359 0234 0500A0E1 		mov	r0, r5
 360 0238 00408DE5 		str	r4, [sp]
 361 023c FEFFFFEB 		bl	_ZN6tflite15MicroOpResolverILj128EE10AddBuiltinENS_15BuiltinOperatorEP18TfLiteRegistrationii
 362 0240 FEFFFFEB 		bl	_ZN6tflite3ops5micro16Register_MINIMUMEv
 363 0244 0430A0E1 		mov	r3, r4
 364 0248 0020A0E1 		mov	r2, r0
 365 024c 3910A0E3 		mov	r1, #57
 366 0250 0500A0E1 		mov	r0, r5
 367 0254 00408DE5 		str	r4, [sp]
 368 0258 FEFFFFEB 		bl	_ZN6tflite15MicroOpResolverILj128EE10AddBuiltinENS_15BuiltinOperatorEP18TfLiteRegistrationii
 369 025c FEFFFFEB 		bl	_ZN6tflite3ops5micro16Register_ARG_MAXEv
 370 0260 0430A0E1 		mov	r3, r4
 371 0264 0020A0E1 		mov	r2, r0
 372 0268 3810A0E3 		mov	r1, #56
 373 026c 0500A0E1 		mov	r0, r5
 374 0270 00408DE5 		str	r4, [sp]
 375 0274 FEFFFFEB 		bl	_ZN6tflite15MicroOpResolverILj128EE10AddBuiltinENS_15BuiltinOperatorEP18TfLiteRegistrationii
 376 0278 FEFFFFEB 		bl	_ZN6tflite3ops5micro16Register_ARG_MINEv
 377 027c 0430A0E1 		mov	r3, r4
 378 0280 0020A0E1 		mov	r2, r0
 379 0284 4F10A0E3 		mov	r1, #79
 380 0288 0500A0E1 		mov	r0, r5
 381 028c 00408DE5 		str	r4, [sp]
 382 0290 FEFFFFEB 		bl	_ZN6tflite15MicroOpResolverILj128EE10AddBuiltinENS_15BuiltinOperatorEP18TfLiteRegistrationii
 383 0294 FEFFFFEB 		bl	_ZN6tflite3ops5micro19Register_LOGICAL_OREv
 384 0298 0430A0E1 		mov	r3, r4
 385 029c 0020A0E1 		mov	r2, r0
 386 02a0 5410A0E3 		mov	r1, #84
 387 02a4 0500A0E1 		mov	r0, r5
 388 02a8 00408DE5 		str	r4, [sp]
 389 02ac FEFFFFEB 		bl	_ZN6tflite15MicroOpResolverILj128EE10AddBuiltinENS_15BuiltinOperatorEP18TfLiteRegistrationii
 390 02b0 FEFFFFEB 		bl	_ZN6tflite3ops5micro20Register_LOGICAL_ANDEv
 391 02b4 0430A0E1 		mov	r3, r4
 392 02b8 0020A0E1 		mov	r2, r0
 393 02bc 5610A0E3 		mov	r1, #86
 394 02c0 0500A0E1 		mov	r0, r5
 395 02c4 00408DE5 		str	r4, [sp]
 396 02c8 FEFFFFEB 		bl	_ZN6tflite15MicroOpResolverILj128EE10AddBuiltinENS_15BuiltinOperatorEP18TfLiteRegistrationii
 397 02cc FEFFFFEB 		bl	_ZN6tflite3ops5micro20Register_LOGICAL_NOTEv
 398 02d0 0430A0E1 		mov	r3, r4
 399 02d4 0020A0E1 		mov	r2, r0
 400 02d8 5710A0E3 		mov	r1, #87
 401 02dc 0500A0E1 		mov	r0, r5
 402 02e0 00408DE5 		str	r4, [sp]
 403 02e4 FEFFFFEB 		bl	_ZN6tflite15MicroOpResolverILj128EE10AddBuiltinENS_15BuiltinOperatorEP18TfLiteRegistrationii
 404 02e8 FEFFFFEB 		bl	_ZN6tflite3ops5micro16Register_RESHAPEEv
 405 02ec 0430A0E1 		mov	r3, r4
 406 02f0 0020A0E1 		mov	r2, r0
 407 02f4 1610A0E3 		mov	r1, #22
 408 02f8 0500A0E1 		mov	r0, r5
 409 02fc 00408DE5 		str	r4, [sp]
 410 0300 FEFFFFEB 		bl	_ZN6tflite15MicroOpResolverILj128EE10AddBuiltinENS_15BuiltinOperatorEP18TfLiteRegistrationii
 411 0304 FEFFFFEB 		bl	_ZN6tflite3ops5micro14Register_EQUALEv
 412 0308 0430A0E1 		mov	r3, r4
 413 030c 0020A0E1 		mov	r2, r0
 414 0310 4710A0E3 		mov	r1, #71
 415 0314 0500A0E1 		mov	r0, r5
 416 0318 00608DE5 		str	r6, [sp]
 417 031c FEFFFFEB 		bl	_ZN6tflite15MicroOpResolverILj128EE10AddBuiltinENS_15BuiltinOperatorEP18TfLiteRegistrationii
 418 0320 FEFFFFEB 		bl	_ZN6tflite3ops5micro18Register_NOT_EQUALEv
 419 0324 0430A0E1 		mov	r3, r4
 420 0328 0020A0E1 		mov	r2, r0
 421 032c 4810A0E3 		mov	r1, #72
 422 0330 0500A0E1 		mov	r0, r5
 423 0334 00608DE5 		str	r6, [sp]
 424 0338 FEFFFFEB 		bl	_ZN6tflite15MicroOpResolverILj128EE10AddBuiltinENS_15BuiltinOperatorEP18TfLiteRegistrationii
 425 033c FEFFFFEB 		bl	_ZN6tflite3ops5micro16Register_GREATEREv
 426 0340 0430A0E1 		mov	r3, r4
 427 0344 0020A0E1 		mov	r2, r0
 428 0348 3D10A0E3 		mov	r1, #61
 429 034c 0500A0E1 		mov	r0, r5
 430 0350 00608DE5 		str	r6, [sp]
 431 0354 FEFFFFEB 		bl	_ZN6tflite15MicroOpResolverILj128EE10AddBuiltinENS_15BuiltinOperatorEP18TfLiteRegistrationii
 432 0358 FEFFFFEB 		bl	_ZN6tflite3ops5micro22Register_GREATER_EQUALEv
 433 035c 0430A0E1 		mov	r3, r4
 434 0360 0020A0E1 		mov	r2, r0
 435 0364 3E10A0E3 		mov	r1, #62
 436 0368 0500A0E1 		mov	r0, r5
 437 036c 00608DE5 		str	r6, [sp]
 438 0370 FEFFFFEB 		bl	_ZN6tflite15MicroOpResolverILj128EE10AddBuiltinENS_15BuiltinOperatorEP18TfLiteRegistrationii
 439 0374 FEFFFFEB 		bl	_ZN6tflite3ops5micro13Register_LESSEv
 440 0378 0430A0E1 		mov	r3, r4
 441 037c 0020A0E1 		mov	r2, r0
 442 0380 3A10A0E3 		mov	r1, #58
 443 0384 0500A0E1 		mov	r0, r5
 444 0388 00608DE5 		str	r6, [sp]
 445 038c FEFFFFEB 		bl	_ZN6tflite15MicroOpResolverILj128EE10AddBuiltinENS_15BuiltinOperatorEP18TfLiteRegistrationii
 446 0390 FEFFFFEB 		bl	_ZN6tflite3ops5micro19Register_LESS_EQUALEv
 447 0394 0430A0E1 		mov	r3, r4
 448 0398 0020A0E1 		mov	r2, r0
 449 039c 3F10A0E3 		mov	r1, #63
 450 03a0 0500A0E1 		mov	r0, r5
 451 03a4 00608DE5 		str	r6, [sp]
 452 03a8 FEFFFFEB 		bl	_ZN6tflite15MicroOpResolverILj128EE10AddBuiltinENS_15BuiltinOperatorEP18TfLiteRegistrationii
 453 03ac FEFFFFEB 		bl	_ZN6tflite3ops5micro13Register_CEILEv
 454 03b0 0430A0E1 		mov	r3, r4
 455 03b4 0020A0E1 		mov	r2, r0
 456 03b8 6810A0E3 		mov	r1, #104
 457 03bc 0500A0E1 		mov	r0, r5
 458 03c0 00408DE5 		str	r4, [sp]
 459 03c4 FEFFFFEB 		bl	_ZN6tflite15MicroOpResolverILj128EE10AddBuiltinENS_15BuiltinOperatorEP18TfLiteRegistrationii
 460 03c8 FEFFFFEB 		bl	_ZN6tflite3ops5micro14Register_ROUNDEv
 461 03cc 0430A0E1 		mov	r3, r4
 462 03d0 0020A0E1 		mov	r2, r0
 463 03d4 7410A0E3 		mov	r1, #116
 464 03d8 0500A0E1 		mov	r0, r5
 465 03dc 00408DE5 		str	r4, [sp]
 466 03e0 FEFFFFEB 		bl	_ZN6tflite15MicroOpResolverILj128EE10AddBuiltinENS_15BuiltinOperatorEP18TfLiteRegistrationii
 467 03e4 FEFFFFEB 		bl	_ZN6tflite3ops5micro22Register_STRIDED_SLICEEv
 468 03e8 0430A0E1 		mov	r3, r4
 469 03ec 0020A0E1 		mov	r2, r0
 470 03f0 2D10A0E3 		mov	r1, #45
 471 03f4 0500A0E1 		mov	r0, r5
 472 03f8 00408DE5 		str	r4, [sp]
 473 03fc FEFFFFEB 		bl	_ZN6tflite15MicroOpResolverILj128EE10AddBuiltinENS_15BuiltinOperatorEP18TfLiteRegistrationii
 474 0400 FEFFFFEB 		bl	_ZN6tflite3ops5micro13Register_PACKEv
 475 0404 0430A0E1 		mov	r3, r4
 476 0408 0020A0E1 		mov	r2, r0
 477 040c 5310A0E3 		mov	r1, #83
 478 0410 0500A0E1 		mov	r0, r5
 479 0414 00608DE5 		str	r6, [sp]
 480 0418 FEFFFFEB 		bl	_ZN6tflite15MicroOpResolverILj128EE10AddBuiltinENS_15BuiltinOperatorEP18TfLiteRegistrationii
 481 041c FEFFFFEB 		bl	_ZN6tflite3ops5micro12Register_PADEv
 482 0420 0430A0E1 		mov	r3, r4
 483 0424 0020A0E1 		mov	r2, r0
 484 0428 2210A0E3 		mov	r1, #34
 485 042c 0500A0E1 		mov	r0, r5
 486 0430 00608DE5 		str	r6, [sp]
 487 0434 FEFFFFEB 		bl	_ZN6tflite15MicroOpResolverILj128EE10AddBuiltinENS_15BuiltinOperatorEP18TfLiteRegistrationii
 488 0438 FEFFFFEB 		bl	_ZN6tflite3ops5micro14Register_PADV2Ev
 489 043c 0430A0E1 		mov	r3, r4
 490 0440 0020A0E1 		mov	r2, r0
 491 0444 3C10A0E3 		mov	r1, #60
 492 0448 0500A0E1 		mov	r0, r5
 493 044c 00608DE5 		str	r6, [sp]
 494 0450 FEFFFFEB 		bl	_ZN6tflite15MicroOpResolverILj128EE10AddBuiltinENS_15BuiltinOperatorEP18TfLiteRegistrationii
 495 0454 FEFFFFEB 		bl	_ZN6tflite3ops5micro14Register_SPLITEv
 496 0458 0430A0E1 		mov	r3, r4
 497 045c 0020A0E1 		mov	r2, r0
 498 0460 3110A0E3 		mov	r1, #49
 499 0464 0500A0E1 		mov	r0, r5
 500 0468 00708DE5 		str	r7, [sp]
 501 046c FEFFFFEB 		bl	_ZN6tflite15MicroOpResolverILj128EE10AddBuiltinENS_15BuiltinOperatorEP18TfLiteRegistrationii
 502 0470 FEFFFFEB 		bl	_ZN6tflite3ops5micro15Register_UNPACKEv
 503 0474 0430A0E1 		mov	r3, r4
 504 0478 0020A0E1 		mov	r2, r0
 505 047c 5810A0E3 		mov	r1, #88
 506 0480 0500A0E1 		mov	r0, r5
 507 0484 00608DE5 		str	r6, [sp]
 508 0488 FEFFFFEB 		bl	_ZN6tflite15MicroOpResolverILj128EE10AddBuiltinENS_15BuiltinOperatorEP18TfLiteRegistrationii
 509 048c FEFFFFEB 		bl	_ZN6tflite3ops5micro12Register_NEGEv
 510 0490 0430A0E1 		mov	r3, r4
 511 0494 0020A0E1 		mov	r2, r0
 512 0498 3B10A0E3 		mov	r1, #59
 513 049c 0500A0E1 		mov	r0, r5
 514 04a0 00408DE5 		str	r4, [sp]
 515 04a4 FEFFFFEB 		bl	_ZN6tflite15MicroOpResolverILj128EE10AddBuiltinENS_15BuiltinOperatorEP18TfLiteRegistrationii
 516 04a8 FEFFFFEB 		bl	_ZN6tflite3ops5micro12Register_ADDEv
 517 04ac 0430A0E1 		mov	r3, r4
 518 04b0 0020A0E1 		mov	r2, r0
 519 04b4 0810A0E1 		mov	r1, r8
 520 04b8 0500A0E1 		mov	r0, r5
 521 04bc 00608DE5 		str	r6, [sp]
 522 04c0 FEFFFFEB 		bl	_ZN6tflite15MicroOpResolverILj128EE10AddBuiltinENS_15BuiltinOperatorEP18TfLiteRegistrationii
 523 04c4 FEFFFFEB 		bl	_ZN6tflite3ops5micro12Register_MULEv
 524 04c8 0430A0E1 		mov	r3, r4
 525 04cc 0020A0E1 		mov	r2, r0
 526 04d0 1210A0E3 		mov	r1, #18
 527 04d4 0500A0E1 		mov	r0, r5
 528 04d8 00708DE5 		str	r7, [sp]
 529 04dc FEFFFFEB 		bl	_ZN6tflite15MicroOpResolverILj128EE10AddBuiltinENS_15BuiltinOperatorEP18TfLiteRegistrationii
 530 04e0 FEFFFFEB 		bl	_ZN6tflite3ops5micro17Register_QUANTIZEEv
 531 04e4 0430A0E1 		mov	r3, r4
 532 04e8 0020A0E1 		mov	r2, r0
 533 04ec 7210A0E3 		mov	r1, #114
 534 04f0 0500A0E1 		mov	r0, r5
 535 04f4 00408DE5 		str	r4, [sp]
 536 04f8 FEFFFFEB 		bl	_ZN6tflite15MicroOpResolverILj128EE10AddBuiltinENS_15BuiltinOperatorEP18TfLiteRegistrationii
 537 04fc FEFFFFEB 		bl	_ZN6tflite3ops5micro19Register_DEQUANTIZEEv
 538 0500 0430A0E1 		mov	r3, r4
 539 0504 0020A0E1 		mov	r2, r0
 540 0508 0610A0E3 		mov	r1, #6
 541 050c 0500A0E1 		mov	r0, r5
 542 0510 00608DE5 		str	r6, [sp]
 543 0514 FEFFFFEB 		bl	_ZN6tflite15MicroOpResolverILj128EE10AddBuiltinENS_15BuiltinOperatorEP18TfLiteRegistrationii
 544 0518 FEFFFFEB 		bl	_ZN6tflite3ops5micro13Register_RELUEv
 545 051c 0430A0E1 		mov	r3, r4
 546 0520 0020A0E1 		mov	r2, r0
 547 0524 1310A0E3 		mov	r1, #19
 548 0528 0500A0E1 		mov	r0, r5
 549 052c 00408DE5 		str	r4, [sp]
 550 0530 FEFFFFEB 		bl	_ZN6tflite15MicroOpResolverILj128EE10AddBuiltinENS_15BuiltinOperatorEP18TfLiteRegistrationii
 551 0534 FEFFFFEB 		bl	_ZN6tflite3ops5micro14Register_RELU6Ev
 552 0538 0430A0E1 		mov	r3, r4
 553 053c 0020A0E1 		mov	r2, r0
 554 0540 1510A0E3 		mov	r1, #21
 555 0544 0500A0E1 		mov	r0, r5
 556 0548 00408DE5 		str	r4, [sp]
 557 054c FEFFFFEB 		bl	_ZN6tflite15MicroOpResolverILj128EE10AddBuiltinENS_15BuiltinOperatorEP18TfLiteRegistrationii
 558 0550 FEFFFFEB 		bl	_ZN6tflite3ops5micro13Register_MEANEv
 559 0554 00408DE5 		str	r4, [sp]
 560 0558 0020A0E1 		mov	r2, r0
 561 055c 0430A0E1 		mov	r3, r4
 562 0560 0500A0E1 		mov	r0, r5
 563 0564 2810A0E3 		mov	r1, #40
 564 0568 FEFFFFEB 		bl	_ZN6tflite15MicroOpResolverILj128EE10AddBuiltinENS_15BuiltinOperatorEP18TfLiteRegistrationii
 565 056c 0500A0E1 		mov	r0, r5
 566 0570 0CD08DE2 		add	sp, sp, #12
 567              		@ sp needed
 568 0574 F083BDE8 		pop	{r4, r5, r6, r7, r8, r9, pc}
 569              	.L27:
 570              		.align	2
 571              	.L26:
 572 0578 08000000 		.word	_ZTVN6tflite3ops5micro14AllOpsResolverE+8
 573              		.fnend
 575              		.global	_ZN6tflite3ops5micro14AllOpsResolverC1Ev
 576              		.set	_ZN6tflite3ops5micro14AllOpsResolverC1Ev,_ZN6tflite3ops5micro14AllOpsResolverC2Ev
 577              		.weak	_ZTSN6tflite10OpResolverE
 578              		.section	.rodata._ZTSN6tflite10OpResolverE,"aG",%progbits,_ZTSN6tflite10OpResolverE,comdat
 581              	_ZTSN6tflite10OpResolverE:
 582 0000 4E367466 		.ascii	"N6tflite10OpResolverE\000"
 582      6C697465 
 582      31304F70 
 582      5265736F 
 582      6C766572 
 583              		.weak	_ZTIN6tflite10OpResolverE
 584              		.section	.rodata._ZTIN6tflite10OpResolverE,"aG",%progbits,_ZTIN6tflite10OpResolverE,comdat
 585              		.align	2
 588              	_ZTIN6tflite10OpResolverE:
 589 0000 08000000 		.word	_ZTVN10__cxxabiv117__class_type_infoE+8
 590 0004 00000000 		.word	_ZTSN6tflite10OpResolverE
 591              		.weak	_ZTSN6tflite15MicroOpResolverILj128EEE
 592              		.section	.rodata._ZTSN6tflite15MicroOpResolverILj128EEE,"aG",%progbits,_ZTSN6tflite15MicroOpResolv
 595              	_ZTSN6tflite15MicroOpResolverILj128EEE:
 596 0000 4E367466 		.ascii	"N6tflite15MicroOpResolverILj128EEE\000"
 596      6C697465 
 596      31354D69 
 596      63726F4F 
 596      70526573 
 597              		.weak	_ZTIN6tflite15MicroOpResolverILj128EEE
 598              		.section	.rodata._ZTIN6tflite15MicroOpResolverILj128EEE,"aG",%progbits,_ZTIN6tflite15MicroOpResolv
 599              		.align	2
 602              	_ZTIN6tflite15MicroOpResolverILj128EEE:
 603 0000 08000000 		.word	_ZTVN10__cxxabiv120__si_class_type_infoE+8
 604 0004 00000000 		.word	_ZTSN6tflite15MicroOpResolverILj128EEE
 605 0008 00000000 		.word	_ZTIN6tflite10OpResolverE
 606              		.weak	_ZTSN6tflite22MicroMutableOpResolverE
 607              		.section	.rodata._ZTSN6tflite22MicroMutableOpResolverE,"aG",%progbits,_ZTSN6tflite22MicroMutableOp
 610              	_ZTSN6tflite22MicroMutableOpResolverE:
 611 0000 4E367466 		.ascii	"N6tflite22MicroMutableOpResolverE\000"
 611      6C697465 
 611      32324D69 
 611      63726F4D 
 611      75746162 
 612              		.weak	_ZTIN6tflite22MicroMutableOpResolverE
 613              		.section	.rodata._ZTIN6tflite22MicroMutableOpResolverE,"aG",%progbits,_ZTIN6tflite22MicroMutableOp
 614              		.align	2
 617              	_ZTIN6tflite22MicroMutableOpResolverE:
 618 0000 08000000 		.word	_ZTVN10__cxxabiv120__si_class_type_infoE+8
 619 0004 00000000 		.word	_ZTSN6tflite22MicroMutableOpResolverE
 620 0008 00000000 		.word	_ZTIN6tflite15MicroOpResolverILj128EEE
 621              		.weak	_ZTSN6tflite3ops5micro14AllOpsResolverE
 622              		.section	.rodata._ZTSN6tflite3ops5micro14AllOpsResolverE,"aG",%progbits,_ZTSN6tflite3ops5micro14Al
 625              	_ZTSN6tflite3ops5micro14AllOpsResolverE:
 626 0000 4E367466 		.ascii	"N6tflite3ops5micro14AllOpsResolverE\000"
 626      6C697465 
 626      336F7073 
 626      356D6963 
 626      726F3134 
 627              		.weak	_ZTIN6tflite3ops5micro14AllOpsResolverE
 628              		.section	.rodata._ZTIN6tflite3ops5micro14AllOpsResolverE,"aG",%progbits,_ZTIN6tflite3ops5micro14Al
 629              		.align	2
 632              	_ZTIN6tflite3ops5micro14AllOpsResolverE:
 633 0000 08000000 		.word	_ZTVN10__cxxabiv120__si_class_type_infoE+8
 634 0004 00000000 		.word	_ZTSN6tflite3ops5micro14AllOpsResolverE
 635 0008 00000000 		.word	_ZTIN6tflite22MicroMutableOpResolverE
 636              		.weak	_ZTVN6tflite3ops5micro14AllOpsResolverE
 637              		.section	.rodata._ZTVN6tflite3ops5micro14AllOpsResolverE,"aG",%progbits,_ZTVN6tflite3ops5micro14Al
 638              		.align	2
 641              	_ZTVN6tflite3ops5micro14AllOpsResolverE:
 642 0000 00000000 		.word	0
 643 0004 00000000 		.word	_ZTIN6tflite3ops5micro14AllOpsResolverE
 644 0008 00000000 		.word	_ZNK6tflite15MicroOpResolverILj128EE6FindOpENS_15BuiltinOperatorEi
 645 000c 00000000 		.word	_ZNK6tflite15MicroOpResolverILj128EE6FindOpEPKci
 646 0010 00000000 		.word	_ZN6tflite3ops5micro14AllOpsResolverD1Ev
 647 0014 00000000 		.word	_ZN6tflite3ops5micro14AllOpsResolverD0Ev
 648              		.weak	_ZN11flatbuffers25flatbuffer_version_stringE
 649              		.section	.data._ZN11flatbuffers25flatbuffer_version_stringE,"aw",%progbits
 650              		.align	2
 653              	_ZN11flatbuffers25flatbuffer_version_stringE:
 654 0000 00000000 		.word	.LC2
 655              		.section	.rodata._ZN6tflite15MicroOpResolverILj128EE10AddBuiltinENS_15BuiltinOperatorEP18TfLiteReg
 656              	.LC0:
 657 0000 0D457272 		.ascii	"\015Error: MicroOpResolver.AddBuiltin : registratio"
 657      6F723A20 
 657      4D696372 
 657      6F4F7052 
 657      65736F6C 
 658 0030 6E735F6C 		.ascii	"ns_len_ (%d) >= tOpCount (%d)\012\000"
 658      656E5F20 
 658      28256429 
 658      203E3D20 
 658      744F7043 
 659              	.LC1:
 660 004f 0D202020 		.ascii	"\015        MicroOpResolver.AddBuiltin : registrati"
 660      20202020 
 660      204D6963 
 660      726F4F70 
 660      5265736F 
 661 007f 6F6E735F 		.ascii	"ons_len_ (%d) < tOpCount (%d)\012\000"
 661      6C656E5F 
 661      20282564 
 661      29203C20 
 661      744F7043 
 662              		.section	.rodata.str1.1,"aMS",%progbits,1
 663              	.LC2:
 664 0000 466C6174 		.ascii	"FlatBuffers 1.11.0\000"
 664      42756666 
 664      65727320 
 664      312E3131 
 664      2E3000
 665              		.ident	"GCC: (GNU Tools for ARM Embedded Processors 6-2017-q2-update) 6.3.1 20170620 (release) [AR