   1              		.cpu cortex-a9
   2              		.eabi_attribute 28, 1
   3              		.eabi_attribute 20, 1
   4              		.eabi_attribute 21, 1
   5              		.eabi_attribute 23, 3
   6              		.eabi_attribute 24, 1
   7              		.eabi_attribute 25, 1
   8              		.eabi_attribute 26, 1
   9              		.eabi_attribute 30, 4
  10              		.eabi_attribute 34, 0
  11              		.eabi_attribute 18, 4
  12              		.file	"arg_min_max.cpp"
  13              		.section	.text._ZN6tflite3ops5micro11arg_min_max7PrepareEP13TfLiteContextP10TfLiteNode,"ax",%progb
  14              		.align	2
  15              		.global	_ZN6tflite3ops5micro11arg_min_max7PrepareEP13TfLiteContextP10TfLiteNode
  16              		.syntax unified
  17              		.arm
  18              		.fpu neon
  20              	_ZN6tflite3ops5micro11arg_min_max7PrepareEP13TfLiteContextP10TfLiteNode:
  21              		.fnstart
  22              	.LFB3819:
  23              		@ args = 0, pretend = 0, frame = 0
  24              		@ frame_needed = 0, uses_anonymous_args = 0
  25              		@ link register save eliminated.
  26 0000 0000A0E3 		mov	r0, #0
  27 0004 1EFF2FE1 		bx	lr
  28              		.cantunwind
  29              		.fnend
  31              		.section	.text._ZN6tflite12RuntimeShapeD2Ev,"axG",%progbits,_ZN6tflite12RuntimeShapeD5Ev,comdat
  32              		.align	2
  33              		.weak	_ZN6tflite12RuntimeShapeD2Ev
  34              		.syntax unified
  35              		.arm
  36              		.fpu neon
  38              	_ZN6tflite12RuntimeShapeD2Ev:
  39              		.fnstart
  40              	.LFB850:
  41              		@ args = 0, pretend = 0, frame = 0
  42              		@ frame_needed = 0, uses_anonymous_args = 0
  43 0000 003090E5 		ldr	r3, [r0]
  44 0004 10402DE9 		push	{r4, lr}
  45 0008 0040A0E1 		mov	r4, r0
  46 000c 040053E3 		cmp	r3, #4
  47 0010 030000DA 		ble	.L3
  48 0014 040090E5 		ldr	r0, [r0, #4]
  49 0018 000050E3 		cmp	r0, #0
  50 001c 0000000A 		beq	.L3
  51 0020 FEFFFFEB 		bl	_ZdaPv
  52              	.L3:
  53 0024 0400A0E1 		mov	r0, r4
  54 0028 1080BDE8 		pop	{r4, pc}
  55              		.cantunwind
  56              		.fnend
  58              		.weak	_ZN6tflite12RuntimeShapeD1Ev
  59              		.set	_ZN6tflite12RuntimeShapeD1Ev,_ZN6tflite12RuntimeShapeD2Ev
  60              		.section	.text._ZNK6tflite12RuntimeShape4DimsEi,"axG",%progbits,_ZNK6tflite12RuntimeShape4DimsEi,c
  61              		.align	2
  62              		.weak	_ZNK6tflite12RuntimeShape4DimsEi
  63              		.syntax unified
  64              		.arm
  65              		.fpu neon
  67              	_ZNK6tflite12RuntimeShape4DimsEi:
  68              		.fnstart
  69              	.LFB853:
  70              		@ args = 0, pretend = 0, frame = 0
  71              		@ frame_needed = 0, uses_anonymous_args = 0
  72 0000 000051E3 		cmp	r1, #0
  73 0004 010000AA 		bge	.L9
  74              	.L10:
  75 0008 10402DE9 		push	{r4, lr}
  76              		.save {r4, lr}
  77 000c FEFFFFEB 		bl	abort
  78              	.L9:
  79 0010 003090E5 		ldr	r3, [r0]
  80 0014 010053E1 		cmp	r3, r1
  81 0018 FAFFFFDA 		ble	.L10
  82 001c 040053E3 		cmp	r3, #4
  83 0020 043090C5 		ldrgt	r3, [r0, #4]
  84 0024 010180D0 		addle	r0, r0, r1, lsl #2
  85 0028 040090D5 		ldrle	r0, [r0, #4]
  86 002c 010193C7 		ldrgt	r0, [r3, r1, lsl #2]
  87 0030 1EFF2FE1 		bx	lr
  88              		.fnend
  90              		.section	.text._ZN6tflite14GetTensorShapeEPK12TfLiteTensor,"axG",%progbits,_ZN6tflite14GetTensorSh
  91              		.align	2
  92              		.weak	_ZN6tflite14GetTensorShapeEPK12TfLiteTensor
  93              		.syntax unified
  94              		.arm
  95              		.fpu neon
  97              	_ZN6tflite14GetTensorShapeEPK12TfLiteTensor:
  98              		.fnstart
  99              	.LFB912:
 100              		@ args = 0, pretend = 0, frame = 0
 101              		@ frame_needed = 0, uses_anonymous_args = 0
 102 0000 000051E3 		cmp	r1, #0
 103 0004 70402DE9 		push	{r4, r5, r6, lr}
 104              		.save {r4, r5, r6, lr}
 105 0008 0040A0E1 		mov	r4, r0
 106 000c 00108005 		streq	r1, [r0]
 107 0010 1100000A 		beq	.L15
 108 0014 085091E5 		ldr	r5, [r1, #8]
 109 0018 003095E5 		ldr	r3, [r5]
 110 001c 040053E3 		cmp	r3, #4
 111 0020 003080E5 		str	r3, [r0]
 112 0024 0361A0E1 		lsl	r6, r3, #2
 113 0028 040000DA 		ble	.L18
 114 002c 2E0273E3 		cmn	r3, #-536870910
 115 0030 0B0000CA 		bgt	.L19
 116 0034 0600A0E1 		mov	r0, r6
 117 0038 FEFFFFEB 		bl	_Znaj
 118 003c 040084E5 		str	r0, [r4, #4]
 119              	.L18:
 120 0040 003094E5 		ldr	r3, [r4]
 121 0044 0620A0E1 		mov	r2, r6
 122 0048 041085E2 		add	r1, r5, #4
 123 004c 040053E3 		cmp	r3, #4
 124 0050 040094C5 		ldrgt	r0, [r4, #4]
 125 0054 040084D2 		addle	r0, r4, #4
 126 0058 FEFFFFEB 		bl	memcpy
 127              	.L15:
 128 005c 0400A0E1 		mov	r0, r4
 129 0060 7080BDE8 		pop	{r4, r5, r6, pc}
 130              	.L19:
 131 0064 FEFFFFEB 		bl	__cxa_throw_bad_array_new_length
 132              		.fnend
 134              		.section	.text._ZN6tflite3ops5micro16Register_ARG_MAXEv,"ax",%progbits
 135              		.align	2
 136              		.global	_ZN6tflite3ops5micro16Register_ARG_MAXEv
 137              		.syntax unified
 138              		.arm
 139              		.fpu neon
 141              	_ZN6tflite3ops5micro16Register_ARG_MAXEv:
 142              		.fnstart
 143              	.LFB3824:
 144              		@ args = 0, pretend = 0, frame = 0
 145              		@ frame_needed = 0, uses_anonymous_args = 0
 146              		@ link register save eliminated.
 147 0000 10009FE5 		ldr	r0, .L24
 148 0004 10309FE5 		ldr	r3, .L24+4
 149 0008 083080E5 		str	r3, [r0, #8]
 150 000c 0C309FE5 		ldr	r3, .L24+8
 151 0010 0C3080E5 		str	r3, [r0, #12]
 152 0014 1EFF2FE1 		bx	lr
 153              	.L25:
 154              		.align	2
 155              	.L24:
 156 0018 00000000 		.word	.LANCHOR0
 157 001c 00000000 		.word	_ZN6tflite3ops5micro11arg_min_max7PrepareEP13TfLiteContextP10TfLiteNode
 158 0020 00000000 		.word	_ZN6tflite3ops5micro11arg_min_max10ArgMaxEvalEP13TfLiteContextP10TfLiteNode
 159              		.cantunwind
 160              		.fnend
 162              		.section	.text._ZN6tflite3ops5micro16Register_ARG_MINEv,"ax",%progbits
 163              		.align	2
 164              		.global	_ZN6tflite3ops5micro16Register_ARG_MINEv
 165              		.syntax unified
 166              		.arm
 167              		.fpu neon
 169              	_ZN6tflite3ops5micro16Register_ARG_MINEv:
 170              		.fnstart
 171              	.LFB3825:
 172              		@ args = 0, pretend = 0, frame = 0
 173              		@ frame_needed = 0, uses_anonymous_args = 0
 174              		@ link register save eliminated.
 175 0000 10009FE5 		ldr	r0, .L27
 176 0004 10309FE5 		ldr	r3, .L27+4
 177 0008 083080E5 		str	r3, [r0, #8]
 178 000c 0C309FE5 		ldr	r3, .L27+8
 179 0010 0C3080E5 		str	r3, [r0, #12]
 180 0014 1EFF2FE1 		bx	lr
 181              	.L28:
 182              		.align	2
 183              	.L27:
 184 0018 00000000 		.word	.LANCHOR1
 185 001c 00000000 		.word	_ZN6tflite3ops5micro11arg_min_max7PrepareEP13TfLiteContextP10TfLiteNode
 186 0020 00000000 		.word	_ZN6tflite3ops5micro11arg_min_max10ArgMinEvalEP13TfLiteContextP10TfLiteNode
 187              		.cantunwind
 188              		.fnend
 190              		.section	.text._ZN6tflite13reference_ops9ArgMinMaxIfllNS_3ops5micro7GreaterEEEvRKNS_12RuntimeShape
 191              		.align	2
 192              		.weak	_ZN6tflite13reference_ops9ArgMinMaxIfllNS_3ops5micro7GreaterEEEvRKNS_12RuntimeShapeEPKT_PKT1
 193              		.syntax unified
 194              		.arm
 195              		.fpu neon
 197              	_ZN6tflite13reference_ops9ArgMinMaxIfllNS_3ops5micro7GreaterEEEvRKNS_12RuntimeShapeEPKT_PKT1_S7_PT0
 198              		.fnstart
 199              	.LFB4323:
 200              		@ args = 8, pretend = 0, frame = 8
 201              		@ frame_needed = 0, uses_anonymous_args = 0
 202 0000 F74F2DE9 		push	{r0, r1, r2, r4, r5, r6, r7, r8, r9, r10, fp, lr}
 203              		.save {r4, r5, r6, r7, r8, r9, r10, fp, lr}
 204              		.pad #12
 205 0004 0390A0E1 		mov	r9, r3
 206 0008 003090E5 		ldr	r3, [r0]
 207 000c 04108DE5 		str	r1, [sp, #4]
 208 0010 000053E3 		cmp	r3, #0
 209 0014 000000CA 		bgt	.L30
 210              	.L31:
 211 0018 FEFFFFEB 		bl	abort
 212              	.L30:
 213 001c 0080A0E1 		mov	r8, r0
 214 0020 000099E5 		ldr	r0, [r9]
 215 0024 011043E2 		sub	r1, r3, #1
 216 0028 000051E1 		cmp	r1, r0
 217 002c F9FFFF1A 		bne	.L31
 218 0030 007092E5 		ldr	r7, [r2]
 219 0034 0800A0E1 		mov	r0, r8
 220 0038 0040A0E3 		mov	r4, #0
 221 003c 0160A0E3 		mov	r6, #1
 222 0040 000057E3 		cmp	r7, #0
 223 0044 037087B0 		addlt	r7, r7, r3
 224 0048 0710A0E1 		mov	r1, r7
 225 004c FEFFFFEB 		bl	_ZNK6tflite12RuntimeShape4DimsEi
 226 0050 0050A0E1 		mov	r5, r0
 227              	.L34:
 228 0054 040057E1 		cmp	r7, r4
 229 0058 0E0000DA 		ble	.L33
 230 005c 0410A0E1 		mov	r1, r4
 231 0060 0800A0E1 		mov	r0, r8
 232 0064 FEFFFFEB 		bl	_ZNK6tflite12RuntimeShape4DimsEi
 233 0068 0410A0E1 		mov	r1, r4
 234 006c 00A0A0E1 		mov	r10, r0
 235 0070 0900A0E1 		mov	r0, r9
 236 0074 FEFFFFEB 		bl	_ZNK6tflite12RuntimeShape4DimsEi
 237 0078 00005AE1 		cmp	r10, r0
 238 007c E5FFFF1A 		bne	.L31
 239 0080 0410A0E1 		mov	r1, r4
 240 0084 0800A0E1 		mov	r0, r8
 241 0088 FEFFFFEB 		bl	_ZNK6tflite12RuntimeShape4DimsEi
 242 008c 014084E2 		add	r4, r4, #1
 243 0090 900606E0 		mul	r6, r0, r6
 244 0094 EEFFFFEA 		b	.L34
 245              	.L33:
 246 0098 00A098E5 		ldr	r10, [r8]
 247 009c 017087E2 		add	r7, r7, #1
 248 00a0 0140A0E3 		mov	r4, #1
 249              	.L36:
 250 00a4 0A0057E1 		cmp	r7, r10
 251 00a8 0E0000AA 		bge	.L35
 252 00ac 0710A0E1 		mov	r1, r7
 253 00b0 0800A0E1 		mov	r0, r8
 254 00b4 FEFFFFEB 		bl	_ZNK6tflite12RuntimeShape4DimsEi
 255 00b8 011047E2 		sub	r1, r7, #1
 256 00bc 00B0A0E1 		mov	fp, r0
 257 00c0 0900A0E1 		mov	r0, r9
 258 00c4 FEFFFFEB 		bl	_ZNK6tflite12RuntimeShape4DimsEi
 259 00c8 00005BE1 		cmp	fp, r0
 260 00cc D1FFFF1A 		bne	.L31
 261 00d0 0710A0E1 		mov	r1, r7
 262 00d4 0800A0E1 		mov	r0, r8
 263 00d8 FEFFFFEB 		bl	_ZNK6tflite12RuntimeShape4DimsEi
 264 00dc 017087E2 		add	r7, r7, #1
 265 00e0 900404E0 		mul	r4, r0, r4
 266 00e4 EEFFFFEA 		b	.L36
 267              	.L35:
 268 00e8 950403E0 		mul	r3, r5, r4
 269 00ec 30709DE5 		ldr	r7, [sp, #48]
 270 00f0 04B1A0E1 		lsl	fp, r4, #2
 271 00f4 00308DE5 		str	r3, [sp]
 272 00f8 0030A0E3 		mov	r3, #0
 273 00fc 03E0A0E1 		mov	lr, r3
 274 0100 0380A0E1 		mov	r8, r3
 275              	.L44:
 276 0104 080056E1 		cmp	r6, r8
 277 0108 1F0000DA 		ble	.L29
 278 010c 04209DE5 		ldr	r2, [sp, #4]
 279 0110 0000A0E3 		mov	r0, #0
 280 0114 031182E0 		add	r1, r2, r3, lsl #2
 281 0118 9E4422E0 		mla	r2, lr, r4, r4
 282 011c 032042E0 		sub	r2, r2, r3
 283 0120 0221A0E1 		lsl	r2, r2, #2
 284              	.L43:
 285 0124 000054E1 		cmp	r4, r0
 286 0128 110000DA 		ble	.L38
 287 012c 007AD1ED 		vldr.32	s15, [r1]
 288 0130 02A081E0 		add	r10, r1, r2
 289 0134 01C0A0E3 		mov	ip, #1
 290 0138 0090A0E3 		mov	r9, #0
 291              	.L42:
 292 013c 05005CE1 		cmp	ip, r5
 293 0140 070000AA 		bge	.L39
 294 0144 007A9AED 		vldr.32	s14, [r10]
 295 0148 0BA08AE0 		add	r10, r10, fp
 296 014c E77AB4EE 		vcmpe.f32	s14, s15
 297 0150 10FAF1EE 		vmrs	APSR_nzcv, FPSCR
 298 0154 0C90A0C1 		movgt	r9, ip
 299 0158 477AF0CE 		vmovgt.f32	s15, s14
 300 015c 01C08CE2 		add	ip, ip, #1
 301 0160 F5FFFFEA 		b	.L42
 302              	.L39:
 303 0164 009187E7 		str	r9, [r7, r0, lsl #2]
 304 0168 041081E2 		add	r1, r1, #4
 305 016c 010080E2 		add	r0, r0, #1
 306 0170 EBFFFFEA 		b	.L43
 307              	.L38:
 308 0174 00209DE5 		ldr	r2, [sp]
 309 0178 018088E2 		add	r8, r8, #1
 310 017c 0B7087E0 		add	r7, r7, fp
 311 0180 05E08EE0 		add	lr, lr, r5
 312 0184 023083E0 		add	r3, r3, r2
 313 0188 DDFFFFEA 		b	.L44
 314              	.L29:
 315 018c 0CD08DE2 		add	sp, sp, #12
 316              		@ sp needed
 317 0190 F08FBDE8 		pop	{r4, r5, r6, r7, r8, r9, r10, fp, pc}
 318              		.fnend
 320              		.section	.text._ZN6tflite13reference_ops9ArgMinMaxIfllNS_3ops5micro4LessEEEvRKNS_12RuntimeShapeEPK
 321              		.align	2
 322              		.weak	_ZN6tflite13reference_ops9ArgMinMaxIfllNS_3ops5micro4LessEEEvRKNS_12RuntimeShapeEPKT_PKT1_S7
 323              		.syntax unified
 324              		.arm
 325              		.fpu neon
 327              	_ZN6tflite13reference_ops9ArgMinMaxIfllNS_3ops5micro4LessEEEvRKNS_12RuntimeShapeEPKT_PKT1_S7_PT0_RK
 328              		.fnstart
 329              	.LFB4324:
 330              		@ args = 8, pretend = 0, frame = 8
 331              		@ frame_needed = 0, uses_anonymous_args = 0
 332 0000 F74F2DE9 		push	{r0, r1, r2, r4, r5, r6, r7, r8, r9, r10, fp, lr}
 333              		.save {r4, r5, r6, r7, r8, r9, r10, fp, lr}
 334              		.pad #12
 335 0004 0390A0E1 		mov	r9, r3
 336 0008 003090E5 		ldr	r3, [r0]
 337 000c 04108DE5 		str	r1, [sp, #4]
 338 0010 000053E3 		cmp	r3, #0
 339 0014 000000CA 		bgt	.L49
 340              	.L50:
 341 0018 FEFFFFEB 		bl	abort
 342              	.L49:
 343 001c 0080A0E1 		mov	r8, r0
 344 0020 000099E5 		ldr	r0, [r9]
 345 0024 011043E2 		sub	r1, r3, #1
 346 0028 000051E1 		cmp	r1, r0
 347 002c F9FFFF1A 		bne	.L50
 348 0030 007092E5 		ldr	r7, [r2]
 349 0034 0800A0E1 		mov	r0, r8
 350 0038 0040A0E3 		mov	r4, #0
 351 003c 0160A0E3 		mov	r6, #1
 352 0040 000057E3 		cmp	r7, #0
 353 0044 037087B0 		addlt	r7, r7, r3
 354 0048 0710A0E1 		mov	r1, r7
 355 004c FEFFFFEB 		bl	_ZNK6tflite12RuntimeShape4DimsEi
 356 0050 0050A0E1 		mov	r5, r0
 357              	.L53:
 358 0054 040057E1 		cmp	r7, r4
 359 0058 0E0000DA 		ble	.L52
 360 005c 0410A0E1 		mov	r1, r4
 361 0060 0800A0E1 		mov	r0, r8
 362 0064 FEFFFFEB 		bl	_ZNK6tflite12RuntimeShape4DimsEi
 363 0068 0410A0E1 		mov	r1, r4
 364 006c 00A0A0E1 		mov	r10, r0
 365 0070 0900A0E1 		mov	r0, r9
 366 0074 FEFFFFEB 		bl	_ZNK6tflite12RuntimeShape4DimsEi
 367 0078 00005AE1 		cmp	r10, r0
 368 007c E5FFFF1A 		bne	.L50
 369 0080 0410A0E1 		mov	r1, r4
 370 0084 0800A0E1 		mov	r0, r8
 371 0088 FEFFFFEB 		bl	_ZNK6tflite12RuntimeShape4DimsEi
 372 008c 014084E2 		add	r4, r4, #1
 373 0090 900606E0 		mul	r6, r0, r6
 374 0094 EEFFFFEA 		b	.L53
 375              	.L52:
 376 0098 00A098E5 		ldr	r10, [r8]
 377 009c 017087E2 		add	r7, r7, #1
 378 00a0 0140A0E3 		mov	r4, #1
 379              	.L55:
 380 00a4 0A0057E1 		cmp	r7, r10
 381 00a8 0E0000AA 		bge	.L54
 382 00ac 0710A0E1 		mov	r1, r7
 383 00b0 0800A0E1 		mov	r0, r8
 384 00b4 FEFFFFEB 		bl	_ZNK6tflite12RuntimeShape4DimsEi
 385 00b8 011047E2 		sub	r1, r7, #1
 386 00bc 00B0A0E1 		mov	fp, r0
 387 00c0 0900A0E1 		mov	r0, r9
 388 00c4 FEFFFFEB 		bl	_ZNK6tflite12RuntimeShape4DimsEi
 389 00c8 00005BE1 		cmp	fp, r0
 390 00cc D1FFFF1A 		bne	.L50
 391 00d0 0710A0E1 		mov	r1, r7
 392 00d4 0800A0E1 		mov	r0, r8
 393 00d8 FEFFFFEB 		bl	_ZNK6tflite12RuntimeShape4DimsEi
 394 00dc 017087E2 		add	r7, r7, #1
 395 00e0 900404E0 		mul	r4, r0, r4
 396 00e4 EEFFFFEA 		b	.L55
 397              	.L54:
 398 00e8 950403E0 		mul	r3, r5, r4
 399 00ec 30709DE5 		ldr	r7, [sp, #48]
 400 00f0 04B1A0E1 		lsl	fp, r4, #2
 401 00f4 00308DE5 		str	r3, [sp]
 402 00f8 0030A0E3 		mov	r3, #0
 403 00fc 03E0A0E1 		mov	lr, r3
 404 0100 0380A0E1 		mov	r8, r3
 405              	.L63:
 406 0104 080056E1 		cmp	r6, r8
 407 0108 1F0000DA 		ble	.L48
 408 010c 04209DE5 		ldr	r2, [sp, #4]
 409 0110 0000A0E3 		mov	r0, #0
 410 0114 031182E0 		add	r1, r2, r3, lsl #2
 411 0118 9E4422E0 		mla	r2, lr, r4, r4
 412 011c 032042E0 		sub	r2, r2, r3
 413 0120 0221A0E1 		lsl	r2, r2, #2
 414              	.L62:
 415 0124 000054E1 		cmp	r4, r0
 416 0128 110000DA 		ble	.L57
 417 012c 007AD1ED 		vldr.32	s15, [r1]
 418 0130 02A081E0 		add	r10, r1, r2
 419 0134 01C0A0E3 		mov	ip, #1
 420 0138 0090A0E3 		mov	r9, #0
 421              	.L61:
 422 013c 05005CE1 		cmp	ip, r5
 423 0140 070000AA 		bge	.L58
 424 0144 007A9AED 		vldr.32	s14, [r10]
 425 0148 0BA08AE0 		add	r10, r10, fp
 426 014c E77AB4EE 		vcmpe.f32	s14, s15
 427 0150 10FAF1EE 		vmrs	APSR_nzcv, FPSCR
 428 0154 0C90A041 		movmi	r9, ip
 429 0158 477AF04E 		vmovmi.f32	s15, s14
 430 015c 01C08CE2 		add	ip, ip, #1
 431 0160 F5FFFFEA 		b	.L61
 432              	.L58:
 433 0164 009187E7 		str	r9, [r7, r0, lsl #2]
 434 0168 041081E2 		add	r1, r1, #4
 435 016c 010080E2 		add	r0, r0, #1
 436 0170 EBFFFFEA 		b	.L62
 437              	.L57:
 438 0174 00209DE5 		ldr	r2, [sp]
 439 0178 018088E2 		add	r8, r8, #1
 440 017c 0B7087E0 		add	r7, r7, fp
 441 0180 05E08EE0 		add	lr, lr, r5
 442 0184 023083E0 		add	r3, r3, r2
 443 0188 DDFFFFEA 		b	.L63
 444              	.L48:
 445 018c 0CD08DE2 		add	sp, sp, #12
 446              		@ sp needed
 447 0190 F08FBDE8 		pop	{r4, r5, r6, r7, r8, r9, r10, fp, pc}
 448              		.fnend
 450              		.section	.text._ZN6tflite13reference_ops9ArgMinMaxIhllNS_3ops5micro7GreaterEEEvRKNS_12RuntimeShape
 451              		.align	2
 452              		.weak	_ZN6tflite13reference_ops9ArgMinMaxIhllNS_3ops5micro7GreaterEEEvRKNS_12RuntimeShapeEPKT_PKT1
 453              		.syntax unified
 454              		.arm
 455              		.fpu neon
 457              	_ZN6tflite13reference_ops9ArgMinMaxIhllNS_3ops5micro7GreaterEEEvRKNS_12RuntimeShapeEPKT_PKT1_S7_PT0
 458              		.fnstart
 459              	.LFB4325:
 460              		@ args = 8, pretend = 0, frame = 16
 461              		@ frame_needed = 0, uses_anonymous_args = 0
 462 0000 F04F2DE9 		push	{r4, r5, r6, r7, r8, r9, r10, fp, lr}
 463              		.save {r4, r5, r6, r7, r8, r9, r10, fp, lr}
 464 0004 03A0A0E1 		mov	r10, r3
 465 0008 003090E5 		ldr	r3, [r0]
 466              		.pad #20
 467 000c 14D04DE2 		sub	sp, sp, #20
 468 0010 000053E3 		cmp	r3, #0
 469 0014 000000CA 		bgt	.L68
 470              	.L69:
 471 0018 FEFFFFEB 		bl	abort
 472              	.L68:
 473 001c 0090A0E1 		mov	r9, r0
 474 0020 00009AE5 		ldr	r0, [r10]
 475 0024 0170A0E1 		mov	r7, r1
 476 0028 011043E2 		sub	r1, r3, #1
 477 002c 000051E1 		cmp	r1, r0
 478 0030 F8FFFF1A 		bne	.L69
 479 0034 008092E5 		ldr	r8, [r2]
 480 0038 0900A0E1 		mov	r0, r9
 481 003c 0040A0E3 		mov	r4, #0
 482 0040 0160A0E3 		mov	r6, #1
 483 0044 000058E3 		cmp	r8, #0
 484 0048 038088B0 		addlt	r8, r8, r3
 485 004c 0810A0E1 		mov	r1, r8
 486 0050 FEFFFFEB 		bl	_ZNK6tflite12RuntimeShape4DimsEi
 487 0054 0050A0E1 		mov	r5, r0
 488              	.L72:
 489 0058 040058E1 		cmp	r8, r4
 490 005c 0E0000DA 		ble	.L71
 491 0060 0410A0E1 		mov	r1, r4
 492 0064 0900A0E1 		mov	r0, r9
 493 0068 FEFFFFEB 		bl	_ZNK6tflite12RuntimeShape4DimsEi
 494 006c 0410A0E1 		mov	r1, r4
 495 0070 00B0A0E1 		mov	fp, r0
 496 0074 0A00A0E1 		mov	r0, r10
 497 0078 FEFFFFEB 		bl	_ZNK6tflite12RuntimeShape4DimsEi
 498 007c 00005BE1 		cmp	fp, r0
 499 0080 E4FFFF1A 		bne	.L69
 500 0084 0410A0E1 		mov	r1, r4
 501 0088 0900A0E1 		mov	r0, r9
 502 008c FEFFFFEB 		bl	_ZNK6tflite12RuntimeShape4DimsEi
 503 0090 014084E2 		add	r4, r4, #1
 504 0094 900606E0 		mul	r6, r0, r6
 505 0098 EEFFFFEA 		b	.L72
 506              	.L71:
 507 009c 00B099E5 		ldr	fp, [r9]
 508 00a0 018088E2 		add	r8, r8, #1
 509 00a4 0140A0E3 		mov	r4, #1
 510              	.L74:
 511 00a8 0B0058E1 		cmp	r8, fp
 512 00ac 0F0000AA 		bge	.L73
 513 00b0 0810A0E1 		mov	r1, r8
 514 00b4 0900A0E1 		mov	r0, r9
 515 00b8 FEFFFFEB 		bl	_ZNK6tflite12RuntimeShape4DimsEi
 516 00bc 011048E2 		sub	r1, r8, #1
 517 00c0 04008DE5 		str	r0, [sp, #4]
 518 00c4 0A00A0E1 		mov	r0, r10
 519 00c8 FEFFFFEB 		bl	_ZNK6tflite12RuntimeShape4DimsEi
 520 00cc 04309DE5 		ldr	r3, [sp, #4]
 521 00d0 000053E1 		cmp	r3, r0
 522 00d4 CFFFFF1A 		bne	.L69
 523 00d8 0810A0E1 		mov	r1, r8
 524 00dc 0900A0E1 		mov	r0, r9
 525 00e0 FEFFFFEB 		bl	_ZNK6tflite12RuntimeShape4DimsEi
 526 00e4 018088E2 		add	r8, r8, #1
 527 00e8 900404E0 		mul	r4, r0, r4
 528 00ec EDFFFFEA 		b	.L74
 529              	.L73:
 530 00f0 0431A0E1 		lsl	r3, r4, #2
 531 00f4 38E09DE5 		ldr	lr, [sp, #56]
 532 00f8 0020A0E3 		mov	r2, #0
 533 00fc 08308DE5 		str	r3, [sp, #8]
 534 0100 950403E0 		mul	r3, r5, r4
 535 0104 07C0A0E1 		mov	ip, r7
 536 0108 0280A0E1 		mov	r8, r2
 537 010c 0C308DE5 		str	r3, [sp, #12]
 538              	.L81:
 539 0110 080056E1 		cmp	r6, r8
 540 0114 1C0000DA 		ble	.L67
 541 0118 924423E0 		mla	r3, r2, r4, r4
 542 011c 04308DE5 		str	r3, [sp, #4]
 543 0120 0030A0E3 		mov	r3, #0
 544              	.L80:
 545 0124 030054E1 		cmp	r4, r3
 546 0128 100000DA 		ble	.L76
 547 012c 04109DE5 		ldr	r1, [sp, #4]
 548 0130 0090A0E3 		mov	r9, #0
 549 0134 03A0DCE7 		ldrb	r10, [ip, r3]	@ zero_extendqisi2
 550 0138 030081E0 		add	r0, r1, r3
 551 013c 0110A0E3 		mov	r1, #1
 552 0140 000087E0 		add	r0, r7, r0
 553              	.L79:
 554 0144 050051E1 		cmp	r1, r5
 555 0148 050000AA 		bge	.L77
 556 014c 04B0D0E6 		ldrb	fp, [r0], r4	@ zero_extendqisi2
 557 0150 0A005BE1 		cmp	fp, r10
 558 0154 0190A0C1 		movgt	r9, r1
 559 0158 0BA0A0C1 		movgt	r10, fp
 560 015c 011081E2 		add	r1, r1, #1
 561 0160 F7FFFFEA 		b	.L79
 562              	.L77:
 563 0164 03918EE7 		str	r9, [lr, r3, lsl #2]
 564 0168 013083E2 		add	r3, r3, #1
 565 016c ECFFFFEA 		b	.L80
 566              	.L76:
 567 0170 08309DE5 		ldr	r3, [sp, #8]
 568 0174 018088E2 		add	r8, r8, #1
 569 0178 052082E0 		add	r2, r2, r5
 570 017c 03E08EE0 		add	lr, lr, r3
 571 0180 0C309DE5 		ldr	r3, [sp, #12]
 572 0184 03C08CE0 		add	ip, ip, r3
 573 0188 E0FFFFEA 		b	.L81
 574              	.L67:
 575 018c 14D08DE2 		add	sp, sp, #20
 576              		@ sp needed
 577 0190 F08FBDE8 		pop	{r4, r5, r6, r7, r8, r9, r10, fp, pc}
 578              		.fnend
 580              		.section	.text._ZN6tflite13reference_ops9ArgMinMaxIhllNS_3ops5micro4LessEEEvRKNS_12RuntimeShapeEPK
 581              		.align	2
 582              		.weak	_ZN6tflite13reference_ops9ArgMinMaxIhllNS_3ops5micro4LessEEEvRKNS_12RuntimeShapeEPKT_PKT1_S7
 583              		.syntax unified
 584              		.arm
 585              		.fpu neon
 587              	_ZN6tflite13reference_ops9ArgMinMaxIhllNS_3ops5micro4LessEEEvRKNS_12RuntimeShapeEPKT_PKT1_S7_PT0_RK
 588              		.fnstart
 589              	.LFB4326:
 590              		@ args = 8, pretend = 0, frame = 16
 591              		@ frame_needed = 0, uses_anonymous_args = 0
 592 0000 F04F2DE9 		push	{r4, r5, r6, r7, r8, r9, r10, fp, lr}
 593              		.save {r4, r5, r6, r7, r8, r9, r10, fp, lr}
 594 0004 03A0A0E1 		mov	r10, r3
 595 0008 003090E5 		ldr	r3, [r0]
 596              		.pad #20
 597 000c 14D04DE2 		sub	sp, sp, #20
 598 0010 000053E3 		cmp	r3, #0
 599 0014 000000CA 		bgt	.L85
 600              	.L86:
 601 0018 FEFFFFEB 		bl	abort
 602              	.L85:
 603 001c 0090A0E1 		mov	r9, r0
 604 0020 00009AE5 		ldr	r0, [r10]
 605 0024 0170A0E1 		mov	r7, r1
 606 0028 011043E2 		sub	r1, r3, #1
 607 002c 000051E1 		cmp	r1, r0
 608 0030 F8FFFF1A 		bne	.L86
 609 0034 008092E5 		ldr	r8, [r2]
 610 0038 0900A0E1 		mov	r0, r9
 611 003c 0040A0E3 		mov	r4, #0
 612 0040 0160A0E3 		mov	r6, #1
 613 0044 000058E3 		cmp	r8, #0
 614 0048 038088B0 		addlt	r8, r8, r3
 615 004c 0810A0E1 		mov	r1, r8
 616 0050 FEFFFFEB 		bl	_ZNK6tflite12RuntimeShape4DimsEi
 617 0054 0050A0E1 		mov	r5, r0
 618              	.L89:
 619 0058 040058E1 		cmp	r8, r4
 620 005c 0E0000DA 		ble	.L88
 621 0060 0410A0E1 		mov	r1, r4
 622 0064 0900A0E1 		mov	r0, r9
 623 0068 FEFFFFEB 		bl	_ZNK6tflite12RuntimeShape4DimsEi
 624 006c 0410A0E1 		mov	r1, r4
 625 0070 00B0A0E1 		mov	fp, r0
 626 0074 0A00A0E1 		mov	r0, r10
 627 0078 FEFFFFEB 		bl	_ZNK6tflite12RuntimeShape4DimsEi
 628 007c 00005BE1 		cmp	fp, r0
 629 0080 E4FFFF1A 		bne	.L86
 630 0084 0410A0E1 		mov	r1, r4
 631 0088 0900A0E1 		mov	r0, r9
 632 008c FEFFFFEB 		bl	_ZNK6tflite12RuntimeShape4DimsEi
 633 0090 014084E2 		add	r4, r4, #1
 634 0094 900606E0 		mul	r6, r0, r6
 635 0098 EEFFFFEA 		b	.L89
 636              	.L88:
 637 009c 00B099E5 		ldr	fp, [r9]
 638 00a0 018088E2 		add	r8, r8, #1
 639 00a4 0140A0E3 		mov	r4, #1
 640              	.L91:
 641 00a8 0B0058E1 		cmp	r8, fp
 642 00ac 0F0000AA 		bge	.L90
 643 00b0 0810A0E1 		mov	r1, r8
 644 00b4 0900A0E1 		mov	r0, r9
 645 00b8 FEFFFFEB 		bl	_ZNK6tflite12RuntimeShape4DimsEi
 646 00bc 011048E2 		sub	r1, r8, #1
 647 00c0 04008DE5 		str	r0, [sp, #4]
 648 00c4 0A00A0E1 		mov	r0, r10
 649 00c8 FEFFFFEB 		bl	_ZNK6tflite12RuntimeShape4DimsEi
 650 00cc 04309DE5 		ldr	r3, [sp, #4]
 651 00d0 000053E1 		cmp	r3, r0
 652 00d4 CFFFFF1A 		bne	.L86
 653 00d8 0810A0E1 		mov	r1, r8
 654 00dc 0900A0E1 		mov	r0, r9
 655 00e0 FEFFFFEB 		bl	_ZNK6tflite12RuntimeShape4DimsEi
 656 00e4 018088E2 		add	r8, r8, #1
 657 00e8 900404E0 		mul	r4, r0, r4
 658 00ec EDFFFFEA 		b	.L91
 659              	.L90:
 660 00f0 0431A0E1 		lsl	r3, r4, #2
 661 00f4 38E09DE5 		ldr	lr, [sp, #56]
 662 00f8 0020A0E3 		mov	r2, #0
 663 00fc 08308DE5 		str	r3, [sp, #8]
 664 0100 950403E0 		mul	r3, r5, r4
 665 0104 07C0A0E1 		mov	ip, r7
 666 0108 0280A0E1 		mov	r8, r2
 667 010c 0C308DE5 		str	r3, [sp, #12]
 668              	.L98:
 669 0110 080056E1 		cmp	r6, r8
 670 0114 1C0000DA 		ble	.L84
 671 0118 924423E0 		mla	r3, r2, r4, r4
 672 011c 04308DE5 		str	r3, [sp, #4]
 673 0120 0030A0E3 		mov	r3, #0
 674              	.L97:
 675 0124 030054E1 		cmp	r4, r3
 676 0128 100000DA 		ble	.L93
 677 012c 04109DE5 		ldr	r1, [sp, #4]
 678 0130 0090A0E3 		mov	r9, #0
 679 0134 03A0DCE7 		ldrb	r10, [ip, r3]	@ zero_extendqisi2
 680 0138 030081E0 		add	r0, r1, r3
 681 013c 0110A0E3 		mov	r1, #1
 682 0140 000087E0 		add	r0, r7, r0
 683              	.L96:
 684 0144 050051E1 		cmp	r1, r5
 685 0148 050000AA 		bge	.L94
 686 014c 04B0D0E6 		ldrb	fp, [r0], r4	@ zero_extendqisi2
 687 0150 0A005BE1 		cmp	fp, r10
 688 0154 0190A0B1 		movlt	r9, r1
 689 0158 0BA0A0B1 		movlt	r10, fp
 690 015c 011081E2 		add	r1, r1, #1
 691 0160 F7FFFFEA 		b	.L96
 692              	.L94:
 693 0164 03918EE7 		str	r9, [lr, r3, lsl #2]
 694 0168 013083E2 		add	r3, r3, #1
 695 016c ECFFFFEA 		b	.L97
 696              	.L93:
 697 0170 08309DE5 		ldr	r3, [sp, #8]
 698 0174 018088E2 		add	r8, r8, #1
 699 0178 052082E0 		add	r2, r2, r5
 700 017c 03E08EE0 		add	lr, lr, r3
 701 0180 0C309DE5 		ldr	r3, [sp, #12]
 702 0184 03C08CE0 		add	ip, ip, r3
 703 0188 E0FFFFEA 		b	.L98
 704              	.L84:
 705 018c 14D08DE2 		add	sp, sp, #20
 706              		@ sp needed
 707 0190 F08FBDE8 		pop	{r4, r5, r6, r7, r8, r9, r10, fp, pc}
 708              		.fnend
 710              		.section	.text._ZN6tflite13reference_ops9ArgMinMaxIallNS_3ops5micro7GreaterEEEvRKNS_12RuntimeShape
 711              		.align	2
 712              		.weak	_ZN6tflite13reference_ops9ArgMinMaxIallNS_3ops5micro7GreaterEEEvRKNS_12RuntimeShapeEPKT_PKT1
 713              		.syntax unified
 714              		.arm
 715              		.fpu neon
 717              	_ZN6tflite13reference_ops9ArgMinMaxIallNS_3ops5micro7GreaterEEEvRKNS_12RuntimeShapeEPKT_PKT1_S7_PT0
 718              		.fnstart
 719              	.LFB4327:
 720              		@ args = 8, pretend = 0, frame = 16
 721              		@ frame_needed = 0, uses_anonymous_args = 0
 722 0000 F04F2DE9 		push	{r4, r5, r6, r7, r8, r9, r10, fp, lr}
 723              		.save {r4, r5, r6, r7, r8, r9, r10, fp, lr}
 724 0004 03A0A0E1 		mov	r10, r3
 725 0008 003090E5 		ldr	r3, [r0]
 726              		.pad #20
 727 000c 14D04DE2 		sub	sp, sp, #20
 728 0010 000053E3 		cmp	r3, #0
 729 0014 000000CA 		bgt	.L102
 730              	.L103:
 731 0018 FEFFFFEB 		bl	abort
 732              	.L102:
 733 001c 0090A0E1 		mov	r9, r0
 734 0020 00009AE5 		ldr	r0, [r10]
 735 0024 0170A0E1 		mov	r7, r1
 736 0028 011043E2 		sub	r1, r3, #1
 737 002c 000051E1 		cmp	r1, r0
 738 0030 F8FFFF1A 		bne	.L103
 739 0034 008092E5 		ldr	r8, [r2]
 740 0038 0900A0E1 		mov	r0, r9
 741 003c 0040A0E3 		mov	r4, #0
 742 0040 0160A0E3 		mov	r6, #1
 743 0044 000058E3 		cmp	r8, #0
 744 0048 038088B0 		addlt	r8, r8, r3
 745 004c 0810A0E1 		mov	r1, r8
 746 0050 FEFFFFEB 		bl	_ZNK6tflite12RuntimeShape4DimsEi
 747 0054 0050A0E1 		mov	r5, r0
 748              	.L106:
 749 0058 040058E1 		cmp	r8, r4
 750 005c 0E0000DA 		ble	.L105
 751 0060 0410A0E1 		mov	r1, r4
 752 0064 0900A0E1 		mov	r0, r9
 753 0068 FEFFFFEB 		bl	_ZNK6tflite12RuntimeShape4DimsEi
 754 006c 0410A0E1 		mov	r1, r4
 755 0070 00B0A0E1 		mov	fp, r0
 756 0074 0A00A0E1 		mov	r0, r10
 757 0078 FEFFFFEB 		bl	_ZNK6tflite12RuntimeShape4DimsEi
 758 007c 00005BE1 		cmp	fp, r0
 759 0080 E4FFFF1A 		bne	.L103
 760 0084 0410A0E1 		mov	r1, r4
 761 0088 0900A0E1 		mov	r0, r9
 762 008c FEFFFFEB 		bl	_ZNK6tflite12RuntimeShape4DimsEi
 763 0090 014084E2 		add	r4, r4, #1
 764 0094 900606E0 		mul	r6, r0, r6
 765 0098 EEFFFFEA 		b	.L106
 766              	.L105:
 767 009c 00B099E5 		ldr	fp, [r9]
 768 00a0 018088E2 		add	r8, r8, #1
 769 00a4 0140A0E3 		mov	r4, #1
 770              	.L108:
 771 00a8 0B0058E1 		cmp	r8, fp
 772 00ac 0F0000AA 		bge	.L107
 773 00b0 0810A0E1 		mov	r1, r8
 774 00b4 0900A0E1 		mov	r0, r9
 775 00b8 FEFFFFEB 		bl	_ZNK6tflite12RuntimeShape4DimsEi
 776 00bc 011048E2 		sub	r1, r8, #1
 777 00c0 04008DE5 		str	r0, [sp, #4]
 778 00c4 0A00A0E1 		mov	r0, r10
 779 00c8 FEFFFFEB 		bl	_ZNK6tflite12RuntimeShape4DimsEi
 780 00cc 04309DE5 		ldr	r3, [sp, #4]
 781 00d0 000053E1 		cmp	r3, r0
 782 00d4 CFFFFF1A 		bne	.L103
 783 00d8 0810A0E1 		mov	r1, r8
 784 00dc 0900A0E1 		mov	r0, r9
 785 00e0 FEFFFFEB 		bl	_ZNK6tflite12RuntimeShape4DimsEi
 786 00e4 018088E2 		add	r8, r8, #1
 787 00e8 900404E0 		mul	r4, r0, r4
 788 00ec EDFFFFEA 		b	.L108
 789              	.L107:
 790 00f0 0431A0E1 		lsl	r3, r4, #2
 791 00f4 38E09DE5 		ldr	lr, [sp, #56]
 792 00f8 0020A0E3 		mov	r2, #0
 793 00fc 08308DE5 		str	r3, [sp, #8]
 794 0100 950403E0 		mul	r3, r5, r4
 795 0104 07C0A0E1 		mov	ip, r7
 796 0108 0280A0E1 		mov	r8, r2
 797 010c 0C308DE5 		str	r3, [sp, #12]
 798              	.L115:
 799 0110 080056E1 		cmp	r6, r8
 800 0114 1C0000DA 		ble	.L101
 801 0118 924423E0 		mla	r3, r2, r4, r4
 802 011c 04308DE5 		str	r3, [sp, #4]
 803 0120 0030A0E3 		mov	r3, #0
 804              	.L114:
 805 0124 030054E1 		cmp	r4, r3
 806 0128 100000DA 		ble	.L110
 807 012c 04109DE5 		ldr	r1, [sp, #4]
 808 0130 0090A0E3 		mov	r9, #0
 809 0134 D3A09CE1 		ldrsb	r10, [ip, r3]
 810 0138 030081E0 		add	r0, r1, r3
 811 013c 0110A0E3 		mov	r1, #1
 812 0140 000087E0 		add	r0, r7, r0
 813              	.L113:
 814 0144 050051E1 		cmp	r1, r5
 815 0148 050000AA 		bge	.L111
 816 014c D4B090E0 		ldrsb	fp, [r0], r4
 817 0150 0A005BE1 		cmp	fp, r10
 818 0154 0190A0C1 		movgt	r9, r1
 819 0158 0BA0A0C1 		movgt	r10, fp
 820 015c 011081E2 		add	r1, r1, #1
 821 0160 F7FFFFEA 		b	.L113
 822              	.L111:
 823 0164 03918EE7 		str	r9, [lr, r3, lsl #2]
 824 0168 013083E2 		add	r3, r3, #1
 825 016c ECFFFFEA 		b	.L114
 826              	.L110:
 827 0170 08309DE5 		ldr	r3, [sp, #8]
 828 0174 018088E2 		add	r8, r8, #1
 829 0178 052082E0 		add	r2, r2, r5
 830 017c 03E08EE0 		add	lr, lr, r3
 831 0180 0C309DE5 		ldr	r3, [sp, #12]
 832 0184 03C08CE0 		add	ip, ip, r3
 833 0188 E0FFFFEA 		b	.L115
 834              	.L101:
 835 018c 14D08DE2 		add	sp, sp, #20
 836              		@ sp needed
 837 0190 F08FBDE8 		pop	{r4, r5, r6, r7, r8, r9, r10, fp, pc}
 838              		.fnend
 840              		.section	.text._ZN6tflite13reference_ops9ArgMinMaxIallNS_3ops5micro4LessEEEvRKNS_12RuntimeShapeEPK
 841              		.align	2
 842              		.weak	_ZN6tflite13reference_ops9ArgMinMaxIallNS_3ops5micro4LessEEEvRKNS_12RuntimeShapeEPKT_PKT1_S7
 843              		.syntax unified
 844              		.arm
 845              		.fpu neon
 847              	_ZN6tflite13reference_ops9ArgMinMaxIallNS_3ops5micro4LessEEEvRKNS_12RuntimeShapeEPKT_PKT1_S7_PT0_RK
 848              		.fnstart
 849              	.LFB4328:
 850              		@ args = 8, pretend = 0, frame = 16
 851              		@ frame_needed = 0, uses_anonymous_args = 0
 852 0000 F04F2DE9 		push	{r4, r5, r6, r7, r8, r9, r10, fp, lr}
 853              		.save {r4, r5, r6, r7, r8, r9, r10, fp, lr}
 854 0004 03A0A0E1 		mov	r10, r3
 855 0008 003090E5 		ldr	r3, [r0]
 856              		.pad #20
 857 000c 14D04DE2 		sub	sp, sp, #20
 858 0010 000053E3 		cmp	r3, #0
 859 0014 000000CA 		bgt	.L119
 860              	.L120:
 861 0018 FEFFFFEB 		bl	abort
 862              	.L119:
 863 001c 0090A0E1 		mov	r9, r0
 864 0020 00009AE5 		ldr	r0, [r10]
 865 0024 0170A0E1 		mov	r7, r1
 866 0028 011043E2 		sub	r1, r3, #1
 867 002c 000051E1 		cmp	r1, r0
 868 0030 F8FFFF1A 		bne	.L120
 869 0034 008092E5 		ldr	r8, [r2]
 870 0038 0900A0E1 		mov	r0, r9
 871 003c 0040A0E3 		mov	r4, #0
 872 0040 0160A0E3 		mov	r6, #1
 873 0044 000058E3 		cmp	r8, #0
 874 0048 038088B0 		addlt	r8, r8, r3
 875 004c 0810A0E1 		mov	r1, r8
 876 0050 FEFFFFEB 		bl	_ZNK6tflite12RuntimeShape4DimsEi
 877 0054 0050A0E1 		mov	r5, r0
 878              	.L123:
 879 0058 040058E1 		cmp	r8, r4
 880 005c 0E0000DA 		ble	.L122
 881 0060 0410A0E1 		mov	r1, r4
 882 0064 0900A0E1 		mov	r0, r9
 883 0068 FEFFFFEB 		bl	_ZNK6tflite12RuntimeShape4DimsEi
 884 006c 0410A0E1 		mov	r1, r4
 885 0070 00B0A0E1 		mov	fp, r0
 886 0074 0A00A0E1 		mov	r0, r10
 887 0078 FEFFFFEB 		bl	_ZNK6tflite12RuntimeShape4DimsEi
 888 007c 00005BE1 		cmp	fp, r0
 889 0080 E4FFFF1A 		bne	.L120
 890 0084 0410A0E1 		mov	r1, r4
 891 0088 0900A0E1 		mov	r0, r9
 892 008c FEFFFFEB 		bl	_ZNK6tflite12RuntimeShape4DimsEi
 893 0090 014084E2 		add	r4, r4, #1
 894 0094 900606E0 		mul	r6, r0, r6
 895 0098 EEFFFFEA 		b	.L123
 896              	.L122:
 897 009c 00B099E5 		ldr	fp, [r9]
 898 00a0 018088E2 		add	r8, r8, #1
 899 00a4 0140A0E3 		mov	r4, #1
 900              	.L125:
 901 00a8 0B0058E1 		cmp	r8, fp
 902 00ac 0F0000AA 		bge	.L124
 903 00b0 0810A0E1 		mov	r1, r8
 904 00b4 0900A0E1 		mov	r0, r9
 905 00b8 FEFFFFEB 		bl	_ZNK6tflite12RuntimeShape4DimsEi
 906 00bc 011048E2 		sub	r1, r8, #1
 907 00c0 04008DE5 		str	r0, [sp, #4]
 908 00c4 0A00A0E1 		mov	r0, r10
 909 00c8 FEFFFFEB 		bl	_ZNK6tflite12RuntimeShape4DimsEi
 910 00cc 04309DE5 		ldr	r3, [sp, #4]
 911 00d0 000053E1 		cmp	r3, r0
 912 00d4 CFFFFF1A 		bne	.L120
 913 00d8 0810A0E1 		mov	r1, r8
 914 00dc 0900A0E1 		mov	r0, r9
 915 00e0 FEFFFFEB 		bl	_ZNK6tflite12RuntimeShape4DimsEi
 916 00e4 018088E2 		add	r8, r8, #1
 917 00e8 900404E0 		mul	r4, r0, r4
 918 00ec EDFFFFEA 		b	.L125
 919              	.L124:
 920 00f0 0431A0E1 		lsl	r3, r4, #2
 921 00f4 38E09DE5 		ldr	lr, [sp, #56]
 922 00f8 0020A0E3 		mov	r2, #0
 923 00fc 08308DE5 		str	r3, [sp, #8]
 924 0100 950403E0 		mul	r3, r5, r4
 925 0104 07C0A0E1 		mov	ip, r7
 926 0108 0280A0E1 		mov	r8, r2
 927 010c 0C308DE5 		str	r3, [sp, #12]
 928              	.L132:
 929 0110 080056E1 		cmp	r6, r8
 930 0114 1C0000DA 		ble	.L118
 931 0118 924423E0 		mla	r3, r2, r4, r4
 932 011c 04308DE5 		str	r3, [sp, #4]
 933 0120 0030A0E3 		mov	r3, #0
 934              	.L131:
 935 0124 030054E1 		cmp	r4, r3
 936 0128 100000DA 		ble	.L127
 937 012c 04109DE5 		ldr	r1, [sp, #4]
 938 0130 0090A0E3 		mov	r9, #0
 939 0134 D3A09CE1 		ldrsb	r10, [ip, r3]
 940 0138 030081E0 		add	r0, r1, r3
 941 013c 0110A0E3 		mov	r1, #1
 942 0140 000087E0 		add	r0, r7, r0
 943              	.L130:
 944 0144 050051E1 		cmp	r1, r5
 945 0148 050000AA 		bge	.L128
 946 014c D4B090E0 		ldrsb	fp, [r0], r4
 947 0150 0A005BE1 		cmp	fp, r10
 948 0154 0190A0B1 		movlt	r9, r1
 949 0158 0BA0A0B1 		movlt	r10, fp
 950 015c 011081E2 		add	r1, r1, #1
 951 0160 F7FFFFEA 		b	.L130
 952              	.L128:
 953 0164 03918EE7 		str	r9, [lr, r3, lsl #2]
 954 0168 013083E2 		add	r3, r3, #1
 955 016c ECFFFFEA 		b	.L131
 956              	.L127:
 957 0170 08309DE5 		ldr	r3, [sp, #8]
 958 0174 018088E2 		add	r8, r8, #1
 959 0178 052082E0 		add	r2, r2, r5
 960 017c 03E08EE0 		add	lr, lr, r3
 961 0180 0C309DE5 		ldr	r3, [sp, #12]
 962 0184 03C08CE0 		add	ip, ip, r3
 963 0188 E0FFFFEA 		b	.L132
 964              	.L118:
 965 018c 14D08DE2 		add	sp, sp, #20
 966              		@ sp needed
 967 0190 F08FBDE8 		pop	{r4, r5, r6, r7, r8, r9, r10, fp, pc}
 968              		.fnend
 970              		.section	.text._ZN6tflite3ops5micro11arg_min_max4EvalEP13TfLiteContextP10TfLiteNodeb,"ax",%progbit
 971              		.align	2
 972              		.global	_ZN6tflite3ops5micro11arg_min_max4EvalEP13TfLiteContextP10TfLiteNodeb
 973              		.syntax unified
 974              		.arm
 975              		.fpu neon
 977              	_ZN6tflite3ops5micro11arg_min_max4EvalEP13TfLiteContextP10TfLiteNodeb:
 978              		.fnstart
 979              	.LFB3821:
 980              		@ args = 0, pretend = 0, frame = 48
 981              		@ frame_needed = 0, uses_anonymous_args = 0
 982 0000 F0412DE9 		push	{r4, r5, r6, r7, r8, lr}
 983              		.save {r4, r5, r6, r7, r8, lr}
 984 0004 0270A0E1 		mov	r7, r2
 985 0008 002091E5 		ldr	r2, [r1]
 986 000c 0040A0E1 		mov	r4, r0
 987              		.pad #56
 988 0010 38D04DE2 		sub	sp, sp, #56
 989 0014 083090E5 		ldr	r3, [r0, #8]
 990 0018 080092E5 		ldr	r0, [r2, #8]
 991 001c 008383E0 		add	r8, r3, r0, lsl #6
 992 0020 0003D3E7 		ldrb	r0, [r3, r0, lsl #6]	@ zero_extendqisi2
 993 0024 020050E3 		cmp	r0, #2
 994 0028 7300001A 		bne	.L136
 995 002c 041091E5 		ldr	r1, [r1, #4]
 996 0030 041091E5 		ldr	r1, [r1, #4]
 997 0034 0103D3E7 		ldrb	r0, [r3, r1, lsl #6]	@ zero_extendqisi2
 998 0038 015383E0 		add	r5, r3, r1, lsl #6
 999 003c 020050E3 		cmp	r0, #2
 1000 0040 6D00001A 		bne	.L136
 1001 0044 042092E5 		ldr	r2, [r2, #4]
 1002 0048 0203D3E7 		ldrb	r0, [r3, r2, lsl #6]	@ zero_extendqisi2
 1003 004c 026383E0 		add	r6, r3, r2, lsl #6
 1004 0050 030050E3 		cmp	r0, #3
 1005 0054 2000000A 		beq	.L139
 1006 0058 090050E3 		cmp	r0, #9
 1007 005c 3B00000A 		beq	.L140
 1008 0060 010050E3 		cmp	r0, #1
 1009 0064 5C00001A 		bne	.L161
 1010 0068 0610A0E1 		mov	r1, r6
 1011 006c 10008DE2 		add	r0, sp, #16
 1012              	.LEHB0:
 1013 0070 FEFFFFEB 		bl	_ZN6tflite14GetTensorShapeEPK12TfLiteTensor
 1014              	.LEHE0:
 1015 0074 0510A0E1 		mov	r1, r5
 1016 0078 24008DE2 		add	r0, sp, #36
 1017 007c 044096E5 		ldr	r4, [r6, #4]
 1018 0080 046098E5 		ldr	r6, [r8, #4]
 1019              	.LEHB1:
 1020 0084 FEFFFFEB 		bl	_ZN6tflite14GetTensorShapeEPK12TfLiteTensor
 1021              	.LEHE1:
 1022 0088 000057E3 		cmp	r7, #0
 1023 008c 043095E5 		ldr	r3, [r5, #4]
 1024 0090 0800000A 		beq	.L142
 1025 0094 0C208DE2 		add	r2, sp, #12
 1026 0098 00308DE5 		str	r3, [sp]
 1027 009c 04208DE5 		str	r2, [sp, #4]
 1028 00a0 24308DE2 		add	r3, sp, #36
 1029 00a4 0620A0E1 		mov	r2, r6
 1030 00a8 0410A0E1 		mov	r1, r4
 1031 00ac 10008DE2 		add	r0, sp, #16
 1032              	.LEHB2:
 1033 00b0 FEFFFFEB 		bl	_ZN6tflite13reference_ops9ArgMinMaxIfllNS_3ops5micro7GreaterEEEvRKNS_12RuntimeShapeEPKT_PKT1_S7
 1034 00b4 410000EA 		b	.L148
 1035              	.L142:
 1036 00b8 08208DE2 		add	r2, sp, #8
 1037 00bc 00308DE5 		str	r3, [sp]
 1038 00c0 04208DE5 		str	r2, [sp, #4]
 1039 00c4 24308DE2 		add	r3, sp, #36
 1040 00c8 0620A0E1 		mov	r2, r6
 1041 00cc 0410A0E1 		mov	r1, r4
 1042 00d0 10008DE2 		add	r0, sp, #16
 1043 00d4 FEFFFFEB 		bl	_ZN6tflite13reference_ops9ArgMinMaxIfllNS_3ops5micro4LessEEEvRKNS_12RuntimeShapeEPKT_PKT1_S7_PT
 1044              	.LEHE2:
 1045 00d8 380000EA 		b	.L148
 1046              	.L139:
 1047 00dc 0610A0E1 		mov	r1, r6
 1048 00e0 10008DE2 		add	r0, sp, #16
 1049              	.LEHB3:
 1050 00e4 FEFFFFEB 		bl	_ZN6tflite14GetTensorShapeEPK12TfLiteTensor
 1051              	.LEHE3:
 1052 00e8 0510A0E1 		mov	r1, r5
 1053 00ec 24008DE2 		add	r0, sp, #36
 1054 00f0 044096E5 		ldr	r4, [r6, #4]
 1055 00f4 046098E5 		ldr	r6, [r8, #4]
 1056              	.LEHB4:
 1057 00f8 FEFFFFEB 		bl	_ZN6tflite14GetTensorShapeEPK12TfLiteTensor
 1058              	.LEHE4:
 1059 00fc 000057E3 		cmp	r7, #0
 1060 0100 043095E5 		ldr	r3, [r5, #4]
 1061 0104 0800000A 		beq	.L145
 1062 0108 0C208DE2 		add	r2, sp, #12
 1063 010c 00308DE5 		str	r3, [sp]
 1064 0110 04208DE5 		str	r2, [sp, #4]
 1065 0114 24308DE2 		add	r3, sp, #36
 1066 0118 0620A0E1 		mov	r2, r6
 1067 011c 0410A0E1 		mov	r1, r4
 1068 0120 10008DE2 		add	r0, sp, #16
 1069              	.LEHB5:
 1070 0124 FEFFFFEB 		bl	_ZN6tflite13reference_ops9ArgMinMaxIhllNS_3ops5micro7GreaterEEEvRKNS_12RuntimeShapeEPKT_PKT1_S7
 1071 0128 240000EA 		b	.L148
 1072              	.L145:
 1073 012c 08208DE2 		add	r2, sp, #8
 1074 0130 00308DE5 		str	r3, [sp]
 1075 0134 04208DE5 		str	r2, [sp, #4]
 1076 0138 24308DE2 		add	r3, sp, #36
 1077 013c 0620A0E1 		mov	r2, r6
 1078 0140 0410A0E1 		mov	r1, r4
 1079 0144 10008DE2 		add	r0, sp, #16
 1080 0148 FEFFFFEB 		bl	_ZN6tflite13reference_ops9ArgMinMaxIhllNS_3ops5micro4LessEEEvRKNS_12RuntimeShapeEPKT_PKT1_S7_PT
 1081              	.LEHE5:
 1082 014c 1B0000EA 		b	.L148
 1083              	.L140:
 1084 0150 0610A0E1 		mov	r1, r6
 1085 0154 10008DE2 		add	r0, sp, #16
 1086              	.LEHB6:
 1087 0158 FEFFFFEB 		bl	_ZN6tflite14GetTensorShapeEPK12TfLiteTensor
 1088              	.LEHE6:
 1089 015c 0510A0E1 		mov	r1, r5
 1090 0160 24008DE2 		add	r0, sp, #36
 1091 0164 044096E5 		ldr	r4, [r6, #4]
 1092 0168 046098E5 		ldr	r6, [r8, #4]
 1093              	.LEHB7:
 1094 016c FEFFFFEB 		bl	_ZN6tflite14GetTensorShapeEPK12TfLiteTensor
 1095              	.LEHE7:
 1096 0170 000057E3 		cmp	r7, #0
 1097 0174 043095E5 		ldr	r3, [r5, #4]
 1098 0178 0800000A 		beq	.L147
 1099 017c 0C208DE2 		add	r2, sp, #12
 1100 0180 00308DE5 		str	r3, [sp]
 1101 0184 04208DE5 		str	r2, [sp, #4]
 1102 0188 24308DE2 		add	r3, sp, #36
 1103 018c 0620A0E1 		mov	r2, r6
 1104 0190 0410A0E1 		mov	r1, r4
 1105 0194 10008DE2 		add	r0, sp, #16
 1106              	.LEHB8:
 1107 0198 FEFFFFEB 		bl	_ZN6tflite13reference_ops9ArgMinMaxIallNS_3ops5micro7GreaterEEEvRKNS_12RuntimeShapeEPKT_PKT1_S7
 1108 019c 070000EA 		b	.L148
 1109              	.L147:
 1110 01a0 08208DE2 		add	r2, sp, #8
 1111 01a4 00308DE5 		str	r3, [sp]
 1112 01a8 04208DE5 		str	r2, [sp, #4]
 1113 01ac 24308DE2 		add	r3, sp, #36
 1114 01b0 0620A0E1 		mov	r2, r6
 1115 01b4 0410A0E1 		mov	r1, r4
 1116 01b8 10008DE2 		add	r0, sp, #16
 1117 01bc FEFFFFEB 		bl	_ZN6tflite13reference_ops9ArgMinMaxIallNS_3ops5micro4LessEEEvRKNS_12RuntimeShapeEPKT_PKT1_S7_PT
 1118              	.LEHE8:
 1119              	.L148:
 1120 01c0 24008DE2 		add	r0, sp, #36
 1121 01c4 FEFFFFEB 		bl	_ZN6tflite12RuntimeShapeD1Ev
 1122 01c8 10008DE2 		add	r0, sp, #16
 1123 01cc FEFFFFEB 		bl	_ZN6tflite12RuntimeShapeD1Ev
 1124 01d0 0000A0E3 		mov	r0, #0
 1125              	.L162:
 1126 01d4 38D08DE2 		add	sp, sp, #56
 1127              		@ sp needed
 1128 01d8 F081BDE8 		pop	{r4, r5, r6, r7, r8, pc}
 1129              	.L161:
 1130 01dc 145094E5 		ldr	r5, [r4, #20]
 1131              	.LEHB9:
 1132 01e0 FEFFFFEB 		bl	TfLiteTypeGetName
 1133 01e4 4C109FE5 		ldr	r1, .L166
 1134 01e8 0020A0E1 		mov	r2, r0
 1135              	.L164:
 1136 01ec 0400A0E1 		mov	r0, r4
 1137 01f0 35FF2FE1 		blx	r5
 1138 01f4 0100A0E3 		mov	r0, #1
 1139 01f8 F5FFFFEA 		b	.L162
 1140              	.L136:
 1141 01fc 145094E5 		ldr	r5, [r4, #20]
 1142 0200 FEFFFFEB 		bl	TfLiteTypeGetName
 1143 0204 30109FE5 		ldr	r1, .L166+4
 1144 0208 0020A0E1 		mov	r2, r0
 1145 020c F6FFFFEA 		b	.L164
 1146              	.L156:
 1147              	.L165:
 1148 0210 24008DE2 		add	r0, sp, #36
 1149 0214 FEFFFFEB 		bl	_ZN6tflite12RuntimeShapeD1Ev
 1150 0218 FFFFFFEA 		b	.L154
 1151              	.L155:
 1152              	.L154:
 1153 021c 10008DE2 		add	r0, sp, #16
 1154 0220 FEFFFFEB 		bl	_ZN6tflite12RuntimeShapeD1Ev
 1155 0224 FEFFFFEB 		bl	__cxa_end_cleanup
 1156              	.LEHE9:
 1157              	.L158:
 1158 0228 F8FFFFEA 		b	.L165
 1159              	.L157:
 1160 022c FAFFFFEA 		b	.L154
 1161              	.L160:
 1162 0230 F6FFFFEA 		b	.L165
 1163              	.L159:
 1164 0234 F8FFFFEA 		b	.L154
 1165              	.L167:
 1166              		.align	2
 1167              	.L166:
 1168 0238 00000000 		.word	.LC0
 1169 023c 3E000000 		.word	.LC1
 1170              		.global	__gxx_personality_v0
 1171              		.personality	__gxx_personality_v0
 1172              		.handlerdata
 1173              	.LLSDA3821:
 1174 0008 FF       		.byte	0xff
 1175 0009 FF       		.byte	0xff
 1176 000a 01       		.byte	0x1
 1177 000b 37       		.uleb128 .LLSDACSE3821-.LLSDACSB3821
 1178              	.LLSDACSB3821:
 1179 000c 70       		.uleb128 .LEHB0-.LFB3821
 1180 000d 04       		.uleb128 .LEHE0-.LEHB0
 1181 000e 00       		.uleb128 0
 1182 000f 00       		.uleb128 0
 1183 0010 8401     		.uleb128 .LEHB1-.LFB3821
 1184 0012 04       		.uleb128 .LEHE1-.LEHB1
 1185 0013 9C04     		.uleb128 .L155-.LFB3821
 1186 0015 00       		.uleb128 0
 1187 0016 B001     		.uleb128 .LEHB2-.LFB3821
 1188 0018 28       		.uleb128 .LEHE2-.LEHB2
 1189 0019 9004     		.uleb128 .L156-.LFB3821
 1190 001b 00       		.uleb128 0
 1191 001c E401     		.uleb128 .LEHB3-.LFB3821
 1192 001e 04       		.uleb128 .LEHE3-.LEHB3
 1193 001f 00       		.uleb128 0
 1194 0020 00       		.uleb128 0
 1195 0021 F801     		.uleb128 .LEHB4-.LFB3821
 1196 0023 04       		.uleb128 .LEHE4-.LEHB4
 1197 0024 AC04     		.uleb128 .L157-.LFB3821
 1198 0026 00       		.uleb128 0
 1199 0027 A402     		.uleb128 .LEHB5-.LFB3821
 1200 0029 28       		.uleb128 .LEHE5-.LEHB5
 1201 002a A804     		.uleb128 .L158-.LFB3821
 1202 002c 00       		.uleb128 0
 1203 002d D802     		.uleb128 .LEHB6-.LFB3821
 1204 002f 04       		.uleb128 .LEHE6-.LEHB6
 1205 0030 00       		.uleb128 0
 1206 0031 00       		.uleb128 0
 1207 0032 EC02     		.uleb128 .LEHB7-.LFB3821
 1208 0034 04       		.uleb128 .LEHE7-.LEHB7
 1209 0035 B404     		.uleb128 .L159-.LFB3821
 1210 0037 00       		.uleb128 0
 1211 0038 9803     		.uleb128 .LEHB8-.LFB3821
 1212 003a 28       		.uleb128 .LEHE8-.LEHB8
 1213 003b B004     		.uleb128 .L160-.LFB3821
 1214 003d 00       		.uleb128 0
 1215 003e E003     		.uleb128 .LEHB9-.LFB3821
 1216 0040 48       		.uleb128 .LEHE9-.LEHB9
 1217 0041 00       		.uleb128 0
 1218 0042 00       		.uleb128 0
 1219              	.LLSDACSE3821:
 1220              		.section	.text._ZN6tflite3ops5micro11arg_min_max4EvalEP13TfLiteContextP10TfLiteNodeb
 1221              		.fnend
 1223              		.section	.text._ZN6tflite3ops5micro11arg_min_max10ArgMinEvalEP13TfLiteContextP10TfLiteNode,"ax",%p
 1224              		.align	2
 1225              		.global	_ZN6tflite3ops5micro11arg_min_max10ArgMinEvalEP13TfLiteContextP10TfLiteNode
 1226              		.syntax unified
 1227              		.arm
 1228              		.fpu neon
 1230              	_ZN6tflite3ops5micro11arg_min_max10ArgMinEvalEP13TfLiteContextP10TfLiteNode:
 1231              		.fnstart
 1232              	.LFB3822:
 1233              		@ args = 0, pretend = 0, frame = 0
 1234              		@ frame_needed = 0, uses_anonymous_args = 0
 1235              		@ link register save eliminated.
 1236 0000 0020A0E3 		mov	r2, #0
 1237 0004 FEFFFFEA 		b	_ZN6tflite3ops5micro11arg_min_max4EvalEP13TfLiteContextP10TfLiteNodeb
 1238              		.cantunwind
 1239              		.fnend
 1241              		.section	.text._ZN6tflite3ops5micro11arg_min_max10ArgMaxEvalEP13TfLiteContextP10TfLiteNode,"ax",%p
 1242              		.align	2
 1243              		.global	_ZN6tflite3ops5micro11arg_min_max10ArgMaxEvalEP13TfLiteContextP10TfLiteNode
 1244              		.syntax unified
 1245              		.arm
 1246              		.fpu neon
 1248              	_ZN6tflite3ops5micro11arg_min_max10ArgMaxEvalEP13TfLiteContextP10TfLiteNode:
 1249              		.fnstart
 1250              	.LFB3823:
 1251              		@ args = 0, pretend = 0, frame = 0
 1252              		@ frame_needed = 0, uses_anonymous_args = 0
 1253              		@ link register save eliminated.
 1254 0000 0120A0E3 		mov	r2, #1
 1255 0004 FEFFFFEA 		b	_ZN6tflite3ops5micro11arg_min_max4EvalEP13TfLiteContextP10TfLiteNodeb
 1256              		.cantunwind
 1257              		.fnend
 1259              		.weak	_ZN11flatbuffers25flatbuffer_version_stringE
 1260              		.section	.bss._ZZN6tflite3ops5micro16Register_ARG_MAXEvE1r,"aw",%nobits
 1261              		.align	2
 1262              		.set	.LANCHOR0,. + 0
 1265              	_ZZN6tflite3ops5micro16Register_ARG_MAXEvE1r:
 1266 0000 00000000 		.space	32
 1266      00000000 
 1266      00000000 
 1266      00000000 
 1266      00000000 
 1267              		.section	.bss._ZZN6tflite3ops5micro16Register_ARG_MINEvE1r,"aw",%nobits
 1268              		.align	2
 1269              		.set	.LANCHOR1,. + 0
 1272              	_ZZN6tflite3ops5micro16Register_ARG_MINEvE1r:
 1273 0000 00000000 		.space	32
 1273      00000000 
 1273      00000000 
 1273      00000000 
 1273      00000000 
 1274              		.section	.data._ZN11flatbuffers25flatbuffer_version_stringE,"aw",%progbits
 1275              		.align	2
 1278              	_ZN11flatbuffers25flatbuffer_version_stringE:
 1279 0000 00000000 		.word	.LC2
 1280              		.section	.rodata._ZN6tflite3ops5micro11arg_min_max4EvalEP13TfLiteContextP10TfLiteNodeb.str1.1,"aMS
 1281              	.LC0:
 1282 0000 4F6E6C79 		.ascii	"Only float32, uint8 and int8 are supported currentl"
 1282      20666C6F 
 1282      61743332 
 1282      2C207569 
 1282      6E743820 
 1283 0033 792C2067 		.ascii	"y, got %s.\000"
 1283      6F742025 
 1283      732E00
 1284              	.LC1:
 1285 003e 4F6E6C79 		.ascii	"Only int32 are supported currently, got %s.\000"
 1285      20696E74 
 1285      33322061 
 1285      72652073 
 1285      7570706F 
 1286              		.section	.rodata.str1.1,"aMS",%progbits,1
 1287              	.LC2:
 1288 0000 466C6174 		.ascii	"FlatBuffers 1.11.0\000"
 1288      42756666 
 1288      65727320 
 1288      312E3131 
 1288      2E3000
 1289              		.ident	"GCC: (GNU Tools for ARM Embedded Processors 6-2017-q2-update) 6.3.1 20170620 (release) [AR