   1              		.cpu cortex-a9
   2              		.eabi_attribute 28, 1
   3              		.eabi_attribute 20, 1
   4              		.eabi_attribute 21, 1
   5              		.eabi_attribute 23, 3
   6              		.eabi_attribute 24, 1
   7              		.eabi_attribute 25, 1
   8              		.eabi_attribute 26, 1
   9              		.eabi_attribute 30, 4
  10              		.eabi_attribute 34, 0
  11              		.eabi_attribute 18, 4
  12              		.file	"concatenation.cpp"
  13              		.section	.text._ZN6tflite3ops5micro13concatenation7PrepareEP13TfLiteContextP10TfLiteNode,"ax",%pro
  14              		.align	2
  15              		.global	_ZN6tflite3ops5micro13concatenation7PrepareEP13TfLiteContextP10TfLiteNode
  16              		.syntax unified
  17              		.arm
  18              		.fpu neon
  20              	_ZN6tflite3ops5micro13concatenation7PrepareEP13TfLiteContextP10TfLiteNode:
  21              		.fnstart
  22              	.LFB6482:
  23              		@ args = 0, pretend = 0, frame = 0
  24              		@ frame_needed = 0, uses_anonymous_args = 0
  25 0000 1F402DE9 		push	{r0, r1, r2, r3, r4, lr}
  26              		.save {r4, lr}
  27              		.pad #16
  28 0004 00C0A0E1 		mov	ip, r0
  29 0008 142091E5 		ldr	r2, [r1, #20]
  30 000c 003091E5 		ldr	r3, [r1]
  31 0010 0420D2E5 		ldrb	r2, [r2, #4]	@ zero_extendqisi2
  32 0014 084090E5 		ldr	r4, [r0, #8]
  33 0018 04E093E5 		ldr	lr, [r3, #4]
  34 001c 000052E3 		cmp	r2, #0
  35 0020 0C00000A 		beq	.L2
  36 0024 0030A0E3 		mov	r3, #0
  37 0028 08208DE5 		str	r2, [sp, #8]
  38 002c 0C308DE5 		str	r3, [sp, #12]
  39 0030 04319FE5 		ldr	r3, .L15
  40 0034 04308DE5 		str	r3, [sp, #4]
  41 0038 00319FE5 		ldr	r3, .L15+4
  42 003c 00308DE5 		str	r3, [sp]
  43 0040 2B30A0E3 		mov	r3, #43
  44 0044 144090E5 		ldr	r4, [r0, #20]
  45              	.L14:
  46 0048 F4209FE5 		ldr	r2, .L15+8
  47 004c F4109FE5 		ldr	r1, .L15+12
  48 0050 34FF2FE1 		blx	r4
  49 0054 0D0000EA 		b	.L12
  50              	.L2:
  51 0058 0EE3D4E7 		ldrb	lr, [r4, lr, lsl #6]	@ zero_extendqisi2
  52 005c 01204EE2 		sub	r2, lr, #1
  53 0060 09005EE3 		cmp	lr, #9
  54 0064 03005213 		cmpne	r2, #3
  55 0068 0120A083 		movhi	r2, #1
  56 006c 0020A093 		movls	r2, #0
  57 0070 0900009A 		bls	.L4
  58 0074 D0309FE5 		ldr	r3, .L15+16
  59 0078 00308DE5 		str	r3, [sp]
  60 007c 2F30A0E3 		mov	r3, #47
  61 0080 144090E5 		ldr	r4, [r0, #20]
  62              	.L13:
  63 0084 B8209FE5 		ldr	r2, .L15+8
  64 0088 C0109FE5 		ldr	r1, .L15+20
  65 008c 34FF2FE1 		blx	r4
  66              	.L12:
  67 0090 0100A0E3 		mov	r0, #1
  68              	.L3:
  69 0094 10D08DE2 		add	sp, sp, #16
  70              		@ sp needed
  71 0098 1080BDE8 		pop	{r4, pc}
  72              	.L4:
  73 009c 041091E5 		ldr	r1, [r1, #4]
  74 00a0 041091E5 		ldr	r1, [r1, #4]
  75 00a4 0113D4E7 		ldrb	r1, [r4, r1, lsl #6]	@ zero_extendqisi2
  76 00a8 01005EE1 		cmp	lr, r1
  77 00ac 0800000A 		beq	.L5
  78 00b0 9C309FE5 		ldr	r3, .L15+24
  79 00b4 0CE08DE5 		str	lr, [sp, #12]
  80 00b8 08108DE5 		str	r1, [sp, #8]
  81 00bc 04308DE5 		str	r3, [sp, #4]
  82 00c0 90309FE5 		ldr	r3, .L15+28
  83 00c4 00308DE5 		str	r3, [sp]
  84 00c8 3230A0E3 		mov	r3, #50
  85 00cc 144090E5 		ldr	r4, [r0, #20]
  86 00d0 DCFFFFEA 		b	.L14
  87              	.L5:
  88 00d4 00E093E5 		ldr	lr, [r3]
  89 00d8 0A005EE3 		cmp	lr, #10
  90 00dc 041083D2 		addle	r1, r3, #4
  91 00e0 050000DA 		ble	.L8
  92 00e4 70309FE5 		ldr	r3, .L15+32
  93 00e8 00308DE5 		str	r3, [sp]
  94 00ec 3630A0E3 		mov	r3, #54
  95 00f0 144090E5 		ldr	r4, [r0, #20]
  96 00f4 E2FFFFEA 		b	.L13
  97              	.L7:
  98 00f8 012082E2 		add	r2, r2, #1
  99              	.L8:
 100 00fc 0E0052E1 		cmp	r2, lr
 101 0100 0B0000AA 		bge	.L9
 102 0104 040091E4 		ldr	r0, [r1], #4
 103 0108 000384E0 		add	r0, r4, r0, lsl #6
 104 010c 083090E5 		ldr	r3, [r0, #8]
 105 0110 003093E5 		ldr	r3, [r3]
 106 0114 040053E3 		cmp	r3, #4
 107 0118 F6FFFFDA 		ble	.L7
 108 011c 202090E5 		ldr	r2, [r0, #32]
 109 0120 0C00A0E1 		mov	r0, ip
 110 0124 14409CE5 		ldr	r4, [ip, #20]
 111 0128 30109FE5 		ldr	r1, .L15+36
 112 012c 34FF2FE1 		blx	r4
 113 0130 D6FFFFEA 		b	.L12
 114              	.L9:
 115 0134 0000A0E3 		mov	r0, #0
 116 0138 D5FFFFEA 		b	.L3
 117              	.L16:
 118              		.align	2
 119              	.L15:
 120 013c 65000000 		.word	.LC2
 121 0140 74000000 		.word	.LC3
 122 0144 00000000 		.word	.LC0
 123 0148 4B000000 		.word	.LC1
 124 014c 9E000000 		.word	.LC5
 125 0150 87000000 		.word	.LC4
 126 0154 32010000 		.word	.LC6
 127 0158 3D010000 		.word	.LC7
 128 015c 49010000 		.word	.LC8
 129 0160 64010000 		.word	.LC9
 130              		.fnend
 132              		.section	.text._ZN6tflite12RuntimeShapeD2Ev,"axG",%progbits,_ZN6tflite12RuntimeShapeD5Ev,comdat
 133              		.align	2
 134              		.weak	_ZN6tflite12RuntimeShapeD2Ev
 135              		.syntax unified
 136              		.arm
 137              		.fpu neon
 139              	_ZN6tflite12RuntimeShapeD2Ev:
 140              		.fnstart
 141              	.LFB3207:
 142              		@ args = 0, pretend = 0, frame = 0
 143              		@ frame_needed = 0, uses_anonymous_args = 0
 144 0000 003090E5 		ldr	r3, [r0]
 145 0004 10402DE9 		push	{r4, lr}
 146 0008 0040A0E1 		mov	r4, r0
 147 000c 040053E3 		cmp	r3, #4
 148 0010 030000DA 		ble	.L18
 149 0014 040090E5 		ldr	r0, [r0, #4]
 150 0018 000050E3 		cmp	r0, #0
 151 001c 0000000A 		beq	.L18
 152 0020 FEFFFFEB 		bl	_ZdaPv
 153              	.L18:
 154 0024 0400A0E1 		mov	r0, r4
 155 0028 1080BDE8 		pop	{r4, pc}
 156              		.cantunwind
 157              		.fnend
 159              		.weak	_ZN6tflite12RuntimeShapeD1Ev
 160              		.set	_ZN6tflite12RuntimeShapeD1Ev,_ZN6tflite12RuntimeShapeD2Ev
 161              		.section	.text._ZNK6tflite12RuntimeShape4DimsEi,"axG",%progbits,_ZNK6tflite12RuntimeShape4DimsEi,c
 162              		.align	2
 163              		.weak	_ZNK6tflite12RuntimeShape4DimsEi
 164              		.syntax unified
 165              		.arm
 166              		.fpu neon
 168              	_ZNK6tflite12RuntimeShape4DimsEi:
 169              		.fnstart
 170              	.LFB3210:
 171              		@ args = 0, pretend = 0, frame = 0
 172              		@ frame_needed = 0, uses_anonymous_args = 0
 173 0000 000051E3 		cmp	r1, #0
 174 0004 010000AA 		bge	.L24
 175              	.L25:
 176 0008 10402DE9 		push	{r4, lr}
 177              		.save {r4, lr}
 178 000c FEFFFFEB 		bl	abort
 179              	.L24:
 180 0010 003090E5 		ldr	r3, [r0]
 181 0014 010053E1 		cmp	r3, r1
 182 0018 FAFFFFDA 		ble	.L25
 183 001c 040053E3 		cmp	r3, #4
 184 0020 043090C5 		ldrgt	r3, [r0, #4]
 185 0024 010180D0 		addle	r0, r0, r1, lsl #2
 186 0028 040090D5 		ldrle	r0, [r0, #4]
 187 002c 010193C7 		ldrgt	r0, [r3, r1, lsl #2]
 188 0030 1EFF2FE1 		bx	lr
 189              		.fnend
 191              		.section	.text._ZN6tflite12RuntimeShape11ReplaceWithEiPKl,"axG",%progbits,_ZN6tflite12RuntimeShape
 192              		.align	2
 193              		.weak	_ZN6tflite12RuntimeShape11ReplaceWithEiPKl
 194              		.syntax unified
 195              		.arm
 196              		.fpu neon
 198              	_ZN6tflite12RuntimeShape11ReplaceWithEiPKl:
 199              		.fnstart
 200              	.LFB3216:
 201              		@ args = 0, pretend = 0, frame = 0
 202              		@ frame_needed = 0, uses_anonymous_args = 0
 203 0000 003090E5 		ldr	r3, [r0]
 204 0004 F0412DE9 		push	{r4, r5, r6, r7, r8, lr}
 205              		.save {r4, r5, r6, r7, r8, lr}
 206 0008 0040A0E1 		mov	r4, r0
 207 000c 0150A0E1 		mov	r5, r1
 208 0010 0270A0E1 		mov	r7, r2
 209 0014 040053E3 		cmp	r3, #4
 210 0018 030000DA 		ble	.L31
 211 001c 040090E5 		ldr	r0, [r0, #4]
 212 0020 000050E3 		cmp	r0, #0
 213 0024 0000000A 		beq	.L31
 214 0028 FEFFFFEB 		bl	_ZdaPv
 215              	.L31:
 216 002c 040055E3 		cmp	r5, #4
 217 0030 005084E5 		str	r5, [r4]
 218 0034 0561A0E1 		lsl	r6, r5, #2
 219 0038 040000DA 		ble	.L32
 220 003c 2E0275E3 		cmn	r5, #-536870910
 221 0040 0A0000CA 		bgt	.L33
 222 0044 0600A0E1 		mov	r0, r6
 223 0048 FEFFFFEB 		bl	_Znaj
 224 004c 040084E5 		str	r0, [r4, #4]
 225              	.L32:
 226 0050 003094E5 		ldr	r3, [r4]
 227 0054 0620A0E1 		mov	r2, r6
 228 0058 0710A0E1 		mov	r1, r7
 229 005c 040053E3 		cmp	r3, #4
 230 0060 040094C5 		ldrgt	r0, [r4, #4]
 231 0064 040084D2 		addle	r0, r4, #4
 232 0068 F041BDE8 		pop	{r4, r5, r6, r7, r8, lr}
 233 006c FEFFFFEA 		b	memcpy
 234              	.L33:
 235 0070 FEFFFFEB 		bl	__cxa_throw_bad_array_new_length
 236              		.fnend
 238              		.section	.text._ZN6tflite11MatchingDimERKNS_12RuntimeShapeEiS2_i,"axG",%progbits,_ZN6tflite11Match
 239              		.align	2
 240              		.weak	_ZN6tflite11MatchingDimERKNS_12RuntimeShapeEiS2_i
 241              		.syntax unified
 242              		.arm
 243              		.fpu neon
 245              	_ZN6tflite11MatchingDimERKNS_12RuntimeShapeEiS2_i:
 246              		.fnstart
 247              	.LFB3236:
 248              		@ args = 0, pretend = 0, frame = 0
 249              		@ frame_needed = 0, uses_anonymous_args = 0
 250 0000 F0412DE9 		push	{r4, r5, r6, r7, r8, lr}
 251              		.save {r4, r5, r6, r7, r8, lr}
 252 0004 0270A0E1 		mov	r7, r2
 253 0008 0380A0E1 		mov	r8, r3
 254 000c 0150A0E1 		mov	r5, r1
 255 0010 0040A0E1 		mov	r4, r0
 256 0014 FEFFFFEB 		bl	_ZNK6tflite12RuntimeShape4DimsEi
 257 0018 0810A0E1 		mov	r1, r8
 258 001c 0060A0E1 		mov	r6, r0
 259 0020 0700A0E1 		mov	r0, r7
 260 0024 FEFFFFEB 		bl	_ZNK6tflite12RuntimeShape4DimsEi
 261 0028 000056E1 		cmp	r6, r0
 262 002c 0000000A 		beq	.L41
 263 0030 FEFFFFEB 		bl	abort
 264              	.L41:
 265 0034 0510A0E1 		mov	r1, r5
 266 0038 0400A0E1 		mov	r0, r4
 267 003c FEFFFFEB 		bl	_ZNK6tflite12RuntimeShape4DimsEi
 268 0040 F081BDE8 		pop	{r4, r5, r6, r7, r8, pc}
 269              		.fnend
 271              		.section	.text._ZN6tflite13reference_ops24ConcatenationWithScalingERKNS_19ConcatenationParamsEPKPK
 272              		.align	2
 273              		.weak	_ZN6tflite13reference_ops24ConcatenationWithScalingERKNS_19ConcatenationParamsEPKPKNS_12Runt
 274              		.syntax unified
 275              		.arm
 276              		.fpu neon
 278              	_ZN6tflite13reference_ops24ConcatenationWithScalingERKNS_19ConcatenationParamsEPKPKNS_12RuntimeShap
 279              		.fnstart
 280              	.LFB3306:
 281              		@ args = 4, pretend = 0, frame = 72
 282              		@ frame_needed = 0, uses_anonymous_args = 0
 283 0000 F04F2DE9 		push	{r4, r5, r6, r7, r8, r9, r10, fp, lr}
 284              		.save {r4, r5, r6, r7, r8, r9, r10, fp, lr}
 285 0004 0360A0E1 		mov	r6, r3
 286 0008 043090E5 		ldr	r3, [r0, #4]
 287 000c 048B2DED 		vpush.64	{d8, d9}
 288              		.vsave {d8, d9}
 289              		.pad #76
 290 0010 4CD04DE2 		sub	sp, sp, #76
 291 0014 24308DE5 		str	r3, [sp, #36]
 292 0018 083090E5 		ldr	r3, [r0, #8]
 293 001c D040D0E1 		ldrsb	r4, [r0]
 294 0020 007096E5 		ldr	r7, [r6]
 295 0024 28308DE5 		str	r3, [sp, #40]
 296 0028 BC30D0E1 		ldrh	r3, [r0, #12]
 297 002c 070054E1 		cmp	r4, r7
 298 0030 1C108DE5 		str	r1, [sp, #28]
 299 0034 2C208DE5 		str	r2, [sp, #44]
 300 0038 10308DE5 		str	r3, [sp, #16]
 301 003c 103090E5 		ldr	r3, [r0, #16]
 302 0040 059A90ED 		vldr.32	s18, [r0, #20]
 303 0044 14308DE5 		str	r3, [sp, #20]
 304 0048 000000BA 		blt	.L44
 305              	.L46:
 306 004c FEFFFFEB 		bl	abort
 307              	.L44:
 308 0050 1C309DE5 		ldr	r3, [sp, #28]
 309 0054 0080A0E3 		mov	r8, #0
 310 0058 0090A0E3 		mov	r9, #0
 311 005c 00B0A0E3 		mov	fp, #0
 312 0060 04A043E2 		sub	r10, r3, #4
 313              	.L50:
 314 0064 10309DE5 		ldr	r3, [sp, #16]
 315 0068 03005BE1 		cmp	fp, r3
 316 006c 160000AA 		bge	.L45
 317 0070 0430BAE5 		ldr	r3, [r10, #4]!
 318 0074 003093E5 		ldr	r3, [r3]
 319 0078 030057E1 		cmp	r7, r3
 320 007c F2FFFF1A 		bne	.L46
 321 0080 0050A0E3 		mov	r5, #0
 322              	.L49:
 323 0084 070055E1 		cmp	r5, r7
 324 0088 080000AA 		bge	.L47
 325 008c 040055E1 		cmp	r5, r4
 326 0090 0400000A 		beq	.L48
 327 0094 0530A0E1 		mov	r3, r5
 328 0098 0620A0E1 		mov	r2, r6
 329 009c 0510A0E1 		mov	r1, r5
 330 00a0 00009AE5 		ldr	r0, [r10]
 331 00a4 FEFFFFEB 		bl	_ZN6tflite11MatchingDimERKNS_12RuntimeShapeEiS2_i
 332              	.L48:
 333 00a8 015085E2 		add	r5, r5, #1
 334 00ac F4FFFFEA 		b	.L49
 335              	.L47:
 336 00b0 0410A0E1 		mov	r1, r4
 337 00b4 00009AE5 		ldr	r0, [r10]
 338 00b8 FEFFFFEB 		bl	_ZNK6tflite12RuntimeShape4DimsEi
 339 00bc 008098E0 		adds	r8, r8, r0
 340 00c0 01B08BE2 		add	fp, fp, #1
 341 00c4 C09FA9E0 		adc	r9, r9, r0, asr #31
 342 00c8 E5FFFFEA 		b	.L50
 343              	.L45:
 344 00cc 0410A0E1 		mov	r1, r4
 345 00d0 0600A0E1 		mov	r0, r6
 346 00d4 FEFFFFEB 		bl	_ZNK6tflite12RuntimeShape4DimsEi
 347 00d8 C01FA0E1 		asr	r1, r0, #31
 348 00dc 090051E1 		cmp	r1, r9
 349 00e0 08005001 		cmpeq	r0, r8
 350 00e4 D8FFFF1A 		bne	.L46
 351 00e8 0050A0E3 		mov	r5, #0
 352 00ec 01A0A0E3 		mov	r10, #1
 353 00f0 00B0A0E3 		mov	fp, #0
 354              	.L52:
 355 00f4 040055E1 		cmp	r5, r4
 356 00f8 090000AA 		bge	.L51
 357 00fc 0510A0E1 		mov	r1, r5
 358 0100 0600A0E1 		mov	r0, r6
 359 0104 FEFFFFEB 		bl	_ZNK6tflite12RuntimeShape4DimsEi
 360 0108 C03FA0E1 		asr	r3, r0, #31
 361 010c 015085E2 		add	r5, r5, #1
 362 0110 9A0303E0 		mul	r3, r10, r3
 363 0114 903B23E0 		mla	r3, r0, fp, r3
 364 0118 9AA08BE0 		umull	r10, fp, r10, r0
 365 011c 0BB083E0 		add	fp, r3, fp
 366 0120 F3FFFFEA 		b	.L52
 367              	.L51:
 368 0124 015084E2 		add	r5, r4, #1
 369 0128 0180A0E3 		mov	r8, #1
 370 012c 0090A0E3 		mov	r9, #0
 371              	.L54:
 372 0130 070055E1 		cmp	r5, r7
 373 0134 0900000A 		beq	.L53
 374 0138 0510A0E1 		mov	r1, r5
 375 013c 0600A0E1 		mov	r0, r6
 376 0140 FEFFFFEB 		bl	_ZNK6tflite12RuntimeShape4DimsEi
 377 0144 C03FA0E1 		asr	r3, r0, #31
 378 0148 015085E2 		add	r5, r5, #1
 379 014c 980303E0 		mul	r3, r8, r3
 380 0150 903923E0 		mla	r3, r0, r9, r3
 381 0154 988089E0 		umull	r8, r9, r8, r0
 382 0158 099083E0 		add	r9, r3, r9
 383 015c F3FFFFEA 		b	.L54
 384              	.L53:
 385 0160 007AF7EE 		vmov.f32	s15, #1.0e+0
 386 0164 1000C0F2 		vmov.i32	d16, #0  @ di
 387 0168 899AC7EE 		vdiv.f32	s19, s15, s18
 388 016c 000BCDED 		vstr.64	d16, [sp]	@ int
 389              	.L63:
 390 0170 00309DE5 		ldr	r3, [sp]
 391 0174 20308DE5 		str	r3, [sp, #32]
 392 0178 D020CDE1 		ldrd	r2, [sp]
 393 017c 0A0052E1 		cmp	r2, r10
 394 0180 0B30D3E0 		sbcs	r3, r3, fp
 395 0184 550000AA 		bge	.L43
 396 0188 28709DE5 		ldr	r7, [sp, #40]
 397 018c 0050A0E3 		mov	r5, #0
 398              	.L62:
 399 0190 10309DE5 		ldr	r3, [sp, #16]
 400 0194 030055E1 		cmp	r5, r3
 401 0198 4B0000AA 		bge	.L56
 402 019c 1C309DE5 		ldr	r3, [sp, #28]
 403 01a0 0410A0E1 		mov	r1, r4
 404 01a4 050193E7 		ldr	r0, [r3, r5, lsl #2]
 405 01a8 FEFFFFEB 		bl	_ZNK6tflite12RuntimeShape4DimsEi
 406 01ac 900803E0 		mul	r3, r0, r8
 407 01b0 20209DE5 		ldr	r2, [sp, #32]
 408 01b4 0C308DE5 		str	r3, [sp, #12]
 409 01b8 2C309DE5 		ldr	r3, [sp, #44]
 410 01bc 0C109DE5 		ldr	r1, [sp, #12]
 411 01c0 053193E7 		ldr	r3, [r3, r5, lsl #2]
 412 01c4 913223E0 		mla	r3, r1, r2, r3
 413 01c8 14209DE5 		ldr	r2, [sp, #20]
 414 01cc 18308DE5 		str	r3, [sp, #24]
 415 01d0 24309DE5 		ldr	r3, [sp, #36]
 416 01d4 053193E7 		ldr	r3, [r3, r5, lsl #2]
 417 01d8 030052E1 		cmp	r2, r3
 418 01dc 0E00001A 		bne	.L57
 419 01e0 007AD7ED 		vldr.32	s15, [r7]
 420 01e4 679AB4EE 		vcmp.f32	s18, s15
 421 01e8 10FAF1EE 		vmrs	APSR_nzcv, FPSCR
 422 01ec 0A00001A 		bne	.L57
 423 01f0 0120A0E1 		mov	r2, r1
 424 01f4 80009DE5 		ldr	r0, [sp, #128]
 425 01f8 18109DE5 		ldr	r1, [sp, #24]
 426 01fc FEFFFFEB 		bl	memcpy
 427              	.L58:
 428 0200 80309DE5 		ldr	r3, [sp, #128]
 429 0204 015085E2 		add	r5, r5, #1
 430 0208 0C209DE5 		ldr	r2, [sp, #12]
 431 020c 047087E2 		add	r7, r7, #4
 432 0210 023083E0 		add	r3, r3, r2
 433 0214 80308DE5 		str	r3, [sp, #128]
 434 0218 DCFFFFEA 		b	.L62
 435              	.L57:
 436 021c 003063E2 		rsb	r3, r3, #0
 437 0220 008AD7ED 		vldr.32	s17, [r7]
 438 0224 0060A0E3 		mov	r6, #0
 439 0228 40208DE2 		add	r2, sp, #64
 440 022c 103A08EE 		vmov	s16, r3	@ int
 441 0230 0630A0E1 		mov	r3, r6
 442 0234 A88A69EE 		vmul.f32	s17, s19, s17
 443 0238 C88AB8EE 		vcvt.f32.s32	s16, s16
 444 023c 288A28EE 		vmul.f32	s16, s16, s17
 445              	.L61:
 446 0240 34308DE5 		str	r3, [sp, #52]
 447 0244 0C309DE5 		ldr	r3, [sp, #12]
 448 0248 30208DE5 		str	r2, [sp, #48]
 449 024c 030056E1 		cmp	r6, r3
 450 0250 EAFFFFAA 		bge	.L58
 451 0254 18309DE5 		ldr	r3, [sp, #24]
 452 0258 480AB0EE 		vmov.f32	s0, s16
 453 025c 0630D3E7 		ldrb	r3, [r3, r6]	@ zero_extendqisi2
 454 0260 903A07EE 		vmov	s15, r3	@ int
 455 0264 E77AF8EE 		vcvt.f32.s32	s15, s15
 456 0268 A80A07EE 		vmla.f32	s0, s15, s17
 457 026c FEFFFFEB 		bl	roundf
 458 0270 C00ABDEE 		vcvt.s32.f32	s0, s0
 459 0274 14209DE5 		ldr	r2, [sp, #20]
 460 0278 103A10EE 		vmov	r3, s0	@ int
 461 027c 021083E0 		add	r1, r3, r2
 462 0280 30209DE5 		ldr	r2, [sp, #48]
 463 0284 FF30A0E3 		mov	r3, #255
 464 0288 3C108DE5 		str	r1, [sp, #60]
 465 028c 030051E1 		cmp	r1, r3
 466 0290 40308DE5 		str	r3, [sp, #64]
 467 0294 3C308DE2 		add	r3, sp, #60
 468 0298 0210A0A1 		movge	r1, r2
 469 029c 0310A0B1 		movlt	r1, r3
 470 02a0 34309DE5 		ldr	r3, [sp, #52]
 471 02a4 000091E5 		ldr	r0, [r1]
 472 02a8 44308DE5 		str	r3, [sp, #68]
 473 02ac 000050E3 		cmp	r0, #0
 474 02b0 44008DE2 		add	r0, sp, #68
 475 02b4 0010A0B1 		movlt	r1, r0
 476 02b8 80009DE5 		ldr	r0, [sp, #128]
 477 02bc 001091E5 		ldr	r1, [r1]
 478 02c0 0610C0E7 		strb	r1, [r0, r6]
 479 02c4 016086E2 		add	r6, r6, #1
 480 02c8 DCFFFFEA 		b	.L61
 481              	.L56:
 482 02cc D020CDE1 		ldrd	r2, [sp]
 483 02d0 012092E2 		adds	r2, r2, #1
 484 02d4 0030A3E2 		adc	r3, r3, #0
 485 02d8 F020CDE1 		strd	r2, [sp]
 486 02dc A3FFFFEA 		b	.L63
 487              	.L43:
 488 02e0 4CD08DE2 		add	sp, sp, #76
 489              		@ sp needed
 490 02e4 048BBDEC 		vldm	sp!, {d8-d9}
 491 02e8 F08FBDE8 		pop	{r4, r5, r6, r7, r8, r9, r10, fp, pc}
 492              		.fnend
 494              		.section	.text._ZN6tflite14GetTensorShapeEPK12TfLiteTensor,"axG",%progbits,_ZN6tflite14GetTensorSh
 495              		.align	2
 496              		.weak	_ZN6tflite14GetTensorShapeEPK12TfLiteTensor
 497              		.syntax unified
 498              		.arm
 499              		.fpu neon
 501              	_ZN6tflite14GetTensorShapeEPK12TfLiteTensor:
 502              		.fnstart
 503              	.LFB4912:
 504              		@ args = 0, pretend = 0, frame = 0
 505              		@ frame_needed = 0, uses_anonymous_args = 0
 506 0000 000051E3 		cmp	r1, #0
 507 0004 10402DE9 		push	{r4, lr}
 508              		.save {r4, lr}
 509 0008 0040A0E1 		mov	r4, r0
 510 000c 00108005 		streq	r1, [r0]
 511 0010 0400000A 		beq	.L67
 512 0014 082091E5 		ldr	r2, [r1, #8]
 513 0018 0030A0E3 		mov	r3, #0
 514 001c 041092E4 		ldr	r1, [r2], #4
 515 0020 003080E5 		str	r3, [r0]
 516 0024 FEFFFFEB 		bl	_ZN6tflite12RuntimeShape11ReplaceWithEiPKl
 517              	.L67:
 518 0028 0400A0E1 		mov	r0, r4
 519 002c 1080BDE8 		pop	{r4, pc}
 520              		.fnend
 522              		.section	.text._ZN6tflite3ops5micro13concatenation18GetAllTensorShapesERK13TfLiteContextRK14TfLite
 523              		.align	2
 524              		.syntax unified
 525              		.arm
 526              		.fpu neon
 528              	_ZN6tflite3ops5micro13concatenation18GetAllTensorShapesERK13TfLiteContextRK14TfLiteIntArrayPNS_12Ru
 529              		.fnstart
 530              	.LFB7772:
 531              		@ args = 0, pretend = 0, frame = 24
 532              		@ frame_needed = 0, uses_anonymous_args = 0
 533 0000 F0432DE9 		push	{r4, r5, r6, r7, r8, r9, lr}
 534              		.save {r4, r5, r6, r7, r8, r9, lr}
 535 0004 0070A0E1 		mov	r7, r0
 536              		.pad #28
 537 0008 1CD04DE2 		sub	sp, sp, #28
 538 000c 0160A0E1 		mov	r6, r1
 539 0010 0280A0E1 		mov	r8, r2
 540 0014 045081E2 		add	r5, r1, #4
 541 0018 0040A0E3 		mov	r4, #0
 542 001c 1490A0E3 		mov	r9, #20
 543              	.L74:
 544 0020 003096E5 		ldr	r3, [r6]
 545 0024 040053E1 		cmp	r3, r4
 546 0028 110000DA 		ble	.L71
 547 002c 041095E4 		ldr	r1, [r5], #4
 548 0030 04008DE2 		add	r0, sp, #4
 549 0034 003097E5 		ldr	r3, [r7]
 550 0038 011383E0 		add	r1, r3, r1, lsl #6
 551              	.LEHB0:
 552 003c FEFFFFEB 		bl	_ZN6tflite14GetTensorShapeEPK12TfLiteTensor
 553              	.LEHE0:
 554 0040 04109DE5 		ldr	r1, [sp, #4]
 555 0044 998420E0 		mla	r0, r9, r4, r8
 556 0048 040051E3 		cmp	r1, #4
 557 004c 08209DC5 		ldrgt	r2, [sp, #8]
 558 0050 08208DD2 		addle	r2, sp, #8
 559              	.LEHB1:
 560 0054 FEFFFFEB 		bl	_ZN6tflite12RuntimeShape11ReplaceWithEiPKl
 561              	.LEHE1:
 562 0058 04008DE2 		add	r0, sp, #4
 563 005c 014084E2 		add	r4, r4, #1
 564 0060 FEFFFFEB 		bl	_ZN6tflite12RuntimeShapeD1Ev
 565 0064 EDFFFFEA 		b	.L74
 566              	.L77:
 567 0068 04008DE2 		add	r0, sp, #4
 568 006c FEFFFFEB 		bl	_ZN6tflite12RuntimeShapeD1Ev
 569              	.LEHB2:
 570 0070 FEFFFFEB 		bl	__cxa_end_cleanup
 571              	.LEHE2:
 572              	.L71:
 573 0074 1CD08DE2 		add	sp, sp, #28
 574              		@ sp needed
 575 0078 F083BDE8 		pop	{r4, r5, r6, r7, r8, r9, pc}
 576              		.global	__gxx_personality_v0
 577              		.personality	__gxx_personality_v0
 578              		.handlerdata
 579              	.LLSDA7772:
 580 0008 FF       		.byte	0xff
 581 0009 FF       		.byte	0xff
 582 000a 01       		.byte	0x1
 583 000b 0C       		.uleb128 .LLSDACSE7772-.LLSDACSB7772
 584              	.LLSDACSB7772:
 585 000c 3C       		.uleb128 .LEHB0-.LFB7772
 586 000d 04       		.uleb128 .LEHE0-.LEHB0
 587 000e 00       		.uleb128 0
 588 000f 00       		.uleb128 0
 589 0010 54       		.uleb128 .LEHB1-.LFB7772
 590 0011 04       		.uleb128 .LEHE1-.LEHB1
 591 0012 68       		.uleb128 .L77-.LFB7772
 592 0013 00       		.uleb128 0
 593 0014 70       		.uleb128 .LEHB2-.LFB7772
 594 0015 04       		.uleb128 .LEHE2-.LEHB2
 595 0016 00       		.uleb128 0
 596 0017 00       		.uleb128 0
 597              	.LLSDACSE7772:
 598              		.section	.text._ZN6tflite3ops5micro13concatenation18GetAllTensorShapesERK13TfLiteContextRK14TfLite
 599              		.fnend
 601              		.section	.text._ZN6tflite3ops5micro13concatenation17GetShapesPointersEPKNS_12RuntimeShapeEjPS5_,"a
 602              		.align	2
 603              		.weak	_ZN6tflite3ops5micro13concatenation17GetShapesPointersEPKNS_12RuntimeShapeEjPS5_
 604              		.syntax unified
 605              		.arm
 606              		.fpu neon
 608              	_ZN6tflite3ops5micro13concatenation17GetShapesPointersEPKNS_12RuntimeShapeEjPS5_:
 609              		.fnstart
 610              	.LFB6485:
 611              		@ args = 0, pretend = 0, frame = 0
 612              		@ frame_needed = 0, uses_anonymous_args = 0
 613 0000 04E02DE5 		str	lr, [sp, #-4]!
 614 0004 0030A0E3 		mov	r3, #0
 615 0008 14E0A0E3 		mov	lr, #20
 616              	.L81:
 617 000c 010053E1 		cmp	r3, r1
 618 0010 04F09D04 		ldreq	pc, [sp], #4
 619 0014 9E032CE0 		mla	ip, lr, r3, r0
 620 0018 03C182E7 		str	ip, [r2, r3, lsl #2]
 621 001c 013083E2 		add	r3, r3, #1
 622 0020 F9FFFFEA 		b	.L81
 623              		.cantunwind
 624              		.fnend
 626              		.section	.text._ZN6tflite3ops5micro13concatenation18EvalQuantizedUInt8EP13TfLiteContextP10TfLiteNo
 627              		.align	2
 628              		.global	_ZN6tflite3ops5micro13concatenation18EvalQuantizedUInt8EP13TfLiteContextP10TfLiteNode
 629              		.syntax unified
 630              		.arm
 631              		.fpu neon
 633              	_ZN6tflite3ops5micro13concatenation18EvalQuantizedUInt8EP13TfLiteContextP10TfLiteNode:
 634              		.fnstart
 635              	.LFB6489:
 636              		@ args = 0, pretend = 0, frame = 408
 637              		@ frame_needed = 0, uses_anonymous_args = 0
 638 0000 F0412DE9 		push	{r4, r5, r6, r7, r8, lr}
 639              		.save {r4, r5, r6, r7, r8, lr}
 640 0004 0030A0E3 		mov	r3, #0
 641              		.pad #416
 642 0008 1ADE4DE2 		sub	sp, sp, #416
 643 000c 0070A0E1 		mov	r7, r0
 644 0010 0160A0E1 		mov	r6, r1
 645 0014 D8508DE2 		add	r5, sp, #216
 646 0018 0320A0E1 		mov	r2, r3
 647              	.L85:
 648 001c 052083E7 		str	r2, [r3, r5]
 649 0020 143083E2 		add	r3, r3, #20
 650 0024 C80053E3 		cmp	r3, #200
 651 0028 FBFFFF1A 		bne	.L85
 652 002c 0520A0E1 		mov	r2, r5
 653 0030 001096E5 		ldr	r1, [r6]
 654 0034 080087E2 		add	r0, r7, #8
 655              	.LEHB3:
 656 0038 FEFFFFEB 		bl	_ZN6tflite3ops5micro13concatenation18GetAllTensorShapesERK13TfLiteContextRK14TfLiteIntArrayPNS_
 657              	.LEHE3:
 658 003c 060000EA 		b	.L114
 659              	.L102:
 660              	.L113:
 661 0040 1A4E8DE2 		add	r4, sp, #416
 662              	.L109:
 663 0044 144044E2 		sub	r4, r4, #20
 664 0048 0400A0E1 		mov	r0, r4
 665 004c FEFFFFEB 		bl	_ZN6tflite12RuntimeShapeD1Ev
 666 0050 050054E1 		cmp	r4, r5
 667 0054 FAFFFF1A 		bne	.L109
 668              	.LEHB4:
 669 0058 FEFFFFEB 		bl	__cxa_end_cleanup
 670              	.LEHE4:
 671              	.L114:
 672 005c 003096E5 		ldr	r3, [r6]
 673 0060 38208DE2 		add	r2, sp, #56
 674 0064 0500A0E1 		mov	r0, r5
 675 0068 001093E5 		ldr	r1, [r3]
 676 006c FEFFFFEB 		bl	_ZN6tflite3ops5micro13concatenation17GetShapesPointersEPKNS_12RuntimeShapeEjPS5_
 677 0070 002096E5 		ldr	r2, [r6]
 678 0074 0010A0E3 		mov	r1, #0
 679 0078 60E08DE2 		add	lr, sp, #96
 680 007c 04C092E4 		ldr	ip, [r2], #4
 681 0080 0200A0E1 		mov	r0, r2
 682              	.L91:
 683 0084 01005CE1 		cmp	ip, r1
 684 0088 083097E5 		ldr	r3, [r7, #8]
 685 008c 050000DA 		ble	.L89
 686 0090 044090E4 		ldr	r4, [r0], #4
 687 0094 044393E0 		adds	r4, r3, r4, lsl #6
 688 0098 04409415 		ldrne	r4, [r4, #4]
 689 009c 01418EE7 		str	r4, [lr, r1, lsl #2]
 690 00a0 011081E2 		add	r1, r1, #1
 691 00a4 F6FFFFEA 		b	.L91
 692              	.L89:
 693 00a8 88E08DE2 		add	lr, sp, #136
 694 00ac 0010A0E3 		mov	r1, #0
 695 00b0 0E80A0E1 		mov	r8, lr
 696 00b4 B0708DE2 		add	r7, sp, #176
 697              	.L93:
 698 00b8 0C0051E1 		cmp	r1, ip
 699 00bc 070000AA 		bge	.L92
 700 00c0 040092E4 		ldr	r0, [r2], #4
 701 00c4 000383E0 		add	r0, r3, r0, lsl #6
 702 00c8 0C4090E5 		ldr	r4, [r0, #12]	@ float
 703 00cc 100090E5 		ldr	r0, [r0, #16]
 704 00d0 04408EE4 		str	r4, [lr], #4	@ float
 705 00d4 010187E7 		str	r0, [r7, r1, lsl #2]
 706 00d8 011081E2 		add	r1, r1, #1
 707 00dc F5FFFFEA 		b	.L93
 708              	.L92:
 709 00e0 042096E5 		ldr	r2, [r6, #4]
 710 00e4 0C008DE2 		add	r0, sp, #12
 711 00e8 044092E5 		ldr	r4, [r2, #4]
 712 00ec 044383E0 		add	r4, r3, r4, lsl #6
 713 00f0 143096E5 		ldr	r3, [r6, #20]
 714 00f4 1A6E8DE2 		add	r6, sp, #416
 715 00f8 0410A0E1 		mov	r1, r4
 716 00fc 003093E5 		ldr	r3, [r3]
 717 0100 000053E3 		cmp	r3, #0
 718 0104 082094B5 		ldrlt	r2, [r4, #8]
 719 0108 002092B5 		ldrlt	r2, [r2]
 720 010c 24708DE5 		str	r7, [sp, #36]
 721 0110 28808DE5 		str	r8, [sp, #40]
 722 0114 023083B0 		addlt	r3, r3, r2
 723 0118 803166E5 		strb	r3, [r6, #-384]!
 724 011c 103094E5 		ldr	r3, [r4, #16]
 725 0120 BCC0C6E1 		strh	ip, [r6, #12]	@ movhi
 726 0124 30308DE5 		str	r3, [sp, #48]
 727 0128 0C3094E5 		ldr	r3, [r4, #12]	@ float
 728 012c 34308DE5 		str	r3, [sp, #52]	@ float
 729              	.LEHB5:
 730 0130 FEFFFFEB 		bl	_ZN6tflite14GetTensorShapeEPK12TfLiteTensor
 731              	.LEHE5:
 732 0134 000000EA 		b	.L115
 733              	.L103:
 734 0138 C0FFFFEA 		b	.L113
 735              	.L115:
 736 013c 043094E5 		ldr	r3, [r4, #4]
 737 0140 60208DE2 		add	r2, sp, #96
 738 0144 38108DE2 		add	r1, sp, #56
 739 0148 0600A0E1 		mov	r0, r6
 740 014c 00308DE5 		str	r3, [sp]
 741 0150 0C308DE2 		add	r3, sp, #12
 742              	.LEHB6:
 743 0154 FEFFFFEB 		bl	_ZN6tflite13reference_ops24ConcatenationWithScalingERKNS_19ConcatenationParamsEPKPKNS_12Runtime
 744              	.LEHE6:
 745 0158 1A4E8DE2 		add	r4, sp, #416
 746 015c 0C008DE2 		add	r0, sp, #12
 747 0160 FEFFFFEB 		bl	_ZN6tflite12RuntimeShapeD1Ev
 748              	.L97:
 749 0164 144044E2 		sub	r4, r4, #20
 750 0168 0400A0E1 		mov	r0, r4
 751 016c FEFFFFEB 		bl	_ZN6tflite12RuntimeShapeD1Ev
 752 0170 050054E1 		cmp	r4, r5
 753 0174 FAFFFF1A 		bne	.L97
 754 0178 1ADE8DE2 		add	sp, sp, #416
 755              		@ sp needed
 756 017c F081BDE8 		pop	{r4, r5, r6, r7, r8, pc}
 757              	.L101:
 758 0180 0C008DE2 		add	r0, sp, #12
 759 0184 FEFFFFEB 		bl	_ZN6tflite12RuntimeShapeD1Ev
 760 0188 ACFFFFEA 		b	.L113
 761              		.personality	__gxx_personality_v0
 762              		.handlerdata
 763              	.LLSDA6489:
 764 0008 FF       		.byte	0xff
 765 0009 FF       		.byte	0xff
 766 000a 01       		.byte	0x1
 767 000b 14       		.uleb128 .LLSDACSE6489-.LLSDACSB6489
 768              	.LLSDACSB6489:
 769 000c 38       		.uleb128 .LEHB3-.LFB6489
 770 000d 04       		.uleb128 .LEHE3-.LEHB3
 771 000e 40       		.uleb128 .L102-.LFB6489
 772 000f 00       		.uleb128 0
 773 0010 58       		.uleb128 .LEHB4-.LFB6489
 774 0011 04       		.uleb128 .LEHE4-.LEHB4
 775 0012 00       		.uleb128 0
 776 0013 00       		.uleb128 0
 777 0014 B002     		.uleb128 .LEHB5-.LFB6489
 778 0016 04       		.uleb128 .LEHE5-.LEHB5
 779 0017 B802     		.uleb128 .L103-.LFB6489
 780 0019 00       		.uleb128 0
 781 001a D402     		.uleb128 .LEHB6-.LFB6489
 782 001c 04       		.uleb128 .LEHE6-.LEHB6
 783 001d 8003     		.uleb128 .L101-.LFB6489
 784 001f 00       		.uleb128 0
 785              	.LLSDACSE6489:
 786              		.section	.text._ZN6tflite3ops5micro13concatenation18EvalQuantizedUInt8EP13TfLiteContextP10TfLiteNo
 787              		.fnend
 789              		.section	.text._ZN6tflite3ops5micro22Register_CONCATENATIONEv,"ax",%progbits
 790              		.align	2
 791              		.global	_ZN6tflite3ops5micro22Register_CONCATENATIONEv
 792              		.syntax unified
 793              		.arm
 794              		.fpu neon
 796              	_ZN6tflite3ops5micro22Register_CONCATENATIONEv:
 797              		.fnstart
 798              	.LFB6491:
 799              		@ args = 0, pretend = 0, frame = 0
 800              		@ frame_needed = 0, uses_anonymous_args = 0
 801              		@ link register save eliminated.
 802 0000 10009FE5 		ldr	r0, .L117
 803 0004 10309FE5 		ldr	r3, .L117+4
 804 0008 083080E5 		str	r3, [r0, #8]
 805 000c 0C309FE5 		ldr	r3, .L117+8
 806 0010 0C3080E5 		str	r3, [r0, #12]
 807 0014 1EFF2FE1 		bx	lr
 808              	.L118:
 809              		.align	2
 810              	.L117:
 811 0018 00000000 		.word	.LANCHOR0
 812 001c 00000000 		.word	_ZN6tflite3ops5micro13concatenation7PrepareEP13TfLiteContextP10TfLiteNode
 813 0020 00000000 		.word	_ZN6tflite3ops5micro13concatenation4EvalEP13TfLiteContextP10TfLiteNode
 814              		.cantunwind
 815              		.fnend
 817              		.section	.text._ZN6tflite13reference_ops13ConcatenationIfEEvRKNS_19ConcatenationParamsEPKPKNS_12Ru
 818              		.align	2
 819              		.weak	_ZN6tflite13reference_ops13ConcatenationIfEEvRKNS_19ConcatenationParamsEPKPKNS_12RuntimeShap
 820              		.syntax unified
 821              		.arm
 822              		.fpu neon
 824              	_ZN6tflite13reference_ops13ConcatenationIfEEvRKNS_19ConcatenationParamsEPKPKNS_12RuntimeShapeEPKPKT
 825              		.fnstart
 826              	.LFB7176:
 827              		@ args = 4, pretend = 0, frame = 24
 828              		@ frame_needed = 0, uses_anonymous_args = 0
 829 0000 F04F2DE9 		push	{r4, r5, r6, r7, r8, r9, r10, fp, lr}
 830              		.save {r4, r5, r6, r7, r8, r9, r10, fp, lr}
 831 0004 0360A0E1 		mov	r6, r3
 832 0008 D040D0E1 		ldrsb	r4, [r0]
 833              		.pad #28
 834 000c 1CD04DE2 		sub	sp, sp, #28
 835 0010 007096E5 		ldr	r7, [r6]
 836 0014 BC30D0E1 		ldrh	r3, [r0, #12]
 837 0018 10108DE5 		str	r1, [sp, #16]
 838 001c 070054E1 		cmp	r4, r7
 839 0020 14208DE5 		str	r2, [sp, #20]
 840 0024 0C308DE5 		str	r3, [sp, #12]
 841 0028 000000BA 		blt	.L120
 842              	.L122:
 843 002c FEFFFFEB 		bl	abort
 844              	.L120:
 845 0030 10309DE5 		ldr	r3, [sp, #16]
 846 0034 0080A0E3 		mov	r8, #0
 847 0038 0090A0E3 		mov	r9, #0
 848 003c 00B0A0E3 		mov	fp, #0
 849 0040 04A043E2 		sub	r10, r3, #4
 850              	.L126:
 851 0044 0C309DE5 		ldr	r3, [sp, #12]
 852 0048 03005BE1 		cmp	fp, r3
 853 004c 160000AA 		bge	.L121
 854 0050 0430BAE5 		ldr	r3, [r10, #4]!
 855 0054 003093E5 		ldr	r3, [r3]
 856 0058 030057E1 		cmp	r7, r3
 857 005c F2FFFF1A 		bne	.L122
 858 0060 0050A0E3 		mov	r5, #0
 859              	.L125:
 860 0064 070055E1 		cmp	r5, r7
 861 0068 080000AA 		bge	.L123
 862 006c 040055E1 		cmp	r5, r4
 863 0070 0400000A 		beq	.L124
 864 0074 0530A0E1 		mov	r3, r5
 865 0078 0620A0E1 		mov	r2, r6
 866 007c 0510A0E1 		mov	r1, r5
 867 0080 00009AE5 		ldr	r0, [r10]
 868 0084 FEFFFFEB 		bl	_ZN6tflite11MatchingDimERKNS_12RuntimeShapeEiS2_i
 869              	.L124:
 870 0088 015085E2 		add	r5, r5, #1
 871 008c F4FFFFEA 		b	.L125
 872              	.L123:
 873 0090 0410A0E1 		mov	r1, r4
 874 0094 00009AE5 		ldr	r0, [r10]
 875 0098 FEFFFFEB 		bl	_ZNK6tflite12RuntimeShape4DimsEi
 876 009c 008098E0 		adds	r8, r8, r0
 877 00a0 01B08BE2 		add	fp, fp, #1
 878 00a4 C09FA9E0 		adc	r9, r9, r0, asr #31
 879 00a8 E5FFFFEA 		b	.L126
 880              	.L121:
 881 00ac 0410A0E1 		mov	r1, r4
 882 00b0 0600A0E1 		mov	r0, r6
 883 00b4 FEFFFFEB 		bl	_ZNK6tflite12RuntimeShape4DimsEi
 884 00b8 C01FA0E1 		asr	r1, r0, #31
 885 00bc 090051E1 		cmp	r1, r9
 886 00c0 08005001 		cmpeq	r0, r8
 887 00c4 D8FFFF1A 		bne	.L122
 888 00c8 0050A0E3 		mov	r5, #0
 889 00cc 01A0A0E3 		mov	r10, #1
 890 00d0 00B0A0E3 		mov	fp, #0
 891              	.L128:
 892 00d4 040055E1 		cmp	r5, r4
 893 00d8 090000AA 		bge	.L127
 894 00dc 0510A0E1 		mov	r1, r5
 895 00e0 0600A0E1 		mov	r0, r6
 896 00e4 FEFFFFEB 		bl	_ZNK6tflite12RuntimeShape4DimsEi
 897 00e8 C03FA0E1 		asr	r3, r0, #31
 898 00ec 015085E2 		add	r5, r5, #1
 899 00f0 9A0303E0 		mul	r3, r10, r3
 900 00f4 903B23E0 		mla	r3, r0, fp, r3
 901 00f8 9AA08BE0 		umull	r10, fp, r10, r0
 902 00fc 0BB083E0 		add	fp, r3, fp
 903 0100 F3FFFFEA 		b	.L128
 904              	.L127:
 905 0104 015084E2 		add	r5, r4, #1
 906 0108 0180A0E3 		mov	r8, #1
 907 010c 0090A0E3 		mov	r9, #0
 908              	.L131:
 909 0110 070055E1 		cmp	r5, r7
 910 0114 1C00001A 		bne	.L129
 911 0118 1000C0F2 		vmov.i32	d16, #0  @ di
 912 011c 000BCDED 		vstr.64	d16, [sp]	@ int
 913              	.L130:
 914 0120 D020CDE1 		ldrd	r2, [sp]
 915 0124 00609DE5 		ldr	r6, [sp]
 916 0128 0A0052E1 		cmp	r2, r10
 917 012c 0B30D3E0 		sbcs	r3, r3, fp
 918 0130 240000AA 		bge	.L119
 919 0134 0050A0E3 		mov	r5, #0
 920              	.L134:
 921 0138 0C309DE5 		ldr	r3, [sp, #12]
 922 013c 030055E1 		cmp	r5, r3
 923 0140 1B0000AA 		bge	.L133
 924 0144 10309DE5 		ldr	r3, [sp, #16]
 925 0148 0410A0E1 		mov	r1, r4
 926 014c 050193E7 		ldr	r0, [r3, r5, lsl #2]
 927 0150 FEFFFFEB 		bl	_ZNK6tflite12RuntimeShape4DimsEi
 928 0154 900800E0 		mul	r0, r0, r8
 929 0158 14309DE5 		ldr	r3, [sp, #20]
 930 015c 051193E7 		ldr	r1, [r3, r5, lsl #2]
 931 0160 015085E2 		add	r5, r5, #1
 932 0164 0071A0E1 		lsl	r7, r0, #2
 933 0168 960000E0 		mul	r0, r6, r0
 934 016c 0720A0E1 		mov	r2, r7
 935 0170 001181E0 		add	r1, r1, r0, lsl #2
 936 0174 40009DE5 		ldr	r0, [sp, #64]
 937 0178 FEFFFFEB 		bl	memcpy
 938 017c 40309DE5 		ldr	r3, [sp, #64]
 939 0180 073083E0 		add	r3, r3, r7
 940 0184 40308DE5 		str	r3, [sp, #64]
 941 0188 EAFFFFEA 		b	.L134
 942              	.L129:
 943 018c 0510A0E1 		mov	r1, r5
 944 0190 0600A0E1 		mov	r0, r6
 945 0194 FEFFFFEB 		bl	_ZNK6tflite12RuntimeShape4DimsEi
 946 0198 C03FA0E1 		asr	r3, r0, #31
 947 019c 015085E2 		add	r5, r5, #1
 948 01a0 980303E0 		mul	r3, r8, r3
 949 01a4 903923E0 		mla	r3, r0, r9, r3
 950 01a8 988089E0 		umull	r8, r9, r8, r0
 951 01ac 099083E0 		add	r9, r3, r9
 952 01b0 D6FFFFEA 		b	.L131
 953              	.L133:
 954 01b4 D020CDE1 		ldrd	r2, [sp]
 955 01b8 012092E2 		adds	r2, r2, #1
 956 01bc 0030A3E2 		adc	r3, r3, #0
 957 01c0 F020CDE1 		strd	r2, [sp]
 958 01c4 D5FFFFEA 		b	.L130
 959              	.L119:
 960 01c8 1CD08DE2 		add	sp, sp, #28
 961              		@ sp needed
 962 01cc F08FBDE8 		pop	{r4, r5, r6, r7, r8, r9, r10, fp, pc}
 963              		.fnend
 965              		.section	.text._ZN6tflite3ops5micro13concatenation15EvalUnquantizedIfEEvP13TfLiteContextP10TfLiteN
 966              		.align	2
 967              		.weak	_ZN6tflite3ops5micro13concatenation15EvalUnquantizedIfEEvP13TfLiteContextP10TfLiteNode
 968              		.syntax unified
 969              		.arm
 970              		.fpu neon
 972              	_ZN6tflite3ops5micro13concatenation15EvalUnquantizedIfEEvP13TfLiteContextP10TfLiteNode:
 973              		.fnstart
 974              	.LFB6879:
 975              		@ args = 0, pretend = 0, frame = 328
 976              		@ frame_needed = 0, uses_anonymous_args = 0
 977 0000 F0402DE9 		push	{r4, r5, r6, r7, lr}
 978              		.save {r4, r5, r6, r7, lr}
 979 0004 0030A0E3 		mov	r3, #0
 980              		.pad #340
 981 0008 55DF4DE2 		sub	sp, sp, #340
 982 000c 0070A0E1 		mov	r7, r0
 983 0010 0160A0E1 		mov	r6, r1
 984 0014 88508DE2 		add	r5, sp, #136
 985 0018 0320A0E1 		mov	r2, r3
 986              	.L137:
 987 001c 052083E7 		str	r2, [r3, r5]
 988 0020 143083E2 		add	r3, r3, #20
 989 0024 C80053E3 		cmp	r3, #200
 990 0028 FBFFFF1A 		bne	.L137
 991 002c 0520A0E1 		mov	r2, r5
 992 0030 001096E5 		ldr	r1, [r6]
 993 0034 080087E2 		add	r0, r7, #8
 994              	.LEHB7:
 995 0038 FEFFFFEB 		bl	_ZN6tflite3ops5micro13concatenation18GetAllTensorShapesERK13TfLiteContextRK14TfLiteIntArrayPNS_
 996              	.LEHE7:
 997 003c 060000EA 		b	.L165
 998              	.L154:
 999              	.L164:
 1000 0040 154E8DE2 		add	r4, sp, #336
 1001              	.L160:
 1002 0044 144044E2 		sub	r4, r4, #20
 1003 0048 0400A0E1 		mov	r0, r4
 1004 004c FEFFFFEB 		bl	_ZN6tflite12RuntimeShapeD1Ev
 1005 0050 050054E1 		cmp	r4, r5
 1006 0054 FAFFFF1A 		bne	.L160
 1007              	.LEHB8:
 1008 0058 FEFFFFEB 		bl	__cxa_end_cleanup
 1009              	.LEHE8:
 1010              	.L165:
 1011 005c 003096E5 		ldr	r3, [r6]
 1012 0060 38208DE2 		add	r2, sp, #56
 1013 0064 0500A0E1 		mov	r0, r5
 1014 0068 001093E5 		ldr	r1, [r3]
 1015 006c FEFFFFEB 		bl	_ZN6tflite3ops5micro13concatenation17GetShapesPointersEPKNS_12RuntimeShapeEjPS5_
 1016 0070 002096E5 		ldr	r2, [r6]
 1017 0074 0030A0E3 		mov	r3, #0
 1018 0078 60C08DE2 		add	ip, sp, #96
 1019 007c 041092E4 		ldr	r1, [r2], #4
 1020              	.L143:
 1021 0080 030051E1 		cmp	r1, r3
 1022 0084 084097E5 		ldr	r4, [r7, #8]
 1023 0088 050000DA 		ble	.L141
 1024 008c 040092E4 		ldr	r0, [r2], #4
 1025 0090 004394E0 		adds	r4, r4, r0, lsl #6
 1026 0094 04409415 		ldrne	r4, [r4, #4]
 1027 0098 03418CE7 		str	r4, [ip, r3, lsl #2]
 1028 009c 013083E2 		add	r3, r3, #1
 1029 00a0 F6FFFFEA 		b	.L143
 1030              	.L141:
 1031 00a4 043096E5 		ldr	r3, [r6, #4]
 1032 00a8 0C008DE2 		add	r0, sp, #12
 1033 00ac 043093E5 		ldr	r3, [r3, #4]
 1034 00b0 034384E0 		add	r4, r4, r3, lsl #6
 1035 00b4 143096E5 		ldr	r3, [r6, #20]
 1036 00b8 156E8DE2 		add	r6, sp, #336
 1037 00bc 003093E5 		ldr	r3, [r3]
 1038 00c0 000053E3 		cmp	r3, #0
 1039 00c4 082094B5 		ldrlt	r2, [r4, #8]
 1040 00c8 002092B5 		ldrlt	r2, [r2]
 1041 00cc 023083B0 		addlt	r3, r3, r2
 1042 00d0 303166E5 		strb	r3, [r6, #-304]!
 1043 00d4 BC10C6E1 		strh	r1, [r6, #12]	@ movhi
 1044 00d8 0410A0E1 		mov	r1, r4
 1045              	.LEHB9:
 1046 00dc FEFFFFEB 		bl	_ZN6tflite14GetTensorShapeEPK12TfLiteTensor
 1047              	.LEHE9:
 1048 00e0 000000EA 		b	.L166
 1049              	.L155:
 1050 00e4 D5FFFFEA 		b	.L164
 1051              	.L166:
 1052 00e8 000054E3 		cmp	r4, #0
 1053 00ec 0C308DE2 		add	r3, sp, #12
 1054 00f0 04409415 		ldrne	r4, [r4, #4]
 1055 00f4 60208DE2 		add	r2, sp, #96
 1056 00f8 38108DE2 		add	r1, sp, #56
 1057 00fc 0600A0E1 		mov	r0, r6
 1058 0100 00408DE5 		str	r4, [sp]
 1059              	.LEHB10:
 1060 0104 FEFFFFEB 		bl	_ZN6tflite13reference_ops13ConcatenationIfEEvRKNS_19ConcatenationParamsEPKPKNS_12RuntimeShapeEP
 1061              	.LEHE10:
 1062 0108 154E8DE2 		add	r4, sp, #336
 1063 010c 0C008DE2 		add	r0, sp, #12
 1064 0110 FEFFFFEB 		bl	_ZN6tflite12RuntimeShapeD1Ev
 1065              	.L148:
 1066 0114 144044E2 		sub	r4, r4, #20
 1067 0118 0400A0E1 		mov	r0, r4
 1068 011c FEFFFFEB 		bl	_ZN6tflite12RuntimeShapeD1Ev
 1069 0120 050054E1 		cmp	r4, r5
 1070 0124 FAFFFF1A 		bne	.L148
 1071 0128 55DF8DE2 		add	sp, sp, #340
 1072              		@ sp needed
 1073 012c F080BDE8 		pop	{r4, r5, r6, r7, pc}
 1074              	.L153:
 1075 0130 0C008DE2 		add	r0, sp, #12
 1076 0134 FEFFFFEB 		bl	_ZN6tflite12RuntimeShapeD1Ev
 1077 0138 C0FFFFEA 		b	.L164
 1078              		.personality	__gxx_personality_v0
 1079              		.handlerdata
 1080              	.LLSDA6879:
 1081 0008 FF       		.byte	0xff
 1082 0009 FF       		.byte	0xff
 1083 000a 01       		.byte	0x1
 1084 000b 14       		.uleb128 .LLSDACSE6879-.LLSDACSB6879
 1085              	.LLSDACSB6879:
 1086 000c 38       		.uleb128 .LEHB7-.LFB6879
 1087 000d 04       		.uleb128 .LEHE7-.LEHB7
 1088 000e 40       		.uleb128 .L154-.LFB6879
 1089 000f 00       		.uleb128 0
 1090 0010 58       		.uleb128 .LEHB8-.LFB6879
 1091 0011 04       		.uleb128 .LEHE8-.LEHB8
 1092 0012 00       		.uleb128 0
 1093 0013 00       		.uleb128 0
 1094 0014 DC01     		.uleb128 .LEHB9-.LFB6879
 1095 0016 04       		.uleb128 .LEHE9-.LEHB9
 1096 0017 E401     		.uleb128 .L155-.LFB6879
 1097 0019 00       		.uleb128 0
 1098 001a 8402     		.uleb128 .LEHB10-.LFB6879
 1099 001c 04       		.uleb128 .LEHE10-.LEHB10
 1100 001d B002     		.uleb128 .L153-.LFB6879
 1101 001f 00       		.uleb128 0
 1102              	.LLSDACSE6879:
 1103              		.section	.text._ZN6tflite3ops5micro13concatenation15EvalUnquantizedIfEEvP13TfLiteContextP10TfLiteN
 1104              		.fnend
 1106              		.section	.text._ZN6tflite13reference_ops13ConcatenationIlEEvRKNS_19ConcatenationParamsEPKPKNS_12Ru
 1107              		.align	2
 1108              		.weak	_ZN6tflite13reference_ops13ConcatenationIlEEvRKNS_19ConcatenationParamsEPKPKNS_12RuntimeShap
 1109              		.syntax unified
 1110              		.arm
 1111              		.fpu neon
 1113              	_ZN6tflite13reference_ops13ConcatenationIlEEvRKNS_19ConcatenationParamsEPKPKNS_12RuntimeShapeEPKPKT
 1114              		.fnstart
 1115              	.LFB7179:
 1116              		@ args = 4, pretend = 0, frame = 24
 1117              		@ frame_needed = 0, uses_anonymous_args = 0
 1118 0000 F04F2DE9 		push	{r4, r5, r6, r7, r8, r9, r10, fp, lr}
 1119              		.save {r4, r5, r6, r7, r8, r9, r10, fp, lr}
 1120 0004 0360A0E1 		mov	r6, r3
 1121 0008 D040D0E1 		ldrsb	r4, [r0]
 1122              		.pad #28
 1123 000c 1CD04DE2 		sub	sp, sp, #28
 1124 0010 007096E5 		ldr	r7, [r6]
 1125 0014 BC30D0E1 		ldrh	r3, [r0, #12]
 1126 0018 10108DE5 		str	r1, [sp, #16]
 1127 001c 070054E1 		cmp	r4, r7
 1128 0020 14208DE5 		str	r2, [sp, #20]
 1129 0024 0C308DE5 		str	r3, [sp, #12]
 1130 0028 000000BA 		blt	.L168
 1131              	.L170:
 1132 002c FEFFFFEB 		bl	abort
 1133              	.L168:
 1134 0030 10309DE5 		ldr	r3, [sp, #16]
 1135 0034 0080A0E3 		mov	r8, #0
 1136 0038 0090A0E3 		mov	r9, #0
 1137 003c 00B0A0E3 		mov	fp, #0
 1138 0040 04A043E2 		sub	r10, r3, #4
 1139              	.L174:
 1140 0044 0C309DE5 		ldr	r3, [sp, #12]
 1141 0048 03005BE1 		cmp	fp, r3
 1142 004c 160000AA 		bge	.L169
 1143 0050 0430BAE5 		ldr	r3, [r10, #4]!
 1144 0054 003093E5 		ldr	r3, [r3]
 1145 0058 030057E1 		cmp	r7, r3
 1146 005c F2FFFF1A 		bne	.L170
 1147 0060 0050A0E3 		mov	r5, #0
 1148              	.L173:
 1149 0064 070055E1 		cmp	r5, r7
 1150 0068 080000AA 		bge	.L171
 1151 006c 040055E1 		cmp	r5, r4
 1152 0070 0400000A 		beq	.L172
 1153 0074 0530A0E1 		mov	r3, r5
 1154 0078 0620A0E1 		mov	r2, r6
 1155 007c 0510A0E1 		mov	r1, r5
 1156 0080 00009AE5 		ldr	r0, [r10]
 1157 0084 FEFFFFEB 		bl	_ZN6tflite11MatchingDimERKNS_12RuntimeShapeEiS2_i
 1158              	.L172:
 1159 0088 015085E2 		add	r5, r5, #1
 1160 008c F4FFFFEA 		b	.L173
 1161              	.L171:
 1162 0090 0410A0E1 		mov	r1, r4
 1163 0094 00009AE5 		ldr	r0, [r10]
 1164 0098 FEFFFFEB 		bl	_ZNK6tflite12RuntimeShape4DimsEi
 1165 009c 008098E0 		adds	r8, r8, r0
 1166 00a0 01B08BE2 		add	fp, fp, #1
 1167 00a4 C09FA9E0 		adc	r9, r9, r0, asr #31
 1168 00a8 E5FFFFEA 		b	.L174
 1169              	.L169:
 1170 00ac 0410A0E1 		mov	r1, r4
 1171 00b0 0600A0E1 		mov	r0, r6
 1172 00b4 FEFFFFEB 		bl	_ZNK6tflite12RuntimeShape4DimsEi
 1173 00b8 C01FA0E1 		asr	r1, r0, #31
 1174 00bc 090051E1 		cmp	r1, r9
 1175 00c0 08005001 		cmpeq	r0, r8
 1176 00c4 D8FFFF1A 		bne	.L170
 1177 00c8 0050A0E3 		mov	r5, #0
 1178 00cc 01A0A0E3 		mov	r10, #1
 1179 00d0 00B0A0E3 		mov	fp, #0
 1180              	.L176:
 1181 00d4 040055E1 		cmp	r5, r4
 1182 00d8 090000AA 		bge	.L175
 1183 00dc 0510A0E1 		mov	r1, r5
 1184 00e0 0600A0E1 		mov	r0, r6
 1185 00e4 FEFFFFEB 		bl	_ZNK6tflite12RuntimeShape4DimsEi
 1186 00e8 C03FA0E1 		asr	r3, r0, #31
 1187 00ec 015085E2 		add	r5, r5, #1
 1188 00f0 9A0303E0 		mul	r3, r10, r3
 1189 00f4 903B23E0 		mla	r3, r0, fp, r3
 1190 00f8 9AA08BE0 		umull	r10, fp, r10, r0
 1191 00fc 0BB083E0 		add	fp, r3, fp
 1192 0100 F3FFFFEA 		b	.L176
 1193              	.L175:
 1194 0104 015084E2 		add	r5, r4, #1
 1195 0108 0180A0E3 		mov	r8, #1
 1196 010c 0090A0E3 		mov	r9, #0
 1197              	.L179:
 1198 0110 070055E1 		cmp	r5, r7
 1199 0114 1C00001A 		bne	.L177
 1200 0118 1000C0F2 		vmov.i32	d16, #0  @ di
 1201 011c 000BCDED 		vstr.64	d16, [sp]	@ int
 1202              	.L178:
 1203 0120 D020CDE1 		ldrd	r2, [sp]
 1204 0124 00609DE5 		ldr	r6, [sp]
 1205 0128 0A0052E1 		cmp	r2, r10
 1206 012c 0B30D3E0 		sbcs	r3, r3, fp
 1207 0130 240000AA 		bge	.L167
 1208 0134 0050A0E3 		mov	r5, #0
 1209              	.L182:
 1210 0138 0C309DE5 		ldr	r3, [sp, #12]
 1211 013c 030055E1 		cmp	r5, r3
 1212 0140 1B0000AA 		bge	.L181
 1213 0144 10309DE5 		ldr	r3, [sp, #16]
 1214 0148 0410A0E1 		mov	r1, r4
 1215 014c 050193E7 		ldr	r0, [r3, r5, lsl #2]
 1216 0150 FEFFFFEB 		bl	_ZNK6tflite12RuntimeShape4DimsEi
 1217 0154 900800E0 		mul	r0, r0, r8
 1218 0158 14309DE5 		ldr	r3, [sp, #20]
 1219 015c 051193E7 		ldr	r1, [r3, r5, lsl #2]
 1220 0160 015085E2 		add	r5, r5, #1
 1221 0164 0071A0E1 		lsl	r7, r0, #2
 1222 0168 960000E0 		mul	r0, r6, r0
 1223 016c 0720A0E1 		mov	r2, r7
 1224 0170 001181E0 		add	r1, r1, r0, lsl #2
 1225 0174 40009DE5 		ldr	r0, [sp, #64]
 1226 0178 FEFFFFEB 		bl	memcpy
 1227 017c 40309DE5 		ldr	r3, [sp, #64]
 1228 0180 073083E0 		add	r3, r3, r7
 1229 0184 40308DE5 		str	r3, [sp, #64]
 1230 0188 EAFFFFEA 		b	.L182
 1231              	.L177:
 1232 018c 0510A0E1 		mov	r1, r5
 1233 0190 0600A0E1 		mov	r0, r6
 1234 0194 FEFFFFEB 		bl	_ZNK6tflite12RuntimeShape4DimsEi
 1235 0198 C03FA0E1 		asr	r3, r0, #31
 1236 019c 015085E2 		add	r5, r5, #1
 1237 01a0 980303E0 		mul	r3, r8, r3
 1238 01a4 903923E0 		mla	r3, r0, r9, r3
 1239 01a8 988089E0 		umull	r8, r9, r8, r0
 1240 01ac 099083E0 		add	r9, r3, r9
 1241 01b0 D6FFFFEA 		b	.L179
 1242              	.L181:
 1243 01b4 D020CDE1 		ldrd	r2, [sp]
 1244 01b8 012092E2 		adds	r2, r2, #1
 1245 01bc 0030A3E2 		adc	r3, r3, #0
 1246 01c0 F020CDE1 		strd	r2, [sp]
 1247 01c4 D5FFFFEA 		b	.L178
 1248              	.L167:
 1249 01c8 1CD08DE2 		add	sp, sp, #28
 1250              		@ sp needed
 1251 01cc F08FBDE8 		pop	{r4, r5, r6, r7, r8, r9, r10, fp, pc}
 1252              		.fnend
 1254              		.section	.text._ZN6tflite3ops5micro13concatenation15EvalUnquantizedIlEEvP13TfLiteContextP10TfLiteN
 1255              		.align	2
 1256              		.weak	_ZN6tflite3ops5micro13concatenation15EvalUnquantizedIlEEvP13TfLiteContextP10TfLiteNode
 1257              		.syntax unified
 1258              		.arm
 1259              		.fpu neon
 1261              	_ZN6tflite3ops5micro13concatenation15EvalUnquantizedIlEEvP13TfLiteContextP10TfLiteNode:
 1262              		.fnstart
 1263              	.LFB6880:
 1264              		@ args = 0, pretend = 0, frame = 328
 1265              		@ frame_needed = 0, uses_anonymous_args = 0
 1266 0000 F0402DE9 		push	{r4, r5, r6, r7, lr}
 1267              		.save {r4, r5, r6, r7, lr}
 1268 0004 0030A0E3 		mov	r3, #0
 1269              		.pad #340
 1270 0008 55DF4DE2 		sub	sp, sp, #340
 1271 000c 0070A0E1 		mov	r7, r0
 1272 0010 0160A0E1 		mov	r6, r1
 1273 0014 88508DE2 		add	r5, sp, #136
 1274 0018 0320A0E1 		mov	r2, r3
 1275              	.L185:
 1276 001c 052083E7 		str	r2, [r3, r5]
 1277 0020 143083E2 		add	r3, r3, #20
 1278 0024 C80053E3 		cmp	r3, #200
 1279 0028 FBFFFF1A 		bne	.L185
 1280 002c 0520A0E1 		mov	r2, r5
 1281 0030 001096E5 		ldr	r1, [r6]
 1282 0034 080087E2 		add	r0, r7, #8
 1283              	.LEHB11:
 1284 0038 FEFFFFEB 		bl	_ZN6tflite3ops5micro13concatenation18GetAllTensorShapesERK13TfLiteContextRK14TfLiteIntArrayPNS_
 1285              	.LEHE11:
 1286 003c 060000EA 		b	.L213
 1287              	.L202:
 1288              	.L212:
 1289 0040 154E8DE2 		add	r4, sp, #336
 1290              	.L208:
 1291 0044 144044E2 		sub	r4, r4, #20
 1292 0048 0400A0E1 		mov	r0, r4
 1293 004c FEFFFFEB 		bl	_ZN6tflite12RuntimeShapeD1Ev
 1294 0050 050054E1 		cmp	r4, r5
 1295 0054 FAFFFF1A 		bne	.L208
 1296              	.LEHB12:
 1297 0058 FEFFFFEB 		bl	__cxa_end_cleanup
 1298              	.LEHE12:
 1299              	.L213:
 1300 005c 003096E5 		ldr	r3, [r6]
 1301 0060 38208DE2 		add	r2, sp, #56
 1302 0064 0500A0E1 		mov	r0, r5
 1303 0068 001093E5 		ldr	r1, [r3]
 1304 006c FEFFFFEB 		bl	_ZN6tflite3ops5micro13concatenation17GetShapesPointersEPKNS_12RuntimeShapeEjPS5_
 1305 0070 002096E5 		ldr	r2, [r6]
 1306 0074 0030A0E3 		mov	r3, #0
 1307 0078 60C08DE2 		add	ip, sp, #96
 1308 007c 041092E4 		ldr	r1, [r2], #4
 1309              	.L191:
 1310 0080 030051E1 		cmp	r1, r3
 1311 0084 084097E5 		ldr	r4, [r7, #8]
 1312 0088 050000DA 		ble	.L189
 1313 008c 040092E4 		ldr	r0, [r2], #4
 1314 0090 004394E0 		adds	r4, r4, r0, lsl #6
 1315 0094 04409415 		ldrne	r4, [r4, #4]
 1316 0098 03418CE7 		str	r4, [ip, r3, lsl #2]
 1317 009c 013083E2 		add	r3, r3, #1
 1318 00a0 F6FFFFEA 		b	.L191
 1319              	.L189:
 1320 00a4 043096E5 		ldr	r3, [r6, #4]
 1321 00a8 0C008DE2 		add	r0, sp, #12
 1322 00ac 043093E5 		ldr	r3, [r3, #4]
 1323 00b0 034384E0 		add	r4, r4, r3, lsl #6
 1324 00b4 143096E5 		ldr	r3, [r6, #20]
 1325 00b8 156E8DE2 		add	r6, sp, #336
 1326 00bc 003093E5 		ldr	r3, [r3]
 1327 00c0 000053E3 		cmp	r3, #0
 1328 00c4 082094B5 		ldrlt	r2, [r4, #8]
 1329 00c8 002092B5 		ldrlt	r2, [r2]
 1330 00cc 023083B0 		addlt	r3, r3, r2
 1331 00d0 303166E5 		strb	r3, [r6, #-304]!
 1332 00d4 BC10C6E1 		strh	r1, [r6, #12]	@ movhi
 1333 00d8 0410A0E1 		mov	r1, r4
 1334              	.LEHB13:
 1335 00dc FEFFFFEB 		bl	_ZN6tflite14GetTensorShapeEPK12TfLiteTensor
 1336              	.LEHE13:
 1337 00e0 000000EA 		b	.L214
 1338              	.L203:
 1339 00e4 D5FFFFEA 		b	.L212
 1340              	.L214:
 1341 00e8 000054E3 		cmp	r4, #0
 1342 00ec 0C308DE2 		add	r3, sp, #12
 1343 00f0 04409415 		ldrne	r4, [r4, #4]
 1344 00f4 60208DE2 		add	r2, sp, #96
 1345 00f8 38108DE2 		add	r1, sp, #56
 1346 00fc 0600A0E1 		mov	r0, r6
 1347 0100 00408DE5 		str	r4, [sp]
 1348              	.LEHB14:
 1349 0104 FEFFFFEB 		bl	_ZN6tflite13reference_ops13ConcatenationIlEEvRKNS_19ConcatenationParamsEPKPKNS_12RuntimeShapeEP
 1350              	.LEHE14:
 1351 0108 154E8DE2 		add	r4, sp, #336
 1352 010c 0C008DE2 		add	r0, sp, #12
 1353 0110 FEFFFFEB 		bl	_ZN6tflite12RuntimeShapeD1Ev
 1354              	.L196:
 1355 0114 144044E2 		sub	r4, r4, #20
 1356 0118 0400A0E1 		mov	r0, r4
 1357 011c FEFFFFEB 		bl	_ZN6tflite12RuntimeShapeD1Ev
 1358 0120 050054E1 		cmp	r4, r5
 1359 0124 FAFFFF1A 		bne	.L196
 1360 0128 55DF8DE2 		add	sp, sp, #340
 1361              		@ sp needed
 1362 012c F080BDE8 		pop	{r4, r5, r6, r7, pc}
 1363              	.L201:
 1364 0130 0C008DE2 		add	r0, sp, #12
 1365 0134 FEFFFFEB 		bl	_ZN6tflite12RuntimeShapeD1Ev
 1366 0138 C0FFFFEA 		b	.L212
 1367              		.personality	__gxx_personality_v0
 1368              		.handlerdata
 1369              	.LLSDA6880:
 1370 0008 FF       		.byte	0xff
 1371 0009 FF       		.byte	0xff
 1372 000a 01       		.byte	0x1
 1373 000b 14       		.uleb128 .LLSDACSE6880-.LLSDACSB6880
 1374              	.LLSDACSB6880:
 1375 000c 38       		.uleb128 .LEHB11-.LFB6880
 1376 000d 04       		.uleb128 .LEHE11-.LEHB11
 1377 000e 40       		.uleb128 .L202-.LFB6880
 1378 000f 00       		.uleb128 0
 1379 0010 58       		.uleb128 .LEHB12-.LFB6880
 1380 0011 04       		.uleb128 .LEHE12-.LEHB12
 1381 0012 00       		.uleb128 0
 1382 0013 00       		.uleb128 0
 1383 0014 DC01     		.uleb128 .LEHB13-.LFB6880
 1384 0016 04       		.uleb128 .LEHE13-.LEHB13
 1385 0017 E401     		.uleb128 .L203-.LFB6880
 1386 0019 00       		.uleb128 0
 1387 001a 8402     		.uleb128 .LEHB14-.LFB6880
 1388 001c 04       		.uleb128 .LEHE14-.LEHB14
 1389 001d B002     		.uleb128 .L201-.LFB6880
 1390 001f 00       		.uleb128 0
 1391              	.LLSDACSE6880:
 1392              		.section	.text._ZN6tflite3ops5micro13concatenation15EvalUnquantizedIlEEvP13TfLiteContextP10TfLiteN
 1393              		.fnend
 1395              		.section	.text._ZN6tflite13reference_ops13ConcatenationIaEEvRKNS_19ConcatenationParamsEPKPKNS_12Ru
 1396              		.align	2
 1397              		.weak	_ZN6tflite13reference_ops13ConcatenationIaEEvRKNS_19ConcatenationParamsEPKPKNS_12RuntimeShap
 1398              		.syntax unified
 1399              		.arm
 1400              		.fpu neon
 1402              	_ZN6tflite13reference_ops13ConcatenationIaEEvRKNS_19ConcatenationParamsEPKPKNS_12RuntimeShapeEPKPKT
 1403              		.fnstart
 1404              	.LFB7182:
 1405              		@ args = 4, pretend = 0, frame = 24
 1406              		@ frame_needed = 0, uses_anonymous_args = 0
 1407 0000 F04F2DE9 		push	{r4, r5, r6, r7, r8, r9, r10, fp, lr}
 1408              		.save {r4, r5, r6, r7, r8, r9, r10, fp, lr}
 1409 0004 0360A0E1 		mov	r6, r3
 1410 0008 D040D0E1 		ldrsb	r4, [r0]
 1411              		.pad #28
 1412 000c 1CD04DE2 		sub	sp, sp, #28
 1413 0010 007096E5 		ldr	r7, [r6]
 1414 0014 BC30D0E1 		ldrh	r3, [r0, #12]
 1415 0018 08108DE5 		str	r1, [sp, #8]
 1416 001c 070054E1 		cmp	r4, r7
 1417 0020 10208DE5 		str	r2, [sp, #16]
 1418 0024 04308DE5 		str	r3, [sp, #4]
 1419 0028 000000BA 		blt	.L216
 1420              	.L218:
 1421 002c FEFFFFEB 		bl	abort
 1422              	.L216:
 1423 0030 08309DE5 		ldr	r3, [sp, #8]
 1424 0034 0080A0E3 		mov	r8, #0
 1425 0038 0090A0E3 		mov	r9, #0
 1426 003c 00B0A0E3 		mov	fp, #0
 1427 0040 04A043E2 		sub	r10, r3, #4
 1428              	.L222:
 1429 0044 04309DE5 		ldr	r3, [sp, #4]
 1430 0048 03005BE1 		cmp	fp, r3
 1431 004c 160000AA 		bge	.L217
 1432 0050 0430BAE5 		ldr	r3, [r10, #4]!
 1433 0054 003093E5 		ldr	r3, [r3]
 1434 0058 030057E1 		cmp	r7, r3
 1435 005c F2FFFF1A 		bne	.L218
 1436 0060 0050A0E3 		mov	r5, #0
 1437              	.L221:
 1438 0064 070055E1 		cmp	r5, r7
 1439 0068 080000AA 		bge	.L219
 1440 006c 040055E1 		cmp	r5, r4
 1441 0070 0400000A 		beq	.L220
 1442 0074 0530A0E1 		mov	r3, r5
 1443 0078 0620A0E1 		mov	r2, r6
 1444 007c 0510A0E1 		mov	r1, r5
 1445 0080 00009AE5 		ldr	r0, [r10]
 1446 0084 FEFFFFEB 		bl	_ZN6tflite11MatchingDimERKNS_12RuntimeShapeEiS2_i
 1447              	.L220:
 1448 0088 015085E2 		add	r5, r5, #1
 1449 008c F4FFFFEA 		b	.L221
 1450              	.L219:
 1451 0090 0410A0E1 		mov	r1, r4
 1452 0094 00009AE5 		ldr	r0, [r10]
 1453 0098 FEFFFFEB 		bl	_ZNK6tflite12RuntimeShape4DimsEi
 1454 009c 008098E0 		adds	r8, r8, r0
 1455 00a0 01B08BE2 		add	fp, fp, #1
 1456 00a4 C09FA9E0 		adc	r9, r9, r0, asr #31
 1457 00a8 E5FFFFEA 		b	.L222
 1458              	.L217:
 1459 00ac 0410A0E1 		mov	r1, r4
 1460 00b0 0600A0E1 		mov	r0, r6
 1461 00b4 FEFFFFEB 		bl	_ZNK6tflite12RuntimeShape4DimsEi
 1462 00b8 C01FA0E1 		asr	r1, r0, #31
 1463 00bc 090051E1 		cmp	r1, r9
 1464 00c0 08005001 		cmpeq	r0, r8
 1465 00c4 D8FFFF1A 		bne	.L218
 1466 00c8 0050A0E3 		mov	r5, #0
 1467 00cc 0180A0E3 		mov	r8, #1
 1468 00d0 0090A0E3 		mov	r9, #0
 1469              	.L224:
 1470 00d4 040055E1 		cmp	r5, r4
 1471 00d8 090000AA 		bge	.L223
 1472 00dc 0510A0E1 		mov	r1, r5
 1473 00e0 0600A0E1 		mov	r0, r6
 1474 00e4 FEFFFFEB 		bl	_ZNK6tflite12RuntimeShape4DimsEi
 1475 00e8 C03FA0E1 		asr	r3, r0, #31
 1476 00ec 015085E2 		add	r5, r5, #1
 1477 00f0 980303E0 		mul	r3, r8, r3
 1478 00f4 903923E0 		mla	r3, r0, r9, r3
 1479 00f8 988089E0 		umull	r8, r9, r8, r0
 1480 00fc 099083E0 		add	r9, r3, r9
 1481 0100 F3FFFFEA 		b	.L224
 1482              	.L223:
 1483 0104 015084E2 		add	r5, r4, #1
 1484 0108 01A0A0E3 		mov	r10, #1
 1485 010c 00B0A0E3 		mov	fp, #0
 1486              	.L227:
 1487 0110 070055E1 		cmp	r5, r7
 1488 0114 1C00001A 		bne	.L225
 1489 0118 0060A0E3 		mov	r6, #0
 1490 011c 0070A0E3 		mov	r7, #0
 1491              	.L226:
 1492 0120 080056E1 		cmp	r6, r8
 1493 0124 0C608DE5 		str	r6, [sp, #12]
 1494 0128 0930D7E0 		sbcs	r3, r7, r9
 1495 012c 230000AA 		bge	.L215
 1496 0130 0050A0E3 		mov	r5, #0
 1497              	.L230:
 1498 0134 04309DE5 		ldr	r3, [sp, #4]
 1499 0138 030055E1 		cmp	r5, r3
 1500 013c 1C0000AA 		bge	.L229
 1501 0140 08309DE5 		ldr	r3, [sp, #8]
 1502 0144 0410A0E1 		mov	r1, r4
 1503 0148 050193E7 		ldr	r0, [r3, r5, lsl #2]
 1504 014c FEFFFFEB 		bl	_ZNK6tflite12RuntimeShape4DimsEi
 1505 0150 10209DE5 		ldr	r2, [sp, #16]
 1506 0154 900A03E0 		mul	r3, r0, r10
 1507 0158 0C009DE5 		ldr	r0, [sp, #12]
 1508 015c 051192E7 		ldr	r1, [r2, r5, lsl #2]
 1509 0160 015085E2 		add	r5, r5, #1
 1510 0164 0320A0E1 		mov	r2, r3
 1511 0168 14308DE5 		str	r3, [sp, #20]
 1512 016c 901321E0 		mla	r1, r0, r3, r1
 1513 0170 40009DE5 		ldr	r0, [sp, #64]
 1514 0174 FEFFFFEB 		bl	memcpy
 1515 0178 40209DE5 		ldr	r2, [sp, #64]
 1516 017c 14309DE5 		ldr	r3, [sp, #20]
 1517 0180 033082E0 		add	r3, r2, r3
 1518 0184 40308DE5 		str	r3, [sp, #64]
 1519 0188 E9FFFFEA 		b	.L230
 1520              	.L225:
 1521 018c 0510A0E1 		mov	r1, r5
 1522 0190 0600A0E1 		mov	r0, r6
 1523 0194 FEFFFFEB 		bl	_ZNK6tflite12RuntimeShape4DimsEi
 1524 0198 C03FA0E1 		asr	r3, r0, #31
 1525 019c 015085E2 		add	r5, r5, #1
 1526 01a0 9A0303E0 		mul	r3, r10, r3
 1527 01a4 903B23E0 		mla	r3, r0, fp, r3
 1528 01a8 9AA08BE0 		umull	r10, fp, r10, r0
 1529 01ac 0BB083E0 		add	fp, r3, fp
 1530 01b0 D6FFFFEA 		b	.L227
 1531              	.L229:
 1532 01b4 016096E2 		adds	r6, r6, #1
 1533 01b8 0070A7E2 		adc	r7, r7, #0
 1534 01bc D7FFFFEA 		b	.L226
 1535              	.L215:
 1536 01c0 1CD08DE2 		add	sp, sp, #28
 1537              		@ sp needed
 1538 01c4 F08FBDE8 		pop	{r4, r5, r6, r7, r8, r9, r10, fp, pc}
 1539              		.fnend
 1541              		.section	.text._ZN6tflite3ops5micro13concatenation15EvalUnquantizedIaEEvP13TfLiteContextP10TfLiteN
 1542              		.align	2
 1543              		.weak	_ZN6tflite3ops5micro13concatenation15EvalUnquantizedIaEEvP13TfLiteContextP10TfLiteNode
 1544              		.syntax unified
 1545              		.arm
 1546              		.fpu neon
 1548              	_ZN6tflite3ops5micro13concatenation15EvalUnquantizedIaEEvP13TfLiteContextP10TfLiteNode:
 1549              		.fnstart
 1550              	.LFB6881:
 1551              		@ args = 0, pretend = 0, frame = 328
 1552              		@ frame_needed = 0, uses_anonymous_args = 0
 1553 0000 F0402DE9 		push	{r4, r5, r6, r7, lr}
 1554              		.save {r4, r5, r6, r7, lr}
 1555 0004 0030A0E3 		mov	r3, #0
 1556              		.pad #340
 1557 0008 55DF4DE2 		sub	sp, sp, #340
 1558 000c 0070A0E1 		mov	r7, r0
 1559 0010 0160A0E1 		mov	r6, r1
 1560 0014 88508DE2 		add	r5, sp, #136
 1561 0018 0320A0E1 		mov	r2, r3
 1562              	.L233:
 1563 001c 052083E7 		str	r2, [r3, r5]
 1564 0020 143083E2 		add	r3, r3, #20
 1565 0024 C80053E3 		cmp	r3, #200
 1566 0028 FBFFFF1A 		bne	.L233
 1567 002c 0520A0E1 		mov	r2, r5
 1568 0030 001096E5 		ldr	r1, [r6]
 1569 0034 080087E2 		add	r0, r7, #8
 1570              	.LEHB15:
 1571 0038 FEFFFFEB 		bl	_ZN6tflite3ops5micro13concatenation18GetAllTensorShapesERK13TfLiteContextRK14TfLiteIntArrayPNS_
 1572              	.LEHE15:
 1573 003c 060000EA 		b	.L261
 1574              	.L250:
 1575              	.L260:
 1576 0040 154E8DE2 		add	r4, sp, #336
 1577              	.L256:
 1578 0044 144044E2 		sub	r4, r4, #20
 1579 0048 0400A0E1 		mov	r0, r4
 1580 004c FEFFFFEB 		bl	_ZN6tflite12RuntimeShapeD1Ev
 1581 0050 050054E1 		cmp	r4, r5
 1582 0054 FAFFFF1A 		bne	.L256
 1583              	.LEHB16:
 1584 0058 FEFFFFEB 		bl	__cxa_end_cleanup
 1585              	.LEHE16:
 1586              	.L261:
 1587 005c 003096E5 		ldr	r3, [r6]
 1588 0060 38208DE2 		add	r2, sp, #56
 1589 0064 0500A0E1 		mov	r0, r5
 1590 0068 001093E5 		ldr	r1, [r3]
 1591 006c FEFFFFEB 		bl	_ZN6tflite3ops5micro13concatenation17GetShapesPointersEPKNS_12RuntimeShapeEjPS5_
 1592 0070 002096E5 		ldr	r2, [r6]
 1593 0074 0030A0E3 		mov	r3, #0
 1594 0078 60C08DE2 		add	ip, sp, #96
 1595 007c 041092E4 		ldr	r1, [r2], #4
 1596              	.L239:
 1597 0080 030051E1 		cmp	r1, r3
 1598 0084 084097E5 		ldr	r4, [r7, #8]
 1599 0088 050000DA 		ble	.L237
 1600 008c 040092E4 		ldr	r0, [r2], #4
 1601 0090 004394E0 		adds	r4, r4, r0, lsl #6
 1602 0094 04409415 		ldrne	r4, [r4, #4]
 1603 0098 03418CE7 		str	r4, [ip, r3, lsl #2]
 1604 009c 013083E2 		add	r3, r3, #1
 1605 00a0 F6FFFFEA 		b	.L239
 1606              	.L237:
 1607 00a4 043096E5 		ldr	r3, [r6, #4]
 1608 00a8 0C008DE2 		add	r0, sp, #12
 1609 00ac 043093E5 		ldr	r3, [r3, #4]
 1610 00b0 034384E0 		add	r4, r4, r3, lsl #6
 1611 00b4 143096E5 		ldr	r3, [r6, #20]
 1612 00b8 156E8DE2 		add	r6, sp, #336
 1613 00bc 003093E5 		ldr	r3, [r3]
 1614 00c0 000053E3 		cmp	r3, #0
 1615 00c4 082094B5 		ldrlt	r2, [r4, #8]
 1616 00c8 002092B5 		ldrlt	r2, [r2]
 1617 00cc 023083B0 		addlt	r3, r3, r2
 1618 00d0 303166E5 		strb	r3, [r6, #-304]!
 1619 00d4 BC10C6E1 		strh	r1, [r6, #12]	@ movhi
 1620 00d8 0410A0E1 		mov	r1, r4
 1621              	.LEHB17:
 1622 00dc FEFFFFEB 		bl	_ZN6tflite14GetTensorShapeEPK12TfLiteTensor
 1623              	.LEHE17:
 1624 00e0 000000EA 		b	.L262
 1625              	.L251:
 1626 00e4 D5FFFFEA 		b	.L260
 1627              	.L262:
 1628 00e8 000054E3 		cmp	r4, #0
 1629 00ec 0C308DE2 		add	r3, sp, #12
 1630 00f0 04409415 		ldrne	r4, [r4, #4]
 1631 00f4 60208DE2 		add	r2, sp, #96
 1632 00f8 38108DE2 		add	r1, sp, #56
 1633 00fc 0600A0E1 		mov	r0, r6
 1634 0100 00408DE5 		str	r4, [sp]
 1635              	.LEHB18:
 1636 0104 FEFFFFEB 		bl	_ZN6tflite13reference_ops13ConcatenationIaEEvRKNS_19ConcatenationParamsEPKPKNS_12RuntimeShapeEP
 1637              	.LEHE18:
 1638 0108 154E8DE2 		add	r4, sp, #336
 1639 010c 0C008DE2 		add	r0, sp, #12
 1640 0110 FEFFFFEB 		bl	_ZN6tflite12RuntimeShapeD1Ev
 1641              	.L244:
 1642 0114 144044E2 		sub	r4, r4, #20
 1643 0118 0400A0E1 		mov	r0, r4
 1644 011c FEFFFFEB 		bl	_ZN6tflite12RuntimeShapeD1Ev
 1645 0120 050054E1 		cmp	r4, r5
 1646 0124 FAFFFF1A 		bne	.L244
 1647 0128 55DF8DE2 		add	sp, sp, #340
 1648              		@ sp needed
 1649 012c F080BDE8 		pop	{r4, r5, r6, r7, pc}
 1650              	.L249:
 1651 0130 0C008DE2 		add	r0, sp, #12
 1652 0134 FEFFFFEB 		bl	_ZN6tflite12RuntimeShapeD1Ev
 1653 0138 C0FFFFEA 		b	.L260
 1654              		.personality	__gxx_personality_v0
 1655              		.handlerdata
 1656              	.LLSDA6881:
 1657 0008 FF       		.byte	0xff
 1658 0009 FF       		.byte	0xff
 1659 000a 01       		.byte	0x1
 1660 000b 14       		.uleb128 .LLSDACSE6881-.LLSDACSB6881
 1661              	.LLSDACSB6881:
 1662 000c 38       		.uleb128 .LEHB15-.LFB6881
 1663 000d 04       		.uleb128 .LEHE15-.LEHB15
 1664 000e 40       		.uleb128 .L250-.LFB6881
 1665 000f 00       		.uleb128 0
 1666 0010 58       		.uleb128 .LEHB16-.LFB6881
 1667 0011 04       		.uleb128 .LEHE16-.LEHB16
 1668 0012 00       		.uleb128 0
 1669 0013 00       		.uleb128 0
 1670 0014 DC01     		.uleb128 .LEHB17-.LFB6881
 1671 0016 04       		.uleb128 .LEHE17-.LEHB17
 1672 0017 E401     		.uleb128 .L251-.LFB6881
 1673 0019 00       		.uleb128 0
 1674 001a 8402     		.uleb128 .LEHB18-.LFB6881
 1675 001c 04       		.uleb128 .LEHE18-.LEHB18
 1676 001d B002     		.uleb128 .L249-.LFB6881
 1677 001f 00       		.uleb128 0
 1678              	.LLSDACSE6881:
 1679              		.section	.text._ZN6tflite3ops5micro13concatenation15EvalUnquantizedIaEEvP13TfLiteContextP10TfLiteN
 1680              		.fnend
 1682              		.section	.text._ZN6tflite13reference_ops13ConcatenationIxEEvRKNS_19ConcatenationParamsEPKPKNS_12Ru
 1683              		.align	2
 1684              		.weak	_ZN6tflite13reference_ops13ConcatenationIxEEvRKNS_19ConcatenationParamsEPKPKNS_12RuntimeShap
 1685              		.syntax unified
 1686              		.arm
 1687              		.fpu neon
 1689              	_ZN6tflite13reference_ops13ConcatenationIxEEvRKNS_19ConcatenationParamsEPKPKNS_12RuntimeShapeEPKPKT
 1690              		.fnstart
 1691              	.LFB7185:
 1692              		@ args = 4, pretend = 0, frame = 24
 1693              		@ frame_needed = 0, uses_anonymous_args = 0
 1694 0000 F04F2DE9 		push	{r4, r5, r6, r7, r8, r9, r10, fp, lr}
 1695              		.save {r4, r5, r6, r7, r8, r9, r10, fp, lr}
 1696 0004 0360A0E1 		mov	r6, r3
 1697 0008 D040D0E1 		ldrsb	r4, [r0]
 1698              		.pad #28
 1699 000c 1CD04DE2 		sub	sp, sp, #28
 1700 0010 007096E5 		ldr	r7, [r6]
 1701 0014 BC30D0E1 		ldrh	r3, [r0, #12]
 1702 0018 10108DE5 		str	r1, [sp, #16]
 1703 001c 070054E1 		cmp	r4, r7
 1704 0020 14208DE5 		str	r2, [sp, #20]
 1705 0024 0C308DE5 		str	r3, [sp, #12]
 1706 0028 000000BA 		blt	.L264
 1707              	.L266:
 1708 002c FEFFFFEB 		bl	abort
 1709              	.L264:
 1710 0030 10309DE5 		ldr	r3, [sp, #16]
 1711 0034 0080A0E3 		mov	r8, #0
 1712 0038 0090A0E3 		mov	r9, #0
 1713 003c 00B0A0E3 		mov	fp, #0
 1714 0040 04A043E2 		sub	r10, r3, #4
 1715              	.L270:
 1716 0044 0C309DE5 		ldr	r3, [sp, #12]
 1717 0048 03005BE1 		cmp	fp, r3
 1718 004c 160000AA 		bge	.L265
 1719 0050 0430BAE5 		ldr	r3, [r10, #4]!
 1720 0054 003093E5 		ldr	r3, [r3]
 1721 0058 030057E1 		cmp	r7, r3
 1722 005c F2FFFF1A 		bne	.L266
 1723 0060 0050A0E3 		mov	r5, #0
 1724              	.L269:
 1725 0064 070055E1 		cmp	r5, r7
 1726 0068 080000AA 		bge	.L267
 1727 006c 040055E1 		cmp	r5, r4
 1728 0070 0400000A 		beq	.L268
 1729 0074 0530A0E1 		mov	r3, r5
 1730 0078 0620A0E1 		mov	r2, r6
 1731 007c 0510A0E1 		mov	r1, r5
 1732 0080 00009AE5 		ldr	r0, [r10]
 1733 0084 FEFFFFEB 		bl	_ZN6tflite11MatchingDimERKNS_12RuntimeShapeEiS2_i
 1734              	.L268:
 1735 0088 015085E2 		add	r5, r5, #1
 1736 008c F4FFFFEA 		b	.L269
 1737              	.L267:
 1738 0090 0410A0E1 		mov	r1, r4
 1739 0094 00009AE5 		ldr	r0, [r10]
 1740 0098 FEFFFFEB 		bl	_ZNK6tflite12RuntimeShape4DimsEi
 1741 009c 008098E0 		adds	r8, r8, r0
 1742 00a0 01B08BE2 		add	fp, fp, #1
 1743 00a4 C09FA9E0 		adc	r9, r9, r0, asr #31
 1744 00a8 E5FFFFEA 		b	.L270
 1745              	.L265:
 1746 00ac 0410A0E1 		mov	r1, r4
 1747 00b0 0600A0E1 		mov	r0, r6
 1748 00b4 FEFFFFEB 		bl	_ZNK6tflite12RuntimeShape4DimsEi
 1749 00b8 C01FA0E1 		asr	r1, r0, #31
 1750 00bc 090051E1 		cmp	r1, r9
 1751 00c0 08005001 		cmpeq	r0, r8
 1752 00c4 D8FFFF1A 		bne	.L266
 1753 00c8 0050A0E3 		mov	r5, #0
 1754 00cc 01A0A0E3 		mov	r10, #1
 1755 00d0 00B0A0E3 		mov	fp, #0
 1756              	.L272:
 1757 00d4 040055E1 		cmp	r5, r4
 1758 00d8 090000AA 		bge	.L271
 1759 00dc 0510A0E1 		mov	r1, r5
 1760 00e0 0600A0E1 		mov	r0, r6
 1761 00e4 FEFFFFEB 		bl	_ZNK6tflite12RuntimeShape4DimsEi
 1762 00e8 C03FA0E1 		asr	r3, r0, #31
 1763 00ec 015085E2 		add	r5, r5, #1
 1764 00f0 9A0303E0 		mul	r3, r10, r3
 1765 00f4 903B23E0 		mla	r3, r0, fp, r3
 1766 00f8 9AA08BE0 		umull	r10, fp, r10, r0
 1767 00fc 0BB083E0 		add	fp, r3, fp
 1768 0100 F3FFFFEA 		b	.L272
 1769              	.L271:
 1770 0104 015084E2 		add	r5, r4, #1
 1771 0108 0180A0E3 		mov	r8, #1
 1772 010c 0090A0E3 		mov	r9, #0
 1773              	.L275:
 1774 0110 070055E1 		cmp	r5, r7
 1775 0114 1C00001A 		bne	.L273
 1776 0118 1000C0F2 		vmov.i32	d16, #0  @ di
 1777 011c 000BCDED 		vstr.64	d16, [sp]	@ int
 1778              	.L274:
 1779 0120 D020CDE1 		ldrd	r2, [sp]
 1780 0124 00609DE5 		ldr	r6, [sp]
 1781 0128 0A0052E1 		cmp	r2, r10
 1782 012c 0B30D3E0 		sbcs	r3, r3, fp
 1783 0130 240000AA 		bge	.L263
 1784 0134 0050A0E3 		mov	r5, #0
 1785              	.L278:
 1786 0138 0C309DE5 		ldr	r3, [sp, #12]
 1787 013c 030055E1 		cmp	r5, r3
 1788 0140 1B0000AA 		bge	.L277
 1789 0144 10309DE5 		ldr	r3, [sp, #16]
 1790 0148 0410A0E1 		mov	r1, r4
 1791 014c 050193E7 		ldr	r0, [r3, r5, lsl #2]
 1792 0150 FEFFFFEB 		bl	_ZNK6tflite12RuntimeShape4DimsEi
 1793 0154 900800E0 		mul	r0, r0, r8
 1794 0158 14309DE5 		ldr	r3, [sp, #20]
 1795 015c 051193E7 		ldr	r1, [r3, r5, lsl #2]
 1796 0160 015085E2 		add	r5, r5, #1
 1797 0164 8071A0E1 		lsl	r7, r0, #3
 1798 0168 960000E0 		mul	r0, r6, r0
 1799 016c 0720A0E1 		mov	r2, r7
 1800 0170 801181E0 		add	r1, r1, r0, lsl #3
 1801 0174 40009DE5 		ldr	r0, [sp, #64]
 1802 0178 FEFFFFEB 		bl	memcpy
 1803 017c 40309DE5 		ldr	r3, [sp, #64]
 1804 0180 073083E0 		add	r3, r3, r7
 1805 0184 40308DE5 		str	r3, [sp, #64]
 1806 0188 EAFFFFEA 		b	.L278
 1807              	.L273:
 1808 018c 0510A0E1 		mov	r1, r5
 1809 0190 0600A0E1 		mov	r0, r6
 1810 0194 FEFFFFEB 		bl	_ZNK6tflite12RuntimeShape4DimsEi
 1811 0198 C03FA0E1 		asr	r3, r0, #31
 1812 019c 015085E2 		add	r5, r5, #1
 1813 01a0 980303E0 		mul	r3, r8, r3
 1814 01a4 903923E0 		mla	r3, r0, r9, r3
 1815 01a8 988089E0 		umull	r8, r9, r8, r0
 1816 01ac 099083E0 		add	r9, r3, r9
 1817 01b0 D6FFFFEA 		b	.L275
 1818              	.L277:
 1819 01b4 D020CDE1 		ldrd	r2, [sp]
 1820 01b8 012092E2 		adds	r2, r2, #1
 1821 01bc 0030A3E2 		adc	r3, r3, #0
 1822 01c0 F020CDE1 		strd	r2, [sp]
 1823 01c4 D5FFFFEA 		b	.L274
 1824              	.L263:
 1825 01c8 1CD08DE2 		add	sp, sp, #28
 1826              		@ sp needed
 1827 01cc F08FBDE8 		pop	{r4, r5, r6, r7, r8, r9, r10, fp, pc}
 1828              		.fnend
 1830              		.section	.text._ZN6tflite3ops5micro13concatenation15EvalUnquantizedIxEEvP13TfLiteContextP10TfLiteN
 1831              		.align	2
 1832              		.weak	_ZN6tflite3ops5micro13concatenation15EvalUnquantizedIxEEvP13TfLiteContextP10TfLiteNode
 1833              		.syntax unified
 1834              		.arm
 1835              		.fpu neon
 1837              	_ZN6tflite3ops5micro13concatenation15EvalUnquantizedIxEEvP13TfLiteContextP10TfLiteNode:
 1838              		.fnstart
 1839              	.LFB6882:
 1840              		@ args = 0, pretend = 0, frame = 328
 1841              		@ frame_needed = 0, uses_anonymous_args = 0
 1842 0000 F0402DE9 		push	{r4, r5, r6, r7, lr}
 1843              		.save {r4, r5, r6, r7, lr}
 1844 0004 0030A0E3 		mov	r3, #0
 1845              		.pad #340
 1846 0008 55DF4DE2 		sub	sp, sp, #340
 1847 000c 0070A0E1 		mov	r7, r0
 1848 0010 0160A0E1 		mov	r6, r1
 1849 0014 88508DE2 		add	r5, sp, #136
 1850 0018 0320A0E1 		mov	r2, r3
 1851              	.L281:
 1852 001c 052083E7 		str	r2, [r3, r5]
 1853 0020 143083E2 		add	r3, r3, #20
 1854 0024 C80053E3 		cmp	r3, #200
 1855 0028 FBFFFF1A 		bne	.L281
 1856 002c 0520A0E1 		mov	r2, r5
 1857 0030 001096E5 		ldr	r1, [r6]
 1858 0034 080087E2 		add	r0, r7, #8
 1859              	.LEHB19:
 1860 0038 FEFFFFEB 		bl	_ZN6tflite3ops5micro13concatenation18GetAllTensorShapesERK13TfLiteContextRK14TfLiteIntArrayPNS_
 1861              	.LEHE19:
 1862 003c 060000EA 		b	.L309
 1863              	.L298:
 1864              	.L308:
 1865 0040 154E8DE2 		add	r4, sp, #336
 1866              	.L304:
 1867 0044 144044E2 		sub	r4, r4, #20
 1868 0048 0400A0E1 		mov	r0, r4
 1869 004c FEFFFFEB 		bl	_ZN6tflite12RuntimeShapeD1Ev
 1870 0050 050054E1 		cmp	r4, r5
 1871 0054 FAFFFF1A 		bne	.L304
 1872              	.LEHB20:
 1873 0058 FEFFFFEB 		bl	__cxa_end_cleanup
 1874              	.LEHE20:
 1875              	.L309:
 1876 005c 003096E5 		ldr	r3, [r6]
 1877 0060 38208DE2 		add	r2, sp, #56
 1878 0064 0500A0E1 		mov	r0, r5
 1879 0068 001093E5 		ldr	r1, [r3]
 1880 006c FEFFFFEB 		bl	_ZN6tflite3ops5micro13concatenation17GetShapesPointersEPKNS_12RuntimeShapeEjPS5_
 1881 0070 002096E5 		ldr	r2, [r6]
 1882 0074 0030A0E3 		mov	r3, #0
 1883 0078 60C08DE2 		add	ip, sp, #96
 1884 007c 041092E4 		ldr	r1, [r2], #4
 1885              	.L287:
 1886 0080 030051E1 		cmp	r1, r3
 1887 0084 084097E5 		ldr	r4, [r7, #8]
 1888 0088 050000DA 		ble	.L285
 1889 008c 040092E4 		ldr	r0, [r2], #4
 1890 0090 004394E0 		adds	r4, r4, r0, lsl #6
 1891 0094 04409415 		ldrne	r4, [r4, #4]
 1892 0098 03418CE7 		str	r4, [ip, r3, lsl #2]
 1893 009c 013083E2 		add	r3, r3, #1
 1894 00a0 F6FFFFEA 		b	.L287
 1895              	.L285:
 1896 00a4 043096E5 		ldr	r3, [r6, #4]
 1897 00a8 0C008DE2 		add	r0, sp, #12
 1898 00ac 043093E5 		ldr	r3, [r3, #4]
 1899 00b0 034384E0 		add	r4, r4, r3, lsl #6
 1900 00b4 143096E5 		ldr	r3, [r6, #20]
 1901 00b8 156E8DE2 		add	r6, sp, #336
 1902 00bc 003093E5 		ldr	r3, [r3]
 1903 00c0 000053E3 		cmp	r3, #0
 1904 00c4 082094B5 		ldrlt	r2, [r4, #8]
 1905 00c8 002092B5 		ldrlt	r2, [r2]
 1906 00cc 023083B0 		addlt	r3, r3, r2
 1907 00d0 303166E5 		strb	r3, [r6, #-304]!
 1908 00d4 BC10C6E1 		strh	r1, [r6, #12]	@ movhi
 1909 00d8 0410A0E1 		mov	r1, r4
 1910              	.LEHB21:
 1911 00dc FEFFFFEB 		bl	_ZN6tflite14GetTensorShapeEPK12TfLiteTensor
 1912              	.LEHE21:
 1913 00e0 000000EA 		b	.L310
 1914              	.L299:
 1915 00e4 D5FFFFEA 		b	.L308
 1916              	.L310:
 1917 00e8 000054E3 		cmp	r4, #0
 1918 00ec 0C308DE2 		add	r3, sp, #12
 1919 00f0 04409415 		ldrne	r4, [r4, #4]
 1920 00f4 60208DE2 		add	r2, sp, #96
 1921 00f8 38108DE2 		add	r1, sp, #56
 1922 00fc 0600A0E1 		mov	r0, r6
 1923 0100 00408DE5 		str	r4, [sp]
 1924              	.LEHB22:
 1925 0104 FEFFFFEB 		bl	_ZN6tflite13reference_ops13ConcatenationIxEEvRKNS_19ConcatenationParamsEPKPKNS_12RuntimeShapeEP
 1926              	.LEHE22:
 1927 0108 154E8DE2 		add	r4, sp, #336
 1928 010c 0C008DE2 		add	r0, sp, #12
 1929 0110 FEFFFFEB 		bl	_ZN6tflite12RuntimeShapeD1Ev
 1930              	.L292:
 1931 0114 144044E2 		sub	r4, r4, #20
 1932 0118 0400A0E1 		mov	r0, r4
 1933 011c FEFFFFEB 		bl	_ZN6tflite12RuntimeShapeD1Ev
 1934 0120 050054E1 		cmp	r4, r5
 1935 0124 FAFFFF1A 		bne	.L292
 1936 0128 55DF8DE2 		add	sp, sp, #340
 1937              		@ sp needed
 1938 012c F080BDE8 		pop	{r4, r5, r6, r7, pc}
 1939              	.L297:
 1940 0130 0C008DE2 		add	r0, sp, #12
 1941 0134 FEFFFFEB 		bl	_ZN6tflite12RuntimeShapeD1Ev
 1942 0138 C0FFFFEA 		b	.L308
 1943              		.personality	__gxx_personality_v0
 1944              		.handlerdata
 1945              	.LLSDA6882:
 1946 0008 FF       		.byte	0xff
 1947 0009 FF       		.byte	0xff
 1948 000a 01       		.byte	0x1
 1949 000b 14       		.uleb128 .LLSDACSE6882-.LLSDACSB6882
 1950              	.LLSDACSB6882:
 1951 000c 38       		.uleb128 .LEHB19-.LFB6882
 1952 000d 04       		.uleb128 .LEHE19-.LEHB19
 1953 000e 40       		.uleb128 .L298-.LFB6882
 1954 000f 00       		.uleb128 0
 1955 0010 58       		.uleb128 .LEHB20-.LFB6882
 1956 0011 04       		.uleb128 .LEHE20-.LEHB20
 1957 0012 00       		.uleb128 0
 1958 0013 00       		.uleb128 0
 1959 0014 DC01     		.uleb128 .LEHB21-.LFB6882
 1960 0016 04       		.uleb128 .LEHE21-.LEHB21
 1961 0017 E401     		.uleb128 .L299-.LFB6882
 1962 0019 00       		.uleb128 0
 1963 001a 8402     		.uleb128 .LEHB22-.LFB6882
 1964 001c 04       		.uleb128 .LEHE22-.LEHB22
 1965 001d B002     		.uleb128 .L297-.LFB6882
 1966 001f 00       		.uleb128 0
 1967              	.LLSDACSE6882:
 1968              		.section	.text._ZN6tflite3ops5micro13concatenation15EvalUnquantizedIxEEvP13TfLiteContextP10TfLiteN
 1969              		.fnend
 1971              		.section	.text._ZN6tflite3ops5micro13concatenation4EvalEP13TfLiteContextP10TfLiteNode,"ax",%progbi
 1972              		.align	2
 1973              		.global	_ZN6tflite3ops5micro13concatenation4EvalEP13TfLiteContextP10TfLiteNode
 1974              		.syntax unified
 1975              		.arm
 1976              		.fpu neon
 1978              	_ZN6tflite3ops5micro13concatenation4EvalEP13TfLiteContextP10TfLiteNode:
 1979              		.fnstart
 1980              	.LFB6490:
 1981              		@ args = 0, pretend = 0, frame = 0
 1982              		@ frame_needed = 0, uses_anonymous_args = 0
 1983 0000 043091E5 		ldr	r3, [r1, #4]
 1984 0004 70402DE9 		push	{r4, r5, r6, lr}
 1985              		.save {r4, r5, r6, lr}
 1986 0008 0040A0E1 		mov	r4, r0
 1987 000c 042093E5 		ldr	r2, [r3, #4]
 1988 0010 083090E5 		ldr	r3, [r0, #8]
 1989 0014 0203D3E7 		ldrb	r0, [r3, r2, lsl #6]	@ zero_extendqisi2
 1990 0018 013040E2 		sub	r3, r0, #1
 1991 001c 080053E3 		cmp	r3, #8
 1992 0020 03F19F97 		ldrls	pc, [pc, r3, asl #2]
 1993 0024 180000EA 		b	.L312
 1994              	.L314:
 1995 0028 4C000000 		.word	.L313
 1996 002c 5C000000 		.word	.L315
 1997 0030 68000000 		.word	.L316
 1998 0034 80000000 		.word	.L317
 1999 0038 8C000000 		.word	.L312
 2000 003c 8C000000 		.word	.L312
 2001 0040 8C000000 		.word	.L312
 2002 0044 8C000000 		.word	.L312
 2003 0048 74000000 		.word	.L318
 2004              	.L313:
 2005 004c 0400A0E1 		mov	r0, r4
 2006 0050 FEFFFFEB 		bl	_ZN6tflite3ops5micro13concatenation15EvalUnquantizedIfEEvP13TfLiteContextP10TfLiteNode
 2007              	.L321:
 2008 0054 0000A0E3 		mov	r0, #0
 2009 0058 7080BDE8 		pop	{r4, r5, r6, pc}
 2010              	.L315:
 2011 005c 0400A0E1 		mov	r0, r4
 2012 0060 FEFFFFEB 		bl	_ZN6tflite3ops5micro13concatenation15EvalUnquantizedIlEEvP13TfLiteContextP10TfLiteNode
 2013 0064 FAFFFFEA 		b	.L321
 2014              	.L316:
 2015 0068 0400A0E1 		mov	r0, r4
 2016 006c FEFFFFEB 		bl	_ZN6tflite3ops5micro13concatenation18EvalQuantizedUInt8EP13TfLiteContextP10TfLiteNode
 2017 0070 F7FFFFEA 		b	.L321
 2018              	.L318:
 2019 0074 0400A0E1 		mov	r0, r4
 2020 0078 FEFFFFEB 		bl	_ZN6tflite3ops5micro13concatenation15EvalUnquantizedIaEEvP13TfLiteContextP10TfLiteNode
 2021 007c F4FFFFEA 		b	.L321
 2022              	.L317:
 2023 0080 0400A0E1 		mov	r0, r4
 2024 0084 FEFFFFEB 		bl	_ZN6tflite3ops5micro13concatenation15EvalUnquantizedIxEEvP13TfLiteContextP10TfLiteNode
 2025 0088 F1FFFFEA 		b	.L321
 2026              	.L312:
 2027 008c 145094E5 		ldr	r5, [r4, #20]
 2028 0090 FEFFFFEB 		bl	TfLiteTypeGetName
 2029 0094 10109FE5 		ldr	r1, .L322
 2030 0098 0020A0E1 		mov	r2, r0
 2031 009c 0400A0E1 		mov	r0, r4
 2032 00a0 35FF2FE1 		blx	r5
 2033 00a4 0100A0E3 		mov	r0, #1
 2034 00a8 7080BDE8 		pop	{r4, r5, r6, pc}
 2035              	.L323:
 2036              		.align	2
 2037              	.L322:
 2038 00ac 00000000 		.word	.LC10
 2039              		.fnend
 2041              		.weak	_ZN11flatbuffers25flatbuffer_version_stringE
 2042              		.section	.bss._ZZN6tflite3ops5micro22Register_CONCATENATIONEvE1r,"aw",%nobits
 2043              		.align	2
 2044              		.set	.LANCHOR0,. + 0
 2047              	_ZZN6tflite3ops5micro22Register_CONCATENATIONEvE1r:
 2048 0000 00000000 		.space	32
 2048      00000000 
 2048      00000000 
 2048      00000000 
 2048      00000000 
 2049              		.section	.data._ZN11flatbuffers25flatbuffer_version_stringE,"aw",%progbits
 2050              		.align	2
 2053              	_ZN11flatbuffers25flatbuffer_version_stringE:
 2054 0000 00000000 		.word	.LC11
 2055              		.section	.rodata._ZN6tflite3ops5micro13concatenation4EvalEP13TfLiteContextP10TfLiteNode.str1.1,"aM
 2056              	.LC10:
 2057 0000 4F702043 		.ascii	"Op Concatenation does not currently support Type '%"
 2057      6F6E6361 
 2057      74656E61 
 2057      74696F6E 
 2057      20646F65 
 2058 0033 73272E00 		.ascii	"s'.\000"
 2059              		.section	.rodata._ZN6tflite3ops5micro13concatenation7PrepareEP13TfLiteContextP10TfLiteNode.str1.1,
 2060              	.LC0:
 2061 0000 2E2E2F73 		.ascii	"../src/tensorflow_lite/src/tensorflow/lite/micro/ke"
 2061      72632F74 
 2061      656E736F 
 2061      72666C6F 
 2061      775F6C69 
 2062 0033 726E656C 		.ascii	"rnels/concatenation.cpp\000"
 2062      732F636F 
 2062      6E636174 
 2062      656E6174 
 2062      696F6E2E 
 2063              	.LC1:
 2064 004b 25733A25 		.ascii	"%s:%d %s != %s (%d != %d)\000"
 2064      64202573 
 2064      20213D20 
 2064      25732028 
 2064      25642021 
 2065              	.LC2:
 2066 0065 6B54664C 		.ascii	"kTfLiteActNone\000"
 2066      69746541 
 2066      63744E6F 
 2066      6E6500
 2067              	.LC3:
 2068 0074 70617261 		.ascii	"params->activation\000"
 2068      6D732D3E 
 2068      61637469 
 2068      76617469 
 2068      6F6E00
 2069              	.LC4:
 2070 0087 25733A25 		.ascii	"%s:%d %s was not true.\000"
 2070      64202573 
 2070      20776173 
 2070      206E6F74 
 2070      20747275 
 2071              	.LC5:
 2072 009e 696E7075 		.ascii	"input_type == kTfLiteFloat32 || input_type == kTfLi"
 2072      745F7479 
 2072      7065203D 
 2072      3D206B54 
 2072      664C6974 
 2073 00d1 74655549 		.ascii	"teUInt8 || input_type == kTfLiteInt8 || input_type "
 2073      6E743820 
 2073      7C7C2069 
 2073      6E707574 
 2073      5F747970 
 2074 0104 3D3D206B 		.ascii	"== kTfLiteInt32 || input_type == kTfLiteInt64\000"
 2074      54664C69 
 2074      7465496E 
 2074      74333220 
 2074      7C7C2069 
 2075              	.LC6:
 2076 0132 696E7075 		.ascii	"input_type\000"
 2076      745F7479 
 2076      706500
 2077              	.LC7:
 2078 013d 6F757470 		.ascii	"output_type\000"
 2078      75745F74 
 2078      79706500 
 2079              	.LC8:
 2080 0149 6E756D5F 		.ascii	"num_inputs <= kMaxInputNum\000"
 2080      696E7075 
 2080      7473203C 
 2080      3D206B4D 
 2080      6178496E 
 2081              	.LC9:
 2082 0164 4F702043 		.ascii	"Op Concatenation does not currently support num dim"
 2082      6F6E6361 
 2082      74656E61 
 2082      74696F6E 
 2082      20646F65 
 2083 0197 656E7369 		.ascii	"ensions >4 Tensor '%s' has %d dimensions.\000"
 2083      6F6E7320 
 2083      3E342054 
 2083      656E736F 
 2083      72202725 
 2084              		.section	.rodata.str1.1,"aMS",%progbits,1
 2085              	.LC11:
 2086 0000 466C6174 		.ascii	"FlatBuffers 1.11.0\000"
 2086      42756666 
 2086      65727320 
 2086      312E3131 
 2086      2E3000
 2087              		.ident	"GCC: (GNU Tools for ARM Embedded Processors 6-2017-q2-update) 6.3.1 20170620 (release) [AR