   1              		.cpu cortex-a9
   2              		.eabi_attribute 28, 1
   3              		.eabi_attribute 20, 1
   4              		.eabi_attribute 21, 1
   5              		.eabi_attribute 23, 3
   6              		.eabi_attribute 24, 1
   7              		.eabi_attribute 25, 1
   8              		.eabi_attribute 26, 1
   9              		.eabi_attribute 30, 4
  10              		.eabi_attribute 34, 0
  11              		.eabi_attribute 18, 4
  12              		.file	"depthwise_conv.cpp"
  13              		.section	.text._ZN6tflite3ops5micro14depthwise_conv4InitEP13TfLiteContextPKcj,"ax",%progbits
  14              		.align	2
  15              		.global	_ZN6tflite3ops5micro14depthwise_conv4InitEP13TfLiteContextPKcj
  16              		.syntax unified
  17              		.arm
  18              		.fpu neon
  20              	_ZN6tflite3ops5micro14depthwise_conv4InitEP13TfLiteContextPKcj:
  21              		.fnstart
  22              	.LFB6230:
  23              		@ args = 0, pretend = 0, frame = 0
  24              		@ frame_needed = 0, uses_anonymous_args = 0
  25              		@ link register save eliminated.
  26 0000 0000A0E3 		mov	r0, #0
  27 0004 1EFF2FE1 		bx	lr
  28              		.cantunwind
  29              		.fnend
  31              		.section	.text._ZN6tflite3ops5micro14depthwise_conv4FreeEP13TfLiteContextPv,"ax",%progbits
  32              		.align	2
  33              		.global	_ZN6tflite3ops5micro14depthwise_conv4FreeEP13TfLiteContextPv
  34              		.syntax unified
  35              		.arm
  36              		.fpu neon
  38              	_ZN6tflite3ops5micro14depthwise_conv4FreeEP13TfLiteContextPv:
  39              		.fnstart
  40              	.LFB6231:
  41              		@ args = 0, pretend = 0, frame = 0
  42              		@ frame_needed = 0, uses_anonymous_args = 0
  43              		@ link register save eliminated.
  44 0000 1EFF2FE1 		bx	lr
  45              		.cantunwind
  46              		.fnend
  48              		.section	.text._ZN6tflite3ops5micro14depthwise_conv7PrepareEP13TfLiteContextP10TfLiteNode,"ax",%pr
  49              		.align	2
  50              		.global	_ZN6tflite3ops5micro14depthwise_conv7PrepareEP13TfLiteContextP10TfLiteNode
  51              		.syntax unified
  52              		.arm
  53              		.fpu neon
  55              	_ZN6tflite3ops5micro14depthwise_conv7PrepareEP13TfLiteContextP10TfLiteNode:
  56              		.fnstart
  57              	.LFB6232:
  58              		@ args = 0, pretend = 0, frame = 0
  59              		@ frame_needed = 0, uses_anonymous_args = 0
  60              		@ link register save eliminated.
  61 0000 0000A0E3 		mov	r0, #0
  62 0004 1EFF2FE1 		bx	lr
  63              		.cantunwind
  64              		.fnend
  66              		.section	.text._ZN6tflite12RuntimeShapeD2Ev,"axG",%progbits,_ZN6tflite12RuntimeShapeD5Ev,comdat
  67              		.align	2
  68              		.weak	_ZN6tflite12RuntimeShapeD2Ev
  69              		.syntax unified
  70              		.arm
  71              		.fpu neon
  73              	_ZN6tflite12RuntimeShapeD2Ev:
  74              		.fnstart
  75              	.LFB3207:
  76              		@ args = 0, pretend = 0, frame = 0
  77              		@ frame_needed = 0, uses_anonymous_args = 0
  78 0000 003090E5 		ldr	r3, [r0]
  79 0004 10402DE9 		push	{r4, lr}
  80 0008 0040A0E1 		mov	r4, r0
  81 000c 040053E3 		cmp	r3, #4
  82 0010 030000DA 		ble	.L5
  83 0014 040090E5 		ldr	r0, [r0, #4]
  84 0018 000050E3 		cmp	r0, #0
  85 001c 0000000A 		beq	.L5
  86 0020 FEFFFFEB 		bl	_ZdaPv
  87              	.L5:
  88 0024 0400A0E1 		mov	r0, r4
  89 0028 1080BDE8 		pop	{r4, pc}
  90              		.cantunwind
  91              		.fnend
  93              		.weak	_ZN6tflite12RuntimeShapeD1Ev
  94              		.set	_ZN6tflite12RuntimeShapeD1Ev,_ZN6tflite12RuntimeShapeD2Ev
  95              		.section	.text._ZNK6tflite12RuntimeShape4DimsEi,"axG",%progbits,_ZNK6tflite12RuntimeShape4DimsEi,c
  96              		.align	2
  97              		.weak	_ZNK6tflite12RuntimeShape4DimsEi
  98              		.syntax unified
  99              		.arm
 100              		.fpu neon
 102              	_ZNK6tflite12RuntimeShape4DimsEi:
 103              		.fnstart
 104              	.LFB3210:
 105              		@ args = 0, pretend = 0, frame = 0
 106              		@ frame_needed = 0, uses_anonymous_args = 0
 107 0000 000051E3 		cmp	r1, #0
 108 0004 010000AA 		bge	.L11
 109              	.L12:
 110 0008 10402DE9 		push	{r4, lr}
 111              		.save {r4, lr}
 112 000c FEFFFFEB 		bl	abort
 113              	.L11:
 114 0010 003090E5 		ldr	r3, [r0]
 115 0014 010053E1 		cmp	r3, r1
 116 0018 FAFFFFDA 		ble	.L12
 117 001c 040053E3 		cmp	r3, #4
 118 0020 043090C5 		ldrgt	r3, [r0, #4]
 119 0024 010180D0 		addle	r0, r0, r1, lsl #2
 120 0028 040090D5 		ldrle	r0, [r0, #4]
 121 002c 010193C7 		ldrgt	r0, [r3, r1, lsl #2]
 122 0030 1EFF2FE1 		bx	lr
 123              		.fnend
 125              		.section	.text._ZNK6tflite12RuntimeShape8FlatSizeEv,"axG",%progbits,_ZNK6tflite12RuntimeShape8Flat
 126              		.align	2
 127              		.weak	_ZNK6tflite12RuntimeShape8FlatSizeEv
 128              		.syntax unified
 129              		.arm
 130              		.fpu neon
 132              	_ZNK6tflite12RuntimeShape8FlatSizeEv:
 133              		.fnstart
 134              	.LFB3220:
 135              		@ args = 0, pretend = 0, frame = 0
 136              		@ frame_needed = 0, uses_anonymous_args = 0
 137              		@ link register save eliminated.
 138 0000 001090E5 		ldr	r1, [r0]
 139 0004 0020A0E3 		mov	r2, #0
 140 0008 040051E3 		cmp	r1, #4
 141 000c 043090C5 		ldrgt	r3, [r0, #4]
 142 0010 043080D2 		addle	r3, r0, #4
 143 0014 0100A0E3 		mov	r0, #1
 144              	.L21:
 145 0018 010052E1 		cmp	r2, r1
 146 001c 1EFF2FA1 		bxge	lr
 147 0020 02C193E7 		ldr	ip, [r3, r2, lsl #2]
 148 0024 012082E2 		add	r2, r2, #1
 149 0028 9C0000E0 		mul	r0, ip, r0
 150 002c F9FFFFEA 		b	.L21
 151              		.cantunwind
 152              		.fnend
 154              		.section	.text._ZN6tflite6OffsetERKNS_12RuntimeShapeEiiii,"axG",%progbits,_ZN6tflite6OffsetERKNS_1
 155              		.align	2
 156              		.weak	_ZN6tflite6OffsetERKNS_12RuntimeShapeEiiii
 157              		.syntax unified
 158              		.arm
 159              		.fpu neon
 161              	_ZN6tflite6OffsetERKNS_12RuntimeShapeEiiii:
 162              		.fnstart
 163              	.LFB3229:
 164              		@ args = 4, pretend = 0, frame = 0
 165              		@ frame_needed = 0, uses_anonymous_args = 0
 166 0000 10402DE9 		push	{r4, lr}
 167              		.save {r4, lr}
 168 0004 00E090E5 		ldr	lr, [r0]
 169 0008 08C09DE5 		ldr	ip, [sp, #8]
 170 000c 04005EE3 		cmp	lr, #4
 171 0010 0000000A 		beq	.L24
 172              	.L25:
 173 0014 FEFFFFEB 		bl	abort
 174              	.L24:
 175 0018 000051E3 		cmp	r1, #0
 176 001c FCFFFFBA 		blt	.L25
 177 0020 04E090E5 		ldr	lr, [r0, #4]
 178 0024 0E0051E1 		cmp	r1, lr
 179 0028 F9FFFFAA 		bge	.L25
 180 002c 000052E3 		cmp	r2, #0
 181 0030 F7FFFFBA 		blt	.L25
 182 0034 084090E5 		ldr	r4, [r0, #8]
 183 0038 040052E1 		cmp	r2, r4
 184 003c F4FFFFAA 		bge	.L25
 185 0040 000053E3 		cmp	r3, #0
 186 0044 F2FFFFBA 		blt	.L25
 187 0048 0CE090E5 		ldr	lr, [r0, #12]
 188 004c 0E0053E1 		cmp	r3, lr
 189 0050 EFFFFFAA 		bge	.L25
 190 0054 00005CE3 		cmp	ip, #0
 191 0058 EDFFFFBA 		blt	.L25
 192 005c 100090E5 		ldr	r0, [r0, #16]
 193 0060 00005CE1 		cmp	ip, r0
 194 0064 EAFFFFAA 		bge	.L25
 195 0068 942121E0 		mla	r1, r4, r1, r2
 196 006c 9E3123E0 		mla	r3, lr, r1, r3
 197 0070 90C320E0 		mla	r0, r0, r3, ip
 198 0074 1080BDE8 		pop	{r4, pc}
 199              		.fnend
 201              		.section	.text._ZN6tflite11MatchingDimERKNS_12RuntimeShapeEiS2_i,"axG",%progbits,_ZN6tflite11Match
 202              		.align	2
 203              		.weak	_ZN6tflite11MatchingDimERKNS_12RuntimeShapeEiS2_i
 204              		.syntax unified
 205              		.arm
 206              		.fpu neon
 208              	_ZN6tflite11MatchingDimERKNS_12RuntimeShapeEiS2_i:
 209              		.fnstart
 210              	.LFB3236:
 211              		@ args = 0, pretend = 0, frame = 0
 212              		@ frame_needed = 0, uses_anonymous_args = 0
 213 0000 F0412DE9 		push	{r4, r5, r6, r7, r8, lr}
 214              		.save {r4, r5, r6, r7, r8, lr}
 215 0004 0270A0E1 		mov	r7, r2
 216 0008 0380A0E1 		mov	r8, r3
 217 000c 0150A0E1 		mov	r5, r1
 218 0010 0040A0E1 		mov	r4, r0
 219 0014 FEFFFFEB 		bl	_ZNK6tflite12RuntimeShape4DimsEi
 220 0018 0810A0E1 		mov	r1, r8
 221 001c 0060A0E1 		mov	r6, r0
 222 0020 0700A0E1 		mov	r0, r7
 223 0024 FEFFFFEB 		bl	_ZNK6tflite12RuntimeShape4DimsEi
 224 0028 000056E1 		cmp	r6, r0
 225 002c 0000000A 		beq	.L28
 226 0030 FEFFFFEB 		bl	abort
 227              	.L28:
 228 0034 0510A0E1 		mov	r1, r5
 229 0038 0400A0E1 		mov	r0, r4
 230 003c FEFFFFEB 		bl	_ZNK6tflite12RuntimeShape4DimsEi
 231 0040 F081BDE8 		pop	{r4, r5, r6, r7, r8, pc}
 232              		.fnend
 234              		.section	.text._ZN6tflite29MultiplyByQuantizedMultiplierElli,"axG",%progbits,_ZN6tflite29MultiplyB
 235              		.align	2
 236              		.weak	_ZN6tflite29MultiplyByQuantizedMultiplierElli
 237              		.syntax unified
 238              		.arm
 239              		.fpu neon
 241              	_ZN6tflite29MultiplyByQuantizedMultiplierElli:
 242              		.fnstart
 243              	.LFB3274:
 244              		@ args = 0, pretend = 0, frame = 0
 245              		@ frame_needed = 0, uses_anonymous_args = 0
 246 0000 C23FC2E1 		bic	r3, r2, r2, asr #31
 247 0004 70402DE9 		push	{r4, r5, r6, lr}
 248              		.save {r4, r5, r6, lr}
 249 0008 000052E3 		cmp	r2, #0
 250 000c 1033A0E1 		lsl	r3, r0, r3
 251 0010 002062D2 		rsble	r2, r2, #0
 252 0014 0020A0C3 		movgt	r2, #0
 253 0018 9341C5E0 		smull	r4, r5, r3, r1
 254 001c 000054E3 		cmp	r4, #0
 255 0020 0000D5E2 		sbcs	r0, r5, #0
 256 0024 01E1A0A3 		movge	lr, #1073741824
 257 0028 07E1A0B3 		movlt	lr, #-1073741823
 258 002c 010053E1 		cmp	r3, r1
 259 0030 02015303 		cmpeq	r3, #-2147483648
 260 0034 0201E003 		mvneq	r0, #-2147483648
 261 0038 0800000A 		beq	.L33
 262 003c 0E4094E0 		adds	r4, r4, lr
 263 0040 0010A0E3 		mov	r1, #0
 264 0044 CE5FA5E0 		adc	r5, r5, lr, asr #31
 265 0048 C50FA0E1 		asr	r0, r5, #31
 266 004c 0201C0E3 		bic	r0, r0, #-2147483648
 267 0050 040090E0 		adds	r0, r0, r4
 268 0054 A00FA0E1 		lsr	r0, r0, #31
 269 0058 0510A1E0 		adc	r1, r1, r5
 270 005c 810080E1 		orr	r0, r0, r1, lsl #1
 271              	.L33:
 272 0060 1F0052E3 		cmp	r2, #31
 273 0064 040000DA 		ble	.L34
 274 0068 48309FE5 		ldr	r3, .L39+8
 275 006c 671100E3 		movw	r1, #359
 276 0070 44209FE5 		ldr	r2, .L39+12
 277 0074 44009FE5 		ldr	r0, .L39+16
 278 0078 FEFFFFEB 		bl	__assert_func
 279              	.L34:
 280 007c 0B0BDFED 		vldr.64	d16, .L39	@ int
 281 0080 902B01EE 		vmov.32	d17[0], r2
 282 0084 A00471F3 		vshl.u64	d16, d16, d17
 283 0088 304B55EC 		vmov	r4, r5, d16	@ int
 284 008c 014044E2 		sub	r4, r4, #1
 285 0090 003004E0 		and	r3, r4, r0
 286 0094 C440A0E1 		asr	r4, r4, #1
 287 0098 A04F84E0 		add	r4, r4, r0, lsr #31
 288 009c 5002A0E1 		asr	r0, r0, r2
 289 00a0 040053E1 		cmp	r3, r4
 290 00a4 010080C2 		addgt	r0, r0, #1
 291 00a8 7080BDE8 		pop	{r4, r5, r6, pc}
 292              	.L40:
 293 00ac 00F020E3 		.align	3
 294              	.L39:
 295 00b0 01000000 		.word	1
 296 00b4 00000000 		.word	0
 297 00b8 00000000 		.word	.LC0
 298 00bc 00000000 		.word	.LANCHOR0
 299 00c0 0F000000 		.word	.LC1
 300              		.fnend
 302              		.section	.text._ZN6tflite21reference_integer_ops23DepthwiseConvPerChannelERKNS_15DepthwiseParamsEP
 303              		.align	2
 304              		.weak	_ZN6tflite21reference_integer_ops23DepthwiseConvPerChannelERKNS_15DepthwiseParamsEPKlS5_RKNS
 305              		.syntax unified
 306              		.arm
 307              		.fpu neon
 309              	_ZN6tflite21reference_integer_ops23DepthwiseConvPerChannelERKNS_15DepthwiseParamsEPKlS5_RKNS_12Runt
 310              		.fnstart
 311              	.LFB3305:
 312              		@ args = 28, pretend = 0, frame = 136
 313              		@ frame_needed = 0, uses_anonymous_args = 0
 314 0000 F04F2DE9 		push	{r4, r5, r6, r7, r8, r9, r10, fp, lr}
 315              		.save {r4, r5, r6, r7, r8, r9, r10, fp, lr}
 316 0004 0390A0E1 		mov	r9, r3
 317 0008 FA30D0E1 		ldrsh	r3, [r0, #10]
 318              		.pad #148
 319 000c 94D04DE2 		sub	sp, sp, #148
 320 0010 88108DE5 		str	r1, [sp, #136]
 321 0014 38308DE5 		str	r3, [sp, #56]
 322 0018 FC30D0E1 		ldrsh	r3, [r0, #12]
 323 001c 8C208DE5 		str	r2, [sp, #140]
 324 0020 CCB09DE5 		ldr	fp, [sp, #204]
 325 0024 3C308DE5 		str	r3, [sp, #60]
 326 0028 FE30D0E1 		ldrsh	r3, [r0, #14]
 327 002c 40308DE5 		str	r3, [sp, #64]
 328 0030 F031D0E1 		ldrsh	r3, [r0, #16]
 329 0034 44308DE5 		str	r3, [sp, #68]
 330 0038 F230D0E1 		ldrsh	r3, [r0, #2]
 331 003c 48308DE5 		str	r3, [sp, #72]
 332 0040 F430D0E1 		ldrsh	r3, [r0, #4]
 333 0044 4C308DE5 		str	r3, [sp, #76]
 334 0048 F231D0E1 		ldrsh	r3, [r0, #18]
 335 004c 1C308DE5 		str	r3, [sp, #28]
 336 0050 143090E5 		ldr	r3, [r0, #20]
 337 0054 50308DE5 		str	r3, [sp, #80]
 338 0058 1C3090E5 		ldr	r3, [r0, #28]
 339 005c 54308DE5 		str	r3, [sp, #84]
 340 0060 283090E5 		ldr	r3, [r0, #40]
 341 0064 20308DE5 		str	r3, [sp, #32]
 342 0068 2C3090E5 		ldr	r3, [r0, #44]
 343 006c 24308DE5 		str	r3, [sp, #36]
 344 0070 003099E5 		ldr	r3, [r9]
 345 0074 040053E3 		cmp	r3, #4
 346 0078 0000000A 		beq	.L42
 347              	.L43:
 348 007c FEFFFFEB 		bl	abort
 349              	.L42:
 350 0080 BC309DE5 		ldr	r3, [sp, #188]
 351 0084 003093E5 		ldr	r3, [r3]
 352 0088 040053E3 		cmp	r3, #4
 353 008c FAFFFF1A 		bne	.L43
 354 0090 00309BE5 		ldr	r3, [fp]
 355 0094 040053E3 		cmp	r3, #4
 356 0098 F7FFFF1A 		bne	.L43
 357 009c 20309DE5 		ldr	r3, [sp, #32]
 358 00a0 24209DE5 		ldr	r2, [sp, #36]
 359 00a4 020053E1 		cmp	r3, r2
 360 00a8 F3FFFFCA 		bgt	.L43
 361 00ac 0030A0E3 		mov	r3, #0
 362 00b0 0B20A0E1 		mov	r2, fp
 363 00b4 0310A0E1 		mov	r1, r3
 364 00b8 0900A0E1 		mov	r0, r9
 365 00bc FEFFFFEB 		bl	_ZN6tflite11MatchingDimERKNS_12RuntimeShapeEiS2_i
 366 00c0 0330A0E3 		mov	r3, #3
 367 00c4 0B20A0E1 		mov	r2, fp
 368 00c8 0310A0E1 		mov	r1, r3
 369 00cc 58008DE5 		str	r0, [sp, #88]
 370 00d0 BC009DE5 		ldr	r0, [sp, #188]
 371 00d4 FEFFFFEB 		bl	_ZN6tflite11MatchingDimERKNS_12RuntimeShapeEiS2_i
 372 00d8 0110A0E3 		mov	r1, #1
 373 00dc 0040A0E1 		mov	r4, r0
 374 00e0 0900A0E1 		mov	r0, r9
 375 00e4 FEFFFFEB 		bl	_ZNK6tflite12RuntimeShape4DimsEi
 376 00e8 0210A0E3 		mov	r1, #2
 377 00ec 5C008DE5 		str	r0, [sp, #92]
 378 00f0 0900A0E1 		mov	r0, r9
 379 00f4 FEFFFFEB 		bl	_ZNK6tflite12RuntimeShape4DimsEi
 380 00f8 0310A0E3 		mov	r1, #3
 381 00fc 60008DE5 		str	r0, [sp, #96]
 382 0100 0900A0E1 		mov	r0, r9
 383 0104 FEFFFFEB 		bl	_ZNK6tflite12RuntimeShape4DimsEi
 384 0108 0110A0E3 		mov	r1, #1
 385 010c 30008DE5 		str	r0, [sp, #48]
 386 0110 BC009DE5 		ldr	r0, [sp, #188]
 387 0114 FEFFFFEB 		bl	_ZNK6tflite12RuntimeShape4DimsEi
 388 0118 0210A0E3 		mov	r1, #2
 389 011c 64008DE5 		str	r0, [sp, #100]
 390 0120 BC009DE5 		ldr	r0, [sp, #188]
 391 0124 FEFFFFEB 		bl	_ZNK6tflite12RuntimeShape4DimsEi
 392 0128 0110A0E3 		mov	r1, #1
 393 012c 68008DE5 		str	r0, [sp, #104]
 394 0130 0B00A0E1 		mov	r0, fp
 395 0134 FEFFFFEB 		bl	_ZNK6tflite12RuntimeShape4DimsEi
 396 0138 0210A0E3 		mov	r1, #2
 397 013c 6C008DE5 		str	r0, [sp, #108]
 398 0140 0B00A0E1 		mov	r0, fp
 399 0144 FEFFFFEB 		bl	_ZNK6tflite12RuntimeShape4DimsEi
 400 0148 30309DE5 		ldr	r3, [sp, #48]
 401 014c 1C209DE5 		ldr	r2, [sp, #28]
 402 0150 70008DE5 		str	r0, [sp, #112]
 403 0154 930203E0 		mul	r3, r3, r2
 404 0158 030054E1 		cmp	r4, r3
 405 015c C6FFFF1A 		bne	.L43
 406 0160 C4009DE5 		ldr	r0, [sp, #196]
 407 0164 FEFFFFEB 		bl	_ZNK6tflite12RuntimeShape8FlatSizeEv
 408 0168 000054E1 		cmp	r4, r0
 409 016c C2FFFF1A 		bne	.L43
 410 0170 00A0A0E3 		mov	r10, #0
 411              	.L60:
 412 0174 58309DE5 		ldr	r3, [sp, #88]
 413 0178 03005AE1 		cmp	r10, r3
 414 017c 9C0000AA 		bge	.L41
 415 0180 4C309DE5 		ldr	r3, [sp, #76]
 416 0184 003063E2 		rsb	r3, r3, #0
 417 0188 2C308DE5 		str	r3, [sp, #44]
 418 018c 0030A0E3 		mov	r3, #0
 419 0190 08308DE5 		str	r3, [sp, #8]
 420              	.L59:
 421 0194 08309DE5 		ldr	r3, [sp, #8]
 422 0198 6C209DE5 		ldr	r2, [sp, #108]
 423 019c 020053E1 		cmp	r3, r2
 424 01a0 790000AA 		bge	.L45
 425 01a4 48309DE5 		ldr	r3, [sp, #72]
 426 01a8 003063E2 		rsb	r3, r3, #0
 427 01ac 28308DE5 		str	r3, [sp, #40]
 428 01b0 0030A0E3 		mov	r3, #0
 429 01b4 0C308DE5 		str	r3, [sp, #12]
 430              	.L58:
 431 01b8 0C309DE5 		ldr	r3, [sp, #12]
 432 01bc 70209DE5 		ldr	r2, [sp, #112]
 433 01c0 020053E1 		cmp	r3, r2
 434 01c4 680000AA 		bge	.L46
 435 01c8 0080A0E3 		mov	r8, #0
 436 01cc 10808DE5 		str	r8, [sp, #16]
 437              	.L57:
 438 01d0 10309DE5 		ldr	r3, [sp, #16]
 439 01d4 30209DE5 		ldr	r2, [sp, #48]
 440 01d8 020053E1 		cmp	r3, r2
 441 01dc 5A0000AA 		bge	.L47
 442 01e0 C8209DE5 		ldr	r2, [sp, #200]
 443 01e4 0831A0E1 		lsl	r3, r8, #2
 444 01e8 0040A0E3 		mov	r4, #0
 445 01ec 032082E0 		add	r2, r2, r3
 446 01f0 7C208DE5 		str	r2, [sp, #124]
 447 01f4 88209DE5 		ldr	r2, [sp, #136]
 448 01f8 032082E0 		add	r2, r2, r3
 449 01fc 84208DE5 		str	r2, [sp, #132]
 450 0200 8C209DE5 		ldr	r2, [sp, #140]
 451 0204 033082E0 		add	r3, r2, r3
 452 0208 80308DE5 		str	r3, [sp, #128]
 453              	.L56:
 454 020c 1C309DE5 		ldr	r3, [sp, #28]
 455 0210 030054E1 		cmp	r4, r3
 456 0214 460000AA 		bge	.L48
 457 0218 2C609DE5 		ldr	r6, [sp, #44]
 458 021c 043088E0 		add	r3, r8, r4
 459 0220 0050A0E3 		mov	r5, #0
 460 0224 34308DE5 		str	r3, [sp, #52]
 461 0228 14508DE5 		str	r5, [sp, #20]
 462              	.L54:
 463 022c 14309DE5 		ldr	r3, [sp, #20]
 464 0230 64209DE5 		ldr	r2, [sp, #100]
 465 0234 020053E1 		cmp	r3, r2
 466 0238 1F0000AA 		bge	.L49
 467 023c 5C309DE5 		ldr	r3, [sp, #92]
 468 0240 28709DE5 		ldr	r7, [sp, #40]
 469 0244 000056E3 		cmp	r6, #0
 470 0248 060053A1 		cmpge	r3, r6
 471 024c 0130A0C3 		movgt	r3, #1
 472 0250 0030A0D3 		movle	r3, #0
 473 0254 74308DE5 		str	r3, [sp, #116]
 474 0258 0030A0E3 		mov	r3, #0
 475 025c 18308DE5 		str	r3, [sp, #24]
 476              	.L53:
 477 0260 18309DE5 		ldr	r3, [sp, #24]
 478 0264 68209DE5 		ldr	r2, [sp, #104]
 479 0268 020053E1 		cmp	r3, r2
 480 026c 0C0000AA 		bge	.L50
 481 0270 60309DE5 		ldr	r3, [sp, #96]
 482 0274 000057E3 		cmp	r7, #0
 483 0278 070053A1 		cmpge	r3, r7
 484 027c 020000DA 		ble	.L51
 485 0280 74309DE5 		ldr	r3, [sp, #116]
 486 0284 000053E3 		cmp	r3, #0
 487 0288 4100001A 		bne	.L52
 488              	.L51:
 489 028c 18309DE5 		ldr	r3, [sp, #24]
 490 0290 013083E2 		add	r3, r3, #1
 491 0294 18308DE5 		str	r3, [sp, #24]
 492 0298 40309DE5 		ldr	r3, [sp, #64]
 493 029c 037087E0 		add	r7, r7, r3
 494 02a0 EEFFFFEA 		b	.L53
 495              	.L50:
 496 02a4 14309DE5 		ldr	r3, [sp, #20]
 497 02a8 013083E2 		add	r3, r3, #1
 498 02ac 14308DE5 		str	r3, [sp, #20]
 499 02b0 44309DE5 		ldr	r3, [sp, #68]
 500 02b4 036086E0 		add	r6, r6, r3
 501 02b8 DBFFFFEA 		b	.L54
 502              	.L49:
 503 02bc C8309DE5 		ldr	r3, [sp, #200]
 504 02c0 000053E3 		cmp	r3, #0
 505 02c4 7C309D15 		ldrne	r3, [sp, #124]
 506 02c8 04319317 		ldrne	r3, [r3, r4, lsl #2]
 507 02cc 03508510 		addne	r5, r5, r3
 508 02d0 80309DE5 		ldr	r3, [sp, #128]
 509 02d4 0500A0E1 		mov	r0, r5
 510 02d8 042193E7 		ldr	r2, [r3, r4, lsl #2]
 511 02dc 84309DE5 		ldr	r3, [sp, #132]
 512 02e0 041193E7 		ldr	r1, [r3, r4, lsl #2]
 513 02e4 014084E2 		add	r4, r4, #1
 514 02e8 FEFFFFEB 		bl	_ZN6tflite29MultiplyByQuantizedMultiplierElli
 515 02ec 54309DE5 		ldr	r3, [sp, #84]
 516 02f0 0A10A0E1 		mov	r1, r10
 517 02f4 08209DE5 		ldr	r2, [sp, #8]
 518 02f8 005083E0 		add	r5, r3, r0
 519 02fc 20309DE5 		ldr	r3, [sp, #32]
 520 0300 0B00A0E1 		mov	r0, fp
 521 0304 030055E1 		cmp	r5, r3
 522 0308 0350A0B1 		movlt	r5, r3
 523 030c 24309DE5 		ldr	r3, [sp, #36]
 524 0310 030055E1 		cmp	r5, r3
 525 0314 0350A0A1 		movge	r5, r3
 526 0318 34309DE5 		ldr	r3, [sp, #52]
 527 031c 00308DE5 		str	r3, [sp]
 528 0320 0C309DE5 		ldr	r3, [sp, #12]
 529 0324 FEFFFFEB 		bl	_ZN6tflite6OffsetERKNS_12RuntimeShapeEiiii
 530 0328 D0309DE5 		ldr	r3, [sp, #208]
 531 032c 0050C3E7 		strb	r5, [r3, r0]
 532 0330 B5FFFFEA 		b	.L56
 533              	.L48:
 534 0334 10309DE5 		ldr	r3, [sp, #16]
 535 0338 013083E2 		add	r3, r3, #1
 536 033c 10308DE5 		str	r3, [sp, #16]
 537 0340 1C309DE5 		ldr	r3, [sp, #28]
 538 0344 038088E0 		add	r8, r8, r3
 539 0348 A0FFFFEA 		b	.L57
 540              	.L47:
 541 034c 0C309DE5 		ldr	r3, [sp, #12]
 542 0350 38209DE5 		ldr	r2, [sp, #56]
 543 0354 013083E2 		add	r3, r3, #1
 544 0358 0C308DE5 		str	r3, [sp, #12]
 545 035c 28309DE5 		ldr	r3, [sp, #40]
 546 0360 023083E0 		add	r3, r3, r2
 547 0364 28308DE5 		str	r3, [sp, #40]
 548 0368 92FFFFEA 		b	.L58
 549              	.L46:
 550 036c 08309DE5 		ldr	r3, [sp, #8]
 551 0370 3C209DE5 		ldr	r2, [sp, #60]
 552 0374 013083E2 		add	r3, r3, #1
 553 0378 08308DE5 		str	r3, [sp, #8]
 554 037c 2C309DE5 		ldr	r3, [sp, #44]
 555 0380 023083E0 		add	r3, r3, r2
 556 0384 2C308DE5 		str	r3, [sp, #44]
 557 0388 81FFFFEA 		b	.L59
 558              	.L45:
 559 038c 01A08AE2 		add	r10, r10, #1
 560 0390 77FFFFEA 		b	.L60
 561              	.L52:
 562 0394 10309DE5 		ldr	r3, [sp, #16]
 563 0398 0620A0E1 		mov	r2, r6
 564 039c 0A10A0E1 		mov	r1, r10
 565 03a0 0900A0E1 		mov	r0, r9
 566 03a4 00308DE5 		str	r3, [sp]
 567 03a8 0730A0E1 		mov	r3, r7
 568 03ac FEFFFFEB 		bl	_ZN6tflite6OffsetERKNS_12RuntimeShapeEiiii
 569 03b0 B8309DE5 		ldr	r3, [sp, #184]
 570 03b4 0010A0E3 		mov	r1, #0
 571 03b8 14209DE5 		ldr	r2, [sp, #20]
 572 03bc D03093E1 		ldrsb	r3, [r3, r0]
 573 03c0 BC009DE5 		ldr	r0, [sp, #188]
 574 03c4 78308DE5 		str	r3, [sp, #120]
 575 03c8 34309DE5 		ldr	r3, [sp, #52]
 576 03cc 00308DE5 		str	r3, [sp]
 577 03d0 18309DE5 		ldr	r3, [sp, #24]
 578 03d4 FEFFFFEB 		bl	_ZN6tflite6OffsetERKNS_12RuntimeShapeEiiii
 579 03d8 C0309DE5 		ldr	r3, [sp, #192]
 580 03dc 50209DE5 		ldr	r2, [sp, #80]
 581 03e0 78109DE5 		ldr	r1, [sp, #120]
 582 03e4 D03093E1 		ldrsb	r3, [r3, r0]
 583 03e8 012082E0 		add	r2, r2, r1
 584 03ec 925325E0 		mla	r5, r2, r3, r5
 585 03f0 A5FFFFEA 		b	.L51
 586              	.L41:
 587 03f4 94D08DE2 		add	sp, sp, #148
 588              		@ sp needed
 589 03f8 F08FBDE8 		pop	{r4, r5, r6, r7, r8, r9, r10, fp, pc}
 590              		.fnend
 592              		.section	.text._ZN6tflite13reference_ops13DepthwiseConvERKNS_15DepthwiseParamsERKNS_12RuntimeShape
 593              		.align	2
 594              		.weak	_ZN6tflite13reference_ops13DepthwiseConvERKNS_15DepthwiseParamsERKNS_12RuntimeShapeEPKfS6_S8
 595              		.syntax unified
 596              		.arm
 597              		.fpu neon
 599              	_ZN6tflite13reference_ops13DepthwiseConvERKNS_15DepthwiseParamsERKNS_12RuntimeShapeEPKfS6_S8_S6_S8_
 600              		.fnstart
 601              	.LFB3311:
 602              		@ args = 20, pretend = 0, frame = 104
 603              		@ frame_needed = 0, uses_anonymous_args = 0
 604 0000 F04F2DE9 		push	{r4, r5, r6, r7, r8, r9, r10, fp, lr}
 605              		.save {r4, r5, r6, r7, r8, r9, r10, fp, lr}
 606 0004 0380A0E1 		mov	r8, r3
 607 0008 FA30D0E1 		ldrsh	r3, [r0, #10]
 608 000c 048B2DED 		vpush.64	{d8, d9}
 609              		.vsave {d8, d9}
 610              		.pad #116
 611 0010 74D04DE2 		sub	sp, sp, #116
 612 0014 34308DE5 		str	r3, [sp, #52]
 613 0018 FC30D0E1 		ldrsh	r3, [r0, #12]
 614 001c 6C208DE5 		str	r2, [sp, #108]
 615 0020 B4909DE5 		ldr	r9, [sp, #180]
 616 0024 38308DE5 		str	r3, [sp, #56]
 617 0028 FE30D0E1 		ldrsh	r3, [r0, #14]
 618 002c 0C8AD0ED 		vldr.32	s17, [r0, #48]
 619 0030 0D9A90ED 		vldr.32	s18, [r0, #52]
 620 0034 3C308DE5 		str	r3, [sp, #60]
 621 0038 F031D0E1 		ldrsh	r3, [r0, #16]
 622 003c 40308DE5 		str	r3, [sp, #64]
 623 0040 F230D0E1 		ldrsh	r3, [r0, #2]
 624 0044 44308DE5 		str	r3, [sp, #68]
 625 0048 F430D0E1 		ldrsh	r3, [r0, #4]
 626 004c 48308DE5 		str	r3, [sp, #72]
 627 0050 F231D0E1 		ldrsh	r3, [r0, #18]
 628 0054 1C308DE5 		str	r3, [sp, #28]
 629 0058 003091E5 		ldr	r3, [r1]
 630 005c 040053E3 		cmp	r3, #4
 631 0060 0000000A 		beq	.L69
 632              	.L70:
 633 0064 FEFFFFEB 		bl	abort
 634              	.L69:
 635 0068 003098E5 		ldr	r3, [r8]
 636 006c 040053E3 		cmp	r3, #4
 637 0070 FBFFFF1A 		bne	.L70
 638 0074 003099E5 		ldr	r3, [r9]
 639 0078 040053E3 		cmp	r3, #4
 640 007c F8FFFF1A 		bne	.L70
 641 0080 0170A0E1 		mov	r7, r1
 642 0084 0030A0E3 		mov	r3, #0
 643 0088 0310A0E1 		mov	r1, r3
 644 008c 0920A0E1 		mov	r2, r9
 645 0090 0700A0E1 		mov	r0, r7
 646 0094 FEFFFFEB 		bl	_ZN6tflite11MatchingDimERKNS_12RuntimeShapeEiS2_i
 647 0098 0330A0E3 		mov	r3, #3
 648 009c 0920A0E1 		mov	r2, r9
 649 00a0 0310A0E1 		mov	r1, r3
 650 00a4 4C008DE5 		str	r0, [sp, #76]
 651 00a8 0800A0E1 		mov	r0, r8
 652 00ac FEFFFFEB 		bl	_ZN6tflite11MatchingDimERKNS_12RuntimeShapeEiS2_i
 653 00b0 0110A0E3 		mov	r1, #1
 654 00b4 0040A0E1 		mov	r4, r0
 655 00b8 0700A0E1 		mov	r0, r7
 656 00bc FEFFFFEB 		bl	_ZNK6tflite12RuntimeShape4DimsEi
 657 00c0 0210A0E3 		mov	r1, #2
 658 00c4 50008DE5 		str	r0, [sp, #80]
 659 00c8 0700A0E1 		mov	r0, r7
 660 00cc FEFFFFEB 		bl	_ZNK6tflite12RuntimeShape4DimsEi
 661 00d0 0310A0E3 		mov	r1, #3
 662 00d4 54008DE5 		str	r0, [sp, #84]
 663 00d8 0700A0E1 		mov	r0, r7
 664 00dc FEFFFFEB 		bl	_ZNK6tflite12RuntimeShape4DimsEi
 665 00e0 0110A0E3 		mov	r1, #1
 666 00e4 2C008DE5 		str	r0, [sp, #44]
 667 00e8 0800A0E1 		mov	r0, r8
 668 00ec FEFFFFEB 		bl	_ZNK6tflite12RuntimeShape4DimsEi
 669 00f0 0210A0E3 		mov	r1, #2
 670 00f4 58008DE5 		str	r0, [sp, #88]
 671 00f8 0800A0E1 		mov	r0, r8
 672 00fc FEFFFFEB 		bl	_ZNK6tflite12RuntimeShape4DimsEi
 673 0100 0110A0E3 		mov	r1, #1
 674 0104 5C008DE5 		str	r0, [sp, #92]
 675 0108 0900A0E1 		mov	r0, r9
 676 010c FEFFFFEB 		bl	_ZNK6tflite12RuntimeShape4DimsEi
 677 0110 0210A0E3 		mov	r1, #2
 678 0114 60008DE5 		str	r0, [sp, #96]
 679 0118 0900A0E1 		mov	r0, r9
 680 011c FEFFFFEB 		bl	_ZNK6tflite12RuntimeShape4DimsEi
 681 0120 2C309DE5 		ldr	r3, [sp, #44]
 682 0124 1C209DE5 		ldr	r2, [sp, #28]
 683 0128 64008DE5 		str	r0, [sp, #100]
 684 012c 930203E0 		mul	r3, r3, r2
 685 0130 030054E1 		cmp	r4, r3
 686 0134 CAFFFF1A 		bne	.L70
 687 0138 AC009DE5 		ldr	r0, [sp, #172]
 688 013c FEFFFFEB 		bl	_ZNK6tflite12RuntimeShape8FlatSizeEv
 689 0140 000054E1 		cmp	r4, r0
 690 0144 C6FFFF1A 		bne	.L70
 691 0148 00B0A0E3 		mov	fp, #0
 692              	.L90:
 693 014c 4C309DE5 		ldr	r3, [sp, #76]
 694 0150 03005BE1 		cmp	fp, r3
 695 0154 900000AA 		bge	.L68
 696 0158 48309DE5 		ldr	r3, [sp, #72]
 697 015c 003063E2 		rsb	r3, r3, #0
 698 0160 28308DE5 		str	r3, [sp, #40]
 699 0164 0030A0E3 		mov	r3, #0
 700 0168 08308DE5 		str	r3, [sp, #8]
 701              	.L89:
 702 016c 08309DE5 		ldr	r3, [sp, #8]
 703 0170 60209DE5 		ldr	r2, [sp, #96]
 704 0174 020053E1 		cmp	r3, r2
 705 0178 850000AA 		bge	.L72
 706 017c 44309DE5 		ldr	r3, [sp, #68]
 707 0180 003063E2 		rsb	r3, r3, #0
 708 0184 20308DE5 		str	r3, [sp, #32]
 709 0188 0030A0E3 		mov	r3, #0
 710 018c 0C308DE5 		str	r3, [sp, #12]
 711              	.L88:
 712 0190 0C309DE5 		ldr	r3, [sp, #12]
 713 0194 64209DE5 		ldr	r2, [sp, #100]
 714 0198 020053E1 		cmp	r3, r2
 715 019c 740000AA 		bge	.L73
 716 01a0 0040A0E3 		mov	r4, #0
 717 01a4 10408DE5 		str	r4, [sp, #16]
 718              	.L87:
 719 01a8 10309DE5 		ldr	r3, [sp, #16]
 720 01ac 2C209DE5 		ldr	r2, [sp, #44]
 721 01b0 020053E1 		cmp	r3, r2
 722 01b4 660000AA 		bge	.L74
 723 01b8 B0309DE5 		ldr	r3, [sp, #176]
 724 01bc 043183E0 		add	r3, r3, r4, lsl #2
 725 01c0 24308DE5 		str	r3, [sp, #36]
 726 01c4 0030A0E3 		mov	r3, #0
 727 01c8 14308DE5 		str	r3, [sp, #20]
 728              	.L86:
 729 01cc 14309DE5 		ldr	r3, [sp, #20]
 730 01d0 1C209DE5 		ldr	r2, [sp, #28]
 731 01d4 020053E1 		cmp	r3, r2
 732 01d8 570000AA 		bge	.L75
 733 01dc 28509DE5 		ldr	r5, [sp, #40]
 734 01e0 043083E0 		add	r3, r3, r4
 735 01e4 6F8A9FED 		vldr.32	s16, .L101
 736 01e8 30308DE5 		str	r3, [sp, #48]
 737 01ec 0030A0E3 		mov	r3, #0
 738 01f0 18308DE5 		str	r3, [sp, #24]
 739              	.L80:
 740 01f4 18309DE5 		ldr	r3, [sp, #24]
 741 01f8 58209DE5 		ldr	r2, [sp, #88]
 742 01fc 020053E1 		cmp	r3, r2
 743 0200 300000AA 		bge	.L76
 744 0204 50309DE5 		ldr	r3, [sp, #80]
 745 0208 00A0A0E3 		mov	r10, #0
 746 020c 20609DE5 		ldr	r6, [sp, #32]
 747 0210 000055E3 		cmp	r5, #0
 748 0214 050053A1 		cmpge	r3, r5
 749 0218 0130A0C3 		movgt	r3, #1
 750 021c 0030A0D3 		movle	r3, #0
 751 0220 68308DE5 		str	r3, [sp, #104]
 752              	.L79:
 753 0224 5C309DE5 		ldr	r3, [sp, #92]
 754 0228 03005AE1 		cmp	r10, r3
 755 022c 1F0000AA 		bge	.L77
 756 0230 54309DE5 		ldr	r3, [sp, #84]
 757 0234 000056E3 		cmp	r6, #0
 758 0238 060053A1 		cmpge	r3, r6
 759 023c 170000DA 		ble	.L78
 760 0240 68309DE5 		ldr	r3, [sp, #104]
 761 0244 000053E3 		cmp	r3, #0
 762 0248 1400000A 		beq	.L78
 763 024c 10309DE5 		ldr	r3, [sp, #16]
 764 0250 0520A0E1 		mov	r2, r5
 765 0254 0B10A0E1 		mov	r1, fp
 766 0258 0700A0E1 		mov	r0, r7
 767 025c 00308DE5 		str	r3, [sp]
 768 0260 0630A0E1 		mov	r3, r6
 769 0264 FEFFFFEB 		bl	_ZN6tflite6OffsetERKNS_12RuntimeShapeEiiii
 770 0268 6C309DE5 		ldr	r3, [sp, #108]
 771 026c 0010A0E3 		mov	r1, #0
 772 0270 18209DE5 		ldr	r2, [sp, #24]
 773 0274 000183E0 		add	r0, r3, r0, lsl #2
 774 0278 30309DE5 		ldr	r3, [sp, #48]
 775 027c 009AD0ED 		vldr.32	s19, [r0]
 776 0280 0800A0E1 		mov	r0, r8
 777 0284 00308DE5 		str	r3, [sp]
 778 0288 0A30A0E1 		mov	r3, r10
 779 028c FEFFFFEB 		bl	_ZN6tflite6OffsetERKNS_12RuntimeShapeEiiii
 780 0290 A8309DE5 		ldr	r3, [sp, #168]
 781 0294 000183E0 		add	r0, r3, r0, lsl #2
 782 0298 007AD0ED 		vldr.32	s15, [r0]
 783 029c A78A09EE 		vmla.f32	s16, s19, s15
 784              	.L78:
 785 02a0 3C309DE5 		ldr	r3, [sp, #60]
 786 02a4 01A08AE2 		add	r10, r10, #1
 787 02a8 036086E0 		add	r6, r6, r3
 788 02ac DCFFFFEA 		b	.L79
 789              	.L77:
 790 02b0 18309DE5 		ldr	r3, [sp, #24]
 791 02b4 013083E2 		add	r3, r3, #1
 792 02b8 18308DE5 		str	r3, [sp, #24]
 793 02bc 40309DE5 		ldr	r3, [sp, #64]
 794 02c0 035085E0 		add	r5, r5, r3
 795 02c4 CAFFFFEA 		b	.L80
 796              	.L76:
 797 02c8 B0309DE5 		ldr	r3, [sp, #176]
 798 02cc 0B10A0E1 		mov	r1, fp
 799 02d0 08209DE5 		ldr	r2, [sp, #8]
 800 02d4 0900A0E1 		mov	r0, r9
 801 02d8 000053E3 		cmp	r3, #0
 802 02dc 24309D15 		ldrne	r3, [sp, #36]
 803 02e0 309ADF0D 		vldreq.32	s19, .L101
 804 02e4 009AD31D 		vldrne.32	s19, [r3]
 805 02e8 30309DE5 		ldr	r3, [sp, #48]
 806 02ec 00308DE5 		str	r3, [sp]
 807 02f0 0C309DE5 		ldr	r3, [sp, #12]
 808 02f4 FEFFFFEB 		bl	_ZN6tflite6OffsetERKNS_12RuntimeShapeEiiii
 809 02f8 B8309DE5 		ldr	r3, [sp, #184]
 810 02fc 297A78EE 		vadd.f32	s15, s16, s19
 811 0300 000183E0 		add	r0, r3, r0, lsl #2
 812 0304 14309DE5 		ldr	r3, [sp, #20]
 813 0308 678AF4EE 		vcmp.f32	s17, s15
 814 030c 10FAF1EE 		vmrs	APSR_nzcv, FPSCR
 815 0310 687AF0CE 		vmovgt.f32	s15, s17
 816 0314 013083E2 		add	r3, r3, #1
 817 0318 679AB4EE 		vcmp.f32	s18, s15
 818 031c 14308DE5 		str	r3, [sp, #20]
 819 0320 24309DE5 		ldr	r3, [sp, #36]
 820 0324 10FAF1EE 		vmrs	APSR_nzcv, FPSCR
 821 0328 497AF04E 		vmovmi.f32	s15, s18
 822 032c 043083E2 		add	r3, r3, #4
 823 0330 007AC0ED 		vstr.32	s15, [r0]
 824 0334 24308DE5 		str	r3, [sp, #36]
 825 0338 A3FFFFEA 		b	.L86
 826              	.L75:
 827 033c 10309DE5 		ldr	r3, [sp, #16]
 828 0340 013083E2 		add	r3, r3, #1
 829 0344 10308DE5 		str	r3, [sp, #16]
 830 0348 1C309DE5 		ldr	r3, [sp, #28]
 831 034c 034084E0 		add	r4, r4, r3
 832 0350 94FFFFEA 		b	.L87
 833              	.L74:
 834 0354 0C309DE5 		ldr	r3, [sp, #12]
 835 0358 34209DE5 		ldr	r2, [sp, #52]
 836 035c 013083E2 		add	r3, r3, #1
 837 0360 0C308DE5 		str	r3, [sp, #12]
 838 0364 20309DE5 		ldr	r3, [sp, #32]
 839 0368 023083E0 		add	r3, r3, r2
 840 036c 20308DE5 		str	r3, [sp, #32]
 841 0370 86FFFFEA 		b	.L88
 842              	.L73:
 843 0374 08309DE5 		ldr	r3, [sp, #8]
 844 0378 38209DE5 		ldr	r2, [sp, #56]
 845 037c 013083E2 		add	r3, r3, #1
 846 0380 08308DE5 		str	r3, [sp, #8]
 847 0384 28309DE5 		ldr	r3, [sp, #40]
 848 0388 023083E0 		add	r3, r3, r2
 849 038c 28308DE5 		str	r3, [sp, #40]
 850 0390 75FFFFEA 		b	.L89
 851              	.L72:
 852 0394 01B08BE2 		add	fp, fp, #1
 853 0398 6BFFFFEA 		b	.L90
 854              	.L68:
 855 039c 74D08DE2 		add	sp, sp, #116
 856              		@ sp needed
 857 03a0 048BBDEC 		vldm	sp!, {d8-d9}
 858 03a4 F08FBDE8 		pop	{r4, r5, r6, r7, r8, r9, r10, fp, pc}
 859              	.L102:
 860              		.align	2
 861              	.L101:
 862 03a8 00000000 		.word	0
 863              		.fnend
 865              		.section	.text._ZN6tflite14GetTensorShapeEPK12TfLiteTensor,"axG",%progbits,_ZN6tflite14GetTensorSh
 866              		.align	2
 867              		.weak	_ZN6tflite14GetTensorShapeEPK12TfLiteTensor
 868              		.syntax unified
 869              		.arm
 870              		.fpu neon
 872              	_ZN6tflite14GetTensorShapeEPK12TfLiteTensor:
 873              		.fnstart
 874              	.LFB3320:
 875              		@ args = 0, pretend = 0, frame = 0
 876              		@ frame_needed = 0, uses_anonymous_args = 0
 877 0000 000051E3 		cmp	r1, #0
 878 0004 70402DE9 		push	{r4, r5, r6, lr}
 879              		.save {r4, r5, r6, lr}
 880 0008 0040A0E1 		mov	r4, r0
 881 000c 00108005 		streq	r1, [r0]
 882 0010 1100000A 		beq	.L103
 883 0014 085091E5 		ldr	r5, [r1, #8]
 884 0018 003095E5 		ldr	r3, [r5]
 885 001c 040053E3 		cmp	r3, #4
 886 0020 003080E5 		str	r3, [r0]
 887 0024 0361A0E1 		lsl	r6, r3, #2
 888 0028 040000DA 		ble	.L106
 889 002c 2E0273E3 		cmn	r3, #-536870910
 890 0030 0B0000CA 		bgt	.L107
 891 0034 0600A0E1 		mov	r0, r6
 892 0038 FEFFFFEB 		bl	_Znaj
 893 003c 040084E5 		str	r0, [r4, #4]
 894              	.L106:
 895 0040 003094E5 		ldr	r3, [r4]
 896 0044 0620A0E1 		mov	r2, r6
 897 0048 041085E2 		add	r1, r5, #4
 898 004c 040053E3 		cmp	r3, #4
 899 0050 040094C5 		ldrgt	r0, [r4, #4]
 900 0054 040084D2 		addle	r0, r4, #4
 901 0058 FEFFFFEB 		bl	memcpy
 902              	.L103:
 903 005c 0400A0E1 		mov	r0, r4
 904 0060 7080BDE8 		pop	{r4, r5, r6, pc}
 905              	.L107:
 906 0064 FEFFFFEB 		bl	__cxa_throw_bad_array_new_length
 907              		.fnend
 909              		.global	__aeabi_idiv
 910              		.section	.text._ZN6tflite14ComputeOutSizeE13TfLitePaddingiiii,"axG",%progbits,_ZN6tflite14ComputeO
 911              		.align	2
 912              		.weak	_ZN6tflite14ComputeOutSizeE13TfLitePaddingiiii
 913              		.syntax unified
 914              		.arm
 915              		.fpu neon
 917              	_ZN6tflite14ComputeOutSizeE13TfLitePaddingiiii:
 918              		.fnstart
 919              	.LFB6227:
 920              		@ args = 4, pretend = 0, frame = 0
 921              		@ frame_needed = 0, uses_anonymous_args = 0
 922 0000 010050E3 		cmp	r0, #1
 923 0004 01C0A0E1 		mov	ip, r1
 924 0008 10402DE9 		push	{r4, lr}
 925 000c 0310A0E1 		mov	r1, r3
 926 0010 0300000A 		beq	.L113
 927 0014 020050E3 		cmp	r0, #2
 928 0018 0500000A 		beq	.L114
 929 001c 0000A0E3 		mov	r0, #0
 930 0020 1080BDE8 		pop	{r4, pc}
 931              	.L113:
 932 0024 03008CE0 		add	r0, ip, r3
 933 0028 010040E2 		sub	r0, r0, #1
 934              	.L118:
 935 002c FEFFFFEB 		bl	__aeabi_idiv
 936 0030 1080BDE8 		pop	{r4, pc}
 937              	.L114:
 938 0034 08009DE5 		ldr	r0, [sp, #8]
 939 0038 012042E2 		sub	r2, r2, #1
 940 003c 03C08CE0 		add	ip, ip, r3
 941 0040 900200E0 		mul	r0, r0, r2
 942 0044 010080E2 		add	r0, r0, #1
 943 0048 00004CE0 		sub	r0, ip, r0
 944 004c F6FFFFEA 		b	.L118
 945              		.cantunwind
 946              		.fnend
 948              		.section	.text._ZN6tflite3ops5micro26Register_DEPTHWISE_CONV_2DEv,"ax",%progbits
 949              		.align	2
 950              		.global	_ZN6tflite3ops5micro26Register_DEPTHWISE_CONV_2DEv
 951              		.syntax unified
 952              		.arm
 953              		.fpu neon
 955              	_ZN6tflite3ops5micro26Register_DEPTHWISE_CONV_2DEv:
 956              		.fnstart
 957              	.LFB6237:
 958              		@ args = 0, pretend = 0, frame = 0
 959              		@ frame_needed = 0, uses_anonymous_args = 0
 960              		@ link register save eliminated.
 961 0000 20009FE5 		ldr	r0, .L120
 962 0004 20309FE5 		ldr	r3, .L120+4
 963 0008 003080E5 		str	r3, [r0]
 964 000c 1C309FE5 		ldr	r3, .L120+8
 965 0010 043080E5 		str	r3, [r0, #4]
 966 0014 18309FE5 		ldr	r3, .L120+12
 967 0018 083080E5 		str	r3, [r0, #8]
 968 001c 14309FE5 		ldr	r3, .L120+16
 969 0020 0C3080E5 		str	r3, [r0, #12]
 970 0024 1EFF2FE1 		bx	lr
 971              	.L121:
 972              		.align	2
 973              	.L120:
 974 0028 00000000 		.word	.LANCHOR1
 975 002c 00000000 		.word	_ZN6tflite3ops5micro14depthwise_conv4InitEP13TfLiteContextPKcj
 976 0030 00000000 		.word	_ZN6tflite3ops5micro14depthwise_conv4FreeEP13TfLiteContextPv
 977 0034 00000000 		.word	_ZN6tflite3ops5micro14depthwise_conv7PrepareEP13TfLiteContextP10TfLiteNode
 978 0038 00000000 		.word	_ZN6tflite3ops5micro14depthwise_conv4EvalEP13TfLiteContextP10TfLiteNode
 979              		.cantunwind
 980              		.fnend
 982              		.section	.text._ZN6tflite13reference_ops14depthwise_conv24DepthwiseConvBasicKernelILNS_27Depthwise
 983              		.align	2
 984              		.weak	_ZN6tflite13reference_ops14depthwise_conv24DepthwiseConvBasicKernelILNS_27DepthwiseConvOutpu
 985              		.syntax unified
 986              		.arm
 987              		.fpu neon
 989              	_ZN6tflite13reference_ops14depthwise_conv24DepthwiseConvBasicKernelILNS_27DepthwiseConvOutputRoundi
 990              		.fnstart
 991              	.LFB6262:
 992              		@ args = 20, pretend = 0, frame = 136
 993              		@ frame_needed = 0, uses_anonymous_args = 0
 994 0000 F04F2DE9 		push	{r4, r5, r6, r7, r8, r9, r10, fp, lr}
 995              		.save {r4, r5, r6, r7, r8, r9, r10, fp, lr}
 996 0004 03A0A0E1 		mov	r10, r3
 997 0008 FA30D0E1 		ldrsh	r3, [r0, #10]
 998              		.pad #148
 999 000c 94D04DE2 		sub	sp, sp, #148
 1000 0010 8C208DE5 		str	r2, [sp, #140]
 1001 0014 38308DE5 		str	r3, [sp, #56]
 1002 0018 FC30D0E1 		ldrsh	r3, [r0, #12]
 1003 001c 3C308DE5 		str	r3, [sp, #60]
 1004 0020 FE30D0E1 		ldrsh	r3, [r0, #14]
 1005 0024 40308DE5 		str	r3, [sp, #64]
 1006 0028 F031D0E1 		ldrsh	r3, [r0, #16]
 1007 002c 44308DE5 		str	r3, [sp, #68]
 1008 0030 F230D0E1 		ldrsh	r3, [r0, #2]
 1009 0034 48308DE5 		str	r3, [sp, #72]
 1010 0038 F430D0E1 		ldrsh	r3, [r0, #4]
 1011 003c 4C308DE5 		str	r3, [sp, #76]
 1012 0040 F231D0E1 		ldrsh	r3, [r0, #18]
 1013 0044 1C308DE5 		str	r3, [sp, #28]
 1014 0048 283090E5 		ldr	r3, [r0, #40]
 1015 004c 20308DE5 		str	r3, [sp, #32]
 1016 0050 2C3090E5 		ldr	r3, [r0, #44]
 1017 0054 24308DE5 		str	r3, [sp, #36]
 1018 0058 143090E5 		ldr	r3, [r0, #20]
 1019 005c 50308DE5 		str	r3, [sp, #80]
 1020 0060 183090E5 		ldr	r3, [r0, #24]
 1021 0064 54308DE5 		str	r3, [sp, #84]
 1022 0068 1C3090E5 		ldr	r3, [r0, #28]
 1023 006c 58308DE5 		str	r3, [sp, #88]
 1024 0070 203090E5 		ldr	r3, [r0, #32]
 1025 0074 5C308DE5 		str	r3, [sp, #92]
 1026 0078 243090E5 		ldr	r3, [r0, #36]
 1027 007c 60308DE5 		str	r3, [sp, #96]
 1028 0080 003091E5 		ldr	r3, [r1]
 1029 0084 040053E3 		cmp	r3, #4
 1030 0088 0000000A 		beq	.L123
 1031              	.L124:
 1032 008c FEFFFFEB 		bl	abort
 1033              	.L123:
 1034 0090 00309AE5 		ldr	r3, [r10]
 1035 0094 040053E3 		cmp	r3, #4
 1036 0098 FBFFFF1A 		bne	.L124
 1037 009c C4309DE5 		ldr	r3, [sp, #196]
 1038 00a0 003093E5 		ldr	r3, [r3]
 1039 00a4 040053E3 		cmp	r3, #4
 1040 00a8 F7FFFF1A 		bne	.L124
 1041 00ac 20309DE5 		ldr	r3, [sp, #32]
 1042 00b0 24209DE5 		ldr	r2, [sp, #36]
 1043 00b4 020053E1 		cmp	r3, r2
 1044 00b8 F3FFFFCA 		bgt	.L124
 1045 00bc 0190A0E1 		mov	r9, r1
 1046 00c0 0030A0E3 		mov	r3, #0
 1047 00c4 0310A0E1 		mov	r1, r3
 1048 00c8 C4209DE5 		ldr	r2, [sp, #196]
 1049 00cc 0900A0E1 		mov	r0, r9
 1050 00d0 FEFFFFEB 		bl	_ZN6tflite11MatchingDimERKNS_12RuntimeShapeEiS2_i
 1051 00d4 0330A0E3 		mov	r3, #3
 1052 00d8 C4209DE5 		ldr	r2, [sp, #196]
 1053 00dc 0310A0E1 		mov	r1, r3
 1054 00e0 64008DE5 		str	r0, [sp, #100]
 1055 00e4 0A00A0E1 		mov	r0, r10
 1056 00e8 FEFFFFEB 		bl	_ZN6tflite11MatchingDimERKNS_12RuntimeShapeEiS2_i
 1057 00ec 0110A0E3 		mov	r1, #1
 1058 00f0 0040A0E1 		mov	r4, r0
 1059 00f4 0900A0E1 		mov	r0, r9
 1060 00f8 FEFFFFEB 		bl	_ZNK6tflite12RuntimeShape4DimsEi
 1061 00fc 0210A0E3 		mov	r1, #2
 1062 0100 68008DE5 		str	r0, [sp, #104]
 1063 0104 0900A0E1 		mov	r0, r9
 1064 0108 FEFFFFEB 		bl	_ZNK6tflite12RuntimeShape4DimsEi
 1065 010c 0310A0E3 		mov	r1, #3
 1066 0110 6C008DE5 		str	r0, [sp, #108]
 1067 0114 0900A0E1 		mov	r0, r9
 1068 0118 FEFFFFEB 		bl	_ZNK6tflite12RuntimeShape4DimsEi
 1069 011c 0110A0E3 		mov	r1, #1
 1070 0120 30008DE5 		str	r0, [sp, #48]
 1071 0124 0A00A0E1 		mov	r0, r10
 1072 0128 FEFFFFEB 		bl	_ZNK6tflite12RuntimeShape4DimsEi
 1073 012c 0210A0E3 		mov	r1, #2
 1074 0130 70008DE5 		str	r0, [sp, #112]
 1075 0134 0A00A0E1 		mov	r0, r10
 1076 0138 FEFFFFEB 		bl	_ZNK6tflite12RuntimeShape4DimsEi
 1077 013c 0110A0E3 		mov	r1, #1
 1078 0140 74008DE5 		str	r0, [sp, #116]
 1079 0144 C4009DE5 		ldr	r0, [sp, #196]
 1080 0148 FEFFFFEB 		bl	_ZNK6tflite12RuntimeShape4DimsEi
 1081 014c 0210A0E3 		mov	r1, #2
 1082 0150 78008DE5 		str	r0, [sp, #120]
 1083 0154 C4009DE5 		ldr	r0, [sp, #196]
 1084 0158 FEFFFFEB 		bl	_ZNK6tflite12RuntimeShape4DimsEi
 1085 015c 30309DE5 		ldr	r3, [sp, #48]
 1086 0160 1C209DE5 		ldr	r2, [sp, #28]
 1087 0164 7C008DE5 		str	r0, [sp, #124]
 1088 0168 930203E0 		mul	r3, r3, r2
 1089 016c 030054E1 		cmp	r4, r3
 1090 0170 C5FFFF1A 		bne	.L124
 1091 0174 BC009DE5 		ldr	r0, [sp, #188]
 1092 0178 FEFFFFEB 		bl	_ZNK6tflite12RuntimeShape8FlatSizeEv
 1093 017c 000054E1 		cmp	r4, r0
 1094 0180 C1FFFF1A 		bne	.L124
 1095 0184 00B0A0E3 		mov	fp, #0
 1096              	.L140:
 1097 0188 64309DE5 		ldr	r3, [sp, #100]
 1098 018c 03005BE1 		cmp	fp, r3
 1099 0190 940000AA 		bge	.L122
 1100 0194 4C309DE5 		ldr	r3, [sp, #76]
 1101 0198 003063E2 		rsb	r3, r3, #0
 1102 019c 2C308DE5 		str	r3, [sp, #44]
 1103 01a0 0030A0E3 		mov	r3, #0
 1104 01a4 08308DE5 		str	r3, [sp, #8]
 1105              	.L139:
 1106 01a8 08309DE5 		ldr	r3, [sp, #8]
 1107 01ac 78209DE5 		ldr	r2, [sp, #120]
 1108 01b0 020053E1 		cmp	r3, r2
 1109 01b4 890000AA 		bge	.L126
 1110 01b8 48309DE5 		ldr	r3, [sp, #72]
 1111 01bc 003063E2 		rsb	r3, r3, #0
 1112 01c0 28308DE5 		str	r3, [sp, #40]
 1113 01c4 0030A0E3 		mov	r3, #0
 1114 01c8 0C308DE5 		str	r3, [sp, #12]
 1115              	.L138:
 1116 01cc 0C309DE5 		ldr	r3, [sp, #12]
 1117 01d0 7C209DE5 		ldr	r2, [sp, #124]
 1118 01d4 020053E1 		cmp	r3, r2
 1119 01d8 780000AA 		bge	.L127
 1120 01dc 0050A0E3 		mov	r5, #0
 1121 01e0 10508DE5 		str	r5, [sp, #16]
 1122              	.L137:
 1123 01e4 10309DE5 		ldr	r3, [sp, #16]
 1124 01e8 30209DE5 		ldr	r2, [sp, #48]
 1125 01ec 020053E1 		cmp	r3, r2
 1126 01f0 6A0000AA 		bge	.L128
 1127 01f4 C0309DE5 		ldr	r3, [sp, #192]
 1128 01f8 0060A0E3 		mov	r6, #0
 1129 01fc 053183E0 		add	r3, r3, r5, lsl #2
 1130 0200 88308DE5 		str	r3, [sp, #136]
 1131              	.L136:
 1132 0204 1C309DE5 		ldr	r3, [sp, #28]
 1133 0208 030056E1 		cmp	r6, r3
 1134 020c 5D0000AA 		bge	.L129
 1135 0210 2C709DE5 		ldr	r7, [sp, #44]
 1136 0214 053086E0 		add	r3, r6, r5
 1137 0218 0040A0E3 		mov	r4, #0
 1138 021c 34308DE5 		str	r3, [sp, #52]
 1139 0220 14408DE5 		str	r4, [sp, #20]
 1140              	.L134:
 1141 0224 14309DE5 		ldr	r3, [sp, #20]
 1142 0228 70209DE5 		ldr	r2, [sp, #112]
 1143 022c 020053E1 		cmp	r3, r2
 1144 0230 380000AA 		bge	.L130
 1145 0234 68309DE5 		ldr	r3, [sp, #104]
 1146 0238 28809DE5 		ldr	r8, [sp, #40]
 1147 023c 000057E3 		cmp	r7, #0
 1148 0240 070053A1 		cmpge	r3, r7
 1149 0244 0130A0C3 		movgt	r3, #1
 1150 0248 0030A0D3 		movle	r3, #0
 1151 024c 80308DE5 		str	r3, [sp, #128]
 1152 0250 0030A0E3 		mov	r3, #0
 1153 0254 18308DE5 		str	r3, [sp, #24]
 1154              	.L133:
 1155 0258 18309DE5 		ldr	r3, [sp, #24]
 1156 025c 74209DE5 		ldr	r2, [sp, #116]
 1157 0260 020053E1 		cmp	r3, r2
 1158 0264 250000AA 		bge	.L131
 1159 0268 6C309DE5 		ldr	r3, [sp, #108]
 1160 026c 000058E3 		cmp	r8, #0
 1161 0270 080053A1 		cmpge	r3, r8
 1162 0274 1B0000DA 		ble	.L132
 1163 0278 80309DE5 		ldr	r3, [sp, #128]
 1164 027c 000053E3 		cmp	r3, #0
 1165 0280 1800000A 		beq	.L132
 1166 0284 10309DE5 		ldr	r3, [sp, #16]
 1167 0288 0720A0E1 		mov	r2, r7
 1168 028c 0B10A0E1 		mov	r1, fp
 1169 0290 0900A0E1 		mov	r0, r9
 1170 0294 00308DE5 		str	r3, [sp]
 1171 0298 0830A0E1 		mov	r3, r8
 1172 029c FEFFFFEB 		bl	_ZN6tflite6OffsetERKNS_12RuntimeShapeEiiii
 1173 02a0 8C309DE5 		ldr	r3, [sp, #140]
 1174 02a4 0010A0E3 		mov	r1, #0
 1175 02a8 14209DE5 		ldr	r2, [sp, #20]
 1176 02ac 0030D3E7 		ldrb	r3, [r3, r0]	@ zero_extendqisi2
 1177 02b0 0A00A0E1 		mov	r0, r10
 1178 02b4 84308DE5 		str	r3, [sp, #132]
 1179 02b8 34309DE5 		ldr	r3, [sp, #52]
 1180 02bc 00308DE5 		str	r3, [sp]
 1181 02c0 18309DE5 		ldr	r3, [sp, #24]
 1182 02c4 FEFFFFEB 		bl	_ZN6tflite6OffsetERKNS_12RuntimeShapeEiiii
 1183 02c8 B8309DE5 		ldr	r3, [sp, #184]
 1184 02cc 54209DE5 		ldr	r2, [sp, #84]
 1185 02d0 84109DE5 		ldr	r1, [sp, #132]
 1186 02d4 0030D3E7 		ldrb	r3, [r3, r0]	@ zero_extendqisi2
 1187 02d8 023083E0 		add	r3, r3, r2
 1188 02dc 50209DE5 		ldr	r2, [sp, #80]
 1189 02e0 012082E0 		add	r2, r2, r1
 1190 02e4 924324E0 		mla	r4, r2, r3, r4
 1191              	.L132:
 1192 02e8 18309DE5 		ldr	r3, [sp, #24]
 1193 02ec 013083E2 		add	r3, r3, #1
 1194 02f0 18308DE5 		str	r3, [sp, #24]
 1195 02f4 40309DE5 		ldr	r3, [sp, #64]
 1196 02f8 038088E0 		add	r8, r8, r3
 1197 02fc D5FFFFEA 		b	.L133
 1198              	.L131:
 1199 0300 14309DE5 		ldr	r3, [sp, #20]
 1200 0304 013083E2 		add	r3, r3, #1
 1201 0308 14308DE5 		str	r3, [sp, #20]
 1202 030c 44309DE5 		ldr	r3, [sp, #68]
 1203 0310 037087E0 		add	r7, r7, r3
 1204 0314 C2FFFFEA 		b	.L134
 1205              	.L130:
 1206 0318 C0309DE5 		ldr	r3, [sp, #192]
 1207 031c 60209DE5 		ldr	r2, [sp, #96]
 1208 0320 5C109DE5 		ldr	r1, [sp, #92]
 1209 0324 000053E3 		cmp	r3, #0
 1210 0328 88309D15 		ldrne	r3, [sp, #136]
 1211 032c 06319317 		ldrne	r3, [r3, r6, lsl #2]
 1212 0330 016086E2 		add	r6, r6, #1
 1213 0334 03408410 		addne	r4, r4, r3
 1214 0338 0400A0E1 		mov	r0, r4
 1215 033c FEFFFFEB 		bl	_ZN6tflite29MultiplyByQuantizedMultiplierElli
 1216 0340 58309DE5 		ldr	r3, [sp, #88]
 1217 0344 0B10A0E1 		mov	r1, fp
 1218 0348 08209DE5 		ldr	r2, [sp, #8]
 1219 034c 004083E0 		add	r4, r3, r0
 1220 0350 20309DE5 		ldr	r3, [sp, #32]
 1221 0354 C4009DE5 		ldr	r0, [sp, #196]
 1222 0358 030054E1 		cmp	r4, r3
 1223 035c 0340A0B1 		movlt	r4, r3
 1224 0360 24309DE5 		ldr	r3, [sp, #36]
 1225 0364 030054E1 		cmp	r4, r3
 1226 0368 0340A0A1 		movge	r4, r3
 1227 036c 34309DE5 		ldr	r3, [sp, #52]
 1228 0370 00308DE5 		str	r3, [sp]
 1229 0374 0C309DE5 		ldr	r3, [sp, #12]
 1230 0378 FEFFFFEB 		bl	_ZN6tflite6OffsetERKNS_12RuntimeShapeEiiii
 1231 037c C8309DE5 		ldr	r3, [sp, #200]
 1232 0380 0040C3E7 		strb	r4, [r3, r0]
 1233 0384 9EFFFFEA 		b	.L136
 1234              	.L129:
 1235 0388 10309DE5 		ldr	r3, [sp, #16]
 1236 038c 013083E2 		add	r3, r3, #1
 1237 0390 10308DE5 		str	r3, [sp, #16]
 1238 0394 1C309DE5 		ldr	r3, [sp, #28]
 1239 0398 035085E0 		add	r5, r5, r3
 1240 039c 90FFFFEA 		b	.L137
 1241              	.L128:
 1242 03a0 0C309DE5 		ldr	r3, [sp, #12]
 1243 03a4 38209DE5 		ldr	r2, [sp, #56]
 1244 03a8 013083E2 		add	r3, r3, #1
 1245 03ac 0C308DE5 		str	r3, [sp, #12]
 1246 03b0 28309DE5 		ldr	r3, [sp, #40]
 1247 03b4 023083E0 		add	r3, r3, r2
 1248 03b8 28308DE5 		str	r3, [sp, #40]
 1249 03bc 82FFFFEA 		b	.L138
 1250              	.L127:
 1251 03c0 08309DE5 		ldr	r3, [sp, #8]
 1252 03c4 3C209DE5 		ldr	r2, [sp, #60]
 1253 03c8 013083E2 		add	r3, r3, #1
 1254 03cc 08308DE5 		str	r3, [sp, #8]
 1255 03d0 2C309DE5 		ldr	r3, [sp, #44]
 1256 03d4 023083E0 		add	r3, r3, r2
 1257 03d8 2C308DE5 		str	r3, [sp, #44]
 1258 03dc 71FFFFEA 		b	.L139
 1259              	.L126:
 1260 03e0 01B08BE2 		add	fp, fp, #1
 1261 03e4 67FFFFEA 		b	.L140
 1262              	.L122:
 1263 03e8 94D08DE2 		add	sp, sp, #148
 1264              		@ sp needed
 1265 03ec F08FBDE8 		pop	{r4, r5, r6, r7, r8, r9, r10, fp, pc}
 1266              		.fnend
 1268              		.section	.text._ZN6tflite3ops5micro14depthwise_conv4EvalEP13TfLiteContextP10TfLiteNode,"ax",%progb
 1269              		.align	2
 1270              		.global	_ZN6tflite3ops5micro14depthwise_conv4EvalEP13TfLiteContextP10TfLiteNode
 1271              		.syntax unified
 1272              		.arm
 1273              		.fpu neon
 1275              	_ZN6tflite3ops5micro14depthwise_conv4EvalEP13TfLiteContextP10TfLiteNode:
 1276              		.fnstart
 1277              	.LFB6236:
 1278              		@ args = 0, pretend = 0, frame = 2280
 1279              		@ frame_needed = 0, uses_anonymous_args = 0
 1280 0000 F04F2DE9 		push	{r4, r5, r6, r7, r8, r9, r10, fp, lr}
 1281              		.save {r4, r5, r6, r7, r8, r9, r10, fp, lr}
 1282              		.pad #2320
 1283 0004 91DE4DE2 		sub	sp, sp, #2320
 1284 0008 00A091E5 		ldr	r10, [r1]
 1285              		.pad #4
 1286 000c 04D04DE2 		sub	sp, sp, #4
 1287 0010 0060A0E1 		mov	r6, r0
 1288 0014 08B090E5 		ldr	fp, [r0, #8]
 1289 0018 04309AE5 		ldr	r3, [r10, #4]
 1290 001c 08809AE5 		ldr	r8, [r10, #8]
 1291 0020 34308DE5 		str	r3, [sp, #52]
 1292 0024 03938BE0 		add	r9, fp, r3, lsl #6
 1293 0028 00309AE5 		ldr	r3, [r10]
 1294 002c 08838BE0 		add	r8, fp, r8, lsl #6
 1295 0030 030053E3 		cmp	r3, #3
 1296 0034 38308DE5 		str	r3, [sp, #56]
 1297 0038 34309DE5 		ldr	r3, [sp, #52]
 1298 003c 0040A013 		movne	r4, #0
 1299 0040 0C409A05 		ldreq	r4, [r10, #12]
 1300 0044 0333DBE7 		ldrb	r3, [fp, r3, lsl #6]	@ zero_extendqisi2
 1301 0048 04438B00 		addeq	r4, fp, r4, lsl #6
 1302 004c 3C308DE5 		str	r3, [sp, #60]
 1303 0050 083098E5 		ldr	r3, [r8, #8]
 1304 0054 2C308DE5 		str	r3, [sp, #44]
 1305 0058 3C309DE5 		ldr	r3, [sp, #60]
 1306 005c 090053E3 		cmp	r3, #9
 1307 0060 4800001A 		bne	.L153
 1308 0064 3050D8E5 		ldrb	r5, [r8, #48]	@ zero_extendqisi2
 1309 0068 010055E3 		cmp	r5, #1
 1310 006c 0D00000A 		beq	.L154
 1311 0070 00379FE5 		ldr	r3, .L224+12
 1312 0074 0140A0E3 		mov	r4, #1
 1313 0078 0C408DE5 		str	r4, [sp, #12]
 1314 007c 08508DE5 		str	r5, [sp, #8]
 1315 0080 04308DE5 		str	r3, [sp, #4]
 1316 0084 F0369FE5 		ldr	r3, .L224+16
 1317 0088 F0269FE5 		ldr	r2, .L224+20
 1318 008c F0169FE5 		ldr	r1, .L224+24
 1319 0090 00308DE5 		str	r3, [sp]
 1320 0094 DE30A0E3 		mov	r3, #222
 1321 0098 145090E5 		ldr	r5, [r0, #20]
 1322              	.LEHB0:
 1323 009c 35FF2FE1 		blx	r5
 1324              	.L188:
 1325 00a0 0150A0E3 		mov	r5, #1
 1326 00a4 0A0000EA 		b	.L214
 1327              	.L154:
 1328 00a8 343098E5 		ldr	r3, [r8, #52]
 1329 00ac 000053E3 		cmp	r3, #0
 1330 00b0 0B00001A 		bne	.L156
 1331 00b4 CC369FE5 		ldr	r3, .L224+28
 1332 00b8 00308DE5 		str	r3, [sp]
 1333 00bc E330A0E3 		mov	r3, #227
 1334 00c0 144090E5 		ldr	r4, [r0, #20]
 1335              	.L220:
 1336 00c4 B4269FE5 		ldr	r2, .L224+20
 1337 00c8 0600A0E1 		mov	r0, r6
 1338 00cc B8169FE5 		ldr	r1, .L224+32
 1339 00d0 34FF2FE1 		blx	r4
 1340              	.L214:
 1341 00d4 0500A0E1 		mov	r0, r5
 1342 00d8 91DE8DE2 		add	sp, sp, #2320
 1343 00dc 04D08DE2 		add	sp, sp, #4
 1344              		@ sp needed
 1345 00e0 F08FBDE8 		pop	{r4, r5, r6, r7, r8, r9, r10, fp, pc}
 1346              	.L156:
 1347 00e4 000093E5 		ldr	r0, [r3]
 1348 00e8 000050E3 		cmp	r0, #0
 1349 00ec 9C369F05 		ldreq	r3, .L224+36
 1350 00f0 00308D05 		streq	r3, [sp]
 1351 00f4 E430A003 		moveq	r3, #228
 1352 00f8 14409605 		ldreq	r4, [r6, #20]
 1353 00fc F0FFFF0A 		beq	.L220
 1354              	.L157:
 1355 0100 042093E5 		ldr	r2, [r3, #4]
 1356 0104 000052E3 		cmp	r2, #0
 1357 0108 84369F05 		ldreq	r3, .L224+40
 1358 010c 00308D05 		streq	r3, [sp]
 1359 0110 E530A003 		moveq	r3, #229
 1360 0114 14409605 		ldreq	r4, [r6, #20]
 1361 0118 E9FFFF0A 		beq	.L220
 1362              	.L158:
 1363 011c 003090E5 		ldr	r3, [r0]
 1364 0120 010053E3 		cmp	r3, #1
 1365 0124 0700000A 		beq	.L159
 1366 0128 2C009DE5 		ldr	r0, [sp, #44]
 1367 012c 100090E5 		ldr	r0, [r0, #16]
 1368 0130 000053E1 		cmp	r3, r0
 1369 0134 5C369F15 		ldrne	r3, .L224+44
 1370 0138 00308D15 		strne	r3, [sp]
 1371 013c E930A013 		movne	r3, #233
 1372 0140 14409615 		ldrne	r4, [r6, #20]
 1373 0144 DEFFFF1A 		bne	.L220
 1374              	.L159:
 1375 0148 002092E5 		ldr	r2, [r2]
 1376 014c 020053E1 		cmp	r3, r2
 1377 0150 0C00000A 		beq	.L153
 1378 0154 08308DE5 		str	r3, [sp, #8]
 1379 0158 0600A0E1 		mov	r0, r6
 1380 015c 38369FE5 		ldr	r3, .L224+48
 1381 0160 0C208DE5 		str	r2, [sp, #12]
 1382 0164 18169FE5 		ldr	r1, .L224+24
 1383 0168 04308DE5 		str	r3, [sp, #4]
 1384 016c 2C369FE5 		ldr	r3, .L224+52
 1385 0170 08269FE5 		ldr	r2, .L224+20
 1386 0174 00308DE5 		str	r3, [sp]
 1387 0178 EB30A0E3 		mov	r3, #235
 1388 017c 144096E5 		ldr	r4, [r6, #20]
 1389 0180 34FF2FE1 		blx	r4
 1390 0184 C5FFFFEA 		b	.L188
 1391              	.L153:
 1392 0188 38309DE5 		ldr	r3, [sp, #56]
 1393 018c 023043E2 		sub	r3, r3, #2
 1394 0190 010053E3 		cmp	r3, #1
 1395 0194 0800009A 		bls	.L160
 1396 0198 04369FE5 		ldr	r3, .L224+56
 1397 019c 0600A0E1 		mov	r0, r6
 1398 01a0 D8259FE5 		ldr	r2, .L224+20
 1399 01a4 E0159FE5 		ldr	r1, .L224+32
 1400 01a8 00308DE5 		str	r3, [sp]
 1401 01ac 4430A0E3 		mov	r3, #68
 1402 01b0 144096E5 		ldr	r4, [r6, #20]
 1403 01b4 34FF2FE1 		blx	r4
 1404 01b8 B8FFFFEA 		b	.L188
 1405              	.L160:
 1406 01bc 043091E5 		ldr	r3, [r1, #4]
 1407 01c0 002093E5 		ldr	r2, [r3]
 1408 01c4 010052E3 		cmp	r2, #1
 1409 01c8 30208DE5 		str	r2, [sp, #48]
 1410 01cc 0D00000A 		beq	.L161
 1411 01d0 D0359FE5 		ldr	r3, .L224+60
 1412 01d4 0150A0E3 		mov	r5, #1
 1413 01d8 08208DE5 		str	r2, [sp, #8]
 1414 01dc 0600A0E1 		mov	r0, r6
 1415 01e0 0C508DE5 		str	r5, [sp, #12]
 1416 01e4 04308DE5 		str	r3, [sp, #4]
 1417 01e8 BC359FE5 		ldr	r3, .L224+64
 1418 01ec 8C259FE5 		ldr	r2, .L224+20
 1419 01f0 8C159FE5 		ldr	r1, .L224+24
 1420 01f4 00308DE5 		str	r3, [sp]
 1421 01f8 4530A0E3 		mov	r3, #69
 1422 01fc 144096E5 		ldr	r4, [r6, #20]
 1423 0200 34FF2FE1 		blx	r4
 1424 0204 B2FFFFEA 		b	.L214
 1425              	.L161:
 1426 0208 047093E5 		ldr	r7, [r3, #4]
 1427 020c 083099E5 		ldr	r3, [r9, #8]
 1428 0210 145091E5 		ldr	r5, [r1, #20]
 1429 0214 0C2093E5 		ldr	r2, [r3, #12]
 1430 0218 07738BE0 		add	r7, fp, r7, lsl #6
 1431 021c 083093E5 		ldr	r3, [r3, #8]
 1432 0220 4C208DE5 		str	r2, [sp, #76]
 1433 0224 48308DE5 		str	r3, [sp, #72]
 1434 0228 2C309DE5 		ldr	r3, [sp, #44]
 1435 022c 4C109DE5 		ldr	r1, [sp, #76]
 1436 0230 0C3093E5 		ldr	r3, [r3, #12]
 1437 0234 44308DE5 		str	r3, [sp, #68]
 1438 0238 2C309DE5 		ldr	r3, [sp, #44]
 1439 023c 44209DE5 		ldr	r2, [sp, #68]
 1440 0240 083093E5 		ldr	r3, [r3, #8]
 1441 0244 40308DE5 		str	r3, [sp, #64]
 1442 0248 083095E5 		ldr	r3, [r5, #8]
 1443 024c 50308DE5 		str	r3, [sp, #80]
 1444 0250 043095E5 		ldr	r3, [r5, #4]
 1445 0254 54308DE5 		str	r3, [sp, #84]
 1446 0258 0030D5E5 		ldrb	r3, [r5]	@ zero_extendqisi2
 1447 025c 58308DE5 		str	r3, [sp, #88]
 1448 0260 30309DE5 		ldr	r3, [sp, #48]
 1449 0264 58009DE5 		ldr	r0, [sp, #88]
 1450 0268 00308DE5 		str	r3, [sp]
 1451 026c 54309DE5 		ldr	r3, [sp, #84]
 1452 0270 FEFFFFEB 		bl	_ZN6tflite14ComputeOutSizeE13TfLitePaddingiiii
 1453 0274 30309DE5 		ldr	r3, [sp, #48]
 1454 0278 40209DE5 		ldr	r2, [sp, #64]
 1455 027c 48109DE5 		ldr	r1, [sp, #72]
 1456 0280 5C008DE5 		str	r0, [sp, #92]
 1457 0284 00308DE5 		str	r3, [sp]
 1458 0288 58009DE5 		ldr	r0, [sp, #88]
 1459 028c 50309DE5 		ldr	r3, [sp, #80]
 1460 0290 FEFFFFEB 		bl	_ZN6tflite14ComputeOutSizeE13TfLitePaddingiiii
 1461 0294 50309DE5 		ldr	r3, [sp, #80]
 1462 0298 010040E2 		sub	r0, r0, #1
 1463 029c 40209DE5 		ldr	r2, [sp, #64]
 1464 02a0 44109DE5 		ldr	r1, [sp, #68]
 1465 02a4 932020E0 		mla	r0, r3, r0, r2
 1466 02a8 48309DE5 		ldr	r3, [sp, #72]
 1467 02ac 54209DE5 		ldr	r2, [sp, #84]
 1468 02b0 030040E0 		sub	r0, r0, r3
 1469 02b4 5C309DE5 		ldr	r3, [sp, #92]
 1470 02b8 C00FC0E1 		bic	r0, r0, r0, asr #31
 1471 02bc 013043E2 		sub	r3, r3, #1
 1472 02c0 921323E0 		mla	r3, r2, r3, r1
 1473 02c4 4C209DE5 		ldr	r2, [sp, #76]
 1474 02c8 023043E0 		sub	r3, r3, r2
 1475 02cc C33FC3E1 		bic	r3, r3, r3, asr #31
 1476 02d0 C320A0E1 		asr	r2, r3, #1
 1477 02d4 013003E2 		and	r3, r3, #1
 1478 02d8 F8308DE5 		str	r3, [sp, #248]
 1479 02dc 3C309DE5 		ldr	r3, [sp, #60]
 1480 02e0 F0208DE5 		str	r2, [sp, #240]
 1481 02e4 C020A0E1 		asr	r2, r0, #1
 1482 02e8 010000E2 		and	r0, r0, #1
 1483 02ec 010053E3 		cmp	r3, #1
 1484 02f0 F4208DE5 		str	r2, [sp, #244]
 1485 02f4 FC008DE5 		str	r0, [sp, #252]
 1486 02f8 2200000A 		beq	.L162
 1487 02fc 38309DE5 		ldr	r3, [sp, #56]
 1488 0300 030053E3 		cmp	r3, #3
 1489 0304 0300001A 		bne	.L187
 1490 0308 0C309AE5 		ldr	r3, [r10, #12]
 1491 030c 010073E3 		cmn	r3, #1
 1492 0310 03338B10 		addne	r3, fp, r3, lsl #6
 1493 0314 0000001A 		bne	.L163
 1494              	.L187:
 1495 0318 0030A0E3 		mov	r3, #0
 1496              	.L163:
 1497 031c 2C209DE5 		ldr	r2, [sp, #44]
 1498 0320 0910A0E1 		mov	r1, r9
 1499 0324 0600A0E1 		mov	r0, r6
 1500 0328 102092E5 		ldr	r2, [r2, #16]
 1501 032c 00708DE5 		str	r7, [sp]
 1502 0330 20208DE5 		str	r2, [sp, #32]
 1503 0334 052C8DE2 		add	r2, sp, #1280
 1504 0338 082082E2 		add	r2, r2, #8
 1505 033c 1C208DE5 		str	r2, [sp, #28]
 1506 0340 422F8DE2 		add	r2, sp, #264
 1507 0344 18208DE5 		str	r2, [sp, #24]
 1508 0348 092C8DE2 		add	r2, sp, #2304
 1509 034c 0C2082E2 		add	r2, r2, #12
 1510 0350 14208DE5 		str	r2, [sp, #20]
 1511 0354 092C8DE2 		add	r2, sp, #2304
 1512 0358 082082E2 		add	r2, r2, #8
 1513 035c 10208DE5 		str	r2, [sp, #16]
 1514 0360 412F8DE2 		add	r2, sp, #260
 1515 0364 0C208DE5 		str	r2, [sp, #12]
 1516 0368 012C8DE2 		add	r2, sp, #256
 1517 036c 08208DE5 		str	r2, [sp, #8]
 1518 0370 102085E2 		add	r2, r5, #16
 1519 0374 04208DE5 		str	r2, [sp, #4]
 1520 0378 0820A0E1 		mov	r2, r8
 1521 037c FEFFFFEB 		bl	_ZN6tflite37PopulateConvolutionQuantizationParamsEP13TfLiteContextPK12TfLiteTensorS4_S4_PS2_RK2
 1522 0380 000050E3 		cmp	r0, #0
 1523 0384 45FFFF1A 		bne	.L188
 1524              	.L162:
 1525 0388 34309DE5 		ldr	r3, [sp, #52]
 1526 038c 0303DBE7 		ldrb	r0, [fp, r3, lsl #6]	@ zero_extendqisi2
 1527 0390 030050E3 		cmp	r0, #3
 1528 0394 A200000A 		beq	.L179
 1529 0398 090050E3 		cmp	r0, #9
 1530 039c 5000000A 		beq	.L173
 1531 03a0 010050E3 		cmp	r0, #1
 1532 03a4 E700001A 		bne	.L215
 1533 03a8 1030D5E5 		ldrb	r3, [r5, #16]	@ zero_extendqisi2
 1534 03ac 010053E3 		cmp	r3, #1
 1535 03b0 2300000A 		beq	.L189
 1536 03b4 030053E3 		cmp	r3, #3
 1537 03b8 2400000A 		beq	.L190
 1538 03bc EA7A9FED 		vldr.32	s14, .L224
 1539 03c0 020053E3 		cmp	r3, #2
 1540 03c4 007AF7EE 		vmov.f32	s15, #1.0e+0
 1541 03c8 E86ADFED 		vldr.32	s13, .L224+4
 1542 03cc 477AF01E 		vmovne.f32	s15, s14
 1543 03d0 007ABFEE 		vmov.f32	s14, #-1.0e+0
 1544 03d4 667AB01E 		vmovne.f32	s14, s13
 1545              	.L166:
 1546 03d8 916E8DE2 		add	r6, sp, #2320
 1547 03dc 0130A0E3 		mov	r3, #1
 1548 03e0 603866E5 		strb	r3, [r6, #-2144]!
 1549 03e4 0910A0E1 		mov	r1, r9
 1550 03e8 F0309DE5 		ldr	r3, [sp, #240]
 1551 03ec 60008DE2 		add	r0, sp, #96
 1552 03f0 B230C6E1 		strh	r3, [r6, #2]	@ movhi
 1553 03f4 F4309DE5 		ldr	r3, [sp, #244]
 1554 03f8 B430C6E1 		strh	r3, [r6, #4]	@ movhi
 1555 03fc 043095E5 		ldr	r3, [r5, #4]
 1556 0400 BA30C6E1 		strh	r3, [r6, #10]	@ movhi
 1557 0404 083095E5 		ldr	r3, [r5, #8]
 1558 0408 BC30C6E1 		strh	r3, [r6, #12]	@ movhi
 1559 040c 143095E5 		ldr	r3, [r5, #20]
 1560 0410 BE30C6E1 		strh	r3, [r6, #14]	@ movhi
 1561 0414 183095E5 		ldr	r3, [r5, #24]
 1562 0418 B031C6E1 		strh	r3, [r6, #16]	@ movhi
 1563 041c 0C3095E5 		ldr	r3, [r5, #12]
 1564 0420 0C7A86ED 		vstr.32	s14, [r6, #48]
 1565 0424 0D7AC6ED 		vstr.32	s15, [r6, #52]
 1566 0428 B231C6E1 		strh	r3, [r6, #18]	@ movhi
 1567 042c FEFFFFEB 		bl	_ZN6tflite14GetTensorShapeEPK12TfLiteTensor
 1568              	.LEHE0:
 1569 0430 0810A0E1 		mov	r1, r8
 1570 0434 74008DE2 		add	r0, sp, #116
 1571 0438 049099E5 		ldr	r9, [r9, #4]
 1572              	.LEHB1:
 1573 043c FEFFFFEB 		bl	_ZN6tflite14GetTensorShapeEPK12TfLiteTensor
 1574              	.LEHE1:
 1575 0440 040000EA 		b	.L223
 1576              	.L189:
 1577 0444 C87ADFED 		vldr.32	s15, .L224
 1578              	.L217:
 1579 0448 C97A9FED 		vldr.32	s14, .L224+8
 1580 044c E1FFFFEA 		b	.L166
 1581              	.L190:
 1582 0450 087AF1EE 		vmov.f32	s15, #6.0e+0
 1583 0454 FBFFFFEA 		b	.L217
 1584              	.L223:
 1585 0458 04A098E5 		ldr	r10, [r8, #4]
 1586 045c 88808DE2 		add	r8, sp, #136
 1587 0460 0410A0E1 		mov	r1, r4
 1588 0464 0800A0E1 		mov	r0, r8
 1589              	.LEHB2:
 1590 0468 FEFFFFEB 		bl	_ZN6tflite14GetTensorShapeEPK12TfLiteTensor
 1591              	.LEHE2:
 1592 046c 9C508DE2 		add	r5, sp, #156
 1593 0470 000054E3 		cmp	r4, #0
 1594 0474 0710A0E1 		mov	r1, r7
 1595 0478 0500A0E1 		mov	r0, r5
 1596 047c 04409415 		ldrne	r4, [r4, #4]
 1597              	.LEHB3:
 1598 0480 FEFFFFEB 		bl	_ZN6tflite14GetTensorShapeEPK12TfLiteTensor
 1599              	.LEHE3:
 1600 0484 000057E3 		cmp	r7, #0
 1601 0488 74308DE2 		add	r3, sp, #116
 1602 048c 04709715 		ldrne	r7, [r7, #4]
 1603 0490 0920A0E1 		mov	r2, r9
 1604 0494 0C508DE5 		str	r5, [sp, #12]
 1605 0498 60108DE2 		add	r1, sp, #96
 1606 049c 08408DE5 		str	r4, [sp, #8]
 1607 04a0 0600A0E1 		mov	r0, r6
 1608 04a4 10708DE5 		str	r7, [sp, #16]
 1609 04a8 04808DE5 		str	r8, [sp, #4]
 1610 04ac 00A08DE5 		str	r10, [sp]
 1611              	.LEHB4:
 1612 04b0 FEFFFFEB 		bl	_ZN6tflite13reference_ops13DepthwiseConvERKNS_15DepthwiseParamsERKNS_12RuntimeShapeEPKfS6_S8_S6
 1613              	.LEHE4:
 1614 04b4 990000EA 		b	.L219
 1615              	.L199:
 1616              	.L222:
 1617 04b8 0500A0E1 		mov	r0, r5
 1618 04bc FEFFFFEB 		bl	_ZN6tflite12RuntimeShapeD1Ev
 1619 04c0 FFFFFFEA 		b	.L182
 1620              	.L198:
 1621              	.L182:
 1622 04c4 0800A0E1 		mov	r0, r8
 1623 04c8 FEFFFFEB 		bl	_ZN6tflite12RuntimeShapeD1Ev
 1624 04cc FFFFFFEA 		b	.L183
 1625              	.L197:
 1626              	.L183:
 1627 04d0 74008DE2 		add	r0, sp, #116
 1628 04d4 4D0000EA 		b	.L221
 1629              	.L196:
 1630              	.L184:
 1631 04d8 60008DE2 		add	r0, sp, #96
 1632 04dc FEFFFFEB 		bl	_ZN6tflite12RuntimeShapeD1Ev
 1633              	.LEHB5:
 1634 04e0 FEFFFFEB 		bl	__cxa_end_cleanup
 1635              	.L173:
 1636 04e4 916E8DE2 		add	r6, sp, #2320
 1637 04e8 0130A0E3 		mov	r3, #1
 1638 04ec 603866E5 		strb	r3, [r6, #-2144]!
 1639 04f0 0910A0E1 		mov	r1, r9
 1640 04f4 F0309DE5 		ldr	r3, [sp, #240]
 1641 04f8 60008DE2 		add	r0, sp, #96
 1642 04fc B230C6E1 		strh	r3, [r6, #2]	@ movhi
 1643 0500 F4309DE5 		ldr	r3, [sp, #244]
 1644 0504 B430C6E1 		strh	r3, [r6, #4]	@ movhi
 1645 0508 043095E5 		ldr	r3, [r5, #4]
 1646 050c BA30C6E1 		strh	r3, [r6, #10]	@ movhi
 1647 0510 083095E5 		ldr	r3, [r5, #8]
 1648 0514 BC30C6E1 		strh	r3, [r6, #12]	@ movhi
 1649 0518 143095E5 		ldr	r3, [r5, #20]
 1650 051c BE30C6E1 		strh	r3, [r6, #14]	@ movhi
 1651 0520 183095E5 		ldr	r3, [r5, #24]
 1652 0524 B031C6E1 		strh	r3, [r6, #16]	@ movhi
 1653 0528 0C3095E5 		ldr	r3, [r5, #12]
 1654 052c 74508DE2 		add	r5, sp, #116
 1655 0530 B231C6E1 		strh	r3, [r6, #18]	@ movhi
 1656 0534 103099E5 		ldr	r3, [r9, #16]
 1657 0538 003063E2 		rsb	r3, r3, #0
 1658 053c C4308DE5 		str	r3, [sp, #196]
 1659 0540 0030A0E3 		mov	r3, #0
 1660 0544 C8308DE5 		str	r3, [sp, #200]
 1661 0548 103097E5 		ldr	r3, [r7, #16]
 1662 054c CC308DE5 		str	r3, [sp, #204]
 1663 0550 7F30E0E3 		mvn	r3, #127
 1664 0554 D8308DE5 		str	r3, [sp, #216]
 1665 0558 7F30A0E3 		mov	r3, #127
 1666 055c DC308DE5 		str	r3, [sp, #220]
 1667 0560 FEFFFFEB 		bl	_ZN6tflite14GetTensorShapeEPK12TfLiteTensor
 1668              	.LEHE5:
 1669 0564 0810A0E1 		mov	r1, r8
 1670 0568 0500A0E1 		mov	r0, r5
 1671 056c 04A099E5 		ldr	r10, [r9, #4]
 1672              	.LEHB6:
 1673 0570 FEFFFFEB 		bl	_ZN6tflite14GetTensorShapeEPK12TfLiteTensor
 1674              	.LEHE6:
 1675 0574 04B098E5 		ldr	fp, [r8, #4]
 1676 0578 88808DE2 		add	r8, sp, #136
 1677 057c 0410A0E1 		mov	r1, r4
 1678 0580 0800A0E1 		mov	r0, r8
 1679              	.LEHB7:
 1680 0584 FEFFFFEB 		bl	_ZN6tflite14GetTensorShapeEPK12TfLiteTensor
 1681              	.LEHE7:
 1682 0588 9C908DE2 		add	r9, sp, #156
 1683 058c 000054E3 		cmp	r4, #0
 1684 0590 0710A0E1 		mov	r1, r7
 1685 0594 0900A0E1 		mov	r0, r9
 1686 0598 04409415 		ldrne	r4, [r4, #4]
 1687              	.LEHB8:
 1688 059c FEFFFFEB 		bl	_ZN6tflite14GetTensorShapeEPK12TfLiteTensor
 1689              	.LEHE8:
 1690 05a0 043097E5 		ldr	r3, [r7, #4]
 1691 05a4 052C8DE2 		add	r2, sp, #1280
 1692 05a8 14908DE5 		str	r9, [sp, #20]
 1693 05ac 082082E2 		add	r2, r2, #8
 1694 05b0 10408DE5 		str	r4, [sp, #16]
 1695 05b4 421F8DE2 		add	r1, sp, #264
 1696 05b8 18308DE5 		str	r3, [sp, #24]
 1697 05bc 0600A0E1 		mov	r0, r6
 1698 05c0 0C808DE5 		str	r8, [sp, #12]
 1699 05c4 60308DE2 		add	r3, sp, #96
 1700 05c8 20088DE9 		stmib	sp, {r5, fp}
 1701 05cc 00A08DE5 		str	r10, [sp]
 1702              	.LEHB9:
 1703 05d0 FEFFFFEB 		bl	_ZN6tflite21reference_integer_ops23DepthwiseConvPerChannelERKNS_15DepthwiseParamsEPKlS5_RKNS_12
 1704              	.LEHE9:
 1705 05d4 0900A0E1 		mov	r0, r9
 1706 05d8 FEFFFFEB 		bl	_ZN6tflite12RuntimeShapeD1Ev
 1707 05dc 0800A0E1 		mov	r0, r8
 1708 05e0 FEFFFFEB 		bl	_ZN6tflite12RuntimeShapeD1Ev
 1709 05e4 0500A0E1 		mov	r0, r5
 1710              	.L218:
 1711 05e8 FEFFFFEB 		bl	_ZN6tflite12RuntimeShapeD1Ev
 1712 05ec 60008DE2 		add	r0, sp, #96
 1713 05f0 0050A0E3 		mov	r5, #0
 1714 05f4 FEFFFFEB 		bl	_ZN6tflite12RuntimeShapeD1Ev
 1715 05f8 B5FEFFEA 		b	.L214
 1716              	.L203:
 1717 05fc 0900A0E1 		mov	r0, r9
 1718 0600 FEFFFFEB 		bl	_ZN6tflite12RuntimeShapeD1Ev
 1719              	.L176:
 1720 0604 0800A0E1 		mov	r0, r8
 1721 0608 FEFFFFEB 		bl	_ZN6tflite12RuntimeShapeD1Ev
 1722              	.L177:
 1723 060c 0500A0E1 		mov	r0, r5
 1724              	.L221:
 1725 0610 FEFFFFEB 		bl	_ZN6tflite12RuntimeShapeD1Ev
 1726 0614 AFFFFFEA 		b	.L184
 1727              	.L202:
 1728 0618 F9FFFFEA 		b	.L176
 1729              	.L201:
 1730 061c FAFFFFEA 		b	.L177
 1731              	.L200:
 1732 0620 ACFFFFEA 		b	.L184
 1733              	.L179:
 1734 0624 916E8DE2 		add	r6, sp, #2320
 1735 0628 0100A0E3 		mov	r0, #1
 1736 062c 102099E5 		ldr	r2, [r9, #16]
 1737 0630 103098E5 		ldr	r3, [r8, #16]
 1738 0634 101097E5 		ldr	r1, [r7, #16]
 1739 0638 600866E5 		strb	r0, [r6, #-2144]!
 1740 063c 002062E2 		rsb	r2, r2, #0
 1741 0640 F0009DE5 		ldr	r0, [sp, #240]
 1742 0644 003063E2 		rsb	r3, r3, #0
 1743 0648 B200C6E1 		strh	r0, [r6, #2]	@ movhi
 1744 064c F4009DE5 		ldr	r0, [sp, #244]
 1745 0650 B400C6E1 		strh	r0, [r6, #4]	@ movhi
 1746 0654 040095E5 		ldr	r0, [r5, #4]
 1747 0658 BA00C6E1 		strh	r0, [r6, #10]	@ movhi
 1748 065c 080095E5 		ldr	r0, [r5, #8]
 1749 0660 BC00C6E1 		strh	r0, [r6, #12]	@ movhi
 1750 0664 140095E5 		ldr	r0, [r5, #20]
 1751 0668 BE00C6E1 		strh	r0, [r6, #14]	@ movhi
 1752 066c 180095E5 		ldr	r0, [r5, #24]
 1753 0670 B001C6E1 		strh	r0, [r6, #16]	@ movhi
 1754 0674 0C0095E5 		ldr	r0, [r5, #12]
 1755 0678 C8308DE5 		str	r3, [sp, #200]
 1756 067c 00319DE5 		ldr	r3, [sp, #256]
 1757 0680 B201C6E1 		strh	r0, [r6, #18]	@ movhi
 1758 0684 08099DE5 		ldr	r0, [sp, #2312]
 1759 0688 D0308DE5 		str	r3, [sp, #208]
 1760 068c 04319DE5 		ldr	r3, [sp, #260]
 1761 0690 D8008DE5 		str	r0, [sp, #216]
 1762 0694 0C099DE5 		ldr	r0, [sp, #2316]
 1763 0698 CC108DE5 		str	r1, [sp, #204]
 1764 069c 003063E2 		rsb	r3, r3, #0
 1765 06a0 0910A0E1 		mov	r1, r9
 1766 06a4 C4208DE5 		str	r2, [sp, #196]
 1767 06a8 DC008DE5 		str	r0, [sp, #220]
 1768 06ac 60008DE2 		add	r0, sp, #96
 1769 06b0 D4308DE5 		str	r3, [sp, #212]
 1770              	.LEHB10:
 1771 06b4 FEFFFFEB 		bl	_ZN6tflite14GetTensorShapeEPK12TfLiteTensor
 1772              	.LEHE10:
 1773 06b8 0810A0E1 		mov	r1, r8
 1774 06bc 74008DE2 		add	r0, sp, #116
 1775 06c0 049099E5 		ldr	r9, [r9, #4]
 1776              	.LEHB11:
 1777 06c4 FEFFFFEB 		bl	_ZN6tflite14GetTensorShapeEPK12TfLiteTensor
 1778              	.LEHE11:
 1779 06c8 04A098E5 		ldr	r10, [r8, #4]
 1780 06cc 88808DE2 		add	r8, sp, #136
 1781 06d0 0410A0E1 		mov	r1, r4
 1782 06d4 0800A0E1 		mov	r0, r8
 1783              	.LEHB12:
 1784 06d8 FEFFFFEB 		bl	_ZN6tflite14GetTensorShapeEPK12TfLiteTensor
 1785              	.LEHE12:
 1786 06dc 9C508DE2 		add	r5, sp, #156
 1787 06e0 000054E3 		cmp	r4, #0
 1788 06e4 0710A0E1 		mov	r1, r7
 1789 06e8 0500A0E1 		mov	r0, r5
 1790 06ec 04409415 		ldrne	r4, [r4, #4]
 1791              	.LEHB13:
 1792 06f0 FEFFFFEB 		bl	_ZN6tflite14GetTensorShapeEPK12TfLiteTensor
 1793              	.LEHE13:
 1794 06f4 043097E5 		ldr	r3, [r7, #4]
 1795 06f8 0920A0E1 		mov	r2, r9
 1796 06fc 0C508DE5 		str	r5, [sp, #12]
 1797 0700 60108DE2 		add	r1, sp, #96
 1798 0704 08408DE5 		str	r4, [sp, #8]
 1799 0708 0600A0E1 		mov	r0, r6
 1800 070c 10308DE5 		str	r3, [sp, #16]
 1801 0710 74308DE2 		add	r3, sp, #116
 1802 0714 04808DE5 		str	r8, [sp, #4]
 1803 0718 00A08DE5 		str	r10, [sp]
 1804              	.LEHB14:
 1805 071c FEFFFFEB 		bl	_ZN6tflite13reference_ops14depthwise_conv24DepthwiseConvBasicKernelILNS_27DepthwiseConvOutputRo
 1806              	.LEHE14:
 1807              	.L219:
 1808 0720 0500A0E1 		mov	r0, r5
 1809 0724 FEFFFFEB 		bl	_ZN6tflite12RuntimeShapeD1Ev
 1810 0728 0800A0E1 		mov	r0, r8
 1811 072c FEFFFFEB 		bl	_ZN6tflite12RuntimeShapeD1Ev
 1812 0730 74008DE2 		add	r0, sp, #116
 1813 0734 ABFFFFEA 		b	.L218
 1814              	.L207:
 1815 0738 5EFFFFEA 		b	.L222
 1816              	.L206:
 1817 073c 60FFFFEA 		b	.L182
 1818              	.L205:
 1819 0740 62FFFFEA 		b	.L183
 1820              	.L204:
 1821 0744 63FFFFEA 		b	.L184
 1822              	.L215:
 1823 0748 144096E5 		ldr	r4, [r6, #20]
 1824              	.LEHB15:
 1825 074c FEFFFFEB 		bl	TfLiteTypeGetName
 1826 0750 34309DE5 		ldr	r3, [sp, #52]
 1827 0754 0020A0E1 		mov	r2, r0
 1828 0758 50109FE5 		ldr	r1, .L224+68
 1829 075c 0600A0E1 		mov	r0, r6
 1830 0760 0333DBE7 		ldrb	r3, [fp, r3, lsl #6]	@ zero_extendqisi2
 1831 0764 34FF2FE1 		blx	r4
 1832              	.LEHE15:
 1833 0768 4CFEFFEA 		b	.L188
 1834              	.L225:
 1835              		.align	2
 1836              	.L224:
 1837 076c FFFF7F7F 		.word	2139095039
 1838 0770 FFFF7FFF 		.word	-8388609
 1839 0774 00000000 		.word	0
 1840 0778 66000000 		.word	.LC4
 1841 077c 80000000 		.word	.LC5
 1842 0780 00000000 		.word	.LC2
 1843 0784 4C000000 		.word	.LC3
 1844 0788 B1000000 		.word	.LC7
 1845 078c 9A000000 		.word	.LC6
 1846 0790 C5000000 		.word	.LC8
 1847 0794 E0000000 		.word	.LC9
 1848 0798 00010000 		.word	.LC10
 1849 079c 82010000 		.word	.LC11
 1850 07a0 A8010000 		.word	.LC12
 1851 07a4 C9010000 		.word	.LC13
 1852 07a8 ED010000 		.word	.LC14
 1853 07ac EF010000 		.word	.LC15
 1854 07b0 03020000 		.word	.LC16
 1855              		.global	__gxx_personality_v0
 1856              		.personality	__gxx_personality_v0
 1857              		.handlerdata
 1858              	.LLSDA6236:
 1859 000c FF       		.byte	0xff
 1860 000d FF       		.byte	0xff
 1861 000e 01       		.byte	0x1
 1862 000f 5E       		.uleb128 .LLSDACSE6236-.LLSDACSB6236
 1863              	.LLSDACSB6236:
 1864 0010 9C01     		.uleb128 .LEHB0-.LFB6236
 1865 0012 9407     		.uleb128 .LEHE0-.LEHB0
 1866 0014 00       		.uleb128 0
 1867 0015 00       		.uleb128 0
 1868 0016 BC08     		.uleb128 .LEHB1-.LFB6236
 1869 0018 04       		.uleb128 .LEHE1-.LEHB1
 1870 0019 D809     		.uleb128 .L196-.LFB6236
 1871 001b 00       		.uleb128 0
 1872 001c E808     		.uleb128 .LEHB2-.LFB6236
 1873 001e 04       		.uleb128 .LEHE2-.LEHB2
 1874 001f D009     		.uleb128 .L197-.LFB6236
 1875 0021 00       		.uleb128 0
 1876 0022 8009     		.uleb128 .LEHB3-.LFB6236
 1877 0024 04       		.uleb128 .LEHE3-.LEHB3
 1878 0025 C409     		.uleb128 .L198-.LFB6236
 1879 0027 00       		.uleb128 0
 1880 0028 B009     		.uleb128 .LEHB4-.LFB6236
 1881 002a 04       		.uleb128 .LEHE4-.LEHB4
 1882 002b B809     		.uleb128 .L199-.LFB6236
 1883 002d 00       		.uleb128 0
 1884 002e E009     		.uleb128 .LEHB5-.LFB6236
 1885 0030 8401     		.uleb128 .LEHE5-.LEHB5
 1886 0032 00       		.uleb128 0
 1887 0033 00       		.uleb128 0
 1888 0034 F00A     		.uleb128 .LEHB6-.LFB6236
 1889 0036 04       		.uleb128 .LEHE6-.LEHB6
 1890 0037 A00C     		.uleb128 .L200-.LFB6236
 1891 0039 00       		.uleb128 0
 1892 003a 840B     		.uleb128 .LEHB7-.LFB6236
 1893 003c 04       		.uleb128 .LEHE7-.LEHB7
 1894 003d 9C0C     		.uleb128 .L201-.LFB6236
 1895 003f 00       		.uleb128 0
 1896 0040 9C0B     		.uleb128 .LEHB8-.LFB6236
 1897 0042 04       		.uleb128 .LEHE8-.LEHB8
 1898 0043 980C     		.uleb128 .L202-.LFB6236
 1899 0045 00       		.uleb128 0
 1900 0046 D00B     		.uleb128 .LEHB9-.LFB6236
 1901 0048 04       		.uleb128 .LEHE9-.LEHB9
 1902 0049 FC0B     		.uleb128 .L203-.LFB6236
 1903 004b 00       		.uleb128 0
 1904 004c B40D     		.uleb128 .LEHB10-.LFB6236
 1905 004e 04       		.uleb128 .LEHE10-.LEHB10
 1906 004f 00       		.uleb128 0
 1907 0050 00       		.uleb128 0
 1908 0051 C40D     		.uleb128 .LEHB11-.LFB6236
 1909 0053 04       		.uleb128 .LEHE11-.LEHB11
 1910 0054 C40E     		.uleb128 .L204-.LFB6236
 1911 0056 00       		.uleb128 0
 1912 0057 D80D     		.uleb128 .LEHB12-.LFB6236
 1913 0059 04       		.uleb128 .LEHE12-.LEHB12
 1914 005a C00E     		.uleb128 .L205-.LFB6236
 1915 005c 00       		.uleb128 0
 1916 005d F00D     		.uleb128 .LEHB13-.LFB6236
 1917 005f 04       		.uleb128 .LEHE13-.LEHB13
 1918 0060 BC0E     		.uleb128 .L206-.LFB6236
 1919 0062 00       		.uleb128 0
 1920 0063 9C0E     		.uleb128 .LEHB14-.LFB6236
 1921 0065 04       		.uleb128 .LEHE14-.LEHB14
 1922 0066 B80E     		.uleb128 .L207-.LFB6236
 1923 0068 00       		.uleb128 0
 1924 0069 CC0E     		.uleb128 .LEHB15-.LFB6236
 1925 006b 1C       		.uleb128 .LEHE15-.LEHB15
 1926 006c 00       		.uleb128 0
 1927 006d 00       		.uleb128 0
 1928              	.LLSDACSE6236:
 1929              		.section	.text._ZN6tflite3ops5micro14depthwise_conv4EvalEP13TfLiteContextP10TfLiteNode
 1930              		.fnend
 1932              		.weak	_ZN11flatbuffers25flatbuffer_version_stringE
 1933              		.section	.bss._ZZN6tflite3ops5micro26Register_DEPTHWISE_CONV_2DEvE1r,"aw",%nobits
 1934              		.align	2
 1935              		.set	.LANCHOR1,. + 0
 1938              	_ZZN6tflite3ops5micro26Register_DEPTHWISE_CONV_2DEvE1r:
 1939 0000 00000000 		.space	32
 1939      00000000 
 1939      00000000 
 1939      00000000 
 1939      00000000 
 1940              		.section	.data._ZN11flatbuffers25flatbuffer_version_stringE,"aw",%progbits
 1941              		.align	2
 1944              	_ZN11flatbuffers25flatbuffer_version_stringE:
 1945 0000 00000000 		.word	.LC17
 1946              		.section	.rodata._ZN6tflite29MultiplyByQuantizedMultiplierElli.str1.1,"aMS",%progbits,1
 1947              	.LC0:
 1948 0000 6578706F 		.ascii	"exponent <= 31\000"
 1948      6E656E74 
 1948      203C3D20 
 1948      333100
 1949              	.LC1:
 1950 000f 433A2F52 		.ascii	"C:/Renesas/e2studio_2021_01_workspace_RZA2M_ANPR/AN"
 1950      656E6573 
 1950      61732F65 
 1950      32737475 
 1950      64696F5F 
 1951 0042 50525F52 		.ascii	"PR_RZA2M_GR_MANGO/src/tensorflow_lite/src/third_par"
 1951      5A41324D 
 1951      5F47525F 
 1951      4D414E47 
 1951      4F2F7372 
 1952 0075 74792F67 		.ascii	"ty/gemmlowp/fixedpoint/fixedpoint.h\000"
 1952      656D6D6C 
 1952      6F77702F 
 1952      66697865 
 1952      64706F69 
 1953              		.section	.rodata._ZN6tflite3ops5micro14depthwise_conv4EvalEP13TfLiteContextP10TfLiteNode.str1.1,"a
 1954              	.LC2:
 1955 0000 2E2E2F73 		.ascii	"../src/tensorflow_lite/src/tensorflow/lite/micro/ke"
 1955      72632F74 
 1955      656E736F 
 1955      72666C6F 
 1955      775F6C69 
 1956 0033 726E656C 		.ascii	"rnels/depthwise_conv.cpp\000"
 1956      732F6465 
 1956      70746877 
 1956      6973655F 
 1956      636F6E76 
 1957              	.LC3:
 1958 004c 25733A25 		.ascii	"%s:%d %s != %s (%d != %d)\000"
 1958      64202573 
 1958      20213D20 
 1958      25732028 
 1958      25642021 
 1959              	.LC4:
 1960 0066 6B54664C 		.ascii	"kTfLiteAffineQuantization\000"
 1960      69746541 
 1960      6666696E 
 1960      65517561 
 1960      6E74697A 
 1961              	.LC5:
 1962 0080 66696C74 		.ascii	"filter->quantization.type\000"
 1962      65722D3E 
 1962      7175616E 
 1962      74697A61 
 1962      74696F6E 
 1963              	.LC6:
 1964 009a 25733A25 		.ascii	"%s:%d %s was not true.\000"
 1964      64202573 
 1964      20776173 
 1964      206E6F74 
 1964      20747275 
 1965              	.LC7:
 1966 00b1 61666669 		.ascii	"affine_quantization\000"
 1966      6E655F71 
 1966      75616E74 
 1966      697A6174 
 1966      696F6E00 
 1967              	.LC8:
 1968 00c5 61666669 		.ascii	"affine_quantization->scale\000"
 1968      6E655F71 
 1968      75616E74 
 1968      697A6174 
 1968      696F6E2D 
 1969              	.LC9:
 1970 00e0 61666669 		.ascii	"affine_quantization->zero_point\000"
 1970      6E655F71 
 1970      75616E74 
 1970      697A6174 
 1970      696F6E2D 
 1971              	.LC10:
 1972 0100 61666669 		.ascii	"affine_quantization->scale->size == 1 || affine_qua"
 1972      6E655F71 
 1972      75616E74 
 1972      697A6174 
 1972      696F6E2D 
 1973 0133 6E74697A 		.ascii	"ntization->scale->size == filter->dims->data[kDepth"
 1973      6174696F 
 1973      6E2D3E73 
 1973      63616C65 
 1973      2D3E7369 
 1974 0166 77697365 		.ascii	"wiseConvQuantizedDimension]\000"
 1974      436F6E76 
 1974      5175616E 
 1974      74697A65 
 1974      6444696D 
 1975              	.LC11:
 1976 0182 61666669 		.ascii	"affine_quantization->zero_point->size\000"
 1976      6E655F71 
 1976      75616E74 
 1976      697A6174 
 1976      696F6E2D 
 1977              	.LC12:
 1978 01a8 61666669 		.ascii	"affine_quantization->scale->size\000"
 1978      6E655F71 
 1978      75616E74 
 1978      697A6174 
 1978      696F6E2D 
 1979              	.LC13:
 1980 01c9 6861735F 		.ascii	"has_bias || node->inputs->size == 2\000"
 1980      62696173 
 1980      207C7C20 
 1980      6E6F6465 
 1980      2D3E696E 
 1981              	.LC14:
 1982 01ed 3100     		.ascii	"1\000"
 1983              	.LC15:
 1984 01ef 6E6F6465 		.ascii	"node->outputs->size\000"
 1984      2D3E6F75 
 1984      74707574 
 1984      732D3E73 
 1984      697A6500 
 1985              	.LC16:
 1986 0203 54797065 		.ascii	"Type %s (%d) not supported.\000"
 1986      20257320 
 1986      28256429 
 1986      206E6F74 
 1986      20737570 
 1987              		.section	.rodata._ZZN8gemmlowp19RoundingDivideByPOTIlEET_S1_iE19__PRETTY_FUNCTION__,"a",%progbits
 1988              		.set	.LANCHOR0,. + 0
 1991              	_ZZN8gemmlowp19RoundingDivideByPOTIlEET_S1_iE19__PRETTY_FUNCTION__:
 1992 0000 496E7465 		.ascii	"IntegerType gemmlowp::RoundingDivideByPOT(IntegerTy"
 1992      67657254 
 1992      79706520 
 1992      67656D6D 
 1992      6C6F7770 
 1993 0033 70652C20 		.ascii	"pe, int) [with IntegerType = long int]\000"
 1993      696E7429 
 1993      205B7769 
 1993      74682049 
 1993      6E746567 
 1994              		.section	.rodata.str1.1,"aMS",%progbits,1
 1995              	.LC17:
 1996 0000 466C6174 		.ascii	"FlatBuffers 1.11.0\000"
 1996      42756666 
 1996      65727320 
 1996      312E3131 
 1996      2E3000
 1997              		.ident	"GCC: (GNU Tools for ARM Embedded Processors 6-2017-q2-update) 6.3.1 20170620 (release) [AR