   1              		.cpu cortex-a9
   2              		.eabi_attribute 28, 1
   3              		.eabi_attribute 20, 1
   4              		.eabi_attribute 21, 1
   5              		.eabi_attribute 23, 3
   6              		.eabi_attribute 24, 1
   7              		.eabi_attribute 25, 1
   8              		.eabi_attribute 26, 1
   9              		.eabi_attribute 30, 4
  10              		.eabi_attribute 34, 0
  11              		.eabi_attribute 18, 4
  12              		.file	"elementwise.cpp"
  13              		.section	.text._ZSt3absf,"axG",%progbits,_ZSt3absf,comdat
  14              		.align	2
  15              		.weak	_ZSt3absf
  16              		.syntax unified
  17              		.arm
  18              		.fpu neon
  20              	_ZSt3absf:
  21              		.fnstart
  22              	.LFB5:
  23              		@ args = 0, pretend = 0, frame = 0
  24              		@ frame_needed = 0, uses_anonymous_args = 0
  25              		@ link register save eliminated.
  26 0000 C00AB0EE 		vabs.f32	s0, s0
  27 0004 1EFF2FE1 		bx	lr
  28              		.cantunwind
  29              		.fnend
  31              		.section	.text._ZZN6tflite3ops5micro11elementwise12_GLOBAL__N_110SquareEvalEP13TfLiteContextP10TfL
  32              		.align	2
  33              		.syntax unified
  34              		.arm
  35              		.fpu neon
  37              	_ZZN6tflite3ops5micro11elementwise12_GLOBAL__N_110SquareEvalEP13TfLiteContextP10TfLiteNodeENUlfE_4_
  38              		.fnstart
  39              	.LFB4052:
  40              		@ args = 0, pretend = 0, frame = 0
  41              		@ frame_needed = 0, uses_anonymous_args = 0
  42              		@ link register save eliminated.
  43 0000 000A20EE 		vmul.f32	s0, s0, s0
  44 0004 1EFF2FE1 		bx	lr
  45              		.cantunwind
  46              		.fnend
  48              		.section	.text._ZN6tflite3ops5micro11elementwise12_GLOBAL__N_114GenericPrepareIXadL_ZNS3_22IsLogic
  49              		.align	2
  50              		.syntax unified
  51              		.arm
  52              		.fpu neon
  54              	_ZN6tflite3ops5micro11elementwise12_GLOBAL__N_114GenericPrepareIXadL_ZNS3_22IsLogicalSupportedTypeE
  55              		.fnstart
  56              	.LFB4387:
  57              		@ args = 0, pretend = 0, frame = 0
  58              		@ frame_needed = 0, uses_anonymous_args = 0
  59 0000 FF412DE9 		push	{r0, r1, r2, r3, r4, r5, r6, r7, r8, lr}
  60              		.save {r4, r5, r6, r7, r8, lr}
  61              		.pad #16
  62 0004 0050A0E1 		mov	r5, r0
  63 0008 003091E5 		ldr	r3, [r1]
  64 000c 006093E5 		ldr	r6, [r3]
  65 0010 010056E3 		cmp	r6, #1
  66 0014 0C00000A 		beq	.L4
  67 0018 E8309FE5 		ldr	r3, .L11
  68 001c 0140A0E3 		mov	r4, #1
  69 0020 0C408DE5 		str	r4, [sp, #12]
  70 0024 08608DE5 		str	r6, [sp, #8]
  71 0028 04308DE5 		str	r3, [sp, #4]
  72 002c D8309FE5 		ldr	r3, .L11+4
  73 0030 00308DE5 		str	r3, [sp]
  74 0034 2730A0E3 		mov	r3, #39
  75 0038 145090E5 		ldr	r5, [r0, #20]
  76              	.L10:
  77 003c CC209FE5 		ldr	r2, .L11+8
  78 0040 CC109FE5 		ldr	r1, .L11+12
  79 0044 35FF2FE1 		blx	r5
  80 0048 0F0000EA 		b	.L5
  81              	.L4:
  82 004c 042091E5 		ldr	r2, [r1, #4]
  83 0050 004092E5 		ldr	r4, [r2]
  84 0054 010054E3 		cmp	r4, #1
  85 0058 0E00000A 		beq	.L6
  86 005c A4309FE5 		ldr	r3, .L11
  87 0060 0C608DE5 		str	r6, [sp, #12]
  88 0064 08408DE5 		str	r4, [sp, #8]
  89 0068 04308DE5 		str	r3, [sp, #4]
  90 006c A4309FE5 		ldr	r3, .L11+16
  91 0070 98209FE5 		ldr	r2, .L11+8
  92 0074 98109FE5 		ldr	r1, .L11+12
  93 0078 00308DE5 		str	r3, [sp]
  94 007c 2830A0E3 		mov	r3, #40
  95 0080 144090E5 		ldr	r4, [r0, #20]
  96 0084 34FF2FE1 		blx	r4
  97 0088 0640A0E1 		mov	r4, r6
  98              	.L5:
  99 008c 0400A0E1 		mov	r0, r4
 100 0090 10D08DE2 		add	sp, sp, #16
 101              		@ sp needed
 102 0094 F081BDE8 		pop	{r4, r5, r6, r7, r8, pc}
 103              	.L6:
 104 0098 086090E5 		ldr	r6, [r0, #8]
 105 009c 047093E5 		ldr	r7, [r3, #4]
 106 00a0 042092E5 		ldr	r2, [r2, #4]
 107 00a4 0733D6E7 		ldrb	r3, [r6, r7, lsl #6]	@ zero_extendqisi2
 108 00a8 0223D6E7 		ldrb	r2, [r6, r2, lsl #6]	@ zero_extendqisi2
 109 00ac 020053E1 		cmp	r3, r2
 110 00b0 0800000A 		beq	.L7
 111 00b4 08308DE5 		str	r3, [sp, #8]
 112 00b8 5C309FE5 		ldr	r3, .L11+20
 113 00bc 0C208DE5 		str	r2, [sp, #12]
 114 00c0 04308DE5 		str	r3, [sp, #4]
 115 00c4 54309FE5 		ldr	r3, .L11+24
 116 00c8 00308DE5 		str	r3, [sp]
 117 00cc 2B30A0E3 		mov	r3, #43
 118 00d0 145090E5 		ldr	r5, [r0, #20]
 119 00d4 D8FFFFEA 		b	.L10
 120              	.L7:
 121 00d8 000053E3 		cmp	r3, #0
 122 00dc 0040A013 		movne	r4, #0
 123 00e0 E9FFFF1A 		bne	.L5
 124 00e4 148090E5 		ldr	r8, [r0, #20]
 125 00e8 0300A0E1 		mov	r0, r3
 126 00ec FEFFFFEB 		bl	TfLiteTypeGetName
 127 00f0 0733D6E7 		ldrb	r3, [r6, r7, lsl #6]	@ zero_extendqisi2
 128 00f4 0020A0E1 		mov	r2, r0
 129 00f8 24109FE5 		ldr	r1, .L11+28
 130 00fc 0500A0E1 		mov	r0, r5
 131 0100 38FF2FE1 		blx	r8
 132 0104 E0FFFFEA 		b	.L5
 133              	.L12:
 134              		.align	2
 135              	.L11:
 136 0108 63000000 		.word	.LC2
 137 010c 65000000 		.word	.LC3
 138 0110 00000000 		.word	.LC0
 139 0114 49000000 		.word	.LC1
 140 0118 75000000 		.word	.LC4
 141 011c 86000000 		.word	.LC5
 142 0120 93000000 		.word	.LC6
 143 0124 9F000000 		.word	.LC7
 144              		.fnend
 146              		.section	.text._ZN6tflite3ops5micro11elementwise12_GLOBAL__N_114GenericPrepareIXadL_ZNS3_22IsNumer
 147              		.align	2
 148              		.syntax unified
 149              		.arm
 150              		.fpu neon
 152              	_ZN6tflite3ops5micro11elementwise12_GLOBAL__N_114GenericPrepareIXadL_ZNS3_22IsNumericSupportedTypeE
 153              		.fnstart
 154              	.LFB4861:
 155              		@ args = 0, pretend = 0, frame = 0
 156              		@ frame_needed = 0, uses_anonymous_args = 0
 157              		@ link register save eliminated.
 158 0000 FEFFFFEA 		b	_ZN6tflite3ops5micro11elementwise12_GLOBAL__N_114GenericPrepareIXadL_ZNS3_22IsLogicalSupportedTy
 159              		.cantunwind
 160              		.fnend
 162              		.section	.text._ZSt3sinf,"axG",%progbits,_ZSt3sinf,comdat
 163              		.align	2
 164              		.weak	_ZSt3sinf
 165              		.syntax unified
 166              		.arm
 167              		.fpu neon
 169              	_ZSt3sinf:
 170              		.fnstart
 171              	.LFB58:
 172              		@ args = 0, pretend = 0, frame = 0
 173              		@ frame_needed = 0, uses_anonymous_args = 0
 174              		@ link register save eliminated.
 175 0000 FEFFFFEA 		b	sinf
 176              		.cantunwind
 177              		.fnend
 179              		.section	.text._ZSt3cosf,"axG",%progbits,_ZSt3cosf,comdat
 180              		.align	2
 181              		.weak	_ZSt3cosf
 182              		.syntax unified
 183              		.arm
 184              		.fpu neon
 186              	_ZSt3cosf:
 187              		.fnstart
 188              	.LFB23:
 189              		@ args = 0, pretend = 0, frame = 0
 190              		@ frame_needed = 0, uses_anonymous_args = 0
 191              		@ link register save eliminated.
 192 0000 FEFFFFEA 		b	cosf
 193              		.cantunwind
 194              		.fnend
 196              		.section	.text._ZSt3logf,"axG",%progbits,_ZSt3logf,comdat
 197              		.align	2
 198              		.weak	_ZSt3logf
 199              		.syntax unified
 200              		.arm
 201              		.fpu neon
 203              	_ZSt3logf:
 204              		.fnstart
 205              	.LFB47:
 206              		@ args = 0, pretend = 0, frame = 0
 207              		@ frame_needed = 0, uses_anonymous_args = 0
 208              		@ link register save eliminated.
 209 0000 FEFFFFEA 		b	logf
 210              		.cantunwind
 211              		.fnend
 213              		.section	.text._ZSt4sqrtf,"axG",%progbits,_ZSt4sqrtf,comdat
 214              		.align	2
 215              		.weak	_ZSt4sqrtf
 216              		.syntax unified
 217              		.arm
 218              		.fpu neon
 220              	_ZSt4sqrtf:
 221              		.fnstart
 222              	.LFB64:
 223              		@ args = 0, pretend = 0, frame = 0
 224              		@ frame_needed = 0, uses_anonymous_args = 0
 225              		@ link register save eliminated.
 226 0000 FEFFFFEA 		b	sqrtf
 227              		.cantunwind
 228              		.fnend
 230              		.section	.text._ZZN6tflite3ops5micro11elementwise12_GLOBAL__N_19RsqrtEvalEP13TfLiteContextP10TfLit
 231              		.align	2
 232              		.syntax unified
 233              		.arm
 234              		.fpu neon
 236              	_ZZN6tflite3ops5micro11elementwise12_GLOBAL__N_19RsqrtEvalEP13TfLiteContextP10TfLiteNodeENUlfE_4_FU
 237              		.fnstart
 238              	.LFB4048:
 239              		@ args = 0, pretend = 0, frame = 0
 240              		@ frame_needed = 0, uses_anonymous_args = 0
 241 0000 10402DE9 		push	{r4, lr}
 242 0004 FEFFFFEB 		bl	sqrtf
 243 0008 007AF7EE 		vmov.f32	s15, #1.0e+0
 244 000c 800A87EE 		vdiv.f32	s0, s15, s0
 245 0010 1080BDE8 		pop	{r4, pc}
 246              		.cantunwind
 247              		.fnend
 249              		.section	.text._ZN6tflite3ops5micro11elementwise12_GLOBAL__N_18EvalImplIfEE12TfLiteStatusP13TfLite
 250              		.align	2
 251              		.syntax unified
 252              		.arm
 253              		.fpu neon
 255              	_ZN6tflite3ops5micro11elementwise12_GLOBAL__N_18EvalImplIfEE12TfLiteStatusP13TfLiteContextP10TfLite
 256              		.fnstart
 257              	.LFB4862:
 258              		@ args = 0, pretend = 0, frame = 0
 259              		@ frame_needed = 0, uses_anonymous_args = 0
 260 0000 F04F2DE9 		push	{r4, r5, r6, r7, r8, r9, r10, fp, lr}
 261              		.save {r4, r5, r6, r7, r8, r9, r10, fp, lr}
 262 0004 0280A0E1 		mov	r8, r2
 263 0008 002091E5 		ldr	r2, [r1]
 264              		.pad #20
 265 000c 14D04DE2 		sub	sp, sp, #20
 266 0010 083090E5 		ldr	r3, [r0, #8]
 267 0014 042092E5 		ldr	r2, [r2, #4]
 268 0018 029383E0 		add	r9, r3, r2, lsl #6
 269 001c 0223D3E7 		ldrb	r2, [r3, r2, lsl #6]	@ zero_extendqisi2
 270 0020 010052E3 		cmp	r2, #1
 271 0024 0E00000A 		beq	.L21
 272 0028 B8309FE5 		ldr	r3, .L31
 273 002c 0140A0E3 		mov	r4, #1
 274 0030 08208DE5 		str	r2, [sp, #8]
 275 0034 0C408DE5 		str	r4, [sp, #12]
 276 0038 04308DE5 		str	r3, [sp, #4]
 277 003c A8309FE5 		ldr	r3, .L31+4
 278 0040 A8209FE5 		ldr	r2, .L31+8
 279 0044 A8109FE5 		ldr	r1, .L31+12
 280 0048 00308DE5 		str	r3, [sp]
 281 004c 3930A0E3 		mov	r3, #57
 282 0050 145090E5 		ldr	r5, [r0, #20]
 283 0054 35FF2FE1 		blx	r5
 284 0058 0400A0E1 		mov	r0, r4
 285              	.L22:
 286 005c 14D08DE2 		add	sp, sp, #20
 287              		@ sp needed
 288 0060 F08FBDE8 		pop	{r4, r5, r6, r7, r8, r9, r10, fp, pc}
 289              	.L21:
 290 0064 080099E5 		ldr	r0, [r9, #8]
 291 0068 0020A0E3 		mov	r2, #0
 292 006c 0160A0E3 		mov	r6, #1
 293 0070 0070A0E3 		mov	r7, #0
 294 0074 04A090E4 		ldr	r10, [r0], #4
 295              	.L24:
 296 0078 02005AE1 		cmp	r10, r2
 297 007c 070000DA 		ble	.L23
 298 0080 04E090E4 		ldr	lr, [r0], #4
 299 0084 012082E2 		add	r2, r2, #1
 300 0088 CE5FA0E1 		asr	r5, lr, #31
 301 008c 96050CE0 		mul	ip, r6, r5
 302 0090 9EC72CE0 		mla	ip, lr, r7, ip
 303 0094 966E87E0 		umull	r6, r7, r6, lr
 304 0098 07708CE0 		add	r7, ip, r7
 305 009c F5FFFFEA 		b	.L24
 306              	.L23:
 307 00a0 042091E5 		ldr	r2, [r1, #4]
 308 00a4 00A0A0E3 		mov	r10, #0
 309 00a8 045099E5 		ldr	r5, [r9, #4]
 310 00ac 00B0A0E3 		mov	fp, #0
 311 00b0 044092E5 		ldr	r4, [r2, #4]
 312 00b4 044393E0 		adds	r4, r3, r4, lsl #6
 313 00b8 04409415 		ldrne	r4, [r4, #4]
 314              	.L26:
 315 00bc 06005AE1 		cmp	r10, r6
 316 00c0 0730DBE0 		sbcs	r3, fp, r7
 317 00c4 050000AA 		bge	.L28
 318 00c8 010AB5EC 		vldmia.32	r5!, {s0}
 319 00cc 38FF2FE1 		blx	r8
 320 00d0 01A09AE2 		adds	r10, r10, #1
 321 00d4 010AA4EC 		vstmia.32	r4!, {s0}
 322 00d8 00B0ABE2 		adc	fp, fp, #0
 323 00dc F6FFFFEA 		b	.L26
 324              	.L28:
 325 00e0 0000A0E3 		mov	r0, #0
 326 00e4 DCFFFFEA 		b	.L22
 327              	.L32:
 328              		.align	2
 329              	.L31:
 330 00e8 00000000 		.word	.LC8
 331 00ec 93000000 		.word	.LC6
 332 00f0 00000000 		.word	.LC0
 333 00f4 49000000 		.word	.LC1
 334              		.fnend
 336              		.section	.text._ZN6tflite3ops5micro11elementwise12_GLOBAL__N_110SquareEvalEP13TfLiteContextP10TfLi
 337              		.align	2
 338              		.syntax unified
 339              		.arm
 340              		.fpu neon
 342              	_ZN6tflite3ops5micro11elementwise12_GLOBAL__N_110SquareEvalEP13TfLiteContextP10TfLiteNode:
 343              		.fnstart
 344              	.LFB4050:
 345              		@ args = 0, pretend = 0, frame = 0
 346              		@ frame_needed = 0, uses_anonymous_args = 0
 347              		@ link register save eliminated.
 348 0000 00209FE5 		ldr	r2, .L34
 349 0004 FEFFFFEA 		b	_ZN6tflite3ops5micro11elementwise12_GLOBAL__N_18EvalImplIfEE12TfLiteStatusP13TfLiteContextP10TfL
 350              	.L35:
 351              		.align	2
 352              	.L34:
 353 0008 00000000 		.word	_ZZN6tflite3ops5micro11elementwise12_GLOBAL__N_110SquareEvalEP13TfLiteContextP10TfLiteNodeEN
 354              		.cantunwind
 355              		.fnend
 357              		.section	.text._ZN6tflite3ops5micro11elementwise12_GLOBAL__N_17AbsEvalEP13TfLiteContextP10TfLiteNo
 358              		.align	2
 359              		.syntax unified
 360              		.arm
 361              		.fpu neon
 363              	_ZN6tflite3ops5micro11elementwise12_GLOBAL__N_17AbsEvalEP13TfLiteContextP10TfLiteNode:
 364              		.fnstart
 365              	.LFB4041:
 366              		@ args = 0, pretend = 0, frame = 0
 367              		@ frame_needed = 0, uses_anonymous_args = 0
 368              		@ link register save eliminated.
 369 0000 00209FE5 		ldr	r2, .L37
 370 0004 FEFFFFEA 		b	_ZN6tflite3ops5micro11elementwise12_GLOBAL__N_18EvalImplIfEE12TfLiteStatusP13TfLiteContextP10TfL
 371              	.L38:
 372              		.align	2
 373              	.L37:
 374 0008 00000000 		.word	_ZSt3absf
 375              		.cantunwind
 376              		.fnend
 378              		.section	.text._ZN6tflite3ops5micro11elementwise12_GLOBAL__N_17SinEvalEP13TfLiteContextP10TfLiteNo
 379              		.align	2
 380              		.syntax unified
 381              		.arm
 382              		.fpu neon
 384              	_ZN6tflite3ops5micro11elementwise12_GLOBAL__N_17SinEvalEP13TfLiteContextP10TfLiteNode:
 385              		.fnstart
 386              	.LFB4042:
 387              		@ args = 0, pretend = 0, frame = 0
 388              		@ frame_needed = 0, uses_anonymous_args = 0
 389              		@ link register save eliminated.
 390 0000 00209FE5 		ldr	r2, .L40
 391 0004 FEFFFFEA 		b	_ZN6tflite3ops5micro11elementwise12_GLOBAL__N_18EvalImplIfEE12TfLiteStatusP13TfLiteContextP10TfL
 392              	.L41:
 393              		.align	2
 394              	.L40:
 395 0008 00000000 		.word	_ZSt3sinf
 396              		.cantunwind
 397              		.fnend
 399              		.section	.text._ZN6tflite3ops5micro11elementwise12_GLOBAL__N_17CosEvalEP13TfLiteContextP10TfLiteNo
 400              		.align	2
 401              		.syntax unified
 402              		.arm
 403              		.fpu neon
 405              	_ZN6tflite3ops5micro11elementwise12_GLOBAL__N_17CosEvalEP13TfLiteContextP10TfLiteNode:
 406              		.fnstart
 407              	.LFB4043:
 408              		@ args = 0, pretend = 0, frame = 0
 409              		@ frame_needed = 0, uses_anonymous_args = 0
 410              		@ link register save eliminated.
 411 0000 00209FE5 		ldr	r2, .L43
 412 0004 FEFFFFEA 		b	_ZN6tflite3ops5micro11elementwise12_GLOBAL__N_18EvalImplIfEE12TfLiteStatusP13TfLiteContextP10TfL
 413              	.L44:
 414              		.align	2
 415              	.L43:
 416 0008 00000000 		.word	_ZSt3cosf
 417              		.cantunwind
 418              		.fnend
 420              		.section	.text._ZN6tflite3ops5micro11elementwise12_GLOBAL__N_19RsqrtEvalEP13TfLiteContextP10TfLite
 421              		.align	2
 422              		.syntax unified
 423              		.arm
 424              		.fpu neon
 426              	_ZN6tflite3ops5micro11elementwise12_GLOBAL__N_19RsqrtEvalEP13TfLiteContextP10TfLiteNode:
 427              		.fnstart
 428              	.LFB4046:
 429              		@ args = 0, pretend = 0, frame = 0
 430              		@ frame_needed = 0, uses_anonymous_args = 0
 431              		@ link register save eliminated.
 432 0000 00209FE5 		ldr	r2, .L46
 433 0004 FEFFFFEA 		b	_ZN6tflite3ops5micro11elementwise12_GLOBAL__N_18EvalImplIfEE12TfLiteStatusP13TfLiteContextP10TfL
 434              	.L47:
 435              		.align	2
 436              	.L46:
 437 0008 00000000 		.word	_ZZN6tflite3ops5micro11elementwise12_GLOBAL__N_19RsqrtEvalEP13TfLiteContextP10TfLiteNodeENUl
 438              		.cantunwind
 439              		.fnend
 441              		.section	.text._ZN6tflite3ops5micro11elementwise12_GLOBAL__N_17LogEvalEP13TfLiteContextP10TfLiteNo
 442              		.align	2
 443              		.syntax unified
 444              		.arm
 445              		.fpu neon
 447              	_ZN6tflite3ops5micro11elementwise12_GLOBAL__N_17LogEvalEP13TfLiteContextP10TfLiteNode:
 448              		.fnstart
 449              	.LFB4044:
 450              		@ args = 0, pretend = 0, frame = 0
 451              		@ frame_needed = 0, uses_anonymous_args = 0
 452              		@ link register save eliminated.
 453 0000 00209FE5 		ldr	r2, .L49
 454 0004 FEFFFFEA 		b	_ZN6tflite3ops5micro11elementwise12_GLOBAL__N_18EvalImplIfEE12TfLiteStatusP13TfLiteContextP10TfL
 455              	.L50:
 456              		.align	2
 457              	.L49:
 458 0008 00000000 		.word	_ZSt3logf
 459              		.cantunwind
 460              		.fnend
 462              		.section	.text._ZN6tflite3ops5micro11elementwise12_GLOBAL__N_18SqrtEvalEP13TfLiteContextP10TfLiteN
 463              		.align	2
 464              		.syntax unified
 465              		.arm
 466              		.fpu neon
 468              	_ZN6tflite3ops5micro11elementwise12_GLOBAL__N_18SqrtEvalEP13TfLiteContextP10TfLiteNode:
 469              		.fnstart
 470              	.LFB4045:
 471              		@ args = 0, pretend = 0, frame = 0
 472              		@ frame_needed = 0, uses_anonymous_args = 0
 473              		@ link register save eliminated.
 474 0000 00209FE5 		ldr	r2, .L52
 475 0004 FEFFFFEA 		b	_ZN6tflite3ops5micro11elementwise12_GLOBAL__N_18EvalImplIfEE12TfLiteStatusP13TfLiteContextP10TfL
 476              	.L53:
 477              		.align	2
 478              	.L52:
 479 0008 00000000 		.word	_ZSt4sqrtf
 480              		.cantunwind
 481              		.fnend
 483              		.section	.text._ZN6tflite3ops5micro11elementwise12_GLOBAL__N_114LogicalNotEvalEP13TfLiteContextP10
 484              		.align	2
 485              		.syntax unified
 486              		.arm
 487              		.fpu neon
 489              	_ZN6tflite3ops5micro11elementwise12_GLOBAL__N_114LogicalNotEvalEP13TfLiteContextP10TfLiteNode:
 490              		.fnstart
 491              	.LFB4054:
 492              		@ args = 0, pretend = 0, frame = 0
 493              		@ frame_needed = 0, uses_anonymous_args = 0
 494 0000 F0432DE9 		push	{r4, r5, r6, r7, r8, r9, lr}
 495              		.save {r4, r5, r6, r7, r8, r9, lr}
 496 0004 0180A0E1 		mov	r8, r1
 497 0008 001091E5 		ldr	r1, [r1]
 498              		.pad #20
 499 000c 14D04DE2 		sub	sp, sp, #20
 500 0010 083090E5 		ldr	r3, [r0, #8]
 501 0014 041091E5 		ldr	r1, [r1, #4]
 502 0018 015383E0 		add	r5, r3, r1, lsl #6
 503 001c 0113D3E7 		ldrb	r1, [r3, r1, lsl #6]	@ zero_extendqisi2
 504 0020 060051E3 		cmp	r1, #6
 505 0024 0E00000A 		beq	.L55
 506 0028 0630A0E3 		mov	r3, #6
 507 002c 08108DE5 		str	r1, [sp, #8]
 508 0030 0C308DE5 		str	r3, [sp, #12]
 509 0034 B4309FE5 		ldr	r3, .L66
 510 0038 B4209FE5 		ldr	r2, .L66+4
 511 003c B4109FE5 		ldr	r1, .L66+8
 512 0040 04308DE5 		str	r3, [sp, #4]
 513 0044 B0309FE5 		ldr	r3, .L66+12
 514 0048 00308DE5 		str	r3, [sp]
 515 004c 3930A0E3 		mov	r3, #57
 516 0050 144090E5 		ldr	r4, [r0, #20]
 517 0054 34FF2FE1 		blx	r4
 518 0058 0100A0E3 		mov	r0, #1
 519              	.L56:
 520 005c 14D08DE2 		add	sp, sp, #20
 521              		@ sp needed
 522 0060 F083BDE8 		pop	{r4, r5, r6, r7, r8, r9, pc}
 523              	.L55:
 524 0064 082095E5 		ldr	r2, [r5, #8]
 525 0068 00C0A0E3 		mov	ip, #0
 526 006c 0100A0E3 		mov	r0, #1
 527 0070 0010A0E3 		mov	r1, #0
 528 0074 049092E4 		ldr	r9, [r2], #4
 529              	.L58:
 530 0078 0C0059E1 		cmp	r9, ip
 531 007c 070000DA 		ble	.L57
 532 0080 044092E4 		ldr	r4, [r2], #4
 533 0084 01C08CE2 		add	ip, ip, #1
 534 0088 C47FA0E1 		asr	r7, r4, #31
 535 008c 90070EE0 		mul	lr, r0, r7
 536 0090 94E12EE0 		mla	lr, r4, r1, lr
 537 0094 900481E0 		umull	r0, r1, r0, r4
 538 0098 01108EE0 		add	r1, lr, r1
 539 009c F5FFFFEA 		b	.L58
 540              	.L57:
 541 00a0 042098E5 		ldr	r2, [r8, #4]
 542 00a4 0040A0E3 		mov	r4, #0
 543 00a8 04C092E5 		ldr	ip, [r2, #4]
 544 00ac 042095E5 		ldr	r2, [r5, #4]
 545 00b0 0050A0E3 		mov	r5, #0
 546 00b4 0C3393E0 		adds	r3, r3, ip, lsl #6
 547 00b8 012042E2 		sub	r2, r2, #1
 548 00bc 04309315 		ldrne	r3, [r3, #4]
 549 00c0 013043E2 		sub	r3, r3, #1
 550              	.L60:
 551 00c4 000054E1 		cmp	r4, r0
 552 00c8 01C0D5E0 		sbcs	ip, r5, r1
 553 00cc 050000AA 		bge	.L62
 554 00d0 01C0F2E5 		ldrb	ip, [r2, #1]!	@ zero_extendqisi2
 555 00d4 014094E2 		adds	r4, r4, #1
 556 00d8 0050A5E2 		adc	r5, r5, #0
 557 00dc 01C02CE2 		eor	ip, ip, #1
 558 00e0 01C0E3E5 		strb	ip, [r3, #1]!
 559 00e4 F6FFFFEA 		b	.L60
 560              	.L62:
 561 00e8 0000A0E3 		mov	r0, #0
 562 00ec DAFFFFEA 		b	.L56
 563              	.L67:
 564              		.align	2
 565              	.L66:
 566 00f0 00000000 		.word	.LC8
 567 00f4 00000000 		.word	.LC0
 568 00f8 49000000 		.word	.LC1
 569 00fc 93000000 		.word	.LC6
 570              		.fnend
 572              		.section	.text._ZN6tflite3ops5micro12Register_ABSEv,"ax",%progbits
 573              		.align	2
 574              		.global	_ZN6tflite3ops5micro12Register_ABSEv
 575              		.syntax unified
 576              		.arm
 577              		.fpu neon
 579              	_ZN6tflite3ops5micro12Register_ABSEv:
 580              		.fnstart
 581              	.LFB4058:
 582              		@ args = 0, pretend = 0, frame = 0
 583              		@ frame_needed = 0, uses_anonymous_args = 0
 584              		@ link register save eliminated.
 585 0000 10009FE5 		ldr	r0, .L69
 586 0004 10309FE5 		ldr	r3, .L69+4
 587 0008 083080E5 		str	r3, [r0, #8]
 588 000c 0C309FE5 		ldr	r3, .L69+8
 589 0010 0C3080E5 		str	r3, [r0, #12]
 590 0014 1EFF2FE1 		bx	lr
 591              	.L70:
 592              		.align	2
 593              	.L69:
 594 0018 00000000 		.word	.LANCHOR0
 595 001c 00000000 		.word	_ZN6tflite3ops5micro11elementwise12_GLOBAL__N_114GenericPrepareIXadL_ZNS3_22IsNumericSupport
 596 0020 00000000 		.word	_ZN6tflite3ops5micro11elementwise12_GLOBAL__N_17AbsEvalEP13TfLiteContextP10TfLiteNode
 597              		.cantunwind
 598              		.fnend
 600              		.section	.text._ZN6tflite3ops5micro12Register_SINEv,"ax",%progbits
 601              		.align	2
 602              		.global	_ZN6tflite3ops5micro12Register_SINEv
 603              		.syntax unified
 604              		.arm
 605              		.fpu neon
 607              	_ZN6tflite3ops5micro12Register_SINEv:
 608              		.fnstart
 609              	.LFB4059:
 610              		@ args = 0, pretend = 0, frame = 0
 611              		@ frame_needed = 0, uses_anonymous_args = 0
 612              		@ link register save eliminated.
 613 0000 10009FE5 		ldr	r0, .L72
 614 0004 10309FE5 		ldr	r3, .L72+4
 615 0008 083080E5 		str	r3, [r0, #8]
 616 000c 0C309FE5 		ldr	r3, .L72+8
 617 0010 0C3080E5 		str	r3, [r0, #12]
 618 0014 1EFF2FE1 		bx	lr
 619              	.L73:
 620              		.align	2
 621              	.L72:
 622 0018 00000000 		.word	.LANCHOR1
 623 001c 00000000 		.word	_ZN6tflite3ops5micro11elementwise12_GLOBAL__N_114GenericPrepareIXadL_ZNS3_22IsNumericSupport
 624 0020 00000000 		.word	_ZN6tflite3ops5micro11elementwise12_GLOBAL__N_17SinEvalEP13TfLiteContextP10TfLiteNode
 625              		.cantunwind
 626              		.fnend
 628              		.section	.text._ZN6tflite3ops5micro12Register_COSEv,"ax",%progbits
 629              		.align	2
 630              		.global	_ZN6tflite3ops5micro12Register_COSEv
 631              		.syntax unified
 632              		.arm
 633              		.fpu neon
 635              	_ZN6tflite3ops5micro12Register_COSEv:
 636              		.fnstart
 637              	.LFB4060:
 638              		@ args = 0, pretend = 0, frame = 0
 639              		@ frame_needed = 0, uses_anonymous_args = 0
 640              		@ link register save eliminated.
 641 0000 10009FE5 		ldr	r0, .L75
 642 0004 10309FE5 		ldr	r3, .L75+4
 643 0008 083080E5 		str	r3, [r0, #8]
 644 000c 0C309FE5 		ldr	r3, .L75+8
 645 0010 0C3080E5 		str	r3, [r0, #12]
 646 0014 1EFF2FE1 		bx	lr
 647              	.L76:
 648              		.align	2
 649              	.L75:
 650 0018 00000000 		.word	.LANCHOR2
 651 001c 00000000 		.word	_ZN6tflite3ops5micro11elementwise12_GLOBAL__N_114GenericPrepareIXadL_ZNS3_22IsNumericSupport
 652 0020 00000000 		.word	_ZN6tflite3ops5micro11elementwise12_GLOBAL__N_17CosEvalEP13TfLiteContextP10TfLiteNode
 653              		.cantunwind
 654              		.fnend
 656              		.section	.text._ZN6tflite3ops5micro12Register_LOGEv,"ax",%progbits
 657              		.align	2
 658              		.global	_ZN6tflite3ops5micro12Register_LOGEv
 659              		.syntax unified
 660              		.arm
 661              		.fpu neon
 663              	_ZN6tflite3ops5micro12Register_LOGEv:
 664              		.fnstart
 665              	.LFB4061:
 666              		@ args = 0, pretend = 0, frame = 0
 667              		@ frame_needed = 0, uses_anonymous_args = 0
 668              		@ link register save eliminated.
 669 0000 10009FE5 		ldr	r0, .L78
 670 0004 10309FE5 		ldr	r3, .L78+4
 671 0008 083080E5 		str	r3, [r0, #8]
 672 000c 0C309FE5 		ldr	r3, .L78+8
 673 0010 0C3080E5 		str	r3, [r0, #12]
 674 0014 1EFF2FE1 		bx	lr
 675              	.L79:
 676              		.align	2
 677              	.L78:
 678 0018 00000000 		.word	.LANCHOR3
 679 001c 00000000 		.word	_ZN6tflite3ops5micro11elementwise12_GLOBAL__N_114GenericPrepareIXadL_ZNS3_22IsNumericSupport
 680 0020 00000000 		.word	_ZN6tflite3ops5micro11elementwise12_GLOBAL__N_17LogEvalEP13TfLiteContextP10TfLiteNode
 681              		.cantunwind
 682              		.fnend
 684              		.section	.text._ZN6tflite3ops5micro13Register_SQRTEv,"ax",%progbits
 685              		.align	2
 686              		.global	_ZN6tflite3ops5micro13Register_SQRTEv
 687              		.syntax unified
 688              		.arm
 689              		.fpu neon
 691              	_ZN6tflite3ops5micro13Register_SQRTEv:
 692              		.fnstart
 693              	.LFB4062:
 694              		@ args = 0, pretend = 0, frame = 0
 695              		@ frame_needed = 0, uses_anonymous_args = 0
 696              		@ link register save eliminated.
 697 0000 10009FE5 		ldr	r0, .L81
 698 0004 10309FE5 		ldr	r3, .L81+4
 699 0008 083080E5 		str	r3, [r0, #8]
 700 000c 0C309FE5 		ldr	r3, .L81+8
 701 0010 0C3080E5 		str	r3, [r0, #12]
 702 0014 1EFF2FE1 		bx	lr
 703              	.L82:
 704              		.align	2
 705              	.L81:
 706 0018 00000000 		.word	.LANCHOR4
 707 001c 00000000 		.word	_ZN6tflite3ops5micro11elementwise12_GLOBAL__N_114GenericPrepareIXadL_ZNS3_22IsNumericSupport
 708 0020 00000000 		.word	_ZN6tflite3ops5micro11elementwise12_GLOBAL__N_18SqrtEvalEP13TfLiteContextP10TfLiteNode
 709              		.cantunwind
 710              		.fnend
 712              		.section	.text._ZN6tflite3ops5micro14Register_RSQRTEv,"ax",%progbits
 713              		.align	2
 714              		.global	_ZN6tflite3ops5micro14Register_RSQRTEv
 715              		.syntax unified
 716              		.arm
 717              		.fpu neon
 719              	_ZN6tflite3ops5micro14Register_RSQRTEv:
 720              		.fnstart
 721              	.LFB4063:
 722              		@ args = 0, pretend = 0, frame = 0
 723              		@ frame_needed = 0, uses_anonymous_args = 0
 724              		@ link register save eliminated.
 725 0000 10009FE5 		ldr	r0, .L84
 726 0004 10309FE5 		ldr	r3, .L84+4
 727 0008 083080E5 		str	r3, [r0, #8]
 728 000c 0C309FE5 		ldr	r3, .L84+8
 729 0010 0C3080E5 		str	r3, [r0, #12]
 730 0014 1EFF2FE1 		bx	lr
 731              	.L85:
 732              		.align	2
 733              	.L84:
 734 0018 00000000 		.word	.LANCHOR5
 735 001c 00000000 		.word	_ZN6tflite3ops5micro11elementwise12_GLOBAL__N_114GenericPrepareIXadL_ZNS3_22IsNumericSupport
 736 0020 00000000 		.word	_ZN6tflite3ops5micro11elementwise12_GLOBAL__N_19RsqrtEvalEP13TfLiteContextP10TfLiteNode
 737              		.cantunwind
 738              		.fnend
 740              		.section	.text._ZN6tflite3ops5micro15Register_SQUAREEv,"ax",%progbits
 741              		.align	2
 742              		.global	_ZN6tflite3ops5micro15Register_SQUAREEv
 743              		.syntax unified
 744              		.arm
 745              		.fpu neon
 747              	_ZN6tflite3ops5micro15Register_SQUAREEv:
 748              		.fnstart
 749              	.LFB4064:
 750              		@ args = 0, pretend = 0, frame = 0
 751              		@ frame_needed = 0, uses_anonymous_args = 0
 752              		@ link register save eliminated.
 753 0000 10009FE5 		ldr	r0, .L87
 754 0004 10309FE5 		ldr	r3, .L87+4
 755 0008 083080E5 		str	r3, [r0, #8]
 756 000c 0C309FE5 		ldr	r3, .L87+8
 757 0010 0C3080E5 		str	r3, [r0, #12]
 758 0014 1EFF2FE1 		bx	lr
 759              	.L88:
 760              		.align	2
 761              	.L87:
 762 0018 00000000 		.word	.LANCHOR6
 763 001c 00000000 		.word	_ZN6tflite3ops5micro11elementwise12_GLOBAL__N_114GenericPrepareIXadL_ZNS3_22IsNumericSupport
 764 0020 00000000 		.word	_ZN6tflite3ops5micro11elementwise12_GLOBAL__N_110SquareEvalEP13TfLiteContextP10TfLiteNode
 765              		.cantunwind
 766              		.fnend
 768              		.section	.text._ZN6tflite3ops5micro20Register_LOGICAL_NOTEv,"ax",%progbits
 769              		.align	2
 770              		.global	_ZN6tflite3ops5micro20Register_LOGICAL_NOTEv
 771              		.syntax unified
 772              		.arm
 773              		.fpu neon
 775              	_ZN6tflite3ops5micro20Register_LOGICAL_NOTEv:
 776              		.fnstart
 777              	.LFB4065:
 778              		@ args = 0, pretend = 0, frame = 0
 779              		@ frame_needed = 0, uses_anonymous_args = 0
 780              		@ link register save eliminated.
 781 0000 10009FE5 		ldr	r0, .L90
 782 0004 10309FE5 		ldr	r3, .L90+4
 783 0008 083080E5 		str	r3, [r0, #8]
 784 000c 0C309FE5 		ldr	r3, .L90+8
 785 0010 0C3080E5 		str	r3, [r0, #12]
 786 0014 1EFF2FE1 		bx	lr
 787              	.L91:
 788              		.align	2
 789              	.L90:
 790 0018 00000000 		.word	.LANCHOR7
 791 001c 00000000 		.word	_ZN6tflite3ops5micro11elementwise12_GLOBAL__N_114GenericPrepareIXadL_ZNS3_22IsLogicalSupport
 792 0020 00000000 		.word	_ZN6tflite3ops5micro11elementwise12_GLOBAL__N_114LogicalNotEvalEP13TfLiteContextP10TfLiteNod
 793              		.cantunwind
 794              		.fnend
 796              		.weak	_ZN11flatbuffers25flatbuffer_version_stringE
 797              		.section	.bss._ZZN6tflite3ops5micro12Register_ABSEvE1r,"aw",%nobits
 798              		.align	2
 799              		.set	.LANCHOR0,. + 0
 802              	_ZZN6tflite3ops5micro12Register_ABSEvE1r:
 803 0000 00000000 		.space	32
 803      00000000 
 803      00000000 
 803      00000000 
 803      00000000 
 804              		.section	.bss._ZZN6tflite3ops5micro12Register_COSEvE1r,"aw",%nobits
 805              		.align	2
 806              		.set	.LANCHOR2,. + 0
 809              	_ZZN6tflite3ops5micro12Register_COSEvE1r:
 810 0000 00000000 		.space	32
 810      00000000 
 810      00000000 
 810      00000000 
 810      00000000 
 811              		.section	.bss._ZZN6tflite3ops5micro12Register_LOGEvE1r,"aw",%nobits
 812              		.align	2
 813              		.set	.LANCHOR3,. + 0
 816              	_ZZN6tflite3ops5micro12Register_LOGEvE1r:
 817 0000 00000000 		.space	32
 817      00000000 
 817      00000000 
 817      00000000 
 817      00000000 
 818              		.section	.bss._ZZN6tflite3ops5micro12Register_SINEvE1r,"aw",%nobits
 819              		.align	2
 820              		.set	.LANCHOR1,. + 0
 823              	_ZZN6tflite3ops5micro12Register_SINEvE1r:
 824 0000 00000000 		.space	32
 824      00000000 
 824      00000000 
 824      00000000 
 824      00000000 
 825              		.section	.bss._ZZN6tflite3ops5micro13Register_SQRTEvE1r,"aw",%nobits
 826              		.align	2
 827              		.set	.LANCHOR4,. + 0
 830              	_ZZN6tflite3ops5micro13Register_SQRTEvE1r:
 831 0000 00000000 		.space	32
 831      00000000 
 831      00000000 
 831      00000000 
 831      00000000 
 832              		.section	.bss._ZZN6tflite3ops5micro14Register_RSQRTEvE1r,"aw",%nobits
 833              		.align	2
 834              		.set	.LANCHOR5,. + 0
 837              	_ZZN6tflite3ops5micro14Register_RSQRTEvE1r:
 838 0000 00000000 		.space	32
 838      00000000 
 838      00000000 
 838      00000000 
 838      00000000 
 839              		.section	.bss._ZZN6tflite3ops5micro15Register_SQUAREEvE1r,"aw",%nobits
 840              		.align	2
 841              		.set	.LANCHOR6,. + 0
 844              	_ZZN6tflite3ops5micro15Register_SQUAREEvE1r:
 845 0000 00000000 		.space	32
 845      00000000 
 845      00000000 
 845      00000000 
 845      00000000 
 846              		.section	.bss._ZZN6tflite3ops5micro20Register_LOGICAL_NOTEvE1r,"aw",%nobits
 847              		.align	2
 848              		.set	.LANCHOR7,. + 0
 851              	_ZZN6tflite3ops5micro20Register_LOGICAL_NOTEvE1r:
 852 0000 00000000 		.space	32
 852      00000000 
 852      00000000 
 852      00000000 
 852      00000000 
 853              		.section	.data._ZN11flatbuffers25flatbuffer_version_stringE,"aw",%progbits
 854              		.align	2
 857              	_ZN11flatbuffers25flatbuffer_version_stringE:
 858 0000 00000000 		.word	.LC9
 859              		.section	.rodata._ZN6tflite3ops5micro11elementwise12_GLOBAL__N_114GenericPrepareIXadL_ZNS3_22IsLog
 860              	.LC0:
 861 0000 2E2E2F73 		.ascii	"../src/tensorflow_lite/src/tensorflow/lite/micro/ke"
 861      72632F74 
 861      656E736F 
 861      72666C6F 
 861      775F6C69 
 862 0033 726E656C 		.ascii	"rnels/elementwise.cpp\000"
 862      732F656C 
 862      656D656E 
 862      74776973 
 862      652E6370 
 863              	.LC1:
 864 0049 25733A25 		.ascii	"%s:%d %s != %s (%d != %d)\000"
 864      64202573 
 864      20213D20 
 864      25732028 
 864      25642021 
 865              	.LC2:
 866 0063 3100     		.ascii	"1\000"
 867              	.LC3:
 868 0065 4E756D49 		.ascii	"NumInputs(node)\000"
 868      6E707574 
 868      73286E6F 
 868      64652900 
 869              	.LC4:
 870 0075 4E756D4F 		.ascii	"NumOutputs(node)\000"
 870      75747075 
 870      7473286E 
 870      6F646529 
 870      00
 871              	.LC5:
 872 0086 6F757470 		.ascii	"output->type\000"
 872      75742D3E 
 872      74797065 
 872      00
 873              	.LC6:
 874 0093 696E7075 		.ascii	"input->type\000"
 874      742D3E74 
 874      79706500 
 875              	.LC7:
 876 009f 496E7075 		.ascii	"Input data type %s (%d) is not supported.\000"
 876      74206461 
 876      74612074 
 876      79706520 
 876      25732028 
 877              		.section	.rodata._ZN6tflite3ops5micro11elementwise12_GLOBAL__N_18EvalImplIfEE12TfLiteStatusP13TfLi
 878              	.LC8:
 879 0000 65787065 		.ascii	"expected_type\000"
 879      63746564 
 879      5F747970 
 879      6500
 880              		.section	.rodata.str1.1,"aMS",%progbits,1
 881              	.LC9:
 882 0000 466C6174 		.ascii	"FlatBuffers 1.11.0\000"
 882      42756666 
 882      65727320 
 882      312E3131 
 882      2E3000
 883              		.ident	"GCC: (GNU Tools for ARM Embedded Processors 6-2017-q2-update) 6.3.1 20170620 (release) [AR