   1              		.cpu cortex-a9
   2              		.eabi_attribute 28, 1
   3              		.eabi_attribute 20, 1
   4              		.eabi_attribute 21, 1
   5              		.eabi_attribute 23, 3
   6              		.eabi_attribute 24, 1
   7              		.eabi_attribute 25, 1
   8              		.eabi_attribute 26, 1
   9              		.eabi_attribute 30, 4
  10              		.eabi_attribute 34, 0
  11              		.eabi_attribute 18, 4
  12              		.file	"fully_connected.cpp"
  13              		.section	.text._ZN6tflite3ops5micro15fully_connected4InitEP13TfLiteContextPKcj,"ax",%progbits
  14              		.align	2
  15              		.global	_ZN6tflite3ops5micro15fully_connected4InitEP13TfLiteContextPKcj
  16              		.syntax unified
  17              		.arm
  18              		.fpu neon
  20              	_ZN6tflite3ops5micro15fully_connected4InitEP13TfLiteContextPKcj:
  21              		.fnstart
  22              	.LFB6223:
  23              		@ args = 0, pretend = 0, frame = 0
  24              		@ frame_needed = 0, uses_anonymous_args = 0
  25              		@ link register save eliminated.
  26 0000 0000A0E3 		mov	r0, #0
  27 0004 1EFF2FE1 		bx	lr
  28              		.cantunwind
  29              		.fnend
  31              		.section	.text._ZN6tflite3ops5micro15fully_connected4FreeEP13TfLiteContextPv,"ax",%progbits
  32              		.align	2
  33              		.global	_ZN6tflite3ops5micro15fully_connected4FreeEP13TfLiteContextPv
  34              		.syntax unified
  35              		.arm
  36              		.fpu neon
  38              	_ZN6tflite3ops5micro15fully_connected4FreeEP13TfLiteContextPv:
  39              		.fnstart
  40              	.LFB6224:
  41              		@ args = 0, pretend = 0, frame = 0
  42              		@ frame_needed = 0, uses_anonymous_args = 0
  43              		@ link register save eliminated.
  44 0000 1EFF2FE1 		bx	lr
  45              		.cantunwind
  46              		.fnend
  48              		.section	.text._ZN6tflite3ops5micro15fully_connected7PrepareEP13TfLiteContextP10TfLiteNode,"ax",%p
  49              		.align	2
  50              		.global	_ZN6tflite3ops5micro15fully_connected7PrepareEP13TfLiteContextP10TfLiteNode
  51              		.syntax unified
  52              		.arm
  53              		.fpu neon
  55              	_ZN6tflite3ops5micro15fully_connected7PrepareEP13TfLiteContextP10TfLiteNode:
  56              		.fnstart
  57              	.LFB6225:
  58              		@ args = 0, pretend = 0, frame = 0
  59              		@ frame_needed = 0, uses_anonymous_args = 0
  60              		@ link register save eliminated.
  61 0000 0000A0E3 		mov	r0, #0
  62 0004 1EFF2FE1 		bx	lr
  63              		.cantunwind
  64              		.fnend
  66              		.section	.text._ZN6tflite12RuntimeShapeD2Ev,"axG",%progbits,_ZN6tflite12RuntimeShapeD5Ev,comdat
  67              		.align	2
  68              		.weak	_ZN6tflite12RuntimeShapeD2Ev
  69              		.syntax unified
  70              		.arm
  71              		.fpu neon
  73              	_ZN6tflite12RuntimeShapeD2Ev:
  74              		.fnstart
  75              	.LFB3207:
  76              		@ args = 0, pretend = 0, frame = 0
  77              		@ frame_needed = 0, uses_anonymous_args = 0
  78 0000 003090E5 		ldr	r3, [r0]
  79 0004 10402DE9 		push	{r4, lr}
  80 0008 0040A0E1 		mov	r4, r0
  81 000c 040053E3 		cmp	r3, #4
  82 0010 030000DA 		ble	.L5
  83 0014 040090E5 		ldr	r0, [r0, #4]
  84 0018 000050E3 		cmp	r0, #0
  85 001c 0000000A 		beq	.L5
  86 0020 FEFFFFEB 		bl	_ZdaPv
  87              	.L5:
  88 0024 0400A0E1 		mov	r0, r4
  89 0028 1080BDE8 		pop	{r4, pc}
  90              		.cantunwind
  91              		.fnend
  93              		.weak	_ZN6tflite12RuntimeShapeD1Ev
  94              		.set	_ZN6tflite12RuntimeShapeD1Ev,_ZN6tflite12RuntimeShapeD2Ev
  95              		.section	.text._ZNK6tflite12RuntimeShape4DimsEi,"axG",%progbits,_ZNK6tflite12RuntimeShape4DimsEi,c
  96              		.align	2
  97              		.weak	_ZNK6tflite12RuntimeShape4DimsEi
  98              		.syntax unified
  99              		.arm
 100              		.fpu neon
 102              	_ZNK6tflite12RuntimeShape4DimsEi:
 103              		.fnstart
 104              	.LFB3210:
 105              		@ args = 0, pretend = 0, frame = 0
 106              		@ frame_needed = 0, uses_anonymous_args = 0
 107 0000 000051E3 		cmp	r1, #0
 108 0004 010000AA 		bge	.L11
 109              	.L12:
 110 0008 10402DE9 		push	{r4, lr}
 111              		.save {r4, lr}
 112 000c FEFFFFEB 		bl	abort
 113              	.L11:
 114 0010 003090E5 		ldr	r3, [r0]
 115 0014 010053E1 		cmp	r3, r1
 116 0018 FAFFFFDA 		ble	.L12
 117 001c 040053E3 		cmp	r3, #4
 118 0020 043090C5 		ldrgt	r3, [r0, #4]
 119 0024 010180D0 		addle	r0, r0, r1, lsl #2
 120 0028 040090D5 		ldrle	r0, [r0, #4]
 121 002c 010193C7 		ldrgt	r0, [r3, r1, lsl #2]
 122 0030 1EFF2FE1 		bx	lr
 123              		.fnend
 125              		.section	.text._ZN6tflite11MatchingDimERKNS_12RuntimeShapeEiS2_i,"axG",%progbits,_ZN6tflite11Match
 126              		.align	2
 127              		.weak	_ZN6tflite11MatchingDimERKNS_12RuntimeShapeEiS2_i
 128              		.syntax unified
 129              		.arm
 130              		.fpu neon
 132              	_ZN6tflite11MatchingDimERKNS_12RuntimeShapeEiS2_i:
 133              		.fnstart
 134              	.LFB3236:
 135              		@ args = 0, pretend = 0, frame = 0
 136              		@ frame_needed = 0, uses_anonymous_args = 0
 137 0000 F0412DE9 		push	{r4, r5, r6, r7, r8, lr}
 138              		.save {r4, r5, r6, r7, r8, lr}
 139 0004 0270A0E1 		mov	r7, r2
 140 0008 0380A0E1 		mov	r8, r3
 141 000c 0150A0E1 		mov	r5, r1
 142 0010 0040A0E1 		mov	r4, r0
 143 0014 FEFFFFEB 		bl	_ZNK6tflite12RuntimeShape4DimsEi
 144 0018 0810A0E1 		mov	r1, r8
 145 001c 0060A0E1 		mov	r6, r0
 146 0020 0700A0E1 		mov	r0, r7
 147 0024 FEFFFFEB 		bl	_ZNK6tflite12RuntimeShape4DimsEi
 148 0028 000056E1 		cmp	r6, r0
 149 002c 0000000A 		beq	.L18
 150 0030 FEFFFFEB 		bl	abort
 151              	.L18:
 152 0034 0510A0E1 		mov	r1, r5
 153 0038 0400A0E1 		mov	r0, r4
 154 003c FEFFFFEB 		bl	_ZNK6tflite12RuntimeShape4DimsEi
 155 0040 F081BDE8 		pop	{r4, r5, r6, r7, r8, pc}
 156              		.fnend
 158              		.section	.text._ZN6tflite15FlatSizeSkipDimERKNS_12RuntimeShapeEi,"axG",%progbits,_ZN6tflite15FlatS
 159              		.align	2
 160              		.weak	_ZN6tflite15FlatSizeSkipDimERKNS_12RuntimeShapeEi
 161              		.syntax unified
 162              		.arm
 163              		.fpu neon
 165              	_ZN6tflite15FlatSizeSkipDimERKNS_12RuntimeShapeEi:
 166              		.fnstart
 167              	.LFB3255:
 168              		@ args = 0, pretend = 0, frame = 0
 169              		@ frame_needed = 0, uses_anonymous_args = 0
 170 0000 00C090E5 		ldr	ip, [r0]
 171 0004 0130E0E1 		mvn	r3, r1
 172 0008 A33FA0E1 		lsr	r3, r3, #31
 173 000c 10402DE9 		push	{r4, lr}
 174              		.save {r4, lr}
 175 0010 0C0051E1 		cmp	r1, ip
 176 0014 0030A0A3 		movge	r3, #0
 177 0018 000053E3 		cmp	r3, #0
 178 001c 0000001A 		bne	.L21
 179 0020 FEFFFFEB 		bl	abort
 180              	.L21:
 181 0024 04005CE3 		cmp	ip, #4
 182 0028 0020A0E3 		mov	r2, #0
 183 002c 043090C5 		ldrgt	r3, [r0, #4]
 184 0030 043080D2 		addle	r3, r0, #4
 185 0034 0100A0E3 		mov	r0, #1
 186              	.L25:
 187 0038 020051E1 		cmp	r1, r2
 188 003c 02E19317 		ldrne	lr, [r3, r2, lsl #2]
 189 0040 012082E2 		add	r2, r2, #1
 190 0044 01E0A003 		moveq	lr, #1
 191 0048 0C0052E1 		cmp	r2, ip
 192 004c 9E0000E0 		mul	r0, lr, r0
 193 0050 F8FFFFBA 		blt	.L25
 194 0054 1080BDE8 		pop	{r4, pc}
 195              		.fnend
 197              		.section	.text._ZN6tflite29MultiplyByQuantizedMultiplierElli,"axG",%progbits,_ZN6tflite29MultiplyB
 198              		.align	2
 199              		.weak	_ZN6tflite29MultiplyByQuantizedMultiplierElli
 200              		.syntax unified
 201              		.arm
 202              		.fpu neon
 204              	_ZN6tflite29MultiplyByQuantizedMultiplierElli:
 205              		.fnstart
 206              	.LFB3274:
 207              		@ args = 0, pretend = 0, frame = 0
 208              		@ frame_needed = 0, uses_anonymous_args = 0
 209 0000 C23FC2E1 		bic	r3, r2, r2, asr #31
 210 0004 70402DE9 		push	{r4, r5, r6, lr}
 211              		.save {r4, r5, r6, lr}
 212 0008 000052E3 		cmp	r2, #0
 213 000c 1033A0E1 		lsl	r3, r0, r3
 214 0010 002062D2 		rsble	r2, r2, #0
 215 0014 0020A0C3 		movgt	r2, #0
 216 0018 9341C5E0 		smull	r4, r5, r3, r1
 217 001c 000054E3 		cmp	r4, #0
 218 0020 0000D5E2 		sbcs	r0, r5, #0
 219 0024 01E1A0A3 		movge	lr, #1073741824
 220 0028 07E1A0B3 		movlt	lr, #-1073741823
 221 002c 010053E1 		cmp	r3, r1
 222 0030 02015303 		cmpeq	r3, #-2147483648
 223 0034 0201E003 		mvneq	r0, #-2147483648
 224 0038 0800000A 		beq	.L32
 225 003c 0E4094E0 		adds	r4, r4, lr
 226 0040 0010A0E3 		mov	r1, #0
 227 0044 CE5FA5E0 		adc	r5, r5, lr, asr #31
 228 0048 C50FA0E1 		asr	r0, r5, #31
 229 004c 0201C0E3 		bic	r0, r0, #-2147483648
 230 0050 040090E0 		adds	r0, r0, r4
 231 0054 A00FA0E1 		lsr	r0, r0, #31
 232 0058 0510A1E0 		adc	r1, r1, r5
 233 005c 810080E1 		orr	r0, r0, r1, lsl #1
 234              	.L32:
 235 0060 1F0052E3 		cmp	r2, #31
 236 0064 040000DA 		ble	.L33
 237 0068 48309FE5 		ldr	r3, .L38+8
 238 006c 671100E3 		movw	r1, #359
 239 0070 44209FE5 		ldr	r2, .L38+12
 240 0074 44009FE5 		ldr	r0, .L38+16
 241 0078 FEFFFFEB 		bl	__assert_func
 242              	.L33:
 243 007c 0B0BDFED 		vldr.64	d16, .L38	@ int
 244 0080 902B01EE 		vmov.32	d17[0], r2
 245 0084 A00471F3 		vshl.u64	d16, d16, d17
 246 0088 304B55EC 		vmov	r4, r5, d16	@ int
 247 008c 014044E2 		sub	r4, r4, #1
 248 0090 003004E0 		and	r3, r4, r0
 249 0094 C440A0E1 		asr	r4, r4, #1
 250 0098 A04F84E0 		add	r4, r4, r0, lsr #31
 251 009c 5002A0E1 		asr	r0, r0, r2
 252 00a0 040053E1 		cmp	r3, r4
 253 00a4 010080C2 		addgt	r0, r0, #1
 254 00a8 7080BDE8 		pop	{r4, r5, r6, pc}
 255              	.L39:
 256 00ac 00F020E3 		.align	3
 257              	.L38:
 258 00b0 01000000 		.word	1
 259 00b4 00000000 		.word	0
 260 00b8 00000000 		.word	.LC0
 261 00bc 00000000 		.word	.LANCHOR0
 262 00c0 0F000000 		.word	.LC1
 263              		.fnend
 265              		.section	.text._ZN6tflite13reference_ops14FullyConnectedERKNS_20FullyConnectedParamsERKNS_12Runtim
 266              		.align	2
 267              		.weak	_ZN6tflite13reference_ops14FullyConnectedERKNS_20FullyConnectedParamsERKNS_12RuntimeShapeEPK
 268              		.syntax unified
 269              		.arm
 270              		.fpu neon
 272              	_ZN6tflite13reference_ops14FullyConnectedERKNS_20FullyConnectedParamsERKNS_12RuntimeShapeEPKhS6_S8_
 273              		.fnstart
 274              	.LFB3310:
 275              		@ args = 20, pretend = 0, frame = 40
 276              		@ frame_needed = 0, uses_anonymous_args = 0
 277 0000 F04F2DE9 		push	{r4, r5, r6, r7, r8, r9, r10, fp, lr}
 278              		.save {r4, r5, r6, r7, r8, r9, r10, fp, lr}
 279 0004 0350A0E1 		mov	r5, r3
 280 0008 003090E5 		ldr	r3, [r0]
 281              		.pad #44
 282 000c 2CD04DE2 		sub	sp, sp, #44
 283 0010 006095E5 		ldr	r6, [r5]
 284 0014 08308DE5 		str	r3, [sp, #8]
 285 0018 043090E5 		ldr	r3, [r0, #4]
 286 001c 010056E3 		cmp	r6, #1
 287 0020 5C709DE5 		ldr	r7, [sp, #92]
 288 0024 14A090E5 		ldr	r10, [r0, #20]
 289 0028 0C308DE5 		str	r3, [sp, #12]
 290 002c 083090E5 		ldr	r3, [r0, #8]
 291 0030 18B090E5 		ldr	fp, [r0, #24]
 292 0034 10308DE5 		str	r3, [sp, #16]
 293 0038 0C3090E5 		ldr	r3, [r0, #12]
 294 003c 14308DE5 		str	r3, [sp, #20]
 295 0040 103090E5 		ldr	r3, [r0, #16]
 296 0044 18308DE5 		str	r3, [sp, #24]
 297 0048 000000CA 		bgt	.L41
 298              	.L42:
 299 004c FEFFFFEB 		bl	abort
 300              	.L41:
 301 0050 008097E5 		ldr	r8, [r7]
 302 0054 000058E3 		cmp	r8, #0
 303 0058 FBFFFFDA 		ble	.L42
 304 005c 0B005AE1 		cmp	r10, fp
 305 0060 F9FFFFCA 		bgt	.L42
 306 0064 018048E2 		sub	r8, r8, #1
 307 0068 0700A0E1 		mov	r0, r7
 308 006c 0810A0E1 		mov	r1, r8
 309 0070 0240A0E1 		mov	r4, r2
 310 0074 FEFFFFEB 		bl	_ZN6tflite15FlatSizeSkipDimERKNS_12RuntimeShapeEi
 311 0078 0830A0E1 		mov	r3, r8
 312 007c 0720A0E1 		mov	r2, r7
 313 0080 021046E2 		sub	r1, r6, #2
 314 0084 1C008DE5 		str	r0, [sp, #28]
 315 0088 0500A0E1 		mov	r0, r5
 316 008c 007064E2 		rsb	r7, r4, #0
 317 0090 FEFFFFEB 		bl	_ZN6tflite11MatchingDimERKNS_12RuntimeShapeEiS2_i
 318 0094 011046E2 		sub	r1, r6, #1
 319 0098 04008DE5 		str	r0, [sp, #4]
 320 009c 0500A0E1 		mov	r0, r5
 321 00a0 0090A0E3 		mov	r9, #0
 322 00a4 FEFFFFEB 		bl	_ZNK6tflite12RuntimeShape4DimsEi
 323 00a8 60809DE5 		ldr	r8, [sp, #96]
 324 00ac 0060A0E1 		mov	r6, r0
 325              	.L49:
 326 00b0 1C309DE5 		ldr	r3, [sp, #28]
 327 00b4 030059E1 		cmp	r9, r3
 328 00b8 2F0000AA 		bge	.L40
 329 00bc 50309DE5 		ldr	r3, [sp, #80]
 330 00c0 0050A0E3 		mov	r5, #0
 331              	.L48:
 332 00c4 04209DE5 		ldr	r2, [sp, #4]
 333 00c8 020055E1 		cmp	r5, r2
 334 00cc 240000AA 		bge	.L44
 335 00d0 03E0A0E1 		mov	lr, r3
 336 00d4 04C0A0E1 		mov	ip, r4
 337 00d8 0000A0E3 		mov	r0, #0
 338              	.L46:
 339 00dc 07208CE0 		add	r2, ip, r7
 340 00e0 020056E1 		cmp	r6, r2
 341 00e4 0B0000DA 		ble	.L45
 342 00e8 0120DCE4 		ldrb	r2, [ip], #1	@ zero_extendqisi2
 343 00ec 0C109DE5 		ldr	r1, [sp, #12]
 344 00f0 20208DE5 		str	r2, [sp, #32]
 345 00f4 0120DEE4 		ldrb	r2, [lr], #1	@ zero_extendqisi2
 346 00f8 012082E0 		add	r2, r2, r1
 347 00fc 08109DE5 		ldr	r1, [sp, #8]
 348 0100 24208DE5 		str	r2, [sp, #36]
 349 0104 20209DE5 		ldr	r2, [sp, #32]
 350 0108 011082E0 		add	r1, r2, r1
 351 010c 24209DE5 		ldr	r2, [sp, #36]
 352 0110 910220E0 		mla	r0, r1, r2, r0
 353 0114 F0FFFFEA 		b	.L46
 354              	.L45:
 355 0118 58209DE5 		ldr	r2, [sp, #88]
 356 011c 14109DE5 		ldr	r1, [sp, #20]
 357 0120 20308DE5 		str	r3, [sp, #32]
 358 0124 000052E3 		cmp	r2, #0
 359 0128 05219217 		ldrne	r2, [r2, r5, lsl #2]
 360 012c 02008010 		addne	r0, r0, r2
 361 0130 18209DE5 		ldr	r2, [sp, #24]
 362 0134 FEFFFFEB 		bl	_ZN6tflite29MultiplyByQuantizedMultiplierElli
 363 0138 10309DE5 		ldr	r3, [sp, #16]
 364 013c 000083E0 		add	r0, r3, r0
 365 0140 20309DE5 		ldr	r3, [sp, #32]
 366 0144 0A0050E1 		cmp	r0, r10
 367 0148 0A00A0B1 		movlt	r0, r10
 368 014c 0B0050E1 		cmp	r0, fp
 369 0150 063083E0 		add	r3, r3, r6
 370 0154 0B00A0A1 		movge	r0, fp
 371 0158 0500C8E7 		strb	r0, [r8, r5]
 372 015c 015085E2 		add	r5, r5, #1
 373 0160 D7FFFFEA 		b	.L48
 374              	.L44:
 375 0164 04309DE5 		ldr	r3, [sp, #4]
 376 0168 019089E2 		add	r9, r9, #1
 377 016c 064084E0 		add	r4, r4, r6
 378 0170 067047E0 		sub	r7, r7, r6
 379 0174 038088E0 		add	r8, r8, r3
 380 0178 CCFFFFEA 		b	.L49
 381              	.L40:
 382 017c 2CD08DE2 		add	sp, sp, #44
 383              		@ sp needed
 384 0180 F08FBDE8 		pop	{r4, r5, r6, r7, r8, r9, r10, fp, pc}
 385              		.fnend
 387              		.section	.text._ZN6tflite21reference_integer_ops14FullyConnectedERKNS_20FullyConnectedParamsERKNS_
 388              		.align	2
 389              		.weak	_ZN6tflite21reference_integer_ops14FullyConnectedERKNS_20FullyConnectedParamsERKNS_12Runtime
 390              		.syntax unified
 391              		.arm
 392              		.fpu neon
 394              	_ZN6tflite21reference_integer_ops14FullyConnectedERKNS_20FullyConnectedParamsERKNS_12RuntimeShapeEP
 395              		.fnstart
 396              	.LFB3313:
 397              		@ args = 20, pretend = 0, frame = 40
 398              		@ frame_needed = 0, uses_anonymous_args = 0
 399 0000 F04F2DE9 		push	{r4, r5, r6, r7, r8, r9, r10, fp, lr}
 400              		.save {r4, r5, r6, r7, r8, r9, r10, fp, lr}
 401 0004 0350A0E1 		mov	r5, r3
 402 0008 003090E5 		ldr	r3, [r0]
 403              		.pad #44
 404 000c 2CD04DE2 		sub	sp, sp, #44
 405 0010 006095E5 		ldr	r6, [r5]
 406 0014 08308DE5 		str	r3, [sp, #8]
 407 0018 043090E5 		ldr	r3, [r0, #4]
 408 001c 010056E3 		cmp	r6, #1
 409 0020 5C709DE5 		ldr	r7, [sp, #92]
 410 0024 18B090E5 		ldr	fp, [r0, #24]
 411 0028 0C308DE5 		str	r3, [sp, #12]
 412 002c 083090E5 		ldr	r3, [r0, #8]
 413 0030 10308DE5 		str	r3, [sp, #16]
 414 0034 0C3090E5 		ldr	r3, [r0, #12]
 415 0038 14308DE5 		str	r3, [sp, #20]
 416 003c 103090E5 		ldr	r3, [r0, #16]
 417 0040 18308DE5 		str	r3, [sp, #24]
 418 0044 143090E5 		ldr	r3, [r0, #20]
 419 0048 04308DE5 		str	r3, [sp, #4]
 420 004c 000000CA 		bgt	.L56
 421              	.L57:
 422 0050 FEFFFFEB 		bl	abort
 423              	.L56:
 424 0054 003097E5 		ldr	r3, [r7]
 425 0058 020053E3 		cmp	r3, #2
 426 005c FBFFFF1A 		bne	.L57
 427 0060 04309DE5 		ldr	r3, [sp, #4]
 428 0064 0B0053E1 		cmp	r3, fp
 429 0068 F8FFFFCA 		bgt	.L57
 430 006c 0010A0E3 		mov	r1, #0
 431 0070 0700A0E1 		mov	r0, r7
 432 0074 0240A0E1 		mov	r4, r2
 433 0078 FEFFFFEB 		bl	_ZNK6tflite12RuntimeShape4DimsEi
 434 007c 0110A0E3 		mov	r1, #1
 435 0080 1C008DE5 		str	r0, [sp, #28]
 436 0084 0700A0E1 		mov	r0, r7
 437 0088 FEFFFFEB 		bl	_ZNK6tflite12RuntimeShape4DimsEi
 438 008c 021046E2 		sub	r1, r6, #2
 439 0090 0090A0E1 		mov	r9, r0
 440 0094 0500A0E1 		mov	r0, r5
 441 0098 FEFFFFEB 		bl	_ZNK6tflite12RuntimeShape4DimsEi
 442 009c 000059E1 		cmp	r9, r0
 443 00a0 EAFFFFCA 		bgt	.L57
 444 00a4 011046E2 		sub	r1, r6, #1
 445 00a8 0500A0E1 		mov	r0, r5
 446 00ac FEFFFFEB 		bl	_ZNK6tflite12RuntimeShape4DimsEi
 447 00b0 60809DE5 		ldr	r8, [sp, #96]
 448 00b4 0060A0E1 		mov	r6, r0
 449 00b8 007064E2 		rsb	r7, r4, #0
 450 00bc 00A0A0E3 		mov	r10, #0
 451              	.L64:
 452 00c0 1C309DE5 		ldr	r3, [sp, #28]
 453 00c4 03005AE1 		cmp	r10, r3
 454 00c8 2E0000AA 		bge	.L55
 455 00cc 50309DE5 		ldr	r3, [sp, #80]
 456 00d0 0050A0E3 		mov	r5, #0
 457              	.L63:
 458 00d4 090055E1 		cmp	r5, r9
 459 00d8 250000AA 		bge	.L59
 460 00dc 03E0A0E1 		mov	lr, r3
 461 00e0 04C0A0E1 		mov	ip, r4
 462 00e4 0000A0E3 		mov	r0, #0
 463              	.L61:
 464 00e8 07208CE0 		add	r2, ip, r7
 465 00ec 020056E1 		cmp	r6, r2
 466 00f0 0B0000DA 		ble	.L60
 467 00f4 D120DCE0 		ldrsb	r2, [ip], #1
 468 00f8 0C109DE5 		ldr	r1, [sp, #12]
 469 00fc 20208DE5 		str	r2, [sp, #32]
 470 0100 D120DEE0 		ldrsb	r2, [lr], #1
 471 0104 012082E0 		add	r2, r2, r1
 472 0108 08109DE5 		ldr	r1, [sp, #8]
 473 010c 24208DE5 		str	r2, [sp, #36]
 474 0110 20209DE5 		ldr	r2, [sp, #32]
 475 0114 011082E0 		add	r1, r2, r1
 476 0118 24209DE5 		ldr	r2, [sp, #36]
 477 011c 910220E0 		mla	r0, r1, r2, r0
 478 0120 F0FFFFEA 		b	.L61
 479              	.L60:
 480 0124 58209DE5 		ldr	r2, [sp, #88]
 481 0128 14109DE5 		ldr	r1, [sp, #20]
 482 012c 20308DE5 		str	r3, [sp, #32]
 483 0130 000052E3 		cmp	r2, #0
 484 0134 05219217 		ldrne	r2, [r2, r5, lsl #2]
 485 0138 02008010 		addne	r0, r0, r2
 486 013c 18209DE5 		ldr	r2, [sp, #24]
 487 0140 FEFFFFEB 		bl	_ZN6tflite29MultiplyByQuantizedMultiplierElli
 488 0144 10309DE5 		ldr	r3, [sp, #16]
 489 0148 000083E0 		add	r0, r3, r0
 490 014c 04309DE5 		ldr	r3, [sp, #4]
 491 0150 030050E1 		cmp	r0, r3
 492 0154 0300A0B1 		movlt	r0, r3
 493 0158 20309DE5 		ldr	r3, [sp, #32]
 494 015c 0B0050E1 		cmp	r0, fp
 495 0160 0B00A0A1 		movge	r0, fp
 496 0164 0500C8E7 		strb	r0, [r8, r5]
 497 0168 063083E0 		add	r3, r3, r6
 498 016c 015085E2 		add	r5, r5, #1
 499 0170 D7FFFFEA 		b	.L63
 500              	.L59:
 501 0174 01A08AE2 		add	r10, r10, #1
 502 0178 098088E0 		add	r8, r8, r9
 503 017c 064084E0 		add	r4, r4, r6
 504 0180 067047E0 		sub	r7, r7, r6
 505 0184 CDFFFFEA 		b	.L64
 506              	.L55:
 507 0188 2CD08DE2 		add	sp, sp, #44
 508              		@ sp needed
 509 018c F08FBDE8 		pop	{r4, r5, r6, r7, r8, r9, r10, fp, pc}
 510              		.fnend
 512              		.section	.text._ZN6tflite14GetTensorShapeEPK12TfLiteTensor,"axG",%progbits,_ZN6tflite14GetTensorSh
 513              		.align	2
 514              		.weak	_ZN6tflite14GetTensorShapeEPK12TfLiteTensor
 515              		.syntax unified
 516              		.arm
 517              		.fpu neon
 519              	_ZN6tflite14GetTensorShapeEPK12TfLiteTensor:
 520              		.fnstart
 521              	.LFB3317:
 522              		@ args = 0, pretend = 0, frame = 0
 523              		@ frame_needed = 0, uses_anonymous_args = 0
 524 0000 000051E3 		cmp	r1, #0
 525 0004 70402DE9 		push	{r4, r5, r6, lr}
 526              		.save {r4, r5, r6, lr}
 527 0008 0040A0E1 		mov	r4, r0
 528 000c 00108005 		streq	r1, [r0]
 529 0010 1100000A 		beq	.L70
 530 0014 085091E5 		ldr	r5, [r1, #8]
 531 0018 003095E5 		ldr	r3, [r5]
 532 001c 040053E3 		cmp	r3, #4
 533 0020 003080E5 		str	r3, [r0]
 534 0024 0361A0E1 		lsl	r6, r3, #2
 535 0028 040000DA 		ble	.L73
 536 002c 2E0273E3 		cmn	r3, #-536870910
 537 0030 0B0000CA 		bgt	.L74
 538 0034 0600A0E1 		mov	r0, r6
 539 0038 FEFFFFEB 		bl	_Znaj
 540 003c 040084E5 		str	r0, [r4, #4]
 541              	.L73:
 542 0040 003094E5 		ldr	r3, [r4]
 543 0044 0620A0E1 		mov	r2, r6
 544 0048 041085E2 		add	r1, r5, #4
 545 004c 040053E3 		cmp	r3, #4
 546 0050 040094C5 		ldrgt	r0, [r4, #4]
 547 0054 040084D2 		addle	r0, r4, #4
 548 0058 FEFFFFEB 		bl	memcpy
 549              	.L70:
 550 005c 0400A0E1 		mov	r0, r4
 551 0060 7080BDE8 		pop	{r4, r5, r6, pc}
 552              	.L74:
 553 0064 FEFFFFEB 		bl	__cxa_throw_bad_array_new_length
 554              		.fnend
 556              		.section	.text._ZN6tflite3ops5micro15fully_connected4EvalEP13TfLiteContextP10TfLiteNode,"ax",%prog
 557              		.align	2
 558              		.global	_ZN6tflite3ops5micro15fully_connected4EvalEP13TfLiteContextP10TfLiteNode
 559              		.syntax unified
 560              		.arm
 561              		.fpu neon
 563              	_ZN6tflite3ops5micro15fully_connected4EvalEP13TfLiteContextP10TfLiteNode:
 564              		.fnstart
 565              	.LFB6229:
 566              		@ args = 0, pretend = 0, frame = 192
 567              		@ frame_needed = 0, uses_anonymous_args = 0
 568 0000 143091E5 		ldr	r3, [r1, #20]
 569 0004 F04F2DE9 		push	{r4, r5, r6, r7, r8, r9, r10, fp, lr}
 570              		.save {r4, r5, r6, r7, r8, r9, r10, fp, lr}
 571 0008 0080A0E1 		mov	r8, r0
 572 000c 028B2DED 		vpush.64	{d8}
 573              		.vsave {d8}
 574              		.pad #220
 575 0010 DCD04DE2 		sub	sp, sp, #220
 576 0014 1C308DE5 		str	r3, [sp, #28]
 577 0018 003091E5 		ldr	r3, [r1]
 578 001c 089090E5 		ldr	r9, [r0, #8]
 579 0020 000093E5 		ldr	r0, [r3]
 580 0024 042093E5 		ldr	r2, [r3, #4]
 581 0028 08A093E5 		ldr	r10, [r3, #8]
 582 002c 020050E3 		cmp	r0, #2
 583 0030 027389E0 		add	r7, r9, r2, lsl #6
 584 0034 0A6389E0 		add	r6, r9, r10, lsl #6
 585 0038 030000DA 		ble	.L133
 586 003c 0C4093E5 		ldr	r4, [r3, #12]
 587 0040 010074E3 		cmn	r4, #1
 588 0044 04438910 		addne	r4, r9, r4, lsl #6
 589 0048 0000001A 		bne	.L79
 590              	.L133:
 591 004c 0040A0E3 		mov	r4, #0
 592              	.L79:
 593 0050 043091E5 		ldr	r3, [r1, #4]
 594 0054 04B093E5 		ldr	fp, [r3, #4]
 595 0058 0233D9E7 		ldrb	r3, [r9, r2, lsl #6]	@ zero_extendqisi2
 596 005c 010053E3 		cmp	r3, #1
 597 0060 0B5389E0 		add	r5, r9, fp, lsl #6
 598 0064 8001000A 		beq	.L81
 599 0068 D8308DE2 		add	r3, sp, #216
 600 006c 0000A0E3 		mov	r0, #0
 601 0070 0010A0E3 		mov	r1, #0
 602 0074 0620A0E1 		mov	r2, r6
 603 0078 F80263E1 		strd	r0, [r3, #-40]!
 604 007c 0710A0E1 		mov	r1, r7
 605 0080 04308DE5 		str	r3, [sp, #4]
 606 0084 0800A0E1 		mov	r0, r8
 607 0088 00508DE5 		str	r5, [sp]
 608 008c 0430A0E1 		mov	r3, r4
 609              	.LEHB0:
 610 0090 FEFFFFEB 		bl	_ZN6tflite32GetQuantizedConvolutionMultiplerEP13TfLiteContextPK12TfLiteTensorS4_S4_PS2_Pd
 611 0094 000050E3 		cmp	r0, #0
 612 0098 1000001A 		bne	.L171
 613 009c 9C108DE2 		add	r1, sp, #156
 614 00a0 4C008DE2 		add	r0, sp, #76
 615 00a4 2C0B9DED 		vldr.64	d0, [sp, #176]
 616 00a8 FEFFFFEB 		bl	_ZN6tflite18QuantizeMultiplierEdPlPi
 617 00ac 9C309DE5 		ldr	r3, [sp, #156]
 618 00b0 0520A0E1 		mov	r2, r5
 619 00b4 0800A0E1 		mov	r0, r8
 620 00b8 003063E2 		rsb	r3, r3, #0
 621 00bc 50308DE5 		str	r3, [sp, #80]
 622 00c0 1C309DE5 		ldr	r3, [sp, #28]
 623 00c4 0010D3E5 		ldrb	r1, [r3]	@ zero_extendqisi2
 624 00c8 58308DE2 		add	r3, sp, #88
 625 00cc 00308DE5 		str	r3, [sp]
 626 00d0 54308DE2 		add	r3, sp, #84
 627 00d4 FEFFFFEB 		bl	_ZN6tflite33CalculateActivationRangeQuantizedEP13TfLiteContext21TfLiteFusedActivationP12TfLiteT
 628              	.LEHE0:
 629 00d8 000050E3 		cmp	r0, #0
 630 00dc 6201000A 		beq	.L81
 631              	.L171:
 632 00e0 0100A0E3 		mov	r0, #1
 633 00e4 550000EA 		b	.L166
 634              	.L134:
 635 00e8 E08ADFED 		vldr.32	s17, .L179+12
 636              	.L170:
 637 00ec DC8A9FED 		vldr.32	s16, .L179
 638 00f0 710100EA 		b	.L85
 639              	.L135:
 640 00f4 088AF1EE 		vmov.f32	s17, #6.0e+0
 641 00f8 FBFFFFEA 		b	.L170
 642              	.L178:
 643 00fc 043096E5 		ldr	r3, [r6, #4]
 644 0100 0410A0E1 		mov	r1, r4
 645 0104 9C008DE2 		add	r0, sp, #156
 646 0108 1C308DE5 		str	r3, [sp, #28]
 647              	.LEHB1:
 648 010c FEFFFFEB 		bl	_ZN6tflite14GetTensorShapeEPK12TfLiteTensor
 649              	.LEHE1:
 650 0110 000054E3 		cmp	r4, #0
 651 0114 0510A0E1 		mov	r1, r5
 652 0118 B0008DE2 		add	r0, sp, #176
 653 011c 04409415 		ldrne	r4, [r4, #4]
 654              	.LEHB2:
 655 0120 FEFFFFEB 		bl	_ZN6tflite14GetTensorShapeEPK12TfLiteTensor
 656              	.LEHE2:
 657 0124 B0609DE5 		ldr	r6, [sp, #176]
 658 0128 000055E3 		cmp	r5, #0
 659 012c B0008DE2 		add	r0, sp, #176
 660 0130 04509515 		ldrne	r5, [r5, #4]
 661 0134 88809DE5 		ldr	r8, [sp, #136]
 662 0138 016046E2 		sub	r6, r6, #1
 663 013c 0610A0E1 		mov	r1, r6
 664              	.LEHB3:
 665 0140 FEFFFFEB 		bl	_ZN6tflite15FlatSizeSkipDimERKNS_12RuntimeShapeEi
 666 0144 20008DE5 		str	r0, [sp, #32]
 667 0148 0630A0E1 		mov	r3, r6
 668 014c B0208DE2 		add	r2, sp, #176
 669 0150 021048E2 		sub	r1, r8, #2
 670 0154 88008DE2 		add	r0, sp, #136
 671 0158 FEFFFFEB 		bl	_ZN6tflite11MatchingDimERKNS_12RuntimeShapeEiS2_i
 672 015c 0060A0E1 		mov	r6, r0
 673 0160 011048E2 		sub	r1, r8, #1
 674 0164 88008DE2 		add	r0, sp, #136
 675 0168 FEFFFFEB 		bl	_ZNK6tflite12RuntimeShape4DimsEi
 676              	.LEHE3:
 677 016c 0631A0E1 		lsl	r3, r6, #2
 678 0170 0081A0E1 		lsl	r8, r0, #2
 679 0174 24308DE5 		str	r3, [sp, #36]
 680 0178 0020A0E3 		mov	r2, #0
 681 017c 0730A0E1 		mov	r3, r7
 682              	.L98:
 683 0180 20109DE5 		ldr	r1, [sp, #32]
 684 0184 020051E1 		cmp	r1, r2
 685 0188 230000DA 		ble	.L88
 686 018c 1C109DE5 		ldr	r1, [sp, #28]
 687 0190 04C0A0E1 		mov	ip, r4
 688 0194 0590A0E1 		mov	r9, r5
 689 0198 00E0A0E3 		mov	lr, #0
 690              	.L97:
 691 019c 0E0056E1 		cmp	r6, lr
 692 01a0 180000DA 		ble	.L89
 693 01a4 AE7ADFED 		vldr.32	s15, .L179
 694 01a8 01A0A0E1 		mov	r10, r1
 695 01ac 03B0A0E1 		mov	fp, r3
 696 01b0 0070A0E3 		mov	r7, #0
 697              	.L91:
 698 01b4 070050E1 		cmp	r0, r7
 699 01b8 016AFBCC 		vldmiagt.32	fp!, {s13}
 700 01bc 017087C2 		addgt	r7, r7, #1
 701 01c0 017ABACC 		vldmiagt.32	r10!, {s14}
 702 01c4 877A46CE 		vmlagt.f32	s15, s13, s14
 703 01c8 F9FFFFCA 		bgt	.L91
 704              	.L90:
 705 01cc 000054E3 		cmp	r4, #0
 706 01d0 01E08EE2 		add	lr, lr, #1
 707 01d4 007A9C1D 		vldrne.32	s14, [ip]
 708 01d8 081081E0 		add	r1, r1, r8
 709 01dc A07A9F0D 		vldreq.32	s14, .L179
 710 01e0 04C08CE2 		add	ip, ip, #4
 711 01e4 877A77EE 		vadd.f32	s15, s15, s14
 712 01e8 487AF4EE 		vcmp.f32	s15, s16
 713 01ec 10FAF1EE 		vmrs	APSR_nzcv, FPSCR
 714 01f0 487AF04E 		vmovmi.f32	s15, s16
 715 01f4 687AF4EE 		vcmp.f32	s15, s17
 716 01f8 10FAF1EE 		vmrs	APSR_nzcv, FPSCR
 717 01fc 687AF0CE 		vmovgt.f32	s15, s17
 718 0200 017AE9EC 		vstmia.32	r9!, {s15}
 719 0204 E4FFFFEA 		b	.L97
 720              	.L89:
 721 0208 24109DE5 		ldr	r1, [sp, #36]
 722 020c 012082E2 		add	r2, r2, #1
 723 0210 083083E0 		add	r3, r3, r8
 724 0214 015085E0 		add	r5, r5, r1
 725 0218 D8FFFFEA 		b	.L98
 726              	.L88:
 727 021c B0008DE2 		add	r0, sp, #176
 728 0220 FEFFFFEB 		bl	_ZN6tflite12RuntimeShapeD1Ev
 729 0224 9C008DE2 		add	r0, sp, #156
 730 0228 FEFFFFEB 		bl	_ZN6tflite12RuntimeShapeD1Ev
 731 022c 88008DE2 		add	r0, sp, #136
 732 0230 FEFFFFEB 		bl	_ZN6tflite12RuntimeShapeD1Ev
 733 0234 74008DE2 		add	r0, sp, #116
 734              	.L173:
 735 0238 FEFFFFEB 		bl	_ZN6tflite12RuntimeShapeD1Ev
 736 023c 0000A0E3 		mov	r0, #0
 737              	.L166:
 738 0240 DCD08DE2 		add	sp, sp, #220
 739              		@ sp needed
 740 0244 028BBDEC 		vldm	sp!, {d8}
 741 0248 F08FBDE8 		pop	{r4, r5, r6, r7, r8, r9, r10, fp, pc}
 742              	.L146:
 743 024c B0008DE2 		add	r0, sp, #176
 744 0250 FEFFFFEB 		bl	_ZN6tflite12RuntimeShapeD1Ev
 745              	.L100:
 746 0254 9C008DE2 		add	r0, sp, #156
 747 0258 FEFFFFEB 		bl	_ZN6tflite12RuntimeShapeD1Ev
 748              	.L101:
 749 025c 88008DE2 		add	r0, sp, #136
 750 0260 FEFFFFEB 		bl	_ZN6tflite12RuntimeShapeD1Ev
 751              	.L102:
 752 0264 74008DE2 		add	r0, sp, #116
 753              	.L174:
 754 0268 FEFFFFEB 		bl	_ZN6tflite12RuntimeShapeD1Ev
 755              	.LEHB4:
 756 026c FEFFFFEB 		bl	__cxa_end_cleanup
 757              	.L145:
 758 0270 F7FFFFEA 		b	.L100
 759              	.L144:
 760 0274 F8FFFFEA 		b	.L101
 761              	.L143:
 762 0278 F9FFFFEA 		b	.L102
 763              	.L103:
 764 027c 103097E5 		ldr	r3, [r7, #16]
 765 0280 0710A0E1 		mov	r1, r7
 766 0284 60008DE2 		add	r0, sp, #96
 767 0288 003063E2 		rsb	r3, r3, #0
 768 028c B0308DE5 		str	r3, [sp, #176]
 769 0290 103096E5 		ldr	r3, [r6, #16]
 770 0294 003063E2 		rsb	r3, r3, #0
 771 0298 B4308DE5 		str	r3, [sp, #180]
 772 029c 103095E5 		ldr	r3, [r5, #16]
 773 02a0 B8308DE5 		str	r3, [sp, #184]
 774 02a4 4C309DE5 		ldr	r3, [sp, #76]
 775 02a8 BC308DE5 		str	r3, [sp, #188]
 776 02ac 50309DE5 		ldr	r3, [sp, #80]
 777 02b0 003063E2 		rsb	r3, r3, #0
 778 02b4 C0308DE5 		str	r3, [sp, #192]
 779 02b8 54309DE5 		ldr	r3, [sp, #84]
 780 02bc C4308DE5 		str	r3, [sp, #196]
 781 02c0 58309DE5 		ldr	r3, [sp, #88]
 782 02c4 C8308DE5 		str	r3, [sp, #200]
 783 02c8 FEFFFFEB 		bl	_ZN6tflite14GetTensorShapeEPK12TfLiteTensor
 784              	.LEHE4:
 785 02cc 0610A0E1 		mov	r1, r6
 786 02d0 74008DE2 		add	r0, sp, #116
 787 02d4 048097E5 		ldr	r8, [r7, #4]
 788              	.LEHB5:
 789 02d8 FEFFFFEB 		bl	_ZN6tflite14GetTensorShapeEPK12TfLiteTensor
 790              	.LEHE5:
 791 02dc 049096E5 		ldr	r9, [r6, #4]
 792 02e0 88608DE2 		add	r6, sp, #136
 793 02e4 0410A0E1 		mov	r1, r4
 794 02e8 0600A0E1 		mov	r0, r6
 795              	.LEHB6:
 796 02ec FEFFFFEB 		bl	_ZN6tflite14GetTensorShapeEPK12TfLiteTensor
 797              	.LEHE6:
 798 02f0 9C708DE2 		add	r7, sp, #156
 799 02f4 000054E3 		cmp	r4, #0
 800 02f8 0510A0E1 		mov	r1, r5
 801 02fc 0700A0E1 		mov	r0, r7
 802 0300 04409415 		ldrne	r4, [r4, #4]
 803              	.LEHB7:
 804 0304 FEFFFFEB 		bl	_ZN6tflite14GetTensorShapeEPK12TfLiteTensor
 805              	.LEHE7:
 806 0308 043095E5 		ldr	r3, [r5, #4]
 807 030c 0820A0E1 		mov	r2, r8
 808 0310 0C708DE5 		str	r7, [sp, #12]
 809 0314 60108DE2 		add	r1, sp, #96
 810 0318 08408DE5 		str	r4, [sp, #8]
 811 031c B0008DE2 		add	r0, sp, #176
 812 0320 10308DE5 		str	r3, [sp, #16]
 813 0324 74308DE2 		add	r3, sp, #116
 814 0328 04608DE5 		str	r6, [sp, #4]
 815 032c 00908DE5 		str	r9, [sp]
 816              	.LEHB8:
 817 0330 FEFFFFEB 		bl	_ZN6tflite21reference_integer_ops14FullyConnectedERKNS_20FullyConnectedParamsERKNS_12RuntimeSha
 818              	.LEHE8:
 819 0334 420000EA 		b	.L175
 820              	.L150:
 821              	.L177:
 822 0338 0700A0E1 		mov	r0, r7
 823 033c FEFFFFEB 		bl	_ZN6tflite12RuntimeShapeD1Ev
 824 0340 FFFFFFEA 		b	.L125
 825              	.L149:
 826              	.L125:
 827 0344 0600A0E1 		mov	r0, r6
 828              	.L176:
 829 0348 FEFFFFEB 		bl	_ZN6tflite12RuntimeShapeD1Ev
 830 034c FFFFFFEA 		b	.L130
 831              	.L148:
 832              	.L130:
 833 0350 74008DE2 		add	r0, sp, #116
 834 0354 FEFFFFEB 		bl	_ZN6tflite12RuntimeShapeD1Ev
 835 0358 FFFFFFEA 		b	.L108
 836              	.L147:
 837              	.L108:
 838 035c 60008DE2 		add	r0, sp, #96
 839 0360 C0FFFFEA 		b	.L174
 840              	.L109:
 841 0364 103096E5 		ldr	r3, [r6, #16]
 842 0368 102097E5 		ldr	r2, [r7, #16]
 843 036c 101095E5 		ldr	r1, [r5, #16]
 844 0370 003063E2 		rsb	r3, r3, #0
 845 0374 B4308DE5 		str	r3, [sp, #180]
 846 0378 002062E2 		rsb	r2, r2, #0
 847 037c 4C309DE5 		ldr	r3, [sp, #76]
 848 0380 B0208DE5 		str	r2, [sp, #176]
 849 0384 B8108DE5 		str	r1, [sp, #184]
 850 0388 BC308DE5 		str	r3, [sp, #188]
 851 038c 50309DE5 		ldr	r3, [sp, #80]
 852 0390 003063E2 		rsb	r3, r3, #0
 853 0394 C0308DE5 		str	r3, [sp, #192]
 854 0398 54309DE5 		ldr	r3, [sp, #84]
 855 039c C4308DE5 		str	r3, [sp, #196]
 856 03a0 58309DE5 		ldr	r3, [sp, #88]
 857 03a4 C8308DE5 		str	r3, [sp, #200]
 858 03a8 0B33D9E7 		ldrb	r3, [r9, fp, lsl #6]	@ zero_extendqisi2
 859 03ac 030053E3 		cmp	r3, #3
 860 03b0 0600000A 		beq	.L111
 861 03b4 070053E3 		cmp	r3, #7
 862 03b8 2E00000A 		beq	.L112
 863 03bc 143098E5 		ldr	r3, [r8, #20]
 864 03c0 0800A0E1 		mov	r0, r8
 865 03c4 9C109FE5 		ldr	r1, .L179+4
 866              	.LEHB9:
 867 03c8 33FF2FE1 		blx	r3
 868 03cc 43FFFFEA 		b	.L171
 869              	.L111:
 870 03d0 0710A0E1 		mov	r1, r7
 871 03d4 60008DE2 		add	r0, sp, #96
 872 03d8 FEFFFFEB 		bl	_ZN6tflite14GetTensorShapeEPK12TfLiteTensor
 873              	.LEHE9:
 874 03dc 0610A0E1 		mov	r1, r6
 875 03e0 74008DE2 		add	r0, sp, #116
 876 03e4 048097E5 		ldr	r8, [r7, #4]
 877              	.LEHB10:
 878 03e8 FEFFFFEB 		bl	_ZN6tflite14GetTensorShapeEPK12TfLiteTensor
 879              	.LEHE10:
 880 03ec 049096E5 		ldr	r9, [r6, #4]
 881 03f0 88608DE2 		add	r6, sp, #136
 882 03f4 0410A0E1 		mov	r1, r4
 883 03f8 0600A0E1 		mov	r0, r6
 884              	.LEHB11:
 885 03fc FEFFFFEB 		bl	_ZN6tflite14GetTensorShapeEPK12TfLiteTensor
 886              	.LEHE11:
 887 0400 9C708DE2 		add	r7, sp, #156
 888 0404 000054E3 		cmp	r4, #0
 889 0408 0510A0E1 		mov	r1, r5
 890 040c 0700A0E1 		mov	r0, r7
 891 0410 04409415 		ldrne	r4, [r4, #4]
 892              	.LEHB12:
 893 0414 FEFFFFEB 		bl	_ZN6tflite14GetTensorShapeEPK12TfLiteTensor
 894              	.LEHE12:
 895 0418 043095E5 		ldr	r3, [r5, #4]
 896 041c 0820A0E1 		mov	r2, r8
 897 0420 0C708DE5 		str	r7, [sp, #12]
 898 0424 60108DE2 		add	r1, sp, #96
 899 0428 08408DE5 		str	r4, [sp, #8]
 900 042c B0008DE2 		add	r0, sp, #176
 901 0430 10308DE5 		str	r3, [sp, #16]
 902 0434 74308DE2 		add	r3, sp, #116
 903 0438 04608DE5 		str	r6, [sp, #4]
 904 043c 00908DE5 		str	r9, [sp]
 905              	.LEHB13:
 906 0440 FEFFFFEB 		bl	_ZN6tflite13reference_ops14FullyConnectedERKNS_20FullyConnectedParamsERKNS_12RuntimeShapeEPKhS6
 907              	.LEHE13:
 908              	.L175:
 909 0444 0700A0E1 		mov	r0, r7
 910 0448 FEFFFFEB 		bl	_ZN6tflite12RuntimeShapeD1Ev
 911 044c 0600A0E1 		mov	r0, r6
 912              	.L172:
 913 0450 FEFFFFEB 		bl	_ZN6tflite12RuntimeShapeD1Ev
 914 0454 74008DE2 		add	r0, sp, #116
 915 0458 FEFFFFEB 		bl	_ZN6tflite12RuntimeShapeD1Ev
 916 045c 60008DE2 		add	r0, sp, #96
 917 0460 74FFFFEA 		b	.L173
 918              	.L180:
 919              		.align	2
 920              	.L179:
 921 0464 00000000 		.word	0
 922 0468 00000000 		.word	.LC2
 923 046c 41000000 		.word	.LC3
 924 0470 FFFF7F7F 		.word	2139095039
 925 0474 FFFF7FFF 		.word	-8388609
 926              	.L112:
 927 0478 0710A0E1 		mov	r1, r7
 928 047c 60008DE2 		add	r0, sp, #96
 929              	.LEHB14:
 930 0480 FEFFFFEB 		bl	_ZN6tflite14GetTensorShapeEPK12TfLiteTensor
 931              	.LEHE14:
 932 0484 0610A0E1 		mov	r1, r6
 933 0488 74008DE2 		add	r0, sp, #116
 934 048c 047097E5 		ldr	r7, [r7, #4]
 935              	.LEHB15:
 936 0490 FEFFFFEB 		bl	_ZN6tflite14GetTensorShapeEPK12TfLiteTensor
 937              	.LEHE15:
 938 0494 043096E5 		ldr	r3, [r6, #4]
 939 0498 0410A0E1 		mov	r1, r4
 940 049c 88008DE2 		add	r0, sp, #136
 941 04a0 2C308DE5 		str	r3, [sp, #44]
 942              	.LEHB16:
 943 04a4 FEFFFFEB 		bl	_ZN6tflite14GetTensorShapeEPK12TfLiteTensor
 944              	.LEHE16:
 945 04a8 000054E3 		cmp	r4, #0
 946 04ac 0510A0E1 		mov	r1, r5
 947 04b0 04309415 		ldrne	r3, [r4, #4]
 948 04b4 9C008DE2 		add	r0, sp, #156
 949 04b8 24408D05 		streq	r4, [sp, #36]
 950 04bc 24308D15 		strne	r3, [sp, #36]
 951              	.LEHB17:
 952 04c0 FEFFFFEB 		bl	_ZN6tflite14GetTensorShapeEPK12TfLiteTensor
 953              	.LEHE17:
 954 04c4 BC209DE5 		ldr	r2, [sp, #188]
 955 04c8 B0309DE5 		ldr	r3, [sp, #176]
 956 04cc C4B09DE5 		ldr	fp, [sp, #196]
 957 04d0 38208DE5 		str	r2, [sp, #56]
 958 04d4 C0209DE5 		ldr	r2, [sp, #192]
 959 04d8 30308DE5 		str	r3, [sp, #48]
 960 04dc B4309DE5 		ldr	r3, [sp, #180]
 961 04e0 3C208DE5 		str	r2, [sp, #60]
 962 04e4 C8209DE5 		ldr	r2, [sp, #200]
 963 04e8 34308DE5 		str	r3, [sp, #52]
 964 04ec 045095E5 		ldr	r5, [r5, #4]
 965 04f0 02005BE1 		cmp	fp, r2
 966 04f4 B8309DE5 		ldr	r3, [sp, #184]
 967 04f8 1C208DE5 		str	r2, [sp, #28]
 968 04fc 040000DA 		ble	.L116
 969              	.LEHB18:
 970 0500 FEFFFFEB 		bl	abort
 971              	.L158:
 972 0504 9C008DE2 		add	r0, sp, #156
 973 0508 FEFFFFEB 		bl	_ZN6tflite12RuntimeShapeD1Ev
 974              	.L129:
 975 050c 88008DE2 		add	r0, sp, #136
 976 0510 8CFFFFEA 		b	.L176
 977              	.L116:
 978 0514 000053E3 		cmp	r3, #0
 979 0518 0000000A 		beq	.L117
 980 051c FEFFFFEB 		bl	abort
 981              	.L117:
 982 0520 9C609DE5 		ldr	r6, [sp, #156]
 983 0524 9C008DE2 		add	r0, sp, #156
 984 0528 74409DE5 		ldr	r4, [sp, #116]
 985 052c 016046E2 		sub	r6, r6, #1
 986 0530 0610A0E1 		mov	r1, r6
 987 0534 FEFFFFEB 		bl	_ZN6tflite15FlatSizeSkipDimERKNS_12RuntimeShapeEi
 988 0538 40008DE5 		str	r0, [sp, #64]
 989 053c 0630A0E1 		mov	r3, r6
 990 0540 9C208DE2 		add	r2, sp, #156
 991 0544 021044E2 		sub	r1, r4, #2
 992 0548 74008DE2 		add	r0, sp, #116
 993 054c FEFFFFEB 		bl	_ZN6tflite11MatchingDimERKNS_12RuntimeShapeEiS2_i
 994 0550 28008DE5 		str	r0, [sp, #40]
 995 0554 011044E2 		sub	r1, r4, #1
 996 0558 74008DE2 		add	r0, sp, #116
 997 055c FEFFFFEB 		bl	_ZNK6tflite12RuntimeShape4DimsEi
 998 0560 28309DE5 		ldr	r3, [sp, #40]
 999 0564 0060A0E1 		mov	r6, r0
 1000 0568 0740A0E1 		mov	r4, r7
 1001 056c 008067E2 		rsb	r8, r7, #0
 1002 0570 0090A0E3 		mov	r9, #0
 1003 0574 8330A0E1 		lsl	r3, r3, #1
 1004 0578 44308DE5 		str	r3, [sp, #68]
 1005              	.L123:
 1006 057c 40309DE5 		ldr	r3, [sp, #64]
 1007 0580 090053E1 		cmp	r3, r9
 1008 0584 280000DA 		ble	.L118
 1009 0588 2CA09DE5 		ldr	r10, [sp, #44]
 1010 058c 0070A0E3 		mov	r7, #0
 1011 0590 20508DE5 		str	r5, [sp, #32]
 1012              	.L122:
 1013 0594 28309DE5 		ldr	r3, [sp, #40]
 1014 0598 070053E1 		cmp	r3, r7
 1015 059c 1C0000DA 		ble	.L119
 1016 05a0 24309DE5 		ldr	r3, [sp, #36]
 1017 05a4 0AC0A0E1 		mov	ip, r10
 1018 05a8 0410A0E1 		mov	r1, r4
 1019 05ac 070193E7 		ldr	r0, [r3, r7, lsl #2]
 1020              	.L121:
 1021 05b0 083081E0 		add	r3, r1, r8
 1022 05b4 030056E1 		cmp	r6, r3
 1023 05b8 070000DA 		ble	.L120
 1024 05bc 34E09DE5 		ldr	lr, [sp, #52]
 1025 05c0 0120DCE4 		ldrb	r2, [ip], #1	@ zero_extendqisi2
 1026 05c4 0130D1E4 		ldrb	r3, [r1], #1	@ zero_extendqisi2
 1027 05c8 0E2082E0 		add	r2, r2, lr
 1028 05cc 30E09DE5 		ldr	lr, [sp, #48]
 1029 05d0 0E3083E0 		add	r3, r3, lr
 1030 05d4 820300E1 		smlabb	r0, r2, r3, r0
 1031 05d8 F4FFFFEA 		b	.L121
 1032              	.L120:
 1033 05dc 3C209DE5 		ldr	r2, [sp, #60]
 1034 05e0 38109DE5 		ldr	r1, [sp, #56]
 1035 05e4 FEFFFFEB 		bl	_ZN6tflite29MultiplyByQuantizedMultiplierElli
 1036              	.LEHE18:
 1037 05e8 1C309DE5 		ldr	r3, [sp, #28]
 1038 05ec 00005BE1 		cmp	fp, r0
 1039 05f0 0B00A0A1 		movge	r0, fp
 1040 05f4 017087E2 		add	r7, r7, #1
 1041 05f8 06A08AE0 		add	r10, r10, r6
 1042 05fc 030050E1 		cmp	r0, r3
 1043 0600 0300A0A1 		movge	r0, r3
 1044 0604 20309DE5 		ldr	r3, [sp, #32]
 1045 0608 B200C3E0 		strh	r0, [r3], #2	@ movhi
 1046 060c 20308DE5 		str	r3, [sp, #32]
 1047 0610 DFFFFFEA 		b	.L122
 1048              	.L119:
 1049 0614 44309DE5 		ldr	r3, [sp, #68]
 1050 0618 019089E2 		add	r9, r9, #1
 1051 061c 064084E0 		add	r4, r4, r6
 1052 0620 068048E0 		sub	r8, r8, r6
 1053 0624 035085E0 		add	r5, r5, r3
 1054 0628 D3FFFFEA 		b	.L123
 1055              	.L118:
 1056 062c 9C008DE2 		add	r0, sp, #156
 1057 0630 FEFFFFEB 		bl	_ZN6tflite12RuntimeShapeD1Ev
 1058 0634 88008DE2 		add	r0, sp, #136
 1059 0638 84FFFFEA 		b	.L172
 1060              	.L154:
 1061 063c 3DFFFFEA 		b	.L177
 1062              	.L153:
 1063 0640 3FFFFFEA 		b	.L125
 1064              	.L152:
 1065 0644 41FFFFEA 		b	.L130
 1066              	.L151:
 1067 0648 43FFFFEA 		b	.L108
 1068              	.L157:
 1069 064c AEFFFFEA 		b	.L129
 1070              	.L156:
 1071 0650 3EFFFFEA 		b	.L130
 1072              	.L155:
 1073 0654 40FFFFEA 		b	.L108
 1074              	.L168:
 1075 0658 143098E5 		ldr	r3, [r8, #20]
 1076 065c 0800A0E1 		mov	r0, r8
 1077 0660 FC111FE5 		ldr	r1, .L179+8
 1078              	.LEHB19:
 1079 0664 33FF2FE1 		blx	r3
 1080 0668 9CFEFFEA 		b	.L171
 1081              	.L81:
 1082 066c 0A23D9E7 		ldrb	r2, [r9, r10, lsl #6]	@ zero_extendqisi2
 1083 0670 030052E3 		cmp	r2, #3
 1084 0674 3AFFFF0A 		beq	.L109
 1085 0678 090052E3 		cmp	r2, #9
 1086 067c FEFEFF0A 		beq	.L103
 1087 0680 010052E3 		cmp	r2, #1
 1088 0684 F3FFFF1A 		bne	.L168
 1089 0688 1C309DE5 		ldr	r3, [sp, #28]
 1090 068c 0030D3E5 		ldrb	r3, [r3]	@ zero_extendqisi2
 1091 0690 010053E3 		cmp	r3, #1
 1092 0694 93FEFF0A 		beq	.L134
 1093 0698 030053E3 		cmp	r3, #3
 1094 069c 94FEFF0A 		beq	.L135
 1095 06a0 8E7A5FED 		vldr.32	s15, .L179+12
 1096 06a4 020053E3 		cmp	r3, #2
 1097 06a8 008AF7EE 		vmov.f32	s17, #1.0e+0
 1098 06ac 008ABFEE 		vmov.f32	s16, #-1.0e+0
 1099 06b0 678AF01E 		vmovne.f32	s17, s15
 1100 06b4 927A5FED 		vldr.32	s15, .L179+16
 1101 06b8 678AB01E 		vmovne.f32	s16, s15
 1102              	.L85:
 1103 06bc 0710A0E1 		mov	r1, r7
 1104 06c0 74008DE2 		add	r0, sp, #116
 1105 06c4 FEFFFFEB 		bl	_ZN6tflite14GetTensorShapeEPK12TfLiteTensor
 1106              	.LEHE19:
 1107 06c8 0610A0E1 		mov	r1, r6
 1108 06cc 88008DE2 		add	r0, sp, #136
 1109 06d0 047097E5 		ldr	r7, [r7, #4]
 1110              	.LEHB20:
 1111 06d4 FEFFFFEB 		bl	_ZN6tflite14GetTensorShapeEPK12TfLiteTensor
 1112              	.LEHE20:
 1113 06d8 87FEFFEA 		b	.L178
 1114              		.global	__gxx_personality_v0
 1115              		.personality	__gxx_personality_v0
 1116              		.handlerdata
 1117              	.LLSDA6229:
 1118 000c FF       		.byte	0xff
 1119 000d FF       		.byte	0xff
 1120 000e 01       		.byte	0x1
 1121 000f 7A       		.uleb128 .LLSDACSE6229-.LLSDACSB6229
 1122              	.LLSDACSB6229:
 1123 0010 9001     		.uleb128 .LEHB0-.LFB6229
 1124 0012 48       		.uleb128 .LEHE0-.LEHB0
 1125 0013 00       		.uleb128 0
 1126 0014 00       		.uleb128 0
 1127 0015 8C02     		.uleb128 .LEHB1-.LFB6229
 1128 0017 04       		.uleb128 .LEHE1-.LEHB1
 1129 0018 F404     		.uleb128 .L144-.LFB6229
 1130 001a 00       		.uleb128 0
 1131 001b A002     		.uleb128 .LEHB2-.LFB6229
 1132 001d 04       		.uleb128 .LEHE2-.LEHB2
 1133 001e F004     		.uleb128 .L145-.LFB6229
 1134 0020 00       		.uleb128 0
 1135 0021 C002     		.uleb128 .LEHB3-.LFB6229
 1136 0023 2C       		.uleb128 .LEHE3-.LEHB3
 1137 0024 CC04     		.uleb128 .L146-.LFB6229
 1138 0026 00       		.uleb128 0
 1139 0027 EC04     		.uleb128 .LEHB4-.LFB6229
 1140 0029 60       		.uleb128 .LEHE4-.LEHB4
 1141 002a 00       		.uleb128 0
 1142 002b 00       		.uleb128 0
 1143 002c D805     		.uleb128 .LEHB5-.LFB6229
 1144 002e 04       		.uleb128 .LEHE5-.LEHB5
 1145 002f DC06     		.uleb128 .L147-.LFB6229
 1146 0031 00       		.uleb128 0
 1147 0032 EC05     		.uleb128 .LEHB6-.LFB6229
 1148 0034 04       		.uleb128 .LEHE6-.LEHB6
 1149 0035 D006     		.uleb128 .L148-.LFB6229
 1150 0037 00       		.uleb128 0
 1151 0038 8406     		.uleb128 .LEHB7-.LFB6229
 1152 003a 04       		.uleb128 .LEHE7-.LEHB7
 1153 003b C406     		.uleb128 .L149-.LFB6229
 1154 003d 00       		.uleb128 0
 1155 003e B006     		.uleb128 .LEHB8-.LFB6229
 1156 0040 04       		.uleb128 .LEHE8-.LEHB8
 1157 0041 B806     		.uleb128 .L150-.LFB6229
 1158 0043 00       		.uleb128 0
 1159 0044 C807     		.uleb128 .LEHB9-.LFB6229
 1160 0046 14       		.uleb128 .LEHE9-.LEHB9
 1161 0047 00       		.uleb128 0
 1162 0048 00       		.uleb128 0
 1163 0049 E807     		.uleb128 .LEHB10-.LFB6229
 1164 004b 04       		.uleb128 .LEHE10-.LEHB10
 1165 004c C80C     		.uleb128 .L151-.LFB6229
 1166 004e 00       		.uleb128 0
 1167 004f FC07     		.uleb128 .LEHB11-.LFB6229
 1168 0051 04       		.uleb128 .LEHE11-.LEHB11
 1169 0052 C40C     		.uleb128 .L152-.LFB6229
 1170 0054 00       		.uleb128 0
 1171 0055 9408     		.uleb128 .LEHB12-.LFB6229
 1172 0057 04       		.uleb128 .LEHE12-.LEHB12
 1173 0058 C00C     		.uleb128 .L153-.LFB6229
 1174 005a 00       		.uleb128 0
 1175 005b C008     		.uleb128 .LEHB13-.LFB6229
 1176 005d 04       		.uleb128 .LEHE13-.LEHB13
 1177 005e BC0C     		.uleb128 .L154-.LFB6229
 1178 0060 00       		.uleb128 0
 1179 0061 8009     		.uleb128 .LEHB14-.LFB6229
 1180 0063 04       		.uleb128 .LEHE14-.LEHB14
 1181 0064 00       		.uleb128 0
 1182 0065 00       		.uleb128 0
 1183 0066 9009     		.uleb128 .LEHB15-.LFB6229
 1184 0068 04       		.uleb128 .LEHE15-.LEHB15
 1185 0069 D40C     		.uleb128 .L155-.LFB6229
 1186 006b 00       		.uleb128 0
 1187 006c A409     		.uleb128 .LEHB16-.LFB6229
 1188 006e 04       		.uleb128 .LEHE16-.LEHB16
 1189 006f D00C     		.uleb128 .L156-.LFB6229
 1190 0071 00       		.uleb128 0
 1191 0072 C009     		.uleb128 .LEHB17-.LFB6229
 1192 0074 04       		.uleb128 .LEHE17-.LEHB17
 1193 0075 CC0C     		.uleb128 .L157-.LFB6229
 1194 0077 00       		.uleb128 0
 1195 0078 800A     		.uleb128 .LEHB18-.LFB6229
 1196 007a E801     		.uleb128 .LEHE18-.LEHB18
 1197 007c 840A     		.uleb128 .L158-.LFB6229
 1198 007e 00       		.uleb128 0
 1199 007f E40C     		.uleb128 .LEHB19-.LFB6229
 1200 0081 64       		.uleb128 .LEHE19-.LEHB19
 1201 0082 00       		.uleb128 0
 1202 0083 00       		.uleb128 0
 1203 0084 D40D     		.uleb128 .LEHB20-.LFB6229
 1204 0086 04       		.uleb128 .LEHE20-.LEHB20
 1205 0087 F804     		.uleb128 .L143-.LFB6229
 1206 0089 00       		.uleb128 0
 1207              	.LLSDACSE6229:
 1208              		.section	.text._ZN6tflite3ops5micro15fully_connected4EvalEP13TfLiteContextP10TfLiteNode
 1209              		.fnend
 1211              		.section	.text._ZN6tflite3ops5micro24Register_FULLY_CONNECTEDEv,"ax",%progbits
 1212              		.align	2
 1213              		.global	_ZN6tflite3ops5micro24Register_FULLY_CONNECTEDEv
 1214              		.syntax unified
 1215              		.arm
 1216              		.fpu neon
 1218              	_ZN6tflite3ops5micro24Register_FULLY_CONNECTEDEv:
 1219              		.fnstart
 1220              	.LFB6230:
 1221              		@ args = 0, pretend = 0, frame = 0
 1222              		@ frame_needed = 0, uses_anonymous_args = 0
 1223              		@ link register save eliminated.
 1224 0000 20009FE5 		ldr	r0, .L182
 1225 0004 20309FE5 		ldr	r3, .L182+4
 1226 0008 003080E5 		str	r3, [r0]
 1227 000c 1C309FE5 		ldr	r3, .L182+8
 1228 0010 043080E5 		str	r3, [r0, #4]
 1229 0014 18309FE5 		ldr	r3, .L182+12
 1230 0018 083080E5 		str	r3, [r0, #8]
 1231 001c 14309FE5 		ldr	r3, .L182+16
 1232 0020 0C3080E5 		str	r3, [r0, #12]
 1233 0024 1EFF2FE1 		bx	lr
 1234              	.L183:
 1235              		.align	2
 1236              	.L182:
 1237 0028 00000000 		.word	.LANCHOR1
 1238 002c 00000000 		.word	_ZN6tflite3ops5micro15fully_connected4InitEP13TfLiteContextPKcj
 1239 0030 00000000 		.word	_ZN6tflite3ops5micro15fully_connected4FreeEP13TfLiteContextPv
 1240 0034 00000000 		.word	_ZN6tflite3ops5micro15fully_connected7PrepareEP13TfLiteContextP10TfLiteNode
 1241 0038 00000000 		.word	_ZN6tflite3ops5micro15fully_connected4EvalEP13TfLiteContextP10TfLiteNode
 1242              		.cantunwind
 1243              		.fnend
 1245              		.weak	_ZN11flatbuffers25flatbuffer_version_stringE
 1246              		.section	.bss._ZZN6tflite3ops5micro24Register_FULLY_CONNECTEDEvE1r,"aw",%nobits
 1247              		.align	2
 1248              		.set	.LANCHOR1,. + 0
 1251              	_ZZN6tflite3ops5micro24Register_FULLY_CONNECTEDEvE1r:
 1252 0000 00000000 		.space	32
 1252      00000000 
 1252      00000000 
 1252      00000000 
 1252      00000000 
 1253              		.section	.data._ZN11flatbuffers25flatbuffer_version_stringE,"aw",%progbits
 1254              		.align	2
 1257              	_ZN11flatbuffers25flatbuffer_version_stringE:
 1258 0000 00000000 		.word	.LC4
 1259              		.section	.rodata._ZN6tflite29MultiplyByQuantizedMultiplierElli.str1.1,"aMS",%progbits,1
 1260              	.LC0:
 1261 0000 6578706F 		.ascii	"exponent <= 31\000"
 1261      6E656E74 
 1261      203C3D20 
 1261      333100
 1262              	.LC1:
 1263 000f 433A2F52 		.ascii	"C:/Renesas/e2studio_2021_01_workspace_RZA2M_ANPR/AN"
 1263      656E6573 
 1263      61732F65 
 1263      32737475 
 1263      64696F5F 
 1264 0042 50525F52 		.ascii	"PR_RZA2M_GR_MANGO/src/tensorflow_lite/src/third_par"
 1264      5A41324D 
 1264      5F47525F 
 1264      4D414E47 
 1264      4F2F7372 
 1265 0075 74792F67 		.ascii	"ty/gemmlowp/fixedpoint/fixedpoint.h\000"
 1265      656D6D6C 
 1265      6F77702F 
 1265      66697865 
 1265      64706F69 
 1266              		.section	.rodata._ZN6tflite3ops5micro15fully_connected4EvalEP13TfLiteContextP10TfLiteNode.str1.1,"
 1267              	.LC2:
 1268 0000 5175616E 		.ascii	"Quantized FullyConnected expects output data type u"
 1268      74697A65 
 1268      64204675 
 1268      6C6C7943 
 1268      6F6E6E65 
 1269 0033 696E7438 		.ascii	"int8 or int16\000"
 1269      206F7220 
 1269      696E7431 
 1269      3600
 1270              	.LC3:
 1271 0041 54797065 		.ascii	"Type %d not currently supported.\000"
 1271      20256420 
 1271      6E6F7420 
 1271      63757272 
 1271      656E746C 
 1272              		.section	.rodata._ZZN8gemmlowp19RoundingDivideByPOTIlEET_S1_iE19__PRETTY_FUNCTION__,"a",%progbits
 1273              		.set	.LANCHOR0,. + 0
 1276              	_ZZN8gemmlowp19RoundingDivideByPOTIlEET_S1_iE19__PRETTY_FUNCTION__:
 1277 0000 496E7465 		.ascii	"IntegerType gemmlowp::RoundingDivideByPOT(IntegerTy"
 1277      67657254 
 1277      79706520 
 1277      67656D6D 
 1277      6C6F7770 
 1278 0033 70652C20 		.ascii	"pe, int) [with IntegerType = long int]\000"
 1278      696E7429 
 1278      205B7769 
 1278      74682049 
 1278      6E746567 
 1279              		.section	.rodata.str1.1,"aMS",%progbits,1
 1280              	.LC4:
 1281 0000 466C6174 		.ascii	"FlatBuffers 1.11.0\000"
 1281      42756666 
 1281      65727320 
 1281      312E3131 
 1281      2E3000
 1282              		.ident	"GCC: (GNU Tools for ARM Embedded Processors 6-2017-q2-update) 6.3.1 20170620 (release) [AR