   1              		.cpu cortex-a9
   2              		.eabi_attribute 28, 1
   3              		.eabi_attribute 20, 1
   4              		.eabi_attribute 21, 1
   5              		.eabi_attribute 23, 3
   6              		.eabi_attribute 24, 1
   7              		.eabi_attribute 25, 1
   8              		.eabi_attribute 26, 1
   9              		.eabi_attribute 30, 4
  10              		.eabi_attribute 34, 0
  11              		.eabi_attribute 18, 4
  12              		.file	"logical.cpp"
  13              		.section	.text._ZN6tflite3ops5micro7logical12_GLOBAL__N_19LogicalOrEbb,"ax",%progbits
  14              		.align	2
  15              		.syntax unified
  16              		.arm
  17              		.fpu neon
  19              	_ZN6tflite3ops5micro7logical12_GLOBAL__N_19LogicalOrEbb:
  20              		.fnstart
  21              	.LFB6215:
  22              		@ args = 0, pretend = 0, frame = 0
  23              		@ frame_needed = 0, uses_anonymous_args = 0
  24              		@ link register save eliminated.
  25 0000 010080E1 		orr	r0, r0, r1
  26 0004 1EFF2FE1 		bx	lr
  27              		.cantunwind
  28              		.fnend
  30              		.section	.text._ZN6tflite3ops5micro7logical12_GLOBAL__N_110LogicalAndEbb,"ax",%progbits
  31              		.align	2
  32              		.syntax unified
  33              		.arm
  34              		.fpu neon
  36              	_ZN6tflite3ops5micro7logical12_GLOBAL__N_110LogicalAndEbb:
  37              		.fnstart
  38              	.LFB6217:
  39              		@ args = 0, pretend = 0, frame = 0
  40              		@ frame_needed = 0, uses_anonymous_args = 0
  41              		@ link register save eliminated.
  42 0000 010000E0 		and	r0, r0, r1
  43 0004 1EFF2FE1 		bx	lr
  44              		.cantunwind
  45              		.fnend
  47              		.section	.text._ZN6tflite12RuntimeShapeD2Ev,"axG",%progbits,_ZN6tflite12RuntimeShapeD5Ev,comdat
  48              		.align	2
  49              		.weak	_ZN6tflite12RuntimeShapeD2Ev
  50              		.syntax unified
  51              		.arm
  52              		.fpu neon
  54              	_ZN6tflite12RuntimeShapeD2Ev:
  55              		.fnstart
  56              	.LFB3207:
  57              		@ args = 0, pretend = 0, frame = 0
  58              		@ frame_needed = 0, uses_anonymous_args = 0
  59 0000 003090E5 		ldr	r3, [r0]
  60 0004 10402DE9 		push	{r4, lr}
  61 0008 0040A0E1 		mov	r4, r0
  62 000c 040053E3 		cmp	r3, #4
  63 0010 030000DA 		ble	.L4
  64 0014 040090E5 		ldr	r0, [r0, #4]
  65 0018 000050E3 		cmp	r0, #0
  66 001c 0000000A 		beq	.L4
  67 0020 FEFFFFEB 		bl	_ZdaPv
  68              	.L4:
  69 0024 0400A0E1 		mov	r0, r4
  70 0028 1080BDE8 		pop	{r4, pc}
  71              		.cantunwind
  72              		.fnend
  74              		.weak	_ZN6tflite12RuntimeShapeD1Ev
  75              		.set	_ZN6tflite12RuntimeShapeD1Ev,_ZN6tflite12RuntimeShapeD2Ev
  76              		.section	.text._ZNK6tflite12RuntimeShape4DimsEi,"axG",%progbits,_ZNK6tflite12RuntimeShape4DimsEi,c
  77              		.align	2
  78              		.weak	_ZNK6tflite12RuntimeShape4DimsEi
  79              		.syntax unified
  80              		.arm
  81              		.fpu neon
  83              	_ZNK6tflite12RuntimeShape4DimsEi:
  84              		.fnstart
  85              	.LFB3210:
  86              		@ args = 0, pretend = 0, frame = 0
  87              		@ frame_needed = 0, uses_anonymous_args = 0
  88 0000 000051E3 		cmp	r1, #0
  89 0004 010000AA 		bge	.L10
  90              	.L11:
  91 0008 10402DE9 		push	{r4, lr}
  92              		.save {r4, lr}
  93 000c FEFFFFEB 		bl	abort
  94              	.L10:
  95 0010 003090E5 		ldr	r3, [r0]
  96 0014 010053E1 		cmp	r3, r1
  97 0018 FAFFFFDA 		ble	.L11
  98 001c 040053E3 		cmp	r3, #4
  99 0020 043090C5 		ldrgt	r3, [r0, #4]
 100 0024 010180D0 		addle	r0, r0, r1, lsl #2
 101 0028 040090D5 		ldrle	r0, [r0, #4]
 102 002c 010193C7 		ldrgt	r0, [r3, r1, lsl #2]
 103 0030 1EFF2FE1 		bx	lr
 104              		.fnend
 106              		.section	.text._ZN6tflite12RuntimeShapeC2EiRKS0_i,"axG",%progbits,_ZN6tflite12RuntimeShapeC5EiRKS0
 107              		.align	2
 108              		.weak	_ZN6tflite12RuntimeShapeC2EiRKS0_i
 109              		.syntax unified
 110              		.arm
 111              		.fpu neon
 113              	_ZN6tflite12RuntimeShapeC2EiRKS0_i:
 114              		.fnstart
 115              	.LFB3223:
 116              		@ args = 0, pretend = 0, frame = 0
 117              		@ frame_needed = 0, uses_anonymous_args = 0
 118 0000 F0412DE9 		push	{r4, r5, r6, r7, r8, lr}
 119              		.save {r4, r5, r6, r7, r8, lr}
 120 0004 0370A0E1 		mov	r7, r3
 121 0008 0030A0E3 		mov	r3, #0
 122 000c 003080E5 		str	r3, [r0]
 123 0010 003092E5 		ldr	r3, [r2]
 124 0014 010053E1 		cmp	r3, r1
 125 0018 000000DA 		ble	.L17
 126              	.L21:
 127 001c FEFFFFEB 		bl	abort
 128              	.L17:
 129 0020 040051E3 		cmp	r1, #4
 130 0024 0050A0E1 		mov	r5, r0
 131 0028 0140A0E1 		mov	r4, r1
 132 002c 0260A0E1 		mov	r6, r2
 133 0030 001085E5 		str	r1, [r5]
 134 0034 040000DA 		ble	.L18
 135 0038 2E0271E3 		cmn	r1, #-536870910
 136 003c 130000CA 		bgt	.L19
 137 0040 0101A0E1 		lsl	r0, r1, #2
 138 0044 FEFFFFEB 		bl	_Znaj
 139 0048 040085E5 		str	r0, [r5, #4]
 140              	.L18:
 141 004c 000096E5 		ldr	r0, [r6]
 142 0050 041085E2 		add	r1, r5, #4
 143 0054 0020A0E3 		mov	r2, #0
 144 0058 004044E0 		sub	r4, r4, r0
 145 005c 0100A0E1 		mov	r0, r1
 146              	.L24:
 147 0060 040052E1 		cmp	r2, r4
 148 0064 00C095E5 		ldr	ip, [r5]
 149 0068 090000AA 		bge	.L20
 150 006c 0C0052E1 		cmp	r2, ip
 151 0070 E9FFFFAA 		bge	.L21
 152 0074 04005CE3 		cmp	ip, #4
 153 0078 041081E2 		add	r1, r1, #4
 154 007c 043095C5 		ldrgt	r3, [r5, #4]
 155 0080 047001D5 		strle	r7, [r1, #-4]
 156 0084 027183C7 		strgt	r7, [r3, r2, lsl #2]
 157 0088 012082E2 		add	r2, r2, #1
 158 008c F3FFFFEA 		b	.L24
 159              	.L19:
 160 0090 FEFFFFEB 		bl	__cxa_throw_bad_array_new_length
 161              	.L20:
 162 0094 04005CE3 		cmp	ip, #4
 163 0098 002096E5 		ldr	r2, [r6]
 164 009c 040095C5 		ldrgt	r0, [r5, #4]
 165 00a0 040052E3 		cmp	r2, #4
 166 00a4 041096C5 		ldrgt	r1, [r6, #4]
 167 00a8 041086D2 		addle	r1, r6, #4
 168 00ac 040180E0 		add	r0, r0, r4, lsl #2
 169 00b0 0221A0E1 		lsl	r2, r2, #2
 170 00b4 FEFFFFEB 		bl	memcpy
 171 00b8 0500A0E1 		mov	r0, r5
 172 00bc F081BDE8 		pop	{r4, r5, r6, r7, r8, pc}
 173              		.fnend
 175              		.weak	_ZN6tflite12RuntimeShapeC1EiRKS0_i
 176              		.set	_ZN6tflite12RuntimeShapeC1EiRKS0_i,_ZN6tflite12RuntimeShapeC2EiRKS0_i
 177              		.section	.text._ZN6tflite16SubscriptToIndexERKNS_11NdArrayDescILi4EEEiiii,"axG",%progbits,_ZN6tfli
 178              		.align	2
 179              		.weak	_ZN6tflite16SubscriptToIndexERKNS_11NdArrayDescILi4EEEiiii
 180              		.syntax unified
 181              		.arm
 182              		.fpu neon
 184              	_ZN6tflite16SubscriptToIndexERKNS_11NdArrayDescILi4EEEiiii:
 185              		.fnstart
 186              	.LFB3293:
 187              		@ args = 4, pretend = 0, frame = 0
 188              		@ frame_needed = 0, uses_anonymous_args = 0
 189 0000 000051E3 		cmp	r1, #0
 190 0004 10402DE9 		push	{r4, lr}
 191              		.save {r4, lr}
 192 0008 08C09DE5 		ldr	ip, [sp, #8]
 193 000c 020000BA 		blt	.L32
 194 0010 00E090E5 		ldr	lr, [r0]
 195 0014 0E0051E1 		cmp	r1, lr
 196 0018 000000BA 		blt	.L33
 197              	.L32:
 198 001c FEFFFFEB 		bl	abort
 199              	.L33:
 200 0020 000052E3 		cmp	r2, #0
 201 0024 FCFFFFBA 		blt	.L32
 202 0028 04E090E5 		ldr	lr, [r0, #4]
 203 002c 0E0052E1 		cmp	r2, lr
 204 0030 F9FFFFAA 		bge	.L32
 205 0034 000053E3 		cmp	r3, #0
 206 0038 F7FFFFBA 		blt	.L32
 207 003c 08E090E5 		ldr	lr, [r0, #8]
 208 0040 0E0053E1 		cmp	r3, lr
 209 0044 F4FFFFAA 		bge	.L32
 210 0048 00005CE3 		cmp	ip, #0
 211 004c F2FFFFBA 		blt	.L32
 212 0050 0CE090E5 		ldr	lr, [r0, #12]
 213 0054 0E005CE1 		cmp	ip, lr
 214 0058 EFFFFFAA 		bge	.L32
 215 005c 14E090E5 		ldr	lr, [r0, #20]
 216 0060 104090E5 		ldr	r4, [r0, #16]
 217 0064 9E0202E0 		mul	r2, lr, r2
 218 0068 942121E0 		mla	r1, r4, r1, r2
 219 006c 182090E5 		ldr	r2, [r0, #24]
 220 0070 1C0090E5 		ldr	r0, [r0, #28]
 221 0074 921323E0 		mla	r3, r2, r3, r1
 222 0078 903C20E0 		mla	r0, r0, ip, r3
 223 007c 1080BDE8 		pop	{r4, pc}
 224              		.fnend
 226              		.section	.text._ZN6tflite14GetTensorShapeEPK12TfLiteTensor,"axG",%progbits,_ZN6tflite14GetTensorSh
 227              		.align	2
 228              		.weak	_ZN6tflite14GetTensorShapeEPK12TfLiteTensor
 229              		.syntax unified
 230              		.arm
 231              		.fpu neon
 233              	_ZN6tflite14GetTensorShapeEPK12TfLiteTensor:
 234              		.fnstart
 235              	.LFB3309:
 236              		@ args = 0, pretend = 0, frame = 0
 237              		@ frame_needed = 0, uses_anonymous_args = 0
 238 0000 000051E3 		cmp	r1, #0
 239 0004 70402DE9 		push	{r4, r5, r6, lr}
 240              		.save {r4, r5, r6, lr}
 241 0008 0040A0E1 		mov	r4, r0
 242 000c 00108005 		streq	r1, [r0]
 243 0010 1100000A 		beq	.L35
 244 0014 085091E5 		ldr	r5, [r1, #8]
 245 0018 003095E5 		ldr	r3, [r5]
 246 001c 040053E3 		cmp	r3, #4
 247 0020 003080E5 		str	r3, [r0]
 248 0024 0361A0E1 		lsl	r6, r3, #2
 249 0028 040000DA 		ble	.L38
 250 002c 2E0273E3 		cmn	r3, #-536870910
 251 0030 0B0000CA 		bgt	.L39
 252 0034 0600A0E1 		mov	r0, r6
 253 0038 FEFFFFEB 		bl	_Znaj
 254 003c 040084E5 		str	r0, [r4, #4]
 255              	.L38:
 256 0040 003094E5 		ldr	r3, [r4]
 257 0044 0620A0E1 		mov	r2, r6
 258 0048 041085E2 		add	r1, r5, #4
 259 004c 040053E3 		cmp	r3, #4
 260 0050 040094C5 		ldrgt	r0, [r4, #4]
 261 0054 040084D2 		addle	r0, r4, #4
 262 0058 FEFFFFEB 		bl	memcpy
 263              	.L35:
 264 005c 0400A0E1 		mov	r0, r4
 265 0060 7080BDE8 		pop	{r4, r5, r6, pc}
 266              	.L39:
 267 0064 FEFFFFEB 		bl	__cxa_throw_bad_array_new_length
 268              		.fnend
 270              		.section	.text._ZN6tflite3ops5micro19Register_LOGICAL_OREv,"ax",%progbits
 271              		.align	2
 272              		.global	_ZN6tflite3ops5micro19Register_LOGICAL_OREv
 273              		.syntax unified
 274              		.arm
 275              		.fpu neon
 277              	_ZN6tflite3ops5micro19Register_LOGICAL_OREv:
 278              		.fnstart
 279              	.LFB6219:
 280              		@ args = 0, pretend = 0, frame = 0
 281              		@ frame_needed = 0, uses_anonymous_args = 0
 282              		@ link register save eliminated.
 283 0000 08009FE5 		ldr	r0, .L44
 284 0004 08309FE5 		ldr	r3, .L44+4
 285 0008 0C3080E5 		str	r3, [r0, #12]
 286 000c 1EFF2FE1 		bx	lr
 287              	.L45:
 288              		.align	2
 289              	.L44:
 290 0010 00000000 		.word	.LANCHOR0
 291 0014 00000000 		.word	_ZN6tflite3ops5micro7logical12_GLOBAL__N_113LogicalOrEvalEP13TfLiteContextP10TfLiteNode
 292              		.cantunwind
 293              		.fnend
 295              		.section	.text._ZN6tflite3ops5micro20Register_LOGICAL_ANDEv,"ax",%progbits
 296              		.align	2
 297              		.global	_ZN6tflite3ops5micro20Register_LOGICAL_ANDEv
 298              		.syntax unified
 299              		.arm
 300              		.fpu neon
 302              	_ZN6tflite3ops5micro20Register_LOGICAL_ANDEv:
 303              		.fnstart
 304              	.LFB6220:
 305              		@ args = 0, pretend = 0, frame = 0
 306              		@ frame_needed = 0, uses_anonymous_args = 0
 307              		@ link register save eliminated.
 308 0000 08009FE5 		ldr	r0, .L47
 309 0004 08309FE5 		ldr	r3, .L47+4
 310 0008 0C3080E5 		str	r3, [r0, #12]
 311 000c 1EFF2FE1 		bx	lr
 312              	.L48:
 313              		.align	2
 314              	.L47:
 315 0010 00000000 		.word	.LANCHOR1
 316 0014 00000000 		.word	_ZN6tflite3ops5micro7logical12_GLOBAL__N_114LogicalAndEvalEP13TfLiteContextP10TfLiteNode
 317              		.cantunwind
 318              		.fnend
 320              		.section	.text._ZN6tflite13reference_ops14BinaryFunctionIbbbEEvRKNS_12RuntimeShapeEPKT0_S4_PKT1_S4
 321              		.align	2
 322              		.weak	_ZN6tflite13reference_ops14BinaryFunctionIbbbEEvRKNS_12RuntimeShapeEPKT0_S4_PKT1_S4_PT_PFSB_
 323              		.syntax unified
 324              		.arm
 325              		.fpu neon
 327              	_ZN6tflite13reference_ops14BinaryFunctionIbbbEEvRKNS_12RuntimeShapeEPKT0_S4_PKT1_S4_PT_PFSB_S5_S8_E
 328              		.fnstart
 329              	.LFB6560:
 330              		@ args = 12, pretend = 0, frame = 0
 331              		@ frame_needed = 0, uses_anonymous_args = 0
 332 0000 F84F2DE9 		push	{r3, r4, r5, r6, r7, r8, r9, r10, fp, lr}
 333              		.save {r3, r4, r5, r6, r7, r8, r9, r10, fp, lr}
 334 0004 0390A0E1 		mov	r9, r3
 335 0008 00B090E5 		ldr	fp, [r0]
 336 000c 003092E5 		ldr	r3, [r2]
 337 0010 28A09DE5 		ldr	r10, [sp, #40]
 338 0014 03005BE1 		cmp	fp, r3
 339 0018 0F00001A 		bne	.L50
 340 001c 0040A0E1 		mov	r4, r0
 341 0020 0180A0E1 		mov	r8, r1
 342 0024 0260A0E1 		mov	r6, r2
 343 0028 0050A0E3 		mov	r5, #0
 344              	.L51:
 345 002c 05005BE1 		cmp	fp, r5
 346 0030 0A0000DA 		ble	.L52
 347 0034 0510A0E1 		mov	r1, r5
 348 0038 0400A0E1 		mov	r0, r4
 349 003c FEFFFFEB 		bl	_ZNK6tflite12RuntimeShape4DimsEi
 350 0040 0510A0E1 		mov	r1, r5
 351 0044 0070A0E1 		mov	r7, r0
 352 0048 0600A0E1 		mov	r0, r6
 353 004c FEFFFFEB 		bl	_ZNK6tflite12RuntimeShape4DimsEi
 354 0050 000057E1 		cmp	r7, r0
 355 0054 01508502 		addeq	r5, r5, #1
 356 0058 F3FFFF0A 		beq	.L51
 357              	.L50:
 358 005c FEFFFFEB 		bl	abort
 359              	.L52:
 360 0060 00B094E5 		ldr	fp, [r4]
 361 0064 00309AE5 		ldr	r3, [r10]
 362 0068 03005BE1 		cmp	fp, r3
 363 006c FAFFFF1A 		bne	.L50
 364 0070 0050A0E3 		mov	r5, #0
 365              	.L54:
 366 0074 05005BE1 		cmp	fp, r5
 367 0078 0A0000DA 		ble	.L53
 368 007c 0510A0E1 		mov	r1, r5
 369 0080 0400A0E1 		mov	r0, r4
 370 0084 FEFFFFEB 		bl	_ZNK6tflite12RuntimeShape4DimsEi
 371 0088 0510A0E1 		mov	r1, r5
 372 008c 0060A0E1 		mov	r6, r0
 373 0090 0A00A0E1 		mov	r0, r10
 374 0094 FEFFFFEB 		bl	_ZNK6tflite12RuntimeShape4DimsEi
 375 0098 000056E1 		cmp	r6, r0
 376 009c EEFFFF1A 		bne	.L50
 377 00a0 015085E2 		add	r5, r5, #1
 378 00a4 F2FFFFEA 		b	.L54
 379              	.L53:
 380 00a8 002094E5 		ldr	r2, [r4]
 381 00ac 0030A0E3 		mov	r3, #0
 382 00b0 0150A0E3 		mov	r5, #1
 383 00b4 040052E3 		cmp	r2, #4
 384 00b8 044094C5 		ldrgt	r4, [r4, #4]
 385 00bc 044084D2 		addle	r4, r4, #4
 386              	.L59:
 387 00c0 030052E1 		cmp	r2, r3
 388 00c4 0A0000CA 		bgt	.L57
 389 00c8 0040A0E3 		mov	r4, #0
 390              	.L58:
 391 00cc 050054E1 		cmp	r4, r5
 392 00d0 F88FBDA8 		popge	{r3, r4, r5, r6, r7, r8, r9, r10, fp, pc}
 393 00d4 0410D9E7 		ldrb	r1, [r9, r4]	@ zero_extendqisi2
 394 00d8 0400D8E7 		ldrb	r0, [r8, r4]	@ zero_extendqisi2
 395 00dc 30309DE5 		ldr	r3, [sp, #48]
 396 00e0 33FF2FE1 		blx	r3
 397 00e4 2C309DE5 		ldr	r3, [sp, #44]
 398 00e8 0400C3E7 		strb	r0, [r3, r4]
 399 00ec 014084E2 		add	r4, r4, #1
 400 00f0 F5FFFFEA 		b	.L58
 401              	.L57:
 402 00f4 031194E7 		ldr	r1, [r4, r3, lsl #2]
 403 00f8 013083E2 		add	r3, r3, #1
 404 00fc 910505E0 		mul	r5, r1, r5
 405 0100 EEFFFFEA 		b	.L59
 406              		.fnend
 408              		.section	.text._ZN6tflite14CopyDimsToDescILi4EEEvRKNS_12RuntimeShapeEPNS_11NdArrayDescIXT_EEE,"axG
 409              		.align	2
 410              		.weak	_ZN6tflite14CopyDimsToDescILi4EEEvRKNS_12RuntimeShapeEPNS_11NdArrayDescIXT_EEE
 411              		.syntax unified
 412              		.arm
 413              		.fpu neon
 415              	_ZN6tflite14CopyDimsToDescILi4EEEvRKNS_12RuntimeShapeEPNS_11NdArrayDescIXT_EEE:
 416              		.fnstart
 417              	.LFB6878:
 418              		@ args = 0, pretend = 0, frame = 0
 419              		@ frame_needed = 0, uses_anonymous_args = 0
 420 0000 F0412DE9 		push	{r4, r5, r6, r7, r8, lr}
 421              		.save {r4, r5, r6, r7, r8, lr}
 422 0004 0070A0E1 		mov	r7, r0
 423 0008 0C6081E2 		add	r6, r1, #12
 424 000c 0340A0E3 		mov	r4, #3
 425 0010 0150A0E3 		mov	r5, #1
 426              	.L63:
 427 0014 0410A0E1 		mov	r1, r4
 428 0018 0700A0E1 		mov	r0, r7
 429 001c FEFFFFEB 		bl	_ZNK6tflite12RuntimeShape4DimsEi
 430 0020 0410A0E1 		mov	r1, r4
 431 0024 040006E4 		str	r0, [r6], #-4
 432 0028 0700A0E1 		mov	r0, r7
 433 002c 145086E5 		str	r5, [r6, #20]
 434 0030 FEFFFFEB 		bl	_ZNK6tflite12RuntimeShape4DimsEi
 435 0034 014054E2 		subs	r4, r4, #1
 436 0038 900505E0 		mul	r5, r0, r5
 437 003c F4FFFF2A 		bcs	.L63
 438 0040 F081BDE8 		pop	{r4, r5, r6, r7, r8, pc}
 439              		.fnend
 441              		.section	.text._ZN6tflite13reference_ops29BroadcastBinaryFunction4DSlowIbbbEEvRKNS_12RuntimeShapeE
 442              		.align	2
 443              		.weak	_ZN6tflite13reference_ops29BroadcastBinaryFunction4DSlowIbbbEEvRKNS_12RuntimeShapeEPKT0_S4_P
 444              		.syntax unified
 445              		.arm
 446              		.fpu neon
 448              	_ZN6tflite13reference_ops29BroadcastBinaryFunction4DSlowIbbbEEvRKNS_12RuntimeShapeEPKT0_S4_PKT1_S4_
 449              		.fnstart
 450              	.LFB6561:
 451              		@ args = 12, pretend = 0, frame = 136
 452              		@ frame_needed = 0, uses_anonymous_args = 0
 453 0000 F04F2DE9 		push	{r4, r5, r6, r7, r8, r9, r10, fp, lr}
 454              		.save {r4, r5, r6, r7, r8, r9, r10, fp, lr}
 455 0004 03A0A0E1 		mov	r10, r3
 456 0008 003090E5 		ldr	r3, [r0]
 457              		.pad #148
 458 000c 94D04DE2 		sub	sp, sp, #148
 459 0010 0240A0E1 		mov	r4, r2
 460 0014 0C108DE5 		str	r1, [sp, #12]
 461 0018 040053E3 		cmp	r3, #4
 462 001c B8209DE5 		ldr	r2, [sp, #184]
 463 0020 000000DA 		ble	.L67
 464              	.L68:
 465              	.LEHB0:
 466 0024 FEFFFFEB 		bl	abort
 467              	.L67:
 468 0028 003094E5 		ldr	r3, [r4]
 469 002c 040053E3 		cmp	r3, #4
 470 0030 FBFFFFCA 		bgt	.L68
 471 0034 003092E5 		ldr	r3, [r2]
 472 0038 040053E3 		cmp	r3, #4
 473 003c F8FFFFCA 		bgt	.L68
 474 0040 0050A0E1 		mov	r5, r0
 475 0044 0130A0E3 		mov	r3, #1
 476 0048 0410A0E3 		mov	r1, #4
 477 004c 14008DE2 		add	r0, sp, #20
 478 0050 FEFFFFEB 		bl	_ZN6tflite12RuntimeShapeC1EiRKS0_i
 479              	.LEHE0:
 480 0054 0130A0E3 		mov	r3, #1
 481 0058 0520A0E1 		mov	r2, r5
 482 005c 0410A0E3 		mov	r1, #4
 483 0060 28008DE2 		add	r0, sp, #40
 484              	.LEHB1:
 485 0064 FEFFFFEB 		bl	_ZN6tflite12RuntimeShapeC1EiRKS0_i
 486              	.LEHE1:
 487 0068 0130A0E3 		mov	r3, #1
 488 006c 0420A0E1 		mov	r2, r4
 489 0070 0410A0E3 		mov	r1, #4
 490 0074 3C008DE2 		add	r0, sp, #60
 491              	.LEHB2:
 492 0078 FEFFFFEB 		bl	_ZN6tflite12RuntimeShapeC1EiRKS0_i
 493              	.LEHE2:
 494 007c 50908DE2 		add	r9, sp, #80
 495 0080 28008DE2 		add	r0, sp, #40
 496 0084 0910A0E1 		mov	r1, r9
 497              	.LEHB3:
 498 0088 FEFFFFEB 		bl	_ZN6tflite14CopyDimsToDescILi4EEEvRKNS_12RuntimeShapeEPNS_11NdArrayDescIXT_EEE
 499 008c 70608DE2 		add	r6, sp, #112
 500 0090 3C008DE2 		add	r0, sp, #60
 501 0094 0610A0E1 		mov	r1, r6
 502 0098 FEFFFFEB 		bl	_ZN6tflite14CopyDimsToDescILi4EEEvRKNS_12RuntimeShapeEPNS_11NdArrayDescIXT_EEE
 503 009c 0040A0E3 		mov	r4, #0
 504 00a0 1050A0E3 		mov	r5, #16
 505 00a4 0480A0E1 		mov	r8, r4
 506              	.L72:
 507 00a8 0410A0E1 		mov	r1, r4
 508 00ac 28008DE2 		add	r0, sp, #40
 509 00b0 FEFFFFEB 		bl	_ZNK6tflite12RuntimeShape4DimsEi
 510 00b4 0070A0E1 		mov	r7, r0
 511 00b8 0410A0E1 		mov	r1, r4
 512 00bc 3C008DE2 		add	r0, sp, #60
 513 00c0 FEFFFFEB 		bl	_ZNK6tflite12RuntimeShape4DimsEi
 514 00c4 000057E1 		cmp	r7, r0
 515 00c8 0F00000A 		beq	.L69
 516 00cc 010057E3 		cmp	r7, #1
 517 00d0 05808907 		streq	r8, [r9, r5]
 518 00d4 04018907 		streq	r0, [r9, r4, lsl #2]
 519 00d8 0B00000A 		beq	.L69
 520 00dc 010050E3 		cmp	r0, #1
 521 00e0 0700000A 		beq	.L71
 522 00e4 FEFFFFEB 		bl	abort
 523              	.LEHE3:
 524              	.L91:
 525 00e8 3C008DE2 		add	r0, sp, #60
 526 00ec FEFFFFEB 		bl	_ZN6tflite12RuntimeShapeD1Ev
 527              	.L75:
 528 00f0 28008DE2 		add	r0, sp, #40
 529 00f4 FEFFFFEB 		bl	_ZN6tflite12RuntimeShapeD1Ev
 530              	.L76:
 531 00f8 14008DE2 		add	r0, sp, #20
 532 00fc FEFFFFEB 		bl	_ZN6tflite12RuntimeShapeD1Ev
 533              	.LEHB4:
 534 0100 FEFFFFEB 		bl	__cxa_end_cleanup
 535              	.LEHE4:
 536              	.L71:
 537 0104 058086E7 		str	r8, [r6, r5]
 538 0108 047186E7 		str	r7, [r6, r4, lsl #2]
 539              	.L69:
 540 010c 014084E2 		add	r4, r4, #1
 541 0110 045085E2 		add	r5, r5, #4
 542 0114 040054E3 		cmp	r4, #4
 543 0118 E2FFFF1A 		bne	.L72
 544 011c 3C008DE2 		add	r0, sp, #60
 545 0120 0050A0E3 		mov	r5, #0
 546 0124 FEFFFFEB 		bl	_ZN6tflite12RuntimeShapeD1Ev
 547 0128 28008DE2 		add	r0, sp, #40
 548 012c FEFFFFEB 		bl	_ZN6tflite12RuntimeShapeD1Ev
 549              	.L73:
 550 0130 0010A0E3 		mov	r1, #0
 551 0134 14008DE2 		add	r0, sp, #20
 552              	.LEHB5:
 553 0138 FEFFFFEB 		bl	_ZNK6tflite12RuntimeShape4DimsEi
 554 013c 000000EA 		b	.L95
 555              	.L90:
 556 0140 EAFFFFEA 		b	.L75
 557              	.L95:
 558 0144 000055E1 		cmp	r5, r0
 559 0148 450000AA 		bge	.L77
 560 014c 0060A0E3 		mov	r6, #0
 561              	.L88:
 562 0150 0110A0E3 		mov	r1, #1
 563 0154 14008DE2 		add	r0, sp, #20
 564 0158 FEFFFFEB 		bl	_ZNK6tflite12RuntimeShape4DimsEi
 565 015c 000056E1 		cmp	r6, r0
 566 0160 3D0000AA 		bge	.L78
 567 0164 0070A0E3 		mov	r7, #0
 568              	.L87:
 569 0168 0210A0E3 		mov	r1, #2
 570 016c 14008DE2 		add	r0, sp, #20
 571 0170 FEFFFFEB 		bl	_ZNK6tflite12RuntimeShape4DimsEi
 572 0174 000057E1 		cmp	r7, r0
 573 0178 350000AA 		bge	.L79
 574 017c 0080A0E3 		mov	r8, #0
 575              	.L86:
 576 0180 0310A0E3 		mov	r1, #3
 577 0184 14008DE2 		add	r0, sp, #20
 578 0188 FEFFFFEB 		bl	_ZNK6tflite12RuntimeShape4DimsEi
 579 018c 000058E1 		cmp	r8, r0
 580 0190 2D0000AA 		bge	.L80
 581 0194 14309DE5 		ldr	r3, [sp, #20]
 582 0198 040053E3 		cmp	r3, #4
 583 019c 0100000A 		beq	.L81
 584 01a0 FEFFFFEB 		bl	abort
 585              	.L89:
 586 01a4 D3FFFFEA 		b	.L76
 587              	.L81:
 588 01a8 18309DE5 		ldr	r3, [sp, #24]
 589 01ac 030055E1 		cmp	r5, r3
 590 01b0 000000BA 		blt	.L82
 591 01b4 FEFFFFEB 		bl	abort
 592              	.L82:
 593 01b8 1C309DE5 		ldr	r3, [sp, #28]
 594 01bc 030056E1 		cmp	r6, r3
 595 01c0 000000BA 		blt	.L83
 596 01c4 FEFFFFEB 		bl	abort
 597              	.L83:
 598 01c8 20109DE5 		ldr	r1, [sp, #32]
 599 01cc 010057E1 		cmp	r7, r1
 600 01d0 000000BA 		blt	.L84
 601 01d4 FEFFFFEB 		bl	abort
 602              	.L84:
 603 01d8 24209DE5 		ldr	r2, [sp, #36]
 604 01dc 020058E1 		cmp	r8, r2
 605 01e0 000000BA 		blt	.L85
 606 01e4 FEFFFFEB 		bl	abort
 607              	.L85:
 608 01e8 936524E0 		mla	r4, r3, r5, r6
 609 01ec 00808DE5 		str	r8, [sp]
 610 01f0 0730A0E1 		mov	r3, r7
 611 01f4 0900A0E1 		mov	r0, r9
 612 01f8 917424E0 		mla	r4, r1, r4, r7
 613 01fc 0510A0E1 		mov	r1, r5
 614 0200 928424E0 		mla	r4, r2, r4, r8
 615 0204 0620A0E1 		mov	r2, r6
 616 0208 FEFFFFEB 		bl	_ZN6tflite16SubscriptToIndexERKNS_11NdArrayDescILi4EEEiiii
 617 020c 00B0A0E1 		mov	fp, r0
 618 0210 00808DE5 		str	r8, [sp]
 619 0214 0730A0E1 		mov	r3, r7
 620 0218 0620A0E1 		mov	r2, r6
 621 021c 0510A0E1 		mov	r1, r5
 622 0220 70008DE2 		add	r0, sp, #112
 623 0224 FEFFFFEB 		bl	_ZN6tflite16SubscriptToIndexERKNS_11NdArrayDescILi4EEEiiii
 624 0228 0C309DE5 		ldr	r3, [sp, #12]
 625 022c 0010DAE7 		ldrb	r1, [r10, r0]	@ zero_extendqisi2
 626 0230 0B00D3E7 		ldrb	r0, [r3, fp]	@ zero_extendqisi2
 627 0234 C0309DE5 		ldr	r3, [sp, #192]
 628 0238 33FF2FE1 		blx	r3
 629              	.LEHE5:
 630 023c BC309DE5 		ldr	r3, [sp, #188]
 631 0240 018088E2 		add	r8, r8, #1
 632 0244 0400C3E7 		strb	r0, [r3, r4]
 633 0248 CCFFFFEA 		b	.L86
 634              	.L80:
 635 024c 017087E2 		add	r7, r7, #1
 636 0250 C4FFFFEA 		b	.L87
 637              	.L79:
 638 0254 016086E2 		add	r6, r6, #1
 639 0258 BCFFFFEA 		b	.L88
 640              	.L78:
 641 025c 015085E2 		add	r5, r5, #1
 642 0260 B2FFFFEA 		b	.L73
 643              	.L77:
 644 0264 14008DE2 		add	r0, sp, #20
 645 0268 FEFFFFEB 		bl	_ZN6tflite12RuntimeShapeD1Ev
 646 026c 94D08DE2 		add	sp, sp, #148
 647              		@ sp needed
 648 0270 F08FBDE8 		pop	{r4, r5, r6, r7, r8, r9, r10, fp, pc}
 649              		.global	__gxx_personality_v0
 650              		.personality	__gxx_personality_v0
 651              		.handlerdata
 652              	.LLSDA6561:
 653 0008 FF       		.byte	0xff
 654 0009 FF       		.byte	0xff
 655 000a 01       		.byte	0x1
 656 000b 20       		.uleb128 .LLSDACSE6561-.LLSDACSB6561
 657              	.LLSDACSB6561:
 658 000c 24       		.uleb128 .LEHB0-.LFB6561
 659 000d 30       		.uleb128 .LEHE0-.LEHB0
 660 000e 00       		.uleb128 0
 661 000f 00       		.uleb128 0
 662 0010 64       		.uleb128 .LEHB1-.LFB6561
 663 0011 04       		.uleb128 .LEHE1-.LEHB1
 664 0012 A403     		.uleb128 .L89-.LFB6561
 665 0014 00       		.uleb128 0
 666 0015 78       		.uleb128 .LEHB2-.LFB6561
 667 0016 04       		.uleb128 .LEHE2-.LEHB2
 668 0017 C002     		.uleb128 .L90-.LFB6561
 669 0019 00       		.uleb128 0
 670 001a 8801     		.uleb128 .LEHB3-.LFB6561
 671 001c 60       		.uleb128 .LEHE3-.LEHB3
 672 001d E801     		.uleb128 .L91-.LFB6561
 673 001f 00       		.uleb128 0
 674 0020 8002     		.uleb128 .LEHB4-.LFB6561
 675 0022 04       		.uleb128 .LEHE4-.LEHB4
 676 0023 00       		.uleb128 0
 677 0024 00       		.uleb128 0
 678 0025 B802     		.uleb128 .LEHB5-.LFB6561
 679 0027 8402     		.uleb128 .LEHE5-.LEHB5
 680 0029 A403     		.uleb128 .L89-.LFB6561
 681 002b 00       		.uleb128 0
 682              	.LLSDACSE6561:
 683              		.section	.text._ZN6tflite13reference_ops29BroadcastBinaryFunction4DSlowIbbbEEvRKNS_12RuntimeShapeE
 684              		.fnend
 686              		.section	.text._ZN6tflite3ops5micro7logical12_GLOBAL__N_111LogicalImplEP13TfLiteContextP10TfLiteNo
 687              		.align	2
 688              		.syntax unified
 689              		.arm
 690              		.fpu neon
 692              	_ZN6tflite3ops5micro7logical12_GLOBAL__N_111LogicalImplEP13TfLiteContextP10TfLiteNodePFbbbE:
 693              		.fnstart
 694              	.LFB6214:
 695              		@ args = 0, pretend = 0, frame = 64
 696              		@ frame_needed = 0, uses_anonymous_args = 0
 697 0000 003091E5 		ldr	r3, [r1]
 698 0004 F0412DE9 		push	{r4, r5, r6, r7, r8, lr}
 699              		.save {r4, r5, r6, r7, r8, lr}
 700              		.pad #80
 701 0008 50D04DE2 		sub	sp, sp, #80
 702 000c 084090E5 		ldr	r4, [r0, #8]
 703 0010 0270A0E1 		mov	r7, r2
 704 0014 3C808DE2 		add	r8, sp, #60
 705 0018 045093E5 		ldr	r5, [r3, #4]
 706 001c 086093E5 		ldr	r6, [r3, #8]
 707 0020 043091E5 		ldr	r3, [r1, #4]
 708 0024 055384E0 		add	r5, r4, r5, lsl #6
 709 0028 043093E5 		ldr	r3, [r3, #4]
 710 002c 066384E0 		add	r6, r4, r6, lsl #6
 711 0030 0500A0E1 		mov	r0, r5
 712 0034 0610A0E1 		mov	r1, r6
 713 0038 034384E0 		add	r4, r4, r3, lsl #6
 714              	.LEHB6:
 715 003c FEFFFFEB 		bl	_ZN6tflite14HaveSameShapesEPK12TfLiteTensorS2_
 716 0040 000050E3 		cmp	r0, #0
 717 0044 0510A0E1 		mov	r1, r5
 718 0048 14008DE2 		add	r0, sp, #20
 719 004c 1400000A 		beq	.L97
 720 0050 FEFFFFEB 		bl	_ZN6tflite14GetTensorShapeEPK12TfLiteTensor
 721              	.LEHE6:
 722 0054 000055E3 		cmp	r5, #0
 723 0058 0610A0E1 		mov	r1, r6
 724 005c 28008DE2 		add	r0, sp, #40
 725 0060 04509515 		ldrne	r5, [r5, #4]
 726              	.LEHB7:
 727 0064 FEFFFFEB 		bl	_ZN6tflite14GetTensorShapeEPK12TfLiteTensor
 728              	.LEHE7:
 729 0068 000056E3 		cmp	r6, #0
 730 006c 0410A0E1 		mov	r1, r4
 731 0070 0800A0E1 		mov	r0, r8
 732 0074 04609615 		ldrne	r6, [r6, #4]
 733              	.LEHB8:
 734 0078 FEFFFFEB 		bl	_ZN6tflite14GetTensorShapeEPK12TfLiteTensor
 735              	.LEHE8:
 736 007c 000054E3 		cmp	r4, #0
 737 0080 0630A0E1 		mov	r3, r6
 738 0084 04409415 		ldrne	r4, [r4, #4]
 739 0088 28208DE2 		add	r2, sp, #40
 740 008c 00808DE5 		str	r8, [sp]
 741 0090 0510A0E1 		mov	r1, r5
 742 0094 14008DE2 		add	r0, sp, #20
 743 0098 90008DE9 		stmib	sp, {r4, r7}
 744              	.LEHB9:
 745 009c FEFFFFEB 		bl	_ZN6tflite13reference_ops14BinaryFunctionIbbbEEvRKNS_12RuntimeShapeEPKT0_S4_PKT1_S4_PT_PFSB_S5_
 746              	.LEHE9:
 747 00a0 130000EA 		b	.L125
 748              	.L97:
 749              	.LEHB10:
 750 00a4 FEFFFFEB 		bl	_ZN6tflite14GetTensorShapeEPK12TfLiteTensor
 751              	.LEHE10:
 752 00a8 000055E3 		cmp	r5, #0
 753 00ac 0610A0E1 		mov	r1, r6
 754 00b0 28008DE2 		add	r0, sp, #40
 755 00b4 04509515 		ldrne	r5, [r5, #4]
 756              	.LEHB11:
 757 00b8 FEFFFFEB 		bl	_ZN6tflite14GetTensorShapeEPK12TfLiteTensor
 758              	.LEHE11:
 759 00bc 000056E3 		cmp	r6, #0
 760 00c0 0410A0E1 		mov	r1, r4
 761 00c4 0800A0E1 		mov	r0, r8
 762 00c8 04609615 		ldrne	r6, [r6, #4]
 763              	.LEHB12:
 764 00cc FEFFFFEB 		bl	_ZN6tflite14GetTensorShapeEPK12TfLiteTensor
 765              	.LEHE12:
 766 00d0 000054E3 		cmp	r4, #0
 767 00d4 0630A0E1 		mov	r3, r6
 768 00d8 04409415 		ldrne	r4, [r4, #4]
 769 00dc 28208DE2 		add	r2, sp, #40
 770 00e0 00808DE5 		str	r8, [sp]
 771 00e4 0510A0E1 		mov	r1, r5
 772 00e8 14008DE2 		add	r0, sp, #20
 773 00ec 90008DE9 		stmib	sp, {r4, r7}
 774              	.LEHB13:
 775 00f0 FEFFFFEB 		bl	_ZN6tflite13reference_ops29BroadcastBinaryFunction4DSlowIbbbEEvRKNS_12RuntimeShapeEPKT0_S4_PKT1
 776              	.LEHE13:
 777              	.L125:
 778 00f4 0800A0E1 		mov	r0, r8
 779 00f8 FEFFFFEB 		bl	_ZN6tflite12RuntimeShapeD1Ev
 780 00fc 28008DE2 		add	r0, sp, #40
 781 0100 FEFFFFEB 		bl	_ZN6tflite12RuntimeShapeD1Ev
 782 0104 14008DE2 		add	r0, sp, #20
 783 0108 FEFFFFEB 		bl	_ZN6tflite12RuntimeShapeD1Ev
 784 010c 0000A0E3 		mov	r0, #0
 785 0110 50D08DE2 		add	sp, sp, #80
 786              		@ sp needed
 787 0114 F081BDE8 		pop	{r4, r5, r6, r7, r8, pc}
 788              	.L119:
 789              	.L126:
 790 0118 0800A0E1 		mov	r0, r8
 791 011c FEFFFFEB 		bl	_ZN6tflite12RuntimeShapeD1Ev
 792 0120 FFFFFFEA 		b	.L109
 793              	.L118:
 794              	.L109:
 795 0124 28008DE2 		add	r0, sp, #40
 796 0128 FEFFFFEB 		bl	_ZN6tflite12RuntimeShapeD1Ev
 797 012c FFFFFFEA 		b	.L110
 798              	.L117:
 799              	.L110:
 800 0130 14008DE2 		add	r0, sp, #20
 801 0134 FEFFFFEB 		bl	_ZN6tflite12RuntimeShapeD1Ev
 802              	.LEHB14:
 803 0138 FEFFFFEB 		bl	__cxa_end_cleanup
 804              	.LEHE14:
 805              	.L122:
 806 013c F5FFFFEA 		b	.L126
 807              	.L121:
 808 0140 F7FFFFEA 		b	.L109
 809              	.L120:
 810 0144 F9FFFFEA 		b	.L110
 811              		.personality	__gxx_personality_v0
 812              		.handlerdata
 813              	.LLSDA6214:
 814 0008 FF       		.byte	0xff
 815 0009 FF       		.byte	0xff
 816 000a 01       		.byte	0x1
 817 000b 30       		.uleb128 .LLSDACSE6214-.LLSDACSB6214
 818              	.LLSDACSB6214:
 819 000c 3C       		.uleb128 .LEHB6-.LFB6214
 820 000d 18       		.uleb128 .LEHE6-.LEHB6
 821 000e 00       		.uleb128 0
 822 000f 00       		.uleb128 0
 823 0010 64       		.uleb128 .LEHB7-.LFB6214
 824 0011 04       		.uleb128 .LEHE7-.LEHB7
 825 0012 B002     		.uleb128 .L117-.LFB6214
 826 0014 00       		.uleb128 0
 827 0015 78       		.uleb128 .LEHB8-.LFB6214
 828 0016 04       		.uleb128 .LEHE8-.LEHB8
 829 0017 A402     		.uleb128 .L118-.LFB6214
 830 0019 00       		.uleb128 0
 831 001a 9C01     		.uleb128 .LEHB9-.LFB6214
 832 001c 04       		.uleb128 .LEHE9-.LEHB9
 833 001d 9802     		.uleb128 .L119-.LFB6214
 834 001f 00       		.uleb128 0
 835 0020 A401     		.uleb128 .LEHB10-.LFB6214
 836 0022 04       		.uleb128 .LEHE10-.LEHB10
 837 0023 00       		.uleb128 0
 838 0024 00       		.uleb128 0
 839 0025 B801     		.uleb128 .LEHB11-.LFB6214
 840 0027 04       		.uleb128 .LEHE11-.LEHB11
 841 0028 C402     		.uleb128 .L120-.LFB6214
 842 002a 00       		.uleb128 0
 843 002b CC01     		.uleb128 .LEHB12-.LFB6214
 844 002d 04       		.uleb128 .LEHE12-.LEHB12
 845 002e C002     		.uleb128 .L121-.LFB6214
 846 0030 00       		.uleb128 0
 847 0031 F001     		.uleb128 .LEHB13-.LFB6214
 848 0033 04       		.uleb128 .LEHE13-.LEHB13
 849 0034 BC02     		.uleb128 .L122-.LFB6214
 850 0036 00       		.uleb128 0
 851 0037 B802     		.uleb128 .LEHB14-.LFB6214
 852 0039 04       		.uleb128 .LEHE14-.LEHB14
 853 003a 00       		.uleb128 0
 854 003b 00       		.uleb128 0
 855              	.LLSDACSE6214:
 856              		.section	.text._ZN6tflite3ops5micro7logical12_GLOBAL__N_111LogicalImplEP13TfLiteContextP10TfLiteNo
 857              		.fnend
 859              		.section	.text._ZN6tflite3ops5micro7logical12_GLOBAL__N_113LogicalOrEvalEP13TfLiteContextP10TfLite
 860              		.align	2
 861              		.syntax unified
 862              		.arm
 863              		.fpu neon
 865              	_ZN6tflite3ops5micro7logical12_GLOBAL__N_113LogicalOrEvalEP13TfLiteContextP10TfLiteNode:
 866              		.fnstart
 867              	.LFB6216:
 868              		@ args = 0, pretend = 0, frame = 0
 869              		@ frame_needed = 0, uses_anonymous_args = 0
 870              		@ link register save eliminated.
 871 0000 00209FE5 		ldr	r2, .L128
 872 0004 FEFFFFEA 		b	_ZN6tflite3ops5micro7logical12_GLOBAL__N_111LogicalImplEP13TfLiteContextP10TfLiteNodePFbbbE
 873              	.L129:
 874              		.align	2
 875              	.L128:
 876 0008 00000000 		.word	_ZN6tflite3ops5micro7logical12_GLOBAL__N_19LogicalOrEbb
 877              		.cantunwind
 878              		.fnend
 880              		.section	.text._ZN6tflite3ops5micro7logical12_GLOBAL__N_114LogicalAndEvalEP13TfLiteContextP10TfLit
 881              		.align	2
 882              		.syntax unified
 883              		.arm
 884              		.fpu neon
 886              	_ZN6tflite3ops5micro7logical12_GLOBAL__N_114LogicalAndEvalEP13TfLiteContextP10TfLiteNode:
 887              		.fnstart
 888              	.LFB6218:
 889              		@ args = 0, pretend = 0, frame = 0
 890              		@ frame_needed = 0, uses_anonymous_args = 0
 891              		@ link register save eliminated.
 892 0000 00209FE5 		ldr	r2, .L131
 893 0004 FEFFFFEA 		b	_ZN6tflite3ops5micro7logical12_GLOBAL__N_111LogicalImplEP13TfLiteContextP10TfLiteNodePFbbbE
 894              	.L132:
 895              		.align	2
 896              	.L131:
 897 0008 00000000 		.word	_ZN6tflite3ops5micro7logical12_GLOBAL__N_110LogicalAndEbb
 898              		.cantunwind
 899              		.fnend
 901              		.weak	_ZN11flatbuffers25flatbuffer_version_stringE
 902              		.section	.bss._ZZN6tflite3ops5micro19Register_LOGICAL_OREvE1r,"aw",%nobits
 903              		.align	2
 904              		.set	.LANCHOR0,. + 0
 907              	_ZZN6tflite3ops5micro19Register_LOGICAL_OREvE1r:
 908 0000 00000000 		.space	32
 908      00000000 
 908      00000000 
 908      00000000 
 908      00000000 
 909              		.section	.bss._ZZN6tflite3ops5micro20Register_LOGICAL_ANDEvE1r,"aw",%nobits
 910              		.align	2
 911              		.set	.LANCHOR1,. + 0
 914              	_ZZN6tflite3ops5micro20Register_LOGICAL_ANDEvE1r:
 915 0000 00000000 		.space	32
 915      00000000 
 915      00000000 
 915      00000000 
 915      00000000 
 916              		.section	.data._ZN11flatbuffers25flatbuffer_version_stringE,"aw",%progbits
 917              		.align	2
 920              	_ZN11flatbuffers25flatbuffer_version_stringE:
 921 0000 00000000 		.word	.LC0
 922              		.section	.rodata.str1.1,"aMS",%progbits,1
 923              	.LC0:
 924 0000 466C6174 		.ascii	"FlatBuffers 1.11.0\000"
 924      42756666 
 924      65727320 
 924      312E3131 
 924      2E3000
 925              		.ident	"GCC: (GNU Tools for ARM Embedded Processors 6-2017-q2-update) 6.3.1 20170620 (release) [AR