   1              		.cpu cortex-a9
   2              		.eabi_attribute 28, 1
   3              		.eabi_attribute 20, 1
   4              		.eabi_attribute 21, 1
   5              		.eabi_attribute 23, 3
   6              		.eabi_attribute 24, 1
   7              		.eabi_attribute 25, 1
   8              		.eabi_attribute 26, 1
   9              		.eabi_attribute 30, 4
  10              		.eabi_attribute 34, 0
  11              		.eabi_attribute 18, 4
  12              		.file	"maximum_minimum.cpp"
  13              		.section	.text._ZN6tflite3ops5micro15maximum_minimum12_GLOBAL__N_19MaximumOp2opIfEET_S6_S6_,"ax",%
  14              		.align	2
  15              		.syntax unified
  16              		.arm
  17              		.fpu neon
  19              	_ZN6tflite3ops5micro15maximum_minimum12_GLOBAL__N_19MaximumOp2opIfEET_S6_S6_:
  20              		.fnstart
  21              	.LFB6892:
  22              		@ args = 0, pretend = 0, frame = 0
  23              		@ frame_needed = 0, uses_anonymous_args = 0
  24              		@ link register save eliminated.
  25 0000 E00AB4EE 		vcmpe.f32	s0, s1
  26 0004 10FAF1EE 		vmrs	APSR_nzcv, FPSCR
  27 0008 600AB0DE 		vmovle.f32	s0, s1
  28 000c 1EFF2FE1 		bx	lr
  29              		.cantunwind
  30              		.fnend
  32              		.section	.text._ZN6tflite3ops5micro15maximum_minimum12_GLOBAL__N_19MaximumOp2opIhEET_S6_S6_,"ax",%
  33              		.align	2
  34              		.syntax unified
  35              		.arm
  36              		.fpu neon
  38              	_ZN6tflite3ops5micro15maximum_minimum12_GLOBAL__N_19MaximumOp2opIhEET_S6_S6_:
  39              		.fnstart
  40              	.LFB6896:
  41              		@ args = 0, pretend = 0, frame = 0
  42              		@ frame_needed = 0, uses_anonymous_args = 0
  43              		@ link register save eliminated.
  44 0000 010050E1 		cmp	r0, r1
  45 0004 0100A0B1 		movlt	r0, r1
  46 0008 1EFF2FE1 		bx	lr
  47              		.cantunwind
  48              		.fnend
  50              		.section	.text._ZN6tflite3ops5micro15maximum_minimum12_GLOBAL__N_19MaximumOp2opIaEET_S6_S6_,"ax",%
  51              		.align	2
  52              		.syntax unified
  53              		.arm
  54              		.fpu neon
  56              	_ZN6tflite3ops5micro15maximum_minimum12_GLOBAL__N_19MaximumOp2opIaEET_S6_S6_:
  57              		.fnstart
  58              	.LFB6900:
  59              		@ args = 0, pretend = 0, frame = 0
  60              		@ frame_needed = 0, uses_anonymous_args = 0
  61              		@ link register save eliminated.
  62 0000 010050E1 		cmp	r0, r1
  63 0004 0100A0B1 		movlt	r0, r1
  64 0008 1EFF2FE1 		bx	lr
  65              		.cantunwind
  66              		.fnend
  68              		.section	.text._ZN6tflite3ops5micro15maximum_minimum12_GLOBAL__N_19MaximumOp2opIlEET_S6_S6_,"ax",%
  69              		.align	2
  70              		.syntax unified
  71              		.arm
  72              		.fpu neon
  74              	_ZN6tflite3ops5micro15maximum_minimum12_GLOBAL__N_19MaximumOp2opIlEET_S6_S6_:
  75              		.fnstart
  76              	.LFB6904:
  77              		@ args = 0, pretend = 0, frame = 0
  78              		@ frame_needed = 0, uses_anonymous_args = 0
  79              		@ link register save eliminated.
  80 0000 010050E1 		cmp	r0, r1
  81 0004 0100A0B1 		movlt	r0, r1
  82 0008 1EFF2FE1 		bx	lr
  83              		.cantunwind
  84              		.fnend
  86              		.section	.text._ZN6tflite3ops5micro15maximum_minimum12_GLOBAL__N_19MaximumOp2opIxEET_S6_S6_,"ax",%
  87              		.align	2
  88              		.syntax unified
  89              		.arm
  90              		.fpu neon
  92              	_ZN6tflite3ops5micro15maximum_minimum12_GLOBAL__N_19MaximumOp2opIxEET_S6_S6_:
  93              		.fnstart
  94              	.LFB6908:
  95              		@ args = 0, pretend = 0, frame = 0
  96              		@ frame_needed = 0, uses_anonymous_args = 0
  97              		@ link register save eliminated.
  98 0000 020050E1 		cmp	r0, r2
  99 0004 03C0D1E0 		sbcs	ip, r1, r3
 100 0008 0200A0B1 		movlt	r0, r2
 101 000c 0310A0B1 		movlt	r1, r3
 102 0010 1EFF2FE1 		bx	lr
 103              		.cantunwind
 104              		.fnend
 106              		.section	.text._ZN6tflite3ops5micro15maximum_minimum12_GLOBAL__N_19MinimumOp2opIfEET_S6_S6_,"ax",%
 107              		.align	2
 108              		.syntax unified
 109              		.arm
 110              		.fpu neon
 112              	_ZN6tflite3ops5micro15maximum_minimum12_GLOBAL__N_19MinimumOp2opIfEET_S6_S6_:
 113              		.fnstart
 114              	.LFB6910:
 115              		@ args = 0, pretend = 0, frame = 0
 116              		@ frame_needed = 0, uses_anonymous_args = 0
 117              		@ link register save eliminated.
 118 0000 E00AB4EE 		vcmpe.f32	s0, s1
 119 0004 10FAF1EE 		vmrs	APSR_nzcv, FPSCR
 120 0008 600AB05E 		vmovpl.f32	s0, s1
 121 000c 1EFF2FE1 		bx	lr
 122              		.cantunwind
 123              		.fnend
 125              		.section	.text._ZN6tflite3ops5micro15maximum_minimum12_GLOBAL__N_19MinimumOp2opIhEET_S6_S6_,"ax",%
 126              		.align	2
 127              		.syntax unified
 128              		.arm
 129              		.fpu neon
 131              	_ZN6tflite3ops5micro15maximum_minimum12_GLOBAL__N_19MinimumOp2opIhEET_S6_S6_:
 132              		.fnstart
 133              	.LFB6911:
 134              		@ args = 0, pretend = 0, frame = 0
 135              		@ frame_needed = 0, uses_anonymous_args = 0
 136              		@ link register save eliminated.
 137 0000 010050E1 		cmp	r0, r1
 138 0004 0100A0A1 		movge	r0, r1
 139 0008 1EFF2FE1 		bx	lr
 140              		.cantunwind
 141              		.fnend
 143              		.section	.text._ZN6tflite3ops5micro15maximum_minimum12_GLOBAL__N_19MinimumOp2opIaEET_S6_S6_,"ax",%
 144              		.align	2
 145              		.syntax unified
 146              		.arm
 147              		.fpu neon
 149              	_ZN6tflite3ops5micro15maximum_minimum12_GLOBAL__N_19MinimumOp2opIaEET_S6_S6_:
 150              		.fnstart
 151              	.LFB6912:
 152              		@ args = 0, pretend = 0, frame = 0
 153              		@ frame_needed = 0, uses_anonymous_args = 0
 154              		@ link register save eliminated.
 155 0000 010050E1 		cmp	r0, r1
 156 0004 0100A0A1 		movge	r0, r1
 157 0008 1EFF2FE1 		bx	lr
 158              		.cantunwind
 159              		.fnend
 161              		.section	.text._ZN6tflite3ops5micro15maximum_minimum12_GLOBAL__N_19MinimumOp2opIlEET_S6_S6_,"ax",%
 162              		.align	2
 163              		.syntax unified
 164              		.arm
 165              		.fpu neon
 167              	_ZN6tflite3ops5micro15maximum_minimum12_GLOBAL__N_19MinimumOp2opIlEET_S6_S6_:
 168              		.fnstart
 169              	.LFB6913:
 170              		@ args = 0, pretend = 0, frame = 0
 171              		@ frame_needed = 0, uses_anonymous_args = 0
 172              		@ link register save eliminated.
 173 0000 010050E1 		cmp	r0, r1
 174 0004 0100A0A1 		movge	r0, r1
 175 0008 1EFF2FE1 		bx	lr
 176              		.cantunwind
 177              		.fnend
 179              		.section	.text._ZN6tflite3ops5micro15maximum_minimum12_GLOBAL__N_19MinimumOp2opIxEET_S6_S6_,"ax",%
 180              		.align	2
 181              		.syntax unified
 182              		.arm
 183              		.fpu neon
 185              	_ZN6tflite3ops5micro15maximum_minimum12_GLOBAL__N_19MinimumOp2opIxEET_S6_S6_:
 186              		.fnstart
 187              	.LFB6914:
 188              		@ args = 0, pretend = 0, frame = 0
 189              		@ frame_needed = 0, uses_anonymous_args = 0
 190              		@ link register save eliminated.
 191 0000 000052E1 		cmp	r2, r0
 192 0004 01C0D3E0 		sbcs	ip, r3, r1
 193 0008 0200A0B1 		movlt	r0, r2
 194 000c 0310A0B1 		movlt	r1, r3
 195 0010 1EFF2FE1 		bx	lr
 196              		.cantunwind
 197              		.fnend
 199              		.section	.text._ZN6tflite12RuntimeShapeD2Ev,"axG",%progbits,_ZN6tflite12RuntimeShapeD5Ev,comdat
 200              		.align	2
 201              		.weak	_ZN6tflite12RuntimeShapeD2Ev
 202              		.syntax unified
 203              		.arm
 204              		.fpu neon
 206              	_ZN6tflite12RuntimeShapeD2Ev:
 207              		.fnstart
 208              	.LFB3207:
 209              		@ args = 0, pretend = 0, frame = 0
 210              		@ frame_needed = 0, uses_anonymous_args = 0
 211 0000 003090E5 		ldr	r3, [r0]
 212 0004 10402DE9 		push	{r4, lr}
 213 0008 0040A0E1 		mov	r4, r0
 214 000c 040053E3 		cmp	r3, #4
 215 0010 030000DA 		ble	.L18
 216 0014 040090E5 		ldr	r0, [r0, #4]
 217 0018 000050E3 		cmp	r0, #0
 218 001c 0000000A 		beq	.L18
 219 0020 FEFFFFEB 		bl	_ZdaPv
 220              	.L18:
 221 0024 0400A0E1 		mov	r0, r4
 222 0028 1080BDE8 		pop	{r4, pc}
 223              		.cantunwind
 224              		.fnend
 226              		.weak	_ZN6tflite12RuntimeShapeD1Ev
 227              		.set	_ZN6tflite12RuntimeShapeD1Ev,_ZN6tflite12RuntimeShapeD2Ev
 228              		.section	.text._ZNK6tflite12RuntimeShape4DimsEi,"axG",%progbits,_ZNK6tflite12RuntimeShape4DimsEi,c
 229              		.align	2
 230              		.weak	_ZNK6tflite12RuntimeShape4DimsEi
 231              		.syntax unified
 232              		.arm
 233              		.fpu neon
 235              	_ZNK6tflite12RuntimeShape4DimsEi:
 236              		.fnstart
 237              	.LFB3210:
 238              		@ args = 0, pretend = 0, frame = 0
 239              		@ frame_needed = 0, uses_anonymous_args = 0
 240 0000 000051E3 		cmp	r1, #0
 241 0004 010000AA 		bge	.L24
 242              	.L25:
 243 0008 10402DE9 		push	{r4, lr}
 244              		.save {r4, lr}
 245 000c FEFFFFEB 		bl	abort
 246              	.L24:
 247 0010 003090E5 		ldr	r3, [r0]
 248 0014 010053E1 		cmp	r3, r1
 249 0018 FAFFFFDA 		ble	.L25
 250 001c 040053E3 		cmp	r3, #4
 251 0020 043090C5 		ldrgt	r3, [r0, #4]
 252 0024 010180D0 		addle	r0, r0, r1, lsl #2
 253 0028 040090D5 		ldrle	r0, [r0, #4]
 254 002c 010193C7 		ldrgt	r0, [r3, r1, lsl #2]
 255 0030 1EFF2FE1 		bx	lr
 256              		.fnend
 258              		.section	.text._ZN6tflite12RuntimeShapeC2EiRKS0_i,"axG",%progbits,_ZN6tflite12RuntimeShapeC5EiRKS0
 259              		.align	2
 260              		.weak	_ZN6tflite12RuntimeShapeC2EiRKS0_i
 261              		.syntax unified
 262              		.arm
 263              		.fpu neon
 265              	_ZN6tflite12RuntimeShapeC2EiRKS0_i:
 266              		.fnstart
 267              	.LFB3223:
 268              		@ args = 0, pretend = 0, frame = 0
 269              		@ frame_needed = 0, uses_anonymous_args = 0
 270 0000 F0412DE9 		push	{r4, r5, r6, r7, r8, lr}
 271              		.save {r4, r5, r6, r7, r8, lr}
 272 0004 0370A0E1 		mov	r7, r3
 273 0008 0030A0E3 		mov	r3, #0
 274 000c 003080E5 		str	r3, [r0]
 275 0010 003092E5 		ldr	r3, [r2]
 276 0014 010053E1 		cmp	r3, r1
 277 0018 000000DA 		ble	.L31
 278              	.L35:
 279 001c FEFFFFEB 		bl	abort
 280              	.L31:
 281 0020 040051E3 		cmp	r1, #4
 282 0024 0050A0E1 		mov	r5, r0
 283 0028 0140A0E1 		mov	r4, r1
 284 002c 0260A0E1 		mov	r6, r2
 285 0030 001085E5 		str	r1, [r5]
 286 0034 040000DA 		ble	.L32
 287 0038 2E0271E3 		cmn	r1, #-536870910
 288 003c 130000CA 		bgt	.L33
 289 0040 0101A0E1 		lsl	r0, r1, #2
 290 0044 FEFFFFEB 		bl	_Znaj
 291 0048 040085E5 		str	r0, [r5, #4]
 292              	.L32:
 293 004c 000096E5 		ldr	r0, [r6]
 294 0050 041085E2 		add	r1, r5, #4
 295 0054 0020A0E3 		mov	r2, #0
 296 0058 004044E0 		sub	r4, r4, r0
 297 005c 0100A0E1 		mov	r0, r1
 298              	.L38:
 299 0060 040052E1 		cmp	r2, r4
 300 0064 00C095E5 		ldr	ip, [r5]
 301 0068 090000AA 		bge	.L34
 302 006c 0C0052E1 		cmp	r2, ip
 303 0070 E9FFFFAA 		bge	.L35
 304 0074 04005CE3 		cmp	ip, #4
 305 0078 041081E2 		add	r1, r1, #4
 306 007c 043095C5 		ldrgt	r3, [r5, #4]
 307 0080 047001D5 		strle	r7, [r1, #-4]
 308 0084 027183C7 		strgt	r7, [r3, r2, lsl #2]
 309 0088 012082E2 		add	r2, r2, #1
 310 008c F3FFFFEA 		b	.L38
 311              	.L33:
 312 0090 FEFFFFEB 		bl	__cxa_throw_bad_array_new_length
 313              	.L34:
 314 0094 04005CE3 		cmp	ip, #4
 315 0098 002096E5 		ldr	r2, [r6]
 316 009c 040095C5 		ldrgt	r0, [r5, #4]
 317 00a0 040052E3 		cmp	r2, #4
 318 00a4 041096C5 		ldrgt	r1, [r6, #4]
 319 00a8 041086D2 		addle	r1, r6, #4
 320 00ac 040180E0 		add	r0, r0, r4, lsl #2
 321 00b0 0221A0E1 		lsl	r2, r2, #2
 322 00b4 FEFFFFEB 		bl	memcpy
 323 00b8 0500A0E1 		mov	r0, r5
 324 00bc F081BDE8 		pop	{r4, r5, r6, r7, r8, pc}
 325              		.fnend
 327              		.weak	_ZN6tflite12RuntimeShapeC1EiRKS0_i
 328              		.set	_ZN6tflite12RuntimeShapeC1EiRKS0_i,_ZN6tflite12RuntimeShapeC2EiRKS0_i
 329              		.section	.text._ZN6tflite6OffsetERKNS_12RuntimeShapeEiiii,"axG",%progbits,_ZN6tflite6OffsetERKNS_1
 330              		.align	2
 331              		.weak	_ZN6tflite6OffsetERKNS_12RuntimeShapeEiiii
 332              		.syntax unified
 333              		.arm
 334              		.fpu neon
 336              	_ZN6tflite6OffsetERKNS_12RuntimeShapeEiiii:
 337              		.fnstart
 338              	.LFB3229:
 339              		@ args = 4, pretend = 0, frame = 0
 340              		@ frame_needed = 0, uses_anonymous_args = 0
 341 0000 10402DE9 		push	{r4, lr}
 342              		.save {r4, lr}
 343 0004 00E090E5 		ldr	lr, [r0]
 344 0008 08C09DE5 		ldr	ip, [sp, #8]
 345 000c 04005EE3 		cmp	lr, #4
 346 0010 0000000A 		beq	.L46
 347              	.L47:
 348 0014 FEFFFFEB 		bl	abort
 349              	.L46:
 350 0018 000051E3 		cmp	r1, #0
 351 001c FCFFFFBA 		blt	.L47
 352 0020 04E090E5 		ldr	lr, [r0, #4]
 353 0024 0E0051E1 		cmp	r1, lr
 354 0028 F9FFFFAA 		bge	.L47
 355 002c 000052E3 		cmp	r2, #0
 356 0030 F7FFFFBA 		blt	.L47
 357 0034 084090E5 		ldr	r4, [r0, #8]
 358 0038 040052E1 		cmp	r2, r4
 359 003c F4FFFFAA 		bge	.L47
 360 0040 000053E3 		cmp	r3, #0
 361 0044 F2FFFFBA 		blt	.L47
 362 0048 0CE090E5 		ldr	lr, [r0, #12]
 363 004c 0E0053E1 		cmp	r3, lr
 364 0050 EFFFFFAA 		bge	.L47
 365 0054 00005CE3 		cmp	ip, #0
 366 0058 EDFFFFBA 		blt	.L47
 367 005c 100090E5 		ldr	r0, [r0, #16]
 368 0060 00005CE1 		cmp	ip, r0
 369 0064 EAFFFFAA 		bge	.L47
 370 0068 942121E0 		mla	r1, r4, r1, r2
 371 006c 9E3123E0 		mla	r3, lr, r1, r3
 372 0070 90C320E0 		mla	r0, r0, r3, ip
 373 0074 1080BDE8 		pop	{r4, pc}
 374              		.fnend
 376              		.section	.text._ZN6tflite16SubscriptToIndexERKNS_11NdArrayDescILi4EEEiiii,"axG",%progbits,_ZN6tfli
 377              		.align	2
 378              		.weak	_ZN6tflite16SubscriptToIndexERKNS_11NdArrayDescILi4EEEiiii
 379              		.syntax unified
 380              		.arm
 381              		.fpu neon
 383              	_ZN6tflite16SubscriptToIndexERKNS_11NdArrayDescILi4EEEiiii:
 384              		.fnstart
 385              	.LFB3293:
 386              		@ args = 4, pretend = 0, frame = 0
 387              		@ frame_needed = 0, uses_anonymous_args = 0
 388 0000 000051E3 		cmp	r1, #0
 389 0004 10402DE9 		push	{r4, lr}
 390              		.save {r4, lr}
 391 0008 08C09DE5 		ldr	ip, [sp, #8]
 392 000c 020000BA 		blt	.L50
 393 0010 00E090E5 		ldr	lr, [r0]
 394 0014 0E0051E1 		cmp	r1, lr
 395 0018 000000BA 		blt	.L51
 396              	.L50:
 397 001c FEFFFFEB 		bl	abort
 398              	.L51:
 399 0020 000052E3 		cmp	r2, #0
 400 0024 FCFFFFBA 		blt	.L50
 401 0028 04E090E5 		ldr	lr, [r0, #4]
 402 002c 0E0052E1 		cmp	r2, lr
 403 0030 F9FFFFAA 		bge	.L50
 404 0034 000053E3 		cmp	r3, #0
 405 0038 F7FFFFBA 		blt	.L50
 406 003c 08E090E5 		ldr	lr, [r0, #8]
 407 0040 0E0053E1 		cmp	r3, lr
 408 0044 F4FFFFAA 		bge	.L50
 409 0048 00005CE3 		cmp	ip, #0
 410 004c F2FFFFBA 		blt	.L50
 411 0050 0CE090E5 		ldr	lr, [r0, #12]
 412 0054 0E005CE1 		cmp	ip, lr
 413 0058 EFFFFFAA 		bge	.L50
 414 005c 14E090E5 		ldr	lr, [r0, #20]
 415 0060 104090E5 		ldr	r4, [r0, #16]
 416 0064 9E0202E0 		mul	r2, lr, r2
 417 0068 942121E0 		mla	r1, r4, r1, r2
 418 006c 182090E5 		ldr	r2, [r0, #24]
 419 0070 1C0090E5 		ldr	r0, [r0, #28]
 420 0074 921323E0 		mla	r3, r2, r3, r1
 421 0078 903C20E0 		mla	r0, r0, ip, r3
 422 007c 1080BDE8 		pop	{r4, pc}
 423              		.fnend
 425              		.section	.text._ZN6tflite14GetTensorShapeEPK12TfLiteTensor,"axG",%progbits,_ZN6tflite14GetTensorSh
 426              		.align	2
 427              		.weak	_ZN6tflite14GetTensorShapeEPK12TfLiteTensor
 428              		.syntax unified
 429              		.arm
 430              		.fpu neon
 432              	_ZN6tflite14GetTensorShapeEPK12TfLiteTensor:
 433              		.fnstart
 434              	.LFB3312:
 435              		@ args = 0, pretend = 0, frame = 0
 436              		@ frame_needed = 0, uses_anonymous_args = 0
 437 0000 000051E3 		cmp	r1, #0
 438 0004 70402DE9 		push	{r4, r5, r6, lr}
 439              		.save {r4, r5, r6, lr}
 440 0008 0040A0E1 		mov	r4, r0
 441 000c 00108005 		streq	r1, [r0]
 442 0010 1100000A 		beq	.L53
 443 0014 085091E5 		ldr	r5, [r1, #8]
 444 0018 003095E5 		ldr	r3, [r5]
 445 001c 040053E3 		cmp	r3, #4
 446 0020 003080E5 		str	r3, [r0]
 447 0024 0361A0E1 		lsl	r6, r3, #2
 448 0028 040000DA 		ble	.L56
 449 002c 2E0273E3 		cmn	r3, #-536870910
 450 0030 0B0000CA 		bgt	.L57
 451 0034 0600A0E1 		mov	r0, r6
 452 0038 FEFFFFEB 		bl	_Znaj
 453 003c 040084E5 		str	r0, [r4, #4]
 454              	.L56:
 455 0040 003094E5 		ldr	r3, [r4]
 456 0044 0620A0E1 		mov	r2, r6
 457 0048 041085E2 		add	r1, r5, #4
 458 004c 040053E3 		cmp	r3, #4
 459 0050 040094C5 		ldrgt	r0, [r4, #4]
 460 0054 040084D2 		addle	r0, r4, #4
 461 0058 FEFFFFEB 		bl	memcpy
 462              	.L53:
 463 005c 0400A0E1 		mov	r0, r4
 464 0060 7080BDE8 		pop	{r4, r5, r6, pc}
 465              	.L57:
 466 0064 FEFFFFEB 		bl	__cxa_throw_bad_array_new_length
 467              		.fnend
 469              		.section	.text._ZN6tflite3ops5micro16Register_MAXIMUMEv,"ax",%progbits
 470              		.align	2
 471              		.global	_ZN6tflite3ops5micro16Register_MAXIMUMEv
 472              		.syntax unified
 473              		.arm
 474              		.fpu neon
 476              	_ZN6tflite3ops5micro16Register_MAXIMUMEv:
 477              		.fnstart
 478              	.LFB6224:
 479              		@ args = 0, pretend = 0, frame = 0
 480              		@ frame_needed = 0, uses_anonymous_args = 0
 481              		@ link register save eliminated.
 482 0000 08009FE5 		ldr	r0, .L62
 483 0004 08309FE5 		ldr	r3, .L62+4
 484 0008 0C3080E5 		str	r3, [r0, #12]
 485 000c 1EFF2FE1 		bx	lr
 486              	.L63:
 487              		.align	2
 488              	.L62:
 489 0010 00000000 		.word	.LANCHOR0
 490 0014 00000000 		.word	_ZN6tflite3ops5micro15maximum_minimum4EvalILNS2_12_GLOBAL__N_110KernelTypeE0ENS4_9MaximumOpE
 491              		.cantunwind
 492              		.fnend
 494              		.section	.text._ZN6tflite3ops5micro16Register_MINIMUMEv,"ax",%progbits
 495              		.align	2
 496              		.global	_ZN6tflite3ops5micro16Register_MINIMUMEv
 497              		.syntax unified
 498              		.arm
 499              		.fpu neon
 501              	_ZN6tflite3ops5micro16Register_MINIMUMEv:
 502              		.fnstart
 503              	.LFB6225:
 504              		@ args = 0, pretend = 0, frame = 0
 505              		@ frame_needed = 0, uses_anonymous_args = 0
 506              		@ link register save eliminated.
 507 0000 08009FE5 		ldr	r0, .L65
 508 0004 08309FE5 		ldr	r3, .L65+4
 509 0008 0C3080E5 		str	r3, [r0, #12]
 510 000c 1EFF2FE1 		bx	lr
 511              	.L66:
 512              		.align	2
 513              	.L65:
 514 0010 00000000 		.word	.LANCHOR1
 515 0014 00000000 		.word	_ZN6tflite3ops5micro15maximum_minimum4EvalILNS2_12_GLOBAL__N_110KernelTypeE0ENS4_9MinimumOpE
 516              		.cantunwind
 517              		.fnend
 519              		.section	.text._ZN6tflite14CopyDimsToDescILi4EEEvRKNS_12RuntimeShapeEPNS_11NdArrayDescIXT_EEE,"axG
 520              		.align	2
 521              		.weak	_ZN6tflite14CopyDimsToDescILi4EEEvRKNS_12RuntimeShapeEPNS_11NdArrayDescIXT_EEE
 522              		.syntax unified
 523              		.arm
 524              		.fpu neon
 526              	_ZN6tflite14CopyDimsToDescILi4EEEvRKNS_12RuntimeShapeEPNS_11NdArrayDescIXT_EEE:
 527              		.fnstart
 528              	.LFB7024:
 529              		@ args = 0, pretend = 0, frame = 0
 530              		@ frame_needed = 0, uses_anonymous_args = 0
 531 0000 F0412DE9 		push	{r4, r5, r6, r7, r8, lr}
 532              		.save {r4, r5, r6, r7, r8, lr}
 533 0004 0070A0E1 		mov	r7, r0
 534 0008 0C6081E2 		add	r6, r1, #12
 535 000c 0340A0E3 		mov	r4, #3
 536 0010 0150A0E3 		mov	r5, #1
 537              	.L68:
 538 0014 0410A0E1 		mov	r1, r4
 539 0018 0700A0E1 		mov	r0, r7
 540 001c FEFFFFEB 		bl	_ZNK6tflite12RuntimeShape4DimsEi
 541 0020 0410A0E1 		mov	r1, r4
 542 0024 040006E4 		str	r0, [r6], #-4
 543 0028 0700A0E1 		mov	r0, r7
 544 002c 145086E5 		str	r5, [r6, #20]
 545 0030 FEFFFFEB 		bl	_ZNK6tflite12RuntimeShape4DimsEi
 546 0034 014054E2 		subs	r4, r4, #1
 547 0038 900505E0 		mul	r5, r0, r5
 548 003c F4FFFF2A 		bcs	.L68
 549 0040 F081BDE8 		pop	{r4, r5, r6, r7, r8, pc}
 550              		.fnend
 552              		.section	.text._ZN6tflite35NdArrayDescsForElementwiseBroadcastILi4EEEvRKNS_12RuntimeShapeES3_PNS_1
 553              		.align	2
 554              		.weak	_ZN6tflite35NdArrayDescsForElementwiseBroadcastILi4EEEvRKNS_12RuntimeShapeES3_PNS_11NdArrayD
 555              		.syntax unified
 556              		.arm
 557              		.fpu neon
 559              	_ZN6tflite35NdArrayDescsForElementwiseBroadcastILi4EEEvRKNS_12RuntimeShapeES3_PNS_11NdArrayDescIXT_
 560              		.fnstart
 561              	.LFB6977:
 562              		@ args = 0, pretend = 0, frame = 40
 563              		@ frame_needed = 0, uses_anonymous_args = 0
 564 0000 F0412DE9 		push	{r4, r5, r6, r7, r8, lr}
 565              		.save {r4, r5, r6, r7, r8, lr}
 566 0004 005052E2 		subs	r5, r2, #0
 567              		.pad #40
 568 0008 28D04DE2 		sub	sp, sp, #40
 569 000c 0000001A 		bne	.L72
 570              	.L73:
 571              	.LEHB0:
 572 0010 FEFFFFEB 		bl	abort
 573              	.L72:
 574 0014 000053E3 		cmp	r3, #0
 575 0018 0340A0E1 		mov	r4, r3
 576 001c FBFFFF0A 		beq	.L73
 577 0020 0020A0E1 		mov	r2, r0
 578 0024 0160A0E1 		mov	r6, r1
 579 0028 0130A0E3 		mov	r3, #1
 580 002c 0410A0E3 		mov	r1, #4
 581 0030 0D00A0E1 		mov	r0, sp
 582 0034 FEFFFFEB 		bl	_ZN6tflite12RuntimeShapeC1EiRKS0_i
 583              	.LEHE0:
 584 0038 0130A0E3 		mov	r3, #1
 585 003c 0620A0E1 		mov	r2, r6
 586 0040 0410A0E3 		mov	r1, #4
 587 0044 14008DE2 		add	r0, sp, #20
 588              	.LEHB1:
 589 0048 FEFFFFEB 		bl	_ZN6tflite12RuntimeShapeC1EiRKS0_i
 590              	.LEHE1:
 591 004c 0510A0E1 		mov	r1, r5
 592 0050 0D00A0E1 		mov	r0, sp
 593              	.LEHB2:
 594 0054 FEFFFFEB 		bl	_ZN6tflite14CopyDimsToDescILi4EEEvRKNS_12RuntimeShapeEPNS_11NdArrayDescIXT_EEE
 595 0058 0410A0E1 		mov	r1, r4
 596 005c 14008DE2 		add	r0, sp, #20
 597 0060 FEFFFFEB 		bl	_ZN6tflite14CopyDimsToDescILi4EEEvRKNS_12RuntimeShapeEPNS_11NdArrayDescIXT_EEE
 598 0064 0060A0E3 		mov	r6, #0
 599 0068 0680A0E1 		mov	r8, r6
 600              	.L77:
 601 006c 0610A0E1 		mov	r1, r6
 602 0070 0D00A0E1 		mov	r0, sp
 603 0074 FEFFFFEB 		bl	_ZNK6tflite12RuntimeShape4DimsEi
 604 0078 0070A0E1 		mov	r7, r0
 605 007c 0610A0E1 		mov	r1, r6
 606 0080 14008DE2 		add	r0, sp, #20
 607 0084 FEFFFFEB 		bl	_ZNK6tflite12RuntimeShape4DimsEi
 608 0088 000057E1 		cmp	r7, r0
 609 008c 0D00000A 		beq	.L74
 610 0090 010057E3 		cmp	r7, #1
 611 0094 10808505 		streq	r8, [r5, #16]
 612 0098 00008505 		streq	r0, [r5]
 613 009c 0900000A 		beq	.L74
 614 00a0 010050E3 		cmp	r0, #1
 615 00a4 0500000A 		beq	.L76
 616 00a8 FEFFFFEB 		bl	abort
 617              	.LEHE2:
 618              	.L81:
 619 00ac 14008DE2 		add	r0, sp, #20
 620 00b0 FEFFFFEB 		bl	_ZN6tflite12RuntimeShapeD1Ev
 621              	.L79:
 622 00b4 0D00A0E1 		mov	r0, sp
 623 00b8 FEFFFFEB 		bl	_ZN6tflite12RuntimeShapeD1Ev
 624              	.LEHB3:
 625 00bc FEFFFFEB 		bl	__cxa_end_cleanup
 626              	.LEHE3:
 627              	.L76:
 628 00c0 108084E5 		str	r8, [r4, #16]
 629 00c4 007084E5 		str	r7, [r4]
 630              	.L74:
 631 00c8 016086E2 		add	r6, r6, #1
 632 00cc 044084E2 		add	r4, r4, #4
 633 00d0 040056E3 		cmp	r6, #4
 634 00d4 045085E2 		add	r5, r5, #4
 635 00d8 E3FFFF1A 		bne	.L77
 636 00dc 14008DE2 		add	r0, sp, #20
 637 00e0 FEFFFFEB 		bl	_ZN6tflite12RuntimeShapeD1Ev
 638 00e4 0D00A0E1 		mov	r0, sp
 639 00e8 FEFFFFEB 		bl	_ZN6tflite12RuntimeShapeD1Ev
 640 00ec 28D08DE2 		add	sp, sp, #40
 641              		@ sp needed
 642 00f0 F081BDE8 		pop	{r4, r5, r6, r7, r8, pc}
 643              	.L80:
 644 00f4 EEFFFFEA 		b	.L79
 645              		.global	__gxx_personality_v0
 646              		.personality	__gxx_personality_v0
 647              		.handlerdata
 648              	.LLSDA6977:
 649 0008 FF       		.byte	0xff
 650 0009 FF       		.byte	0xff
 651 000a 01       		.byte	0x1
 652 000b 13       		.uleb128 .LLSDACSE6977-.LLSDACSB6977
 653              	.LLSDACSB6977:
 654 000c 10       		.uleb128 .LEHB0-.LFB6977
 655 000d 28       		.uleb128 .LEHE0-.LEHB0
 656 000e 00       		.uleb128 0
 657 000f 00       		.uleb128 0
 658 0010 48       		.uleb128 .LEHB1-.LFB6977
 659 0011 04       		.uleb128 .LEHE1-.LEHB1
 660 0012 F401     		.uleb128 .L80-.LFB6977
 661 0014 00       		.uleb128 0
 662 0015 54       		.uleb128 .LEHB2-.LFB6977
 663 0016 58       		.uleb128 .LEHE2-.LEHB2
 664 0017 AC01     		.uleb128 .L81-.LFB6977
 665 0019 00       		.uleb128 0
 666 001a BC01     		.uleb128 .LEHB3-.LFB6977
 667 001c 04       		.uleb128 .LEHE3-.LEHB3
 668 001d 00       		.uleb128 0
 669 001e 00       		.uleb128 0
 670              	.LLSDACSE6977:
 671              		.section	.text._ZN6tflite35NdArrayDescsForElementwiseBroadcastILi4EEEvRKNS_12RuntimeShapeES3_PNS_1
 672              		.fnend
 674              		.section	.text._ZN6tflite13reference_ops29MaximumMinimumBroadcast4DSlowIfPFfffEEEvRKNS_12RuntimeSh
 675              		.align	2
 676              		.weak	_ZN6tflite13reference_ops29MaximumMinimumBroadcast4DSlowIfPFfffEEEvRKNS_12RuntimeShapeEPKT_S
 677              		.syntax unified
 678              		.arm
 679              		.fpu neon
 681              	_ZN6tflite13reference_ops29MaximumMinimumBroadcast4DSlowIfPFfffEEEvRKNS_12RuntimeShapeEPKT_S6_S9_S6
 682              		.fnstart
 683              	.LFB6893:
 684              		@ args = 12, pretend = 0, frame = 88
 685              		@ frame_needed = 0, uses_anonymous_args = 0
 686 0000 F04F2DE9 		push	{r4, r5, r6, r7, r8, r9, r10, fp, lr}
 687              		.save {r4, r5, r6, r7, r8, r9, r10, fp, lr}
 688 0004 03B0A0E1 		mov	fp, r3
 689 0008 003090E5 		ldr	r3, [r0]
 690              		.pad #100
 691 000c 64D04DE2 		sub	sp, sp, #100
 692 0010 0250A0E1 		mov	r5, r2
 693 0014 88209DE5 		ldr	r2, [sp, #136]
 694 0018 040053E3 		cmp	r3, #4
 695 001c 000000DA 		ble	.L89
 696              	.L90:
 697              	.LEHB4:
 698 0020 FEFFFFEB 		bl	abort
 699              	.L89:
 700 0024 003095E5 		ldr	r3, [r5]
 701 0028 040053E3 		cmp	r3, #4
 702 002c FBFFFFCA 		bgt	.L90
 703 0030 003092E5 		ldr	r3, [r2]
 704 0034 040053E3 		cmp	r3, #4
 705 0038 F8FFFFCA 		bgt	.L90
 706 003c 0040A0E1 		mov	r4, r0
 707 0040 0130A0E3 		mov	r3, #1
 708 0044 01A0A0E1 		mov	r10, r1
 709 0048 0C008DE2 		add	r0, sp, #12
 710 004c 0410A0E3 		mov	r1, #4
 711 0050 FEFFFFEB 		bl	_ZN6tflite12RuntimeShapeC1EiRKS0_i
 712              	.LEHE4:
 713 0054 40308DE2 		add	r3, sp, #64
 714 0058 20208DE2 		add	r2, sp, #32
 715 005c 0510A0E1 		mov	r1, r5
 716 0060 0400A0E1 		mov	r0, r4
 717              	.LEHB5:
 718 0064 FEFFFFEB 		bl	_ZN6tflite35NdArrayDescsForElementwiseBroadcastILi4EEEvRKNS_12RuntimeShapeES3_PNS_11NdArrayDesc
 719 0068 0040A0E3 		mov	r4, #0
 720              	.L98:
 721 006c 0010A0E3 		mov	r1, #0
 722 0070 0C008DE2 		add	r0, sp, #12
 723 0074 FEFFFFEB 		bl	_ZNK6tflite12RuntimeShape4DimsEi
 724 0078 000054E1 		cmp	r4, r0
 725 007c 360000AA 		bge	.L91
 726 0080 0050A0E3 		mov	r5, #0
 727              	.L97:
 728 0084 0110A0E3 		mov	r1, #1
 729 0088 0C008DE2 		add	r0, sp, #12
 730 008c FEFFFFEB 		bl	_ZNK6tflite12RuntimeShape4DimsEi
 731 0090 000055E1 		cmp	r5, r0
 732 0094 2E0000AA 		bge	.L92
 733 0098 0060A0E3 		mov	r6, #0
 734              	.L96:
 735 009c 0210A0E3 		mov	r1, #2
 736 00a0 0C008DE2 		add	r0, sp, #12
 737 00a4 FEFFFFEB 		bl	_ZNK6tflite12RuntimeShape4DimsEi
 738 00a8 000056E1 		cmp	r6, r0
 739 00ac 260000AA 		bge	.L93
 740 00b0 0070A0E3 		mov	r7, #0
 741              	.L95:
 742 00b4 0310A0E3 		mov	r1, #3
 743 00b8 0C008DE2 		add	r0, sp, #12
 744 00bc FEFFFFEB 		bl	_ZNK6tflite12RuntimeShape4DimsEi
 745 00c0 000057E1 		cmp	r7, r0
 746 00c4 1E0000AA 		bge	.L94
 747 00c8 00708DE5 		str	r7, [sp]
 748 00cc 0630A0E1 		mov	r3, r6
 749 00d0 0520A0E1 		mov	r2, r5
 750 00d4 0410A0E1 		mov	r1, r4
 751 00d8 0C008DE2 		add	r0, sp, #12
 752 00dc FEFFFFEB 		bl	_ZN6tflite6OffsetERKNS_12RuntimeShapeEiiii
 753 00e0 0080A0E1 		mov	r8, r0
 754 00e4 00708DE5 		str	r7, [sp]
 755 00e8 0630A0E1 		mov	r3, r6
 756 00ec 0520A0E1 		mov	r2, r5
 757 00f0 0410A0E1 		mov	r1, r4
 758 00f4 20008DE2 		add	r0, sp, #32
 759 00f8 FEFFFFEB 		bl	_ZN6tflite16SubscriptToIndexERKNS_11NdArrayDescILi4EEEiiii
 760 00fc 0090A0E1 		mov	r9, r0
 761 0100 00708DE5 		str	r7, [sp]
 762 0104 0630A0E1 		mov	r3, r6
 763 0108 0520A0E1 		mov	r2, r5
 764 010c 0410A0E1 		mov	r1, r4
 765 0110 40008DE2 		add	r0, sp, #64
 766 0114 FEFFFFEB 		bl	_ZN6tflite16SubscriptToIndexERKNS_11NdArrayDescILi4EEEiiii
 767 0118 8C309DE5 		ldr	r3, [sp, #140]
 768 011c 00018BE0 		add	r0, fp, r0, lsl #2
 769 0120 09918AE0 		add	r9, r10, r9, lsl #2
 770 0124 000AD0ED 		vldr.32	s1, [r0]
 771 0128 000A99ED 		vldr.32	s0, [r9]
 772 012c 088183E0 		add	r8, r3, r8, lsl #2
 773 0130 90309DE5 		ldr	r3, [sp, #144]
 774 0134 33FF2FE1 		blx	r3
 775              	.LEHE5:
 776 0138 000A88ED 		vstr.32	s0, [r8]
 777 013c 017087E2 		add	r7, r7, #1
 778 0140 DBFFFFEA 		b	.L95
 779              	.L94:
 780 0144 016086E2 		add	r6, r6, #1
 781 0148 D3FFFFEA 		b	.L96
 782              	.L93:
 783 014c 015085E2 		add	r5, r5, #1
 784 0150 CBFFFFEA 		b	.L97
 785              	.L92:
 786 0154 014084E2 		add	r4, r4, #1
 787 0158 C3FFFFEA 		b	.L98
 788              	.L91:
 789 015c 0C008DE2 		add	r0, sp, #12
 790 0160 FEFFFFEB 		bl	_ZN6tflite12RuntimeShapeD1Ev
 791 0164 64D08DE2 		add	sp, sp, #100
 792              		@ sp needed
 793 0168 F08FBDE8 		pop	{r4, r5, r6, r7, r8, r9, r10, fp, pc}
 794              	.L100:
 795 016c 0C008DE2 		add	r0, sp, #12
 796 0170 FEFFFFEB 		bl	_ZN6tflite12RuntimeShapeD1Ev
 797              	.LEHB6:
 798 0174 FEFFFFEB 		bl	__cxa_end_cleanup
 799              	.LEHE6:
 800              		.personality	__gxx_personality_v0
 801              		.handlerdata
 802              	.LLSDA6893:
 803 0008 FF       		.byte	0xff
 804 0009 FF       		.byte	0xff
 805 000a 01       		.byte	0x1
 806 000b 0F       		.uleb128 .LLSDACSE6893-.LLSDACSB6893
 807              	.LLSDACSB6893:
 808 000c 20       		.uleb128 .LEHB4-.LFB6893
 809 000d 34       		.uleb128 .LEHE4-.LEHB4
 810 000e 00       		.uleb128 0
 811 000f 00       		.uleb128 0
 812 0010 64       		.uleb128 .LEHB5-.LFB6893
 813 0011 D401     		.uleb128 .LEHE5-.LEHB5
 814 0013 EC02     		.uleb128 .L100-.LFB6893
 815 0015 00       		.uleb128 0
 816 0016 F402     		.uleb128 .LEHB6-.LFB6893
 817 0018 04       		.uleb128 .LEHE6-.LEHB6
 818 0019 00       		.uleb128 0
 819 001a 00       		.uleb128 0
 820              	.LLSDACSE6893:
 821              		.section	.text._ZN6tflite13reference_ops29MaximumMinimumBroadcast4DSlowIfPFfffEEEvRKNS_12RuntimeSh
 822              		.fnend
 824              		.section	.text._ZN6tflite13reference_ops29MaximumMinimumBroadcast4DSlowIhPFhhhEEEvRKNS_12RuntimeSh
 825              		.align	2
 826              		.weak	_ZN6tflite13reference_ops29MaximumMinimumBroadcast4DSlowIhPFhhhEEEvRKNS_12RuntimeShapeEPKT_S
 827              		.syntax unified
 828              		.arm
 829              		.fpu neon
 831              	_ZN6tflite13reference_ops29MaximumMinimumBroadcast4DSlowIhPFhhhEEEvRKNS_12RuntimeShapeEPKT_S6_S9_S6
 832              		.fnstart
 833              	.LFB6897:
 834              		@ args = 12, pretend = 0, frame = 88
 835              		@ frame_needed = 0, uses_anonymous_args = 0
 836 0000 F04F2DE9 		push	{r4, r5, r6, r7, r8, r9, r10, fp, lr}
 837              		.save {r4, r5, r6, r7, r8, r9, r10, fp, lr}
 838 0004 0390A0E1 		mov	r9, r3
 839 0008 003090E5 		ldr	r3, [r0]
 840              		.pad #100
 841 000c 64D04DE2 		sub	sp, sp, #100
 842 0010 0250A0E1 		mov	r5, r2
 843 0014 88209DE5 		ldr	r2, [sp, #136]
 844 0018 040053E3 		cmp	r3, #4
 845 001c 000000DA 		ble	.L104
 846              	.L105:
 847              	.LEHB7:
 848 0020 FEFFFFEB 		bl	abort
 849              	.L104:
 850 0024 003095E5 		ldr	r3, [r5]
 851 0028 040053E3 		cmp	r3, #4
 852 002c FBFFFFCA 		bgt	.L105
 853 0030 003092E5 		ldr	r3, [r2]
 854 0034 040053E3 		cmp	r3, #4
 855 0038 F8FFFFCA 		bgt	.L105
 856 003c 0040A0E1 		mov	r4, r0
 857 0040 0130A0E3 		mov	r3, #1
 858 0044 0180A0E1 		mov	r8, r1
 859 0048 0C008DE2 		add	r0, sp, #12
 860 004c 0410A0E3 		mov	r1, #4
 861 0050 FEFFFFEB 		bl	_ZN6tflite12RuntimeShapeC1EiRKS0_i
 862              	.LEHE7:
 863 0054 40308DE2 		add	r3, sp, #64
 864 0058 20208DE2 		add	r2, sp, #32
 865 005c 0510A0E1 		mov	r1, r5
 866 0060 0400A0E1 		mov	r0, r4
 867              	.LEHB8:
 868 0064 FEFFFFEB 		bl	_ZN6tflite35NdArrayDescsForElementwiseBroadcastILi4EEEvRKNS_12RuntimeShapeES3_PNS_11NdArrayDesc
 869 0068 0040A0E3 		mov	r4, #0
 870              	.L113:
 871 006c 0010A0E3 		mov	r1, #0
 872 0070 0C008DE2 		add	r0, sp, #12
 873 0074 FEFFFFEB 		bl	_ZNK6tflite12RuntimeShape4DimsEi
 874 0078 000054E1 		cmp	r4, r0
 875 007c 330000AA 		bge	.L106
 876 0080 0050A0E3 		mov	r5, #0
 877              	.L112:
 878 0084 0110A0E3 		mov	r1, #1
 879 0088 0C008DE2 		add	r0, sp, #12
 880 008c FEFFFFEB 		bl	_ZNK6tflite12RuntimeShape4DimsEi
 881 0090 000055E1 		cmp	r5, r0
 882 0094 2B0000AA 		bge	.L107
 883 0098 0060A0E3 		mov	r6, #0
 884              	.L111:
 885 009c 0210A0E3 		mov	r1, #2
 886 00a0 0C008DE2 		add	r0, sp, #12
 887 00a4 FEFFFFEB 		bl	_ZNK6tflite12RuntimeShape4DimsEi
 888 00a8 000056E1 		cmp	r6, r0
 889 00ac 230000AA 		bge	.L108
 890 00b0 0070A0E3 		mov	r7, #0
 891              	.L110:
 892 00b4 0310A0E3 		mov	r1, #3
 893 00b8 0C008DE2 		add	r0, sp, #12
 894 00bc FEFFFFEB 		bl	_ZNK6tflite12RuntimeShape4DimsEi
 895 00c0 000057E1 		cmp	r7, r0
 896 00c4 1B0000AA 		bge	.L109
 897 00c8 00708DE5 		str	r7, [sp]
 898 00cc 0630A0E1 		mov	r3, r6
 899 00d0 0520A0E1 		mov	r2, r5
 900 00d4 0410A0E1 		mov	r1, r4
 901 00d8 0C008DE2 		add	r0, sp, #12
 902 00dc FEFFFFEB 		bl	_ZN6tflite6OffsetERKNS_12RuntimeShapeEiiii
 903 00e0 00A0A0E1 		mov	r10, r0
 904 00e4 00708DE5 		str	r7, [sp]
 905 00e8 0630A0E1 		mov	r3, r6
 906 00ec 0520A0E1 		mov	r2, r5
 907 00f0 0410A0E1 		mov	r1, r4
 908 00f4 20008DE2 		add	r0, sp, #32
 909 00f8 FEFFFFEB 		bl	_ZN6tflite16SubscriptToIndexERKNS_11NdArrayDescILi4EEEiiii
 910 00fc 00B0A0E1 		mov	fp, r0
 911 0100 00708DE5 		str	r7, [sp]
 912 0104 0630A0E1 		mov	r3, r6
 913 0108 0520A0E1 		mov	r2, r5
 914 010c 0410A0E1 		mov	r1, r4
 915 0110 40008DE2 		add	r0, sp, #64
 916 0114 FEFFFFEB 		bl	_ZN6tflite16SubscriptToIndexERKNS_11NdArrayDescILi4EEEiiii
 917 0118 0010D9E7 		ldrb	r1, [r9, r0]	@ zero_extendqisi2
 918 011c 90309DE5 		ldr	r3, [sp, #144]
 919 0120 0B00D8E7 		ldrb	r0, [r8, fp]	@ zero_extendqisi2
 920 0124 33FF2FE1 		blx	r3
 921              	.LEHE8:
 922 0128 8C309DE5 		ldr	r3, [sp, #140]
 923 012c 017087E2 		add	r7, r7, #1
 924 0130 0A00C3E7 		strb	r0, [r3, r10]
 925 0134 DEFFFFEA 		b	.L110
 926              	.L109:
 927 0138 016086E2 		add	r6, r6, #1
 928 013c D6FFFFEA 		b	.L111
 929              	.L108:
 930 0140 015085E2 		add	r5, r5, #1
 931 0144 CEFFFFEA 		b	.L112
 932              	.L107:
 933 0148 014084E2 		add	r4, r4, #1
 934 014c C6FFFFEA 		b	.L113
 935              	.L106:
 936 0150 0C008DE2 		add	r0, sp, #12
 937 0154 FEFFFFEB 		bl	_ZN6tflite12RuntimeShapeD1Ev
 938 0158 64D08DE2 		add	sp, sp, #100
 939              		@ sp needed
 940 015c F08FBDE8 		pop	{r4, r5, r6, r7, r8, r9, r10, fp, pc}
 941              	.L115:
 942 0160 0C008DE2 		add	r0, sp, #12
 943 0164 FEFFFFEB 		bl	_ZN6tflite12RuntimeShapeD1Ev
 944              	.LEHB9:
 945 0168 FEFFFFEB 		bl	__cxa_end_cleanup
 946              	.LEHE9:
 947              		.personality	__gxx_personality_v0
 948              		.handlerdata
 949              	.LLSDA6897:
 950 0008 FF       		.byte	0xff
 951 0009 FF       		.byte	0xff
 952 000a 01       		.byte	0x1
 953 000b 0F       		.uleb128 .LLSDACSE6897-.LLSDACSB6897
 954              	.LLSDACSB6897:
 955 000c 20       		.uleb128 .LEHB7-.LFB6897
 956 000d 34       		.uleb128 .LEHE7-.LEHB7
 957 000e 00       		.uleb128 0
 958 000f 00       		.uleb128 0
 959 0010 64       		.uleb128 .LEHB8-.LFB6897
 960 0011 C401     		.uleb128 .LEHE8-.LEHB8
 961 0013 E002     		.uleb128 .L115-.LFB6897
 962 0015 00       		.uleb128 0
 963 0016 E802     		.uleb128 .LEHB9-.LFB6897
 964 0018 04       		.uleb128 .LEHE9-.LEHB9
 965 0019 00       		.uleb128 0
 966 001a 00       		.uleb128 0
 967              	.LLSDACSE6897:
 968              		.section	.text._ZN6tflite13reference_ops29MaximumMinimumBroadcast4DSlowIhPFhhhEEEvRKNS_12RuntimeSh
 969              		.fnend
 971              		.section	.text._ZN6tflite13reference_ops29MaximumMinimumBroadcast4DSlowIaPFaaaEEEvRKNS_12RuntimeSh
 972              		.align	2
 973              		.weak	_ZN6tflite13reference_ops29MaximumMinimumBroadcast4DSlowIaPFaaaEEEvRKNS_12RuntimeShapeEPKT_S
 974              		.syntax unified
 975              		.arm
 976              		.fpu neon
 978              	_ZN6tflite13reference_ops29MaximumMinimumBroadcast4DSlowIaPFaaaEEEvRKNS_12RuntimeShapeEPKT_S6_S9_S6
 979              		.fnstart
 980              	.LFB6901:
 981              		@ args = 12, pretend = 0, frame = 88
 982              		@ frame_needed = 0, uses_anonymous_args = 0
 983 0000 F04F2DE9 		push	{r4, r5, r6, r7, r8, r9, r10, fp, lr}
 984              		.save {r4, r5, r6, r7, r8, r9, r10, fp, lr}
 985 0004 0390A0E1 		mov	r9, r3
 986 0008 003090E5 		ldr	r3, [r0]
 987              		.pad #100
 988 000c 64D04DE2 		sub	sp, sp, #100
 989 0010 0250A0E1 		mov	r5, r2
 990 0014 88209DE5 		ldr	r2, [sp, #136]
 991 0018 040053E3 		cmp	r3, #4
 992 001c 000000DA 		ble	.L119
 993              	.L120:
 994              	.LEHB10:
 995 0020 FEFFFFEB 		bl	abort
 996              	.L119:
 997 0024 003095E5 		ldr	r3, [r5]
 998 0028 040053E3 		cmp	r3, #4
 999 002c FBFFFFCA 		bgt	.L120
 1000 0030 003092E5 		ldr	r3, [r2]
 1001 0034 040053E3 		cmp	r3, #4
 1002 0038 F8FFFFCA 		bgt	.L120
 1003 003c 0040A0E1 		mov	r4, r0
 1004 0040 0130A0E3 		mov	r3, #1
 1005 0044 0180A0E1 		mov	r8, r1
 1006 0048 0C008DE2 		add	r0, sp, #12
 1007 004c 0410A0E3 		mov	r1, #4
 1008 0050 FEFFFFEB 		bl	_ZN6tflite12RuntimeShapeC1EiRKS0_i
 1009              	.LEHE10:
 1010 0054 40308DE2 		add	r3, sp, #64
 1011 0058 20208DE2 		add	r2, sp, #32
 1012 005c 0510A0E1 		mov	r1, r5
 1013 0060 0400A0E1 		mov	r0, r4
 1014              	.LEHB11:
 1015 0064 FEFFFFEB 		bl	_ZN6tflite35NdArrayDescsForElementwiseBroadcastILi4EEEvRKNS_12RuntimeShapeES3_PNS_11NdArrayDesc
 1016 0068 0040A0E3 		mov	r4, #0
 1017              	.L128:
 1018 006c 0010A0E3 		mov	r1, #0
 1019 0070 0C008DE2 		add	r0, sp, #12
 1020 0074 FEFFFFEB 		bl	_ZNK6tflite12RuntimeShape4DimsEi
 1021 0078 000054E1 		cmp	r4, r0
 1022 007c 330000AA 		bge	.L121
 1023 0080 0050A0E3 		mov	r5, #0
 1024              	.L127:
 1025 0084 0110A0E3 		mov	r1, #1
 1026 0088 0C008DE2 		add	r0, sp, #12
 1027 008c FEFFFFEB 		bl	_ZNK6tflite12RuntimeShape4DimsEi
 1028 0090 000055E1 		cmp	r5, r0
 1029 0094 2B0000AA 		bge	.L122
 1030 0098 0060A0E3 		mov	r6, #0
 1031              	.L126:
 1032 009c 0210A0E3 		mov	r1, #2
 1033 00a0 0C008DE2 		add	r0, sp, #12
 1034 00a4 FEFFFFEB 		bl	_ZNK6tflite12RuntimeShape4DimsEi
 1035 00a8 000056E1 		cmp	r6, r0
 1036 00ac 230000AA 		bge	.L123
 1037 00b0 0070A0E3 		mov	r7, #0
 1038              	.L125:
 1039 00b4 0310A0E3 		mov	r1, #3
 1040 00b8 0C008DE2 		add	r0, sp, #12
 1041 00bc FEFFFFEB 		bl	_ZNK6tflite12RuntimeShape4DimsEi
 1042 00c0 000057E1 		cmp	r7, r0
 1043 00c4 1B0000AA 		bge	.L124
 1044 00c8 00708DE5 		str	r7, [sp]
 1045 00cc 0630A0E1 		mov	r3, r6
 1046 00d0 0520A0E1 		mov	r2, r5
 1047 00d4 0410A0E1 		mov	r1, r4
 1048 00d8 0C008DE2 		add	r0, sp, #12
 1049 00dc FEFFFFEB 		bl	_ZN6tflite6OffsetERKNS_12RuntimeShapeEiiii
 1050 00e0 00A0A0E1 		mov	r10, r0
 1051 00e4 00708DE5 		str	r7, [sp]
 1052 00e8 0630A0E1 		mov	r3, r6
 1053 00ec 0520A0E1 		mov	r2, r5
 1054 00f0 0410A0E1 		mov	r1, r4
 1055 00f4 20008DE2 		add	r0, sp, #32
 1056 00f8 FEFFFFEB 		bl	_ZN6tflite16SubscriptToIndexERKNS_11NdArrayDescILi4EEEiiii
 1057 00fc 00B0A0E1 		mov	fp, r0
 1058 0100 00708DE5 		str	r7, [sp]
 1059 0104 0630A0E1 		mov	r3, r6
 1060 0108 0520A0E1 		mov	r2, r5
 1061 010c 0410A0E1 		mov	r1, r4
 1062 0110 40008DE2 		add	r0, sp, #64
 1063 0114 FEFFFFEB 		bl	_ZN6tflite16SubscriptToIndexERKNS_11NdArrayDescILi4EEEiiii
 1064 0118 D01099E1 		ldrsb	r1, [r9, r0]
 1065 011c 90309DE5 		ldr	r3, [sp, #144]
 1066 0120 DB0098E1 		ldrsb	r0, [r8, fp]
 1067 0124 33FF2FE1 		blx	r3
 1068              	.LEHE11:
 1069 0128 8C309DE5 		ldr	r3, [sp, #140]
 1070 012c 017087E2 		add	r7, r7, #1
 1071 0130 0A00C3E7 		strb	r0, [r3, r10]
 1072 0134 DEFFFFEA 		b	.L125
 1073              	.L124:
 1074 0138 016086E2 		add	r6, r6, #1
 1075 013c D6FFFFEA 		b	.L126
 1076              	.L123:
 1077 0140 015085E2 		add	r5, r5, #1
 1078 0144 CEFFFFEA 		b	.L127
 1079              	.L122:
 1080 0148 014084E2 		add	r4, r4, #1
 1081 014c C6FFFFEA 		b	.L128
 1082              	.L121:
 1083 0150 0C008DE2 		add	r0, sp, #12
 1084 0154 FEFFFFEB 		bl	_ZN6tflite12RuntimeShapeD1Ev
 1085 0158 64D08DE2 		add	sp, sp, #100
 1086              		@ sp needed
 1087 015c F08FBDE8 		pop	{r4, r5, r6, r7, r8, r9, r10, fp, pc}
 1088              	.L130:
 1089 0160 0C008DE2 		add	r0, sp, #12
 1090 0164 FEFFFFEB 		bl	_ZN6tflite12RuntimeShapeD1Ev
 1091              	.LEHB12:
 1092 0168 FEFFFFEB 		bl	__cxa_end_cleanup
 1093              	.LEHE12:
 1094              		.personality	__gxx_personality_v0
 1095              		.handlerdata
 1096              	.LLSDA6901:
 1097 0008 FF       		.byte	0xff
 1098 0009 FF       		.byte	0xff
 1099 000a 01       		.byte	0x1
 1100 000b 0F       		.uleb128 .LLSDACSE6901-.LLSDACSB6901
 1101              	.LLSDACSB6901:
 1102 000c 20       		.uleb128 .LEHB10-.LFB6901
 1103 000d 34       		.uleb128 .LEHE10-.LEHB10
 1104 000e 00       		.uleb128 0
 1105 000f 00       		.uleb128 0
 1106 0010 64       		.uleb128 .LEHB11-.LFB6901
 1107 0011 C401     		.uleb128 .LEHE11-.LEHB11
 1108 0013 E002     		.uleb128 .L130-.LFB6901
 1109 0015 00       		.uleb128 0
 1110 0016 E802     		.uleb128 .LEHB12-.LFB6901
 1111 0018 04       		.uleb128 .LEHE12-.LEHB12
 1112 0019 00       		.uleb128 0
 1113 001a 00       		.uleb128 0
 1114              	.LLSDACSE6901:
 1115              		.section	.text._ZN6tflite13reference_ops29MaximumMinimumBroadcast4DSlowIaPFaaaEEEvRKNS_12RuntimeSh
 1116              		.fnend
 1118              		.section	.text._ZN6tflite13reference_ops29MaximumMinimumBroadcast4DSlowIlPFlllEEEvRKNS_12RuntimeSh
 1119              		.align	2
 1120              		.weak	_ZN6tflite13reference_ops29MaximumMinimumBroadcast4DSlowIlPFlllEEEvRKNS_12RuntimeShapeEPKT_S
 1121              		.syntax unified
 1122              		.arm
 1123              		.fpu neon
 1125              	_ZN6tflite13reference_ops29MaximumMinimumBroadcast4DSlowIlPFlllEEEvRKNS_12RuntimeShapeEPKT_S6_S9_S6
 1126              		.fnstart
 1127              	.LFB6905:
 1128              		@ args = 12, pretend = 0, frame = 88
 1129              		@ frame_needed = 0, uses_anonymous_args = 0
 1130 0000 F04F2DE9 		push	{r4, r5, r6, r7, r8, r9, r10, fp, lr}
 1131              		.save {r4, r5, r6, r7, r8, r9, r10, fp, lr}
 1132 0004 0390A0E1 		mov	r9, r3
 1133 0008 003090E5 		ldr	r3, [r0]
 1134              		.pad #100
 1135 000c 64D04DE2 		sub	sp, sp, #100
 1136 0010 0250A0E1 		mov	r5, r2
 1137 0014 88209DE5 		ldr	r2, [sp, #136]
 1138 0018 040053E3 		cmp	r3, #4
 1139 001c 000000DA 		ble	.L134
 1140              	.L135:
 1141              	.LEHB13:
 1142 0020 FEFFFFEB 		bl	abort
 1143              	.L134:
 1144 0024 003095E5 		ldr	r3, [r5]
 1145 0028 040053E3 		cmp	r3, #4
 1146 002c FBFFFFCA 		bgt	.L135
 1147 0030 003092E5 		ldr	r3, [r2]
 1148 0034 040053E3 		cmp	r3, #4
 1149 0038 F8FFFFCA 		bgt	.L135
 1150 003c 0040A0E1 		mov	r4, r0
 1151 0040 0130A0E3 		mov	r3, #1
 1152 0044 0180A0E1 		mov	r8, r1
 1153 0048 0C008DE2 		add	r0, sp, #12
 1154 004c 0410A0E3 		mov	r1, #4
 1155 0050 FEFFFFEB 		bl	_ZN6tflite12RuntimeShapeC1EiRKS0_i
 1156              	.LEHE13:
 1157 0054 40308DE2 		add	r3, sp, #64
 1158 0058 20208DE2 		add	r2, sp, #32
 1159 005c 0510A0E1 		mov	r1, r5
 1160 0060 0400A0E1 		mov	r0, r4
 1161              	.LEHB14:
 1162 0064 FEFFFFEB 		bl	_ZN6tflite35NdArrayDescsForElementwiseBroadcastILi4EEEvRKNS_12RuntimeShapeES3_PNS_11NdArrayDesc
 1163 0068 0040A0E3 		mov	r4, #0
 1164              	.L143:
 1165 006c 0010A0E3 		mov	r1, #0
 1166 0070 0C008DE2 		add	r0, sp, #12
 1167 0074 FEFFFFEB 		bl	_ZNK6tflite12RuntimeShape4DimsEi
 1168 0078 000054E1 		cmp	r4, r0
 1169 007c 330000AA 		bge	.L136
 1170 0080 0050A0E3 		mov	r5, #0
 1171              	.L142:
 1172 0084 0110A0E3 		mov	r1, #1
 1173 0088 0C008DE2 		add	r0, sp, #12
 1174 008c FEFFFFEB 		bl	_ZNK6tflite12RuntimeShape4DimsEi
 1175 0090 000055E1 		cmp	r5, r0
 1176 0094 2B0000AA 		bge	.L137
 1177 0098 0060A0E3 		mov	r6, #0
 1178              	.L141:
 1179 009c 0210A0E3 		mov	r1, #2
 1180 00a0 0C008DE2 		add	r0, sp, #12
 1181 00a4 FEFFFFEB 		bl	_ZNK6tflite12RuntimeShape4DimsEi
 1182 00a8 000056E1 		cmp	r6, r0
 1183 00ac 230000AA 		bge	.L138
 1184 00b0 0070A0E3 		mov	r7, #0
 1185              	.L140:
 1186 00b4 0310A0E3 		mov	r1, #3
 1187 00b8 0C008DE2 		add	r0, sp, #12
 1188 00bc FEFFFFEB 		bl	_ZNK6tflite12RuntimeShape4DimsEi
 1189 00c0 000057E1 		cmp	r7, r0
 1190 00c4 1B0000AA 		bge	.L139
 1191 00c8 00708DE5 		str	r7, [sp]
 1192 00cc 0630A0E1 		mov	r3, r6
 1193 00d0 0520A0E1 		mov	r2, r5
 1194 00d4 0410A0E1 		mov	r1, r4
 1195 00d8 0C008DE2 		add	r0, sp, #12
 1196 00dc FEFFFFEB 		bl	_ZN6tflite6OffsetERKNS_12RuntimeShapeEiiii
 1197 00e0 00A0A0E1 		mov	r10, r0
 1198 00e4 00708DE5 		str	r7, [sp]
 1199 00e8 0630A0E1 		mov	r3, r6
 1200 00ec 0520A0E1 		mov	r2, r5
 1201 00f0 0410A0E1 		mov	r1, r4
 1202 00f4 20008DE2 		add	r0, sp, #32
 1203 00f8 FEFFFFEB 		bl	_ZN6tflite16SubscriptToIndexERKNS_11NdArrayDescILi4EEEiiii
 1204 00fc 00B0A0E1 		mov	fp, r0
 1205 0100 00708DE5 		str	r7, [sp]
 1206 0104 0630A0E1 		mov	r3, r6
 1207 0108 0520A0E1 		mov	r2, r5
 1208 010c 0410A0E1 		mov	r1, r4
 1209 0110 40008DE2 		add	r0, sp, #64
 1210 0114 FEFFFFEB 		bl	_ZN6tflite16SubscriptToIndexERKNS_11NdArrayDescILi4EEEiiii
 1211 0118 001199E7 		ldr	r1, [r9, r0, lsl #2]
 1212 011c 90309DE5 		ldr	r3, [sp, #144]
 1213 0120 0B0198E7 		ldr	r0, [r8, fp, lsl #2]
 1214 0124 33FF2FE1 		blx	r3
 1215              	.LEHE14:
 1216 0128 8C309DE5 		ldr	r3, [sp, #140]
 1217 012c 017087E2 		add	r7, r7, #1
 1218 0130 0A0183E7 		str	r0, [r3, r10, lsl #2]
 1219 0134 DEFFFFEA 		b	.L140
 1220              	.L139:
 1221 0138 016086E2 		add	r6, r6, #1
 1222 013c D6FFFFEA 		b	.L141
 1223              	.L138:
 1224 0140 015085E2 		add	r5, r5, #1
 1225 0144 CEFFFFEA 		b	.L142
 1226              	.L137:
 1227 0148 014084E2 		add	r4, r4, #1
 1228 014c C6FFFFEA 		b	.L143
 1229              	.L136:
 1230 0150 0C008DE2 		add	r0, sp, #12
 1231 0154 FEFFFFEB 		bl	_ZN6tflite12RuntimeShapeD1Ev
 1232 0158 64D08DE2 		add	sp, sp, #100
 1233              		@ sp needed
 1234 015c F08FBDE8 		pop	{r4, r5, r6, r7, r8, r9, r10, fp, pc}
 1235              	.L145:
 1236 0160 0C008DE2 		add	r0, sp, #12
 1237 0164 FEFFFFEB 		bl	_ZN6tflite12RuntimeShapeD1Ev
 1238              	.LEHB15:
 1239 0168 FEFFFFEB 		bl	__cxa_end_cleanup
 1240              	.LEHE15:
 1241              		.personality	__gxx_personality_v0
 1242              		.handlerdata
 1243              	.LLSDA6905:
 1244 0008 FF       		.byte	0xff
 1245 0009 FF       		.byte	0xff
 1246 000a 01       		.byte	0x1
 1247 000b 0F       		.uleb128 .LLSDACSE6905-.LLSDACSB6905
 1248              	.LLSDACSB6905:
 1249 000c 20       		.uleb128 .LEHB13-.LFB6905
 1250 000d 34       		.uleb128 .LEHE13-.LEHB13
 1251 000e 00       		.uleb128 0
 1252 000f 00       		.uleb128 0
 1253 0010 64       		.uleb128 .LEHB14-.LFB6905
 1254 0011 C401     		.uleb128 .LEHE14-.LEHB14
 1255 0013 E002     		.uleb128 .L145-.LFB6905
 1256 0015 00       		.uleb128 0
 1257 0016 E802     		.uleb128 .LEHB15-.LFB6905
 1258 0018 04       		.uleb128 .LEHE15-.LEHB15
 1259 0019 00       		.uleb128 0
 1260 001a 00       		.uleb128 0
 1261              	.LLSDACSE6905:
 1262              		.section	.text._ZN6tflite13reference_ops29MaximumMinimumBroadcast4DSlowIlPFlllEEEvRKNS_12RuntimeSh
 1263              		.fnend
 1265              		.section	.text._ZN6tflite13reference_ops29MaximumMinimumBroadcast4DSlowIxPFxxxEEEvRKNS_12RuntimeSh
 1266              		.align	2
 1267              		.weak	_ZN6tflite13reference_ops29MaximumMinimumBroadcast4DSlowIxPFxxxEEEvRKNS_12RuntimeShapeEPKT_S
 1268              		.syntax unified
 1269              		.arm
 1270              		.fpu neon
 1272              	_ZN6tflite13reference_ops29MaximumMinimumBroadcast4DSlowIxPFxxxEEEvRKNS_12RuntimeShapeEPKT_S6_S9_S6
 1273              		.fnstart
 1274              	.LFB6909:
 1275              		@ args = 12, pretend = 0, frame = 88
 1276              		@ frame_needed = 0, uses_anonymous_args = 0
 1277 0000 F04F2DE9 		push	{r4, r5, r6, r7, r8, r9, r10, fp, lr}
 1278              		.save {r4, r5, r6, r7, r8, r9, r10, fp, lr}
 1279 0004 03B0A0E1 		mov	fp, r3
 1280 0008 003090E5 		ldr	r3, [r0]
 1281              		.pad #100
 1282 000c 64D04DE2 		sub	sp, sp, #100
 1283 0010 0250A0E1 		mov	r5, r2
 1284 0014 88209DE5 		ldr	r2, [sp, #136]
 1285 0018 040053E3 		cmp	r3, #4
 1286 001c 000000DA 		ble	.L149
 1287              	.L150:
 1288              	.LEHB16:
 1289 0020 FEFFFFEB 		bl	abort
 1290              	.L149:
 1291 0024 003095E5 		ldr	r3, [r5]
 1292 0028 040053E3 		cmp	r3, #4
 1293 002c FBFFFFCA 		bgt	.L150
 1294 0030 003092E5 		ldr	r3, [r2]
 1295 0034 040053E3 		cmp	r3, #4
 1296 0038 F8FFFFCA 		bgt	.L150
 1297 003c 0040A0E1 		mov	r4, r0
 1298 0040 0130A0E3 		mov	r3, #1
 1299 0044 01A0A0E1 		mov	r10, r1
 1300 0048 0C008DE2 		add	r0, sp, #12
 1301 004c 0410A0E3 		mov	r1, #4
 1302 0050 FEFFFFEB 		bl	_ZN6tflite12RuntimeShapeC1EiRKS0_i
 1303              	.LEHE16:
 1304 0054 40308DE2 		add	r3, sp, #64
 1305 0058 20208DE2 		add	r2, sp, #32
 1306 005c 0510A0E1 		mov	r1, r5
 1307 0060 0400A0E1 		mov	r0, r4
 1308              	.LEHB17:
 1309 0064 FEFFFFEB 		bl	_ZN6tflite35NdArrayDescsForElementwiseBroadcastILi4EEEvRKNS_12RuntimeShapeES3_PNS_11NdArrayDesc
 1310 0068 0040A0E3 		mov	r4, #0
 1311              	.L158:
 1312 006c 0010A0E3 		mov	r1, #0
 1313 0070 0C008DE2 		add	r0, sp, #12
 1314 0074 FEFFFFEB 		bl	_ZNK6tflite12RuntimeShape4DimsEi
 1315 0078 000054E1 		cmp	r4, r0
 1316 007c 360000AA 		bge	.L151
 1317 0080 0050A0E3 		mov	r5, #0
 1318              	.L157:
 1319 0084 0110A0E3 		mov	r1, #1
 1320 0088 0C008DE2 		add	r0, sp, #12
 1321 008c FEFFFFEB 		bl	_ZNK6tflite12RuntimeShape4DimsEi
 1322 0090 000055E1 		cmp	r5, r0
 1323 0094 2E0000AA 		bge	.L152
 1324 0098 0060A0E3 		mov	r6, #0
 1325              	.L156:
 1326 009c 0210A0E3 		mov	r1, #2
 1327 00a0 0C008DE2 		add	r0, sp, #12
 1328 00a4 FEFFFFEB 		bl	_ZNK6tflite12RuntimeShape4DimsEi
 1329 00a8 000056E1 		cmp	r6, r0
 1330 00ac 260000AA 		bge	.L153
 1331 00b0 0070A0E3 		mov	r7, #0
 1332              	.L155:
 1333 00b4 0310A0E3 		mov	r1, #3
 1334 00b8 0C008DE2 		add	r0, sp, #12
 1335 00bc FEFFFFEB 		bl	_ZNK6tflite12RuntimeShape4DimsEi
 1336 00c0 000057E1 		cmp	r7, r0
 1337 00c4 1E0000AA 		bge	.L154
 1338 00c8 00708DE5 		str	r7, [sp]
 1339 00cc 0630A0E1 		mov	r3, r6
 1340 00d0 0520A0E1 		mov	r2, r5
 1341 00d4 0410A0E1 		mov	r1, r4
 1342 00d8 0C008DE2 		add	r0, sp, #12
 1343 00dc FEFFFFEB 		bl	_ZN6tflite6OffsetERKNS_12RuntimeShapeEiiii
 1344 00e0 0080A0E1 		mov	r8, r0
 1345 00e4 00708DE5 		str	r7, [sp]
 1346 00e8 0630A0E1 		mov	r3, r6
 1347 00ec 0520A0E1 		mov	r2, r5
 1348 00f0 0410A0E1 		mov	r1, r4
 1349 00f4 20008DE2 		add	r0, sp, #32
 1350 00f8 FEFFFFEB 		bl	_ZN6tflite16SubscriptToIndexERKNS_11NdArrayDescILi4EEEiiii
 1351 00fc 0090A0E1 		mov	r9, r0
 1352 0100 00708DE5 		str	r7, [sp]
 1353 0104 0630A0E1 		mov	r3, r6
 1354 0108 0520A0E1 		mov	r2, r5
 1355 010c 0410A0E1 		mov	r1, r4
 1356 0110 40008DE2 		add	r0, sp, #64
 1357 0114 FEFFFFEB 		bl	_ZN6tflite16SubscriptToIndexERKNS_11NdArrayDescILi4EEEiiii
 1358 0118 8C309DE5 		ldr	r3, [sp, #140]
 1359 011c 80018BE0 		add	r0, fp, r0, lsl #3
 1360 0120 89918AE0 		add	r9, r10, r9, lsl #3
 1361 0124 90C09DE5 		ldr	ip, [sp, #144]
 1362 0128 888183E0 		add	r8, r3, r8, lsl #3
 1363 012c D020C0E1 		ldrd	r2, [r0]
 1364 0130 D000C9E1 		ldrd	r0, [r9]
 1365 0134 3CFF2FE1 		blx	ip
 1366              	.LEHE17:
 1367 0138 F000C8E1 		strd	r0, [r8]
 1368 013c 017087E2 		add	r7, r7, #1
 1369 0140 DBFFFFEA 		b	.L155
 1370              	.L154:
 1371 0144 016086E2 		add	r6, r6, #1
 1372 0148 D3FFFFEA 		b	.L156
 1373              	.L153:
 1374 014c 015085E2 		add	r5, r5, #1
 1375 0150 CBFFFFEA 		b	.L157
 1376              	.L152:
 1377 0154 014084E2 		add	r4, r4, #1
 1378 0158 C3FFFFEA 		b	.L158
 1379              	.L151:
 1380 015c 0C008DE2 		add	r0, sp, #12
 1381 0160 FEFFFFEB 		bl	_ZN6tflite12RuntimeShapeD1Ev
 1382 0164 64D08DE2 		add	sp, sp, #100
 1383              		@ sp needed
 1384 0168 F08FBDE8 		pop	{r4, r5, r6, r7, r8, r9, r10, fp, pc}
 1385              	.L160:
 1386 016c 0C008DE2 		add	r0, sp, #12
 1387 0170 FEFFFFEB 		bl	_ZN6tflite12RuntimeShapeD1Ev
 1388              	.LEHB18:
 1389 0174 FEFFFFEB 		bl	__cxa_end_cleanup
 1390              	.LEHE18:
 1391              		.personality	__gxx_personality_v0
 1392              		.handlerdata
 1393              	.LLSDA6909:
 1394 0008 FF       		.byte	0xff
 1395 0009 FF       		.byte	0xff
 1396 000a 01       		.byte	0x1
 1397 000b 0F       		.uleb128 .LLSDACSE6909-.LLSDACSB6909
 1398              	.LLSDACSB6909:
 1399 000c 20       		.uleb128 .LEHB16-.LFB6909
 1400 000d 34       		.uleb128 .LEHE16-.LEHB16
 1401 000e 00       		.uleb128 0
 1402 000f 00       		.uleb128 0
 1403 0010 64       		.uleb128 .LEHB17-.LFB6909
 1404 0011 D401     		.uleb128 .LEHE17-.LEHB17
 1405 0013 EC02     		.uleb128 .L160-.LFB6909
 1406 0015 00       		.uleb128 0
 1407 0016 F402     		.uleb128 .LEHB18-.LFB6909
 1408 0018 04       		.uleb128 .LEHE18-.LEHB18
 1409 0019 00       		.uleb128 0
 1410 001a 00       		.uleb128 0
 1411              	.LLSDACSE6909:
 1412              		.section	.text._ZN6tflite13reference_ops29MaximumMinimumBroadcast4DSlowIxPFxxxEEEvRKNS_12RuntimeSh
 1413              		.fnend
 1415              		.section	.text._ZN6tflite3ops5micro15maximum_minimum4EvalILNS2_12_GLOBAL__N_110KernelTypeE0ENS4_9M
 1416              		.align	2
 1417              		.syntax unified
 1418              		.arm
 1419              		.fpu neon
 1421              	_ZN6tflite3ops5micro15maximum_minimum4EvalILNS2_12_GLOBAL__N_110KernelTypeE0ENS4_9MaximumOpEEE12TfL
 1422              		.fnstart
 1423              	.LFB6563:
 1424              		@ args = 0, pretend = 0, frame = 64
 1425              		@ frame_needed = 0, uses_anonymous_args = 0
 1426 0000 003091E5 		ldr	r3, [r1]
 1427 0004 F0432DE9 		push	{r4, r5, r6, r7, r8, r9, lr}
 1428              		.save {r4, r5, r6, r7, r8, r9, lr}
 1429 0008 0090A0E1 		mov	r9, r0
 1430 000c 087090E5 		ldr	r7, [r0, #8]
 1431              		.pad #84
 1432 0010 54D04DE2 		sub	sp, sp, #84
 1433 0014 044093E5 		ldr	r4, [r3, #4]
 1434 0018 085093E5 		ldr	r5, [r3, #8]
 1435 001c 043091E5 		ldr	r3, [r1, #4]
 1436 0020 044387E0 		add	r4, r7, r4, lsl #6
 1437 0024 048093E5 		ldr	r8, [r3, #4]
 1438 0028 055387E0 		add	r5, r7, r5, lsl #6
 1439 002c 0803D7E7 		ldrb	r0, [r7, r8, lsl #6]	@ zero_extendqisi2
 1440 0030 086387E0 		add	r6, r7, r8, lsl #6
 1441 0034 013040E2 		sub	r3, r0, #1
 1442 0038 080053E3 		cmp	r3, #8
 1443 003c 03F19F97 		ldrls	pc, [pc, r3, asl #2]
 1444 0040 A20000EA 		b	.L164
 1445              	.L166:
 1446 0044 68000000 		.word	.L165
 1447 0048 D0010000 		.word	.L167
 1448 004c F0000000 		.word	.L168
 1449 0050 40020000 		.word	.L169
 1450 0054 D0020000 		.word	.L164
 1451 0058 D0020000 		.word	.L164
 1452 005c D0020000 		.word	.L164
 1453 0060 D0020000 		.word	.L164
 1454 0064 60010000 		.word	.L170
 1455              	.L165:
 1456 0068 0410A0E1 		mov	r1, r4
 1457 006c 14008DE2 		add	r0, sp, #20
 1458              	.LEHB19:
 1459 0070 FEFFFFEB 		bl	_ZN6tflite14GetTensorShapeEPK12TfLiteTensor
 1460              	.LEHE19:
 1461 0074 000054E3 		cmp	r4, #0
 1462 0078 0510A0E1 		mov	r1, r5
 1463 007c 28008DE2 		add	r0, sp, #40
 1464 0080 04409415 		ldrne	r4, [r4, #4]
 1465              	.LEHB20:
 1466 0084 FEFFFFEB 		bl	_ZN6tflite14GetTensorShapeEPK12TfLiteTensor
 1467              	.LEHE20:
 1468 0088 3C708DE2 		add	r7, sp, #60
 1469 008c 000055E3 		cmp	r5, #0
 1470 0090 0610A0E1 		mov	r1, r6
 1471 0094 0700A0E1 		mov	r0, r7
 1472 0098 04509515 		ldrne	r5, [r5, #4]
 1473              	.LEHB21:
 1474 009c FEFFFFEB 		bl	_ZN6tflite14GetTensorShapeEPK12TfLiteTensor
 1475              	.LEHE21:
 1476 00a0 4C329FE5 		ldr	r3, .L225
 1477 00a4 28208DE2 		add	r2, sp, #40
 1478 00a8 0410A0E1 		mov	r1, r4
 1479 00ac 14008DE2 		add	r0, sp, #20
 1480 00b0 08308DE5 		str	r3, [sp, #8]
 1481 00b4 043096E5 		ldr	r3, [r6, #4]
 1482 00b8 00708DE5 		str	r7, [sp]
 1483 00bc 04308DE5 		str	r3, [sp, #4]
 1484 00c0 0530A0E1 		mov	r3, r5
 1485              	.LEHB22:
 1486 00c4 FEFFFFEB 		bl	_ZN6tflite13reference_ops29MaximumMinimumBroadcast4DSlowIfPFfffEEEvRKNS_12RuntimeShapeEPKT_S6_S
 1487              	.LEHE22:
 1488 00c8 740000EA 		b	.L223
 1489              	.L209:
 1490              	.L224:
 1491 00cc 0700A0E1 		mov	r0, r7
 1492 00d0 FEFFFFEB 		bl	_ZN6tflite12RuntimeShapeD1Ev
 1493 00d4 FFFFFFEA 		b	.L195
 1494              	.L208:
 1495              	.L195:
 1496 00d8 28008DE2 		add	r0, sp, #40
 1497 00dc FEFFFFEB 		bl	_ZN6tflite12RuntimeShapeD1Ev
 1498 00e0 FFFFFFEA 		b	.L196
 1499              	.L207:
 1500              	.L196:
 1501 00e4 14008DE2 		add	r0, sp, #20
 1502 00e8 FEFFFFEB 		bl	_ZN6tflite12RuntimeShapeD1Ev
 1503              	.LEHB23:
 1504 00ec FEFFFFEB 		bl	__cxa_end_cleanup
 1505              	.L168:
 1506 00f0 0410A0E1 		mov	r1, r4
 1507 00f4 14008DE2 		add	r0, sp, #20
 1508 00f8 FEFFFFEB 		bl	_ZN6tflite14GetTensorShapeEPK12TfLiteTensor
 1509              	.LEHE23:
 1510 00fc 000054E3 		cmp	r4, #0
 1511 0100 0510A0E1 		mov	r1, r5
 1512 0104 28008DE2 		add	r0, sp, #40
 1513 0108 04409415 		ldrne	r4, [r4, #4]
 1514              	.LEHB24:
 1515 010c FEFFFFEB 		bl	_ZN6tflite14GetTensorShapeEPK12TfLiteTensor
 1516              	.LEHE24:
 1517 0110 3C708DE2 		add	r7, sp, #60
 1518 0114 000055E3 		cmp	r5, #0
 1519 0118 0610A0E1 		mov	r1, r6
 1520 011c 0700A0E1 		mov	r0, r7
 1521 0120 04509515 		ldrne	r5, [r5, #4]
 1522              	.LEHB25:
 1523 0124 FEFFFFEB 		bl	_ZN6tflite14GetTensorShapeEPK12TfLiteTensor
 1524              	.LEHE25:
 1525 0128 C8319FE5 		ldr	r3, .L225+4
 1526 012c 28208DE2 		add	r2, sp, #40
 1527 0130 0410A0E1 		mov	r1, r4
 1528 0134 14008DE2 		add	r0, sp, #20
 1529 0138 08308DE5 		str	r3, [sp, #8]
 1530 013c 043096E5 		ldr	r3, [r6, #4]
 1531 0140 00708DE5 		str	r7, [sp]
 1532 0144 04308DE5 		str	r3, [sp, #4]
 1533 0148 0530A0E1 		mov	r3, r5
 1534              	.LEHB26:
 1535 014c FEFFFFEB 		bl	_ZN6tflite13reference_ops29MaximumMinimumBroadcast4DSlowIhPFhhhEEEvRKNS_12RuntimeShapeEPKT_S6_S
 1536              	.LEHE26:
 1537 0150 520000EA 		b	.L223
 1538              	.L212:
 1539 0154 DCFFFFEA 		b	.L224
 1540              	.L211:
 1541 0158 DEFFFFEA 		b	.L195
 1542              	.L210:
 1543 015c E0FFFFEA 		b	.L196
 1544              	.L170:
 1545 0160 0410A0E1 		mov	r1, r4
 1546 0164 14008DE2 		add	r0, sp, #20
 1547              	.LEHB27:
 1548 0168 FEFFFFEB 		bl	_ZN6tflite14GetTensorShapeEPK12TfLiteTensor
 1549              	.LEHE27:
 1550 016c 000054E3 		cmp	r4, #0
 1551 0170 0510A0E1 		mov	r1, r5
 1552 0174 28008DE2 		add	r0, sp, #40
 1553 0178 04409415 		ldrne	r4, [r4, #4]
 1554              	.LEHB28:
 1555 017c FEFFFFEB 		bl	_ZN6tflite14GetTensorShapeEPK12TfLiteTensor
 1556              	.LEHE28:
 1557 0180 3C708DE2 		add	r7, sp, #60
 1558 0184 000055E3 		cmp	r5, #0
 1559 0188 0610A0E1 		mov	r1, r6
 1560 018c 0700A0E1 		mov	r0, r7
 1561 0190 04509515 		ldrne	r5, [r5, #4]
 1562              	.LEHB29:
 1563 0194 FEFFFFEB 		bl	_ZN6tflite14GetTensorShapeEPK12TfLiteTensor
 1564              	.LEHE29:
 1565 0198 5C319FE5 		ldr	r3, .L225+8
 1566 019c 28208DE2 		add	r2, sp, #40
 1567 01a0 0410A0E1 		mov	r1, r4
 1568 01a4 14008DE2 		add	r0, sp, #20
 1569 01a8 08308DE5 		str	r3, [sp, #8]
 1570 01ac 043096E5 		ldr	r3, [r6, #4]
 1571 01b0 00708DE5 		str	r7, [sp]
 1572 01b4 04308DE5 		str	r3, [sp, #4]
 1573 01b8 0530A0E1 		mov	r3, r5
 1574              	.LEHB30:
 1575 01bc FEFFFFEB 		bl	_ZN6tflite13reference_ops29MaximumMinimumBroadcast4DSlowIaPFaaaEEEvRKNS_12RuntimeShapeEPKT_S6_S
 1576              	.LEHE30:
 1577 01c0 360000EA 		b	.L223
 1578              	.L215:
 1579 01c4 C0FFFFEA 		b	.L224
 1580              	.L214:
 1581 01c8 C2FFFFEA 		b	.L195
 1582              	.L213:
 1583 01cc C4FFFFEA 		b	.L196
 1584              	.L167:
 1585 01d0 0410A0E1 		mov	r1, r4
 1586 01d4 14008DE2 		add	r0, sp, #20
 1587              	.LEHB31:
 1588 01d8 FEFFFFEB 		bl	_ZN6tflite14GetTensorShapeEPK12TfLiteTensor
 1589              	.LEHE31:
 1590 01dc 000054E3 		cmp	r4, #0
 1591 01e0 0510A0E1 		mov	r1, r5
 1592 01e4 28008DE2 		add	r0, sp, #40
 1593 01e8 04409415 		ldrne	r4, [r4, #4]
 1594              	.LEHB32:
 1595 01ec FEFFFFEB 		bl	_ZN6tflite14GetTensorShapeEPK12TfLiteTensor
 1596              	.LEHE32:
 1597 01f0 3C708DE2 		add	r7, sp, #60
 1598 01f4 000055E3 		cmp	r5, #0
 1599 01f8 0610A0E1 		mov	r1, r6
 1600 01fc 0700A0E1 		mov	r0, r7
 1601 0200 04509515 		ldrne	r5, [r5, #4]
 1602              	.LEHB33:
 1603 0204 FEFFFFEB 		bl	_ZN6tflite14GetTensorShapeEPK12TfLiteTensor
 1604              	.LEHE33:
 1605 0208 F0309FE5 		ldr	r3, .L225+12
 1606 020c 28208DE2 		add	r2, sp, #40
 1607 0210 0410A0E1 		mov	r1, r4
 1608 0214 14008DE2 		add	r0, sp, #20
 1609 0218 08308DE5 		str	r3, [sp, #8]
 1610 021c 043096E5 		ldr	r3, [r6, #4]
 1611 0220 00708DE5 		str	r7, [sp]
 1612 0224 04308DE5 		str	r3, [sp, #4]
 1613 0228 0530A0E1 		mov	r3, r5
 1614              	.LEHB34:
 1615 022c FEFFFFEB 		bl	_ZN6tflite13reference_ops29MaximumMinimumBroadcast4DSlowIlPFlllEEEvRKNS_12RuntimeShapeEPKT_S6_S
 1616              	.LEHE34:
 1617 0230 1A0000EA 		b	.L223
 1618              	.L218:
 1619 0234 A4FFFFEA 		b	.L224
 1620              	.L217:
 1621 0238 A6FFFFEA 		b	.L195
 1622              	.L216:
 1623 023c A8FFFFEA 		b	.L196
 1624              	.L169:
 1625 0240 0410A0E1 		mov	r1, r4
 1626 0244 14008DE2 		add	r0, sp, #20
 1627              	.LEHB35:
 1628 0248 FEFFFFEB 		bl	_ZN6tflite14GetTensorShapeEPK12TfLiteTensor
 1629              	.LEHE35:
 1630 024c 000054E3 		cmp	r4, #0
 1631 0250 0510A0E1 		mov	r1, r5
 1632 0254 28008DE2 		add	r0, sp, #40
 1633 0258 04409415 		ldrne	r4, [r4, #4]
 1634              	.LEHB36:
 1635 025c FEFFFFEB 		bl	_ZN6tflite14GetTensorShapeEPK12TfLiteTensor
 1636              	.LEHE36:
 1637 0260 3C708DE2 		add	r7, sp, #60
 1638 0264 000055E3 		cmp	r5, #0
 1639 0268 0610A0E1 		mov	r1, r6
 1640 026c 0700A0E1 		mov	r0, r7
 1641 0270 04509515 		ldrne	r5, [r5, #4]
 1642              	.LEHB37:
 1643 0274 FEFFFFEB 		bl	_ZN6tflite14GetTensorShapeEPK12TfLiteTensor
 1644              	.LEHE37:
 1645 0278 84309FE5 		ldr	r3, .L225+16
 1646 027c 28208DE2 		add	r2, sp, #40
 1647 0280 0410A0E1 		mov	r1, r4
 1648 0284 14008DE2 		add	r0, sp, #20
 1649 0288 08308DE5 		str	r3, [sp, #8]
 1650 028c 043096E5 		ldr	r3, [r6, #4]
 1651 0290 00708DE5 		str	r7, [sp]
 1652 0294 04308DE5 		str	r3, [sp, #4]
 1653 0298 0530A0E1 		mov	r3, r5
 1654              	.LEHB38:
 1655 029c FEFFFFEB 		bl	_ZN6tflite13reference_ops29MaximumMinimumBroadcast4DSlowIxPFxxxEEEvRKNS_12RuntimeShapeEPKT_S6_S
 1656              	.LEHE38:
 1657              	.L223:
 1658 02a0 0700A0E1 		mov	r0, r7
 1659 02a4 FEFFFFEB 		bl	_ZN6tflite12RuntimeShapeD1Ev
 1660 02a8 28008DE2 		add	r0, sp, #40
 1661 02ac FEFFFFEB 		bl	_ZN6tflite12RuntimeShapeD1Ev
 1662 02b0 14008DE2 		add	r0, sp, #20
 1663 02b4 FEFFFFEB 		bl	_ZN6tflite12RuntimeShapeD1Ev
 1664 02b8 0000A0E3 		mov	r0, #0
 1665              	.L173:
 1666 02bc 54D08DE2 		add	sp, sp, #84
 1667              		@ sp needed
 1668 02c0 F083BDE8 		pop	{r4, r5, r6, r7, r8, r9, pc}
 1669              	.L221:
 1670 02c4 80FFFFEA 		b	.L224
 1671              	.L220:
 1672 02c8 82FFFFEA 		b	.L195
 1673              	.L219:
 1674 02cc 84FFFFEA 		b	.L196
 1675              	.L164:
 1676 02d0 144099E5 		ldr	r4, [r9, #20]
 1677              	.LEHB39:
 1678 02d4 FEFFFFEB 		bl	TfLiteTypeGetName
 1679 02d8 0833D7E7 		ldrb	r3, [r7, r8, lsl #6]	@ zero_extendqisi2
 1680 02dc 0020A0E1 		mov	r2, r0
 1681 02e0 20109FE5 		ldr	r1, .L225+20
 1682 02e4 0900A0E1 		mov	r0, r9
 1683 02e8 34FF2FE1 		blx	r4
 1684              	.LEHE39:
 1685 02ec 0100A0E3 		mov	r0, #1
 1686 02f0 F1FFFFEA 		b	.L173
 1687              	.L226:
 1688              		.align	2
 1689              	.L225:
 1690 02f4 00000000 		.word	_ZN6tflite3ops5micro15maximum_minimum12_GLOBAL__N_19MaximumOp2opIfEET_S6_S6_
 1691 02f8 00000000 		.word	_ZN6tflite3ops5micro15maximum_minimum12_GLOBAL__N_19MaximumOp2opIhEET_S6_S6_
 1692 02fc 00000000 		.word	_ZN6tflite3ops5micro15maximum_minimum12_GLOBAL__N_19MaximumOp2opIaEET_S6_S6_
 1693 0300 00000000 		.word	_ZN6tflite3ops5micro15maximum_minimum12_GLOBAL__N_19MaximumOp2opIlEET_S6_S6_
 1694 0304 00000000 		.word	_ZN6tflite3ops5micro15maximum_minimum12_GLOBAL__N_19MaximumOp2opIxEET_S6_S6_
 1695 0308 00000000 		.word	.LC0
 1696              		.personality	__gxx_personality_v0
 1697              		.handlerdata
 1698              	.LLSDA6563:
 1699 0008 FF       		.byte	0xff
 1700 0009 FF       		.byte	0xff
 1701 000a 01       		.byte	0x1
 1702 000b 77       		.uleb128 .LLSDACSE6563-.LLSDACSB6563
 1703              	.LLSDACSB6563:
 1704 000c 70       		.uleb128 .LEHB19-.LFB6563
 1705 000d 04       		.uleb128 .LEHE19-.LEHB19
 1706 000e 00       		.uleb128 0
 1707 000f 00       		.uleb128 0
 1708 0010 8401     		.uleb128 .LEHB20-.LFB6563
 1709 0012 04       		.uleb128 .LEHE20-.LEHB20
 1710 0013 E401     		.uleb128 .L207-.LFB6563
 1711 0015 00       		.uleb128 0
 1712 0016 9C01     		.uleb128 .LEHB21-.LFB6563
 1713 0018 04       		.uleb128 .LEHE21-.LEHB21
 1714 0019 D801     		.uleb128 .L208-.LFB6563
 1715 001b 00       		.uleb128 0
 1716 001c C401     		.uleb128 .LEHB22-.LFB6563
 1717 001e 04       		.uleb128 .LEHE22-.LEHB22
 1718 001f CC01     		.uleb128 .L209-.LFB6563
 1719 0021 00       		.uleb128 0
 1720 0022 EC01     		.uleb128 .LEHB23-.LFB6563
 1721 0024 10       		.uleb128 .LEHE23-.LEHB23
 1722 0025 00       		.uleb128 0
 1723 0026 00       		.uleb128 0
 1724 0027 8C02     		.uleb128 .LEHB24-.LFB6563
 1725 0029 04       		.uleb128 .LEHE24-.LEHB24
 1726 002a DC02     		.uleb128 .L210-.LFB6563
 1727 002c 00       		.uleb128 0
 1728 002d A402     		.uleb128 .LEHB25-.LFB6563
 1729 002f 04       		.uleb128 .LEHE25-.LEHB25
 1730 0030 D802     		.uleb128 .L211-.LFB6563
 1731 0032 00       		.uleb128 0
 1732 0033 CC02     		.uleb128 .LEHB26-.LFB6563
 1733 0035 04       		.uleb128 .LEHE26-.LEHB26
 1734 0036 D402     		.uleb128 .L212-.LFB6563
 1735 0038 00       		.uleb128 0
 1736 0039 E802     		.uleb128 .LEHB27-.LFB6563
 1737 003b 04       		.uleb128 .LEHE27-.LEHB27
 1738 003c 00       		.uleb128 0
 1739 003d 00       		.uleb128 0
 1740 003e FC02     		.uleb128 .LEHB28-.LFB6563
 1741 0040 04       		.uleb128 .LEHE28-.LEHB28
 1742 0041 CC03     		.uleb128 .L213-.LFB6563
 1743 0043 00       		.uleb128 0
 1744 0044 9403     		.uleb128 .LEHB29-.LFB6563
 1745 0046 04       		.uleb128 .LEHE29-.LEHB29
 1746 0047 C803     		.uleb128 .L214-.LFB6563
 1747 0049 00       		.uleb128 0
 1748 004a BC03     		.uleb128 .LEHB30-.LFB6563
 1749 004c 04       		.uleb128 .LEHE30-.LEHB30
 1750 004d C403     		.uleb128 .L215-.LFB6563
 1751 004f 00       		.uleb128 0
 1752 0050 D803     		.uleb128 .LEHB31-.LFB6563
 1753 0052 04       		.uleb128 .LEHE31-.LEHB31
 1754 0053 00       		.uleb128 0
 1755 0054 00       		.uleb128 0
 1756 0055 EC03     		.uleb128 .LEHB32-.LFB6563
 1757 0057 04       		.uleb128 .LEHE32-.LEHB32
 1758 0058 BC04     		.uleb128 .L216-.LFB6563
 1759 005a 00       		.uleb128 0
 1760 005b 8404     		.uleb128 .LEHB33-.LFB6563
 1761 005d 04       		.uleb128 .LEHE33-.LEHB33
 1762 005e B804     		.uleb128 .L217-.LFB6563
 1763 0060 00       		.uleb128 0
 1764 0061 AC04     		.uleb128 .LEHB34-.LFB6563
 1765 0063 04       		.uleb128 .LEHE34-.LEHB34
 1766 0064 B404     		.uleb128 .L218-.LFB6563
 1767 0066 00       		.uleb128 0
 1768 0067 C804     		.uleb128 .LEHB35-.LFB6563
 1769 0069 04       		.uleb128 .LEHE35-.LEHB35
 1770 006a 00       		.uleb128 0
 1771 006b 00       		.uleb128 0
 1772 006c DC04     		.uleb128 .LEHB36-.LFB6563
 1773 006e 04       		.uleb128 .LEHE36-.LEHB36
 1774 006f CC05     		.uleb128 .L219-.LFB6563
 1775 0071 00       		.uleb128 0
 1776 0072 F404     		.uleb128 .LEHB37-.LFB6563
 1777 0074 04       		.uleb128 .LEHE37-.LEHB37
 1778 0075 C805     		.uleb128 .L220-.LFB6563
 1779 0077 00       		.uleb128 0
 1780 0078 9C05     		.uleb128 .LEHB38-.LFB6563
 1781 007a 04       		.uleb128 .LEHE38-.LEHB38
 1782 007b C405     		.uleb128 .L221-.LFB6563
 1783 007d 00       		.uleb128 0
 1784 007e D405     		.uleb128 .LEHB39-.LFB6563
 1785 0080 18       		.uleb128 .LEHE39-.LEHB39
 1786 0081 00       		.uleb128 0
 1787 0082 00       		.uleb128 0
 1788              	.LLSDACSE6563:
 1789              		.section	.text._ZN6tflite3ops5micro15maximum_minimum4EvalILNS2_12_GLOBAL__N_110KernelTypeE0ENS4_9M
 1790              		.fnend
 1792              		.section	.text._ZN6tflite3ops5micro15maximum_minimum4EvalILNS2_12_GLOBAL__N_110KernelTypeE0ENS4_9M
 1793              		.align	2
 1794              		.syntax unified
 1795              		.arm
 1796              		.fpu neon
 1798              	_ZN6tflite3ops5micro15maximum_minimum4EvalILNS2_12_GLOBAL__N_110KernelTypeE0ENS4_9MinimumOpEEE12TfL
 1799              		.fnstart
 1800              	.LFB6564:
 1801              		@ args = 0, pretend = 0, frame = 64
 1802              		@ frame_needed = 0, uses_anonymous_args = 0
 1803 0000 003091E5 		ldr	r3, [r1]
 1804 0004 F0432DE9 		push	{r4, r5, r6, r7, r8, r9, lr}
 1805              		.save {r4, r5, r6, r7, r8, r9, lr}
 1806 0008 0090A0E1 		mov	r9, r0
 1807 000c 087090E5 		ldr	r7, [r0, #8]
 1808              		.pad #84
 1809 0010 54D04DE2 		sub	sp, sp, #84
 1810 0014 044093E5 		ldr	r4, [r3, #4]
 1811 0018 085093E5 		ldr	r5, [r3, #8]
 1812 001c 043091E5 		ldr	r3, [r1, #4]
 1813 0020 044387E0 		add	r4, r7, r4, lsl #6
 1814 0024 048093E5 		ldr	r8, [r3, #4]
 1815 0028 055387E0 		add	r5, r7, r5, lsl #6
 1816 002c 0803D7E7 		ldrb	r0, [r7, r8, lsl #6]	@ zero_extendqisi2
 1817 0030 086387E0 		add	r6, r7, r8, lsl #6
 1818 0034 013040E2 		sub	r3, r0, #1
 1819 0038 080053E3 		cmp	r3, #8
 1820 003c 03F19F97 		ldrls	pc, [pc, r3, asl #2]
 1821 0040 A20000EA 		b	.L228
 1822              	.L230:
 1823 0044 68000000 		.word	.L229
 1824 0048 D0010000 		.word	.L231
 1825 004c F0000000 		.word	.L232
 1826 0050 40020000 		.word	.L233
 1827 0054 D0020000 		.word	.L228
 1828 0058 D0020000 		.word	.L228
 1829 005c D0020000 		.word	.L228
 1830 0060 D0020000 		.word	.L228
 1831 0064 60010000 		.word	.L234
 1832              	.L229:
 1833 0068 0410A0E1 		mov	r1, r4
 1834 006c 14008DE2 		add	r0, sp, #20
 1835              	.LEHB40:
 1836 0070 FEFFFFEB 		bl	_ZN6tflite14GetTensorShapeEPK12TfLiteTensor
 1837              	.LEHE40:
 1838 0074 000054E3 		cmp	r4, #0
 1839 0078 0510A0E1 		mov	r1, r5
 1840 007c 28008DE2 		add	r0, sp, #40
 1841 0080 04409415 		ldrne	r4, [r4, #4]
 1842              	.LEHB41:
 1843 0084 FEFFFFEB 		bl	_ZN6tflite14GetTensorShapeEPK12TfLiteTensor
 1844              	.LEHE41:
 1845 0088 3C708DE2 		add	r7, sp, #60
 1846 008c 000055E3 		cmp	r5, #0
 1847 0090 0610A0E1 		mov	r1, r6
 1848 0094 0700A0E1 		mov	r0, r7
 1849 0098 04509515 		ldrne	r5, [r5, #4]
 1850              	.LEHB42:
 1851 009c FEFFFFEB 		bl	_ZN6tflite14GetTensorShapeEPK12TfLiteTensor
 1852              	.LEHE42:
 1853 00a0 4C329FE5 		ldr	r3, .L289
 1854 00a4 28208DE2 		add	r2, sp, #40
 1855 00a8 0410A0E1 		mov	r1, r4
 1856 00ac 14008DE2 		add	r0, sp, #20
 1857 00b0 08308DE5 		str	r3, [sp, #8]
 1858 00b4 043096E5 		ldr	r3, [r6, #4]
 1859 00b8 00708DE5 		str	r7, [sp]
 1860 00bc 04308DE5 		str	r3, [sp, #4]
 1861 00c0 0530A0E1 		mov	r3, r5
 1862              	.LEHB43:
 1863 00c4 FEFFFFEB 		bl	_ZN6tflite13reference_ops29MaximumMinimumBroadcast4DSlowIfPFfffEEEvRKNS_12RuntimeShapeEPKT_S6_S
 1864              	.LEHE43:
 1865 00c8 740000EA 		b	.L287
 1866              	.L273:
 1867              	.L288:
 1868 00cc 0700A0E1 		mov	r0, r7
 1869 00d0 FEFFFFEB 		bl	_ZN6tflite12RuntimeShapeD1Ev
 1870 00d4 FFFFFFEA 		b	.L259
 1871              	.L272:
 1872              	.L259:
 1873 00d8 28008DE2 		add	r0, sp, #40
 1874 00dc FEFFFFEB 		bl	_ZN6tflite12RuntimeShapeD1Ev
 1875 00e0 FFFFFFEA 		b	.L260
 1876              	.L271:
 1877              	.L260:
 1878 00e4 14008DE2 		add	r0, sp, #20
 1879 00e8 FEFFFFEB 		bl	_ZN6tflite12RuntimeShapeD1Ev
 1880              	.LEHB44:
 1881 00ec FEFFFFEB 		bl	__cxa_end_cleanup
 1882              	.L232:
 1883 00f0 0410A0E1 		mov	r1, r4
 1884 00f4 14008DE2 		add	r0, sp, #20
 1885 00f8 FEFFFFEB 		bl	_ZN6tflite14GetTensorShapeEPK12TfLiteTensor
 1886              	.LEHE44:
 1887 00fc 000054E3 		cmp	r4, #0
 1888 0100 0510A0E1 		mov	r1, r5
 1889 0104 28008DE2 		add	r0, sp, #40
 1890 0108 04409415 		ldrne	r4, [r4, #4]
 1891              	.LEHB45:
 1892 010c FEFFFFEB 		bl	_ZN6tflite14GetTensorShapeEPK12TfLiteTensor
 1893              	.LEHE45:
 1894 0110 3C708DE2 		add	r7, sp, #60
 1895 0114 000055E3 		cmp	r5, #0
 1896 0118 0610A0E1 		mov	r1, r6
 1897 011c 0700A0E1 		mov	r0, r7
 1898 0120 04509515 		ldrne	r5, [r5, #4]
 1899              	.LEHB46:
 1900 0124 FEFFFFEB 		bl	_ZN6tflite14GetTensorShapeEPK12TfLiteTensor
 1901              	.LEHE46:
 1902 0128 C8319FE5 		ldr	r3, .L289+4
 1903 012c 28208DE2 		add	r2, sp, #40
 1904 0130 0410A0E1 		mov	r1, r4
 1905 0134 14008DE2 		add	r0, sp, #20
 1906 0138 08308DE5 		str	r3, [sp, #8]
 1907 013c 043096E5 		ldr	r3, [r6, #4]
 1908 0140 00708DE5 		str	r7, [sp]
 1909 0144 04308DE5 		str	r3, [sp, #4]
 1910 0148 0530A0E1 		mov	r3, r5
 1911              	.LEHB47:
 1912 014c FEFFFFEB 		bl	_ZN6tflite13reference_ops29MaximumMinimumBroadcast4DSlowIhPFhhhEEEvRKNS_12RuntimeShapeEPKT_S6_S
 1913              	.LEHE47:
 1914 0150 520000EA 		b	.L287
 1915              	.L276:
 1916 0154 DCFFFFEA 		b	.L288
 1917              	.L275:
 1918 0158 DEFFFFEA 		b	.L259
 1919              	.L274:
 1920 015c E0FFFFEA 		b	.L260
 1921              	.L234:
 1922 0160 0410A0E1 		mov	r1, r4
 1923 0164 14008DE2 		add	r0, sp, #20
 1924              	.LEHB48:
 1925 0168 FEFFFFEB 		bl	_ZN6tflite14GetTensorShapeEPK12TfLiteTensor
 1926              	.LEHE48:
 1927 016c 000054E3 		cmp	r4, #0
 1928 0170 0510A0E1 		mov	r1, r5
 1929 0174 28008DE2 		add	r0, sp, #40
 1930 0178 04409415 		ldrne	r4, [r4, #4]
 1931              	.LEHB49:
 1932 017c FEFFFFEB 		bl	_ZN6tflite14GetTensorShapeEPK12TfLiteTensor
 1933              	.LEHE49:
 1934 0180 3C708DE2 		add	r7, sp, #60
 1935 0184 000055E3 		cmp	r5, #0
 1936 0188 0610A0E1 		mov	r1, r6
 1937 018c 0700A0E1 		mov	r0, r7
 1938 0190 04509515 		ldrne	r5, [r5, #4]
 1939              	.LEHB50:
 1940 0194 FEFFFFEB 		bl	_ZN6tflite14GetTensorShapeEPK12TfLiteTensor
 1941              	.LEHE50:
 1942 0198 5C319FE5 		ldr	r3, .L289+8
 1943 019c 28208DE2 		add	r2, sp, #40
 1944 01a0 0410A0E1 		mov	r1, r4
 1945 01a4 14008DE2 		add	r0, sp, #20
 1946 01a8 08308DE5 		str	r3, [sp, #8]
 1947 01ac 043096E5 		ldr	r3, [r6, #4]
 1948 01b0 00708DE5 		str	r7, [sp]
 1949 01b4 04308DE5 		str	r3, [sp, #4]
 1950 01b8 0530A0E1 		mov	r3, r5
 1951              	.LEHB51:
 1952 01bc FEFFFFEB 		bl	_ZN6tflite13reference_ops29MaximumMinimumBroadcast4DSlowIaPFaaaEEEvRKNS_12RuntimeShapeEPKT_S6_S
 1953              	.LEHE51:
 1954 01c0 360000EA 		b	.L287
 1955              	.L279:
 1956 01c4 C0FFFFEA 		b	.L288
 1957              	.L278:
 1958 01c8 C2FFFFEA 		b	.L259
 1959              	.L277:
 1960 01cc C4FFFFEA 		b	.L260
 1961              	.L231:
 1962 01d0 0410A0E1 		mov	r1, r4
 1963 01d4 14008DE2 		add	r0, sp, #20
 1964              	.LEHB52:
 1965 01d8 FEFFFFEB 		bl	_ZN6tflite14GetTensorShapeEPK12TfLiteTensor
 1966              	.LEHE52:
 1967 01dc 000054E3 		cmp	r4, #0
 1968 01e0 0510A0E1 		mov	r1, r5
 1969 01e4 28008DE2 		add	r0, sp, #40
 1970 01e8 04409415 		ldrne	r4, [r4, #4]
 1971              	.LEHB53:
 1972 01ec FEFFFFEB 		bl	_ZN6tflite14GetTensorShapeEPK12TfLiteTensor
 1973              	.LEHE53:
 1974 01f0 3C708DE2 		add	r7, sp, #60
 1975 01f4 000055E3 		cmp	r5, #0
 1976 01f8 0610A0E1 		mov	r1, r6
 1977 01fc 0700A0E1 		mov	r0, r7
 1978 0200 04509515 		ldrne	r5, [r5, #4]
 1979              	.LEHB54:
 1980 0204 FEFFFFEB 		bl	_ZN6tflite14GetTensorShapeEPK12TfLiteTensor
 1981              	.LEHE54:
 1982 0208 F0309FE5 		ldr	r3, .L289+12
 1983 020c 28208DE2 		add	r2, sp, #40
 1984 0210 0410A0E1 		mov	r1, r4
 1985 0214 14008DE2 		add	r0, sp, #20
 1986 0218 08308DE5 		str	r3, [sp, #8]
 1987 021c 043096E5 		ldr	r3, [r6, #4]
 1988 0220 00708DE5 		str	r7, [sp]
 1989 0224 04308DE5 		str	r3, [sp, #4]
 1990 0228 0530A0E1 		mov	r3, r5
 1991              	.LEHB55:
 1992 022c FEFFFFEB 		bl	_ZN6tflite13reference_ops29MaximumMinimumBroadcast4DSlowIlPFlllEEEvRKNS_12RuntimeShapeEPKT_S6_S
 1993              	.LEHE55:
 1994 0230 1A0000EA 		b	.L287
 1995              	.L282:
 1996 0234 A4FFFFEA 		b	.L288
 1997              	.L281:
 1998 0238 A6FFFFEA 		b	.L259
 1999              	.L280:
 2000 023c A8FFFFEA 		b	.L260
 2001              	.L233:
 2002 0240 0410A0E1 		mov	r1, r4
 2003 0244 14008DE2 		add	r0, sp, #20
 2004              	.LEHB56:
 2005 0248 FEFFFFEB 		bl	_ZN6tflite14GetTensorShapeEPK12TfLiteTensor
 2006              	.LEHE56:
 2007 024c 000054E3 		cmp	r4, #0
 2008 0250 0510A0E1 		mov	r1, r5
 2009 0254 28008DE2 		add	r0, sp, #40
 2010 0258 04409415 		ldrne	r4, [r4, #4]
 2011              	.LEHB57:
 2012 025c FEFFFFEB 		bl	_ZN6tflite14GetTensorShapeEPK12TfLiteTensor
 2013              	.LEHE57:
 2014 0260 3C708DE2 		add	r7, sp, #60
 2015 0264 000055E3 		cmp	r5, #0
 2016 0268 0610A0E1 		mov	r1, r6
 2017 026c 0700A0E1 		mov	r0, r7
 2018 0270 04509515 		ldrne	r5, [r5, #4]
 2019              	.LEHB58:
 2020 0274 FEFFFFEB 		bl	_ZN6tflite14GetTensorShapeEPK12TfLiteTensor
 2021              	.LEHE58:
 2022 0278 84309FE5 		ldr	r3, .L289+16
 2023 027c 28208DE2 		add	r2, sp, #40
 2024 0280 0410A0E1 		mov	r1, r4
 2025 0284 14008DE2 		add	r0, sp, #20
 2026 0288 08308DE5 		str	r3, [sp, #8]
 2027 028c 043096E5 		ldr	r3, [r6, #4]
 2028 0290 00708DE5 		str	r7, [sp]
 2029 0294 04308DE5 		str	r3, [sp, #4]
 2030 0298 0530A0E1 		mov	r3, r5
 2031              	.LEHB59:
 2032 029c FEFFFFEB 		bl	_ZN6tflite13reference_ops29MaximumMinimumBroadcast4DSlowIxPFxxxEEEvRKNS_12RuntimeShapeEPKT_S6_S
 2033              	.LEHE59:
 2034              	.L287:
 2035 02a0 0700A0E1 		mov	r0, r7
 2036 02a4 FEFFFFEB 		bl	_ZN6tflite12RuntimeShapeD1Ev
 2037 02a8 28008DE2 		add	r0, sp, #40
 2038 02ac FEFFFFEB 		bl	_ZN6tflite12RuntimeShapeD1Ev
 2039 02b0 14008DE2 		add	r0, sp, #20
 2040 02b4 FEFFFFEB 		bl	_ZN6tflite12RuntimeShapeD1Ev
 2041 02b8 0000A0E3 		mov	r0, #0
 2042              	.L237:
 2043 02bc 54D08DE2 		add	sp, sp, #84
 2044              		@ sp needed
 2045 02c0 F083BDE8 		pop	{r4, r5, r6, r7, r8, r9, pc}
 2046              	.L285:
 2047 02c4 80FFFFEA 		b	.L288
 2048              	.L284:
 2049 02c8 82FFFFEA 		b	.L259
 2050              	.L283:
 2051 02cc 84FFFFEA 		b	.L260
 2052              	.L228:
 2053 02d0 144099E5 		ldr	r4, [r9, #20]
 2054              	.LEHB60:
 2055 02d4 FEFFFFEB 		bl	TfLiteTypeGetName
 2056 02d8 0833D7E7 		ldrb	r3, [r7, r8, lsl #6]	@ zero_extendqisi2
 2057 02dc 0020A0E1 		mov	r2, r0
 2058 02e0 20109FE5 		ldr	r1, .L289+20
 2059 02e4 0900A0E1 		mov	r0, r9
 2060 02e8 34FF2FE1 		blx	r4
 2061              	.LEHE60:
 2062 02ec 0100A0E3 		mov	r0, #1
 2063 02f0 F1FFFFEA 		b	.L237
 2064              	.L290:
 2065              		.align	2
 2066              	.L289:
 2067 02f4 00000000 		.word	_ZN6tflite3ops5micro15maximum_minimum12_GLOBAL__N_19MinimumOp2opIfEET_S6_S6_
 2068 02f8 00000000 		.word	_ZN6tflite3ops5micro15maximum_minimum12_GLOBAL__N_19MinimumOp2opIhEET_S6_S6_
 2069 02fc 00000000 		.word	_ZN6tflite3ops5micro15maximum_minimum12_GLOBAL__N_19MinimumOp2opIaEET_S6_S6_
 2070 0300 00000000 		.word	_ZN6tflite3ops5micro15maximum_minimum12_GLOBAL__N_19MinimumOp2opIlEET_S6_S6_
 2071 0304 00000000 		.word	_ZN6tflite3ops5micro15maximum_minimum12_GLOBAL__N_19MinimumOp2opIxEET_S6_S6_
 2072 0308 00000000 		.word	.LC0
 2073              		.personality	__gxx_personality_v0
 2074              		.handlerdata
 2075              	.LLSDA6564:
 2076 0008 FF       		.byte	0xff
 2077 0009 FF       		.byte	0xff
 2078 000a 01       		.byte	0x1
 2079 000b 77       		.uleb128 .LLSDACSE6564-.LLSDACSB6564
 2080              	.LLSDACSB6564:
 2081 000c 70       		.uleb128 .LEHB40-.LFB6564
 2082 000d 04       		.uleb128 .LEHE40-.LEHB40
 2083 000e 00       		.uleb128 0
 2084 000f 00       		.uleb128 0
 2085 0010 8401     		.uleb128 .LEHB41-.LFB6564
 2086 0012 04       		.uleb128 .LEHE41-.LEHB41
 2087 0013 E401     		.uleb128 .L271-.LFB6564
 2088 0015 00       		.uleb128 0
 2089 0016 9C01     		.uleb128 .LEHB42-.LFB6564
 2090 0018 04       		.uleb128 .LEHE42-.LEHB42
 2091 0019 D801     		.uleb128 .L272-.LFB6564
 2092 001b 00       		.uleb128 0
 2093 001c C401     		.uleb128 .LEHB43-.LFB6564
 2094 001e 04       		.uleb128 .LEHE43-.LEHB43
 2095 001f CC01     		.uleb128 .L273-.LFB6564
 2096 0021 00       		.uleb128 0
 2097 0022 EC01     		.uleb128 .LEHB44-.LFB6564
 2098 0024 10       		.uleb128 .LEHE44-.LEHB44
 2099 0025 00       		.uleb128 0
 2100 0026 00       		.uleb128 0
 2101 0027 8C02     		.uleb128 .LEHB45-.LFB6564
 2102 0029 04       		.uleb128 .LEHE45-.LEHB45
 2103 002a DC02     		.uleb128 .L274-.LFB6564
 2104 002c 00       		.uleb128 0
 2105 002d A402     		.uleb128 .LEHB46-.LFB6564
 2106 002f 04       		.uleb128 .LEHE46-.LEHB46
 2107 0030 D802     		.uleb128 .L275-.LFB6564
 2108 0032 00       		.uleb128 0
 2109 0033 CC02     		.uleb128 .LEHB47-.LFB6564
 2110 0035 04       		.uleb128 .LEHE47-.LEHB47
 2111 0036 D402     		.uleb128 .L276-.LFB6564
 2112 0038 00       		.uleb128 0
 2113 0039 E802     		.uleb128 .LEHB48-.LFB6564
 2114 003b 04       		.uleb128 .LEHE48-.LEHB48
 2115 003c 00       		.uleb128 0
 2116 003d 00       		.uleb128 0
 2117 003e FC02     		.uleb128 .LEHB49-.LFB6564
 2118 0040 04       		.uleb128 .LEHE49-.LEHB49
 2119 0041 CC03     		.uleb128 .L277-.LFB6564
 2120 0043 00       		.uleb128 0
 2121 0044 9403     		.uleb128 .LEHB50-.LFB6564
 2122 0046 04       		.uleb128 .LEHE50-.LEHB50
 2123 0047 C803     		.uleb128 .L278-.LFB6564
 2124 0049 00       		.uleb128 0
 2125 004a BC03     		.uleb128 .LEHB51-.LFB6564
 2126 004c 04       		.uleb128 .LEHE51-.LEHB51
 2127 004d C403     		.uleb128 .L279-.LFB6564
 2128 004f 00       		.uleb128 0
 2129 0050 D803     		.uleb128 .LEHB52-.LFB6564
 2130 0052 04       		.uleb128 .LEHE52-.LEHB52
 2131 0053 00       		.uleb128 0
 2132 0054 00       		.uleb128 0
 2133 0055 EC03     		.uleb128 .LEHB53-.LFB6564
 2134 0057 04       		.uleb128 .LEHE53-.LEHB53
 2135 0058 BC04     		.uleb128 .L280-.LFB6564
 2136 005a 00       		.uleb128 0
 2137 005b 8404     		.uleb128 .LEHB54-.LFB6564
 2138 005d 04       		.uleb128 .LEHE54-.LEHB54
 2139 005e B804     		.uleb128 .L281-.LFB6564
 2140 0060 00       		.uleb128 0
 2141 0061 AC04     		.uleb128 .LEHB55-.LFB6564
 2142 0063 04       		.uleb128 .LEHE55-.LEHB55
 2143 0064 B404     		.uleb128 .L282-.LFB6564
 2144 0066 00       		.uleb128 0
 2145 0067 C804     		.uleb128 .LEHB56-.LFB6564
 2146 0069 04       		.uleb128 .LEHE56-.LEHB56
 2147 006a 00       		.uleb128 0
 2148 006b 00       		.uleb128 0
 2149 006c DC04     		.uleb128 .LEHB57-.LFB6564
 2150 006e 04       		.uleb128 .LEHE57-.LEHB57
 2151 006f CC05     		.uleb128 .L283-.LFB6564
 2152 0071 00       		.uleb128 0
 2153 0072 F404     		.uleb128 .LEHB58-.LFB6564
 2154 0074 04       		.uleb128 .LEHE58-.LEHB58
 2155 0075 C805     		.uleb128 .L284-.LFB6564
 2156 0077 00       		.uleb128 0
 2157 0078 9C05     		.uleb128 .LEHB59-.LFB6564
 2158 007a 04       		.uleb128 .LEHE59-.LEHB59
 2159 007b C405     		.uleb128 .L285-.LFB6564
 2160 007d 00       		.uleb128 0
 2161 007e D405     		.uleb128 .LEHB60-.LFB6564
 2162 0080 18       		.uleb128 .LEHE60-.LEHB60
 2163 0081 00       		.uleb128 0
 2164 0082 00       		.uleb128 0
 2165              	.LLSDACSE6564:
 2166              		.section	.text._ZN6tflite3ops5micro15maximum_minimum4EvalILNS2_12_GLOBAL__N_110KernelTypeE0ENS4_9M
 2167              		.fnend
 2169              		.weak	_ZN11flatbuffers25flatbuffer_version_stringE
 2170              		.section	.bss._ZZN6tflite3ops5micro16Register_MAXIMUMEvE1r,"aw",%nobits
 2171              		.align	2
 2172              		.set	.LANCHOR0,. + 0
 2175              	_ZZN6tflite3ops5micro16Register_MAXIMUMEvE1r:
 2176 0000 00000000 		.space	32
 2176      00000000 
 2176      00000000 
 2176      00000000 
 2176      00000000 
 2177              		.section	.bss._ZZN6tflite3ops5micro16Register_MINIMUMEvE1r,"aw",%nobits
 2178              		.align	2
 2179              		.set	.LANCHOR1,. + 0
 2182              	_ZZN6tflite3ops5micro16Register_MINIMUMEvE1r:
 2183 0000 00000000 		.space	32
 2183      00000000 
 2183      00000000 
 2183      00000000 
 2183      00000000 
 2184              		.section	.data._ZN11flatbuffers25flatbuffer_version_stringE,"aw",%progbits
 2185              		.align	2
 2188              	_ZN11flatbuffers25flatbuffer_version_stringE:
 2189 0000 00000000 		.word	.LC1
 2190              		.section	.rodata._ZN6tflite3ops5micro15maximum_minimum4EvalILNS2_12_GLOBAL__N_110KernelTypeE0ENS4_
 2191              	.LC0:
 2192 0000 54797065 		.ascii	"Type %s (%d) is not supported by Maximum/Minimum.\000"
 2192      20257320 
 2192      28256429 
 2192      20697320 
 2192      6E6F7420 
 2193              		.section	.rodata.str1.1,"aMS",%progbits,1
 2194              	.LC1:
 2195 0000 466C6174 		.ascii	"FlatBuffers 1.11.0\000"
 2195      42756666 
 2195      65727320 
 2195      312E3131 
 2195      2E3000
 2196              		.ident	"GCC: (GNU Tools for ARM Embedded Processors 6-2017-q2-update) 6.3.1 20170620 (release) [AR