   1              		.cpu cortex-a9
   2              		.eabi_attribute 28, 1
   3              		.eabi_attribute 20, 1
   4              		.eabi_attribute 21, 1
   5              		.eabi_attribute 23, 3
   6              		.eabi_attribute 24, 1
   7              		.eabi_attribute 25, 1
   8              		.eabi_attribute 26, 1
   9              		.eabi_attribute 30, 4
  10              		.eabi_attribute 34, 0
  11              		.eabi_attribute 18, 4
  12              		.file	"prelu.cpp"
  13              		.section	.text._ZN6tflite3ops5micro11activations12PreluPrepareEP13TfLiteContextP10TfLiteNode,"ax",
  14              		.align	2
  15              		.global	_ZN6tflite3ops5micro11activations12PreluPrepareEP13TfLiteContextP10TfLiteNode
  16              		.syntax unified
  17              		.arm
  18              		.fpu neon
  20              	_ZN6tflite3ops5micro11activations12PreluPrepareEP13TfLiteContextP10TfLiteNode:
  21              		.fnstart
  22              	.LFB6217:
  23              		@ args = 0, pretend = 0, frame = 0
  24              		@ frame_needed = 0, uses_anonymous_args = 0
  25              		@ link register save eliminated.
  26 0000 0000A0E3 		mov	r0, #0
  27 0004 1EFF2FE1 		bx	lr
  28              		.cantunwind
  29              		.fnend
  31              		.section	.text._ZN6tflite12RuntimeShapeD2Ev,"axG",%progbits,_ZN6tflite12RuntimeShapeD5Ev,comdat
  32              		.align	2
  33              		.weak	_ZN6tflite12RuntimeShapeD2Ev
  34              		.syntax unified
  35              		.arm
  36              		.fpu neon
  38              	_ZN6tflite12RuntimeShapeD2Ev:
  39              		.fnstart
  40              	.LFB3207:
  41              		@ args = 0, pretend = 0, frame = 0
  42              		@ frame_needed = 0, uses_anonymous_args = 0
  43 0000 003090E5 		ldr	r3, [r0]
  44 0004 10402DE9 		push	{r4, lr}
  45 0008 0040A0E1 		mov	r4, r0
  46 000c 040053E3 		cmp	r3, #4
  47 0010 030000DA 		ble	.L3
  48 0014 040090E5 		ldr	r0, [r0, #4]
  49 0018 000050E3 		cmp	r0, #0
  50 001c 0000000A 		beq	.L3
  51 0020 FEFFFFEB 		bl	_ZdaPv
  52              	.L3:
  53 0024 0400A0E1 		mov	r0, r4
  54 0028 1080BDE8 		pop	{r4, pc}
  55              		.cantunwind
  56              		.fnend
  58              		.weak	_ZN6tflite12RuntimeShapeD1Ev
  59              		.set	_ZN6tflite12RuntimeShapeD1Ev,_ZN6tflite12RuntimeShapeD2Ev
  60              		.section	.text._ZNK6tflite12RuntimeShape4DimsEi,"axG",%progbits,_ZNK6tflite12RuntimeShape4DimsEi,c
  61              		.align	2
  62              		.weak	_ZNK6tflite12RuntimeShape4DimsEi
  63              		.syntax unified
  64              		.arm
  65              		.fpu neon
  67              	_ZNK6tflite12RuntimeShape4DimsEi:
  68              		.fnstart
  69              	.LFB3210:
  70              		@ args = 0, pretend = 0, frame = 0
  71              		@ frame_needed = 0, uses_anonymous_args = 0
  72 0000 000051E3 		cmp	r1, #0
  73 0004 010000AA 		bge	.L9
  74              	.L10:
  75 0008 10402DE9 		push	{r4, lr}
  76              		.save {r4, lr}
  77 000c FEFFFFEB 		bl	abort
  78              	.L9:
  79 0010 003090E5 		ldr	r3, [r0]
  80 0014 010053E1 		cmp	r3, r1
  81 0018 FAFFFFDA 		ble	.L10
  82 001c 040053E3 		cmp	r3, #4
  83 0020 043090C5 		ldrgt	r3, [r0, #4]
  84 0024 010180D0 		addle	r0, r0, r1, lsl #2
  85 0028 040090D5 		ldrle	r0, [r0, #4]
  86 002c 010193C7 		ldrgt	r0, [r3, r1, lsl #2]
  87 0030 1EFF2FE1 		bx	lr
  88              		.fnend
  90              		.section	.text._ZN6tflite12RuntimeShapeC2EiRKS0_i,"axG",%progbits,_ZN6tflite12RuntimeShapeC5EiRKS0
  91              		.align	2
  92              		.weak	_ZN6tflite12RuntimeShapeC2EiRKS0_i
  93              		.syntax unified
  94              		.arm
  95              		.fpu neon
  97              	_ZN6tflite12RuntimeShapeC2EiRKS0_i:
  98              		.fnstart
  99              	.LFB3223:
 100              		@ args = 0, pretend = 0, frame = 0
 101              		@ frame_needed = 0, uses_anonymous_args = 0
 102 0000 F0412DE9 		push	{r4, r5, r6, r7, r8, lr}
 103              		.save {r4, r5, r6, r7, r8, lr}
 104 0004 0370A0E1 		mov	r7, r3
 105 0008 0030A0E3 		mov	r3, #0
 106 000c 003080E5 		str	r3, [r0]
 107 0010 003092E5 		ldr	r3, [r2]
 108 0014 010053E1 		cmp	r3, r1
 109 0018 000000DA 		ble	.L16
 110              	.L20:
 111 001c FEFFFFEB 		bl	abort
 112              	.L16:
 113 0020 040051E3 		cmp	r1, #4
 114 0024 0050A0E1 		mov	r5, r0
 115 0028 0140A0E1 		mov	r4, r1
 116 002c 0260A0E1 		mov	r6, r2
 117 0030 001085E5 		str	r1, [r5]
 118 0034 040000DA 		ble	.L17
 119 0038 2E0271E3 		cmn	r1, #-536870910
 120 003c 130000CA 		bgt	.L18
 121 0040 0101A0E1 		lsl	r0, r1, #2
 122 0044 FEFFFFEB 		bl	_Znaj
 123 0048 040085E5 		str	r0, [r5, #4]
 124              	.L17:
 125 004c 000096E5 		ldr	r0, [r6]
 126 0050 041085E2 		add	r1, r5, #4
 127 0054 0020A0E3 		mov	r2, #0
 128 0058 004044E0 		sub	r4, r4, r0
 129 005c 0100A0E1 		mov	r0, r1
 130              	.L23:
 131 0060 040052E1 		cmp	r2, r4
 132 0064 00C095E5 		ldr	ip, [r5]
 133 0068 090000AA 		bge	.L19
 134 006c 0C0052E1 		cmp	r2, ip
 135 0070 E9FFFFAA 		bge	.L20
 136 0074 04005CE3 		cmp	ip, #4
 137 0078 041081E2 		add	r1, r1, #4
 138 007c 043095C5 		ldrgt	r3, [r5, #4]
 139 0080 047001D5 		strle	r7, [r1, #-4]
 140 0084 027183C7 		strgt	r7, [r3, r2, lsl #2]
 141 0088 012082E2 		add	r2, r2, #1
 142 008c F3FFFFEA 		b	.L23
 143              	.L18:
 144 0090 FEFFFFEB 		bl	__cxa_throw_bad_array_new_length
 145              	.L19:
 146 0094 04005CE3 		cmp	ip, #4
 147 0098 002096E5 		ldr	r2, [r6]
 148 009c 040095C5 		ldrgt	r0, [r5, #4]
 149 00a0 040052E3 		cmp	r2, #4
 150 00a4 041096C5 		ldrgt	r1, [r6, #4]
 151 00a8 041086D2 		addle	r1, r6, #4
 152 00ac 040180E0 		add	r0, r0, r4, lsl #2
 153 00b0 0221A0E1 		lsl	r2, r2, #2
 154 00b4 FEFFFFEB 		bl	memcpy
 155 00b8 0500A0E1 		mov	r0, r5
 156 00bc F081BDE8 		pop	{r4, r5, r6, r7, r8, pc}
 157              		.fnend
 159              		.weak	_ZN6tflite12RuntimeShapeC1EiRKS0_i
 160              		.set	_ZN6tflite12RuntimeShapeC1EiRKS0_i,_ZN6tflite12RuntimeShapeC2EiRKS0_i
 161              		.section	.text._ZN6tflite6OffsetERKNS_12RuntimeShapeEiiii,"axG",%progbits,_ZN6tflite6OffsetERKNS_1
 162              		.align	2
 163              		.weak	_ZN6tflite6OffsetERKNS_12RuntimeShapeEiiii
 164              		.syntax unified
 165              		.arm
 166              		.fpu neon
 168              	_ZN6tflite6OffsetERKNS_12RuntimeShapeEiiii:
 169              		.fnstart
 170              	.LFB3229:
 171              		@ args = 4, pretend = 0, frame = 0
 172              		@ frame_needed = 0, uses_anonymous_args = 0
 173 0000 10402DE9 		push	{r4, lr}
 174              		.save {r4, lr}
 175 0004 00E090E5 		ldr	lr, [r0]
 176 0008 08C09DE5 		ldr	ip, [sp, #8]
 177 000c 04005EE3 		cmp	lr, #4
 178 0010 0000000A 		beq	.L31
 179              	.L32:
 180 0014 FEFFFFEB 		bl	abort
 181              	.L31:
 182 0018 000051E3 		cmp	r1, #0
 183 001c FCFFFFBA 		blt	.L32
 184 0020 04E090E5 		ldr	lr, [r0, #4]
 185 0024 0E0051E1 		cmp	r1, lr
 186 0028 F9FFFFAA 		bge	.L32
 187 002c 000052E3 		cmp	r2, #0
 188 0030 F7FFFFBA 		blt	.L32
 189 0034 084090E5 		ldr	r4, [r0, #8]
 190 0038 040052E1 		cmp	r2, r4
 191 003c F4FFFFAA 		bge	.L32
 192 0040 000053E3 		cmp	r3, #0
 193 0044 F2FFFFBA 		blt	.L32
 194 0048 0CE090E5 		ldr	lr, [r0, #12]
 195 004c 0E0053E1 		cmp	r3, lr
 196 0050 EFFFFFAA 		bge	.L32
 197 0054 00005CE3 		cmp	ip, #0
 198 0058 EDFFFFBA 		blt	.L32
 199 005c 100090E5 		ldr	r0, [r0, #16]
 200 0060 00005CE1 		cmp	ip, r0
 201 0064 EAFFFFAA 		bge	.L32
 202 0068 942121E0 		mla	r1, r4, r1, r2
 203 006c 9E3123E0 		mla	r3, lr, r1, r3
 204 0070 90C320E0 		mla	r0, r0, r3, ip
 205 0074 1080BDE8 		pop	{r4, pc}
 206              		.fnend
 208              		.section	.text._ZN6tflite16SubscriptToIndexERKNS_11NdArrayDescILi4EEEiiii,"axG",%progbits,_ZN6tfli
 209              		.align	2
 210              		.weak	_ZN6tflite16SubscriptToIndexERKNS_11NdArrayDescILi4EEEiiii
 211              		.syntax unified
 212              		.arm
 213              		.fpu neon
 215              	_ZN6tflite16SubscriptToIndexERKNS_11NdArrayDescILi4EEEiiii:
 216              		.fnstart
 217              	.LFB3293:
 218              		@ args = 4, pretend = 0, frame = 0
 219              		@ frame_needed = 0, uses_anonymous_args = 0
 220 0000 000051E3 		cmp	r1, #0
 221 0004 10402DE9 		push	{r4, lr}
 222              		.save {r4, lr}
 223 0008 08C09DE5 		ldr	ip, [sp, #8]
 224 000c 020000BA 		blt	.L35
 225 0010 00E090E5 		ldr	lr, [r0]
 226 0014 0E0051E1 		cmp	r1, lr
 227 0018 000000BA 		blt	.L36
 228              	.L35:
 229 001c FEFFFFEB 		bl	abort
 230              	.L36:
 231 0020 000052E3 		cmp	r2, #0
 232 0024 FCFFFFBA 		blt	.L35
 233 0028 04E090E5 		ldr	lr, [r0, #4]
 234 002c 0E0052E1 		cmp	r2, lr
 235 0030 F9FFFFAA 		bge	.L35
 236 0034 000053E3 		cmp	r3, #0
 237 0038 F7FFFFBA 		blt	.L35
 238 003c 08E090E5 		ldr	lr, [r0, #8]
 239 0040 0E0053E1 		cmp	r3, lr
 240 0044 F4FFFFAA 		bge	.L35
 241 0048 00005CE3 		cmp	ip, #0
 242 004c F2FFFFBA 		blt	.L35
 243 0050 0CE090E5 		ldr	lr, [r0, #12]
 244 0054 0E005CE1 		cmp	ip, lr
 245 0058 EFFFFFAA 		bge	.L35
 246 005c 14E090E5 		ldr	lr, [r0, #20]
 247 0060 104090E5 		ldr	r4, [r0, #16]
 248 0064 9E0202E0 		mul	r2, lr, r2
 249 0068 942121E0 		mla	r1, r4, r1, r2
 250 006c 182090E5 		ldr	r2, [r0, #24]
 251 0070 1C0090E5 		ldr	r0, [r0, #28]
 252 0074 921323E0 		mla	r3, r2, r3, r1
 253 0078 903C20E0 		mla	r0, r0, ip, r3
 254 007c 1080BDE8 		pop	{r4, pc}
 255              		.fnend
 257              		.section	.text._ZN6tflite14GetTensorShapeEPK12TfLiteTensor,"axG",%progbits,_ZN6tflite14GetTensorSh
 258              		.align	2
 259              		.weak	_ZN6tflite14GetTensorShapeEPK12TfLiteTensor
 260              		.syntax unified
 261              		.arm
 262              		.fpu neon
 264              	_ZN6tflite14GetTensorShapeEPK12TfLiteTensor:
 265              		.fnstart
 266              	.LFB3312:
 267              		@ args = 0, pretend = 0, frame = 0
 268              		@ frame_needed = 0, uses_anonymous_args = 0
 269 0000 000051E3 		cmp	r1, #0
 270 0004 70402DE9 		push	{r4, r5, r6, lr}
 271              		.save {r4, r5, r6, lr}
 272 0008 0040A0E1 		mov	r4, r0
 273 000c 00108005 		streq	r1, [r0]
 274 0010 1100000A 		beq	.L38
 275 0014 085091E5 		ldr	r5, [r1, #8]
 276 0018 003095E5 		ldr	r3, [r5]
 277 001c 040053E3 		cmp	r3, #4
 278 0020 003080E5 		str	r3, [r0]
 279 0024 0361A0E1 		lsl	r6, r3, #2
 280 0028 040000DA 		ble	.L41
 281 002c 2E0273E3 		cmn	r3, #-536870910
 282 0030 0B0000CA 		bgt	.L42
 283 0034 0600A0E1 		mov	r0, r6
 284 0038 FEFFFFEB 		bl	_Znaj
 285 003c 040084E5 		str	r0, [r4, #4]
 286              	.L41:
 287 0040 003094E5 		ldr	r3, [r4]
 288 0044 0620A0E1 		mov	r2, r6
 289 0048 041085E2 		add	r1, r5, #4
 290 004c 040053E3 		cmp	r3, #4
 291 0050 040094C5 		ldrgt	r0, [r4, #4]
 292 0054 040084D2 		addle	r0, r4, #4
 293 0058 FEFFFFEB 		bl	memcpy
 294              	.L38:
 295 005c 0400A0E1 		mov	r0, r4
 296 0060 7080BDE8 		pop	{r4, r5, r6, pc}
 297              	.L42:
 298 0064 FEFFFFEB 		bl	__cxa_throw_bad_array_new_length
 299              		.fnend
 301              		.section	.text._ZN6tflite3ops5micro14Register_PRELUEv,"ax",%progbits
 302              		.align	2
 303              		.global	_ZN6tflite3ops5micro14Register_PRELUEv
 304              		.syntax unified
 305              		.arm
 306              		.fpu neon
 308              	_ZN6tflite3ops5micro14Register_PRELUEv:
 309              		.fnstart
 310              	.LFB6220:
 311              		@ args = 0, pretend = 0, frame = 0
 312              		@ frame_needed = 0, uses_anonymous_args = 0
 313              		@ link register save eliminated.
 314 0000 10009FE5 		ldr	r0, .L47
 315 0004 10309FE5 		ldr	r3, .L47+4
 316 0008 083080E5 		str	r3, [r0, #8]
 317 000c 0C309FE5 		ldr	r3, .L47+8
 318 0010 0C3080E5 		str	r3, [r0, #12]
 319 0014 1EFF2FE1 		bx	lr
 320              	.L48:
 321              		.align	2
 322              	.L47:
 323 0018 00000000 		.word	.LANCHOR0
 324 001c 00000000 		.word	_ZN6tflite3ops5micro11activations12PreluPrepareEP13TfLiteContextP10TfLiteNode
 325 0020 00000000 		.word	_ZN6tflite3ops5micro11activations9PreluEvalEP13TfLiteContextP10TfLiteNode
 326              		.cantunwind
 327              		.fnend
 329              		.section	.text._ZN6tflite14CopyDimsToDescILi4EEEvRKNS_12RuntimeShapeEPNS_11NdArrayDescIXT_EEE,"axG
 330              		.align	2
 331              		.weak	_ZN6tflite14CopyDimsToDescILi4EEEvRKNS_12RuntimeShapeEPNS_11NdArrayDescIXT_EEE
 332              		.syntax unified
 333              		.arm
 334              		.fpu neon
 336              	_ZN6tflite14CopyDimsToDescILi4EEEvRKNS_12RuntimeShapeEPNS_11NdArrayDescIXT_EEE:
 337              		.fnstart
 338              	.LFB6590:
 339              		@ args = 0, pretend = 0, frame = 0
 340              		@ frame_needed = 0, uses_anonymous_args = 0
 341 0000 F0412DE9 		push	{r4, r5, r6, r7, r8, lr}
 342              		.save {r4, r5, r6, r7, r8, lr}
 343 0004 0070A0E1 		mov	r7, r0
 344 0008 0C6081E2 		add	r6, r1, #12
 345 000c 0340A0E3 		mov	r4, #3
 346 0010 0150A0E3 		mov	r5, #1
 347              	.L50:
 348 0014 0410A0E1 		mov	r1, r4
 349 0018 0700A0E1 		mov	r0, r7
 350 001c FEFFFFEB 		bl	_ZNK6tflite12RuntimeShape4DimsEi
 351 0020 0410A0E1 		mov	r1, r4
 352 0024 040006E4 		str	r0, [r6], #-4
 353 0028 0700A0E1 		mov	r0, r7
 354 002c 145086E5 		str	r5, [r6, #20]
 355 0030 FEFFFFEB 		bl	_ZNK6tflite12RuntimeShape4DimsEi
 356 0034 014054E2 		subs	r4, r4, #1
 357 0038 900505E0 		mul	r5, r0, r5
 358 003c F4FFFF2A 		bcs	.L50
 359 0040 F081BDE8 		pop	{r4, r5, r6, r7, r8, pc}
 360              		.fnend
 362              		.section	.text._ZN6tflite35NdArrayDescsForElementwiseBroadcastILi4EEEvRKNS_12RuntimeShapeES3_PNS_1
 363              		.align	2
 364              		.weak	_ZN6tflite35NdArrayDescsForElementwiseBroadcastILi4EEEvRKNS_12RuntimeShapeES3_PNS_11NdArrayD
 365              		.syntax unified
 366              		.arm
 367              		.fpu neon
 369              	_ZN6tflite35NdArrayDescsForElementwiseBroadcastILi4EEEvRKNS_12RuntimeShapeES3_PNS_11NdArrayDescIXT_
 370              		.fnstart
 371              	.LFB6245:
 372              		@ args = 0, pretend = 0, frame = 40
 373              		@ frame_needed = 0, uses_anonymous_args = 0
 374 0000 F0412DE9 		push	{r4, r5, r6, r7, r8, lr}
 375              		.save {r4, r5, r6, r7, r8, lr}
 376 0004 005052E2 		subs	r5, r2, #0
 377              		.pad #40
 378 0008 28D04DE2 		sub	sp, sp, #40
 379 000c 0000001A 		bne	.L54
 380              	.L55:
 381              	.LEHB0:
 382 0010 FEFFFFEB 		bl	abort
 383              	.L54:
 384 0014 000053E3 		cmp	r3, #0
 385 0018 0340A0E1 		mov	r4, r3
 386 001c FBFFFF0A 		beq	.L55
 387 0020 0020A0E1 		mov	r2, r0
 388 0024 0160A0E1 		mov	r6, r1
 389 0028 0130A0E3 		mov	r3, #1
 390 002c 0410A0E3 		mov	r1, #4
 391 0030 0D00A0E1 		mov	r0, sp
 392 0034 FEFFFFEB 		bl	_ZN6tflite12RuntimeShapeC1EiRKS0_i
 393              	.LEHE0:
 394 0038 0130A0E3 		mov	r3, #1
 395 003c 0620A0E1 		mov	r2, r6
 396 0040 0410A0E3 		mov	r1, #4
 397 0044 14008DE2 		add	r0, sp, #20
 398              	.LEHB1:
 399 0048 FEFFFFEB 		bl	_ZN6tflite12RuntimeShapeC1EiRKS0_i
 400              	.LEHE1:
 401 004c 0510A0E1 		mov	r1, r5
 402 0050 0D00A0E1 		mov	r0, sp
 403              	.LEHB2:
 404 0054 FEFFFFEB 		bl	_ZN6tflite14CopyDimsToDescILi4EEEvRKNS_12RuntimeShapeEPNS_11NdArrayDescIXT_EEE
 405 0058 0410A0E1 		mov	r1, r4
 406 005c 14008DE2 		add	r0, sp, #20
 407 0060 FEFFFFEB 		bl	_ZN6tflite14CopyDimsToDescILi4EEEvRKNS_12RuntimeShapeEPNS_11NdArrayDescIXT_EEE
 408 0064 0060A0E3 		mov	r6, #0
 409 0068 0680A0E1 		mov	r8, r6
 410              	.L59:
 411 006c 0610A0E1 		mov	r1, r6
 412 0070 0D00A0E1 		mov	r0, sp
 413 0074 FEFFFFEB 		bl	_ZNK6tflite12RuntimeShape4DimsEi
 414 0078 0070A0E1 		mov	r7, r0
 415 007c 0610A0E1 		mov	r1, r6
 416 0080 14008DE2 		add	r0, sp, #20
 417 0084 FEFFFFEB 		bl	_ZNK6tflite12RuntimeShape4DimsEi
 418 0088 000057E1 		cmp	r7, r0
 419 008c 0D00000A 		beq	.L56
 420 0090 010057E3 		cmp	r7, #1
 421 0094 10808505 		streq	r8, [r5, #16]
 422 0098 00008505 		streq	r0, [r5]
 423 009c 0900000A 		beq	.L56
 424 00a0 010050E3 		cmp	r0, #1
 425 00a4 0500000A 		beq	.L58
 426 00a8 FEFFFFEB 		bl	abort
 427              	.LEHE2:
 428              	.L63:
 429 00ac 14008DE2 		add	r0, sp, #20
 430 00b0 FEFFFFEB 		bl	_ZN6tflite12RuntimeShapeD1Ev
 431              	.L61:
 432 00b4 0D00A0E1 		mov	r0, sp
 433 00b8 FEFFFFEB 		bl	_ZN6tflite12RuntimeShapeD1Ev
 434              	.LEHB3:
 435 00bc FEFFFFEB 		bl	__cxa_end_cleanup
 436              	.LEHE3:
 437              	.L58:
 438 00c0 108084E5 		str	r8, [r4, #16]
 439 00c4 007084E5 		str	r7, [r4]
 440              	.L56:
 441 00c8 016086E2 		add	r6, r6, #1
 442 00cc 044084E2 		add	r4, r4, #4
 443 00d0 040056E3 		cmp	r6, #4
 444 00d4 045085E2 		add	r5, r5, #4
 445 00d8 E3FFFF1A 		bne	.L59
 446 00dc 14008DE2 		add	r0, sp, #20
 447 00e0 FEFFFFEB 		bl	_ZN6tflite12RuntimeShapeD1Ev
 448 00e4 0D00A0E1 		mov	r0, sp
 449 00e8 FEFFFFEB 		bl	_ZN6tflite12RuntimeShapeD1Ev
 450 00ec 28D08DE2 		add	sp, sp, #40
 451              		@ sp needed
 452 00f0 F081BDE8 		pop	{r4, r5, r6, r7, r8, pc}
 453              	.L62:
 454 00f4 EEFFFFEA 		b	.L61
 455              		.global	__gxx_personality_v0
 456              		.personality	__gxx_personality_v0
 457              		.handlerdata
 458              	.LLSDA6245:
 459 0008 FF       		.byte	0xff
 460 0009 FF       		.byte	0xff
 461 000a 01       		.byte	0x1
 462 000b 13       		.uleb128 .LLSDACSE6245-.LLSDACSB6245
 463              	.LLSDACSB6245:
 464 000c 10       		.uleb128 .LEHB0-.LFB6245
 465 000d 28       		.uleb128 .LEHE0-.LEHB0
 466 000e 00       		.uleb128 0
 467 000f 00       		.uleb128 0
 468 0010 48       		.uleb128 .LEHB1-.LFB6245
 469 0011 04       		.uleb128 .LEHE1-.LEHB1
 470 0012 F401     		.uleb128 .L62-.LFB6245
 471 0014 00       		.uleb128 0
 472 0015 54       		.uleb128 .LEHB2-.LFB6245
 473 0016 58       		.uleb128 .LEHE2-.LEHB2
 474 0017 AC01     		.uleb128 .L63-.LFB6245
 475 0019 00       		.uleb128 0
 476 001a BC01     		.uleb128 .LEHB3-.LFB6245
 477 001c 04       		.uleb128 .LEHE3-.LEHB3
 478 001d 00       		.uleb128 0
 479 001e 00       		.uleb128 0
 480              	.LLSDACSE6245:
 481              		.section	.text._ZN6tflite35NdArrayDescsForElementwiseBroadcastILi4EEEvRKNS_12RuntimeShapeES3_PNS_1
 482              		.fnend
 484              		.section	.text._ZN6tflite3ops5micro11activations25BroadcastPrelu4DSlowFloatERKNS_12RuntimeShapeEPK
 485              		.align	2
 486              		.weak	_ZN6tflite3ops5micro11activations25BroadcastPrelu4DSlowFloatERKNS_12RuntimeShapeEPKfS5_S7_S5
 487              		.syntax unified
 488              		.arm
 489              		.fpu neon
 491              	_ZN6tflite3ops5micro11activations25BroadcastPrelu4DSlowFloatERKNS_12RuntimeShapeEPKfS5_S7_S5_Pf:
 492              		.fnstart
 493              	.LFB6218:
 494              		@ args = 8, pretend = 0, frame = 88
 495              		@ frame_needed = 0, uses_anonymous_args = 0
 496 0000 F04F2DE9 		push	{r4, r5, r6, r7, r8, r9, r10, fp, lr}
 497              		.save {r4, r5, r6, r7, r8, r9, r10, fp, lr}
 498 0004 03B0A0E1 		mov	fp, r3
 499 0008 003090E5 		ldr	r3, [r0]
 500              		.pad #100
 501 000c 64D04DE2 		sub	sp, sp, #100
 502 0010 0250A0E1 		mov	r5, r2
 503 0014 88209DE5 		ldr	r2, [sp, #136]
 504 0018 040053E3 		cmp	r3, #4
 505 001c 000000DA 		ble	.L71
 506              	.L72:
 507              	.LEHB4:
 508 0020 FEFFFFEB 		bl	abort
 509              	.L71:
 510 0024 003095E5 		ldr	r3, [r5]
 511 0028 040053E3 		cmp	r3, #4
 512 002c FBFFFFCA 		bgt	.L72
 513 0030 003092E5 		ldr	r3, [r2]
 514 0034 040053E3 		cmp	r3, #4
 515 0038 F8FFFFCA 		bgt	.L72
 516 003c 0040A0E1 		mov	r4, r0
 517 0040 0130A0E3 		mov	r3, #1
 518 0044 01A0A0E1 		mov	r10, r1
 519 0048 0C008DE2 		add	r0, sp, #12
 520 004c 0410A0E3 		mov	r1, #4
 521 0050 FEFFFFEB 		bl	_ZN6tflite12RuntimeShapeC1EiRKS0_i
 522              	.LEHE4:
 523 0054 40308DE2 		add	r3, sp, #64
 524 0058 20208DE2 		add	r2, sp, #32
 525 005c 0510A0E1 		mov	r1, r5
 526 0060 0400A0E1 		mov	r0, r4
 527              	.LEHB5:
 528 0064 FEFFFFEB 		bl	_ZN6tflite35NdArrayDescsForElementwiseBroadcastILi4EEEvRKNS_12RuntimeShapeES3_PNS_11NdArrayDesc
 529 0068 0040A0E3 		mov	r4, #0
 530              	.L81:
 531 006c 0010A0E3 		mov	r1, #0
 532 0070 0C008DE2 		add	r0, sp, #12
 533 0074 FEFFFFEB 		bl	_ZNK6tflite12RuntimeShape4DimsEi
 534 0078 000054E1 		cmp	r4, r0
 535 007c 370000AA 		bge	.L73
 536 0080 0050A0E3 		mov	r5, #0
 537              	.L80:
 538 0084 0110A0E3 		mov	r1, #1
 539 0088 0C008DE2 		add	r0, sp, #12
 540 008c FEFFFFEB 		bl	_ZNK6tflite12RuntimeShape4DimsEi
 541 0090 000055E1 		cmp	r5, r0
 542 0094 2F0000AA 		bge	.L74
 543 0098 0060A0E3 		mov	r6, #0
 544              	.L79:
 545 009c 0210A0E3 		mov	r1, #2
 546 00a0 0C008DE2 		add	r0, sp, #12
 547 00a4 FEFFFFEB 		bl	_ZNK6tflite12RuntimeShape4DimsEi
 548 00a8 000056E1 		cmp	r6, r0
 549 00ac 270000AA 		bge	.L75
 550 00b0 0070A0E3 		mov	r7, #0
 551              	.L78:
 552 00b4 0310A0E3 		mov	r1, #3
 553 00b8 0C008DE2 		add	r0, sp, #12
 554 00bc FEFFFFEB 		bl	_ZNK6tflite12RuntimeShape4DimsEi
 555 00c0 000057E1 		cmp	r7, r0
 556 00c4 1F0000AA 		bge	.L76
 557 00c8 00708DE5 		str	r7, [sp]
 558 00cc 0630A0E1 		mov	r3, r6
 559 00d0 0520A0E1 		mov	r2, r5
 560 00d4 0410A0E1 		mov	r1, r4
 561 00d8 0C008DE2 		add	r0, sp, #12
 562 00dc FEFFFFEB 		bl	_ZN6tflite6OffsetERKNS_12RuntimeShapeEiiii
 563 00e0 0080A0E1 		mov	r8, r0
 564 00e4 00708DE5 		str	r7, [sp]
 565 00e8 0630A0E1 		mov	r3, r6
 566 00ec 0520A0E1 		mov	r2, r5
 567 00f0 0410A0E1 		mov	r1, r4
 568 00f4 20008DE2 		add	r0, sp, #32
 569 00f8 FEFFFFEB 		bl	_ZN6tflite16SubscriptToIndexERKNS_11NdArrayDescILi4EEEiiii
 570 00fc 0090A0E1 		mov	r9, r0
 571 0100 00708DE5 		str	r7, [sp]
 572 0104 0630A0E1 		mov	r3, r6
 573 0108 0520A0E1 		mov	r2, r5
 574 010c 0410A0E1 		mov	r1, r4
 575 0110 40008DE2 		add	r0, sp, #64
 576 0114 FEFFFFEB 		bl	_ZN6tflite16SubscriptToIndexERKNS_11NdArrayDescILi4EEEiiii
 577              	.LEHE5:
 578 0118 09918AE0 		add	r9, r10, r9, lsl #2
 579 011c 00018BE0 		add	r0, fp, r0, lsl #2
 580 0120 8C309DE5 		ldr	r3, [sp, #140]
 581 0124 007AD9ED 		vldr.32	s15, [r9]
 582 0128 017087E2 		add	r7, r7, #1
 583 012c 007A90ED 		vldr.32	s14, [r0]
 584 0130 088183E0 		add	r8, r3, r8, lsl #2
 585 0134 C07AF5EE 		vcmpe.f32	s15, #0
 586 0138 10FAF1EE 		vmrs	APSR_nzcv, FPSCR
 587 013c 877A67BE 		vmullt.f32	s15, s15, s14
 588 0140 007AC8ED 		vstr.32	s15, [r8]
 589 0144 DAFFFFEA 		b	.L78
 590              	.L76:
 591 0148 016086E2 		add	r6, r6, #1
 592 014c D2FFFFEA 		b	.L79
 593              	.L75:
 594 0150 015085E2 		add	r5, r5, #1
 595 0154 CAFFFFEA 		b	.L80
 596              	.L74:
 597 0158 014084E2 		add	r4, r4, #1
 598 015c C2FFFFEA 		b	.L81
 599              	.L73:
 600 0160 0C008DE2 		add	r0, sp, #12
 601 0164 FEFFFFEB 		bl	_ZN6tflite12RuntimeShapeD1Ev
 602 0168 64D08DE2 		add	sp, sp, #100
 603              		@ sp needed
 604 016c F08FBDE8 		pop	{r4, r5, r6, r7, r8, r9, r10, fp, pc}
 605              	.L83:
 606 0170 0C008DE2 		add	r0, sp, #12
 607 0174 FEFFFFEB 		bl	_ZN6tflite12RuntimeShapeD1Ev
 608              	.LEHB6:
 609 0178 FEFFFFEB 		bl	__cxa_end_cleanup
 610              	.LEHE6:
 611              		.personality	__gxx_personality_v0
 612              		.handlerdata
 613              	.LLSDA6218:
 614 0008 FF       		.byte	0xff
 615 0009 FF       		.byte	0xff
 616 000a 01       		.byte	0x1
 617 000b 0F       		.uleb128 .LLSDACSE6218-.LLSDACSB6218
 618              	.LLSDACSB6218:
 619 000c 20       		.uleb128 .LEHB4-.LFB6218
 620 000d 34       		.uleb128 .LEHE4-.LEHB4
 621 000e 00       		.uleb128 0
 622 000f 00       		.uleb128 0
 623 0010 64       		.uleb128 .LEHB5-.LFB6218
 624 0011 B401     		.uleb128 .LEHE5-.LEHB5
 625 0013 F002     		.uleb128 .L83-.LFB6218
 626 0015 00       		.uleb128 0
 627 0016 F802     		.uleb128 .LEHB6-.LFB6218
 628 0018 04       		.uleb128 .LEHE6-.LEHB6
 629 0019 00       		.uleb128 0
 630 001a 00       		.uleb128 0
 631              	.LLSDACSE6218:
 632              		.section	.text._ZN6tflite3ops5micro11activations25BroadcastPrelu4DSlowFloatERKNS_12RuntimeShapeEPK
 633              		.fnend
 635              		.section	.text._ZN6tflite13reference_ops20BroadcastPrelu4DSlowERKNS_11PreluParamsERKNS_12RuntimeSh
 636              		.align	2
 637              		.weak	_ZN6tflite13reference_ops20BroadcastPrelu4DSlowERKNS_11PreluParamsERKNS_12RuntimeShapeEPKhS6
 638              		.syntax unified
 639              		.arm
 640              		.fpu neon
 642              	_ZN6tflite13reference_ops20BroadcastPrelu4DSlowERKNS_11PreluParamsERKNS_12RuntimeShapeEPKhS6_S8_S6_
 643              		.fnstart
 644              	.LFB3305:
 645              		@ args = 12, pretend = 0, frame = 96
 646              		@ frame_needed = 0, uses_anonymous_args = 0
 647 0000 F04F2DE9 		push	{r4, r5, r6, r7, r8, r9, r10, fp, lr}
 648              		.save {r4, r5, r6, r7, r8, r9, r10, fp, lr}
 649 0004 0350A0E1 		mov	r5, r3
 650 0008 003091E5 		ldr	r3, [r1]
 651 000c 028B2DED 		vpush.64	{d8}
 652              		.vsave {d8}
 653              		.pad #108
 654 0010 6CD04DE2 		sub	sp, sp, #108
 655 0014 040053E3 		cmp	r3, #4
 656 0018 0C208DE5 		str	r2, [sp, #12]
 657 001c 9C209DE5 		ldr	r2, [sp, #156]
 658 0020 000000DA 		ble	.L87
 659              	.L88:
 660              	.LEHB7:
 661 0024 FEFFFFEB 		bl	abort
 662              	.L87:
 663 0028 003095E5 		ldr	r3, [r5]
 664 002c 040053E3 		cmp	r3, #4
 665 0030 FBFFFFCA 		bgt	.L88
 666 0034 003092E5 		ldr	r3, [r2]
 667 0038 040053E3 		cmp	r3, #4
 668 003c F8FFFFCA 		bgt	.L88
 669 0040 0140A0E1 		mov	r4, r1
 670 0044 0130A0E3 		mov	r3, #1
 671 0048 0410A0E3 		mov	r1, #4
 672 004c 0080A0E1 		mov	r8, r0
 673 0050 14008DE2 		add	r0, sp, #20
 674 0054 FEFFFFEB 		bl	_ZN6tflite12RuntimeShapeC1EiRKS0_i
 675              	.LEHE7:
 676 0058 48308DE2 		add	r3, sp, #72
 677 005c 28208DE2 		add	r2, sp, #40
 678 0060 0510A0E1 		mov	r1, r5
 679 0064 0400A0E1 		mov	r0, r4
 680              	.LEHB8:
 681 0068 FEFFFFEB 		bl	_ZN6tflite35NdArrayDescsForElementwiseBroadcastILi4EEEvRKNS_12RuntimeShapeES3_PNS_11NdArrayDesc
 682 006c 7D8B9FED 		vldr.64	d8, .L112	@ int
 683 0070 0040A0E3 		mov	r4, #0
 684              	.L103:
 685 0074 0010A0E3 		mov	r1, #0
 686 0078 14008DE2 		add	r0, sp, #20
 687 007c FEFFFFEB 		bl	_ZNK6tflite12RuntimeShape4DimsEi
 688 0080 000054E1 		cmp	r4, r0
 689 0084 710000AA 		bge	.L89
 690 0088 0050A0E3 		mov	r5, #0
 691              	.L102:
 692 008c 0110A0E3 		mov	r1, #1
 693 0090 14008DE2 		add	r0, sp, #20
 694 0094 FEFFFFEB 		bl	_ZNK6tflite12RuntimeShape4DimsEi
 695 0098 000055E1 		cmp	r5, r0
 696 009c 690000AA 		bge	.L90
 697 00a0 0060A0E3 		mov	r6, #0
 698              	.L101:
 699 00a4 0210A0E3 		mov	r1, #2
 700 00a8 14008DE2 		add	r0, sp, #20
 701 00ac FEFFFFEB 		bl	_ZNK6tflite12RuntimeShape4DimsEi
 702 00b0 000056E1 		cmp	r6, r0
 703 00b4 610000AA 		bge	.L91
 704 00b8 0070A0E3 		mov	r7, #0
 705              	.L100:
 706 00bc 0310A0E3 		mov	r1, #3
 707 00c0 14008DE2 		add	r0, sp, #20
 708 00c4 FEFFFFEB 		bl	_ZNK6tflite12RuntimeShape4DimsEi
 709 00c8 000057E1 		cmp	r7, r0
 710 00cc 590000AA 		bge	.L92
 711 00d0 00708DE5 		str	r7, [sp]
 712 00d4 0630A0E1 		mov	r3, r6
 713 00d8 0520A0E1 		mov	r2, r5
 714 00dc 0410A0E1 		mov	r1, r4
 715 00e0 14008DE2 		add	r0, sp, #20
 716 00e4 FEFFFFEB 		bl	_ZN6tflite6OffsetERKNS_12RuntimeShapeEiiii
 717 00e8 0090A0E1 		mov	r9, r0
 718 00ec 00708DE5 		str	r7, [sp]
 719 00f0 0630A0E1 		mov	r3, r6
 720 00f4 0520A0E1 		mov	r2, r5
 721 00f8 0410A0E1 		mov	r1, r4
 722 00fc 28008DE2 		add	r0, sp, #40
 723 0100 FEFFFFEB 		bl	_ZN6tflite16SubscriptToIndexERKNS_11NdArrayDescILi4EEEiiii
 724 0104 0C309DE5 		ldr	r3, [sp, #12]
 725 0108 00B098E5 		ldr	fp, [r8]
 726 010c 0030D3E7 		ldrb	r3, [r3, r0]	@ zero_extendqisi2
 727 0110 0BB093E0 		adds	fp, r3, fp
 728 0114 A0209D55 		ldrpl	r2, [sp, #160]
 729 0118 0930C257 		strbpl	r3, [r2, r9]
 730 011c 4300005A 		bpl	.L94
 731 0120 00708DE5 		str	r7, [sp]
 732 0124 0630A0E1 		mov	r3, r6
 733 0128 0520A0E1 		mov	r2, r5
 734 012c 0410A0E1 		mov	r1, r4
 735 0130 48008DE2 		add	r0, sp, #72
 736 0134 FEFFFFEB 		bl	_ZN6tflite16SubscriptToIndexERKNS_11NdArrayDescILi4EEEiiii
 737 0138 98309DE5 		ldr	r3, [sp, #152]
 738 013c 042098E5 		ldr	r2, [r8, #4]
 739 0140 0CE098E5 		ldr	lr, [r8, #12]
 740 0144 0030D3E7 		ldrb	r3, [r3, r0]	@ zero_extendqisi2
 741 0148 08C098E5 		ldr	ip, [r8, #8]
 742 014c 101098E5 		ldr	r1, [r8, #16]
 743 0150 023083E0 		add	r3, r3, r2
 744 0154 9B030BE0 		mul	fp, fp, r3
 745 0158 9B2EC3E0 		smull	r2, r3, fp, lr
 746 015c 000052E3 		cmp	r2, #0
 747 0160 0000D3E2 		sbcs	r0, r3, #0
 748 0164 0101A0A3 		movge	r0, #1073741824
 749 0168 0701A0B3 		movlt	r0, #-1073741823
 750 016c 0E005BE1 		cmp	fp, lr
 751 0170 02015B03 		cmpeq	fp, #-2147483648
 752 0174 0221E003 		mvneq	r2, #-2147483648
 753 0178 0800000A 		beq	.L96
 754 017c 00A092E0 		adds	r10, r2, r0
 755 0180 C0BFA3E0 		adc	fp, r3, r0, asr #31
 756 0184 0030A0E3 		mov	r3, #0
 757 0188 CB2FA0E1 		asr	r2, fp, #31
 758 018c 0221C2E3 		bic	r2, r2, #-2147483648
 759 0190 0A2092E0 		adds	r2, r2, r10
 760 0194 A22FA0E1 		lsr	r2, r2, #31
 761 0198 0B30A3E0 		adc	r3, r3, fp
 762 019c 832082E1 		orr	r2, r2, r3, lsl #1
 763              	.L96:
 764 01a0 000051E3 		cmp	r1, #0
 765 01a4 003061E2 		rsb	r3, r1, #0
 766 01a8 070000DA 		ble	.L97
 767 01ac BC309FE5 		ldr	r3, .L112+8
 768 01b0 661100E3 		movw	r1, #358
 769 01b4 B8209FE5 		ldr	r2, .L112+12
 770 01b8 B8009FE5 		ldr	r0, .L112+16
 771 01bc FEFFFFEB 		bl	__assert_func
 772              	.LEHE8:
 773              	.L109:
 774 01c0 14008DE2 		add	r0, sp, #20
 775 01c4 FEFFFFEB 		bl	_ZN6tflite12RuntimeShapeD1Ev
 776              	.LEHB9:
 777 01c8 FEFFFFEB 		bl	__cxa_end_cleanup
 778              	.LEHE9:
 779              	.L97:
 780 01cc 1F0071E3 		cmn	r1, #31
 781 01d0 040000AA 		bge	.L98
 782 01d4 A0309FE5 		ldr	r3, .L112+20
 783 01d8 671100E3 		movw	r1, #359
 784 01dc 90209FE5 		ldr	r2, .L112+12
 785 01e0 90009FE5 		ldr	r0, .L112+16
 786              	.LEHB10:
 787 01e4 FEFFFFEB 		bl	__assert_func
 788              	.LEHE10:
 789              	.L98:
 790 01e8 903B01EE 		vmov.32	d17[0], r3
 791 01ec 880471F3 		vshl.u64	d16, d8, d17
 792 01f0 300B51EC 		vmov	r0, r1, d16	@ int
 793 01f4 010040E2 		sub	r0, r0, #1
 794 01f8 021000E0 		and	r1, r0, r2
 795 01fc C000A0E1 		asr	r0, r0, #1
 796 0200 A20F80E0 		add	r0, r0, r2, lsr #31
 797 0204 5223A0E1 		asr	r2, r2, r3
 798 0208 000051E1 		cmp	r1, r0
 799 020c 012082C2 		addgt	r2, r2, #1
 800 0210 0CC082E0 		add	ip, r2, ip
 801 0214 00005CE3 		cmp	ip, #0
 802 0218 00C0A0D3 		movle	ip, #0
 803 021c 010000DA 		ble	.L99
 804 0220 FF005CE3 		cmp	ip, #255
 805 0224 FFC0A0A3 		movge	ip, #255
 806              	.L99:
 807 0228 A0309DE5 		ldr	r3, [sp, #160]
 808 022c 09C0C3E7 		strb	ip, [r3, r9]
 809              	.L94:
 810 0230 017087E2 		add	r7, r7, #1
 811 0234 A0FFFFEA 		b	.L100
 812              	.L92:
 813 0238 016086E2 		add	r6, r6, #1
 814 023c 98FFFFEA 		b	.L101
 815              	.L91:
 816 0240 015085E2 		add	r5, r5, #1
 817 0244 90FFFFEA 		b	.L102
 818              	.L90:
 819 0248 014084E2 		add	r4, r4, #1
 820 024c 88FFFFEA 		b	.L103
 821              	.L89:
 822 0250 14008DE2 		add	r0, sp, #20
 823 0254 FEFFFFEB 		bl	_ZN6tflite12RuntimeShapeD1Ev
 824 0258 6CD08DE2 		add	sp, sp, #108
 825              		@ sp needed
 826 025c 028BBDEC 		vldm	sp!, {d8}
 827 0260 F08FBDE8 		pop	{r4, r5, r6, r7, r8, r9, r10, fp, pc}
 828              	.L113:
 829 0264 00F020E3 		.align	3
 830              	.L112:
 831 0268 01000000 		.word	1
 832 026c 00000000 		.word	0
 833 0270 00000000 		.word	.LC0
 834 0274 00000000 		.word	.LANCHOR1
 835 0278 0E000000 		.word	.LC1
 836 027c 98000000 		.word	.LC2
 837              		.personality	__gxx_personality_v0
 838              		.handlerdata
 839              	.LLSDA3305:
 840 000c FF       		.byte	0xff
 841 000d FF       		.byte	0xff
 842 000e 01       		.byte	0x1
 843 000f 15       		.uleb128 .LLSDACSE3305-.LLSDACSB3305
 844              	.LLSDACSB3305:
 845 0010 24       		.uleb128 .LEHB7-.LFB3305
 846 0011 34       		.uleb128 .LEHE7-.LEHB7
 847 0012 00       		.uleb128 0
 848 0013 00       		.uleb128 0
 849 0014 68       		.uleb128 .LEHB8-.LFB3305
 850 0015 D802     		.uleb128 .LEHE8-.LEHB8
 851 0017 C003     		.uleb128 .L109-.LFB3305
 852 0019 00       		.uleb128 0
 853 001a C803     		.uleb128 .LEHB9-.LFB3305
 854 001c 04       		.uleb128 .LEHE9-.LEHB9
 855 001d 00       		.uleb128 0
 856 001e 00       		.uleb128 0
 857 001f E403     		.uleb128 .LEHB10-.LFB3305
 858 0021 04       		.uleb128 .LEHE10-.LEHB10
 859 0022 C003     		.uleb128 .L109-.LFB3305
 860 0024 00       		.uleb128 0
 861              	.LLSDACSE3305:
 862              		.section	.text._ZN6tflite13reference_ops20BroadcastPrelu4DSlowERKNS_11PreluParamsERKNS_12RuntimeSh
 863              		.fnend
 865              		.section	.text._ZN6tflite3ops5micro11activations9PreluEvalEP13TfLiteContextP10TfLiteNode,"ax",%pro
 866              		.align	2
 867              		.global	_ZN6tflite3ops5micro11activations9PreluEvalEP13TfLiteContextP10TfLiteNode
 868              		.syntax unified
 869              		.arm
 870              		.fpu neon
 872              	_ZN6tflite3ops5micro11activations9PreluEvalEP13TfLiteContextP10TfLiteNode:
 873              		.fnstart
 874              	.LFB6219:
 875              		@ args = 0, pretend = 0, frame = 88
 876              		@ frame_needed = 0, uses_anonymous_args = 0
 877 0000 003091E5 		ldr	r3, [r1]
 878 0004 0020A0E3 		mov	r2, #0
 879 0008 F0432DE9 		push	{r4, r5, r6, r7, r8, r9, lr}
 880              		.save {r4, r5, r6, r7, r8, r9, lr}
 881              		.pad #108
 882 000c 6CD04DE2 		sub	sp, sp, #108
 883 0010 087090E5 		ldr	r7, [r0, #8]
 884 0014 0080A0E1 		mov	r8, r0
 885 0018 049093E5 		ldr	r9, [r3, #4]
 886 001c 084093E5 		ldr	r4, [r3, #8]
 887 0020 043091E5 		ldr	r3, [r1, #4]
 888 0024 10208DE5 		str	r2, [sp, #16]
 889 0028 096387E0 		add	r6, r7, r9, lsl #6
 890 002c 14208DE5 		str	r2, [sp, #20]
 891 0030 043093E5 		ldr	r3, [r3, #4]
 892 0034 044387E0 		add	r4, r7, r4, lsl #6
 893 0038 035387E0 		add	r5, r7, r3, lsl #6
 894 003c 0333D7E7 		ldrb	r3, [r7, r3, lsl #6]	@ zero_extendqisi2
 895 0040 FB3003E2 		and	r3, r3, #251
 896 0044 030053E3 		cmp	r3, #3
 897 0048 0A00001A 		bne	.L115
 898 004c 030A96ED 		vldr.32	s0, [r6, #12]
 899 0050 14108DE2 		add	r1, sp, #20
 900 0054 10008DE2 		add	r0, sp, #16
 901 0058 C00AF7EE 		vcvt.f64.f32	d16, s0
 902 005c 030A94ED 		vldr.32	s0, [r4, #12]
 903 0060 C00AB7EE 		vcvt.f64.f32	d0, s0
 904 0064 800B60EE 		vmul.f64	d16, d16, d0
 905 0068 030A95ED 		vldr.32	s0, [r5, #12]
 906 006c C00AB7EE 		vcvt.f64.f32	d0, s0
 907 0070 800B80EE 		vdiv.f64	d0, d16, d0
 908              	.LEHB11:
 909 0074 FEFFFFEB 		bl	_ZN6tflite35QuantizeMultiplierSmallerThanOneExpEdPlPi
 910              	.L115:
 911 0078 0903D7E7 		ldrb	r0, [r7, r9, lsl #6]	@ zero_extendqisi2
 912 007c 010050E3 		cmp	r0, #1
 913 0080 0900000A 		beq	.L117
 914 0084 030050E3 		cmp	r0, #3
 915 0088 2500000A 		beq	.L118
 916 008c 144098E5 		ldr	r4, [r8, #20]
 917 0090 FEFFFFEB 		bl	TfLiteTypeGetName
 918 0094 48119FE5 		ldr	r1, .L139
 919 0098 0020A0E1 		mov	r2, r0
 920 009c 0800A0E1 		mov	r0, r8
 921 00a0 34FF2FE1 		blx	r4
 922 00a4 0100A0E3 		mov	r0, #1
 923 00a8 1B0000EA 		b	.L135
 924              	.L117:
 925 00ac 0610A0E1 		mov	r1, r6
 926 00b0 2C008DE2 		add	r0, sp, #44
 927 00b4 FEFFFFEB 		bl	_ZN6tflite14GetTensorShapeEPK12TfLiteTensor
 928              	.LEHE11:
 929 00b8 0410A0E1 		mov	r1, r4
 930 00bc 40008DE2 		add	r0, sp, #64
 931 00c0 047096E5 		ldr	r7, [r6, #4]
 932              	.LEHB12:
 933 00c4 FEFFFFEB 		bl	_ZN6tflite14GetTensorShapeEPK12TfLiteTensor
 934              	.LEHE12:
 935 00c8 54608DE2 		add	r6, sp, #84
 936 00cc 000054E3 		cmp	r4, #0
 937 00d0 0510A0E1 		mov	r1, r5
 938 00d4 0600A0E1 		mov	r0, r6
 939 00d8 04409415 		ldrne	r4, [r4, #4]
 940              	.LEHB13:
 941 00dc FEFFFFEB 		bl	_ZN6tflite14GetTensorShapeEPK12TfLiteTensor
 942              	.LEHE13:
 943 00e0 043095E5 		ldr	r3, [r5, #4]
 944 00e4 40208DE2 		add	r2, sp, #64
 945 00e8 00608DE5 		str	r6, [sp]
 946 00ec 0710A0E1 		mov	r1, r7
 947 00f0 2C008DE2 		add	r0, sp, #44
 948 00f4 04308DE5 		str	r3, [sp, #4]
 949 00f8 0430A0E1 		mov	r3, r4
 950              	.LEHB14:
 951 00fc FEFFFFEB 		bl	_ZN6tflite3ops5micro11activations25BroadcastPrelu4DSlowFloatERKNS_12RuntimeShapeEPKfS5_S7_S5_Pf
 952              	.LEHE14:
 953 0100 0600A0E1 		mov	r0, r6
 954              	.L137:
 955 0104 FEFFFFEB 		bl	_ZN6tflite12RuntimeShapeD1Ev
 956 0108 40008DE2 		add	r0, sp, #64
 957 010c FEFFFFEB 		bl	_ZN6tflite12RuntimeShapeD1Ev
 958 0110 2C008DE2 		add	r0, sp, #44
 959 0114 FEFFFFEB 		bl	_ZN6tflite12RuntimeShapeD1Ev
 960 0118 0000A0E3 		mov	r0, #0
 961              	.L135:
 962 011c 6CD08DE2 		add	sp, sp, #108
 963              		@ sp needed
 964 0120 F083BDE8 		pop	{r4, r5, r6, r7, r8, r9, pc}
 965              	.L118:
 966 0124 103096E5 		ldr	r3, [r6, #16]
 967 0128 0610A0E1 		mov	r1, r6
 968 012c 2C008DE2 		add	r0, sp, #44
 969 0130 003063E2 		rsb	r3, r3, #0
 970 0134 18308DE5 		str	r3, [sp, #24]
 971 0138 103094E5 		ldr	r3, [r4, #16]
 972 013c 003063E2 		rsb	r3, r3, #0
 973 0140 1C308DE5 		str	r3, [sp, #28]
 974 0144 103095E5 		ldr	r3, [r5, #16]
 975 0148 20308DE5 		str	r3, [sp, #32]
 976 014c 10309DE5 		ldr	r3, [sp, #16]
 977 0150 24308DE5 		str	r3, [sp, #36]
 978 0154 14309DE5 		ldr	r3, [sp, #20]
 979 0158 28308DE5 		str	r3, [sp, #40]
 980              	.LEHB15:
 981 015c FEFFFFEB 		bl	_ZN6tflite14GetTensorShapeEPK12TfLiteTensor
 982              	.LEHE15:
 983 0160 0410A0E1 		mov	r1, r4
 984 0164 40008DE2 		add	r0, sp, #64
 985 0168 046096E5 		ldr	r6, [r6, #4]
 986              	.LEHB16:
 987 016c FEFFFFEB 		bl	_ZN6tflite14GetTensorShapeEPK12TfLiteTensor
 988              	.LEHE16:
 989 0170 047094E5 		ldr	r7, [r4, #4]
 990 0174 54408DE2 		add	r4, sp, #84
 991 0178 0510A0E1 		mov	r1, r5
 992 017c 0400A0E1 		mov	r0, r4
 993              	.LEHB17:
 994 0180 FEFFFFEB 		bl	_ZN6tflite14GetTensorShapeEPK12TfLiteTensor
 995              	.LEHE17:
 996 0184 043095E5 		ldr	r3, [r5, #4]
 997 0188 0620A0E1 		mov	r2, r6
 998 018c 04408DE5 		str	r4, [sp, #4]
 999 0190 2C108DE2 		add	r1, sp, #44
 1000 0194 00708DE5 		str	r7, [sp]
 1001 0198 18008DE2 		add	r0, sp, #24
 1002 019c 08308DE5 		str	r3, [sp, #8]
 1003 01a0 40308DE2 		add	r3, sp, #64
 1004              	.LEHB18:
 1005 01a4 FEFFFFEB 		bl	_ZN6tflite13reference_ops20BroadcastPrelu4DSlowERKNS_11PreluParamsERKNS_12RuntimeShapeEPKhS6_S8
 1006              	.LEHE18:
 1007 01a8 0400A0E1 		mov	r0, r4
 1008 01ac D4FFFFEA 		b	.L137
 1009              	.L130:
 1010 01b0 0600A0E1 		mov	r0, r6
 1011              	.L138:
 1012 01b4 FEFFFFEB 		bl	_ZN6tflite12RuntimeShapeD1Ev
 1013 01b8 FFFFFFEA 		b	.L125
 1014              	.L129:
 1015              	.L125:
 1016 01bc 40008DE2 		add	r0, sp, #64
 1017 01c0 FEFFFFEB 		bl	_ZN6tflite12RuntimeShapeD1Ev
 1018 01c4 FFFFFFEA 		b	.L126
 1019              	.L128:
 1020              	.L126:
 1021 01c8 2C008DE2 		add	r0, sp, #44
 1022 01cc FEFFFFEB 		bl	_ZN6tflite12RuntimeShapeD1Ev
 1023              	.LEHB19:
 1024 01d0 FEFFFFEB 		bl	__cxa_end_cleanup
 1025              	.LEHE19:
 1026              	.L133:
 1027 01d4 0400A0E1 		mov	r0, r4
 1028 01d8 F5FFFFEA 		b	.L138
 1029              	.L132:
 1030 01dc F6FFFFEA 		b	.L125
 1031              	.L131:
 1032 01e0 F8FFFFEA 		b	.L126
 1033              	.L140:
 1034              		.align	2
 1035              	.L139:
 1036 01e4 00000000 		.word	.LC3
 1037              		.personality	__gxx_personality_v0
 1038              		.handlerdata
 1039              	.LLSDA6219:
 1040 0008 FF       		.byte	0xff
 1041 0009 FF       		.byte	0xff
 1042 000a 01       		.byte	0x1
 1043 000b 32       		.uleb128 .LLSDACSE6219-.LLSDACSB6219
 1044              	.LLSDACSB6219:
 1045 000c 74       		.uleb128 .LEHB11-.LFB6219
 1046 000d 44       		.uleb128 .LEHE11-.LEHB11
 1047 000e 00       		.uleb128 0
 1048 000f 00       		.uleb128 0
 1049 0010 C401     		.uleb128 .LEHB12-.LFB6219
 1050 0012 04       		.uleb128 .LEHE12-.LEHB12
 1051 0013 C803     		.uleb128 .L128-.LFB6219
 1052 0015 00       		.uleb128 0
 1053 0016 DC01     		.uleb128 .LEHB13-.LFB6219
 1054 0018 04       		.uleb128 .LEHE13-.LEHB13
 1055 0019 BC03     		.uleb128 .L129-.LFB6219
 1056 001b 00       		.uleb128 0
 1057 001c FC01     		.uleb128 .LEHB14-.LFB6219
 1058 001e 04       		.uleb128 .LEHE14-.LEHB14
 1059 001f B003     		.uleb128 .L130-.LFB6219
 1060 0021 00       		.uleb128 0
 1061 0022 DC02     		.uleb128 .LEHB15-.LFB6219
 1062 0024 04       		.uleb128 .LEHE15-.LEHB15
 1063 0025 00       		.uleb128 0
 1064 0026 00       		.uleb128 0
 1065 0027 EC02     		.uleb128 .LEHB16-.LFB6219
 1066 0029 04       		.uleb128 .LEHE16-.LEHB16
 1067 002a E003     		.uleb128 .L131-.LFB6219
 1068 002c 00       		.uleb128 0
 1069 002d 8003     		.uleb128 .LEHB17-.LFB6219
 1070 002f 04       		.uleb128 .LEHE17-.LEHB17
 1071 0030 DC03     		.uleb128 .L132-.LFB6219
 1072 0032 00       		.uleb128 0
 1073 0033 A403     		.uleb128 .LEHB18-.LFB6219
 1074 0035 04       		.uleb128 .LEHE18-.LEHB18
 1075 0036 D403     		.uleb128 .L133-.LFB6219
 1076 0038 00       		.uleb128 0
 1077 0039 D003     		.uleb128 .LEHB19-.LFB6219
 1078 003b 04       		.uleb128 .LEHE19-.LEHB19
 1079 003c 00       		.uleb128 0
 1080 003d 00       		.uleb128 0
 1081              	.LLSDACSE6219:
 1082              		.section	.text._ZN6tflite3ops5micro11activations9PreluEvalEP13TfLiteContextP10TfLiteNode
 1083              		.fnend
 1085              		.weak	_ZN11flatbuffers25flatbuffer_version_stringE
 1086              		.section	.bss._ZZN6tflite3ops5micro14Register_PRELUEvE1r,"aw",%nobits
 1087              		.align	2
 1088              		.set	.LANCHOR0,. + 0
 1091              	_ZZN6tflite3ops5micro14Register_PRELUEvE1r:
 1092 0000 00000000 		.space	32
 1092      00000000 
 1092      00000000 
 1092      00000000 
 1092      00000000 
 1093              		.section	.data._ZN11flatbuffers25flatbuffer_version_stringE,"aw",%progbits
 1094              		.align	2
 1097              	_ZN11flatbuffers25flatbuffer_version_stringE:
 1098 0000 00000000 		.word	.LC4
 1099              		.section	.rodata._ZN6tflite13reference_ops20BroadcastPrelu4DSlowERKNS_11PreluParamsERKNS_12Runtime
 1100              	.LC0:
 1101 0000 6578706F 		.ascii	"exponent >= 0\000"
 1101      6E656E74 
 1101      203E3D20 
 1101      3000
 1102              	.LC1:
 1103 000e 433A2F52 		.ascii	"C:/Renesas/e2studio_2021_01_workspace_RZA2M_ANPR/AN"
 1103      656E6573 
 1103      61732F65 
 1103      32737475 
 1103      64696F5F 
 1104 0041 50525F52 		.ascii	"PR_RZA2M_GR_MANGO/src/tensorflow_lite/src/third_par"
 1104      5A41324D 
 1104      5F47525F 
 1104      4D414E47 
 1104      4F2F7372 
 1105 0074 74792F67 		.ascii	"ty/gemmlowp/fixedpoint/fixedpoint.h\000"
 1105      656D6D6C 
 1105      6F77702F 
 1105      66697865 
 1105      64706F69 
 1106              	.LC2:
 1107 0098 6578706F 		.ascii	"exponent <= 31\000"
 1107      6E656E74 
 1107      203C3D20 
 1107      333100
 1108              		.section	.rodata._ZN6tflite3ops5micro11activations9PreluEvalEP13TfLiteContextP10TfLiteNode.str1.1,
 1109              	.LC3:
 1110 0000 4F6E6C79 		.ascii	"Only float32 and uint8 are supported currently, got"
 1110      20666C6F 
 1110      61743332 
 1110      20616E64 
 1110      2075696E 
 1111 0033 2025642E 		.ascii	" %d.\000"
 1111      00
 1112              		.section	.rodata._ZZN8gemmlowp19RoundingDivideByPOTIlEET_S1_iE19__PRETTY_FUNCTION__,"a",%progbits
 1113              		.set	.LANCHOR1,. + 0
 1116              	_ZZN8gemmlowp19RoundingDivideByPOTIlEET_S1_iE19__PRETTY_FUNCTION__:
 1117 0000 496E7465 		.ascii	"IntegerType gemmlowp::RoundingDivideByPOT(IntegerTy"
 1117      67657254 
 1117      79706520 
 1117      67656D6D 
 1117      6C6F7770 
 1118 0033 70652C20 		.ascii	"pe, int) [with IntegerType = long int]\000"
 1118      696E7429 
 1118      205B7769 
 1118      74682049 
 1118      6E746567 
 1119              		.section	.rodata.str1.1,"aMS",%progbits,1
 1120              	.LC4:
 1121 0000 466C6174 		.ascii	"FlatBuffers 1.11.0\000"
 1121      42756666 
 1121      65727320 
 1121      312E3131 
 1121      2E3000
 1122              		.ident	"GCC: (GNU Tools for ARM Embedded Processors 6-2017-q2-update) 6.3.1 20170620 (release) [AR