   1              		.cpu cortex-a9
   2              		.eabi_attribute 28, 1
   3              		.eabi_attribute 20, 1
   4              		.eabi_attribute 21, 1
   5              		.eabi_attribute 23, 3
   6              		.eabi_attribute 24, 1
   7              		.eabi_attribute 25, 1
   8              		.eabi_attribute 26, 1
   9              		.eabi_attribute 30, 4
  10              		.eabi_attribute 34, 0
  11              		.eabi_attribute 18, 4
  12              		.file	"quantize.cpp"
  13              		.section	.text._ZN6tflite3ops5micro8quantize4InitEP13TfLiteContextPKcj,"ax",%progbits
  14              		.align	2
  15              		.global	_ZN6tflite3ops5micro8quantize4InitEP13TfLiteContextPKcj
  16              		.syntax unified
  17              		.arm
  18              		.fpu neon
  20              	_ZN6tflite3ops5micro8quantize4InitEP13TfLiteContextPKcj:
  21              		.fnstart
  22              	.LFB6217:
  23              		@ args = 0, pretend = 0, frame = 0
  24              		@ frame_needed = 0, uses_anonymous_args = 0
  25              		@ link register save eliminated.
  26 0000 0000A0E3 		mov	r0, #0
  27 0004 1EFF2FE1 		bx	lr
  28              		.cantunwind
  29              		.fnend
  31              		.section	.text._ZN6tflite3ops5micro8quantize4FreeEP13TfLiteContextPv,"ax",%progbits
  32              		.align	2
  33              		.global	_ZN6tflite3ops5micro8quantize4FreeEP13TfLiteContextPv
  34              		.syntax unified
  35              		.arm
  36              		.fpu neon
  38              	_ZN6tflite3ops5micro8quantize4FreeEP13TfLiteContextPv:
  39              		.fnstart
  40              	.LFB6218:
  41              		@ args = 0, pretend = 0, frame = 0
  42              		@ frame_needed = 0, uses_anonymous_args = 0
  43              		@ link register save eliminated.
  44 0000 1EFF2FE1 		bx	lr
  45              		.cantunwind
  46              		.fnend
  48              		.section	.text._ZN6tflite3ops5micro8quantize7PrepareEP13TfLiteContextP10TfLiteNode,"ax",%progbits
  49              		.align	2
  50              		.global	_ZN6tflite3ops5micro8quantize7PrepareEP13TfLiteContextP10TfLiteNode
  51              		.syntax unified
  52              		.arm
  53              		.fpu neon
  55              	_ZN6tflite3ops5micro8quantize7PrepareEP13TfLiteContextP10TfLiteNode:
  56              		.fnstart
  57              	.LFB6219:
  58              		@ args = 0, pretend = 0, frame = 0
  59              		@ frame_needed = 0, uses_anonymous_args = 0
  60 0000 00C091E5 		ldr	ip, [r1]
  61 0004 30402DE9 		push	{r4, r5, lr}
  62              		.save {r4, r5, lr}
  63              		.pad #20
  64 0008 14D04DE2 		sub	sp, sp, #20
  65 000c 00409CE5 		ldr	r4, [ip]
  66 0010 010054E3 		cmp	r4, #1
  67 0014 0D00000A 		beq	.L4
  68 0018 7C319FE5 		ldr	r3, .L18
  69 001c 0150A0E3 		mov	r5, #1
  70 0020 0C508DE5 		str	r5, [sp, #12]
  71 0024 08408DE5 		str	r4, [sp, #8]
  72 0028 04308DE5 		str	r3, [sp, #4]
  73 002c 6C319FE5 		ldr	r3, .L18+4
  74 0030 00308DE5 		str	r3, [sp]
  75 0034 2230A0E3 		mov	r3, #34
  76 0038 144090E5 		ldr	r4, [r0, #20]
  77              	.L17:
  78 003c 60219FE5 		ldr	r2, .L18+8
  79 0040 60119FE5 		ldr	r1, .L18+12
  80 0044 34FF2FE1 		blx	r4
  81              	.L15:
  82 0048 0540A0E1 		mov	r4, r5
  83 004c 0E0000EA 		b	.L5
  84              	.L4:
  85 0050 041091E5 		ldr	r1, [r1, #4]
  86 0054 005091E5 		ldr	r5, [r1]
  87 0058 010055E3 		cmp	r5, #1
  88 005c 0D00000A 		beq	.L6
  89 0060 34319FE5 		ldr	r3, .L18
  90 0064 0C408DE5 		str	r4, [sp, #12]
  91 0068 08508DE5 		str	r5, [sp, #8]
  92 006c 04308DE5 		str	r3, [sp, #4]
  93 0070 34319FE5 		ldr	r3, .L18+16
  94 0074 28219FE5 		ldr	r2, .L18+8
  95 0078 28119FE5 		ldr	r1, .L18+12
  96 007c 00308DE5 		str	r3, [sp]
  97 0080 2330A0E3 		mov	r3, #35
  98 0084 145090E5 		ldr	r5, [r0, #20]
  99 0088 35FF2FE1 		blx	r5
 100              	.L5:
 101 008c 0400A0E1 		mov	r0, r4
 102 0090 14D08DE2 		add	sp, sp, #20
 103              		@ sp needed
 104 0094 3080BDE8 		pop	{r4, r5, pc}
 105              	.L6:
 106 0098 083090E5 		ldr	r3, [r0, #8]
 107 009c 041091E5 		ldr	r1, [r1, #4]
 108 00a0 01E383E0 		add	lr, r3, r1, lsl #6
 109 00a4 3040DEE5 		ldrb	r4, [lr, #48]	@ zero_extendqisi2
 110 00a8 010054E3 		cmp	r4, #1
 111 00ac 0800000A 		beq	.L7
 112 00b0 F8309FE5 		ldr	r3, .L18+20
 113 00b4 0C508DE5 		str	r5, [sp, #12]
 114 00b8 08408DE5 		str	r4, [sp, #8]
 115 00bc 04308DE5 		str	r3, [sp, #4]
 116 00c0 EC309FE5 		ldr	r3, .L18+24
 117 00c4 00308DE5 		str	r3, [sp]
 118 00c8 2B30A0E3 		mov	r3, #43
 119 00cc 144090E5 		ldr	r4, [r0, #20]
 120 00d0 D9FFFFEA 		b	.L17
 121              	.L7:
 122 00d4 34E09EE5 		ldr	lr, [lr, #52]
 123 00d8 00005EE3 		cmp	lr, #0
 124 00dc 0700001A 		bne	.L8
 125 00e0 D0309FE5 		ldr	r3, .L18+28
 126 00e4 00308DE5 		str	r3, [sp]
 127 00e8 2E30A0E3 		mov	r3, #46
 128 00ec 145090E5 		ldr	r5, [r0, #20]
 129              	.L16:
 130 00f0 AC209FE5 		ldr	r2, .L18+8
 131 00f4 C0109FE5 		ldr	r1, .L18+32
 132 00f8 35FF2FE1 		blx	r5
 133 00fc E2FFFFEA 		b	.L5
 134              	.L8:
 135 0100 00E09EE5 		ldr	lr, [lr]
 136 0104 00005EE3 		cmp	lr, #0
 137 0108 B0309F05 		ldreq	r3, .L18+36
 138 010c 00308D05 		streq	r3, [sp]
 139 0110 2F30A003 		moveq	r3, #47
 140 0114 14509005 		ldreq	r5, [r0, #20]
 141 0118 F4FFFF0A 		beq	.L16
 142              	.L9:
 143 011c 00509EE5 		ldr	r5, [lr]
 144 0120 010055E3 		cmp	r5, #1
 145 0124 98309F15 		ldrne	r3, .L18+40
 146 0128 00308D15 		strne	r3, [sp]
 147 012c 3030A013 		movne	r3, #48
 148 0130 14509015 		ldrne	r5, [r0, #20]
 149 0134 EDFFFF1A 		bne	.L16
 150              	.L10:
 151 0138 04C09CE5 		ldr	ip, [ip, #4]
 152 013c 0CC3D3E7 		ldrb	ip, [r3, ip, lsl #6]	@ zero_extendqisi2
 153 0140 01005CE3 		cmp	ip, #1
 154 0144 07005C13 		cmpne	ip, #7
 155 0148 0700000A 		beq	.L11
 156 014c 74309FE5 		ldr	r3, .L18+44
 157 0150 00308DE5 		str	r3, [sp]
 158 0154 3330A0E3 		mov	r3, #51
 159 0158 144090E5 		ldr	r4, [r0, #20]
 160              	.L14:
 161 015c 40209FE5 		ldr	r2, .L18+8
 162 0160 54109FE5 		ldr	r1, .L18+32
 163 0164 34FF2FE1 		blx	r4
 164 0168 B6FFFFEA 		b	.L15
 165              	.L11:
 166 016c 0133D3E7 		ldrb	r3, [r3, r1, lsl #6]	@ zero_extendqisi2
 167 0170 030053E3 		cmp	r3, #3
 168 0174 09005313 		cmpne	r3, #9
 169 0178 0030A003 		moveq	r3, #0
 170 017c 0130A013 		movne	r3, #1
 171 0180 0340A001 		moveq	r4, r3
 172 0184 C0FFFF0A 		beq	.L5
 173 0188 3C309FE5 		ldr	r3, .L18+48
 174 018c 00308DE5 		str	r3, [sp]
 175 0190 3530A0E3 		mov	r3, #53
 176 0194 144090E5 		ldr	r4, [r0, #20]
 177 0198 EFFFFFEA 		b	.L14
 178              	.L19:
 179              		.align	2
 180              	.L18:
 181 019c 60000000 		.word	.LC2
 182 01a0 62000000 		.word	.LC3
 183 01a4 00000000 		.word	.LC0
 184 01a8 46000000 		.word	.LC1
 185 01ac 72000000 		.word	.LC4
 186 01b0 83000000 		.word	.LC5
 187 01b4 9D000000 		.word	.LC6
 188 01b8 CE000000 		.word	.LC8
 189 01bc B7000000 		.word	.LC7
 190 01c0 E2000000 		.word	.LC9
 191 01c4 FD000000 		.word	.LC10
 192 01c8 23010000 		.word	.LC11
 193 01cc 60010000 		.word	.LC12
 194              		.fnend
 196              		.section	.text._ZN6tflite12RuntimeShapeD2Ev,"axG",%progbits,_ZN6tflite12RuntimeShapeD5Ev,comdat
 197              		.align	2
 198              		.weak	_ZN6tflite12RuntimeShapeD2Ev
 199              		.syntax unified
 200              		.arm
 201              		.fpu neon
 203              	_ZN6tflite12RuntimeShapeD2Ev:
 204              		.fnstart
 205              	.LFB3207:
 206              		@ args = 0, pretend = 0, frame = 0
 207              		@ frame_needed = 0, uses_anonymous_args = 0
 208 0000 003090E5 		ldr	r3, [r0]
 209 0004 10402DE9 		push	{r4, lr}
 210 0008 0040A0E1 		mov	r4, r0
 211 000c 040053E3 		cmp	r3, #4
 212 0010 030000DA 		ble	.L21
 213 0014 040090E5 		ldr	r0, [r0, #4]
 214 0018 000050E3 		cmp	r0, #0
 215 001c 0000000A 		beq	.L21
 216 0020 FEFFFFEB 		bl	_ZdaPv
 217              	.L21:
 218 0024 0400A0E1 		mov	r0, r4
 219 0028 1080BDE8 		pop	{r4, pc}
 220              		.cantunwind
 221              		.fnend
 223              		.weak	_ZN6tflite12RuntimeShapeD1Ev
 224              		.set	_ZN6tflite12RuntimeShapeD1Ev,_ZN6tflite12RuntimeShapeD2Ev
 225              		.section	.text._ZNK6tflite12RuntimeShape4DimsEi,"axG",%progbits,_ZNK6tflite12RuntimeShape4DimsEi,c
 226              		.align	2
 227              		.weak	_ZNK6tflite12RuntimeShape4DimsEi
 228              		.syntax unified
 229              		.arm
 230              		.fpu neon
 232              	_ZNK6tflite12RuntimeShape4DimsEi:
 233              		.fnstart
 234              	.LFB3210:
 235              		@ args = 0, pretend = 0, frame = 0
 236              		@ frame_needed = 0, uses_anonymous_args = 0
 237 0000 000051E3 		cmp	r1, #0
 238 0004 010000AA 		bge	.L27
 239              	.L28:
 240 0008 10402DE9 		push	{r4, lr}
 241              		.save {r4, lr}
 242 000c FEFFFFEB 		bl	abort
 243              	.L27:
 244 0010 003090E5 		ldr	r3, [r0]
 245 0014 010053E1 		cmp	r3, r1
 246 0018 FAFFFFDA 		ble	.L28
 247 001c 040053E3 		cmp	r3, #4
 248 0020 043090C5 		ldrgt	r3, [r0, #4]
 249 0024 010180D0 		addle	r0, r0, r1, lsl #2
 250 0028 040090D5 		ldrle	r0, [r0, #4]
 251 002c 010193C7 		ldrgt	r0, [r3, r1, lsl #2]
 252 0030 1EFF2FE1 		bx	lr
 253              		.fnend
 255              		.section	.text._ZN6tflite16MatchingFlatSizeERKNS_12RuntimeShapeES2_,"axG",%progbits,_ZN6tflite16Ma
 256              		.align	2
 257              		.weak	_ZN6tflite16MatchingFlatSizeERKNS_12RuntimeShapeES2_
 258              		.syntax unified
 259              		.arm
 260              		.fpu neon
 262              	_ZN6tflite16MatchingFlatSizeERKNS_12RuntimeShapeES2_:
 263              		.fnstart
 264              	.LFB3242:
 265              		@ args = 0, pretend = 0, frame = 0
 266              		@ frame_needed = 0, uses_anonymous_args = 0
 267 0000 F0412DE9 		push	{r4, r5, r6, r7, r8, lr}
 268              		.save {r4, r5, r6, r7, r8, lr}
 269 0004 003091E5 		ldr	r3, [r1]
 270 0008 006090E5 		ldr	r6, [r0]
 271 000c 030056E1 		cmp	r6, r3
 272 0010 0040A001 		moveq	r4, r0
 273 0014 0170A001 		moveq	r7, r1
 274 0018 0050A003 		moveq	r5, #0
 275 001c 0000000A 		beq	.L35
 276              	.L34:
 277 0020 FEFFFFEB 		bl	abort
 278              	.L35:
 279 0024 060055E1 		cmp	r5, r6
 280 0028 0A0000AA 		bge	.L36
 281 002c 0510A0E1 		mov	r1, r5
 282 0030 0400A0E1 		mov	r0, r4
 283 0034 FEFFFFEB 		bl	_ZNK6tflite12RuntimeShape4DimsEi
 284 0038 0510A0E1 		mov	r1, r5
 285 003c 0080A0E1 		mov	r8, r0
 286 0040 0700A0E1 		mov	r0, r7
 287 0044 FEFFFFEB 		bl	_ZNK6tflite12RuntimeShape4DimsEi
 288 0048 000058E1 		cmp	r8, r0
 289 004c F3FFFF1A 		bne	.L34
 290 0050 015085E2 		add	r5, r5, #1
 291 0054 F2FFFFEA 		b	.L35
 292              	.L36:
 293 0058 002094E5 		ldr	r2, [r4]
 294 005c 0030A0E3 		mov	r3, #0
 295 0060 0100A0E3 		mov	r0, #1
 296 0064 040052E3 		cmp	r2, #4
 297 0068 044094C5 		ldrgt	r4, [r4, #4]
 298 006c 044084D2 		addle	r4, r4, #4
 299              	.L40:
 300 0070 030052E1 		cmp	r2, r3
 301 0074 F081BDD8 		pople	{r4, r5, r6, r7, r8, pc}
 302 0078 031194E7 		ldr	r1, [r4, r3, lsl #2]
 303 007c 013083E2 		add	r3, r3, #1
 304 0080 910000E0 		mul	r0, r1, r0
 305 0084 F9FFFFEA 		b	.L40
 306              		.fnend
 308              		.section	.text._ZN6tflite14GetTensorShapeEPK12TfLiteTensor,"axG",%progbits,_ZN6tflite14GetTensorSh
 309              		.align	2
 310              		.weak	_ZN6tflite14GetTensorShapeEPK12TfLiteTensor
 311              		.syntax unified
 312              		.arm
 313              		.fpu neon
 315              	_ZN6tflite14GetTensorShapeEPK12TfLiteTensor:
 316              		.fnstart
 317              	.LFB3312:
 318              		@ args = 0, pretend = 0, frame = 0
 319              		@ frame_needed = 0, uses_anonymous_args = 0
 320 0000 000051E3 		cmp	r1, #0
 321 0004 70402DE9 		push	{r4, r5, r6, lr}
 322              		.save {r4, r5, r6, lr}
 323 0008 0040A0E1 		mov	r4, r0
 324 000c 00108005 		streq	r1, [r0]
 325 0010 1100000A 		beq	.L43
 326 0014 085091E5 		ldr	r5, [r1, #8]
 327 0018 003095E5 		ldr	r3, [r5]
 328 001c 040053E3 		cmp	r3, #4
 329 0020 003080E5 		str	r3, [r0]
 330 0024 0361A0E1 		lsl	r6, r3, #2
 331 0028 040000DA 		ble	.L46
 332 002c 2E0273E3 		cmn	r3, #-536870910
 333 0030 0B0000CA 		bgt	.L47
 334 0034 0600A0E1 		mov	r0, r6
 335 0038 FEFFFFEB 		bl	_Znaj
 336 003c 040084E5 		str	r0, [r4, #4]
 337              	.L46:
 338 0040 003094E5 		ldr	r3, [r4]
 339 0044 0620A0E1 		mov	r2, r6
 340 0048 041085E2 		add	r1, r5, #4
 341 004c 040053E3 		cmp	r3, #4
 342 0050 040094C5 		ldrgt	r0, [r4, #4]
 343 0054 040084D2 		addle	r0, r4, #4
 344 0058 FEFFFFEB 		bl	memcpy
 345              	.L43:
 346 005c 0400A0E1 		mov	r0, r4
 347 0060 7080BDE8 		pop	{r4, r5, r6, pc}
 348              	.L47:
 349 0064 FEFFFFEB 		bl	__cxa_throw_bad_array_new_length
 350              		.fnend
 352              		.section	.text._ZN6tflite3ops5micro8quantize4EvalEP13TfLiteContextP10TfLiteNode,"ax",%progbits
 353              		.align	2
 354              		.global	_ZN6tflite3ops5micro8quantize4EvalEP13TfLiteContextP10TfLiteNode
 355              		.syntax unified
 356              		.arm
 357              		.fpu neon
 359              	_ZN6tflite3ops5micro8quantize4EvalEP13TfLiteContextP10TfLiteNode:
 360              		.fnstart
 361              	.LFB6220:
 362              		@ args = 0, pretend = 0, frame = 40
 363              		@ frame_needed = 0, uses_anonymous_args = 0
 364 0000 003091E5 		ldr	r3, [r1]
 365 0004 042091E5 		ldr	r2, [r1, #4]
 366 0008 F0472DE9 		push	{r4, r5, r6, r7, r8, r9, r10, lr}
 367              		.save {r4, r5, r6, r7, r8, r9, r10, lr}
 368 000c 0080A0E1 		mov	r8, r0
 369 0010 085090E5 		ldr	r5, [r0, #8]
 370 0014 043093E5 		ldr	r3, [r3, #4]
 371 0018 049092E5 		ldr	r9, [r2, #4]
 372 001c 028B2DED 		vpush.64	{d8}
 373              		.vsave {d8}
 374              		.pad #40
 375 0020 28D04DE2 		sub	sp, sp, #40
 376 0024 0343D5E7 		ldrb	r4, [r5, r3, lsl #6]	@ zero_extendqisi2
 377 0028 03A385E0 		add	r10, r5, r3, lsl #6
 378 002c 096385E0 		add	r6, r5, r9, lsl #6
 379 0030 010054E3 		cmp	r4, #1
 380 0034 107096E5 		ldr	r7, [r6, #16]
 381 0038 038A96ED 		vldr.32	s16, [r6, #12]
 382 003c 4700001A 		bne	.L52
 383 0040 0933D5E7 		ldrb	r3, [r5, r9, lsl #6]	@ zero_extendqisi2
 384 0044 030053E3 		cmp	r3, #3
 385 0048 1E00000A 		beq	.L54
 386 004c 090053E3 		cmp	r3, #9
 387 0050 3500001A 		bne	.L78
 388 0054 0A10A0E1 		mov	r1, r10
 389 0058 0D00A0E1 		mov	r0, sp
 390              	.LEHB0:
 391 005c FEFFFFEB 		bl	_ZN6tflite14GetTensorShapeEPK12TfLiteTensor
 392              	.LEHE0:
 393 0060 0610A0E1 		mov	r1, r6
 394 0064 14008DE2 		add	r0, sp, #20
 395 0068 04409AE5 		ldr	r4, [r10, #4]
 396              	.LEHB1:
 397 006c FEFFFFEB 		bl	_ZN6tflite14GetTensorShapeEPK12TfLiteTensor
 398              	.LEHE1:
 399 0070 14108DE2 		add	r1, sp, #20
 400 0074 0D00A0E1 		mov	r0, sp
 401 0078 048096E5 		ldr	r8, [r6, #4]
 402              	.LEHB2:
 403 007c FEFFFFEB 		bl	_ZN6tflite16MatchingFlatSizeERKNS_12RuntimeShapeES2_
 404              	.LEHE2:
 405 0080 0090A0E1 		mov	r9, r0
 406 0084 0850A0E1 		mov	r5, r8
 407 0088 7F60E0E3 		mvn	r6, #127
 408              	.L57:
 409 008c 083045E0 		sub	r3, r5, r8
 410 0090 030059E1 		cmp	r9, r3
 411 0094 560000DA 		ble	.L64
 412 0098 010AB4EC 		vldmia.32	r4!, {s0}
 413 009c 080A80EE 		vdiv.f32	s0, s0, s16
 414 00a0 FEFFFFEB 		bl	roundf
 415 00a4 C00ABDEE 		vcvt.s32.f32	s0, s0
 416 00a8 103A10EE 		vmov	r3, s0	@ int
 417 00ac 073083E0 		add	r3, r3, r7
 418 00b0 7F0053E3 		cmp	r3, #127
 419 00b4 7F30A0A3 		movge	r3, #127
 420 00b8 060053E1 		cmp	r3, r6
 421 00bc 0630A0B1 		movlt	r3, r6
 422 00c0 0130C5E4 		strb	r3, [r5], #1
 423 00c4 F0FFFFEA 		b	.L57
 424              	.L54:
 425 00c8 0A10A0E1 		mov	r1, r10
 426 00cc 0D00A0E1 		mov	r0, sp
 427              	.LEHB3:
 428 00d0 FEFFFFEB 		bl	_ZN6tflite14GetTensorShapeEPK12TfLiteTensor
 429              	.LEHE3:
 430 00d4 0610A0E1 		mov	r1, r6
 431 00d8 14008DE2 		add	r0, sp, #20
 432 00dc 04409AE5 		ldr	r4, [r10, #4]
 433              	.LEHB4:
 434 00e0 FEFFFFEB 		bl	_ZN6tflite14GetTensorShapeEPK12TfLiteTensor
 435              	.LEHE4:
 436 00e4 14108DE2 		add	r1, sp, #20
 437 00e8 0D00A0E1 		mov	r0, sp
 438 00ec 046096E5 		ldr	r6, [r6, #4]
 439              	.LEHB5:
 440 00f0 FEFFFFEB 		bl	_ZN6tflite16MatchingFlatSizeERKNS_12RuntimeShapeES2_
 441              	.LEHE5:
 442 00f4 0080A0E1 		mov	r8, r0
 443 00f8 0650A0E1 		mov	r5, r6
 444              	.L60:
 445 00fc 063045E0 		sub	r3, r5, r6
 446 0100 030058E1 		cmp	r8, r3
 447 0104 3A0000DA 		ble	.L64
 448 0108 010AB4EC 		vldmia.32	r4!, {s0}
 449 010c 080A80EE 		vdiv.f32	s0, s0, s16
 450 0110 FEFFFFEB 		bl	roundf
 451 0114 C00ABDEE 		vcvt.s32.f32	s0, s0
 452 0118 103A10EE 		vmov	r3, s0	@ int
 453 011c 073083E0 		add	r3, r3, r7
 454 0120 1330E8E6 		usat	r3, #8, r3
 455 0124 0130C5E4 		strb	r3, [r5], #1
 456 0128 F3FFFFEA 		b	.L60
 457              	.L78:
 458 012c 146090E5 		ldr	r6, [r0, #20]
 459 0130 0400A0E1 		mov	r0, r4
 460              	.LEHB6:
 461 0134 FEFFFFEB 		bl	TfLiteTypeGetName
 462 0138 0070A0E1 		mov	r7, r0
 463 013c 0903D5E7 		ldrb	r0, [r5, r9, lsl #6]	@ zero_extendqisi2
 464 0140 FEFFFFEB 		bl	TfLiteTypeGetName
 465 0144 0720A0E1 		mov	r2, r7
 466 0148 0030A0E1 		mov	r3, r0
 467              	.L82:
 468 014c 0800A0E1 		mov	r0, r8
 469 0150 08119FE5 		ldr	r1, .L84
 470 0154 36FF2FE1 		blx	r6
 471 0158 0100A0E3 		mov	r0, #1
 472 015c 290000EA 		b	.L79
 473              	.L52:
 474 0160 070054E3 		cmp	r4, #7
 475 0164 2A00001A 		bne	.L61
 476 0168 0933D5E7 		ldrb	r3, [r5, r9, lsl #6]	@ zero_extendqisi2
 477 016c 090053E3 		cmp	r3, #9
 478 0170 2700001A 		bne	.L61
 479 0174 0A10A0E1 		mov	r1, r10
 480 0178 0D00A0E1 		mov	r0, sp
 481 017c FEFFFFEB 		bl	_ZN6tflite14GetTensorShapeEPK12TfLiteTensor
 482              	.LEHE6:
 483 0180 0610A0E1 		mov	r1, r6
 484 0184 14008DE2 		add	r0, sp, #20
 485 0188 04409AE5 		ldr	r4, [r10, #4]
 486              	.LEHB7:
 487 018c FEFFFFEB 		bl	_ZN6tflite14GetTensorShapeEPK12TfLiteTensor
 488              	.LEHE7:
 489 0190 14108DE2 		add	r1, sp, #20
 490 0194 0D00A0E1 		mov	r0, sp
 491 0198 046096E5 		ldr	r6, [r6, #4]
 492              	.LEHB8:
 493 019c FEFFFFEB 		bl	_ZN6tflite16MatchingFlatSizeERKNS_12RuntimeShapeES2_
 494              	.LEHE8:
 495 01a0 0090A0E1 		mov	r9, r0
 496 01a4 024044E2 		sub	r4, r4, #2
 497 01a8 0650A0E1 		mov	r5, r6
 498 01ac 7F80E0E3 		mvn	r8, #127
 499              	.L65:
 500 01b0 063045E0 		sub	r3, r5, r6
 501 01b4 090053E1 		cmp	r3, r9
 502 01b8 0D0000AA 		bge	.L64
 503 01bc F230F4E1 		ldrsh	r3, [r4, #2]!
 504 01c0 103A00EE 		vmov	s0, r3	@ int
 505 01c4 C00AB8EE 		vcvt.f32.s32	s0, s0
 506 01c8 080A80EE 		vdiv.f32	s0, s0, s16
 507 01cc FEFFFFEB 		bl	roundf
 508 01d0 C00ABDEE 		vcvt.s32.f32	s0, s0
 509 01d4 103A10EE 		vmov	r3, s0	@ int
 510 01d8 073083E0 		add	r3, r3, r7
 511 01dc 7F0053E3 		cmp	r3, #127
 512 01e0 7F30A0A3 		movge	r3, #127
 513 01e4 080053E1 		cmp	r3, r8
 514 01e8 0830A0B1 		movlt	r3, r8
 515 01ec 0130C5E4 		strb	r3, [r5], #1
 516 01f0 EEFFFFEA 		b	.L65
 517              	.L64:
 518 01f4 14008DE2 		add	r0, sp, #20
 519 01f8 FEFFFFEB 		bl	_ZN6tflite12RuntimeShapeD1Ev
 520 01fc 0D00A0E1 		mov	r0, sp
 521 0200 FEFFFFEB 		bl	_ZN6tflite12RuntimeShapeD1Ev
 522 0204 0000A0E3 		mov	r0, #0
 523              	.L79:
 524 0208 28D08DE2 		add	sp, sp, #40
 525              		@ sp needed
 526 020c 028BBDEC 		vldm	sp!, {d8}
 527 0210 F087BDE8 		pop	{r4, r5, r6, r7, r8, r9, r10, pc}
 528              	.L61:
 529 0214 0400A0E1 		mov	r0, r4
 530 0218 146098E5 		ldr	r6, [r8, #20]
 531              	.LEHB9:
 532 021c FEFFFFEB 		bl	TfLiteTypeGetName
 533 0220 0040A0E1 		mov	r4, r0
 534 0224 0903D5E7 		ldrb	r0, [r5, r9, lsl #6]	@ zero_extendqisi2
 535 0228 FEFFFFEB 		bl	TfLiteTypeGetName
 536 022c 0420A0E1 		mov	r2, r4
 537 0230 0030A0E1 		mov	r3, r0
 538 0234 C4FFFFEA 		b	.L82
 539              	.L73:
 540              	.L83:
 541 0238 14008DE2 		add	r0, sp, #20
 542 023c FEFFFFEB 		bl	_ZN6tflite12RuntimeShapeD1Ev
 543 0240 FFFFFFEA 		b	.L71
 544              	.L72:
 545              	.L71:
 546 0244 0D00A0E1 		mov	r0, sp
 547 0248 FEFFFFEB 		bl	_ZN6tflite12RuntimeShapeD1Ev
 548 024c FEFFFFEB 		bl	__cxa_end_cleanup
 549              	.LEHE9:
 550              	.L75:
 551 0250 F8FFFFEA 		b	.L83
 552              	.L74:
 553 0254 FAFFFFEA 		b	.L71
 554              	.L77:
 555 0258 F6FFFFEA 		b	.L83
 556              	.L76:
 557 025c F8FFFFEA 		b	.L71
 558              	.L85:
 559              		.align	2
 560              	.L84:
 561 0260 00000000 		.word	.LC13
 562              		.global	__gxx_personality_v0
 563              		.personality	__gxx_personality_v0
 564              		.handlerdata
 565              	.LLSDA6220:
 566 000c FF       		.byte	0xff
 567 000d FF       		.byte	0xff
 568 000e 01       		.byte	0x1
 569 000f 35       		.uleb128 .LLSDACSE6220-.LLSDACSB6220
 570              	.LLSDACSB6220:
 571 0010 5C       		.uleb128 .LEHB0-.LFB6220
 572 0011 04       		.uleb128 .LEHE0-.LEHB0
 573 0012 00       		.uleb128 0
 574 0013 00       		.uleb128 0
 575 0014 6C       		.uleb128 .LEHB1-.LFB6220
 576 0015 04       		.uleb128 .LEHE1-.LEHB1
 577 0016 C404     		.uleb128 .L72-.LFB6220
 578 0018 00       		.uleb128 0
 579 0019 7C       		.uleb128 .LEHB2-.LFB6220
 580 001a 04       		.uleb128 .LEHE2-.LEHB2
 581 001b B804     		.uleb128 .L73-.LFB6220
 582 001d 00       		.uleb128 0
 583 001e D001     		.uleb128 .LEHB3-.LFB6220
 584 0020 04       		.uleb128 .LEHE3-.LEHB3
 585 0021 00       		.uleb128 0
 586 0022 00       		.uleb128 0
 587 0023 E001     		.uleb128 .LEHB4-.LFB6220
 588 0025 04       		.uleb128 .LEHE4-.LEHB4
 589 0026 D404     		.uleb128 .L74-.LFB6220
 590 0028 00       		.uleb128 0
 591 0029 F001     		.uleb128 .LEHB5-.LFB6220
 592 002b 04       		.uleb128 .LEHE5-.LEHB5
 593 002c D004     		.uleb128 .L75-.LFB6220
 594 002e 00       		.uleb128 0
 595 002f B402     		.uleb128 .LEHB6-.LFB6220
 596 0031 4C       		.uleb128 .LEHE6-.LEHB6
 597 0032 00       		.uleb128 0
 598 0033 00       		.uleb128 0
 599 0034 8C03     		.uleb128 .LEHB7-.LFB6220
 600 0036 04       		.uleb128 .LEHE7-.LEHB7
 601 0037 DC04     		.uleb128 .L76-.LFB6220
 602 0039 00       		.uleb128 0
 603 003a 9C03     		.uleb128 .LEHB8-.LFB6220
 604 003c 04       		.uleb128 .LEHE8-.LEHB8
 605 003d D804     		.uleb128 .L77-.LFB6220
 606 003f 00       		.uleb128 0
 607 0040 9C04     		.uleb128 .LEHB9-.LFB6220
 608 0042 34       		.uleb128 .LEHE9-.LEHB9
 609 0043 00       		.uleb128 0
 610 0044 00       		.uleb128 0
 611              	.LLSDACSE6220:
 612              		.section	.text._ZN6tflite3ops5micro8quantize4EvalEP13TfLiteContextP10TfLiteNode
 613              		.fnend
 615              		.section	.text._ZN6tflite3ops5micro17Register_QUANTIZEEv,"ax",%progbits
 616              		.align	2
 617              		.global	_ZN6tflite3ops5micro17Register_QUANTIZEEv
 618              		.syntax unified
 619              		.arm
 620              		.fpu neon
 622              	_ZN6tflite3ops5micro17Register_QUANTIZEEv:
 623              		.fnstart
 624              	.LFB6224:
 625              		@ args = 0, pretend = 0, frame = 0
 626              		@ frame_needed = 0, uses_anonymous_args = 0
 627              		@ link register save eliminated.
 628 0000 20009FE5 		ldr	r0, .L87
 629 0004 20309FE5 		ldr	r3, .L87+4
 630 0008 003080E5 		str	r3, [r0]
 631 000c 1C309FE5 		ldr	r3, .L87+8
 632 0010 043080E5 		str	r3, [r0, #4]
 633 0014 18309FE5 		ldr	r3, .L87+12
 634 0018 083080E5 		str	r3, [r0, #8]
 635 001c 14309FE5 		ldr	r3, .L87+16
 636 0020 0C3080E5 		str	r3, [r0, #12]
 637 0024 1EFF2FE1 		bx	lr
 638              	.L88:
 639              		.align	2
 640              	.L87:
 641 0028 00000000 		.word	.LANCHOR0
 642 002c 00000000 		.word	_ZN6tflite3ops5micro8quantize4InitEP13TfLiteContextPKcj
 643 0030 00000000 		.word	_ZN6tflite3ops5micro8quantize4FreeEP13TfLiteContextPv
 644 0034 00000000 		.word	_ZN6tflite3ops5micro8quantize7PrepareEP13TfLiteContextP10TfLiteNode
 645 0038 00000000 		.word	_ZN6tflite3ops5micro8quantize4EvalEP13TfLiteContextP10TfLiteNode
 646              		.cantunwind
 647              		.fnend
 649              		.weak	_ZN11flatbuffers25flatbuffer_version_stringE
 650              		.section	.bss._ZZN6tflite3ops5micro17Register_QUANTIZEEvE1r,"aw",%nobits
 651              		.align	2
 652              		.set	.LANCHOR0,. + 0
 655              	_ZZN6tflite3ops5micro17Register_QUANTIZEEvE1r:
 656 0000 00000000 		.space	32
 656      00000000 
 656      00000000 
 656      00000000 
 656      00000000 
 657              		.section	.data._ZN11flatbuffers25flatbuffer_version_stringE,"aw",%progbits
 658              		.align	2
 661              	_ZN11flatbuffers25flatbuffer_version_stringE:
 662 0000 00000000 		.word	.LC14
 663              		.section	.rodata._ZN6tflite3ops5micro8quantize4EvalEP13TfLiteContextP10TfLiteNode.str1.1,"aMS",%pr
 664              	.LC13:
 665 0000 496E7075 		.ascii	"Input %s, output %s not supported.\000"
 665      74202573 
 665      2C206F75 
 665      74707574 
 665      20257320 
 666              		.section	.rodata._ZN6tflite3ops5micro8quantize7PrepareEP13TfLiteContextP10TfLiteNode.str1.1,"aMS",
 667              	.LC0:
 668 0000 2E2E2F73 		.ascii	"../src/tensorflow_lite/src/tensorflow/lite/micro/ke"
 668      72632F74 
 668      656E736F 
 668      72666C6F 
 668      775F6C69 
 669 0033 726E656C 		.ascii	"rnels/quantize.cpp\000"
 669      732F7175 
 669      616E7469 
 669      7A652E63 
 669      707000
 670              	.LC1:
 671 0046 25733A25 		.ascii	"%s:%d %s != %s (%d != %d)\000"
 671      64202573 
 671      20213D20 
 671      25732028 
 671      25642021 
 672              	.LC2:
 673 0060 3100     		.ascii	"1\000"
 674              	.LC3:
 675 0062 4E756D49 		.ascii	"NumInputs(node)\000"
 675      6E707574 
 675      73286E6F 
 675      64652900 
 676              	.LC4:
 677 0072 4E756D4F 		.ascii	"NumOutputs(node)\000"
 677      75747075 
 677      7473286E 
 677      6F646529 
 677      00
 678              	.LC5:
 679 0083 6B54664C 		.ascii	"kTfLiteAffineQuantization\000"
 679      69746541 
 679      6666696E 
 679      65517561 
 679      6E74697A 
 680              	.LC6:
 681 009d 6F757470 		.ascii	"output->quantization.type\000"
 681      75742D3E 
 681      7175616E 
 681      74697A61 
 681      74696F6E 
 682              	.LC7:
 683 00b7 25733A25 		.ascii	"%s:%d %s was not true.\000"
 683      64202573 
 683      20776173 
 683      206E6F74 
 683      20747275 
 684              	.LC8:
 685 00ce 61666669 		.ascii	"affine_quantization\000"
 685      6E655F71 
 685      75616E74 
 685      697A6174 
 685      696F6E00 
 686              	.LC9:
 687 00e2 61666669 		.ascii	"affine_quantization->scale\000"
 687      6E655F71 
 687      75616E74 
 687      697A6174 
 687      696F6E2D 
 688              	.LC10:
 689 00fd 61666669 		.ascii	"affine_quantization->scale->size == 1\000"
 689      6E655F71 
 689      75616E74 
 689      697A6174 
 689      696F6E2D 
 690              	.LC11:
 691 0123 696E7075 		.ascii	"input->type == kTfLiteFloat32 || input->type == kTf"
 691      742D3E74 
 691      79706520 
 691      3D3D206B 
 691      54664C69 
 692 0156 4C697465 		.ascii	"LiteInt16\000"
 692      496E7431 
 692      3600
 693              	.LC12:
 694 0160 6F757470 		.ascii	"output->type == kTfLiteUInt8 || output->type == kTf"
 694      75742D3E 
 694      74797065 
 694      203D3D20 
 694      6B54664C 
 695 0193 4C697465 		.ascii	"LiteInt8\000"
 695      496E7438 
 695      00
 696              		.section	.rodata.str1.1,"aMS",%progbits,1
 697              	.LC14:
 698 0000 466C6174 		.ascii	"FlatBuffers 1.11.0\000"
 698      42756666 
 698      65727320 
 698      312E3131 
 698      2E3000
 699              		.ident	"GCC: (GNU Tools for ARM Embedded Processors 6-2017-q2-update) 6.3.1 20170620 (release) [AR