   1              		.cpu cortex-a9
   2              		.eabi_attribute 28, 1
   3              		.eabi_attribute 20, 1
   4              		.eabi_attribute 21, 1
   5              		.eabi_attribute 23, 3
   6              		.eabi_attribute 24, 1
   7              		.eabi_attribute 25, 1
   8              		.eabi_attribute 26, 1
   9              		.eabi_attribute 30, 4
  10              		.eabi_attribute 34, 0
  11              		.eabi_attribute 18, 4
  12              		.file	"reshape.cpp"
  13              		.section	.text._ZN6tflite3ops5micro7reshape7PrepareEP13TfLiteContextP10TfLiteNode,"ax",%progbits
  14              		.align	2
  15              		.global	_ZN6tflite3ops5micro7reshape7PrepareEP13TfLiteContextP10TfLiteNode
  16              		.syntax unified
  17              		.arm
  18              		.fpu neon
  20              	_ZN6tflite3ops5micro7reshape7PrepareEP13TfLiteContextP10TfLiteNode:
  21              		.fnstart
  22              	.LFB3817:
  23              		@ args = 0, pretend = 0, frame = 0
  24              		@ frame_needed = 0, uses_anonymous_args = 0
  25 0000 003091E5 		ldr	r3, [r1]
  26 0004 0020A0E1 		mov	r2, r0
  27 0008 30402DE9 		push	{r4, r5, lr}
  28              		.save {r4, r5, lr}
  29              		.pad #20
  30 000c 14D04DE2 		sub	sp, sp, #20
  31 0010 003093E5 		ldr	r3, [r3]
  32 0014 013043E2 		sub	r3, r3, #1
  33 0018 010053E3 		cmp	r3, #1
  34 001c 1300008A 		bhi	.L2
  35 0020 043091E5 		ldr	r3, [r1, #4]
  36 0024 003093E5 		ldr	r3, [r3]
  37 0028 010053E3 		cmp	r3, #1
  38 002c 0000A003 		moveq	r0, #0
  39 0030 0C00000A 		beq	.L7
  40 0034 08308DE5 		str	r3, [sp, #8]
  41 0038 0140A0E3 		mov	r4, #1
  42 003c 4C309FE5 		ldr	r3, .L10
  43 0040 0C408DE5 		str	r4, [sp, #12]
  44 0044 48109FE5 		ldr	r1, .L10+4
  45 0048 04308DE5 		str	r3, [sp, #4]
  46 004c 44309FE5 		ldr	r3, .L10+8
  47 0050 00308DE5 		str	r3, [sp]
  48 0054 4730A0E3 		mov	r3, #71
  49 0058 145092E5 		ldr	r5, [r2, #20]
  50 005c 38209FE5 		ldr	r2, .L10+12
  51 0060 35FF2FE1 		blx	r5
  52              	.L9:
  53 0064 0100A0E3 		mov	r0, #1
  54              	.L7:
  55 0068 14D08DE2 		add	sp, sp, #20
  56              		@ sp needed
  57 006c 3080BDE8 		pop	{r4, r5, pc}
  58              	.L2:
  59 0070 28309FE5 		ldr	r3, .L10+16
  60 0074 20209FE5 		ldr	r2, .L10+12
  61 0078 24109FE5 		ldr	r1, .L10+20
  62 007c 00308DE5 		str	r3, [sp]
  63 0080 4630A0E3 		mov	r3, #70
  64 0084 144090E5 		ldr	r4, [r0, #20]
  65 0088 34FF2FE1 		blx	r4
  66 008c F4FFFFEA 		b	.L9
  67              	.L11:
  68              		.align	2
  69              	.L10:
  70 0090 5F000000 		.word	.LC2
  71 0094 45000000 		.word	.LC1
  72 0098 61000000 		.word	.LC3
  73 009c 00000000 		.word	.LC0
  74 00a0 89000000 		.word	.LC5
  75 00a4 72000000 		.word	.LC4
  76              		.fnend
  78              		.global	__aeabi_idiv
  79              		.section	.text._ZN6tflite3ops5micro7reshape13ReshapeOutputEP13TfLiteContextP10TfLiteNode,"ax",%pro
  80              		.align	2
  81              		.global	_ZN6tflite3ops5micro7reshape13ReshapeOutputEP13TfLiteContextP10TfLiteNode
  82              		.syntax unified
  83              		.arm
  84              		.fpu neon
  86              	_ZN6tflite3ops5micro7reshape13ReshapeOutputEP13TfLiteContextP10TfLiteNode:
  87              		.fnstart
  88              	.LFB3816:
  89              		@ args = 0, pretend = 0, frame = 0
  90              		@ frame_needed = 0, uses_anonymous_args = 0
  91 0000 F04F2DE9 		push	{r4, r5, r6, r7, r8, r9, r10, fp, lr}
  92              		.save {r4, r5, r6, r7, r8, r9, r10, fp, lr}
  93 0004 0060A0E1 		mov	r6, r0
  94 0008 005091E5 		ldr	r5, [r1]
  95              		.pad #20
  96 000c 14D04DE2 		sub	sp, sp, #20
  97 0010 00E0A0E3 		mov	lr, #0
  98 0014 088090E5 		ldr	r8, [r0, #8]
  99 0018 0100A0E3 		mov	r0, #1
 100 001c 049095E5 		ldr	r9, [r5, #4]
 101 0020 042091E5 		ldr	r2, [r1, #4]
 102 0024 0010A0E3 		mov	r1, #0
 103 0028 093388E0 		add	r3, r8, r9, lsl #6
 104 002c 04A092E5 		ldr	r10, [r2, #4]
 105 0030 08C093E5 		ldr	ip, [r3, #8]
 106 0034 0A7388E0 		add	r7, r8, r10, lsl #6
 107 0038 04B09CE4 		ldr	fp, [ip], #4
 108              	.L14:
 109 003c 0E005BE1 		cmp	fp, lr
 110 0040 070000DA 		ble	.L13
 111 0044 04409CE4 		ldr	r4, [ip], #4
 112 0048 01E08EE2 		add	lr, lr, #1
 113 004c C43FA0E1 		asr	r3, r4, #31
 114 0050 900303E0 		mul	r3, r0, r3
 115 0054 943123E0 		mla	r3, r4, r1, r3
 116 0058 900481E0 		umull	r0, r1, r0, r4
 117 005c 011083E0 		add	r1, r3, r1
 118 0060 F5FFFFEA 		b	.L14
 119              	.L13:
 120 0064 003095E5 		ldr	r3, [r5]
 121 0068 00B0A0E1 		mov	fp, r0
 122 006c 087097E5 		ldr	r7, [r7, #8]
 123 0070 010053E3 		cmp	r3, #1
 124 0074 0500001A 		bne	.L15
 125 0078 003097E5 		ldr	r3, [r7]
 126 007c 010053E3 		cmp	r3, #1
 127 0080 0200001A 		bne	.L15
 128 0084 043097E5 		ldr	r3, [r7, #4]
 129 0088 000053E3 		cmp	r3, #0
 130 008c 00308705 		streq	r3, [r7]
 131              	.L15:
 132 0090 0720A0E1 		mov	r2, r7
 133 0094 0050E0E3 		mvn	r5, #0
 134 0098 040092E4 		ldr	r0, [r2], #4
 135 009c 0140A0E3 		mov	r4, #1
 136 00a0 0030A0E3 		mov	r3, #0
 137 00a4 010000EA 		b	.L21
 138              	.L24:
 139 00a8 0350A0E1 		mov	r5, r3
 140              	.L19:
 141 00ac 013083E2 		add	r3, r3, #1
 142              	.L21:
 143 00b0 000053E1 		cmp	r3, r0
 144 00b4 140000AA 		bge	.L17
 145 00b8 041092E4 		ldr	r1, [r2], #4
 146 00bc 010071E3 		cmn	r1, #1
 147 00c0 91040410 		mulne	r4, r1, r4
 148 00c4 F8FFFF1A 		bne	.L19
 149 00c8 010075E3 		cmn	r5, #1
 150 00cc F5FFFF0A 		beq	.L24
 151 00d0 B8309FE5 		ldr	r3, .L34
 152 00d4 144096E5 		ldr	r4, [r6, #20]
 153 00d8 0C108DE5 		str	r1, [sp, #12]
 154 00dc 04308DE5 		str	r3, [sp, #4]
 155 00e0 AC309FE5 		ldr	r3, .L34+4
 156 00e4 08508DE5 		str	r5, [sp, #8]
 157 00e8 00308DE5 		str	r3, [sp]
 158 00ec 3530A0E3 		mov	r3, #53
 159              	.L33:
 160 00f0 0600A0E1 		mov	r0, r6
 161 00f4 9C209FE5 		ldr	r2, .L34+8
 162 00f8 9C109FE5 		ldr	r1, .L34+12
 163 00fc 34FF2FE1 		blx	r4
 164 0100 0100A0E3 		mov	r0, #1
 165              	.L31:
 166 0104 14D08DE2 		add	sp, sp, #20
 167              		@ sp needed
 168 0108 F08FBDE8 		pop	{r4, r5, r6, r7, r8, r9, r10, fp, pc}
 169              	.L17:
 170 010c 010075E3 		cmn	r5, #1
 171 0110 0500000A 		beq	.L22
 172 0114 0410A0E1 		mov	r1, r4
 173 0118 0B00A0E1 		mov	r0, fp
 174 011c FEFFFFEB 		bl	__aeabi_idiv
 175 0120 900404E0 		mul	r4, r0, r4
 176 0124 055187E0 		add	r5, r7, r5, lsl #2
 177 0128 040085E5 		str	r0, [r5, #4]
 178              	.L22:
 179 012c 0933D8E7 		ldrb	r3, [r8, r9, lsl #6]	@ zero_extendqisi2
 180 0130 0A23D8E7 		ldrb	r2, [r8, r10, lsl #6]	@ zero_extendqisi2
 181 0134 020053E1 		cmp	r3, r2
 182 0138 0800000A 		beq	.L23
 183 013c 08308DE5 		str	r3, [sp, #8]
 184 0140 58309FE5 		ldr	r3, .L34+16
 185 0144 0C208DE5 		str	r2, [sp, #12]
 186 0148 144096E5 		ldr	r4, [r6, #20]
 187 014c 04308DE5 		str	r3, [sp, #4]
 188 0150 4C309FE5 		ldr	r3, .L34+20
 189 0154 00308DE5 		str	r3, [sp]
 190 0158 4030A0E3 		mov	r3, #64
 191 015c E3FFFFEA 		b	.L33
 192              	.L23:
 193 0160 04005BE1 		cmp	fp, r4
 194 0164 0000A003 		moveq	r0, #0
 195 0168 E5FFFF0A 		beq	.L31
 196 016c 34309FE5 		ldr	r3, .L34+24
 197 0170 0C408DE5 		str	r4, [sp, #12]
 198 0174 08B08DE5 		str	fp, [sp, #8]
 199 0178 04308DE5 		str	r3, [sp, #4]
 200 017c 28309FE5 		ldr	r3, .L34+28
 201 0180 144096E5 		ldr	r4, [r6, #20]
 202 0184 00308DE5 		str	r3, [sp]
 203 0188 4130A0E3 		mov	r3, #65
 204 018c D7FFFFEA 		b	.L33
 205              	.L35:
 206              		.align	2
 207              	.L34:
 208 0190 00000000 		.word	.LC6
 209 0194 03000000 		.word	.LC7
 210 0198 00000000 		.word	.LC0
 211 019c 45000000 		.word	.LC1
 212 01a0 0F000000 		.word	.LC8
 213 01a4 1C000000 		.word	.LC9
 214 01a8 28000000 		.word	.LC10
 215 01ac 3C000000 		.word	.LC11
 216              		.fnend
 218              		.section	.text._ZN6tflite3ops5micro7reshape4EvalEP13TfLiteContextP10TfLiteNode,"ax",%progbits
 219              		.align	2
 220              		.global	_ZN6tflite3ops5micro7reshape4EvalEP13TfLiteContextP10TfLiteNode
 221              		.syntax unified
 222              		.arm
 223              		.fpu neon
 225              	_ZN6tflite3ops5micro7reshape4EvalEP13TfLiteContextP10TfLiteNode:
 226              		.fnstart
 227              	.LFB3818:
 228              		@ args = 0, pretend = 0, frame = 0
 229              		@ frame_needed = 0, uses_anonymous_args = 0
 230 0000 002091E5 		ldr	r2, [r1]
 231 0004 043091E5 		ldr	r3, [r1, #4]
 232 0008 70402DE9 		push	{r4, r5, r6, lr}
 233              		.save {r4, r5, r6, lr}
 234 000c 084090E5 		ldr	r4, [r0, #8]
 235 0010 045092E5 		ldr	r5, [r2, #4]
 236 0014 046093E5 		ldr	r6, [r3, #4]
 237 0018 FEFFFFEB 		bl	_ZN6tflite3ops5micro7reshape13ReshapeOutputEP13TfLiteContextP10TfLiteNode
 238 001c 000050E3 		cmp	r0, #0
 239 0020 0A00001A 		bne	.L39
 240 0024 053384E0 		add	r3, r4, r5, lsl #6
 241 0028 064384E0 		add	r4, r4, r6, lsl #6
 242              	.L38:
 243 002c 182093E5 		ldr	r2, [r3, #24]
 244 0030 020050E1 		cmp	r0, r2
 245 0034 0700002A 		bcs	.L40
 246 0038 042093E5 		ldr	r2, [r3, #4]
 247 003c 0010D2E7 		ldrb	r1, [r2, r0]	@ zero_extendqisi2
 248 0040 042094E5 		ldr	r2, [r4, #4]
 249 0044 0010C2E7 		strb	r1, [r2, r0]
 250 0048 010080E2 		add	r0, r0, #1
 251 004c F6FFFFEA 		b	.L38
 252              	.L39:
 253 0050 0100A0E3 		mov	r0, #1
 254 0054 7080BDE8 		pop	{r4, r5, r6, pc}
 255              	.L40:
 256 0058 0000A0E3 		mov	r0, #0
 257 005c 7080BDE8 		pop	{r4, r5, r6, pc}
 258              		.fnend
 260              		.section	.text._ZN6tflite3ops5micro16Register_RESHAPEEv,"ax",%progbits
 261              		.align	2
 262              		.global	_ZN6tflite3ops5micro16Register_RESHAPEEv
 263              		.syntax unified
 264              		.arm
 265              		.fpu neon
 267              	_ZN6tflite3ops5micro16Register_RESHAPEEv:
 268              		.fnstart
 269              	.LFB3819:
 270              		@ args = 0, pretend = 0, frame = 0
 271              		@ frame_needed = 0, uses_anonymous_args = 0
 272              		@ link register save eliminated.
 273 0000 10009FE5 		ldr	r0, .L43
 274 0004 10309FE5 		ldr	r3, .L43+4
 275 0008 083080E5 		str	r3, [r0, #8]
 276 000c 0C309FE5 		ldr	r3, .L43+8
 277 0010 0C3080E5 		str	r3, [r0, #12]
 278 0014 1EFF2FE1 		bx	lr
 279              	.L44:
 280              		.align	2
 281              	.L43:
 282 0018 00000000 		.word	.LANCHOR0
 283 001c 00000000 		.word	_ZN6tflite3ops5micro7reshape7PrepareEP13TfLiteContextP10TfLiteNode
 284 0020 00000000 		.word	_ZN6tflite3ops5micro7reshape4EvalEP13TfLiteContextP10TfLiteNode
 285              		.cantunwind
 286              		.fnend
 288              		.weak	_ZN11flatbuffers25flatbuffer_version_stringE
 289              		.section	.bss._ZZN6tflite3ops5micro16Register_RESHAPEEvE1r,"aw",%nobits
 290              		.align	2
 291              		.set	.LANCHOR0,. + 0
 294              	_ZZN6tflite3ops5micro16Register_RESHAPEEvE1r:
 295 0000 00000000 		.space	32
 295      00000000 
 295      00000000 
 295      00000000 
 295      00000000 
 296              		.section	.data._ZN11flatbuffers25flatbuffer_version_stringE,"aw",%progbits
 297              		.align	2
 300              	_ZN11flatbuffers25flatbuffer_version_stringE:
 301 0000 00000000 		.word	.LC12
 302              		.section	.rodata._ZN6tflite3ops5micro7reshape13ReshapeOutputEP13TfLiteContextP10TfLiteNode.str1.1,
 303              	.LC6:
 304 0000 2D3100   		.ascii	"-1\000"
 305              	.LC7:
 306 0003 73747265 		.ascii	"stretch_dim\000"
 306      7463685F 
 306      64696D00 
 307              	.LC8:
 308 000f 6F757470 		.ascii	"output->type\000"
 308      75742D3E 
 308      74797065 
 308      00
 309              	.LC9:
 310 001c 696E7075 		.ascii	"input->type\000"
 310      742D3E74 
 310      79706500 
 311              	.LC10:
 312 0028 6E756D5F 		.ascii	"num_output_elements\000"
 312      6F757470 
 312      75745F65 
 312      6C656D65 
 312      6E747300 
 313              	.LC11:
 314 003c 6E756D5F 		.ascii	"num_input_elements\000"
 314      696E7075 
 314      745F656C 
 314      656D656E 
 314      747300
 315              		.section	.rodata._ZN6tflite3ops5micro7reshape7PrepareEP13TfLiteContextP10TfLiteNode.str1.1,"aMS",%
 316              	.LC0:
 317 0000 2E2E2F73 		.ascii	"../src/tensorflow_lite/src/tensorflow/lite/micro/ke"
 317      72632F74 
 317      656E736F 
 317      72666C6F 
 317      775F6C69 
 318 0033 726E656C 		.ascii	"rnels/reshape.cpp\000"
 318      732F7265 
 318      73686170 
 318      652E6370 
 318      7000
 319              	.LC1:
 320 0045 25733A25 		.ascii	"%s:%d %s != %s (%d != %d)\000"
 320      64202573 
 320      20213D20 
 320      25732028 
 320      25642021 
 321              	.LC2:
 322 005f 3100     		.ascii	"1\000"
 323              	.LC3:
 324 0061 4E756D4F 		.ascii	"NumOutputs(node)\000"
 324      75747075 
 324      7473286E 
 324      6F646529 
 324      00
 325              	.LC4:
 326 0072 25733A25 		.ascii	"%s:%d %s was not true.\000"
 326      64202573 
 326      20776173 
 326      206E6F74 
 326      20747275 
 327              	.LC5:
 328 0089 4E756D49 		.ascii	"NumInputs(node) == 1 || NumInputs(node) == 2\000"
 328      6E707574 
 328      73286E6F 
 328      64652920 
 328      3D3D2031 
 329              		.section	.rodata.str1.1,"aMS",%progbits,1
 330              	.LC12:
 331 0000 466C6174 		.ascii	"FlatBuffers 1.11.0\000"
 331      42756666 
 331      65727320 
 331      312E3131 
 331      2E3000
 332              		.ident	"GCC: (GNU Tools for ARM Embedded Processors 6-2017-q2-update) 6.3.1 20170620 (release) [AR