   1              		.cpu cortex-a9
   2              		.eabi_attribute 28, 1
   3              		.eabi_attribute 20, 1
   4              		.eabi_attribute 21, 1
   5              		.eabi_attribute 23, 3
   6              		.eabi_attribute 24, 1
   7              		.eabi_attribute 25, 1
   8              		.eabi_attribute 26, 1
   9              		.eabi_attribute 30, 4
  10              		.eabi_attribute 34, 0
  11              		.eabi_attribute 18, 4
  12              		.file	"strided_slice.cpp"
  13              		.section	.text._ZN6tflite12RuntimeShapeD2Ev,"axG",%progbits,_ZN6tflite12RuntimeShapeD5Ev,comdat
  14              		.align	2
  15              		.weak	_ZN6tflite12RuntimeShapeD2Ev
  16              		.syntax unified
  17              		.arm
  18              		.fpu neon
  20              	_ZN6tflite12RuntimeShapeD2Ev:
  21              		.fnstart
  22              	.LFB3207:
  23              		@ args = 0, pretend = 0, frame = 0
  24              		@ frame_needed = 0, uses_anonymous_args = 0
  25 0000 003090E5 		ldr	r3, [r0]
  26 0004 10402DE9 		push	{r4, lr}
  27 0008 0040A0E1 		mov	r4, r0
  28 000c 040053E3 		cmp	r3, #4
  29 0010 030000DA 		ble	.L2
  30 0014 040090E5 		ldr	r0, [r0, #4]
  31 0018 000050E3 		cmp	r0, #0
  32 001c 0000000A 		beq	.L2
  33 0020 FEFFFFEB 		bl	_ZdaPv
  34              	.L2:
  35 0024 0400A0E1 		mov	r0, r4
  36 0028 1080BDE8 		pop	{r4, pc}
  37              		.cantunwind
  38              		.fnend
  40              		.weak	_ZN6tflite12RuntimeShapeD1Ev
  41              		.set	_ZN6tflite12RuntimeShapeD1Ev,_ZN6tflite12RuntimeShapeD2Ev
  42              		.section	.text._ZNK6tflite12RuntimeShape4DimsEi,"axG",%progbits,_ZNK6tflite12RuntimeShape4DimsEi,c
  43              		.align	2
  44              		.weak	_ZNK6tflite12RuntimeShape4DimsEi
  45              		.syntax unified
  46              		.arm
  47              		.fpu neon
  49              	_ZNK6tflite12RuntimeShape4DimsEi:
  50              		.fnstart
  51              	.LFB3210:
  52              		@ args = 0, pretend = 0, frame = 0
  53              		@ frame_needed = 0, uses_anonymous_args = 0
  54 0000 000051E3 		cmp	r1, #0
  55 0004 010000AA 		bge	.L8
  56              	.L9:
  57 0008 10402DE9 		push	{r4, lr}
  58              		.save {r4, lr}
  59 000c FEFFFFEB 		bl	abort
  60              	.L8:
  61 0010 003090E5 		ldr	r3, [r0]
  62 0014 010053E1 		cmp	r3, r1
  63 0018 FAFFFFDA 		ble	.L9
  64 001c 040053E3 		cmp	r3, #4
  65 0020 043090C5 		ldrgt	r3, [r0, #4]
  66 0024 010180D0 		addle	r0, r0, r1, lsl #2
  67 0028 040090D5 		ldrle	r0, [r0, #4]
  68 002c 010193C7 		ldrgt	r0, [r3, r1, lsl #2]
  69 0030 1EFF2FE1 		bx	lr
  70              		.fnend
  72              		.section	.text._ZN6tflite12RuntimeShapeC2EiRKS0_i,"axG",%progbits,_ZN6tflite12RuntimeShapeC5EiRKS0
  73              		.align	2
  74              		.weak	_ZN6tflite12RuntimeShapeC2EiRKS0_i
  75              		.syntax unified
  76              		.arm
  77              		.fpu neon
  79              	_ZN6tflite12RuntimeShapeC2EiRKS0_i:
  80              		.fnstart
  81              	.LFB3223:
  82              		@ args = 0, pretend = 0, frame = 0
  83              		@ frame_needed = 0, uses_anonymous_args = 0
  84 0000 F0412DE9 		push	{r4, r5, r6, r7, r8, lr}
  85              		.save {r4, r5, r6, r7, r8, lr}
  86 0004 0370A0E1 		mov	r7, r3
  87 0008 0030A0E3 		mov	r3, #0
  88 000c 003080E5 		str	r3, [r0]
  89 0010 003092E5 		ldr	r3, [r2]
  90 0014 010053E1 		cmp	r3, r1
  91 0018 000000DA 		ble	.L15
  92              	.L19:
  93 001c FEFFFFEB 		bl	abort
  94              	.L15:
  95 0020 040051E3 		cmp	r1, #4
  96 0024 0050A0E1 		mov	r5, r0
  97 0028 0140A0E1 		mov	r4, r1
  98 002c 0260A0E1 		mov	r6, r2
  99 0030 001085E5 		str	r1, [r5]
 100 0034 040000DA 		ble	.L16
 101 0038 2E0271E3 		cmn	r1, #-536870910
 102 003c 130000CA 		bgt	.L17
 103 0040 0101A0E1 		lsl	r0, r1, #2
 104 0044 FEFFFFEB 		bl	_Znaj
 105 0048 040085E5 		str	r0, [r5, #4]
 106              	.L16:
 107 004c 000096E5 		ldr	r0, [r6]
 108 0050 041085E2 		add	r1, r5, #4
 109 0054 0020A0E3 		mov	r2, #0
 110 0058 004044E0 		sub	r4, r4, r0
 111 005c 0100A0E1 		mov	r0, r1
 112              	.L22:
 113 0060 040052E1 		cmp	r2, r4
 114 0064 00C095E5 		ldr	ip, [r5]
 115 0068 090000AA 		bge	.L18
 116 006c 0C0052E1 		cmp	r2, ip
 117 0070 E9FFFFAA 		bge	.L19
 118 0074 04005CE3 		cmp	ip, #4
 119 0078 041081E2 		add	r1, r1, #4
 120 007c 043095C5 		ldrgt	r3, [r5, #4]
 121 0080 047001D5 		strle	r7, [r1, #-4]
 122 0084 027183C7 		strgt	r7, [r3, r2, lsl #2]
 123 0088 012082E2 		add	r2, r2, #1
 124 008c F3FFFFEA 		b	.L22
 125              	.L17:
 126 0090 FEFFFFEB 		bl	__cxa_throw_bad_array_new_length
 127              	.L18:
 128 0094 04005CE3 		cmp	ip, #4
 129 0098 002096E5 		ldr	r2, [r6]
 130 009c 040095C5 		ldrgt	r0, [r5, #4]
 131 00a0 040052E3 		cmp	r2, #4
 132 00a4 041096C5 		ldrgt	r1, [r6, #4]
 133 00a8 041086D2 		addle	r1, r6, #4
 134 00ac 040180E0 		add	r0, r0, r4, lsl #2
 135 00b0 0221A0E1 		lsl	r2, r2, #2
 136 00b4 FEFFFFEB 		bl	memcpy
 137 00b8 0500A0E1 		mov	r0, r5
 138 00bc F081BDE8 		pop	{r4, r5, r6, r7, r8, pc}
 139              		.fnend
 141              		.weak	_ZN6tflite12RuntimeShapeC1EiRKS0_i
 142              		.set	_ZN6tflite12RuntimeShapeC1EiRKS0_i,_ZN6tflite12RuntimeShapeC2EiRKS0_i
 143              		.section	.text._ZN6tflite6OffsetERKNS_12RuntimeShapeEiiii,"axG",%progbits,_ZN6tflite6OffsetERKNS_1
 144              		.align	2
 145              		.weak	_ZN6tflite6OffsetERKNS_12RuntimeShapeEiiii
 146              		.syntax unified
 147              		.arm
 148              		.fpu neon
 150              	_ZN6tflite6OffsetERKNS_12RuntimeShapeEiiii:
 151              		.fnstart
 152              	.LFB3229:
 153              		@ args = 4, pretend = 0, frame = 0
 154              		@ frame_needed = 0, uses_anonymous_args = 0
 155 0000 10402DE9 		push	{r4, lr}
 156              		.save {r4, lr}
 157 0004 00E090E5 		ldr	lr, [r0]
 158 0008 08C09DE5 		ldr	ip, [sp, #8]
 159 000c 04005EE3 		cmp	lr, #4
 160 0010 0000000A 		beq	.L30
 161              	.L31:
 162 0014 FEFFFFEB 		bl	abort
 163              	.L30:
 164 0018 000051E3 		cmp	r1, #0
 165 001c FCFFFFBA 		blt	.L31
 166 0020 04E090E5 		ldr	lr, [r0, #4]
 167 0024 0E0051E1 		cmp	r1, lr
 168 0028 F9FFFFAA 		bge	.L31
 169 002c 000052E3 		cmp	r2, #0
 170 0030 F7FFFFBA 		blt	.L31
 171 0034 084090E5 		ldr	r4, [r0, #8]
 172 0038 040052E1 		cmp	r2, r4
 173 003c F4FFFFAA 		bge	.L31
 174 0040 000053E3 		cmp	r3, #0
 175 0044 F2FFFFBA 		blt	.L31
 176 0048 0CE090E5 		ldr	lr, [r0, #12]
 177 004c 0E0053E1 		cmp	r3, lr
 178 0050 EFFFFFAA 		bge	.L31
 179 0054 00005CE3 		cmp	ip, #0
 180 0058 EDFFFFBA 		blt	.L31
 181 005c 100090E5 		ldr	r0, [r0, #16]
 182 0060 00005CE1 		cmp	ip, r0
 183 0064 EAFFFFAA 		bge	.L31
 184 0068 942121E0 		mla	r1, r4, r1, r2
 185 006c 9E3123E0 		mla	r3, lr, r1, r3
 186 0070 90C320E0 		mla	r0, r0, r3, ip
 187 0074 1080BDE8 		pop	{r4, pc}
 188              		.fnend
 190              		.section	.text._ZN6tflite13strided_slice22StridedSlicePadIndicesEPNS_18StridedSliceParamsEi,"axG",
 191              		.align	2
 192              		.weak	_ZN6tflite13strided_slice22StridedSlicePadIndicesEPNS_18StridedSliceParamsEi
 193              		.syntax unified
 194              		.arm
 195              		.fpu neon
 197              	_ZN6tflite13strided_slice22StridedSlicePadIndicesEPNS_18StridedSliceParamsEi:
 198              		.fnstart
 199              	.LFB3699:
 200              		@ args = 0, pretend = 0, frame = 0
 201              		@ frame_needed = 0, uses_anonymous_args = 0
 202 0000 040051E3 		cmp	r1, #4
 203 0004 10402DE9 		push	{r4, lr}
 204              		.save {r4, lr}
 205 0008 000000DA 		ble	.L34
 206              	.L35:
 207 000c FEFFFFEB 		bl	abort
 208              	.L34:
 209 0010 D030D0E1 		ldrsb	r3, [r0]
 210 0014 010053E1 		cmp	r3, r1
 211 0018 FBFFFFCA 		bgt	.L35
 212 001c D421D0E1 		ldrsb	r2, [r0, #20]
 213 0020 030052E1 		cmp	r2, r3
 214 0024 F8FFFF1A 		bne	.L35
 215 0028 D832D0E1 		ldrsb	r3, [r0, #40]
 216 002c 020053E1 		cmp	r3, r2
 217 0030 F5FFFF1A 		bne	.L35
 218 0034 03C180E0 		add	ip, r0, r3, lsl #2
 219 0038 012180E0 		add	r2, r0, r1, lsl #2
 220 003c 01E043E2 		sub	lr, r3, #1
 221 0040 04C08CE2 		add	ip, ip, #4
 222 0044 033041E0 		sub	r3, r1, r3
 223 0048 042082E2 		add	r2, r2, #4
 224              	.L37:
 225 004c 00005EE3 		cmp	lr, #0
 226 0050 070000BA 		blt	.L36
 227 0054 24409CE5 		ldr	r4, [ip, #36]
 228 0058 01E04EE2 		sub	lr, lr, #1
 229 005c 244082E5 		str	r4, [r2, #36]
 230 0060 04403CE5 		ldr	r4, [ip, #-4]!
 231 0064 044022E5 		str	r4, [r2, #-4]!
 232 0068 14409CE5 		ldr	r4, [ip, #20]
 233 006c 144082E5 		str	r4, [r2, #20]
 234 0070 F5FFFFEA 		b	.L37
 235              	.L36:
 236 0074 0020A0E3 		mov	r2, #0
 237 0078 04C080E2 		add	ip, r0, #4
 238 007c 0240A0E1 		mov	r4, r2
 239 0080 01E0A0E3 		mov	lr, #1
 240              	.L39:
 241 0084 030052E1 		cmp	r2, r3
 242 0088 04408CB4 		strlt	r4, [ip], #4
 243 008c 012082B2 		addlt	r2, r2, #1
 244 0090 10E08CB5 		strlt	lr, [ip, #16]
 245 0094 24E08CB5 		strlt	lr, [ip, #36]
 246 0098 F9FFFFBA 		blt	.L39
 247              	.L38:
 248 009c F424D0E1 		ldrsh	r2, [r0, #68]
 249 00a0 7110AFE6 		sxtb	r1, r1
 250 00a4 F0E4D0E1 		ldrsh	lr, [r0, #64]
 251 00a8 FCC3D0E1 		ldrsh	ip, [r0, #60]
 252 00ac 0010C0E5 		strb	r1, [r0]
 253 00b0 1223A0E1 		lsl	r2, r2, r3
 254 00b4 1410C0E5 		strb	r1, [r0, #20]
 255 00b8 2810C0E5 		strb	r1, [r0, #40]
 256 00bc B424C0E1 		strh	r2, [r0, #68]	@ movhi
 257 00c0 FE23D0E1 		ldrsh	r2, [r0, #62]
 258 00c4 1223A0E1 		lsl	r2, r2, r3
 259 00c8 BE23C0E1 		strh	r2, [r0, #62]	@ movhi
 260 00cc F224D0E1 		ldrsh	r2, [r0, #66]
 261 00d0 1223A0E1 		lsl	r2, r2, r3
 262 00d4 B224C0E1 		strh	r2, [r0, #66]	@ movhi
 263 00d8 0020E0E3 		mvn	r2, #0
 264 00dc 1223E0E1 		mvn	r2, r2, lsl r3
 265 00e0 7220BFE6 		sxth	r2, r2
 266 00e4 1CC382E1 		orr	ip, r2, ip, lsl r3
 267 00e8 1E3382E1 		orr	r3, r2, lr, lsl r3
 268 00ec BCC3C0E1 		strh	ip, [r0, #60]	@ movhi
 269 00f0 B034C0E1 		strh	r3, [r0, #64]	@ movhi
 270 00f4 1080BDE8 		pop	{r4, pc}
 271              		.fnend
 273              		.section	.text._ZN6tflite13strided_slice12StartForAxisERKNS_18StridedSliceParamsERKNS_12RuntimeSha
 274              		.align	2
 275              		.weak	_ZN6tflite13strided_slice12StartForAxisERKNS_18StridedSliceParamsERKNS_12RuntimeShapeEi
 276              		.syntax unified
 277              		.arm
 278              		.fpu neon
 280              	_ZN6tflite13strided_slice12StartForAxisERKNS_18StridedSliceParamsERKNS_12RuntimeShapeEi:
 281              		.fnstart
 282              	.LFB3700:
 283              		@ args = 0, pretend = 0, frame = 0
 284              		@ frame_needed = 0, uses_anonymous_args = 0
 285 0000 0030A0E1 		mov	r3, r0
 286 0004 0100A0E1 		mov	r0, r1
 287 0008 021183E0 		add	r1, r3, r2, lsl #2
 288 000c FC33D3E1 		ldrsh	r3, [r3, #60]
 289 0010 10402DE9 		push	{r4, lr}
 290              		.save {r4, lr}
 291 0014 044091E5 		ldr	r4, [r1, #4]
 292 0018 5332A0E1 		asr	r3, r3, r2
 293 001c 010013E3 		tst	r3, #1
 294 0020 0300000A 		beq	.L44
 295 0024 2C3091E5 		ldr	r3, [r1, #44]
 296 0028 000053E3 		cmp	r3, #0
 297 002c 0241A0C3 		movgt	r4, #-2147483648
 298 0030 0241E0D3 		mvnle	r4, #-2147483648
 299              	.L44:
 300 0034 0210A0E1 		mov	r1, r2
 301 0038 FEFFFFEB 		bl	_ZNK6tflite12RuntimeShape4DimsEi
 302 003c 000054E3 		cmp	r4, #0
 303 0040 004084B0 		addlt	r4, r4, r0
 304 0044 010050E2 		subs	r0, r0, #1
 305 0048 0000005A 		bpl	.L46
 306 004c FEFFFFEB 		bl	abort
 307              	.L46:
 308 0050 000054E1 		cmp	r4, r0
 309 0054 C40FC4D1 		bicle	r0, r4, r4, asr #31
 310 0058 1080BDE8 		pop	{r4, pc}
 311              		.fnend
 313              		.section	.text._ZN6tflite13strided_slice11StopForAxisERKNS_18StridedSliceParamsERKNS_12RuntimeShap
 314              		.align	2
 315              		.weak	_ZN6tflite13strided_slice11StopForAxisERKNS_18StridedSliceParamsERKNS_12RuntimeShapeEii
 316              		.syntax unified
 317              		.arm
 318              		.fpu neon
 320              	_ZN6tflite13strided_slice11StopForAxisERKNS_18StridedSliceParamsERKNS_12RuntimeShapeEii:
 321              		.fnstart
 322              	.LFB3701:
 323              		@ args = 0, pretend = 0, frame = 0
 324              		@ frame_needed = 0, uses_anonymous_args = 0
 325 0000 70402DE9 		push	{r4, r5, r6, lr}
 326              		.save {r4, r5, r6, lr}
 327 0004 0250A0E1 		mov	r5, r2
 328 0008 01C0A0E1 		mov	ip, r1
 329 000c 051180E0 		add	r1, r0, r5, lsl #2
 330 0010 2C6080E2 		add	r6, r0, #44
 331 0014 184091E5 		ldr	r4, [r1, #24]
 332 0018 F414D0E1 		ldrsh	r1, [r0, #68]
 333 001c F024D0E1 		ldrsh	r2, [r0, #64]
 334 0020 5115A0E1 		asr	r1, r1, r5
 335 0024 010011E3 		tst	r1, #1
 336 0028 01408312 		addne	r4, r3, #1
 337 002c 5235A0E1 		asr	r3, r2, r5
 338 0030 010013E3 		tst	r3, #1
 339 0034 0300000A 		beq	.L55
 340 0038 053196E7 		ldr	r3, [r6, r5, lsl #2]
 341 003c 000053E3 		cmp	r3, #0
 342 0040 0241E0C3 		mvngt	r4, #-2147483648
 343 0044 0241A0D3 		movle	r4, #-2147483648
 344              	.L55:
 345 0048 0510A0E1 		mov	r1, r5
 346 004c 0C00A0E1 		mov	r0, ip
 347 0050 FEFFFFEB 		bl	_ZNK6tflite12RuntimeShape4DimsEi
 348 0054 053196E7 		ldr	r3, [r6, r5, lsl #2]
 349 0058 000054E3 		cmp	r4, #0
 350 005c 004084B0 		addlt	r4, r4, r0
 351 0060 000053E3 		cmp	r3, #0
 352 0064 050000DA 		ble	.L57
 353 0068 000050E3 		cmp	r0, #0
 354 006c 000000AA 		bge	.L58
 355              	.L60:
 356 0070 FEFFFFEB 		bl	abort
 357              	.L58:
 358 0074 000054E1 		cmp	r4, r0
 359 0078 C40FC4D1 		bicle	r0, r4, r4, asr #31
 360 007c 7080BDE8 		pop	{r4, r5, r6, pc}
 361              	.L57:
 362 0080 010040E2 		sub	r0, r0, #1
 363 0084 010070E3 		cmn	r0, #1
 364 0088 F8FFFFBA 		blt	.L60
 365 008c 000054E1 		cmp	r4, r0
 366 0090 C40F84D1 		orrle	r0, r4, r4, asr #31
 367 0094 7080BDE8 		pop	{r4, r5, r6, pc}
 368              		.fnend
 370              		.section	.text._ZN6tflite14GetTensorShapeEPK12TfLiteTensor,"axG",%progbits,_ZN6tflite14GetTensorSh
 371              		.align	2
 372              		.weak	_ZN6tflite14GetTensorShapeEPK12TfLiteTensor
 373              		.syntax unified
 374              		.arm
 375              		.fpu neon
 377              	_ZN6tflite14GetTensorShapeEPK12TfLiteTensor:
 378              		.fnstart
 379              	.LFB3707:
 380              		@ args = 0, pretend = 0, frame = 0
 381              		@ frame_needed = 0, uses_anonymous_args = 0
 382 0000 000051E3 		cmp	r1, #0
 383 0004 70402DE9 		push	{r4, r5, r6, lr}
 384              		.save {r4, r5, r6, lr}
 385 0008 0040A0E1 		mov	r4, r0
 386 000c 00108005 		streq	r1, [r0]
 387 0010 1100000A 		beq	.L70
 388 0014 085091E5 		ldr	r5, [r1, #8]
 389 0018 003095E5 		ldr	r3, [r5]
 390 001c 040053E3 		cmp	r3, #4
 391 0020 003080E5 		str	r3, [r0]
 392 0024 0361A0E1 		lsl	r6, r3, #2
 393 0028 040000DA 		ble	.L73
 394 002c 2E0273E3 		cmn	r3, #-536870910
 395 0030 0B0000CA 		bgt	.L74
 396 0034 0600A0E1 		mov	r0, r6
 397 0038 FEFFFFEB 		bl	_Znaj
 398 003c 040084E5 		str	r0, [r4, #4]
 399              	.L73:
 400 0040 003094E5 		ldr	r3, [r4]
 401 0044 0620A0E1 		mov	r2, r6
 402 0048 041085E2 		add	r1, r5, #4
 403 004c 040053E3 		cmp	r3, #4
 404 0050 040094C5 		ldrgt	r0, [r4, #4]
 405 0054 040084D2 		addle	r0, r4, #4
 406 0058 FEFFFFEB 		bl	memcpy
 407              	.L70:
 408 005c 0400A0E1 		mov	r0, r4
 409 0060 7080BDE8 		pop	{r4, r5, r6, pc}
 410              	.L74:
 411 0064 FEFFFFEB 		bl	__cxa_throw_bad_array_new_length
 412              		.fnend
 414              		.section	.text._ZN6tflite3ops5micro13strided_slice19StridedSliceContextC2EP13TfLiteContextP10TfLit
 415              		.align	2
 416              		.weak	_ZN6tflite3ops5micro13strided_slice19StridedSliceContextC2EP13TfLiteContextP10TfLiteNode
 417              		.syntax unified
 418              		.arm
 419              		.fpu neon
 421              	_ZN6tflite3ops5micro13strided_slice19StridedSliceContextC2EP13TfLiteContextP10TfLiteNode:
 422              		.fnstart
 423              	.LFB6220:
 424              		@ args = 0, pretend = 0, frame = 0
 425              		@ frame_needed = 0, uses_anonymous_args = 0
 426 0000 14C092E5 		ldr	ip, [r2, #20]
 427 0004 30402DE9 		push	{r4, r5, lr}
 428 0008 00E092E5 		ldr	lr, [r2]
 429 000c 00C080E5 		str	ip, [r0]
 430 0010 04409EE5 		ldr	r4, [lr, #4]
 431 0014 08C091E5 		ldr	ip, [r1, #8]
 432 0018 08509EE5 		ldr	r5, [lr, #8]
 433 001c 042092E5 		ldr	r2, [r2, #4]
 434 0020 04C38CE0 		add	ip, ip, r4, lsl #6
 435 0024 04C080E5 		str	ip, [r0, #4]
 436 0028 084091E5 		ldr	r4, [r1, #8]
 437 002c 054384E0 		add	r4, r4, r5, lsl #6
 438 0030 0C509EE5 		ldr	r5, [lr, #12]
 439 0034 084080E5 		str	r4, [r0, #8]
 440 0038 084091E5 		ldr	r4, [r1, #8]
 441 003c 054384E0 		add	r4, r4, r5, lsl #6
 442 0040 0C4080E5 		str	r4, [r0, #12]
 443 0044 10409EE5 		ldr	r4, [lr, #16]
 444 0048 08E091E5 		ldr	lr, [r1, #8]
 445 004c 04E38EE0 		add	lr, lr, r4, lsl #6
 446 0050 10E080E5 		str	lr, [r0, #16]
 447 0054 04E092E5 		ldr	lr, [r2, #4]
 448 0058 082091E5 		ldr	r2, [r1, #8]
 449 005c 0E2382E0 		add	r2, r2, lr, lsl #6
 450 0060 142080E5 		str	r2, [r0, #20]
 451 0064 08209CE5 		ldr	r2, [ip, #8]
 452 0068 002092E5 		ldr	r2, [r2]
 453 006c 182080E5 		str	r2, [r0, #24]
 454 0070 3080BDE8 		pop	{r4, r5, pc}
 455              		.cantunwind
 456              		.fnend
 458              		.weak	_ZN6tflite3ops5micro13strided_slice19StridedSliceContextC1EP13TfLiteContextP10TfLiteNode
 459              		.set	_ZN6tflite3ops5micro13strided_slice19StridedSliceContextC1EP13TfLiteContextP10TfLiteNode,_ZN6
 460              		.section	.text._ZN6tflite3ops5micro13strided_slice23BuildStridedSliceParamsEPNS2_19StridedSliceCon
 461              		.align	2
 462              		.global	_ZN6tflite3ops5micro13strided_slice23BuildStridedSliceParamsEPNS2_19StridedSliceContextE
 463              		.syntax unified
 464              		.arm
 465              		.fpu neon
 467              	_ZN6tflite3ops5micro13strided_slice23BuildStridedSliceParamsEPNS2_19StridedSliceContextE:
 468              		.fnstart
 469              	.LFB6222:
 470              		@ args = 0, pretend = 0, frame = 0
 471              		@ frame_needed = 0, uses_anonymous_args = 0
 472 0000 10402DE9 		push	{r4, lr}
 473 0004 00C0A0E1 		mov	ip, r0
 474 0008 184091E5 		ldr	r4, [r1, #24]
 475 000c 0020A0E3 		mov	r2, #0
 476 0010 7430AFE6 		sxtb	r3, r4
 477 0014 0030C0E5 		strb	r3, [r0]
 478 0018 1430C0E5 		strb	r3, [r0, #20]
 479 001c 2830C0E5 		strb	r3, [r0, #40]
 480              	.L85:
 481 0020 040052E1 		cmp	r2, r4
 482 0024 110000AA 		bge	.L81
 483 0028 083091E5 		ldr	r3, [r1, #8]
 484 002c 02E1A0E1 		lsl	lr, r2, #2
 485 0030 000053E3 		cmp	r3, #0
 486 0034 04309315 		ldrne	r3, [r3, #4]
 487 0038 023193E7 		ldr	r3, [r3, r2, lsl #2]
 488 003c 012082E2 		add	r2, r2, #1
 489 0040 0430ACE5 		str	r3, [ip, #4]!
 490 0044 0C3091E5 		ldr	r3, [r1, #12]
 491 0048 000053E3 		cmp	r3, #0
 492 004c 04309315 		ldrne	r3, [r3, #4]
 493 0050 0E3093E7 		ldr	r3, [r3, lr]
 494 0054 14308CE5 		str	r3, [ip, #20]
 495 0058 103091E5 		ldr	r3, [r1, #16]
 496 005c 000053E3 		cmp	r3, #0
 497 0060 04309315 		ldrne	r3, [r3, #4]
 498 0064 0E3093E7 		ldr	r3, [r3, lr]
 499 0068 28308CE5 		str	r3, [ip, #40]
 500 006c EBFFFFEA 		b	.L85
 501              	.L81:
 502 0070 003091E5 		ldr	r3, [r1]
 503 0074 002093E5 		ldr	r2, [r3]
 504 0078 041093E5 		ldr	r1, [r3, #4]
 505 007c 103093E5 		ldr	r3, [r3, #16]
 506 0080 BC23C0E1 		strh	r2, [r0, #60]	@ movhi
 507 0084 0020A0E3 		mov	r2, #0
 508 0088 BE23C0E1 		strh	r2, [r0, #62]	@ movhi
 509 008c B014C0E1 		strh	r1, [r0, #64]	@ movhi
 510 0090 B224C0E1 		strh	r2, [r0, #66]	@ movhi
 511 0094 B434C0E1 		strh	r3, [r0, #68]	@ movhi
 512 0098 1080BDE8 		pop	{r4, pc}
 513              		.cantunwind
 514              		.fnend
 516              		.section	.text._ZN6tflite3ops5micro13strided_slice15CheckOutputSizeEP13TfLiteContextPNS2_19Strided
 517              		.align	2
 518              		.global	_ZN6tflite3ops5micro13strided_slice15CheckOutputSizeEP13TfLiteContextPNS2_19StridedSliceCo
 519              		.syntax unified
 520              		.arm
 521              		.fpu neon
 523              	_ZN6tflite3ops5micro13strided_slice15CheckOutputSizeEP13TfLiteContextPNS2_19StridedSliceContextE:
 524              		.fnstart
 525              	.LFB6223:
 526              		@ args = 0, pretend = 0, frame = 96
 527              		@ frame_needed = 0, uses_anonymous_args = 0
 528 0000 143091E5 		ldr	r3, [r1, #20]
 529 0004 F04F2DE9 		push	{r4, r5, r6, r7, r8, r9, r10, fp, lr}
 530              		.save {r4, r5, r6, r7, r8, r9, r10, fp, lr}
 531 0008 0060A0E3 		mov	r6, #0
 532              		.pad #116
 533 000c 74D04DE2 		sub	sp, sp, #116
 534 0010 0180A0E1 		mov	r8, r1
 535 0014 0050A0E1 		mov	r5, r0
 536 0018 0640A0E1 		mov	r4, r6
 537 001c 28008DE2 		add	r0, sp, #40
 538 0020 089093E5 		ldr	r9, [r3, #8]
 539 0024 FEFFFFEB 		bl	_ZN6tflite3ops5micro13strided_slice23BuildStridedSliceParamsEPNS2_19StridedSliceContextE
 540 0028 041098E5 		ldr	r1, [r8, #4]
 541 002c 14008DE2 		add	r0, sp, #20
 542              	.LEHB0:
 543 0030 FEFFFFEB 		bl	_ZN6tflite14GetTensorShapeEPK12TfLiteTensor
 544              	.LEHE0:
 545              	.L100:
 546 0034 183098E5 		ldr	r3, [r8, #24]
 547 0038 030054E1 		cmp	r4, r3
 548 003c 3E0000AA 		bge	.L92
 549 0040 103098E5 		ldr	r3, [r8, #16]
 550 0044 000053E3 		cmp	r3, #0
 551 0048 04309315 		ldrne	r3, [r3, #4]
 552 004c 04B193E7 		ldr	fp, [r3, r4, lsl #2]
 553 0050 00005BE3 		cmp	fp, #0
 554 0054 0900001A 		bne	.L94
 555 0058 143095E5 		ldr	r3, [r5, #20]
 556 005c 0500A0E1 		mov	r0, r5
 557 0060 18119FE5 		ldr	r1, .L112
 558              	.LEHB1:
 559 0064 33FF2FE1 		blx	r3
 560              	.L99:
 561 0068 0140A0E3 		mov	r4, #1
 562              	.L95:
 563 006c 14008DE2 		add	r0, sp, #20
 564 0070 FEFFFFEB 		bl	_ZN6tflite12RuntimeShapeD1Ev
 565 0074 0400A0E1 		mov	r0, r4
 566 0078 74D08DE2 		add	sp, sp, #116
 567              		@ sp needed
 568 007c F08FBDE8 		pop	{r4, r5, r6, r7, r8, r9, r10, fp, pc}
 569              	.L94:
 570 0080 0420A0E1 		mov	r2, r4
 571 0084 14108DE2 		add	r1, sp, #20
 572 0088 28008DE2 		add	r0, sp, #40
 573 008c FEFFFFEB 		bl	_ZN6tflite13strided_slice12StartForAxisERKNS_18StridedSliceParamsERKNS_12RuntimeShapeEi
 574 0090 00A0A0E1 		mov	r10, r0
 575 0094 0030A0E1 		mov	r3, r0
 576 0098 0420A0E1 		mov	r2, r4
 577 009c 14108DE2 		add	r1, sp, #20
 578 00a0 28008DE2 		add	r0, sp, #40
 579 00a4 FEFFFFEB 		bl	_ZN6tflite13strided_slice11StopForAxisERKNS_18StridedSliceParamsERKNS_12RuntimeShapeEii
 580 00a8 003098E5 		ldr	r3, [r8]
 581 00ac 10BA07EE 		vmov	s14, fp	@ int
 582 00b0 C70AB8EE 		vcvt.f32.s32	s0, s14
 583 00b4 102093E5 		ldr	r2, [r3, #16]
 584 00b8 5224A0E1 		asr	r2, r2, r4
 585 00bc 017012E2 		ands	r7, r2, #1
 586 00c0 01008A12 		addne	r0, r10, #1
 587 00c4 0A0040E0 		sub	r0, r0, r10
 588 00c8 900A07EE 		vmov	s15, r0	@ int
 589 00cc E77AF8EE 		vcvt.f32.s32	s15, s15
 590 00d0 800A87EE 		vdiv.f32	s0, s15, s0
 591 00d4 FEFFFFEB 		bl	ceilf
 592 00d8 000057E3 		cmp	r7, #0
 593 00dc 1400001A 		bne	.L97
 594 00e0 C07AFDEE 		vcvt.s32.f32	s15, s0
 595 00e4 062189E0 		add	r2, r9, r6, lsl #2
 596 00e8 042092E5 		ldr	r2, [r2, #4]
 597 00ec 903A17EE 		vmov	r3, s15	@ int
 598 00f0 C33FC3E1 		bic	r3, r3, r3, asr #31
 599 00f4 020053E1 		cmp	r3, r2
 600 00f8 0C00000A 		beq	.L98
 601 00fc 0C308DE5 		str	r3, [sp, #12]
 602 0100 7C309FE5 		ldr	r3, .L112+4
 603 0104 144095E5 		ldr	r4, [r5, #20]
 604 0108 08208DE5 		str	r2, [sp, #8]
 605 010c 04308DE5 		str	r3, [sp, #4]
 606 0110 70309FE5 		ldr	r3, .L112+8
 607 0114 00308DE5 		str	r3, [sp]
 608 0118 7330A0E3 		mov	r3, #115
 609              	.L111:
 610 011c 68209FE5 		ldr	r2, .L112+12
 611 0120 0500A0E1 		mov	r0, r5
 612 0124 64109FE5 		ldr	r1, .L112+16
 613 0128 34FF2FE1 		blx	r4
 614              	.LEHE1:
 615 012c CDFFFFEA 		b	.L99
 616              	.L98:
 617 0130 016086E2 		add	r6, r6, #1
 618              	.L97:
 619 0134 014084E2 		add	r4, r4, #1
 620 0138 BDFFFFEA 		b	.L100
 621              	.L92:
 622 013c 003099E5 		ldr	r3, [r9]
 623 0140 060053E1 		cmp	r3, r6
 624 0144 0800000A 		beq	.L103
 625 0148 08308DE5 		str	r3, [sp, #8]
 626 014c 40309FE5 		ldr	r3, .L112+20
 627 0150 0C608DE5 		str	r6, [sp, #12]
 628 0154 144095E5 		ldr	r4, [r5, #20]
 629 0158 04308DE5 		str	r3, [sp, #4]
 630 015c 34309FE5 		ldr	r3, .L112+24
 631 0160 00308DE5 		str	r3, [sp]
 632 0164 7730A0E3 		mov	r3, #119
 633 0168 EBFFFFEA 		b	.L111
 634              	.L103:
 635 016c 0040A0E3 		mov	r4, #0
 636 0170 BDFFFFEA 		b	.L95
 637              	.L104:
 638 0174 14008DE2 		add	r0, sp, #20
 639 0178 FEFFFFEB 		bl	_ZN6tflite12RuntimeShapeD1Ev
 640              	.LEHB2:
 641 017c FEFFFFEB 		bl	__cxa_end_cleanup
 642              	.LEHE2:
 643              	.L113:
 644              		.align	2
 645              	.L112:
 646 0180 00000000 		.word	.LC0
 647 0184 D0000000 		.word	.LC3
 648 0188 DA000000 		.word	.LC4
 649 018c 6B000000 		.word	.LC1
 650 0190 B6000000 		.word	.LC2
 651 0194 F9000000 		.word	.LC5
 652 0198 04010000 		.word	.LC6
 653              		.global	__gxx_personality_v0
 654              		.personality	__gxx_personality_v0
 655              		.handlerdata
 656              	.LLSDA6223:
 657 0008 FF       		.byte	0xff
 658 0009 FF       		.byte	0xff
 659 000a 01       		.byte	0x1
 660 000b 0F       		.uleb128 .LLSDACSE6223-.LLSDACSB6223
 661              	.LLSDACSB6223:
 662 000c 30       		.uleb128 .LEHB0-.LFB6223
 663 000d 04       		.uleb128 .LEHE0-.LEHB0
 664 000e 00       		.uleb128 0
 665 000f 00       		.uleb128 0
 666 0010 64       		.uleb128 .LEHB1-.LFB6223
 667 0011 C801     		.uleb128 .LEHE1-.LEHB1
 668 0013 F402     		.uleb128 .L104-.LFB6223
 669 0015 00       		.uleb128 0
 670 0016 FC02     		.uleb128 .LEHB2-.LFB6223
 671 0018 04       		.uleb128 .LEHE2-.LEHB2
 672 0019 00       		.uleb128 0
 673 001a 00       		.uleb128 0
 674              	.LLSDACSE6223:
 675              		.section	.text._ZN6tflite3ops5micro13strided_slice15CheckOutputSizeEP13TfLiteContextPNS2_19Strided
 676              		.fnend
 678              		.section	.text._ZN6tflite3ops5micro13strided_slice7PrepareEP13TfLiteContextP10TfLiteNode,"ax",%pro
 679              		.align	2
 680              		.global	_ZN6tflite3ops5micro13strided_slice7PrepareEP13TfLiteContextP10TfLiteNode
 681              		.syntax unified
 682              		.arm
 683              		.fpu neon
 685              	_ZN6tflite3ops5micro13strided_slice7PrepareEP13TfLiteContextP10TfLiteNode:
 686              		.fnstart
 687              	.LFB6224:
 688              		@ args = 0, pretend = 0, frame = 32
 689              		@ frame_needed = 0, uses_anonymous_args = 0
 690 0000 003091E5 		ldr	r3, [r1]
 691 0004 70402DE9 		push	{r4, r5, r6, lr}
 692              		.save {r4, r5, r6, lr}
 693 0008 0050A0E1 		mov	r5, r0
 694              		.pad #48
 695 000c 30D04DE2 		sub	sp, sp, #48
 696 0010 003093E5 		ldr	r3, [r3]
 697 0014 040053E3 		cmp	r3, #4
 698 0018 0E00000A 		beq	.L115
 699 001c 08308DE5 		str	r3, [sp, #8]
 700 0020 0420A0E3 		mov	r2, #4
 701 0024 A4309FE5 		ldr	r3, .L123
 702 0028 0C208DE5 		str	r2, [sp, #12]
 703 002c 04308DE5 		str	r3, [sp, #4]
 704 0030 9C309FE5 		ldr	r3, .L123+4
 705 0034 00308DE5 		str	r3, [sp]
 706 0038 7C30A0E3 		mov	r3, #124
 707 003c 144090E5 		ldr	r4, [r0, #20]
 708              	.L121:
 709 0040 90209FE5 		ldr	r2, .L123+8
 710 0044 90109FE5 		ldr	r1, .L123+12
 711 0048 34FF2FE1 		blx	r4
 712              	.L122:
 713 004c 0100A0E3 		mov	r0, #1
 714              	.L116:
 715 0050 30D08DE2 		add	sp, sp, #48
 716              		@ sp needed
 717 0054 7080BDE8 		pop	{r4, r5, r6, pc}
 718              	.L115:
 719 0058 043091E5 		ldr	r3, [r1, #4]
 720 005c 0120A0E1 		mov	r2, r1
 721 0060 004093E5 		ldr	r4, [r3]
 722 0064 010054E3 		cmp	r4, #1
 723 0068 0900000A 		beq	.L117
 724 006c 6C309FE5 		ldr	r3, .L123+16
 725 0070 0160A0E3 		mov	r6, #1
 726 0074 0C608DE5 		str	r6, [sp, #12]
 727 0078 08408DE5 		str	r4, [sp, #8]
 728 007c 04308DE5 		str	r3, [sp, #4]
 729 0080 5C309FE5 		ldr	r3, .L123+20
 730 0084 00308DE5 		str	r3, [sp]
 731 0088 7D30A0E3 		mov	r3, #125
 732 008c 144090E5 		ldr	r4, [r0, #20]
 733 0090 EAFFFFEA 		b	.L121
 734              	.L117:
 735 0094 0010A0E1 		mov	r1, r0
 736 0098 14008DE2 		add	r0, sp, #20
 737 009c FEFFFFEB 		bl	_ZN6tflite3ops5micro13strided_slice19StridedSliceContextC1EP13TfLiteContextP10TfLiteNode
 738 00a0 2C309DE5 		ldr	r3, [sp, #44]
 739 00a4 040053E3 		cmp	r3, #4
 740 00a8 040000DA 		ble	.L118
 741 00ac 143095E5 		ldr	r3, [r5, #20]
 742 00b0 0500A0E1 		mov	r0, r5
 743 00b4 2C109FE5 		ldr	r1, .L123+24
 744 00b8 33FF2FE1 		blx	r3
 745 00bc E2FFFFEA 		b	.L122
 746              	.L118:
 747 00c0 14108DE2 		add	r1, sp, #20
 748 00c4 0500A0E1 		mov	r0, r5
 749 00c8 FEFFFFEB 		bl	_ZN6tflite3ops5micro13strided_slice15CheckOutputSizeEP13TfLiteContextPNS2_19StridedSliceContext
 750 00cc DFFFFFEA 		b	.L116
 751              	.L124:
 752              		.align	2
 753              	.L123:
 754 00d0 00000000 		.word	.LC7
 755 00d4 02000000 		.word	.LC8
 756 00d8 6B000000 		.word	.LC1
 757 00dc B6000000 		.word	.LC2
 758 00e0 12000000 		.word	.LC9
 759 00e4 14000000 		.word	.LC10
 760 00e8 25000000 		.word	.LC11
 761              		.fnend
 763              		.section	.text._ZN6tflite3ops5micro22Register_STRIDED_SLICEEv,"ax",%progbits
 764              		.align	2
 765              		.global	_ZN6tflite3ops5micro22Register_STRIDED_SLICEEv
 766              		.syntax unified
 767              		.arm
 768              		.fpu neon
 770              	_ZN6tflite3ops5micro22Register_STRIDED_SLICEEv:
 771              		.fnstart
 772              	.LFB6226:
 773              		@ args = 0, pretend = 0, frame = 0
 774              		@ frame_needed = 0, uses_anonymous_args = 0
 775              		@ link register save eliminated.
 776 0000 10009FE5 		ldr	r0, .L126
 777 0004 10309FE5 		ldr	r3, .L126+4
 778 0008 083080E5 		str	r3, [r0, #8]
 779 000c 0C309FE5 		ldr	r3, .L126+8
 780 0010 0C3080E5 		str	r3, [r0, #12]
 781 0014 1EFF2FE1 		bx	lr
 782              	.L127:
 783              		.align	2
 784              	.L126:
 785 0018 00000000 		.word	.LANCHOR0
 786 001c 00000000 		.word	_ZN6tflite3ops5micro13strided_slice7PrepareEP13TfLiteContextP10TfLiteNode
 787 0020 00000000 		.word	_ZN6tflite3ops5micro13strided_slice4EvalILNS2_10KernelTypeE0EEE12TfLiteStatusP13TfLiteContex
 788              		.cantunwind
 789              		.fnend
 791              		.section	.text._ZN6tflite13reference_ops12StridedSliceIfEEvRKNS_18StridedSliceParamsERKNS_12Runtim
 792              		.align	2
 793              		.weak	_ZN6tflite13reference_ops12StridedSliceIfEEvRKNS_18StridedSliceParamsERKNS_12RuntimeShapeEPK
 794              		.syntax unified
 795              		.arm
 796              		.fpu neon
 798              	_ZN6tflite13reference_ops12StridedSliceIfEEvRKNS_18StridedSliceParamsERKNS_12RuntimeShapeEPKT_S7_PS
 799              		.fnstart
 800              	.LFB6767:
 801              		@ args = 4, pretend = 0, frame = 136
 802              		@ frame_needed = 0, uses_anonymous_args = 0
 803 0000 F04F2DE9 		push	{r4, r5, r6, r7, r8, r9, r10, fp, lr}
 804              		.save {r4, r5, r6, r7, r8, r9, r10, fp, lr}
 805              		.pad #148
 806 0004 94D04DE2 		sub	sp, sp, #148
 807 0008 1C208DE5 		str	r2, [sp, #28]
 808 000c 4820A0E3 		mov	r2, #72
 809 0010 0150A0E1 		mov	r5, r1
 810 0014 0010A0E1 		mov	r1, r0
 811 0018 02008DE0 		add	r0, sp, r2
 812 001c 0340A0E1 		mov	r4, r3
 813 0020 FEFFFFEB 		bl	memcpy
 814 0024 003095E5 		ldr	r3, [r5]
 815 0028 040053E3 		cmp	r3, #4
 816 002c 000000DA 		ble	.L129
 817              	.L130:
 818              	.LEHB3:
 819 0030 FEFFFFEB 		bl	abort
 820              	.L129:
 821 0034 003094E5 		ldr	r3, [r4]
 822 0038 040053E3 		cmp	r3, #4
 823 003c FBFFFFCA 		bgt	.L130
 824 0040 0130A0E3 		mov	r3, #1
 825 0044 0520A0E1 		mov	r2, r5
 826 0048 0410A0E3 		mov	r1, #4
 827 004c 20008DE2 		add	r0, sp, #32
 828 0050 FEFFFFEB 		bl	_ZN6tflite12RuntimeShapeC1EiRKS0_i
 829              	.LEHE3:
 830 0054 0130A0E3 		mov	r3, #1
 831 0058 0420A0E1 		mov	r2, r4
 832 005c 0410A0E3 		mov	r1, #4
 833 0060 34008DE2 		add	r0, sp, #52
 834              	.LEHB4:
 835 0064 FEFFFFEB 		bl	_ZN6tflite12RuntimeShapeC1EiRKS0_i
 836              	.LEHE4:
 837 0068 0410A0E3 		mov	r1, #4
 838 006c 48008DE2 		add	r0, sp, #72
 839              	.LEHB5:
 840 0070 FEFFFFEB 		bl	_ZN6tflite13strided_slice22StridedSlicePadIndicesEPNS_18StridedSliceParamsEi
 841 0074 0020A0E3 		mov	r2, #0
 842 0078 20108DE2 		add	r1, sp, #32
 843 007c 48008DE2 		add	r0, sp, #72
 844 0080 FEFFFFEB 		bl	_ZN6tflite13strided_slice12StartForAxisERKNS_18StridedSliceParamsERKNS_12RuntimeShapeEi
 845 0084 0040A0E1 		mov	r4, r0
 846 0088 0030A0E1 		mov	r3, r0
 847 008c 0020A0E3 		mov	r2, #0
 848 0090 20108DE2 		add	r1, sp, #32
 849 0094 48008DE2 		add	r0, sp, #72
 850 0098 FEFFFFEB 		bl	_ZN6tflite13strided_slice11StopForAxisERKNS_18StridedSliceParamsERKNS_12RuntimeShapeEii
 851 009c 0C008DE5 		str	r0, [sp, #12]
 852 00a0 0120A0E3 		mov	r2, #1
 853 00a4 20108DE2 		add	r1, sp, #32
 854 00a8 48008DE2 		add	r0, sp, #72
 855 00ac FEFFFFEB 		bl	_ZN6tflite13strided_slice12StartForAxisERKNS_18StridedSliceParamsERKNS_12RuntimeShapeEi
 856 00b0 10008DE5 		str	r0, [sp, #16]
 857 00b4 0030A0E1 		mov	r3, r0
 858 00b8 0120A0E3 		mov	r2, #1
 859 00bc 20108DE2 		add	r1, sp, #32
 860 00c0 48008DE2 		add	r0, sp, #72
 861 00c4 FEFFFFEB 		bl	_ZN6tflite13strided_slice11StopForAxisERKNS_18StridedSliceParamsERKNS_12RuntimeShapeEii
 862 00c8 14008DE5 		str	r0, [sp, #20]
 863 00cc 0220A0E3 		mov	r2, #2
 864 00d0 20108DE2 		add	r1, sp, #32
 865 00d4 48008DE2 		add	r0, sp, #72
 866 00d8 FEFFFFEB 		bl	_ZN6tflite13strided_slice12StartForAxisERKNS_18StridedSliceParamsERKNS_12RuntimeShapeEi
 867 00dc 18008DE5 		str	r0, [sp, #24]
 868 00e0 0030A0E1 		mov	r3, r0
 869 00e4 0220A0E3 		mov	r2, #2
 870 00e8 20108DE2 		add	r1, sp, #32
 871 00ec 48008DE2 		add	r0, sp, #72
 872 00f0 FEFFFFEB 		bl	_ZN6tflite13strided_slice11StopForAxisERKNS_18StridedSliceParamsERKNS_12RuntimeShapeEii
 873 00f4 0090A0E1 		mov	r9, r0
 874 00f8 0320A0E3 		mov	r2, #3
 875 00fc 20108DE2 		add	r1, sp, #32
 876 0100 48008DE2 		add	r0, sp, #72
 877 0104 FEFFFFEB 		bl	_ZN6tflite13strided_slice12StartForAxisERKNS_18StridedSliceParamsERKNS_12RuntimeShapeEi
 878 0108 00A0A0E1 		mov	r10, r0
 879 010c 0030A0E1 		mov	r3, r0
 880 0110 0320A0E3 		mov	r2, #3
 881 0114 20108DE2 		add	r1, sp, #32
 882 0118 48008DE2 		add	r0, sp, #72
 883 011c FEFFFFEB 		bl	_ZN6tflite13strided_slice11StopForAxisERKNS_18StridedSliceParamsERKNS_12RuntimeShapeEii
 884 0120 00B0A0E1 		mov	fp, r0
 885              	.L146:
 886 0124 74309DE5 		ldr	r3, [sp, #116]
 887 0128 000053E3 		cmp	r3, #0
 888 012c 0C309DE5 		ldr	r3, [sp, #12]
 889 0130 290000DA 		ble	.L131
 890 0134 030054E1 		cmp	r4, r3
 891 0138 0030A0B3 		movlt	r3, #0
 892 013c 0130A0A3 		movge	r3, #1
 893              	.L132:
 894 0140 000053E3 		cmp	r3, #0
 895 0144 4400001A 		bne	.L133
 896 0148 10509DE5 		ldr	r5, [sp, #16]
 897              	.L145:
 898 014c 78309DE5 		ldr	r3, [sp, #120]
 899 0150 000053E3 		cmp	r3, #0
 900 0154 14309DE5 		ldr	r3, [sp, #20]
 901 0158 230000DA 		ble	.L134
 902 015c 030055E1 		cmp	r5, r3
 903 0160 0030A0B3 		movlt	r3, #0
 904 0164 0130A0A3 		movge	r3, #1
 905              	.L135:
 906 0168 000053E3 		cmp	r3, #0
 907 016c 3700001A 		bne	.L136
 908 0170 18609DE5 		ldr	r6, [sp, #24]
 909              	.L144:
 910 0174 7C309DE5 		ldr	r3, [sp, #124]
 911 0178 000053E3 		cmp	r3, #0
 912 017c 1E0000DA 		ble	.L137
 913 0180 090056E1 		cmp	r6, r9
 914 0184 0030A0B3 		movlt	r3, #0
 915 0188 0130A0A3 		movge	r3, #1
 916              	.L138:
 917 018c 000053E3 		cmp	r3, #0
 918 0190 2B00001A 		bne	.L139
 919 0194 B8809DE5 		ldr	r8, [sp, #184]
 920 0198 0A70A0E1 		mov	r7, r10
 921              	.L143:
 922 019c 80309DE5 		ldr	r3, [sp, #128]
 923 01a0 B8808DE5 		str	r8, [sp, #184]
 924 01a4 000053E3 		cmp	r3, #0
 925 01a8 170000DA 		ble	.L140
 926 01ac 0B0057E1 		cmp	r7, fp
 927 01b0 0030A0B3 		movlt	r3, #0
 928 01b4 0130A0A3 		movge	r3, #1
 929              	.L141:
 930 01b8 000053E3 		cmp	r3, #0
 931 01bc 1D00001A 		bne	.L142
 932 01c0 00708DE5 		str	r7, [sp]
 933 01c4 0630A0E1 		mov	r3, r6
 934 01c8 0520A0E1 		mov	r2, r5
 935 01cc 0410A0E1 		mov	r1, r4
 936 01d0 20008DE2 		add	r0, sp, #32
 937 01d4 FEFFFFEB 		bl	_ZN6tflite6OffsetERKNS_12RuntimeShapeEiiii
 938              	.LEHE5:
 939 01d8 0F0000EA 		b	.L153
 940              	.L131:
 941 01dc 030054E1 		cmp	r4, r3
 942 01e0 0030A0C3 		movgt	r3, #0
 943 01e4 0130A0D3 		movle	r3, #1
 944 01e8 D4FFFFEA 		b	.L132
 945              	.L134:
 946 01ec 030055E1 		cmp	r5, r3
 947 01f0 0030A0C3 		movgt	r3, #0
 948 01f4 0130A0D3 		movle	r3, #1
 949 01f8 DAFFFFEA 		b	.L135
 950              	.L137:
 951 01fc 090056E1 		cmp	r6, r9
 952 0200 0030A0C3 		movgt	r3, #0
 953 0204 0130A0D3 		movle	r3, #1
 954 0208 DFFFFFEA 		b	.L138
 955              	.L140:
 956 020c 0B0057E1 		cmp	r7, fp
 957 0210 0030A0C3 		movgt	r3, #0
 958 0214 0130A0D3 		movle	r3, #1
 959 0218 E6FFFFEA 		b	.L141
 960              	.L153:
 961 021c 1C309DE5 		ldr	r3, [sp, #28]
 962 0220 000183E0 		add	r0, r3, r0, lsl #2
 963 0224 003090E5 		ldr	r3, [r0]	@ float
 964 0228 043088E4 		str	r3, [r8], #4	@ float
 965 022c 80309DE5 		ldr	r3, [sp, #128]
 966 0230 037087E0 		add	r7, r7, r3
 967 0234 D8FFFFEA 		b	.L143
 968              	.L142:
 969 0238 7C309DE5 		ldr	r3, [sp, #124]
 970 023c 036086E0 		add	r6, r6, r3
 971 0240 CBFFFFEA 		b	.L144
 972              	.L139:
 973 0244 78309DE5 		ldr	r3, [sp, #120]
 974 0248 035085E0 		add	r5, r5, r3
 975 024c BEFFFFEA 		b	.L145
 976              	.L136:
 977 0250 74309DE5 		ldr	r3, [sp, #116]
 978 0254 034084E0 		add	r4, r4, r3
 979 0258 B1FFFFEA 		b	.L146
 980              	.L133:
 981 025c 34008DE2 		add	r0, sp, #52
 982 0260 FEFFFFEB 		bl	_ZN6tflite12RuntimeShapeD1Ev
 983 0264 20008DE2 		add	r0, sp, #32
 984 0268 FEFFFFEB 		bl	_ZN6tflite12RuntimeShapeD1Ev
 985 026c 94D08DE2 		add	sp, sp, #148
 986              		@ sp needed
 987 0270 F08FBDE8 		pop	{r4, r5, r6, r7, r8, r9, r10, fp, pc}
 988              	.L150:
 989 0274 34008DE2 		add	r0, sp, #52
 990 0278 FEFFFFEB 		bl	_ZN6tflite12RuntimeShapeD1Ev
 991              	.L148:
 992 027c 20008DE2 		add	r0, sp, #32
 993 0280 FEFFFFEB 		bl	_ZN6tflite12RuntimeShapeD1Ev
 994              	.LEHB6:
 995 0284 FEFFFFEB 		bl	__cxa_end_cleanup
 996              	.LEHE6:
 997              	.L149:
 998 0288 FBFFFFEA 		b	.L148
 999              		.personality	__gxx_personality_v0
 1000              		.handlerdata
 1001              	.LLSDA6767:
 1002 0008 FF       		.byte	0xff
 1003 0009 FF       		.byte	0xff
 1004 000a 01       		.byte	0x1
 1005 000b 14       		.uleb128 .LLSDACSE6767-.LLSDACSB6767
 1006              	.LLSDACSB6767:
 1007 000c 30       		.uleb128 .LEHB3-.LFB6767
 1008 000d 24       		.uleb128 .LEHE3-.LEHB3
 1009 000e 00       		.uleb128 0
 1010 000f 00       		.uleb128 0
 1011 0010 64       		.uleb128 .LEHB4-.LFB6767
 1012 0011 04       		.uleb128 .LEHE4-.LEHB4
 1013 0012 8805     		.uleb128 .L149-.LFB6767
 1014 0014 00       		.uleb128 0
 1015 0015 70       		.uleb128 .LEHB5-.LFB6767
 1016 0016 E802     		.uleb128 .LEHE5-.LEHB5
 1017 0018 F404     		.uleb128 .L150-.LFB6767
 1018 001a 00       		.uleb128 0
 1019 001b 8405     		.uleb128 .LEHB6-.LFB6767
 1020 001d 04       		.uleb128 .LEHE6-.LEHB6
 1021 001e 00       		.uleb128 0
 1022 001f 00       		.uleb128 0
 1023              	.LLSDACSE6767:
 1024              		.section	.text._ZN6tflite13reference_ops12StridedSliceIfEEvRKNS_18StridedSliceParamsERKNS_12Runtim
 1025              		.fnend
 1027              		.section	.text._ZN6tflite13reference_ops12StridedSliceIhEEvRKNS_18StridedSliceParamsERKNS_12Runtim
 1028              		.align	2
 1029              		.weak	_ZN6tflite13reference_ops12StridedSliceIhEEvRKNS_18StridedSliceParamsERKNS_12RuntimeShapeEPK
 1030              		.syntax unified
 1031              		.arm
 1032              		.fpu neon
 1034              	_ZN6tflite13reference_ops12StridedSliceIhEEvRKNS_18StridedSliceParamsERKNS_12RuntimeShapeEPKT_S7_PS
 1035              		.fnstart
 1036              	.LFB6770:
 1037              		@ args = 4, pretend = 0, frame = 136
 1038              		@ frame_needed = 0, uses_anonymous_args = 0
 1039 0000 F04F2DE9 		push	{r4, r5, r6, r7, r8, r9, r10, fp, lr}
 1040              		.save {r4, r5, r6, r7, r8, r9, r10, fp, lr}
 1041              		.pad #148
 1042 0004 94D04DE2 		sub	sp, sp, #148
 1043 0008 1C208DE5 		str	r2, [sp, #28]
 1044 000c 4820A0E3 		mov	r2, #72
 1045 0010 0150A0E1 		mov	r5, r1
 1046 0014 0010A0E1 		mov	r1, r0
 1047 0018 02008DE0 		add	r0, sp, r2
 1048 001c 0340A0E1 		mov	r4, r3
 1049 0020 FEFFFFEB 		bl	memcpy
 1050 0024 003095E5 		ldr	r3, [r5]
 1051 0028 040053E3 		cmp	r3, #4
 1052 002c 000000DA 		ble	.L155
 1053              	.L156:
 1054              	.LEHB7:
 1055 0030 FEFFFFEB 		bl	abort
 1056              	.L155:
 1057 0034 003094E5 		ldr	r3, [r4]
 1058 0038 040053E3 		cmp	r3, #4
 1059 003c FBFFFFCA 		bgt	.L156
 1060 0040 0130A0E3 		mov	r3, #1
 1061 0044 0520A0E1 		mov	r2, r5
 1062 0048 0410A0E3 		mov	r1, #4
 1063 004c 20008DE2 		add	r0, sp, #32
 1064 0050 FEFFFFEB 		bl	_ZN6tflite12RuntimeShapeC1EiRKS0_i
 1065              	.LEHE7:
 1066 0054 0130A0E3 		mov	r3, #1
 1067 0058 0420A0E1 		mov	r2, r4
 1068 005c 0410A0E3 		mov	r1, #4
 1069 0060 34008DE2 		add	r0, sp, #52
 1070              	.LEHB8:
 1071 0064 FEFFFFEB 		bl	_ZN6tflite12RuntimeShapeC1EiRKS0_i
 1072              	.LEHE8:
 1073 0068 0410A0E3 		mov	r1, #4
 1074 006c 48008DE2 		add	r0, sp, #72
 1075              	.LEHB9:
 1076 0070 FEFFFFEB 		bl	_ZN6tflite13strided_slice22StridedSlicePadIndicesEPNS_18StridedSliceParamsEi
 1077 0074 0020A0E3 		mov	r2, #0
 1078 0078 20108DE2 		add	r1, sp, #32
 1079 007c 48008DE2 		add	r0, sp, #72
 1080 0080 FEFFFFEB 		bl	_ZN6tflite13strided_slice12StartForAxisERKNS_18StridedSliceParamsERKNS_12RuntimeShapeEi
 1081 0084 0040A0E1 		mov	r4, r0
 1082 0088 0030A0E1 		mov	r3, r0
 1083 008c 0020A0E3 		mov	r2, #0
 1084 0090 20108DE2 		add	r1, sp, #32
 1085 0094 48008DE2 		add	r0, sp, #72
 1086 0098 FEFFFFEB 		bl	_ZN6tflite13strided_slice11StopForAxisERKNS_18StridedSliceParamsERKNS_12RuntimeShapeEii
 1087 009c 0C008DE5 		str	r0, [sp, #12]
 1088 00a0 0120A0E3 		mov	r2, #1
 1089 00a4 20108DE2 		add	r1, sp, #32
 1090 00a8 48008DE2 		add	r0, sp, #72
 1091 00ac FEFFFFEB 		bl	_ZN6tflite13strided_slice12StartForAxisERKNS_18StridedSliceParamsERKNS_12RuntimeShapeEi
 1092 00b0 10008DE5 		str	r0, [sp, #16]
 1093 00b4 0030A0E1 		mov	r3, r0
 1094 00b8 0120A0E3 		mov	r2, #1
 1095 00bc 20108DE2 		add	r1, sp, #32
 1096 00c0 48008DE2 		add	r0, sp, #72
 1097 00c4 FEFFFFEB 		bl	_ZN6tflite13strided_slice11StopForAxisERKNS_18StridedSliceParamsERKNS_12RuntimeShapeEii
 1098 00c8 14008DE5 		str	r0, [sp, #20]
 1099 00cc 0220A0E3 		mov	r2, #2
 1100 00d0 20108DE2 		add	r1, sp, #32
 1101 00d4 48008DE2 		add	r0, sp, #72
 1102 00d8 FEFFFFEB 		bl	_ZN6tflite13strided_slice12StartForAxisERKNS_18StridedSliceParamsERKNS_12RuntimeShapeEi
 1103 00dc 18008DE5 		str	r0, [sp, #24]
 1104 00e0 0030A0E1 		mov	r3, r0
 1105 00e4 0220A0E3 		mov	r2, #2
 1106 00e8 20108DE2 		add	r1, sp, #32
 1107 00ec 48008DE2 		add	r0, sp, #72
 1108 00f0 FEFFFFEB 		bl	_ZN6tflite13strided_slice11StopForAxisERKNS_18StridedSliceParamsERKNS_12RuntimeShapeEii
 1109 00f4 0090A0E1 		mov	r9, r0
 1110 00f8 0320A0E3 		mov	r2, #3
 1111 00fc 20108DE2 		add	r1, sp, #32
 1112 0100 48008DE2 		add	r0, sp, #72
 1113 0104 FEFFFFEB 		bl	_ZN6tflite13strided_slice12StartForAxisERKNS_18StridedSliceParamsERKNS_12RuntimeShapeEi
 1114 0108 00A0A0E1 		mov	r10, r0
 1115 010c 0030A0E1 		mov	r3, r0
 1116 0110 0320A0E3 		mov	r2, #3
 1117 0114 20108DE2 		add	r1, sp, #32
 1118 0118 48008DE2 		add	r0, sp, #72
 1119 011c FEFFFFEB 		bl	_ZN6tflite13strided_slice11StopForAxisERKNS_18StridedSliceParamsERKNS_12RuntimeShapeEii
 1120 0120 00B0A0E1 		mov	fp, r0
 1121              	.L172:
 1122 0124 74309DE5 		ldr	r3, [sp, #116]
 1123 0128 000053E3 		cmp	r3, #0
 1124 012c 0C309DE5 		ldr	r3, [sp, #12]
 1125 0130 290000DA 		ble	.L157
 1126 0134 030054E1 		cmp	r4, r3
 1127 0138 0030A0B3 		movlt	r3, #0
 1128 013c 0130A0A3 		movge	r3, #1
 1129              	.L158:
 1130 0140 000053E3 		cmp	r3, #0
 1131 0144 4300001A 		bne	.L159
 1132 0148 10509DE5 		ldr	r5, [sp, #16]
 1133              	.L171:
 1134 014c 78309DE5 		ldr	r3, [sp, #120]
 1135 0150 000053E3 		cmp	r3, #0
 1136 0154 14309DE5 		ldr	r3, [sp, #20]
 1137 0158 230000DA 		ble	.L160
 1138 015c 030055E1 		cmp	r5, r3
 1139 0160 0030A0B3 		movlt	r3, #0
 1140 0164 0130A0A3 		movge	r3, #1
 1141              	.L161:
 1142 0168 000053E3 		cmp	r3, #0
 1143 016c 3600001A 		bne	.L162
 1144 0170 18609DE5 		ldr	r6, [sp, #24]
 1145              	.L170:
 1146 0174 7C309DE5 		ldr	r3, [sp, #124]
 1147 0178 000053E3 		cmp	r3, #0
 1148 017c 1E0000DA 		ble	.L163
 1149 0180 090056E1 		cmp	r6, r9
 1150 0184 0030A0B3 		movlt	r3, #0
 1151 0188 0130A0A3 		movge	r3, #1
 1152              	.L164:
 1153 018c 000053E3 		cmp	r3, #0
 1154 0190 2A00001A 		bne	.L165
 1155 0194 B8809DE5 		ldr	r8, [sp, #184]
 1156 0198 0A70A0E1 		mov	r7, r10
 1157              	.L169:
 1158 019c 80309DE5 		ldr	r3, [sp, #128]
 1159 01a0 B8808DE5 		str	r8, [sp, #184]
 1160 01a4 000053E3 		cmp	r3, #0
 1161 01a8 170000DA 		ble	.L166
 1162 01ac 0B0057E1 		cmp	r7, fp
 1163 01b0 0030A0B3 		movlt	r3, #0
 1164 01b4 0130A0A3 		movge	r3, #1
 1165              	.L167:
 1166 01b8 000053E3 		cmp	r3, #0
 1167 01bc 1C00001A 		bne	.L168
 1168 01c0 00708DE5 		str	r7, [sp]
 1169 01c4 0630A0E1 		mov	r3, r6
 1170 01c8 0520A0E1 		mov	r2, r5
 1171 01cc 0410A0E1 		mov	r1, r4
 1172 01d0 20008DE2 		add	r0, sp, #32
 1173 01d4 FEFFFFEB 		bl	_ZN6tflite6OffsetERKNS_12RuntimeShapeEiiii
 1174              	.LEHE9:
 1175 01d8 0F0000EA 		b	.L179
 1176              	.L157:
 1177 01dc 030054E1 		cmp	r4, r3
 1178 01e0 0030A0C3 		movgt	r3, #0
 1179 01e4 0130A0D3 		movle	r3, #1
 1180 01e8 D4FFFFEA 		b	.L158
 1181              	.L160:
 1182 01ec 030055E1 		cmp	r5, r3
 1183 01f0 0030A0C3 		movgt	r3, #0
 1184 01f4 0130A0D3 		movle	r3, #1
 1185 01f8 DAFFFFEA 		b	.L161
 1186              	.L163:
 1187 01fc 090056E1 		cmp	r6, r9
 1188 0200 0030A0C3 		movgt	r3, #0
 1189 0204 0130A0D3 		movle	r3, #1
 1190 0208 DFFFFFEA 		b	.L164
 1191              	.L166:
 1192 020c 0B0057E1 		cmp	r7, fp
 1193 0210 0030A0C3 		movgt	r3, #0
 1194 0214 0130A0D3 		movle	r3, #1
 1195 0218 E6FFFFEA 		b	.L167
 1196              	.L179:
 1197 021c 1C309DE5 		ldr	r3, [sp, #28]
 1198 0220 0030D3E7 		ldrb	r3, [r3, r0]	@ zero_extendqisi2
 1199 0224 0130C8E4 		strb	r3, [r8], #1
 1200 0228 80309DE5 		ldr	r3, [sp, #128]
 1201 022c 037087E0 		add	r7, r7, r3
 1202 0230 D9FFFFEA 		b	.L169
 1203              	.L168:
 1204 0234 7C309DE5 		ldr	r3, [sp, #124]
 1205 0238 036086E0 		add	r6, r6, r3
 1206 023c CCFFFFEA 		b	.L170
 1207              	.L165:
 1208 0240 78309DE5 		ldr	r3, [sp, #120]
 1209 0244 035085E0 		add	r5, r5, r3
 1210 0248 BFFFFFEA 		b	.L171
 1211              	.L162:
 1212 024c 74309DE5 		ldr	r3, [sp, #116]
 1213 0250 034084E0 		add	r4, r4, r3
 1214 0254 B2FFFFEA 		b	.L172
 1215              	.L159:
 1216 0258 34008DE2 		add	r0, sp, #52
 1217 025c FEFFFFEB 		bl	_ZN6tflite12RuntimeShapeD1Ev
 1218 0260 20008DE2 		add	r0, sp, #32
 1219 0264 FEFFFFEB 		bl	_ZN6tflite12RuntimeShapeD1Ev
 1220 0268 94D08DE2 		add	sp, sp, #148
 1221              		@ sp needed
 1222 026c F08FBDE8 		pop	{r4, r5, r6, r7, r8, r9, r10, fp, pc}
 1223              	.L176:
 1224 0270 34008DE2 		add	r0, sp, #52
 1225 0274 FEFFFFEB 		bl	_ZN6tflite12RuntimeShapeD1Ev
 1226              	.L174:
 1227 0278 20008DE2 		add	r0, sp, #32
 1228 027c FEFFFFEB 		bl	_ZN6tflite12RuntimeShapeD1Ev
 1229              	.LEHB10:
 1230 0280 FEFFFFEB 		bl	__cxa_end_cleanup
 1231              	.LEHE10:
 1232              	.L175:
 1233 0284 FBFFFFEA 		b	.L174
 1234              		.personality	__gxx_personality_v0
 1235              		.handlerdata
 1236              	.LLSDA6770:
 1237 0008 FF       		.byte	0xff
 1238 0009 FF       		.byte	0xff
 1239 000a 01       		.byte	0x1
 1240 000b 14       		.uleb128 .LLSDACSE6770-.LLSDACSB6770
 1241              	.LLSDACSB6770:
 1242 000c 30       		.uleb128 .LEHB7-.LFB6770
 1243 000d 24       		.uleb128 .LEHE7-.LEHB7
 1244 000e 00       		.uleb128 0
 1245 000f 00       		.uleb128 0
 1246 0010 64       		.uleb128 .LEHB8-.LFB6770
 1247 0011 04       		.uleb128 .LEHE8-.LEHB8
 1248 0012 8405     		.uleb128 .L175-.LFB6770
 1249 0014 00       		.uleb128 0
 1250 0015 70       		.uleb128 .LEHB9-.LFB6770
 1251 0016 E802     		.uleb128 .LEHE9-.LEHB9
 1252 0018 F004     		.uleb128 .L176-.LFB6770
 1253 001a 00       		.uleb128 0
 1254 001b 8005     		.uleb128 .LEHB10-.LFB6770
 1255 001d 04       		.uleb128 .LEHE10-.LEHB10
 1256 001e 00       		.uleb128 0
 1257 001f 00       		.uleb128 0
 1258              	.LLSDACSE6770:
 1259              		.section	.text._ZN6tflite13reference_ops12StridedSliceIhEEvRKNS_18StridedSliceParamsERKNS_12Runtim
 1260              		.fnend
 1262              		.section	.text._ZN6tflite13reference_ops12StridedSliceIaEEvRKNS_18StridedSliceParamsERKNS_12Runtim
 1263              		.align	2
 1264              		.weak	_ZN6tflite13reference_ops12StridedSliceIaEEvRKNS_18StridedSliceParamsERKNS_12RuntimeShapeEPK
 1265              		.syntax unified
 1266              		.arm
 1267              		.fpu neon
 1269              	_ZN6tflite13reference_ops12StridedSliceIaEEvRKNS_18StridedSliceParamsERKNS_12RuntimeShapeEPKT_S7_PS
 1270              		.fnstart
 1271              	.LFB6773:
 1272              		@ args = 4, pretend = 0, frame = 136
 1273              		@ frame_needed = 0, uses_anonymous_args = 0
 1274 0000 F04F2DE9 		push	{r4, r5, r6, r7, r8, r9, r10, fp, lr}
 1275              		.save {r4, r5, r6, r7, r8, r9, r10, fp, lr}
 1276              		.pad #148
 1277 0004 94D04DE2 		sub	sp, sp, #148
 1278 0008 1C208DE5 		str	r2, [sp, #28]
 1279 000c 4820A0E3 		mov	r2, #72
 1280 0010 0150A0E1 		mov	r5, r1
 1281 0014 0010A0E1 		mov	r1, r0
 1282 0018 02008DE0 		add	r0, sp, r2
 1283 001c 0340A0E1 		mov	r4, r3
 1284 0020 FEFFFFEB 		bl	memcpy
 1285 0024 003095E5 		ldr	r3, [r5]
 1286 0028 040053E3 		cmp	r3, #4
 1287 002c 000000DA 		ble	.L181
 1288              	.L182:
 1289              	.LEHB11:
 1290 0030 FEFFFFEB 		bl	abort
 1291              	.L181:
 1292 0034 003094E5 		ldr	r3, [r4]
 1293 0038 040053E3 		cmp	r3, #4
 1294 003c FBFFFFCA 		bgt	.L182
 1295 0040 0130A0E3 		mov	r3, #1
 1296 0044 0520A0E1 		mov	r2, r5
 1297 0048 0410A0E3 		mov	r1, #4
 1298 004c 20008DE2 		add	r0, sp, #32
 1299 0050 FEFFFFEB 		bl	_ZN6tflite12RuntimeShapeC1EiRKS0_i
 1300              	.LEHE11:
 1301 0054 0130A0E3 		mov	r3, #1
 1302 0058 0420A0E1 		mov	r2, r4
 1303 005c 0410A0E3 		mov	r1, #4
 1304 0060 34008DE2 		add	r0, sp, #52
 1305              	.LEHB12:
 1306 0064 FEFFFFEB 		bl	_ZN6tflite12RuntimeShapeC1EiRKS0_i
 1307              	.LEHE12:
 1308 0068 0410A0E3 		mov	r1, #4
 1309 006c 48008DE2 		add	r0, sp, #72
 1310              	.LEHB13:
 1311 0070 FEFFFFEB 		bl	_ZN6tflite13strided_slice22StridedSlicePadIndicesEPNS_18StridedSliceParamsEi
 1312 0074 0020A0E3 		mov	r2, #0
 1313 0078 20108DE2 		add	r1, sp, #32
 1314 007c 48008DE2 		add	r0, sp, #72
 1315 0080 FEFFFFEB 		bl	_ZN6tflite13strided_slice12StartForAxisERKNS_18StridedSliceParamsERKNS_12RuntimeShapeEi
 1316 0084 0040A0E1 		mov	r4, r0
 1317 0088 0030A0E1 		mov	r3, r0
 1318 008c 0020A0E3 		mov	r2, #0
 1319 0090 20108DE2 		add	r1, sp, #32
 1320 0094 48008DE2 		add	r0, sp, #72
 1321 0098 FEFFFFEB 		bl	_ZN6tflite13strided_slice11StopForAxisERKNS_18StridedSliceParamsERKNS_12RuntimeShapeEii
 1322 009c 0C008DE5 		str	r0, [sp, #12]
 1323 00a0 0120A0E3 		mov	r2, #1
 1324 00a4 20108DE2 		add	r1, sp, #32
 1325 00a8 48008DE2 		add	r0, sp, #72
 1326 00ac FEFFFFEB 		bl	_ZN6tflite13strided_slice12StartForAxisERKNS_18StridedSliceParamsERKNS_12RuntimeShapeEi
 1327 00b0 10008DE5 		str	r0, [sp, #16]
 1328 00b4 0030A0E1 		mov	r3, r0
 1329 00b8 0120A0E3 		mov	r2, #1
 1330 00bc 20108DE2 		add	r1, sp, #32
 1331 00c0 48008DE2 		add	r0, sp, #72
 1332 00c4 FEFFFFEB 		bl	_ZN6tflite13strided_slice11StopForAxisERKNS_18StridedSliceParamsERKNS_12RuntimeShapeEii
 1333 00c8 14008DE5 		str	r0, [sp, #20]
 1334 00cc 0220A0E3 		mov	r2, #2
 1335 00d0 20108DE2 		add	r1, sp, #32
 1336 00d4 48008DE2 		add	r0, sp, #72
 1337 00d8 FEFFFFEB 		bl	_ZN6tflite13strided_slice12StartForAxisERKNS_18StridedSliceParamsERKNS_12RuntimeShapeEi
 1338 00dc 18008DE5 		str	r0, [sp, #24]
 1339 00e0 0030A0E1 		mov	r3, r0
 1340 00e4 0220A0E3 		mov	r2, #2
 1341 00e8 20108DE2 		add	r1, sp, #32
 1342 00ec 48008DE2 		add	r0, sp, #72
 1343 00f0 FEFFFFEB 		bl	_ZN6tflite13strided_slice11StopForAxisERKNS_18StridedSliceParamsERKNS_12RuntimeShapeEii
 1344 00f4 0090A0E1 		mov	r9, r0
 1345 00f8 0320A0E3 		mov	r2, #3
 1346 00fc 20108DE2 		add	r1, sp, #32
 1347 0100 48008DE2 		add	r0, sp, #72
 1348 0104 FEFFFFEB 		bl	_ZN6tflite13strided_slice12StartForAxisERKNS_18StridedSliceParamsERKNS_12RuntimeShapeEi
 1349 0108 00A0A0E1 		mov	r10, r0
 1350 010c 0030A0E1 		mov	r3, r0
 1351 0110 0320A0E3 		mov	r2, #3
 1352 0114 20108DE2 		add	r1, sp, #32
 1353 0118 48008DE2 		add	r0, sp, #72
 1354 011c FEFFFFEB 		bl	_ZN6tflite13strided_slice11StopForAxisERKNS_18StridedSliceParamsERKNS_12RuntimeShapeEii
 1355 0120 00B0A0E1 		mov	fp, r0
 1356              	.L198:
 1357 0124 74309DE5 		ldr	r3, [sp, #116]
 1358 0128 000053E3 		cmp	r3, #0
 1359 012c 0C309DE5 		ldr	r3, [sp, #12]
 1360 0130 290000DA 		ble	.L183
 1361 0134 030054E1 		cmp	r4, r3
 1362 0138 0030A0B3 		movlt	r3, #0
 1363 013c 0130A0A3 		movge	r3, #1
 1364              	.L184:
 1365 0140 000053E3 		cmp	r3, #0
 1366 0144 4300001A 		bne	.L185
 1367 0148 10509DE5 		ldr	r5, [sp, #16]
 1368              	.L197:
 1369 014c 78309DE5 		ldr	r3, [sp, #120]
 1370 0150 000053E3 		cmp	r3, #0
 1371 0154 14309DE5 		ldr	r3, [sp, #20]
 1372 0158 230000DA 		ble	.L186
 1373 015c 030055E1 		cmp	r5, r3
 1374 0160 0030A0B3 		movlt	r3, #0
 1375 0164 0130A0A3 		movge	r3, #1
 1376              	.L187:
 1377 0168 000053E3 		cmp	r3, #0
 1378 016c 3600001A 		bne	.L188
 1379 0170 18609DE5 		ldr	r6, [sp, #24]
 1380              	.L196:
 1381 0174 7C309DE5 		ldr	r3, [sp, #124]
 1382 0178 000053E3 		cmp	r3, #0
 1383 017c 1E0000DA 		ble	.L189
 1384 0180 090056E1 		cmp	r6, r9
 1385 0184 0030A0B3 		movlt	r3, #0
 1386 0188 0130A0A3 		movge	r3, #1
 1387              	.L190:
 1388 018c 000053E3 		cmp	r3, #0
 1389 0190 2A00001A 		bne	.L191
 1390 0194 B8809DE5 		ldr	r8, [sp, #184]
 1391 0198 0A70A0E1 		mov	r7, r10
 1392              	.L195:
 1393 019c 80309DE5 		ldr	r3, [sp, #128]
 1394 01a0 B8808DE5 		str	r8, [sp, #184]
 1395 01a4 000053E3 		cmp	r3, #0
 1396 01a8 170000DA 		ble	.L192
 1397 01ac 0B0057E1 		cmp	r7, fp
 1398 01b0 0030A0B3 		movlt	r3, #0
 1399 01b4 0130A0A3 		movge	r3, #1
 1400              	.L193:
 1401 01b8 000053E3 		cmp	r3, #0
 1402 01bc 1C00001A 		bne	.L194
 1403 01c0 00708DE5 		str	r7, [sp]
 1404 01c4 0630A0E1 		mov	r3, r6
 1405 01c8 0520A0E1 		mov	r2, r5
 1406 01cc 0410A0E1 		mov	r1, r4
 1407 01d0 20008DE2 		add	r0, sp, #32
 1408 01d4 FEFFFFEB 		bl	_ZN6tflite6OffsetERKNS_12RuntimeShapeEiiii
 1409              	.LEHE13:
 1410 01d8 0F0000EA 		b	.L205
 1411              	.L183:
 1412 01dc 030054E1 		cmp	r4, r3
 1413 01e0 0030A0C3 		movgt	r3, #0
 1414 01e4 0130A0D3 		movle	r3, #1
 1415 01e8 D4FFFFEA 		b	.L184
 1416              	.L186:
 1417 01ec 030055E1 		cmp	r5, r3
 1418 01f0 0030A0C3 		movgt	r3, #0
 1419 01f4 0130A0D3 		movle	r3, #1
 1420 01f8 DAFFFFEA 		b	.L187
 1421              	.L189:
 1422 01fc 090056E1 		cmp	r6, r9
 1423 0200 0030A0C3 		movgt	r3, #0
 1424 0204 0130A0D3 		movle	r3, #1
 1425 0208 DFFFFFEA 		b	.L190
 1426              	.L192:
 1427 020c 0B0057E1 		cmp	r7, fp
 1428 0210 0030A0C3 		movgt	r3, #0
 1429 0214 0130A0D3 		movle	r3, #1
 1430 0218 E6FFFFEA 		b	.L193
 1431              	.L205:
 1432 021c 1C309DE5 		ldr	r3, [sp, #28]
 1433 0220 D03093E1 		ldrsb	r3, [r3, r0]
 1434 0224 0130C8E4 		strb	r3, [r8], #1
 1435 0228 80309DE5 		ldr	r3, [sp, #128]
 1436 022c 037087E0 		add	r7, r7, r3
 1437 0230 D9FFFFEA 		b	.L195
 1438              	.L194:
 1439 0234 7C309DE5 		ldr	r3, [sp, #124]
 1440 0238 036086E0 		add	r6, r6, r3
 1441 023c CCFFFFEA 		b	.L196
 1442              	.L191:
 1443 0240 78309DE5 		ldr	r3, [sp, #120]
 1444 0244 035085E0 		add	r5, r5, r3
 1445 0248 BFFFFFEA 		b	.L197
 1446              	.L188:
 1447 024c 74309DE5 		ldr	r3, [sp, #116]
 1448 0250 034084E0 		add	r4, r4, r3
 1449 0254 B2FFFFEA 		b	.L198
 1450              	.L185:
 1451 0258 34008DE2 		add	r0, sp, #52
 1452 025c FEFFFFEB 		bl	_ZN6tflite12RuntimeShapeD1Ev
 1453 0260 20008DE2 		add	r0, sp, #32
 1454 0264 FEFFFFEB 		bl	_ZN6tflite12RuntimeShapeD1Ev
 1455 0268 94D08DE2 		add	sp, sp, #148
 1456              		@ sp needed
 1457 026c F08FBDE8 		pop	{r4, r5, r6, r7, r8, r9, r10, fp, pc}
 1458              	.L202:
 1459 0270 34008DE2 		add	r0, sp, #52
 1460 0274 FEFFFFEB 		bl	_ZN6tflite12RuntimeShapeD1Ev
 1461              	.L200:
 1462 0278 20008DE2 		add	r0, sp, #32
 1463 027c FEFFFFEB 		bl	_ZN6tflite12RuntimeShapeD1Ev
 1464              	.LEHB14:
 1465 0280 FEFFFFEB 		bl	__cxa_end_cleanup
 1466              	.LEHE14:
 1467              	.L201:
 1468 0284 FBFFFFEA 		b	.L200
 1469              		.personality	__gxx_personality_v0
 1470              		.handlerdata
 1471              	.LLSDA6773:
 1472 0008 FF       		.byte	0xff
 1473 0009 FF       		.byte	0xff
 1474 000a 01       		.byte	0x1
 1475 000b 14       		.uleb128 .LLSDACSE6773-.LLSDACSB6773
 1476              	.LLSDACSB6773:
 1477 000c 30       		.uleb128 .LEHB11-.LFB6773
 1478 000d 24       		.uleb128 .LEHE11-.LEHB11
 1479 000e 00       		.uleb128 0
 1480 000f 00       		.uleb128 0
 1481 0010 64       		.uleb128 .LEHB12-.LFB6773
 1482 0011 04       		.uleb128 .LEHE12-.LEHB12
 1483 0012 8405     		.uleb128 .L201-.LFB6773
 1484 0014 00       		.uleb128 0
 1485 0015 70       		.uleb128 .LEHB13-.LFB6773
 1486 0016 E802     		.uleb128 .LEHE13-.LEHB13
 1487 0018 F004     		.uleb128 .L202-.LFB6773
 1488 001a 00       		.uleb128 0
 1489 001b 8005     		.uleb128 .LEHB14-.LFB6773
 1490 001d 04       		.uleb128 .LEHE14-.LEHB14
 1491 001e 00       		.uleb128 0
 1492 001f 00       		.uleb128 0
 1493              	.LLSDACSE6773:
 1494              		.section	.text._ZN6tflite13reference_ops12StridedSliceIaEEvRKNS_18StridedSliceParamsERKNS_12Runtim
 1495              		.fnend
 1497              		.section	.text._ZN6tflite3ops5micro13strided_slice4EvalILNS2_10KernelTypeE0EEE12TfLiteStatusP13TfL
 1498              		.align	2
 1499              		.weak	_ZN6tflite3ops5micro13strided_slice4EvalILNS2_10KernelTypeE0EEE12TfLiteStatusP13TfLiteContex
 1500              		.syntax unified
 1501              		.arm
 1502              		.fpu neon
 1504              	_ZN6tflite3ops5micro13strided_slice4EvalILNS2_10KernelTypeE0EEE12TfLiteStatusP13TfLiteContextP10TfL
 1505              		.fnstart
 1506              	.LFB6567:
 1507              		@ args = 0, pretend = 0, frame = 144
 1508              		@ frame_needed = 0, uses_anonymous_args = 0
 1509 0000 10402DE9 		push	{r4, lr}
 1510              		.save {r4, lr}
 1511              		.pad #152
 1512 0004 98D04DE2 		sub	sp, sp, #152
 1513 0008 0120A0E1 		mov	r2, r1
 1514 000c 0040A0E1 		mov	r4, r0
 1515 0010 0010A0E1 		mov	r1, r0
 1516 0014 34008DE2 		add	r0, sp, #52
 1517 0018 FEFFFFEB 		bl	_ZN6tflite3ops5micro13strided_slice19StridedSliceContextC1EP13TfLiteContextP10TfLiteNode
 1518 001c 34108DE2 		add	r1, sp, #52
 1519 0020 50008DE2 		add	r0, sp, #80
 1520 0024 FEFFFFEB 		bl	_ZN6tflite3ops5micro13strided_slice23BuildStridedSliceParamsEPNS2_19StridedSliceContextE
 1521 0028 38109DE5 		ldr	r1, [sp, #56]
 1522 002c 0020D1E5 		ldrb	r2, [r1]	@ zero_extendqisi2
 1523 0030 030052E3 		cmp	r2, #3
 1524 0034 1600000A 		beq	.L208
 1525 0038 090052E3 		cmp	r2, #9
 1526 003c 2700000A 		beq	.L209
 1527 0040 010052E3 		cmp	r2, #1
 1528 0044 3E00001A 		bne	.L236
 1529 0048 0C008DE2 		add	r0, sp, #12
 1530              	.LEHB15:
 1531 004c FEFFFFEB 		bl	_ZN6tflite14GetTensorShapeEPK12TfLiteTensor
 1532              	.LEHE15:
 1533 0050 38209DE5 		ldr	r2, [sp, #56]
 1534 0054 20008DE2 		add	r0, sp, #32
 1535 0058 48109DE5 		ldr	r1, [sp, #72]
 1536 005c 000052E3 		cmp	r2, #0
 1537 0060 04409215 		ldrne	r4, [r2, #4]
 1538 0064 0240A001 		moveq	r4, r2
 1539              	.LEHB16:
 1540 0068 FEFFFFEB 		bl	_ZN6tflite14GetTensorShapeEPK12TfLiteTensor
 1541              	.LEHE16:
 1542 006c 48309DE5 		ldr	r3, [sp, #72]
 1543 0070 0420A0E1 		mov	r2, r4
 1544 0074 0C108DE2 		add	r1, sp, #12
 1545 0078 50008DE2 		add	r0, sp, #80
 1546 007c 000053E3 		cmp	r3, #0
 1547 0080 04309315 		ldrne	r3, [r3, #4]
 1548 0084 00308DE5 		str	r3, [sp]
 1549 0088 20308DE2 		add	r3, sp, #32
 1550              	.LEHB17:
 1551 008c FEFFFFEB 		bl	_ZN6tflite13reference_ops12StridedSliceIfEEvRKNS_18StridedSliceParamsERKNS_12RuntimeShapeEPKT_S
 1552              	.LEHE17:
 1553 0090 240000EA 		b	.L239
 1554              	.L208:
 1555 0094 0C008DE2 		add	r0, sp, #12
 1556              	.LEHB18:
 1557 0098 FEFFFFEB 		bl	_ZN6tflite14GetTensorShapeEPK12TfLiteTensor
 1558              	.LEHE18:
 1559 009c 38209DE5 		ldr	r2, [sp, #56]
 1560 00a0 20008DE2 		add	r0, sp, #32
 1561 00a4 48109DE5 		ldr	r1, [sp, #72]
 1562 00a8 000052E3 		cmp	r2, #0
 1563 00ac 04409215 		ldrne	r4, [r2, #4]
 1564 00b0 0240A001 		moveq	r4, r2
 1565              	.LEHB19:
 1566 00b4 FEFFFFEB 		bl	_ZN6tflite14GetTensorShapeEPK12TfLiteTensor
 1567              	.LEHE19:
 1568 00b8 48309DE5 		ldr	r3, [sp, #72]
 1569 00bc 0420A0E1 		mov	r2, r4
 1570 00c0 0C108DE2 		add	r1, sp, #12
 1571 00c4 50008DE2 		add	r0, sp, #80
 1572 00c8 000053E3 		cmp	r3, #0
 1573 00cc 04309315 		ldrne	r3, [r3, #4]
 1574 00d0 00308DE5 		str	r3, [sp]
 1575 00d4 20308DE2 		add	r3, sp, #32
 1576              	.LEHB20:
 1577 00d8 FEFFFFEB 		bl	_ZN6tflite13reference_ops12StridedSliceIhEEvRKNS_18StridedSliceParamsERKNS_12RuntimeShapeEPKT_S
 1578              	.LEHE20:
 1579 00dc 110000EA 		b	.L239
 1580              	.L209:
 1581 00e0 0C008DE2 		add	r0, sp, #12
 1582              	.LEHB21:
 1583 00e4 FEFFFFEB 		bl	_ZN6tflite14GetTensorShapeEPK12TfLiteTensor
 1584              	.LEHE21:
 1585 00e8 38209DE5 		ldr	r2, [sp, #56]
 1586 00ec 20008DE2 		add	r0, sp, #32
 1587 00f0 48109DE5 		ldr	r1, [sp, #72]
 1588 00f4 000052E3 		cmp	r2, #0
 1589 00f8 04409215 		ldrne	r4, [r2, #4]
 1590 00fc 0240A001 		moveq	r4, r2
 1591              	.LEHB22:
 1592 0100 FEFFFFEB 		bl	_ZN6tflite14GetTensorShapeEPK12TfLiteTensor
 1593              	.LEHE22:
 1594 0104 48309DE5 		ldr	r3, [sp, #72]
 1595 0108 0420A0E1 		mov	r2, r4
 1596 010c 0C108DE2 		add	r1, sp, #12
 1597 0110 50008DE2 		add	r0, sp, #80
 1598 0114 000053E3 		cmp	r3, #0
 1599 0118 04309315 		ldrne	r3, [r3, #4]
 1600 011c 00308DE5 		str	r3, [sp]
 1601 0120 20308DE2 		add	r3, sp, #32
 1602              	.LEHB23:
 1603 0124 FEFFFFEB 		bl	_ZN6tflite13reference_ops12StridedSliceIaEEvRKNS_18StridedSliceParamsERKNS_12RuntimeShapeEPKT_S
 1604              	.LEHE23:
 1605              	.L239:
 1606 0128 20008DE2 		add	r0, sp, #32
 1607 012c FEFFFFEB 		bl	_ZN6tflite12RuntimeShapeD1Ev
 1608 0130 0C008DE2 		add	r0, sp, #12
 1609 0134 FEFFFFEB 		bl	_ZN6tflite12RuntimeShapeD1Ev
 1610 0138 0000A0E3 		mov	r0, #0
 1611              	.L237:
 1612 013c 98D08DE2 		add	sp, sp, #152
 1613              		@ sp needed
 1614 0140 1080BDE8 		pop	{r4, pc}
 1615              	.L236:
 1616 0144 0400A0E1 		mov	r0, r4
 1617 0148 143094E5 		ldr	r3, [r4, #20]
 1618 014c 30109FE5 		ldr	r1, .L241
 1619              	.LEHB24:
 1620 0150 33FF2FE1 		blx	r3
 1621 0154 0100A0E3 		mov	r0, #1
 1622 0158 F7FFFFEA 		b	.L237
 1623              	.L231:
 1624              	.L240:
 1625 015c 20008DE2 		add	r0, sp, #32
 1626 0160 FEFFFFEB 		bl	_ZN6tflite12RuntimeShapeD1Ev
 1627 0164 FFFFFFEA 		b	.L223
 1628              	.L230:
 1629              	.L223:
 1630 0168 0C008DE2 		add	r0, sp, #12
 1631 016c FEFFFFEB 		bl	_ZN6tflite12RuntimeShapeD1Ev
 1632 0170 FEFFFFEB 		bl	__cxa_end_cleanup
 1633              	.LEHE24:
 1634              	.L233:
 1635 0174 F8FFFFEA 		b	.L240
 1636              	.L232:
 1637 0178 FAFFFFEA 		b	.L223
 1638              	.L235:
 1639 017c F6FFFFEA 		b	.L240
 1640              	.L234:
 1641 0180 F8FFFFEA 		b	.L223
 1642              	.L242:
 1643              		.align	2
 1644              	.L241:
 1645 0184 00000000 		.word	.LC12
 1646              		.personality	__gxx_personality_v0
 1647              		.handlerdata
 1648              	.LLSDA6567:
 1649 0008 FF       		.byte	0xff
 1650 0009 FF       		.byte	0xff
 1651 000a 01       		.byte	0x1
 1652 000b 36       		.uleb128 .LLSDACSE6567-.LLSDACSB6567
 1653              	.LLSDACSB6567:
 1654 000c 4C       		.uleb128 .LEHB15-.LFB6567
 1655 000d 04       		.uleb128 .LEHE15-.LEHB15
 1656 000e 00       		.uleb128 0
 1657 000f 00       		.uleb128 0
 1658 0010 68       		.uleb128 .LEHB16-.LFB6567
 1659 0011 04       		.uleb128 .LEHE16-.LEHB16
 1660 0012 E802     		.uleb128 .L230-.LFB6567
 1661 0014 00       		.uleb128 0
 1662 0015 8C01     		.uleb128 .LEHB17-.LFB6567
 1663 0017 04       		.uleb128 .LEHE17-.LEHB17
 1664 0018 DC02     		.uleb128 .L231-.LFB6567
 1665 001a 00       		.uleb128 0
 1666 001b 9801     		.uleb128 .LEHB18-.LFB6567
 1667 001d 04       		.uleb128 .LEHE18-.LEHB18
 1668 001e 00       		.uleb128 0
 1669 001f 00       		.uleb128 0
 1670 0020 B401     		.uleb128 .LEHB19-.LFB6567
 1671 0022 04       		.uleb128 .LEHE19-.LEHB19
 1672 0023 F802     		.uleb128 .L232-.LFB6567
 1673 0025 00       		.uleb128 0
 1674 0026 D801     		.uleb128 .LEHB20-.LFB6567
 1675 0028 04       		.uleb128 .LEHE20-.LEHB20
 1676 0029 F402     		.uleb128 .L233-.LFB6567
 1677 002b 00       		.uleb128 0
 1678 002c E401     		.uleb128 .LEHB21-.LFB6567
 1679 002e 04       		.uleb128 .LEHE21-.LEHB21
 1680 002f 00       		.uleb128 0
 1681 0030 00       		.uleb128 0
 1682 0031 8002     		.uleb128 .LEHB22-.LFB6567
 1683 0033 04       		.uleb128 .LEHE22-.LEHB22
 1684 0034 8003     		.uleb128 .L234-.LFB6567
 1685 0036 00       		.uleb128 0
 1686 0037 A402     		.uleb128 .LEHB23-.LFB6567
 1687 0039 04       		.uleb128 .LEHE23-.LEHB23
 1688 003a FC02     		.uleb128 .L235-.LFB6567
 1689 003c 00       		.uleb128 0
 1690 003d D002     		.uleb128 .LEHB24-.LFB6567
 1691 003f 24       		.uleb128 .LEHE24-.LEHB24
 1692 0040 00       		.uleb128 0
 1693 0041 00       		.uleb128 0
 1694              	.LLSDACSE6567:
 1695              		.section	.text._ZN6tflite3ops5micro13strided_slice4EvalILNS2_10KernelTypeE0EEE12TfLiteStatusP13TfL
 1696              		.fnend
 1698              		.weak	_ZN11flatbuffers25flatbuffer_version_stringE
 1699              		.section	.bss._ZZN6tflite3ops5micro22Register_STRIDED_SLICEEvE1r,"aw",%nobits
 1700              		.align	2
 1701              		.set	.LANCHOR0,. + 0
 1704              	_ZZN6tflite3ops5micro22Register_STRIDED_SLICEEvE1r:
 1705 0000 00000000 		.space	32
 1705      00000000 
 1705      00000000 
 1705      00000000 
 1705      00000000 
 1706              		.section	.data._ZN11flatbuffers25flatbuffer_version_stringE,"aw",%progbits
 1707              		.align	2
 1710              	_ZN11flatbuffers25flatbuffer_version_stringE:
 1711 0000 00000000 		.word	.LC13
 1712              		.section	.rodata._ZN6tflite3ops5micro13strided_slice15CheckOutputSizeEP13TfLiteContextPNS2_19Strid
 1713              	.LC0:
 1714 0000 2E2E2F73 		.ascii	"../src/tensorflow_lite/src/tensorflow/lite/micro/ke"
 1714      72632F74 
 1714      656E736F 
 1714      72666C6F 
 1714      775F6C69 
 1715 0033 726E656C 		.ascii	"rnels/strided_slice.cpp stride value has to be non-"
 1715      732F7374 
 1715      72696465 
 1715      645F736C 
 1715      6963652E 
 1716 0066 7A65726F 		.ascii	"zero\000"
 1716      00
 1717              	.LC1:
 1718 006b 2E2E2F73 		.ascii	"../src/tensorflow_lite/src/tensorflow/lite/micro/ke"
 1718      72632F74 
 1718      656E736F 
 1718      72666C6F 
 1718      775F6C69 
 1719 009e 726E656C 		.ascii	"rnels/strided_slice.cpp\000"
 1719      732F7374 
 1719      72696465 
 1719      645F736C 
 1719      6963652E 
 1720              	.LC2:
 1721 00b6 25733A25 		.ascii	"%s:%d %s != %s (%d != %d)\000"
 1721      64202573 
 1721      20213D20 
 1721      25732028 
 1721      25642021 
 1722              	.LC3:
 1723 00d0 64696D5F 		.ascii	"dim_shape\000"
 1723      73686170 
 1723      6500
 1724              	.LC4:
 1725 00da 6F757470 		.ascii	"output_shape->data[shape_size]\000"
 1725      75745F73 
 1725      68617065 
 1725      2D3E6461 
 1725      74615B73 
 1726              	.LC5:
 1727 00f9 73686170 		.ascii	"shape_size\000"
 1727      655F7369 
 1727      7A6500
 1728              	.LC6:
 1729 0104 6F757470 		.ascii	"output_shape->size\000"
 1729      75745F73 
 1729      68617065 
 1729      2D3E7369 
 1729      7A6500
 1730              		.section	.rodata._ZN6tflite3ops5micro13strided_slice4EvalILNS2_10KernelTypeE0EEE12TfLiteStatusP13T
 1731              	.LC12:
 1732 0000 54797065 		.ascii	"Type %d is currently not supported by StridedSlice."
 1732      20256420 
 1732      69732063 
 1732      75727265 
 1732      6E746C79 
 1733 0033 00       		.ascii	"\000"
 1734              		.section	.rodata._ZN6tflite3ops5micro13strided_slice7PrepareEP13TfLiteContextP10TfLiteNode.str1.1,
 1735              	.LC7:
 1736 0000 3400     		.ascii	"4\000"
 1737              	.LC8:
 1738 0002 4E756D49 		.ascii	"NumInputs(node)\000"
 1738      6E707574 
 1738      73286E6F 
 1738      64652900 
 1739              	.LC9:
 1740 0012 3100     		.ascii	"1\000"
 1741              	.LC10:
 1742 0014 4E756D4F 		.ascii	"NumOutputs(node)\000"
 1742      75747075 
 1742      7473286E 
 1742      6F646529 
 1742      00
 1743              	.LC11:
 1744 0025 2E2E2F73 		.ascii	"../src/tensorflow_lite/src/tensorflow/lite/micro/ke"
 1744      72632F74 
 1744      656E736F 
 1744      72666C6F 
 1744      775F6C69 
 1745 0058 726E656C 		.ascii	"rnels/strided_slice.cpp input dim should not exceed"
 1745      732F7374 
 1745      72696465 
 1745      645F736C 
 1745      6963652E 
 1746 008b 203400   		.ascii	" 4\000"
 1747              		.section	.rodata.str1.1,"aMS",%progbits,1
 1748              	.LC13:
 1749 0000 466C6174 		.ascii	"FlatBuffers 1.11.0\000"
 1749      42756666 
 1749      65727320 
 1749      312E3131 
 1749      2E3000
 1750              		.ident	"GCC: (GNU Tools for ARM Embedded Processors 6-2017-q2-update) 6.3.1 20170620 (release) [AR