   1              		.cpu cortex-a9
   2              		.eabi_attribute 28, 1
   3              		.eabi_attribute 20, 1
   4              		.eabi_attribute 21, 1
   5              		.eabi_attribute 23, 3
   6              		.eabi_attribute 24, 1
   7              		.eabi_attribute 25, 1
   8              		.eabi_attribute 26, 1
   9              		.eabi_attribute 30, 4
  10              		.eabi_attribute 34, 0
  11              		.eabi_attribute 18, 4
  12              		.file	"svdf.cpp"
  13              		.section	.text._ZN6tflite3ops5micro4svdf4InitEP13TfLiteContextPKcj,"ax",%progbits
  14              		.align	2
  15              		.global	_ZN6tflite3ops5micro4svdf4InitEP13TfLiteContextPKcj
  16              		.syntax unified
  17              		.arm
  18              		.fpu neon
  20              	_ZN6tflite3ops5micro4svdf4InitEP13TfLiteContextPKcj:
  21              		.fnstart
  22              	.LFB6220:
  23              		@ args = 0, pretend = 0, frame = 0
  24              		@ frame_needed = 0, uses_anonymous_args = 0
  25              		@ link register save eliminated.
  26 0000 0000A0E3 		mov	r0, #0
  27 0004 1EFF2FE1 		bx	lr
  28              		.cantunwind
  29              		.fnend
  31              		.section	.text._ZN6tflite3ops5micro4svdf4FreeEP13TfLiteContextPv,"ax",%progbits
  32              		.align	2
  33              		.global	_ZN6tflite3ops5micro4svdf4FreeEP13TfLiteContextPv
  34              		.syntax unified
  35              		.arm
  36              		.fpu neon
  38              	_ZN6tflite3ops5micro4svdf4FreeEP13TfLiteContextPv:
  39              		.fnstart
  40              	.LFB6221:
  41              		@ args = 0, pretend = 0, frame = 0
  42              		@ frame_needed = 0, uses_anonymous_args = 0
  43              		@ link register save eliminated.
  44 0000 1EFF2FE1 		bx	lr
  45              		.cantunwind
  46              		.fnend
  48              		.global	__aeabi_idivmod
  49              		.global	__aeabi_idiv
  50              		.section	.text._ZN6tflite3ops5micro4svdf7PrepareEP13TfLiteContextP10TfLiteNode,"ax",%progbits
  51              		.align	2
  52              		.global	_ZN6tflite3ops5micro4svdf7PrepareEP13TfLiteContextP10TfLiteNode
  53              		.syntax unified
  54              		.arm
  55              		.fpu neon
  57              	_ZN6tflite3ops5micro4svdf7PrepareEP13TfLiteContextP10TfLiteNode:
  58              		.fnstart
  59              	.LFB6222:
  60              		@ args = 0, pretend = 0, frame = 32
  61              		@ frame_needed = 0, uses_anonymous_args = 0
  62 0000 F04F2DE9 		push	{r4, r5, r6, r7, r8, r9, r10, fp, lr}
  63              		.save {r4, r5, r6, r7, r8, r9, r10, fp, lr}
  64 0004 0150A0E1 		mov	r5, r1
  65 0008 008091E5 		ldr	r8, [r1]
  66              		.pad #52
  67 000c 34D04DE2 		sub	sp, sp, #52
  68 0010 0040A0E1 		mov	r4, r0
  69 0014 143091E5 		ldr	r3, [r1, #20]
  70 0018 001098E5 		ldr	r1, [r8]
  71 001c 086090E5 		ldr	r6, [r0, #8]
  72 0020 082098E5 		ldr	r2, [r8, #8]
  73 0024 04A098E5 		ldr	r10, [r8, #4]
  74 0028 030051E3 		cmp	r1, #3
  75 002c 14108DE5 		str	r1, [sp, #20]
  76 0030 24208DE5 		str	r2, [sp, #36]
  77 0034 022386E0 		add	r2, r6, r2, lsl #6
  78 0038 0AB386E0 		add	fp, r6, r10, lsl #6
  79 003c 030000DA 		ble	.L37
  80 0040 107098E5 		ldr	r7, [r8, #16]
  81 0044 010077E3 		cmn	r7, #1
  82 0048 07738610 		addne	r7, r6, r7, lsl #6
  83 004c 0000001A 		bne	.L4
  84              	.L37:
  85 0050 0070A0E3 		mov	r7, #0
  86              	.L4:
  87 0054 082092E5 		ldr	r2, [r2, #8]
  88 0058 003093E5 		ldr	r3, [r3]
  89 005c 049092E5 		ldr	r9, [r2, #4]
  90 0060 0310A0E1 		mov	r1, r3
  91 0064 18308DE5 		str	r3, [sp, #24]
  92 0068 1C208DE5 		str	r2, [sp, #28]
  93 006c 0900A0E1 		mov	r0, r9
  94 0070 FEFFFFEB 		bl	__aeabi_idivmod
  95 0074 000051E3 		cmp	r1, #0
  96 0078 18309DE5 		ldr	r3, [sp, #24]
  97 007c 0D00000A 		beq	.L6
  98 0080 0030A0E3 		mov	r3, #0
  99 0084 145094E5 		ldr	r5, [r4, #20]
 100 0088 0C308DE5 		str	r3, [sp, #12]
 101 008c D0369FE5 		ldr	r3, .L60
 102 0090 08108DE5 		str	r1, [sp, #8]
 103 0094 04308DE5 		str	r3, [sp, #4]
 104 0098 C8369FE5 		ldr	r3, .L60+4
 105 009c 00308DE5 		str	r3, [sp]
 106 00a0 613FA0E3 		mov	r3, #388
 107              	.L59:
 108 00a4 C0269FE5 		ldr	r2, .L60+8
 109 00a8 0400A0E1 		mov	r0, r4
 110 00ac BC169FE5 		ldr	r1, .L60+12
 111 00b0 35FF2FE1 		blx	r5
 112 00b4 0C0000EA 		b	.L57
 113              	.L6:
 114 00b8 0A23D6E7 		ldrb	r2, [r6, r10, lsl #6]	@ zero_extendqisi2
 115 00bc F7A002E2 		and	r10, r2, #247
 116 00c0 20208DE5 		str	r2, [sp, #32]
 117 00c4 01005AE3 		cmp	r10, #1
 118 00c8 0B00000A 		beq	.L8
 119 00cc A0369FE5 		ldr	r3, .L60+16
 120 00d0 0400A0E1 		mov	r0, r4
 121 00d4 145094E5 		ldr	r5, [r4, #20]
 122 00d8 8C269FE5 		ldr	r2, .L60+8
 123 00dc 00308DE5 		str	r3, [sp]
 124 00e0 633FA0E3 		mov	r3, #396
 125 00e4 8C169FE5 		ldr	r1, .L60+20
 126 00e8 35FF2FE1 		blx	r5
 127              	.L57:
 128 00ec 0150A0E3 		mov	r5, #1
 129              	.L55:
 130 00f0 0500A0E1 		mov	r0, r5
 131 00f4 34D08DE2 		add	sp, sp, #52
 132              		@ sp needed
 133 00f8 F08FBDE8 		pop	{r4, r5, r6, r7, r8, r9, r10, fp, pc}
 134              	.L8:
 135 00fc 08209BE5 		ldr	r2, [fp, #8]
 136 0100 001092E5 		ldr	r1, [r2]
 137 0104 18208DE5 		str	r2, [sp, #24]
 138 0108 020051E3 		cmp	r1, #2
 139 010c 0900000A 		beq	.L9
 140 0110 0230A0E3 		mov	r3, #2
 141 0114 08108DE5 		str	r1, [sp, #8]
 142 0118 0C308DE5 		str	r3, [sp, #12]
 143 011c 58369FE5 		ldr	r3, .L60+24
 144 0120 145094E5 		ldr	r5, [r4, #20]
 145 0124 04308DE5 		str	r3, [sp, #4]
 146 0128 50369FE5 		ldr	r3, .L60+28
 147 012c 00308DE5 		str	r3, [sp]
 148 0130 8D3100E3 		movw	r3, #397
 149 0134 DAFFFFEA 		b	.L59
 150              	.L9:
 151 0138 042095E5 		ldr	r2, [r5, #4]
 152 013c 005092E5 		ldr	r5, [r2]
 153 0140 010055E3 		cmp	r5, #1
 154 0144 0800000A 		beq	.L10
 155 0148 34369FE5 		ldr	r3, .L60+32
 156 014c 08508DE5 		str	r5, [sp, #8]
 157 0150 0CA08DE5 		str	r10, [sp, #12]
 158 0154 04308DE5 		str	r3, [sp, #4]
 159 0158 28369FE5 		ldr	r3, .L60+36
 160 015c 145094E5 		ldr	r5, [r4, #20]
 161 0160 00308DE5 		str	r3, [sp]
 162 0164 913100E3 		movw	r3, #401
 163 0168 CDFFFFEA 		b	.L59
 164              	.L10:
 165 016c 042092E5 		ldr	r2, [r2, #4]
 166 0170 28208DE5 		str	r2, [sp, #40]
 167 0174 022386E0 		add	r2, r6, r2, lsl #6
 168 0178 082092E5 		ldr	r2, [r2, #8]
 169 017c 00B092E5 		ldr	fp, [r2]
 170 0180 02005BE3 		cmp	fp, #2
 171 0184 0C00000A 		beq	.L11
 172 0188 EC359FE5 		ldr	r3, .L60+24
 173 018c 146094E5 		ldr	r6, [r4, #20]
 174 0190 0C108DE5 		str	r1, [sp, #12]
 175 0194 04308DE5 		str	r3, [sp, #4]
 176 0198 EC359FE5 		ldr	r3, .L60+40
 177 019c 08B08DE5 		str	fp, [sp, #8]
 178 01a0 00308DE5 		str	r3, [sp]
 179 01a4 933100E3 		movw	r3, #403
 180              	.L58:
 181 01a8 BC259FE5 		ldr	r2, .L60+8
 182 01ac 0400A0E1 		mov	r0, r4
 183 01b0 B8159FE5 		ldr	r1, .L60+12
 184 01b4 36FF2FE1 		blx	r6
 185 01b8 CCFFFFEA 		b	.L55
 186              	.L11:
 187 01bc 18109DE5 		ldr	r1, [sp, #24]
 188 01c0 04A091E5 		ldr	r10, [r1, #4]
 189 01c4 041092E5 		ldr	r1, [r2, #4]
 190 01c8 01005AE1 		cmp	r10, r1
 191 01cc 0800000A 		beq	.L12
 192 01d0 B8359FE5 		ldr	r3, .L60+44
 193 01d4 0CA08DE5 		str	r10, [sp, #12]
 194 01d8 08108DE5 		str	r1, [sp, #8]
 195 01dc 04308DE5 		str	r3, [sp, #4]
 196 01e0 AC359FE5 		ldr	r3, .L60+48
 197 01e4 146094E5 		ldr	r6, [r4, #20]
 198 01e8 00308DE5 		str	r3, [sp]
 199 01ec 653FA0E3 		mov	r3, #404
 200 01f0 ECFFFFEA 		b	.L58
 201              	.L12:
 202 01f4 0310A0E1 		mov	r1, r3
 203 01f8 0900A0E1 		mov	r0, r9
 204 01fc 2C208DE5 		str	r2, [sp, #44]
 205 0200 FEFFFFEB 		bl	__aeabi_idiv
 206 0204 2C209DE5 		ldr	r2, [sp, #44]
 207 0208 083092E5 		ldr	r3, [r2, #8]
 208 020c 030050E1 		cmp	r0, r3
 209 0210 0800000A 		beq	.L13
 210 0214 08308DE5 		str	r3, [sp, #8]
 211 0218 78359FE5 		ldr	r3, .L60+52
 212 021c 0C008DE5 		str	r0, [sp, #12]
 213 0220 146094E5 		ldr	r6, [r4, #20]
 214 0224 04308DE5 		str	r3, [sp, #4]
 215 0228 6C359FE5 		ldr	r3, .L60+56
 216 022c 00308DE5 		str	r3, [sp]
 217 0230 953100E3 		movw	r3, #405
 218 0234 DBFFFFEA 		b	.L58
 219              	.L13:
 220 0238 1C309DE5 		ldr	r3, [sp, #28]
 221 023c 003093E5 		ldr	r3, [r3]
 222 0240 020053E3 		cmp	r3, #2
 223 0244 0800000A 		beq	.L14
 224 0248 08308DE5 		str	r3, [sp, #8]
 225 024c 28359FE5 		ldr	r3, .L60+24
 226 0250 0CB08DE5 		str	fp, [sp, #12]
 227 0254 146094E5 		ldr	r6, [r4, #20]
 228 0258 04308DE5 		str	r3, [sp, #4]
 229 025c 3C359FE5 		ldr	r3, .L60+60
 230 0260 00308DE5 		str	r3, [sp]
 231 0264 663FA0E3 		mov	r3, #408
 232 0268 CEFFFFEA 		b	.L58
 233              	.L14:
 234 026c 18309DE5 		ldr	r3, [sp, #24]
 235 0270 082093E5 		ldr	r2, [r3, #8]
 236 0274 1C309DE5 		ldr	r3, [sp, #28]
 237 0278 083093E5 		ldr	r3, [r3, #8]
 238 027c 030052E1 		cmp	r2, r3
 239 0280 0800000A 		beq	.L15
 240 0284 08308DE5 		str	r3, [sp, #8]
 241 0288 14359FE5 		ldr	r3, .L60+64
 242 028c 0C208DE5 		str	r2, [sp, #12]
 243 0290 146094E5 		ldr	r6, [r4, #20]
 244 0294 04308DE5 		str	r3, [sp, #4]
 245 0298 08359FE5 		ldr	r3, .L60+68
 246 029c 00308DE5 		str	r3, [sp]
 247 02a0 993100E3 		movw	r3, #409
 248 02a4 BFFFFFEA 		b	.L58
 249              	.L15:
 250 02a8 0C2098E5 		ldr	r2, [r8, #12]
 251 02ac 023386E0 		add	r3, r6, r2, lsl #6
 252 02b0 08C093E5 		ldr	ip, [r3, #8]
 253 02b4 00309CE5 		ldr	r3, [ip]
 254 02b8 020053E3 		cmp	r3, #2
 255 02bc 0900000A 		beq	.L16
 256 02c0 08308DE5 		str	r3, [sp, #8]
 257 02c4 0220A0E3 		mov	r2, #2
 258 02c8 AC349FE5 		ldr	r3, .L60+24
 259 02cc 0C208DE5 		str	r2, [sp, #12]
 260 02d0 145094E5 		ldr	r5, [r4, #20]
 261 02d4 04308DE5 		str	r3, [sp, #4]
 262 02d8 CC349FE5 		ldr	r3, .L60+72
 263 02dc 00308DE5 		str	r3, [sp]
 264 02e0 673FA0E3 		mov	r3, #412
 265 02e4 6EFFFFEA 		b	.L59
 266              	.L16:
 267 02e8 04309CE5 		ldr	r3, [ip, #4]
 268 02ec 030059E1 		cmp	r9, r3
 269 02f0 0800000A 		beq	.L17
 270 02f4 08308DE5 		str	r3, [sp, #8]
 271 02f8 B0349FE5 		ldr	r3, .L60+76
 272 02fc 0C908DE5 		str	r9, [sp, #12]
 273 0300 145094E5 		ldr	r5, [r4, #20]
 274 0304 04308DE5 		str	r3, [sp, #4]
 275 0308 A4349FE5 		ldr	r3, .L60+80
 276 030c 00308DE5 		str	r3, [sp]
 277 0310 9D3100E3 		movw	r3, #413
 278 0314 62FFFFEA 		b	.L59
 279              	.L17:
 280 0318 000057E3 		cmp	r7, #0
 281 031c 0C00000A 		beq	.L18
 282 0320 083097E5 		ldr	r3, [r7, #8]
 283 0324 043093E5 		ldr	r3, [r3, #4]
 284 0328 030050E1 		cmp	r0, r3
 285 032c 0800000A 		beq	.L18
 286 0330 08308DE5 		str	r3, [sp, #8]
 287 0334 5C349FE5 		ldr	r3, .L60+52
 288 0338 0C008DE5 		str	r0, [sp, #12]
 289 033c 145094E5 		ldr	r5, [r4, #20]
 290 0340 04308DE5 		str	r3, [sp, #4]
 291 0344 6C349FE5 		ldr	r3, .L60+84
 292 0348 00308DE5 		str	r3, [sp]
 293 034c A23100E3 		movw	r3, #418
 294 0350 53FFFFEA 		b	.L59
 295              	.L18:
 296 0354 143098E5 		ldr	r3, [r8, #20]
 297 0358 031386E0 		add	r1, r6, r3, lsl #6
 298 035c 080091E5 		ldr	r0, [r1, #8]
 299 0360 001090E5 		ldr	r1, [r0]
 300 0364 020051E3 		cmp	r1, #2
 301 0368 0900000A 		beq	.L19
 302 036c 0230A0E3 		mov	r3, #2
 303 0370 08108DE5 		str	r1, [sp, #8]
 304 0374 0C308DE5 		str	r3, [sp, #12]
 305 0378 FC339FE5 		ldr	r3, .L60+24
 306 037c 145094E5 		ldr	r5, [r4, #20]
 307 0380 04308DE5 		str	r3, [sp, #4]
 308 0384 30349FE5 		ldr	r3, .L60+88
 309 0388 00308DE5 		str	r3, [sp]
 310 038c A63100E3 		movw	r3, #422
 311 0390 43FFFFEA 		b	.L59
 312              	.L19:
 313 0394 04E090E5 		ldr	lr, [r0, #4]
 314 0398 0E005AE1 		cmp	r10, lr
 315 039c 0800000A 		beq	.L20
 316 03a0 E8339FE5 		ldr	r3, .L60+44
 317 03a4 0CA08DE5 		str	r10, [sp, #12]
 318 03a8 08E08DE5 		str	lr, [sp, #8]
 319 03ac 04308DE5 		str	r3, [sp, #4]
 320 03b0 08349FE5 		ldr	r3, .L60+92
 321 03b4 145094E5 		ldr	r5, [r4, #20]
 322 03b8 00308DE5 		str	r3, [sp]
 323 03bc A73100E3 		movw	r3, #423
 324 03c0 37FFFFEA 		b	.L59
 325              	.L20:
 326 03c4 08C09CE5 		ldr	ip, [ip, #8]
 327 03c8 080090E5 		ldr	r0, [r0, #8]
 328 03cc 9C090CE0 		mul	ip, ip, r9
 329 03d0 0C0050E1 		cmp	r0, ip
 330 03d4 0800000A 		beq	.L21
 331 03d8 E4339FE5 		ldr	r3, .L60+96
 332 03dc 0CC08DE5 		str	ip, [sp, #12]
 333 03e0 08008DE5 		str	r0, [sp, #8]
 334 03e4 04308DE5 		str	r3, [sp, #4]
 335 03e8 D8339FE5 		ldr	r3, .L60+100
 336 03ec 145094E5 		ldr	r5, [r4, #20]
 337 03f0 00308DE5 		str	r3, [sp]
 338 03f4 A93100E3 		movw	r3, #425
 339 03f8 29FFFFEA 		b	.L59
 340              	.L21:
 341 03fc 20009DE5 		ldr	r0, [sp, #32]
 342 0400 090050E3 		cmp	r0, #9
 343 0404 5000001A 		bne	.L22
 344 0408 14009DE5 		ldr	r0, [sp, #20]
 345 040c 050050E3 		cmp	r0, #5
 346 0410 0900000A 		beq	.L23
 347 0414 0530A0E3 		mov	r3, #5
 348 0418 08008DE5 		str	r0, [sp, #8]
 349 041c 0C308DE5 		str	r3, [sp, #12]
 350 0420 A4339FE5 		ldr	r3, .L60+104
 351 0424 145094E5 		ldr	r5, [r4, #20]
 352 0428 04308DE5 		str	r3, [sp, #4]
 353 042c 9C339FE5 		ldr	r3, .L60+108
 354 0430 00308DE5 		str	r3, [sp]
 355 0434 6B3FA0E3 		mov	r3, #428
 356 0438 19FFFFEA 		b	.L59
 357              	.L23:
 358 043c 24009DE5 		ldr	r0, [sp, #36]
 359 0440 0003D6E7 		ldrb	r0, [r6, r0, lsl #6]	@ zero_extendqisi2
 360 0444 090050E3 		cmp	r0, #9
 361 0448 0900000A 		beq	.L24
 362 044c 20309DE5 		ldr	r3, [sp, #32]
 363 0450 08008DE5 		str	r0, [sp, #8]
 364 0454 145094E5 		ldr	r5, [r4, #20]
 365 0458 0C308DE5 		str	r3, [sp, #12]
 366 045c 70339FE5 		ldr	r3, .L60+112
 367 0460 04308DE5 		str	r3, [sp, #4]
 368 0464 6C339FE5 		ldr	r3, .L60+116
 369 0468 00308DE5 		str	r3, [sp]
 370 046c AE3100E3 		movw	r3, #430
 371 0470 0BFFFFEA 		b	.L59
 372              	.L24:
 373 0474 0223D6E7 		ldrb	r2, [r6, r2, lsl #6]	@ zero_extendqisi2
 374 0478 070052E3 		cmp	r2, #7
 375 047c 0900000A 		beq	.L25
 376 0480 0730A0E3 		mov	r3, #7
 377 0484 08208DE5 		str	r2, [sp, #8]
 378 0488 0C308DE5 		str	r3, [sp, #12]
 379 048c 48339FE5 		ldr	r3, .L60+120
 380 0490 145094E5 		ldr	r5, [r4, #20]
 381 0494 04308DE5 		str	r3, [sp, #4]
 382 0498 40339FE5 		ldr	r3, .L60+124
 383 049c 00308DE5 		str	r3, [sp]
 384 04a0 AF3100E3 		movw	r3, #431
 385 04a4 FEFEFFEA 		b	.L59
 386              	.L25:
 387 04a8 000057E3 		cmp	r7, #0
 388 04ac 0B00000A 		beq	.L26
 389 04b0 0020D7E5 		ldrb	r2, [r7]	@ zero_extendqisi2
 390 04b4 020052E3 		cmp	r2, #2
 391 04b8 0800000A 		beq	.L26
 392 04bc 20339FE5 		ldr	r3, .L60+128
 393 04c0 0C108DE5 		str	r1, [sp, #12]
 394 04c4 08208DE5 		str	r2, [sp, #8]
 395 04c8 04308DE5 		str	r3, [sp, #4]
 396 04cc 14339FE5 		ldr	r3, .L60+132
 397 04d0 145094E5 		ldr	r5, [r4, #20]
 398 04d4 00308DE5 		str	r3, [sp]
 399 04d8 B23100E3 		movw	r3, #434
 400 04dc F0FEFFEA 		b	.L59
 401              	.L26:
 402 04e0 0333D6E7 		ldrb	r3, [r6, r3, lsl #6]	@ zero_extendqisi2
 403 04e4 070053E3 		cmp	r3, #7
 404 04e8 0900000A 		beq	.L27
 405 04ec 08308DE5 		str	r3, [sp, #8]
 406 04f0 0720A0E3 		mov	r2, #7
 407 04f4 E0329FE5 		ldr	r3, .L60+120
 408 04f8 0C208DE5 		str	r2, [sp, #12]
 409 04fc 145094E5 		ldr	r5, [r4, #20]
 410 0500 04308DE5 		str	r3, [sp, #4]
 411 0504 E0329FE5 		ldr	r3, .L60+136
 412 0508 00308DE5 		str	r3, [sp]
 413 050c B53100E3 		movw	r3, #437
 414 0510 E3FEFFEA 		b	.L59
 415              	.L27:
 416 0514 28309DE5 		ldr	r3, [sp, #40]
 417 0518 0333D6E7 		ldrb	r3, [r6, r3, lsl #6]	@ zero_extendqisi2
 418 051c 090053E3 		cmp	r3, #9
 419 0520 8D00000A 		beq	.L39
 420 0524 08308DE5 		str	r3, [sp, #8]
 421 0528 0920A0E3 		mov	r2, #9
 422 052c A0329FE5 		ldr	r3, .L60+112
 423 0530 0C208DE5 		str	r2, [sp, #12]
 424 0534 145094E5 		ldr	r5, [r4, #20]
 425 0538 04308DE5 		str	r3, [sp, #4]
 426 053c AC329FE5 		ldr	r3, .L60+140
 427 0540 00308DE5 		str	r3, [sp]
 428 0544 BE3100E3 		movw	r3, #446
 429 0548 D5FEFFEA 		b	.L59
 430              	.L22:
 431 054c 14109DE5 		ldr	r1, [sp, #20]
 432 0550 060051E3 		cmp	r1, #6
 433 0554 0900000A 		beq	.L28
 434 0558 0630A0E3 		mov	r3, #6
 435 055c 08108DE5 		str	r1, [sp, #8]
 436 0560 0C308DE5 		str	r3, [sp, #12]
 437 0564 88329FE5 		ldr	r3, .L60+144
 438 0568 145094E5 		ldr	r5, [r4, #20]
 439 056c 04308DE5 		str	r3, [sp, #4]
 440 0570 58329FE5 		ldr	r3, .L60+108
 441 0574 00308DE5 		str	r3, [sp]
 442 0578 073DA0E3 		mov	r3, #448
 443 057c C8FEFFEA 		b	.L59
 444              	.L28:
 445 0580 24109DE5 		ldr	r1, [sp, #36]
 446 0584 01B3D6E7 		ldrb	fp, [r6, r1, lsl #6]	@ zero_extendqisi2
 447 0588 01005BE3 		cmp	fp, #1
 448 058c 0900000A 		beq	.L29
 449 0590 60329FE5 		ldr	r3, .L60+148
 450 0594 0150A0E3 		mov	r5, #1
 451 0598 0C508DE5 		str	r5, [sp, #12]
 452 059c 08B08DE5 		str	fp, [sp, #8]
 453 05a0 04308DE5 		str	r3, [sp, #4]
 454 05a4 2C329FE5 		ldr	r3, .L60+116
 455 05a8 146094E5 		ldr	r6, [r4, #20]
 456 05ac 00308DE5 		str	r3, [sp]
 457 05b0 C33100E3 		movw	r3, #451
 458 05b4 FBFEFFEA 		b	.L58
 459              	.L29:
 460 05b8 0253D6E7 		ldrb	r5, [r6, r2, lsl #6]	@ zero_extendqisi2
 461 05bc 010055E3 		cmp	r5, #1
 462 05c0 0800000A 		beq	.L30
 463 05c4 2C329FE5 		ldr	r3, .L60+148
 464 05c8 08508DE5 		str	r5, [sp, #8]
 465 05cc 0CB08DE5 		str	fp, [sp, #12]
 466 05d0 04308DE5 		str	r3, [sp, #4]
 467 05d4 04329FE5 		ldr	r3, .L60+124
 468 05d8 145094E5 		ldr	r5, [r4, #20]
 469 05dc 00308DE5 		str	r3, [sp]
 470 05e0 713FA0E3 		mov	r3, #452
 471 05e4 AEFEFFEA 		b	.L59
 472              	.L30:
 473 05e8 0333D6E7 		ldrb	r3, [r6, r3, lsl #6]	@ zero_extendqisi2
 474 05ec 010053E3 		cmp	r3, #1
 475 05f0 0800000A 		beq	.L31
 476 05f4 08308DE5 		str	r3, [sp, #8]
 477 05f8 F8319FE5 		ldr	r3, .L60+148
 478 05fc 0C508DE5 		str	r5, [sp, #12]
 479 0600 146094E5 		ldr	r6, [r4, #20]
 480 0604 04308DE5 		str	r3, [sp, #4]
 481 0608 DC319FE5 		ldr	r3, .L60+136
 482 060c 00308DE5 		str	r3, [sp]
 483 0610 C53100E3 		movw	r3, #453
 484 0614 E3FEFFEA 		b	.L58
 485              	.L31:
 486 0618 000057E3 		cmp	r7, #0
 487 061c 0C00000A 		beq	.L32
 488 0620 0030D7E5 		ldrb	r3, [r7]	@ zero_extendqisi2
 489 0624 010053E3 		cmp	r3, #1
 490 0628 0900000A 		beq	.L32
 491 062c 08308DE5 		str	r3, [sp, #8]
 492 0630 0150A0E3 		mov	r5, #1
 493 0634 BC319FE5 		ldr	r3, .L60+148
 494 0638 0C508DE5 		str	r5, [sp, #12]
 495 063c 146094E5 		ldr	r6, [r4, #20]
 496 0640 04308DE5 		str	r3, [sp, #4]
 497 0644 9C319FE5 		ldr	r3, .L60+132
 498 0648 00308DE5 		str	r3, [sp]
 499 064c 723FA0E3 		mov	r3, #456
 500 0650 D4FEFFEA 		b	.L58
 501              	.L32:
 502 0654 183098E5 		ldr	r3, [r8, #24]
 503 0658 0353D6E7 		ldrb	r5, [r6, r3, lsl #6]	@ zero_extendqisi2
 504 065c 032386E0 		add	r2, r6, r3, lsl #6
 505 0660 010055E3 		cmp	r5, #1
 506 0664 0900000A 		beq	.L33
 507 0668 88319FE5 		ldr	r3, .L60+148
 508 066c 01A0A0E3 		mov	r10, #1
 509 0670 08508DE5 		str	r5, [sp, #8]
 510 0674 0CA08DE5 		str	r10, [sp, #12]
 511 0678 04308DE5 		str	r3, [sp, #4]
 512 067c 78319FE5 		ldr	r3, .L60+152
 513 0680 145094E5 		ldr	r5, [r4, #20]
 514 0684 00308DE5 		str	r3, [sp]
 515 0688 D33100E3 		movw	r3, #467
 516 068c 84FEFFEA 		b	.L59
 517              	.L33:
 518 0690 083092E5 		ldr	r3, [r2, #8]
 519 0694 002093E5 		ldr	r2, [r3]
 520 0698 020052E3 		cmp	r2, #2
 521 069c 0900000A 		beq	.L34
 522 06a0 0230A0E3 		mov	r3, #2
 523 06a4 08208DE5 		str	r2, [sp, #8]
 524 06a8 0C308DE5 		str	r3, [sp, #12]
 525 06ac C8309FE5 		ldr	r3, .L60+24
 526 06b0 146094E5 		ldr	r6, [r4, #20]
 527 06b4 04308DE5 		str	r3, [sp, #4]
 528 06b8 40319FE5 		ldr	r3, .L60+156
 529 06bc 00308DE5 		str	r3, [sp]
 530 06c0 D53100E3 		movw	r3, #469
 531 06c4 B7FEFFEA 		b	.L58
 532              	.L34:
 533 06c8 042093E5 		ldr	r2, [r3, #4]
 534 06cc 02005AE1 		cmp	r10, r2
 535 06d0 0800000A 		beq	.L35
 536 06d4 B4309FE5 		ldr	r3, .L60+44
 537 06d8 0CA08DE5 		str	r10, [sp, #12]
 538 06dc 08208DE5 		str	r2, [sp, #8]
 539 06e0 04308DE5 		str	r3, [sp, #4]
 540 06e4 18319FE5 		ldr	r3, .L60+160
 541 06e8 146094E5 		ldr	r6, [r4, #20]
 542 06ec 00308DE5 		str	r3, [sp]
 543 06f0 D63100E3 		movw	r3, #470
 544 06f4 ABFEFFEA 		b	.L58
 545              	.L35:
 546 06f8 083093E5 		ldr	r3, [r3, #8]
 547 06fc 030059E1 		cmp	r9, r3
 548 0700 0800000A 		beq	.L36
 549 0704 08308DE5 		str	r3, [sp, #8]
 550 0708 A0309FE5 		ldr	r3, .L60+76
 551 070c 0C908DE5 		str	r9, [sp, #12]
 552 0710 146094E5 		ldr	r6, [r4, #20]
 553 0714 04308DE5 		str	r3, [sp, #4]
 554 0718 E8309FE5 		ldr	r3, .L60+164
 555 071c 00308DE5 		str	r3, [sp]
 556 0720 D73100E3 		movw	r3, #471
 557 0724 9FFEFFEA 		b	.L58
 558              	.L36:
 559 0728 28309DE5 		ldr	r3, [sp, #40]
 560 072c 0333D6E7 		ldrb	r3, [r6, r3, lsl #6]	@ zero_extendqisi2
 561 0730 010053E3 		cmp	r3, #1
 562 0734 0800000A 		beq	.L39
 563 0738 08308DE5 		str	r3, [sp, #8]
 564 073c B4309FE5 		ldr	r3, .L60+148
 565 0740 0C508DE5 		str	r5, [sp, #12]
 566 0744 146094E5 		ldr	r6, [r4, #20]
 567 0748 04308DE5 		str	r3, [sp, #4]
 568 074c 9C309FE5 		ldr	r3, .L60+140
 569 0750 00308DE5 		str	r3, [sp]
 570 0754 DE3100E3 		movw	r3, #478
 571 0758 92FEFFEA 		b	.L58
 572              	.L39:
 573 075c 0050A0E3 		mov	r5, #0
 574 0760 62FEFFEA 		b	.L55
 575              	.L61:
 576              		.align	2
 577              	.L60:
 578 0764 5C000000 		.word	.LC2
 579 0768 5E000000 		.word	.LC3
 580 076c 00000000 		.word	.LC0
 581 0770 42000000 		.word	.LC1
 582 0774 88000000 		.word	.LC5
 583 0778 71000000 		.word	.LC4
 584 077c C4000000 		.word	.LC6
 585 0780 C6000000 		.word	.LC7
 586 0784 DB000000 		.word	.LC8
 587 0788 DD000000 		.word	.LC9
 588 078c F1000000 		.word	.LC10
 589 0790 07010000 		.word	.LC11
 590 0794 12010000 		.word	.LC12
 591 0798 28010000 		.word	.LC13
 592 079c 32010000 		.word	.LC14
 593 07a0 48010000 		.word	.LC15
 594 07a4 67010000 		.word	.LC16
 595 07a8 72010000 		.word	.LC17
 596 07ac 91010000 		.word	.LC18
 597 07b0 AD010000 		.word	.LC19
 598 07b4 B9010000 		.word	.LC20
 599 07b8 D5010000 		.word	.LC21
 600 07bc E9010000 		.word	.LC22
 601 07c0 09020000 		.word	.LC23
 602 07c4 29020000 		.word	.LC24
 603 07c8 43020000 		.word	.LC25
 604 07cc 63020000 		.word	.LC26
 605 07d0 65020000 		.word	.LC27
 606 07d4 78020000 		.word	.LC28
 607 07d8 84020000 		.word	.LC29
 608 07dc 9A020000 		.word	.LC30
 609 07e0 A7020000 		.word	.LC31
 610 07e4 BA020000 		.word	.LC32
 611 07e8 C7020000 		.word	.LC33
 612 07ec D2020000 		.word	.LC34
 613 07f0 E9020000 		.word	.LC35
 614 07f4 F6020000 		.word	.LC36
 615 07f8 F8020000 		.word	.LC37
 616 07fc 07030000 		.word	.LC38
 617 0800 1C030000 		.word	.LC39
 618 0804 3A030000 		.word	.LC40
 619 0808 58030000 		.word	.LC41
 620              		.fnend
 622              		.section	.text._ZN6tflite29MultiplyByQuantizedMultiplierElli,"axG",%progbits,_ZN6tflite29MultiplyB
 623              		.align	2
 624              		.weak	_ZN6tflite29MultiplyByQuantizedMultiplierElli
 625              		.syntax unified
 626              		.arm
 627              		.fpu neon
 629              	_ZN6tflite29MultiplyByQuantizedMultiplierElli:
 630              		.fnstart
 631              	.LFB3274:
 632              		@ args = 0, pretend = 0, frame = 0
 633              		@ frame_needed = 0, uses_anonymous_args = 0
 634 0000 C23FC2E1 		bic	r3, r2, r2, asr #31
 635 0004 70402DE9 		push	{r4, r5, r6, lr}
 636              		.save {r4, r5, r6, lr}
 637 0008 000052E3 		cmp	r2, #0
 638 000c 1033A0E1 		lsl	r3, r0, r3
 639 0010 002062D2 		rsble	r2, r2, #0
 640 0014 0020A0C3 		movgt	r2, #0
 641 0018 9341C5E0 		smull	r4, r5, r3, r1
 642 001c 000054E3 		cmp	r4, #0
 643 0020 0000D5E2 		sbcs	r0, r5, #0
 644 0024 01E1A0A3 		movge	lr, #1073741824
 645 0028 07E1A0B3 		movlt	lr, #-1073741823
 646 002c 010053E1 		cmp	r3, r1
 647 0030 02015303 		cmpeq	r3, #-2147483648
 648 0034 0201E003 		mvneq	r0, #-2147483648
 649 0038 0800000A 		beq	.L65
 650 003c 0E4094E0 		adds	r4, r4, lr
 651 0040 0010A0E3 		mov	r1, #0
 652 0044 CE5FA5E0 		adc	r5, r5, lr, asr #31
 653 0048 C50FA0E1 		asr	r0, r5, #31
 654 004c 0201C0E3 		bic	r0, r0, #-2147483648
 655 0050 040090E0 		adds	r0, r0, r4
 656 0054 A00FA0E1 		lsr	r0, r0, #31
 657 0058 0510A1E0 		adc	r1, r1, r5
 658 005c 810080E1 		orr	r0, r0, r1, lsl #1
 659              	.L65:
 660 0060 1F0052E3 		cmp	r2, #31
 661 0064 040000DA 		ble	.L66
 662 0068 48309FE5 		ldr	r3, .L71+8
 663 006c 671100E3 		movw	r1, #359
 664 0070 44209FE5 		ldr	r2, .L71+12
 665 0074 44009FE5 		ldr	r0, .L71+16
 666 0078 FEFFFFEB 		bl	__assert_func
 667              	.L66:
 668 007c 0B0BDFED 		vldr.64	d16, .L71	@ int
 669 0080 902B01EE 		vmov.32	d17[0], r2
 670 0084 A00471F3 		vshl.u64	d16, d16, d17
 671 0088 304B55EC 		vmov	r4, r5, d16	@ int
 672 008c 014044E2 		sub	r4, r4, #1
 673 0090 003004E0 		and	r3, r4, r0
 674 0094 C440A0E1 		asr	r4, r4, #1
 675 0098 A04F84E0 		add	r4, r4, r0, lsr #31
 676 009c 5002A0E1 		asr	r0, r0, r2
 677 00a0 040053E1 		cmp	r3, r4
 678 00a4 010080C2 		addgt	r0, r0, #1
 679 00a8 7080BDE8 		pop	{r4, r5, r6, pc}
 680              	.L72:
 681 00ac 00F020E3 		.align	3
 682              	.L71:
 683 00b0 01000000 		.word	1
 684 00b4 00000000 		.word	0
 685 00b8 00000000 		.word	.LC42
 686 00bc 00000000 		.word	.LANCHOR0
 687 00c0 0F000000 		.word	.LC43
 688              		.fnend
 690              		.section	.text._ZN6tflite3ops5micro4svdf12_GLOBAL__N_115EvalIntegerSVDFEP13TfLiteContextP10TfLiteN
 691              		.align	2
 692              		.syntax unified
 693              		.arm
 694              		.fpu neon
 696              	_ZN6tflite3ops5micro4svdf12_GLOBAL__N_115EvalIntegerSVDFEP13TfLiteContextP10TfLiteNodePK12TfLiteTen
 697              		.fnstart
 698              	.LFB7075:
 699              		@ args = 36, pretend = 0, frame = 568
 700              		@ frame_needed = 0, uses_anonymous_args = 0
 701 0000 F04F2DE9 		push	{r4, r5, r6, r7, r8, r9, r10, fp, lr}
 702              		.save {r4, r5, r6, r7, r8, r9, r10, fp, lr}
 703              		.pad #572
 704 0004 8FDF4DE2 		sub	sp, sp, #572
 705 0008 1C308DE5 		str	r3, [sp, #28]
 706 000c 0050A0E1 		mov	r5, r0
 707 0010 0160A0E1 		mov	r6, r1
 708 0014 083090E5 		ldr	r3, [r0, #8]
 709 0018 30208DE5 		str	r2, [sp, #48]
 710 001c 64829DE5 		ldr	r8, [sp, #612]
 711 0020 04A093E5 		ldr	r10, [r3, #4]
 712 0024 087093E5 		ldr	r7, [r3, #8]
 713 0028 083091E5 		ldr	r3, [r1, #8]
 714 002c 60129DE5 		ldr	r1, [sp, #608]
 715 0030 04B093E5 		ldr	fp, [r3, #4]
 716 0034 0B00A0E1 		mov	r0, fp
 717 0038 FEFFFFEB 		bl	__aeabi_idiv
 718 003c 30309DE5 		ldr	r3, [sp, #48]
 719 0040 0020A0E3 		mov	r2, #0
 720 0044 04008DE5 		str	r0, [sp, #4]
 721 0048 0100E0E3 		mvn	r0, #1
 722 004c 0240A0E1 		mov	r4, r2
 723 0050 083093E5 		ldr	r3, [r3, #8]
 724 0054 083093E5 		ldr	r3, [r3, #8]
 725 0058 08308DE5 		str	r3, [sp, #8]
 726 005c 063143E2 		sub	r3, r3, #-2147483647
 727 0060 8330A0E1 		lsl	r3, r3, #1
 728 0064 0C308DE5 		str	r3, [sp, #12]
 729 0068 08309DE5 		ldr	r3, [sp, #8]
 730 006c 0C109DE5 		ldr	r1, [sp, #12]
 731 0070 930B03E0 		mul	r3, r3, fp
 732 0074 8330A0E1 		lsl	r3, r3, #1
 733 0078 18308DE5 		str	r3, [sp, #24]
 734 007c 0C309DE5 		ldr	r3, [sp, #12]
 735 0080 02E083E2 		add	lr, r3, #2
 736 0084 08309DE5 		ldr	r3, [sp, #8]
 737 0088 900300E0 		mul	r0, r0, r3
 738              	.L78:
 739 008c 02005AE1 		cmp	r10, r2
 740 0090 0D0000DA 		ble	.L74
 741 0094 000058E3 		cmp	r8, #0
 742 0098 00C0A0E3 		mov	ip, #0
 743 009c 04309815 		ldrne	r3, [r8, #4]
 744 00a0 0830A001 		moveq	r3, r8
 745 00a4 013083E0 		add	r3, r3, r1
 746              	.L77:
 747 00a8 0C005BE1 		cmp	fp, ip
 748 00ac 0E3083E0 		add	r3, r3, lr
 749 00b0 B04083C1 		strhgt	r4, [r3, r0]	@ movhi
 750 00b4 01C08CC2 		addgt	ip, ip, #1
 751 00b8 FAFFFFCA 		bgt	.L77
 752              	.L76:
 753 00bc 18309DE5 		ldr	r3, [sp, #24]
 754 00c0 012082E2 		add	r2, r2, #1
 755 00c4 031081E0 		add	r1, r1, r3
 756 00c8 EFFFFFEA 		b	.L78
 757              	.L74:
 758 00cc 043096E5 		ldr	r3, [r6, #4]
 759 00d0 000058E3 		cmp	r8, #0
 760 00d4 04409815 		ldrne	r4, [r8, #4]
 761 00d8 0840A001 		moveq	r4, r8
 762 00dc 045095E5 		ldr	r5, [r5, #4]
 763 00e0 24308DE5 		str	r3, [sp, #36]
 764 00e4 0C309DE5 		ldr	r3, [sp, #12]
 765 00e8 006065E2 		rsb	r6, r5, #0
 766 00ec 034084E0 		add	r4, r4, r3
 767 00f0 023083E2 		add	r3, r3, #2
 768 00f4 14308DE5 		str	r3, [sp, #20]
 769 00f8 CB3FCBE1 		bic	r3, fp, fp, asr #31
 770 00fc 14209DE5 		ldr	r2, [sp, #20]
 771 0100 920303E0 		mul	r3, r2, r3
 772 0104 C72FC7E1 		bic	r2, r7, r7, asr #31
 773 0108 2C208DE5 		str	r2, [sp, #44]
 774 010c 28308DE5 		str	r3, [sp, #40]
 775 0110 0030A0E3 		mov	r3, #0
 776              	.L85:
 777 0114 03005AE1 		cmp	r10, r3
 778 0118 2D0000DA 		ble	.L80
 779 011c 24909DE5 		ldr	r9, [sp, #36]
 780 0120 0020A0E3 		mov	r2, #0
 781 0124 20408DE5 		str	r4, [sp, #32]
 782 0128 10208DE5 		str	r2, [sp, #16]
 783              	.L84:
 784 012c 10209DE5 		ldr	r2, [sp, #16]
 785 0130 02005BE1 		cmp	fp, r2
 786 0134 200000DA 		ble	.L81
 787 0138 0510A0E1 		mov	r1, r5
 788 013c 09C0A0E1 		mov	ip, r9
 789 0140 0000A0E3 		mov	r0, #0
 790              	.L83:
 791 0144 062081E0 		add	r2, r1, r6
 792 0148 020057E1 		cmp	r7, r2
 793 014c 050000DA 		ble	.L82
 794 0150 7CE29DE5 		ldr	lr, [sp, #636]
 795 0154 D120D1E0 		ldrsb	r2, [r1], #1
 796 0158 0E2042E0 		sub	r2, r2, lr
 797 015c D1E0DCE0 		ldrsb	lr, [ip], #1
 798 0160 9E0220E0 		mla	r0, lr, r2, r0
 799 0164 F6FFFFEA 		b	.L83
 800              	.L82:
 801 0168 34308DE5 		str	r3, [sp, #52]
 802 016c 2C309DE5 		ldr	r3, [sp, #44]
 803 0170 70229DE5 		ldr	r2, [sp, #624]
 804 0174 6C129DE5 		ldr	r1, [sp, #620]
 805 0178 039089E0 		add	r9, r9, r3
 806 017c FEFFFFEB 		bl	_ZN6tflite29MultiplyByQuantizedMultiplierElli
 807 0180 FF3F07E3 		movw	r3, #32767
 808 0184 14209DE5 		ldr	r2, [sp, #20]
 809 0188 030050E1 		cmp	r0, r3
 810 018c 0300A0A1 		movge	r0, r3
 811 0190 F8329FE5 		ldr	r3, .L128
 812 0194 020970E3 		cmn	r0, #32768
 813 0198 0300A0B1 		movlt	r0, r3
 814 019c 20309DE5 		ldr	r3, [sp, #32]
 815 01a0 B20083E0 		strh	r0, [r3], r2	@ movhi
 816 01a4 20308DE5 		str	r3, [sp, #32]
 817 01a8 10309DE5 		ldr	r3, [sp, #16]
 818 01ac 013083E2 		add	r3, r3, #1
 819 01b0 10308DE5 		str	r3, [sp, #16]
 820 01b4 34309DE5 		ldr	r3, [sp, #52]
 821 01b8 DBFFFFEA 		b	.L84
 822              	.L81:
 823 01bc 28209DE5 		ldr	r2, [sp, #40]
 824 01c0 013083E2 		add	r3, r3, #1
 825 01c4 075085E0 		add	r5, r5, r7
 826 01c8 076046E0 		sub	r6, r6, r7
 827 01cc 024084E0 		add	r4, r4, r2
 828 01d0 CFFFFFEA 		b	.L85
 829              	.L80:
 830 01d4 0B31A0E1 		lsl	r3, fp, #2
 831 01d8 38908DE2 		add	r9, sp, #56
 832 01dc 0020A0E3 		mov	r2, #0
 833 01e0 2C308DE5 		str	r3, [sp, #44]
 834 01e4 09C0A0E1 		mov	ip, r9
 835 01e8 08309DE5 		ldr	r3, [sp, #8]
 836 01ec 02E0A0E1 		mov	lr, r2
 837 01f0 C30FC3E1 		bic	r0, r3, r3, asr #31
 838 01f4 8030A0E1 		lsl	r3, r0, #1
 839 01f8 28308DE5 		str	r3, [sp, #40]
 840              	.L92:
 841 01fc 0E005AE1 		cmp	r10, lr
 842 0200 2E0000DA 		ble	.L86
 843 0204 30309DE5 		ldr	r3, [sp, #48]
 844 0208 000058E3 		cmp	r8, #0
 845 020c 0C10A0E1 		mov	r1, ip
 846 0210 0040A0E3 		mov	r4, #0
 847 0214 045093E5 		ldr	r5, [r3, #4]
 848 0218 0830A001 		moveq	r3, r8
 849 021c 04309815 		ldrne	r3, [r8, #4]
 850 0220 023083E0 		add	r3, r3, r2
 851 0224 10308DE5 		str	r3, [sp, #16]
 852              	.L91:
 853 0228 04005BE1 		cmp	fp, r4
 854 022c 1D0000DA 		ble	.L88
 855 0230 0030A0E3 		mov	r3, #0
 856 0234 0060A0E3 		mov	r6, #0
 857 0238 003081E5 		str	r3, [r1]
 858 023c 10309DE5 		ldr	r3, [sp, #16]
 859 0240 20508DE5 		str	r5, [sp, #32]
 860 0244 24308DE5 		str	r3, [sp, #36]
 861              	.L90:
 862 0248 08309DE5 		ldr	r3, [sp, #8]
 863 024c 060053E1 		cmp	r3, r6
 864 0250 0B0000DA 		ble	.L89
 865 0254 20309DE5 		ldr	r3, [sp, #32]
 866 0258 016086E2 		add	r6, r6, #1
 867 025c B200D3E0 		ldrh	r0, [r3], #2
 868 0260 20308DE5 		str	r3, [sp, #32]
 869 0264 24309DE5 		ldr	r3, [sp, #36]
 870 0268 B270D3E0 		ldrh	r7, [r3], #2
 871 026c 24308DE5 		str	r3, [sp, #36]
 872 0270 0730A0E1 		mov	r3, r7	@ movhi
 873 0274 007091E5 		ldr	r7, [r1]
 874 0278 807307E1 		smlabb	r7, r0, r3, r7
 875 027c 007081E5 		str	r7, [r1]
 876 0280 F0FFFFEA 		b	.L90
 877              	.L89:
 878 0284 28309DE5 		ldr	r3, [sp, #40]
 879 0288 041081E2 		add	r1, r1, #4
 880 028c 28009DE5 		ldr	r0, [sp, #40]
 881 0290 014084E2 		add	r4, r4, #1
 882 0294 035085E0 		add	r5, r5, r3
 883 0298 10309DE5 		ldr	r3, [sp, #16]
 884 029c 003083E0 		add	r3, r3, r0
 885 02a0 10308DE5 		str	r3, [sp, #16]
 886 02a4 DFFFFFEA 		b	.L91
 887              	.L88:
 888 02a8 2C309DE5 		ldr	r3, [sp, #44]
 889 02ac 01E08EE2 		add	lr, lr, #1
 890 02b0 03C08CE0 		add	ip, ip, r3
 891 02b4 18309DE5 		ldr	r3, [sp, #24]
 892 02b8 032082E0 		add	r2, r2, r3
 893 02bc CEFFFFEA 		b	.L92
 894              	.L86:
 895 02c0 1C309DE5 		ldr	r3, [sp, #28]
 896 02c4 000053E3 		cmp	r3, #0
 897 02c8 2800000A 		beq	.L93
 898 02cc 04C093E5 		ldr	ip, [r3, #4]
 899 02d0 4E2F8DE2 		add	r2, sp, #312
 900 02d4 04309DE5 		ldr	r3, [sp, #4]
 901 02d8 0010A0E3 		mov	r1, #0
 902 02dc 0301A0E1 		lsl	r0, r3, #2
 903              	.L98:
 904 02e0 01005AE1 		cmp	r10, r1
 905 02e4 170000CA 		bgt	.L94
 906              	.L99:
 907 02e8 04309DE5 		ldr	r3, [sp, #4]
 908 02ec 4E2F8DE2 		add	r2, sp, #312
 909 02f0 0000A0E3 		mov	r0, #0
 910 02f4 0351A0E1 		lsl	r5, r3, #2
 911 02f8 60329DE5 		ldr	r3, [sp, #608]
 912 02fc C3CFC3E1 		bic	ip, r3, r3, asr #31
 913 0300 0CC1A0E1 		lsl	ip, ip, #2
 914              	.L95:
 915 0304 00005AE1 		cmp	r10, r0
 916 0308 2A0000DA 		ble	.L101
 917 030c 09E0A0E1 		mov	lr, r9
 918 0310 0030A0E3 		mov	r3, #0
 919              	.L105:
 920 0314 04109DE5 		ldr	r1, [sp, #4]
 921 0318 030051E1 		cmp	r1, r3
 922 031c 200000DA 		ble	.L102
 923 0320 0010A0E3 		mov	r1, #0
 924              	.L104:
 925 0324 60429DE5 		ldr	r4, [sp, #608]
 926 0328 040051E1 		cmp	r1, r4
 927 032c 190000AA 		bge	.L103
 928 0330 034192E7 		ldr	r4, [r2, r3, lsl #2]
 929 0334 01619EE7 		ldr	r6, [lr, r1, lsl #2]
 930 0338 011081E2 		add	r1, r1, #1
 931 033c 064084E0 		add	r4, r4, r6
 932 0340 034182E7 		str	r4, [r2, r3, lsl #2]
 933 0344 F6FFFFEA 		b	.L104
 934              	.L94:
 935 0348 0030A0E3 		mov	r3, #0
 936              	.L97:
 937 034c 04E09DE5 		ldr	lr, [sp, #4]
 938 0350 03005EE1 		cmp	lr, r3
 939 0354 03E19CC7 		ldrgt	lr, [ip, r3, lsl #2]
 940 0358 03E182C7 		strgt	lr, [r2, r3, lsl #2]
 941 035c 013083C2 		addgt	r3, r3, #1
 942 0360 F9FFFFCA 		bgt	.L97
 943              	.L96:
 944 0364 011081E2 		add	r1, r1, #1
 945 0368 002082E0 		add	r2, r2, r0
 946 036c DBFFFFEA 		b	.L98
 947              	.L93:
 948 0370 04309DE5 		ldr	r3, [sp, #4]
 949 0374 4E2F8DE2 		add	r2, sp, #312
 950 0378 930A01E0 		mul	r1, r3, r10
 951 037c 1C309DE5 		ldr	r3, [sp, #28]
 952 0380 0300A0E1 		mov	r0, r3
 953              	.L100:
 954 0384 030051E1 		cmp	r1, r3
 955 0388 D6FFFFDA 		ble	.L99
 956 038c 030182E7 		str	r0, [r2, r3, lsl #2]
 957 0390 013083E2 		add	r3, r3, #1
 958 0394 FAFFFFEA 		b	.L100
 959              	.L103:
 960 0398 0CE08EE0 		add	lr, lr, ip
 961 039c 013083E2 		add	r3, r3, #1
 962 03a0 DBFFFFEA 		b	.L105
 963              	.L102:
 964 03a4 2C309DE5 		ldr	r3, [sp, #44]
 965 03a8 010080E2 		add	r0, r0, #1
 966 03ac 052082E0 		add	r2, r2, r5
 967 03b0 039089E0 		add	r9, r9, r3
 968 03b4 D2FFFFEA 		b	.L95
 969              	.L101:
 970 03b8 04309DE5 		ldr	r3, [sp, #4]
 971 03bc 0050A0E3 		mov	r5, #0
 972 03c0 4E7F8DE2 		add	r7, sp, #312
 973 03c4 7F60E0E3 		mvn	r6, #127
 974 03c8 930A04E0 		mul	r4, r3, r10
 975              	.L108:
 976 03cc 050054E1 		cmp	r4, r5
 977 03d0 100000DA 		ble	.L118
 978 03d4 050197E7 		ldr	r0, [r7, r5, lsl #2]
 979 03d8 78229DE5 		ldr	r2, [sp, #632]
 980 03dc 74129DE5 		ldr	r1, [sp, #628]
 981 03e0 FEFFFFEB 		bl	_ZN6tflite29MultiplyByQuantizedMultiplierElli
 982 03e4 80329DE5 		ldr	r3, [sp, #640]
 983 03e8 030080E0 		add	r0, r0, r3
 984 03ec 68329DE5 		ldr	r3, [sp, #616]
 985 03f0 7F0050E3 		cmp	r0, #127
 986 03f4 7F00A0A3 		movge	r0, #127
 987 03f8 060050E1 		cmp	r0, r6
 988 03fc 0600A0B1 		movlt	r0, r6
 989 0400 000053E3 		cmp	r3, #0
 990 0404 04309315 		ldrne	r3, [r3, #4]
 991 0408 68329D05 		ldreq	r3, [sp, #616]
 992 040c 0500C3E7 		strb	r0, [r3, r5]
 993 0410 015085E2 		add	r5, r5, #1
 994 0414 ECFFFFEA 		b	.L108
 995              	.L118:
 996 0418 0010A0E3 		mov	r1, #0
 997 041c 0100A0E1 		mov	r0, r1
 998 0420 0140A0E1 		mov	r4, r1
 999              	.L106:
 1000 0424 00005AE1 		cmp	r10, r0
 1001 0428 160000DA 		ble	.L73
 1002 042c 000058E3 		cmp	r8, #0
 1003 0430 00C0A0E3 		mov	ip, #0
 1004 0434 04209815 		ldrne	r2, [r8, #4]
 1005 0438 0820A001 		moveq	r2, r8
 1006 043c 012082E0 		add	r2, r2, r1
 1007              	.L114:
 1008 0440 0C005BE1 		cmp	fp, ip
 1009 0444 0B0000DA 		ble	.L111
 1010 0448 14E09DE5 		ldr	lr, [sp, #20]
 1011 044c 023082E2 		add	r3, r2, #2
 1012 0450 0EE082E0 		add	lr, r2, lr
 1013              	.L113:
 1014 0454 03005EE1 		cmp	lr, r3
 1015 0458 B250D310 		ldrhne	r5, [r3], #2
 1016 045c B4504311 		strhne	r5, [r3, #-4]	@ movhi
 1017 0460 FBFFFF1A 		bne	.L113
 1018              	.L112:
 1019 0464 0C309DE5 		ldr	r3, [sp, #12]
 1020 0468 01C08CE2 		add	ip, ip, #1
 1021 046c B34082E1 		strh	r4, [r2, r3]	@ movhi
 1022 0470 0E20A0E1 		mov	r2, lr
 1023 0474 F1FFFFEA 		b	.L114
 1024              	.L111:
 1025 0478 18309DE5 		ldr	r3, [sp, #24]
 1026 047c 010080E2 		add	r0, r0, #1
 1027 0480 031081E0 		add	r1, r1, r3
 1028 0484 E6FFFFEA 		b	.L106
 1029              	.L73:
 1030 0488 8FDF8DE2 		add	sp, sp, #572
 1031              		@ sp needed
 1032 048c F08FBDE8 		pop	{r4, r5, r6, r7, r8, r9, r10, fp, pc}
 1033              	.L129:
 1034              		.align	2
 1035              	.L128:
 1036 0490 0080FFFF 		.word	-32768
 1037              		.fnend
 1039              		.section	.text._ZN6tflite3ops5micro18ActivationValFloatE21TfLiteFusedActivationf,"axG",%progbits,_
 1040              		.align	2
 1041              		.weak	_ZN6tflite3ops5micro18ActivationValFloatE21TfLiteFusedActivationf
 1042              		.syntax unified
 1043              		.arm
 1044              		.fpu neon
 1046              	_ZN6tflite3ops5micro18ActivationValFloatE21TfLiteFusedActivationf:
 1047              		.fnstart
 1048              	.LFB6216:
 1049              		@ args = 0, pretend = 0, frame = 0
 1050              		@ frame_needed = 0, uses_anonymous_args = 0
 1051 0000 10402DE9 		push	{r4, lr}
 1052 0004 060050E3 		cmp	r0, #6
 1053 0008 00F19F97 		ldrls	pc, [pc, r0, asl #2]
 1054 000c 1E0000EA 		b	.L130
 1055              	.L133:
 1056 0010 8C000000 		.word	.L130
 1057 0014 4C000000 		.word	.L141
 1058 0018 2C000000 		.word	.L135
 1059 001c 44000000 		.word	.L136
 1060 0020 58000000 		.word	.L137
 1061 0024 60000000 		.word	.L138
 1062 0028 74000000 		.word	.L139
 1063              	.L135:
 1064 002c 000AF7EE 		vmov.f32	s1, #1.0e+0
 1065 0030 FEFFFFEB 		bl	fminf
 1066 0034 400AF0EE 		vmov.f32	s1, s0
 1067 0038 000ABFEE 		vmov.f32	s0, #-1.0e+0
 1068              	.L142:
 1069 003c 1040BDE8 		pop	{r4, lr}
 1070 0040 FEFFFFEA 		b	fmaxf
 1071              	.L136:
 1072 0044 080AF1EE 		vmov.f32	s1, #6.0e+0
 1073 0048 FEFFFFEB 		bl	fminf
 1074              	.L141:
 1075 004c 400AF0EE 		vmov.f32	s1, s0
 1076 0050 0E0A9FED 		vldr.32	s0, .L143
 1077 0054 F8FFFFEA 		b	.L142
 1078              	.L137:
 1079 0058 1040BDE8 		pop	{r4, lr}
 1080 005c FEFFFFEA 		b	tanhf
 1081              	.L138:
 1082 0060 103A10EE 		vmov	r3, s0	@ int
 1083 0064 A33FA0E1 		lsr	r3, r3, #31
 1084 0068 103A00EE 		vmov	s0, r3	@ int
 1085 006c 400AB8EE 		vcvt.f32.u32	s0, s0
 1086 0070 1080BDE8 		pop	{r4, pc}
 1087              	.L139:
 1088 0074 400AB1EE 		vneg.f32	s0, s0
 1089 0078 FEFFFFEB 		bl	expf
 1090 007c 007AF7EE 		vmov.f32	s15, #1.0e+0
 1091 0080 277A30EE 		vadd.f32	s14, s0, s15
 1092 0084 870A87EE 		vdiv.f32	s0, s15, s14
 1093 0088 1080BDE8 		pop	{r4, pc}
 1094              	.L130:
 1095 008c 1080BDE8 		pop	{r4, pc}
 1096              	.L144:
 1097              		.align	2
 1098              	.L143:
 1099 0090 00000000 		.word	0
 1100              		.cantunwind
 1101              		.fnend
 1103              		.section	.text._ZN6tflite3ops5micro4svdf4EvalEP13TfLiteContextP10TfLiteNode,"ax",%progbits
 1104              		.align	2
 1105              		.global	_ZN6tflite3ops5micro4svdf4EvalEP13TfLiteContextP10TfLiteNode
 1106              		.syntax unified
 1107              		.arm
 1108              		.fpu neon
 1110              	_ZN6tflite3ops5micro4svdf4EvalEP13TfLiteContextP10TfLiteNode:
 1111              		.fnstart
 1112              	.LFB6223:
 1113              		@ args = 0, pretend = 0, frame = 80
 1114              		@ frame_needed = 0, uses_anonymous_args = 0
 1115 0000 F04F2DE9 		push	{r4, r5, r6, r7, r8, r9, r10, fp, lr}
 1116              		.save {r4, r5, r6, r7, r8, r9, r10, fp, lr}
 1117 0004 0090A0E1 		mov	r9, r0
 1118 0008 00E091E5 		ldr	lr, [r1]
 1119 000c 08C090E5 		ldr	ip, [r0, #8]
 1120 0010 0C209EE5 		ldr	r2, [lr, #12]
 1121 0014 028B2DED 		vpush.64	{d8}
 1122              		.vsave {d8}
 1123              		.pad #124
 1124 0018 7CD04DE2 		sub	sp, sp, #124
 1125 001c 04A09EE5 		ldr	r10, [lr, #4]
 1126 0020 08009EE5 		ldr	r0, [lr, #8]
 1127 0024 02338CE0 		add	r3, ip, r2, lsl #6
 1128 0028 146091E5 		ldr	r6, [r1, #20]
 1129 002c 3C308DE5 		str	r3, [sp, #60]
 1130 0030 0A738CE0 		add	r7, ip, r10, lsl #6
 1131 0034 00309EE5 		ldr	r3, [lr]
 1132 0038 00838CE0 		add	r8, ip, r0, lsl #6
 1133 003c 030053E3 		cmp	r3, #3
 1134 0040 030000DA 		ble	.L201
 1135 0044 10309EE5 		ldr	r3, [lr, #16]
 1136 0048 010073E3 		cmn	r3, #1
 1137 004c 03338C10 		addne	r3, ip, r3, lsl #6
 1138 0050 0000001A 		bne	.L224
 1139              	.L201:
 1140 0054 0030A0E3 		mov	r3, #0
 1141              	.L224:
 1142 0058 34308DE5 		str	r3, [sp, #52]
 1143 005c 043091E5 		ldr	r3, [r1, #4]
 1144 0060 0003DCE7 		ldrb	r0, [ip, r0, lsl #6]	@ zero_extendqisi2
 1145 0064 14509EE5 		ldr	r5, [lr, #20]
 1146 0068 044093E5 		ldr	r4, [r3, #4]
 1147 006c 010050E3 		cmp	r0, #1
 1148 0070 05538CE0 		add	r5, ip, r5, lsl #6
 1149 0074 04438CE0 		add	r4, ip, r4, lsl #6
 1150 0078 0800000A 		beq	.L149
 1151 007c 090050E3 		cmp	r0, #9
 1152 0080 3901000A 		beq	.L150
 1153 0084 144099E5 		ldr	r4, [r9, #20]
 1154 0088 FEFFFFEB 		bl	TfLiteTypeGetName
 1155 008c C4149FE5 		ldr	r1, .L227+4
 1156 0090 0020A0E1 		mov	r2, r0
 1157 0094 0900A0E1 		mov	r0, r9
 1158 0098 34FF2FE1 		blx	r4
 1159 009c 620100EA 		b	.L225
 1160              	.L149:
 1161 00a0 18309EE5 		ldr	r3, [lr, #24]
 1162 00a4 03A38CE0 		add	r10, ip, r3, lsl #6
 1163 00a8 003096E5 		ldr	r3, [r6]
 1164 00ac 44308DE5 		str	r3, [sp, #68]
 1165 00b0 083097E5 		ldr	r3, [r7, #8]
 1166 00b4 44109DE5 		ldr	r1, [sp, #68]
 1167 00b8 04B093E5 		ldr	fp, [r3, #4]
 1168 00bc 083093E5 		ldr	r3, [r3, #8]
 1169 00c0 48308DE5 		str	r3, [sp, #72]
 1170 00c4 083098E5 		ldr	r3, [r8, #8]
 1171 00c8 043093E5 		ldr	r3, [r3, #4]
 1172 00cc 0300A0E1 		mov	r0, r3
 1173 00d0 2C308DE5 		str	r3, [sp, #44]
 1174 00d4 FEFFFFEB 		bl	__aeabi_idiv
 1175 00d8 3C309DE5 		ldr	r3, [sp, #60]
 1176 00dc 0010A0E3 		mov	r1, #0
 1177 00e0 2C209DE5 		ldr	r2, [sp, #44]
 1178 00e4 00E0A0E3 		mov	lr, #0
 1179 00e8 30008DE5 		str	r0, [sp, #48]
 1180 00ec 083093E5 		ldr	r3, [r3, #8]
 1181 00f0 083093E5 		ldr	r3, [r3, #8]
 1182 00f4 40308DE5 		str	r3, [sp, #64]
 1183 00f8 073143E2 		sub	r3, r3, #-1073741823
 1184 00fc 0331A0E1 		lsl	r3, r3, #2
 1185 0100 38308DE5 		str	r3, [sp, #56]
 1186 0104 40309DE5 		ldr	r3, [sp, #64]
 1187 0108 930203E0 		mul	r3, r3, r2
 1188 010c 0331A0E1 		lsl	r3, r3, #2
 1189 0110 50308DE5 		str	r3, [sp, #80]
 1190 0114 38309DE5 		ldr	r3, [sp, #56]
 1191 0118 04C083E2 		add	ip, r3, #4
 1192 011c 0320A0E1 		mov	r2, r3
 1193              	.L155:
 1194 0120 01005BE1 		cmp	fp, r1
 1195 0124 0E0000DA 		ble	.L151
 1196 0128 000055E3 		cmp	r5, #0
 1197 012c 0000A0E3 		mov	r0, #0
 1198 0130 04309515 		ldrne	r3, [r5, #4]
 1199 0134 0530A001 		moveq	r3, r5
 1200 0138 023083E0 		add	r3, r3, r2
 1201              	.L154:
 1202 013c 2C909DE5 		ldr	r9, [sp, #44]
 1203 0140 000059E1 		cmp	r9, r0
 1204 0144 00E083C5 		strgt	lr, [r3]	@ float
 1205 0148 010080C2 		addgt	r0, r0, #1
 1206 014c 0C3083C0 		addgt	r3, r3, ip
 1207 0150 F9FFFFCA 		bgt	.L154
 1208              	.L153:
 1209 0154 50309DE5 		ldr	r3, [sp, #80]
 1210 0158 011081E2 		add	r1, r1, #1
 1211 015c 032082E0 		add	r2, r2, r3
 1212 0160 EEFFFFEA 		b	.L155
 1213              	.L151:
 1214 0164 043098E5 		ldr	r3, [r8, #4]
 1215 0168 000055E3 		cmp	r5, #0
 1216 016c 38109DE5 		ldr	r1, [sp, #56]
 1217 0170 0000A0E3 		mov	r0, #0
 1218 0174 042097E5 		ldr	r2, [r7, #4]
 1219 0178 58308DE5 		str	r3, [sp, #88]
 1220 017c 0530A001 		moveq	r3, r5
 1221 0180 04309515 		ldrne	r3, [r5, #4]
 1222 0184 013083E0 		add	r3, r3, r1
 1223 0188 041081E2 		add	r1, r1, #4
 1224 018c 4C108DE5 		str	r1, [sp, #76]
 1225 0190 48109DE5 		ldr	r1, [sp, #72]
 1226 0194 0111A0E1 		lsl	r1, r1, #2
 1227 0198 5C108DE5 		str	r1, [sp, #92]
 1228 019c 48109DE5 		ldr	r1, [sp, #72]
 1229 01a0 C1EFC1E1 		bic	lr, r1, r1, asr #31
 1230 01a4 0E11A0E1 		lsl	r1, lr, #2
 1231 01a8 60108DE5 		str	r1, [sp, #96]
 1232 01ac 2C109DE5 		ldr	r1, [sp, #44]
 1233 01b0 C1CFC1E1 		bic	ip, r1, r1, asr #31
 1234 01b4 4C109DE5 		ldr	r1, [sp, #76]
 1235 01b8 910C01E0 		mul	r1, r1, ip
 1236 01bc 64108DE5 		str	r1, [sp, #100]
 1237              	.L162:
 1238 01c0 00005BE1 		cmp	fp, r0
 1239 01c4 220000DA 		ble	.L157
 1240 01c8 58809DE5 		ldr	r8, [sp, #88]
 1241 01cc 0310A0E1 		mov	r1, r3
 1242 01d0 0070A0E3 		mov	r7, #0
 1243              	.L161:
 1244 01d4 2CC09DE5 		ldr	ip, [sp, #44]
 1245 01d8 07005CE1 		cmp	ip, r7
 1246 01dc 160000DA 		ble	.L158
 1247 01e0 DB7A9FED 		vldr.32	s14, .L227
 1248 01e4 08E0A0E1 		mov	lr, r8
 1249 01e8 0090A0E3 		mov	r9, #0
 1250 01ec 54208DE5 		str	r2, [sp, #84]
 1251              	.L160:
 1252 01f0 48C09DE5 		ldr	ip, [sp, #72]
 1253 01f4 09005CE1 		cmp	ip, r9
 1254 01f8 060000DA 		ble	.L159
 1255 01fc 54C09DE5 		ldr	ip, [sp, #84]
 1256 0200 019089E2 		add	r9, r9, #1
 1257 0204 016AFEEC 		vldmia.32	lr!, {s13}
 1258 0208 017AFCEC 		vldmia.32	ip!, {s15}
 1259 020c 54C08DE5 		str	ip, [sp, #84]
 1260 0210 A77A06EE 		vmla.f32	s14, s13, s15
 1261 0214 F5FFFFEA 		b	.L160
 1262              	.L159:
 1263 0218 007AD1ED 		vldr.32	s15, [r1]
 1264 021c 017087E2 		add	r7, r7, #1
 1265 0220 60C09DE5 		ldr	ip, [sp, #96]
 1266 0224 877A77EE 		vadd.f32	s15, s15, s14
 1267 0228 0C8088E0 		add	r8, r8, ip
 1268 022c 4CC09DE5 		ldr	ip, [sp, #76]
 1269 0230 007AC1ED 		vstr.32	s15, [r1]
 1270 0234 0C1081E0 		add	r1, r1, ip
 1271 0238 E5FFFFEA 		b	.L161
 1272              	.L158:
 1273 023c 64109DE5 		ldr	r1, [sp, #100]
 1274 0240 010080E2 		add	r0, r0, #1
 1275 0244 013083E0 		add	r3, r3, r1
 1276 0248 5C109DE5 		ldr	r1, [sp, #92]
 1277 024c 012082E0 		add	r2, r2, r1
 1278 0250 DAFFFFEA 		b	.L162
 1279              	.L157:
 1280 0254 0430D6E5 		ldrb	r3, [r6, #4]	@ zero_extendqisi2
 1281 0258 0010A0E3 		mov	r1, #0
 1282 025c 01C0A0E1 		mov	ip, r1
 1283 0260 01E0A0E1 		mov	lr, r1
 1284 0264 5C308DE5 		str	r3, [sp, #92]
 1285 0268 2C309DE5 		ldr	r3, [sp, #44]
 1286 026c 0331A0E1 		lsl	r3, r3, #2
 1287 0270 58308DE5 		str	r3, [sp, #88]
 1288 0274 40309DE5 		ldr	r3, [sp, #64]
 1289 0278 C30FC3E1 		bic	r0, r3, r3, asr #31
 1290 027c 0001A0E1 		lsl	r0, r0, #2
 1291              	.L170:
 1292 0280 0E005BE1 		cmp	fp, lr
 1293 0284 2B0000DA 		ble	.L163
 1294 0288 3C209DE5 		ldr	r2, [sp, #60]
 1295 028c 00005AE3 		cmp	r10, #0
 1296 0290 04309A15 		ldrne	r3, [r10, #4]
 1297 0294 0A30A001 		moveq	r3, r10
 1298 0298 000055E3 		cmp	r5, #0
 1299 029c 0060A0E3 		mov	r6, #0
 1300 02a0 047092E5 		ldr	r7, [r2, #4]
 1301 02a4 0520A001 		moveq	r2, r5
 1302 02a8 04209515 		ldrne	r2, [r5, #4]
 1303 02ac 013083E0 		add	r3, r3, r1
 1304 02b0 0C2082E0 		add	r2, r2, ip
 1305              	.L169:
 1306 02b4 2C809DE5 		ldr	r8, [sp, #44]
 1307 02b8 060058E1 		cmp	r8, r6
 1308 02bc 170000DA 		ble	.L166
 1309 02c0 A37ADFED 		vldr.32	s15, .L227
 1310 02c4 0080A0E3 		mov	r8, #0
 1311 02c8 54208DE5 		str	r2, [sp, #84]
 1312 02cc 48708DE5 		str	r7, [sp, #72]
 1313 02d0 007AC3ED 		vstr.32	s15, [r3]
 1314              	.L168:
 1315 02d4 40909DE5 		ldr	r9, [sp, #64]
 1316 02d8 080059E1 		cmp	r9, r8
 1317 02dc 0A0000DA 		ble	.L167
 1318 02e0 48909DE5 		ldr	r9, [sp, #72]
 1319 02e4 018088E2 		add	r8, r8, #1
 1320 02e8 007AD3ED 		vldr.32	s15, [r3]
 1321 02ec 016AF9EC 		vldmia.32	r9!, {s13}
 1322 02f0 48908DE5 		str	r9, [sp, #72]
 1323 02f4 54909DE5 		ldr	r9, [sp, #84]
 1324 02f8 017AB9EC 		vldmia.32	r9!, {s14}
 1325 02fc 54908DE5 		str	r9, [sp, #84]
 1326 0300 877A46EE 		vmla.f32	s15, s13, s14
 1327 0304 007AC3ED 		vstr.32	s15, [r3]
 1328 0308 F1FFFFEA 		b	.L168
 1329              	.L167:
 1330 030c 007087E0 		add	r7, r7, r0
 1331 0310 002082E0 		add	r2, r2, r0
 1332 0314 043083E2 		add	r3, r3, #4
 1333 0318 016086E2 		add	r6, r6, #1
 1334 031c E4FFFFEA 		b	.L169
 1335              	.L166:
 1336 0320 50309DE5 		ldr	r3, [sp, #80]
 1337 0324 01E08EE2 		add	lr, lr, #1
 1338 0328 03C08CE0 		add	ip, ip, r3
 1339 032c 58309DE5 		ldr	r3, [sp, #88]
 1340 0330 031081E0 		add	r1, r1, r3
 1341 0334 D1FFFFEA 		b	.L170
 1342              	.L163:
 1343 0338 34309DE5 		ldr	r3, [sp, #52]
 1344 033c 000053E3 		cmp	r3, #0
 1345 0340 3600000A 		beq	.L171
 1346 0344 30209DE5 		ldr	r2, [sp, #48]
 1347 0348 000054E3 		cmp	r4, #0
 1348 034c 046093E5 		ldr	r6, [r3, #4]
 1349 0350 0430A001 		moveq	r3, r4
 1350 0354 04309415 		ldrne	r3, [r4, #4]
 1351 0358 02E1A0E1 		lsl	lr, r2, #2
 1352 035c 0020A0E3 		mov	r2, #0
 1353              	.L176:
 1354 0360 02005BE1 		cmp	fp, r2
 1355 0364 210000CA 		bgt	.L207
 1356              	.L178:
 1357 0368 30309DE5 		ldr	r3, [sp, #48]
 1358 036c 0010A0E3 		mov	r1, #0
 1359 0370 0100A0E1 		mov	r0, r1
 1360 0374 01C0A0E1 		mov	ip, r1
 1361 0378 0361A0E1 		lsl	r6, r3, #2
 1362 037c 44309DE5 		ldr	r3, [sp, #68]
 1363 0380 C3EFC3E1 		bic	lr, r3, r3, asr #31
 1364 0384 0E31A0E1 		lsl	r3, lr, #2
 1365 0388 34308DE5 		str	r3, [sp, #52]
 1366              	.L174:
 1367 038c 0C005BE1 		cmp	fp, ip
 1368 0390 380000DA 		ble	.L209
 1369 0394 000054E3 		cmp	r4, #0
 1370 0398 0070A0E3 		mov	r7, #0
 1371 039c 04309415 		ldrne	r3, [r4, #4]
 1372 03a0 0430A001 		moveq	r3, r4
 1373 03a4 00005AE3 		cmp	r10, #0
 1374 03a8 04209A15 		ldrne	r2, [r10, #4]
 1375 03ac 0A20A001 		moveq	r2, r10
 1376 03b0 013083E0 		add	r3, r3, r1
 1377 03b4 002082E0 		add	r2, r2, r0
 1378              	.L186:
 1379 03b8 30809DE5 		ldr	r8, [sp, #48]
 1380 03bc 070058E1 		cmp	r8, r7
 1381 03c0 270000DA 		ble	.L183
 1382 03c4 0290A0E1 		mov	r9, r2
 1383 03c8 0080A0E3 		mov	r8, #0
 1384              	.L185:
 1385 03cc 44E09DE5 		ldr	lr, [sp, #68]
 1386 03d0 08005EE1 		cmp	lr, r8
 1387 03d4 1D0000DA 		ble	.L184
 1388 03d8 007AD3ED 		vldr.32	s15, [r3]
 1389 03dc 018088E2 		add	r8, r8, #1
 1390 03e0 017AB9EC 		vldmia.32	r9!, {s14}
 1391 03e4 877A77EE 		vadd.f32	s15, s15, s14
 1392 03e8 007AC3ED 		vstr.32	s15, [r3]
 1393 03ec F6FFFFEA 		b	.L185
 1394              	.L207:
 1395 03f0 0300A0E1 		mov	r0, r3
 1396 03f4 06C0A0E1 		mov	ip, r6
 1397 03f8 0010A0E3 		mov	r1, #0
 1398              	.L173:
 1399 03fc 30709DE5 		ldr	r7, [sp, #48]
 1400 0400 010057E1 		cmp	r7, r1
 1401 0404 04709CC4 		ldrgt	r7, [ip], #4	@ float
 1402 0408 011081C2 		addgt	r1, r1, #1
 1403 040c 047080C4 		strgt	r7, [r0], #4	@ float
 1404 0410 F9FFFFCA 		bgt	.L173
 1405              	.L175:
 1406 0414 012082E2 		add	r2, r2, #1
 1407 0418 0E3083E0 		add	r3, r3, lr
 1408 041c CFFFFFEA 		b	.L176
 1409              	.L171:
 1410 0420 30309DE5 		ldr	r3, [sp, #48]
 1411 0424 000054E3 		cmp	r4, #0
 1412 0428 04209415 		ldrne	r2, [r4, #4]
 1413 042c 0420A001 		moveq	r2, r4
 1414 0430 0010A0E3 		mov	r1, #0
 1415 0434 930B00E0 		mul	r0, r3, fp
 1416 0438 0030A0E3 		mov	r3, #0
 1417              	.L179:
 1418 043c 030050E1 		cmp	r0, r3
 1419 0440 C8FFFFDA 		ble	.L178
 1420 0444 041082E4 		str	r1, [r2], #4	@ float
 1421 0448 013083E2 		add	r3, r3, #1
 1422 044c FAFFFFEA 		b	.L179
 1423              	.L184:
 1424 0450 34E09DE5 		ldr	lr, [sp, #52]
 1425 0454 017087E2 		add	r7, r7, #1
 1426 0458 043083E2 		add	r3, r3, #4
 1427 045c 0E2082E0 		add	r2, r2, lr
 1428 0460 D4FFFFEA 		b	.L186
 1429              	.L183:
 1430 0464 58309DE5 		ldr	r3, [sp, #88]
 1431 0468 01C08CE2 		add	ip, ip, #1
 1432 046c 061081E0 		add	r1, r1, r6
 1433 0470 030080E0 		add	r0, r0, r3
 1434 0474 C4FFFFEA 		b	.L174
 1435              	.L209:
 1436 0478 0080A0E3 		mov	r8, #0
 1437 047c 0890A0E1 		mov	r9, r8
 1438              	.L180:
 1439 0480 09005BE1 		cmp	fp, r9
 1440 0484 100000DA 		ble	.L212
 1441 0488 000054E3 		cmp	r4, #0
 1442 048c 00A0A0E3 		mov	r10, #0
 1443 0490 04709415 		ldrne	r7, [r4, #4]
 1444 0494 0470A001 		moveq	r7, r4
 1445 0498 087087E0 		add	r7, r7, r8
 1446              	.L190:
 1447 049c 30309DE5 		ldr	r3, [sp, #48]
 1448 04a0 0A0053E1 		cmp	r3, r10
 1449 04a4 050000DA 		ble	.L189
 1450 04a8 000A97ED 		vldr.32	s0, [r7]
 1451 04ac 01A08AE2 		add	r10, r10, #1
 1452 04b0 5C009DE5 		ldr	r0, [sp, #92]
 1453 04b4 FEFFFFEB 		bl	_ZN6tflite3ops5micro18ActivationValFloatE21TfLiteFusedActivationf
 1454 04b8 010AA7EC 		vstmia.32	r7!, {s0}
 1455 04bc F6FFFFEA 		b	.L190
 1456              	.L189:
 1457 04c0 019089E2 		add	r9, r9, #1
 1458 04c4 068088E0 		add	r8, r8, r6
 1459 04c8 ECFFFFEA 		b	.L180
 1460              	.L212:
 1461 04cc 0010A0E3 		mov	r1, #0
 1462 04d0 0040A0E3 		mov	r4, #0
 1463 04d4 0100A0E1 		mov	r0, r1
 1464              	.L187:
 1465 04d8 00005BE1 		cmp	fp, r0
 1466 04dc 030000CA 		bgt	.L191
 1467              	.L226:
 1468 04e0 0000A0E3 		mov	r0, #0
 1469              	.L222:
 1470 04e4 7CD08DE2 		add	sp, sp, #124
 1471              		@ sp needed
 1472 04e8 028BBDEC 		vldm	sp!, {d8}
 1473 04ec F08FBDE8 		pop	{r4, r5, r6, r7, r8, r9, r10, fp, pc}
 1474              	.L191:
 1475 04f0 000055E3 		cmp	r5, #0
 1476 04f4 00C0A0E3 		mov	ip, #0
 1477 04f8 04309515 		ldrne	r3, [r5, #4]
 1478 04fc 0530A001 		moveq	r3, r5
 1479 0500 013083E0 		add	r3, r3, r1
 1480              	.L197:
 1481 0504 2C209DE5 		ldr	r2, [sp, #44]
 1482 0508 0C0052E1 		cmp	r2, ip
 1483 050c 0C0000DA 		ble	.L194
 1484 0510 4CE09DE5 		ldr	lr, [sp, #76]
 1485 0514 042083E2 		add	r2, r3, #4
 1486 0518 0EE083E0 		add	lr, r3, lr
 1487              	.L196:
 1488 051c 02005EE1 		cmp	lr, r2
 1489 0520 04609214 		ldrne	r6, [r2], #4	@ float
 1490 0524 08600215 		strne	r6, [r2, #-8]	@ float
 1491 0528 FBFFFF1A 		bne	.L196
 1492              	.L195:
 1493 052c 38209DE5 		ldr	r2, [sp, #56]
 1494 0530 01C08CE2 		add	ip, ip, #1
 1495 0534 023083E0 		add	r3, r3, r2
 1496 0538 004083E5 		str	r4, [r3]	@ float
 1497 053c 0E30A0E1 		mov	r3, lr
 1498 0540 EFFFFFEA 		b	.L197
 1499              	.L194:
 1500 0544 50309DE5 		ldr	r3, [sp, #80]
 1501 0548 010080E2 		add	r0, r0, #1
 1502 054c 031081E0 		add	r1, r1, r3
 1503 0550 E0FFFFEA 		b	.L187
 1504              	.L228:
 1505              		.align	2
 1506              	.L227:
 1507 0554 00000000 		.word	0
 1508 0558 22000000 		.word	.LC46
 1509 055c 00000000 		.word	.LC44
 1510 0560 00000000 		.word	.LC0
 1511 0564 0F000000 		.word	.LC45
 1512 0568 42000000 		.word	.LC1
 1513              	.L150:
 1514 056c 0A33DCE7 		ldrb	r3, [ip, r10, lsl #6]	@ zero_extendqisi2
 1515 0570 090053E3 		cmp	r3, #9
 1516 0574 D9FFFF1A 		bne	.L226
 1517 0578 343095E5 		ldr	r3, [r5, #52]
 1518 057c 70108DE2 		add	r1, sp, #112
 1519 0580 68008DE2 		add	r0, sp, #104
 1520 0584 003093E5 		ldr	r3, [r3]
 1521 0588 017A93ED 		vldr.32	s14, [r3, #4]
 1522 058c 3C309DE5 		ldr	r3, [sp, #60]
 1523 0590 343093E5 		ldr	r3, [r3, #52]
 1524 0594 003093E5 		ldr	r3, [r3]
 1525 0598 017AD3ED 		vldr.32	s15, [r3, #4]
 1526 059c 343094E5 		ldr	r3, [r4, #52]
 1527 05a0 003093E5 		ldr	r3, [r3]
 1528 05a4 277A67EE 		vmul.f32	s15, s14, s15
 1529 05a8 016AD3ED 		vldr.32	s13, [r3, #4]
 1530 05ac 343097E5 		ldr	r3, [r7, #52]
 1531 05b0 002093E5 		ldr	r2, [r3]
 1532 05b4 343098E5 		ldr	r3, [r8, #52]
 1533 05b8 A68A87EE 		vdiv.f32	s16, s15, s13
 1534 05bc 017AD2ED 		vldr.32	s15, [r2, #4]
 1535 05c0 003093E5 		ldr	r3, [r3]
 1536 05c4 016AD3ED 		vldr.32	s13, [r3, #4]
 1537 05c8 A67A67EE 		vmul.f32	s15, s15, s13
 1538 05cc 870A87EE 		vdiv.f32	s0, s15, s14
 1539 05d0 C88AB7EE 		vcvt.f64.f32	d8, s16
 1540 05d4 C00AB7EE 		vcvt.f64.f32	d0, s0
 1541 05d8 FEFFFFEB 		bl	_ZN6tflite18QuantizeMultiplierEdPlPi
 1542 05dc 74108DE2 		add	r1, sp, #116
 1543 05e0 6C008DE2 		add	r0, sp, #108
 1544 05e4 480BB0EE 		vmov.f64	d0, d8
 1545 05e8 FEFFFFEB 		bl	_ZN6tflite18QuantizeMultiplierEdPlPi
 1546 05ec 0430D6E5 		ldrb	r3, [r6, #4]	@ zero_extendqisi2
 1547 05f0 010053E3 		cmp	r3, #1
 1548 05f4 0E00000A 		beq	.L199
 1549 05f8 08308DE5 		str	r3, [sp, #8]
 1550 05fc 0140A0E3 		mov	r4, #1
 1551 0600 AC301FE5 		ldr	r3, .L227+8
 1552 0604 0900A0E1 		mov	r0, r9
 1553 0608 0C408DE5 		str	r4, [sp, #12]
 1554 060c B4201FE5 		ldr	r2, .L227+12
 1555 0610 04308DE5 		str	r3, [sp, #4]
 1556 0614 B8301FE5 		ldr	r3, .L227+16
 1557 0618 B8101FE5 		ldr	r1, .L227+20
 1558 061c 00308DE5 		str	r3, [sp]
 1559 0620 873FA0E3 		mov	r3, #540
 1560 0624 145099E5 		ldr	r5, [r9, #20]
 1561 0628 35FF2FE1 		blx	r5
 1562              	.L225:
 1563 062c 0100A0E3 		mov	r0, #1
 1564 0630 ABFFFFEA 		b	.L222
 1565              	.L199:
 1566 0634 103094E5 		ldr	r3, [r4, #16]
 1567 0638 0810A0E1 		mov	r1, r8
 1568 063c 3C209DE5 		ldr	r2, [sp, #60]
 1569 0640 0700A0E1 		mov	r0, r7
 1570 0644 20308DE5 		str	r3, [sp, #32]
 1571 0648 103097E5 		ldr	r3, [r7, #16]
 1572 064c 08408DE5 		str	r4, [sp, #8]
 1573 0650 04508DE5 		str	r5, [sp, #4]
 1574 0654 1C308DE5 		str	r3, [sp, #28]
 1575 0658 74309DE5 		ldr	r3, [sp, #116]
 1576 065c 18308DE5 		str	r3, [sp, #24]
 1577 0660 6C309DE5 		ldr	r3, [sp, #108]
 1578 0664 14308DE5 		str	r3, [sp, #20]
 1579 0668 70309DE5 		ldr	r3, [sp, #112]
 1580 066c 10308DE5 		str	r3, [sp, #16]
 1581 0670 68309DE5 		ldr	r3, [sp, #104]
 1582 0674 0C308DE5 		str	r3, [sp, #12]
 1583 0678 003096E5 		ldr	r3, [r6]
 1584 067c 00308DE5 		str	r3, [sp]
 1585 0680 34309DE5 		ldr	r3, [sp, #52]
 1586 0684 FEFFFFEB 		bl	_ZN6tflite3ops5micro4svdf12_GLOBAL__N_115EvalIntegerSVDFEP13TfLiteContextP10TfLiteNodePK12TfLit
 1587 0688 94FFFFEA 		b	.L226
 1588              		.fnend
 1590              		.section	.text._ZN6tflite3ops5micro13Register_SVDFEv,"ax",%progbits
 1591              		.align	2
 1592              		.global	_ZN6tflite3ops5micro13Register_SVDFEv
 1593              		.syntax unified
 1594              		.arm
 1595              		.fpu neon
 1597              	_ZN6tflite3ops5micro13Register_SVDFEv:
 1598              		.fnstart
 1599              	.LFB6224:
 1600              		@ args = 0, pretend = 0, frame = 0
 1601              		@ frame_needed = 0, uses_anonymous_args = 0
 1602              		@ link register save eliminated.
 1603 0000 20009FE5 		ldr	r0, .L230
 1604 0004 20309FE5 		ldr	r3, .L230+4
 1605 0008 003080E5 		str	r3, [r0]
 1606 000c 1C309FE5 		ldr	r3, .L230+8
 1607 0010 043080E5 		str	r3, [r0, #4]
 1608 0014 18309FE5 		ldr	r3, .L230+12
 1609 0018 083080E5 		str	r3, [r0, #8]
 1610 001c 14309FE5 		ldr	r3, .L230+16
 1611 0020 0C3080E5 		str	r3, [r0, #12]
 1612 0024 1EFF2FE1 		bx	lr
 1613              	.L231:
 1614              		.align	2
 1615              	.L230:
 1616 0028 00000000 		.word	.LANCHOR1
 1617 002c 00000000 		.word	_ZN6tflite3ops5micro4svdf4InitEP13TfLiteContextPKcj
 1618 0030 00000000 		.word	_ZN6tflite3ops5micro4svdf4FreeEP13TfLiteContextPv
 1619 0034 00000000 		.word	_ZN6tflite3ops5micro4svdf7PrepareEP13TfLiteContextP10TfLiteNode
 1620 0038 00000000 		.word	_ZN6tflite3ops5micro4svdf4EvalEP13TfLiteContextP10TfLiteNode
 1621              		.cantunwind
 1622              		.fnend
 1624              		.weak	_ZN11flatbuffers25flatbuffer_version_stringE
 1625              		.section	.bss._ZZN6tflite3ops5micro13Register_SVDFEvE1r,"aw",%nobits
 1626              		.align	2
 1627              		.set	.LANCHOR1,. + 0
 1630              	_ZZN6tflite3ops5micro13Register_SVDFEvE1r:
 1631 0000 00000000 		.space	32
 1631      00000000 
 1631      00000000 
 1631      00000000 
 1631      00000000 
 1632              		.section	.data._ZN11flatbuffers25flatbuffer_version_stringE,"aw",%progbits
 1633              		.align	2
 1636              	_ZN11flatbuffers25flatbuffer_version_stringE:
 1637 0000 00000000 		.word	.LC47
 1638              		.section	.rodata._ZN6tflite29MultiplyByQuantizedMultiplierElli.str1.1,"aMS",%progbits,1
 1639              	.LC42:
 1640 0000 6578706F 		.ascii	"exponent <= 31\000"
 1640      6E656E74 
 1640      203C3D20 
 1640      333100
 1641              	.LC43:
 1642 000f 433A2F52 		.ascii	"C:/Renesas/e2studio_2021_01_workspace_RZA2M_ANPR/AN"
 1642      656E6573 
 1642      61732F65 
 1642      32737475 
 1642      64696F5F 
 1643 0042 50525F52 		.ascii	"PR_RZA2M_GR_MANGO/src/tensorflow_lite/src/third_par"
 1643      5A41324D 
 1643      5F47525F 
 1643      4D414E47 
 1643      4F2F7372 
 1644 0075 74792F67 		.ascii	"ty/gemmlowp/fixedpoint/fixedpoint.h\000"
 1644      656D6D6C 
 1644      6F77702F 
 1644      66697865 
 1644      64706F69 
 1645              		.section	.rodata._ZN6tflite3ops5micro4svdf4EvalEP13TfLiteContextP10TfLiteNode.str1.1,"aMS",%progbi
 1646              	.LC44:
 1647 0000 6B54664C 		.ascii	"kTfLiteActRelu\000"
 1647      69746541 
 1647      63745265 
 1647      6C7500
 1648              	.LC45:
 1649 000f 70617261 		.ascii	"params->activation\000"
 1649      6D732D3E 
 1649      61637469 
 1649      76617469 
 1649      6F6E00
 1650              	.LC46:
 1651 0022 54797065 		.ascii	"Type %s not currently supported.\000"
 1651      20257320 
 1651      6E6F7420 
 1651      63757272 
 1651      656E746C 
 1652              		.section	.rodata._ZN6tflite3ops5micro4svdf7PrepareEP13TfLiteContextP10TfLiteNode.str1.1,"aMS",%pro
 1653              	.LC0:
 1654 0000 2E2E2F73 		.ascii	"../src/tensorflow_lite/src/tensorflow/lite/micro/ke"
 1654      72632F74 
 1654      656E736F 
 1654      72666C6F 
 1654      775F6C69 
 1655 0033 726E656C 		.ascii	"rnels/svdf.cpp\000"
 1655      732F7376 
 1655      64662E63 
 1655      707000
 1656              	.LC1:
 1657 0042 25733A25 		.ascii	"%s:%d %s != %s (%d != %d)\000"
 1657      64202573 
 1657      20213D20 
 1657      25732028 
 1657      25642021 
 1658              	.LC2:
 1659 005c 3000     		.ascii	"0\000"
 1660              	.LC3:
 1661 005e 6E756D5F 		.ascii	"num_filters % rank\000"
 1661      66696C74 
 1661      65727320 
 1661      25207261 
 1661      6E6B00
 1662              	.LC4:
 1663 0071 25733A25 		.ascii	"%s:%d %s was not true.\000"
 1663      64202573 
 1663      20776173 
 1663      206E6F74 
 1663      20747275 
 1664              	.LC5:
 1665 0088 696E7075 		.ascii	"input->type == kTfLiteFloat32 || input->type == kTf"
 1665      742D3E74 
 1665      79706520 
 1665      3D3D206B 
 1665      54664C69 
 1666 00bb 4C697465 		.ascii	"LiteInt8\000"
 1666      496E7438 
 1666      00
 1667              	.LC6:
 1668 00c4 3200     		.ascii	"2\000"
 1669              	.LC7:
 1670 00c6 4E756D44 		.ascii	"NumDimensions(input)\000"
 1670      696D656E 
 1670      73696F6E 
 1670      7328696E 
 1670      70757429 
 1671              	.LC8:
 1672 00db 3100     		.ascii	"1\000"
 1673              	.LC9:
 1674 00dd 6E6F6465 		.ascii	"node->outputs->size\000"
 1674      2D3E6F75 
 1674      74707574 
 1674      732D3E73 
 1674      697A6500 
 1675              	.LC10:
 1676 00f1 4E756D44 		.ascii	"NumDimensions(output)\000"
 1676      696D656E 
 1676      73696F6E 
 1676      73286F75 
 1676      74707574 
 1677              	.LC11:
 1678 0107 62617463 		.ascii	"batch_size\000"
 1678      685F7369 
 1678      7A6500
 1679              	.LC12:
 1680 0112 6F757470 		.ascii	"output->dims->data[0]\000"
 1680      75742D3E 
 1680      64696D73 
 1680      2D3E6461 
 1680      74615B30 
 1681              	.LC13:
 1682 0128 6E756D5F 		.ascii	"num_units\000"
 1682      756E6974 
 1682      7300
 1683              	.LC14:
 1684 0132 6F757470 		.ascii	"output->dims->data[1]\000"
 1684      75742D3E 
 1684      64696D73 
 1684      2D3E6461 
 1684      74615B31 
 1685              	.LC15:
 1686 0148 4E756D44 		.ascii	"NumDimensions(weights_feature)\000"
 1686      696D656E 
 1686      73696F6E 
 1686      73287765 
 1686      69676874 
 1687              	.LC16:
 1688 0167 696E7075 		.ascii	"input_size\000"
 1688      745F7369 
 1688      7A6500
 1689              	.LC17:
 1690 0172 77656967 		.ascii	"weights_feature->dims->data[1]\000"
 1690      6874735F 
 1690      66656174 
 1690      7572652D 
 1690      3E64696D 
 1691              	.LC18:
 1692 0191 4E756D44 		.ascii	"NumDimensions(weights_time)\000"
 1692      696D656E 
 1692      73696F6E 
 1692      73287765 
 1692      69676874 
 1693              	.LC19:
 1694 01ad 6E756D5F 		.ascii	"num_filters\000"
 1694      66696C74 
 1694      65727300 
 1695              	.LC20:
 1696 01b9 77656967 		.ascii	"weights_time->dims->data[0]\000"
 1696      6874735F 
 1696      74696D65 
 1696      2D3E6469 
 1696      6D732D3E 
 1697              	.LC21:
 1698 01d5 62696173 		.ascii	"bias->dims->data[0]\000"
 1698      2D3E6469 
 1698      6D732D3E 
 1698      64617461 
 1698      5B305D00 
 1699              	.LC22:
 1700 01e9 4E756D44 		.ascii	"NumDimensions(activation_state)\000"
 1700      696D656E 
 1700      73696F6E 
 1700      73286163 
 1700      74697661 
 1701              	.LC23:
 1702 0209 61637469 		.ascii	"activation_state->dims->data[0]\000"
 1702      76617469 
 1702      6F6E5F73 
 1702      74617465 
 1702      2D3E6469 
 1703              	.LC24:
 1704 0229 6D656D6F 		.ascii	"memory_size * num_filters\000"
 1704      72795F73 
 1704      697A6520 
 1704      2A206E75 
 1704      6D5F6669 
 1705              	.LC25:
 1706 0243 61637469 		.ascii	"activation_state->dims->data[1]\000"
 1706      76617469 
 1706      6F6E5F73 
 1706      74617465 
 1706      2D3E6469 
 1707              	.LC26:
 1708 0263 3500     		.ascii	"5\000"
 1709              	.LC27:
 1710 0265 6E6F6465 		.ascii	"node->inputs->size\000"
 1710      2D3E696E 
 1710      70757473 
 1710      2D3E7369 
 1710      7A6500
 1711              	.LC28:
 1712 0278 6B54664C 		.ascii	"kTfLiteInt8\000"
 1712      69746549 
 1712      6E743800 
 1713              	.LC29:
 1714 0284 77656967 		.ascii	"weights_feature->type\000"
 1714      6874735F 
 1714      66656174 
 1714      7572652D 
 1714      3E747970 
 1715              	.LC30:
 1716 029a 6B54664C 		.ascii	"kTfLiteInt16\000"
 1716      69746549 
 1716      6E743136 
 1716      00
 1717              	.LC31:
 1718 02a7 77656967 		.ascii	"weights_time->type\000"
 1718      6874735F 
 1718      74696D65 
 1718      2D3E7479 
 1718      706500
 1719              	.LC32:
 1720 02ba 6B54664C 		.ascii	"kTfLiteInt32\000"
 1720      69746549 
 1720      6E743332 
 1720      00
 1721              	.LC33:
 1722 02c7 62696173 		.ascii	"bias->type\000"
 1722      2D3E7479 
 1722      706500
 1723              	.LC34:
 1724 02d2 61637469 		.ascii	"activation_state->type\000"
 1724      76617469 
 1724      6F6E5F73 
 1724      74617465 
 1724      2D3E7479 
 1725              	.LC35:
 1726 02e9 6F757470 		.ascii	"output->type\000"
 1726      75742D3E 
 1726      74797065 
 1726      00
 1727              	.LC36:
 1728 02f6 3600     		.ascii	"6\000"
 1729              	.LC37:
 1730 02f8 6B54664C 		.ascii	"kTfLiteFloat32\000"
 1730      69746546 
 1730      6C6F6174 
 1730      333200
 1731              	.LC38:
 1732 0307 73637261 		.ascii	"scratch_tensor->type\000"
 1732      7463685F 
 1732      74656E73 
 1732      6F722D3E 
 1732      74797065 
 1733              	.LC39:
 1734 031c 4E756D44 		.ascii	"NumDimensions(scratch_tensor)\000"
 1734      696D656E 
 1734      73696F6E 
 1734      73287363 
 1734      72617463 
 1735              	.LC40:
 1736 033a 73637261 		.ascii	"scratch_tensor->dims->data[0]\000"
 1736      7463685F 
 1736      74656E73 
 1736      6F722D3E 
 1736      64696D73 
 1737              	.LC41:
 1738 0358 73637261 		.ascii	"scratch_tensor->dims->data[1]\000"
 1738      7463685F 
 1738      74656E73 
 1738      6F722D3E 
 1738      64696D73 
 1739              		.section	.rodata._ZZN8gemmlowp19RoundingDivideByPOTIlEET_S1_iE19__PRETTY_FUNCTION__,"a",%progbits
 1740              		.set	.LANCHOR0,. + 0
 1743              	_ZZN8gemmlowp19RoundingDivideByPOTIlEET_S1_iE19__PRETTY_FUNCTION__:
 1744 0000 496E7465 		.ascii	"IntegerType gemmlowp::RoundingDivideByPOT(IntegerTy"
 1744      67657254 
 1744      79706520 
 1744      67656D6D 
 1744      6C6F7770 
 1745 0033 70652C20 		.ascii	"pe, int) [with IntegerType = long int]\000"
 1745      696E7429 
 1745      205B7769 
 1745      74682049 
 1745      6E746567 
 1746              		.section	.rodata.str1.1,"aMS",%progbits,1
 1747              	.LC47:
 1748 0000 466C6174 		.ascii	"FlatBuffers 1.11.0\000"
 1748      42756666 
 1748      65727320 
 1748      312E3131 
 1748      2E3000
 1749              		.ident	"GCC: (GNU Tools for ARM Embedded Processors 6-2017-q2-update) 6.3.1 20170620 (release) [AR