   1              		.cpu cortex-a9
   2              		.eabi_attribute 28, 1
   3              		.eabi_attribute 20, 1
   4              		.eabi_attribute 21, 1
   5              		.eabi_attribute 23, 3
   6              		.eabi_attribute 24, 1
   7              		.eabi_attribute 25, 1
   8              		.eabi_attribute 26, 1
   9              		.eabi_attribute 30, 4
  10              		.eabi_attribute 34, 0
  11              		.eabi_attribute 18, 4
  12              		.file	"unpack.cpp"
  13              		.section	.text._ZN6tflite3ops5micro6unpack12_GLOBAL__N_17PrepareEP13TfLiteContextP10TfLiteNode,"ax
  14              		.align	2
  15              		.syntax unified
  16              		.arm
  17              		.fpu neon
  19              	_ZN6tflite3ops5micro6unpack12_GLOBAL__N_17PrepareEP13TfLiteContextP10TfLiteNode:
  20              		.fnstart
  21              	.LFB3816:
  22              		@ args = 0, pretend = 0, frame = 0
  23              		@ frame_needed = 0, uses_anonymous_args = 0
  24              		@ link register save eliminated.
  25 0000 0000A0E3 		mov	r0, #0
  26 0004 1EFF2FE1 		bx	lr
  27              		.cantunwind
  28              		.fnend
  30              		.section	.text._ZN6tflite3ops5micro6unpack12_GLOBAL__N_14EvalEP13TfLiteContextP10TfLiteNode,"ax",%
  31              		.align	2
  32              		.syntax unified
  33              		.arm
  34              		.fpu neon
  36              	_ZN6tflite3ops5micro6unpack12_GLOBAL__N_14EvalEP13TfLiteContextP10TfLiteNode:
  37              		.fnstart
  38              	.LFB3818:
  39              		@ args = 0, pretend = 0, frame = 8
  40              		@ frame_needed = 0, uses_anonymous_args = 0
  41 0000 F74F2DE9 		push	{r0, r1, r2, r4, r5, r6, r7, r8, r9, r10, fp, lr}
  42              		.save {r4, r5, r6, r7, r8, r9, r10, fp, lr}
  43              		.pad #12
  44 0004 0040A0E1 		mov	r4, r0
  45 0008 083090E5 		ldr	r3, [r0, #8]
  46 000c 000091E5 		ldr	r0, [r1]
  47 0010 142091E5 		ldr	r2, [r1, #20]
  48 0014 040090E5 		ldr	r0, [r0, #4]
  49 0018 005383E0 		add	r5, r3, r0, lsl #6
  50 001c 0003D3E7 		ldrb	r0, [r3, r0, lsl #6]	@ zero_extendqisi2
  51 0020 01C040E2 		sub	ip, r0, #1
  52 0024 08005CE3 		cmp	ip, #8
  53 0028 0CF19F97 		ldrls	pc, [pc, ip, asl #2]
  54 002c 350100EA 		b	.L3
  55              	.L5:
  56 0030 54000000 		.word	.L4
  57 0034 88010000 		.word	.L6
  58 0038 98020000 		.word	.L7
  59 003c 08050000 		.word	.L3
  60 0040 08050000 		.word	.L3
  61 0044 08050000 		.word	.L3
  62 0048 08050000 		.word	.L3
  63 004c 08050000 		.word	.L3
  64 0050 D0030000 		.word	.L8
  65              	.L4:
  66 0054 040091E5 		ldr	r0, [r1, #4]
  67 0058 086095E5 		ldr	r6, [r5, #8]
  68 005c 008092E5 		ldr	r8, [r2]
  69 0060 041090E5 		ldr	r1, [r0, #4]
  70 0064 042092E5 		ldr	r2, [r2, #4]
  71 0068 011383E0 		add	r1, r3, r1, lsl #6
  72 006c 000052E3 		cmp	r2, #0
  73 0070 08E091E5 		ldr	lr, [r1, #8]
  74 0074 001096E5 		ldr	r1, [r6]
  75 0078 012082B0 		addlt	r2, r2, r1
  76 007c 020051E1 		cmp	r1, r2
  77 0080 047086C2 		addgt	r7, r6, #4
  78 0084 0040A0C3 		movgt	r4, #0
  79 0088 01C0A0C3 		movgt	ip, #1
  80 008c 000000CA 		bgt	.L12
  81              	.L17:
  82 0090 FEFFFFEB 		bl	abort
  83              	.L12:
  84 0094 040052E1 		cmp	r2, r4
  85 0098 049097C4 		ldrgt	r9, [r7], #4
  86 009c 014084C2 		addgt	r4, r4, #1
  87 00a0 990C0CC0 		mulgt	ip, r9, ip
  88 00a4 FAFFFFCA 		bgt	.L12
  89              	.L11:
  90 00a8 014081E2 		add	r4, r1, #1
  91 00ac 012082E2 		add	r2, r2, #1
  92 00b0 0110A0E3 		mov	r1, #1
  93              	.L14:
  94 00b4 012082E2 		add	r2, r2, #1
  95 00b8 040052E1 		cmp	r2, r4
  96 00bc 02719617 		ldrne	r7, [r6, r2, lsl #2]
  97 00c0 97010110 		mulne	r1, r7, r1
  98 00c4 FAFFFF1A 		bne	.L14
  99              	.L13:
 100 00c8 0E20A0E1 		mov	r2, lr
 101 00cc 0040A0E3 		mov	r4, #0
 102 00d0 047092E4 		ldr	r7, [r2], #4
 103 00d4 01E0A0E3 		mov	lr, #1
 104              	.L16:
 105 00d8 040057E1 		cmp	r7, r4
 106 00dc 046092C4 		ldrgt	r6, [r2], #4
 107 00e0 014084C2 		addgt	r4, r4, #1
 108 00e4 960E0EC0 		mulgt	lr, r6, lr
 109 00e8 FAFFFFCA 		bgt	.L16
 110              	.L15:
 111 00ec 910C02E0 		mul	r2, r1, ip
 112 00f0 02005EE1 		cmp	lr, r2
 113 00f4 E5FFFF1A 		bne	.L17
 114 00f8 910802E0 		mul	r2, r1, r8
 115 00fc 04E095E5 		ldr	lr, [r5, #4]
 116 0100 01B1A0E1 		lsl	fp, r1, #2
 117 0104 040080E2 		add	r0, r0, #4
 118 0108 0040A0E3 		mov	r4, #0
 119 010c 0221A0E1 		lsl	r2, r2, #2
 120 0110 00208DE5 		str	r2, [sp]
 121              	.L25:
 122 0114 040058E1 		cmp	r8, r4
 123 0118 020000CA 		bgt	.L18
 124              	.L33:
 125 011c 0000A0E3 		mov	r0, #0
 126              	.L19:
 127 0120 0CD08DE2 		add	sp, sp, #12
 128              		@ sp needed
 129 0124 F08FBDE8 		pop	{r4, r5, r6, r7, r8, r9, r10, fp, pc}
 130              	.L18:
 131 0128 042090E4 		ldr	r2, [r0], #4
 132 012c 0E50A0E1 		mov	r5, lr
 133 0130 0060A0E3 		mov	r6, #0
 134 0134 022393E0 		adds	r2, r3, r2, lsl #6
 135 0138 04209215 		ldrne	r2, [r2, #4]
 136              	.L24:
 137 013c 06005CE1 		cmp	ip, r6
 138 0140 0D0000DA 		ble	.L21
 139 0144 0290A0E1 		mov	r9, r2
 140 0148 05A0A0E1 		mov	r10, r5
 141 014c 0070A0E3 		mov	r7, #0
 142              	.L23:
 143 0150 070051E1 		cmp	r1, r7
 144 0154 017AFACC 		vldmiagt.32	r10!, {s15}
 145 0158 017087C2 		addgt	r7, r7, #1
 146 015c 017ACDCD 		vstrgt.32	s15, [sp, #4]
 147 0160 017AE9CC 		vstmiagt.32	r9!, {s15}
 148 0164 F9FFFFCA 		bgt	.L23
 149              	.L22:
 150 0168 00709DE5 		ldr	r7, [sp]
 151 016c 016086E2 		add	r6, r6, #1
 152 0170 0B2082E0 		add	r2, r2, fp
 153 0174 075085E0 		add	r5, r5, r7
 154 0178 EFFFFFEA 		b	.L24
 155              	.L21:
 156 017c 014084E2 		add	r4, r4, #1
 157 0180 0BE08EE0 		add	lr, lr, fp
 158 0184 E2FFFFEA 		b	.L25
 159              	.L6:
 160 0188 046091E5 		ldr	r6, [r1, #4]
 161 018c 087095E5 		ldr	r7, [r5, #8]
 162 0190 00C092E5 		ldr	ip, [r2]
 163 0194 041096E5 		ldr	r1, [r6, #4]
 164 0198 042092E5 		ldr	r2, [r2, #4]
 165 019c 011383E0 		add	r1, r3, r1, lsl #6
 166 01a0 000052E3 		cmp	r2, #0
 167 01a4 080091E5 		ldr	r0, [r1, #8]
 168 01a8 001097E5 		ldr	r1, [r7]
 169 01ac 012082B0 		addlt	r2, r2, r1
 170 01b0 020051E1 		cmp	r1, r2
 171 01b4 B5FFFFDA 		ble	.L17
 172 01b8 048087E2 		add	r8, r7, #4
 173 01bc 0040A0E3 		mov	r4, #0
 174 01c0 01E0A0E3 		mov	lr, #1
 175              	.L28:
 176 01c4 040052E1 		cmp	r2, r4
 177 01c8 049098C4 		ldrgt	r9, [r8], #4
 178 01cc 014084C2 		addgt	r4, r4, #1
 179 01d0 990E0EC0 		mulgt	lr, r9, lr
 180 01d4 FAFFFFCA 		bgt	.L28
 181              	.L27:
 182 01d8 014081E2 		add	r4, r1, #1
 183 01dc 012082E2 		add	r2, r2, #1
 184 01e0 0110A0E3 		mov	r1, #1
 185              	.L30:
 186 01e4 012082E2 		add	r2, r2, #1
 187 01e8 020054E1 		cmp	r4, r2
 188 01ec 02819717 		ldrne	r8, [r7, r2, lsl #2]
 189 01f0 98010110 		mulne	r1, r8, r1
 190 01f4 FAFFFF1A 		bne	.L30
 191              	.L29:
 192 01f8 0020A0E1 		mov	r2, r0
 193 01fc 0040A0E3 		mov	r4, #0
 194 0200 048092E4 		ldr	r8, [r2], #4
 195 0204 0100A0E3 		mov	r0, #1
 196              	.L32:
 197 0208 040058E1 		cmp	r8, r4
 198 020c 047092C4 		ldrgt	r7, [r2], #4
 199 0210 014084C2 		addgt	r4, r4, #1
 200 0214 970000C0 		mulgt	r0, r7, r0
 201 0218 FAFFFFCA 		bgt	.L32
 202              	.L31:
 203 021c 910E02E0 		mul	r2, r1, lr
 204 0220 020050E1 		cmp	r0, r2
 205 0224 99FFFF1A 		bne	.L17
 206 0228 910C08E0 		mul	r8, r1, ip
 207 022c 045095E5 		ldr	r5, [r5, #4]
 208 0230 0171A0E1 		lsl	r7, r1, #2
 209 0234 040086E2 		add	r0, r6, #4
 210 0238 0060A0E3 		mov	r6, #0
 211 023c 0881A0E1 		lsl	r8, r8, #2
 212              	.L39:
 213 0240 06005CE1 		cmp	ip, r6
 214 0244 B4FFFFDA 		ble	.L33
 215 0248 042090E4 		ldr	r2, [r0], #4
 216 024c 0590A0E1 		mov	r9, r5
 217 0250 00A0A0E3 		mov	r10, #0
 218 0254 022393E0 		adds	r2, r3, r2, lsl #6
 219 0258 04209215 		ldrne	r2, [r2, #4]
 220              	.L38:
 221 025c 0A005EE1 		cmp	lr, r10
 222 0260 090000DA 		ble	.L35
 223 0264 0040A0E3 		mov	r4, #0
 224              	.L37:
 225 0268 040051E1 		cmp	r1, r4
 226 026c 04B199C7 		ldrgt	fp, [r9, r4, lsl #2]
 227 0270 04B182C7 		strgt	fp, [r2, r4, lsl #2]
 228 0274 014084C2 		addgt	r4, r4, #1
 229 0278 FAFFFFCA 		bgt	.L37
 230              	.L36:
 231 027c 01A08AE2 		add	r10, r10, #1
 232 0280 089089E0 		add	r9, r9, r8
 233 0284 072082E0 		add	r2, r2, r7
 234 0288 F3FFFFEA 		b	.L38
 235              	.L35:
 236 028c 016086E2 		add	r6, r6, #1
 237 0290 075085E0 		add	r5, r5, r7
 238 0294 E9FFFFEA 		b	.L39
 239              	.L7:
 240 0298 000092E5 		ldr	r0, [r2]
 241 029c 086095E5 		ldr	r6, [r5, #8]
 242 02a0 042092E5 		ldr	r2, [r2, #4]
 243 02a4 00008DE5 		str	r0, [sp]
 244 02a8 040091E5 		ldr	r0, [r1, #4]
 245 02ac 00C096E5 		ldr	ip, [r6]
 246 02b0 000052E3 		cmp	r2, #0
 247 02b4 040090E5 		ldr	r0, [r0, #4]
 248 02b8 0C2082B0 		addlt	r2, r2, ip
 249 02bc 02005CE1 		cmp	ip, r2
 250 02c0 003383E0 		add	r3, r3, r0, lsl #6
 251 02c4 080093E5 		ldr	r0, [r3, #8]
 252 02c8 70FFFFDA 		ble	.L17
 253 02cc 047086E2 		add	r7, r6, #4
 254 02d0 0030A0E3 		mov	r3, #0
 255 02d4 01E0A0E3 		mov	lr, #1
 256              	.L42:
 257 02d8 030052E1 		cmp	r2, r3
 258 02dc 048097C4 		ldrgt	r8, [r7], #4
 259 02e0 013083C2 		addgt	r3, r3, #1
 260 02e4 980E0EC0 		mulgt	lr, r8, lr
 261 02e8 FAFFFFCA 		bgt	.L42
 262              	.L41:
 263 02ec 013082E2 		add	r3, r2, #1
 264 02f0 01C08CE2 		add	ip, ip, #1
 265 02f4 0120A0E3 		mov	r2, #1
 266              	.L44:
 267 02f8 013083E2 		add	r3, r3, #1
 268 02fc 0C0053E1 		cmp	r3, ip
 269 0300 03719617 		ldrne	r7, [r6, r3, lsl #2]
 270 0304 97020210 		mulne	r2, r7, r2
 271 0308 FAFFFF1A 		bne	.L44
 272              	.L43:
 273 030c 0030A0E1 		mov	r3, r0
 274 0310 00C0A0E3 		mov	ip, #0
 275 0314 047093E4 		ldr	r7, [r3], #4
 276 0318 0100A0E3 		mov	r0, #1
 277              	.L46:
 278 031c 0C0057E1 		cmp	r7, ip
 279 0320 046093C4 		ldrgt	r6, [r3], #4
 280 0324 01C08CC2 		addgt	ip, ip, #1
 281 0328 960000C0 		mulgt	r0, r6, r0
 282 032c FAFFFFCA 		bgt	.L46
 283              	.L45:
 284 0330 920E03E0 		mul	r3, r2, lr
 285 0334 030050E1 		cmp	r0, r3
 286 0338 54FFFF1A 		bne	.L17
 287 033c 00309DE5 		ldr	r3, [sp]
 288 0340 00C0A0E3 		mov	ip, #0
 289 0344 040095E5 		ldr	r0, [r5, #4]
 290 0348 920303E0 		mul	r3, r2, r3
 291 034c 005060E2 		rsb	r5, r0, #0
 292 0350 04308DE5 		str	r3, [sp, #4]
 293              	.L52:
 294 0354 00309DE5 		ldr	r3, [sp]
 295 0358 0C0053E1 		cmp	r3, ip
 296 035c 6EFFFFDA 		ble	.L33
 297 0360 043091E5 		ldr	r3, [r1, #4]
 298 0364 0070A0E1 		mov	r7, r0
 299 0368 0080A0E3 		mov	r8, #0
 300 036c 0C3183E0 		add	r3, r3, ip, lsl #2
 301 0370 046093E5 		ldr	r6, [r3, #4]
 302 0374 083094E5 		ldr	r3, [r4, #8]
 303 0378 063393E0 		adds	r3, r3, r6, lsl #6
 304 037c 0560A0E1 		mov	r6, r5
 305 0380 04309315 		ldrne	r3, [r3, #4]
 306              	.L51:
 307 0384 08005EE1 		cmp	lr, r8
 308 0388 0C0000DA 		ble	.L48
 309 038c 03A0A0E1 		mov	r10, r3
 310 0390 0790A0E1 		mov	r9, r7
 311              	.L50:
 312 0394 06B089E0 		add	fp, r9, r6
 313 0398 0B0052E1 		cmp	r2, fp
 314 039c 01B0D9C4 		ldrbgt	fp, [r9], #1	@ zero_extendqisi2
 315 03a0 01B0CAC4 		strbgt	fp, [r10], #1
 316 03a4 FAFFFFCA 		bgt	.L50
 317              	.L49:
 318 03a8 04909DE5 		ldr	r9, [sp, #4]
 319 03ac 018088E2 		add	r8, r8, #1
 320 03b0 023083E0 		add	r3, r3, r2
 321 03b4 097087E0 		add	r7, r7, r9
 322 03b8 096046E0 		sub	r6, r6, r9
 323 03bc F0FFFFEA 		b	.L51
 324              	.L48:
 325 03c0 01C08CE2 		add	ip, ip, #1
 326 03c4 020080E0 		add	r0, r0, r2
 327 03c8 025045E0 		sub	r5, r5, r2
 328 03cc E0FFFFEA 		b	.L52
 329              	.L8:
 330 03d0 000092E5 		ldr	r0, [r2]
 331 03d4 086095E5 		ldr	r6, [r5, #8]
 332 03d8 042092E5 		ldr	r2, [r2, #4]
 333 03dc 00008DE5 		str	r0, [sp]
 334 03e0 040091E5 		ldr	r0, [r1, #4]
 335 03e4 00C096E5 		ldr	ip, [r6]
 336 03e8 000052E3 		cmp	r2, #0
 337 03ec 040090E5 		ldr	r0, [r0, #4]
 338 03f0 0C2082B0 		addlt	r2, r2, ip
 339 03f4 02005CE1 		cmp	ip, r2
 340 03f8 003383E0 		add	r3, r3, r0, lsl #6
 341 03fc 080093E5 		ldr	r0, [r3, #8]
 342 0400 22FFFFDA 		ble	.L17
 343 0404 047086E2 		add	r7, r6, #4
 344 0408 0030A0E3 		mov	r3, #0
 345 040c 01E0A0E3 		mov	lr, #1
 346              	.L55:
 347 0410 030052E1 		cmp	r2, r3
 348 0414 048097C4 		ldrgt	r8, [r7], #4
 349 0418 013083C2 		addgt	r3, r3, #1
 350 041c 980E0EC0 		mulgt	lr, r8, lr
 351 0420 FAFFFFCA 		bgt	.L55
 352              	.L54:
 353 0424 013082E2 		add	r3, r2, #1
 354 0428 01C08CE2 		add	ip, ip, #1
 355 042c 0120A0E3 		mov	r2, #1
 356              	.L57:
 357 0430 013083E2 		add	r3, r3, #1
 358 0434 0C0053E1 		cmp	r3, ip
 359 0438 03719617 		ldrne	r7, [r6, r3, lsl #2]
 360 043c 97020210 		mulne	r2, r7, r2
 361 0440 FAFFFF1A 		bne	.L57
 362              	.L56:
 363 0444 0030A0E1 		mov	r3, r0
 364 0448 00C0A0E3 		mov	ip, #0
 365 044c 047093E4 		ldr	r7, [r3], #4
 366 0450 0100A0E3 		mov	r0, #1
 367              	.L59:
 368 0454 0C0057E1 		cmp	r7, ip
 369 0458 046093C4 		ldrgt	r6, [r3], #4
 370 045c 01C08CC2 		addgt	ip, ip, #1
 371 0460 960000C0 		mulgt	r0, r6, r0
 372 0464 FAFFFFCA 		bgt	.L59
 373              	.L58:
 374 0468 920E03E0 		mul	r3, r2, lr
 375 046c 030050E1 		cmp	r0, r3
 376 0470 06FFFF1A 		bne	.L17
 377 0474 00309DE5 		ldr	r3, [sp]
 378 0478 00C0A0E3 		mov	ip, #0
 379 047c 040095E5 		ldr	r0, [r5, #4]
 380 0480 920303E0 		mul	r3, r2, r3
 381 0484 005060E2 		rsb	r5, r0, #0
 382 0488 04308DE5 		str	r3, [sp, #4]
 383              	.L65:
 384 048c 00309DE5 		ldr	r3, [sp]
 385 0490 0C0053E1 		cmp	r3, ip
 386 0494 20FFFFDA 		ble	.L33
 387 0498 043091E5 		ldr	r3, [r1, #4]
 388 049c 0070A0E1 		mov	r7, r0
 389 04a0 0080A0E3 		mov	r8, #0
 390 04a4 0C3183E0 		add	r3, r3, ip, lsl #2
 391 04a8 046093E5 		ldr	r6, [r3, #4]
 392 04ac 083094E5 		ldr	r3, [r4, #8]
 393 04b0 063393E0 		adds	r3, r3, r6, lsl #6
 394 04b4 0560A0E1 		mov	r6, r5
 395 04b8 04309315 		ldrne	r3, [r3, #4]
 396              	.L64:
 397 04bc 08005EE1 		cmp	lr, r8
 398 04c0 0C0000DA 		ble	.L61
 399 04c4 03A0A0E1 		mov	r10, r3
 400 04c8 0790A0E1 		mov	r9, r7
 401              	.L63:
 402 04cc 06B089E0 		add	fp, r9, r6
 403 04d0 0B0052E1 		cmp	r2, fp
 404 04d4 D1B0D9C0 		ldrsbgt	fp, [r9], #1
 405 04d8 01B0CAC4 		strbgt	fp, [r10], #1
 406 04dc FAFFFFCA 		bgt	.L63
 407              	.L62:
 408 04e0 04909DE5 		ldr	r9, [sp, #4]
 409 04e4 018088E2 		add	r8, r8, #1
 410 04e8 023083E0 		add	r3, r3, r2
 411 04ec 097087E0 		add	r7, r7, r9
 412 04f0 096046E0 		sub	r6, r6, r9
 413 04f4 F0FFFFEA 		b	.L64
 414              	.L61:
 415 04f8 01C08CE2 		add	ip, ip, #1
 416 04fc 020080E0 		add	r0, r0, r2
 417 0500 025045E0 		sub	r5, r5, r2
 418 0504 E0FFFFEA 		b	.L65
 419              	.L3:
 420 0508 145094E5 		ldr	r5, [r4, #20]
 421 050c FEFFFFEB 		bl	TfLiteTypeGetName
 422 0510 10109FE5 		ldr	r1, .L87
 423 0514 0020A0E1 		mov	r2, r0
 424 0518 0400A0E1 		mov	r0, r4
 425 051c 35FF2FE1 		blx	r5
 426 0520 0100A0E3 		mov	r0, #1
 427 0524 FDFEFFEA 		b	.L19
 428              	.L88:
 429              		.align	2
 430              	.L87:
 431 0528 00000000 		.word	.LC0
 432              		.fnend
 434              		.section	.text._ZN6tflite3ops5micro15Register_UNPACKEv,"ax",%progbits
 435              		.align	2
 436              		.global	_ZN6tflite3ops5micro15Register_UNPACKEv
 437              		.syntax unified
 438              		.arm
 439              		.fpu neon
 441              	_ZN6tflite3ops5micro15Register_UNPACKEv:
 442              		.fnstart
 443              	.LFB3819:
 444              		@ args = 0, pretend = 0, frame = 0
 445              		@ frame_needed = 0, uses_anonymous_args = 0
 446              		@ link register save eliminated.
 447 0000 10009FE5 		ldr	r0, .L90
 448 0004 10309FE5 		ldr	r3, .L90+4
 449 0008 083080E5 		str	r3, [r0, #8]
 450 000c 0C309FE5 		ldr	r3, .L90+8
 451 0010 0C3080E5 		str	r3, [r0, #12]
 452 0014 1EFF2FE1 		bx	lr
 453              	.L91:
 454              		.align	2
 455              	.L90:
 456 0018 00000000 		.word	.LANCHOR0
 457 001c 00000000 		.word	_ZN6tflite3ops5micro6unpack12_GLOBAL__N_17PrepareEP13TfLiteContextP10TfLiteNode
 458 0020 00000000 		.word	_ZN6tflite3ops5micro6unpack12_GLOBAL__N_14EvalEP13TfLiteContextP10TfLiteNode
 459              		.cantunwind
 460              		.fnend
 462              		.weak	_ZN11flatbuffers25flatbuffer_version_stringE
 463              		.section	.bss._ZZN6tflite3ops5micro15Register_UNPACKEvE1r,"aw",%nobits
 464              		.align	2
 465              		.set	.LANCHOR0,. + 0
 468              	_ZZN6tflite3ops5micro15Register_UNPACKEvE1r:
 469 0000 00000000 		.space	32
 469      00000000 
 469      00000000 
 469      00000000 
 469      00000000 
 470              		.section	.data._ZN11flatbuffers25flatbuffer_version_stringE,"aw",%progbits
 471              		.align	2
 474              	_ZN11flatbuffers25flatbuffer_version_stringE:
 475 0000 00000000 		.word	.LC1
 476              		.section	.rodata._ZN6tflite3ops5micro6unpack12_GLOBAL__N_14EvalEP13TfLiteContextP10TfLiteNode.str1
 477              	.LC0:
 478 0000 54797065 		.ascii	"Type '%s' is not supported by unpack.\000"
 478      20272573 
 478      27206973 
 478      206E6F74 
 478      20737570 
 479              		.section	.rodata.str1.1,"aMS",%progbits,1
 480              	.LC1:
 481 0000 466C6174 		.ascii	"FlatBuffers 1.11.0\000"
 481      42756666 
 481      65727320 
 481      312E3131 
 481      2E3000
 482              		.ident	"GCC: (GNU Tools for ARM Embedded Processors 6-2017-q2-update) 6.3.1 20170620 (release) [AR
DEFINED SYMBOLS
                            *ABS*:00000000 unpack.cpp
C:\Users\a5050395\AppData\Local\Temp\ccgxkl9u.s:14     .text._ZN6tflite3ops5micro6unpack12_GLOBAL__N_17PrepareEP13TfLiteContextP10TfLiteNode:00000000 $a
C:\Users\a5050395\AppData\Local\Temp\ccgxkl9u.s:19     .text._ZN6tflite3ops5micro6unpack12_GLOBAL__N_17PrepareEP13TfLiteContextP10TfLiteNode:00000000 _ZN6tflite3ops5micro6unpack12_GLOBAL__N_17PrepareEP13TfLiteContextP10TfLiteNode
.ARM.exidx.text._ZN6tflite3ops5micro6unpack12_GLOBAL__N_17PrepareEP13TfLiteContextP10TfLiteNode:00000000 $d
C:\Users\a5050395\AppData\Local\Temp\ccgxkl9u.s:31     .text._ZN6tflite3ops5micro6unpack12_GLOBAL__N_14EvalEP13TfLiteContextP10TfLiteNode:00000000 $a
C:\Users\a5050395\AppData\Local\Temp\ccgxkl9u.s:36     .text._ZN6tflite3ops5micro6unpack12_GLOBAL__N_14EvalEP13TfLiteContextP10TfLiteNode:00000000 _ZN6tflite3ops5micro6unpack12_GLOBAL__N_14EvalEP13TfLiteContextP10TfLiteNode
C:\Users\a5050395\AppData\Local\Temp\ccgxkl9u.s:56     .text._ZN6tflite3ops5micro6unpack12_GLOBAL__N_14EvalEP13TfLiteContextP10TfLiteNode:00000030 $d
C:\Users\a5050395\AppData\Local\Temp\ccgxkl9u.s:66     .text._ZN6tflite3ops5micro6unpack12_GLOBAL__N_14EvalEP13TfLiteContextP10TfLiteNode:00000054 $a
C:\Users\a5050395\AppData\Local\Temp\ccgxkl9u.s:431    .text._ZN6tflite3ops5micro6unpack12_GLOBAL__N_14EvalEP13TfLiteContextP10TfLiteNode:00000528 $d
.ARM.exidx.text._ZN6tflite3ops5micro6unpack12_GLOBAL__N_14EvalEP13TfLiteContextP10TfLiteNode:00000000 $d
C:\Users\a5050395\AppData\Local\Temp\ccgxkl9u.s:435    .text._ZN6tflite3ops5micro15Register_UNPACKEv:00000000 $a
C:\Users\a5050395\AppData\Local\Temp\ccgxkl9u.s:441    .text._ZN6tflite3ops5micro15Register_UNPACKEv:00000000 _ZN6tflite3ops5micro15Register_UNPACKEv
C:\Users\a5050395\AppData\Local\Temp\ccgxkl9u.s:456    .text._ZN6tflite3ops5micro15Register_UNPACKEv:00000018 $d
.ARM.exidx.text._ZN6tflite3ops5micro15Register_UNPACKEv:00000000 $d
C:\Users\a5050395\AppData\Local\Temp\ccgxkl9u.s:474    .data._ZN11flatbuffers25flatbuffer_version_stringE:00000000 _ZN11flatbuffers25flatbuffer_version_stringE
C:\Users\a5050395\AppData\Local\Temp\ccgxkl9u.s:464    .bss._ZZN6tflite3ops5micro15Register_UNPACKEvE1r:00000000 $d
C:\Users\a5050395\AppData\Local\Temp\ccgxkl9u.s:468    .bss._ZZN6tflite3ops5micro15Register_UNPACKEvE1r:00000000 _ZZN6tflite3ops5micro15Register_UNPACKEvE1r
C:\Users\a5050395\AppData\Local\Temp\ccgxkl9u.s:471    .data._ZN11flatbuffers25flatbuffer_version_stringE:00000000 $d

UNDEFINED SYMBOLS
abort
TfLiteTypeGetName
__aeabi_unwind_cpp_pr0
