   1              		.cpu cortex-a9
   2              		.eabi_attribute 28, 1
   3              		.eabi_attribute 20, 1
   4              		.eabi_attribute 21, 1
   5              		.eabi_attribute 23, 3
   6              		.eabi_attribute 24, 1
   7              		.eabi_attribute 25, 1
   8              		.eabi_attribute 26, 1
   9              		.eabi_attribute 30, 2
  10              		.eabi_attribute 34, 0
  11              		.eabi_attribute 18, 4
  12              		.file	"arm_concatenation_s8_z.c"
  13              		.text
  14              	.Ltext0:
  15              		.cfi_sections	.debug_frame
  16              		.section	.text.arm_concatenation_s8_z,"ax",%progbits
  17              		.align	2
  18              		.global	arm_concatenation_s8_z
  19              		.syntax unified
  20              		.arm
  21              		.fpu neon
  23              	arm_concatenation_s8_z:
  24              	.LFB87:
  25              		.file 1 "../src/tensorflow_lite/third_party/cmsis/CMSIS/NN/Source/ConcatenationFunctions/arm_conca
   1:../src/tensorflow_lite/third_party/cmsis/CMSIS/NN/Source/ConcatenationFunctions/arm_concatenation_s8_z.c **** /*
   2:../src/tensorflow_lite/third_party/cmsis/CMSIS/NN/Source/ConcatenationFunctions/arm_concatenation_s8_z.c ****  * Copyright (C) 2010-2019 Arm Limited or its affiliates. All rights reserved.
   3:../src/tensorflow_lite/third_party/cmsis/CMSIS/NN/Source/ConcatenationFunctions/arm_concatenation_s8_z.c ****  *
   4:../src/tensorflow_lite/third_party/cmsis/CMSIS/NN/Source/ConcatenationFunctions/arm_concatenation_s8_z.c ****  * SPDX-License-Identifier: Apache-2.0
   5:../src/tensorflow_lite/third_party/cmsis/CMSIS/NN/Source/ConcatenationFunctions/arm_concatenation_s8_z.c ****  *
   6:../src/tensorflow_lite/third_party/cmsis/CMSIS/NN/Source/ConcatenationFunctions/arm_concatenation_s8_z.c ****  * Licensed under the Apache License, Version 2.0 (the License); you may
   7:../src/tensorflow_lite/third_party/cmsis/CMSIS/NN/Source/ConcatenationFunctions/arm_concatenation_s8_z.c ****  * not use this file except in compliance with the License.
   8:../src/tensorflow_lite/third_party/cmsis/CMSIS/NN/Source/ConcatenationFunctions/arm_concatenation_s8_z.c ****  * You may obtain a copy of the License at
   9:../src/tensorflow_lite/third_party/cmsis/CMSIS/NN/Source/ConcatenationFunctions/arm_concatenation_s8_z.c ****  *
  10:../src/tensorflow_lite/third_party/cmsis/CMSIS/NN/Source/ConcatenationFunctions/arm_concatenation_s8_z.c ****  * www.apache.org/licenses/LICENSE-2.0
  11:../src/tensorflow_lite/third_party/cmsis/CMSIS/NN/Source/ConcatenationFunctions/arm_concatenation_s8_z.c ****  *
  12:../src/tensorflow_lite/third_party/cmsis/CMSIS/NN/Source/ConcatenationFunctions/arm_concatenation_s8_z.c ****  * Unless required by applicable law or agreed to in writing, software
  13:../src/tensorflow_lite/third_party/cmsis/CMSIS/NN/Source/ConcatenationFunctions/arm_concatenation_s8_z.c ****  * distributed under the License is distributed on an AS IS BASIS, WITHOUT
  14:../src/tensorflow_lite/third_party/cmsis/CMSIS/NN/Source/ConcatenationFunctions/arm_concatenation_s8_z.c ****  * WARRANTIES OR CONDITIONS OF ANY KIND, either express or implied.
  15:../src/tensorflow_lite/third_party/cmsis/CMSIS/NN/Source/ConcatenationFunctions/arm_concatenation_s8_z.c ****  * See the License for the specific language governing permissions and
  16:../src/tensorflow_lite/third_party/cmsis/CMSIS/NN/Source/ConcatenationFunctions/arm_concatenation_s8_z.c ****  * limitations under the License.
  17:../src/tensorflow_lite/third_party/cmsis/CMSIS/NN/Source/ConcatenationFunctions/arm_concatenation_s8_z.c ****  */
  18:../src/tensorflow_lite/third_party/cmsis/CMSIS/NN/Source/ConcatenationFunctions/arm_concatenation_s8_z.c **** 
  19:../src/tensorflow_lite/third_party/cmsis/CMSIS/NN/Source/ConcatenationFunctions/arm_concatenation_s8_z.c **** /* ----------------------------------------------------------------------
  20:../src/tensorflow_lite/third_party/cmsis/CMSIS/NN/Source/ConcatenationFunctions/arm_concatenation_s8_z.c ****  * Project:      CMSIS NN Library
  21:../src/tensorflow_lite/third_party/cmsis/CMSIS/NN/Source/ConcatenationFunctions/arm_concatenation_s8_z.c ****  * Title:        arm_concatenation_s8_z.c
  22:../src/tensorflow_lite/third_party/cmsis/CMSIS/NN/Source/ConcatenationFunctions/arm_concatenation_s8_z.c ****  * Description:  s8 version of concatenation along the Z axis
  23:../src/tensorflow_lite/third_party/cmsis/CMSIS/NN/Source/ConcatenationFunctions/arm_concatenation_s8_z.c ****  *
  24:../src/tensorflow_lite/third_party/cmsis/CMSIS/NN/Source/ConcatenationFunctions/arm_concatenation_s8_z.c ****  * $Date:        October 2019
  25:../src/tensorflow_lite/third_party/cmsis/CMSIS/NN/Source/ConcatenationFunctions/arm_concatenation_s8_z.c ****  * $Revision:    V.1.0.0
  26:../src/tensorflow_lite/third_party/cmsis/CMSIS/NN/Source/ConcatenationFunctions/arm_concatenation_s8_z.c ****  *
  27:../src/tensorflow_lite/third_party/cmsis/CMSIS/NN/Source/ConcatenationFunctions/arm_concatenation_s8_z.c ****  * Target Processor:  Cortex-M cores
  28:../src/tensorflow_lite/third_party/cmsis/CMSIS/NN/Source/ConcatenationFunctions/arm_concatenation_s8_z.c ****  *
  29:../src/tensorflow_lite/third_party/cmsis/CMSIS/NN/Source/ConcatenationFunctions/arm_concatenation_s8_z.c ****  * -------------------------------------------------------------------- */
  30:../src/tensorflow_lite/third_party/cmsis/CMSIS/NN/Source/ConcatenationFunctions/arm_concatenation_s8_z.c **** 
  31:../src/tensorflow_lite/third_party/cmsis/CMSIS/NN/Source/ConcatenationFunctions/arm_concatenation_s8_z.c **** #include "arm_nnfunctions.h"
  32:../src/tensorflow_lite/third_party/cmsis/CMSIS/NN/Source/ConcatenationFunctions/arm_concatenation_s8_z.c **** 
  33:../src/tensorflow_lite/third_party/cmsis/CMSIS/NN/Source/ConcatenationFunctions/arm_concatenation_s8_z.c **** /**
  34:../src/tensorflow_lite/third_party/cmsis/CMSIS/NN/Source/ConcatenationFunctions/arm_concatenation_s8_z.c ****  *  @ingroup groupNN
  35:../src/tensorflow_lite/third_party/cmsis/CMSIS/NN/Source/ConcatenationFunctions/arm_concatenation_s8_z.c ****  */
  36:../src/tensorflow_lite/third_party/cmsis/CMSIS/NN/Source/ConcatenationFunctions/arm_concatenation_s8_z.c **** 
  37:../src/tensorflow_lite/third_party/cmsis/CMSIS/NN/Source/ConcatenationFunctions/arm_concatenation_s8_z.c **** /**
  38:../src/tensorflow_lite/third_party/cmsis/CMSIS/NN/Source/ConcatenationFunctions/arm_concatenation_s8_z.c ****  * @addtogroup Concatenation
  39:../src/tensorflow_lite/third_party/cmsis/CMSIS/NN/Source/ConcatenationFunctions/arm_concatenation_s8_z.c ****  * @{
  40:../src/tensorflow_lite/third_party/cmsis/CMSIS/NN/Source/ConcatenationFunctions/arm_concatenation_s8_z.c ****  */
  41:../src/tensorflow_lite/third_party/cmsis/CMSIS/NN/Source/ConcatenationFunctions/arm_concatenation_s8_z.c **** 
  42:../src/tensorflow_lite/third_party/cmsis/CMSIS/NN/Source/ConcatenationFunctions/arm_concatenation_s8_z.c **** /*
  43:../src/tensorflow_lite/third_party/cmsis/CMSIS/NN/Source/ConcatenationFunctions/arm_concatenation_s8_z.c ****  *  s8 version of concatenation along the Z axis
  44:../src/tensorflow_lite/third_party/cmsis/CMSIS/NN/Source/ConcatenationFunctions/arm_concatenation_s8_z.c ****  *
  45:../src/tensorflow_lite/third_party/cmsis/CMSIS/NN/Source/ConcatenationFunctions/arm_concatenation_s8_z.c ****  * Refer to header file for details.
  46:../src/tensorflow_lite/third_party/cmsis/CMSIS/NN/Source/ConcatenationFunctions/arm_concatenation_s8_z.c ****  *
  47:../src/tensorflow_lite/third_party/cmsis/CMSIS/NN/Source/ConcatenationFunctions/arm_concatenation_s8_z.c ****  */
  48:../src/tensorflow_lite/third_party/cmsis/CMSIS/NN/Source/ConcatenationFunctions/arm_concatenation_s8_z.c **** void arm_concatenation_s8_z(const int8_t *input,
  49:../src/tensorflow_lite/third_party/cmsis/CMSIS/NN/Source/ConcatenationFunctions/arm_concatenation_s8_z.c ****                             const uint16_t input_x,
  50:../src/tensorflow_lite/third_party/cmsis/CMSIS/NN/Source/ConcatenationFunctions/arm_concatenation_s8_z.c ****                             const uint16_t input_y,
  51:../src/tensorflow_lite/third_party/cmsis/CMSIS/NN/Source/ConcatenationFunctions/arm_concatenation_s8_z.c ****                             const uint16_t input_z,
  52:../src/tensorflow_lite/third_party/cmsis/CMSIS/NN/Source/ConcatenationFunctions/arm_concatenation_s8_z.c ****                             const uint16_t input_w,
  53:../src/tensorflow_lite/third_party/cmsis/CMSIS/NN/Source/ConcatenationFunctions/arm_concatenation_s8_z.c ****                             int8_t *output,
  54:../src/tensorflow_lite/third_party/cmsis/CMSIS/NN/Source/ConcatenationFunctions/arm_concatenation_s8_z.c ****                             const uint16_t output_z,
  55:../src/tensorflow_lite/third_party/cmsis/CMSIS/NN/Source/ConcatenationFunctions/arm_concatenation_s8_z.c ****                             const uint32_t offset_z)
  56:../src/tensorflow_lite/third_party/cmsis/CMSIS/NN/Source/ConcatenationFunctions/arm_concatenation_s8_z.c **** {
  26              		.loc 1 56 0
  27              		.cfi_startproc
  28              		@ args = 16, pretend = 0, frame = 0
  29              		@ frame_needed = 0, uses_anonymous_args = 0
  30              	.LVL0:
  31 0000 F0472DE9 		push	{r4, r5, r6, r7, r8, r9, r10, lr}
  32              		.cfi_def_cfa_offset 32
  33              		.cfi_offset 4, -32
  34              		.cfi_offset 5, -28
  35              		.cfi_offset 6, -24
  36              		.cfi_offset 7, -20
  37              		.cfi_offset 8, -16
  38              		.cfi_offset 9, -12
  39              		.cfi_offset 10, -8
  40              		.cfi_offset 14, -4
  57:../src/tensorflow_lite/third_party/cmsis/CMSIS/NN/Source/ConcatenationFunctions/arm_concatenation_s8_z.c ****     const uint32_t input_copy_size = input_x * input_y * input_z;
  41              		.loc 1 57 0
  42 0004 920102E0 		mul	r2, r2, r1
  43              	.LVL1:
  56:../src/tensorflow_lite/third_party/cmsis/CMSIS/NN/Source/ConcatenationFunctions/arm_concatenation_s8_z.c ****     const uint32_t input_copy_size = input_x * input_y * input_z;
  44              		.loc 1 56 0
  45 0008 B092DDE1 		ldrh	r9, [sp, #32]
  46 000c 24109DE5 		ldr	r1, [sp, #36]
  47              	.LVL2:
  48 0010 2C409DE5 		ldr	r4, [sp, #44]
  58:../src/tensorflow_lite/third_party/cmsis/CMSIS/NN/Source/ConcatenationFunctions/arm_concatenation_s8_z.c ****     const uint32_t output_stride = input_x * input_y * output_z;
  59:../src/tensorflow_lite/third_party/cmsis/CMSIS/NN/Source/ConcatenationFunctions/arm_concatenation_s8_z.c **** 
  60:../src/tensorflow_lite/third_party/cmsis/CMSIS/NN/Source/ConcatenationFunctions/arm_concatenation_s8_z.c ****     output += offset_z * (input_x * input_y);
  61:../src/tensorflow_lite/third_party/cmsis/CMSIS/NN/Source/ConcatenationFunctions/arm_concatenation_s8_z.c **** 
  62:../src/tensorflow_lite/third_party/cmsis/CMSIS/NN/Source/ConcatenationFunctions/arm_concatenation_s8_z.c ****     uint32_t i;
  63:../src/tensorflow_lite/third_party/cmsis/CMSIS/NN/Source/ConcatenationFunctions/arm_concatenation_s8_z.c **** 
  64:../src/tensorflow_lite/third_party/cmsis/CMSIS/NN/Source/ConcatenationFunctions/arm_concatenation_s8_z.c ****     for (i = 0; i < input_w; ++i)
  49              		.loc 1 64 0
  50 0014 000059E3 		cmp	r9, #0
  56:../src/tensorflow_lite/third_party/cmsis/CMSIS/NN/Source/ConcatenationFunctions/arm_concatenation_s8_z.c ****     const uint32_t input_copy_size = input_x * input_y * input_z;
  51              		.loc 1 56 0
  52 0018 B882DDE1 		ldrh	r8, [sp, #40]
  57:../src/tensorflow_lite/third_party/cmsis/CMSIS/NN/Source/ConcatenationFunctions/arm_concatenation_s8_z.c ****     const uint32_t output_stride = input_x * input_y * output_z;
  53              		.loc 1 57 0
  54 001c 920307E0 		mul	r7, r2, r3
  55              	.LVL3:
  60:../src/tensorflow_lite/third_party/cmsis/CMSIS/NN/Source/ConcatenationFunctions/arm_concatenation_s8_z.c **** 
  56              		.loc 1 60 0
  57 0020 941224E0 		mla	r4, r4, r2, r1
  58:../src/tensorflow_lite/third_party/cmsis/CMSIS/NN/Source/ConcatenationFunctions/arm_concatenation_s8_z.c ****     const uint32_t output_stride = input_x * input_y * output_z;
  58              		.loc 1 58 0
  59 0024 920808E0 		mul	r8, r2, r8
  60              	.LVL4:
  61              		.loc 1 64 0
  62 0028 F087BD08 		popeq	{r4, r5, r6, r7, r8, r9, r10, pc}
  63 002c 0050A0E1 		mov	r5, r0
  64 0030 019089E2 		add	r9, r9, #1
  65 0034 0160A0E3 		mov	r6, #1
  66              	.LVL5:
  67              	.L3:
  65:../src/tensorflow_lite/third_party/cmsis/CMSIS/NN/Source/ConcatenationFunctions/arm_concatenation_s8_z.c ****     {
  66:../src/tensorflow_lite/third_party/cmsis/CMSIS/NN/Source/ConcatenationFunctions/arm_concatenation_s8_z.c ****         memcpy(output, input, input_copy_size);
  68              		.loc 1 66 0 discriminator 3
  69 0038 0510A0E1 		mov	r1, r5
  70 003c 0400A0E1 		mov	r0, r4
  71 0040 016086E2 		add	r6, r6, #1
  72              	.LVL6:
  73 0044 0720A0E1 		mov	r2, r7
  74 0048 FEFFFFEB 		bl	memcpy
  75              	.LVL7:
  64:../src/tensorflow_lite/third_party/cmsis/CMSIS/NN/Source/ConcatenationFunctions/arm_concatenation_s8_z.c ****     {
  76              		.loc 1 64 0 discriminator 3
  77 004c 090056E1 		cmp	r6, r9
  67:../src/tensorflow_lite/third_party/cmsis/CMSIS/NN/Source/ConcatenationFunctions/arm_concatenation_s8_z.c ****         input += input_copy_size;
  78              		.loc 1 67 0 discriminator 3
  79 0050 075085E0 		add	r5, r5, r7
  80              	.LVL8:
  68:../src/tensorflow_lite/third_party/cmsis/CMSIS/NN/Source/ConcatenationFunctions/arm_concatenation_s8_z.c ****         output += output_stride;
  81              		.loc 1 68 0 discriminator 3
  82 0054 084084E0 		add	r4, r4, r8
  83              	.LVL9:
  64:../src/tensorflow_lite/third_party/cmsis/CMSIS/NN/Source/ConcatenationFunctions/arm_concatenation_s8_z.c ****     {
  84              		.loc 1 64 0 discriminator 3
  85 0058 F6FFFF1A 		bne	.L3
  86 005c F087BDE8 		pop	{r4, r5, r6, r7, r8, r9, r10, pc}
  87              		.cfi_endproc
  88              	.LFE87:
  90              		.text
  91              	.Letext0:
  92              		.file 2 "c:\\program files (x86)\\gnu tools arm embedded\\6 2017-q2-update\\arm-none-eabi\\include
  93              		.file 3 "c:\\program files (x86)\\gnu tools arm embedded\\6 2017-q2-update\\arm-none-eabi\\include
  94              		.file 4 "c:\\program files (x86)\\gnu tools arm embedded\\6 2017-q2-update\\arm-none-eabi\\include
  95              		.file 5 "c:\\program files (x86)\\gnu tools arm embedded\\6 2017-q2-update\\arm-none-eabi\\include
  96              		.file 6 "c:\\program files (x86)\\gnu tools arm embedded\\6 2017-q2-update\\lib\\gcc\\arm-none-eab
  97              		.file 7 "c:\\program files (x86)\\gnu tools arm embedded\\6 2017-q2-update\\arm-none-eabi\\include
  98              		.file 8 "c:\\program files (x86)\\gnu tools arm embedded\\6 2017-q2-update\\arm-none-eabi\\include