   1              		.cpu cortex-a9
   2              		.eabi_attribute 28, 1
   3              		.eabi_attribute 20, 1
   4              		.eabi_attribute 21, 1
   5              		.eabi_attribute 23, 3
   6              		.eabi_attribute 24, 1
   7              		.eabi_attribute 25, 1
   8              		.eabi_attribute 26, 1
   9              		.eabi_attribute 30, 2
  10              		.eabi_attribute 34, 0
  11              		.eabi_attribute 18, 4
  12              		.file	"micro_error_reporter.cc"
  13              		.text
  14              	.Ltext0:
  15              		.cfi_sections	.debug_frame
  16              		.section	.text._ZN6tflite18MicroErrorReporterD2Ev,"axG",%progbits,_ZN6tflite18MicroErrorReporterD5
  17              		.align	2
  18              		.weak	_ZN6tflite18MicroErrorReporterD2Ev
  19              		.syntax unified
  20              		.arm
  21              		.fpu neon
  23              	_ZN6tflite18MicroErrorReporterD2Ev:
  24              		.fnstart
  25              	.LFB5:
  26              		.file 1 "C:/Renesas/e2studio_2021_01_workspace_RZA2M_ANPR/ANPR_RZA2M_GR_MANGO/src/tensorflow_lite/
   1:C:/Renesas/e2studio_2021_01_workspace_RZA2M_ANPR/ANPR_RZA2M_GR_MANGO/src/tensorflow_lite/tensorflow/lite/micro\micro_error_reporter.h **** /* Copyright 2018 The TensorFlow Authors. All Rights Reserved.
   2:C:/Renesas/e2studio_2021_01_workspace_RZA2M_ANPR/ANPR_RZA2M_GR_MANGO/src/tensorflow_lite/tensorflow/lite/micro\micro_error_reporter.h **** 
   3:C:/Renesas/e2studio_2021_01_workspace_RZA2M_ANPR/ANPR_RZA2M_GR_MANGO/src/tensorflow_lite/tensorflow/lite/micro\micro_error_reporter.h **** Licensed under the Apache License, Version 2.0 (the "License");
   4:C:/Renesas/e2studio_2021_01_workspace_RZA2M_ANPR/ANPR_RZA2M_GR_MANGO/src/tensorflow_lite/tensorflow/lite/micro\micro_error_reporter.h **** you may not use this file except in compliance with the License.
   5:C:/Renesas/e2studio_2021_01_workspace_RZA2M_ANPR/ANPR_RZA2M_GR_MANGO/src/tensorflow_lite/tensorflow/lite/micro\micro_error_reporter.h **** You may obtain a copy of the License at
   6:C:/Renesas/e2studio_2021_01_workspace_RZA2M_ANPR/ANPR_RZA2M_GR_MANGO/src/tensorflow_lite/tensorflow/lite/micro\micro_error_reporter.h **** 
   7:C:/Renesas/e2studio_2021_01_workspace_RZA2M_ANPR/ANPR_RZA2M_GR_MANGO/src/tensorflow_lite/tensorflow/lite/micro\micro_error_reporter.h ****     http://www.apache.org/licenses/LICENSE-2.0
   8:C:/Renesas/e2studio_2021_01_workspace_RZA2M_ANPR/ANPR_RZA2M_GR_MANGO/src/tensorflow_lite/tensorflow/lite/micro\micro_error_reporter.h **** 
   9:C:/Renesas/e2studio_2021_01_workspace_RZA2M_ANPR/ANPR_RZA2M_GR_MANGO/src/tensorflow_lite/tensorflow/lite/micro\micro_error_reporter.h **** Unless required by applicable law or agreed to in writing, software
  10:C:/Renesas/e2studio_2021_01_workspace_RZA2M_ANPR/ANPR_RZA2M_GR_MANGO/src/tensorflow_lite/tensorflow/lite/micro\micro_error_reporter.h **** distributed under the License is distributed on an "AS IS" BASIS,
  11:C:/Renesas/e2studio_2021_01_workspace_RZA2M_ANPR/ANPR_RZA2M_GR_MANGO/src/tensorflow_lite/tensorflow/lite/micro\micro_error_reporter.h **** WITHOUT WARRANTIES OR CONDITIONS OF ANY KIND, either express or implied.
  12:C:/Renesas/e2studio_2021_01_workspace_RZA2M_ANPR/ANPR_RZA2M_GR_MANGO/src/tensorflow_lite/tensorflow/lite/micro\micro_error_reporter.h **** See the License for the specific language governing permissions and
  13:C:/Renesas/e2studio_2021_01_workspace_RZA2M_ANPR/ANPR_RZA2M_GR_MANGO/src/tensorflow_lite/tensorflow/lite/micro\micro_error_reporter.h **** limitations under the License.
  14:C:/Renesas/e2studio_2021_01_workspace_RZA2M_ANPR/ANPR_RZA2M_GR_MANGO/src/tensorflow_lite/tensorflow/lite/micro\micro_error_reporter.h **** ==============================================================================*/
  15:C:/Renesas/e2studio_2021_01_workspace_RZA2M_ANPR/ANPR_RZA2M_GR_MANGO/src/tensorflow_lite/tensorflow/lite/micro\micro_error_reporter.h **** #ifndef TENSORFLOW_LITE_MICRO_MICRO_ERROR_REPORTER_H_
  16:C:/Renesas/e2studio_2021_01_workspace_RZA2M_ANPR/ANPR_RZA2M_GR_MANGO/src/tensorflow_lite/tensorflow/lite/micro\micro_error_reporter.h **** #define TENSORFLOW_LITE_MICRO_MICRO_ERROR_REPORTER_H_
  17:C:/Renesas/e2studio_2021_01_workspace_RZA2M_ANPR/ANPR_RZA2M_GR_MANGO/src/tensorflow_lite/tensorflow/lite/micro\micro_error_reporter.h **** 
  18:C:/Renesas/e2studio_2021_01_workspace_RZA2M_ANPR/ANPR_RZA2M_GR_MANGO/src/tensorflow_lite/tensorflow/lite/micro\micro_error_reporter.h **** #include <cstdarg>
  19:C:/Renesas/e2studio_2021_01_workspace_RZA2M_ANPR/ANPR_RZA2M_GR_MANGO/src/tensorflow_lite/tensorflow/lite/micro\micro_error_reporter.h **** 
  20:C:/Renesas/e2studio_2021_01_workspace_RZA2M_ANPR/ANPR_RZA2M_GR_MANGO/src/tensorflow_lite/tensorflow/lite/micro\micro_error_reporter.h **** #include "tensorflow/lite/core/api/error_reporter.h"
  21:C:/Renesas/e2studio_2021_01_workspace_RZA2M_ANPR/ANPR_RZA2M_GR_MANGO/src/tensorflow_lite/tensorflow/lite/micro\micro_error_reporter.h **** #include "tensorflow/lite/micro/compatibility.h"
  22:C:/Renesas/e2studio_2021_01_workspace_RZA2M_ANPR/ANPR_RZA2M_GR_MANGO/src/tensorflow_lite/tensorflow/lite/micro\micro_error_reporter.h **** 
  23:C:/Renesas/e2studio_2021_01_workspace_RZA2M_ANPR/ANPR_RZA2M_GR_MANGO/src/tensorflow_lite/tensorflow/lite/micro\micro_error_reporter.h **** #if !defined(TF_LITE_STRIP_ERROR_STRINGS)
  24:C:/Renesas/e2studio_2021_01_workspace_RZA2M_ANPR/ANPR_RZA2M_GR_MANGO/src/tensorflow_lite/tensorflow/lite/micro\micro_error_reporter.h **** // This function can be used independent of the MicroErrorReporter to get
  25:C:/Renesas/e2studio_2021_01_workspace_RZA2M_ANPR/ANPR_RZA2M_GR_MANGO/src/tensorflow_lite/tensorflow/lite/micro\micro_error_reporter.h **** // printf-like functionalitys and are common to all target platforms.
  26:C:/Renesas/e2studio_2021_01_workspace_RZA2M_ANPR/ANPR_RZA2M_GR_MANGO/src/tensorflow_lite/tensorflow/lite/micro\micro_error_reporter.h **** void MicroPrintf(const char* format, ...);
  27:C:/Renesas/e2studio_2021_01_workspace_RZA2M_ANPR/ANPR_RZA2M_GR_MANGO/src/tensorflow_lite/tensorflow/lite/micro\micro_error_reporter.h **** #else
  28:C:/Renesas/e2studio_2021_01_workspace_RZA2M_ANPR/ANPR_RZA2M_GR_MANGO/src/tensorflow_lite/tensorflow/lite/micro\micro_error_reporter.h **** // We use a #define to ensure that the strings are completely stripped, to
  29:C:/Renesas/e2studio_2021_01_workspace_RZA2M_ANPR/ANPR_RZA2M_GR_MANGO/src/tensorflow_lite/tensorflow/lite/micro\micro_error_reporter.h **** // prevent an unnecessary increase in the binary size.
  30:C:/Renesas/e2studio_2021_01_workspace_RZA2M_ANPR/ANPR_RZA2M_GR_MANGO/src/tensorflow_lite/tensorflow/lite/micro\micro_error_reporter.h **** #define MicroPrintf(format, ...)
  31:C:/Renesas/e2studio_2021_01_workspace_RZA2M_ANPR/ANPR_RZA2M_GR_MANGO/src/tensorflow_lite/tensorflow/lite/micro\micro_error_reporter.h **** #endif
  32:C:/Renesas/e2studio_2021_01_workspace_RZA2M_ANPR/ANPR_RZA2M_GR_MANGO/src/tensorflow_lite/tensorflow/lite/micro\micro_error_reporter.h **** 
  33:C:/Renesas/e2studio_2021_01_workspace_RZA2M_ANPR/ANPR_RZA2M_GR_MANGO/src/tensorflow_lite/tensorflow/lite/micro\micro_error_reporter.h **** namespace tflite {
  34:C:/Renesas/e2studio_2021_01_workspace_RZA2M_ANPR/ANPR_RZA2M_GR_MANGO/src/tensorflow_lite/tensorflow/lite/micro\micro_error_reporter.h **** 
  35:C:/Renesas/e2studio_2021_01_workspace_RZA2M_ANPR/ANPR_RZA2M_GR_MANGO/src/tensorflow_lite/tensorflow/lite/micro\micro_error_reporter.h **** // Get a pointer to a singleton global error reporter.
  36:C:/Renesas/e2studio_2021_01_workspace_RZA2M_ANPR/ANPR_RZA2M_GR_MANGO/src/tensorflow_lite/tensorflow/lite/micro\micro_error_reporter.h **** ErrorReporter* GetMicroErrorReporter();
  37:C:/Renesas/e2studio_2021_01_workspace_RZA2M_ANPR/ANPR_RZA2M_GR_MANGO/src/tensorflow_lite/tensorflow/lite/micro\micro_error_reporter.h **** 
  38:C:/Renesas/e2studio_2021_01_workspace_RZA2M_ANPR/ANPR_RZA2M_GR_MANGO/src/tensorflow_lite/tensorflow/lite/micro\micro_error_reporter.h **** class MicroErrorReporter : public ErrorReporter {
  39:C:/Renesas/e2studio_2021_01_workspace_RZA2M_ANPR/ANPR_RZA2M_GR_MANGO/src/tensorflow_lite/tensorflow/lite/micro\micro_error_reporter.h ****  public:
  40:C:/Renesas/e2studio_2021_01_workspace_RZA2M_ANPR/ANPR_RZA2M_GR_MANGO/src/tensorflow_lite/tensorflow/lite/micro\micro_error_reporter.h ****   ~MicroErrorReporter() override {}
  27              		.loc 1 40 0
  28              		.cfi_startproc
  29              		@ args = 0, pretend = 0, frame = 0
  30              		@ frame_needed = 0, uses_anonymous_args = 0
  31              		@ link register save eliminated.
  32              	.LVL0:
  33              		.loc 1 40 0
  34 0000 1EFF2FE1 		bx	lr
  35              		.cfi_endproc
  36              	.LFE5:
  37              		.cantunwind
  38              		.fnend
  40              		.weak	_ZN6tflite18MicroErrorReporterD1Ev
  41              		.set	_ZN6tflite18MicroErrorReporterD1Ev,_ZN6tflite18MicroErrorReporterD2Ev
  42              		.section	.text._ZN12_GLOBAL__N_13LogEPKcSt9__va_list,"ax",%progbits
  43              		.align	2
  44              		.syntax unified
  45              		.arm
  46              		.fpu neon
  48              	_ZN12_GLOBAL__N_13LogEPKcSt9__va_list:
  49              		.fnstart
  50              	.LFB59:
  51              		.file 2 "../src/tensorflow_lite/tensorflow/lite/micro/micro_error_reporter.cc"
   1:../src/tensorflow_lite/tensorflow/lite/micro/micro_error_reporter.cc **** /* Copyright 2018 The TensorFlow Authors. All Rights Reserved.
   2:../src/tensorflow_lite/tensorflow/lite/micro/micro_error_reporter.cc **** 
   3:../src/tensorflow_lite/tensorflow/lite/micro/micro_error_reporter.cc **** Licensed under the Apache License, Version 2.0 (the "License");
   4:../src/tensorflow_lite/tensorflow/lite/micro/micro_error_reporter.cc **** you may not use this file except in compliance with the License.
   5:../src/tensorflow_lite/tensorflow/lite/micro/micro_error_reporter.cc **** You may obtain a copy of the License at
   6:../src/tensorflow_lite/tensorflow/lite/micro/micro_error_reporter.cc **** 
   7:../src/tensorflow_lite/tensorflow/lite/micro/micro_error_reporter.cc ****     http://www.apache.org/licenses/LICENSE-2.0
   8:../src/tensorflow_lite/tensorflow/lite/micro/micro_error_reporter.cc **** 
   9:../src/tensorflow_lite/tensorflow/lite/micro/micro_error_reporter.cc **** Unless required by applicable law or agreed to in writing, software
  10:../src/tensorflow_lite/tensorflow/lite/micro/micro_error_reporter.cc **** distributed under the License is distributed on an "AS IS" BASIS,
  11:../src/tensorflow_lite/tensorflow/lite/micro/micro_error_reporter.cc **** WITHOUT WARRANTIES OR CONDITIONS OF ANY KIND, either express or implied.
  12:../src/tensorflow_lite/tensorflow/lite/micro/micro_error_reporter.cc **** See the License for the specific language governing permissions and
  13:../src/tensorflow_lite/tensorflow/lite/micro/micro_error_reporter.cc **** limitations under the License.
  14:../src/tensorflow_lite/tensorflow/lite/micro/micro_error_reporter.cc **** ==============================================================================*/
  15:../src/tensorflow_lite/tensorflow/lite/micro/micro_error_reporter.cc **** 
  16:../src/tensorflow_lite/tensorflow/lite/micro/micro_error_reporter.cc **** #include "tensorflow/lite/micro/micro_error_reporter.h"
  17:../src/tensorflow_lite/tensorflow/lite/micro/micro_error_reporter.cc **** 
  18:../src/tensorflow_lite/tensorflow/lite/micro/micro_error_reporter.cc **** #include <cstdarg>
  19:../src/tensorflow_lite/tensorflow/lite/micro/micro_error_reporter.cc **** #include <cstdint>
  20:../src/tensorflow_lite/tensorflow/lite/micro/micro_error_reporter.cc **** #include <new>
  21:../src/tensorflow_lite/tensorflow/lite/micro/micro_error_reporter.cc **** 
  22:../src/tensorflow_lite/tensorflow/lite/micro/micro_error_reporter.cc **** #if !defined(TF_LITE_STRIP_ERROR_STRINGS)
  23:../src/tensorflow_lite/tensorflow/lite/micro/micro_error_reporter.cc **** #include "tensorflow/lite/micro/debug_log.h"
  24:../src/tensorflow_lite/tensorflow/lite/micro/micro_error_reporter.cc **** #include "tensorflow/lite/micro/micro_string.h"
  25:../src/tensorflow_lite/tensorflow/lite/micro/micro_error_reporter.cc **** #endif
  26:../src/tensorflow_lite/tensorflow/lite/micro/micro_error_reporter.cc **** 
  27:../src/tensorflow_lite/tensorflow/lite/micro/micro_error_reporter.cc **** namespace {
  28:../src/tensorflow_lite/tensorflow/lite/micro/micro_error_reporter.cc **** uint8_t micro_error_reporter_buffer[sizeof(tflite::MicroErrorReporter)];
  29:../src/tensorflow_lite/tensorflow/lite/micro/micro_error_reporter.cc **** tflite::MicroErrorReporter* error_reporter_ = nullptr;
  30:../src/tensorflow_lite/tensorflow/lite/micro/micro_error_reporter.cc **** 
  31:../src/tensorflow_lite/tensorflow/lite/micro/micro_error_reporter.cc **** void Log(const char* format, va_list args) {
  52              		.loc 2 31 0
  53              		.cfi_startproc
  54              		@ args = 0, pretend = 0, frame = 256
  55              		@ frame_needed = 0, uses_anonymous_args = 0
  56              	.LVL1:
  57 0000 04E02DE5 		str	lr, [sp, #-4]!
  58              		.save {lr}
  59              		.cfi_def_cfa_offset 4
  60              		.cfi_offset 14, -4
  61              		.pad #260
  62 0004 41DF4DE2 		sub	sp, sp, #260
  63              		.cfi_def_cfa_offset 264
  32:../src/tensorflow_lite/tensorflow/lite/micro/micro_error_reporter.cc **** #if !defined(TF_LITE_STRIP_ERROR_STRINGS)
  33:../src/tensorflow_lite/tensorflow/lite/micro/micro_error_reporter.cc ****   // Only pulling in the implementation of this function for builds where we
  34:../src/tensorflow_lite/tensorflow/lite/micro/micro_error_reporter.cc ****   // expect to make use of it to be extra cautious about not increasing the code
  35:../src/tensorflow_lite/tensorflow/lite/micro/micro_error_reporter.cc ****   // size.
  36:../src/tensorflow_lite/tensorflow/lite/micro/micro_error_reporter.cc ****   static constexpr int kMaxLogLen = 256;
  37:../src/tensorflow_lite/tensorflow/lite/micro/micro_error_reporter.cc ****   char log_buffer[kMaxLogLen];
  38:../src/tensorflow_lite/tensorflow/lite/micro/micro_error_reporter.cc ****   MicroVsnprintf(log_buffer, kMaxLogLen, format, args);
  64              		.loc 2 38 0
  65 0008 0130A0E1 		mov	r3, r1
  66 000c 0020A0E1 		mov	r2, r0
  67 0010 011CA0E3 		mov	r1, #256
  68              	.LVL2:
  69 0014 0D00A0E1 		mov	r0, sp
  70              	.LVL3:
  71 0018 FEFFFFEB 		bl	MicroVsnprintf
  72              	.LVL4:
  39:../src/tensorflow_lite/tensorflow/lite/micro/micro_error_reporter.cc ****   DebugLog(log_buffer);
  73              		.loc 2 39 0
  74 001c 0D00A0E1 		mov	r0, sp
  75 0020 FEFFFFEB 		bl	DebugLog
  76              	.LVL5:
  40:../src/tensorflow_lite/tensorflow/lite/micro/micro_error_reporter.cc ****   DebugLog("\r\n");
  77              		.loc 2 40 0
  78 0024 000000E3 		movw	r0, #:lower16:.LC0
  79 0028 000040E3 		movt	r0, #:upper16:.LC0
  80 002c FEFFFFEB 		bl	DebugLog
  81              	.LVL6:
  41:../src/tensorflow_lite/tensorflow/lite/micro/micro_error_reporter.cc **** #endif
  42:../src/tensorflow_lite/tensorflow/lite/micro/micro_error_reporter.cc **** }
  82              		.loc 2 42 0
  83 0030 41DF8DE2 		add	sp, sp, #260
  84              		.cfi_def_cfa_offset 4
  85              		@ sp needed
  86 0034 04F09DE4 		ldr	pc, [sp], #4
  87              		.cfi_endproc
  88              	.LFE59:
  89              		.fnend
  91              		.section	.text._ZN6tflite18MicroErrorReporterD0Ev,"axG",%progbits,_ZN6tflite18MicroErrorReporterD5
  92              		.align	2
  93              		.weak	_ZN6tflite18MicroErrorReporterD0Ev
  94              		.syntax unified
  95              		.arm
  96              		.fpu neon
  98              	_ZN6tflite18MicroErrorReporterD0Ev:
  99              		.fnstart
 100              	.LFB7:
 101              		.loc 1 40 0
 102              		.cfi_startproc
 103              		@ args = 0, pretend = 0, frame = 0
 104              		@ frame_needed = 0, uses_anonymous_args = 0
 105              	.LVL7:
 106 0000 10402DE9 		push	{r4, lr}
 107              		.cfi_def_cfa_offset 8
 108              		.cfi_offset 4, -8
 109              		.cfi_offset 14, -4
 110              		.loc 1 40 0
 111 0004 0040A0E1 		mov	r4, r0
 112 0008 FEFFFFEB 		bl	_ZdlPv
 113              	.LVL8:
 114 000c 0400A0E1 		mov	r0, r4
 115 0010 1080BDE8 		pop	{r4, pc}
 116              		.cfi_endproc
 117              	.LFE7:
 118              		.cantunwind
 119              		.fnend
 121              		.section	.text._ZN6tflite18MicroErrorReporter6ReportEPKcSt9__va_list,"ax",%progbits
 122              		.align	2
 123              		.global	_ZN6tflite18MicroErrorReporter6ReportEPKcSt9__va_list
 124              		.syntax unified
 125              		.arm
 126              		.fpu neon
 128              	_ZN6tflite18MicroErrorReporter6ReportEPKcSt9__va_list:
 129              		.fnstart
 130              	.LFB68:
  43:../src/tensorflow_lite/tensorflow/lite/micro/micro_error_reporter.cc **** 
  44:../src/tensorflow_lite/tensorflow/lite/micro/micro_error_reporter.cc **** }  // namespace
  45:../src/tensorflow_lite/tensorflow/lite/micro/micro_error_reporter.cc **** 
  46:../src/tensorflow_lite/tensorflow/lite/micro/micro_error_reporter.cc **** #if !defined(TF_LITE_STRIP_ERROR_STRINGS)
  47:../src/tensorflow_lite/tensorflow/lite/micro/micro_error_reporter.cc **** void MicroPrintf(const char* format, ...) {
  48:../src/tensorflow_lite/tensorflow/lite/micro/micro_error_reporter.cc ****   va_list args;
  49:../src/tensorflow_lite/tensorflow/lite/micro/micro_error_reporter.cc ****   va_start(args, format);
  50:../src/tensorflow_lite/tensorflow/lite/micro/micro_error_reporter.cc ****   Log(format, args);
  51:../src/tensorflow_lite/tensorflow/lite/micro/micro_error_reporter.cc ****   va_end(args);
  52:../src/tensorflow_lite/tensorflow/lite/micro/micro_error_reporter.cc **** }
  53:../src/tensorflow_lite/tensorflow/lite/micro/micro_error_reporter.cc **** #endif
  54:../src/tensorflow_lite/tensorflow/lite/micro/micro_error_reporter.cc **** 
  55:../src/tensorflow_lite/tensorflow/lite/micro/micro_error_reporter.cc **** namespace tflite {
  56:../src/tensorflow_lite/tensorflow/lite/micro/micro_error_reporter.cc **** ErrorReporter* GetMicroErrorReporter() {
  57:../src/tensorflow_lite/tensorflow/lite/micro/micro_error_reporter.cc ****   if (error_reporter_ == nullptr) {
  58:../src/tensorflow_lite/tensorflow/lite/micro/micro_error_reporter.cc ****     error_reporter_ = new (micro_error_reporter_buffer) MicroErrorReporter();
  59:../src/tensorflow_lite/tensorflow/lite/micro/micro_error_reporter.cc ****   }
  60:../src/tensorflow_lite/tensorflow/lite/micro/micro_error_reporter.cc ****   return error_reporter_;
  61:../src/tensorflow_lite/tensorflow/lite/micro/micro_error_reporter.cc **** }
  62:../src/tensorflow_lite/tensorflow/lite/micro/micro_error_reporter.cc **** 
  63:../src/tensorflow_lite/tensorflow/lite/micro/micro_error_reporter.cc **** int MicroErrorReporter::Report(const char* format, va_list args) {
 131              		.loc 2 63 0
 132              		.cfi_startproc
 133              		@ args = 0, pretend = 0, frame = 256
 134              		@ frame_needed = 0, uses_anonymous_args = 0
 135              	.LVL9:
 136 0000 04E02DE5 		str	lr, [sp, #-4]!
 137              		.save {lr}
 138              		.cfi_def_cfa_offset 4
 139              		.cfi_offset 14, -4
 140              		.pad #260
 141 0004 41DF4DE2 		sub	sp, sp, #260
 142              		.cfi_def_cfa_offset 264
 143              	.LBB25:
 144              	.LBB26:
  38:../src/tensorflow_lite/tensorflow/lite/micro/micro_error_reporter.cc ****   DebugLog(log_buffer);
 145              		.loc 2 38 0
 146 0008 0230A0E1 		mov	r3, r2
 147 000c 0D00A0E1 		mov	r0, sp
 148              	.LVL10:
 149 0010 0120A0E1 		mov	r2, r1
 150              	.LVL11:
 151 0014 011CA0E3 		mov	r1, #256
 152              	.LVL12:
 153 0018 FEFFFFEB 		bl	MicroVsnprintf
 154              	.LVL13:
  39:../src/tensorflow_lite/tensorflow/lite/micro/micro_error_reporter.cc ****   DebugLog("\r\n");
 155              		.loc 2 39 0
 156 001c 0D00A0E1 		mov	r0, sp
 157 0020 FEFFFFEB 		bl	DebugLog
 158              	.LVL14:
  40:../src/tensorflow_lite/tensorflow/lite/micro/micro_error_reporter.cc **** #endif
 159              		.loc 2 40 0
 160 0024 000000E3 		movw	r0, #:lower16:.LC0
 161 0028 000040E3 		movt	r0, #:upper16:.LC0
 162 002c FEFFFFEB 		bl	DebugLog
 163              	.LVL15:
 164              	.LBE26:
 165              	.LBE25:
  64:../src/tensorflow_lite/tensorflow/lite/micro/micro_error_reporter.cc ****   Log(format, args);
  65:../src/tensorflow_lite/tensorflow/lite/micro/micro_error_reporter.cc ****   return 0;
  66:../src/tensorflow_lite/tensorflow/lite/micro/micro_error_reporter.cc **** }
 166              		.loc 2 66 0
 167 0030 0000A0E3 		mov	r0, #0
 168 0034 41DF8DE2 		add	sp, sp, #260
 169              		.cfi_def_cfa_offset 4
 170              		@ sp needed
 171 0038 04F09DE4 		ldr	pc, [sp], #4
 172              		.cfi_endproc
 173              	.LFE68:
 174              		.fnend
 176              		.section	.text._Z11MicroPrintfPKcz,"ax",%progbits
 177              		.align	2
 178              		.global	_Z11MicroPrintfPKcz
 179              		.syntax unified
 180              		.arm
 181              		.fpu neon
 183              	_Z11MicroPrintfPKcz:
 184              		.fnstart
 185              	.LFB60:
  47:../src/tensorflow_lite/tensorflow/lite/micro/micro_error_reporter.cc ****   va_list args;
 186              		.loc 2 47 0
 187              		.cfi_startproc
 188              		@ args = 4, pretend = 16, frame = 8
 189              		@ frame_needed = 0, uses_anonymous_args = 1
 190              	.LVL16:
 191 0000 0F002DE9 		push	{r0, r1, r2, r3}
 192              		.save {r0, r1, r2, r3}
 193              		.cfi_def_cfa_offset 16
 194              		.cfi_offset 0, -16
 195              		.cfi_offset 1, -12
 196              		.cfi_offset 2, -8
 197              		.cfi_offset 3, -4
 198 0004 04E02DE5 		str	lr, [sp, #-4]!
 199              		.save {lr}
 200              		.cfi_def_cfa_offset 20
 201              		.cfi_offset 14, -20
 202              		.pad #12
 203 0008 0CD04DE2 		sub	sp, sp, #12
 204              		.cfi_def_cfa_offset 32
  49:../src/tensorflow_lite/tensorflow/lite/micro/micro_error_reporter.cc ****   Log(format, args);
 205              		.loc 2 49 0
 206 000c 14308DE2 		add	r3, sp, #20
  50:../src/tensorflow_lite/tensorflow/lite/micro/micro_error_reporter.cc ****   va_end(args);
 207              		.loc 2 50 0
 208 0010 0310A0E1 		mov	r1, r3
 209 0014 10009DE5 		ldr	r0, [sp, #16]
  49:../src/tensorflow_lite/tensorflow/lite/micro/micro_error_reporter.cc ****   Log(format, args);
 210              		.loc 2 49 0
 211 0018 04308DE5 		str	r3, [sp, #4]
  50:../src/tensorflow_lite/tensorflow/lite/micro/micro_error_reporter.cc ****   va_end(args);
 212              		.loc 2 50 0
 213 001c FEFFFFEB 		bl	_ZN12_GLOBAL__N_13LogEPKcSt9__va_list
 214              	.LVL17:
  52:../src/tensorflow_lite/tensorflow/lite/micro/micro_error_reporter.cc **** #endif
 215              		.loc 2 52 0
 216 0020 0CD08DE2 		add	sp, sp, #12
 217              		.cfi_def_cfa_offset 20
 218              		@ sp needed
 219 0024 04E09DE4 		ldr	lr, [sp], #4
 220              		.cfi_restore 14
 221              		.cfi_def_cfa_offset 16
 222 0028 10D08DE2 		add	sp, sp, #16
 223              		.cfi_restore 3
 224              		.cfi_restore 2
 225              		.cfi_restore 1
 226              		.cfi_restore 0
 227              		.cfi_def_cfa_offset 0
 228 002c 1EFF2FE1 		bx	lr
 229              		.cfi_endproc
 230              	.LFE60:
 231              		.fnend
 233              		.section	.text._ZN6tflite21GetMicroErrorReporterEv,"ax",%progbits
 234              		.align	2
 235              		.global	_ZN6tflite21GetMicroErrorReporterEv
 236              		.syntax unified
 237              		.arm
 238              		.fpu neon
 240              	_ZN6tflite21GetMicroErrorReporterEv:
 241              		.fnstart
 242              	.LFB61:
  56:../src/tensorflow_lite/tensorflow/lite/micro/micro_error_reporter.cc ****   if (error_reporter_ == nullptr) {
 243              		.loc 2 56 0
 244              		.cfi_startproc
 245              		@ args = 0, pretend = 0, frame = 0
 246              		@ frame_needed = 0, uses_anonymous_args = 0
 247              		@ link register save eliminated.
  57:../src/tensorflow_lite/tensorflow/lite/micro/micro_error_reporter.cc ****     error_reporter_ = new (micro_error_reporter_buffer) MicroErrorReporter();
 248              		.loc 2 57 0
 249 0000 003000E3 		movw	r3, #:lower16:.LANCHOR1
 250 0004 003040E3 		movt	r3, #:upper16:.LANCHOR1
 251 0008 000093E5 		ldr	r0, [r3]
 252 000c 000050E3 		cmp	r0, #0
 253 0010 1EFF2F11 		bxne	lr
 254              	.LVL18:
 255              	.LBB27:
 256              	.LBB28:
  38:C:/Renesas/e2studio_2021_01_workspace_RZA2M_ANPR/ANPR_RZA2M_GR_MANGO/src/tensorflow_lite/tensorflow/lite/micro\micro_error_reporter.h ****  public:
 257              		.loc 1 38 0 discriminator 1
 258 0014 14109FE5 		ldr	r1, .L13
 259 0018 002000E3 		movw	r2, #:lower16:.LANCHOR0
 260 001c 002040E3 		movt	r2, #:upper16:.LANCHOR0
 261              	.LBE28:
 262              	.LBE27:
 263 0020 0200A0E1 		mov	r0, r2
  58:../src/tensorflow_lite/tensorflow/lite/micro/micro_error_reporter.cc ****   }
 264              		.loc 2 58 0 discriminator 1
 265 0024 002083E5 		str	r2, [r3]
 266              	.LBB30:
 267              	.LBB29:
  38:C:/Renesas/e2studio_2021_01_workspace_RZA2M_ANPR/ANPR_RZA2M_GR_MANGO/src/tensorflow_lite/tensorflow/lite/micro\micro_error_reporter.h ****  public:
 268              		.loc 1 38 0 discriminator 1
 269 0028 001082E5 		str	r1, [r2]
 270              	.LVL19:
 271              	.LBE29:
 272              	.LBE30:
  61:../src/tensorflow_lite/tensorflow/lite/micro/micro_error_reporter.cc **** 
 273              		.loc 2 61 0 discriminator 1
 274 002c 1EFF2FE1 		bx	lr
 275              	.L14:
 276              		.align	2
 277              	.L13:
 278 0030 08000000 		.word	.LANCHOR2+8
 279              		.cfi_endproc
 280              	.LFE61:
 281              		.cantunwind
 282              		.fnend
 284              		.weak	_ZTSN6tflite13ErrorReporterE
 285              		.section	.rodata._ZTSN6tflite13ErrorReporterE,"aG",%progbits,_ZTSN6tflite13ErrorReporterE,comdat
 286              		.align	2
 289              	_ZTSN6tflite13ErrorReporterE:
 290 0000 4E367466 		.ascii	"N6tflite13ErrorReporterE\000"
 290      6C697465 
 290      31334572 
 290      726F7252 
 290      65706F72 
 291              		.weak	_ZTIN6tflite13ErrorReporterE
 292              		.section	.rodata._ZTIN6tflite13ErrorReporterE,"aG",%progbits,_ZTIN6tflite13ErrorReporterE,comdat
 293              		.align	2
 296              	_ZTIN6tflite13ErrorReporterE:
 297 0000 08000000 		.word	_ZTVN10__cxxabiv117__class_type_infoE+8
 298 0004 00000000 		.word	_ZTSN6tflite13ErrorReporterE
 299              		.global	_ZTSN6tflite18MicroErrorReporterE
 300              		.global	_ZTIN6tflite18MicroErrorReporterE
 301              		.global	_ZTVN6tflite18MicroErrorReporterE
 302              		.section	.bss._ZN12_GLOBAL__N_115error_reporter_E,"aw",%nobits
 303              		.align	2
 304              		.set	.LANCHOR1,. + 0
 307              	_ZN12_GLOBAL__N_115error_reporter_E:
 308 0000 00000000 		.space	4
 309              		.section	.bss._ZN12_GLOBAL__N_127micro_error_reporter_bufferE,"aw",%nobits
 310              		.align	3
 311              		.set	.LANCHOR0,. + 0
 314              	_ZN12_GLOBAL__N_127micro_error_reporter_bufferE:
 315 0000 00000000 		.space	4
 316              		.section	.rodata._ZN12_GLOBAL__N_13LogEPKcSt9__va_list.str1.4,"aMS",%progbits,1
 317              		.align	2
 318              	.LC0:
 319 0000 0D0A00   		.ascii	"\015\012\000"
 320              		.section	.rodata._ZTIN6tflite18MicroErrorReporterE,"a",%progbits
 321              		.align	2
 324              	_ZTIN6tflite18MicroErrorReporterE:
 325 0000 08000000 		.word	_ZTVN10__cxxabiv120__si_class_type_infoE+8
 326 0004 00000000 		.word	_ZTSN6tflite18MicroErrorReporterE
 327 0008 00000000 		.word	_ZTIN6tflite13ErrorReporterE
 328              		.section	.rodata._ZTSN6tflite18MicroErrorReporterE,"a",%progbits
 329              		.align	3
 332              	_ZTSN6tflite18MicroErrorReporterE:
 333 0000 4E367466 		.ascii	"N6tflite18MicroErrorReporterE\000"
 333      6C697465 
 333      31384D69 
 333      63726F45 
 333      72726F72 
 334              		.section	.rodata._ZTVN6tflite18MicroErrorReporterE,"a",%progbits
 335              		.align	3
 336              		.set	.LANCHOR2,. + 0
 339              	_ZTVN6tflite18MicroErrorReporterE:
 340 0000 00000000 		.word	0
 341 0004 00000000 		.word	_ZTIN6tflite18MicroErrorReporterE
 342 0008 00000000 		.word	_ZN6tflite18MicroErrorReporterD1Ev
 343 000c 00000000 		.word	_ZN6tflite18MicroErrorReporterD0Ev
 344 0010 00000000 		.word	_ZN6tflite18MicroErrorReporter6ReportEPKcSt9__va_list
 345              		.text
 346              	.Letext0:
 347              		.file 3 "c:\\program files (x86)\\gnu tools arm embedded\\6 2017-q2-update\\arm-none-eabi\\include
 348              		.file 4 "c:\\program files (x86)\\gnu tools arm embedded\\6 2017-q2-update\\arm-none-eabi\\include
 349              		.file 5 "c:\\program files (x86)\\gnu tools arm embedded\\6 2017-q2-update\\arm-none-eabi\\include
 350              		.file 6 "c:\\program files (x86)\\gnu tools arm embedded\\6 2017-q2-update\\arm-none-eabi\\include
 351              		.file 7 "c:\\program files (x86)\\gnu tools arm embedded\\6 2017-q2-update\\arm-none-eabi\\include
 352              		.file 8 "c:\\program files (x86)\\gnu tools arm embedded\\6 2017-q2-update\\arm-none-eabi\\include
 353              		.file 9 "c:\\program files (x86)\\gnu tools arm embedded\\6 2017-q2-update\\lib\\gcc\\arm-none-eab
 354              		.file 10 "<built-in>"
 355              		.file 11 "c:\\program files (x86)\\gnu tools arm embedded\\6 2017-q2-update\\arm-none-eabi\\includ
 356              		.file 12 "c:\\program files (x86)\\gnu tools arm embedded\\6 2017-q2-update\\arm-none-eabi\\includ
 357              		.file 13 "c:\\program files (x86)\\gnu tools arm embedded\\6 2017-q2-update\\arm-none-eabi\\includ
 358              		.file 14 "C:/Renesas/e2studio_2021_01_workspace_RZA2M_ANPR/ANPR_RZA2M_GR_MANGO/src/tensorflow_lite
 359              		.file 15 "C:/Renesas/e2studio_2021_01_workspace_RZA2M_ANPR/ANPR_RZA2M_GR_MANGO/src/tensorflow_lite
 360              		.file 16 "C:/Renesas/e2studio_2021_01_workspace_RZA2M_ANPR/ANPR_RZA2M_GR_MANGO/src/tensorflow_lite