   1              		.cpu cortex-a9
   2              		.eabi_attribute 28, 1
   3              		.eabi_attribute 20, 1
   4              		.eabi_attribute 21, 1
   5              		.eabi_attribute 23, 3
   6              		.eabi_attribute 24, 1
   7              		.eabi_attribute 25, 1
   8              		.eabi_attribute 26, 1
   9              		.eabi_attribute 30, 2
  10              		.eabi_attribute 34, 0
  11              		.eabi_attribute 18, 4
  12              		.file	"recording_micro_allocator.cc"
  13              		.text
  14              	.Ltext0:
  15              		.cfi_sections	.debug_frame
  16              		.section	.text._ZN6tflite23RecordingMicroAllocatorD2Ev,"axG",%progbits,_ZN6tflite23RecordingMicroA
  17              		.align	2
  18              		.weak	_ZN6tflite23RecordingMicroAllocatorD2Ev
  19              		.syntax unified
  20              		.arm
  21              		.fpu neon
  23              	_ZN6tflite23RecordingMicroAllocatorD2Ev:
  24              		.fnstart
  25              	.LFB10750:
  26              		.file 1 "C:/Renesas/e2studio_2021_01_workspace_RZA2M_ANPR/ANPR_RZA2M_GR_MANGO/src/tensorflow_lite/
   1:C:/Renesas/e2studio_2021_01_workspace_RZA2M_ANPR/ANPR_RZA2M_GR_MANGO/src/tensorflow_lite/tensorflow/lite/micro\recording_micro_allocator.h **** /* Copyright 2020 The TensorFlow Authors. All Rights Reserved.
   2:C:/Renesas/e2studio_2021_01_workspace_RZA2M_ANPR/ANPR_RZA2M_GR_MANGO/src/tensorflow_lite/tensorflow/lite/micro\recording_micro_allocator.h **** 
   3:C:/Renesas/e2studio_2021_01_workspace_RZA2M_ANPR/ANPR_RZA2M_GR_MANGO/src/tensorflow_lite/tensorflow/lite/micro\recording_micro_allocator.h **** Licensed under the Apache License, Version 2.0 (the "License");
   4:C:/Renesas/e2studio_2021_01_workspace_RZA2M_ANPR/ANPR_RZA2M_GR_MANGO/src/tensorflow_lite/tensorflow/lite/micro\recording_micro_allocator.h **** you may not use this file except in compliance with the License.
   5:C:/Renesas/e2studio_2021_01_workspace_RZA2M_ANPR/ANPR_RZA2M_GR_MANGO/src/tensorflow_lite/tensorflow/lite/micro\recording_micro_allocator.h **** You may obtain a copy of the License at
   6:C:/Renesas/e2studio_2021_01_workspace_RZA2M_ANPR/ANPR_RZA2M_GR_MANGO/src/tensorflow_lite/tensorflow/lite/micro\recording_micro_allocator.h **** 
   7:C:/Renesas/e2studio_2021_01_workspace_RZA2M_ANPR/ANPR_RZA2M_GR_MANGO/src/tensorflow_lite/tensorflow/lite/micro\recording_micro_allocator.h ****     http://www.apache.org/licenses/LICENSE-2.0
   8:C:/Renesas/e2studio_2021_01_workspace_RZA2M_ANPR/ANPR_RZA2M_GR_MANGO/src/tensorflow_lite/tensorflow/lite/micro\recording_micro_allocator.h **** 
   9:C:/Renesas/e2studio_2021_01_workspace_RZA2M_ANPR/ANPR_RZA2M_GR_MANGO/src/tensorflow_lite/tensorflow/lite/micro\recording_micro_allocator.h **** Unless required by applicable law or agreed to in writing, software
  10:C:/Renesas/e2studio_2021_01_workspace_RZA2M_ANPR/ANPR_RZA2M_GR_MANGO/src/tensorflow_lite/tensorflow/lite/micro\recording_micro_allocator.h **** distributed under the License is distributed on an "AS IS" BASIS,
  11:C:/Renesas/e2studio_2021_01_workspace_RZA2M_ANPR/ANPR_RZA2M_GR_MANGO/src/tensorflow_lite/tensorflow/lite/micro\recording_micro_allocator.h **** WITHOUT WARRANTIES OR CONDITIONS OF ANY KIND, either express or implied.
  12:C:/Renesas/e2studio_2021_01_workspace_RZA2M_ANPR/ANPR_RZA2M_GR_MANGO/src/tensorflow_lite/tensorflow/lite/micro\recording_micro_allocator.h **** See the License for the specific language governing permissions and
  13:C:/Renesas/e2studio_2021_01_workspace_RZA2M_ANPR/ANPR_RZA2M_GR_MANGO/src/tensorflow_lite/tensorflow/lite/micro\recording_micro_allocator.h **** limitations under the License.
  14:C:/Renesas/e2studio_2021_01_workspace_RZA2M_ANPR/ANPR_RZA2M_GR_MANGO/src/tensorflow_lite/tensorflow/lite/micro\recording_micro_allocator.h **** ==============================================================================*/
  15:C:/Renesas/e2studio_2021_01_workspace_RZA2M_ANPR/ANPR_RZA2M_GR_MANGO/src/tensorflow_lite/tensorflow/lite/micro\recording_micro_allocator.h **** 
  16:C:/Renesas/e2studio_2021_01_workspace_RZA2M_ANPR/ANPR_RZA2M_GR_MANGO/src/tensorflow_lite/tensorflow/lite/micro\recording_micro_allocator.h **** #ifndef TENSORFLOW_LITE_MICRO_RECORDING_MICRO_ALLOCATOR_H_
  17:C:/Renesas/e2studio_2021_01_workspace_RZA2M_ANPR/ANPR_RZA2M_GR_MANGO/src/tensorflow_lite/tensorflow/lite/micro\recording_micro_allocator.h **** #define TENSORFLOW_LITE_MICRO_RECORDING_MICRO_ALLOCATOR_H_
  18:C:/Renesas/e2studio_2021_01_workspace_RZA2M_ANPR/ANPR_RZA2M_GR_MANGO/src/tensorflow_lite/tensorflow/lite/micro\recording_micro_allocator.h **** 
  19:C:/Renesas/e2studio_2021_01_workspace_RZA2M_ANPR/ANPR_RZA2M_GR_MANGO/src/tensorflow_lite/tensorflow/lite/micro\recording_micro_allocator.h **** #include "tensorflow/lite/micro/compatibility.h"
  20:C:/Renesas/e2studio_2021_01_workspace_RZA2M_ANPR/ANPR_RZA2M_GR_MANGO/src/tensorflow_lite/tensorflow/lite/micro\recording_micro_allocator.h **** #include "tensorflow/lite/micro/micro_allocator.h"
  21:C:/Renesas/e2studio_2021_01_workspace_RZA2M_ANPR/ANPR_RZA2M_GR_MANGO/src/tensorflow_lite/tensorflow/lite/micro\recording_micro_allocator.h **** #include "tensorflow/lite/micro/recording_simple_memory_allocator.h"
  22:C:/Renesas/e2studio_2021_01_workspace_RZA2M_ANPR/ANPR_RZA2M_GR_MANGO/src/tensorflow_lite/tensorflow/lite/micro\recording_micro_allocator.h **** 
  23:C:/Renesas/e2studio_2021_01_workspace_RZA2M_ANPR/ANPR_RZA2M_GR_MANGO/src/tensorflow_lite/tensorflow/lite/micro\recording_micro_allocator.h **** namespace tflite {
  24:C:/Renesas/e2studio_2021_01_workspace_RZA2M_ANPR/ANPR_RZA2M_GR_MANGO/src/tensorflow_lite/tensorflow/lite/micro\recording_micro_allocator.h **** 
  25:C:/Renesas/e2studio_2021_01_workspace_RZA2M_ANPR/ANPR_RZA2M_GR_MANGO/src/tensorflow_lite/tensorflow/lite/micro\recording_micro_allocator.h **** // List of buckets currently recorded by this class. Each type keeps a list of
  26:C:/Renesas/e2studio_2021_01_workspace_RZA2M_ANPR/ANPR_RZA2M_GR_MANGO/src/tensorflow_lite/tensorflow/lite/micro\recording_micro_allocator.h **** // allocated information during model initialization.
  27:C:/Renesas/e2studio_2021_01_workspace_RZA2M_ANPR/ANPR_RZA2M_GR_MANGO/src/tensorflow_lite/tensorflow/lite/micro\recording_micro_allocator.h **** // TODO(b/169834511): Add tracking for scratch buffer allocations.
  28:C:/Renesas/e2studio_2021_01_workspace_RZA2M_ANPR/ANPR_RZA2M_GR_MANGO/src/tensorflow_lite/tensorflow/lite/micro\recording_micro_allocator.h **** enum class RecordedAllocationType {
  29:C:/Renesas/e2studio_2021_01_workspace_RZA2M_ANPR/ANPR_RZA2M_GR_MANGO/src/tensorflow_lite/tensorflow/lite/micro\recording_micro_allocator.h ****   kTfLiteEvalTensorData,
  30:C:/Renesas/e2studio_2021_01_workspace_RZA2M_ANPR/ANPR_RZA2M_GR_MANGO/src/tensorflow_lite/tensorflow/lite/micro\recording_micro_allocator.h ****   kPersistentTfLiteTensorData,
  31:C:/Renesas/e2studio_2021_01_workspace_RZA2M_ANPR/ANPR_RZA2M_GR_MANGO/src/tensorflow_lite/tensorflow/lite/micro\recording_micro_allocator.h ****   kPersistentTfLiteTensorQuantizationData,
  32:C:/Renesas/e2studio_2021_01_workspace_RZA2M_ANPR/ANPR_RZA2M_GR_MANGO/src/tensorflow_lite/tensorflow/lite/micro\recording_micro_allocator.h ****   kPersistentBufferData,
  33:C:/Renesas/e2studio_2021_01_workspace_RZA2M_ANPR/ANPR_RZA2M_GR_MANGO/src/tensorflow_lite/tensorflow/lite/micro\recording_micro_allocator.h ****   kTfLiteTensorVariableBufferData,
  34:C:/Renesas/e2studio_2021_01_workspace_RZA2M_ANPR/ANPR_RZA2M_GR_MANGO/src/tensorflow_lite/tensorflow/lite/micro\recording_micro_allocator.h ****   kNodeAndRegistrationArray,
  35:C:/Renesas/e2studio_2021_01_workspace_RZA2M_ANPR/ANPR_RZA2M_GR_MANGO/src/tensorflow_lite/tensorflow/lite/micro\recording_micro_allocator.h ****   kOpData,
  36:C:/Renesas/e2studio_2021_01_workspace_RZA2M_ANPR/ANPR_RZA2M_GR_MANGO/src/tensorflow_lite/tensorflow/lite/micro\recording_micro_allocator.h **** };
  37:C:/Renesas/e2studio_2021_01_workspace_RZA2M_ANPR/ANPR_RZA2M_GR_MANGO/src/tensorflow_lite/tensorflow/lite/micro\recording_micro_allocator.h **** 
  38:C:/Renesas/e2studio_2021_01_workspace_RZA2M_ANPR/ANPR_RZA2M_GR_MANGO/src/tensorflow_lite/tensorflow/lite/micro\recording_micro_allocator.h **** // Container for holding information about allocation recordings by a given
  39:C:/Renesas/e2studio_2021_01_workspace_RZA2M_ANPR/ANPR_RZA2M_GR_MANGO/src/tensorflow_lite/tensorflow/lite/micro\recording_micro_allocator.h **** // type. Each recording contains the number of bytes requested, the actual bytes
  40:C:/Renesas/e2studio_2021_01_workspace_RZA2M_ANPR/ANPR_RZA2M_GR_MANGO/src/tensorflow_lite/tensorflow/lite/micro\recording_micro_allocator.h **** // allocated (can defer from requested by alignment), and the number of items
  41:C:/Renesas/e2studio_2021_01_workspace_RZA2M_ANPR/ANPR_RZA2M_GR_MANGO/src/tensorflow_lite/tensorflow/lite/micro\recording_micro_allocator.h **** // allocated.
  42:C:/Renesas/e2studio_2021_01_workspace_RZA2M_ANPR/ANPR_RZA2M_GR_MANGO/src/tensorflow_lite/tensorflow/lite/micro\recording_micro_allocator.h **** struct RecordedAllocation {
  43:C:/Renesas/e2studio_2021_01_workspace_RZA2M_ANPR/ANPR_RZA2M_GR_MANGO/src/tensorflow_lite/tensorflow/lite/micro\recording_micro_allocator.h ****   size_t requested_bytes;
  44:C:/Renesas/e2studio_2021_01_workspace_RZA2M_ANPR/ANPR_RZA2M_GR_MANGO/src/tensorflow_lite/tensorflow/lite/micro\recording_micro_allocator.h ****   size_t used_bytes;
  45:C:/Renesas/e2studio_2021_01_workspace_RZA2M_ANPR/ANPR_RZA2M_GR_MANGO/src/tensorflow_lite/tensorflow/lite/micro\recording_micro_allocator.h ****   size_t count;
  46:C:/Renesas/e2studio_2021_01_workspace_RZA2M_ANPR/ANPR_RZA2M_GR_MANGO/src/tensorflow_lite/tensorflow/lite/micro\recording_micro_allocator.h **** };
  47:C:/Renesas/e2studio_2021_01_workspace_RZA2M_ANPR/ANPR_RZA2M_GR_MANGO/src/tensorflow_lite/tensorflow/lite/micro\recording_micro_allocator.h **** 
  48:C:/Renesas/e2studio_2021_01_workspace_RZA2M_ANPR/ANPR_RZA2M_GR_MANGO/src/tensorflow_lite/tensorflow/lite/micro\recording_micro_allocator.h **** // Utility subclass of MicroAllocator that records all allocations
  49:C:/Renesas/e2studio_2021_01_workspace_RZA2M_ANPR/ANPR_RZA2M_GR_MANGO/src/tensorflow_lite/tensorflow/lite/micro\recording_micro_allocator.h **** // inside the arena. A summary of allocations can be logged through the
  50:C:/Renesas/e2studio_2021_01_workspace_RZA2M_ANPR/ANPR_RZA2M_GR_MANGO/src/tensorflow_lite/tensorflow/lite/micro\recording_micro_allocator.h **** // ErrorReporter by invoking LogAllocations(). This special allocator requires
  51:C:/Renesas/e2studio_2021_01_workspace_RZA2M_ANPR/ANPR_RZA2M_GR_MANGO/src/tensorflow_lite/tensorflow/lite/micro\recording_micro_allocator.h **** // an instance of RecordingSimpleMemoryAllocator to capture allocations in the
  52:C:/Renesas/e2studio_2021_01_workspace_RZA2M_ANPR/ANPR_RZA2M_GR_MANGO/src/tensorflow_lite/tensorflow/lite/micro\recording_micro_allocator.h **** // head and tail. Arena allocation recording can be retrieved by type through
  53:C:/Renesas/e2studio_2021_01_workspace_RZA2M_ANPR/ANPR_RZA2M_GR_MANGO/src/tensorflow_lite/tensorflow/lite/micro\recording_micro_allocator.h **** // the GetRecordedAllocation() function. This class should only be used for
  54:C:/Renesas/e2studio_2021_01_workspace_RZA2M_ANPR/ANPR_RZA2M_GR_MANGO/src/tensorflow_lite/tensorflow/lite/micro\recording_micro_allocator.h **** // auditing memory usage or integration testing.
  55:C:/Renesas/e2studio_2021_01_workspace_RZA2M_ANPR/ANPR_RZA2M_GR_MANGO/src/tensorflow_lite/tensorflow/lite/micro\recording_micro_allocator.h **** class RecordingMicroAllocator : public MicroAllocator {
  27              		.loc 1 55 0
  28              		.cfi_startproc
  29              		@ args = 0, pretend = 0, frame = 0
  30              		@ frame_needed = 0, uses_anonymous_args = 0
  31              	.LVL0:
  32              	.LBB279:
  33 0000 14309FE5 		ldr	r3, .L3
  34              	.LBE279:
  35 0004 10402DE9 		push	{r4, lr}
  36              		.cfi_def_cfa_offset 8
  37              		.cfi_offset 4, -8
  38              		.cfi_offset 14, -4
  39              		.loc 1 55 0
  40 0008 0040A0E1 		mov	r4, r0
  41              	.LBB280:
  42 000c 003080E5 		str	r3, [r0]
  43 0010 FEFFFFEB 		bl	_ZN6tflite14MicroAllocatorD2Ev
  44              	.LVL1:
  45              	.LBE280:
  46 0014 0400A0E1 		mov	r0, r4
  47 0018 1080BDE8 		pop	{r4, pc}
  48              	.L4:
  49              		.align	2
  50              	.L3:
  51 001c 08000000 		.word	.LANCHOR0+8
  52              		.cfi_endproc
  53              	.LFE10750:
  54              		.cantunwind
  55              		.fnend
  57              		.weak	_ZN6tflite23RecordingMicroAllocatorD1Ev
  58              		.set	_ZN6tflite23RecordingMicroAllocatorD1Ev,_ZN6tflite23RecordingMicroAllocatorD2Ev
  59              		.section	.text._ZN6tflite23RecordingMicroAllocatorD0Ev,"axG",%progbits,_ZN6tflite23RecordingMicroA
  60              		.align	2
  61              		.weak	_ZN6tflite23RecordingMicroAllocatorD0Ev
  62              		.syntax unified
  63              		.arm
  64              		.fpu neon
  66              	_ZN6tflite23RecordingMicroAllocatorD0Ev:
  67              		.fnstart
  68              	.LFB10752:
  69              		.loc 1 55 0
  70              		.cfi_startproc
  71              		@ args = 0, pretend = 0, frame = 0
  72              		@ frame_needed = 0, uses_anonymous_args = 0
  73              	.LVL2:
  74              	.LBB281:
  75              	.LBB282:
  76 0000 1C309FE5 		ldr	r3, .L7
  77              	.LBE282:
  78              	.LBE281:
  79 0004 10402DE9 		push	{r4, lr}
  80              		.cfi_def_cfa_offset 8
  81              		.cfi_offset 4, -8
  82              		.cfi_offset 14, -4
  83              		.loc 1 55 0
  84 0008 0040A0E1 		mov	r4, r0
  85              	.LVL3:
  86              	.LBB284:
  87              	.LBB283:
  88 000c 003080E5 		str	r3, [r0]
  89 0010 FEFFFFEB 		bl	_ZN6tflite14MicroAllocatorD2Ev
  90              	.LVL4:
  91              	.LBE283:
  92              	.LBE284:
  93 0014 0400A0E1 		mov	r0, r4
  94 0018 FEFFFFEB 		bl	_ZdlPv
  95              	.LVL5:
  96 001c 0400A0E1 		mov	r0, r4
  97 0020 1080BDE8 		pop	{r4, pc}
  98              	.L8:
  99              		.align	2
 100              	.L7:
 101 0024 08000000 		.word	.LANCHOR0+8
 102              		.cfi_endproc
 103              	.LFE10752:
 104              		.cantunwind
 105              		.fnend
 107              		.section	.text._ZN6tflite23RecordingMicroAllocatorC2EPNS_30RecordingSimpleMemoryAllocatorEPNS_13Er
 108              		.align	2
 109              		.global	_ZN6tflite23RecordingMicroAllocatorC2EPNS_30RecordingSimpleMemoryAllocatorEPNS_13ErrorRepo
 110              		.syntax unified
 111              		.arm
 112              		.fpu neon
 114              	_ZN6tflite23RecordingMicroAllocatorC2EPNS_30RecordingSimpleMemoryAllocatorEPNS_13ErrorReporterE:
 115              		.fnstart
 116              	.LFB6508:
 117              		.file 2 "../src/tensorflow_lite/tensorflow/lite/micro/recording_micro_allocator.cc"
   1:../src/tensorflow_lite/tensorflow/lite/micro/recording_micro_allocator.cc **** /* Copyright 2020 The TensorFlow Authors. All Rights Reserved.
   2:../src/tensorflow_lite/tensorflow/lite/micro/recording_micro_allocator.cc **** 
   3:../src/tensorflow_lite/tensorflow/lite/micro/recording_micro_allocator.cc **** Licensed under the Apache License, Version 2.0 (the "License");
   4:../src/tensorflow_lite/tensorflow/lite/micro/recording_micro_allocator.cc **** you may not use this file except in compliance with the License.
   5:../src/tensorflow_lite/tensorflow/lite/micro/recording_micro_allocator.cc **** You may obtain a copy of the License at
   6:../src/tensorflow_lite/tensorflow/lite/micro/recording_micro_allocator.cc **** 
   7:../src/tensorflow_lite/tensorflow/lite/micro/recording_micro_allocator.cc ****     http://www.apache.org/licenses/LICENSE-2.0
   8:../src/tensorflow_lite/tensorflow/lite/micro/recording_micro_allocator.cc **** 
   9:../src/tensorflow_lite/tensorflow/lite/micro/recording_micro_allocator.cc **** Unless required by applicable law or agreed to in writing, software
  10:../src/tensorflow_lite/tensorflow/lite/micro/recording_micro_allocator.cc **** distributed under the License is distributed on an "AS IS" BASIS,
  11:../src/tensorflow_lite/tensorflow/lite/micro/recording_micro_allocator.cc **** WITHOUT WARRANTIES OR CONDITIONS OF ANY KIND, either express or implied.
  12:../src/tensorflow_lite/tensorflow/lite/micro/recording_micro_allocator.cc **** See the License for the specific language governing permissions and
  13:../src/tensorflow_lite/tensorflow/lite/micro/recording_micro_allocator.cc **** limitations under the License.
  14:../src/tensorflow_lite/tensorflow/lite/micro/recording_micro_allocator.cc **** ==============================================================================*/
  15:../src/tensorflow_lite/tensorflow/lite/micro/recording_micro_allocator.cc **** 
  16:../src/tensorflow_lite/tensorflow/lite/micro/recording_micro_allocator.cc **** #include "tensorflow/lite/micro/recording_micro_allocator.h"
  17:../src/tensorflow_lite/tensorflow/lite/micro/recording_micro_allocator.cc **** 
  18:../src/tensorflow_lite/tensorflow/lite/micro/recording_micro_allocator.cc **** #include "tensorflow/lite/core/api/error_reporter.h"
  19:../src/tensorflow_lite/tensorflow/lite/micro/recording_micro_allocator.cc **** #include "tensorflow/lite/kernels/internal/compatibility.h"
  20:../src/tensorflow_lite/tensorflow/lite/micro/recording_micro_allocator.cc **** #include "tensorflow/lite/micro/compatibility.h"
  21:../src/tensorflow_lite/tensorflow/lite/micro/recording_micro_allocator.cc **** #include "tensorflow/lite/micro/micro_allocator.h"
  22:../src/tensorflow_lite/tensorflow/lite/micro/recording_micro_allocator.cc **** #include "tensorflow/lite/micro/recording_simple_memory_allocator.h"
  23:../src/tensorflow_lite/tensorflow/lite/micro/recording_micro_allocator.cc **** 
  24:../src/tensorflow_lite/tensorflow/lite/micro/recording_micro_allocator.cc **** namespace tflite {
  25:../src/tensorflow_lite/tensorflow/lite/micro/recording_micro_allocator.cc **** 
  26:../src/tensorflow_lite/tensorflow/lite/micro/recording_micro_allocator.cc **** RecordingMicroAllocator::RecordingMicroAllocator(
 118              		.loc 2 26 0
 119              		.cfi_startproc
 120              		@ args = 0, pretend = 0, frame = 0
 121              		@ frame_needed = 0, uses_anonymous_args = 0
 122              	.LVL6:
 123 0000 F0412DE9 		push	{r4, r5, r6, r7, r8, lr}
 124              		.save {r4, r5, r6, r7, r8, lr}
 125              		.cfi_def_cfa_offset 24
 126              		.cfi_offset 4, -24
 127              		.cfi_offset 5, -20
 128              		.cfi_offset 6, -16
 129              		.cfi_offset 7, -12
 130              		.cfi_offset 8, -8
 131              		.cfi_offset 14, -4
 132              		.loc 2 26 0
 133 0004 0040A0E1 		mov	r4, r0
 134 0008 0170A0E1 		mov	r7, r1
 135              	.LBB286:
  27:../src/tensorflow_lite/tensorflow/lite/micro/recording_micro_allocator.cc ****     RecordingSimpleMemoryAllocator* recording_memory_allocator,
  28:../src/tensorflow_lite/tensorflow/lite/micro/recording_micro_allocator.cc ****     ErrorReporter* error_reporter)
  29:../src/tensorflow_lite/tensorflow/lite/micro/recording_micro_allocator.cc ****     : MicroAllocator(recording_memory_allocator, error_reporter),
  30:../src/tensorflow_lite/tensorflow/lite/micro/recording_micro_allocator.cc ****       recording_memory_allocator_(recording_memory_allocator) {}
 136              		.loc 2 30 0
 137 000c 206084E2 		add	r6, r4, #32
 138 0010 385084E2 		add	r5, r4, #56
 139 0014 FEFFFFEB 		bl	_ZN6tflite14MicroAllocatorC2EPNS_21SimpleMemoryAllocatorEPNS_13ErrorReporterE
 140              	.LVL7:
 141 0018 68209FE5 		ldr	r2, .L11
 142 001c 0030A0E3 		mov	r3, #0
 143 0020 44E084E2 		add	lr, r4, #68
 144 0024 1C7084E5 		str	r7, [r4, #28]
 145 0028 203084E5 		str	r3, [r4, #32]
 146              	.LBE286:
 147 002c 0400A0E1 		mov	r0, r4
 148              	.LBB287:
 149 0030 002084E5 		str	r2, [r4]
 150 0034 243084E5 		str	r3, [r4, #36]
 151 0038 283084E5 		str	r3, [r4, #40]
 152 003c 2C3084E5 		str	r3, [r4, #44]
 153 0040 303084E5 		str	r3, [r4, #48]
 154 0044 343084E5 		str	r3, [r4, #52]
 155 0048 383084E5 		str	r3, [r4, #56]
 156 004c 3C3084E5 		str	r3, [r4, #60]
 157 0050 403084E5 		str	r3, [r4, #64]
 158 0054 443084E5 		str	r3, [r4, #68]
 159 0058 483084E5 		str	r3, [r4, #72]
 160 005c 4C3084E5 		str	r3, [r4, #76]
 161 0060 503084E5 		str	r3, [r4, #80]
 162 0064 543084E5 		str	r3, [r4, #84]
 163 0068 583084E5 		str	r3, [r4, #88]
 164 006c 5C3084E5 		str	r3, [r4, #92]
 165 0070 603084E5 		str	r3, [r4, #96]
 166 0074 643084E5 		str	r3, [r4, #100]
 167 0078 683084E5 		str	r3, [r4, #104]
 168 007c 6C3084E5 		str	r3, [r4, #108]
 169 0080 703084E5 		str	r3, [r4, #112]
 170              	.LBE287:
 171 0084 F081BDE8 		pop	{r4, r5, r6, r7, r8, pc}
 172              	.L12:
 173              		.align	2
 174              	.L11:
 175 0088 08000000 		.word	.LANCHOR0+8
 176              		.cfi_endproc
 177              	.LFE6508:
 178              		.fnend
 180              		.global	_ZN6tflite23RecordingMicroAllocatorC1EPNS_30RecordingSimpleMemoryAllocatorEPNS_13ErrorRepo
 181              		.set	_ZN6tflite23RecordingMicroAllocatorC1EPNS_30RecordingSimpleMemoryAllocatorEPNS_13ErrorReporte
 182              		.section	.text._ZN6tflite23RecordingMicroAllocator6CreateEPhjPNS_13ErrorReporterE,"ax",%progbits
 183              		.align	2
 184              		.global	_ZN6tflite23RecordingMicroAllocator6CreateEPhjPNS_13ErrorReporterE
 185              		.syntax unified
 186              		.arm
 187              		.fpu neon
 189              	_ZN6tflite23RecordingMicroAllocator6CreateEPhjPNS_13ErrorReporterE:
 190              		.fnstart
 191              	.LFB6510:
  31:../src/tensorflow_lite/tensorflow/lite/micro/recording_micro_allocator.cc **** 
  32:../src/tensorflow_lite/tensorflow/lite/micro/recording_micro_allocator.cc **** RecordingMicroAllocator* RecordingMicroAllocator::Create(
  33:../src/tensorflow_lite/tensorflow/lite/micro/recording_micro_allocator.cc ****     uint8_t* tensor_arena, size_t arena_size, ErrorReporter* error_reporter) {
 192              		.loc 2 33 0
 193              		.cfi_startproc
 194              		@ args = 0, pretend = 0, frame = 0
 195              		@ frame_needed = 0, uses_anonymous_args = 0
 196              	.LVL8:
 197 0000 F0412DE9 		push	{r4, r5, r6, r7, r8, lr}
 198              		.save {r4, r5, r6, r7, r8, lr}
 199              		.cfi_def_cfa_offset 24
 200              		.cfi_offset 4, -24
 201              		.cfi_offset 5, -20
 202              		.cfi_offset 6, -16
 203              		.cfi_offset 7, -12
 204              		.cfi_offset 8, -8
 205              		.cfi_offset 14, -4
  34:../src/tensorflow_lite/tensorflow/lite/micro/recording_micro_allocator.cc ****   TFLITE_DCHECK(error_reporter != nullptr);
 206              		.loc 2 34 0
 207 0004 005052E2 		subs	r5, r2, #0
 208 0008 2D00000A 		beq	.L15
  35:../src/tensorflow_lite/tensorflow/lite/micro/recording_micro_allocator.cc **** 
  36:../src/tensorflow_lite/tensorflow/lite/micro/recording_micro_allocator.cc ****   RecordingSimpleMemoryAllocator* simple_memory_allocator =
  37:../src/tensorflow_lite/tensorflow/lite/micro/recording_micro_allocator.cc ****       RecordingSimpleMemoryAllocator::Create(error_reporter, tensor_arena,
  38:../src/tensorflow_lite/tensorflow/lite/micro/recording_micro_allocator.cc ****                                              arena_size);
 209              		.loc 2 38 0
 210 000c 0120A0E1 		mov	r2, r1
 211              	.LVL9:
 212 0010 0010A0E1 		mov	r1, r0
 213              	.LVL10:
 214 0014 0500A0E1 		mov	r0, r5
 215              	.LVL11:
 216 0018 FEFFFFEB 		bl	_ZN6tflite30RecordingSimpleMemoryAllocator6CreateEPNS_13ErrorReporterEPhj
 217              	.LVL12:
  39:../src/tensorflow_lite/tensorflow/lite/micro/recording_micro_allocator.cc ****   TFLITE_DCHECK(simple_memory_allocator != nullptr);
 218              		.loc 2 39 0
 219 001c 007050E2 		subs	r7, r0, #0
 220 0020 2700000A 		beq	.L15
  40:../src/tensorflow_lite/tensorflow/lite/micro/recording_micro_allocator.cc **** 
  41:../src/tensorflow_lite/tensorflow/lite/micro/recording_micro_allocator.cc ****   uint8_t* allocator_buffer = simple_memory_allocator->AllocateFromTail(
  42:../src/tensorflow_lite/tensorflow/lite/micro/recording_micro_allocator.cc ****       sizeof(RecordingMicroAllocator), alignof(RecordingMicroAllocator));
 221              		.loc 2 42 0
 222 0024 003097E5 		ldr	r3, [r7]
 223 0028 0420A0E3 		mov	r2, #4
 224 002c 7410A0E3 		mov	r1, #116
 225 0030 0C3093E5 		ldr	r3, [r3, #12]
 226 0034 33FF2FE1 		blx	r3
 227              	.LVL13:
  43:../src/tensorflow_lite/tensorflow/lite/micro/recording_micro_allocator.cc ****   RecordingMicroAllocator* allocator = new (allocator_buffer)
  44:../src/tensorflow_lite/tensorflow/lite/micro/recording_micro_allocator.cc ****       RecordingMicroAllocator(simple_memory_allocator, error_reporter);
 228              		.loc 2 44 0
 229 0038 004050E2 		subs	r4, r0, #0
 230 003c 1E00000A 		beq	.L16
 231              	.LVL14:
 232              	.LBB291:
 233              	.LBB292:
  30:../src/tensorflow_lite/tensorflow/lite/micro/recording_micro_allocator.cc **** 
 234              		.loc 2 30 0
 235 0040 0520A0E1 		mov	r2, r5
 236 0044 0710A0E1 		mov	r1, r7
 237 0048 FEFFFFEB 		bl	_ZN6tflite14MicroAllocatorC2EPNS_21SimpleMemoryAllocatorEPNS_13ErrorReporterE
 238              	.LVL15:
 239 004c 74209FE5 		ldr	r2, .L25
 240 0050 206084E2 		add	r6, r4, #32
 241 0054 2C5084E2 		add	r5, r4, #44
 242              	.LVL16:
 243 0058 38E084E2 		add	lr, r4, #56
 244 005c 0030A0E3 		mov	r3, #0
 245 0060 1C7084E5 		str	r7, [r4, #28]
 246 0064 002084E5 		str	r2, [r4]
 247 0068 203084E5 		str	r3, [r4, #32]
 248 006c 243084E5 		str	r3, [r4, #36]
 249 0070 283084E5 		str	r3, [r4, #40]
 250 0074 2C3084E5 		str	r3, [r4, #44]
 251 0078 303084E5 		str	r3, [r4, #48]
 252 007c 343084E5 		str	r3, [r4, #52]
 253 0080 383084E5 		str	r3, [r4, #56]
 254 0084 3C3084E5 		str	r3, [r4, #60]
 255 0088 403084E5 		str	r3, [r4, #64]
 256 008c 443084E5 		str	r3, [r4, #68]
 257 0090 483084E5 		str	r3, [r4, #72]
 258 0094 4C3084E5 		str	r3, [r4, #76]
 259 0098 503084E5 		str	r3, [r4, #80]
 260 009c 543084E5 		str	r3, [r4, #84]
 261 00a0 583084E5 		str	r3, [r4, #88]
 262 00a4 5C3084E5 		str	r3, [r4, #92]
 263 00a8 603084E5 		str	r3, [r4, #96]
 264 00ac 643084E5 		str	r3, [r4, #100]
 265 00b0 683084E5 		str	r3, [r4, #104]
 266 00b4 6C3084E5 		str	r3, [r4, #108]
 267 00b8 703084E5 		str	r3, [r4, #112]
 268              	.LVL17:
 269              	.L16:
 270              	.LBE292:
 271              	.LBE291:
  45:../src/tensorflow_lite/tensorflow/lite/micro/recording_micro_allocator.cc ****   return allocator;
  46:../src/tensorflow_lite/tensorflow/lite/micro/recording_micro_allocator.cc **** }
 272              		.loc 2 46 0 discriminator 6
 273 00bc 0400A0E1 		mov	r0, r4
 274 00c0 F081BDE8 		pop	{r4, r5, r6, r7, r8, pc}
 275              	.LVL18:
 276              	.L15:
  34:../src/tensorflow_lite/tensorflow/lite/micro/recording_micro_allocator.cc **** 
 277              		.loc 2 34 0 discriminator 1
 278 00c4 FEFFFFEB 		bl	abort
 279              	.LVL19:
 280              	.L26:
 281              		.align	2
 282              	.L25:
 283 00c8 08000000 		.word	.LANCHOR0+8
 284              		.cfi_endproc
 285              	.LFE6510:
 286              		.fnend
 288              		.section	.text._ZNK6tflite23RecordingMicroAllocator21GetRecordedAllocationENS_22RecordedAllocation
 289              		.align	2
 290              		.global	_ZNK6tflite23RecordingMicroAllocator21GetRecordedAllocationENS_22RecordedAllocationTypeE
 291              		.syntax unified
 292              		.arm
 293              		.fpu neon
 295              	_ZNK6tflite23RecordingMicroAllocator21GetRecordedAllocationENS_22RecordedAllocationTypeE:
 296              		.fnstart
 297              	.LFB6511:
  47:../src/tensorflow_lite/tensorflow/lite/micro/recording_micro_allocator.cc **** 
  48:../src/tensorflow_lite/tensorflow/lite/micro/recording_micro_allocator.cc **** RecordedAllocation RecordingMicroAllocator::GetRecordedAllocation(
  49:../src/tensorflow_lite/tensorflow/lite/micro/recording_micro_allocator.cc ****     RecordedAllocationType allocation_type) const {
 298              		.loc 2 49 0
 299              		.cfi_startproc
 300              		@ args = 0, pretend = 0, frame = 8
 301              		@ frame_needed = 0, uses_anonymous_args = 0
 302              	.LVL20:
 303 0000 10402DE9 		push	{r4, lr}
 304              		.save {r4, lr}
 305              		.cfi_def_cfa_offset 8
 306              		.cfi_offset 4, -8
 307              		.cfi_offset 14, -4
 308 0004 0040A0E1 		mov	r4, r0
 309              		.pad #8
 310 0008 08D04DE2 		sub	sp, sp, #8
 311              		.cfi_def_cfa_offset 16
  50:../src/tensorflow_lite/tensorflow/lite/micro/recording_micro_allocator.cc ****   switch (allocation_type) {
 312              		.loc 2 50 0
 313 000c 060052E3 		cmp	r2, #6
 314 0010 02F19F97 		ldrls	pc, [pc, r2, asl #2]
 315 0014 300000EA 		b	.L28
 316              	.L30:
 317 0018 4C000000 		.word	.L29
 318 001c 64000000 		.word	.L31
 319 0020 7C000000 		.word	.L32
 320 0024 94000000 		.word	.L33
 321 0028 AC000000 		.word	.L34
 322 002c C4000000 		.word	.L35
 323 0030 34000000 		.word	.L36
 324              	.L36:
  51:../src/tensorflow_lite/tensorflow/lite/micro/recording_micro_allocator.cc ****     case RecordedAllocationType::kTfLiteEvalTensorData:
  52:../src/tensorflow_lite/tensorflow/lite/micro/recording_micro_allocator.cc ****       return recorded_tflite_eval_tensor_data_;
  53:../src/tensorflow_lite/tensorflow/lite/micro/recording_micro_allocator.cc ****     case RecordedAllocationType::kPersistentTfLiteTensorData:
  54:../src/tensorflow_lite/tensorflow/lite/micro/recording_micro_allocator.cc ****       return recorded_persistent_tflite_tensor_data_;
  55:../src/tensorflow_lite/tensorflow/lite/micro/recording_micro_allocator.cc ****     case RecordedAllocationType::kPersistentTfLiteTensorQuantizationData:
  56:../src/tensorflow_lite/tensorflow/lite/micro/recording_micro_allocator.cc ****       return recorded_persistent_tflite_tensor_quantization_data_;
  57:../src/tensorflow_lite/tensorflow/lite/micro/recording_micro_allocator.cc ****     case RecordedAllocationType::kPersistentBufferData:
  58:../src/tensorflow_lite/tensorflow/lite/micro/recording_micro_allocator.cc ****       return recorded_persistent_buffer_data_;
  59:../src/tensorflow_lite/tensorflow/lite/micro/recording_micro_allocator.cc ****     case RecordedAllocationType::kTfLiteTensorVariableBufferData:
  60:../src/tensorflow_lite/tensorflow/lite/micro/recording_micro_allocator.cc ****       return recorded_tflite_tensor_variable_buffer_data_;
  61:../src/tensorflow_lite/tensorflow/lite/micro/recording_micro_allocator.cc ****     case RecordedAllocationType::kNodeAndRegistrationArray:
  62:../src/tensorflow_lite/tensorflow/lite/micro/recording_micro_allocator.cc ****       return recorded_node_and_registration_array_data_;
  63:../src/tensorflow_lite/tensorflow/lite/micro/recording_micro_allocator.cc ****     case RecordedAllocationType::kOpData:
  64:../src/tensorflow_lite/tensorflow/lite/micro/recording_micro_allocator.cc ****       return recorded_op_data_;
 325              		.loc 2 64 0
 326 0034 681081E2 		add	r1, r1, #104
 327              	.LVL21:
 328 0038 070091E8 		ldm	r1, {r0, r1, r2}
 329              	.LVL22:
 330 003c 070084E8 		stm	r4, {r0, r1, r2}
  65:../src/tensorflow_lite/tensorflow/lite/micro/recording_micro_allocator.cc ****   }
  66:../src/tensorflow_lite/tensorflow/lite/micro/recording_micro_allocator.cc ****   TF_LITE_REPORT_ERROR(error_reporter(), "Invalid allocation type supplied: %d",
  67:../src/tensorflow_lite/tensorflow/lite/micro/recording_micro_allocator.cc ****                        allocation_type);
  68:../src/tensorflow_lite/tensorflow/lite/micro/recording_micro_allocator.cc ****   return RecordedAllocation();
  69:../src/tensorflow_lite/tensorflow/lite/micro/recording_micro_allocator.cc **** }
 331              		.loc 2 69 0
 332 0040 0400A0E1 		mov	r0, r4
 333 0044 08D08DE2 		add	sp, sp, #8
 334              		.cfi_remember_state
 335              		.cfi_def_cfa_offset 8
 336              		@ sp needed
 337 0048 1080BDE8 		pop	{r4, pc}
 338              	.LVL23:
 339              	.L29:
 340              		.cfi_restore_state
  52:../src/tensorflow_lite/tensorflow/lite/micro/recording_micro_allocator.cc ****     case RecordedAllocationType::kPersistentTfLiteTensorData:
 341              		.loc 2 52 0
 342 004c 201081E2 		add	r1, r1, #32
 343              	.LVL24:
 344 0050 070091E8 		ldm	r1, {r0, r1, r2}
 345              	.LVL25:
 346 0054 070084E8 		stm	r4, {r0, r1, r2}
 347              		.loc 2 69 0
 348 0058 0400A0E1 		mov	r0, r4
 349 005c 08D08DE2 		add	sp, sp, #8
 350              		.cfi_remember_state
 351              		.cfi_def_cfa_offset 8
 352              		@ sp needed
 353 0060 1080BDE8 		pop	{r4, pc}
 354              	.LVL26:
 355              	.L31:
 356              		.cfi_restore_state
  54:../src/tensorflow_lite/tensorflow/lite/micro/recording_micro_allocator.cc ****     case RecordedAllocationType::kPersistentTfLiteTensorQuantizationData:
 357              		.loc 2 54 0
 358 0064 2C1081E2 		add	r1, r1, #44
 359              	.LVL27:
 360 0068 070091E8 		ldm	r1, {r0, r1, r2}
 361              	.LVL28:
 362 006c 070084E8 		stm	r4, {r0, r1, r2}
 363              		.loc 2 69 0
 364 0070 0400A0E1 		mov	r0, r4
 365 0074 08D08DE2 		add	sp, sp, #8
 366              		.cfi_remember_state
 367              		.cfi_def_cfa_offset 8
 368              		@ sp needed
 369 0078 1080BDE8 		pop	{r4, pc}
 370              	.LVL29:
 371              	.L32:
 372              		.cfi_restore_state
  56:../src/tensorflow_lite/tensorflow/lite/micro/recording_micro_allocator.cc ****     case RecordedAllocationType::kPersistentBufferData:
 373              		.loc 2 56 0
 374 007c 381081E2 		add	r1, r1, #56
 375              	.LVL30:
 376 0080 070091E8 		ldm	r1, {r0, r1, r2}
 377              	.LVL31:
 378 0084 070084E8 		stm	r4, {r0, r1, r2}
 379              		.loc 2 69 0
 380 0088 0400A0E1 		mov	r0, r4
 381 008c 08D08DE2 		add	sp, sp, #8
 382              		.cfi_remember_state
 383              		.cfi_def_cfa_offset 8
 384              		@ sp needed
 385 0090 1080BDE8 		pop	{r4, pc}
 386              	.LVL32:
 387              	.L33:
 388              		.cfi_restore_state
  58:../src/tensorflow_lite/tensorflow/lite/micro/recording_micro_allocator.cc ****     case RecordedAllocationType::kTfLiteTensorVariableBufferData:
 389              		.loc 2 58 0
 390 0094 441081E2 		add	r1, r1, #68
 391              	.LVL33:
 392 0098 070091E8 		ldm	r1, {r0, r1, r2}
 393              	.LVL34:
 394 009c 070084E8 		stm	r4, {r0, r1, r2}
 395              		.loc 2 69 0
 396 00a0 0400A0E1 		mov	r0, r4
 397 00a4 08D08DE2 		add	sp, sp, #8
 398              		.cfi_remember_state
 399              		.cfi_def_cfa_offset 8
 400              		@ sp needed
 401 00a8 1080BDE8 		pop	{r4, pc}
 402              	.LVL35:
 403              	.L34:
 404              		.cfi_restore_state
  60:../src/tensorflow_lite/tensorflow/lite/micro/recording_micro_allocator.cc ****     case RecordedAllocationType::kNodeAndRegistrationArray:
 405              		.loc 2 60 0
 406 00ac 501081E2 		add	r1, r1, #80
 407              	.LVL36:
 408 00b0 070091E8 		ldm	r1, {r0, r1, r2}
 409              	.LVL37:
 410 00b4 070084E8 		stm	r4, {r0, r1, r2}
 411              		.loc 2 69 0
 412 00b8 0400A0E1 		mov	r0, r4
 413 00bc 08D08DE2 		add	sp, sp, #8
 414              		.cfi_remember_state
 415              		.cfi_def_cfa_offset 8
 416              		@ sp needed
 417 00c0 1080BDE8 		pop	{r4, pc}
 418              	.LVL38:
 419              	.L35:
 420              		.cfi_restore_state
  62:../src/tensorflow_lite/tensorflow/lite/micro/recording_micro_allocator.cc ****     case RecordedAllocationType::kOpData:
 421              		.loc 2 62 0
 422 00c4 5C1081E2 		add	r1, r1, #92
 423              	.LVL39:
 424 00c8 070091E8 		ldm	r1, {r0, r1, r2}
 425              	.LVL40:
 426 00cc 070084E8 		stm	r4, {r0, r1, r2}
 427              		.loc 2 69 0
 428 00d0 0400A0E1 		mov	r0, r4
 429 00d4 08D08DE2 		add	sp, sp, #8
 430              		.cfi_def_cfa_offset 8
 431              		@ sp needed
 432 00d8 1080BDE8 		pop	{r4, pc}
 433              	.LVL41:
 434              	.L28:
  66:../src/tensorflow_lite/tensorflow/lite/micro/recording_micro_allocator.cc ****                        allocation_type);
 435              		.loc 2 66 0
 436 00dc 0100A0E1 		mov	r0, r1
 437              	.LVL42:
 438 00e0 04208DE5 		str	r2, [sp, #4]
 439 00e4 FEFFFFEB 		bl	_ZNK6tflite14MicroAllocator14error_reporterEv
 440              	.LVL43:
 441 00e8 001000E3 		movw	r1, #:lower16:.LC0
 442 00ec 04209DE5 		ldr	r2, [sp, #4]
 443 00f0 001040E3 		movt	r1, #:upper16:.LC0
 444 00f4 FEFFFFEB 		bl	_ZN6tflite13ErrorReporter6ReportEPKcz
 445              	.LVL44:
  68:../src/tensorflow_lite/tensorflow/lite/micro/recording_micro_allocator.cc **** }
 446              		.loc 2 68 0
 447 00f8 0030A0E3 		mov	r3, #0
 448              		.loc 2 69 0
 449 00fc 0400A0E1 		mov	r0, r4
  68:../src/tensorflow_lite/tensorflow/lite/micro/recording_micro_allocator.cc **** }
 450              		.loc 2 68 0
 451 0100 003084E5 		str	r3, [r4]
 452 0104 043084E5 		str	r3, [r4, #4]
 453 0108 083084E5 		str	r3, [r4, #8]
 454              		.loc 2 69 0
 455 010c 08D08DE2 		add	sp, sp, #8
 456              		@ sp needed
 457 0110 1080BDE8 		pop	{r4, pc}
 458              		.cfi_endproc
 459              	.LFE6511:
 460              		.fnend
 462              		.section	.text._ZNK6tflite23RecordingMicroAllocator24GetSimpleMemoryAllocatorEv,"ax",%progbits
 463              		.align	2
 464              		.global	_ZNK6tflite23RecordingMicroAllocator24GetSimpleMemoryAllocatorEv
 465              		.syntax unified
 466              		.arm
 467              		.fpu neon
 469              	_ZNK6tflite23RecordingMicroAllocator24GetSimpleMemoryAllocatorEv:
 470              		.fnstart
 471              	.LFB6512:
  70:../src/tensorflow_lite/tensorflow/lite/micro/recording_micro_allocator.cc **** 
  71:../src/tensorflow_lite/tensorflow/lite/micro/recording_micro_allocator.cc **** const RecordingSimpleMemoryAllocator*
  72:../src/tensorflow_lite/tensorflow/lite/micro/recording_micro_allocator.cc **** RecordingMicroAllocator::GetSimpleMemoryAllocator() const {
 472              		.loc 2 72 0
 473              		.cfi_startproc
 474              		@ args = 0, pretend = 0, frame = 0
 475              		@ frame_needed = 0, uses_anonymous_args = 0
 476              		@ link register save eliminated.
 477              	.LVL45:
  73:../src/tensorflow_lite/tensorflow/lite/micro/recording_micro_allocator.cc ****   return recording_memory_allocator_;
  74:../src/tensorflow_lite/tensorflow/lite/micro/recording_micro_allocator.cc **** }
 478              		.loc 2 74 0
 479 0000 1C0090E5 		ldr	r0, [r0, #28]
 480              	.LVL46:
 481 0004 1EFF2FE1 		bx	lr
 482              		.cfi_endproc
 483              	.LFE6512:
 484              		.cantunwind
 485              		.fnend
 487              		.section	.text._ZNK6tflite23RecordingMicroAllocator16PrintAllocationsEv,"ax",%progbits
 488              		.align	2
 489              		.global	_ZNK6tflite23RecordingMicroAllocator16PrintAllocationsEv
 490              		.syntax unified
 491              		.arm
 492              		.fpu neon
 494              	_ZNK6tflite23RecordingMicroAllocator16PrintAllocationsEv:
 495              		.fnstart
 496              	.LFB6513:
  75:../src/tensorflow_lite/tensorflow/lite/micro/recording_micro_allocator.cc **** 
  76:../src/tensorflow_lite/tensorflow/lite/micro/recording_micro_allocator.cc **** void RecordingMicroAllocator::PrintAllocations() const {
 497              		.loc 2 76 0
 498              		.cfi_startproc
 499              		@ args = 0, pretend = 0, frame = 0
 500              		@ frame_needed = 0, uses_anonymous_args = 0
 501              	.LVL47:
 502 0000 F0402DE9 		push	{r4, r5, r6, r7, lr}
 503              		.save {r4, r5, r6, r7, lr}
 504              		.cfi_def_cfa_offset 20
 505              		.cfi_offset 4, -20
 506              		.cfi_offset 5, -16
 507              		.cfi_offset 6, -12
 508              		.cfi_offset 7, -8
 509              		.cfi_offset 14, -4
 510 0004 0040A0E1 		mov	r4, r0
 511              		.pad #20
 512 0008 14D04DE2 		sub	sp, sp, #20
 513              		.cfi_def_cfa_offset 40
  77:../src/tensorflow_lite/tensorflow/lite/micro/recording_micro_allocator.cc ****   TF_LITE_REPORT_ERROR(
 514              		.loc 2 77 0
 515 000c FEFFFFEB 		bl	_ZNK6tflite14MicroAllocator14error_reporterEv
 516              	.LVL48:
 517 0010 0050A0E1 		mov	r5, r0
 518 0014 1C0094E5 		ldr	r0, [r4, #28]
 519 0018 FEFFFFEB 		bl	_ZNK6tflite30RecordingSimpleMemoryAllocator12GetUsedBytesEv
 520              	.LVL49:
 521 001c 001000E3 		movw	r1, #:lower16:.LC1
 522 0020 0020A0E1 		mov	r2, r0
 523 0024 001040E3 		movt	r1, #:upper16:.LC1
 524 0028 0500A0E1 		mov	r0, r5
 525 002c FEFFFFEB 		bl	_ZN6tflite13ErrorReporter6ReportEPKcz
 526              	.LVL50:
  78:../src/tensorflow_lite/tensorflow/lite/micro/recording_micro_allocator.cc ****       error_reporter(),
  79:../src/tensorflow_lite/tensorflow/lite/micro/recording_micro_allocator.cc ****       "[RecordingMicroAllocator] Arena allocation total %d bytes",
  80:../src/tensorflow_lite/tensorflow/lite/micro/recording_micro_allocator.cc ****       recording_memory_allocator_->GetUsedBytes());
  81:../src/tensorflow_lite/tensorflow/lite/micro/recording_micro_allocator.cc ****   TF_LITE_REPORT_ERROR(
 527              		.loc 2 81 0
 528 0030 0400A0E1 		mov	r0, r4
 529 0034 FEFFFFEB 		bl	_ZNK6tflite14MicroAllocator14error_reporterEv
 530              	.LVL51:
 531 0038 0050A0E1 		mov	r5, r0
 532 003c 1C0094E5 		ldr	r0, [r4, #28]
 533 0040 FEFFFFEB 		bl	_ZNK6tflite21SimpleMemoryAllocator16GetHeadUsedBytesEv
 534              	.LVL52:
 535 0044 001000E3 		movw	r1, #:lower16:.LC2
 536 0048 0020A0E1 		mov	r2, r0
 537 004c 001040E3 		movt	r1, #:upper16:.LC2
 538 0050 0500A0E1 		mov	r0, r5
 539 0054 FEFFFFEB 		bl	_ZN6tflite13ErrorReporter6ReportEPKcz
 540              	.LVL53:
  82:../src/tensorflow_lite/tensorflow/lite/micro/recording_micro_allocator.cc ****       error_reporter(),
  83:../src/tensorflow_lite/tensorflow/lite/micro/recording_micro_allocator.cc ****       "[RecordingMicroAllocator] Arena allocation head %d bytes",
  84:../src/tensorflow_lite/tensorflow/lite/micro/recording_micro_allocator.cc ****       recording_memory_allocator_->GetHeadUsedBytes());
  85:../src/tensorflow_lite/tensorflow/lite/micro/recording_micro_allocator.cc ****   TF_LITE_REPORT_ERROR(
 541              		.loc 2 85 0
 542 0058 0400A0E1 		mov	r0, r4
 543 005c FEFFFFEB 		bl	_ZNK6tflite14MicroAllocator14error_reporterEv
 544              	.LVL54:
 545 0060 0050A0E1 		mov	r5, r0
 546 0064 1C0094E5 		ldr	r0, [r4, #28]
 547 0068 FEFFFFEB 		bl	_ZNK6tflite21SimpleMemoryAllocator16GetTailUsedBytesEv
 548              	.LVL55:
 549 006c 001000E3 		movw	r1, #:lower16:.LC3
 550 0070 0020A0E1 		mov	r2, r0
 551 0074 001040E3 		movt	r1, #:upper16:.LC3
 552 0078 0500A0E1 		mov	r0, r5
 553 007c FEFFFFEB 		bl	_ZN6tflite13ErrorReporter6ReportEPKcz
 554              	.LVL56:
 555              	.LBB321:
 556              	.LBB322:
 557              	.LBB323:
 558              	.LBB324:
  52:../src/tensorflow_lite/tensorflow/lite/micro/recording_micro_allocator.cc ****     case RecordedAllocationType::kPersistentTfLiteTensorData:
 559              		.loc 2 52 0
 560 0080 205094E5 		ldr	r5, [r4, #32]
 561              	.LVL57:
 562 0084 246094E5 		ldr	r6, [r4, #36]
 563              	.LVL58:
 564              	.LBE324:
 565              	.LBE323:
  86:../src/tensorflow_lite/tensorflow/lite/micro/recording_micro_allocator.cc ****       error_reporter(),
  87:../src/tensorflow_lite/tensorflow/lite/micro/recording_micro_allocator.cc ****       "[RecordingMicroAllocator] Arena allocation tail %d bytes",
  88:../src/tensorflow_lite/tensorflow/lite/micro/recording_micro_allocator.cc ****       recording_memory_allocator_->GetTailUsedBytes());
  89:../src/tensorflow_lite/tensorflow/lite/micro/recording_micro_allocator.cc ****   PrintRecordedAllocation(RecordedAllocationType::kTfLiteEvalTensorData,
  90:../src/tensorflow_lite/tensorflow/lite/micro/recording_micro_allocator.cc ****                           "TfLiteEvalTensor data", "allocations");
  91:../src/tensorflow_lite/tensorflow/lite/micro/recording_micro_allocator.cc ****   PrintRecordedAllocation(RecordedAllocationType::kPersistentTfLiteTensorData,
  92:../src/tensorflow_lite/tensorflow/lite/micro/recording_micro_allocator.cc ****                           "Persistent TfLiteTensor data", "tensors");
  93:../src/tensorflow_lite/tensorflow/lite/micro/recording_micro_allocator.cc ****   PrintRecordedAllocation(
  94:../src/tensorflow_lite/tensorflow/lite/micro/recording_micro_allocator.cc ****       RecordedAllocationType::kPersistentTfLiteTensorQuantizationData,
  95:../src/tensorflow_lite/tensorflow/lite/micro/recording_micro_allocator.cc ****       "Persistent TfLiteTensor quantization data", "allocations");
  96:../src/tensorflow_lite/tensorflow/lite/micro/recording_micro_allocator.cc ****   PrintRecordedAllocation(RecordedAllocationType::kPersistentBufferData,
  97:../src/tensorflow_lite/tensorflow/lite/micro/recording_micro_allocator.cc ****                           "Persistent buffer data", "allocations");
  98:../src/tensorflow_lite/tensorflow/lite/micro/recording_micro_allocator.cc ****   PrintRecordedAllocation(
  99:../src/tensorflow_lite/tensorflow/lite/micro/recording_micro_allocator.cc ****       RecordedAllocationType::kTfLiteTensorVariableBufferData,
 100:../src/tensorflow_lite/tensorflow/lite/micro/recording_micro_allocator.cc ****       "TfLiteTensor variable buffer data", "allocations");
 101:../src/tensorflow_lite/tensorflow/lite/micro/recording_micro_allocator.cc ****   PrintRecordedAllocation(RecordedAllocationType::kNodeAndRegistrationArray,
 102:../src/tensorflow_lite/tensorflow/lite/micro/recording_micro_allocator.cc ****                           "NodeAndRegistration struct",
 103:../src/tensorflow_lite/tensorflow/lite/micro/recording_micro_allocator.cc ****                           "NodeAndRegistration structs");
 104:../src/tensorflow_lite/tensorflow/lite/micro/recording_micro_allocator.cc ****   PrintRecordedAllocation(RecordedAllocationType::kOpData,
 105:../src/tensorflow_lite/tensorflow/lite/micro/recording_micro_allocator.cc ****                           "Operator runtime data", "OpData structs");
 106:../src/tensorflow_lite/tensorflow/lite/micro/recording_micro_allocator.cc **** }
 107:../src/tensorflow_lite/tensorflow/lite/micro/recording_micro_allocator.cc **** 
 108:../src/tensorflow_lite/tensorflow/lite/micro/recording_micro_allocator.cc **** void* RecordingMicroAllocator::AllocatePersistentBuffer(size_t bytes) {
 109:../src/tensorflow_lite/tensorflow/lite/micro/recording_micro_allocator.cc ****   RecordedAllocation allocations = SnapshotAllocationUsage();
 110:../src/tensorflow_lite/tensorflow/lite/micro/recording_micro_allocator.cc ****   void* buffer = MicroAllocator::AllocatePersistentBuffer(bytes);
 111:../src/tensorflow_lite/tensorflow/lite/micro/recording_micro_allocator.cc ****   RecordAllocationUsage(allocations, recorded_persistent_buffer_data_);
 112:../src/tensorflow_lite/tensorflow/lite/micro/recording_micro_allocator.cc **** 
 113:../src/tensorflow_lite/tensorflow/lite/micro/recording_micro_allocator.cc ****   return buffer;
 114:../src/tensorflow_lite/tensorflow/lite/micro/recording_micro_allocator.cc **** }
 115:../src/tensorflow_lite/tensorflow/lite/micro/recording_micro_allocator.cc **** 
 116:../src/tensorflow_lite/tensorflow/lite/micro/recording_micro_allocator.cc **** void RecordingMicroAllocator::PrintRecordedAllocation(
 117:../src/tensorflow_lite/tensorflow/lite/micro/recording_micro_allocator.cc ****     RecordedAllocationType allocation_type, const char* allocation_name,
 118:../src/tensorflow_lite/tensorflow/lite/micro/recording_micro_allocator.cc ****     const char* allocation_description) const {
 119:../src/tensorflow_lite/tensorflow/lite/micro/recording_micro_allocator.cc **** #ifndef TF_LITE_STRIP_ERROR_STRINGS
 120:../src/tensorflow_lite/tensorflow/lite/micro/recording_micro_allocator.cc ****   RecordedAllocation allocation = GetRecordedAllocation(allocation_type);
 121:../src/tensorflow_lite/tensorflow/lite/micro/recording_micro_allocator.cc ****   if (allocation.used_bytes > 0 || allocation.requested_bytes > 0) {
 566              		.loc 2 121 0
 567 0088 063095E1 		orrs	r3, r5, r6
 568 008c 0D00000A 		beq	.L41
 569              	.LBB326:
 570              	.LBB325:
  52:../src/tensorflow_lite/tensorflow/lite/micro/recording_micro_allocator.cc ****     case RecordedAllocationType::kPersistentTfLiteTensorData:
 571              		.loc 2 52 0
 572 0090 287094E5 		ldr	r7, [r4, #40]
 573              	.LBE325:
 574              	.LBE326:
 122:../src/tensorflow_lite/tensorflow/lite/micro/recording_micro_allocator.cc ****     TF_LITE_REPORT_ERROR(
 575              		.loc 2 122 0
 576 0094 0400A0E1 		mov	r0, r4
 577 0098 FEFFFFEB 		bl	_ZNK6tflite14MicroAllocator14error_reporterEv
 578              	.LVL59:
 579 009c 00C000E3 		movw	ip, #:lower16:.LC6
 580 00a0 002000E3 		movw	r2, #:lower16:.LC4
 581 00a4 00C040E3 		movt	ip, #:upper16:.LC6
 582 00a8 001000E3 		movw	r1, #:lower16:.LC5
 583 00ac 04708DE5 		str	r7, [sp, #4]
 584 00b0 0630A0E1 		mov	r3, r6
 585 00b4 00508DE5 		str	r5, [sp]
 586 00b8 002040E3 		movt	r2, #:upper16:.LC4
 587 00bc 08C08DE5 		str	ip, [sp, #8]
 588 00c0 001040E3 		movt	r1, #:upper16:.LC5
 589 00c4 FEFFFFEB 		bl	_ZN6tflite13ErrorReporter6ReportEPKcz
 590              	.LVL60:
 591              	.L41:
 592              	.LBE322:
 593              	.LBE321:
 594              	.LBB327:
 595              	.LBB328:
 596              	.LBB329:
 597              	.LBB330:
  54:../src/tensorflow_lite/tensorflow/lite/micro/recording_micro_allocator.cc ****     case RecordedAllocationType::kPersistentTfLiteTensorQuantizationData:
 598              		.loc 2 54 0
 599 00c8 2C5094E5 		ldr	r5, [r4, #44]
 600              	.LVL61:
 601 00cc 306094E5 		ldr	r6, [r4, #48]
 602              	.LVL62:
 603              	.LBE330:
 604              	.LBE329:
 121:../src/tensorflow_lite/tensorflow/lite/micro/recording_micro_allocator.cc ****     TF_LITE_REPORT_ERROR(
 605              		.loc 2 121 0
 606 00d0 063095E1 		orrs	r3, r5, r6
 607 00d4 0D00000A 		beq	.L42
 608              	.LBB332:
 609              	.LBB331:
  54:../src/tensorflow_lite/tensorflow/lite/micro/recording_micro_allocator.cc ****     case RecordedAllocationType::kPersistentTfLiteTensorQuantizationData:
 610              		.loc 2 54 0
 611 00d8 347094E5 		ldr	r7, [r4, #52]
 612              	.LBE331:
 613              	.LBE332:
 614              		.loc 2 122 0
 615 00dc 0400A0E1 		mov	r0, r4
 616 00e0 FEFFFFEB 		bl	_ZNK6tflite14MicroAllocator14error_reporterEv
 617              	.LVL63:
 618 00e4 00C000E3 		movw	ip, #:lower16:.LC8
 619 00e8 002000E3 		movw	r2, #:lower16:.LC7
 620 00ec 00C040E3 		movt	ip, #:upper16:.LC8
 621 00f0 001000E3 		movw	r1, #:lower16:.LC5
 622 00f4 04708DE5 		str	r7, [sp, #4]
 623 00f8 0630A0E1 		mov	r3, r6
 624 00fc 00508DE5 		str	r5, [sp]
 625 0100 002040E3 		movt	r2, #:upper16:.LC7
 626 0104 08C08DE5 		str	ip, [sp, #8]
 627 0108 001040E3 		movt	r1, #:upper16:.LC5
 628 010c FEFFFFEB 		bl	_ZN6tflite13ErrorReporter6ReportEPKcz
 629              	.LVL64:
 630              	.L42:
 631              	.LBE328:
 632              	.LBE327:
 633              	.LBB333:
 634              	.LBB334:
 635              	.LBB335:
 636              	.LBB336:
  56:../src/tensorflow_lite/tensorflow/lite/micro/recording_micro_allocator.cc ****     case RecordedAllocationType::kPersistentBufferData:
 637              		.loc 2 56 0
 638 0110 385094E5 		ldr	r5, [r4, #56]
 639              	.LVL65:
 640 0114 3C6094E5 		ldr	r6, [r4, #60]
 641              	.LVL66:
 642              	.LBE336:
 643              	.LBE335:
 121:../src/tensorflow_lite/tensorflow/lite/micro/recording_micro_allocator.cc ****     TF_LITE_REPORT_ERROR(
 644              		.loc 2 121 0
 645 0118 063095E1 		orrs	r3, r5, r6
 646 011c 0D00000A 		beq	.L43
 647              	.LBB338:
 648              	.LBB337:
  56:../src/tensorflow_lite/tensorflow/lite/micro/recording_micro_allocator.cc ****     case RecordedAllocationType::kPersistentBufferData:
 649              		.loc 2 56 0
 650 0120 407094E5 		ldr	r7, [r4, #64]
 651              	.LBE337:
 652              	.LBE338:
 653              		.loc 2 122 0
 654 0124 0400A0E1 		mov	r0, r4
 655 0128 FEFFFFEB 		bl	_ZNK6tflite14MicroAllocator14error_reporterEv
 656              	.LVL67:
 657 012c 00C000E3 		movw	ip, #:lower16:.LC6
 658 0130 002000E3 		movw	r2, #:lower16:.LC9
 659 0134 00C040E3 		movt	ip, #:upper16:.LC6
 660 0138 001000E3 		movw	r1, #:lower16:.LC5
 661 013c 04708DE5 		str	r7, [sp, #4]
 662 0140 0630A0E1 		mov	r3, r6
 663 0144 00508DE5 		str	r5, [sp]
 664 0148 002040E3 		movt	r2, #:upper16:.LC9
 665 014c 08C08DE5 		str	ip, [sp, #8]
 666 0150 001040E3 		movt	r1, #:upper16:.LC5
 667 0154 FEFFFFEB 		bl	_ZN6tflite13ErrorReporter6ReportEPKcz
 668              	.LVL68:
 669              	.L43:
 670              	.LBE334:
 671              	.LBE333:
 672              	.LBB339:
 673              	.LBB340:
 674              	.LBB341:
 675              	.LBB342:
  58:../src/tensorflow_lite/tensorflow/lite/micro/recording_micro_allocator.cc ****     case RecordedAllocationType::kTfLiteTensorVariableBufferData:
 676              		.loc 2 58 0
 677 0158 445094E5 		ldr	r5, [r4, #68]
 678              	.LVL69:
 679 015c 486094E5 		ldr	r6, [r4, #72]
 680              	.LVL70:
 681              	.LBE342:
 682              	.LBE341:
 121:../src/tensorflow_lite/tensorflow/lite/micro/recording_micro_allocator.cc ****     TF_LITE_REPORT_ERROR(
 683              		.loc 2 121 0
 684 0160 063095E1 		orrs	r3, r5, r6
 685 0164 0D00000A 		beq	.L44
 686              	.LBB344:
 687              	.LBB343:
  58:../src/tensorflow_lite/tensorflow/lite/micro/recording_micro_allocator.cc ****     case RecordedAllocationType::kTfLiteTensorVariableBufferData:
 688              		.loc 2 58 0
 689 0168 4C7094E5 		ldr	r7, [r4, #76]
 690              	.LBE343:
 691              	.LBE344:
 692              		.loc 2 122 0
 693 016c 0400A0E1 		mov	r0, r4
 694 0170 FEFFFFEB 		bl	_ZNK6tflite14MicroAllocator14error_reporterEv
 695              	.LVL71:
 696 0174 00C000E3 		movw	ip, #:lower16:.LC6
 697 0178 002000E3 		movw	r2, #:lower16:.LC10
 698 017c 00C040E3 		movt	ip, #:upper16:.LC6
 699 0180 001000E3 		movw	r1, #:lower16:.LC5
 700 0184 04708DE5 		str	r7, [sp, #4]
 701 0188 0630A0E1 		mov	r3, r6
 702 018c 00508DE5 		str	r5, [sp]
 703 0190 002040E3 		movt	r2, #:upper16:.LC10
 704 0194 08C08DE5 		str	ip, [sp, #8]
 705 0198 001040E3 		movt	r1, #:upper16:.LC5
 706 019c FEFFFFEB 		bl	_ZN6tflite13ErrorReporter6ReportEPKcz
 707              	.LVL72:
 708              	.L44:
 709              	.LBE340:
 710              	.LBE339:
 711              	.LBB345:
 712              	.LBB346:
 713              	.LBB347:
 714              	.LBB348:
  60:../src/tensorflow_lite/tensorflow/lite/micro/recording_micro_allocator.cc ****     case RecordedAllocationType::kNodeAndRegistrationArray:
 715              		.loc 2 60 0
 716 01a0 505094E5 		ldr	r5, [r4, #80]
 717              	.LVL73:
 718 01a4 546094E5 		ldr	r6, [r4, #84]
 719              	.LVL74:
 720              	.LBE348:
 721              	.LBE347:
 121:../src/tensorflow_lite/tensorflow/lite/micro/recording_micro_allocator.cc ****     TF_LITE_REPORT_ERROR(
 722              		.loc 2 121 0
 723 01a8 063095E1 		orrs	r3, r5, r6
 724 01ac 0D00000A 		beq	.L45
 725              	.LBB350:
 726              	.LBB349:
  60:../src/tensorflow_lite/tensorflow/lite/micro/recording_micro_allocator.cc ****     case RecordedAllocationType::kNodeAndRegistrationArray:
 727              		.loc 2 60 0
 728 01b0 587094E5 		ldr	r7, [r4, #88]
 729              	.LBE349:
 730              	.LBE350:
 731              		.loc 2 122 0
 732 01b4 0400A0E1 		mov	r0, r4
 733 01b8 FEFFFFEB 		bl	_ZNK6tflite14MicroAllocator14error_reporterEv
 734              	.LVL75:
 735 01bc 00C000E3 		movw	ip, #:lower16:.LC6
 736 01c0 002000E3 		movw	r2, #:lower16:.LC11
 737 01c4 00C040E3 		movt	ip, #:upper16:.LC6
 738 01c8 001000E3 		movw	r1, #:lower16:.LC5
 739 01cc 04708DE5 		str	r7, [sp, #4]
 740 01d0 0630A0E1 		mov	r3, r6
 741 01d4 00508DE5 		str	r5, [sp]
 742 01d8 002040E3 		movt	r2, #:upper16:.LC11
 743 01dc 08C08DE5 		str	ip, [sp, #8]
 744 01e0 001040E3 		movt	r1, #:upper16:.LC5
 745 01e4 FEFFFFEB 		bl	_ZN6tflite13ErrorReporter6ReportEPKcz
 746              	.LVL76:
 747              	.L45:
 748              	.LBE346:
 749              	.LBE345:
 750              	.LBB351:
 751              	.LBB352:
 752              	.LBB353:
 753              	.LBB354:
  62:../src/tensorflow_lite/tensorflow/lite/micro/recording_micro_allocator.cc ****     case RecordedAllocationType::kOpData:
 754              		.loc 2 62 0
 755 01e8 5C5094E5 		ldr	r5, [r4, #92]
 756              	.LVL77:
 757 01ec 606094E5 		ldr	r6, [r4, #96]
 758              	.LVL78:
 759              	.LBE354:
 760              	.LBE353:
 121:../src/tensorflow_lite/tensorflow/lite/micro/recording_micro_allocator.cc ****     TF_LITE_REPORT_ERROR(
 761              		.loc 2 121 0
 762 01f0 063095E1 		orrs	r3, r5, r6
 763 01f4 0D00000A 		beq	.L46
 764              	.LBB356:
 765              	.LBB355:
  62:../src/tensorflow_lite/tensorflow/lite/micro/recording_micro_allocator.cc ****     case RecordedAllocationType::kOpData:
 766              		.loc 2 62 0
 767 01f8 647094E5 		ldr	r7, [r4, #100]
 768              	.LBE355:
 769              	.LBE356:
 770              		.loc 2 122 0
 771 01fc 0400A0E1 		mov	r0, r4
 772 0200 FEFFFFEB 		bl	_ZNK6tflite14MicroAllocator14error_reporterEv
 773              	.LVL79:
 774 0204 00C000E3 		movw	ip, #:lower16:.LC13
 775 0208 002000E3 		movw	r2, #:lower16:.LC12
 776 020c 00C040E3 		movt	ip, #:upper16:.LC13
 777 0210 001000E3 		movw	r1, #:lower16:.LC5
 778 0214 04708DE5 		str	r7, [sp, #4]
 779 0218 0630A0E1 		mov	r3, r6
 780 021c 00508DE5 		str	r5, [sp]
 781 0220 002040E3 		movt	r2, #:upper16:.LC12
 782 0224 08C08DE5 		str	ip, [sp, #8]
 783 0228 001040E3 		movt	r1, #:upper16:.LC5
 784 022c FEFFFFEB 		bl	_ZN6tflite13ErrorReporter6ReportEPKcz
 785              	.LVL80:
 786              	.L46:
 787              	.LBE352:
 788              	.LBE351:
 789              	.LBB357:
 790              	.LBB358:
 791              	.LBB359:
 792              	.LBB360:
  64:../src/tensorflow_lite/tensorflow/lite/micro/recording_micro_allocator.cc ****   }
 793              		.loc 2 64 0
 794 0230 685094E5 		ldr	r5, [r4, #104]
 795              	.LVL81:
 796 0234 6C6094E5 		ldr	r6, [r4, #108]
 797              	.LVL82:
 798              	.LBE360:
 799              	.LBE359:
 121:../src/tensorflow_lite/tensorflow/lite/micro/recording_micro_allocator.cc ****     TF_LITE_REPORT_ERROR(
 800              		.loc 2 121 0
 801 0238 063095E1 		orrs	r3, r5, r6
 802 023c 0D00000A 		beq	.L40
 803              	.LBB362:
 804              	.LBB361:
  64:../src/tensorflow_lite/tensorflow/lite/micro/recording_micro_allocator.cc ****   }
 805              		.loc 2 64 0
 806 0240 707094E5 		ldr	r7, [r4, #112]
 807              	.LBE361:
 808              	.LBE362:
 809              		.loc 2 122 0
 810 0244 0400A0E1 		mov	r0, r4
 811 0248 FEFFFFEB 		bl	_ZNK6tflite14MicroAllocator14error_reporterEv
 812              	.LVL83:
 813 024c 00C000E3 		movw	ip, #:lower16:.LC15
 814 0250 002000E3 		movw	r2, #:lower16:.LC14
 815 0254 00C040E3 		movt	ip, #:upper16:.LC15
 816 0258 001000E3 		movw	r1, #:lower16:.LC5
 817 025c 04708DE5 		str	r7, [sp, #4]
 818 0260 0630A0E1 		mov	r3, r6
 819 0264 00508DE5 		str	r5, [sp]
 820 0268 002040E3 		movt	r2, #:upper16:.LC14
 821 026c 08C08DE5 		str	ip, [sp, #8]
 822 0270 001040E3 		movt	r1, #:upper16:.LC5
 823 0274 FEFFFFEB 		bl	_ZN6tflite13ErrorReporter6ReportEPKcz
 824              	.LVL84:
 825              	.L40:
 826              	.LBE358:
 827              	.LBE357:
 106:../src/tensorflow_lite/tensorflow/lite/micro/recording_micro_allocator.cc **** 
 828              		.loc 2 106 0
 829 0278 14D08DE2 		add	sp, sp, #20
 830              		.cfi_def_cfa_offset 20
 831              		@ sp needed
 832 027c F080BDE8 		pop	{r4, r5, r6, r7, pc}
 833              		.cfi_endproc
 834              	.LFE6513:
 835              		.fnend
 837              		.section	.text._ZNK6tflite23RecordingMicroAllocator23PrintRecordedAllocationENS_22RecordedAllocati
 838              		.align	2
 839              		.global	_ZNK6tflite23RecordingMicroAllocator23PrintRecordedAllocationENS_22RecordedAllocationTypeE
 840              		.syntax unified
 841              		.arm
 842              		.fpu neon
 844              	_ZNK6tflite23RecordingMicroAllocator23PrintRecordedAllocationENS_22RecordedAllocationTypeEPKcS3_:
 845              		.fnstart
 846              	.LFB6515:
 118:../src/tensorflow_lite/tensorflow/lite/micro/recording_micro_allocator.cc **** #ifndef TF_LITE_STRIP_ERROR_STRINGS
 847              		.loc 2 118 0
 848              		.cfi_startproc
 849              		@ args = 0, pretend = 0, frame = 8
 850              		@ frame_needed = 0, uses_anonymous_args = 0
 851              	.LVL85:
 852 0000 F0412DE9 		push	{r4, r5, r6, r7, r8, lr}
 853              		.save {r4, r5, r6, r7, r8, lr}
 854              		.cfi_def_cfa_offset 24
 855              		.cfi_offset 4, -24
 856              		.cfi_offset 5, -20
 857              		.cfi_offset 6, -16
 858              		.cfi_offset 7, -12
 859              		.cfi_offset 8, -8
 860              		.cfi_offset 14, -4
 861 0004 0260A0E1 		mov	r6, r2
 862              		.pad #24
 863 0008 18D04DE2 		sub	sp, sp, #24
 864              		.cfi_def_cfa_offset 48
 118:../src/tensorflow_lite/tensorflow/lite/micro/recording_micro_allocator.cc **** #ifndef TF_LITE_STRIP_ERROR_STRINGS
 865              		.loc 2 118 0
 866 000c 0370A0E1 		mov	r7, r3
 867              	.LBB365:
 868              	.LBB366:
  50:../src/tensorflow_lite/tensorflow/lite/micro/recording_micro_allocator.cc ****     case RecordedAllocationType::kTfLiteEvalTensorData:
 869              		.loc 2 50 0
 870 0010 060051E3 		cmp	r1, #6
 871 0014 01F19F97 		ldrls	pc, [pc, r1, asl #2]
 872 0018 270000EA 		b	.L71
 873              	.L73:
 874 001c 74000000 		.word	.L72
 875 0020 80000000 		.word	.L74
 876 0024 8C000000 		.word	.L75
 877 0028 98000000 		.word	.L76
 878 002c A4000000 		.word	.L77
 879 0030 B0000000 		.word	.L78
 880 0034 38000000 		.word	.L79
 881              	.L79:
  64:../src/tensorflow_lite/tensorflow/lite/micro/recording_micro_allocator.cc ****   }
 882              		.loc 2 64 0
 883 0038 684080E2 		add	r4, r0, #104
 884 003c 300194E8 		ldm	r4, {r4, r5, r8}
 885              	.LVL86:
 886              	.L80:
 887              	.LBE366:
 888              	.LBE365:
 121:../src/tensorflow_lite/tensorflow/lite/micro/recording_micro_allocator.cc ****     TF_LITE_REPORT_ERROR(
 889              		.loc 2 121 0
 890 0040 043095E1 		orrs	r3, r5, r4
 891              	.LVL87:
 892 0044 0800000A 		beq	.L70
 893              		.loc 2 122 0
 894 0048 FEFFFFEB 		bl	_ZNK6tflite14MicroAllocator14error_reporterEv
 895              	.LVL88:
 896 004c 001000E3 		movw	r1, #:lower16:.LC5
 897 0050 08708DE5 		str	r7, [sp, #8]
 898 0054 04808DE5 		str	r8, [sp, #4]
 899 0058 0530A0E1 		mov	r3, r5
 900 005c 00408DE5 		str	r4, [sp]
 901 0060 0620A0E1 		mov	r2, r6
 902 0064 001040E3 		movt	r1, #:upper16:.LC5
 903 0068 FEFFFFEB 		bl	_ZN6tflite13ErrorReporter6ReportEPKcz
 904              	.LVL89:
 905              	.L70:
 123:../src/tensorflow_lite/tensorflow/lite/micro/recording_micro_allocator.cc ****         error_reporter(),
 124:../src/tensorflow_lite/tensorflow/lite/micro/recording_micro_allocator.cc ****         "[RecordingMicroAllocator] '%s' used %d bytes with alignment overhead "
 125:../src/tensorflow_lite/tensorflow/lite/micro/recording_micro_allocator.cc ****         "(requested %d bytes for %d %s)",
 126:../src/tensorflow_lite/tensorflow/lite/micro/recording_micro_allocator.cc ****         allocation_name, allocation.used_bytes, allocation.requested_bytes,
 127:../src/tensorflow_lite/tensorflow/lite/micro/recording_micro_allocator.cc ****         allocation.count, allocation_description);
 128:../src/tensorflow_lite/tensorflow/lite/micro/recording_micro_allocator.cc ****   }
 129:../src/tensorflow_lite/tensorflow/lite/micro/recording_micro_allocator.cc **** #endif
 130:../src/tensorflow_lite/tensorflow/lite/micro/recording_micro_allocator.cc **** }
 906              		.loc 2 130 0
 907 006c 18D08DE2 		add	sp, sp, #24
 908              		.cfi_remember_state
 909              		.cfi_def_cfa_offset 24
 910              		@ sp needed
 911 0070 F081BDE8 		pop	{r4, r5, r6, r7, r8, pc}
 912              	.LVL90:
 913              	.L72:
 914              		.cfi_restore_state
 915              	.LBB369:
 916              	.LBB367:
  52:../src/tensorflow_lite/tensorflow/lite/micro/recording_micro_allocator.cc ****     case RecordedAllocationType::kPersistentTfLiteTensorData:
 917              		.loc 2 52 0
 918 0074 204080E2 		add	r4, r0, #32
 919 0078 300194E8 		ldm	r4, {r4, r5, r8}
 920              	.LVL91:
 921 007c EFFFFFEA 		b	.L80
 922              	.LVL92:
 923              	.L74:
  54:../src/tensorflow_lite/tensorflow/lite/micro/recording_micro_allocator.cc ****     case RecordedAllocationType::kPersistentTfLiteTensorQuantizationData:
 924              		.loc 2 54 0
 925 0080 2C4080E2 		add	r4, r0, #44
 926 0084 300194E8 		ldm	r4, {r4, r5, r8}
 927              	.LVL93:
 928 0088 ECFFFFEA 		b	.L80
 929              	.LVL94:
 930              	.L75:
  56:../src/tensorflow_lite/tensorflow/lite/micro/recording_micro_allocator.cc ****     case RecordedAllocationType::kPersistentBufferData:
 931              		.loc 2 56 0
 932 008c 384080E2 		add	r4, r0, #56
 933 0090 300194E8 		ldm	r4, {r4, r5, r8}
 934              	.LVL95:
 935 0094 E9FFFFEA 		b	.L80
 936              	.LVL96:
 937              	.L76:
  58:../src/tensorflow_lite/tensorflow/lite/micro/recording_micro_allocator.cc ****     case RecordedAllocationType::kTfLiteTensorVariableBufferData:
 938              		.loc 2 58 0
 939 0098 444080E2 		add	r4, r0, #68
 940 009c 300194E8 		ldm	r4, {r4, r5, r8}
 941              	.LVL97:
 942 00a0 E6FFFFEA 		b	.L80
 943              	.LVL98:
 944              	.L77:
  60:../src/tensorflow_lite/tensorflow/lite/micro/recording_micro_allocator.cc ****     case RecordedAllocationType::kNodeAndRegistrationArray:
 945              		.loc 2 60 0
 946 00a4 504080E2 		add	r4, r0, #80
 947 00a8 300194E8 		ldm	r4, {r4, r5, r8}
 948              	.LVL99:
 949 00ac E3FFFFEA 		b	.L80
 950              	.LVL100:
 951              	.L78:
  62:../src/tensorflow_lite/tensorflow/lite/micro/recording_micro_allocator.cc ****     case RecordedAllocationType::kOpData:
 952              		.loc 2 62 0
 953 00b0 5C4080E2 		add	r4, r0, #92
 954 00b4 300194E8 		ldm	r4, {r4, r5, r8}
 955              	.LVL101:
 956 00b8 E0FFFFEA 		b	.L80
 957              	.LVL102:
 958              	.L71:
 959 00bc 14108DE5 		str	r1, [sp, #20]
  66:../src/tensorflow_lite/tensorflow/lite/micro/recording_micro_allocator.cc ****                        allocation_type);
 960              		.loc 2 66 0
 961 00c0 FEFFFFEB 		bl	_ZNK6tflite14MicroAllocator14error_reporterEv
 962              	.LVL103:
 963 00c4 14109DE5 		ldr	r1, [sp, #20]
 964 00c8 0120A0E1 		mov	r2, r1
 965 00cc 001000E3 		movw	r1, #:lower16:.LC0
 966 00d0 001040E3 		movt	r1, #:upper16:.LC0
 967              	.LBE367:
 968              	.LBE369:
 969              		.loc 2 130 0
 970 00d4 18D08DE2 		add	sp, sp, #24
 971              		@ sp needed
 972 00d8 F041BDE8 		pop	{r4, r5, r6, r7, r8, lr}
 973              	.LVL104:
 974              	.LBB370:
 975              	.LBB368:
  66:../src/tensorflow_lite/tensorflow/lite/micro/recording_micro_allocator.cc ****                        allocation_type);
 976              		.loc 2 66 0
 977 00dc FEFFFFEA 		b	_ZN6tflite13ErrorReporter6ReportEPKcz
 978              	.LVL105:
 979              	.LBE368:
 980              	.LBE370:
 981              		.cfi_endproc
 982              	.LFE6515:
 983              		.fnend
 985              		.section	.text._ZNK6tflite23RecordingMicroAllocator23SnapshotAllocationUsageEv,"ax",%progbits
 986              		.align	2
 987              		.global	_ZNK6tflite23RecordingMicroAllocator23SnapshotAllocationUsageEv
 988              		.syntax unified
 989              		.arm
 990              		.fpu neon
 992              	_ZNK6tflite23RecordingMicroAllocator23SnapshotAllocationUsageEv:
 993              		.fnstart
 994              	.LFB6521:
 131:../src/tensorflow_lite/tensorflow/lite/micro/recording_micro_allocator.cc **** 
 132:../src/tensorflow_lite/tensorflow/lite/micro/recording_micro_allocator.cc **** TfLiteStatus RecordingMicroAllocator::AllocateNodeAndRegistrations(
 133:../src/tensorflow_lite/tensorflow/lite/micro/recording_micro_allocator.cc ****     const Model* model, SubgraphAllocations* subgraph_allocations) {
 134:../src/tensorflow_lite/tensorflow/lite/micro/recording_micro_allocator.cc ****   RecordedAllocation allocations = SnapshotAllocationUsage();
 135:../src/tensorflow_lite/tensorflow/lite/micro/recording_micro_allocator.cc **** 
 136:../src/tensorflow_lite/tensorflow/lite/micro/recording_micro_allocator.cc ****   TfLiteStatus status =
 137:../src/tensorflow_lite/tensorflow/lite/micro/recording_micro_allocator.cc ****       MicroAllocator::AllocateNodeAndRegistrations(model, subgraph_allocations);
 138:../src/tensorflow_lite/tensorflow/lite/micro/recording_micro_allocator.cc ****   for (size_t subgraph_idx = 0; subgraph_idx < model->subgraphs()->size();
 139:../src/tensorflow_lite/tensorflow/lite/micro/recording_micro_allocator.cc ****        subgraph_idx++) {
 140:../src/tensorflow_lite/tensorflow/lite/micro/recording_micro_allocator.cc ****     RecordAllocationUsage(allocations,
 141:../src/tensorflow_lite/tensorflow/lite/micro/recording_micro_allocator.cc ****                           recorded_node_and_registration_array_data_);
 142:../src/tensorflow_lite/tensorflow/lite/micro/recording_micro_allocator.cc ****     // The allocation count in SimpleMemoryAllocator will only be 1. To provide
 143:../src/tensorflow_lite/tensorflow/lite/micro/recording_micro_allocator.cc ****     // better logging, decrement by 1 and add in the actual number of operators
 144:../src/tensorflow_lite/tensorflow/lite/micro/recording_micro_allocator.cc ****     // used in the graph:
 145:../src/tensorflow_lite/tensorflow/lite/micro/recording_micro_allocator.cc ****     // The allocation for this recording will always be 1. This is because the
 146:../src/tensorflow_lite/tensorflow/lite/micro/recording_micro_allocator.cc ****     // parent class mallocs one large allocation for the number of nodes in the
 147:../src/tensorflow_lite/tensorflow/lite/micro/recording_micro_allocator.cc ****     // graph (e.g. sizeof(NodeAndRegistration) * num_nodes).
 148:../src/tensorflow_lite/tensorflow/lite/micro/recording_micro_allocator.cc ****     // To prevent extra overhead and potential for fragmentation, manually
 149:../src/tensorflow_lite/tensorflow/lite/micro/recording_micro_allocator.cc ****     // adjust the accounting by decrementing by 1 and adding the actual number
 150:../src/tensorflow_lite/tensorflow/lite/micro/recording_micro_allocator.cc ****     // of nodes used in the graph:
 151:../src/tensorflow_lite/tensorflow/lite/micro/recording_micro_allocator.cc ****     recorded_node_and_registration_array_data_.count +=
 152:../src/tensorflow_lite/tensorflow/lite/micro/recording_micro_allocator.cc ****         model->subgraphs()->Get(subgraph_idx)->operators()->size() - 1;
 153:../src/tensorflow_lite/tensorflow/lite/micro/recording_micro_allocator.cc ****   }
 154:../src/tensorflow_lite/tensorflow/lite/micro/recording_micro_allocator.cc ****   return status;
 155:../src/tensorflow_lite/tensorflow/lite/micro/recording_micro_allocator.cc **** }
 156:../src/tensorflow_lite/tensorflow/lite/micro/recording_micro_allocator.cc **** 
 157:../src/tensorflow_lite/tensorflow/lite/micro/recording_micro_allocator.cc **** TfLiteStatus RecordingMicroAllocator::AllocateTfLiteEvalTensors(
 158:../src/tensorflow_lite/tensorflow/lite/micro/recording_micro_allocator.cc ****     const Model* model, SubgraphAllocations* subgraph_allocations) {
 159:../src/tensorflow_lite/tensorflow/lite/micro/recording_micro_allocator.cc ****   RecordedAllocation allocations = SnapshotAllocationUsage();
 160:../src/tensorflow_lite/tensorflow/lite/micro/recording_micro_allocator.cc **** 
 161:../src/tensorflow_lite/tensorflow/lite/micro/recording_micro_allocator.cc ****   TfLiteStatus status =
 162:../src/tensorflow_lite/tensorflow/lite/micro/recording_micro_allocator.cc ****       MicroAllocator::AllocateTfLiteEvalTensors(model, subgraph_allocations);
 163:../src/tensorflow_lite/tensorflow/lite/micro/recording_micro_allocator.cc ****   for (size_t subgraph_idx = 0; subgraph_idx < model->subgraphs()->size();
 164:../src/tensorflow_lite/tensorflow/lite/micro/recording_micro_allocator.cc ****        subgraph_idx++) {
 165:../src/tensorflow_lite/tensorflow/lite/micro/recording_micro_allocator.cc ****     RecordAllocationUsage(allocations, recorded_tflite_eval_tensor_data_);
 166:../src/tensorflow_lite/tensorflow/lite/micro/recording_micro_allocator.cc ****     // The allocation for this recording will always be 1. This is because the
 167:../src/tensorflow_lite/tensorflow/lite/micro/recording_micro_allocator.cc ****     // parent class mallocs one large allocation for the number of tensors in
 168:../src/tensorflow_lite/tensorflow/lite/micro/recording_micro_allocator.cc ****     // the graph (e.g. sizeof(TfLiteEvalTensor) * num_tensors). To prevent extra
 169:../src/tensorflow_lite/tensorflow/lite/micro/recording_micro_allocator.cc ****     // overhead and potential for fragmentation, manually adjust the accounting
 170:../src/tensorflow_lite/tensorflow/lite/micro/recording_micro_allocator.cc ****     // by decrementing by 1 and adding the actual number of tensors used in the
 171:../src/tensorflow_lite/tensorflow/lite/micro/recording_micro_allocator.cc ****     // graph:
 172:../src/tensorflow_lite/tensorflow/lite/micro/recording_micro_allocator.cc ****     recorded_tflite_eval_tensor_data_.count +=
 173:../src/tensorflow_lite/tensorflow/lite/micro/recording_micro_allocator.cc ****         model->subgraphs()->Get(subgraph_idx)->tensors()->size() - 1;
 174:../src/tensorflow_lite/tensorflow/lite/micro/recording_micro_allocator.cc ****   }
 175:../src/tensorflow_lite/tensorflow/lite/micro/recording_micro_allocator.cc ****   return status;
 176:../src/tensorflow_lite/tensorflow/lite/micro/recording_micro_allocator.cc **** }
 177:../src/tensorflow_lite/tensorflow/lite/micro/recording_micro_allocator.cc **** 
 178:../src/tensorflow_lite/tensorflow/lite/micro/recording_micro_allocator.cc **** TfLiteStatus RecordingMicroAllocator::AllocateVariables(
 179:../src/tensorflow_lite/tensorflow/lite/micro/recording_micro_allocator.cc ****     const SubGraph* subgraph, TfLiteEvalTensor* eval_tensors) {
 180:../src/tensorflow_lite/tensorflow/lite/micro/recording_micro_allocator.cc ****   RecordedAllocation allocations = SnapshotAllocationUsage();
 181:../src/tensorflow_lite/tensorflow/lite/micro/recording_micro_allocator.cc **** 
 182:../src/tensorflow_lite/tensorflow/lite/micro/recording_micro_allocator.cc ****   TfLiteStatus status =
 183:../src/tensorflow_lite/tensorflow/lite/micro/recording_micro_allocator.cc ****       MicroAllocator::AllocateVariables(subgraph, eval_tensors);
 184:../src/tensorflow_lite/tensorflow/lite/micro/recording_micro_allocator.cc **** 
 185:../src/tensorflow_lite/tensorflow/lite/micro/recording_micro_allocator.cc ****   RecordAllocationUsage(allocations,
 186:../src/tensorflow_lite/tensorflow/lite/micro/recording_micro_allocator.cc ****                         recorded_tflite_tensor_variable_buffer_data_);
 187:../src/tensorflow_lite/tensorflow/lite/micro/recording_micro_allocator.cc ****   return status;
 188:../src/tensorflow_lite/tensorflow/lite/micro/recording_micro_allocator.cc **** }
 189:../src/tensorflow_lite/tensorflow/lite/micro/recording_micro_allocator.cc **** 
 190:../src/tensorflow_lite/tensorflow/lite/micro/recording_micro_allocator.cc **** TfLiteTensor*
 191:../src/tensorflow_lite/tensorflow/lite/micro/recording_micro_allocator.cc **** RecordingMicroAllocator::AllocatePersistentTfLiteTensorInternal() {
 192:../src/tensorflow_lite/tensorflow/lite/micro/recording_micro_allocator.cc ****   RecordedAllocation allocations = SnapshotAllocationUsage();
 193:../src/tensorflow_lite/tensorflow/lite/micro/recording_micro_allocator.cc **** 
 194:../src/tensorflow_lite/tensorflow/lite/micro/recording_micro_allocator.cc ****   TfLiteTensor* result =
 195:../src/tensorflow_lite/tensorflow/lite/micro/recording_micro_allocator.cc ****       MicroAllocator::AllocatePersistentTfLiteTensorInternal();
 196:../src/tensorflow_lite/tensorflow/lite/micro/recording_micro_allocator.cc **** 
 197:../src/tensorflow_lite/tensorflow/lite/micro/recording_micro_allocator.cc ****   RecordAllocationUsage(allocations, recorded_persistent_tflite_tensor_data_);
 198:../src/tensorflow_lite/tensorflow/lite/micro/recording_micro_allocator.cc ****   return result;
 199:../src/tensorflow_lite/tensorflow/lite/micro/recording_micro_allocator.cc **** }
 200:../src/tensorflow_lite/tensorflow/lite/micro/recording_micro_allocator.cc **** 
 201:../src/tensorflow_lite/tensorflow/lite/micro/recording_micro_allocator.cc **** TfLiteStatus RecordingMicroAllocator::PopulateTfLiteTensorFromFlatbuffer(
 202:../src/tensorflow_lite/tensorflow/lite/micro/recording_micro_allocator.cc ****     const Model* model, TfLiteTensor* tensor, int tensor_index,
 203:../src/tensorflow_lite/tensorflow/lite/micro/recording_micro_allocator.cc ****     int subgraph_index, bool allocate_temp) {
 204:../src/tensorflow_lite/tensorflow/lite/micro/recording_micro_allocator.cc ****   RecordedAllocation allocations = SnapshotAllocationUsage();
 205:../src/tensorflow_lite/tensorflow/lite/micro/recording_micro_allocator.cc **** 
 206:../src/tensorflow_lite/tensorflow/lite/micro/recording_micro_allocator.cc ****   TfLiteStatus status = MicroAllocator::PopulateTfLiteTensorFromFlatbuffer(
 207:../src/tensorflow_lite/tensorflow/lite/micro/recording_micro_allocator.cc ****       model, tensor, tensor_index, subgraph_index, allocate_temp);
 208:../src/tensorflow_lite/tensorflow/lite/micro/recording_micro_allocator.cc **** 
 209:../src/tensorflow_lite/tensorflow/lite/micro/recording_micro_allocator.cc ****   RecordAllocationUsage(allocations,
 210:../src/tensorflow_lite/tensorflow/lite/micro/recording_micro_allocator.cc ****                         recorded_persistent_tflite_tensor_quantization_data_);
 211:../src/tensorflow_lite/tensorflow/lite/micro/recording_micro_allocator.cc ****   return status;
 212:../src/tensorflow_lite/tensorflow/lite/micro/recording_micro_allocator.cc **** }
 213:../src/tensorflow_lite/tensorflow/lite/micro/recording_micro_allocator.cc **** 
 214:../src/tensorflow_lite/tensorflow/lite/micro/recording_micro_allocator.cc **** RecordedAllocation RecordingMicroAllocator::SnapshotAllocationUsage() const {
 995              		.loc 2 214 0
 996              		.cfi_startproc
 997              		@ args = 0, pretend = 0, frame = 0
 998              		@ frame_needed = 0, uses_anonymous_args = 0
 999              	.LVL106:
 1000 0000 70402DE9 		push	{r4, r5, r6, lr}
 1001              		.save {r4, r5, r6, lr}
 1002              		.cfi_def_cfa_offset 16
 1003              		.cfi_offset 4, -16
 1004              		.cfi_offset 5, -12
 1005              		.cfi_offset 6, -8
 1006              		.cfi_offset 14, -4
 1007              		.loc 2 214 0
 1008 0004 0150A0E1 		mov	r5, r1
 1009 0008 0040A0E1 		mov	r4, r0
 215:../src/tensorflow_lite/tensorflow/lite/micro/recording_micro_allocator.cc ****   return {/*requested_bytes=*/recording_memory_allocator_->GetRequestedBytes(),
 1010              		.loc 2 215 0
 1011 000c 1C0091E5 		ldr	r0, [r1, #28]
 1012              	.LVL107:
 1013 0010 FEFFFFEB 		bl	_ZNK6tflite30RecordingSimpleMemoryAllocator17GetRequestedBytesEv
 1014              	.LVL108:
 216:../src/tensorflow_lite/tensorflow/lite/micro/recording_micro_allocator.cc ****           /*used_bytes=*/recording_memory_allocator_->GetUsedBytes(),
 217:../src/tensorflow_lite/tensorflow/lite/micro/recording_micro_allocator.cc ****           /*count=*/recording_memory_allocator_->GetAllocatedCount()};
 1015              		.loc 2 217 0
 1016 0014 000084E5 		str	r0, [r4]
 216:../src/tensorflow_lite/tensorflow/lite/micro/recording_micro_allocator.cc ****           /*used_bytes=*/recording_memory_allocator_->GetUsedBytes(),
 1017              		.loc 2 216 0
 1018 0018 1C0095E5 		ldr	r0, [r5, #28]
 1019 001c FEFFFFEB 		bl	_ZNK6tflite30RecordingSimpleMemoryAllocator12GetUsedBytesEv
 1020              	.LVL109:
 1021              		.loc 2 217 0
 1022 0020 040084E5 		str	r0, [r4, #4]
 1023 0024 1C0095E5 		ldr	r0, [r5, #28]
 1024 0028 FEFFFFEB 		bl	_ZNK6tflite30RecordingSimpleMemoryAllocator17GetAllocatedCountEv
 1025              	.LVL110:
 1026 002c 080084E5 		str	r0, [r4, #8]
 218:../src/tensorflow_lite/tensorflow/lite/micro/recording_micro_allocator.cc **** }
 1027              		.loc 2 218 0
 1028 0030 0400A0E1 		mov	r0, r4
 1029 0034 7080BDE8 		pop	{r4, r5, r6, pc}
 1030              		.cfi_endproc
 1031              	.LFE6521:
 1032              		.fnend
 1034              		.section	.text._ZN6tflite23RecordingMicroAllocator21RecordAllocationUsageERKNS_18RecordedAllocatio
 1035              		.align	2
 1036              		.global	_ZN6tflite23RecordingMicroAllocator21RecordAllocationUsageERKNS_18RecordedAllocationERS1_
 1037              		.syntax unified
 1038              		.arm
 1039              		.fpu neon
 1041              	_ZN6tflite23RecordingMicroAllocator21RecordAllocationUsageERKNS_18RecordedAllocationERS1_:
 1042              		.fnstart
 1043              	.LFB6522:
 219:../src/tensorflow_lite/tensorflow/lite/micro/recording_micro_allocator.cc **** 
 220:../src/tensorflow_lite/tensorflow/lite/micro/recording_micro_allocator.cc **** void RecordingMicroAllocator::RecordAllocationUsage(
 221:../src/tensorflow_lite/tensorflow/lite/micro/recording_micro_allocator.cc ****     const RecordedAllocation& snapshotted_allocation,
 222:../src/tensorflow_lite/tensorflow/lite/micro/recording_micro_allocator.cc ****     RecordedAllocation& recorded_allocation) {
 1044              		.loc 2 222 0
 1045              		.cfi_startproc
 1046              		@ args = 0, pretend = 0, frame = 0
 1047              		@ frame_needed = 0, uses_anonymous_args = 0
 1048              	.LVL111:
 1049 0000 70402DE9 		push	{r4, r5, r6, lr}
 1050              		.save {r4, r5, r6, lr}
 1051              		.cfi_def_cfa_offset 16
 1052              		.cfi_offset 4, -16
 1053              		.cfi_offset 5, -12
 1054              		.cfi_offset 6, -8
 1055              		.cfi_offset 14, -4
 1056              		.loc 2 222 0
 1057 0004 0240A0E1 		mov	r4, r2
 1058 0008 0150A0E1 		mov	r5, r1
 1059 000c 0060A0E1 		mov	r6, r0
 223:../src/tensorflow_lite/tensorflow/lite/micro/recording_micro_allocator.cc ****   recorded_allocation.requested_bytes +=
 224:../src/tensorflow_lite/tensorflow/lite/micro/recording_micro_allocator.cc ****       recording_memory_allocator_->GetRequestedBytes() -
 1060              		.loc 2 224 0
 1061 0010 1C0090E5 		ldr	r0, [r0, #28]
 1062              	.LVL112:
 1063 0014 FEFFFFEB 		bl	_ZNK6tflite30RecordingSimpleMemoryAllocator17GetRequestedBytesEv
 1064              	.LVL113:
 225:../src/tensorflow_lite/tensorflow/lite/micro/recording_micro_allocator.cc ****       snapshotted_allocation.requested_bytes;
 1065              		.loc 2 225 0
 1066 0018 002095E5 		ldr	r2, [r5]
 1067 001c 003094E5 		ldr	r3, [r4]
 1068 0020 023043E0 		sub	r3, r3, r2
 1069 0024 003083E0 		add	r3, r3, r0
 226:../src/tensorflow_lite/tensorflow/lite/micro/recording_micro_allocator.cc ****   recorded_allocation.used_bytes +=
 227:../src/tensorflow_lite/tensorflow/lite/micro/recording_micro_allocator.cc ****       recording_memory_allocator_->GetUsedBytes() -
 1070              		.loc 2 227 0
 1071 0028 1C0096E5 		ldr	r0, [r6, #28]
 223:../src/tensorflow_lite/tensorflow/lite/micro/recording_micro_allocator.cc ****       recording_memory_allocator_->GetRequestedBytes() -
 1072              		.loc 2 223 0
 1073 002c 003084E5 		str	r3, [r4]
 1074              		.loc 2 227 0
 1075 0030 FEFFFFEB 		bl	_ZNK6tflite30RecordingSimpleMemoryAllocator12GetUsedBytesEv
 1076              	.LVL114:
 228:../src/tensorflow_lite/tensorflow/lite/micro/recording_micro_allocator.cc ****       snapshotted_allocation.used_bytes;
 1077              		.loc 2 228 0
 1078 0034 042095E5 		ldr	r2, [r5, #4]
 1079 0038 043094E5 		ldr	r3, [r4, #4]
 1080 003c 023043E0 		sub	r3, r3, r2
 1081 0040 003083E0 		add	r3, r3, r0
 229:../src/tensorflow_lite/tensorflow/lite/micro/recording_micro_allocator.cc ****   recorded_allocation.count +=
 230:../src/tensorflow_lite/tensorflow/lite/micro/recording_micro_allocator.cc ****       recording_memory_allocator_->GetAllocatedCount() -
 1082              		.loc 2 230 0
 1083 0044 1C0096E5 		ldr	r0, [r6, #28]
 226:../src/tensorflow_lite/tensorflow/lite/micro/recording_micro_allocator.cc ****       recording_memory_allocator_->GetUsedBytes() -
 1084              		.loc 2 226 0
 1085 0048 043084E5 		str	r3, [r4, #4]
 1086              		.loc 2 230 0
 1087 004c FEFFFFEB 		bl	_ZNK6tflite30RecordingSimpleMemoryAllocator17GetAllocatedCountEv
 1088              	.LVL115:
 231:../src/tensorflow_lite/tensorflow/lite/micro/recording_micro_allocator.cc ****       snapshotted_allocation.count;
 1089              		.loc 2 231 0
 1090 0050 082095E5 		ldr	r2, [r5, #8]
 1091 0054 083094E5 		ldr	r3, [r4, #8]
 1092 0058 023043E0 		sub	r3, r3, r2
 1093 005c 000083E0 		add	r0, r3, r0
 229:../src/tensorflow_lite/tensorflow/lite/micro/recording_micro_allocator.cc ****   recorded_allocation.count +=
 1094              		.loc 2 229 0
 1095 0060 080084E5 		str	r0, [r4, #8]
 1096 0064 7080BDE8 		pop	{r4, r5, r6, pc}
 1097              		.cfi_endproc
 1098              	.LFE6522:
 1099              		.fnend
 1101              		.section	.text._ZN6tflite23RecordingMicroAllocator24AllocatePersistentBufferEj,"ax",%progbits
 1102              		.align	2
 1103              		.global	_ZN6tflite23RecordingMicroAllocator24AllocatePersistentBufferEj
 1104              		.syntax unified
 1105              		.arm
 1106              		.fpu neon
 1108              	_ZN6tflite23RecordingMicroAllocator24AllocatePersistentBufferEj:
 1109              		.fnstart
 1110              	.LFB6514:
 108:../src/tensorflow_lite/tensorflow/lite/micro/recording_micro_allocator.cc ****   RecordedAllocation allocations = SnapshotAllocationUsage();
 1111              		.loc 2 108 0
 1112              		.cfi_startproc
 1113              		@ args = 0, pretend = 0, frame = 0
 1114              		@ frame_needed = 0, uses_anonymous_args = 0
 1115              	.LVL116:
 1116 0000 F0412DE9 		push	{r4, r5, r6, r7, r8, lr}
 1117              		.save {r4, r5, r6, r7, r8, lr}
 1118              		.cfi_def_cfa_offset 24
 1119              		.cfi_offset 4, -24
 1120              		.cfi_offset 5, -20
 1121              		.cfi_offset 6, -16
 1122              		.cfi_offset 7, -12
 1123              		.cfi_offset 8, -8
 1124              		.cfi_offset 14, -4
 108:../src/tensorflow_lite/tensorflow/lite/micro/recording_micro_allocator.cc ****   RecordedAllocation allocations = SnapshotAllocationUsage();
 1125              		.loc 2 108 0
 1126 0004 0040A0E1 		mov	r4, r0
 1127              	.LVL117:
 1128              	.LBB375:
 1129              	.LBB376:
 215:../src/tensorflow_lite/tensorflow/lite/micro/recording_micro_allocator.cc ****           /*used_bytes=*/recording_memory_allocator_->GetUsedBytes(),
 1130              		.loc 2 215 0
 1131 0008 1C0090E5 		ldr	r0, [r0, #28]
 1132              	.LVL118:
 1133              	.LBE376:
 1134              	.LBE375:
 108:../src/tensorflow_lite/tensorflow/lite/micro/recording_micro_allocator.cc ****   RecordedAllocation allocations = SnapshotAllocationUsage();
 1135              		.loc 2 108 0
 1136 000c 0160A0E1 		mov	r6, r1
 1137              	.LBB379:
 1138              	.LBB377:
 215:../src/tensorflow_lite/tensorflow/lite/micro/recording_micro_allocator.cc ****           /*used_bytes=*/recording_memory_allocator_->GetUsedBytes(),
 1139              		.loc 2 215 0
 1140 0010 FEFFFFEB 		bl	_ZNK6tflite30RecordingSimpleMemoryAllocator17GetRequestedBytesEv
 1141              	.LVL119:
 1142 0014 0080A0E1 		mov	r8, r0
 216:../src/tensorflow_lite/tensorflow/lite/micro/recording_micro_allocator.cc ****           /*count=*/recording_memory_allocator_->GetAllocatedCount()};
 1143              		.loc 2 216 0
 1144 0018 1C0094E5 		ldr	r0, [r4, #28]
 1145 001c FEFFFFEB 		bl	_ZNK6tflite30RecordingSimpleMemoryAllocator12GetUsedBytesEv
 1146              	.LVL120:
 1147 0020 0070A0E1 		mov	r7, r0
 217:../src/tensorflow_lite/tensorflow/lite/micro/recording_micro_allocator.cc **** }
 1148              		.loc 2 217 0
 1149 0024 1C0094E5 		ldr	r0, [r4, #28]
 1150 0028 FEFFFFEB 		bl	_ZNK6tflite30RecordingSimpleMemoryAllocator17GetAllocatedCountEv
 1151              	.LVL121:
 1152              	.LBE377:
 1153              	.LBE379:
 110:../src/tensorflow_lite/tensorflow/lite/micro/recording_micro_allocator.cc ****   RecordAllocationUsage(allocations, recorded_persistent_buffer_data_);
 1154              		.loc 2 110 0
 1155 002c 0610A0E1 		mov	r1, r6
 1156              	.LBB380:
 1157              	.LBB378:
 217:../src/tensorflow_lite/tensorflow/lite/micro/recording_micro_allocator.cc **** }
 1158              		.loc 2 217 0
 1159 0030 0050A0E1 		mov	r5, r0
 1160              	.LVL122:
 1161              	.LBE378:
 1162              	.LBE380:
 110:../src/tensorflow_lite/tensorflow/lite/micro/recording_micro_allocator.cc ****   RecordAllocationUsage(allocations, recorded_persistent_buffer_data_);
 1163              		.loc 2 110 0
 1164 0034 0400A0E1 		mov	r0, r4
 1165 0038 FEFFFFEB 		bl	_ZN6tflite14MicroAllocator24AllocatePersistentBufferEj
 1166              	.LVL123:
 1167 003c 0060A0E1 		mov	r6, r0
 1168              	.LVL124:
 1169              	.LBB381:
 1170              	.LBB382:
 224:../src/tensorflow_lite/tensorflow/lite/micro/recording_micro_allocator.cc ****       snapshotted_allocation.requested_bytes;
 1171              		.loc 2 224 0
 1172 0040 1C0094E5 		ldr	r0, [r4, #28]
 1173              	.LVL125:
 1174 0044 FEFFFFEB 		bl	_ZNK6tflite30RecordingSimpleMemoryAllocator17GetRequestedBytesEv
 1175              	.LVL126:
 225:../src/tensorflow_lite/tensorflow/lite/micro/recording_micro_allocator.cc ****   recorded_allocation.used_bytes +=
 1176              		.loc 2 225 0
 1177 0048 441094E5 		ldr	r1, [r4, #68]
 1178 004c 011080E0 		add	r1, r0, r1
 227:../src/tensorflow_lite/tensorflow/lite/micro/recording_micro_allocator.cc ****       snapshotted_allocation.used_bytes;
 1179              		.loc 2 227 0
 1180 0050 1C0094E5 		ldr	r0, [r4, #28]
 225:../src/tensorflow_lite/tensorflow/lite/micro/recording_micro_allocator.cc ****   recorded_allocation.used_bytes +=
 1181              		.loc 2 225 0
 1182 0054 081041E0 		sub	r1, r1, r8
 223:../src/tensorflow_lite/tensorflow/lite/micro/recording_micro_allocator.cc ****       recording_memory_allocator_->GetRequestedBytes() -
 1183              		.loc 2 223 0
 1184 0058 441084E5 		str	r1, [r4, #68]
 227:../src/tensorflow_lite/tensorflow/lite/micro/recording_micro_allocator.cc ****       snapshotted_allocation.used_bytes;
 1185              		.loc 2 227 0
 1186 005c FEFFFFEB 		bl	_ZNK6tflite30RecordingSimpleMemoryAllocator12GetUsedBytesEv
 1187              	.LVL127:
 228:../src/tensorflow_lite/tensorflow/lite/micro/recording_micro_allocator.cc ****   recorded_allocation.count +=
 1188              		.loc 2 228 0
 1189 0060 482094E5 		ldr	r2, [r4, #72]
 1190 0064 022080E0 		add	r2, r0, r2
 230:../src/tensorflow_lite/tensorflow/lite/micro/recording_micro_allocator.cc ****       snapshotted_allocation.count;
 1191              		.loc 2 230 0
 1192 0068 1C0094E5 		ldr	r0, [r4, #28]
 228:../src/tensorflow_lite/tensorflow/lite/micro/recording_micro_allocator.cc ****   recorded_allocation.count +=
 1193              		.loc 2 228 0
 1194 006c 072042E0 		sub	r2, r2, r7
 226:../src/tensorflow_lite/tensorflow/lite/micro/recording_micro_allocator.cc ****       recording_memory_allocator_->GetUsedBytes() -
 1195              		.loc 2 226 0
 1196 0070 482084E5 		str	r2, [r4, #72]
 230:../src/tensorflow_lite/tensorflow/lite/micro/recording_micro_allocator.cc ****       snapshotted_allocation.count;
 1197              		.loc 2 230 0
 1198 0074 FEFFFFEB 		bl	_ZNK6tflite30RecordingSimpleMemoryAllocator17GetAllocatedCountEv
 1199              	.LVL128:
 1200              		.loc 2 231 0
 1201 0078 4C3094E5 		ldr	r3, [r4, #76]
 1202 007c 033080E0 		add	r3, r0, r3
 1203              	.LBE382:
 1204              	.LBE381:
 114:../src/tensorflow_lite/tensorflow/lite/micro/recording_micro_allocator.cc **** 
 1205              		.loc 2 114 0
 1206 0080 0600A0E1 		mov	r0, r6
 1207              	.LBB384:
 1208              	.LBB383:
 1209              		.loc 2 231 0
 1210 0084 053043E0 		sub	r3, r3, r5
 229:../src/tensorflow_lite/tensorflow/lite/micro/recording_micro_allocator.cc ****       recording_memory_allocator_->GetAllocatedCount() -
 1211              		.loc 2 229 0
 1212 0088 4C3084E5 		str	r3, [r4, #76]
 1213              	.LVL129:
 1214              	.LBE383:
 1215              	.LBE384:
 114:../src/tensorflow_lite/tensorflow/lite/micro/recording_micro_allocator.cc **** 
 1216              		.loc 2 114 0
 1217 008c F081BDE8 		pop	{r4, r5, r6, r7, r8, pc}
 1218              		.cfi_endproc
 1219              	.LFE6514:
 1220              		.fnend
 1222              		.section	.text._ZN6tflite23RecordingMicroAllocator28AllocateNodeAndRegistrationsEPKNS_5ModelEPNS_1
 1223              		.align	2
 1224              		.global	_ZN6tflite23RecordingMicroAllocator28AllocateNodeAndRegistrationsEPKNS_5ModelEPNS_19Subgra
 1225              		.syntax unified
 1226              		.arm
 1227              		.fpu neon
 1229              	_ZN6tflite23RecordingMicroAllocator28AllocateNodeAndRegistrationsEPKNS_5ModelEPNS_19SubgraphAllocat
 1230              		.fnstart
 1231              	.LFB6516:
 133:../src/tensorflow_lite/tensorflow/lite/micro/recording_micro_allocator.cc ****   RecordedAllocation allocations = SnapshotAllocationUsage();
 1232              		.loc 2 133 0
 1233              		.cfi_startproc
 1234              		@ args = 0, pretend = 0, frame = 0
 1235              		@ frame_needed = 0, uses_anonymous_args = 0
 1236              	.LVL130:
 1237 0000 F0472DE9 		push	{r4, r5, r6, r7, r8, r9, r10, lr}
 1238              		.save {r4, r5, r6, r7, r8, r9, r10, lr}
 1239              		.cfi_def_cfa_offset 32
 1240              		.cfi_offset 4, -32
 1241              		.cfi_offset 5, -28
 1242              		.cfi_offset 6, -24
 1243              		.cfi_offset 7, -20
 1244              		.cfi_offset 8, -16
 1245              		.cfi_offset 9, -12
 1246              		.cfi_offset 10, -8
 1247              		.cfi_offset 14, -4
 133:../src/tensorflow_lite/tensorflow/lite/micro/recording_micro_allocator.cc ****   RecordedAllocation allocations = SnapshotAllocationUsage();
 1248              		.loc 2 133 0
 1249 0004 0040A0E1 		mov	r4, r0
 1250              	.LVL131:
 1251              	.LBB452:
 1252              	.LBB453:
 215:../src/tensorflow_lite/tensorflow/lite/micro/recording_micro_allocator.cc ****           /*used_bytes=*/recording_memory_allocator_->GetUsedBytes(),
 1253              		.loc 2 215 0
 1254 0008 1C0090E5 		ldr	r0, [r0, #28]
 1255              	.LVL132:
 1256              	.LBE453:
 1257              	.LBE452:
 133:../src/tensorflow_lite/tensorflow/lite/micro/recording_micro_allocator.cc ****   RecordedAllocation allocations = SnapshotAllocationUsage();
 1258              		.loc 2 133 0
 1259 000c 0190A0E1 		mov	r9, r1
 1260 0010 0280A0E1 		mov	r8, r2
 137:../src/tensorflow_lite/tensorflow/lite/micro/recording_micro_allocator.cc ****   for (size_t subgraph_idx = 0; subgraph_idx < model->subgraphs()->size();
 1261              		.loc 2 137 0
 1262 0014 00A0A0E3 		mov	r10, #0
 1263              	.LBB456:
 1264              	.LBB454:
 215:../src/tensorflow_lite/tensorflow/lite/micro/recording_micro_allocator.cc ****           /*used_bytes=*/recording_memory_allocator_->GetUsedBytes(),
 1265              		.loc 2 215 0
 1266 0018 FEFFFFEB 		bl	_ZNK6tflite30RecordingSimpleMemoryAllocator17GetRequestedBytesEv
 1267              	.LVL133:
 1268 001c 0070A0E1 		mov	r7, r0
 216:../src/tensorflow_lite/tensorflow/lite/micro/recording_micro_allocator.cc ****           /*count=*/recording_memory_allocator_->GetAllocatedCount()};
 1269              		.loc 2 216 0
 1270 0020 1C0094E5 		ldr	r0, [r4, #28]
 1271 0024 FEFFFFEB 		bl	_ZNK6tflite30RecordingSimpleMemoryAllocator12GetUsedBytesEv
 1272              	.LVL134:
 1273 0028 0060A0E1 		mov	r6, r0
 217:../src/tensorflow_lite/tensorflow/lite/micro/recording_micro_allocator.cc **** }
 1274              		.loc 2 217 0
 1275 002c 1C0094E5 		ldr	r0, [r4, #28]
 1276 0030 FEFFFFEB 		bl	_ZNK6tflite30RecordingSimpleMemoryAllocator17GetAllocatedCountEv
 1277              	.LVL135:
 1278              	.LBE454:
 1279              	.LBE456:
 137:../src/tensorflow_lite/tensorflow/lite/micro/recording_micro_allocator.cc ****   for (size_t subgraph_idx = 0; subgraph_idx < model->subgraphs()->size();
 1280              		.loc 2 137 0
 1281 0034 0820A0E1 		mov	r2, r8
 1282 0038 0910A0E1 		mov	r1, r9
 1283              	.LBB457:
 1284              	.LBB455:
 217:../src/tensorflow_lite/tensorflow/lite/micro/recording_micro_allocator.cc **** }
 1285              		.loc 2 217 0
 1286 003c 0050A0E1 		mov	r5, r0
 1287              	.LVL136:
 1288              	.LBE455:
 1289              	.LBE457:
 137:../src/tensorflow_lite/tensorflow/lite/micro/recording_micro_allocator.cc ****   for (size_t subgraph_idx = 0; subgraph_idx < model->subgraphs()->size();
 1290              		.loc 2 137 0
 1291 0040 0400A0E1 		mov	r0, r4
 1292 0044 FEFFFFEB 		bl	_ZN6tflite14MicroAllocator28AllocateNodeAndRegistrationsEPKNS_5ModelEPNS_19SubgraphAllocationsE
 1293              	.LVL137:
 1294 0048 002099E5 		ldr	r2, [r9]
 1295 004c 0080A0E1 		mov	r8, r0
 1296              	.LVL138:
 1297 0050 022049E0 		sub	r2, r9, r2
 1298 0054 B010D2E1 		ldrh	r1, [r2]
 1299 0058 3A0000EA 		b	.L98
 1300              	.LVL139:
 1301              	.L111:
 1302              	.LBB458:
 1303              	.LBB459:
 1304              	.LBB460:
 1305              	.LBB461:
 1306              	.LBB462:
 1307              	.LBB463:
 1308              	.LBB464:
 1309              	.LBB465:
 1310              	.LBB466:
 1311              		.file 3 "C:/Renesas/e2studio_2021_01_workspace_RZA2M_ANPR/ANPR_RZA2M_GR_MANGO/src/tensorflow_lite/
   1:C:/Renesas/e2studio_2021_01_workspace_RZA2M_ANPR/ANPR_RZA2M_GR_MANGO/src/tensorflow_lite/third_party/flatbuffers/include/flatbuffers\base.h **** #ifndef FLATBUFFERS_BASE_H_
   2:C:/Renesas/e2studio_2021_01_workspace_RZA2M_ANPR/ANPR_RZA2M_GR_MANGO/src/tensorflow_lite/third_party/flatbuffers/include/flatbuffers\base.h **** #define FLATBUFFERS_BASE_H_
   3:C:/Renesas/e2studio_2021_01_workspace_RZA2M_ANPR/ANPR_RZA2M_GR_MANGO/src/tensorflow_lite/third_party/flatbuffers/include/flatbuffers\base.h **** 
   4:C:/Renesas/e2studio_2021_01_workspace_RZA2M_ANPR/ANPR_RZA2M_GR_MANGO/src/tensorflow_lite/third_party/flatbuffers/include/flatbuffers\base.h **** // clang-format off
   5:C:/Renesas/e2studio_2021_01_workspace_RZA2M_ANPR/ANPR_RZA2M_GR_MANGO/src/tensorflow_lite/third_party/flatbuffers/include/flatbuffers\base.h **** 
   6:C:/Renesas/e2studio_2021_01_workspace_RZA2M_ANPR/ANPR_RZA2M_GR_MANGO/src/tensorflow_lite/third_party/flatbuffers/include/flatbuffers\base.h **** // If activate should be declared and included first.
   7:C:/Renesas/e2studio_2021_01_workspace_RZA2M_ANPR/ANPR_RZA2M_GR_MANGO/src/tensorflow_lite/third_party/flatbuffers/include/flatbuffers\base.h **** #if defined(FLATBUFFERS_MEMORY_LEAK_TRACKING) && \
   8:C:/Renesas/e2studio_2021_01_workspace_RZA2M_ANPR/ANPR_RZA2M_GR_MANGO/src/tensorflow_lite/third_party/flatbuffers/include/flatbuffers\base.h ****     defined(_MSC_VER) && defined(_DEBUG)
   9:C:/Renesas/e2studio_2021_01_workspace_RZA2M_ANPR/ANPR_RZA2M_GR_MANGO/src/tensorflow_lite/third_party/flatbuffers/include/flatbuffers\base.h ****   // The _CRTDBG_MAP_ALLOC inside <crtdbg.h> will replace
  10:C:/Renesas/e2studio_2021_01_workspace_RZA2M_ANPR/ANPR_RZA2M_GR_MANGO/src/tensorflow_lite/third_party/flatbuffers/include/flatbuffers\base.h ****   // calloc/free (etc) to its debug version using #define directives.
  11:C:/Renesas/e2studio_2021_01_workspace_RZA2M_ANPR/ANPR_RZA2M_GR_MANGO/src/tensorflow_lite/third_party/flatbuffers/include/flatbuffers\base.h ****   #define _CRTDBG_MAP_ALLOC
  12:C:/Renesas/e2studio_2021_01_workspace_RZA2M_ANPR/ANPR_RZA2M_GR_MANGO/src/tensorflow_lite/third_party/flatbuffers/include/flatbuffers\base.h ****   #include <stdlib.h>
  13:C:/Renesas/e2studio_2021_01_workspace_RZA2M_ANPR/ANPR_RZA2M_GR_MANGO/src/tensorflow_lite/third_party/flatbuffers/include/flatbuffers\base.h ****   #include <crtdbg.h>
  14:C:/Renesas/e2studio_2021_01_workspace_RZA2M_ANPR/ANPR_RZA2M_GR_MANGO/src/tensorflow_lite/third_party/flatbuffers/include/flatbuffers\base.h ****   // Replace operator new by trace-enabled version.
  15:C:/Renesas/e2studio_2021_01_workspace_RZA2M_ANPR/ANPR_RZA2M_GR_MANGO/src/tensorflow_lite/third_party/flatbuffers/include/flatbuffers\base.h ****   #define DEBUG_NEW new(_NORMAL_BLOCK, __FILE__, __LINE__)
  16:C:/Renesas/e2studio_2021_01_workspace_RZA2M_ANPR/ANPR_RZA2M_GR_MANGO/src/tensorflow_lite/third_party/flatbuffers/include/flatbuffers\base.h ****   #define new DEBUG_NEW
  17:C:/Renesas/e2studio_2021_01_workspace_RZA2M_ANPR/ANPR_RZA2M_GR_MANGO/src/tensorflow_lite/third_party/flatbuffers/include/flatbuffers\base.h **** #endif
  18:C:/Renesas/e2studio_2021_01_workspace_RZA2M_ANPR/ANPR_RZA2M_GR_MANGO/src/tensorflow_lite/third_party/flatbuffers/include/flatbuffers\base.h **** 
  19:C:/Renesas/e2studio_2021_01_workspace_RZA2M_ANPR/ANPR_RZA2M_GR_MANGO/src/tensorflow_lite/third_party/flatbuffers/include/flatbuffers\base.h **** #if !defined(FLATBUFFERS_ASSERT)
  20:C:/Renesas/e2studio_2021_01_workspace_RZA2M_ANPR/ANPR_RZA2M_GR_MANGO/src/tensorflow_lite/third_party/flatbuffers/include/flatbuffers\base.h **** #include <assert.h>
  21:C:/Renesas/e2studio_2021_01_workspace_RZA2M_ANPR/ANPR_RZA2M_GR_MANGO/src/tensorflow_lite/third_party/flatbuffers/include/flatbuffers\base.h **** #define FLATBUFFERS_ASSERT assert
  22:C:/Renesas/e2studio_2021_01_workspace_RZA2M_ANPR/ANPR_RZA2M_GR_MANGO/src/tensorflow_lite/third_party/flatbuffers/include/flatbuffers\base.h **** #elif defined(FLATBUFFERS_ASSERT_INCLUDE)
  23:C:/Renesas/e2studio_2021_01_workspace_RZA2M_ANPR/ANPR_RZA2M_GR_MANGO/src/tensorflow_lite/third_party/flatbuffers/include/flatbuffers\base.h **** // Include file with forward declaration
  24:C:/Renesas/e2studio_2021_01_workspace_RZA2M_ANPR/ANPR_RZA2M_GR_MANGO/src/tensorflow_lite/third_party/flatbuffers/include/flatbuffers\base.h **** #include FLATBUFFERS_ASSERT_INCLUDE
  25:C:/Renesas/e2studio_2021_01_workspace_RZA2M_ANPR/ANPR_RZA2M_GR_MANGO/src/tensorflow_lite/third_party/flatbuffers/include/flatbuffers\base.h **** #endif
  26:C:/Renesas/e2studio_2021_01_workspace_RZA2M_ANPR/ANPR_RZA2M_GR_MANGO/src/tensorflow_lite/third_party/flatbuffers/include/flatbuffers\base.h **** 
  27:C:/Renesas/e2studio_2021_01_workspace_RZA2M_ANPR/ANPR_RZA2M_GR_MANGO/src/tensorflow_lite/third_party/flatbuffers/include/flatbuffers\base.h **** #ifndef ARDUINO
  28:C:/Renesas/e2studio_2021_01_workspace_RZA2M_ANPR/ANPR_RZA2M_GR_MANGO/src/tensorflow_lite/third_party/flatbuffers/include/flatbuffers\base.h **** #include <cstdint>
  29:C:/Renesas/e2studio_2021_01_workspace_RZA2M_ANPR/ANPR_RZA2M_GR_MANGO/src/tensorflow_lite/third_party/flatbuffers/include/flatbuffers\base.h **** #endif
  30:C:/Renesas/e2studio_2021_01_workspace_RZA2M_ANPR/ANPR_RZA2M_GR_MANGO/src/tensorflow_lite/third_party/flatbuffers/include/flatbuffers\base.h **** 
  31:C:/Renesas/e2studio_2021_01_workspace_RZA2M_ANPR/ANPR_RZA2M_GR_MANGO/src/tensorflow_lite/third_party/flatbuffers/include/flatbuffers\base.h **** #include <cstddef>
  32:C:/Renesas/e2studio_2021_01_workspace_RZA2M_ANPR/ANPR_RZA2M_GR_MANGO/src/tensorflow_lite/third_party/flatbuffers/include/flatbuffers\base.h **** #include <cstdlib>
  33:C:/Renesas/e2studio_2021_01_workspace_RZA2M_ANPR/ANPR_RZA2M_GR_MANGO/src/tensorflow_lite/third_party/flatbuffers/include/flatbuffers\base.h **** #include <cstring>
  34:C:/Renesas/e2studio_2021_01_workspace_RZA2M_ANPR/ANPR_RZA2M_GR_MANGO/src/tensorflow_lite/third_party/flatbuffers/include/flatbuffers\base.h **** 
  35:C:/Renesas/e2studio_2021_01_workspace_RZA2M_ANPR/ANPR_RZA2M_GR_MANGO/src/tensorflow_lite/third_party/flatbuffers/include/flatbuffers\base.h **** #if defined(ARDUINO) && !defined(ARDUINOSTL_M_H)
  36:C:/Renesas/e2studio_2021_01_workspace_RZA2M_ANPR/ANPR_RZA2M_GR_MANGO/src/tensorflow_lite/third_party/flatbuffers/include/flatbuffers\base.h ****   #include <utility.h>
  37:C:/Renesas/e2studio_2021_01_workspace_RZA2M_ANPR/ANPR_RZA2M_GR_MANGO/src/tensorflow_lite/third_party/flatbuffers/include/flatbuffers\base.h **** #else
  38:C:/Renesas/e2studio_2021_01_workspace_RZA2M_ANPR/ANPR_RZA2M_GR_MANGO/src/tensorflow_lite/third_party/flatbuffers/include/flatbuffers\base.h ****   #include <utility>
  39:C:/Renesas/e2studio_2021_01_workspace_RZA2M_ANPR/ANPR_RZA2M_GR_MANGO/src/tensorflow_lite/third_party/flatbuffers/include/flatbuffers\base.h **** #endif
  40:C:/Renesas/e2studio_2021_01_workspace_RZA2M_ANPR/ANPR_RZA2M_GR_MANGO/src/tensorflow_lite/third_party/flatbuffers/include/flatbuffers\base.h **** 
  41:C:/Renesas/e2studio_2021_01_workspace_RZA2M_ANPR/ANPR_RZA2M_GR_MANGO/src/tensorflow_lite/third_party/flatbuffers/include/flatbuffers\base.h **** #include <string>
  42:C:/Renesas/e2studio_2021_01_workspace_RZA2M_ANPR/ANPR_RZA2M_GR_MANGO/src/tensorflow_lite/third_party/flatbuffers/include/flatbuffers\base.h **** #include <type_traits>
  43:C:/Renesas/e2studio_2021_01_workspace_RZA2M_ANPR/ANPR_RZA2M_GR_MANGO/src/tensorflow_lite/third_party/flatbuffers/include/flatbuffers\base.h **** #include <vector>
  44:C:/Renesas/e2studio_2021_01_workspace_RZA2M_ANPR/ANPR_RZA2M_GR_MANGO/src/tensorflow_lite/third_party/flatbuffers/include/flatbuffers\base.h **** #include <set>
  45:C:/Renesas/e2studio_2021_01_workspace_RZA2M_ANPR/ANPR_RZA2M_GR_MANGO/src/tensorflow_lite/third_party/flatbuffers/include/flatbuffers\base.h **** #include <algorithm>
  46:C:/Renesas/e2studio_2021_01_workspace_RZA2M_ANPR/ANPR_RZA2M_GR_MANGO/src/tensorflow_lite/third_party/flatbuffers/include/flatbuffers\base.h **** #include <iterator>
  47:C:/Renesas/e2studio_2021_01_workspace_RZA2M_ANPR/ANPR_RZA2M_GR_MANGO/src/tensorflow_lite/third_party/flatbuffers/include/flatbuffers\base.h **** #include <memory>
  48:C:/Renesas/e2studio_2021_01_workspace_RZA2M_ANPR/ANPR_RZA2M_GR_MANGO/src/tensorflow_lite/third_party/flatbuffers/include/flatbuffers\base.h **** 
  49:C:/Renesas/e2studio_2021_01_workspace_RZA2M_ANPR/ANPR_RZA2M_GR_MANGO/src/tensorflow_lite/third_party/flatbuffers/include/flatbuffers\base.h **** #if defined(__unix__) && !defined(FLATBUFFERS_LOCALE_INDEPENDENT)
  50:C:/Renesas/e2studio_2021_01_workspace_RZA2M_ANPR/ANPR_RZA2M_GR_MANGO/src/tensorflow_lite/third_party/flatbuffers/include/flatbuffers\base.h ****   #include <unistd.h>
  51:C:/Renesas/e2studio_2021_01_workspace_RZA2M_ANPR/ANPR_RZA2M_GR_MANGO/src/tensorflow_lite/third_party/flatbuffers/include/flatbuffers\base.h **** #endif
  52:C:/Renesas/e2studio_2021_01_workspace_RZA2M_ANPR/ANPR_RZA2M_GR_MANGO/src/tensorflow_lite/third_party/flatbuffers/include/flatbuffers\base.h **** 
  53:C:/Renesas/e2studio_2021_01_workspace_RZA2M_ANPR/ANPR_RZA2M_GR_MANGO/src/tensorflow_lite/third_party/flatbuffers/include/flatbuffers\base.h **** #ifdef _STLPORT_VERSION
  54:C:/Renesas/e2studio_2021_01_workspace_RZA2M_ANPR/ANPR_RZA2M_GR_MANGO/src/tensorflow_lite/third_party/flatbuffers/include/flatbuffers\base.h ****   #define FLATBUFFERS_CPP98_STL
  55:C:/Renesas/e2studio_2021_01_workspace_RZA2M_ANPR/ANPR_RZA2M_GR_MANGO/src/tensorflow_lite/third_party/flatbuffers/include/flatbuffers\base.h **** #endif
  56:C:/Renesas/e2studio_2021_01_workspace_RZA2M_ANPR/ANPR_RZA2M_GR_MANGO/src/tensorflow_lite/third_party/flatbuffers/include/flatbuffers\base.h **** 
  57:C:/Renesas/e2studio_2021_01_workspace_RZA2M_ANPR/ANPR_RZA2M_GR_MANGO/src/tensorflow_lite/third_party/flatbuffers/include/flatbuffers\base.h **** #ifdef __ANDROID__
  58:C:/Renesas/e2studio_2021_01_workspace_RZA2M_ANPR/ANPR_RZA2M_GR_MANGO/src/tensorflow_lite/third_party/flatbuffers/include/flatbuffers\base.h ****   #include <android/api-level.h>
  59:C:/Renesas/e2studio_2021_01_workspace_RZA2M_ANPR/ANPR_RZA2M_GR_MANGO/src/tensorflow_lite/third_party/flatbuffers/include/flatbuffers\base.h **** #endif
  60:C:/Renesas/e2studio_2021_01_workspace_RZA2M_ANPR/ANPR_RZA2M_GR_MANGO/src/tensorflow_lite/third_party/flatbuffers/include/flatbuffers\base.h **** 
  61:C:/Renesas/e2studio_2021_01_workspace_RZA2M_ANPR/ANPR_RZA2M_GR_MANGO/src/tensorflow_lite/third_party/flatbuffers/include/flatbuffers\base.h **** #if defined(__ICCARM__)
  62:C:/Renesas/e2studio_2021_01_workspace_RZA2M_ANPR/ANPR_RZA2M_GR_MANGO/src/tensorflow_lite/third_party/flatbuffers/include/flatbuffers\base.h **** #include <intrinsics.h>
  63:C:/Renesas/e2studio_2021_01_workspace_RZA2M_ANPR/ANPR_RZA2M_GR_MANGO/src/tensorflow_lite/third_party/flatbuffers/include/flatbuffers\base.h **** #endif
  64:C:/Renesas/e2studio_2021_01_workspace_RZA2M_ANPR/ANPR_RZA2M_GR_MANGO/src/tensorflow_lite/third_party/flatbuffers/include/flatbuffers\base.h **** 
  65:C:/Renesas/e2studio_2021_01_workspace_RZA2M_ANPR/ANPR_RZA2M_GR_MANGO/src/tensorflow_lite/third_party/flatbuffers/include/flatbuffers\base.h **** // Note the __clang__ check is needed, because clang presents itself
  66:C:/Renesas/e2studio_2021_01_workspace_RZA2M_ANPR/ANPR_RZA2M_GR_MANGO/src/tensorflow_lite/third_party/flatbuffers/include/flatbuffers\base.h **** // as an older GNUC compiler (4.2).
  67:C:/Renesas/e2studio_2021_01_workspace_RZA2M_ANPR/ANPR_RZA2M_GR_MANGO/src/tensorflow_lite/third_party/flatbuffers/include/flatbuffers\base.h **** // Clang 3.3 and later implement all of the ISO C++ 2011 standard.
  68:C:/Renesas/e2studio_2021_01_workspace_RZA2M_ANPR/ANPR_RZA2M_GR_MANGO/src/tensorflow_lite/third_party/flatbuffers/include/flatbuffers\base.h **** // Clang 3.4 and later implement all of the ISO C++ 2014 standard.
  69:C:/Renesas/e2studio_2021_01_workspace_RZA2M_ANPR/ANPR_RZA2M_GR_MANGO/src/tensorflow_lite/third_party/flatbuffers/include/flatbuffers\base.h **** // http://clang.llvm.org/cxx_status.html
  70:C:/Renesas/e2studio_2021_01_workspace_RZA2M_ANPR/ANPR_RZA2M_GR_MANGO/src/tensorflow_lite/third_party/flatbuffers/include/flatbuffers\base.h **** 
  71:C:/Renesas/e2studio_2021_01_workspace_RZA2M_ANPR/ANPR_RZA2M_GR_MANGO/src/tensorflow_lite/third_party/flatbuffers/include/flatbuffers\base.h **** // Note the MSVC value '__cplusplus' may be incorrect:
  72:C:/Renesas/e2studio_2021_01_workspace_RZA2M_ANPR/ANPR_RZA2M_GR_MANGO/src/tensorflow_lite/third_party/flatbuffers/include/flatbuffers\base.h **** // The '__cplusplus' predefined macro in the MSVC stuck at the value 199711L,
  73:C:/Renesas/e2studio_2021_01_workspace_RZA2M_ANPR/ANPR_RZA2M_GR_MANGO/src/tensorflow_lite/third_party/flatbuffers/include/flatbuffers\base.h **** // indicating (erroneously!) that the compiler conformed to the C++98 Standard.
  74:C:/Renesas/e2studio_2021_01_workspace_RZA2M_ANPR/ANPR_RZA2M_GR_MANGO/src/tensorflow_lite/third_party/flatbuffers/include/flatbuffers\base.h **** // This value should be correct starting from MSVC2017-15.7-Preview-3.
  75:C:/Renesas/e2studio_2021_01_workspace_RZA2M_ANPR/ANPR_RZA2M_GR_MANGO/src/tensorflow_lite/third_party/flatbuffers/include/flatbuffers\base.h **** // The '__cplusplus' will be valid only if MSVC2017-15.7-P3 and the `/Zc:__cplusplus` switch is set
  76:C:/Renesas/e2studio_2021_01_workspace_RZA2M_ANPR/ANPR_RZA2M_GR_MANGO/src/tensorflow_lite/third_party/flatbuffers/include/flatbuffers\base.h **** // Workaround (for details see MSDN):
  77:C:/Renesas/e2studio_2021_01_workspace_RZA2M_ANPR/ANPR_RZA2M_GR_MANGO/src/tensorflow_lite/third_party/flatbuffers/include/flatbuffers\base.h **** // Use the _MSC_VER and _MSVC_LANG definition instead of the __cplusplus  for compatibility.
  78:C:/Renesas/e2studio_2021_01_workspace_RZA2M_ANPR/ANPR_RZA2M_GR_MANGO/src/tensorflow_lite/third_party/flatbuffers/include/flatbuffers\base.h **** // The _MSVC_LANG macro reports the Standard version regardless of the '/Zc:__cplusplus' switch.
  79:C:/Renesas/e2studio_2021_01_workspace_RZA2M_ANPR/ANPR_RZA2M_GR_MANGO/src/tensorflow_lite/third_party/flatbuffers/include/flatbuffers\base.h **** 
  80:C:/Renesas/e2studio_2021_01_workspace_RZA2M_ANPR/ANPR_RZA2M_GR_MANGO/src/tensorflow_lite/third_party/flatbuffers/include/flatbuffers\base.h **** #if defined(__GNUC__) && !defined(__clang__)
  81:C:/Renesas/e2studio_2021_01_workspace_RZA2M_ANPR/ANPR_RZA2M_GR_MANGO/src/tensorflow_lite/third_party/flatbuffers/include/flatbuffers\base.h ****   #define FLATBUFFERS_GCC (__GNUC__ * 10000 + __GNUC_MINOR__ * 100 + __GNUC_PATCHLEVEL__)
  82:C:/Renesas/e2studio_2021_01_workspace_RZA2M_ANPR/ANPR_RZA2M_GR_MANGO/src/tensorflow_lite/third_party/flatbuffers/include/flatbuffers\base.h **** #else
  83:C:/Renesas/e2studio_2021_01_workspace_RZA2M_ANPR/ANPR_RZA2M_GR_MANGO/src/tensorflow_lite/third_party/flatbuffers/include/flatbuffers\base.h ****   #define FLATBUFFERS_GCC 0
  84:C:/Renesas/e2studio_2021_01_workspace_RZA2M_ANPR/ANPR_RZA2M_GR_MANGO/src/tensorflow_lite/third_party/flatbuffers/include/flatbuffers\base.h **** #endif
  85:C:/Renesas/e2studio_2021_01_workspace_RZA2M_ANPR/ANPR_RZA2M_GR_MANGO/src/tensorflow_lite/third_party/flatbuffers/include/flatbuffers\base.h **** 
  86:C:/Renesas/e2studio_2021_01_workspace_RZA2M_ANPR/ANPR_RZA2M_GR_MANGO/src/tensorflow_lite/third_party/flatbuffers/include/flatbuffers\base.h **** #if defined(__clang__)
  87:C:/Renesas/e2studio_2021_01_workspace_RZA2M_ANPR/ANPR_RZA2M_GR_MANGO/src/tensorflow_lite/third_party/flatbuffers/include/flatbuffers\base.h ****   #define FLATBUFFERS_CLANG (__clang_major__ * 10000 + __clang_minor__ * 100 + __clang_patchlevel__
  88:C:/Renesas/e2studio_2021_01_workspace_RZA2M_ANPR/ANPR_RZA2M_GR_MANGO/src/tensorflow_lite/third_party/flatbuffers/include/flatbuffers\base.h **** #else
  89:C:/Renesas/e2studio_2021_01_workspace_RZA2M_ANPR/ANPR_RZA2M_GR_MANGO/src/tensorflow_lite/third_party/flatbuffers/include/flatbuffers\base.h ****   #define FLATBUFFERS_CLANG 0
  90:C:/Renesas/e2studio_2021_01_workspace_RZA2M_ANPR/ANPR_RZA2M_GR_MANGO/src/tensorflow_lite/third_party/flatbuffers/include/flatbuffers\base.h **** #endif
  91:C:/Renesas/e2studio_2021_01_workspace_RZA2M_ANPR/ANPR_RZA2M_GR_MANGO/src/tensorflow_lite/third_party/flatbuffers/include/flatbuffers\base.h **** 
  92:C:/Renesas/e2studio_2021_01_workspace_RZA2M_ANPR/ANPR_RZA2M_GR_MANGO/src/tensorflow_lite/third_party/flatbuffers/include/flatbuffers\base.h **** /// @cond FLATBUFFERS_INTERNAL
  93:C:/Renesas/e2studio_2021_01_workspace_RZA2M_ANPR/ANPR_RZA2M_GR_MANGO/src/tensorflow_lite/third_party/flatbuffers/include/flatbuffers\base.h **** #if __cplusplus <= 199711L && \
  94:C:/Renesas/e2studio_2021_01_workspace_RZA2M_ANPR/ANPR_RZA2M_GR_MANGO/src/tensorflow_lite/third_party/flatbuffers/include/flatbuffers\base.h ****     (!defined(_MSC_VER) || _MSC_VER < 1600) && \
  95:C:/Renesas/e2studio_2021_01_workspace_RZA2M_ANPR/ANPR_RZA2M_GR_MANGO/src/tensorflow_lite/third_party/flatbuffers/include/flatbuffers\base.h ****     (!defined(__GNUC__) || \
  96:C:/Renesas/e2studio_2021_01_workspace_RZA2M_ANPR/ANPR_RZA2M_GR_MANGO/src/tensorflow_lite/third_party/flatbuffers/include/flatbuffers\base.h ****       (__GNUC__ * 10000 + __GNUC_MINOR__ * 100 + __GNUC_PATCHLEVEL__ < 40400))
  97:C:/Renesas/e2studio_2021_01_workspace_RZA2M_ANPR/ANPR_RZA2M_GR_MANGO/src/tensorflow_lite/third_party/flatbuffers/include/flatbuffers\base.h ****   #error A C++11 compatible compiler with support for the auto typing is \
  98:C:/Renesas/e2studio_2021_01_workspace_RZA2M_ANPR/ANPR_RZA2M_GR_MANGO/src/tensorflow_lite/third_party/flatbuffers/include/flatbuffers\base.h ****          required for FlatBuffers.
  99:C:/Renesas/e2studio_2021_01_workspace_RZA2M_ANPR/ANPR_RZA2M_GR_MANGO/src/tensorflow_lite/third_party/flatbuffers/include/flatbuffers\base.h ****   #error __cplusplus _MSC_VER __GNUC__  __GNUC_MINOR__  __GNUC_PATCHLEVEL__
 100:C:/Renesas/e2studio_2021_01_workspace_RZA2M_ANPR/ANPR_RZA2M_GR_MANGO/src/tensorflow_lite/third_party/flatbuffers/include/flatbuffers\base.h **** #endif
 101:C:/Renesas/e2studio_2021_01_workspace_RZA2M_ANPR/ANPR_RZA2M_GR_MANGO/src/tensorflow_lite/third_party/flatbuffers/include/flatbuffers\base.h **** 
 102:C:/Renesas/e2studio_2021_01_workspace_RZA2M_ANPR/ANPR_RZA2M_GR_MANGO/src/tensorflow_lite/third_party/flatbuffers/include/flatbuffers\base.h **** #if !defined(__clang__) && \
 103:C:/Renesas/e2studio_2021_01_workspace_RZA2M_ANPR/ANPR_RZA2M_GR_MANGO/src/tensorflow_lite/third_party/flatbuffers/include/flatbuffers\base.h ****     defined(__GNUC__) && \
 104:C:/Renesas/e2studio_2021_01_workspace_RZA2M_ANPR/ANPR_RZA2M_GR_MANGO/src/tensorflow_lite/third_party/flatbuffers/include/flatbuffers\base.h ****     (__GNUC__ * 10000 + __GNUC_MINOR__ * 100 + __GNUC_PATCHLEVEL__ < 40600)
 105:C:/Renesas/e2studio_2021_01_workspace_RZA2M_ANPR/ANPR_RZA2M_GR_MANGO/src/tensorflow_lite/third_party/flatbuffers/include/flatbuffers\base.h ****   // Backwards compatibility for g++ 4.4, and 4.5 which don't have the nullptr
 106:C:/Renesas/e2studio_2021_01_workspace_RZA2M_ANPR/ANPR_RZA2M_GR_MANGO/src/tensorflow_lite/third_party/flatbuffers/include/flatbuffers\base.h ****   // and constexpr keywords. Note the __clang__ check is needed, because clang
 107:C:/Renesas/e2studio_2021_01_workspace_RZA2M_ANPR/ANPR_RZA2M_GR_MANGO/src/tensorflow_lite/third_party/flatbuffers/include/flatbuffers\base.h ****   // presents itself as an older GNUC compiler.
 108:C:/Renesas/e2studio_2021_01_workspace_RZA2M_ANPR/ANPR_RZA2M_GR_MANGO/src/tensorflow_lite/third_party/flatbuffers/include/flatbuffers\base.h ****   #ifndef nullptr_t
 109:C:/Renesas/e2studio_2021_01_workspace_RZA2M_ANPR/ANPR_RZA2M_GR_MANGO/src/tensorflow_lite/third_party/flatbuffers/include/flatbuffers\base.h ****     const class nullptr_t {
 110:C:/Renesas/e2studio_2021_01_workspace_RZA2M_ANPR/ANPR_RZA2M_GR_MANGO/src/tensorflow_lite/third_party/flatbuffers/include/flatbuffers\base.h ****     public:
 111:C:/Renesas/e2studio_2021_01_workspace_RZA2M_ANPR/ANPR_RZA2M_GR_MANGO/src/tensorflow_lite/third_party/flatbuffers/include/flatbuffers\base.h ****       template<class T> inline operator T*() const { return 0; }
 112:C:/Renesas/e2studio_2021_01_workspace_RZA2M_ANPR/ANPR_RZA2M_GR_MANGO/src/tensorflow_lite/third_party/flatbuffers/include/flatbuffers\base.h ****     private:
 113:C:/Renesas/e2studio_2021_01_workspace_RZA2M_ANPR/ANPR_RZA2M_GR_MANGO/src/tensorflow_lite/third_party/flatbuffers/include/flatbuffers\base.h ****       void operator&() const;
 114:C:/Renesas/e2studio_2021_01_workspace_RZA2M_ANPR/ANPR_RZA2M_GR_MANGO/src/tensorflow_lite/third_party/flatbuffers/include/flatbuffers\base.h ****     } nullptr = {};
 115:C:/Renesas/e2studio_2021_01_workspace_RZA2M_ANPR/ANPR_RZA2M_GR_MANGO/src/tensorflow_lite/third_party/flatbuffers/include/flatbuffers\base.h ****   #endif
 116:C:/Renesas/e2studio_2021_01_workspace_RZA2M_ANPR/ANPR_RZA2M_GR_MANGO/src/tensorflow_lite/third_party/flatbuffers/include/flatbuffers\base.h ****   #ifndef constexpr
 117:C:/Renesas/e2studio_2021_01_workspace_RZA2M_ANPR/ANPR_RZA2M_GR_MANGO/src/tensorflow_lite/third_party/flatbuffers/include/flatbuffers\base.h ****     #define constexpr const
 118:C:/Renesas/e2studio_2021_01_workspace_RZA2M_ANPR/ANPR_RZA2M_GR_MANGO/src/tensorflow_lite/third_party/flatbuffers/include/flatbuffers\base.h ****   #endif
 119:C:/Renesas/e2studio_2021_01_workspace_RZA2M_ANPR/ANPR_RZA2M_GR_MANGO/src/tensorflow_lite/third_party/flatbuffers/include/flatbuffers\base.h **** #endif
 120:C:/Renesas/e2studio_2021_01_workspace_RZA2M_ANPR/ANPR_RZA2M_GR_MANGO/src/tensorflow_lite/third_party/flatbuffers/include/flatbuffers\base.h **** 
 121:C:/Renesas/e2studio_2021_01_workspace_RZA2M_ANPR/ANPR_RZA2M_GR_MANGO/src/tensorflow_lite/third_party/flatbuffers/include/flatbuffers\base.h **** // The wire format uses a little endian encoding (since that's efficient for
 122:C:/Renesas/e2studio_2021_01_workspace_RZA2M_ANPR/ANPR_RZA2M_GR_MANGO/src/tensorflow_lite/third_party/flatbuffers/include/flatbuffers\base.h **** // the common platforms).
 123:C:/Renesas/e2studio_2021_01_workspace_RZA2M_ANPR/ANPR_RZA2M_GR_MANGO/src/tensorflow_lite/third_party/flatbuffers/include/flatbuffers\base.h **** #if defined(__s390x__)
 124:C:/Renesas/e2studio_2021_01_workspace_RZA2M_ANPR/ANPR_RZA2M_GR_MANGO/src/tensorflow_lite/third_party/flatbuffers/include/flatbuffers\base.h ****   #define FLATBUFFERS_LITTLEENDIAN 0
 125:C:/Renesas/e2studio_2021_01_workspace_RZA2M_ANPR/ANPR_RZA2M_GR_MANGO/src/tensorflow_lite/third_party/flatbuffers/include/flatbuffers\base.h **** #endif // __s390x__
 126:C:/Renesas/e2studio_2021_01_workspace_RZA2M_ANPR/ANPR_RZA2M_GR_MANGO/src/tensorflow_lite/third_party/flatbuffers/include/flatbuffers\base.h **** #if !defined(FLATBUFFERS_LITTLEENDIAN)
 127:C:/Renesas/e2studio_2021_01_workspace_RZA2M_ANPR/ANPR_RZA2M_GR_MANGO/src/tensorflow_lite/third_party/flatbuffers/include/flatbuffers\base.h ****   #if defined(__GNUC__) || defined(__clang__) || defined(__ICCARM__)
 128:C:/Renesas/e2studio_2021_01_workspace_RZA2M_ANPR/ANPR_RZA2M_GR_MANGO/src/tensorflow_lite/third_party/flatbuffers/include/flatbuffers\base.h ****     #if (defined(__BIG_ENDIAN__) || \
 129:C:/Renesas/e2studio_2021_01_workspace_RZA2M_ANPR/ANPR_RZA2M_GR_MANGO/src/tensorflow_lite/third_party/flatbuffers/include/flatbuffers\base.h ****          (defined(__BYTE_ORDER__) && __BYTE_ORDER__ == __ORDER_BIG_ENDIAN__))
 130:C:/Renesas/e2studio_2021_01_workspace_RZA2M_ANPR/ANPR_RZA2M_GR_MANGO/src/tensorflow_lite/third_party/flatbuffers/include/flatbuffers\base.h ****       #define FLATBUFFERS_LITTLEENDIAN 0
 131:C:/Renesas/e2studio_2021_01_workspace_RZA2M_ANPR/ANPR_RZA2M_GR_MANGO/src/tensorflow_lite/third_party/flatbuffers/include/flatbuffers\base.h ****     #else
 132:C:/Renesas/e2studio_2021_01_workspace_RZA2M_ANPR/ANPR_RZA2M_GR_MANGO/src/tensorflow_lite/third_party/flatbuffers/include/flatbuffers\base.h ****       #define FLATBUFFERS_LITTLEENDIAN 1
 133:C:/Renesas/e2studio_2021_01_workspace_RZA2M_ANPR/ANPR_RZA2M_GR_MANGO/src/tensorflow_lite/third_party/flatbuffers/include/flatbuffers\base.h ****     #endif // __BIG_ENDIAN__
 134:C:/Renesas/e2studio_2021_01_workspace_RZA2M_ANPR/ANPR_RZA2M_GR_MANGO/src/tensorflow_lite/third_party/flatbuffers/include/flatbuffers\base.h ****   #elif defined(_MSC_VER)
 135:C:/Renesas/e2studio_2021_01_workspace_RZA2M_ANPR/ANPR_RZA2M_GR_MANGO/src/tensorflow_lite/third_party/flatbuffers/include/flatbuffers\base.h ****     #if defined(_M_PPC)
 136:C:/Renesas/e2studio_2021_01_workspace_RZA2M_ANPR/ANPR_RZA2M_GR_MANGO/src/tensorflow_lite/third_party/flatbuffers/include/flatbuffers\base.h ****       #define FLATBUFFERS_LITTLEENDIAN 0
 137:C:/Renesas/e2studio_2021_01_workspace_RZA2M_ANPR/ANPR_RZA2M_GR_MANGO/src/tensorflow_lite/third_party/flatbuffers/include/flatbuffers\base.h ****     #else
 138:C:/Renesas/e2studio_2021_01_workspace_RZA2M_ANPR/ANPR_RZA2M_GR_MANGO/src/tensorflow_lite/third_party/flatbuffers/include/flatbuffers\base.h ****       #define FLATBUFFERS_LITTLEENDIAN 1
 139:C:/Renesas/e2studio_2021_01_workspace_RZA2M_ANPR/ANPR_RZA2M_GR_MANGO/src/tensorflow_lite/third_party/flatbuffers/include/flatbuffers\base.h ****     #endif
 140:C:/Renesas/e2studio_2021_01_workspace_RZA2M_ANPR/ANPR_RZA2M_GR_MANGO/src/tensorflow_lite/third_party/flatbuffers/include/flatbuffers\base.h ****   #else
 141:C:/Renesas/e2studio_2021_01_workspace_RZA2M_ANPR/ANPR_RZA2M_GR_MANGO/src/tensorflow_lite/third_party/flatbuffers/include/flatbuffers\base.h ****     #error Unable to determine endianness, define FLATBUFFERS_LITTLEENDIAN.
 142:C:/Renesas/e2studio_2021_01_workspace_RZA2M_ANPR/ANPR_RZA2M_GR_MANGO/src/tensorflow_lite/third_party/flatbuffers/include/flatbuffers\base.h ****   #endif
 143:C:/Renesas/e2studio_2021_01_workspace_RZA2M_ANPR/ANPR_RZA2M_GR_MANGO/src/tensorflow_lite/third_party/flatbuffers/include/flatbuffers\base.h **** #endif // !defined(FLATBUFFERS_LITTLEENDIAN)
 144:C:/Renesas/e2studio_2021_01_workspace_RZA2M_ANPR/ANPR_RZA2M_GR_MANGO/src/tensorflow_lite/third_party/flatbuffers/include/flatbuffers\base.h **** 
 145:C:/Renesas/e2studio_2021_01_workspace_RZA2M_ANPR/ANPR_RZA2M_GR_MANGO/src/tensorflow_lite/third_party/flatbuffers/include/flatbuffers\base.h **** #define FLATBUFFERS_VERSION_MAJOR 1
 146:C:/Renesas/e2studio_2021_01_workspace_RZA2M_ANPR/ANPR_RZA2M_GR_MANGO/src/tensorflow_lite/third_party/flatbuffers/include/flatbuffers\base.h **** #define FLATBUFFERS_VERSION_MINOR 12
 147:C:/Renesas/e2studio_2021_01_workspace_RZA2M_ANPR/ANPR_RZA2M_GR_MANGO/src/tensorflow_lite/third_party/flatbuffers/include/flatbuffers\base.h **** #define FLATBUFFERS_VERSION_REVISION 0
 148:C:/Renesas/e2studio_2021_01_workspace_RZA2M_ANPR/ANPR_RZA2M_GR_MANGO/src/tensorflow_lite/third_party/flatbuffers/include/flatbuffers\base.h **** #define FLATBUFFERS_STRING_EXPAND(X) #X
 149:C:/Renesas/e2studio_2021_01_workspace_RZA2M_ANPR/ANPR_RZA2M_GR_MANGO/src/tensorflow_lite/third_party/flatbuffers/include/flatbuffers\base.h **** #define FLATBUFFERS_STRING(X) FLATBUFFERS_STRING_EXPAND(X)
 150:C:/Renesas/e2studio_2021_01_workspace_RZA2M_ANPR/ANPR_RZA2M_GR_MANGO/src/tensorflow_lite/third_party/flatbuffers/include/flatbuffers\base.h **** namespace flatbuffers {
 151:C:/Renesas/e2studio_2021_01_workspace_RZA2M_ANPR/ANPR_RZA2M_GR_MANGO/src/tensorflow_lite/third_party/flatbuffers/include/flatbuffers\base.h ****   // Returns version as string  "MAJOR.MINOR.REVISION".
 152:C:/Renesas/e2studio_2021_01_workspace_RZA2M_ANPR/ANPR_RZA2M_GR_MANGO/src/tensorflow_lite/third_party/flatbuffers/include/flatbuffers\base.h ****   const char* FLATBUFFERS_VERSION();
 153:C:/Renesas/e2studio_2021_01_workspace_RZA2M_ANPR/ANPR_RZA2M_GR_MANGO/src/tensorflow_lite/third_party/flatbuffers/include/flatbuffers\base.h **** }
 154:C:/Renesas/e2studio_2021_01_workspace_RZA2M_ANPR/ANPR_RZA2M_GR_MANGO/src/tensorflow_lite/third_party/flatbuffers/include/flatbuffers\base.h **** 
 155:C:/Renesas/e2studio_2021_01_workspace_RZA2M_ANPR/ANPR_RZA2M_GR_MANGO/src/tensorflow_lite/third_party/flatbuffers/include/flatbuffers\base.h **** #if (!defined(_MSC_VER) || _MSC_VER > 1600) && \
 156:C:/Renesas/e2studio_2021_01_workspace_RZA2M_ANPR/ANPR_RZA2M_GR_MANGO/src/tensorflow_lite/third_party/flatbuffers/include/flatbuffers\base.h ****     (!defined(__GNUC__) || (__GNUC__ * 100 + __GNUC_MINOR__ >= 407)) || \
 157:C:/Renesas/e2studio_2021_01_workspace_RZA2M_ANPR/ANPR_RZA2M_GR_MANGO/src/tensorflow_lite/third_party/flatbuffers/include/flatbuffers\base.h ****     defined(__clang__)
 158:C:/Renesas/e2studio_2021_01_workspace_RZA2M_ANPR/ANPR_RZA2M_GR_MANGO/src/tensorflow_lite/third_party/flatbuffers/include/flatbuffers\base.h ****   #define FLATBUFFERS_FINAL_CLASS final
 159:C:/Renesas/e2studio_2021_01_workspace_RZA2M_ANPR/ANPR_RZA2M_GR_MANGO/src/tensorflow_lite/third_party/flatbuffers/include/flatbuffers\base.h ****   #define FLATBUFFERS_OVERRIDE override
 160:C:/Renesas/e2studio_2021_01_workspace_RZA2M_ANPR/ANPR_RZA2M_GR_MANGO/src/tensorflow_lite/third_party/flatbuffers/include/flatbuffers\base.h ****   #define FLATBUFFERS_EXPLICIT_CPP11 explicit
 161:C:/Renesas/e2studio_2021_01_workspace_RZA2M_ANPR/ANPR_RZA2M_GR_MANGO/src/tensorflow_lite/third_party/flatbuffers/include/flatbuffers\base.h ****   #define FLATBUFFERS_VTABLE_UNDERLYING_TYPE : flatbuffers::voffset_t
 162:C:/Renesas/e2studio_2021_01_workspace_RZA2M_ANPR/ANPR_RZA2M_GR_MANGO/src/tensorflow_lite/third_party/flatbuffers/include/flatbuffers\base.h **** #else
 163:C:/Renesas/e2studio_2021_01_workspace_RZA2M_ANPR/ANPR_RZA2M_GR_MANGO/src/tensorflow_lite/third_party/flatbuffers/include/flatbuffers\base.h ****   #define FLATBUFFERS_FINAL_CLASS
 164:C:/Renesas/e2studio_2021_01_workspace_RZA2M_ANPR/ANPR_RZA2M_GR_MANGO/src/tensorflow_lite/third_party/flatbuffers/include/flatbuffers\base.h ****   #define FLATBUFFERS_OVERRIDE
 165:C:/Renesas/e2studio_2021_01_workspace_RZA2M_ANPR/ANPR_RZA2M_GR_MANGO/src/tensorflow_lite/third_party/flatbuffers/include/flatbuffers\base.h ****   #define FLATBUFFERS_EXPLICIT_CPP11
 166:C:/Renesas/e2studio_2021_01_workspace_RZA2M_ANPR/ANPR_RZA2M_GR_MANGO/src/tensorflow_lite/third_party/flatbuffers/include/flatbuffers\base.h ****   #define FLATBUFFERS_VTABLE_UNDERLYING_TYPE
 167:C:/Renesas/e2studio_2021_01_workspace_RZA2M_ANPR/ANPR_RZA2M_GR_MANGO/src/tensorflow_lite/third_party/flatbuffers/include/flatbuffers\base.h **** #endif
 168:C:/Renesas/e2studio_2021_01_workspace_RZA2M_ANPR/ANPR_RZA2M_GR_MANGO/src/tensorflow_lite/third_party/flatbuffers/include/flatbuffers\base.h **** 
 169:C:/Renesas/e2studio_2021_01_workspace_RZA2M_ANPR/ANPR_RZA2M_GR_MANGO/src/tensorflow_lite/third_party/flatbuffers/include/flatbuffers\base.h **** #if (!defined(_MSC_VER) || _MSC_VER >= 1900) && \
 170:C:/Renesas/e2studio_2021_01_workspace_RZA2M_ANPR/ANPR_RZA2M_GR_MANGO/src/tensorflow_lite/third_party/flatbuffers/include/flatbuffers\base.h ****     (!defined(__GNUC__) || (__GNUC__ * 100 + __GNUC_MINOR__ >= 406)) || \
 171:C:/Renesas/e2studio_2021_01_workspace_RZA2M_ANPR/ANPR_RZA2M_GR_MANGO/src/tensorflow_lite/third_party/flatbuffers/include/flatbuffers\base.h ****     (defined(__cpp_constexpr) && __cpp_constexpr >= 200704)
 172:C:/Renesas/e2studio_2021_01_workspace_RZA2M_ANPR/ANPR_RZA2M_GR_MANGO/src/tensorflow_lite/third_party/flatbuffers/include/flatbuffers\base.h ****   #define FLATBUFFERS_CONSTEXPR constexpr
 173:C:/Renesas/e2studio_2021_01_workspace_RZA2M_ANPR/ANPR_RZA2M_GR_MANGO/src/tensorflow_lite/third_party/flatbuffers/include/flatbuffers\base.h ****   #define FLATBUFFERS_CONSTEXPR_CPP11 constexpr
 174:C:/Renesas/e2studio_2021_01_workspace_RZA2M_ANPR/ANPR_RZA2M_GR_MANGO/src/tensorflow_lite/third_party/flatbuffers/include/flatbuffers\base.h ****   #define FLATBUFFERS_CONSTEXPR_DEFINED
 175:C:/Renesas/e2studio_2021_01_workspace_RZA2M_ANPR/ANPR_RZA2M_GR_MANGO/src/tensorflow_lite/third_party/flatbuffers/include/flatbuffers\base.h **** #else
 176:C:/Renesas/e2studio_2021_01_workspace_RZA2M_ANPR/ANPR_RZA2M_GR_MANGO/src/tensorflow_lite/third_party/flatbuffers/include/flatbuffers\base.h ****   #define FLATBUFFERS_CONSTEXPR const
 177:C:/Renesas/e2studio_2021_01_workspace_RZA2M_ANPR/ANPR_RZA2M_GR_MANGO/src/tensorflow_lite/third_party/flatbuffers/include/flatbuffers\base.h ****   #define FLATBUFFERS_CONSTEXPR_CPP11
 178:C:/Renesas/e2studio_2021_01_workspace_RZA2M_ANPR/ANPR_RZA2M_GR_MANGO/src/tensorflow_lite/third_party/flatbuffers/include/flatbuffers\base.h **** #endif
 179:C:/Renesas/e2studio_2021_01_workspace_RZA2M_ANPR/ANPR_RZA2M_GR_MANGO/src/tensorflow_lite/third_party/flatbuffers/include/flatbuffers\base.h **** 
 180:C:/Renesas/e2studio_2021_01_workspace_RZA2M_ANPR/ANPR_RZA2M_GR_MANGO/src/tensorflow_lite/third_party/flatbuffers/include/flatbuffers\base.h **** // This macro is never used in code!
 181:C:/Renesas/e2studio_2021_01_workspace_RZA2M_ANPR/ANPR_RZA2M_GR_MANGO/src/tensorflow_lite/third_party/flatbuffers/include/flatbuffers\base.h **** #if (defined(__cplusplus) && __cplusplus >= 201402L) || \
 182:C:/Renesas/e2studio_2021_01_workspace_RZA2M_ANPR/ANPR_RZA2M_GR_MANGO/src/tensorflow_lite/third_party/flatbuffers/include/flatbuffers\base.h ****     (defined(__cpp_constexpr) && __cpp_constexpr >= 201304)
 183:C:/Renesas/e2studio_2021_01_workspace_RZA2M_ANPR/ANPR_RZA2M_GR_MANGO/src/tensorflow_lite/third_party/flatbuffers/include/flatbuffers\base.h ****   #define FLATBUFFERS_CONSTEXPR_CPP14 FLATBUFFERS_CONSTEXPR
 184:C:/Renesas/e2studio_2021_01_workspace_RZA2M_ANPR/ANPR_RZA2M_GR_MANGO/src/tensorflow_lite/third_party/flatbuffers/include/flatbuffers\base.h **** #else
 185:C:/Renesas/e2studio_2021_01_workspace_RZA2M_ANPR/ANPR_RZA2M_GR_MANGO/src/tensorflow_lite/third_party/flatbuffers/include/flatbuffers\base.h ****   #define FLATBUFFERS_CONSTEXPR_CPP14
 186:C:/Renesas/e2studio_2021_01_workspace_RZA2M_ANPR/ANPR_RZA2M_GR_MANGO/src/tensorflow_lite/third_party/flatbuffers/include/flatbuffers\base.h **** #endif
 187:C:/Renesas/e2studio_2021_01_workspace_RZA2M_ANPR/ANPR_RZA2M_GR_MANGO/src/tensorflow_lite/third_party/flatbuffers/include/flatbuffers\base.h **** 
 188:C:/Renesas/e2studio_2021_01_workspace_RZA2M_ANPR/ANPR_RZA2M_GR_MANGO/src/tensorflow_lite/third_party/flatbuffers/include/flatbuffers\base.h **** #if (defined(__GXX_EXPERIMENTAL_CXX0X__) && (__GNUC__ * 100 + __GNUC_MINOR__ >= 406)) || \
 189:C:/Renesas/e2studio_2021_01_workspace_RZA2M_ANPR/ANPR_RZA2M_GR_MANGO/src/tensorflow_lite/third_party/flatbuffers/include/flatbuffers\base.h ****     (defined(_MSC_FULL_VER) && (_MSC_FULL_VER >= 190023026)) || \
 190:C:/Renesas/e2studio_2021_01_workspace_RZA2M_ANPR/ANPR_RZA2M_GR_MANGO/src/tensorflow_lite/third_party/flatbuffers/include/flatbuffers\base.h ****     defined(__clang__)
 191:C:/Renesas/e2studio_2021_01_workspace_RZA2M_ANPR/ANPR_RZA2M_GR_MANGO/src/tensorflow_lite/third_party/flatbuffers/include/flatbuffers\base.h ****   #define FLATBUFFERS_NOEXCEPT noexcept
 192:C:/Renesas/e2studio_2021_01_workspace_RZA2M_ANPR/ANPR_RZA2M_GR_MANGO/src/tensorflow_lite/third_party/flatbuffers/include/flatbuffers\base.h **** #else
 193:C:/Renesas/e2studio_2021_01_workspace_RZA2M_ANPR/ANPR_RZA2M_GR_MANGO/src/tensorflow_lite/third_party/flatbuffers/include/flatbuffers\base.h ****   #define FLATBUFFERS_NOEXCEPT
 194:C:/Renesas/e2studio_2021_01_workspace_RZA2M_ANPR/ANPR_RZA2M_GR_MANGO/src/tensorflow_lite/third_party/flatbuffers/include/flatbuffers\base.h **** #endif
 195:C:/Renesas/e2studio_2021_01_workspace_RZA2M_ANPR/ANPR_RZA2M_GR_MANGO/src/tensorflow_lite/third_party/flatbuffers/include/flatbuffers\base.h **** 
 196:C:/Renesas/e2studio_2021_01_workspace_RZA2M_ANPR/ANPR_RZA2M_GR_MANGO/src/tensorflow_lite/third_party/flatbuffers/include/flatbuffers\base.h **** // NOTE: the FLATBUFFERS_DELETE_FUNC macro may change the access mode to
 197:C:/Renesas/e2studio_2021_01_workspace_RZA2M_ANPR/ANPR_RZA2M_GR_MANGO/src/tensorflow_lite/third_party/flatbuffers/include/flatbuffers\base.h **** // private, so be sure to put it at the end or reset access mode explicitly.
 198:C:/Renesas/e2studio_2021_01_workspace_RZA2M_ANPR/ANPR_RZA2M_GR_MANGO/src/tensorflow_lite/third_party/flatbuffers/include/flatbuffers\base.h **** #if (!defined(_MSC_VER) || _MSC_FULL_VER >= 180020827) && \
 199:C:/Renesas/e2studio_2021_01_workspace_RZA2M_ANPR/ANPR_RZA2M_GR_MANGO/src/tensorflow_lite/third_party/flatbuffers/include/flatbuffers\base.h ****     (!defined(__GNUC__) || (__GNUC__ * 100 + __GNUC_MINOR__ >= 404)) || \
 200:C:/Renesas/e2studio_2021_01_workspace_RZA2M_ANPR/ANPR_RZA2M_GR_MANGO/src/tensorflow_lite/third_party/flatbuffers/include/flatbuffers\base.h ****     defined(__clang__)
 201:C:/Renesas/e2studio_2021_01_workspace_RZA2M_ANPR/ANPR_RZA2M_GR_MANGO/src/tensorflow_lite/third_party/flatbuffers/include/flatbuffers\base.h ****   #define FLATBUFFERS_DELETE_FUNC(func) func = delete;
 202:C:/Renesas/e2studio_2021_01_workspace_RZA2M_ANPR/ANPR_RZA2M_GR_MANGO/src/tensorflow_lite/third_party/flatbuffers/include/flatbuffers\base.h **** #else
 203:C:/Renesas/e2studio_2021_01_workspace_RZA2M_ANPR/ANPR_RZA2M_GR_MANGO/src/tensorflow_lite/third_party/flatbuffers/include/flatbuffers\base.h ****   #define FLATBUFFERS_DELETE_FUNC(func) private: func;
 204:C:/Renesas/e2studio_2021_01_workspace_RZA2M_ANPR/ANPR_RZA2M_GR_MANGO/src/tensorflow_lite/third_party/flatbuffers/include/flatbuffers\base.h **** #endif
 205:C:/Renesas/e2studio_2021_01_workspace_RZA2M_ANPR/ANPR_RZA2M_GR_MANGO/src/tensorflow_lite/third_party/flatbuffers/include/flatbuffers\base.h **** 
 206:C:/Renesas/e2studio_2021_01_workspace_RZA2M_ANPR/ANPR_RZA2M_GR_MANGO/src/tensorflow_lite/third_party/flatbuffers/include/flatbuffers\base.h **** // Check if we can use template aliases
 207:C:/Renesas/e2studio_2021_01_workspace_RZA2M_ANPR/ANPR_RZA2M_GR_MANGO/src/tensorflow_lite/third_party/flatbuffers/include/flatbuffers\base.h **** // Not possible if Microsoft Compiler before 2012
 208:C:/Renesas/e2studio_2021_01_workspace_RZA2M_ANPR/ANPR_RZA2M_GR_MANGO/src/tensorflow_lite/third_party/flatbuffers/include/flatbuffers\base.h **** // Possible is the language feature __cpp_alias_templates is defined well
 209:C:/Renesas/e2studio_2021_01_workspace_RZA2M_ANPR/ANPR_RZA2M_GR_MANGO/src/tensorflow_lite/third_party/flatbuffers/include/flatbuffers\base.h **** // Or possible if the C++ std is C+11 or newer
 210:C:/Renesas/e2studio_2021_01_workspace_RZA2M_ANPR/ANPR_RZA2M_GR_MANGO/src/tensorflow_lite/third_party/flatbuffers/include/flatbuffers\base.h **** #if (defined(_MSC_VER) && _MSC_VER > 1700 /* MSVC2012 */) \
 211:C:/Renesas/e2studio_2021_01_workspace_RZA2M_ANPR/ANPR_RZA2M_GR_MANGO/src/tensorflow_lite/third_party/flatbuffers/include/flatbuffers\base.h ****     || (defined(__cpp_alias_templates) && __cpp_alias_templates >= 200704) \
 212:C:/Renesas/e2studio_2021_01_workspace_RZA2M_ANPR/ANPR_RZA2M_GR_MANGO/src/tensorflow_lite/third_party/flatbuffers/include/flatbuffers\base.h ****     || (defined(__cplusplus) && __cplusplus >= 201103L)
 213:C:/Renesas/e2studio_2021_01_workspace_RZA2M_ANPR/ANPR_RZA2M_GR_MANGO/src/tensorflow_lite/third_party/flatbuffers/include/flatbuffers\base.h ****   #define FLATBUFFERS_TEMPLATES_ALIASES
 214:C:/Renesas/e2studio_2021_01_workspace_RZA2M_ANPR/ANPR_RZA2M_GR_MANGO/src/tensorflow_lite/third_party/flatbuffers/include/flatbuffers\base.h **** #endif
 215:C:/Renesas/e2studio_2021_01_workspace_RZA2M_ANPR/ANPR_RZA2M_GR_MANGO/src/tensorflow_lite/third_party/flatbuffers/include/flatbuffers\base.h **** 
 216:C:/Renesas/e2studio_2021_01_workspace_RZA2M_ANPR/ANPR_RZA2M_GR_MANGO/src/tensorflow_lite/third_party/flatbuffers/include/flatbuffers\base.h **** #ifndef FLATBUFFERS_HAS_STRING_VIEW
 217:C:/Renesas/e2studio_2021_01_workspace_RZA2M_ANPR/ANPR_RZA2M_GR_MANGO/src/tensorflow_lite/third_party/flatbuffers/include/flatbuffers\base.h ****   // Only provide flatbuffers::string_view if __has_include can be used
 218:C:/Renesas/e2studio_2021_01_workspace_RZA2M_ANPR/ANPR_RZA2M_GR_MANGO/src/tensorflow_lite/third_party/flatbuffers/include/flatbuffers\base.h ****   // to detect a header that provides an implementation
 219:C:/Renesas/e2studio_2021_01_workspace_RZA2M_ANPR/ANPR_RZA2M_GR_MANGO/src/tensorflow_lite/third_party/flatbuffers/include/flatbuffers\base.h ****   #if defined(__has_include)
 220:C:/Renesas/e2studio_2021_01_workspace_RZA2M_ANPR/ANPR_RZA2M_GR_MANGO/src/tensorflow_lite/third_party/flatbuffers/include/flatbuffers\base.h ****     // Check for std::string_view (in c++17)
 221:C:/Renesas/e2studio_2021_01_workspace_RZA2M_ANPR/ANPR_RZA2M_GR_MANGO/src/tensorflow_lite/third_party/flatbuffers/include/flatbuffers\base.h ****     #if __has_include(<string_view>) && (__cplusplus >= 201606 || (defined(_HAS_CXX17) && _HAS_CXX1
 222:C:/Renesas/e2studio_2021_01_workspace_RZA2M_ANPR/ANPR_RZA2M_GR_MANGO/src/tensorflow_lite/third_party/flatbuffers/include/flatbuffers\base.h ****       #include <string_view>
 223:C:/Renesas/e2studio_2021_01_workspace_RZA2M_ANPR/ANPR_RZA2M_GR_MANGO/src/tensorflow_lite/third_party/flatbuffers/include/flatbuffers\base.h ****       namespace flatbuffers {
 224:C:/Renesas/e2studio_2021_01_workspace_RZA2M_ANPR/ANPR_RZA2M_GR_MANGO/src/tensorflow_lite/third_party/flatbuffers/include/flatbuffers\base.h ****         typedef std::string_view string_view;
 225:C:/Renesas/e2studio_2021_01_workspace_RZA2M_ANPR/ANPR_RZA2M_GR_MANGO/src/tensorflow_lite/third_party/flatbuffers/include/flatbuffers\base.h ****       }
 226:C:/Renesas/e2studio_2021_01_workspace_RZA2M_ANPR/ANPR_RZA2M_GR_MANGO/src/tensorflow_lite/third_party/flatbuffers/include/flatbuffers\base.h ****       #define FLATBUFFERS_HAS_STRING_VIEW 1
 227:C:/Renesas/e2studio_2021_01_workspace_RZA2M_ANPR/ANPR_RZA2M_GR_MANGO/src/tensorflow_lite/third_party/flatbuffers/include/flatbuffers\base.h ****     // Check for std::experimental::string_view (in c++14, compiler-dependent)
 228:C:/Renesas/e2studio_2021_01_workspace_RZA2M_ANPR/ANPR_RZA2M_GR_MANGO/src/tensorflow_lite/third_party/flatbuffers/include/flatbuffers\base.h ****     #elif __has_include(<experimental/string_view>) && (__cplusplus >= 201411)
 229:C:/Renesas/e2studio_2021_01_workspace_RZA2M_ANPR/ANPR_RZA2M_GR_MANGO/src/tensorflow_lite/third_party/flatbuffers/include/flatbuffers\base.h ****       #include <experimental/string_view>
 230:C:/Renesas/e2studio_2021_01_workspace_RZA2M_ANPR/ANPR_RZA2M_GR_MANGO/src/tensorflow_lite/third_party/flatbuffers/include/flatbuffers\base.h ****       namespace flatbuffers {
 231:C:/Renesas/e2studio_2021_01_workspace_RZA2M_ANPR/ANPR_RZA2M_GR_MANGO/src/tensorflow_lite/third_party/flatbuffers/include/flatbuffers\base.h ****         typedef std::experimental::string_view string_view;
 232:C:/Renesas/e2studio_2021_01_workspace_RZA2M_ANPR/ANPR_RZA2M_GR_MANGO/src/tensorflow_lite/third_party/flatbuffers/include/flatbuffers\base.h ****       }
 233:C:/Renesas/e2studio_2021_01_workspace_RZA2M_ANPR/ANPR_RZA2M_GR_MANGO/src/tensorflow_lite/third_party/flatbuffers/include/flatbuffers\base.h ****       #define FLATBUFFERS_HAS_STRING_VIEW 1
 234:C:/Renesas/e2studio_2021_01_workspace_RZA2M_ANPR/ANPR_RZA2M_GR_MANGO/src/tensorflow_lite/third_party/flatbuffers/include/flatbuffers\base.h ****     // Check for absl::string_view
 235:C:/Renesas/e2studio_2021_01_workspace_RZA2M_ANPR/ANPR_RZA2M_GR_MANGO/src/tensorflow_lite/third_party/flatbuffers/include/flatbuffers\base.h ****     #elif __has_include("absl/strings/string_view.h")
 236:C:/Renesas/e2studio_2021_01_workspace_RZA2M_ANPR/ANPR_RZA2M_GR_MANGO/src/tensorflow_lite/third_party/flatbuffers/include/flatbuffers\base.h ****       #include "absl/strings/string_view.h"
 237:C:/Renesas/e2studio_2021_01_workspace_RZA2M_ANPR/ANPR_RZA2M_GR_MANGO/src/tensorflow_lite/third_party/flatbuffers/include/flatbuffers\base.h ****       namespace flatbuffers {
 238:C:/Renesas/e2studio_2021_01_workspace_RZA2M_ANPR/ANPR_RZA2M_GR_MANGO/src/tensorflow_lite/third_party/flatbuffers/include/flatbuffers\base.h ****         typedef absl::string_view string_view;
 239:C:/Renesas/e2studio_2021_01_workspace_RZA2M_ANPR/ANPR_RZA2M_GR_MANGO/src/tensorflow_lite/third_party/flatbuffers/include/flatbuffers\base.h ****       }
 240:C:/Renesas/e2studio_2021_01_workspace_RZA2M_ANPR/ANPR_RZA2M_GR_MANGO/src/tensorflow_lite/third_party/flatbuffers/include/flatbuffers\base.h ****       #define FLATBUFFERS_HAS_STRING_VIEW 1
 241:C:/Renesas/e2studio_2021_01_workspace_RZA2M_ANPR/ANPR_RZA2M_GR_MANGO/src/tensorflow_lite/third_party/flatbuffers/include/flatbuffers\base.h ****     #endif
 242:C:/Renesas/e2studio_2021_01_workspace_RZA2M_ANPR/ANPR_RZA2M_GR_MANGO/src/tensorflow_lite/third_party/flatbuffers/include/flatbuffers\base.h ****   #endif // __has_include
 243:C:/Renesas/e2studio_2021_01_workspace_RZA2M_ANPR/ANPR_RZA2M_GR_MANGO/src/tensorflow_lite/third_party/flatbuffers/include/flatbuffers\base.h **** #endif // !FLATBUFFERS_HAS_STRING_VIEW
 244:C:/Renesas/e2studio_2021_01_workspace_RZA2M_ANPR/ANPR_RZA2M_GR_MANGO/src/tensorflow_lite/third_party/flatbuffers/include/flatbuffers\base.h **** 
 245:C:/Renesas/e2studio_2021_01_workspace_RZA2M_ANPR/ANPR_RZA2M_GR_MANGO/src/tensorflow_lite/third_party/flatbuffers/include/flatbuffers\base.h **** #ifndef FLATBUFFERS_HAS_NEW_STRTOD
 246:C:/Renesas/e2studio_2021_01_workspace_RZA2M_ANPR/ANPR_RZA2M_GR_MANGO/src/tensorflow_lite/third_party/flatbuffers/include/flatbuffers\base.h ****   // Modern (C++11) strtod and strtof functions are available for use.
 247:C:/Renesas/e2studio_2021_01_workspace_RZA2M_ANPR/ANPR_RZA2M_GR_MANGO/src/tensorflow_lite/third_party/flatbuffers/include/flatbuffers\base.h ****   // 1) nan/inf strings as argument of strtod;
 248:C:/Renesas/e2studio_2021_01_workspace_RZA2M_ANPR/ANPR_RZA2M_GR_MANGO/src/tensorflow_lite/third_party/flatbuffers/include/flatbuffers\base.h ****   // 2) hex-float  as argument of  strtod/strtof.
 249:C:/Renesas/e2studio_2021_01_workspace_RZA2M_ANPR/ANPR_RZA2M_GR_MANGO/src/tensorflow_lite/third_party/flatbuffers/include/flatbuffers\base.h ****   #if (defined(_MSC_VER) && _MSC_VER >= 1900) || \
 250:C:/Renesas/e2studio_2021_01_workspace_RZA2M_ANPR/ANPR_RZA2M_GR_MANGO/src/tensorflow_lite/third_party/flatbuffers/include/flatbuffers\base.h ****       (defined(__GNUC__) && (__GNUC__ * 100 + __GNUC_MINOR__ >= 409)) || \
 251:C:/Renesas/e2studio_2021_01_workspace_RZA2M_ANPR/ANPR_RZA2M_GR_MANGO/src/tensorflow_lite/third_party/flatbuffers/include/flatbuffers\base.h ****       (defined(__clang__))
 252:C:/Renesas/e2studio_2021_01_workspace_RZA2M_ANPR/ANPR_RZA2M_GR_MANGO/src/tensorflow_lite/third_party/flatbuffers/include/flatbuffers\base.h ****     #define FLATBUFFERS_HAS_NEW_STRTOD 1
 253:C:/Renesas/e2studio_2021_01_workspace_RZA2M_ANPR/ANPR_RZA2M_GR_MANGO/src/tensorflow_lite/third_party/flatbuffers/include/flatbuffers\base.h ****   #endif
 254:C:/Renesas/e2studio_2021_01_workspace_RZA2M_ANPR/ANPR_RZA2M_GR_MANGO/src/tensorflow_lite/third_party/flatbuffers/include/flatbuffers\base.h **** #endif // !FLATBUFFERS_HAS_NEW_STRTOD
 255:C:/Renesas/e2studio_2021_01_workspace_RZA2M_ANPR/ANPR_RZA2M_GR_MANGO/src/tensorflow_lite/third_party/flatbuffers/include/flatbuffers\base.h **** 
 256:C:/Renesas/e2studio_2021_01_workspace_RZA2M_ANPR/ANPR_RZA2M_GR_MANGO/src/tensorflow_lite/third_party/flatbuffers/include/flatbuffers\base.h **** #ifndef FLATBUFFERS_LOCALE_INDEPENDENT
 257:C:/Renesas/e2studio_2021_01_workspace_RZA2M_ANPR/ANPR_RZA2M_GR_MANGO/src/tensorflow_lite/third_party/flatbuffers/include/flatbuffers\base.h ****   // Enable locale independent functions {strtof_l, strtod_l,strtoll_l, strtoull_l}.
 258:C:/Renesas/e2studio_2021_01_workspace_RZA2M_ANPR/ANPR_RZA2M_GR_MANGO/src/tensorflow_lite/third_party/flatbuffers/include/flatbuffers\base.h ****   #if ((defined(_MSC_VER) && _MSC_VER >= 1800)            || \
 259:C:/Renesas/e2studio_2021_01_workspace_RZA2M_ANPR/ANPR_RZA2M_GR_MANGO/src/tensorflow_lite/third_party/flatbuffers/include/flatbuffers\base.h ****        (defined(_XOPEN_VERSION) && (_XOPEN_VERSION>=700)) && (!defined(__ANDROID_API__) || (defined
 260:C:/Renesas/e2studio_2021_01_workspace_RZA2M_ANPR/ANPR_RZA2M_GR_MANGO/src/tensorflow_lite/third_party/flatbuffers/include/flatbuffers\base.h ****     #define FLATBUFFERS_LOCALE_INDEPENDENT 1
 261:C:/Renesas/e2studio_2021_01_workspace_RZA2M_ANPR/ANPR_RZA2M_GR_MANGO/src/tensorflow_lite/third_party/flatbuffers/include/flatbuffers\base.h ****   #else
 262:C:/Renesas/e2studio_2021_01_workspace_RZA2M_ANPR/ANPR_RZA2M_GR_MANGO/src/tensorflow_lite/third_party/flatbuffers/include/flatbuffers\base.h ****     #define FLATBUFFERS_LOCALE_INDEPENDENT 0
 263:C:/Renesas/e2studio_2021_01_workspace_RZA2M_ANPR/ANPR_RZA2M_GR_MANGO/src/tensorflow_lite/third_party/flatbuffers/include/flatbuffers\base.h ****   #endif
 264:C:/Renesas/e2studio_2021_01_workspace_RZA2M_ANPR/ANPR_RZA2M_GR_MANGO/src/tensorflow_lite/third_party/flatbuffers/include/flatbuffers\base.h **** #endif  // !FLATBUFFERS_LOCALE_INDEPENDENT
 265:C:/Renesas/e2studio_2021_01_workspace_RZA2M_ANPR/ANPR_RZA2M_GR_MANGO/src/tensorflow_lite/third_party/flatbuffers/include/flatbuffers\base.h **** 
 266:C:/Renesas/e2studio_2021_01_workspace_RZA2M_ANPR/ANPR_RZA2M_GR_MANGO/src/tensorflow_lite/third_party/flatbuffers/include/flatbuffers\base.h **** // Suppress Undefined Behavior Sanitizer (recoverable only). Usage:
 267:C:/Renesas/e2studio_2021_01_workspace_RZA2M_ANPR/ANPR_RZA2M_GR_MANGO/src/tensorflow_lite/third_party/flatbuffers/include/flatbuffers\base.h **** // - __supress_ubsan__("undefined")
 268:C:/Renesas/e2studio_2021_01_workspace_RZA2M_ANPR/ANPR_RZA2M_GR_MANGO/src/tensorflow_lite/third_party/flatbuffers/include/flatbuffers\base.h **** // - __supress_ubsan__("signed-integer-overflow")
 269:C:/Renesas/e2studio_2021_01_workspace_RZA2M_ANPR/ANPR_RZA2M_GR_MANGO/src/tensorflow_lite/third_party/flatbuffers/include/flatbuffers\base.h **** #if defined(__clang__) && (__clang_major__ > 3 || (__clang_major__ == 3 && __clang_minor__ >=7))
 270:C:/Renesas/e2studio_2021_01_workspace_RZA2M_ANPR/ANPR_RZA2M_GR_MANGO/src/tensorflow_lite/third_party/flatbuffers/include/flatbuffers\base.h ****   #define __supress_ubsan__(type) __attribute__((no_sanitize(type)))
 271:C:/Renesas/e2studio_2021_01_workspace_RZA2M_ANPR/ANPR_RZA2M_GR_MANGO/src/tensorflow_lite/third_party/flatbuffers/include/flatbuffers\base.h **** #elif defined(__GNUC__) && (__GNUC__ * 100 + __GNUC_MINOR__ >= 409)
 272:C:/Renesas/e2studio_2021_01_workspace_RZA2M_ANPR/ANPR_RZA2M_GR_MANGO/src/tensorflow_lite/third_party/flatbuffers/include/flatbuffers\base.h ****   #define __supress_ubsan__(type) __attribute__((no_sanitize_undefined))
 273:C:/Renesas/e2studio_2021_01_workspace_RZA2M_ANPR/ANPR_RZA2M_GR_MANGO/src/tensorflow_lite/third_party/flatbuffers/include/flatbuffers\base.h **** #else
 274:C:/Renesas/e2studio_2021_01_workspace_RZA2M_ANPR/ANPR_RZA2M_GR_MANGO/src/tensorflow_lite/third_party/flatbuffers/include/flatbuffers\base.h ****   #define __supress_ubsan__(type)
 275:C:/Renesas/e2studio_2021_01_workspace_RZA2M_ANPR/ANPR_RZA2M_GR_MANGO/src/tensorflow_lite/third_party/flatbuffers/include/flatbuffers\base.h **** #endif
 276:C:/Renesas/e2studio_2021_01_workspace_RZA2M_ANPR/ANPR_RZA2M_GR_MANGO/src/tensorflow_lite/third_party/flatbuffers/include/flatbuffers\base.h **** 
 277:C:/Renesas/e2studio_2021_01_workspace_RZA2M_ANPR/ANPR_RZA2M_GR_MANGO/src/tensorflow_lite/third_party/flatbuffers/include/flatbuffers\base.h **** // This is constexpr function used for checking compile-time constants.
 278:C:/Renesas/e2studio_2021_01_workspace_RZA2M_ANPR/ANPR_RZA2M_GR_MANGO/src/tensorflow_lite/third_party/flatbuffers/include/flatbuffers\base.h **** // Avoid `#pragma warning(disable: 4127) // C4127: expression is constant`.
 279:C:/Renesas/e2studio_2021_01_workspace_RZA2M_ANPR/ANPR_RZA2M_GR_MANGO/src/tensorflow_lite/third_party/flatbuffers/include/flatbuffers\base.h **** template<typename T> FLATBUFFERS_CONSTEXPR inline bool IsConstTrue(T t) {
 280:C:/Renesas/e2studio_2021_01_workspace_RZA2M_ANPR/ANPR_RZA2M_GR_MANGO/src/tensorflow_lite/third_party/flatbuffers/include/flatbuffers\base.h ****   return !!t;
 281:C:/Renesas/e2studio_2021_01_workspace_RZA2M_ANPR/ANPR_RZA2M_GR_MANGO/src/tensorflow_lite/third_party/flatbuffers/include/flatbuffers\base.h **** }
 282:C:/Renesas/e2studio_2021_01_workspace_RZA2M_ANPR/ANPR_RZA2M_GR_MANGO/src/tensorflow_lite/third_party/flatbuffers/include/flatbuffers\base.h **** 
 283:C:/Renesas/e2studio_2021_01_workspace_RZA2M_ANPR/ANPR_RZA2M_GR_MANGO/src/tensorflow_lite/third_party/flatbuffers/include/flatbuffers\base.h **** // Enable C++ attribute [[]] if std:c++17 or higher.
 284:C:/Renesas/e2studio_2021_01_workspace_RZA2M_ANPR/ANPR_RZA2M_GR_MANGO/src/tensorflow_lite/third_party/flatbuffers/include/flatbuffers\base.h **** #if ((__cplusplus >= 201703L) \
 285:C:/Renesas/e2studio_2021_01_workspace_RZA2M_ANPR/ANPR_RZA2M_GR_MANGO/src/tensorflow_lite/third_party/flatbuffers/include/flatbuffers\base.h ****     || (defined(_MSVC_LANG) &&  (_MSVC_LANG >= 201703L)))
 286:C:/Renesas/e2studio_2021_01_workspace_RZA2M_ANPR/ANPR_RZA2M_GR_MANGO/src/tensorflow_lite/third_party/flatbuffers/include/flatbuffers\base.h ****   // All attributes unknown to an implementation are ignored without causing an error.
 287:C:/Renesas/e2studio_2021_01_workspace_RZA2M_ANPR/ANPR_RZA2M_GR_MANGO/src/tensorflow_lite/third_party/flatbuffers/include/flatbuffers\base.h ****   #define FLATBUFFERS_ATTRIBUTE(attr) [[attr]]
 288:C:/Renesas/e2studio_2021_01_workspace_RZA2M_ANPR/ANPR_RZA2M_GR_MANGO/src/tensorflow_lite/third_party/flatbuffers/include/flatbuffers\base.h **** 
 289:C:/Renesas/e2studio_2021_01_workspace_RZA2M_ANPR/ANPR_RZA2M_GR_MANGO/src/tensorflow_lite/third_party/flatbuffers/include/flatbuffers\base.h ****   #define FLATBUFFERS_FALLTHROUGH() [[fallthrough]]
 290:C:/Renesas/e2studio_2021_01_workspace_RZA2M_ANPR/ANPR_RZA2M_GR_MANGO/src/tensorflow_lite/third_party/flatbuffers/include/flatbuffers\base.h **** #else
 291:C:/Renesas/e2studio_2021_01_workspace_RZA2M_ANPR/ANPR_RZA2M_GR_MANGO/src/tensorflow_lite/third_party/flatbuffers/include/flatbuffers\base.h ****   #define FLATBUFFERS_ATTRIBUTE(attr)
 292:C:/Renesas/e2studio_2021_01_workspace_RZA2M_ANPR/ANPR_RZA2M_GR_MANGO/src/tensorflow_lite/third_party/flatbuffers/include/flatbuffers\base.h **** 
 293:C:/Renesas/e2studio_2021_01_workspace_RZA2M_ANPR/ANPR_RZA2M_GR_MANGO/src/tensorflow_lite/third_party/flatbuffers/include/flatbuffers\base.h ****   #if FLATBUFFERS_CLANG >= 30800
 294:C:/Renesas/e2studio_2021_01_workspace_RZA2M_ANPR/ANPR_RZA2M_GR_MANGO/src/tensorflow_lite/third_party/flatbuffers/include/flatbuffers\base.h ****     #define FLATBUFFERS_FALLTHROUGH() [[clang::fallthrough]]
 295:C:/Renesas/e2studio_2021_01_workspace_RZA2M_ANPR/ANPR_RZA2M_GR_MANGO/src/tensorflow_lite/third_party/flatbuffers/include/flatbuffers\base.h ****   #elif FLATBUFFERS_GCC >= 70300
 296:C:/Renesas/e2studio_2021_01_workspace_RZA2M_ANPR/ANPR_RZA2M_GR_MANGO/src/tensorflow_lite/third_party/flatbuffers/include/flatbuffers\base.h ****     #define FLATBUFFERS_FALLTHROUGH() [[gnu::fallthrough]]
 297:C:/Renesas/e2studio_2021_01_workspace_RZA2M_ANPR/ANPR_RZA2M_GR_MANGO/src/tensorflow_lite/third_party/flatbuffers/include/flatbuffers\base.h ****   #else
 298:C:/Renesas/e2studio_2021_01_workspace_RZA2M_ANPR/ANPR_RZA2M_GR_MANGO/src/tensorflow_lite/third_party/flatbuffers/include/flatbuffers\base.h ****     #define FLATBUFFERS_FALLTHROUGH()
 299:C:/Renesas/e2studio_2021_01_workspace_RZA2M_ANPR/ANPR_RZA2M_GR_MANGO/src/tensorflow_lite/third_party/flatbuffers/include/flatbuffers\base.h ****   #endif
 300:C:/Renesas/e2studio_2021_01_workspace_RZA2M_ANPR/ANPR_RZA2M_GR_MANGO/src/tensorflow_lite/third_party/flatbuffers/include/flatbuffers\base.h **** #endif
 301:C:/Renesas/e2studio_2021_01_workspace_RZA2M_ANPR/ANPR_RZA2M_GR_MANGO/src/tensorflow_lite/third_party/flatbuffers/include/flatbuffers\base.h **** 
 302:C:/Renesas/e2studio_2021_01_workspace_RZA2M_ANPR/ANPR_RZA2M_GR_MANGO/src/tensorflow_lite/third_party/flatbuffers/include/flatbuffers\base.h **** /// @endcond
 303:C:/Renesas/e2studio_2021_01_workspace_RZA2M_ANPR/ANPR_RZA2M_GR_MANGO/src/tensorflow_lite/third_party/flatbuffers/include/flatbuffers\base.h **** 
 304:C:/Renesas/e2studio_2021_01_workspace_RZA2M_ANPR/ANPR_RZA2M_GR_MANGO/src/tensorflow_lite/third_party/flatbuffers/include/flatbuffers\base.h **** /// @file
 305:C:/Renesas/e2studio_2021_01_workspace_RZA2M_ANPR/ANPR_RZA2M_GR_MANGO/src/tensorflow_lite/third_party/flatbuffers/include/flatbuffers\base.h **** namespace flatbuffers {
 306:C:/Renesas/e2studio_2021_01_workspace_RZA2M_ANPR/ANPR_RZA2M_GR_MANGO/src/tensorflow_lite/third_party/flatbuffers/include/flatbuffers\base.h **** 
 307:C:/Renesas/e2studio_2021_01_workspace_RZA2M_ANPR/ANPR_RZA2M_GR_MANGO/src/tensorflow_lite/third_party/flatbuffers/include/flatbuffers\base.h **** /// @cond FLATBUFFERS_INTERNAL
 308:C:/Renesas/e2studio_2021_01_workspace_RZA2M_ANPR/ANPR_RZA2M_GR_MANGO/src/tensorflow_lite/third_party/flatbuffers/include/flatbuffers\base.h **** // Our default offset / size type, 32bit on purpose on 64bit systems.
 309:C:/Renesas/e2studio_2021_01_workspace_RZA2M_ANPR/ANPR_RZA2M_GR_MANGO/src/tensorflow_lite/third_party/flatbuffers/include/flatbuffers\base.h **** // Also, using a consistent offset type maintains compatibility of serialized
 310:C:/Renesas/e2studio_2021_01_workspace_RZA2M_ANPR/ANPR_RZA2M_GR_MANGO/src/tensorflow_lite/third_party/flatbuffers/include/flatbuffers\base.h **** // offset values between 32bit and 64bit systems.
 311:C:/Renesas/e2studio_2021_01_workspace_RZA2M_ANPR/ANPR_RZA2M_GR_MANGO/src/tensorflow_lite/third_party/flatbuffers/include/flatbuffers\base.h **** typedef uint32_t uoffset_t;
 312:C:/Renesas/e2studio_2021_01_workspace_RZA2M_ANPR/ANPR_RZA2M_GR_MANGO/src/tensorflow_lite/third_party/flatbuffers/include/flatbuffers\base.h **** 
 313:C:/Renesas/e2studio_2021_01_workspace_RZA2M_ANPR/ANPR_RZA2M_GR_MANGO/src/tensorflow_lite/third_party/flatbuffers/include/flatbuffers\base.h **** // Signed offsets for references that can go in both directions.
 314:C:/Renesas/e2studio_2021_01_workspace_RZA2M_ANPR/ANPR_RZA2M_GR_MANGO/src/tensorflow_lite/third_party/flatbuffers/include/flatbuffers\base.h **** typedef int32_t soffset_t;
 315:C:/Renesas/e2studio_2021_01_workspace_RZA2M_ANPR/ANPR_RZA2M_GR_MANGO/src/tensorflow_lite/third_party/flatbuffers/include/flatbuffers\base.h **** 
 316:C:/Renesas/e2studio_2021_01_workspace_RZA2M_ANPR/ANPR_RZA2M_GR_MANGO/src/tensorflow_lite/third_party/flatbuffers/include/flatbuffers\base.h **** // Offset/index used in v-tables, can be changed to uint8_t in
 317:C:/Renesas/e2studio_2021_01_workspace_RZA2M_ANPR/ANPR_RZA2M_GR_MANGO/src/tensorflow_lite/third_party/flatbuffers/include/flatbuffers\base.h **** // format forks to save a bit of space if desired.
 318:C:/Renesas/e2studio_2021_01_workspace_RZA2M_ANPR/ANPR_RZA2M_GR_MANGO/src/tensorflow_lite/third_party/flatbuffers/include/flatbuffers\base.h **** typedef uint16_t voffset_t;
 319:C:/Renesas/e2studio_2021_01_workspace_RZA2M_ANPR/ANPR_RZA2M_GR_MANGO/src/tensorflow_lite/third_party/flatbuffers/include/flatbuffers\base.h **** 
 320:C:/Renesas/e2studio_2021_01_workspace_RZA2M_ANPR/ANPR_RZA2M_GR_MANGO/src/tensorflow_lite/third_party/flatbuffers/include/flatbuffers\base.h **** typedef uintmax_t largest_scalar_t;
 321:C:/Renesas/e2studio_2021_01_workspace_RZA2M_ANPR/ANPR_RZA2M_GR_MANGO/src/tensorflow_lite/third_party/flatbuffers/include/flatbuffers\base.h **** 
 322:C:/Renesas/e2studio_2021_01_workspace_RZA2M_ANPR/ANPR_RZA2M_GR_MANGO/src/tensorflow_lite/third_party/flatbuffers/include/flatbuffers\base.h **** // In 32bits, this evaluates to 2GB - 1
 323:C:/Renesas/e2studio_2021_01_workspace_RZA2M_ANPR/ANPR_RZA2M_GR_MANGO/src/tensorflow_lite/third_party/flatbuffers/include/flatbuffers\base.h **** #define FLATBUFFERS_MAX_BUFFER_SIZE ((1ULL << (sizeof(::flatbuffers::soffset_t) * 8 - 1)) - 1)
 324:C:/Renesas/e2studio_2021_01_workspace_RZA2M_ANPR/ANPR_RZA2M_GR_MANGO/src/tensorflow_lite/third_party/flatbuffers/include/flatbuffers\base.h **** 
 325:C:/Renesas/e2studio_2021_01_workspace_RZA2M_ANPR/ANPR_RZA2M_GR_MANGO/src/tensorflow_lite/third_party/flatbuffers/include/flatbuffers\base.h **** // We support aligning the contents of buffers up to this size.
 326:C:/Renesas/e2studio_2021_01_workspace_RZA2M_ANPR/ANPR_RZA2M_GR_MANGO/src/tensorflow_lite/third_party/flatbuffers/include/flatbuffers\base.h **** #define FLATBUFFERS_MAX_ALIGNMENT 16
 327:C:/Renesas/e2studio_2021_01_workspace_RZA2M_ANPR/ANPR_RZA2M_GR_MANGO/src/tensorflow_lite/third_party/flatbuffers/include/flatbuffers\base.h **** 
 328:C:/Renesas/e2studio_2021_01_workspace_RZA2M_ANPR/ANPR_RZA2M_GR_MANGO/src/tensorflow_lite/third_party/flatbuffers/include/flatbuffers\base.h **** #if defined(_MSC_VER)
 329:C:/Renesas/e2studio_2021_01_workspace_RZA2M_ANPR/ANPR_RZA2M_GR_MANGO/src/tensorflow_lite/third_party/flatbuffers/include/flatbuffers\base.h ****   #pragma warning(disable: 4351) // C4351: new behavior: elements of array ... will be default init
 330:C:/Renesas/e2studio_2021_01_workspace_RZA2M_ANPR/ANPR_RZA2M_GR_MANGO/src/tensorflow_lite/third_party/flatbuffers/include/flatbuffers\base.h ****   #pragma warning(push)
 331:C:/Renesas/e2studio_2021_01_workspace_RZA2M_ANPR/ANPR_RZA2M_GR_MANGO/src/tensorflow_lite/third_party/flatbuffers/include/flatbuffers\base.h ****   #pragma warning(disable: 4127) // C4127: conditional expression is constant
 332:C:/Renesas/e2studio_2021_01_workspace_RZA2M_ANPR/ANPR_RZA2M_GR_MANGO/src/tensorflow_lite/third_party/flatbuffers/include/flatbuffers\base.h **** #endif
 333:C:/Renesas/e2studio_2021_01_workspace_RZA2M_ANPR/ANPR_RZA2M_GR_MANGO/src/tensorflow_lite/third_party/flatbuffers/include/flatbuffers\base.h **** 
 334:C:/Renesas/e2studio_2021_01_workspace_RZA2M_ANPR/ANPR_RZA2M_GR_MANGO/src/tensorflow_lite/third_party/flatbuffers/include/flatbuffers\base.h **** template<typename T> T EndianSwap(T t) {
 335:C:/Renesas/e2studio_2021_01_workspace_RZA2M_ANPR/ANPR_RZA2M_GR_MANGO/src/tensorflow_lite/third_party/flatbuffers/include/flatbuffers\base.h ****   #if defined(_MSC_VER)
 336:C:/Renesas/e2studio_2021_01_workspace_RZA2M_ANPR/ANPR_RZA2M_GR_MANGO/src/tensorflow_lite/third_party/flatbuffers/include/flatbuffers\base.h ****     #define FLATBUFFERS_BYTESWAP16 _byteswap_ushort
 337:C:/Renesas/e2studio_2021_01_workspace_RZA2M_ANPR/ANPR_RZA2M_GR_MANGO/src/tensorflow_lite/third_party/flatbuffers/include/flatbuffers\base.h ****     #define FLATBUFFERS_BYTESWAP32 _byteswap_ulong
 338:C:/Renesas/e2studio_2021_01_workspace_RZA2M_ANPR/ANPR_RZA2M_GR_MANGO/src/tensorflow_lite/third_party/flatbuffers/include/flatbuffers\base.h ****     #define FLATBUFFERS_BYTESWAP64 _byteswap_uint64
 339:C:/Renesas/e2studio_2021_01_workspace_RZA2M_ANPR/ANPR_RZA2M_GR_MANGO/src/tensorflow_lite/third_party/flatbuffers/include/flatbuffers\base.h ****   #elif defined(__ICCARM__)
 340:C:/Renesas/e2studio_2021_01_workspace_RZA2M_ANPR/ANPR_RZA2M_GR_MANGO/src/tensorflow_lite/third_party/flatbuffers/include/flatbuffers\base.h ****     #define FLATBUFFERS_BYTESWAP16 __REV16
 341:C:/Renesas/e2studio_2021_01_workspace_RZA2M_ANPR/ANPR_RZA2M_GR_MANGO/src/tensorflow_lite/third_party/flatbuffers/include/flatbuffers\base.h ****     #define FLATBUFFERS_BYTESWAP32 __REV
 342:C:/Renesas/e2studio_2021_01_workspace_RZA2M_ANPR/ANPR_RZA2M_GR_MANGO/src/tensorflow_lite/third_party/flatbuffers/include/flatbuffers\base.h ****     #define FLATBUFFERS_BYTESWAP64(x) \
 343:C:/Renesas/e2studio_2021_01_workspace_RZA2M_ANPR/ANPR_RZA2M_GR_MANGO/src/tensorflow_lite/third_party/flatbuffers/include/flatbuffers\base.h ****        ((__REV(static_cast<uint32_t>(x >> 32U))) | (static_cast<uint64_t>(__REV(static_cast<uint32_
 344:C:/Renesas/e2studio_2021_01_workspace_RZA2M_ANPR/ANPR_RZA2M_GR_MANGO/src/tensorflow_lite/third_party/flatbuffers/include/flatbuffers\base.h ****   #else
 345:C:/Renesas/e2studio_2021_01_workspace_RZA2M_ANPR/ANPR_RZA2M_GR_MANGO/src/tensorflow_lite/third_party/flatbuffers/include/flatbuffers\base.h ****     #if defined(__GNUC__) && __GNUC__ * 100 + __GNUC_MINOR__ < 408 && !defined(__clang__)
 346:C:/Renesas/e2studio_2021_01_workspace_RZA2M_ANPR/ANPR_RZA2M_GR_MANGO/src/tensorflow_lite/third_party/flatbuffers/include/flatbuffers\base.h ****       // __builtin_bswap16 was missing prior to GCC 4.8.
 347:C:/Renesas/e2studio_2021_01_workspace_RZA2M_ANPR/ANPR_RZA2M_GR_MANGO/src/tensorflow_lite/third_party/flatbuffers/include/flatbuffers\base.h ****       #define FLATBUFFERS_BYTESWAP16(x) \
 348:C:/Renesas/e2studio_2021_01_workspace_RZA2M_ANPR/ANPR_RZA2M_GR_MANGO/src/tensorflow_lite/third_party/flatbuffers/include/flatbuffers\base.h ****         static_cast<uint16_t>(__builtin_bswap32(static_cast<uint32_t>(x) << 16))
 349:C:/Renesas/e2studio_2021_01_workspace_RZA2M_ANPR/ANPR_RZA2M_GR_MANGO/src/tensorflow_lite/third_party/flatbuffers/include/flatbuffers\base.h ****     #else
 350:C:/Renesas/e2studio_2021_01_workspace_RZA2M_ANPR/ANPR_RZA2M_GR_MANGO/src/tensorflow_lite/third_party/flatbuffers/include/flatbuffers\base.h ****       #define FLATBUFFERS_BYTESWAP16 __builtin_bswap16
 351:C:/Renesas/e2studio_2021_01_workspace_RZA2M_ANPR/ANPR_RZA2M_GR_MANGO/src/tensorflow_lite/third_party/flatbuffers/include/flatbuffers\base.h ****     #endif
 352:C:/Renesas/e2studio_2021_01_workspace_RZA2M_ANPR/ANPR_RZA2M_GR_MANGO/src/tensorflow_lite/third_party/flatbuffers/include/flatbuffers\base.h ****     #define FLATBUFFERS_BYTESWAP32 __builtin_bswap32
 353:C:/Renesas/e2studio_2021_01_workspace_RZA2M_ANPR/ANPR_RZA2M_GR_MANGO/src/tensorflow_lite/third_party/flatbuffers/include/flatbuffers\base.h ****     #define FLATBUFFERS_BYTESWAP64 __builtin_bswap64
 354:C:/Renesas/e2studio_2021_01_workspace_RZA2M_ANPR/ANPR_RZA2M_GR_MANGO/src/tensorflow_lite/third_party/flatbuffers/include/flatbuffers\base.h ****   #endif
 355:C:/Renesas/e2studio_2021_01_workspace_RZA2M_ANPR/ANPR_RZA2M_GR_MANGO/src/tensorflow_lite/third_party/flatbuffers/include/flatbuffers\base.h ****   if (sizeof(T) == 1) {   // Compile-time if-then's.
 356:C:/Renesas/e2studio_2021_01_workspace_RZA2M_ANPR/ANPR_RZA2M_GR_MANGO/src/tensorflow_lite/third_party/flatbuffers/include/flatbuffers\base.h ****     return t;
 357:C:/Renesas/e2studio_2021_01_workspace_RZA2M_ANPR/ANPR_RZA2M_GR_MANGO/src/tensorflow_lite/third_party/flatbuffers/include/flatbuffers\base.h ****   } else if (sizeof(T) == 2) {
 358:C:/Renesas/e2studio_2021_01_workspace_RZA2M_ANPR/ANPR_RZA2M_GR_MANGO/src/tensorflow_lite/third_party/flatbuffers/include/flatbuffers\base.h ****     union { T t; uint16_t i; } u = { t };
 359:C:/Renesas/e2studio_2021_01_workspace_RZA2M_ANPR/ANPR_RZA2M_GR_MANGO/src/tensorflow_lite/third_party/flatbuffers/include/flatbuffers\base.h ****     u.i = FLATBUFFERS_BYTESWAP16(u.i);
 360:C:/Renesas/e2studio_2021_01_workspace_RZA2M_ANPR/ANPR_RZA2M_GR_MANGO/src/tensorflow_lite/third_party/flatbuffers/include/flatbuffers\base.h ****     return u.t;
 361:C:/Renesas/e2studio_2021_01_workspace_RZA2M_ANPR/ANPR_RZA2M_GR_MANGO/src/tensorflow_lite/third_party/flatbuffers/include/flatbuffers\base.h ****   } else if (sizeof(T) == 4) {
 362:C:/Renesas/e2studio_2021_01_workspace_RZA2M_ANPR/ANPR_RZA2M_GR_MANGO/src/tensorflow_lite/third_party/flatbuffers/include/flatbuffers\base.h ****     union { T t; uint32_t i; } u = { t };
 363:C:/Renesas/e2studio_2021_01_workspace_RZA2M_ANPR/ANPR_RZA2M_GR_MANGO/src/tensorflow_lite/third_party/flatbuffers/include/flatbuffers\base.h ****     u.i = FLATBUFFERS_BYTESWAP32(u.i);
 364:C:/Renesas/e2studio_2021_01_workspace_RZA2M_ANPR/ANPR_RZA2M_GR_MANGO/src/tensorflow_lite/third_party/flatbuffers/include/flatbuffers\base.h ****     return u.t;
 365:C:/Renesas/e2studio_2021_01_workspace_RZA2M_ANPR/ANPR_RZA2M_GR_MANGO/src/tensorflow_lite/third_party/flatbuffers/include/flatbuffers\base.h ****   } else if (sizeof(T) == 8) {
 366:C:/Renesas/e2studio_2021_01_workspace_RZA2M_ANPR/ANPR_RZA2M_GR_MANGO/src/tensorflow_lite/third_party/flatbuffers/include/flatbuffers\base.h ****     union { T t; uint64_t i; } u = { t };
 367:C:/Renesas/e2studio_2021_01_workspace_RZA2M_ANPR/ANPR_RZA2M_GR_MANGO/src/tensorflow_lite/third_party/flatbuffers/include/flatbuffers\base.h ****     u.i = FLATBUFFERS_BYTESWAP64(u.i);
 368:C:/Renesas/e2studio_2021_01_workspace_RZA2M_ANPR/ANPR_RZA2M_GR_MANGO/src/tensorflow_lite/third_party/flatbuffers/include/flatbuffers\base.h ****     return u.t;
 369:C:/Renesas/e2studio_2021_01_workspace_RZA2M_ANPR/ANPR_RZA2M_GR_MANGO/src/tensorflow_lite/third_party/flatbuffers/include/flatbuffers\base.h ****   } else {
 370:C:/Renesas/e2studio_2021_01_workspace_RZA2M_ANPR/ANPR_RZA2M_GR_MANGO/src/tensorflow_lite/third_party/flatbuffers/include/flatbuffers\base.h ****     FLATBUFFERS_ASSERT(0);
 371:C:/Renesas/e2studio_2021_01_workspace_RZA2M_ANPR/ANPR_RZA2M_GR_MANGO/src/tensorflow_lite/third_party/flatbuffers/include/flatbuffers\base.h ****     return t;
 372:C:/Renesas/e2studio_2021_01_workspace_RZA2M_ANPR/ANPR_RZA2M_GR_MANGO/src/tensorflow_lite/third_party/flatbuffers/include/flatbuffers\base.h ****   }
 373:C:/Renesas/e2studio_2021_01_workspace_RZA2M_ANPR/ANPR_RZA2M_GR_MANGO/src/tensorflow_lite/third_party/flatbuffers/include/flatbuffers\base.h **** }
 374:C:/Renesas/e2studio_2021_01_workspace_RZA2M_ANPR/ANPR_RZA2M_GR_MANGO/src/tensorflow_lite/third_party/flatbuffers/include/flatbuffers\base.h **** 
 375:C:/Renesas/e2studio_2021_01_workspace_RZA2M_ANPR/ANPR_RZA2M_GR_MANGO/src/tensorflow_lite/third_party/flatbuffers/include/flatbuffers\base.h **** #if defined(_MSC_VER)
 376:C:/Renesas/e2studio_2021_01_workspace_RZA2M_ANPR/ANPR_RZA2M_GR_MANGO/src/tensorflow_lite/third_party/flatbuffers/include/flatbuffers\base.h ****   #pragma warning(pop)
 377:C:/Renesas/e2studio_2021_01_workspace_RZA2M_ANPR/ANPR_RZA2M_GR_MANGO/src/tensorflow_lite/third_party/flatbuffers/include/flatbuffers\base.h **** #endif
 378:C:/Renesas/e2studio_2021_01_workspace_RZA2M_ANPR/ANPR_RZA2M_GR_MANGO/src/tensorflow_lite/third_party/flatbuffers/include/flatbuffers\base.h **** 
 379:C:/Renesas/e2studio_2021_01_workspace_RZA2M_ANPR/ANPR_RZA2M_GR_MANGO/src/tensorflow_lite/third_party/flatbuffers/include/flatbuffers\base.h **** 
 380:C:/Renesas/e2studio_2021_01_workspace_RZA2M_ANPR/ANPR_RZA2M_GR_MANGO/src/tensorflow_lite/third_party/flatbuffers/include/flatbuffers\base.h **** template<typename T> T EndianScalar(T t) {
 381:C:/Renesas/e2studio_2021_01_workspace_RZA2M_ANPR/ANPR_RZA2M_GR_MANGO/src/tensorflow_lite/third_party/flatbuffers/include/flatbuffers\base.h ****   #if FLATBUFFERS_LITTLEENDIAN
 382:C:/Renesas/e2studio_2021_01_workspace_RZA2M_ANPR/ANPR_RZA2M_GR_MANGO/src/tensorflow_lite/third_party/flatbuffers/include/flatbuffers\base.h ****     return t;
 383:C:/Renesas/e2studio_2021_01_workspace_RZA2M_ANPR/ANPR_RZA2M_GR_MANGO/src/tensorflow_lite/third_party/flatbuffers/include/flatbuffers\base.h ****   #else
 384:C:/Renesas/e2studio_2021_01_workspace_RZA2M_ANPR/ANPR_RZA2M_GR_MANGO/src/tensorflow_lite/third_party/flatbuffers/include/flatbuffers\base.h ****     return EndianSwap(t);
 385:C:/Renesas/e2studio_2021_01_workspace_RZA2M_ANPR/ANPR_RZA2M_GR_MANGO/src/tensorflow_lite/third_party/flatbuffers/include/flatbuffers\base.h ****   #endif
 386:C:/Renesas/e2studio_2021_01_workspace_RZA2M_ANPR/ANPR_RZA2M_GR_MANGO/src/tensorflow_lite/third_party/flatbuffers/include/flatbuffers\base.h **** }
 387:C:/Renesas/e2studio_2021_01_workspace_RZA2M_ANPR/ANPR_RZA2M_GR_MANGO/src/tensorflow_lite/third_party/flatbuffers/include/flatbuffers\base.h **** 
 388:C:/Renesas/e2studio_2021_01_workspace_RZA2M_ANPR/ANPR_RZA2M_GR_MANGO/src/tensorflow_lite/third_party/flatbuffers/include/flatbuffers\base.h **** template<typename T>
 389:C:/Renesas/e2studio_2021_01_workspace_RZA2M_ANPR/ANPR_RZA2M_GR_MANGO/src/tensorflow_lite/third_party/flatbuffers/include/flatbuffers\base.h **** // UBSAN: C++ aliasing type rules, see std::bit_cast<> for details.
 390:C:/Renesas/e2studio_2021_01_workspace_RZA2M_ANPR/ANPR_RZA2M_GR_MANGO/src/tensorflow_lite/third_party/flatbuffers/include/flatbuffers\base.h **** __supress_ubsan__("alignment")
 391:C:/Renesas/e2studio_2021_01_workspace_RZA2M_ANPR/ANPR_RZA2M_GR_MANGO/src/tensorflow_lite/third_party/flatbuffers/include/flatbuffers\base.h **** T ReadScalar(const void *p) {
 392:C:/Renesas/e2studio_2021_01_workspace_RZA2M_ANPR/ANPR_RZA2M_GR_MANGO/src/tensorflow_lite/third_party/flatbuffers/include/flatbuffers\base.h ****   return EndianScalar(*reinterpret_cast<const T *>(p));
 1312              		.loc 3 392 0
 1313 005c B830D2E1 		ldrh	r3, [r2, #8]
 1314              	.LVL140:
 1315              	.LBE466:
 1316              	.LBE465:
 1317              	.LBE464:
 1318              	.LBE463:
 1319              		.file 4 "C:/Renesas/e2studio_2021_01_workspace_RZA2M_ANPR/ANPR_RZA2M_GR_MANGO/src/tensorflow_lite/
   1:C:/Renesas/e2studio_2021_01_workspace_RZA2M_ANPR/ANPR_RZA2M_GR_MANGO/src/tensorflow_lite/third_party/flatbuffers/include/flatbuffers\flatbuffers.h **** /*
   2:C:/Renesas/e2studio_2021_01_workspace_RZA2M_ANPR/ANPR_RZA2M_GR_MANGO/src/tensorflow_lite/third_party/flatbuffers/include/flatbuffers\flatbuffers.h ****  * Copyright 2014 Google Inc. All rights reserved.
   3:C:/Renesas/e2studio_2021_01_workspace_RZA2M_ANPR/ANPR_RZA2M_GR_MANGO/src/tensorflow_lite/third_party/flatbuffers/include/flatbuffers\flatbuffers.h ****  *
   4:C:/Renesas/e2studio_2021_01_workspace_RZA2M_ANPR/ANPR_RZA2M_GR_MANGO/src/tensorflow_lite/third_party/flatbuffers/include/flatbuffers\flatbuffers.h ****  * Licensed under the Apache License, Version 2.0 (the "License");
   5:C:/Renesas/e2studio_2021_01_workspace_RZA2M_ANPR/ANPR_RZA2M_GR_MANGO/src/tensorflow_lite/third_party/flatbuffers/include/flatbuffers\flatbuffers.h ****  * you may not use this file except in compliance with the License.
   6:C:/Renesas/e2studio_2021_01_workspace_RZA2M_ANPR/ANPR_RZA2M_GR_MANGO/src/tensorflow_lite/third_party/flatbuffers/include/flatbuffers\flatbuffers.h ****  * You may obtain a copy of the License at
   7:C:/Renesas/e2studio_2021_01_workspace_RZA2M_ANPR/ANPR_RZA2M_GR_MANGO/src/tensorflow_lite/third_party/flatbuffers/include/flatbuffers\flatbuffers.h ****  *
   8:C:/Renesas/e2studio_2021_01_workspace_RZA2M_ANPR/ANPR_RZA2M_GR_MANGO/src/tensorflow_lite/third_party/flatbuffers/include/flatbuffers\flatbuffers.h ****  *     http://www.apache.org/licenses/LICENSE-2.0
   9:C:/Renesas/e2studio_2021_01_workspace_RZA2M_ANPR/ANPR_RZA2M_GR_MANGO/src/tensorflow_lite/third_party/flatbuffers/include/flatbuffers\flatbuffers.h ****  *
  10:C:/Renesas/e2studio_2021_01_workspace_RZA2M_ANPR/ANPR_RZA2M_GR_MANGO/src/tensorflow_lite/third_party/flatbuffers/include/flatbuffers\flatbuffers.h ****  * Unless required by applicable law or agreed to in writing, software
  11:C:/Renesas/e2studio_2021_01_workspace_RZA2M_ANPR/ANPR_RZA2M_GR_MANGO/src/tensorflow_lite/third_party/flatbuffers/include/flatbuffers\flatbuffers.h ****  * distributed under the License is distributed on an "AS IS" BASIS,
  12:C:/Renesas/e2studio_2021_01_workspace_RZA2M_ANPR/ANPR_RZA2M_GR_MANGO/src/tensorflow_lite/third_party/flatbuffers/include/flatbuffers\flatbuffers.h ****  * WITHOUT WARRANTIES OR CONDITIONS OF ANY KIND, either express or implied.
  13:C:/Renesas/e2studio_2021_01_workspace_RZA2M_ANPR/ANPR_RZA2M_GR_MANGO/src/tensorflow_lite/third_party/flatbuffers/include/flatbuffers\flatbuffers.h ****  * See the License for the specific language governing permissions and
  14:C:/Renesas/e2studio_2021_01_workspace_RZA2M_ANPR/ANPR_RZA2M_GR_MANGO/src/tensorflow_lite/third_party/flatbuffers/include/flatbuffers\flatbuffers.h ****  * limitations under the License.
  15:C:/Renesas/e2studio_2021_01_workspace_RZA2M_ANPR/ANPR_RZA2M_GR_MANGO/src/tensorflow_lite/third_party/flatbuffers/include/flatbuffers\flatbuffers.h ****  */
  16:C:/Renesas/e2studio_2021_01_workspace_RZA2M_ANPR/ANPR_RZA2M_GR_MANGO/src/tensorflow_lite/third_party/flatbuffers/include/flatbuffers\flatbuffers.h **** 
  17:C:/Renesas/e2studio_2021_01_workspace_RZA2M_ANPR/ANPR_RZA2M_GR_MANGO/src/tensorflow_lite/third_party/flatbuffers/include/flatbuffers\flatbuffers.h **** #ifndef FLATBUFFERS_H_
  18:C:/Renesas/e2studio_2021_01_workspace_RZA2M_ANPR/ANPR_RZA2M_GR_MANGO/src/tensorflow_lite/third_party/flatbuffers/include/flatbuffers\flatbuffers.h **** #define FLATBUFFERS_H_
  19:C:/Renesas/e2studio_2021_01_workspace_RZA2M_ANPR/ANPR_RZA2M_GR_MANGO/src/tensorflow_lite/third_party/flatbuffers/include/flatbuffers\flatbuffers.h **** 
  20:C:/Renesas/e2studio_2021_01_workspace_RZA2M_ANPR/ANPR_RZA2M_GR_MANGO/src/tensorflow_lite/third_party/flatbuffers/include/flatbuffers\flatbuffers.h **** #include "flatbuffers/base.h"
  21:C:/Renesas/e2studio_2021_01_workspace_RZA2M_ANPR/ANPR_RZA2M_GR_MANGO/src/tensorflow_lite/third_party/flatbuffers/include/flatbuffers\flatbuffers.h **** #include "flatbuffers/stl_emulation.h"
  22:C:/Renesas/e2studio_2021_01_workspace_RZA2M_ANPR/ANPR_RZA2M_GR_MANGO/src/tensorflow_lite/third_party/flatbuffers/include/flatbuffers\flatbuffers.h **** 
  23:C:/Renesas/e2studio_2021_01_workspace_RZA2M_ANPR/ANPR_RZA2M_GR_MANGO/src/tensorflow_lite/third_party/flatbuffers/include/flatbuffers\flatbuffers.h **** #ifndef FLATBUFFERS_CPP98_STL
  24:C:/Renesas/e2studio_2021_01_workspace_RZA2M_ANPR/ANPR_RZA2M_GR_MANGO/src/tensorflow_lite/third_party/flatbuffers/include/flatbuffers\flatbuffers.h ****   #include <functional>
  25:C:/Renesas/e2studio_2021_01_workspace_RZA2M_ANPR/ANPR_RZA2M_GR_MANGO/src/tensorflow_lite/third_party/flatbuffers/include/flatbuffers\flatbuffers.h **** #endif
  26:C:/Renesas/e2studio_2021_01_workspace_RZA2M_ANPR/ANPR_RZA2M_GR_MANGO/src/tensorflow_lite/third_party/flatbuffers/include/flatbuffers\flatbuffers.h **** 
  27:C:/Renesas/e2studio_2021_01_workspace_RZA2M_ANPR/ANPR_RZA2M_GR_MANGO/src/tensorflow_lite/third_party/flatbuffers/include/flatbuffers\flatbuffers.h **** #if defined(FLATBUFFERS_NAN_DEFAULTS)
  28:C:/Renesas/e2studio_2021_01_workspace_RZA2M_ANPR/ANPR_RZA2M_GR_MANGO/src/tensorflow_lite/third_party/flatbuffers/include/flatbuffers\flatbuffers.h **** #  include <cmath>
  29:C:/Renesas/e2studio_2021_01_workspace_RZA2M_ANPR/ANPR_RZA2M_GR_MANGO/src/tensorflow_lite/third_party/flatbuffers/include/flatbuffers\flatbuffers.h **** #endif
  30:C:/Renesas/e2studio_2021_01_workspace_RZA2M_ANPR/ANPR_RZA2M_GR_MANGO/src/tensorflow_lite/third_party/flatbuffers/include/flatbuffers\flatbuffers.h **** 
  31:C:/Renesas/e2studio_2021_01_workspace_RZA2M_ANPR/ANPR_RZA2M_GR_MANGO/src/tensorflow_lite/third_party/flatbuffers/include/flatbuffers\flatbuffers.h **** namespace flatbuffers {
  32:C:/Renesas/e2studio_2021_01_workspace_RZA2M_ANPR/ANPR_RZA2M_GR_MANGO/src/tensorflow_lite/third_party/flatbuffers/include/flatbuffers\flatbuffers.h **** // Generic 'operator==' with conditional specialisations.
  33:C:/Renesas/e2studio_2021_01_workspace_RZA2M_ANPR/ANPR_RZA2M_GR_MANGO/src/tensorflow_lite/third_party/flatbuffers/include/flatbuffers\flatbuffers.h **** // T e - new value of a scalar field.
  34:C:/Renesas/e2studio_2021_01_workspace_RZA2M_ANPR/ANPR_RZA2M_GR_MANGO/src/tensorflow_lite/third_party/flatbuffers/include/flatbuffers\flatbuffers.h **** // T def - default of scalar (is known at compile-time).
  35:C:/Renesas/e2studio_2021_01_workspace_RZA2M_ANPR/ANPR_RZA2M_GR_MANGO/src/tensorflow_lite/third_party/flatbuffers/include/flatbuffers\flatbuffers.h **** template<typename T> inline bool IsTheSameAs(T e, T def) { return e == def; }
  36:C:/Renesas/e2studio_2021_01_workspace_RZA2M_ANPR/ANPR_RZA2M_GR_MANGO/src/tensorflow_lite/third_party/flatbuffers/include/flatbuffers\flatbuffers.h **** 
  37:C:/Renesas/e2studio_2021_01_workspace_RZA2M_ANPR/ANPR_RZA2M_GR_MANGO/src/tensorflow_lite/third_party/flatbuffers/include/flatbuffers\flatbuffers.h **** #if defined(FLATBUFFERS_NAN_DEFAULTS) && \
  38:C:/Renesas/e2studio_2021_01_workspace_RZA2M_ANPR/ANPR_RZA2M_GR_MANGO/src/tensorflow_lite/third_party/flatbuffers/include/flatbuffers\flatbuffers.h ****     defined(FLATBUFFERS_HAS_NEW_STRTOD) && (FLATBUFFERS_HAS_NEW_STRTOD > 0)
  39:C:/Renesas/e2studio_2021_01_workspace_RZA2M_ANPR/ANPR_RZA2M_GR_MANGO/src/tensorflow_lite/third_party/flatbuffers/include/flatbuffers\flatbuffers.h **** // Like `operator==(e, def)` with weak NaN if T=(float|double).
  40:C:/Renesas/e2studio_2021_01_workspace_RZA2M_ANPR/ANPR_RZA2M_GR_MANGO/src/tensorflow_lite/third_party/flatbuffers/include/flatbuffers\flatbuffers.h **** template<typename T> inline bool IsFloatTheSameAs(T e, T def) {
  41:C:/Renesas/e2studio_2021_01_workspace_RZA2M_ANPR/ANPR_RZA2M_GR_MANGO/src/tensorflow_lite/third_party/flatbuffers/include/flatbuffers\flatbuffers.h ****   return (e == def) || ((def != def) && (e != e));
  42:C:/Renesas/e2studio_2021_01_workspace_RZA2M_ANPR/ANPR_RZA2M_GR_MANGO/src/tensorflow_lite/third_party/flatbuffers/include/flatbuffers\flatbuffers.h **** }
  43:C:/Renesas/e2studio_2021_01_workspace_RZA2M_ANPR/ANPR_RZA2M_GR_MANGO/src/tensorflow_lite/third_party/flatbuffers/include/flatbuffers\flatbuffers.h **** template<> inline bool IsTheSameAs<float>(float e, float def) {
  44:C:/Renesas/e2studio_2021_01_workspace_RZA2M_ANPR/ANPR_RZA2M_GR_MANGO/src/tensorflow_lite/third_party/flatbuffers/include/flatbuffers\flatbuffers.h ****   return IsFloatTheSameAs(e, def);
  45:C:/Renesas/e2studio_2021_01_workspace_RZA2M_ANPR/ANPR_RZA2M_GR_MANGO/src/tensorflow_lite/third_party/flatbuffers/include/flatbuffers\flatbuffers.h **** }
  46:C:/Renesas/e2studio_2021_01_workspace_RZA2M_ANPR/ANPR_RZA2M_GR_MANGO/src/tensorflow_lite/third_party/flatbuffers/include/flatbuffers\flatbuffers.h **** template<> inline bool IsTheSameAs<double>(double e, double def) {
  47:C:/Renesas/e2studio_2021_01_workspace_RZA2M_ANPR/ANPR_RZA2M_GR_MANGO/src/tensorflow_lite/third_party/flatbuffers/include/flatbuffers\flatbuffers.h ****   return IsFloatTheSameAs(e, def);
  48:C:/Renesas/e2studio_2021_01_workspace_RZA2M_ANPR/ANPR_RZA2M_GR_MANGO/src/tensorflow_lite/third_party/flatbuffers/include/flatbuffers\flatbuffers.h **** }
  49:C:/Renesas/e2studio_2021_01_workspace_RZA2M_ANPR/ANPR_RZA2M_GR_MANGO/src/tensorflow_lite/third_party/flatbuffers/include/flatbuffers\flatbuffers.h **** #endif
  50:C:/Renesas/e2studio_2021_01_workspace_RZA2M_ANPR/ANPR_RZA2M_GR_MANGO/src/tensorflow_lite/third_party/flatbuffers/include/flatbuffers\flatbuffers.h **** 
  51:C:/Renesas/e2studio_2021_01_workspace_RZA2M_ANPR/ANPR_RZA2M_GR_MANGO/src/tensorflow_lite/third_party/flatbuffers/include/flatbuffers\flatbuffers.h **** // Check 'v' is out of closed range [low; high].
  52:C:/Renesas/e2studio_2021_01_workspace_RZA2M_ANPR/ANPR_RZA2M_GR_MANGO/src/tensorflow_lite/third_party/flatbuffers/include/flatbuffers\flatbuffers.h **** // Workaround for GCC warning [-Werror=type-limits]:
  53:C:/Renesas/e2studio_2021_01_workspace_RZA2M_ANPR/ANPR_RZA2M_GR_MANGO/src/tensorflow_lite/third_party/flatbuffers/include/flatbuffers\flatbuffers.h **** // comparison is always true due to limited range of data type.
  54:C:/Renesas/e2studio_2021_01_workspace_RZA2M_ANPR/ANPR_RZA2M_GR_MANGO/src/tensorflow_lite/third_party/flatbuffers/include/flatbuffers\flatbuffers.h **** template<typename T>
  55:C:/Renesas/e2studio_2021_01_workspace_RZA2M_ANPR/ANPR_RZA2M_GR_MANGO/src/tensorflow_lite/third_party/flatbuffers/include/flatbuffers\flatbuffers.h **** inline bool IsOutRange(const T &v, const T &low, const T &high) {
  56:C:/Renesas/e2studio_2021_01_workspace_RZA2M_ANPR/ANPR_RZA2M_GR_MANGO/src/tensorflow_lite/third_party/flatbuffers/include/flatbuffers\flatbuffers.h ****   return (v < low) || (high < v);
  57:C:/Renesas/e2studio_2021_01_workspace_RZA2M_ANPR/ANPR_RZA2M_GR_MANGO/src/tensorflow_lite/third_party/flatbuffers/include/flatbuffers\flatbuffers.h **** }
  58:C:/Renesas/e2studio_2021_01_workspace_RZA2M_ANPR/ANPR_RZA2M_GR_MANGO/src/tensorflow_lite/third_party/flatbuffers/include/flatbuffers\flatbuffers.h **** 
  59:C:/Renesas/e2studio_2021_01_workspace_RZA2M_ANPR/ANPR_RZA2M_GR_MANGO/src/tensorflow_lite/third_party/flatbuffers/include/flatbuffers\flatbuffers.h **** // Check 'v' is in closed range [low; high].
  60:C:/Renesas/e2studio_2021_01_workspace_RZA2M_ANPR/ANPR_RZA2M_GR_MANGO/src/tensorflow_lite/third_party/flatbuffers/include/flatbuffers\flatbuffers.h **** template<typename T>
  61:C:/Renesas/e2studio_2021_01_workspace_RZA2M_ANPR/ANPR_RZA2M_GR_MANGO/src/tensorflow_lite/third_party/flatbuffers/include/flatbuffers\flatbuffers.h **** inline bool IsInRange(const T &v, const T &low, const T &high) {
  62:C:/Renesas/e2studio_2021_01_workspace_RZA2M_ANPR/ANPR_RZA2M_GR_MANGO/src/tensorflow_lite/third_party/flatbuffers/include/flatbuffers\flatbuffers.h ****   return !IsOutRange(v, low, high);
  63:C:/Renesas/e2studio_2021_01_workspace_RZA2M_ANPR/ANPR_RZA2M_GR_MANGO/src/tensorflow_lite/third_party/flatbuffers/include/flatbuffers\flatbuffers.h **** }
  64:C:/Renesas/e2studio_2021_01_workspace_RZA2M_ANPR/ANPR_RZA2M_GR_MANGO/src/tensorflow_lite/third_party/flatbuffers/include/flatbuffers\flatbuffers.h **** 
  65:C:/Renesas/e2studio_2021_01_workspace_RZA2M_ANPR/ANPR_RZA2M_GR_MANGO/src/tensorflow_lite/third_party/flatbuffers/include/flatbuffers\flatbuffers.h **** // Wrapper for uoffset_t to allow safe template specialization.
  66:C:/Renesas/e2studio_2021_01_workspace_RZA2M_ANPR/ANPR_RZA2M_GR_MANGO/src/tensorflow_lite/third_party/flatbuffers/include/flatbuffers\flatbuffers.h **** // Value is allowed to be 0 to indicate a null object (see e.g. AddOffset).
  67:C:/Renesas/e2studio_2021_01_workspace_RZA2M_ANPR/ANPR_RZA2M_GR_MANGO/src/tensorflow_lite/third_party/flatbuffers/include/flatbuffers\flatbuffers.h **** template<typename T> struct Offset {
  68:C:/Renesas/e2studio_2021_01_workspace_RZA2M_ANPR/ANPR_RZA2M_GR_MANGO/src/tensorflow_lite/third_party/flatbuffers/include/flatbuffers\flatbuffers.h ****   uoffset_t o;
  69:C:/Renesas/e2studio_2021_01_workspace_RZA2M_ANPR/ANPR_RZA2M_GR_MANGO/src/tensorflow_lite/third_party/flatbuffers/include/flatbuffers\flatbuffers.h ****   Offset() : o(0) {}
  70:C:/Renesas/e2studio_2021_01_workspace_RZA2M_ANPR/ANPR_RZA2M_GR_MANGO/src/tensorflow_lite/third_party/flatbuffers/include/flatbuffers\flatbuffers.h ****   Offset(uoffset_t _o) : o(_o) {}
  71:C:/Renesas/e2studio_2021_01_workspace_RZA2M_ANPR/ANPR_RZA2M_GR_MANGO/src/tensorflow_lite/third_party/flatbuffers/include/flatbuffers\flatbuffers.h ****   Offset<void> Union() const { return Offset<void>(o); }
  72:C:/Renesas/e2studio_2021_01_workspace_RZA2M_ANPR/ANPR_RZA2M_GR_MANGO/src/tensorflow_lite/third_party/flatbuffers/include/flatbuffers\flatbuffers.h ****   bool IsNull() const { return !o; }
  73:C:/Renesas/e2studio_2021_01_workspace_RZA2M_ANPR/ANPR_RZA2M_GR_MANGO/src/tensorflow_lite/third_party/flatbuffers/include/flatbuffers\flatbuffers.h **** };
  74:C:/Renesas/e2studio_2021_01_workspace_RZA2M_ANPR/ANPR_RZA2M_GR_MANGO/src/tensorflow_lite/third_party/flatbuffers/include/flatbuffers\flatbuffers.h **** 
  75:C:/Renesas/e2studio_2021_01_workspace_RZA2M_ANPR/ANPR_RZA2M_GR_MANGO/src/tensorflow_lite/third_party/flatbuffers/include/flatbuffers\flatbuffers.h **** inline void EndianCheck() {
  76:C:/Renesas/e2studio_2021_01_workspace_RZA2M_ANPR/ANPR_RZA2M_GR_MANGO/src/tensorflow_lite/third_party/flatbuffers/include/flatbuffers\flatbuffers.h ****   int endiantest = 1;
  77:C:/Renesas/e2studio_2021_01_workspace_RZA2M_ANPR/ANPR_RZA2M_GR_MANGO/src/tensorflow_lite/third_party/flatbuffers/include/flatbuffers\flatbuffers.h ****   // If this fails, see FLATBUFFERS_LITTLEENDIAN above.
  78:C:/Renesas/e2studio_2021_01_workspace_RZA2M_ANPR/ANPR_RZA2M_GR_MANGO/src/tensorflow_lite/third_party/flatbuffers/include/flatbuffers\flatbuffers.h ****   FLATBUFFERS_ASSERT(*reinterpret_cast<char *>(&endiantest) ==
  79:C:/Renesas/e2studio_2021_01_workspace_RZA2M_ANPR/ANPR_RZA2M_GR_MANGO/src/tensorflow_lite/third_party/flatbuffers/include/flatbuffers\flatbuffers.h ****                      FLATBUFFERS_LITTLEENDIAN);
  80:C:/Renesas/e2studio_2021_01_workspace_RZA2M_ANPR/ANPR_RZA2M_GR_MANGO/src/tensorflow_lite/third_party/flatbuffers/include/flatbuffers\flatbuffers.h ****   (void)endiantest;
  81:C:/Renesas/e2studio_2021_01_workspace_RZA2M_ANPR/ANPR_RZA2M_GR_MANGO/src/tensorflow_lite/third_party/flatbuffers/include/flatbuffers\flatbuffers.h **** }
  82:C:/Renesas/e2studio_2021_01_workspace_RZA2M_ANPR/ANPR_RZA2M_GR_MANGO/src/tensorflow_lite/third_party/flatbuffers/include/flatbuffers\flatbuffers.h **** 
  83:C:/Renesas/e2studio_2021_01_workspace_RZA2M_ANPR/ANPR_RZA2M_GR_MANGO/src/tensorflow_lite/third_party/flatbuffers/include/flatbuffers\flatbuffers.h **** template<typename T> FLATBUFFERS_CONSTEXPR size_t AlignOf() {
  84:C:/Renesas/e2studio_2021_01_workspace_RZA2M_ANPR/ANPR_RZA2M_GR_MANGO/src/tensorflow_lite/third_party/flatbuffers/include/flatbuffers\flatbuffers.h ****   // clang-format off
  85:C:/Renesas/e2studio_2021_01_workspace_RZA2M_ANPR/ANPR_RZA2M_GR_MANGO/src/tensorflow_lite/third_party/flatbuffers/include/flatbuffers\flatbuffers.h ****   #ifdef _MSC_VER
  86:C:/Renesas/e2studio_2021_01_workspace_RZA2M_ANPR/ANPR_RZA2M_GR_MANGO/src/tensorflow_lite/third_party/flatbuffers/include/flatbuffers\flatbuffers.h ****     return __alignof(T);
  87:C:/Renesas/e2studio_2021_01_workspace_RZA2M_ANPR/ANPR_RZA2M_GR_MANGO/src/tensorflow_lite/third_party/flatbuffers/include/flatbuffers\flatbuffers.h ****   #else
  88:C:/Renesas/e2studio_2021_01_workspace_RZA2M_ANPR/ANPR_RZA2M_GR_MANGO/src/tensorflow_lite/third_party/flatbuffers/include/flatbuffers\flatbuffers.h ****     #ifndef alignof
  89:C:/Renesas/e2studio_2021_01_workspace_RZA2M_ANPR/ANPR_RZA2M_GR_MANGO/src/tensorflow_lite/third_party/flatbuffers/include/flatbuffers\flatbuffers.h ****       return __alignof__(T);
  90:C:/Renesas/e2studio_2021_01_workspace_RZA2M_ANPR/ANPR_RZA2M_GR_MANGO/src/tensorflow_lite/third_party/flatbuffers/include/flatbuffers\flatbuffers.h ****     #else
  91:C:/Renesas/e2studio_2021_01_workspace_RZA2M_ANPR/ANPR_RZA2M_GR_MANGO/src/tensorflow_lite/third_party/flatbuffers/include/flatbuffers\flatbuffers.h ****       return alignof(T);
  92:C:/Renesas/e2studio_2021_01_workspace_RZA2M_ANPR/ANPR_RZA2M_GR_MANGO/src/tensorflow_lite/third_party/flatbuffers/include/flatbuffers\flatbuffers.h ****     #endif
  93:C:/Renesas/e2studio_2021_01_workspace_RZA2M_ANPR/ANPR_RZA2M_GR_MANGO/src/tensorflow_lite/third_party/flatbuffers/include/flatbuffers\flatbuffers.h ****   #endif
  94:C:/Renesas/e2studio_2021_01_workspace_RZA2M_ANPR/ANPR_RZA2M_GR_MANGO/src/tensorflow_lite/third_party/flatbuffers/include/flatbuffers\flatbuffers.h ****   // clang-format on
  95:C:/Renesas/e2studio_2021_01_workspace_RZA2M_ANPR/ANPR_RZA2M_GR_MANGO/src/tensorflow_lite/third_party/flatbuffers/include/flatbuffers\flatbuffers.h **** }
  96:C:/Renesas/e2studio_2021_01_workspace_RZA2M_ANPR/ANPR_RZA2M_GR_MANGO/src/tensorflow_lite/third_party/flatbuffers/include/flatbuffers\flatbuffers.h **** 
  97:C:/Renesas/e2studio_2021_01_workspace_RZA2M_ANPR/ANPR_RZA2M_GR_MANGO/src/tensorflow_lite/third_party/flatbuffers/include/flatbuffers\flatbuffers.h **** // When we read serialized data from memory, in the case of most scalars,
  98:C:/Renesas/e2studio_2021_01_workspace_RZA2M_ANPR/ANPR_RZA2M_GR_MANGO/src/tensorflow_lite/third_party/flatbuffers/include/flatbuffers\flatbuffers.h **** // we want to just read T, but in the case of Offset, we want to actually
  99:C:/Renesas/e2studio_2021_01_workspace_RZA2M_ANPR/ANPR_RZA2M_GR_MANGO/src/tensorflow_lite/third_party/flatbuffers/include/flatbuffers\flatbuffers.h **** // perform the indirection and return a pointer.
 100:C:/Renesas/e2studio_2021_01_workspace_RZA2M_ANPR/ANPR_RZA2M_GR_MANGO/src/tensorflow_lite/third_party/flatbuffers/include/flatbuffers\flatbuffers.h **** // The template specialization below does just that.
 101:C:/Renesas/e2studio_2021_01_workspace_RZA2M_ANPR/ANPR_RZA2M_GR_MANGO/src/tensorflow_lite/third_party/flatbuffers/include/flatbuffers\flatbuffers.h **** // It is wrapped in a struct since function templates can't overload on the
 102:C:/Renesas/e2studio_2021_01_workspace_RZA2M_ANPR/ANPR_RZA2M_GR_MANGO/src/tensorflow_lite/third_party/flatbuffers/include/flatbuffers\flatbuffers.h **** // return type like this.
 103:C:/Renesas/e2studio_2021_01_workspace_RZA2M_ANPR/ANPR_RZA2M_GR_MANGO/src/tensorflow_lite/third_party/flatbuffers/include/flatbuffers\flatbuffers.h **** // The typedef is for the convenience of callers of this function
 104:C:/Renesas/e2studio_2021_01_workspace_RZA2M_ANPR/ANPR_RZA2M_GR_MANGO/src/tensorflow_lite/third_party/flatbuffers/include/flatbuffers\flatbuffers.h **** // (avoiding the need for a trailing return decltype)
 105:C:/Renesas/e2studio_2021_01_workspace_RZA2M_ANPR/ANPR_RZA2M_GR_MANGO/src/tensorflow_lite/third_party/flatbuffers/include/flatbuffers\flatbuffers.h **** template<typename T> struct IndirectHelper {
 106:C:/Renesas/e2studio_2021_01_workspace_RZA2M_ANPR/ANPR_RZA2M_GR_MANGO/src/tensorflow_lite/third_party/flatbuffers/include/flatbuffers\flatbuffers.h ****   typedef T return_type;
 107:C:/Renesas/e2studio_2021_01_workspace_RZA2M_ANPR/ANPR_RZA2M_GR_MANGO/src/tensorflow_lite/third_party/flatbuffers/include/flatbuffers\flatbuffers.h ****   typedef T mutable_return_type;
 108:C:/Renesas/e2studio_2021_01_workspace_RZA2M_ANPR/ANPR_RZA2M_GR_MANGO/src/tensorflow_lite/third_party/flatbuffers/include/flatbuffers\flatbuffers.h ****   static const size_t element_stride = sizeof(T);
 109:C:/Renesas/e2studio_2021_01_workspace_RZA2M_ANPR/ANPR_RZA2M_GR_MANGO/src/tensorflow_lite/third_party/flatbuffers/include/flatbuffers\flatbuffers.h ****   static return_type Read(const uint8_t *p, uoffset_t i) {
 110:C:/Renesas/e2studio_2021_01_workspace_RZA2M_ANPR/ANPR_RZA2M_GR_MANGO/src/tensorflow_lite/third_party/flatbuffers/include/flatbuffers\flatbuffers.h ****     return EndianScalar((reinterpret_cast<const T *>(p))[i]);
 111:C:/Renesas/e2studio_2021_01_workspace_RZA2M_ANPR/ANPR_RZA2M_GR_MANGO/src/tensorflow_lite/third_party/flatbuffers/include/flatbuffers\flatbuffers.h ****   }
 112:C:/Renesas/e2studio_2021_01_workspace_RZA2M_ANPR/ANPR_RZA2M_GR_MANGO/src/tensorflow_lite/third_party/flatbuffers/include/flatbuffers\flatbuffers.h **** };
 113:C:/Renesas/e2studio_2021_01_workspace_RZA2M_ANPR/ANPR_RZA2M_GR_MANGO/src/tensorflow_lite/third_party/flatbuffers/include/flatbuffers\flatbuffers.h **** template<typename T> struct IndirectHelper<Offset<T>> {
 114:C:/Renesas/e2studio_2021_01_workspace_RZA2M_ANPR/ANPR_RZA2M_GR_MANGO/src/tensorflow_lite/third_party/flatbuffers/include/flatbuffers\flatbuffers.h ****   typedef const T *return_type;
 115:C:/Renesas/e2studio_2021_01_workspace_RZA2M_ANPR/ANPR_RZA2M_GR_MANGO/src/tensorflow_lite/third_party/flatbuffers/include/flatbuffers\flatbuffers.h ****   typedef T *mutable_return_type;
 116:C:/Renesas/e2studio_2021_01_workspace_RZA2M_ANPR/ANPR_RZA2M_GR_MANGO/src/tensorflow_lite/third_party/flatbuffers/include/flatbuffers\flatbuffers.h ****   static const size_t element_stride = sizeof(uoffset_t);
 117:C:/Renesas/e2studio_2021_01_workspace_RZA2M_ANPR/ANPR_RZA2M_GR_MANGO/src/tensorflow_lite/third_party/flatbuffers/include/flatbuffers\flatbuffers.h ****   static return_type Read(const uint8_t *p, uoffset_t i) {
 118:C:/Renesas/e2studio_2021_01_workspace_RZA2M_ANPR/ANPR_RZA2M_GR_MANGO/src/tensorflow_lite/third_party/flatbuffers/include/flatbuffers\flatbuffers.h ****     p += i * sizeof(uoffset_t);
 119:C:/Renesas/e2studio_2021_01_workspace_RZA2M_ANPR/ANPR_RZA2M_GR_MANGO/src/tensorflow_lite/third_party/flatbuffers/include/flatbuffers\flatbuffers.h ****     return reinterpret_cast<return_type>(p + ReadScalar<uoffset_t>(p));
 120:C:/Renesas/e2studio_2021_01_workspace_RZA2M_ANPR/ANPR_RZA2M_GR_MANGO/src/tensorflow_lite/third_party/flatbuffers/include/flatbuffers\flatbuffers.h ****   }
 121:C:/Renesas/e2studio_2021_01_workspace_RZA2M_ANPR/ANPR_RZA2M_GR_MANGO/src/tensorflow_lite/third_party/flatbuffers/include/flatbuffers\flatbuffers.h **** };
 122:C:/Renesas/e2studio_2021_01_workspace_RZA2M_ANPR/ANPR_RZA2M_GR_MANGO/src/tensorflow_lite/third_party/flatbuffers/include/flatbuffers\flatbuffers.h **** template<typename T> struct IndirectHelper<const T *> {
 123:C:/Renesas/e2studio_2021_01_workspace_RZA2M_ANPR/ANPR_RZA2M_GR_MANGO/src/tensorflow_lite/third_party/flatbuffers/include/flatbuffers\flatbuffers.h ****   typedef const T *return_type;
 124:C:/Renesas/e2studio_2021_01_workspace_RZA2M_ANPR/ANPR_RZA2M_GR_MANGO/src/tensorflow_lite/third_party/flatbuffers/include/flatbuffers\flatbuffers.h ****   typedef T *mutable_return_type;
 125:C:/Renesas/e2studio_2021_01_workspace_RZA2M_ANPR/ANPR_RZA2M_GR_MANGO/src/tensorflow_lite/third_party/flatbuffers/include/flatbuffers\flatbuffers.h ****   static const size_t element_stride = sizeof(T);
 126:C:/Renesas/e2studio_2021_01_workspace_RZA2M_ANPR/ANPR_RZA2M_GR_MANGO/src/tensorflow_lite/third_party/flatbuffers/include/flatbuffers\flatbuffers.h ****   static return_type Read(const uint8_t *p, uoffset_t i) {
 127:C:/Renesas/e2studio_2021_01_workspace_RZA2M_ANPR/ANPR_RZA2M_GR_MANGO/src/tensorflow_lite/third_party/flatbuffers/include/flatbuffers\flatbuffers.h ****     return reinterpret_cast<const T *>(p + i * sizeof(T));
 128:C:/Renesas/e2studio_2021_01_workspace_RZA2M_ANPR/ANPR_RZA2M_GR_MANGO/src/tensorflow_lite/third_party/flatbuffers/include/flatbuffers\flatbuffers.h ****   }
 129:C:/Renesas/e2studio_2021_01_workspace_RZA2M_ANPR/ANPR_RZA2M_GR_MANGO/src/tensorflow_lite/third_party/flatbuffers/include/flatbuffers\flatbuffers.h **** };
 130:C:/Renesas/e2studio_2021_01_workspace_RZA2M_ANPR/ANPR_RZA2M_GR_MANGO/src/tensorflow_lite/third_party/flatbuffers/include/flatbuffers\flatbuffers.h **** 
 131:C:/Renesas/e2studio_2021_01_workspace_RZA2M_ANPR/ANPR_RZA2M_GR_MANGO/src/tensorflow_lite/third_party/flatbuffers/include/flatbuffers\flatbuffers.h **** // An STL compatible iterator implementation for Vector below, effectively
 132:C:/Renesas/e2studio_2021_01_workspace_RZA2M_ANPR/ANPR_RZA2M_GR_MANGO/src/tensorflow_lite/third_party/flatbuffers/include/flatbuffers\flatbuffers.h **** // calling Get() for every element.
 133:C:/Renesas/e2studio_2021_01_workspace_RZA2M_ANPR/ANPR_RZA2M_GR_MANGO/src/tensorflow_lite/third_party/flatbuffers/include/flatbuffers\flatbuffers.h **** template<typename T, typename IT> struct VectorIterator {
 134:C:/Renesas/e2studio_2021_01_workspace_RZA2M_ANPR/ANPR_RZA2M_GR_MANGO/src/tensorflow_lite/third_party/flatbuffers/include/flatbuffers\flatbuffers.h ****   typedef std::random_access_iterator_tag iterator_category;
 135:C:/Renesas/e2studio_2021_01_workspace_RZA2M_ANPR/ANPR_RZA2M_GR_MANGO/src/tensorflow_lite/third_party/flatbuffers/include/flatbuffers\flatbuffers.h ****   typedef IT value_type;
 136:C:/Renesas/e2studio_2021_01_workspace_RZA2M_ANPR/ANPR_RZA2M_GR_MANGO/src/tensorflow_lite/third_party/flatbuffers/include/flatbuffers\flatbuffers.h ****   typedef ptrdiff_t difference_type;
 137:C:/Renesas/e2studio_2021_01_workspace_RZA2M_ANPR/ANPR_RZA2M_GR_MANGO/src/tensorflow_lite/third_party/flatbuffers/include/flatbuffers\flatbuffers.h ****   typedef IT *pointer;
 138:C:/Renesas/e2studio_2021_01_workspace_RZA2M_ANPR/ANPR_RZA2M_GR_MANGO/src/tensorflow_lite/third_party/flatbuffers/include/flatbuffers\flatbuffers.h ****   typedef IT &reference;
 139:C:/Renesas/e2studio_2021_01_workspace_RZA2M_ANPR/ANPR_RZA2M_GR_MANGO/src/tensorflow_lite/third_party/flatbuffers/include/flatbuffers\flatbuffers.h **** 
 140:C:/Renesas/e2studio_2021_01_workspace_RZA2M_ANPR/ANPR_RZA2M_GR_MANGO/src/tensorflow_lite/third_party/flatbuffers/include/flatbuffers\flatbuffers.h ****   VectorIterator(const uint8_t *data, uoffset_t i)
 141:C:/Renesas/e2studio_2021_01_workspace_RZA2M_ANPR/ANPR_RZA2M_GR_MANGO/src/tensorflow_lite/third_party/flatbuffers/include/flatbuffers\flatbuffers.h ****       : data_(data + IndirectHelper<T>::element_stride * i) {}
 142:C:/Renesas/e2studio_2021_01_workspace_RZA2M_ANPR/ANPR_RZA2M_GR_MANGO/src/tensorflow_lite/third_party/flatbuffers/include/flatbuffers\flatbuffers.h ****   VectorIterator(const VectorIterator &other) : data_(other.data_) {}
 143:C:/Renesas/e2studio_2021_01_workspace_RZA2M_ANPR/ANPR_RZA2M_GR_MANGO/src/tensorflow_lite/third_party/flatbuffers/include/flatbuffers\flatbuffers.h ****   VectorIterator() : data_(nullptr) {}
 144:C:/Renesas/e2studio_2021_01_workspace_RZA2M_ANPR/ANPR_RZA2M_GR_MANGO/src/tensorflow_lite/third_party/flatbuffers/include/flatbuffers\flatbuffers.h **** 
 145:C:/Renesas/e2studio_2021_01_workspace_RZA2M_ANPR/ANPR_RZA2M_GR_MANGO/src/tensorflow_lite/third_party/flatbuffers/include/flatbuffers\flatbuffers.h ****   VectorIterator &operator=(const VectorIterator &other) {
 146:C:/Renesas/e2studio_2021_01_workspace_RZA2M_ANPR/ANPR_RZA2M_GR_MANGO/src/tensorflow_lite/third_party/flatbuffers/include/flatbuffers\flatbuffers.h ****     data_ = other.data_;
 147:C:/Renesas/e2studio_2021_01_workspace_RZA2M_ANPR/ANPR_RZA2M_GR_MANGO/src/tensorflow_lite/third_party/flatbuffers/include/flatbuffers\flatbuffers.h ****     return *this;
 148:C:/Renesas/e2studio_2021_01_workspace_RZA2M_ANPR/ANPR_RZA2M_GR_MANGO/src/tensorflow_lite/third_party/flatbuffers/include/flatbuffers\flatbuffers.h ****   }
 149:C:/Renesas/e2studio_2021_01_workspace_RZA2M_ANPR/ANPR_RZA2M_GR_MANGO/src/tensorflow_lite/third_party/flatbuffers/include/flatbuffers\flatbuffers.h **** 
 150:C:/Renesas/e2studio_2021_01_workspace_RZA2M_ANPR/ANPR_RZA2M_GR_MANGO/src/tensorflow_lite/third_party/flatbuffers/include/flatbuffers\flatbuffers.h ****   // clang-format off
 151:C:/Renesas/e2studio_2021_01_workspace_RZA2M_ANPR/ANPR_RZA2M_GR_MANGO/src/tensorflow_lite/third_party/flatbuffers/include/flatbuffers\flatbuffers.h ****   #if !defined(FLATBUFFERS_CPP98_STL)
 152:C:/Renesas/e2studio_2021_01_workspace_RZA2M_ANPR/ANPR_RZA2M_GR_MANGO/src/tensorflow_lite/third_party/flatbuffers/include/flatbuffers\flatbuffers.h ****   VectorIterator &operator=(VectorIterator &&other) {
 153:C:/Renesas/e2studio_2021_01_workspace_RZA2M_ANPR/ANPR_RZA2M_GR_MANGO/src/tensorflow_lite/third_party/flatbuffers/include/flatbuffers\flatbuffers.h ****     data_ = other.data_;
 154:C:/Renesas/e2studio_2021_01_workspace_RZA2M_ANPR/ANPR_RZA2M_GR_MANGO/src/tensorflow_lite/third_party/flatbuffers/include/flatbuffers\flatbuffers.h ****     return *this;
 155:C:/Renesas/e2studio_2021_01_workspace_RZA2M_ANPR/ANPR_RZA2M_GR_MANGO/src/tensorflow_lite/third_party/flatbuffers/include/flatbuffers\flatbuffers.h ****   }
 156:C:/Renesas/e2studio_2021_01_workspace_RZA2M_ANPR/ANPR_RZA2M_GR_MANGO/src/tensorflow_lite/third_party/flatbuffers/include/flatbuffers\flatbuffers.h ****   #endif  // !defined(FLATBUFFERS_CPP98_STL)
 157:C:/Renesas/e2studio_2021_01_workspace_RZA2M_ANPR/ANPR_RZA2M_GR_MANGO/src/tensorflow_lite/third_party/flatbuffers/include/flatbuffers\flatbuffers.h ****   // clang-format on
 158:C:/Renesas/e2studio_2021_01_workspace_RZA2M_ANPR/ANPR_RZA2M_GR_MANGO/src/tensorflow_lite/third_party/flatbuffers/include/flatbuffers\flatbuffers.h **** 
 159:C:/Renesas/e2studio_2021_01_workspace_RZA2M_ANPR/ANPR_RZA2M_GR_MANGO/src/tensorflow_lite/third_party/flatbuffers/include/flatbuffers\flatbuffers.h ****   bool operator==(const VectorIterator &other) const {
 160:C:/Renesas/e2studio_2021_01_workspace_RZA2M_ANPR/ANPR_RZA2M_GR_MANGO/src/tensorflow_lite/third_party/flatbuffers/include/flatbuffers\flatbuffers.h ****     return data_ == other.data_;
 161:C:/Renesas/e2studio_2021_01_workspace_RZA2M_ANPR/ANPR_RZA2M_GR_MANGO/src/tensorflow_lite/third_party/flatbuffers/include/flatbuffers\flatbuffers.h ****   }
 162:C:/Renesas/e2studio_2021_01_workspace_RZA2M_ANPR/ANPR_RZA2M_GR_MANGO/src/tensorflow_lite/third_party/flatbuffers/include/flatbuffers\flatbuffers.h **** 
 163:C:/Renesas/e2studio_2021_01_workspace_RZA2M_ANPR/ANPR_RZA2M_GR_MANGO/src/tensorflow_lite/third_party/flatbuffers/include/flatbuffers\flatbuffers.h ****   bool operator<(const VectorIterator &other) const {
 164:C:/Renesas/e2studio_2021_01_workspace_RZA2M_ANPR/ANPR_RZA2M_GR_MANGO/src/tensorflow_lite/third_party/flatbuffers/include/flatbuffers\flatbuffers.h ****     return data_ < other.data_;
 165:C:/Renesas/e2studio_2021_01_workspace_RZA2M_ANPR/ANPR_RZA2M_GR_MANGO/src/tensorflow_lite/third_party/flatbuffers/include/flatbuffers\flatbuffers.h ****   }
 166:C:/Renesas/e2studio_2021_01_workspace_RZA2M_ANPR/ANPR_RZA2M_GR_MANGO/src/tensorflow_lite/third_party/flatbuffers/include/flatbuffers\flatbuffers.h **** 
 167:C:/Renesas/e2studio_2021_01_workspace_RZA2M_ANPR/ANPR_RZA2M_GR_MANGO/src/tensorflow_lite/third_party/flatbuffers/include/flatbuffers\flatbuffers.h ****   bool operator!=(const VectorIterator &other) const {
 168:C:/Renesas/e2studio_2021_01_workspace_RZA2M_ANPR/ANPR_RZA2M_GR_MANGO/src/tensorflow_lite/third_party/flatbuffers/include/flatbuffers\flatbuffers.h ****     return data_ != other.data_;
 169:C:/Renesas/e2studio_2021_01_workspace_RZA2M_ANPR/ANPR_RZA2M_GR_MANGO/src/tensorflow_lite/third_party/flatbuffers/include/flatbuffers\flatbuffers.h ****   }
 170:C:/Renesas/e2studio_2021_01_workspace_RZA2M_ANPR/ANPR_RZA2M_GR_MANGO/src/tensorflow_lite/third_party/flatbuffers/include/flatbuffers\flatbuffers.h **** 
 171:C:/Renesas/e2studio_2021_01_workspace_RZA2M_ANPR/ANPR_RZA2M_GR_MANGO/src/tensorflow_lite/third_party/flatbuffers/include/flatbuffers\flatbuffers.h ****   difference_type operator-(const VectorIterator &other) const {
 172:C:/Renesas/e2studio_2021_01_workspace_RZA2M_ANPR/ANPR_RZA2M_GR_MANGO/src/tensorflow_lite/third_party/flatbuffers/include/flatbuffers\flatbuffers.h ****     return (data_ - other.data_) / IndirectHelper<T>::element_stride;
 173:C:/Renesas/e2studio_2021_01_workspace_RZA2M_ANPR/ANPR_RZA2M_GR_MANGO/src/tensorflow_lite/third_party/flatbuffers/include/flatbuffers\flatbuffers.h ****   }
 174:C:/Renesas/e2studio_2021_01_workspace_RZA2M_ANPR/ANPR_RZA2M_GR_MANGO/src/tensorflow_lite/third_party/flatbuffers/include/flatbuffers\flatbuffers.h **** 
 175:C:/Renesas/e2studio_2021_01_workspace_RZA2M_ANPR/ANPR_RZA2M_GR_MANGO/src/tensorflow_lite/third_party/flatbuffers/include/flatbuffers\flatbuffers.h ****   IT operator*() const { return IndirectHelper<T>::Read(data_, 0); }
 176:C:/Renesas/e2studio_2021_01_workspace_RZA2M_ANPR/ANPR_RZA2M_GR_MANGO/src/tensorflow_lite/third_party/flatbuffers/include/flatbuffers\flatbuffers.h **** 
 177:C:/Renesas/e2studio_2021_01_workspace_RZA2M_ANPR/ANPR_RZA2M_GR_MANGO/src/tensorflow_lite/third_party/flatbuffers/include/flatbuffers\flatbuffers.h ****   IT operator->() const { return IndirectHelper<T>::Read(data_, 0); }
 178:C:/Renesas/e2studio_2021_01_workspace_RZA2M_ANPR/ANPR_RZA2M_GR_MANGO/src/tensorflow_lite/third_party/flatbuffers/include/flatbuffers\flatbuffers.h **** 
 179:C:/Renesas/e2studio_2021_01_workspace_RZA2M_ANPR/ANPR_RZA2M_GR_MANGO/src/tensorflow_lite/third_party/flatbuffers/include/flatbuffers\flatbuffers.h ****   VectorIterator &operator++() {
 180:C:/Renesas/e2studio_2021_01_workspace_RZA2M_ANPR/ANPR_RZA2M_GR_MANGO/src/tensorflow_lite/third_party/flatbuffers/include/flatbuffers\flatbuffers.h ****     data_ += IndirectHelper<T>::element_stride;
 181:C:/Renesas/e2studio_2021_01_workspace_RZA2M_ANPR/ANPR_RZA2M_GR_MANGO/src/tensorflow_lite/third_party/flatbuffers/include/flatbuffers\flatbuffers.h ****     return *this;
 182:C:/Renesas/e2studio_2021_01_workspace_RZA2M_ANPR/ANPR_RZA2M_GR_MANGO/src/tensorflow_lite/third_party/flatbuffers/include/flatbuffers\flatbuffers.h ****   }
 183:C:/Renesas/e2studio_2021_01_workspace_RZA2M_ANPR/ANPR_RZA2M_GR_MANGO/src/tensorflow_lite/third_party/flatbuffers/include/flatbuffers\flatbuffers.h **** 
 184:C:/Renesas/e2studio_2021_01_workspace_RZA2M_ANPR/ANPR_RZA2M_GR_MANGO/src/tensorflow_lite/third_party/flatbuffers/include/flatbuffers\flatbuffers.h ****   VectorIterator operator++(int) {
 185:C:/Renesas/e2studio_2021_01_workspace_RZA2M_ANPR/ANPR_RZA2M_GR_MANGO/src/tensorflow_lite/third_party/flatbuffers/include/flatbuffers\flatbuffers.h ****     VectorIterator temp(data_, 0);
 186:C:/Renesas/e2studio_2021_01_workspace_RZA2M_ANPR/ANPR_RZA2M_GR_MANGO/src/tensorflow_lite/third_party/flatbuffers/include/flatbuffers\flatbuffers.h ****     data_ += IndirectHelper<T>::element_stride;
 187:C:/Renesas/e2studio_2021_01_workspace_RZA2M_ANPR/ANPR_RZA2M_GR_MANGO/src/tensorflow_lite/third_party/flatbuffers/include/flatbuffers\flatbuffers.h ****     return temp;
 188:C:/Renesas/e2studio_2021_01_workspace_RZA2M_ANPR/ANPR_RZA2M_GR_MANGO/src/tensorflow_lite/third_party/flatbuffers/include/flatbuffers\flatbuffers.h ****   }
 189:C:/Renesas/e2studio_2021_01_workspace_RZA2M_ANPR/ANPR_RZA2M_GR_MANGO/src/tensorflow_lite/third_party/flatbuffers/include/flatbuffers\flatbuffers.h **** 
 190:C:/Renesas/e2studio_2021_01_workspace_RZA2M_ANPR/ANPR_RZA2M_GR_MANGO/src/tensorflow_lite/third_party/flatbuffers/include/flatbuffers\flatbuffers.h ****   VectorIterator operator+(const uoffset_t &offset) const {
 191:C:/Renesas/e2studio_2021_01_workspace_RZA2M_ANPR/ANPR_RZA2M_GR_MANGO/src/tensorflow_lite/third_party/flatbuffers/include/flatbuffers\flatbuffers.h ****     return VectorIterator(data_ + offset * IndirectHelper<T>::element_stride,
 192:C:/Renesas/e2studio_2021_01_workspace_RZA2M_ANPR/ANPR_RZA2M_GR_MANGO/src/tensorflow_lite/third_party/flatbuffers/include/flatbuffers\flatbuffers.h ****                           0);
 193:C:/Renesas/e2studio_2021_01_workspace_RZA2M_ANPR/ANPR_RZA2M_GR_MANGO/src/tensorflow_lite/third_party/flatbuffers/include/flatbuffers\flatbuffers.h ****   }
 194:C:/Renesas/e2studio_2021_01_workspace_RZA2M_ANPR/ANPR_RZA2M_GR_MANGO/src/tensorflow_lite/third_party/flatbuffers/include/flatbuffers\flatbuffers.h **** 
 195:C:/Renesas/e2studio_2021_01_workspace_RZA2M_ANPR/ANPR_RZA2M_GR_MANGO/src/tensorflow_lite/third_party/flatbuffers/include/flatbuffers\flatbuffers.h ****   VectorIterator &operator+=(const uoffset_t &offset) {
 196:C:/Renesas/e2studio_2021_01_workspace_RZA2M_ANPR/ANPR_RZA2M_GR_MANGO/src/tensorflow_lite/third_party/flatbuffers/include/flatbuffers\flatbuffers.h ****     data_ += offset * IndirectHelper<T>::element_stride;
 197:C:/Renesas/e2studio_2021_01_workspace_RZA2M_ANPR/ANPR_RZA2M_GR_MANGO/src/tensorflow_lite/third_party/flatbuffers/include/flatbuffers\flatbuffers.h ****     return *this;
 198:C:/Renesas/e2studio_2021_01_workspace_RZA2M_ANPR/ANPR_RZA2M_GR_MANGO/src/tensorflow_lite/third_party/flatbuffers/include/flatbuffers\flatbuffers.h ****   }
 199:C:/Renesas/e2studio_2021_01_workspace_RZA2M_ANPR/ANPR_RZA2M_GR_MANGO/src/tensorflow_lite/third_party/flatbuffers/include/flatbuffers\flatbuffers.h **** 
 200:C:/Renesas/e2studio_2021_01_workspace_RZA2M_ANPR/ANPR_RZA2M_GR_MANGO/src/tensorflow_lite/third_party/flatbuffers/include/flatbuffers\flatbuffers.h ****   VectorIterator &operator--() {
 201:C:/Renesas/e2studio_2021_01_workspace_RZA2M_ANPR/ANPR_RZA2M_GR_MANGO/src/tensorflow_lite/third_party/flatbuffers/include/flatbuffers\flatbuffers.h ****     data_ -= IndirectHelper<T>::element_stride;
 202:C:/Renesas/e2studio_2021_01_workspace_RZA2M_ANPR/ANPR_RZA2M_GR_MANGO/src/tensorflow_lite/third_party/flatbuffers/include/flatbuffers\flatbuffers.h ****     return *this;
 203:C:/Renesas/e2studio_2021_01_workspace_RZA2M_ANPR/ANPR_RZA2M_GR_MANGO/src/tensorflow_lite/third_party/flatbuffers/include/flatbuffers\flatbuffers.h ****   }
 204:C:/Renesas/e2studio_2021_01_workspace_RZA2M_ANPR/ANPR_RZA2M_GR_MANGO/src/tensorflow_lite/third_party/flatbuffers/include/flatbuffers\flatbuffers.h **** 
 205:C:/Renesas/e2studio_2021_01_workspace_RZA2M_ANPR/ANPR_RZA2M_GR_MANGO/src/tensorflow_lite/third_party/flatbuffers/include/flatbuffers\flatbuffers.h ****   VectorIterator operator--(int) {
 206:C:/Renesas/e2studio_2021_01_workspace_RZA2M_ANPR/ANPR_RZA2M_GR_MANGO/src/tensorflow_lite/third_party/flatbuffers/include/flatbuffers\flatbuffers.h ****     VectorIterator temp(data_, 0);
 207:C:/Renesas/e2studio_2021_01_workspace_RZA2M_ANPR/ANPR_RZA2M_GR_MANGO/src/tensorflow_lite/third_party/flatbuffers/include/flatbuffers\flatbuffers.h ****     data_ -= IndirectHelper<T>::element_stride;
 208:C:/Renesas/e2studio_2021_01_workspace_RZA2M_ANPR/ANPR_RZA2M_GR_MANGO/src/tensorflow_lite/third_party/flatbuffers/include/flatbuffers\flatbuffers.h ****     return temp;
 209:C:/Renesas/e2studio_2021_01_workspace_RZA2M_ANPR/ANPR_RZA2M_GR_MANGO/src/tensorflow_lite/third_party/flatbuffers/include/flatbuffers\flatbuffers.h ****   }
 210:C:/Renesas/e2studio_2021_01_workspace_RZA2M_ANPR/ANPR_RZA2M_GR_MANGO/src/tensorflow_lite/third_party/flatbuffers/include/flatbuffers\flatbuffers.h **** 
 211:C:/Renesas/e2studio_2021_01_workspace_RZA2M_ANPR/ANPR_RZA2M_GR_MANGO/src/tensorflow_lite/third_party/flatbuffers/include/flatbuffers\flatbuffers.h ****   VectorIterator operator-(const uoffset_t &offset) const {
 212:C:/Renesas/e2studio_2021_01_workspace_RZA2M_ANPR/ANPR_RZA2M_GR_MANGO/src/tensorflow_lite/third_party/flatbuffers/include/flatbuffers\flatbuffers.h ****     return VectorIterator(data_ - offset * IndirectHelper<T>::element_stride,
 213:C:/Renesas/e2studio_2021_01_workspace_RZA2M_ANPR/ANPR_RZA2M_GR_MANGO/src/tensorflow_lite/third_party/flatbuffers/include/flatbuffers\flatbuffers.h ****                           0);
 214:C:/Renesas/e2studio_2021_01_workspace_RZA2M_ANPR/ANPR_RZA2M_GR_MANGO/src/tensorflow_lite/third_party/flatbuffers/include/flatbuffers\flatbuffers.h ****   }
 215:C:/Renesas/e2studio_2021_01_workspace_RZA2M_ANPR/ANPR_RZA2M_GR_MANGO/src/tensorflow_lite/third_party/flatbuffers/include/flatbuffers\flatbuffers.h **** 
 216:C:/Renesas/e2studio_2021_01_workspace_RZA2M_ANPR/ANPR_RZA2M_GR_MANGO/src/tensorflow_lite/third_party/flatbuffers/include/flatbuffers\flatbuffers.h ****   VectorIterator &operator-=(const uoffset_t &offset) {
 217:C:/Renesas/e2studio_2021_01_workspace_RZA2M_ANPR/ANPR_RZA2M_GR_MANGO/src/tensorflow_lite/third_party/flatbuffers/include/flatbuffers\flatbuffers.h ****     data_ -= offset * IndirectHelper<T>::element_stride;
 218:C:/Renesas/e2studio_2021_01_workspace_RZA2M_ANPR/ANPR_RZA2M_GR_MANGO/src/tensorflow_lite/third_party/flatbuffers/include/flatbuffers\flatbuffers.h ****     return *this;
 219:C:/Renesas/e2studio_2021_01_workspace_RZA2M_ANPR/ANPR_RZA2M_GR_MANGO/src/tensorflow_lite/third_party/flatbuffers/include/flatbuffers\flatbuffers.h ****   }
 220:C:/Renesas/e2studio_2021_01_workspace_RZA2M_ANPR/ANPR_RZA2M_GR_MANGO/src/tensorflow_lite/third_party/flatbuffers/include/flatbuffers\flatbuffers.h **** 
 221:C:/Renesas/e2studio_2021_01_workspace_RZA2M_ANPR/ANPR_RZA2M_GR_MANGO/src/tensorflow_lite/third_party/flatbuffers/include/flatbuffers\flatbuffers.h ****  private:
 222:C:/Renesas/e2studio_2021_01_workspace_RZA2M_ANPR/ANPR_RZA2M_GR_MANGO/src/tensorflow_lite/third_party/flatbuffers/include/flatbuffers\flatbuffers.h ****   const uint8_t *data_;
 223:C:/Renesas/e2studio_2021_01_workspace_RZA2M_ANPR/ANPR_RZA2M_GR_MANGO/src/tensorflow_lite/third_party/flatbuffers/include/flatbuffers\flatbuffers.h **** };
 224:C:/Renesas/e2studio_2021_01_workspace_RZA2M_ANPR/ANPR_RZA2M_GR_MANGO/src/tensorflow_lite/third_party/flatbuffers/include/flatbuffers\flatbuffers.h **** 
 225:C:/Renesas/e2studio_2021_01_workspace_RZA2M_ANPR/ANPR_RZA2M_GR_MANGO/src/tensorflow_lite/third_party/flatbuffers/include/flatbuffers\flatbuffers.h **** template<typename Iterator>
 226:C:/Renesas/e2studio_2021_01_workspace_RZA2M_ANPR/ANPR_RZA2M_GR_MANGO/src/tensorflow_lite/third_party/flatbuffers/include/flatbuffers\flatbuffers.h **** struct VectorReverseIterator : public std::reverse_iterator<Iterator> {
 227:C:/Renesas/e2studio_2021_01_workspace_RZA2M_ANPR/ANPR_RZA2M_GR_MANGO/src/tensorflow_lite/third_party/flatbuffers/include/flatbuffers\flatbuffers.h ****   explicit VectorReverseIterator(Iterator iter)
 228:C:/Renesas/e2studio_2021_01_workspace_RZA2M_ANPR/ANPR_RZA2M_GR_MANGO/src/tensorflow_lite/third_party/flatbuffers/include/flatbuffers\flatbuffers.h ****       : std::reverse_iterator<Iterator>(iter) {}
 229:C:/Renesas/e2studio_2021_01_workspace_RZA2M_ANPR/ANPR_RZA2M_GR_MANGO/src/tensorflow_lite/third_party/flatbuffers/include/flatbuffers\flatbuffers.h **** 
 230:C:/Renesas/e2studio_2021_01_workspace_RZA2M_ANPR/ANPR_RZA2M_GR_MANGO/src/tensorflow_lite/third_party/flatbuffers/include/flatbuffers\flatbuffers.h ****   typename Iterator::value_type operator*() const {
 231:C:/Renesas/e2studio_2021_01_workspace_RZA2M_ANPR/ANPR_RZA2M_GR_MANGO/src/tensorflow_lite/third_party/flatbuffers/include/flatbuffers\flatbuffers.h ****     return *(std::reverse_iterator<Iterator>::current);
 232:C:/Renesas/e2studio_2021_01_workspace_RZA2M_ANPR/ANPR_RZA2M_GR_MANGO/src/tensorflow_lite/third_party/flatbuffers/include/flatbuffers\flatbuffers.h ****   }
 233:C:/Renesas/e2studio_2021_01_workspace_RZA2M_ANPR/ANPR_RZA2M_GR_MANGO/src/tensorflow_lite/third_party/flatbuffers/include/flatbuffers\flatbuffers.h **** 
 234:C:/Renesas/e2studio_2021_01_workspace_RZA2M_ANPR/ANPR_RZA2M_GR_MANGO/src/tensorflow_lite/third_party/flatbuffers/include/flatbuffers\flatbuffers.h ****   typename Iterator::value_type operator->() const {
 235:C:/Renesas/e2studio_2021_01_workspace_RZA2M_ANPR/ANPR_RZA2M_GR_MANGO/src/tensorflow_lite/third_party/flatbuffers/include/flatbuffers\flatbuffers.h ****     return *(std::reverse_iterator<Iterator>::current);
 236:C:/Renesas/e2studio_2021_01_workspace_RZA2M_ANPR/ANPR_RZA2M_GR_MANGO/src/tensorflow_lite/third_party/flatbuffers/include/flatbuffers\flatbuffers.h ****   }
 237:C:/Renesas/e2studio_2021_01_workspace_RZA2M_ANPR/ANPR_RZA2M_GR_MANGO/src/tensorflow_lite/third_party/flatbuffers/include/flatbuffers\flatbuffers.h **** };
 238:C:/Renesas/e2studio_2021_01_workspace_RZA2M_ANPR/ANPR_RZA2M_GR_MANGO/src/tensorflow_lite/third_party/flatbuffers/include/flatbuffers\flatbuffers.h **** 
 239:C:/Renesas/e2studio_2021_01_workspace_RZA2M_ANPR/ANPR_RZA2M_GR_MANGO/src/tensorflow_lite/third_party/flatbuffers/include/flatbuffers\flatbuffers.h **** struct String;
 240:C:/Renesas/e2studio_2021_01_workspace_RZA2M_ANPR/ANPR_RZA2M_GR_MANGO/src/tensorflow_lite/third_party/flatbuffers/include/flatbuffers\flatbuffers.h **** 
 241:C:/Renesas/e2studio_2021_01_workspace_RZA2M_ANPR/ANPR_RZA2M_GR_MANGO/src/tensorflow_lite/third_party/flatbuffers/include/flatbuffers\flatbuffers.h **** // This is used as a helper type for accessing vectors.
 242:C:/Renesas/e2studio_2021_01_workspace_RZA2M_ANPR/ANPR_RZA2M_GR_MANGO/src/tensorflow_lite/third_party/flatbuffers/include/flatbuffers\flatbuffers.h **** // Vector::data() assumes the vector elements start after the length field.
 243:C:/Renesas/e2studio_2021_01_workspace_RZA2M_ANPR/ANPR_RZA2M_GR_MANGO/src/tensorflow_lite/third_party/flatbuffers/include/flatbuffers\flatbuffers.h **** template<typename T> class Vector {
 244:C:/Renesas/e2studio_2021_01_workspace_RZA2M_ANPR/ANPR_RZA2M_GR_MANGO/src/tensorflow_lite/third_party/flatbuffers/include/flatbuffers\flatbuffers.h ****  public:
 245:C:/Renesas/e2studio_2021_01_workspace_RZA2M_ANPR/ANPR_RZA2M_GR_MANGO/src/tensorflow_lite/third_party/flatbuffers/include/flatbuffers\flatbuffers.h ****   typedef VectorIterator<T, typename IndirectHelper<T>::mutable_return_type>
 246:C:/Renesas/e2studio_2021_01_workspace_RZA2M_ANPR/ANPR_RZA2M_GR_MANGO/src/tensorflow_lite/third_party/flatbuffers/include/flatbuffers\flatbuffers.h ****       iterator;
 247:C:/Renesas/e2studio_2021_01_workspace_RZA2M_ANPR/ANPR_RZA2M_GR_MANGO/src/tensorflow_lite/third_party/flatbuffers/include/flatbuffers\flatbuffers.h ****   typedef VectorIterator<T, typename IndirectHelper<T>::return_type>
 248:C:/Renesas/e2studio_2021_01_workspace_RZA2M_ANPR/ANPR_RZA2M_GR_MANGO/src/tensorflow_lite/third_party/flatbuffers/include/flatbuffers\flatbuffers.h ****       const_iterator;
 249:C:/Renesas/e2studio_2021_01_workspace_RZA2M_ANPR/ANPR_RZA2M_GR_MANGO/src/tensorflow_lite/third_party/flatbuffers/include/flatbuffers\flatbuffers.h ****   typedef VectorReverseIterator<iterator> reverse_iterator;
 250:C:/Renesas/e2studio_2021_01_workspace_RZA2M_ANPR/ANPR_RZA2M_GR_MANGO/src/tensorflow_lite/third_party/flatbuffers/include/flatbuffers\flatbuffers.h ****   typedef VectorReverseIterator<const_iterator> const_reverse_iterator;
 251:C:/Renesas/e2studio_2021_01_workspace_RZA2M_ANPR/ANPR_RZA2M_GR_MANGO/src/tensorflow_lite/third_party/flatbuffers/include/flatbuffers\flatbuffers.h **** 
 252:C:/Renesas/e2studio_2021_01_workspace_RZA2M_ANPR/ANPR_RZA2M_GR_MANGO/src/tensorflow_lite/third_party/flatbuffers/include/flatbuffers\flatbuffers.h ****   uoffset_t size() const { return EndianScalar(length_); }
 253:C:/Renesas/e2studio_2021_01_workspace_RZA2M_ANPR/ANPR_RZA2M_GR_MANGO/src/tensorflow_lite/third_party/flatbuffers/include/flatbuffers\flatbuffers.h **** 
 254:C:/Renesas/e2studio_2021_01_workspace_RZA2M_ANPR/ANPR_RZA2M_GR_MANGO/src/tensorflow_lite/third_party/flatbuffers/include/flatbuffers\flatbuffers.h ****   // Deprecated: use size(). Here for backwards compatibility.
 255:C:/Renesas/e2studio_2021_01_workspace_RZA2M_ANPR/ANPR_RZA2M_GR_MANGO/src/tensorflow_lite/third_party/flatbuffers/include/flatbuffers\flatbuffers.h ****   FLATBUFFERS_ATTRIBUTE(deprecated("use size() instead"))
 256:C:/Renesas/e2studio_2021_01_workspace_RZA2M_ANPR/ANPR_RZA2M_GR_MANGO/src/tensorflow_lite/third_party/flatbuffers/include/flatbuffers\flatbuffers.h ****   uoffset_t Length() const { return size(); }
 257:C:/Renesas/e2studio_2021_01_workspace_RZA2M_ANPR/ANPR_RZA2M_GR_MANGO/src/tensorflow_lite/third_party/flatbuffers/include/flatbuffers\flatbuffers.h **** 
 258:C:/Renesas/e2studio_2021_01_workspace_RZA2M_ANPR/ANPR_RZA2M_GR_MANGO/src/tensorflow_lite/third_party/flatbuffers/include/flatbuffers\flatbuffers.h ****   typedef typename IndirectHelper<T>::return_type return_type;
 259:C:/Renesas/e2studio_2021_01_workspace_RZA2M_ANPR/ANPR_RZA2M_GR_MANGO/src/tensorflow_lite/third_party/flatbuffers/include/flatbuffers\flatbuffers.h ****   typedef typename IndirectHelper<T>::mutable_return_type mutable_return_type;
 260:C:/Renesas/e2studio_2021_01_workspace_RZA2M_ANPR/ANPR_RZA2M_GR_MANGO/src/tensorflow_lite/third_party/flatbuffers/include/flatbuffers\flatbuffers.h **** 
 261:C:/Renesas/e2studio_2021_01_workspace_RZA2M_ANPR/ANPR_RZA2M_GR_MANGO/src/tensorflow_lite/third_party/flatbuffers/include/flatbuffers\flatbuffers.h ****   return_type Get(uoffset_t i) const {
 262:C:/Renesas/e2studio_2021_01_workspace_RZA2M_ANPR/ANPR_RZA2M_GR_MANGO/src/tensorflow_lite/third_party/flatbuffers/include/flatbuffers\flatbuffers.h ****     FLATBUFFERS_ASSERT(i < size());
 263:C:/Renesas/e2studio_2021_01_workspace_RZA2M_ANPR/ANPR_RZA2M_GR_MANGO/src/tensorflow_lite/third_party/flatbuffers/include/flatbuffers\flatbuffers.h ****     return IndirectHelper<T>::Read(Data(), i);
 264:C:/Renesas/e2studio_2021_01_workspace_RZA2M_ANPR/ANPR_RZA2M_GR_MANGO/src/tensorflow_lite/third_party/flatbuffers/include/flatbuffers\flatbuffers.h ****   }
 265:C:/Renesas/e2studio_2021_01_workspace_RZA2M_ANPR/ANPR_RZA2M_GR_MANGO/src/tensorflow_lite/third_party/flatbuffers/include/flatbuffers\flatbuffers.h **** 
 266:C:/Renesas/e2studio_2021_01_workspace_RZA2M_ANPR/ANPR_RZA2M_GR_MANGO/src/tensorflow_lite/third_party/flatbuffers/include/flatbuffers\flatbuffers.h ****   return_type operator[](uoffset_t i) const { return Get(i); }
 267:C:/Renesas/e2studio_2021_01_workspace_RZA2M_ANPR/ANPR_RZA2M_GR_MANGO/src/tensorflow_lite/third_party/flatbuffers/include/flatbuffers\flatbuffers.h **** 
 268:C:/Renesas/e2studio_2021_01_workspace_RZA2M_ANPR/ANPR_RZA2M_GR_MANGO/src/tensorflow_lite/third_party/flatbuffers/include/flatbuffers\flatbuffers.h ****   // If this is a Vector of enums, T will be its storage type, not the enum
 269:C:/Renesas/e2studio_2021_01_workspace_RZA2M_ANPR/ANPR_RZA2M_GR_MANGO/src/tensorflow_lite/third_party/flatbuffers/include/flatbuffers\flatbuffers.h ****   // type. This function makes it convenient to retrieve value with enum
 270:C:/Renesas/e2studio_2021_01_workspace_RZA2M_ANPR/ANPR_RZA2M_GR_MANGO/src/tensorflow_lite/third_party/flatbuffers/include/flatbuffers\flatbuffers.h ****   // type E.
 271:C:/Renesas/e2studio_2021_01_workspace_RZA2M_ANPR/ANPR_RZA2M_GR_MANGO/src/tensorflow_lite/third_party/flatbuffers/include/flatbuffers\flatbuffers.h ****   template<typename E> E GetEnum(uoffset_t i) const {
 272:C:/Renesas/e2studio_2021_01_workspace_RZA2M_ANPR/ANPR_RZA2M_GR_MANGO/src/tensorflow_lite/third_party/flatbuffers/include/flatbuffers\flatbuffers.h ****     return static_cast<E>(Get(i));
 273:C:/Renesas/e2studio_2021_01_workspace_RZA2M_ANPR/ANPR_RZA2M_GR_MANGO/src/tensorflow_lite/third_party/flatbuffers/include/flatbuffers\flatbuffers.h ****   }
 274:C:/Renesas/e2studio_2021_01_workspace_RZA2M_ANPR/ANPR_RZA2M_GR_MANGO/src/tensorflow_lite/third_party/flatbuffers/include/flatbuffers\flatbuffers.h **** 
 275:C:/Renesas/e2studio_2021_01_workspace_RZA2M_ANPR/ANPR_RZA2M_GR_MANGO/src/tensorflow_lite/third_party/flatbuffers/include/flatbuffers\flatbuffers.h ****   // If this a vector of unions, this does the cast for you. There's no check
 276:C:/Renesas/e2studio_2021_01_workspace_RZA2M_ANPR/ANPR_RZA2M_GR_MANGO/src/tensorflow_lite/third_party/flatbuffers/include/flatbuffers\flatbuffers.h ****   // to make sure this is the right type!
 277:C:/Renesas/e2studio_2021_01_workspace_RZA2M_ANPR/ANPR_RZA2M_GR_MANGO/src/tensorflow_lite/third_party/flatbuffers/include/flatbuffers\flatbuffers.h ****   template<typename U> const U *GetAs(uoffset_t i) const {
 278:C:/Renesas/e2studio_2021_01_workspace_RZA2M_ANPR/ANPR_RZA2M_GR_MANGO/src/tensorflow_lite/third_party/flatbuffers/include/flatbuffers\flatbuffers.h ****     return reinterpret_cast<const U *>(Get(i));
 279:C:/Renesas/e2studio_2021_01_workspace_RZA2M_ANPR/ANPR_RZA2M_GR_MANGO/src/tensorflow_lite/third_party/flatbuffers/include/flatbuffers\flatbuffers.h ****   }
 280:C:/Renesas/e2studio_2021_01_workspace_RZA2M_ANPR/ANPR_RZA2M_GR_MANGO/src/tensorflow_lite/third_party/flatbuffers/include/flatbuffers\flatbuffers.h **** 
 281:C:/Renesas/e2studio_2021_01_workspace_RZA2M_ANPR/ANPR_RZA2M_GR_MANGO/src/tensorflow_lite/third_party/flatbuffers/include/flatbuffers\flatbuffers.h ****   // If this a vector of unions, this does the cast for you. There's no check
 282:C:/Renesas/e2studio_2021_01_workspace_RZA2M_ANPR/ANPR_RZA2M_GR_MANGO/src/tensorflow_lite/third_party/flatbuffers/include/flatbuffers\flatbuffers.h ****   // to make sure this is actually a string!
 283:C:/Renesas/e2studio_2021_01_workspace_RZA2M_ANPR/ANPR_RZA2M_GR_MANGO/src/tensorflow_lite/third_party/flatbuffers/include/flatbuffers\flatbuffers.h ****   const String *GetAsString(uoffset_t i) const {
 284:C:/Renesas/e2studio_2021_01_workspace_RZA2M_ANPR/ANPR_RZA2M_GR_MANGO/src/tensorflow_lite/third_party/flatbuffers/include/flatbuffers\flatbuffers.h ****     return reinterpret_cast<const String *>(Get(i));
 285:C:/Renesas/e2studio_2021_01_workspace_RZA2M_ANPR/ANPR_RZA2M_GR_MANGO/src/tensorflow_lite/third_party/flatbuffers/include/flatbuffers\flatbuffers.h ****   }
 286:C:/Renesas/e2studio_2021_01_workspace_RZA2M_ANPR/ANPR_RZA2M_GR_MANGO/src/tensorflow_lite/third_party/flatbuffers/include/flatbuffers\flatbuffers.h **** 
 287:C:/Renesas/e2studio_2021_01_workspace_RZA2M_ANPR/ANPR_RZA2M_GR_MANGO/src/tensorflow_lite/third_party/flatbuffers/include/flatbuffers\flatbuffers.h ****   const void *GetStructFromOffset(size_t o) const {
 288:C:/Renesas/e2studio_2021_01_workspace_RZA2M_ANPR/ANPR_RZA2M_GR_MANGO/src/tensorflow_lite/third_party/flatbuffers/include/flatbuffers\flatbuffers.h ****     return reinterpret_cast<const void *>(Data() + o);
 289:C:/Renesas/e2studio_2021_01_workspace_RZA2M_ANPR/ANPR_RZA2M_GR_MANGO/src/tensorflow_lite/third_party/flatbuffers/include/flatbuffers\flatbuffers.h ****   }
 290:C:/Renesas/e2studio_2021_01_workspace_RZA2M_ANPR/ANPR_RZA2M_GR_MANGO/src/tensorflow_lite/third_party/flatbuffers/include/flatbuffers\flatbuffers.h **** 
 291:C:/Renesas/e2studio_2021_01_workspace_RZA2M_ANPR/ANPR_RZA2M_GR_MANGO/src/tensorflow_lite/third_party/flatbuffers/include/flatbuffers\flatbuffers.h ****   iterator begin() { return iterator(Data(), 0); }
 292:C:/Renesas/e2studio_2021_01_workspace_RZA2M_ANPR/ANPR_RZA2M_GR_MANGO/src/tensorflow_lite/third_party/flatbuffers/include/flatbuffers\flatbuffers.h ****   const_iterator begin() const { return const_iterator(Data(), 0); }
 293:C:/Renesas/e2studio_2021_01_workspace_RZA2M_ANPR/ANPR_RZA2M_GR_MANGO/src/tensorflow_lite/third_party/flatbuffers/include/flatbuffers\flatbuffers.h **** 
 294:C:/Renesas/e2studio_2021_01_workspace_RZA2M_ANPR/ANPR_RZA2M_GR_MANGO/src/tensorflow_lite/third_party/flatbuffers/include/flatbuffers\flatbuffers.h ****   iterator end() { return iterator(Data(), size()); }
 295:C:/Renesas/e2studio_2021_01_workspace_RZA2M_ANPR/ANPR_RZA2M_GR_MANGO/src/tensorflow_lite/third_party/flatbuffers/include/flatbuffers\flatbuffers.h ****   const_iterator end() const { return const_iterator(Data(), size()); }
 296:C:/Renesas/e2studio_2021_01_workspace_RZA2M_ANPR/ANPR_RZA2M_GR_MANGO/src/tensorflow_lite/third_party/flatbuffers/include/flatbuffers\flatbuffers.h **** 
 297:C:/Renesas/e2studio_2021_01_workspace_RZA2M_ANPR/ANPR_RZA2M_GR_MANGO/src/tensorflow_lite/third_party/flatbuffers/include/flatbuffers\flatbuffers.h ****   reverse_iterator rbegin() { return reverse_iterator(end() - 1); }
 298:C:/Renesas/e2studio_2021_01_workspace_RZA2M_ANPR/ANPR_RZA2M_GR_MANGO/src/tensorflow_lite/third_party/flatbuffers/include/flatbuffers\flatbuffers.h ****   const_reverse_iterator rbegin() const {
 299:C:/Renesas/e2studio_2021_01_workspace_RZA2M_ANPR/ANPR_RZA2M_GR_MANGO/src/tensorflow_lite/third_party/flatbuffers/include/flatbuffers\flatbuffers.h ****     return const_reverse_iterator(end() - 1);
 300:C:/Renesas/e2studio_2021_01_workspace_RZA2M_ANPR/ANPR_RZA2M_GR_MANGO/src/tensorflow_lite/third_party/flatbuffers/include/flatbuffers\flatbuffers.h ****   }
 301:C:/Renesas/e2studio_2021_01_workspace_RZA2M_ANPR/ANPR_RZA2M_GR_MANGO/src/tensorflow_lite/third_party/flatbuffers/include/flatbuffers\flatbuffers.h **** 
 302:C:/Renesas/e2studio_2021_01_workspace_RZA2M_ANPR/ANPR_RZA2M_GR_MANGO/src/tensorflow_lite/third_party/flatbuffers/include/flatbuffers\flatbuffers.h ****   reverse_iterator rend() { return reverse_iterator(begin() - 1); }
 303:C:/Renesas/e2studio_2021_01_workspace_RZA2M_ANPR/ANPR_RZA2M_GR_MANGO/src/tensorflow_lite/third_party/flatbuffers/include/flatbuffers\flatbuffers.h ****   const_reverse_iterator rend() const {
 304:C:/Renesas/e2studio_2021_01_workspace_RZA2M_ANPR/ANPR_RZA2M_GR_MANGO/src/tensorflow_lite/third_party/flatbuffers/include/flatbuffers\flatbuffers.h ****     return const_reverse_iterator(begin() - 1);
 305:C:/Renesas/e2studio_2021_01_workspace_RZA2M_ANPR/ANPR_RZA2M_GR_MANGO/src/tensorflow_lite/third_party/flatbuffers/include/flatbuffers\flatbuffers.h ****   }
 306:C:/Renesas/e2studio_2021_01_workspace_RZA2M_ANPR/ANPR_RZA2M_GR_MANGO/src/tensorflow_lite/third_party/flatbuffers/include/flatbuffers\flatbuffers.h **** 
 307:C:/Renesas/e2studio_2021_01_workspace_RZA2M_ANPR/ANPR_RZA2M_GR_MANGO/src/tensorflow_lite/third_party/flatbuffers/include/flatbuffers\flatbuffers.h ****   const_iterator cbegin() const { return begin(); }
 308:C:/Renesas/e2studio_2021_01_workspace_RZA2M_ANPR/ANPR_RZA2M_GR_MANGO/src/tensorflow_lite/third_party/flatbuffers/include/flatbuffers\flatbuffers.h **** 
 309:C:/Renesas/e2studio_2021_01_workspace_RZA2M_ANPR/ANPR_RZA2M_GR_MANGO/src/tensorflow_lite/third_party/flatbuffers/include/flatbuffers\flatbuffers.h ****   const_iterator cend() const { return end(); }
 310:C:/Renesas/e2studio_2021_01_workspace_RZA2M_ANPR/ANPR_RZA2M_GR_MANGO/src/tensorflow_lite/third_party/flatbuffers/include/flatbuffers\flatbuffers.h **** 
 311:C:/Renesas/e2studio_2021_01_workspace_RZA2M_ANPR/ANPR_RZA2M_GR_MANGO/src/tensorflow_lite/third_party/flatbuffers/include/flatbuffers\flatbuffers.h ****   const_reverse_iterator crbegin() const { return rbegin(); }
 312:C:/Renesas/e2studio_2021_01_workspace_RZA2M_ANPR/ANPR_RZA2M_GR_MANGO/src/tensorflow_lite/third_party/flatbuffers/include/flatbuffers\flatbuffers.h **** 
 313:C:/Renesas/e2studio_2021_01_workspace_RZA2M_ANPR/ANPR_RZA2M_GR_MANGO/src/tensorflow_lite/third_party/flatbuffers/include/flatbuffers\flatbuffers.h ****   const_reverse_iterator crend() const { return rend(); }
 314:C:/Renesas/e2studio_2021_01_workspace_RZA2M_ANPR/ANPR_RZA2M_GR_MANGO/src/tensorflow_lite/third_party/flatbuffers/include/flatbuffers\flatbuffers.h **** 
 315:C:/Renesas/e2studio_2021_01_workspace_RZA2M_ANPR/ANPR_RZA2M_GR_MANGO/src/tensorflow_lite/third_party/flatbuffers/include/flatbuffers\flatbuffers.h ****   // Change elements if you have a non-const pointer to this object.
 316:C:/Renesas/e2studio_2021_01_workspace_RZA2M_ANPR/ANPR_RZA2M_GR_MANGO/src/tensorflow_lite/third_party/flatbuffers/include/flatbuffers\flatbuffers.h ****   // Scalars only. See reflection.h, and the documentation.
 317:C:/Renesas/e2studio_2021_01_workspace_RZA2M_ANPR/ANPR_RZA2M_GR_MANGO/src/tensorflow_lite/third_party/flatbuffers/include/flatbuffers\flatbuffers.h ****   void Mutate(uoffset_t i, const T &val) {
 318:C:/Renesas/e2studio_2021_01_workspace_RZA2M_ANPR/ANPR_RZA2M_GR_MANGO/src/tensorflow_lite/third_party/flatbuffers/include/flatbuffers\flatbuffers.h ****     FLATBUFFERS_ASSERT(i < size());
 319:C:/Renesas/e2studio_2021_01_workspace_RZA2M_ANPR/ANPR_RZA2M_GR_MANGO/src/tensorflow_lite/third_party/flatbuffers/include/flatbuffers\flatbuffers.h ****     WriteScalar(data() + i, val);
 320:C:/Renesas/e2studio_2021_01_workspace_RZA2M_ANPR/ANPR_RZA2M_GR_MANGO/src/tensorflow_lite/third_party/flatbuffers/include/flatbuffers\flatbuffers.h ****   }
 321:C:/Renesas/e2studio_2021_01_workspace_RZA2M_ANPR/ANPR_RZA2M_GR_MANGO/src/tensorflow_lite/third_party/flatbuffers/include/flatbuffers\flatbuffers.h **** 
 322:C:/Renesas/e2studio_2021_01_workspace_RZA2M_ANPR/ANPR_RZA2M_GR_MANGO/src/tensorflow_lite/third_party/flatbuffers/include/flatbuffers\flatbuffers.h ****   // Change an element of a vector of tables (or strings).
 323:C:/Renesas/e2studio_2021_01_workspace_RZA2M_ANPR/ANPR_RZA2M_GR_MANGO/src/tensorflow_lite/third_party/flatbuffers/include/flatbuffers\flatbuffers.h ****   // "val" points to the new table/string, as you can obtain from
 324:C:/Renesas/e2studio_2021_01_workspace_RZA2M_ANPR/ANPR_RZA2M_GR_MANGO/src/tensorflow_lite/third_party/flatbuffers/include/flatbuffers\flatbuffers.h ****   // e.g. reflection::AddFlatBuffer().
 325:C:/Renesas/e2studio_2021_01_workspace_RZA2M_ANPR/ANPR_RZA2M_GR_MANGO/src/tensorflow_lite/third_party/flatbuffers/include/flatbuffers\flatbuffers.h ****   void MutateOffset(uoffset_t i, const uint8_t *val) {
 326:C:/Renesas/e2studio_2021_01_workspace_RZA2M_ANPR/ANPR_RZA2M_GR_MANGO/src/tensorflow_lite/third_party/flatbuffers/include/flatbuffers\flatbuffers.h ****     FLATBUFFERS_ASSERT(i < size());
 327:C:/Renesas/e2studio_2021_01_workspace_RZA2M_ANPR/ANPR_RZA2M_GR_MANGO/src/tensorflow_lite/third_party/flatbuffers/include/flatbuffers\flatbuffers.h ****     static_assert(sizeof(T) == sizeof(uoffset_t), "Unrelated types");
 328:C:/Renesas/e2studio_2021_01_workspace_RZA2M_ANPR/ANPR_RZA2M_GR_MANGO/src/tensorflow_lite/third_party/flatbuffers/include/flatbuffers\flatbuffers.h ****     WriteScalar(data() + i,
 329:C:/Renesas/e2studio_2021_01_workspace_RZA2M_ANPR/ANPR_RZA2M_GR_MANGO/src/tensorflow_lite/third_party/flatbuffers/include/flatbuffers\flatbuffers.h ****                 static_cast<uoffset_t>(val - (Data() + i * sizeof(uoffset_t))));
 330:C:/Renesas/e2studio_2021_01_workspace_RZA2M_ANPR/ANPR_RZA2M_GR_MANGO/src/tensorflow_lite/third_party/flatbuffers/include/flatbuffers\flatbuffers.h ****   }
 331:C:/Renesas/e2studio_2021_01_workspace_RZA2M_ANPR/ANPR_RZA2M_GR_MANGO/src/tensorflow_lite/third_party/flatbuffers/include/flatbuffers\flatbuffers.h **** 
 332:C:/Renesas/e2studio_2021_01_workspace_RZA2M_ANPR/ANPR_RZA2M_GR_MANGO/src/tensorflow_lite/third_party/flatbuffers/include/flatbuffers\flatbuffers.h ****   // Get a mutable pointer to tables/strings inside this vector.
 333:C:/Renesas/e2studio_2021_01_workspace_RZA2M_ANPR/ANPR_RZA2M_GR_MANGO/src/tensorflow_lite/third_party/flatbuffers/include/flatbuffers\flatbuffers.h ****   mutable_return_type GetMutableObject(uoffset_t i) const {
 334:C:/Renesas/e2studio_2021_01_workspace_RZA2M_ANPR/ANPR_RZA2M_GR_MANGO/src/tensorflow_lite/third_party/flatbuffers/include/flatbuffers\flatbuffers.h ****     FLATBUFFERS_ASSERT(i < size());
 335:C:/Renesas/e2studio_2021_01_workspace_RZA2M_ANPR/ANPR_RZA2M_GR_MANGO/src/tensorflow_lite/third_party/flatbuffers/include/flatbuffers\flatbuffers.h ****     return const_cast<mutable_return_type>(IndirectHelper<T>::Read(Data(), i));
 336:C:/Renesas/e2studio_2021_01_workspace_RZA2M_ANPR/ANPR_RZA2M_GR_MANGO/src/tensorflow_lite/third_party/flatbuffers/include/flatbuffers\flatbuffers.h ****   }
 337:C:/Renesas/e2studio_2021_01_workspace_RZA2M_ANPR/ANPR_RZA2M_GR_MANGO/src/tensorflow_lite/third_party/flatbuffers/include/flatbuffers\flatbuffers.h **** 
 338:C:/Renesas/e2studio_2021_01_workspace_RZA2M_ANPR/ANPR_RZA2M_GR_MANGO/src/tensorflow_lite/third_party/flatbuffers/include/flatbuffers\flatbuffers.h ****   // The raw data in little endian format. Use with care.
 339:C:/Renesas/e2studio_2021_01_workspace_RZA2M_ANPR/ANPR_RZA2M_GR_MANGO/src/tensorflow_lite/third_party/flatbuffers/include/flatbuffers\flatbuffers.h ****   const uint8_t *Data() const {
 340:C:/Renesas/e2studio_2021_01_workspace_RZA2M_ANPR/ANPR_RZA2M_GR_MANGO/src/tensorflow_lite/third_party/flatbuffers/include/flatbuffers\flatbuffers.h ****     return reinterpret_cast<const uint8_t *>(&length_ + 1);
 341:C:/Renesas/e2studio_2021_01_workspace_RZA2M_ANPR/ANPR_RZA2M_GR_MANGO/src/tensorflow_lite/third_party/flatbuffers/include/flatbuffers\flatbuffers.h ****   }
 342:C:/Renesas/e2studio_2021_01_workspace_RZA2M_ANPR/ANPR_RZA2M_GR_MANGO/src/tensorflow_lite/third_party/flatbuffers/include/flatbuffers\flatbuffers.h **** 
 343:C:/Renesas/e2studio_2021_01_workspace_RZA2M_ANPR/ANPR_RZA2M_GR_MANGO/src/tensorflow_lite/third_party/flatbuffers/include/flatbuffers\flatbuffers.h ****   uint8_t *Data() { return reinterpret_cast<uint8_t *>(&length_ + 1); }
 344:C:/Renesas/e2studio_2021_01_workspace_RZA2M_ANPR/ANPR_RZA2M_GR_MANGO/src/tensorflow_lite/third_party/flatbuffers/include/flatbuffers\flatbuffers.h **** 
 345:C:/Renesas/e2studio_2021_01_workspace_RZA2M_ANPR/ANPR_RZA2M_GR_MANGO/src/tensorflow_lite/third_party/flatbuffers/include/flatbuffers\flatbuffers.h ****   // Similarly, but typed, much like std::vector::data
 346:C:/Renesas/e2studio_2021_01_workspace_RZA2M_ANPR/ANPR_RZA2M_GR_MANGO/src/tensorflow_lite/third_party/flatbuffers/include/flatbuffers\flatbuffers.h ****   const T *data() const { return reinterpret_cast<const T *>(Data()); }
 347:C:/Renesas/e2studio_2021_01_workspace_RZA2M_ANPR/ANPR_RZA2M_GR_MANGO/src/tensorflow_lite/third_party/flatbuffers/include/flatbuffers\flatbuffers.h ****   T *data() { return reinterpret_cast<T *>(Data()); }
 348:C:/Renesas/e2studio_2021_01_workspace_RZA2M_ANPR/ANPR_RZA2M_GR_MANGO/src/tensorflow_lite/third_party/flatbuffers/include/flatbuffers\flatbuffers.h **** 
 349:C:/Renesas/e2studio_2021_01_workspace_RZA2M_ANPR/ANPR_RZA2M_GR_MANGO/src/tensorflow_lite/third_party/flatbuffers/include/flatbuffers\flatbuffers.h ****   template<typename K> return_type LookupByKey(K key) const {
 350:C:/Renesas/e2studio_2021_01_workspace_RZA2M_ANPR/ANPR_RZA2M_GR_MANGO/src/tensorflow_lite/third_party/flatbuffers/include/flatbuffers\flatbuffers.h ****     void *search_result = std::bsearch(
 351:C:/Renesas/e2studio_2021_01_workspace_RZA2M_ANPR/ANPR_RZA2M_GR_MANGO/src/tensorflow_lite/third_party/flatbuffers/include/flatbuffers\flatbuffers.h ****         &key, Data(), size(), IndirectHelper<T>::element_stride, KeyCompare<K>);
 352:C:/Renesas/e2studio_2021_01_workspace_RZA2M_ANPR/ANPR_RZA2M_GR_MANGO/src/tensorflow_lite/third_party/flatbuffers/include/flatbuffers\flatbuffers.h **** 
 353:C:/Renesas/e2studio_2021_01_workspace_RZA2M_ANPR/ANPR_RZA2M_GR_MANGO/src/tensorflow_lite/third_party/flatbuffers/include/flatbuffers\flatbuffers.h ****     if (!search_result) {
 354:C:/Renesas/e2studio_2021_01_workspace_RZA2M_ANPR/ANPR_RZA2M_GR_MANGO/src/tensorflow_lite/third_party/flatbuffers/include/flatbuffers\flatbuffers.h ****       return nullptr;  // Key not found.
 355:C:/Renesas/e2studio_2021_01_workspace_RZA2M_ANPR/ANPR_RZA2M_GR_MANGO/src/tensorflow_lite/third_party/flatbuffers/include/flatbuffers\flatbuffers.h ****     }
 356:C:/Renesas/e2studio_2021_01_workspace_RZA2M_ANPR/ANPR_RZA2M_GR_MANGO/src/tensorflow_lite/third_party/flatbuffers/include/flatbuffers\flatbuffers.h **** 
 357:C:/Renesas/e2studio_2021_01_workspace_RZA2M_ANPR/ANPR_RZA2M_GR_MANGO/src/tensorflow_lite/third_party/flatbuffers/include/flatbuffers\flatbuffers.h ****     const uint8_t *element = reinterpret_cast<const uint8_t *>(search_result);
 358:C:/Renesas/e2studio_2021_01_workspace_RZA2M_ANPR/ANPR_RZA2M_GR_MANGO/src/tensorflow_lite/third_party/flatbuffers/include/flatbuffers\flatbuffers.h **** 
 359:C:/Renesas/e2studio_2021_01_workspace_RZA2M_ANPR/ANPR_RZA2M_GR_MANGO/src/tensorflow_lite/third_party/flatbuffers/include/flatbuffers\flatbuffers.h ****     return IndirectHelper<T>::Read(element, 0);
 360:C:/Renesas/e2studio_2021_01_workspace_RZA2M_ANPR/ANPR_RZA2M_GR_MANGO/src/tensorflow_lite/third_party/flatbuffers/include/flatbuffers\flatbuffers.h ****   }
 361:C:/Renesas/e2studio_2021_01_workspace_RZA2M_ANPR/ANPR_RZA2M_GR_MANGO/src/tensorflow_lite/third_party/flatbuffers/include/flatbuffers\flatbuffers.h **** 
 362:C:/Renesas/e2studio_2021_01_workspace_RZA2M_ANPR/ANPR_RZA2M_GR_MANGO/src/tensorflow_lite/third_party/flatbuffers/include/flatbuffers\flatbuffers.h ****  protected:
 363:C:/Renesas/e2studio_2021_01_workspace_RZA2M_ANPR/ANPR_RZA2M_GR_MANGO/src/tensorflow_lite/third_party/flatbuffers/include/flatbuffers\flatbuffers.h ****   // This class is only used to access pre-existing data. Don't ever
 364:C:/Renesas/e2studio_2021_01_workspace_RZA2M_ANPR/ANPR_RZA2M_GR_MANGO/src/tensorflow_lite/third_party/flatbuffers/include/flatbuffers\flatbuffers.h ****   // try to construct these manually.
 365:C:/Renesas/e2studio_2021_01_workspace_RZA2M_ANPR/ANPR_RZA2M_GR_MANGO/src/tensorflow_lite/third_party/flatbuffers/include/flatbuffers\flatbuffers.h ****   Vector();
 366:C:/Renesas/e2studio_2021_01_workspace_RZA2M_ANPR/ANPR_RZA2M_GR_MANGO/src/tensorflow_lite/third_party/flatbuffers/include/flatbuffers\flatbuffers.h **** 
 367:C:/Renesas/e2studio_2021_01_workspace_RZA2M_ANPR/ANPR_RZA2M_GR_MANGO/src/tensorflow_lite/third_party/flatbuffers/include/flatbuffers\flatbuffers.h ****   uoffset_t length_;
 368:C:/Renesas/e2studio_2021_01_workspace_RZA2M_ANPR/ANPR_RZA2M_GR_MANGO/src/tensorflow_lite/third_party/flatbuffers/include/flatbuffers\flatbuffers.h **** 
 369:C:/Renesas/e2studio_2021_01_workspace_RZA2M_ANPR/ANPR_RZA2M_GR_MANGO/src/tensorflow_lite/third_party/flatbuffers/include/flatbuffers\flatbuffers.h ****  private:
 370:C:/Renesas/e2studio_2021_01_workspace_RZA2M_ANPR/ANPR_RZA2M_GR_MANGO/src/tensorflow_lite/third_party/flatbuffers/include/flatbuffers\flatbuffers.h ****   // This class is a pointer. Copying will therefore create an invalid object.
 371:C:/Renesas/e2studio_2021_01_workspace_RZA2M_ANPR/ANPR_RZA2M_GR_MANGO/src/tensorflow_lite/third_party/flatbuffers/include/flatbuffers\flatbuffers.h ****   // Private and unimplemented copy constructor.
 372:C:/Renesas/e2studio_2021_01_workspace_RZA2M_ANPR/ANPR_RZA2M_GR_MANGO/src/tensorflow_lite/third_party/flatbuffers/include/flatbuffers\flatbuffers.h ****   Vector(const Vector &);
 373:C:/Renesas/e2studio_2021_01_workspace_RZA2M_ANPR/ANPR_RZA2M_GR_MANGO/src/tensorflow_lite/third_party/flatbuffers/include/flatbuffers\flatbuffers.h ****   Vector &operator=(const Vector &);
 374:C:/Renesas/e2studio_2021_01_workspace_RZA2M_ANPR/ANPR_RZA2M_GR_MANGO/src/tensorflow_lite/third_party/flatbuffers/include/flatbuffers\flatbuffers.h **** 
 375:C:/Renesas/e2studio_2021_01_workspace_RZA2M_ANPR/ANPR_RZA2M_GR_MANGO/src/tensorflow_lite/third_party/flatbuffers/include/flatbuffers\flatbuffers.h ****   template<typename K> static int KeyCompare(const void *ap, const void *bp) {
 376:C:/Renesas/e2studio_2021_01_workspace_RZA2M_ANPR/ANPR_RZA2M_GR_MANGO/src/tensorflow_lite/third_party/flatbuffers/include/flatbuffers\flatbuffers.h ****     const K *key = reinterpret_cast<const K *>(ap);
 377:C:/Renesas/e2studio_2021_01_workspace_RZA2M_ANPR/ANPR_RZA2M_GR_MANGO/src/tensorflow_lite/third_party/flatbuffers/include/flatbuffers\flatbuffers.h ****     const uint8_t *data = reinterpret_cast<const uint8_t *>(bp);
 378:C:/Renesas/e2studio_2021_01_workspace_RZA2M_ANPR/ANPR_RZA2M_GR_MANGO/src/tensorflow_lite/third_party/flatbuffers/include/flatbuffers\flatbuffers.h ****     auto table = IndirectHelper<T>::Read(data, 0);
 379:C:/Renesas/e2studio_2021_01_workspace_RZA2M_ANPR/ANPR_RZA2M_GR_MANGO/src/tensorflow_lite/third_party/flatbuffers/include/flatbuffers\flatbuffers.h **** 
 380:C:/Renesas/e2studio_2021_01_workspace_RZA2M_ANPR/ANPR_RZA2M_GR_MANGO/src/tensorflow_lite/third_party/flatbuffers/include/flatbuffers\flatbuffers.h ****     // std::bsearch compares with the operands transposed, so we negate the
 381:C:/Renesas/e2studio_2021_01_workspace_RZA2M_ANPR/ANPR_RZA2M_GR_MANGO/src/tensorflow_lite/third_party/flatbuffers/include/flatbuffers\flatbuffers.h ****     // result here.
 382:C:/Renesas/e2studio_2021_01_workspace_RZA2M_ANPR/ANPR_RZA2M_GR_MANGO/src/tensorflow_lite/third_party/flatbuffers/include/flatbuffers\flatbuffers.h ****     return -table->KeyCompareWithValue(*key);
 383:C:/Renesas/e2studio_2021_01_workspace_RZA2M_ANPR/ANPR_RZA2M_GR_MANGO/src/tensorflow_lite/third_party/flatbuffers/include/flatbuffers\flatbuffers.h ****   }
 384:C:/Renesas/e2studio_2021_01_workspace_RZA2M_ANPR/ANPR_RZA2M_GR_MANGO/src/tensorflow_lite/third_party/flatbuffers/include/flatbuffers\flatbuffers.h **** };
 385:C:/Renesas/e2studio_2021_01_workspace_RZA2M_ANPR/ANPR_RZA2M_GR_MANGO/src/tensorflow_lite/third_party/flatbuffers/include/flatbuffers\flatbuffers.h **** 
 386:C:/Renesas/e2studio_2021_01_workspace_RZA2M_ANPR/ANPR_RZA2M_GR_MANGO/src/tensorflow_lite/third_party/flatbuffers/include/flatbuffers\flatbuffers.h **** // Represent a vector much like the template above, but in this case we
 387:C:/Renesas/e2studio_2021_01_workspace_RZA2M_ANPR/ANPR_RZA2M_GR_MANGO/src/tensorflow_lite/third_party/flatbuffers/include/flatbuffers\flatbuffers.h **** // don't know what the element types are (used with reflection.h).
 388:C:/Renesas/e2studio_2021_01_workspace_RZA2M_ANPR/ANPR_RZA2M_GR_MANGO/src/tensorflow_lite/third_party/flatbuffers/include/flatbuffers\flatbuffers.h **** class VectorOfAny {
 389:C:/Renesas/e2studio_2021_01_workspace_RZA2M_ANPR/ANPR_RZA2M_GR_MANGO/src/tensorflow_lite/third_party/flatbuffers/include/flatbuffers\flatbuffers.h ****  public:
 390:C:/Renesas/e2studio_2021_01_workspace_RZA2M_ANPR/ANPR_RZA2M_GR_MANGO/src/tensorflow_lite/third_party/flatbuffers/include/flatbuffers\flatbuffers.h ****   uoffset_t size() const { return EndianScalar(length_); }
 391:C:/Renesas/e2studio_2021_01_workspace_RZA2M_ANPR/ANPR_RZA2M_GR_MANGO/src/tensorflow_lite/third_party/flatbuffers/include/flatbuffers\flatbuffers.h **** 
 392:C:/Renesas/e2studio_2021_01_workspace_RZA2M_ANPR/ANPR_RZA2M_GR_MANGO/src/tensorflow_lite/third_party/flatbuffers/include/flatbuffers\flatbuffers.h ****   const uint8_t *Data() const {
 393:C:/Renesas/e2studio_2021_01_workspace_RZA2M_ANPR/ANPR_RZA2M_GR_MANGO/src/tensorflow_lite/third_party/flatbuffers/include/flatbuffers\flatbuffers.h ****     return reinterpret_cast<const uint8_t *>(&length_ + 1);
 394:C:/Renesas/e2studio_2021_01_workspace_RZA2M_ANPR/ANPR_RZA2M_GR_MANGO/src/tensorflow_lite/third_party/flatbuffers/include/flatbuffers\flatbuffers.h ****   }
 395:C:/Renesas/e2studio_2021_01_workspace_RZA2M_ANPR/ANPR_RZA2M_GR_MANGO/src/tensorflow_lite/third_party/flatbuffers/include/flatbuffers\flatbuffers.h ****   uint8_t *Data() { return reinterpret_cast<uint8_t *>(&length_ + 1); }
 396:C:/Renesas/e2studio_2021_01_workspace_RZA2M_ANPR/ANPR_RZA2M_GR_MANGO/src/tensorflow_lite/third_party/flatbuffers/include/flatbuffers\flatbuffers.h **** 
 397:C:/Renesas/e2studio_2021_01_workspace_RZA2M_ANPR/ANPR_RZA2M_GR_MANGO/src/tensorflow_lite/third_party/flatbuffers/include/flatbuffers\flatbuffers.h ****  protected:
 398:C:/Renesas/e2studio_2021_01_workspace_RZA2M_ANPR/ANPR_RZA2M_GR_MANGO/src/tensorflow_lite/third_party/flatbuffers/include/flatbuffers\flatbuffers.h ****   VectorOfAny();
 399:C:/Renesas/e2studio_2021_01_workspace_RZA2M_ANPR/ANPR_RZA2M_GR_MANGO/src/tensorflow_lite/third_party/flatbuffers/include/flatbuffers\flatbuffers.h **** 
 400:C:/Renesas/e2studio_2021_01_workspace_RZA2M_ANPR/ANPR_RZA2M_GR_MANGO/src/tensorflow_lite/third_party/flatbuffers/include/flatbuffers\flatbuffers.h ****   uoffset_t length_;
 401:C:/Renesas/e2studio_2021_01_workspace_RZA2M_ANPR/ANPR_RZA2M_GR_MANGO/src/tensorflow_lite/third_party/flatbuffers/include/flatbuffers\flatbuffers.h **** 
 402:C:/Renesas/e2studio_2021_01_workspace_RZA2M_ANPR/ANPR_RZA2M_GR_MANGO/src/tensorflow_lite/third_party/flatbuffers/include/flatbuffers\flatbuffers.h ****  private:
 403:C:/Renesas/e2studio_2021_01_workspace_RZA2M_ANPR/ANPR_RZA2M_GR_MANGO/src/tensorflow_lite/third_party/flatbuffers/include/flatbuffers\flatbuffers.h ****   VectorOfAny(const VectorOfAny &);
 404:C:/Renesas/e2studio_2021_01_workspace_RZA2M_ANPR/ANPR_RZA2M_GR_MANGO/src/tensorflow_lite/third_party/flatbuffers/include/flatbuffers\flatbuffers.h ****   VectorOfAny &operator=(const VectorOfAny &);
 405:C:/Renesas/e2studio_2021_01_workspace_RZA2M_ANPR/ANPR_RZA2M_GR_MANGO/src/tensorflow_lite/third_party/flatbuffers/include/flatbuffers\flatbuffers.h **** };
 406:C:/Renesas/e2studio_2021_01_workspace_RZA2M_ANPR/ANPR_RZA2M_GR_MANGO/src/tensorflow_lite/third_party/flatbuffers/include/flatbuffers\flatbuffers.h **** 
 407:C:/Renesas/e2studio_2021_01_workspace_RZA2M_ANPR/ANPR_RZA2M_GR_MANGO/src/tensorflow_lite/third_party/flatbuffers/include/flatbuffers\flatbuffers.h **** #ifndef FLATBUFFERS_CPP98_STL
 408:C:/Renesas/e2studio_2021_01_workspace_RZA2M_ANPR/ANPR_RZA2M_GR_MANGO/src/tensorflow_lite/third_party/flatbuffers/include/flatbuffers\flatbuffers.h **** template<typename T, typename U>
 409:C:/Renesas/e2studio_2021_01_workspace_RZA2M_ANPR/ANPR_RZA2M_GR_MANGO/src/tensorflow_lite/third_party/flatbuffers/include/flatbuffers\flatbuffers.h **** Vector<Offset<T>> *VectorCast(Vector<Offset<U>> *ptr) {
 410:C:/Renesas/e2studio_2021_01_workspace_RZA2M_ANPR/ANPR_RZA2M_GR_MANGO/src/tensorflow_lite/third_party/flatbuffers/include/flatbuffers\flatbuffers.h ****   static_assert(std::is_base_of<T, U>::value, "Unrelated types");
 411:C:/Renesas/e2studio_2021_01_workspace_RZA2M_ANPR/ANPR_RZA2M_GR_MANGO/src/tensorflow_lite/third_party/flatbuffers/include/flatbuffers\flatbuffers.h ****   return reinterpret_cast<Vector<Offset<T>> *>(ptr);
 412:C:/Renesas/e2studio_2021_01_workspace_RZA2M_ANPR/ANPR_RZA2M_GR_MANGO/src/tensorflow_lite/third_party/flatbuffers/include/flatbuffers\flatbuffers.h **** }
 413:C:/Renesas/e2studio_2021_01_workspace_RZA2M_ANPR/ANPR_RZA2M_GR_MANGO/src/tensorflow_lite/third_party/flatbuffers/include/flatbuffers\flatbuffers.h **** 
 414:C:/Renesas/e2studio_2021_01_workspace_RZA2M_ANPR/ANPR_RZA2M_GR_MANGO/src/tensorflow_lite/third_party/flatbuffers/include/flatbuffers\flatbuffers.h **** template<typename T, typename U>
 415:C:/Renesas/e2studio_2021_01_workspace_RZA2M_ANPR/ANPR_RZA2M_GR_MANGO/src/tensorflow_lite/third_party/flatbuffers/include/flatbuffers\flatbuffers.h **** const Vector<Offset<T>> *VectorCast(const Vector<Offset<U>> *ptr) {
 416:C:/Renesas/e2studio_2021_01_workspace_RZA2M_ANPR/ANPR_RZA2M_GR_MANGO/src/tensorflow_lite/third_party/flatbuffers/include/flatbuffers\flatbuffers.h ****   static_assert(std::is_base_of<T, U>::value, "Unrelated types");
 417:C:/Renesas/e2studio_2021_01_workspace_RZA2M_ANPR/ANPR_RZA2M_GR_MANGO/src/tensorflow_lite/third_party/flatbuffers/include/flatbuffers\flatbuffers.h ****   return reinterpret_cast<const Vector<Offset<T>> *>(ptr);
 418:C:/Renesas/e2studio_2021_01_workspace_RZA2M_ANPR/ANPR_RZA2M_GR_MANGO/src/tensorflow_lite/third_party/flatbuffers/include/flatbuffers\flatbuffers.h **** }
 419:C:/Renesas/e2studio_2021_01_workspace_RZA2M_ANPR/ANPR_RZA2M_GR_MANGO/src/tensorflow_lite/third_party/flatbuffers/include/flatbuffers\flatbuffers.h **** #endif
 420:C:/Renesas/e2studio_2021_01_workspace_RZA2M_ANPR/ANPR_RZA2M_GR_MANGO/src/tensorflow_lite/third_party/flatbuffers/include/flatbuffers\flatbuffers.h **** 
 421:C:/Renesas/e2studio_2021_01_workspace_RZA2M_ANPR/ANPR_RZA2M_GR_MANGO/src/tensorflow_lite/third_party/flatbuffers/include/flatbuffers\flatbuffers.h **** // Convenient helper function to get the length of any vector, regardless
 422:C:/Renesas/e2studio_2021_01_workspace_RZA2M_ANPR/ANPR_RZA2M_GR_MANGO/src/tensorflow_lite/third_party/flatbuffers/include/flatbuffers\flatbuffers.h **** // of whether it is null or not (the field is not set).
 423:C:/Renesas/e2studio_2021_01_workspace_RZA2M_ANPR/ANPR_RZA2M_GR_MANGO/src/tensorflow_lite/third_party/flatbuffers/include/flatbuffers\flatbuffers.h **** template<typename T> static inline size_t VectorLength(const Vector<T> *v) {
 424:C:/Renesas/e2studio_2021_01_workspace_RZA2M_ANPR/ANPR_RZA2M_GR_MANGO/src/tensorflow_lite/third_party/flatbuffers/include/flatbuffers\flatbuffers.h ****   return v ? v->size() : 0;
 425:C:/Renesas/e2studio_2021_01_workspace_RZA2M_ANPR/ANPR_RZA2M_GR_MANGO/src/tensorflow_lite/third_party/flatbuffers/include/flatbuffers\flatbuffers.h **** }
 426:C:/Renesas/e2studio_2021_01_workspace_RZA2M_ANPR/ANPR_RZA2M_GR_MANGO/src/tensorflow_lite/third_party/flatbuffers/include/flatbuffers\flatbuffers.h **** 
 427:C:/Renesas/e2studio_2021_01_workspace_RZA2M_ANPR/ANPR_RZA2M_GR_MANGO/src/tensorflow_lite/third_party/flatbuffers/include/flatbuffers\flatbuffers.h **** // This is used as a helper type for accessing arrays.
 428:C:/Renesas/e2studio_2021_01_workspace_RZA2M_ANPR/ANPR_RZA2M_GR_MANGO/src/tensorflow_lite/third_party/flatbuffers/include/flatbuffers\flatbuffers.h **** template<typename T, uint16_t length> class Array {
 429:C:/Renesas/e2studio_2021_01_workspace_RZA2M_ANPR/ANPR_RZA2M_GR_MANGO/src/tensorflow_lite/third_party/flatbuffers/include/flatbuffers\flatbuffers.h ****   typedef
 430:C:/Renesas/e2studio_2021_01_workspace_RZA2M_ANPR/ANPR_RZA2M_GR_MANGO/src/tensorflow_lite/third_party/flatbuffers/include/flatbuffers\flatbuffers.h ****       typename flatbuffers::integral_constant<bool,
 431:C:/Renesas/e2studio_2021_01_workspace_RZA2M_ANPR/ANPR_RZA2M_GR_MANGO/src/tensorflow_lite/third_party/flatbuffers/include/flatbuffers\flatbuffers.h ****                                               flatbuffers::is_scalar<T>::value>
 432:C:/Renesas/e2studio_2021_01_workspace_RZA2M_ANPR/ANPR_RZA2M_GR_MANGO/src/tensorflow_lite/third_party/flatbuffers/include/flatbuffers\flatbuffers.h ****           scalar_tag;
 433:C:/Renesas/e2studio_2021_01_workspace_RZA2M_ANPR/ANPR_RZA2M_GR_MANGO/src/tensorflow_lite/third_party/flatbuffers/include/flatbuffers\flatbuffers.h ****   typedef
 434:C:/Renesas/e2studio_2021_01_workspace_RZA2M_ANPR/ANPR_RZA2M_GR_MANGO/src/tensorflow_lite/third_party/flatbuffers/include/flatbuffers\flatbuffers.h ****       typename flatbuffers::conditional<scalar_tag::value, T, const T *>::type
 435:C:/Renesas/e2studio_2021_01_workspace_RZA2M_ANPR/ANPR_RZA2M_GR_MANGO/src/tensorflow_lite/third_party/flatbuffers/include/flatbuffers\flatbuffers.h ****           IndirectHelperType;
 436:C:/Renesas/e2studio_2021_01_workspace_RZA2M_ANPR/ANPR_RZA2M_GR_MANGO/src/tensorflow_lite/third_party/flatbuffers/include/flatbuffers\flatbuffers.h **** 
 437:C:/Renesas/e2studio_2021_01_workspace_RZA2M_ANPR/ANPR_RZA2M_GR_MANGO/src/tensorflow_lite/third_party/flatbuffers/include/flatbuffers\flatbuffers.h ****  public:
 438:C:/Renesas/e2studio_2021_01_workspace_RZA2M_ANPR/ANPR_RZA2M_GR_MANGO/src/tensorflow_lite/third_party/flatbuffers/include/flatbuffers\flatbuffers.h ****   typedef typename IndirectHelper<IndirectHelperType>::return_type return_type;
 439:C:/Renesas/e2studio_2021_01_workspace_RZA2M_ANPR/ANPR_RZA2M_GR_MANGO/src/tensorflow_lite/third_party/flatbuffers/include/flatbuffers\flatbuffers.h ****   typedef VectorIterator<T, return_type> const_iterator;
 440:C:/Renesas/e2studio_2021_01_workspace_RZA2M_ANPR/ANPR_RZA2M_GR_MANGO/src/tensorflow_lite/third_party/flatbuffers/include/flatbuffers\flatbuffers.h ****   typedef VectorReverseIterator<const_iterator> const_reverse_iterator;
 441:C:/Renesas/e2studio_2021_01_workspace_RZA2M_ANPR/ANPR_RZA2M_GR_MANGO/src/tensorflow_lite/third_party/flatbuffers/include/flatbuffers\flatbuffers.h **** 
 442:C:/Renesas/e2studio_2021_01_workspace_RZA2M_ANPR/ANPR_RZA2M_GR_MANGO/src/tensorflow_lite/third_party/flatbuffers/include/flatbuffers\flatbuffers.h ****   FLATBUFFERS_CONSTEXPR uint16_t size() const { return length; }
 443:C:/Renesas/e2studio_2021_01_workspace_RZA2M_ANPR/ANPR_RZA2M_GR_MANGO/src/tensorflow_lite/third_party/flatbuffers/include/flatbuffers\flatbuffers.h **** 
 444:C:/Renesas/e2studio_2021_01_workspace_RZA2M_ANPR/ANPR_RZA2M_GR_MANGO/src/tensorflow_lite/third_party/flatbuffers/include/flatbuffers\flatbuffers.h ****   return_type Get(uoffset_t i) const {
 445:C:/Renesas/e2studio_2021_01_workspace_RZA2M_ANPR/ANPR_RZA2M_GR_MANGO/src/tensorflow_lite/third_party/flatbuffers/include/flatbuffers\flatbuffers.h ****     FLATBUFFERS_ASSERT(i < size());
 446:C:/Renesas/e2studio_2021_01_workspace_RZA2M_ANPR/ANPR_RZA2M_GR_MANGO/src/tensorflow_lite/third_party/flatbuffers/include/flatbuffers\flatbuffers.h ****     return IndirectHelper<IndirectHelperType>::Read(Data(), i);
 447:C:/Renesas/e2studio_2021_01_workspace_RZA2M_ANPR/ANPR_RZA2M_GR_MANGO/src/tensorflow_lite/third_party/flatbuffers/include/flatbuffers\flatbuffers.h ****   }
 448:C:/Renesas/e2studio_2021_01_workspace_RZA2M_ANPR/ANPR_RZA2M_GR_MANGO/src/tensorflow_lite/third_party/flatbuffers/include/flatbuffers\flatbuffers.h **** 
 449:C:/Renesas/e2studio_2021_01_workspace_RZA2M_ANPR/ANPR_RZA2M_GR_MANGO/src/tensorflow_lite/third_party/flatbuffers/include/flatbuffers\flatbuffers.h ****   return_type operator[](uoffset_t i) const { return Get(i); }
 450:C:/Renesas/e2studio_2021_01_workspace_RZA2M_ANPR/ANPR_RZA2M_GR_MANGO/src/tensorflow_lite/third_party/flatbuffers/include/flatbuffers\flatbuffers.h **** 
 451:C:/Renesas/e2studio_2021_01_workspace_RZA2M_ANPR/ANPR_RZA2M_GR_MANGO/src/tensorflow_lite/third_party/flatbuffers/include/flatbuffers\flatbuffers.h ****   // If this is a Vector of enums, T will be its storage type, not the enum
 452:C:/Renesas/e2studio_2021_01_workspace_RZA2M_ANPR/ANPR_RZA2M_GR_MANGO/src/tensorflow_lite/third_party/flatbuffers/include/flatbuffers\flatbuffers.h ****   // type. This function makes it convenient to retrieve value with enum
 453:C:/Renesas/e2studio_2021_01_workspace_RZA2M_ANPR/ANPR_RZA2M_GR_MANGO/src/tensorflow_lite/third_party/flatbuffers/include/flatbuffers\flatbuffers.h ****   // type E.
 454:C:/Renesas/e2studio_2021_01_workspace_RZA2M_ANPR/ANPR_RZA2M_GR_MANGO/src/tensorflow_lite/third_party/flatbuffers/include/flatbuffers\flatbuffers.h ****   template<typename E> E GetEnum(uoffset_t i) const {
 455:C:/Renesas/e2studio_2021_01_workspace_RZA2M_ANPR/ANPR_RZA2M_GR_MANGO/src/tensorflow_lite/third_party/flatbuffers/include/flatbuffers\flatbuffers.h ****     return static_cast<E>(Get(i));
 456:C:/Renesas/e2studio_2021_01_workspace_RZA2M_ANPR/ANPR_RZA2M_GR_MANGO/src/tensorflow_lite/third_party/flatbuffers/include/flatbuffers\flatbuffers.h ****   }
 457:C:/Renesas/e2studio_2021_01_workspace_RZA2M_ANPR/ANPR_RZA2M_GR_MANGO/src/tensorflow_lite/third_party/flatbuffers/include/flatbuffers\flatbuffers.h **** 
 458:C:/Renesas/e2studio_2021_01_workspace_RZA2M_ANPR/ANPR_RZA2M_GR_MANGO/src/tensorflow_lite/third_party/flatbuffers/include/flatbuffers\flatbuffers.h ****   const_iterator begin() const { return const_iterator(Data(), 0); }
 459:C:/Renesas/e2studio_2021_01_workspace_RZA2M_ANPR/ANPR_RZA2M_GR_MANGO/src/tensorflow_lite/third_party/flatbuffers/include/flatbuffers\flatbuffers.h ****   const_iterator end() const { return const_iterator(Data(), size()); }
 460:C:/Renesas/e2studio_2021_01_workspace_RZA2M_ANPR/ANPR_RZA2M_GR_MANGO/src/tensorflow_lite/third_party/flatbuffers/include/flatbuffers\flatbuffers.h **** 
 461:C:/Renesas/e2studio_2021_01_workspace_RZA2M_ANPR/ANPR_RZA2M_GR_MANGO/src/tensorflow_lite/third_party/flatbuffers/include/flatbuffers\flatbuffers.h ****   const_reverse_iterator rbegin() const {
 462:C:/Renesas/e2studio_2021_01_workspace_RZA2M_ANPR/ANPR_RZA2M_GR_MANGO/src/tensorflow_lite/third_party/flatbuffers/include/flatbuffers\flatbuffers.h ****     return const_reverse_iterator(end());
 463:C:/Renesas/e2studio_2021_01_workspace_RZA2M_ANPR/ANPR_RZA2M_GR_MANGO/src/tensorflow_lite/third_party/flatbuffers/include/flatbuffers\flatbuffers.h ****   }
 464:C:/Renesas/e2studio_2021_01_workspace_RZA2M_ANPR/ANPR_RZA2M_GR_MANGO/src/tensorflow_lite/third_party/flatbuffers/include/flatbuffers\flatbuffers.h ****   const_reverse_iterator rend() const { return const_reverse_iterator(end()); }
 465:C:/Renesas/e2studio_2021_01_workspace_RZA2M_ANPR/ANPR_RZA2M_GR_MANGO/src/tensorflow_lite/third_party/flatbuffers/include/flatbuffers\flatbuffers.h **** 
 466:C:/Renesas/e2studio_2021_01_workspace_RZA2M_ANPR/ANPR_RZA2M_GR_MANGO/src/tensorflow_lite/third_party/flatbuffers/include/flatbuffers\flatbuffers.h ****   const_iterator cbegin() const { return begin(); }
 467:C:/Renesas/e2studio_2021_01_workspace_RZA2M_ANPR/ANPR_RZA2M_GR_MANGO/src/tensorflow_lite/third_party/flatbuffers/include/flatbuffers\flatbuffers.h ****   const_iterator cend() const { return end(); }
 468:C:/Renesas/e2studio_2021_01_workspace_RZA2M_ANPR/ANPR_RZA2M_GR_MANGO/src/tensorflow_lite/third_party/flatbuffers/include/flatbuffers\flatbuffers.h **** 
 469:C:/Renesas/e2studio_2021_01_workspace_RZA2M_ANPR/ANPR_RZA2M_GR_MANGO/src/tensorflow_lite/third_party/flatbuffers/include/flatbuffers\flatbuffers.h ****   const_reverse_iterator crbegin() const { return rbegin(); }
 470:C:/Renesas/e2studio_2021_01_workspace_RZA2M_ANPR/ANPR_RZA2M_GR_MANGO/src/tensorflow_lite/third_party/flatbuffers/include/flatbuffers\flatbuffers.h ****   const_reverse_iterator crend() const { return rend(); }
 471:C:/Renesas/e2studio_2021_01_workspace_RZA2M_ANPR/ANPR_RZA2M_GR_MANGO/src/tensorflow_lite/third_party/flatbuffers/include/flatbuffers\flatbuffers.h **** 
 472:C:/Renesas/e2studio_2021_01_workspace_RZA2M_ANPR/ANPR_RZA2M_GR_MANGO/src/tensorflow_lite/third_party/flatbuffers/include/flatbuffers\flatbuffers.h ****   // Get a mutable pointer to elements inside this array.
 473:C:/Renesas/e2studio_2021_01_workspace_RZA2M_ANPR/ANPR_RZA2M_GR_MANGO/src/tensorflow_lite/third_party/flatbuffers/include/flatbuffers\flatbuffers.h ****   // This method used to mutate arrays of structs followed by a @p Mutate
 474:C:/Renesas/e2studio_2021_01_workspace_RZA2M_ANPR/ANPR_RZA2M_GR_MANGO/src/tensorflow_lite/third_party/flatbuffers/include/flatbuffers\flatbuffers.h ****   // operation. For primitive types use @p Mutate directly.
 475:C:/Renesas/e2studio_2021_01_workspace_RZA2M_ANPR/ANPR_RZA2M_GR_MANGO/src/tensorflow_lite/third_party/flatbuffers/include/flatbuffers\flatbuffers.h ****   // @warning Assignments and reads to/from the dereferenced pointer are not
 476:C:/Renesas/e2studio_2021_01_workspace_RZA2M_ANPR/ANPR_RZA2M_GR_MANGO/src/tensorflow_lite/third_party/flatbuffers/include/flatbuffers\flatbuffers.h ****   //  automatically converted to the correct endianness.
 477:C:/Renesas/e2studio_2021_01_workspace_RZA2M_ANPR/ANPR_RZA2M_GR_MANGO/src/tensorflow_lite/third_party/flatbuffers/include/flatbuffers\flatbuffers.h ****   typename flatbuffers::conditional<scalar_tag::value, void, T *>::type
 478:C:/Renesas/e2studio_2021_01_workspace_RZA2M_ANPR/ANPR_RZA2M_GR_MANGO/src/tensorflow_lite/third_party/flatbuffers/include/flatbuffers\flatbuffers.h ****   GetMutablePointer(uoffset_t i) const {
 479:C:/Renesas/e2studio_2021_01_workspace_RZA2M_ANPR/ANPR_RZA2M_GR_MANGO/src/tensorflow_lite/third_party/flatbuffers/include/flatbuffers\flatbuffers.h ****     FLATBUFFERS_ASSERT(i < size());
 480:C:/Renesas/e2studio_2021_01_workspace_RZA2M_ANPR/ANPR_RZA2M_GR_MANGO/src/tensorflow_lite/third_party/flatbuffers/include/flatbuffers\flatbuffers.h ****     return const_cast<T *>(&data()[i]);
 481:C:/Renesas/e2studio_2021_01_workspace_RZA2M_ANPR/ANPR_RZA2M_GR_MANGO/src/tensorflow_lite/third_party/flatbuffers/include/flatbuffers\flatbuffers.h ****   }
 482:C:/Renesas/e2studio_2021_01_workspace_RZA2M_ANPR/ANPR_RZA2M_GR_MANGO/src/tensorflow_lite/third_party/flatbuffers/include/flatbuffers\flatbuffers.h **** 
 483:C:/Renesas/e2studio_2021_01_workspace_RZA2M_ANPR/ANPR_RZA2M_GR_MANGO/src/tensorflow_lite/third_party/flatbuffers/include/flatbuffers\flatbuffers.h ****   // Change elements if you have a non-const pointer to this object.
 484:C:/Renesas/e2studio_2021_01_workspace_RZA2M_ANPR/ANPR_RZA2M_GR_MANGO/src/tensorflow_lite/third_party/flatbuffers/include/flatbuffers\flatbuffers.h ****   void Mutate(uoffset_t i, const T &val) { MutateImpl(scalar_tag(), i, val); }
 485:C:/Renesas/e2studio_2021_01_workspace_RZA2M_ANPR/ANPR_RZA2M_GR_MANGO/src/tensorflow_lite/third_party/flatbuffers/include/flatbuffers\flatbuffers.h **** 
 486:C:/Renesas/e2studio_2021_01_workspace_RZA2M_ANPR/ANPR_RZA2M_GR_MANGO/src/tensorflow_lite/third_party/flatbuffers/include/flatbuffers\flatbuffers.h ****   // The raw data in little endian format. Use with care.
 487:C:/Renesas/e2studio_2021_01_workspace_RZA2M_ANPR/ANPR_RZA2M_GR_MANGO/src/tensorflow_lite/third_party/flatbuffers/include/flatbuffers\flatbuffers.h ****   const uint8_t *Data() const { return data_; }
 488:C:/Renesas/e2studio_2021_01_workspace_RZA2M_ANPR/ANPR_RZA2M_GR_MANGO/src/tensorflow_lite/third_party/flatbuffers/include/flatbuffers\flatbuffers.h **** 
 489:C:/Renesas/e2studio_2021_01_workspace_RZA2M_ANPR/ANPR_RZA2M_GR_MANGO/src/tensorflow_lite/third_party/flatbuffers/include/flatbuffers\flatbuffers.h ****   uint8_t *Data() { return data_; }
 490:C:/Renesas/e2studio_2021_01_workspace_RZA2M_ANPR/ANPR_RZA2M_GR_MANGO/src/tensorflow_lite/third_party/flatbuffers/include/flatbuffers\flatbuffers.h **** 
 491:C:/Renesas/e2studio_2021_01_workspace_RZA2M_ANPR/ANPR_RZA2M_GR_MANGO/src/tensorflow_lite/third_party/flatbuffers/include/flatbuffers\flatbuffers.h ****   // Similarly, but typed, much like std::vector::data
 492:C:/Renesas/e2studio_2021_01_workspace_RZA2M_ANPR/ANPR_RZA2M_GR_MANGO/src/tensorflow_lite/third_party/flatbuffers/include/flatbuffers\flatbuffers.h ****   const T *data() const { return reinterpret_cast<const T *>(Data()); }
 493:C:/Renesas/e2studio_2021_01_workspace_RZA2M_ANPR/ANPR_RZA2M_GR_MANGO/src/tensorflow_lite/third_party/flatbuffers/include/flatbuffers\flatbuffers.h ****   T *data() { return reinterpret_cast<T *>(Data()); }
 494:C:/Renesas/e2studio_2021_01_workspace_RZA2M_ANPR/ANPR_RZA2M_GR_MANGO/src/tensorflow_lite/third_party/flatbuffers/include/flatbuffers\flatbuffers.h **** 
 495:C:/Renesas/e2studio_2021_01_workspace_RZA2M_ANPR/ANPR_RZA2M_GR_MANGO/src/tensorflow_lite/third_party/flatbuffers/include/flatbuffers\flatbuffers.h ****  protected:
 496:C:/Renesas/e2studio_2021_01_workspace_RZA2M_ANPR/ANPR_RZA2M_GR_MANGO/src/tensorflow_lite/third_party/flatbuffers/include/flatbuffers\flatbuffers.h ****   void MutateImpl(flatbuffers::integral_constant<bool, true>, uoffset_t i,
 497:C:/Renesas/e2studio_2021_01_workspace_RZA2M_ANPR/ANPR_RZA2M_GR_MANGO/src/tensorflow_lite/third_party/flatbuffers/include/flatbuffers\flatbuffers.h ****                   const T &val) {
 498:C:/Renesas/e2studio_2021_01_workspace_RZA2M_ANPR/ANPR_RZA2M_GR_MANGO/src/tensorflow_lite/third_party/flatbuffers/include/flatbuffers\flatbuffers.h ****     FLATBUFFERS_ASSERT(i < size());
 499:C:/Renesas/e2studio_2021_01_workspace_RZA2M_ANPR/ANPR_RZA2M_GR_MANGO/src/tensorflow_lite/third_party/flatbuffers/include/flatbuffers\flatbuffers.h ****     WriteScalar(data() + i, val);
 500:C:/Renesas/e2studio_2021_01_workspace_RZA2M_ANPR/ANPR_RZA2M_GR_MANGO/src/tensorflow_lite/third_party/flatbuffers/include/flatbuffers\flatbuffers.h ****   }
 501:C:/Renesas/e2studio_2021_01_workspace_RZA2M_ANPR/ANPR_RZA2M_GR_MANGO/src/tensorflow_lite/third_party/flatbuffers/include/flatbuffers\flatbuffers.h **** 
 502:C:/Renesas/e2studio_2021_01_workspace_RZA2M_ANPR/ANPR_RZA2M_GR_MANGO/src/tensorflow_lite/third_party/flatbuffers/include/flatbuffers\flatbuffers.h ****   void MutateImpl(flatbuffers::integral_constant<bool, false>, uoffset_t i,
 503:C:/Renesas/e2studio_2021_01_workspace_RZA2M_ANPR/ANPR_RZA2M_GR_MANGO/src/tensorflow_lite/third_party/flatbuffers/include/flatbuffers\flatbuffers.h ****                   const T &val) {
 504:C:/Renesas/e2studio_2021_01_workspace_RZA2M_ANPR/ANPR_RZA2M_GR_MANGO/src/tensorflow_lite/third_party/flatbuffers/include/flatbuffers\flatbuffers.h ****     *(GetMutablePointer(i)) = val;
 505:C:/Renesas/e2studio_2021_01_workspace_RZA2M_ANPR/ANPR_RZA2M_GR_MANGO/src/tensorflow_lite/third_party/flatbuffers/include/flatbuffers\flatbuffers.h ****   }
 506:C:/Renesas/e2studio_2021_01_workspace_RZA2M_ANPR/ANPR_RZA2M_GR_MANGO/src/tensorflow_lite/third_party/flatbuffers/include/flatbuffers\flatbuffers.h **** 
 507:C:/Renesas/e2studio_2021_01_workspace_RZA2M_ANPR/ANPR_RZA2M_GR_MANGO/src/tensorflow_lite/third_party/flatbuffers/include/flatbuffers\flatbuffers.h ****   // This class is only used to access pre-existing data. Don't ever
 508:C:/Renesas/e2studio_2021_01_workspace_RZA2M_ANPR/ANPR_RZA2M_GR_MANGO/src/tensorflow_lite/third_party/flatbuffers/include/flatbuffers\flatbuffers.h ****   // try to construct these manually.
 509:C:/Renesas/e2studio_2021_01_workspace_RZA2M_ANPR/ANPR_RZA2M_GR_MANGO/src/tensorflow_lite/third_party/flatbuffers/include/flatbuffers\flatbuffers.h ****   // 'constexpr' allows us to use 'size()' at compile time.
 510:C:/Renesas/e2studio_2021_01_workspace_RZA2M_ANPR/ANPR_RZA2M_GR_MANGO/src/tensorflow_lite/third_party/flatbuffers/include/flatbuffers\flatbuffers.h ****   // @note Must not use 'FLATBUFFERS_CONSTEXPR' here, as const is not allowed on
 511:C:/Renesas/e2studio_2021_01_workspace_RZA2M_ANPR/ANPR_RZA2M_GR_MANGO/src/tensorflow_lite/third_party/flatbuffers/include/flatbuffers\flatbuffers.h ****   //  a constructor.
 512:C:/Renesas/e2studio_2021_01_workspace_RZA2M_ANPR/ANPR_RZA2M_GR_MANGO/src/tensorflow_lite/third_party/flatbuffers/include/flatbuffers\flatbuffers.h **** #if defined(__cpp_constexpr)
 513:C:/Renesas/e2studio_2021_01_workspace_RZA2M_ANPR/ANPR_RZA2M_GR_MANGO/src/tensorflow_lite/third_party/flatbuffers/include/flatbuffers\flatbuffers.h ****   constexpr Array();
 514:C:/Renesas/e2studio_2021_01_workspace_RZA2M_ANPR/ANPR_RZA2M_GR_MANGO/src/tensorflow_lite/third_party/flatbuffers/include/flatbuffers\flatbuffers.h **** #else
 515:C:/Renesas/e2studio_2021_01_workspace_RZA2M_ANPR/ANPR_RZA2M_GR_MANGO/src/tensorflow_lite/third_party/flatbuffers/include/flatbuffers\flatbuffers.h ****   Array();
 516:C:/Renesas/e2studio_2021_01_workspace_RZA2M_ANPR/ANPR_RZA2M_GR_MANGO/src/tensorflow_lite/third_party/flatbuffers/include/flatbuffers\flatbuffers.h **** #endif
 517:C:/Renesas/e2studio_2021_01_workspace_RZA2M_ANPR/ANPR_RZA2M_GR_MANGO/src/tensorflow_lite/third_party/flatbuffers/include/flatbuffers\flatbuffers.h **** 
 518:C:/Renesas/e2studio_2021_01_workspace_RZA2M_ANPR/ANPR_RZA2M_GR_MANGO/src/tensorflow_lite/third_party/flatbuffers/include/flatbuffers\flatbuffers.h ****   uint8_t data_[length * sizeof(T)];
 519:C:/Renesas/e2studio_2021_01_workspace_RZA2M_ANPR/ANPR_RZA2M_GR_MANGO/src/tensorflow_lite/third_party/flatbuffers/include/flatbuffers\flatbuffers.h **** 
 520:C:/Renesas/e2studio_2021_01_workspace_RZA2M_ANPR/ANPR_RZA2M_GR_MANGO/src/tensorflow_lite/third_party/flatbuffers/include/flatbuffers\flatbuffers.h ****  private:
 521:C:/Renesas/e2studio_2021_01_workspace_RZA2M_ANPR/ANPR_RZA2M_GR_MANGO/src/tensorflow_lite/third_party/flatbuffers/include/flatbuffers\flatbuffers.h ****   // This class is a pointer. Copying will therefore create an invalid object.
 522:C:/Renesas/e2studio_2021_01_workspace_RZA2M_ANPR/ANPR_RZA2M_GR_MANGO/src/tensorflow_lite/third_party/flatbuffers/include/flatbuffers\flatbuffers.h ****   // Private and unimplemented copy constructor.
 523:C:/Renesas/e2studio_2021_01_workspace_RZA2M_ANPR/ANPR_RZA2M_GR_MANGO/src/tensorflow_lite/third_party/flatbuffers/include/flatbuffers\flatbuffers.h ****   Array(const Array &);
 524:C:/Renesas/e2studio_2021_01_workspace_RZA2M_ANPR/ANPR_RZA2M_GR_MANGO/src/tensorflow_lite/third_party/flatbuffers/include/flatbuffers\flatbuffers.h ****   Array &operator=(const Array &);
 525:C:/Renesas/e2studio_2021_01_workspace_RZA2M_ANPR/ANPR_RZA2M_GR_MANGO/src/tensorflow_lite/third_party/flatbuffers/include/flatbuffers\flatbuffers.h **** };
 526:C:/Renesas/e2studio_2021_01_workspace_RZA2M_ANPR/ANPR_RZA2M_GR_MANGO/src/tensorflow_lite/third_party/flatbuffers/include/flatbuffers\flatbuffers.h **** 
 527:C:/Renesas/e2studio_2021_01_workspace_RZA2M_ANPR/ANPR_RZA2M_GR_MANGO/src/tensorflow_lite/third_party/flatbuffers/include/flatbuffers\flatbuffers.h **** // Specialization for Array[struct] with access using Offset<void> pointer.
 528:C:/Renesas/e2studio_2021_01_workspace_RZA2M_ANPR/ANPR_RZA2M_GR_MANGO/src/tensorflow_lite/third_party/flatbuffers/include/flatbuffers\flatbuffers.h **** // This specialization used by idl_gen_text.cpp.
 529:C:/Renesas/e2studio_2021_01_workspace_RZA2M_ANPR/ANPR_RZA2M_GR_MANGO/src/tensorflow_lite/third_party/flatbuffers/include/flatbuffers\flatbuffers.h **** template<typename T, uint16_t length> class Array<Offset<T>, length> {
 530:C:/Renesas/e2studio_2021_01_workspace_RZA2M_ANPR/ANPR_RZA2M_GR_MANGO/src/tensorflow_lite/third_party/flatbuffers/include/flatbuffers\flatbuffers.h ****   static_assert(flatbuffers::is_same<T, void>::value, "unexpected type T");
 531:C:/Renesas/e2studio_2021_01_workspace_RZA2M_ANPR/ANPR_RZA2M_GR_MANGO/src/tensorflow_lite/third_party/flatbuffers/include/flatbuffers\flatbuffers.h **** 
 532:C:/Renesas/e2studio_2021_01_workspace_RZA2M_ANPR/ANPR_RZA2M_GR_MANGO/src/tensorflow_lite/third_party/flatbuffers/include/flatbuffers\flatbuffers.h ****  public:
 533:C:/Renesas/e2studio_2021_01_workspace_RZA2M_ANPR/ANPR_RZA2M_GR_MANGO/src/tensorflow_lite/third_party/flatbuffers/include/flatbuffers\flatbuffers.h ****   typedef const void *return_type;
 534:C:/Renesas/e2studio_2021_01_workspace_RZA2M_ANPR/ANPR_RZA2M_GR_MANGO/src/tensorflow_lite/third_party/flatbuffers/include/flatbuffers\flatbuffers.h **** 
 535:C:/Renesas/e2studio_2021_01_workspace_RZA2M_ANPR/ANPR_RZA2M_GR_MANGO/src/tensorflow_lite/third_party/flatbuffers/include/flatbuffers\flatbuffers.h ****   const uint8_t *Data() const { return data_; }
 536:C:/Renesas/e2studio_2021_01_workspace_RZA2M_ANPR/ANPR_RZA2M_GR_MANGO/src/tensorflow_lite/third_party/flatbuffers/include/flatbuffers\flatbuffers.h **** 
 537:C:/Renesas/e2studio_2021_01_workspace_RZA2M_ANPR/ANPR_RZA2M_GR_MANGO/src/tensorflow_lite/third_party/flatbuffers/include/flatbuffers\flatbuffers.h ****   // Make idl_gen_text.cpp::PrintContainer happy.
 538:C:/Renesas/e2studio_2021_01_workspace_RZA2M_ANPR/ANPR_RZA2M_GR_MANGO/src/tensorflow_lite/third_party/flatbuffers/include/flatbuffers\flatbuffers.h ****   return_type operator[](uoffset_t) const {
 539:C:/Renesas/e2studio_2021_01_workspace_RZA2M_ANPR/ANPR_RZA2M_GR_MANGO/src/tensorflow_lite/third_party/flatbuffers/include/flatbuffers\flatbuffers.h ****     FLATBUFFERS_ASSERT(false);
 540:C:/Renesas/e2studio_2021_01_workspace_RZA2M_ANPR/ANPR_RZA2M_GR_MANGO/src/tensorflow_lite/third_party/flatbuffers/include/flatbuffers\flatbuffers.h ****     return nullptr;
 541:C:/Renesas/e2studio_2021_01_workspace_RZA2M_ANPR/ANPR_RZA2M_GR_MANGO/src/tensorflow_lite/third_party/flatbuffers/include/flatbuffers\flatbuffers.h ****   }
 542:C:/Renesas/e2studio_2021_01_workspace_RZA2M_ANPR/ANPR_RZA2M_GR_MANGO/src/tensorflow_lite/third_party/flatbuffers/include/flatbuffers\flatbuffers.h **** 
 543:C:/Renesas/e2studio_2021_01_workspace_RZA2M_ANPR/ANPR_RZA2M_GR_MANGO/src/tensorflow_lite/third_party/flatbuffers/include/flatbuffers\flatbuffers.h ****  private:
 544:C:/Renesas/e2studio_2021_01_workspace_RZA2M_ANPR/ANPR_RZA2M_GR_MANGO/src/tensorflow_lite/third_party/flatbuffers/include/flatbuffers\flatbuffers.h ****   // This class is only used to access pre-existing data.
 545:C:/Renesas/e2studio_2021_01_workspace_RZA2M_ANPR/ANPR_RZA2M_GR_MANGO/src/tensorflow_lite/third_party/flatbuffers/include/flatbuffers\flatbuffers.h ****   Array();
 546:C:/Renesas/e2studio_2021_01_workspace_RZA2M_ANPR/ANPR_RZA2M_GR_MANGO/src/tensorflow_lite/third_party/flatbuffers/include/flatbuffers\flatbuffers.h ****   Array(const Array &);
 547:C:/Renesas/e2studio_2021_01_workspace_RZA2M_ANPR/ANPR_RZA2M_GR_MANGO/src/tensorflow_lite/third_party/flatbuffers/include/flatbuffers\flatbuffers.h ****   Array &operator=(const Array &);
 548:C:/Renesas/e2studio_2021_01_workspace_RZA2M_ANPR/ANPR_RZA2M_GR_MANGO/src/tensorflow_lite/third_party/flatbuffers/include/flatbuffers\flatbuffers.h **** 
 549:C:/Renesas/e2studio_2021_01_workspace_RZA2M_ANPR/ANPR_RZA2M_GR_MANGO/src/tensorflow_lite/third_party/flatbuffers/include/flatbuffers\flatbuffers.h ****   uint8_t data_[1];
 550:C:/Renesas/e2studio_2021_01_workspace_RZA2M_ANPR/ANPR_RZA2M_GR_MANGO/src/tensorflow_lite/third_party/flatbuffers/include/flatbuffers\flatbuffers.h **** };
 551:C:/Renesas/e2studio_2021_01_workspace_RZA2M_ANPR/ANPR_RZA2M_GR_MANGO/src/tensorflow_lite/third_party/flatbuffers/include/flatbuffers\flatbuffers.h **** 
 552:C:/Renesas/e2studio_2021_01_workspace_RZA2M_ANPR/ANPR_RZA2M_GR_MANGO/src/tensorflow_lite/third_party/flatbuffers/include/flatbuffers\flatbuffers.h **** // Lexicographically compare two strings (possibly containing nulls), and
 553:C:/Renesas/e2studio_2021_01_workspace_RZA2M_ANPR/ANPR_RZA2M_GR_MANGO/src/tensorflow_lite/third_party/flatbuffers/include/flatbuffers\flatbuffers.h **** // return true if the first is less than the second.
 554:C:/Renesas/e2studio_2021_01_workspace_RZA2M_ANPR/ANPR_RZA2M_GR_MANGO/src/tensorflow_lite/third_party/flatbuffers/include/flatbuffers\flatbuffers.h **** static inline bool StringLessThan(const char *a_data, uoffset_t a_size,
 555:C:/Renesas/e2studio_2021_01_workspace_RZA2M_ANPR/ANPR_RZA2M_GR_MANGO/src/tensorflow_lite/third_party/flatbuffers/include/flatbuffers\flatbuffers.h ****                                   const char *b_data, uoffset_t b_size) {
 556:C:/Renesas/e2studio_2021_01_workspace_RZA2M_ANPR/ANPR_RZA2M_GR_MANGO/src/tensorflow_lite/third_party/flatbuffers/include/flatbuffers\flatbuffers.h ****   const auto cmp = memcmp(a_data, b_data, (std::min)(a_size, b_size));
 557:C:/Renesas/e2studio_2021_01_workspace_RZA2M_ANPR/ANPR_RZA2M_GR_MANGO/src/tensorflow_lite/third_party/flatbuffers/include/flatbuffers\flatbuffers.h ****   return cmp == 0 ? a_size < b_size : cmp < 0;
 558:C:/Renesas/e2studio_2021_01_workspace_RZA2M_ANPR/ANPR_RZA2M_GR_MANGO/src/tensorflow_lite/third_party/flatbuffers/include/flatbuffers\flatbuffers.h **** }
 559:C:/Renesas/e2studio_2021_01_workspace_RZA2M_ANPR/ANPR_RZA2M_GR_MANGO/src/tensorflow_lite/third_party/flatbuffers/include/flatbuffers\flatbuffers.h **** 
 560:C:/Renesas/e2studio_2021_01_workspace_RZA2M_ANPR/ANPR_RZA2M_GR_MANGO/src/tensorflow_lite/third_party/flatbuffers/include/flatbuffers\flatbuffers.h **** struct String : public Vector<char> {
 561:C:/Renesas/e2studio_2021_01_workspace_RZA2M_ANPR/ANPR_RZA2M_GR_MANGO/src/tensorflow_lite/third_party/flatbuffers/include/flatbuffers\flatbuffers.h ****   const char *c_str() const { return reinterpret_cast<const char *>(Data()); }
 562:C:/Renesas/e2studio_2021_01_workspace_RZA2M_ANPR/ANPR_RZA2M_GR_MANGO/src/tensorflow_lite/third_party/flatbuffers/include/flatbuffers\flatbuffers.h ****   std::string str() const { return std::string(c_str(), size()); }
 563:C:/Renesas/e2studio_2021_01_workspace_RZA2M_ANPR/ANPR_RZA2M_GR_MANGO/src/tensorflow_lite/third_party/flatbuffers/include/flatbuffers\flatbuffers.h **** 
 564:C:/Renesas/e2studio_2021_01_workspace_RZA2M_ANPR/ANPR_RZA2M_GR_MANGO/src/tensorflow_lite/third_party/flatbuffers/include/flatbuffers\flatbuffers.h ****   // clang-format off
 565:C:/Renesas/e2studio_2021_01_workspace_RZA2M_ANPR/ANPR_RZA2M_GR_MANGO/src/tensorflow_lite/third_party/flatbuffers/include/flatbuffers\flatbuffers.h ****   #ifdef FLATBUFFERS_HAS_STRING_VIEW
 566:C:/Renesas/e2studio_2021_01_workspace_RZA2M_ANPR/ANPR_RZA2M_GR_MANGO/src/tensorflow_lite/third_party/flatbuffers/include/flatbuffers\flatbuffers.h ****   flatbuffers::string_view string_view() const {
 567:C:/Renesas/e2studio_2021_01_workspace_RZA2M_ANPR/ANPR_RZA2M_GR_MANGO/src/tensorflow_lite/third_party/flatbuffers/include/flatbuffers\flatbuffers.h ****     return flatbuffers::string_view(c_str(), size());
 568:C:/Renesas/e2studio_2021_01_workspace_RZA2M_ANPR/ANPR_RZA2M_GR_MANGO/src/tensorflow_lite/third_party/flatbuffers/include/flatbuffers\flatbuffers.h ****   }
 569:C:/Renesas/e2studio_2021_01_workspace_RZA2M_ANPR/ANPR_RZA2M_GR_MANGO/src/tensorflow_lite/third_party/flatbuffers/include/flatbuffers\flatbuffers.h ****   #endif // FLATBUFFERS_HAS_STRING_VIEW
 570:C:/Renesas/e2studio_2021_01_workspace_RZA2M_ANPR/ANPR_RZA2M_GR_MANGO/src/tensorflow_lite/third_party/flatbuffers/include/flatbuffers\flatbuffers.h ****   // clang-format on
 571:C:/Renesas/e2studio_2021_01_workspace_RZA2M_ANPR/ANPR_RZA2M_GR_MANGO/src/tensorflow_lite/third_party/flatbuffers/include/flatbuffers\flatbuffers.h **** 
 572:C:/Renesas/e2studio_2021_01_workspace_RZA2M_ANPR/ANPR_RZA2M_GR_MANGO/src/tensorflow_lite/third_party/flatbuffers/include/flatbuffers\flatbuffers.h ****   bool operator<(const String &o) const {
 573:C:/Renesas/e2studio_2021_01_workspace_RZA2M_ANPR/ANPR_RZA2M_GR_MANGO/src/tensorflow_lite/third_party/flatbuffers/include/flatbuffers\flatbuffers.h ****     return StringLessThan(this->data(), this->size(), o.data(), o.size());
 574:C:/Renesas/e2studio_2021_01_workspace_RZA2M_ANPR/ANPR_RZA2M_GR_MANGO/src/tensorflow_lite/third_party/flatbuffers/include/flatbuffers\flatbuffers.h ****   }
 575:C:/Renesas/e2studio_2021_01_workspace_RZA2M_ANPR/ANPR_RZA2M_GR_MANGO/src/tensorflow_lite/third_party/flatbuffers/include/flatbuffers\flatbuffers.h **** };
 576:C:/Renesas/e2studio_2021_01_workspace_RZA2M_ANPR/ANPR_RZA2M_GR_MANGO/src/tensorflow_lite/third_party/flatbuffers/include/flatbuffers\flatbuffers.h **** 
 577:C:/Renesas/e2studio_2021_01_workspace_RZA2M_ANPR/ANPR_RZA2M_GR_MANGO/src/tensorflow_lite/third_party/flatbuffers/include/flatbuffers\flatbuffers.h **** // Convenience function to get std::string from a String returning an empty
 578:C:/Renesas/e2studio_2021_01_workspace_RZA2M_ANPR/ANPR_RZA2M_GR_MANGO/src/tensorflow_lite/third_party/flatbuffers/include/flatbuffers\flatbuffers.h **** // string on null pointer.
 579:C:/Renesas/e2studio_2021_01_workspace_RZA2M_ANPR/ANPR_RZA2M_GR_MANGO/src/tensorflow_lite/third_party/flatbuffers/include/flatbuffers\flatbuffers.h **** static inline std::string GetString(const String *str) {
 580:C:/Renesas/e2studio_2021_01_workspace_RZA2M_ANPR/ANPR_RZA2M_GR_MANGO/src/tensorflow_lite/third_party/flatbuffers/include/flatbuffers\flatbuffers.h ****   return str ? str->str() : "";
 581:C:/Renesas/e2studio_2021_01_workspace_RZA2M_ANPR/ANPR_RZA2M_GR_MANGO/src/tensorflow_lite/third_party/flatbuffers/include/flatbuffers\flatbuffers.h **** }
 582:C:/Renesas/e2studio_2021_01_workspace_RZA2M_ANPR/ANPR_RZA2M_GR_MANGO/src/tensorflow_lite/third_party/flatbuffers/include/flatbuffers\flatbuffers.h **** 
 583:C:/Renesas/e2studio_2021_01_workspace_RZA2M_ANPR/ANPR_RZA2M_GR_MANGO/src/tensorflow_lite/third_party/flatbuffers/include/flatbuffers\flatbuffers.h **** // Convenience function to get char* from a String returning an empty string on
 584:C:/Renesas/e2studio_2021_01_workspace_RZA2M_ANPR/ANPR_RZA2M_GR_MANGO/src/tensorflow_lite/third_party/flatbuffers/include/flatbuffers\flatbuffers.h **** // null pointer.
 585:C:/Renesas/e2studio_2021_01_workspace_RZA2M_ANPR/ANPR_RZA2M_GR_MANGO/src/tensorflow_lite/third_party/flatbuffers/include/flatbuffers\flatbuffers.h **** static inline const char *GetCstring(const String *str) {
 586:C:/Renesas/e2studio_2021_01_workspace_RZA2M_ANPR/ANPR_RZA2M_GR_MANGO/src/tensorflow_lite/third_party/flatbuffers/include/flatbuffers\flatbuffers.h ****   return str ? str->c_str() : "";
 587:C:/Renesas/e2studio_2021_01_workspace_RZA2M_ANPR/ANPR_RZA2M_GR_MANGO/src/tensorflow_lite/third_party/flatbuffers/include/flatbuffers\flatbuffers.h **** }
 588:C:/Renesas/e2studio_2021_01_workspace_RZA2M_ANPR/ANPR_RZA2M_GR_MANGO/src/tensorflow_lite/third_party/flatbuffers/include/flatbuffers\flatbuffers.h **** 
 589:C:/Renesas/e2studio_2021_01_workspace_RZA2M_ANPR/ANPR_RZA2M_GR_MANGO/src/tensorflow_lite/third_party/flatbuffers/include/flatbuffers\flatbuffers.h **** #ifdef FLATBUFFERS_HAS_STRING_VIEW
 590:C:/Renesas/e2studio_2021_01_workspace_RZA2M_ANPR/ANPR_RZA2M_GR_MANGO/src/tensorflow_lite/third_party/flatbuffers/include/flatbuffers\flatbuffers.h **** // Convenience function to get string_view from a String returning an empty
 591:C:/Renesas/e2studio_2021_01_workspace_RZA2M_ANPR/ANPR_RZA2M_GR_MANGO/src/tensorflow_lite/third_party/flatbuffers/include/flatbuffers\flatbuffers.h **** // string_view on null pointer.
 592:C:/Renesas/e2studio_2021_01_workspace_RZA2M_ANPR/ANPR_RZA2M_GR_MANGO/src/tensorflow_lite/third_party/flatbuffers/include/flatbuffers\flatbuffers.h **** static inline flatbuffers::string_view GetStringView(const String *str) {
 593:C:/Renesas/e2studio_2021_01_workspace_RZA2M_ANPR/ANPR_RZA2M_GR_MANGO/src/tensorflow_lite/third_party/flatbuffers/include/flatbuffers\flatbuffers.h ****   return str ? str->string_view() : flatbuffers::string_view();
 594:C:/Renesas/e2studio_2021_01_workspace_RZA2M_ANPR/ANPR_RZA2M_GR_MANGO/src/tensorflow_lite/third_party/flatbuffers/include/flatbuffers\flatbuffers.h **** }
 595:C:/Renesas/e2studio_2021_01_workspace_RZA2M_ANPR/ANPR_RZA2M_GR_MANGO/src/tensorflow_lite/third_party/flatbuffers/include/flatbuffers\flatbuffers.h **** #endif  // FLATBUFFERS_HAS_STRING_VIEW
 596:C:/Renesas/e2studio_2021_01_workspace_RZA2M_ANPR/ANPR_RZA2M_GR_MANGO/src/tensorflow_lite/third_party/flatbuffers/include/flatbuffers\flatbuffers.h **** 
 597:C:/Renesas/e2studio_2021_01_workspace_RZA2M_ANPR/ANPR_RZA2M_GR_MANGO/src/tensorflow_lite/third_party/flatbuffers/include/flatbuffers\flatbuffers.h **** // Allocator interface. This is flatbuffers-specific and meant only for
 598:C:/Renesas/e2studio_2021_01_workspace_RZA2M_ANPR/ANPR_RZA2M_GR_MANGO/src/tensorflow_lite/third_party/flatbuffers/include/flatbuffers\flatbuffers.h **** // `vector_downward` usage.
 599:C:/Renesas/e2studio_2021_01_workspace_RZA2M_ANPR/ANPR_RZA2M_GR_MANGO/src/tensorflow_lite/third_party/flatbuffers/include/flatbuffers\flatbuffers.h **** class Allocator {
 600:C:/Renesas/e2studio_2021_01_workspace_RZA2M_ANPR/ANPR_RZA2M_GR_MANGO/src/tensorflow_lite/third_party/flatbuffers/include/flatbuffers\flatbuffers.h ****  public:
 601:C:/Renesas/e2studio_2021_01_workspace_RZA2M_ANPR/ANPR_RZA2M_GR_MANGO/src/tensorflow_lite/third_party/flatbuffers/include/flatbuffers\flatbuffers.h ****   virtual ~Allocator() {}
 602:C:/Renesas/e2studio_2021_01_workspace_RZA2M_ANPR/ANPR_RZA2M_GR_MANGO/src/tensorflow_lite/third_party/flatbuffers/include/flatbuffers\flatbuffers.h **** 
 603:C:/Renesas/e2studio_2021_01_workspace_RZA2M_ANPR/ANPR_RZA2M_GR_MANGO/src/tensorflow_lite/third_party/flatbuffers/include/flatbuffers\flatbuffers.h ****   // Allocate `size` bytes of memory.
 604:C:/Renesas/e2studio_2021_01_workspace_RZA2M_ANPR/ANPR_RZA2M_GR_MANGO/src/tensorflow_lite/third_party/flatbuffers/include/flatbuffers\flatbuffers.h ****   virtual uint8_t *allocate(size_t size) = 0;
 605:C:/Renesas/e2studio_2021_01_workspace_RZA2M_ANPR/ANPR_RZA2M_GR_MANGO/src/tensorflow_lite/third_party/flatbuffers/include/flatbuffers\flatbuffers.h **** 
 606:C:/Renesas/e2studio_2021_01_workspace_RZA2M_ANPR/ANPR_RZA2M_GR_MANGO/src/tensorflow_lite/third_party/flatbuffers/include/flatbuffers\flatbuffers.h ****   // Deallocate `size` bytes of memory at `p` allocated by this allocator.
 607:C:/Renesas/e2studio_2021_01_workspace_RZA2M_ANPR/ANPR_RZA2M_GR_MANGO/src/tensorflow_lite/third_party/flatbuffers/include/flatbuffers\flatbuffers.h ****   virtual void deallocate(uint8_t *p, size_t size) = 0;
 608:C:/Renesas/e2studio_2021_01_workspace_RZA2M_ANPR/ANPR_RZA2M_GR_MANGO/src/tensorflow_lite/third_party/flatbuffers/include/flatbuffers\flatbuffers.h **** 
 609:C:/Renesas/e2studio_2021_01_workspace_RZA2M_ANPR/ANPR_RZA2M_GR_MANGO/src/tensorflow_lite/third_party/flatbuffers/include/flatbuffers\flatbuffers.h ****   // Reallocate `new_size` bytes of memory, replacing the old region of size
 610:C:/Renesas/e2studio_2021_01_workspace_RZA2M_ANPR/ANPR_RZA2M_GR_MANGO/src/tensorflow_lite/third_party/flatbuffers/include/flatbuffers\flatbuffers.h ****   // `old_size` at `p`. In contrast to a normal realloc, this grows downwards,
 611:C:/Renesas/e2studio_2021_01_workspace_RZA2M_ANPR/ANPR_RZA2M_GR_MANGO/src/tensorflow_lite/third_party/flatbuffers/include/flatbuffers\flatbuffers.h ****   // and is intended specifcally for `vector_downward` use.
 612:C:/Renesas/e2studio_2021_01_workspace_RZA2M_ANPR/ANPR_RZA2M_GR_MANGO/src/tensorflow_lite/third_party/flatbuffers/include/flatbuffers\flatbuffers.h ****   // `in_use_back` and `in_use_front` indicate how much of `old_size` is
 613:C:/Renesas/e2studio_2021_01_workspace_RZA2M_ANPR/ANPR_RZA2M_GR_MANGO/src/tensorflow_lite/third_party/flatbuffers/include/flatbuffers\flatbuffers.h ****   // actually in use at each end, and needs to be copied.
 614:C:/Renesas/e2studio_2021_01_workspace_RZA2M_ANPR/ANPR_RZA2M_GR_MANGO/src/tensorflow_lite/third_party/flatbuffers/include/flatbuffers\flatbuffers.h ****   virtual uint8_t *reallocate_downward(uint8_t *old_p, size_t old_size,
 615:C:/Renesas/e2studio_2021_01_workspace_RZA2M_ANPR/ANPR_RZA2M_GR_MANGO/src/tensorflow_lite/third_party/flatbuffers/include/flatbuffers\flatbuffers.h ****                                        size_t new_size, size_t in_use_back,
 616:C:/Renesas/e2studio_2021_01_workspace_RZA2M_ANPR/ANPR_RZA2M_GR_MANGO/src/tensorflow_lite/third_party/flatbuffers/include/flatbuffers\flatbuffers.h ****                                        size_t in_use_front) {
 617:C:/Renesas/e2studio_2021_01_workspace_RZA2M_ANPR/ANPR_RZA2M_GR_MANGO/src/tensorflow_lite/third_party/flatbuffers/include/flatbuffers\flatbuffers.h ****     FLATBUFFERS_ASSERT(new_size > old_size);  // vector_downward only grows
 618:C:/Renesas/e2studio_2021_01_workspace_RZA2M_ANPR/ANPR_RZA2M_GR_MANGO/src/tensorflow_lite/third_party/flatbuffers/include/flatbuffers\flatbuffers.h ****     uint8_t *new_p = allocate(new_size);
 619:C:/Renesas/e2studio_2021_01_workspace_RZA2M_ANPR/ANPR_RZA2M_GR_MANGO/src/tensorflow_lite/third_party/flatbuffers/include/flatbuffers\flatbuffers.h ****     memcpy_downward(old_p, old_size, new_p, new_size, in_use_back,
 620:C:/Renesas/e2studio_2021_01_workspace_RZA2M_ANPR/ANPR_RZA2M_GR_MANGO/src/tensorflow_lite/third_party/flatbuffers/include/flatbuffers\flatbuffers.h ****                     in_use_front);
 621:C:/Renesas/e2studio_2021_01_workspace_RZA2M_ANPR/ANPR_RZA2M_GR_MANGO/src/tensorflow_lite/third_party/flatbuffers/include/flatbuffers\flatbuffers.h ****     deallocate(old_p, old_size);
 622:C:/Renesas/e2studio_2021_01_workspace_RZA2M_ANPR/ANPR_RZA2M_GR_MANGO/src/tensorflow_lite/third_party/flatbuffers/include/flatbuffers\flatbuffers.h ****     return new_p;
 623:C:/Renesas/e2studio_2021_01_workspace_RZA2M_ANPR/ANPR_RZA2M_GR_MANGO/src/tensorflow_lite/third_party/flatbuffers/include/flatbuffers\flatbuffers.h ****   }
 624:C:/Renesas/e2studio_2021_01_workspace_RZA2M_ANPR/ANPR_RZA2M_GR_MANGO/src/tensorflow_lite/third_party/flatbuffers/include/flatbuffers\flatbuffers.h **** 
 625:C:/Renesas/e2studio_2021_01_workspace_RZA2M_ANPR/ANPR_RZA2M_GR_MANGO/src/tensorflow_lite/third_party/flatbuffers/include/flatbuffers\flatbuffers.h ****  protected:
 626:C:/Renesas/e2studio_2021_01_workspace_RZA2M_ANPR/ANPR_RZA2M_GR_MANGO/src/tensorflow_lite/third_party/flatbuffers/include/flatbuffers\flatbuffers.h ****   // Called by `reallocate_downward` to copy memory from `old_p` of `old_size`
 627:C:/Renesas/e2studio_2021_01_workspace_RZA2M_ANPR/ANPR_RZA2M_GR_MANGO/src/tensorflow_lite/third_party/flatbuffers/include/flatbuffers\flatbuffers.h ****   // to `new_p` of `new_size`. Only memory of size `in_use_front` and
 628:C:/Renesas/e2studio_2021_01_workspace_RZA2M_ANPR/ANPR_RZA2M_GR_MANGO/src/tensorflow_lite/third_party/flatbuffers/include/flatbuffers\flatbuffers.h ****   // `in_use_back` will be copied from the front and back of the old memory
 629:C:/Renesas/e2studio_2021_01_workspace_RZA2M_ANPR/ANPR_RZA2M_GR_MANGO/src/tensorflow_lite/third_party/flatbuffers/include/flatbuffers\flatbuffers.h ****   // allocation.
 630:C:/Renesas/e2studio_2021_01_workspace_RZA2M_ANPR/ANPR_RZA2M_GR_MANGO/src/tensorflow_lite/third_party/flatbuffers/include/flatbuffers\flatbuffers.h ****   void memcpy_downward(uint8_t *old_p, size_t old_size, uint8_t *new_p,
 631:C:/Renesas/e2studio_2021_01_workspace_RZA2M_ANPR/ANPR_RZA2M_GR_MANGO/src/tensorflow_lite/third_party/flatbuffers/include/flatbuffers\flatbuffers.h ****                        size_t new_size, size_t in_use_back,
 632:C:/Renesas/e2studio_2021_01_workspace_RZA2M_ANPR/ANPR_RZA2M_GR_MANGO/src/tensorflow_lite/third_party/flatbuffers/include/flatbuffers\flatbuffers.h ****                        size_t in_use_front) {
 633:C:/Renesas/e2studio_2021_01_workspace_RZA2M_ANPR/ANPR_RZA2M_GR_MANGO/src/tensorflow_lite/third_party/flatbuffers/include/flatbuffers\flatbuffers.h ****     memcpy(new_p + new_size - in_use_back, old_p + old_size - in_use_back,
 634:C:/Renesas/e2studio_2021_01_workspace_RZA2M_ANPR/ANPR_RZA2M_GR_MANGO/src/tensorflow_lite/third_party/flatbuffers/include/flatbuffers\flatbuffers.h ****            in_use_back);
 635:C:/Renesas/e2studio_2021_01_workspace_RZA2M_ANPR/ANPR_RZA2M_GR_MANGO/src/tensorflow_lite/third_party/flatbuffers/include/flatbuffers\flatbuffers.h ****     memcpy(new_p, old_p, in_use_front);
 636:C:/Renesas/e2studio_2021_01_workspace_RZA2M_ANPR/ANPR_RZA2M_GR_MANGO/src/tensorflow_lite/third_party/flatbuffers/include/flatbuffers\flatbuffers.h ****   }
 637:C:/Renesas/e2studio_2021_01_workspace_RZA2M_ANPR/ANPR_RZA2M_GR_MANGO/src/tensorflow_lite/third_party/flatbuffers/include/flatbuffers\flatbuffers.h **** };
 638:C:/Renesas/e2studio_2021_01_workspace_RZA2M_ANPR/ANPR_RZA2M_GR_MANGO/src/tensorflow_lite/third_party/flatbuffers/include/flatbuffers\flatbuffers.h **** 
 639:C:/Renesas/e2studio_2021_01_workspace_RZA2M_ANPR/ANPR_RZA2M_GR_MANGO/src/tensorflow_lite/third_party/flatbuffers/include/flatbuffers\flatbuffers.h **** // DefaultAllocator uses new/delete to allocate memory regions
 640:C:/Renesas/e2studio_2021_01_workspace_RZA2M_ANPR/ANPR_RZA2M_GR_MANGO/src/tensorflow_lite/third_party/flatbuffers/include/flatbuffers\flatbuffers.h **** class DefaultAllocator : public Allocator {
 641:C:/Renesas/e2studio_2021_01_workspace_RZA2M_ANPR/ANPR_RZA2M_GR_MANGO/src/tensorflow_lite/third_party/flatbuffers/include/flatbuffers\flatbuffers.h ****  public:
 642:C:/Renesas/e2studio_2021_01_workspace_RZA2M_ANPR/ANPR_RZA2M_GR_MANGO/src/tensorflow_lite/third_party/flatbuffers/include/flatbuffers\flatbuffers.h ****   uint8_t *allocate(size_t size) FLATBUFFERS_OVERRIDE {
 643:C:/Renesas/e2studio_2021_01_workspace_RZA2M_ANPR/ANPR_RZA2M_GR_MANGO/src/tensorflow_lite/third_party/flatbuffers/include/flatbuffers\flatbuffers.h ****     return new uint8_t[size];
 644:C:/Renesas/e2studio_2021_01_workspace_RZA2M_ANPR/ANPR_RZA2M_GR_MANGO/src/tensorflow_lite/third_party/flatbuffers/include/flatbuffers\flatbuffers.h ****   }
 645:C:/Renesas/e2studio_2021_01_workspace_RZA2M_ANPR/ANPR_RZA2M_GR_MANGO/src/tensorflow_lite/third_party/flatbuffers/include/flatbuffers\flatbuffers.h **** 
 646:C:/Renesas/e2studio_2021_01_workspace_RZA2M_ANPR/ANPR_RZA2M_GR_MANGO/src/tensorflow_lite/third_party/flatbuffers/include/flatbuffers\flatbuffers.h ****   void deallocate(uint8_t *p, size_t) FLATBUFFERS_OVERRIDE { delete[] p; }
 647:C:/Renesas/e2studio_2021_01_workspace_RZA2M_ANPR/ANPR_RZA2M_GR_MANGO/src/tensorflow_lite/third_party/flatbuffers/include/flatbuffers\flatbuffers.h **** 
 648:C:/Renesas/e2studio_2021_01_workspace_RZA2M_ANPR/ANPR_RZA2M_GR_MANGO/src/tensorflow_lite/third_party/flatbuffers/include/flatbuffers\flatbuffers.h ****   static void dealloc(void *p, size_t) { delete[] static_cast<uint8_t *>(p); }
 649:C:/Renesas/e2studio_2021_01_workspace_RZA2M_ANPR/ANPR_RZA2M_GR_MANGO/src/tensorflow_lite/third_party/flatbuffers/include/flatbuffers\flatbuffers.h **** };
 650:C:/Renesas/e2studio_2021_01_workspace_RZA2M_ANPR/ANPR_RZA2M_GR_MANGO/src/tensorflow_lite/third_party/flatbuffers/include/flatbuffers\flatbuffers.h **** 
 651:C:/Renesas/e2studio_2021_01_workspace_RZA2M_ANPR/ANPR_RZA2M_GR_MANGO/src/tensorflow_lite/third_party/flatbuffers/include/flatbuffers\flatbuffers.h **** // These functions allow for a null allocator to mean use the default allocator,
 652:C:/Renesas/e2studio_2021_01_workspace_RZA2M_ANPR/ANPR_RZA2M_GR_MANGO/src/tensorflow_lite/third_party/flatbuffers/include/flatbuffers\flatbuffers.h **** // as used by DetachedBuffer and vector_downward below.
 653:C:/Renesas/e2studio_2021_01_workspace_RZA2M_ANPR/ANPR_RZA2M_GR_MANGO/src/tensorflow_lite/third_party/flatbuffers/include/flatbuffers\flatbuffers.h **** // This is to avoid having a statically or dynamically allocated default
 654:C:/Renesas/e2studio_2021_01_workspace_RZA2M_ANPR/ANPR_RZA2M_GR_MANGO/src/tensorflow_lite/third_party/flatbuffers/include/flatbuffers\flatbuffers.h **** // allocator, or having to move it between the classes that may own it.
 655:C:/Renesas/e2studio_2021_01_workspace_RZA2M_ANPR/ANPR_RZA2M_GR_MANGO/src/tensorflow_lite/third_party/flatbuffers/include/flatbuffers\flatbuffers.h **** inline uint8_t *Allocate(Allocator *allocator, size_t size) {
 656:C:/Renesas/e2studio_2021_01_workspace_RZA2M_ANPR/ANPR_RZA2M_GR_MANGO/src/tensorflow_lite/third_party/flatbuffers/include/flatbuffers\flatbuffers.h ****   return allocator ? allocator->allocate(size)
 657:C:/Renesas/e2studio_2021_01_workspace_RZA2M_ANPR/ANPR_RZA2M_GR_MANGO/src/tensorflow_lite/third_party/flatbuffers/include/flatbuffers\flatbuffers.h ****                    : DefaultAllocator().allocate(size);
 658:C:/Renesas/e2studio_2021_01_workspace_RZA2M_ANPR/ANPR_RZA2M_GR_MANGO/src/tensorflow_lite/third_party/flatbuffers/include/flatbuffers\flatbuffers.h **** }
 659:C:/Renesas/e2studio_2021_01_workspace_RZA2M_ANPR/ANPR_RZA2M_GR_MANGO/src/tensorflow_lite/third_party/flatbuffers/include/flatbuffers\flatbuffers.h **** 
 660:C:/Renesas/e2studio_2021_01_workspace_RZA2M_ANPR/ANPR_RZA2M_GR_MANGO/src/tensorflow_lite/third_party/flatbuffers/include/flatbuffers\flatbuffers.h **** inline void Deallocate(Allocator *allocator, uint8_t *p, size_t size) {
 661:C:/Renesas/e2studio_2021_01_workspace_RZA2M_ANPR/ANPR_RZA2M_GR_MANGO/src/tensorflow_lite/third_party/flatbuffers/include/flatbuffers\flatbuffers.h ****   if (allocator)
 662:C:/Renesas/e2studio_2021_01_workspace_RZA2M_ANPR/ANPR_RZA2M_GR_MANGO/src/tensorflow_lite/third_party/flatbuffers/include/flatbuffers\flatbuffers.h ****     allocator->deallocate(p, size);
 663:C:/Renesas/e2studio_2021_01_workspace_RZA2M_ANPR/ANPR_RZA2M_GR_MANGO/src/tensorflow_lite/third_party/flatbuffers/include/flatbuffers\flatbuffers.h ****   else
 664:C:/Renesas/e2studio_2021_01_workspace_RZA2M_ANPR/ANPR_RZA2M_GR_MANGO/src/tensorflow_lite/third_party/flatbuffers/include/flatbuffers\flatbuffers.h ****     DefaultAllocator().deallocate(p, size);
 665:C:/Renesas/e2studio_2021_01_workspace_RZA2M_ANPR/ANPR_RZA2M_GR_MANGO/src/tensorflow_lite/third_party/flatbuffers/include/flatbuffers\flatbuffers.h **** }
 666:C:/Renesas/e2studio_2021_01_workspace_RZA2M_ANPR/ANPR_RZA2M_GR_MANGO/src/tensorflow_lite/third_party/flatbuffers/include/flatbuffers\flatbuffers.h **** 
 667:C:/Renesas/e2studio_2021_01_workspace_RZA2M_ANPR/ANPR_RZA2M_GR_MANGO/src/tensorflow_lite/third_party/flatbuffers/include/flatbuffers\flatbuffers.h **** inline uint8_t *ReallocateDownward(Allocator *allocator, uint8_t *old_p,
 668:C:/Renesas/e2studio_2021_01_workspace_RZA2M_ANPR/ANPR_RZA2M_GR_MANGO/src/tensorflow_lite/third_party/flatbuffers/include/flatbuffers\flatbuffers.h ****                                    size_t old_size, size_t new_size,
 669:C:/Renesas/e2studio_2021_01_workspace_RZA2M_ANPR/ANPR_RZA2M_GR_MANGO/src/tensorflow_lite/third_party/flatbuffers/include/flatbuffers\flatbuffers.h ****                                    size_t in_use_back, size_t in_use_front) {
 670:C:/Renesas/e2studio_2021_01_workspace_RZA2M_ANPR/ANPR_RZA2M_GR_MANGO/src/tensorflow_lite/third_party/flatbuffers/include/flatbuffers\flatbuffers.h ****   return allocator ? allocator->reallocate_downward(old_p, old_size, new_size,
 671:C:/Renesas/e2studio_2021_01_workspace_RZA2M_ANPR/ANPR_RZA2M_GR_MANGO/src/tensorflow_lite/third_party/flatbuffers/include/flatbuffers\flatbuffers.h ****                                                     in_use_back, in_use_front)
 672:C:/Renesas/e2studio_2021_01_workspace_RZA2M_ANPR/ANPR_RZA2M_GR_MANGO/src/tensorflow_lite/third_party/flatbuffers/include/flatbuffers\flatbuffers.h ****                    : DefaultAllocator().reallocate_downward(
 673:C:/Renesas/e2studio_2021_01_workspace_RZA2M_ANPR/ANPR_RZA2M_GR_MANGO/src/tensorflow_lite/third_party/flatbuffers/include/flatbuffers\flatbuffers.h ****                          old_p, old_size, new_size, in_use_back, in_use_front);
 674:C:/Renesas/e2studio_2021_01_workspace_RZA2M_ANPR/ANPR_RZA2M_GR_MANGO/src/tensorflow_lite/third_party/flatbuffers/include/flatbuffers\flatbuffers.h **** }
 675:C:/Renesas/e2studio_2021_01_workspace_RZA2M_ANPR/ANPR_RZA2M_GR_MANGO/src/tensorflow_lite/third_party/flatbuffers/include/flatbuffers\flatbuffers.h **** 
 676:C:/Renesas/e2studio_2021_01_workspace_RZA2M_ANPR/ANPR_RZA2M_GR_MANGO/src/tensorflow_lite/third_party/flatbuffers/include/flatbuffers\flatbuffers.h **** // DetachedBuffer is a finished flatbuffer memory region, detached from its
 677:C:/Renesas/e2studio_2021_01_workspace_RZA2M_ANPR/ANPR_RZA2M_GR_MANGO/src/tensorflow_lite/third_party/flatbuffers/include/flatbuffers\flatbuffers.h **** // builder. The original memory region and allocator are also stored so that
 678:C:/Renesas/e2studio_2021_01_workspace_RZA2M_ANPR/ANPR_RZA2M_GR_MANGO/src/tensorflow_lite/third_party/flatbuffers/include/flatbuffers\flatbuffers.h **** // the DetachedBuffer can manage the memory lifetime.
 679:C:/Renesas/e2studio_2021_01_workspace_RZA2M_ANPR/ANPR_RZA2M_GR_MANGO/src/tensorflow_lite/third_party/flatbuffers/include/flatbuffers\flatbuffers.h **** class DetachedBuffer {
 680:C:/Renesas/e2studio_2021_01_workspace_RZA2M_ANPR/ANPR_RZA2M_GR_MANGO/src/tensorflow_lite/third_party/flatbuffers/include/flatbuffers\flatbuffers.h ****  public:
 681:C:/Renesas/e2studio_2021_01_workspace_RZA2M_ANPR/ANPR_RZA2M_GR_MANGO/src/tensorflow_lite/third_party/flatbuffers/include/flatbuffers\flatbuffers.h ****   DetachedBuffer()
 682:C:/Renesas/e2studio_2021_01_workspace_RZA2M_ANPR/ANPR_RZA2M_GR_MANGO/src/tensorflow_lite/third_party/flatbuffers/include/flatbuffers\flatbuffers.h ****       : allocator_(nullptr),
 683:C:/Renesas/e2studio_2021_01_workspace_RZA2M_ANPR/ANPR_RZA2M_GR_MANGO/src/tensorflow_lite/third_party/flatbuffers/include/flatbuffers\flatbuffers.h ****         own_allocator_(false),
 684:C:/Renesas/e2studio_2021_01_workspace_RZA2M_ANPR/ANPR_RZA2M_GR_MANGO/src/tensorflow_lite/third_party/flatbuffers/include/flatbuffers\flatbuffers.h ****         buf_(nullptr),
 685:C:/Renesas/e2studio_2021_01_workspace_RZA2M_ANPR/ANPR_RZA2M_GR_MANGO/src/tensorflow_lite/third_party/flatbuffers/include/flatbuffers\flatbuffers.h ****         reserved_(0),
 686:C:/Renesas/e2studio_2021_01_workspace_RZA2M_ANPR/ANPR_RZA2M_GR_MANGO/src/tensorflow_lite/third_party/flatbuffers/include/flatbuffers\flatbuffers.h ****         cur_(nullptr),
 687:C:/Renesas/e2studio_2021_01_workspace_RZA2M_ANPR/ANPR_RZA2M_GR_MANGO/src/tensorflow_lite/third_party/flatbuffers/include/flatbuffers\flatbuffers.h ****         size_(0) {}
 688:C:/Renesas/e2studio_2021_01_workspace_RZA2M_ANPR/ANPR_RZA2M_GR_MANGO/src/tensorflow_lite/third_party/flatbuffers/include/flatbuffers\flatbuffers.h **** 
 689:C:/Renesas/e2studio_2021_01_workspace_RZA2M_ANPR/ANPR_RZA2M_GR_MANGO/src/tensorflow_lite/third_party/flatbuffers/include/flatbuffers\flatbuffers.h ****   DetachedBuffer(Allocator *allocator, bool own_allocator, uint8_t *buf,
 690:C:/Renesas/e2studio_2021_01_workspace_RZA2M_ANPR/ANPR_RZA2M_GR_MANGO/src/tensorflow_lite/third_party/flatbuffers/include/flatbuffers\flatbuffers.h ****                  size_t reserved, uint8_t *cur, size_t sz)
 691:C:/Renesas/e2studio_2021_01_workspace_RZA2M_ANPR/ANPR_RZA2M_GR_MANGO/src/tensorflow_lite/third_party/flatbuffers/include/flatbuffers\flatbuffers.h ****       : allocator_(allocator),
 692:C:/Renesas/e2studio_2021_01_workspace_RZA2M_ANPR/ANPR_RZA2M_GR_MANGO/src/tensorflow_lite/third_party/flatbuffers/include/flatbuffers\flatbuffers.h ****         own_allocator_(own_allocator),
 693:C:/Renesas/e2studio_2021_01_workspace_RZA2M_ANPR/ANPR_RZA2M_GR_MANGO/src/tensorflow_lite/third_party/flatbuffers/include/flatbuffers\flatbuffers.h ****         buf_(buf),
 694:C:/Renesas/e2studio_2021_01_workspace_RZA2M_ANPR/ANPR_RZA2M_GR_MANGO/src/tensorflow_lite/third_party/flatbuffers/include/flatbuffers\flatbuffers.h ****         reserved_(reserved),
 695:C:/Renesas/e2studio_2021_01_workspace_RZA2M_ANPR/ANPR_RZA2M_GR_MANGO/src/tensorflow_lite/third_party/flatbuffers/include/flatbuffers\flatbuffers.h ****         cur_(cur),
 696:C:/Renesas/e2studio_2021_01_workspace_RZA2M_ANPR/ANPR_RZA2M_GR_MANGO/src/tensorflow_lite/third_party/flatbuffers/include/flatbuffers\flatbuffers.h ****         size_(sz) {}
 697:C:/Renesas/e2studio_2021_01_workspace_RZA2M_ANPR/ANPR_RZA2M_GR_MANGO/src/tensorflow_lite/third_party/flatbuffers/include/flatbuffers\flatbuffers.h **** 
 698:C:/Renesas/e2studio_2021_01_workspace_RZA2M_ANPR/ANPR_RZA2M_GR_MANGO/src/tensorflow_lite/third_party/flatbuffers/include/flatbuffers\flatbuffers.h ****   // clang-format off
 699:C:/Renesas/e2studio_2021_01_workspace_RZA2M_ANPR/ANPR_RZA2M_GR_MANGO/src/tensorflow_lite/third_party/flatbuffers/include/flatbuffers\flatbuffers.h ****   #if !defined(FLATBUFFERS_CPP98_STL)
 700:C:/Renesas/e2studio_2021_01_workspace_RZA2M_ANPR/ANPR_RZA2M_GR_MANGO/src/tensorflow_lite/third_party/flatbuffers/include/flatbuffers\flatbuffers.h ****   // clang-format on
 701:C:/Renesas/e2studio_2021_01_workspace_RZA2M_ANPR/ANPR_RZA2M_GR_MANGO/src/tensorflow_lite/third_party/flatbuffers/include/flatbuffers\flatbuffers.h ****   DetachedBuffer(DetachedBuffer &&other)
 702:C:/Renesas/e2studio_2021_01_workspace_RZA2M_ANPR/ANPR_RZA2M_GR_MANGO/src/tensorflow_lite/third_party/flatbuffers/include/flatbuffers\flatbuffers.h ****       : allocator_(other.allocator_),
 703:C:/Renesas/e2studio_2021_01_workspace_RZA2M_ANPR/ANPR_RZA2M_GR_MANGO/src/tensorflow_lite/third_party/flatbuffers/include/flatbuffers\flatbuffers.h ****         own_allocator_(other.own_allocator_),
 704:C:/Renesas/e2studio_2021_01_workspace_RZA2M_ANPR/ANPR_RZA2M_GR_MANGO/src/tensorflow_lite/third_party/flatbuffers/include/flatbuffers\flatbuffers.h ****         buf_(other.buf_),
 705:C:/Renesas/e2studio_2021_01_workspace_RZA2M_ANPR/ANPR_RZA2M_GR_MANGO/src/tensorflow_lite/third_party/flatbuffers/include/flatbuffers\flatbuffers.h ****         reserved_(other.reserved_),
 706:C:/Renesas/e2studio_2021_01_workspace_RZA2M_ANPR/ANPR_RZA2M_GR_MANGO/src/tensorflow_lite/third_party/flatbuffers/include/flatbuffers\flatbuffers.h ****         cur_(other.cur_),
 707:C:/Renesas/e2studio_2021_01_workspace_RZA2M_ANPR/ANPR_RZA2M_GR_MANGO/src/tensorflow_lite/third_party/flatbuffers/include/flatbuffers\flatbuffers.h ****         size_(other.size_) {
 708:C:/Renesas/e2studio_2021_01_workspace_RZA2M_ANPR/ANPR_RZA2M_GR_MANGO/src/tensorflow_lite/third_party/flatbuffers/include/flatbuffers\flatbuffers.h ****     other.reset();
 709:C:/Renesas/e2studio_2021_01_workspace_RZA2M_ANPR/ANPR_RZA2M_GR_MANGO/src/tensorflow_lite/third_party/flatbuffers/include/flatbuffers\flatbuffers.h ****   }
 710:C:/Renesas/e2studio_2021_01_workspace_RZA2M_ANPR/ANPR_RZA2M_GR_MANGO/src/tensorflow_lite/third_party/flatbuffers/include/flatbuffers\flatbuffers.h ****   // clang-format off
 711:C:/Renesas/e2studio_2021_01_workspace_RZA2M_ANPR/ANPR_RZA2M_GR_MANGO/src/tensorflow_lite/third_party/flatbuffers/include/flatbuffers\flatbuffers.h ****   #endif  // !defined(FLATBUFFERS_CPP98_STL)
 712:C:/Renesas/e2studio_2021_01_workspace_RZA2M_ANPR/ANPR_RZA2M_GR_MANGO/src/tensorflow_lite/third_party/flatbuffers/include/flatbuffers\flatbuffers.h ****   // clang-format on
 713:C:/Renesas/e2studio_2021_01_workspace_RZA2M_ANPR/ANPR_RZA2M_GR_MANGO/src/tensorflow_lite/third_party/flatbuffers/include/flatbuffers\flatbuffers.h **** 
 714:C:/Renesas/e2studio_2021_01_workspace_RZA2M_ANPR/ANPR_RZA2M_GR_MANGO/src/tensorflow_lite/third_party/flatbuffers/include/flatbuffers\flatbuffers.h ****   // clang-format off
 715:C:/Renesas/e2studio_2021_01_workspace_RZA2M_ANPR/ANPR_RZA2M_GR_MANGO/src/tensorflow_lite/third_party/flatbuffers/include/flatbuffers\flatbuffers.h ****   #if !defined(FLATBUFFERS_CPP98_STL)
 716:C:/Renesas/e2studio_2021_01_workspace_RZA2M_ANPR/ANPR_RZA2M_GR_MANGO/src/tensorflow_lite/third_party/flatbuffers/include/flatbuffers\flatbuffers.h ****   // clang-format on
 717:C:/Renesas/e2studio_2021_01_workspace_RZA2M_ANPR/ANPR_RZA2M_GR_MANGO/src/tensorflow_lite/third_party/flatbuffers/include/flatbuffers\flatbuffers.h ****   DetachedBuffer &operator=(DetachedBuffer &&other) {
 718:C:/Renesas/e2studio_2021_01_workspace_RZA2M_ANPR/ANPR_RZA2M_GR_MANGO/src/tensorflow_lite/third_party/flatbuffers/include/flatbuffers\flatbuffers.h ****     if (this == &other) return *this;
 719:C:/Renesas/e2studio_2021_01_workspace_RZA2M_ANPR/ANPR_RZA2M_GR_MANGO/src/tensorflow_lite/third_party/flatbuffers/include/flatbuffers\flatbuffers.h **** 
 720:C:/Renesas/e2studio_2021_01_workspace_RZA2M_ANPR/ANPR_RZA2M_GR_MANGO/src/tensorflow_lite/third_party/flatbuffers/include/flatbuffers\flatbuffers.h ****     destroy();
 721:C:/Renesas/e2studio_2021_01_workspace_RZA2M_ANPR/ANPR_RZA2M_GR_MANGO/src/tensorflow_lite/third_party/flatbuffers/include/flatbuffers\flatbuffers.h **** 
 722:C:/Renesas/e2studio_2021_01_workspace_RZA2M_ANPR/ANPR_RZA2M_GR_MANGO/src/tensorflow_lite/third_party/flatbuffers/include/flatbuffers\flatbuffers.h ****     allocator_ = other.allocator_;
 723:C:/Renesas/e2studio_2021_01_workspace_RZA2M_ANPR/ANPR_RZA2M_GR_MANGO/src/tensorflow_lite/third_party/flatbuffers/include/flatbuffers\flatbuffers.h ****     own_allocator_ = other.own_allocator_;
 724:C:/Renesas/e2studio_2021_01_workspace_RZA2M_ANPR/ANPR_RZA2M_GR_MANGO/src/tensorflow_lite/third_party/flatbuffers/include/flatbuffers\flatbuffers.h ****     buf_ = other.buf_;
 725:C:/Renesas/e2studio_2021_01_workspace_RZA2M_ANPR/ANPR_RZA2M_GR_MANGO/src/tensorflow_lite/third_party/flatbuffers/include/flatbuffers\flatbuffers.h ****     reserved_ = other.reserved_;
 726:C:/Renesas/e2studio_2021_01_workspace_RZA2M_ANPR/ANPR_RZA2M_GR_MANGO/src/tensorflow_lite/third_party/flatbuffers/include/flatbuffers\flatbuffers.h ****     cur_ = other.cur_;
 727:C:/Renesas/e2studio_2021_01_workspace_RZA2M_ANPR/ANPR_RZA2M_GR_MANGO/src/tensorflow_lite/third_party/flatbuffers/include/flatbuffers\flatbuffers.h ****     size_ = other.size_;
 728:C:/Renesas/e2studio_2021_01_workspace_RZA2M_ANPR/ANPR_RZA2M_GR_MANGO/src/tensorflow_lite/third_party/flatbuffers/include/flatbuffers\flatbuffers.h **** 
 729:C:/Renesas/e2studio_2021_01_workspace_RZA2M_ANPR/ANPR_RZA2M_GR_MANGO/src/tensorflow_lite/third_party/flatbuffers/include/flatbuffers\flatbuffers.h ****     other.reset();
 730:C:/Renesas/e2studio_2021_01_workspace_RZA2M_ANPR/ANPR_RZA2M_GR_MANGO/src/tensorflow_lite/third_party/flatbuffers/include/flatbuffers\flatbuffers.h **** 
 731:C:/Renesas/e2studio_2021_01_workspace_RZA2M_ANPR/ANPR_RZA2M_GR_MANGO/src/tensorflow_lite/third_party/flatbuffers/include/flatbuffers\flatbuffers.h ****     return *this;
 732:C:/Renesas/e2studio_2021_01_workspace_RZA2M_ANPR/ANPR_RZA2M_GR_MANGO/src/tensorflow_lite/third_party/flatbuffers/include/flatbuffers\flatbuffers.h ****   }
 733:C:/Renesas/e2studio_2021_01_workspace_RZA2M_ANPR/ANPR_RZA2M_GR_MANGO/src/tensorflow_lite/third_party/flatbuffers/include/flatbuffers\flatbuffers.h ****   // clang-format off
 734:C:/Renesas/e2studio_2021_01_workspace_RZA2M_ANPR/ANPR_RZA2M_GR_MANGO/src/tensorflow_lite/third_party/flatbuffers/include/flatbuffers\flatbuffers.h ****   #endif  // !defined(FLATBUFFERS_CPP98_STL)
 735:C:/Renesas/e2studio_2021_01_workspace_RZA2M_ANPR/ANPR_RZA2M_GR_MANGO/src/tensorflow_lite/third_party/flatbuffers/include/flatbuffers\flatbuffers.h ****   // clang-format on
 736:C:/Renesas/e2studio_2021_01_workspace_RZA2M_ANPR/ANPR_RZA2M_GR_MANGO/src/tensorflow_lite/third_party/flatbuffers/include/flatbuffers\flatbuffers.h **** 
 737:C:/Renesas/e2studio_2021_01_workspace_RZA2M_ANPR/ANPR_RZA2M_GR_MANGO/src/tensorflow_lite/third_party/flatbuffers/include/flatbuffers\flatbuffers.h ****   ~DetachedBuffer() { destroy(); }
 738:C:/Renesas/e2studio_2021_01_workspace_RZA2M_ANPR/ANPR_RZA2M_GR_MANGO/src/tensorflow_lite/third_party/flatbuffers/include/flatbuffers\flatbuffers.h **** 
 739:C:/Renesas/e2studio_2021_01_workspace_RZA2M_ANPR/ANPR_RZA2M_GR_MANGO/src/tensorflow_lite/third_party/flatbuffers/include/flatbuffers\flatbuffers.h ****   const uint8_t *data() const { return cur_; }
 740:C:/Renesas/e2studio_2021_01_workspace_RZA2M_ANPR/ANPR_RZA2M_GR_MANGO/src/tensorflow_lite/third_party/flatbuffers/include/flatbuffers\flatbuffers.h **** 
 741:C:/Renesas/e2studio_2021_01_workspace_RZA2M_ANPR/ANPR_RZA2M_GR_MANGO/src/tensorflow_lite/third_party/flatbuffers/include/flatbuffers\flatbuffers.h ****   uint8_t *data() { return cur_; }
 742:C:/Renesas/e2studio_2021_01_workspace_RZA2M_ANPR/ANPR_RZA2M_GR_MANGO/src/tensorflow_lite/third_party/flatbuffers/include/flatbuffers\flatbuffers.h **** 
 743:C:/Renesas/e2studio_2021_01_workspace_RZA2M_ANPR/ANPR_RZA2M_GR_MANGO/src/tensorflow_lite/third_party/flatbuffers/include/flatbuffers\flatbuffers.h ****   size_t size() const { return size_; }
 744:C:/Renesas/e2studio_2021_01_workspace_RZA2M_ANPR/ANPR_RZA2M_GR_MANGO/src/tensorflow_lite/third_party/flatbuffers/include/flatbuffers\flatbuffers.h **** 
 745:C:/Renesas/e2studio_2021_01_workspace_RZA2M_ANPR/ANPR_RZA2M_GR_MANGO/src/tensorflow_lite/third_party/flatbuffers/include/flatbuffers\flatbuffers.h ****   // clang-format off
 746:C:/Renesas/e2studio_2021_01_workspace_RZA2M_ANPR/ANPR_RZA2M_GR_MANGO/src/tensorflow_lite/third_party/flatbuffers/include/flatbuffers\flatbuffers.h ****   #if 0  // disabled for now due to the ordering of classes in this header
 747:C:/Renesas/e2studio_2021_01_workspace_RZA2M_ANPR/ANPR_RZA2M_GR_MANGO/src/tensorflow_lite/third_party/flatbuffers/include/flatbuffers\flatbuffers.h ****   template <class T>
 748:C:/Renesas/e2studio_2021_01_workspace_RZA2M_ANPR/ANPR_RZA2M_GR_MANGO/src/tensorflow_lite/third_party/flatbuffers/include/flatbuffers\flatbuffers.h ****   bool Verify() const {
 749:C:/Renesas/e2studio_2021_01_workspace_RZA2M_ANPR/ANPR_RZA2M_GR_MANGO/src/tensorflow_lite/third_party/flatbuffers/include/flatbuffers\flatbuffers.h ****     Verifier verifier(data(), size());
 750:C:/Renesas/e2studio_2021_01_workspace_RZA2M_ANPR/ANPR_RZA2M_GR_MANGO/src/tensorflow_lite/third_party/flatbuffers/include/flatbuffers\flatbuffers.h ****     return verifier.Verify<T>(nullptr);
 751:C:/Renesas/e2studio_2021_01_workspace_RZA2M_ANPR/ANPR_RZA2M_GR_MANGO/src/tensorflow_lite/third_party/flatbuffers/include/flatbuffers\flatbuffers.h ****   }
 752:C:/Renesas/e2studio_2021_01_workspace_RZA2M_ANPR/ANPR_RZA2M_GR_MANGO/src/tensorflow_lite/third_party/flatbuffers/include/flatbuffers\flatbuffers.h **** 
 753:C:/Renesas/e2studio_2021_01_workspace_RZA2M_ANPR/ANPR_RZA2M_GR_MANGO/src/tensorflow_lite/third_party/flatbuffers/include/flatbuffers\flatbuffers.h ****   template <class T>
 754:C:/Renesas/e2studio_2021_01_workspace_RZA2M_ANPR/ANPR_RZA2M_GR_MANGO/src/tensorflow_lite/third_party/flatbuffers/include/flatbuffers\flatbuffers.h ****   const T* GetRoot() const {
 755:C:/Renesas/e2studio_2021_01_workspace_RZA2M_ANPR/ANPR_RZA2M_GR_MANGO/src/tensorflow_lite/third_party/flatbuffers/include/flatbuffers\flatbuffers.h ****     return flatbuffers::GetRoot<T>(data());
 756:C:/Renesas/e2studio_2021_01_workspace_RZA2M_ANPR/ANPR_RZA2M_GR_MANGO/src/tensorflow_lite/third_party/flatbuffers/include/flatbuffers\flatbuffers.h ****   }
 757:C:/Renesas/e2studio_2021_01_workspace_RZA2M_ANPR/ANPR_RZA2M_GR_MANGO/src/tensorflow_lite/third_party/flatbuffers/include/flatbuffers\flatbuffers.h **** 
 758:C:/Renesas/e2studio_2021_01_workspace_RZA2M_ANPR/ANPR_RZA2M_GR_MANGO/src/tensorflow_lite/third_party/flatbuffers/include/flatbuffers\flatbuffers.h ****   template <class T>
 759:C:/Renesas/e2studio_2021_01_workspace_RZA2M_ANPR/ANPR_RZA2M_GR_MANGO/src/tensorflow_lite/third_party/flatbuffers/include/flatbuffers\flatbuffers.h ****   T* GetRoot() {
 760:C:/Renesas/e2studio_2021_01_workspace_RZA2M_ANPR/ANPR_RZA2M_GR_MANGO/src/tensorflow_lite/third_party/flatbuffers/include/flatbuffers\flatbuffers.h ****     return flatbuffers::GetRoot<T>(data());
 761:C:/Renesas/e2studio_2021_01_workspace_RZA2M_ANPR/ANPR_RZA2M_GR_MANGO/src/tensorflow_lite/third_party/flatbuffers/include/flatbuffers\flatbuffers.h ****   }
 762:C:/Renesas/e2studio_2021_01_workspace_RZA2M_ANPR/ANPR_RZA2M_GR_MANGO/src/tensorflow_lite/third_party/flatbuffers/include/flatbuffers\flatbuffers.h ****   #endif
 763:C:/Renesas/e2studio_2021_01_workspace_RZA2M_ANPR/ANPR_RZA2M_GR_MANGO/src/tensorflow_lite/third_party/flatbuffers/include/flatbuffers\flatbuffers.h ****   // clang-format on
 764:C:/Renesas/e2studio_2021_01_workspace_RZA2M_ANPR/ANPR_RZA2M_GR_MANGO/src/tensorflow_lite/third_party/flatbuffers/include/flatbuffers\flatbuffers.h **** 
 765:C:/Renesas/e2studio_2021_01_workspace_RZA2M_ANPR/ANPR_RZA2M_GR_MANGO/src/tensorflow_lite/third_party/flatbuffers/include/flatbuffers\flatbuffers.h ****   // clang-format off
 766:C:/Renesas/e2studio_2021_01_workspace_RZA2M_ANPR/ANPR_RZA2M_GR_MANGO/src/tensorflow_lite/third_party/flatbuffers/include/flatbuffers\flatbuffers.h ****   #if !defined(FLATBUFFERS_CPP98_STL)
 767:C:/Renesas/e2studio_2021_01_workspace_RZA2M_ANPR/ANPR_RZA2M_GR_MANGO/src/tensorflow_lite/third_party/flatbuffers/include/flatbuffers\flatbuffers.h ****   // clang-format on
 768:C:/Renesas/e2studio_2021_01_workspace_RZA2M_ANPR/ANPR_RZA2M_GR_MANGO/src/tensorflow_lite/third_party/flatbuffers/include/flatbuffers\flatbuffers.h ****   // These may change access mode, leave these at end of public section
 769:C:/Renesas/e2studio_2021_01_workspace_RZA2M_ANPR/ANPR_RZA2M_GR_MANGO/src/tensorflow_lite/third_party/flatbuffers/include/flatbuffers\flatbuffers.h ****   FLATBUFFERS_DELETE_FUNC(DetachedBuffer(const DetachedBuffer &other))
 770:C:/Renesas/e2studio_2021_01_workspace_RZA2M_ANPR/ANPR_RZA2M_GR_MANGO/src/tensorflow_lite/third_party/flatbuffers/include/flatbuffers\flatbuffers.h ****   FLATBUFFERS_DELETE_FUNC(
 771:C:/Renesas/e2studio_2021_01_workspace_RZA2M_ANPR/ANPR_RZA2M_GR_MANGO/src/tensorflow_lite/third_party/flatbuffers/include/flatbuffers\flatbuffers.h ****       DetachedBuffer &operator=(const DetachedBuffer &other))
 772:C:/Renesas/e2studio_2021_01_workspace_RZA2M_ANPR/ANPR_RZA2M_GR_MANGO/src/tensorflow_lite/third_party/flatbuffers/include/flatbuffers\flatbuffers.h ****   // clang-format off
 773:C:/Renesas/e2studio_2021_01_workspace_RZA2M_ANPR/ANPR_RZA2M_GR_MANGO/src/tensorflow_lite/third_party/flatbuffers/include/flatbuffers\flatbuffers.h ****   #endif  // !defined(FLATBUFFERS_CPP98_STL)
 774:C:/Renesas/e2studio_2021_01_workspace_RZA2M_ANPR/ANPR_RZA2M_GR_MANGO/src/tensorflow_lite/third_party/flatbuffers/include/flatbuffers\flatbuffers.h ****   // clang-format on
 775:C:/Renesas/e2studio_2021_01_workspace_RZA2M_ANPR/ANPR_RZA2M_GR_MANGO/src/tensorflow_lite/third_party/flatbuffers/include/flatbuffers\flatbuffers.h **** 
 776:C:/Renesas/e2studio_2021_01_workspace_RZA2M_ANPR/ANPR_RZA2M_GR_MANGO/src/tensorflow_lite/third_party/flatbuffers/include/flatbuffers\flatbuffers.h ****  protected:
 777:C:/Renesas/e2studio_2021_01_workspace_RZA2M_ANPR/ANPR_RZA2M_GR_MANGO/src/tensorflow_lite/third_party/flatbuffers/include/flatbuffers\flatbuffers.h ****   Allocator *allocator_;
 778:C:/Renesas/e2studio_2021_01_workspace_RZA2M_ANPR/ANPR_RZA2M_GR_MANGO/src/tensorflow_lite/third_party/flatbuffers/include/flatbuffers\flatbuffers.h ****   bool own_allocator_;
 779:C:/Renesas/e2studio_2021_01_workspace_RZA2M_ANPR/ANPR_RZA2M_GR_MANGO/src/tensorflow_lite/third_party/flatbuffers/include/flatbuffers\flatbuffers.h ****   uint8_t *buf_;
 780:C:/Renesas/e2studio_2021_01_workspace_RZA2M_ANPR/ANPR_RZA2M_GR_MANGO/src/tensorflow_lite/third_party/flatbuffers/include/flatbuffers\flatbuffers.h ****   size_t reserved_;
 781:C:/Renesas/e2studio_2021_01_workspace_RZA2M_ANPR/ANPR_RZA2M_GR_MANGO/src/tensorflow_lite/third_party/flatbuffers/include/flatbuffers\flatbuffers.h ****   uint8_t *cur_;
 782:C:/Renesas/e2studio_2021_01_workspace_RZA2M_ANPR/ANPR_RZA2M_GR_MANGO/src/tensorflow_lite/third_party/flatbuffers/include/flatbuffers\flatbuffers.h ****   size_t size_;
 783:C:/Renesas/e2studio_2021_01_workspace_RZA2M_ANPR/ANPR_RZA2M_GR_MANGO/src/tensorflow_lite/third_party/flatbuffers/include/flatbuffers\flatbuffers.h **** 
 784:C:/Renesas/e2studio_2021_01_workspace_RZA2M_ANPR/ANPR_RZA2M_GR_MANGO/src/tensorflow_lite/third_party/flatbuffers/include/flatbuffers\flatbuffers.h ****   inline void destroy() {
 785:C:/Renesas/e2studio_2021_01_workspace_RZA2M_ANPR/ANPR_RZA2M_GR_MANGO/src/tensorflow_lite/third_party/flatbuffers/include/flatbuffers\flatbuffers.h ****     if (buf_) Deallocate(allocator_, buf_, reserved_);
 786:C:/Renesas/e2studio_2021_01_workspace_RZA2M_ANPR/ANPR_RZA2M_GR_MANGO/src/tensorflow_lite/third_party/flatbuffers/include/flatbuffers\flatbuffers.h ****     if (own_allocator_ && allocator_) { delete allocator_; }
 787:C:/Renesas/e2studio_2021_01_workspace_RZA2M_ANPR/ANPR_RZA2M_GR_MANGO/src/tensorflow_lite/third_party/flatbuffers/include/flatbuffers\flatbuffers.h ****     reset();
 788:C:/Renesas/e2studio_2021_01_workspace_RZA2M_ANPR/ANPR_RZA2M_GR_MANGO/src/tensorflow_lite/third_party/flatbuffers/include/flatbuffers\flatbuffers.h ****   }
 789:C:/Renesas/e2studio_2021_01_workspace_RZA2M_ANPR/ANPR_RZA2M_GR_MANGO/src/tensorflow_lite/third_party/flatbuffers/include/flatbuffers\flatbuffers.h **** 
 790:C:/Renesas/e2studio_2021_01_workspace_RZA2M_ANPR/ANPR_RZA2M_GR_MANGO/src/tensorflow_lite/third_party/flatbuffers/include/flatbuffers\flatbuffers.h ****   inline void reset() {
 791:C:/Renesas/e2studio_2021_01_workspace_RZA2M_ANPR/ANPR_RZA2M_GR_MANGO/src/tensorflow_lite/third_party/flatbuffers/include/flatbuffers\flatbuffers.h ****     allocator_ = nullptr;
 792:C:/Renesas/e2studio_2021_01_workspace_RZA2M_ANPR/ANPR_RZA2M_GR_MANGO/src/tensorflow_lite/third_party/flatbuffers/include/flatbuffers\flatbuffers.h ****     own_allocator_ = false;
 793:C:/Renesas/e2studio_2021_01_workspace_RZA2M_ANPR/ANPR_RZA2M_GR_MANGO/src/tensorflow_lite/third_party/flatbuffers/include/flatbuffers\flatbuffers.h ****     buf_ = nullptr;
 794:C:/Renesas/e2studio_2021_01_workspace_RZA2M_ANPR/ANPR_RZA2M_GR_MANGO/src/tensorflow_lite/third_party/flatbuffers/include/flatbuffers\flatbuffers.h ****     reserved_ = 0;
 795:C:/Renesas/e2studio_2021_01_workspace_RZA2M_ANPR/ANPR_RZA2M_GR_MANGO/src/tensorflow_lite/third_party/flatbuffers/include/flatbuffers\flatbuffers.h ****     cur_ = nullptr;
 796:C:/Renesas/e2studio_2021_01_workspace_RZA2M_ANPR/ANPR_RZA2M_GR_MANGO/src/tensorflow_lite/third_party/flatbuffers/include/flatbuffers\flatbuffers.h ****     size_ = 0;
 797:C:/Renesas/e2studio_2021_01_workspace_RZA2M_ANPR/ANPR_RZA2M_GR_MANGO/src/tensorflow_lite/third_party/flatbuffers/include/flatbuffers\flatbuffers.h ****   }
 798:C:/Renesas/e2studio_2021_01_workspace_RZA2M_ANPR/ANPR_RZA2M_GR_MANGO/src/tensorflow_lite/third_party/flatbuffers/include/flatbuffers\flatbuffers.h **** };
 799:C:/Renesas/e2studio_2021_01_workspace_RZA2M_ANPR/ANPR_RZA2M_GR_MANGO/src/tensorflow_lite/third_party/flatbuffers/include/flatbuffers\flatbuffers.h **** 
 800:C:/Renesas/e2studio_2021_01_workspace_RZA2M_ANPR/ANPR_RZA2M_GR_MANGO/src/tensorflow_lite/third_party/flatbuffers/include/flatbuffers\flatbuffers.h **** // This is a minimal replication of std::vector<uint8_t> functionality,
 801:C:/Renesas/e2studio_2021_01_workspace_RZA2M_ANPR/ANPR_RZA2M_GR_MANGO/src/tensorflow_lite/third_party/flatbuffers/include/flatbuffers\flatbuffers.h **** // except growing from higher to lower addresses. i.e push_back() inserts data
 802:C:/Renesas/e2studio_2021_01_workspace_RZA2M_ANPR/ANPR_RZA2M_GR_MANGO/src/tensorflow_lite/third_party/flatbuffers/include/flatbuffers\flatbuffers.h **** // in the lowest address in the vector.
 803:C:/Renesas/e2studio_2021_01_workspace_RZA2M_ANPR/ANPR_RZA2M_GR_MANGO/src/tensorflow_lite/third_party/flatbuffers/include/flatbuffers\flatbuffers.h **** // Since this vector leaves the lower part unused, we support a "scratch-pad"
 804:C:/Renesas/e2studio_2021_01_workspace_RZA2M_ANPR/ANPR_RZA2M_GR_MANGO/src/tensorflow_lite/third_party/flatbuffers/include/flatbuffers\flatbuffers.h **** // that can be stored there for temporary data, to share the allocated space.
 805:C:/Renesas/e2studio_2021_01_workspace_RZA2M_ANPR/ANPR_RZA2M_GR_MANGO/src/tensorflow_lite/third_party/flatbuffers/include/flatbuffers\flatbuffers.h **** // Essentially, this supports 2 std::vectors in a single buffer.
 806:C:/Renesas/e2studio_2021_01_workspace_RZA2M_ANPR/ANPR_RZA2M_GR_MANGO/src/tensorflow_lite/third_party/flatbuffers/include/flatbuffers\flatbuffers.h **** class vector_downward {
 807:C:/Renesas/e2studio_2021_01_workspace_RZA2M_ANPR/ANPR_RZA2M_GR_MANGO/src/tensorflow_lite/third_party/flatbuffers/include/flatbuffers\flatbuffers.h ****  public:
 808:C:/Renesas/e2studio_2021_01_workspace_RZA2M_ANPR/ANPR_RZA2M_GR_MANGO/src/tensorflow_lite/third_party/flatbuffers/include/flatbuffers\flatbuffers.h ****   explicit vector_downward(size_t initial_size, Allocator *allocator,
 809:C:/Renesas/e2studio_2021_01_workspace_RZA2M_ANPR/ANPR_RZA2M_GR_MANGO/src/tensorflow_lite/third_party/flatbuffers/include/flatbuffers\flatbuffers.h ****                            bool own_allocator, size_t buffer_minalign)
 810:C:/Renesas/e2studio_2021_01_workspace_RZA2M_ANPR/ANPR_RZA2M_GR_MANGO/src/tensorflow_lite/third_party/flatbuffers/include/flatbuffers\flatbuffers.h ****       : allocator_(allocator),
 811:C:/Renesas/e2studio_2021_01_workspace_RZA2M_ANPR/ANPR_RZA2M_GR_MANGO/src/tensorflow_lite/third_party/flatbuffers/include/flatbuffers\flatbuffers.h ****         own_allocator_(own_allocator),
 812:C:/Renesas/e2studio_2021_01_workspace_RZA2M_ANPR/ANPR_RZA2M_GR_MANGO/src/tensorflow_lite/third_party/flatbuffers/include/flatbuffers\flatbuffers.h ****         initial_size_(initial_size),
 813:C:/Renesas/e2studio_2021_01_workspace_RZA2M_ANPR/ANPR_RZA2M_GR_MANGO/src/tensorflow_lite/third_party/flatbuffers/include/flatbuffers\flatbuffers.h ****         buffer_minalign_(buffer_minalign),
 814:C:/Renesas/e2studio_2021_01_workspace_RZA2M_ANPR/ANPR_RZA2M_GR_MANGO/src/tensorflow_lite/third_party/flatbuffers/include/flatbuffers\flatbuffers.h ****         reserved_(0),
 815:C:/Renesas/e2studio_2021_01_workspace_RZA2M_ANPR/ANPR_RZA2M_GR_MANGO/src/tensorflow_lite/third_party/flatbuffers/include/flatbuffers\flatbuffers.h ****         buf_(nullptr),
 816:C:/Renesas/e2studio_2021_01_workspace_RZA2M_ANPR/ANPR_RZA2M_GR_MANGO/src/tensorflow_lite/third_party/flatbuffers/include/flatbuffers\flatbuffers.h ****         cur_(nullptr),
 817:C:/Renesas/e2studio_2021_01_workspace_RZA2M_ANPR/ANPR_RZA2M_GR_MANGO/src/tensorflow_lite/third_party/flatbuffers/include/flatbuffers\flatbuffers.h ****         scratch_(nullptr) {}
 818:C:/Renesas/e2studio_2021_01_workspace_RZA2M_ANPR/ANPR_RZA2M_GR_MANGO/src/tensorflow_lite/third_party/flatbuffers/include/flatbuffers\flatbuffers.h **** 
 819:C:/Renesas/e2studio_2021_01_workspace_RZA2M_ANPR/ANPR_RZA2M_GR_MANGO/src/tensorflow_lite/third_party/flatbuffers/include/flatbuffers\flatbuffers.h ****   // clang-format off
 820:C:/Renesas/e2studio_2021_01_workspace_RZA2M_ANPR/ANPR_RZA2M_GR_MANGO/src/tensorflow_lite/third_party/flatbuffers/include/flatbuffers\flatbuffers.h ****   #if !defined(FLATBUFFERS_CPP98_STL)
 821:C:/Renesas/e2studio_2021_01_workspace_RZA2M_ANPR/ANPR_RZA2M_GR_MANGO/src/tensorflow_lite/third_party/flatbuffers/include/flatbuffers\flatbuffers.h ****   vector_downward(vector_downward &&other)
 822:C:/Renesas/e2studio_2021_01_workspace_RZA2M_ANPR/ANPR_RZA2M_GR_MANGO/src/tensorflow_lite/third_party/flatbuffers/include/flatbuffers\flatbuffers.h ****   #else
 823:C:/Renesas/e2studio_2021_01_workspace_RZA2M_ANPR/ANPR_RZA2M_GR_MANGO/src/tensorflow_lite/third_party/flatbuffers/include/flatbuffers\flatbuffers.h ****   vector_downward(vector_downward &other)
 824:C:/Renesas/e2studio_2021_01_workspace_RZA2M_ANPR/ANPR_RZA2M_GR_MANGO/src/tensorflow_lite/third_party/flatbuffers/include/flatbuffers\flatbuffers.h ****   #endif  // defined(FLATBUFFERS_CPP98_STL)
 825:C:/Renesas/e2studio_2021_01_workspace_RZA2M_ANPR/ANPR_RZA2M_GR_MANGO/src/tensorflow_lite/third_party/flatbuffers/include/flatbuffers\flatbuffers.h ****       // clang-format on
 826:C:/Renesas/e2studio_2021_01_workspace_RZA2M_ANPR/ANPR_RZA2M_GR_MANGO/src/tensorflow_lite/third_party/flatbuffers/include/flatbuffers\flatbuffers.h ****       : allocator_(other.allocator_),
 827:C:/Renesas/e2studio_2021_01_workspace_RZA2M_ANPR/ANPR_RZA2M_GR_MANGO/src/tensorflow_lite/third_party/flatbuffers/include/flatbuffers\flatbuffers.h ****         own_allocator_(other.own_allocator_),
 828:C:/Renesas/e2studio_2021_01_workspace_RZA2M_ANPR/ANPR_RZA2M_GR_MANGO/src/tensorflow_lite/third_party/flatbuffers/include/flatbuffers\flatbuffers.h ****         initial_size_(other.initial_size_),
 829:C:/Renesas/e2studio_2021_01_workspace_RZA2M_ANPR/ANPR_RZA2M_GR_MANGO/src/tensorflow_lite/third_party/flatbuffers/include/flatbuffers\flatbuffers.h ****         buffer_minalign_(other.buffer_minalign_),
 830:C:/Renesas/e2studio_2021_01_workspace_RZA2M_ANPR/ANPR_RZA2M_GR_MANGO/src/tensorflow_lite/third_party/flatbuffers/include/flatbuffers\flatbuffers.h ****         reserved_(other.reserved_),
 831:C:/Renesas/e2studio_2021_01_workspace_RZA2M_ANPR/ANPR_RZA2M_GR_MANGO/src/tensorflow_lite/third_party/flatbuffers/include/flatbuffers\flatbuffers.h ****         buf_(other.buf_),
 832:C:/Renesas/e2studio_2021_01_workspace_RZA2M_ANPR/ANPR_RZA2M_GR_MANGO/src/tensorflow_lite/third_party/flatbuffers/include/flatbuffers\flatbuffers.h ****         cur_(other.cur_),
 833:C:/Renesas/e2studio_2021_01_workspace_RZA2M_ANPR/ANPR_RZA2M_GR_MANGO/src/tensorflow_lite/third_party/flatbuffers/include/flatbuffers\flatbuffers.h ****         scratch_(other.scratch_) {
 834:C:/Renesas/e2studio_2021_01_workspace_RZA2M_ANPR/ANPR_RZA2M_GR_MANGO/src/tensorflow_lite/third_party/flatbuffers/include/flatbuffers\flatbuffers.h ****     // No change in other.allocator_
 835:C:/Renesas/e2studio_2021_01_workspace_RZA2M_ANPR/ANPR_RZA2M_GR_MANGO/src/tensorflow_lite/third_party/flatbuffers/include/flatbuffers\flatbuffers.h ****     // No change in other.initial_size_
 836:C:/Renesas/e2studio_2021_01_workspace_RZA2M_ANPR/ANPR_RZA2M_GR_MANGO/src/tensorflow_lite/third_party/flatbuffers/include/flatbuffers\flatbuffers.h ****     // No change in other.buffer_minalign_
 837:C:/Renesas/e2studio_2021_01_workspace_RZA2M_ANPR/ANPR_RZA2M_GR_MANGO/src/tensorflow_lite/third_party/flatbuffers/include/flatbuffers\flatbuffers.h ****     other.own_allocator_ = false;
 838:C:/Renesas/e2studio_2021_01_workspace_RZA2M_ANPR/ANPR_RZA2M_GR_MANGO/src/tensorflow_lite/third_party/flatbuffers/include/flatbuffers\flatbuffers.h ****     other.reserved_ = 0;
 839:C:/Renesas/e2studio_2021_01_workspace_RZA2M_ANPR/ANPR_RZA2M_GR_MANGO/src/tensorflow_lite/third_party/flatbuffers/include/flatbuffers\flatbuffers.h ****     other.buf_ = nullptr;
 840:C:/Renesas/e2studio_2021_01_workspace_RZA2M_ANPR/ANPR_RZA2M_GR_MANGO/src/tensorflow_lite/third_party/flatbuffers/include/flatbuffers\flatbuffers.h ****     other.cur_ = nullptr;
 841:C:/Renesas/e2studio_2021_01_workspace_RZA2M_ANPR/ANPR_RZA2M_GR_MANGO/src/tensorflow_lite/third_party/flatbuffers/include/flatbuffers\flatbuffers.h ****     other.scratch_ = nullptr;
 842:C:/Renesas/e2studio_2021_01_workspace_RZA2M_ANPR/ANPR_RZA2M_GR_MANGO/src/tensorflow_lite/third_party/flatbuffers/include/flatbuffers\flatbuffers.h ****   }
 843:C:/Renesas/e2studio_2021_01_workspace_RZA2M_ANPR/ANPR_RZA2M_GR_MANGO/src/tensorflow_lite/third_party/flatbuffers/include/flatbuffers\flatbuffers.h **** 
 844:C:/Renesas/e2studio_2021_01_workspace_RZA2M_ANPR/ANPR_RZA2M_GR_MANGO/src/tensorflow_lite/third_party/flatbuffers/include/flatbuffers\flatbuffers.h ****   // clang-format off
 845:C:/Renesas/e2studio_2021_01_workspace_RZA2M_ANPR/ANPR_RZA2M_GR_MANGO/src/tensorflow_lite/third_party/flatbuffers/include/flatbuffers\flatbuffers.h ****   #if !defined(FLATBUFFERS_CPP98_STL)
 846:C:/Renesas/e2studio_2021_01_workspace_RZA2M_ANPR/ANPR_RZA2M_GR_MANGO/src/tensorflow_lite/third_party/flatbuffers/include/flatbuffers\flatbuffers.h ****   // clang-format on
 847:C:/Renesas/e2studio_2021_01_workspace_RZA2M_ANPR/ANPR_RZA2M_GR_MANGO/src/tensorflow_lite/third_party/flatbuffers/include/flatbuffers\flatbuffers.h ****   vector_downward &operator=(vector_downward &&other) {
 848:C:/Renesas/e2studio_2021_01_workspace_RZA2M_ANPR/ANPR_RZA2M_GR_MANGO/src/tensorflow_lite/third_party/flatbuffers/include/flatbuffers\flatbuffers.h ****     // Move construct a temporary and swap idiom
 849:C:/Renesas/e2studio_2021_01_workspace_RZA2M_ANPR/ANPR_RZA2M_GR_MANGO/src/tensorflow_lite/third_party/flatbuffers/include/flatbuffers\flatbuffers.h ****     vector_downward temp(std::move(other));
 850:C:/Renesas/e2studio_2021_01_workspace_RZA2M_ANPR/ANPR_RZA2M_GR_MANGO/src/tensorflow_lite/third_party/flatbuffers/include/flatbuffers\flatbuffers.h ****     swap(temp);
 851:C:/Renesas/e2studio_2021_01_workspace_RZA2M_ANPR/ANPR_RZA2M_GR_MANGO/src/tensorflow_lite/third_party/flatbuffers/include/flatbuffers\flatbuffers.h ****     return *this;
 852:C:/Renesas/e2studio_2021_01_workspace_RZA2M_ANPR/ANPR_RZA2M_GR_MANGO/src/tensorflow_lite/third_party/flatbuffers/include/flatbuffers\flatbuffers.h ****   }
 853:C:/Renesas/e2studio_2021_01_workspace_RZA2M_ANPR/ANPR_RZA2M_GR_MANGO/src/tensorflow_lite/third_party/flatbuffers/include/flatbuffers\flatbuffers.h ****   // clang-format off
 854:C:/Renesas/e2studio_2021_01_workspace_RZA2M_ANPR/ANPR_RZA2M_GR_MANGO/src/tensorflow_lite/third_party/flatbuffers/include/flatbuffers\flatbuffers.h ****   #endif  // defined(FLATBUFFERS_CPP98_STL)
 855:C:/Renesas/e2studio_2021_01_workspace_RZA2M_ANPR/ANPR_RZA2M_GR_MANGO/src/tensorflow_lite/third_party/flatbuffers/include/flatbuffers\flatbuffers.h ****   // clang-format on
 856:C:/Renesas/e2studio_2021_01_workspace_RZA2M_ANPR/ANPR_RZA2M_GR_MANGO/src/tensorflow_lite/third_party/flatbuffers/include/flatbuffers\flatbuffers.h **** 
 857:C:/Renesas/e2studio_2021_01_workspace_RZA2M_ANPR/ANPR_RZA2M_GR_MANGO/src/tensorflow_lite/third_party/flatbuffers/include/flatbuffers\flatbuffers.h ****   ~vector_downward() {
 858:C:/Renesas/e2studio_2021_01_workspace_RZA2M_ANPR/ANPR_RZA2M_GR_MANGO/src/tensorflow_lite/third_party/flatbuffers/include/flatbuffers\flatbuffers.h ****     clear_buffer();
 859:C:/Renesas/e2studio_2021_01_workspace_RZA2M_ANPR/ANPR_RZA2M_GR_MANGO/src/tensorflow_lite/third_party/flatbuffers/include/flatbuffers\flatbuffers.h ****     clear_allocator();
 860:C:/Renesas/e2studio_2021_01_workspace_RZA2M_ANPR/ANPR_RZA2M_GR_MANGO/src/tensorflow_lite/third_party/flatbuffers/include/flatbuffers\flatbuffers.h ****   }
 861:C:/Renesas/e2studio_2021_01_workspace_RZA2M_ANPR/ANPR_RZA2M_GR_MANGO/src/tensorflow_lite/third_party/flatbuffers/include/flatbuffers\flatbuffers.h **** 
 862:C:/Renesas/e2studio_2021_01_workspace_RZA2M_ANPR/ANPR_RZA2M_GR_MANGO/src/tensorflow_lite/third_party/flatbuffers/include/flatbuffers\flatbuffers.h ****   void reset() {
 863:C:/Renesas/e2studio_2021_01_workspace_RZA2M_ANPR/ANPR_RZA2M_GR_MANGO/src/tensorflow_lite/third_party/flatbuffers/include/flatbuffers\flatbuffers.h ****     clear_buffer();
 864:C:/Renesas/e2studio_2021_01_workspace_RZA2M_ANPR/ANPR_RZA2M_GR_MANGO/src/tensorflow_lite/third_party/flatbuffers/include/flatbuffers\flatbuffers.h ****     clear();
 865:C:/Renesas/e2studio_2021_01_workspace_RZA2M_ANPR/ANPR_RZA2M_GR_MANGO/src/tensorflow_lite/third_party/flatbuffers/include/flatbuffers\flatbuffers.h ****   }
 866:C:/Renesas/e2studio_2021_01_workspace_RZA2M_ANPR/ANPR_RZA2M_GR_MANGO/src/tensorflow_lite/third_party/flatbuffers/include/flatbuffers\flatbuffers.h **** 
 867:C:/Renesas/e2studio_2021_01_workspace_RZA2M_ANPR/ANPR_RZA2M_GR_MANGO/src/tensorflow_lite/third_party/flatbuffers/include/flatbuffers\flatbuffers.h ****   void clear() {
 868:C:/Renesas/e2studio_2021_01_workspace_RZA2M_ANPR/ANPR_RZA2M_GR_MANGO/src/tensorflow_lite/third_party/flatbuffers/include/flatbuffers\flatbuffers.h ****     if (buf_) {
 869:C:/Renesas/e2studio_2021_01_workspace_RZA2M_ANPR/ANPR_RZA2M_GR_MANGO/src/tensorflow_lite/third_party/flatbuffers/include/flatbuffers\flatbuffers.h ****       cur_ = buf_ + reserved_;
 870:C:/Renesas/e2studio_2021_01_workspace_RZA2M_ANPR/ANPR_RZA2M_GR_MANGO/src/tensorflow_lite/third_party/flatbuffers/include/flatbuffers\flatbuffers.h ****     } else {
 871:C:/Renesas/e2studio_2021_01_workspace_RZA2M_ANPR/ANPR_RZA2M_GR_MANGO/src/tensorflow_lite/third_party/flatbuffers/include/flatbuffers\flatbuffers.h ****       reserved_ = 0;
 872:C:/Renesas/e2studio_2021_01_workspace_RZA2M_ANPR/ANPR_RZA2M_GR_MANGO/src/tensorflow_lite/third_party/flatbuffers/include/flatbuffers\flatbuffers.h ****       cur_ = nullptr;
 873:C:/Renesas/e2studio_2021_01_workspace_RZA2M_ANPR/ANPR_RZA2M_GR_MANGO/src/tensorflow_lite/third_party/flatbuffers/include/flatbuffers\flatbuffers.h ****     }
 874:C:/Renesas/e2studio_2021_01_workspace_RZA2M_ANPR/ANPR_RZA2M_GR_MANGO/src/tensorflow_lite/third_party/flatbuffers/include/flatbuffers\flatbuffers.h ****     clear_scratch();
 875:C:/Renesas/e2studio_2021_01_workspace_RZA2M_ANPR/ANPR_RZA2M_GR_MANGO/src/tensorflow_lite/third_party/flatbuffers/include/flatbuffers\flatbuffers.h ****   }
 876:C:/Renesas/e2studio_2021_01_workspace_RZA2M_ANPR/ANPR_RZA2M_GR_MANGO/src/tensorflow_lite/third_party/flatbuffers/include/flatbuffers\flatbuffers.h **** 
 877:C:/Renesas/e2studio_2021_01_workspace_RZA2M_ANPR/ANPR_RZA2M_GR_MANGO/src/tensorflow_lite/third_party/flatbuffers/include/flatbuffers\flatbuffers.h ****   void clear_scratch() { scratch_ = buf_; }
 878:C:/Renesas/e2studio_2021_01_workspace_RZA2M_ANPR/ANPR_RZA2M_GR_MANGO/src/tensorflow_lite/third_party/flatbuffers/include/flatbuffers\flatbuffers.h **** 
 879:C:/Renesas/e2studio_2021_01_workspace_RZA2M_ANPR/ANPR_RZA2M_GR_MANGO/src/tensorflow_lite/third_party/flatbuffers/include/flatbuffers\flatbuffers.h ****   void clear_allocator() {
 880:C:/Renesas/e2studio_2021_01_workspace_RZA2M_ANPR/ANPR_RZA2M_GR_MANGO/src/tensorflow_lite/third_party/flatbuffers/include/flatbuffers\flatbuffers.h ****     if (own_allocator_ && allocator_) { delete allocator_; }
 881:C:/Renesas/e2studio_2021_01_workspace_RZA2M_ANPR/ANPR_RZA2M_GR_MANGO/src/tensorflow_lite/third_party/flatbuffers/include/flatbuffers\flatbuffers.h ****     allocator_ = nullptr;
 882:C:/Renesas/e2studio_2021_01_workspace_RZA2M_ANPR/ANPR_RZA2M_GR_MANGO/src/tensorflow_lite/third_party/flatbuffers/include/flatbuffers\flatbuffers.h ****     own_allocator_ = false;
 883:C:/Renesas/e2studio_2021_01_workspace_RZA2M_ANPR/ANPR_RZA2M_GR_MANGO/src/tensorflow_lite/third_party/flatbuffers/include/flatbuffers\flatbuffers.h ****   }
 884:C:/Renesas/e2studio_2021_01_workspace_RZA2M_ANPR/ANPR_RZA2M_GR_MANGO/src/tensorflow_lite/third_party/flatbuffers/include/flatbuffers\flatbuffers.h **** 
 885:C:/Renesas/e2studio_2021_01_workspace_RZA2M_ANPR/ANPR_RZA2M_GR_MANGO/src/tensorflow_lite/third_party/flatbuffers/include/flatbuffers\flatbuffers.h ****   void clear_buffer() {
 886:C:/Renesas/e2studio_2021_01_workspace_RZA2M_ANPR/ANPR_RZA2M_GR_MANGO/src/tensorflow_lite/third_party/flatbuffers/include/flatbuffers\flatbuffers.h ****     if (buf_) Deallocate(allocator_, buf_, reserved_);
 887:C:/Renesas/e2studio_2021_01_workspace_RZA2M_ANPR/ANPR_RZA2M_GR_MANGO/src/tensorflow_lite/third_party/flatbuffers/include/flatbuffers\flatbuffers.h ****     buf_ = nullptr;
 888:C:/Renesas/e2studio_2021_01_workspace_RZA2M_ANPR/ANPR_RZA2M_GR_MANGO/src/tensorflow_lite/third_party/flatbuffers/include/flatbuffers\flatbuffers.h ****   }
 889:C:/Renesas/e2studio_2021_01_workspace_RZA2M_ANPR/ANPR_RZA2M_GR_MANGO/src/tensorflow_lite/third_party/flatbuffers/include/flatbuffers\flatbuffers.h **** 
 890:C:/Renesas/e2studio_2021_01_workspace_RZA2M_ANPR/ANPR_RZA2M_GR_MANGO/src/tensorflow_lite/third_party/flatbuffers/include/flatbuffers\flatbuffers.h ****   // Relinquish the pointer to the caller.
 891:C:/Renesas/e2studio_2021_01_workspace_RZA2M_ANPR/ANPR_RZA2M_GR_MANGO/src/tensorflow_lite/third_party/flatbuffers/include/flatbuffers\flatbuffers.h ****   uint8_t *release_raw(size_t &allocated_bytes, size_t &offset) {
 892:C:/Renesas/e2studio_2021_01_workspace_RZA2M_ANPR/ANPR_RZA2M_GR_MANGO/src/tensorflow_lite/third_party/flatbuffers/include/flatbuffers\flatbuffers.h ****     auto *buf = buf_;
 893:C:/Renesas/e2studio_2021_01_workspace_RZA2M_ANPR/ANPR_RZA2M_GR_MANGO/src/tensorflow_lite/third_party/flatbuffers/include/flatbuffers\flatbuffers.h ****     allocated_bytes = reserved_;
 894:C:/Renesas/e2studio_2021_01_workspace_RZA2M_ANPR/ANPR_RZA2M_GR_MANGO/src/tensorflow_lite/third_party/flatbuffers/include/flatbuffers\flatbuffers.h ****     offset = static_cast<size_t>(cur_ - buf_);
 895:C:/Renesas/e2studio_2021_01_workspace_RZA2M_ANPR/ANPR_RZA2M_GR_MANGO/src/tensorflow_lite/third_party/flatbuffers/include/flatbuffers\flatbuffers.h **** 
 896:C:/Renesas/e2studio_2021_01_workspace_RZA2M_ANPR/ANPR_RZA2M_GR_MANGO/src/tensorflow_lite/third_party/flatbuffers/include/flatbuffers\flatbuffers.h ****     // release_raw only relinquishes the buffer ownership.
 897:C:/Renesas/e2studio_2021_01_workspace_RZA2M_ANPR/ANPR_RZA2M_GR_MANGO/src/tensorflow_lite/third_party/flatbuffers/include/flatbuffers\flatbuffers.h ****     // Does not deallocate or reset the allocator. Destructor will do that.
 898:C:/Renesas/e2studio_2021_01_workspace_RZA2M_ANPR/ANPR_RZA2M_GR_MANGO/src/tensorflow_lite/third_party/flatbuffers/include/flatbuffers\flatbuffers.h ****     buf_ = nullptr;
 899:C:/Renesas/e2studio_2021_01_workspace_RZA2M_ANPR/ANPR_RZA2M_GR_MANGO/src/tensorflow_lite/third_party/flatbuffers/include/flatbuffers\flatbuffers.h ****     clear();
 900:C:/Renesas/e2studio_2021_01_workspace_RZA2M_ANPR/ANPR_RZA2M_GR_MANGO/src/tensorflow_lite/third_party/flatbuffers/include/flatbuffers\flatbuffers.h ****     return buf;
 901:C:/Renesas/e2studio_2021_01_workspace_RZA2M_ANPR/ANPR_RZA2M_GR_MANGO/src/tensorflow_lite/third_party/flatbuffers/include/flatbuffers\flatbuffers.h ****   }
 902:C:/Renesas/e2studio_2021_01_workspace_RZA2M_ANPR/ANPR_RZA2M_GR_MANGO/src/tensorflow_lite/third_party/flatbuffers/include/flatbuffers\flatbuffers.h **** 
 903:C:/Renesas/e2studio_2021_01_workspace_RZA2M_ANPR/ANPR_RZA2M_GR_MANGO/src/tensorflow_lite/third_party/flatbuffers/include/flatbuffers\flatbuffers.h ****   // Relinquish the pointer to the caller.
 904:C:/Renesas/e2studio_2021_01_workspace_RZA2M_ANPR/ANPR_RZA2M_GR_MANGO/src/tensorflow_lite/third_party/flatbuffers/include/flatbuffers\flatbuffers.h ****   DetachedBuffer release() {
 905:C:/Renesas/e2studio_2021_01_workspace_RZA2M_ANPR/ANPR_RZA2M_GR_MANGO/src/tensorflow_lite/third_party/flatbuffers/include/flatbuffers\flatbuffers.h ****     // allocator ownership (if any) is transferred to DetachedBuffer.
 906:C:/Renesas/e2studio_2021_01_workspace_RZA2M_ANPR/ANPR_RZA2M_GR_MANGO/src/tensorflow_lite/third_party/flatbuffers/include/flatbuffers\flatbuffers.h ****     DetachedBuffer fb(allocator_, own_allocator_, buf_, reserved_, cur_,
 907:C:/Renesas/e2studio_2021_01_workspace_RZA2M_ANPR/ANPR_RZA2M_GR_MANGO/src/tensorflow_lite/third_party/flatbuffers/include/flatbuffers\flatbuffers.h ****                       size());
 908:C:/Renesas/e2studio_2021_01_workspace_RZA2M_ANPR/ANPR_RZA2M_GR_MANGO/src/tensorflow_lite/third_party/flatbuffers/include/flatbuffers\flatbuffers.h ****     if (own_allocator_) {
 909:C:/Renesas/e2studio_2021_01_workspace_RZA2M_ANPR/ANPR_RZA2M_GR_MANGO/src/tensorflow_lite/third_party/flatbuffers/include/flatbuffers\flatbuffers.h ****       allocator_ = nullptr;
 910:C:/Renesas/e2studio_2021_01_workspace_RZA2M_ANPR/ANPR_RZA2M_GR_MANGO/src/tensorflow_lite/third_party/flatbuffers/include/flatbuffers\flatbuffers.h ****       own_allocator_ = false;
 911:C:/Renesas/e2studio_2021_01_workspace_RZA2M_ANPR/ANPR_RZA2M_GR_MANGO/src/tensorflow_lite/third_party/flatbuffers/include/flatbuffers\flatbuffers.h ****     }
 912:C:/Renesas/e2studio_2021_01_workspace_RZA2M_ANPR/ANPR_RZA2M_GR_MANGO/src/tensorflow_lite/third_party/flatbuffers/include/flatbuffers\flatbuffers.h ****     buf_ = nullptr;
 913:C:/Renesas/e2studio_2021_01_workspace_RZA2M_ANPR/ANPR_RZA2M_GR_MANGO/src/tensorflow_lite/third_party/flatbuffers/include/flatbuffers\flatbuffers.h ****     clear();
 914:C:/Renesas/e2studio_2021_01_workspace_RZA2M_ANPR/ANPR_RZA2M_GR_MANGO/src/tensorflow_lite/third_party/flatbuffers/include/flatbuffers\flatbuffers.h ****     return fb;
 915:C:/Renesas/e2studio_2021_01_workspace_RZA2M_ANPR/ANPR_RZA2M_GR_MANGO/src/tensorflow_lite/third_party/flatbuffers/include/flatbuffers\flatbuffers.h ****   }
 916:C:/Renesas/e2studio_2021_01_workspace_RZA2M_ANPR/ANPR_RZA2M_GR_MANGO/src/tensorflow_lite/third_party/flatbuffers/include/flatbuffers\flatbuffers.h **** 
 917:C:/Renesas/e2studio_2021_01_workspace_RZA2M_ANPR/ANPR_RZA2M_GR_MANGO/src/tensorflow_lite/third_party/flatbuffers/include/flatbuffers\flatbuffers.h ****   size_t ensure_space(size_t len) {
 918:C:/Renesas/e2studio_2021_01_workspace_RZA2M_ANPR/ANPR_RZA2M_GR_MANGO/src/tensorflow_lite/third_party/flatbuffers/include/flatbuffers\flatbuffers.h ****     FLATBUFFERS_ASSERT(cur_ >= scratch_ && scratch_ >= buf_);
 919:C:/Renesas/e2studio_2021_01_workspace_RZA2M_ANPR/ANPR_RZA2M_GR_MANGO/src/tensorflow_lite/third_party/flatbuffers/include/flatbuffers\flatbuffers.h ****     if (len > static_cast<size_t>(cur_ - scratch_)) { reallocate(len); }
 920:C:/Renesas/e2studio_2021_01_workspace_RZA2M_ANPR/ANPR_RZA2M_GR_MANGO/src/tensorflow_lite/third_party/flatbuffers/include/flatbuffers\flatbuffers.h ****     // Beyond this, signed offsets may not have enough range:
 921:C:/Renesas/e2studio_2021_01_workspace_RZA2M_ANPR/ANPR_RZA2M_GR_MANGO/src/tensorflow_lite/third_party/flatbuffers/include/flatbuffers\flatbuffers.h ****     // (FlatBuffers > 2GB not supported).
 922:C:/Renesas/e2studio_2021_01_workspace_RZA2M_ANPR/ANPR_RZA2M_GR_MANGO/src/tensorflow_lite/third_party/flatbuffers/include/flatbuffers\flatbuffers.h ****     FLATBUFFERS_ASSERT(size() < FLATBUFFERS_MAX_BUFFER_SIZE);
 923:C:/Renesas/e2studio_2021_01_workspace_RZA2M_ANPR/ANPR_RZA2M_GR_MANGO/src/tensorflow_lite/third_party/flatbuffers/include/flatbuffers\flatbuffers.h ****     return len;
 924:C:/Renesas/e2studio_2021_01_workspace_RZA2M_ANPR/ANPR_RZA2M_GR_MANGO/src/tensorflow_lite/third_party/flatbuffers/include/flatbuffers\flatbuffers.h ****   }
 925:C:/Renesas/e2studio_2021_01_workspace_RZA2M_ANPR/ANPR_RZA2M_GR_MANGO/src/tensorflow_lite/third_party/flatbuffers/include/flatbuffers\flatbuffers.h **** 
 926:C:/Renesas/e2studio_2021_01_workspace_RZA2M_ANPR/ANPR_RZA2M_GR_MANGO/src/tensorflow_lite/third_party/flatbuffers/include/flatbuffers\flatbuffers.h ****   inline uint8_t *make_space(size_t len) {
 927:C:/Renesas/e2studio_2021_01_workspace_RZA2M_ANPR/ANPR_RZA2M_GR_MANGO/src/tensorflow_lite/third_party/flatbuffers/include/flatbuffers\flatbuffers.h ****     size_t space = ensure_space(len);
 928:C:/Renesas/e2studio_2021_01_workspace_RZA2M_ANPR/ANPR_RZA2M_GR_MANGO/src/tensorflow_lite/third_party/flatbuffers/include/flatbuffers\flatbuffers.h ****     cur_ -= space;
 929:C:/Renesas/e2studio_2021_01_workspace_RZA2M_ANPR/ANPR_RZA2M_GR_MANGO/src/tensorflow_lite/third_party/flatbuffers/include/flatbuffers\flatbuffers.h ****     return cur_;
 930:C:/Renesas/e2studio_2021_01_workspace_RZA2M_ANPR/ANPR_RZA2M_GR_MANGO/src/tensorflow_lite/third_party/flatbuffers/include/flatbuffers\flatbuffers.h ****   }
 931:C:/Renesas/e2studio_2021_01_workspace_RZA2M_ANPR/ANPR_RZA2M_GR_MANGO/src/tensorflow_lite/third_party/flatbuffers/include/flatbuffers\flatbuffers.h **** 
 932:C:/Renesas/e2studio_2021_01_workspace_RZA2M_ANPR/ANPR_RZA2M_GR_MANGO/src/tensorflow_lite/third_party/flatbuffers/include/flatbuffers\flatbuffers.h ****   // Returns nullptr if using the DefaultAllocator.
 933:C:/Renesas/e2studio_2021_01_workspace_RZA2M_ANPR/ANPR_RZA2M_GR_MANGO/src/tensorflow_lite/third_party/flatbuffers/include/flatbuffers\flatbuffers.h ****   Allocator *get_custom_allocator() { return allocator_; }
 934:C:/Renesas/e2studio_2021_01_workspace_RZA2M_ANPR/ANPR_RZA2M_GR_MANGO/src/tensorflow_lite/third_party/flatbuffers/include/flatbuffers\flatbuffers.h **** 
 935:C:/Renesas/e2studio_2021_01_workspace_RZA2M_ANPR/ANPR_RZA2M_GR_MANGO/src/tensorflow_lite/third_party/flatbuffers/include/flatbuffers\flatbuffers.h ****   uoffset_t size() const {
 936:C:/Renesas/e2studio_2021_01_workspace_RZA2M_ANPR/ANPR_RZA2M_GR_MANGO/src/tensorflow_lite/third_party/flatbuffers/include/flatbuffers\flatbuffers.h ****     return static_cast<uoffset_t>(reserved_ - (cur_ - buf_));
 937:C:/Renesas/e2studio_2021_01_workspace_RZA2M_ANPR/ANPR_RZA2M_GR_MANGO/src/tensorflow_lite/third_party/flatbuffers/include/flatbuffers\flatbuffers.h ****   }
 938:C:/Renesas/e2studio_2021_01_workspace_RZA2M_ANPR/ANPR_RZA2M_GR_MANGO/src/tensorflow_lite/third_party/flatbuffers/include/flatbuffers\flatbuffers.h **** 
 939:C:/Renesas/e2studio_2021_01_workspace_RZA2M_ANPR/ANPR_RZA2M_GR_MANGO/src/tensorflow_lite/third_party/flatbuffers/include/flatbuffers\flatbuffers.h ****   uoffset_t scratch_size() const {
 940:C:/Renesas/e2studio_2021_01_workspace_RZA2M_ANPR/ANPR_RZA2M_GR_MANGO/src/tensorflow_lite/third_party/flatbuffers/include/flatbuffers\flatbuffers.h ****     return static_cast<uoffset_t>(scratch_ - buf_);
 941:C:/Renesas/e2studio_2021_01_workspace_RZA2M_ANPR/ANPR_RZA2M_GR_MANGO/src/tensorflow_lite/third_party/flatbuffers/include/flatbuffers\flatbuffers.h ****   }
 942:C:/Renesas/e2studio_2021_01_workspace_RZA2M_ANPR/ANPR_RZA2M_GR_MANGO/src/tensorflow_lite/third_party/flatbuffers/include/flatbuffers\flatbuffers.h **** 
 943:C:/Renesas/e2studio_2021_01_workspace_RZA2M_ANPR/ANPR_RZA2M_GR_MANGO/src/tensorflow_lite/third_party/flatbuffers/include/flatbuffers\flatbuffers.h ****   size_t capacity() const { return reserved_; }
 944:C:/Renesas/e2studio_2021_01_workspace_RZA2M_ANPR/ANPR_RZA2M_GR_MANGO/src/tensorflow_lite/third_party/flatbuffers/include/flatbuffers\flatbuffers.h **** 
 945:C:/Renesas/e2studio_2021_01_workspace_RZA2M_ANPR/ANPR_RZA2M_GR_MANGO/src/tensorflow_lite/third_party/flatbuffers/include/flatbuffers\flatbuffers.h ****   uint8_t *data() const {
 946:C:/Renesas/e2studio_2021_01_workspace_RZA2M_ANPR/ANPR_RZA2M_GR_MANGO/src/tensorflow_lite/third_party/flatbuffers/include/flatbuffers\flatbuffers.h ****     FLATBUFFERS_ASSERT(cur_);
 947:C:/Renesas/e2studio_2021_01_workspace_RZA2M_ANPR/ANPR_RZA2M_GR_MANGO/src/tensorflow_lite/third_party/flatbuffers/include/flatbuffers\flatbuffers.h ****     return cur_;
 948:C:/Renesas/e2studio_2021_01_workspace_RZA2M_ANPR/ANPR_RZA2M_GR_MANGO/src/tensorflow_lite/third_party/flatbuffers/include/flatbuffers\flatbuffers.h ****   }
 949:C:/Renesas/e2studio_2021_01_workspace_RZA2M_ANPR/ANPR_RZA2M_GR_MANGO/src/tensorflow_lite/third_party/flatbuffers/include/flatbuffers\flatbuffers.h **** 
 950:C:/Renesas/e2studio_2021_01_workspace_RZA2M_ANPR/ANPR_RZA2M_GR_MANGO/src/tensorflow_lite/third_party/flatbuffers/include/flatbuffers\flatbuffers.h ****   uint8_t *scratch_data() const {
 951:C:/Renesas/e2studio_2021_01_workspace_RZA2M_ANPR/ANPR_RZA2M_GR_MANGO/src/tensorflow_lite/third_party/flatbuffers/include/flatbuffers\flatbuffers.h ****     FLATBUFFERS_ASSERT(buf_);
 952:C:/Renesas/e2studio_2021_01_workspace_RZA2M_ANPR/ANPR_RZA2M_GR_MANGO/src/tensorflow_lite/third_party/flatbuffers/include/flatbuffers\flatbuffers.h ****     return buf_;
 953:C:/Renesas/e2studio_2021_01_workspace_RZA2M_ANPR/ANPR_RZA2M_GR_MANGO/src/tensorflow_lite/third_party/flatbuffers/include/flatbuffers\flatbuffers.h ****   }
 954:C:/Renesas/e2studio_2021_01_workspace_RZA2M_ANPR/ANPR_RZA2M_GR_MANGO/src/tensorflow_lite/third_party/flatbuffers/include/flatbuffers\flatbuffers.h **** 
 955:C:/Renesas/e2studio_2021_01_workspace_RZA2M_ANPR/ANPR_RZA2M_GR_MANGO/src/tensorflow_lite/third_party/flatbuffers/include/flatbuffers\flatbuffers.h ****   uint8_t *scratch_end() const {
 956:C:/Renesas/e2studio_2021_01_workspace_RZA2M_ANPR/ANPR_RZA2M_GR_MANGO/src/tensorflow_lite/third_party/flatbuffers/include/flatbuffers\flatbuffers.h ****     FLATBUFFERS_ASSERT(scratch_);
 957:C:/Renesas/e2studio_2021_01_workspace_RZA2M_ANPR/ANPR_RZA2M_GR_MANGO/src/tensorflow_lite/third_party/flatbuffers/include/flatbuffers\flatbuffers.h ****     return scratch_;
 958:C:/Renesas/e2studio_2021_01_workspace_RZA2M_ANPR/ANPR_RZA2M_GR_MANGO/src/tensorflow_lite/third_party/flatbuffers/include/flatbuffers\flatbuffers.h ****   }
 959:C:/Renesas/e2studio_2021_01_workspace_RZA2M_ANPR/ANPR_RZA2M_GR_MANGO/src/tensorflow_lite/third_party/flatbuffers/include/flatbuffers\flatbuffers.h **** 
 960:C:/Renesas/e2studio_2021_01_workspace_RZA2M_ANPR/ANPR_RZA2M_GR_MANGO/src/tensorflow_lite/third_party/flatbuffers/include/flatbuffers\flatbuffers.h ****   uint8_t *data_at(size_t offset) const { return buf_ + reserved_ - offset; }
 961:C:/Renesas/e2studio_2021_01_workspace_RZA2M_ANPR/ANPR_RZA2M_GR_MANGO/src/tensorflow_lite/third_party/flatbuffers/include/flatbuffers\flatbuffers.h **** 
 962:C:/Renesas/e2studio_2021_01_workspace_RZA2M_ANPR/ANPR_RZA2M_GR_MANGO/src/tensorflow_lite/third_party/flatbuffers/include/flatbuffers\flatbuffers.h ****   void push(const uint8_t *bytes, size_t num) {
 963:C:/Renesas/e2studio_2021_01_workspace_RZA2M_ANPR/ANPR_RZA2M_GR_MANGO/src/tensorflow_lite/third_party/flatbuffers/include/flatbuffers\flatbuffers.h ****     if (num > 0) { memcpy(make_space(num), bytes, num); }
 964:C:/Renesas/e2studio_2021_01_workspace_RZA2M_ANPR/ANPR_RZA2M_GR_MANGO/src/tensorflow_lite/third_party/flatbuffers/include/flatbuffers\flatbuffers.h ****   }
 965:C:/Renesas/e2studio_2021_01_workspace_RZA2M_ANPR/ANPR_RZA2M_GR_MANGO/src/tensorflow_lite/third_party/flatbuffers/include/flatbuffers\flatbuffers.h **** 
 966:C:/Renesas/e2studio_2021_01_workspace_RZA2M_ANPR/ANPR_RZA2M_GR_MANGO/src/tensorflow_lite/third_party/flatbuffers/include/flatbuffers\flatbuffers.h ****   // Specialized version of push() that avoids memcpy call for small data.
 967:C:/Renesas/e2studio_2021_01_workspace_RZA2M_ANPR/ANPR_RZA2M_GR_MANGO/src/tensorflow_lite/third_party/flatbuffers/include/flatbuffers\flatbuffers.h ****   template<typename T> void push_small(const T &little_endian_t) {
 968:C:/Renesas/e2studio_2021_01_workspace_RZA2M_ANPR/ANPR_RZA2M_GR_MANGO/src/tensorflow_lite/third_party/flatbuffers/include/flatbuffers\flatbuffers.h ****     make_space(sizeof(T));
 969:C:/Renesas/e2studio_2021_01_workspace_RZA2M_ANPR/ANPR_RZA2M_GR_MANGO/src/tensorflow_lite/third_party/flatbuffers/include/flatbuffers\flatbuffers.h ****     *reinterpret_cast<T *>(cur_) = little_endian_t;
 970:C:/Renesas/e2studio_2021_01_workspace_RZA2M_ANPR/ANPR_RZA2M_GR_MANGO/src/tensorflow_lite/third_party/flatbuffers/include/flatbuffers\flatbuffers.h ****   }
 971:C:/Renesas/e2studio_2021_01_workspace_RZA2M_ANPR/ANPR_RZA2M_GR_MANGO/src/tensorflow_lite/third_party/flatbuffers/include/flatbuffers\flatbuffers.h **** 
 972:C:/Renesas/e2studio_2021_01_workspace_RZA2M_ANPR/ANPR_RZA2M_GR_MANGO/src/tensorflow_lite/third_party/flatbuffers/include/flatbuffers\flatbuffers.h ****   template<typename T> void scratch_push_small(const T &t) {
 973:C:/Renesas/e2studio_2021_01_workspace_RZA2M_ANPR/ANPR_RZA2M_GR_MANGO/src/tensorflow_lite/third_party/flatbuffers/include/flatbuffers\flatbuffers.h ****     ensure_space(sizeof(T));
 974:C:/Renesas/e2studio_2021_01_workspace_RZA2M_ANPR/ANPR_RZA2M_GR_MANGO/src/tensorflow_lite/third_party/flatbuffers/include/flatbuffers\flatbuffers.h ****     *reinterpret_cast<T *>(scratch_) = t;
 975:C:/Renesas/e2studio_2021_01_workspace_RZA2M_ANPR/ANPR_RZA2M_GR_MANGO/src/tensorflow_lite/third_party/flatbuffers/include/flatbuffers\flatbuffers.h ****     scratch_ += sizeof(T);
 976:C:/Renesas/e2studio_2021_01_workspace_RZA2M_ANPR/ANPR_RZA2M_GR_MANGO/src/tensorflow_lite/third_party/flatbuffers/include/flatbuffers\flatbuffers.h ****   }
 977:C:/Renesas/e2studio_2021_01_workspace_RZA2M_ANPR/ANPR_RZA2M_GR_MANGO/src/tensorflow_lite/third_party/flatbuffers/include/flatbuffers\flatbuffers.h **** 
 978:C:/Renesas/e2studio_2021_01_workspace_RZA2M_ANPR/ANPR_RZA2M_GR_MANGO/src/tensorflow_lite/third_party/flatbuffers/include/flatbuffers\flatbuffers.h ****   // fill() is most frequently called with small byte counts (<= 4),
 979:C:/Renesas/e2studio_2021_01_workspace_RZA2M_ANPR/ANPR_RZA2M_GR_MANGO/src/tensorflow_lite/third_party/flatbuffers/include/flatbuffers\flatbuffers.h ****   // which is why we're using loops rather than calling memset.
 980:C:/Renesas/e2studio_2021_01_workspace_RZA2M_ANPR/ANPR_RZA2M_GR_MANGO/src/tensorflow_lite/third_party/flatbuffers/include/flatbuffers\flatbuffers.h ****   void fill(size_t zero_pad_bytes) {
 981:C:/Renesas/e2studio_2021_01_workspace_RZA2M_ANPR/ANPR_RZA2M_GR_MANGO/src/tensorflow_lite/third_party/flatbuffers/include/flatbuffers\flatbuffers.h ****     make_space(zero_pad_bytes);
 982:C:/Renesas/e2studio_2021_01_workspace_RZA2M_ANPR/ANPR_RZA2M_GR_MANGO/src/tensorflow_lite/third_party/flatbuffers/include/flatbuffers\flatbuffers.h ****     for (size_t i = 0; i < zero_pad_bytes; i++) cur_[i] = 0;
 983:C:/Renesas/e2studio_2021_01_workspace_RZA2M_ANPR/ANPR_RZA2M_GR_MANGO/src/tensorflow_lite/third_party/flatbuffers/include/flatbuffers\flatbuffers.h ****   }
 984:C:/Renesas/e2studio_2021_01_workspace_RZA2M_ANPR/ANPR_RZA2M_GR_MANGO/src/tensorflow_lite/third_party/flatbuffers/include/flatbuffers\flatbuffers.h **** 
 985:C:/Renesas/e2studio_2021_01_workspace_RZA2M_ANPR/ANPR_RZA2M_GR_MANGO/src/tensorflow_lite/third_party/flatbuffers/include/flatbuffers\flatbuffers.h ****   // Version for when we know the size is larger.
 986:C:/Renesas/e2studio_2021_01_workspace_RZA2M_ANPR/ANPR_RZA2M_GR_MANGO/src/tensorflow_lite/third_party/flatbuffers/include/flatbuffers\flatbuffers.h ****   // Precondition: zero_pad_bytes > 0
 987:C:/Renesas/e2studio_2021_01_workspace_RZA2M_ANPR/ANPR_RZA2M_GR_MANGO/src/tensorflow_lite/third_party/flatbuffers/include/flatbuffers\flatbuffers.h ****   void fill_big(size_t zero_pad_bytes) {
 988:C:/Renesas/e2studio_2021_01_workspace_RZA2M_ANPR/ANPR_RZA2M_GR_MANGO/src/tensorflow_lite/third_party/flatbuffers/include/flatbuffers\flatbuffers.h ****     memset(make_space(zero_pad_bytes), 0, zero_pad_bytes);
 989:C:/Renesas/e2studio_2021_01_workspace_RZA2M_ANPR/ANPR_RZA2M_GR_MANGO/src/tensorflow_lite/third_party/flatbuffers/include/flatbuffers\flatbuffers.h ****   }
 990:C:/Renesas/e2studio_2021_01_workspace_RZA2M_ANPR/ANPR_RZA2M_GR_MANGO/src/tensorflow_lite/third_party/flatbuffers/include/flatbuffers\flatbuffers.h **** 
 991:C:/Renesas/e2studio_2021_01_workspace_RZA2M_ANPR/ANPR_RZA2M_GR_MANGO/src/tensorflow_lite/third_party/flatbuffers/include/flatbuffers\flatbuffers.h ****   void pop(size_t bytes_to_remove) { cur_ += bytes_to_remove; }
 992:C:/Renesas/e2studio_2021_01_workspace_RZA2M_ANPR/ANPR_RZA2M_GR_MANGO/src/tensorflow_lite/third_party/flatbuffers/include/flatbuffers\flatbuffers.h ****   void scratch_pop(size_t bytes_to_remove) { scratch_ -= bytes_to_remove; }
 993:C:/Renesas/e2studio_2021_01_workspace_RZA2M_ANPR/ANPR_RZA2M_GR_MANGO/src/tensorflow_lite/third_party/flatbuffers/include/flatbuffers\flatbuffers.h **** 
 994:C:/Renesas/e2studio_2021_01_workspace_RZA2M_ANPR/ANPR_RZA2M_GR_MANGO/src/tensorflow_lite/third_party/flatbuffers/include/flatbuffers\flatbuffers.h ****   void swap(vector_downward &other) {
 995:C:/Renesas/e2studio_2021_01_workspace_RZA2M_ANPR/ANPR_RZA2M_GR_MANGO/src/tensorflow_lite/third_party/flatbuffers/include/flatbuffers\flatbuffers.h ****     using std::swap;
 996:C:/Renesas/e2studio_2021_01_workspace_RZA2M_ANPR/ANPR_RZA2M_GR_MANGO/src/tensorflow_lite/third_party/flatbuffers/include/flatbuffers\flatbuffers.h ****     swap(allocator_, other.allocator_);
 997:C:/Renesas/e2studio_2021_01_workspace_RZA2M_ANPR/ANPR_RZA2M_GR_MANGO/src/tensorflow_lite/third_party/flatbuffers/include/flatbuffers\flatbuffers.h ****     swap(own_allocator_, other.own_allocator_);
 998:C:/Renesas/e2studio_2021_01_workspace_RZA2M_ANPR/ANPR_RZA2M_GR_MANGO/src/tensorflow_lite/third_party/flatbuffers/include/flatbuffers\flatbuffers.h ****     swap(initial_size_, other.initial_size_);
 999:C:/Renesas/e2studio_2021_01_workspace_RZA2M_ANPR/ANPR_RZA2M_GR_MANGO/src/tensorflow_lite/third_party/flatbuffers/include/flatbuffers\flatbuffers.h ****     swap(buffer_minalign_, other.buffer_minalign_);
1000:C:/Renesas/e2studio_2021_01_workspace_RZA2M_ANPR/ANPR_RZA2M_GR_MANGO/src/tensorflow_lite/third_party/flatbuffers/include/flatbuffers\flatbuffers.h ****     swap(reserved_, other.reserved_);
1001:C:/Renesas/e2studio_2021_01_workspace_RZA2M_ANPR/ANPR_RZA2M_GR_MANGO/src/tensorflow_lite/third_party/flatbuffers/include/flatbuffers\flatbuffers.h ****     swap(buf_, other.buf_);
1002:C:/Renesas/e2studio_2021_01_workspace_RZA2M_ANPR/ANPR_RZA2M_GR_MANGO/src/tensorflow_lite/third_party/flatbuffers/include/flatbuffers\flatbuffers.h ****     swap(cur_, other.cur_);
1003:C:/Renesas/e2studio_2021_01_workspace_RZA2M_ANPR/ANPR_RZA2M_GR_MANGO/src/tensorflow_lite/third_party/flatbuffers/include/flatbuffers\flatbuffers.h ****     swap(scratch_, other.scratch_);
1004:C:/Renesas/e2studio_2021_01_workspace_RZA2M_ANPR/ANPR_RZA2M_GR_MANGO/src/tensorflow_lite/third_party/flatbuffers/include/flatbuffers\flatbuffers.h ****   }
1005:C:/Renesas/e2studio_2021_01_workspace_RZA2M_ANPR/ANPR_RZA2M_GR_MANGO/src/tensorflow_lite/third_party/flatbuffers/include/flatbuffers\flatbuffers.h **** 
1006:C:/Renesas/e2studio_2021_01_workspace_RZA2M_ANPR/ANPR_RZA2M_GR_MANGO/src/tensorflow_lite/third_party/flatbuffers/include/flatbuffers\flatbuffers.h ****   void swap_allocator(vector_downward &other) {
1007:C:/Renesas/e2studio_2021_01_workspace_RZA2M_ANPR/ANPR_RZA2M_GR_MANGO/src/tensorflow_lite/third_party/flatbuffers/include/flatbuffers\flatbuffers.h ****     using std::swap;
1008:C:/Renesas/e2studio_2021_01_workspace_RZA2M_ANPR/ANPR_RZA2M_GR_MANGO/src/tensorflow_lite/third_party/flatbuffers/include/flatbuffers\flatbuffers.h ****     swap(allocator_, other.allocator_);
1009:C:/Renesas/e2studio_2021_01_workspace_RZA2M_ANPR/ANPR_RZA2M_GR_MANGO/src/tensorflow_lite/third_party/flatbuffers/include/flatbuffers\flatbuffers.h ****     swap(own_allocator_, other.own_allocator_);
1010:C:/Renesas/e2studio_2021_01_workspace_RZA2M_ANPR/ANPR_RZA2M_GR_MANGO/src/tensorflow_lite/third_party/flatbuffers/include/flatbuffers\flatbuffers.h ****   }
1011:C:/Renesas/e2studio_2021_01_workspace_RZA2M_ANPR/ANPR_RZA2M_GR_MANGO/src/tensorflow_lite/third_party/flatbuffers/include/flatbuffers\flatbuffers.h **** 
1012:C:/Renesas/e2studio_2021_01_workspace_RZA2M_ANPR/ANPR_RZA2M_GR_MANGO/src/tensorflow_lite/third_party/flatbuffers/include/flatbuffers\flatbuffers.h ****  private:
1013:C:/Renesas/e2studio_2021_01_workspace_RZA2M_ANPR/ANPR_RZA2M_GR_MANGO/src/tensorflow_lite/third_party/flatbuffers/include/flatbuffers\flatbuffers.h ****   // You shouldn't really be copying instances of this class.
1014:C:/Renesas/e2studio_2021_01_workspace_RZA2M_ANPR/ANPR_RZA2M_GR_MANGO/src/tensorflow_lite/third_party/flatbuffers/include/flatbuffers\flatbuffers.h ****   FLATBUFFERS_DELETE_FUNC(vector_downward(const vector_downward &))
1015:C:/Renesas/e2studio_2021_01_workspace_RZA2M_ANPR/ANPR_RZA2M_GR_MANGO/src/tensorflow_lite/third_party/flatbuffers/include/flatbuffers\flatbuffers.h ****   FLATBUFFERS_DELETE_FUNC(vector_downward &operator=(const vector_downward &))
1016:C:/Renesas/e2studio_2021_01_workspace_RZA2M_ANPR/ANPR_RZA2M_GR_MANGO/src/tensorflow_lite/third_party/flatbuffers/include/flatbuffers\flatbuffers.h **** 
1017:C:/Renesas/e2studio_2021_01_workspace_RZA2M_ANPR/ANPR_RZA2M_GR_MANGO/src/tensorflow_lite/third_party/flatbuffers/include/flatbuffers\flatbuffers.h ****   Allocator *allocator_;
1018:C:/Renesas/e2studio_2021_01_workspace_RZA2M_ANPR/ANPR_RZA2M_GR_MANGO/src/tensorflow_lite/third_party/flatbuffers/include/flatbuffers\flatbuffers.h ****   bool own_allocator_;
1019:C:/Renesas/e2studio_2021_01_workspace_RZA2M_ANPR/ANPR_RZA2M_GR_MANGO/src/tensorflow_lite/third_party/flatbuffers/include/flatbuffers\flatbuffers.h ****   size_t initial_size_;
1020:C:/Renesas/e2studio_2021_01_workspace_RZA2M_ANPR/ANPR_RZA2M_GR_MANGO/src/tensorflow_lite/third_party/flatbuffers/include/flatbuffers\flatbuffers.h ****   size_t buffer_minalign_;
1021:C:/Renesas/e2studio_2021_01_workspace_RZA2M_ANPR/ANPR_RZA2M_GR_MANGO/src/tensorflow_lite/third_party/flatbuffers/include/flatbuffers\flatbuffers.h ****   size_t reserved_;
1022:C:/Renesas/e2studio_2021_01_workspace_RZA2M_ANPR/ANPR_RZA2M_GR_MANGO/src/tensorflow_lite/third_party/flatbuffers/include/flatbuffers\flatbuffers.h ****   uint8_t *buf_;
1023:C:/Renesas/e2studio_2021_01_workspace_RZA2M_ANPR/ANPR_RZA2M_GR_MANGO/src/tensorflow_lite/third_party/flatbuffers/include/flatbuffers\flatbuffers.h ****   uint8_t *cur_;  // Points at location between empty (below) and used (above).
1024:C:/Renesas/e2studio_2021_01_workspace_RZA2M_ANPR/ANPR_RZA2M_GR_MANGO/src/tensorflow_lite/third_party/flatbuffers/include/flatbuffers\flatbuffers.h ****   uint8_t *scratch_;  // Points to the end of the scratchpad in use.
1025:C:/Renesas/e2studio_2021_01_workspace_RZA2M_ANPR/ANPR_RZA2M_GR_MANGO/src/tensorflow_lite/third_party/flatbuffers/include/flatbuffers\flatbuffers.h **** 
1026:C:/Renesas/e2studio_2021_01_workspace_RZA2M_ANPR/ANPR_RZA2M_GR_MANGO/src/tensorflow_lite/third_party/flatbuffers/include/flatbuffers\flatbuffers.h ****   void reallocate(size_t len) {
1027:C:/Renesas/e2studio_2021_01_workspace_RZA2M_ANPR/ANPR_RZA2M_GR_MANGO/src/tensorflow_lite/third_party/flatbuffers/include/flatbuffers\flatbuffers.h ****     auto old_reserved = reserved_;
1028:C:/Renesas/e2studio_2021_01_workspace_RZA2M_ANPR/ANPR_RZA2M_GR_MANGO/src/tensorflow_lite/third_party/flatbuffers/include/flatbuffers\flatbuffers.h ****     auto old_size = size();
1029:C:/Renesas/e2studio_2021_01_workspace_RZA2M_ANPR/ANPR_RZA2M_GR_MANGO/src/tensorflow_lite/third_party/flatbuffers/include/flatbuffers\flatbuffers.h ****     auto old_scratch_size = scratch_size();
1030:C:/Renesas/e2studio_2021_01_workspace_RZA2M_ANPR/ANPR_RZA2M_GR_MANGO/src/tensorflow_lite/third_party/flatbuffers/include/flatbuffers\flatbuffers.h ****     reserved_ +=
1031:C:/Renesas/e2studio_2021_01_workspace_RZA2M_ANPR/ANPR_RZA2M_GR_MANGO/src/tensorflow_lite/third_party/flatbuffers/include/flatbuffers\flatbuffers.h ****         (std::max)(len, old_reserved ? old_reserved / 2 : initial_size_);
1032:C:/Renesas/e2studio_2021_01_workspace_RZA2M_ANPR/ANPR_RZA2M_GR_MANGO/src/tensorflow_lite/third_party/flatbuffers/include/flatbuffers\flatbuffers.h ****     reserved_ = (reserved_ + buffer_minalign_ - 1) & ~(buffer_minalign_ - 1);
1033:C:/Renesas/e2studio_2021_01_workspace_RZA2M_ANPR/ANPR_RZA2M_GR_MANGO/src/tensorflow_lite/third_party/flatbuffers/include/flatbuffers\flatbuffers.h ****     if (buf_) {
1034:C:/Renesas/e2studio_2021_01_workspace_RZA2M_ANPR/ANPR_RZA2M_GR_MANGO/src/tensorflow_lite/third_party/flatbuffers/include/flatbuffers\flatbuffers.h ****       buf_ = ReallocateDownward(allocator_, buf_, old_reserved, reserved_,
1035:C:/Renesas/e2studio_2021_01_workspace_RZA2M_ANPR/ANPR_RZA2M_GR_MANGO/src/tensorflow_lite/third_party/flatbuffers/include/flatbuffers\flatbuffers.h ****                                 old_size, old_scratch_size);
1036:C:/Renesas/e2studio_2021_01_workspace_RZA2M_ANPR/ANPR_RZA2M_GR_MANGO/src/tensorflow_lite/third_party/flatbuffers/include/flatbuffers\flatbuffers.h ****     } else {
1037:C:/Renesas/e2studio_2021_01_workspace_RZA2M_ANPR/ANPR_RZA2M_GR_MANGO/src/tensorflow_lite/third_party/flatbuffers/include/flatbuffers\flatbuffers.h ****       buf_ = Allocate(allocator_, reserved_);
1038:C:/Renesas/e2studio_2021_01_workspace_RZA2M_ANPR/ANPR_RZA2M_GR_MANGO/src/tensorflow_lite/third_party/flatbuffers/include/flatbuffers\flatbuffers.h ****     }
1039:C:/Renesas/e2studio_2021_01_workspace_RZA2M_ANPR/ANPR_RZA2M_GR_MANGO/src/tensorflow_lite/third_party/flatbuffers/include/flatbuffers\flatbuffers.h ****     cur_ = buf_ + reserved_ - old_size;
1040:C:/Renesas/e2studio_2021_01_workspace_RZA2M_ANPR/ANPR_RZA2M_GR_MANGO/src/tensorflow_lite/third_party/flatbuffers/include/flatbuffers\flatbuffers.h ****     scratch_ = buf_ + old_scratch_size;
1041:C:/Renesas/e2studio_2021_01_workspace_RZA2M_ANPR/ANPR_RZA2M_GR_MANGO/src/tensorflow_lite/third_party/flatbuffers/include/flatbuffers\flatbuffers.h ****   }
1042:C:/Renesas/e2studio_2021_01_workspace_RZA2M_ANPR/ANPR_RZA2M_GR_MANGO/src/tensorflow_lite/third_party/flatbuffers/include/flatbuffers\flatbuffers.h **** };
1043:C:/Renesas/e2studio_2021_01_workspace_RZA2M_ANPR/ANPR_RZA2M_GR_MANGO/src/tensorflow_lite/third_party/flatbuffers/include/flatbuffers\flatbuffers.h **** 
1044:C:/Renesas/e2studio_2021_01_workspace_RZA2M_ANPR/ANPR_RZA2M_GR_MANGO/src/tensorflow_lite/third_party/flatbuffers/include/flatbuffers\flatbuffers.h **** // Converts a Field ID to a virtual table offset.
1045:C:/Renesas/e2studio_2021_01_workspace_RZA2M_ANPR/ANPR_RZA2M_GR_MANGO/src/tensorflow_lite/third_party/flatbuffers/include/flatbuffers\flatbuffers.h **** inline voffset_t FieldIndexToOffset(voffset_t field_id) {
1046:C:/Renesas/e2studio_2021_01_workspace_RZA2M_ANPR/ANPR_RZA2M_GR_MANGO/src/tensorflow_lite/third_party/flatbuffers/include/flatbuffers\flatbuffers.h ****   // Should correspond to what EndTable() below builds up.
1047:C:/Renesas/e2studio_2021_01_workspace_RZA2M_ANPR/ANPR_RZA2M_GR_MANGO/src/tensorflow_lite/third_party/flatbuffers/include/flatbuffers\flatbuffers.h ****   const int fixed_fields = 2;  // Vtable size and Object Size.
1048:C:/Renesas/e2studio_2021_01_workspace_RZA2M_ANPR/ANPR_RZA2M_GR_MANGO/src/tensorflow_lite/third_party/flatbuffers/include/flatbuffers\flatbuffers.h ****   return static_cast<voffset_t>((field_id + fixed_fields) * sizeof(voffset_t));
1049:C:/Renesas/e2studio_2021_01_workspace_RZA2M_ANPR/ANPR_RZA2M_GR_MANGO/src/tensorflow_lite/third_party/flatbuffers/include/flatbuffers\flatbuffers.h **** }
1050:C:/Renesas/e2studio_2021_01_workspace_RZA2M_ANPR/ANPR_RZA2M_GR_MANGO/src/tensorflow_lite/third_party/flatbuffers/include/flatbuffers\flatbuffers.h **** 
1051:C:/Renesas/e2studio_2021_01_workspace_RZA2M_ANPR/ANPR_RZA2M_GR_MANGO/src/tensorflow_lite/third_party/flatbuffers/include/flatbuffers\flatbuffers.h **** template<typename T, typename Alloc>
1052:C:/Renesas/e2studio_2021_01_workspace_RZA2M_ANPR/ANPR_RZA2M_GR_MANGO/src/tensorflow_lite/third_party/flatbuffers/include/flatbuffers\flatbuffers.h **** const T *data(const std::vector<T, Alloc> &v) {
1053:C:/Renesas/e2studio_2021_01_workspace_RZA2M_ANPR/ANPR_RZA2M_GR_MANGO/src/tensorflow_lite/third_party/flatbuffers/include/flatbuffers\flatbuffers.h ****   // Eventually the returned pointer gets passed down to memcpy, so
1054:C:/Renesas/e2studio_2021_01_workspace_RZA2M_ANPR/ANPR_RZA2M_GR_MANGO/src/tensorflow_lite/third_party/flatbuffers/include/flatbuffers\flatbuffers.h ****   // we need it to be non-null to avoid undefined behavior.
1055:C:/Renesas/e2studio_2021_01_workspace_RZA2M_ANPR/ANPR_RZA2M_GR_MANGO/src/tensorflow_lite/third_party/flatbuffers/include/flatbuffers\flatbuffers.h ****   static uint8_t t;
1056:C:/Renesas/e2studio_2021_01_workspace_RZA2M_ANPR/ANPR_RZA2M_GR_MANGO/src/tensorflow_lite/third_party/flatbuffers/include/flatbuffers\flatbuffers.h ****   return v.empty() ? reinterpret_cast<const T *>(&t) : &v.front();
1057:C:/Renesas/e2studio_2021_01_workspace_RZA2M_ANPR/ANPR_RZA2M_GR_MANGO/src/tensorflow_lite/third_party/flatbuffers/include/flatbuffers\flatbuffers.h **** }
1058:C:/Renesas/e2studio_2021_01_workspace_RZA2M_ANPR/ANPR_RZA2M_GR_MANGO/src/tensorflow_lite/third_party/flatbuffers/include/flatbuffers\flatbuffers.h **** template<typename T, typename Alloc> T *data(std::vector<T, Alloc> &v) {
1059:C:/Renesas/e2studio_2021_01_workspace_RZA2M_ANPR/ANPR_RZA2M_GR_MANGO/src/tensorflow_lite/third_party/flatbuffers/include/flatbuffers\flatbuffers.h ****   // Eventually the returned pointer gets passed down to memcpy, so
1060:C:/Renesas/e2studio_2021_01_workspace_RZA2M_ANPR/ANPR_RZA2M_GR_MANGO/src/tensorflow_lite/third_party/flatbuffers/include/flatbuffers\flatbuffers.h ****   // we need it to be non-null to avoid undefined behavior.
1061:C:/Renesas/e2studio_2021_01_workspace_RZA2M_ANPR/ANPR_RZA2M_GR_MANGO/src/tensorflow_lite/third_party/flatbuffers/include/flatbuffers\flatbuffers.h ****   static uint8_t t;
1062:C:/Renesas/e2studio_2021_01_workspace_RZA2M_ANPR/ANPR_RZA2M_GR_MANGO/src/tensorflow_lite/third_party/flatbuffers/include/flatbuffers\flatbuffers.h ****   return v.empty() ? reinterpret_cast<T *>(&t) : &v.front();
1063:C:/Renesas/e2studio_2021_01_workspace_RZA2M_ANPR/ANPR_RZA2M_GR_MANGO/src/tensorflow_lite/third_party/flatbuffers/include/flatbuffers\flatbuffers.h **** }
1064:C:/Renesas/e2studio_2021_01_workspace_RZA2M_ANPR/ANPR_RZA2M_GR_MANGO/src/tensorflow_lite/third_party/flatbuffers/include/flatbuffers\flatbuffers.h **** 
1065:C:/Renesas/e2studio_2021_01_workspace_RZA2M_ANPR/ANPR_RZA2M_GR_MANGO/src/tensorflow_lite/third_party/flatbuffers/include/flatbuffers\flatbuffers.h **** /// @endcond
1066:C:/Renesas/e2studio_2021_01_workspace_RZA2M_ANPR/ANPR_RZA2M_GR_MANGO/src/tensorflow_lite/third_party/flatbuffers/include/flatbuffers\flatbuffers.h **** 
1067:C:/Renesas/e2studio_2021_01_workspace_RZA2M_ANPR/ANPR_RZA2M_GR_MANGO/src/tensorflow_lite/third_party/flatbuffers/include/flatbuffers\flatbuffers.h **** /// @addtogroup flatbuffers_cpp_api
1068:C:/Renesas/e2studio_2021_01_workspace_RZA2M_ANPR/ANPR_RZA2M_GR_MANGO/src/tensorflow_lite/third_party/flatbuffers/include/flatbuffers\flatbuffers.h **** /// @{
1069:C:/Renesas/e2studio_2021_01_workspace_RZA2M_ANPR/ANPR_RZA2M_GR_MANGO/src/tensorflow_lite/third_party/flatbuffers/include/flatbuffers\flatbuffers.h **** /// @class FlatBufferBuilder
1070:C:/Renesas/e2studio_2021_01_workspace_RZA2M_ANPR/ANPR_RZA2M_GR_MANGO/src/tensorflow_lite/third_party/flatbuffers/include/flatbuffers\flatbuffers.h **** /// @brief Helper class to hold data needed in creation of a FlatBuffer.
1071:C:/Renesas/e2studio_2021_01_workspace_RZA2M_ANPR/ANPR_RZA2M_GR_MANGO/src/tensorflow_lite/third_party/flatbuffers/include/flatbuffers\flatbuffers.h **** /// To serialize data, you typically call one of the `Create*()` functions in
1072:C:/Renesas/e2studio_2021_01_workspace_RZA2M_ANPR/ANPR_RZA2M_GR_MANGO/src/tensorflow_lite/third_party/flatbuffers/include/flatbuffers\flatbuffers.h **** /// the generated code, which in turn call a sequence of `StartTable`/
1073:C:/Renesas/e2studio_2021_01_workspace_RZA2M_ANPR/ANPR_RZA2M_GR_MANGO/src/tensorflow_lite/third_party/flatbuffers/include/flatbuffers\flatbuffers.h **** /// `PushElement`/`AddElement`/`EndTable`, or the builtin `CreateString`/
1074:C:/Renesas/e2studio_2021_01_workspace_RZA2M_ANPR/ANPR_RZA2M_GR_MANGO/src/tensorflow_lite/third_party/flatbuffers/include/flatbuffers\flatbuffers.h **** /// `CreateVector` functions. Do this is depth-first order to build up a tree to
1075:C:/Renesas/e2studio_2021_01_workspace_RZA2M_ANPR/ANPR_RZA2M_GR_MANGO/src/tensorflow_lite/third_party/flatbuffers/include/flatbuffers\flatbuffers.h **** /// the root. `Finish()` wraps up the buffer ready for transport.
1076:C:/Renesas/e2studio_2021_01_workspace_RZA2M_ANPR/ANPR_RZA2M_GR_MANGO/src/tensorflow_lite/third_party/flatbuffers/include/flatbuffers\flatbuffers.h **** class FlatBufferBuilder {
1077:C:/Renesas/e2studio_2021_01_workspace_RZA2M_ANPR/ANPR_RZA2M_GR_MANGO/src/tensorflow_lite/third_party/flatbuffers/include/flatbuffers\flatbuffers.h ****  public:
1078:C:/Renesas/e2studio_2021_01_workspace_RZA2M_ANPR/ANPR_RZA2M_GR_MANGO/src/tensorflow_lite/third_party/flatbuffers/include/flatbuffers\flatbuffers.h ****   /// @brief Default constructor for FlatBufferBuilder.
1079:C:/Renesas/e2studio_2021_01_workspace_RZA2M_ANPR/ANPR_RZA2M_GR_MANGO/src/tensorflow_lite/third_party/flatbuffers/include/flatbuffers\flatbuffers.h ****   /// @param[in] initial_size The initial size of the buffer, in bytes. Defaults
1080:C:/Renesas/e2studio_2021_01_workspace_RZA2M_ANPR/ANPR_RZA2M_GR_MANGO/src/tensorflow_lite/third_party/flatbuffers/include/flatbuffers\flatbuffers.h ****   /// to `1024`.
1081:C:/Renesas/e2studio_2021_01_workspace_RZA2M_ANPR/ANPR_RZA2M_GR_MANGO/src/tensorflow_lite/third_party/flatbuffers/include/flatbuffers\flatbuffers.h ****   /// @param[in] allocator An `Allocator` to use. If null will use
1082:C:/Renesas/e2studio_2021_01_workspace_RZA2M_ANPR/ANPR_RZA2M_GR_MANGO/src/tensorflow_lite/third_party/flatbuffers/include/flatbuffers\flatbuffers.h ****   /// `DefaultAllocator`.
1083:C:/Renesas/e2studio_2021_01_workspace_RZA2M_ANPR/ANPR_RZA2M_GR_MANGO/src/tensorflow_lite/third_party/flatbuffers/include/flatbuffers\flatbuffers.h ****   /// @param[in] own_allocator Whether the builder/vector should own the
1084:C:/Renesas/e2studio_2021_01_workspace_RZA2M_ANPR/ANPR_RZA2M_GR_MANGO/src/tensorflow_lite/third_party/flatbuffers/include/flatbuffers\flatbuffers.h ****   /// allocator. Defaults to / `false`.
1085:C:/Renesas/e2studio_2021_01_workspace_RZA2M_ANPR/ANPR_RZA2M_GR_MANGO/src/tensorflow_lite/third_party/flatbuffers/include/flatbuffers\flatbuffers.h ****   /// @param[in] buffer_minalign Force the buffer to be aligned to the given
1086:C:/Renesas/e2studio_2021_01_workspace_RZA2M_ANPR/ANPR_RZA2M_GR_MANGO/src/tensorflow_lite/third_party/flatbuffers/include/flatbuffers\flatbuffers.h ****   /// minimum alignment upon reallocation. Only needed if you intend to store
1087:C:/Renesas/e2studio_2021_01_workspace_RZA2M_ANPR/ANPR_RZA2M_GR_MANGO/src/tensorflow_lite/third_party/flatbuffers/include/flatbuffers\flatbuffers.h ****   /// types with custom alignment AND you wish to read the buffer in-place
1088:C:/Renesas/e2studio_2021_01_workspace_RZA2M_ANPR/ANPR_RZA2M_GR_MANGO/src/tensorflow_lite/third_party/flatbuffers/include/flatbuffers\flatbuffers.h ****   /// directly after creation.
1089:C:/Renesas/e2studio_2021_01_workspace_RZA2M_ANPR/ANPR_RZA2M_GR_MANGO/src/tensorflow_lite/third_party/flatbuffers/include/flatbuffers\flatbuffers.h ****   explicit FlatBufferBuilder(
1090:C:/Renesas/e2studio_2021_01_workspace_RZA2M_ANPR/ANPR_RZA2M_GR_MANGO/src/tensorflow_lite/third_party/flatbuffers/include/flatbuffers\flatbuffers.h ****       size_t initial_size = 1024, Allocator *allocator = nullptr,
1091:C:/Renesas/e2studio_2021_01_workspace_RZA2M_ANPR/ANPR_RZA2M_GR_MANGO/src/tensorflow_lite/third_party/flatbuffers/include/flatbuffers\flatbuffers.h ****       bool own_allocator = false,
1092:C:/Renesas/e2studio_2021_01_workspace_RZA2M_ANPR/ANPR_RZA2M_GR_MANGO/src/tensorflow_lite/third_party/flatbuffers/include/flatbuffers\flatbuffers.h ****       size_t buffer_minalign = AlignOf<largest_scalar_t>())
1093:C:/Renesas/e2studio_2021_01_workspace_RZA2M_ANPR/ANPR_RZA2M_GR_MANGO/src/tensorflow_lite/third_party/flatbuffers/include/flatbuffers\flatbuffers.h ****       : buf_(initial_size, allocator, own_allocator, buffer_minalign),
1094:C:/Renesas/e2studio_2021_01_workspace_RZA2M_ANPR/ANPR_RZA2M_GR_MANGO/src/tensorflow_lite/third_party/flatbuffers/include/flatbuffers\flatbuffers.h ****         num_field_loc(0),
1095:C:/Renesas/e2studio_2021_01_workspace_RZA2M_ANPR/ANPR_RZA2M_GR_MANGO/src/tensorflow_lite/third_party/flatbuffers/include/flatbuffers\flatbuffers.h ****         max_voffset_(0),
1096:C:/Renesas/e2studio_2021_01_workspace_RZA2M_ANPR/ANPR_RZA2M_GR_MANGO/src/tensorflow_lite/third_party/flatbuffers/include/flatbuffers\flatbuffers.h ****         nested(false),
1097:C:/Renesas/e2studio_2021_01_workspace_RZA2M_ANPR/ANPR_RZA2M_GR_MANGO/src/tensorflow_lite/third_party/flatbuffers/include/flatbuffers\flatbuffers.h ****         finished(false),
1098:C:/Renesas/e2studio_2021_01_workspace_RZA2M_ANPR/ANPR_RZA2M_GR_MANGO/src/tensorflow_lite/third_party/flatbuffers/include/flatbuffers\flatbuffers.h ****         minalign_(1),
1099:C:/Renesas/e2studio_2021_01_workspace_RZA2M_ANPR/ANPR_RZA2M_GR_MANGO/src/tensorflow_lite/third_party/flatbuffers/include/flatbuffers\flatbuffers.h ****         force_defaults_(false),
1100:C:/Renesas/e2studio_2021_01_workspace_RZA2M_ANPR/ANPR_RZA2M_GR_MANGO/src/tensorflow_lite/third_party/flatbuffers/include/flatbuffers\flatbuffers.h ****         dedup_vtables_(true),
1101:C:/Renesas/e2studio_2021_01_workspace_RZA2M_ANPR/ANPR_RZA2M_GR_MANGO/src/tensorflow_lite/third_party/flatbuffers/include/flatbuffers\flatbuffers.h ****         string_pool(nullptr) {
1102:C:/Renesas/e2studio_2021_01_workspace_RZA2M_ANPR/ANPR_RZA2M_GR_MANGO/src/tensorflow_lite/third_party/flatbuffers/include/flatbuffers\flatbuffers.h ****     EndianCheck();
1103:C:/Renesas/e2studio_2021_01_workspace_RZA2M_ANPR/ANPR_RZA2M_GR_MANGO/src/tensorflow_lite/third_party/flatbuffers/include/flatbuffers\flatbuffers.h ****   }
1104:C:/Renesas/e2studio_2021_01_workspace_RZA2M_ANPR/ANPR_RZA2M_GR_MANGO/src/tensorflow_lite/third_party/flatbuffers/include/flatbuffers\flatbuffers.h **** 
1105:C:/Renesas/e2studio_2021_01_workspace_RZA2M_ANPR/ANPR_RZA2M_GR_MANGO/src/tensorflow_lite/third_party/flatbuffers/include/flatbuffers\flatbuffers.h ****   // clang-format off
1106:C:/Renesas/e2studio_2021_01_workspace_RZA2M_ANPR/ANPR_RZA2M_GR_MANGO/src/tensorflow_lite/third_party/flatbuffers/include/flatbuffers\flatbuffers.h ****   /// @brief Move constructor for FlatBufferBuilder.
1107:C:/Renesas/e2studio_2021_01_workspace_RZA2M_ANPR/ANPR_RZA2M_GR_MANGO/src/tensorflow_lite/third_party/flatbuffers/include/flatbuffers\flatbuffers.h ****   #if !defined(FLATBUFFERS_CPP98_STL)
1108:C:/Renesas/e2studio_2021_01_workspace_RZA2M_ANPR/ANPR_RZA2M_GR_MANGO/src/tensorflow_lite/third_party/flatbuffers/include/flatbuffers\flatbuffers.h ****   FlatBufferBuilder(FlatBufferBuilder &&other)
1109:C:/Renesas/e2studio_2021_01_workspace_RZA2M_ANPR/ANPR_RZA2M_GR_MANGO/src/tensorflow_lite/third_party/flatbuffers/include/flatbuffers\flatbuffers.h ****   #else
1110:C:/Renesas/e2studio_2021_01_workspace_RZA2M_ANPR/ANPR_RZA2M_GR_MANGO/src/tensorflow_lite/third_party/flatbuffers/include/flatbuffers\flatbuffers.h ****   FlatBufferBuilder(FlatBufferBuilder &other)
1111:C:/Renesas/e2studio_2021_01_workspace_RZA2M_ANPR/ANPR_RZA2M_GR_MANGO/src/tensorflow_lite/third_party/flatbuffers/include/flatbuffers\flatbuffers.h ****   #endif  // #if !defined(FLATBUFFERS_CPP98_STL)
1112:C:/Renesas/e2studio_2021_01_workspace_RZA2M_ANPR/ANPR_RZA2M_GR_MANGO/src/tensorflow_lite/third_party/flatbuffers/include/flatbuffers\flatbuffers.h ****     : buf_(1024, nullptr, false, AlignOf<largest_scalar_t>()),
1113:C:/Renesas/e2studio_2021_01_workspace_RZA2M_ANPR/ANPR_RZA2M_GR_MANGO/src/tensorflow_lite/third_party/flatbuffers/include/flatbuffers\flatbuffers.h ****       num_field_loc(0),
1114:C:/Renesas/e2studio_2021_01_workspace_RZA2M_ANPR/ANPR_RZA2M_GR_MANGO/src/tensorflow_lite/third_party/flatbuffers/include/flatbuffers\flatbuffers.h ****       max_voffset_(0),
1115:C:/Renesas/e2studio_2021_01_workspace_RZA2M_ANPR/ANPR_RZA2M_GR_MANGO/src/tensorflow_lite/third_party/flatbuffers/include/flatbuffers\flatbuffers.h ****       nested(false),
1116:C:/Renesas/e2studio_2021_01_workspace_RZA2M_ANPR/ANPR_RZA2M_GR_MANGO/src/tensorflow_lite/third_party/flatbuffers/include/flatbuffers\flatbuffers.h ****       finished(false),
1117:C:/Renesas/e2studio_2021_01_workspace_RZA2M_ANPR/ANPR_RZA2M_GR_MANGO/src/tensorflow_lite/third_party/flatbuffers/include/flatbuffers\flatbuffers.h ****       minalign_(1),
1118:C:/Renesas/e2studio_2021_01_workspace_RZA2M_ANPR/ANPR_RZA2M_GR_MANGO/src/tensorflow_lite/third_party/flatbuffers/include/flatbuffers\flatbuffers.h ****       force_defaults_(false),
1119:C:/Renesas/e2studio_2021_01_workspace_RZA2M_ANPR/ANPR_RZA2M_GR_MANGO/src/tensorflow_lite/third_party/flatbuffers/include/flatbuffers\flatbuffers.h ****       dedup_vtables_(true),
1120:C:/Renesas/e2studio_2021_01_workspace_RZA2M_ANPR/ANPR_RZA2M_GR_MANGO/src/tensorflow_lite/third_party/flatbuffers/include/flatbuffers\flatbuffers.h ****       string_pool(nullptr) {
1121:C:/Renesas/e2studio_2021_01_workspace_RZA2M_ANPR/ANPR_RZA2M_GR_MANGO/src/tensorflow_lite/third_party/flatbuffers/include/flatbuffers\flatbuffers.h ****     EndianCheck();
1122:C:/Renesas/e2studio_2021_01_workspace_RZA2M_ANPR/ANPR_RZA2M_GR_MANGO/src/tensorflow_lite/third_party/flatbuffers/include/flatbuffers\flatbuffers.h ****     // Default construct and swap idiom.
1123:C:/Renesas/e2studio_2021_01_workspace_RZA2M_ANPR/ANPR_RZA2M_GR_MANGO/src/tensorflow_lite/third_party/flatbuffers/include/flatbuffers\flatbuffers.h ****     // Lack of delegating constructors in vs2010 makes it more verbose than needed.
1124:C:/Renesas/e2studio_2021_01_workspace_RZA2M_ANPR/ANPR_RZA2M_GR_MANGO/src/tensorflow_lite/third_party/flatbuffers/include/flatbuffers\flatbuffers.h ****     Swap(other);
1125:C:/Renesas/e2studio_2021_01_workspace_RZA2M_ANPR/ANPR_RZA2M_GR_MANGO/src/tensorflow_lite/third_party/flatbuffers/include/flatbuffers\flatbuffers.h ****   }
1126:C:/Renesas/e2studio_2021_01_workspace_RZA2M_ANPR/ANPR_RZA2M_GR_MANGO/src/tensorflow_lite/third_party/flatbuffers/include/flatbuffers\flatbuffers.h ****   // clang-format on
1127:C:/Renesas/e2studio_2021_01_workspace_RZA2M_ANPR/ANPR_RZA2M_GR_MANGO/src/tensorflow_lite/third_party/flatbuffers/include/flatbuffers\flatbuffers.h **** 
1128:C:/Renesas/e2studio_2021_01_workspace_RZA2M_ANPR/ANPR_RZA2M_GR_MANGO/src/tensorflow_lite/third_party/flatbuffers/include/flatbuffers\flatbuffers.h ****   // clang-format off
1129:C:/Renesas/e2studio_2021_01_workspace_RZA2M_ANPR/ANPR_RZA2M_GR_MANGO/src/tensorflow_lite/third_party/flatbuffers/include/flatbuffers\flatbuffers.h ****   #if !defined(FLATBUFFERS_CPP98_STL)
1130:C:/Renesas/e2studio_2021_01_workspace_RZA2M_ANPR/ANPR_RZA2M_GR_MANGO/src/tensorflow_lite/third_party/flatbuffers/include/flatbuffers\flatbuffers.h ****   // clang-format on
1131:C:/Renesas/e2studio_2021_01_workspace_RZA2M_ANPR/ANPR_RZA2M_GR_MANGO/src/tensorflow_lite/third_party/flatbuffers/include/flatbuffers\flatbuffers.h ****   /// @brief Move assignment operator for FlatBufferBuilder.
1132:C:/Renesas/e2studio_2021_01_workspace_RZA2M_ANPR/ANPR_RZA2M_GR_MANGO/src/tensorflow_lite/third_party/flatbuffers/include/flatbuffers\flatbuffers.h ****   FlatBufferBuilder &operator=(FlatBufferBuilder &&other) {
1133:C:/Renesas/e2studio_2021_01_workspace_RZA2M_ANPR/ANPR_RZA2M_GR_MANGO/src/tensorflow_lite/third_party/flatbuffers/include/flatbuffers\flatbuffers.h ****     // Move construct a temporary and swap idiom
1134:C:/Renesas/e2studio_2021_01_workspace_RZA2M_ANPR/ANPR_RZA2M_GR_MANGO/src/tensorflow_lite/third_party/flatbuffers/include/flatbuffers\flatbuffers.h ****     FlatBufferBuilder temp(std::move(other));
1135:C:/Renesas/e2studio_2021_01_workspace_RZA2M_ANPR/ANPR_RZA2M_GR_MANGO/src/tensorflow_lite/third_party/flatbuffers/include/flatbuffers\flatbuffers.h ****     Swap(temp);
1136:C:/Renesas/e2studio_2021_01_workspace_RZA2M_ANPR/ANPR_RZA2M_GR_MANGO/src/tensorflow_lite/third_party/flatbuffers/include/flatbuffers\flatbuffers.h ****     return *this;
1137:C:/Renesas/e2studio_2021_01_workspace_RZA2M_ANPR/ANPR_RZA2M_GR_MANGO/src/tensorflow_lite/third_party/flatbuffers/include/flatbuffers\flatbuffers.h ****   }
1138:C:/Renesas/e2studio_2021_01_workspace_RZA2M_ANPR/ANPR_RZA2M_GR_MANGO/src/tensorflow_lite/third_party/flatbuffers/include/flatbuffers\flatbuffers.h ****   // clang-format off
1139:C:/Renesas/e2studio_2021_01_workspace_RZA2M_ANPR/ANPR_RZA2M_GR_MANGO/src/tensorflow_lite/third_party/flatbuffers/include/flatbuffers\flatbuffers.h ****   #endif  // defined(FLATBUFFERS_CPP98_STL)
1140:C:/Renesas/e2studio_2021_01_workspace_RZA2M_ANPR/ANPR_RZA2M_GR_MANGO/src/tensorflow_lite/third_party/flatbuffers/include/flatbuffers\flatbuffers.h ****   // clang-format on
1141:C:/Renesas/e2studio_2021_01_workspace_RZA2M_ANPR/ANPR_RZA2M_GR_MANGO/src/tensorflow_lite/third_party/flatbuffers/include/flatbuffers\flatbuffers.h **** 
1142:C:/Renesas/e2studio_2021_01_workspace_RZA2M_ANPR/ANPR_RZA2M_GR_MANGO/src/tensorflow_lite/third_party/flatbuffers/include/flatbuffers\flatbuffers.h ****   void Swap(FlatBufferBuilder &other) {
1143:C:/Renesas/e2studio_2021_01_workspace_RZA2M_ANPR/ANPR_RZA2M_GR_MANGO/src/tensorflow_lite/third_party/flatbuffers/include/flatbuffers\flatbuffers.h ****     using std::swap;
1144:C:/Renesas/e2studio_2021_01_workspace_RZA2M_ANPR/ANPR_RZA2M_GR_MANGO/src/tensorflow_lite/third_party/flatbuffers/include/flatbuffers\flatbuffers.h ****     buf_.swap(other.buf_);
1145:C:/Renesas/e2studio_2021_01_workspace_RZA2M_ANPR/ANPR_RZA2M_GR_MANGO/src/tensorflow_lite/third_party/flatbuffers/include/flatbuffers\flatbuffers.h ****     swap(num_field_loc, other.num_field_loc);
1146:C:/Renesas/e2studio_2021_01_workspace_RZA2M_ANPR/ANPR_RZA2M_GR_MANGO/src/tensorflow_lite/third_party/flatbuffers/include/flatbuffers\flatbuffers.h ****     swap(max_voffset_, other.max_voffset_);
1147:C:/Renesas/e2studio_2021_01_workspace_RZA2M_ANPR/ANPR_RZA2M_GR_MANGO/src/tensorflow_lite/third_party/flatbuffers/include/flatbuffers\flatbuffers.h ****     swap(nested, other.nested);
1148:C:/Renesas/e2studio_2021_01_workspace_RZA2M_ANPR/ANPR_RZA2M_GR_MANGO/src/tensorflow_lite/third_party/flatbuffers/include/flatbuffers\flatbuffers.h ****     swap(finished, other.finished);
1149:C:/Renesas/e2studio_2021_01_workspace_RZA2M_ANPR/ANPR_RZA2M_GR_MANGO/src/tensorflow_lite/third_party/flatbuffers/include/flatbuffers\flatbuffers.h ****     swap(minalign_, other.minalign_);
1150:C:/Renesas/e2studio_2021_01_workspace_RZA2M_ANPR/ANPR_RZA2M_GR_MANGO/src/tensorflow_lite/third_party/flatbuffers/include/flatbuffers\flatbuffers.h ****     swap(force_defaults_, other.force_defaults_);
1151:C:/Renesas/e2studio_2021_01_workspace_RZA2M_ANPR/ANPR_RZA2M_GR_MANGO/src/tensorflow_lite/third_party/flatbuffers/include/flatbuffers\flatbuffers.h ****     swap(dedup_vtables_, other.dedup_vtables_);
1152:C:/Renesas/e2studio_2021_01_workspace_RZA2M_ANPR/ANPR_RZA2M_GR_MANGO/src/tensorflow_lite/third_party/flatbuffers/include/flatbuffers\flatbuffers.h ****     swap(string_pool, other.string_pool);
1153:C:/Renesas/e2studio_2021_01_workspace_RZA2M_ANPR/ANPR_RZA2M_GR_MANGO/src/tensorflow_lite/third_party/flatbuffers/include/flatbuffers\flatbuffers.h ****   }
1154:C:/Renesas/e2studio_2021_01_workspace_RZA2M_ANPR/ANPR_RZA2M_GR_MANGO/src/tensorflow_lite/third_party/flatbuffers/include/flatbuffers\flatbuffers.h **** 
1155:C:/Renesas/e2studio_2021_01_workspace_RZA2M_ANPR/ANPR_RZA2M_GR_MANGO/src/tensorflow_lite/third_party/flatbuffers/include/flatbuffers\flatbuffers.h ****   ~FlatBufferBuilder() {
1156:C:/Renesas/e2studio_2021_01_workspace_RZA2M_ANPR/ANPR_RZA2M_GR_MANGO/src/tensorflow_lite/third_party/flatbuffers/include/flatbuffers\flatbuffers.h ****     if (string_pool) delete string_pool;
1157:C:/Renesas/e2studio_2021_01_workspace_RZA2M_ANPR/ANPR_RZA2M_GR_MANGO/src/tensorflow_lite/third_party/flatbuffers/include/flatbuffers\flatbuffers.h ****   }
1158:C:/Renesas/e2studio_2021_01_workspace_RZA2M_ANPR/ANPR_RZA2M_GR_MANGO/src/tensorflow_lite/third_party/flatbuffers/include/flatbuffers\flatbuffers.h **** 
1159:C:/Renesas/e2studio_2021_01_workspace_RZA2M_ANPR/ANPR_RZA2M_GR_MANGO/src/tensorflow_lite/third_party/flatbuffers/include/flatbuffers\flatbuffers.h ****   void Reset() {
1160:C:/Renesas/e2studio_2021_01_workspace_RZA2M_ANPR/ANPR_RZA2M_GR_MANGO/src/tensorflow_lite/third_party/flatbuffers/include/flatbuffers\flatbuffers.h ****     Clear();       // clear builder state
1161:C:/Renesas/e2studio_2021_01_workspace_RZA2M_ANPR/ANPR_RZA2M_GR_MANGO/src/tensorflow_lite/third_party/flatbuffers/include/flatbuffers\flatbuffers.h ****     buf_.reset();  // deallocate buffer
1162:C:/Renesas/e2studio_2021_01_workspace_RZA2M_ANPR/ANPR_RZA2M_GR_MANGO/src/tensorflow_lite/third_party/flatbuffers/include/flatbuffers\flatbuffers.h ****   }
1163:C:/Renesas/e2studio_2021_01_workspace_RZA2M_ANPR/ANPR_RZA2M_GR_MANGO/src/tensorflow_lite/third_party/flatbuffers/include/flatbuffers\flatbuffers.h **** 
1164:C:/Renesas/e2studio_2021_01_workspace_RZA2M_ANPR/ANPR_RZA2M_GR_MANGO/src/tensorflow_lite/third_party/flatbuffers/include/flatbuffers\flatbuffers.h ****   /// @brief Reset all the state in this FlatBufferBuilder so it can be reused
1165:C:/Renesas/e2studio_2021_01_workspace_RZA2M_ANPR/ANPR_RZA2M_GR_MANGO/src/tensorflow_lite/third_party/flatbuffers/include/flatbuffers\flatbuffers.h ****   /// to construct another buffer.
1166:C:/Renesas/e2studio_2021_01_workspace_RZA2M_ANPR/ANPR_RZA2M_GR_MANGO/src/tensorflow_lite/third_party/flatbuffers/include/flatbuffers\flatbuffers.h ****   void Clear() {
1167:C:/Renesas/e2studio_2021_01_workspace_RZA2M_ANPR/ANPR_RZA2M_GR_MANGO/src/tensorflow_lite/third_party/flatbuffers/include/flatbuffers\flatbuffers.h ****     ClearOffsets();
1168:C:/Renesas/e2studio_2021_01_workspace_RZA2M_ANPR/ANPR_RZA2M_GR_MANGO/src/tensorflow_lite/third_party/flatbuffers/include/flatbuffers\flatbuffers.h ****     buf_.clear();
1169:C:/Renesas/e2studio_2021_01_workspace_RZA2M_ANPR/ANPR_RZA2M_GR_MANGO/src/tensorflow_lite/third_party/flatbuffers/include/flatbuffers\flatbuffers.h ****     nested = false;
1170:C:/Renesas/e2studio_2021_01_workspace_RZA2M_ANPR/ANPR_RZA2M_GR_MANGO/src/tensorflow_lite/third_party/flatbuffers/include/flatbuffers\flatbuffers.h ****     finished = false;
1171:C:/Renesas/e2studio_2021_01_workspace_RZA2M_ANPR/ANPR_RZA2M_GR_MANGO/src/tensorflow_lite/third_party/flatbuffers/include/flatbuffers\flatbuffers.h ****     minalign_ = 1;
1172:C:/Renesas/e2studio_2021_01_workspace_RZA2M_ANPR/ANPR_RZA2M_GR_MANGO/src/tensorflow_lite/third_party/flatbuffers/include/flatbuffers\flatbuffers.h ****     if (string_pool) string_pool->clear();
1173:C:/Renesas/e2studio_2021_01_workspace_RZA2M_ANPR/ANPR_RZA2M_GR_MANGO/src/tensorflow_lite/third_party/flatbuffers/include/flatbuffers\flatbuffers.h ****   }
1174:C:/Renesas/e2studio_2021_01_workspace_RZA2M_ANPR/ANPR_RZA2M_GR_MANGO/src/tensorflow_lite/third_party/flatbuffers/include/flatbuffers\flatbuffers.h **** 
1175:C:/Renesas/e2studio_2021_01_workspace_RZA2M_ANPR/ANPR_RZA2M_GR_MANGO/src/tensorflow_lite/third_party/flatbuffers/include/flatbuffers\flatbuffers.h ****   /// @brief The current size of the serialized buffer, counting from the end.
1176:C:/Renesas/e2studio_2021_01_workspace_RZA2M_ANPR/ANPR_RZA2M_GR_MANGO/src/tensorflow_lite/third_party/flatbuffers/include/flatbuffers\flatbuffers.h ****   /// @return Returns an `uoffset_t` with the current size of the buffer.
1177:C:/Renesas/e2studio_2021_01_workspace_RZA2M_ANPR/ANPR_RZA2M_GR_MANGO/src/tensorflow_lite/third_party/flatbuffers/include/flatbuffers\flatbuffers.h ****   uoffset_t GetSize() const { return buf_.size(); }
1178:C:/Renesas/e2studio_2021_01_workspace_RZA2M_ANPR/ANPR_RZA2M_GR_MANGO/src/tensorflow_lite/third_party/flatbuffers/include/flatbuffers\flatbuffers.h **** 
1179:C:/Renesas/e2studio_2021_01_workspace_RZA2M_ANPR/ANPR_RZA2M_GR_MANGO/src/tensorflow_lite/third_party/flatbuffers/include/flatbuffers\flatbuffers.h ****   /// @brief Get the serialized buffer (after you call `Finish()`).
1180:C:/Renesas/e2studio_2021_01_workspace_RZA2M_ANPR/ANPR_RZA2M_GR_MANGO/src/tensorflow_lite/third_party/flatbuffers/include/flatbuffers\flatbuffers.h ****   /// @return Returns an `uint8_t` pointer to the FlatBuffer data inside the
1181:C:/Renesas/e2studio_2021_01_workspace_RZA2M_ANPR/ANPR_RZA2M_GR_MANGO/src/tensorflow_lite/third_party/flatbuffers/include/flatbuffers\flatbuffers.h ****   /// buffer.
1182:C:/Renesas/e2studio_2021_01_workspace_RZA2M_ANPR/ANPR_RZA2M_GR_MANGO/src/tensorflow_lite/third_party/flatbuffers/include/flatbuffers\flatbuffers.h ****   uint8_t *GetBufferPointer() const {
1183:C:/Renesas/e2studio_2021_01_workspace_RZA2M_ANPR/ANPR_RZA2M_GR_MANGO/src/tensorflow_lite/third_party/flatbuffers/include/flatbuffers\flatbuffers.h ****     Finished();
1184:C:/Renesas/e2studio_2021_01_workspace_RZA2M_ANPR/ANPR_RZA2M_GR_MANGO/src/tensorflow_lite/third_party/flatbuffers/include/flatbuffers\flatbuffers.h ****     return buf_.data();
1185:C:/Renesas/e2studio_2021_01_workspace_RZA2M_ANPR/ANPR_RZA2M_GR_MANGO/src/tensorflow_lite/third_party/flatbuffers/include/flatbuffers\flatbuffers.h ****   }
1186:C:/Renesas/e2studio_2021_01_workspace_RZA2M_ANPR/ANPR_RZA2M_GR_MANGO/src/tensorflow_lite/third_party/flatbuffers/include/flatbuffers\flatbuffers.h **** 
1187:C:/Renesas/e2studio_2021_01_workspace_RZA2M_ANPR/ANPR_RZA2M_GR_MANGO/src/tensorflow_lite/third_party/flatbuffers/include/flatbuffers\flatbuffers.h ****   /// @brief Get a pointer to an unfinished buffer.
1188:C:/Renesas/e2studio_2021_01_workspace_RZA2M_ANPR/ANPR_RZA2M_GR_MANGO/src/tensorflow_lite/third_party/flatbuffers/include/flatbuffers\flatbuffers.h ****   /// @return Returns a `uint8_t` pointer to the unfinished buffer.
1189:C:/Renesas/e2studio_2021_01_workspace_RZA2M_ANPR/ANPR_RZA2M_GR_MANGO/src/tensorflow_lite/third_party/flatbuffers/include/flatbuffers\flatbuffers.h ****   uint8_t *GetCurrentBufferPointer() const { return buf_.data(); }
1190:C:/Renesas/e2studio_2021_01_workspace_RZA2M_ANPR/ANPR_RZA2M_GR_MANGO/src/tensorflow_lite/third_party/flatbuffers/include/flatbuffers\flatbuffers.h **** 
1191:C:/Renesas/e2studio_2021_01_workspace_RZA2M_ANPR/ANPR_RZA2M_GR_MANGO/src/tensorflow_lite/third_party/flatbuffers/include/flatbuffers\flatbuffers.h ****   /// @brief Get the released pointer to the serialized buffer.
1192:C:/Renesas/e2studio_2021_01_workspace_RZA2M_ANPR/ANPR_RZA2M_GR_MANGO/src/tensorflow_lite/third_party/flatbuffers/include/flatbuffers\flatbuffers.h ****   /// @warning Do NOT attempt to use this FlatBufferBuilder afterwards!
1193:C:/Renesas/e2studio_2021_01_workspace_RZA2M_ANPR/ANPR_RZA2M_GR_MANGO/src/tensorflow_lite/third_party/flatbuffers/include/flatbuffers\flatbuffers.h ****   /// @return A `FlatBuffer` that owns the buffer and its allocator and
1194:C:/Renesas/e2studio_2021_01_workspace_RZA2M_ANPR/ANPR_RZA2M_GR_MANGO/src/tensorflow_lite/third_party/flatbuffers/include/flatbuffers\flatbuffers.h ****   /// behaves similar to a `unique_ptr` with a deleter.
1195:C:/Renesas/e2studio_2021_01_workspace_RZA2M_ANPR/ANPR_RZA2M_GR_MANGO/src/tensorflow_lite/third_party/flatbuffers/include/flatbuffers\flatbuffers.h ****   FLATBUFFERS_ATTRIBUTE(deprecated("use Release() instead"))
1196:C:/Renesas/e2studio_2021_01_workspace_RZA2M_ANPR/ANPR_RZA2M_GR_MANGO/src/tensorflow_lite/third_party/flatbuffers/include/flatbuffers\flatbuffers.h ****   DetachedBuffer ReleaseBufferPointer() {
1197:C:/Renesas/e2studio_2021_01_workspace_RZA2M_ANPR/ANPR_RZA2M_GR_MANGO/src/tensorflow_lite/third_party/flatbuffers/include/flatbuffers\flatbuffers.h ****     Finished();
1198:C:/Renesas/e2studio_2021_01_workspace_RZA2M_ANPR/ANPR_RZA2M_GR_MANGO/src/tensorflow_lite/third_party/flatbuffers/include/flatbuffers\flatbuffers.h ****     return buf_.release();
1199:C:/Renesas/e2studio_2021_01_workspace_RZA2M_ANPR/ANPR_RZA2M_GR_MANGO/src/tensorflow_lite/third_party/flatbuffers/include/flatbuffers\flatbuffers.h ****   }
1200:C:/Renesas/e2studio_2021_01_workspace_RZA2M_ANPR/ANPR_RZA2M_GR_MANGO/src/tensorflow_lite/third_party/flatbuffers/include/flatbuffers\flatbuffers.h **** 
1201:C:/Renesas/e2studio_2021_01_workspace_RZA2M_ANPR/ANPR_RZA2M_GR_MANGO/src/tensorflow_lite/third_party/flatbuffers/include/flatbuffers\flatbuffers.h ****   /// @brief Get the released DetachedBuffer.
1202:C:/Renesas/e2studio_2021_01_workspace_RZA2M_ANPR/ANPR_RZA2M_GR_MANGO/src/tensorflow_lite/third_party/flatbuffers/include/flatbuffers\flatbuffers.h ****   /// @return A `DetachedBuffer` that owns the buffer and its allocator.
1203:C:/Renesas/e2studio_2021_01_workspace_RZA2M_ANPR/ANPR_RZA2M_GR_MANGO/src/tensorflow_lite/third_party/flatbuffers/include/flatbuffers\flatbuffers.h ****   DetachedBuffer Release() {
1204:C:/Renesas/e2studio_2021_01_workspace_RZA2M_ANPR/ANPR_RZA2M_GR_MANGO/src/tensorflow_lite/third_party/flatbuffers/include/flatbuffers\flatbuffers.h ****     Finished();
1205:C:/Renesas/e2studio_2021_01_workspace_RZA2M_ANPR/ANPR_RZA2M_GR_MANGO/src/tensorflow_lite/third_party/flatbuffers/include/flatbuffers\flatbuffers.h ****     return buf_.release();
1206:C:/Renesas/e2studio_2021_01_workspace_RZA2M_ANPR/ANPR_RZA2M_GR_MANGO/src/tensorflow_lite/third_party/flatbuffers/include/flatbuffers\flatbuffers.h ****   }
1207:C:/Renesas/e2studio_2021_01_workspace_RZA2M_ANPR/ANPR_RZA2M_GR_MANGO/src/tensorflow_lite/third_party/flatbuffers/include/flatbuffers\flatbuffers.h **** 
1208:C:/Renesas/e2studio_2021_01_workspace_RZA2M_ANPR/ANPR_RZA2M_GR_MANGO/src/tensorflow_lite/third_party/flatbuffers/include/flatbuffers\flatbuffers.h ****   /// @brief Get the released pointer to the serialized buffer.
1209:C:/Renesas/e2studio_2021_01_workspace_RZA2M_ANPR/ANPR_RZA2M_GR_MANGO/src/tensorflow_lite/third_party/flatbuffers/include/flatbuffers\flatbuffers.h ****   /// @param size The size of the memory block containing
1210:C:/Renesas/e2studio_2021_01_workspace_RZA2M_ANPR/ANPR_RZA2M_GR_MANGO/src/tensorflow_lite/third_party/flatbuffers/include/flatbuffers\flatbuffers.h ****   /// the serialized `FlatBuffer`.
1211:C:/Renesas/e2studio_2021_01_workspace_RZA2M_ANPR/ANPR_RZA2M_GR_MANGO/src/tensorflow_lite/third_party/flatbuffers/include/flatbuffers\flatbuffers.h ****   /// @param offset The offset from the released pointer where the finished
1212:C:/Renesas/e2studio_2021_01_workspace_RZA2M_ANPR/ANPR_RZA2M_GR_MANGO/src/tensorflow_lite/third_party/flatbuffers/include/flatbuffers\flatbuffers.h ****   /// `FlatBuffer` starts.
1213:C:/Renesas/e2studio_2021_01_workspace_RZA2M_ANPR/ANPR_RZA2M_GR_MANGO/src/tensorflow_lite/third_party/flatbuffers/include/flatbuffers\flatbuffers.h ****   /// @return A raw pointer to the start of the memory block containing
1214:C:/Renesas/e2studio_2021_01_workspace_RZA2M_ANPR/ANPR_RZA2M_GR_MANGO/src/tensorflow_lite/third_party/flatbuffers/include/flatbuffers\flatbuffers.h ****   /// the serialized `FlatBuffer`.
1215:C:/Renesas/e2studio_2021_01_workspace_RZA2M_ANPR/ANPR_RZA2M_GR_MANGO/src/tensorflow_lite/third_party/flatbuffers/include/flatbuffers\flatbuffers.h ****   /// @remark If the allocator is owned, it gets deleted when the destructor is
1216:C:/Renesas/e2studio_2021_01_workspace_RZA2M_ANPR/ANPR_RZA2M_GR_MANGO/src/tensorflow_lite/third_party/flatbuffers/include/flatbuffers\flatbuffers.h ****   /// called..
1217:C:/Renesas/e2studio_2021_01_workspace_RZA2M_ANPR/ANPR_RZA2M_GR_MANGO/src/tensorflow_lite/third_party/flatbuffers/include/flatbuffers\flatbuffers.h ****   uint8_t *ReleaseRaw(size_t &size, size_t &offset) {
1218:C:/Renesas/e2studio_2021_01_workspace_RZA2M_ANPR/ANPR_RZA2M_GR_MANGO/src/tensorflow_lite/third_party/flatbuffers/include/flatbuffers\flatbuffers.h ****     Finished();
1219:C:/Renesas/e2studio_2021_01_workspace_RZA2M_ANPR/ANPR_RZA2M_GR_MANGO/src/tensorflow_lite/third_party/flatbuffers/include/flatbuffers\flatbuffers.h ****     return buf_.release_raw(size, offset);
1220:C:/Renesas/e2studio_2021_01_workspace_RZA2M_ANPR/ANPR_RZA2M_GR_MANGO/src/tensorflow_lite/third_party/flatbuffers/include/flatbuffers\flatbuffers.h ****   }
1221:C:/Renesas/e2studio_2021_01_workspace_RZA2M_ANPR/ANPR_RZA2M_GR_MANGO/src/tensorflow_lite/third_party/flatbuffers/include/flatbuffers\flatbuffers.h **** 
1222:C:/Renesas/e2studio_2021_01_workspace_RZA2M_ANPR/ANPR_RZA2M_GR_MANGO/src/tensorflow_lite/third_party/flatbuffers/include/flatbuffers\flatbuffers.h ****   /// @brief get the minimum alignment this buffer needs to be accessed
1223:C:/Renesas/e2studio_2021_01_workspace_RZA2M_ANPR/ANPR_RZA2M_GR_MANGO/src/tensorflow_lite/third_party/flatbuffers/include/flatbuffers\flatbuffers.h ****   /// properly. This is only known once all elements have been written (after
1224:C:/Renesas/e2studio_2021_01_workspace_RZA2M_ANPR/ANPR_RZA2M_GR_MANGO/src/tensorflow_lite/third_party/flatbuffers/include/flatbuffers\flatbuffers.h ****   /// you call Finish()). You can use this information if you need to embed
1225:C:/Renesas/e2studio_2021_01_workspace_RZA2M_ANPR/ANPR_RZA2M_GR_MANGO/src/tensorflow_lite/third_party/flatbuffers/include/flatbuffers\flatbuffers.h ****   /// a FlatBuffer in some other buffer, such that you can later read it
1226:C:/Renesas/e2studio_2021_01_workspace_RZA2M_ANPR/ANPR_RZA2M_GR_MANGO/src/tensorflow_lite/third_party/flatbuffers/include/flatbuffers\flatbuffers.h ****   /// without first having to copy it into its own buffer.
1227:C:/Renesas/e2studio_2021_01_workspace_RZA2M_ANPR/ANPR_RZA2M_GR_MANGO/src/tensorflow_lite/third_party/flatbuffers/include/flatbuffers\flatbuffers.h ****   size_t GetBufferMinAlignment() const {
1228:C:/Renesas/e2studio_2021_01_workspace_RZA2M_ANPR/ANPR_RZA2M_GR_MANGO/src/tensorflow_lite/third_party/flatbuffers/include/flatbuffers\flatbuffers.h ****     Finished();
1229:C:/Renesas/e2studio_2021_01_workspace_RZA2M_ANPR/ANPR_RZA2M_GR_MANGO/src/tensorflow_lite/third_party/flatbuffers/include/flatbuffers\flatbuffers.h ****     return minalign_;
1230:C:/Renesas/e2studio_2021_01_workspace_RZA2M_ANPR/ANPR_RZA2M_GR_MANGO/src/tensorflow_lite/third_party/flatbuffers/include/flatbuffers\flatbuffers.h ****   }
1231:C:/Renesas/e2studio_2021_01_workspace_RZA2M_ANPR/ANPR_RZA2M_GR_MANGO/src/tensorflow_lite/third_party/flatbuffers/include/flatbuffers\flatbuffers.h **** 
1232:C:/Renesas/e2studio_2021_01_workspace_RZA2M_ANPR/ANPR_RZA2M_GR_MANGO/src/tensorflow_lite/third_party/flatbuffers/include/flatbuffers\flatbuffers.h ****   /// @cond FLATBUFFERS_INTERNAL
1233:C:/Renesas/e2studio_2021_01_workspace_RZA2M_ANPR/ANPR_RZA2M_GR_MANGO/src/tensorflow_lite/third_party/flatbuffers/include/flatbuffers\flatbuffers.h ****   void Finished() const {
1234:C:/Renesas/e2studio_2021_01_workspace_RZA2M_ANPR/ANPR_RZA2M_GR_MANGO/src/tensorflow_lite/third_party/flatbuffers/include/flatbuffers\flatbuffers.h ****     // If you get this assert, you're attempting to get access a buffer
1235:C:/Renesas/e2studio_2021_01_workspace_RZA2M_ANPR/ANPR_RZA2M_GR_MANGO/src/tensorflow_lite/third_party/flatbuffers/include/flatbuffers\flatbuffers.h ****     // which hasn't been finished yet. Be sure to call
1236:C:/Renesas/e2studio_2021_01_workspace_RZA2M_ANPR/ANPR_RZA2M_GR_MANGO/src/tensorflow_lite/third_party/flatbuffers/include/flatbuffers\flatbuffers.h ****     // FlatBufferBuilder::Finish with your root table.
1237:C:/Renesas/e2studio_2021_01_workspace_RZA2M_ANPR/ANPR_RZA2M_GR_MANGO/src/tensorflow_lite/third_party/flatbuffers/include/flatbuffers\flatbuffers.h ****     // If you really need to access an unfinished buffer, call
1238:C:/Renesas/e2studio_2021_01_workspace_RZA2M_ANPR/ANPR_RZA2M_GR_MANGO/src/tensorflow_lite/third_party/flatbuffers/include/flatbuffers\flatbuffers.h ****     // GetCurrentBufferPointer instead.
1239:C:/Renesas/e2studio_2021_01_workspace_RZA2M_ANPR/ANPR_RZA2M_GR_MANGO/src/tensorflow_lite/third_party/flatbuffers/include/flatbuffers\flatbuffers.h ****     FLATBUFFERS_ASSERT(finished);
1240:C:/Renesas/e2studio_2021_01_workspace_RZA2M_ANPR/ANPR_RZA2M_GR_MANGO/src/tensorflow_lite/third_party/flatbuffers/include/flatbuffers\flatbuffers.h ****   }
1241:C:/Renesas/e2studio_2021_01_workspace_RZA2M_ANPR/ANPR_RZA2M_GR_MANGO/src/tensorflow_lite/third_party/flatbuffers/include/flatbuffers\flatbuffers.h ****   /// @endcond
1242:C:/Renesas/e2studio_2021_01_workspace_RZA2M_ANPR/ANPR_RZA2M_GR_MANGO/src/tensorflow_lite/third_party/flatbuffers/include/flatbuffers\flatbuffers.h **** 
1243:C:/Renesas/e2studio_2021_01_workspace_RZA2M_ANPR/ANPR_RZA2M_GR_MANGO/src/tensorflow_lite/third_party/flatbuffers/include/flatbuffers\flatbuffers.h ****   /// @brief In order to save space, fields that are set to their default value
1244:C:/Renesas/e2studio_2021_01_workspace_RZA2M_ANPR/ANPR_RZA2M_GR_MANGO/src/tensorflow_lite/third_party/flatbuffers/include/flatbuffers\flatbuffers.h ****   /// don't get serialized into the buffer.
1245:C:/Renesas/e2studio_2021_01_workspace_RZA2M_ANPR/ANPR_RZA2M_GR_MANGO/src/tensorflow_lite/third_party/flatbuffers/include/flatbuffers\flatbuffers.h ****   /// @param[in] fd When set to `true`, always serializes default values that
1246:C:/Renesas/e2studio_2021_01_workspace_RZA2M_ANPR/ANPR_RZA2M_GR_MANGO/src/tensorflow_lite/third_party/flatbuffers/include/flatbuffers\flatbuffers.h ****   /// are set. Optional fields which are not set explicitly, will still not be
1247:C:/Renesas/e2studio_2021_01_workspace_RZA2M_ANPR/ANPR_RZA2M_GR_MANGO/src/tensorflow_lite/third_party/flatbuffers/include/flatbuffers\flatbuffers.h ****   /// serialized.
1248:C:/Renesas/e2studio_2021_01_workspace_RZA2M_ANPR/ANPR_RZA2M_GR_MANGO/src/tensorflow_lite/third_party/flatbuffers/include/flatbuffers\flatbuffers.h ****   void ForceDefaults(bool fd) { force_defaults_ = fd; }
1249:C:/Renesas/e2studio_2021_01_workspace_RZA2M_ANPR/ANPR_RZA2M_GR_MANGO/src/tensorflow_lite/third_party/flatbuffers/include/flatbuffers\flatbuffers.h **** 
1250:C:/Renesas/e2studio_2021_01_workspace_RZA2M_ANPR/ANPR_RZA2M_GR_MANGO/src/tensorflow_lite/third_party/flatbuffers/include/flatbuffers\flatbuffers.h ****   /// @brief By default vtables are deduped in order to save space.
1251:C:/Renesas/e2studio_2021_01_workspace_RZA2M_ANPR/ANPR_RZA2M_GR_MANGO/src/tensorflow_lite/third_party/flatbuffers/include/flatbuffers\flatbuffers.h ****   /// @param[in] dedup When set to `true`, dedup vtables.
1252:C:/Renesas/e2studio_2021_01_workspace_RZA2M_ANPR/ANPR_RZA2M_GR_MANGO/src/tensorflow_lite/third_party/flatbuffers/include/flatbuffers\flatbuffers.h ****   void DedupVtables(bool dedup) { dedup_vtables_ = dedup; }
1253:C:/Renesas/e2studio_2021_01_workspace_RZA2M_ANPR/ANPR_RZA2M_GR_MANGO/src/tensorflow_lite/third_party/flatbuffers/include/flatbuffers\flatbuffers.h **** 
1254:C:/Renesas/e2studio_2021_01_workspace_RZA2M_ANPR/ANPR_RZA2M_GR_MANGO/src/tensorflow_lite/third_party/flatbuffers/include/flatbuffers\flatbuffers.h ****   /// @cond FLATBUFFERS_INTERNAL
1255:C:/Renesas/e2studio_2021_01_workspace_RZA2M_ANPR/ANPR_RZA2M_GR_MANGO/src/tensorflow_lite/third_party/flatbuffers/include/flatbuffers\flatbuffers.h ****   void Pad(size_t num_bytes) { buf_.fill(num_bytes); }
1256:C:/Renesas/e2studio_2021_01_workspace_RZA2M_ANPR/ANPR_RZA2M_GR_MANGO/src/tensorflow_lite/third_party/flatbuffers/include/flatbuffers\flatbuffers.h **** 
1257:C:/Renesas/e2studio_2021_01_workspace_RZA2M_ANPR/ANPR_RZA2M_GR_MANGO/src/tensorflow_lite/third_party/flatbuffers/include/flatbuffers\flatbuffers.h ****   void TrackMinAlign(size_t elem_size) {
1258:C:/Renesas/e2studio_2021_01_workspace_RZA2M_ANPR/ANPR_RZA2M_GR_MANGO/src/tensorflow_lite/third_party/flatbuffers/include/flatbuffers\flatbuffers.h ****     if (elem_size > minalign_) minalign_ = elem_size;
1259:C:/Renesas/e2studio_2021_01_workspace_RZA2M_ANPR/ANPR_RZA2M_GR_MANGO/src/tensorflow_lite/third_party/flatbuffers/include/flatbuffers\flatbuffers.h ****   }
1260:C:/Renesas/e2studio_2021_01_workspace_RZA2M_ANPR/ANPR_RZA2M_GR_MANGO/src/tensorflow_lite/third_party/flatbuffers/include/flatbuffers\flatbuffers.h **** 
1261:C:/Renesas/e2studio_2021_01_workspace_RZA2M_ANPR/ANPR_RZA2M_GR_MANGO/src/tensorflow_lite/third_party/flatbuffers/include/flatbuffers\flatbuffers.h ****   void Align(size_t elem_size) {
1262:C:/Renesas/e2studio_2021_01_workspace_RZA2M_ANPR/ANPR_RZA2M_GR_MANGO/src/tensorflow_lite/third_party/flatbuffers/include/flatbuffers\flatbuffers.h ****     TrackMinAlign(elem_size);
1263:C:/Renesas/e2studio_2021_01_workspace_RZA2M_ANPR/ANPR_RZA2M_GR_MANGO/src/tensorflow_lite/third_party/flatbuffers/include/flatbuffers\flatbuffers.h ****     buf_.fill(PaddingBytes(buf_.size(), elem_size));
1264:C:/Renesas/e2studio_2021_01_workspace_RZA2M_ANPR/ANPR_RZA2M_GR_MANGO/src/tensorflow_lite/third_party/flatbuffers/include/flatbuffers\flatbuffers.h ****   }
1265:C:/Renesas/e2studio_2021_01_workspace_RZA2M_ANPR/ANPR_RZA2M_GR_MANGO/src/tensorflow_lite/third_party/flatbuffers/include/flatbuffers\flatbuffers.h **** 
1266:C:/Renesas/e2studio_2021_01_workspace_RZA2M_ANPR/ANPR_RZA2M_GR_MANGO/src/tensorflow_lite/third_party/flatbuffers/include/flatbuffers\flatbuffers.h ****   void PushFlatBuffer(const uint8_t *bytes, size_t size) {
1267:C:/Renesas/e2studio_2021_01_workspace_RZA2M_ANPR/ANPR_RZA2M_GR_MANGO/src/tensorflow_lite/third_party/flatbuffers/include/flatbuffers\flatbuffers.h ****     PushBytes(bytes, size);
1268:C:/Renesas/e2studio_2021_01_workspace_RZA2M_ANPR/ANPR_RZA2M_GR_MANGO/src/tensorflow_lite/third_party/flatbuffers/include/flatbuffers\flatbuffers.h ****     finished = true;
1269:C:/Renesas/e2studio_2021_01_workspace_RZA2M_ANPR/ANPR_RZA2M_GR_MANGO/src/tensorflow_lite/third_party/flatbuffers/include/flatbuffers\flatbuffers.h ****   }
1270:C:/Renesas/e2studio_2021_01_workspace_RZA2M_ANPR/ANPR_RZA2M_GR_MANGO/src/tensorflow_lite/third_party/flatbuffers/include/flatbuffers\flatbuffers.h **** 
1271:C:/Renesas/e2studio_2021_01_workspace_RZA2M_ANPR/ANPR_RZA2M_GR_MANGO/src/tensorflow_lite/third_party/flatbuffers/include/flatbuffers\flatbuffers.h ****   void PushBytes(const uint8_t *bytes, size_t size) { buf_.push(bytes, size); }
1272:C:/Renesas/e2studio_2021_01_workspace_RZA2M_ANPR/ANPR_RZA2M_GR_MANGO/src/tensorflow_lite/third_party/flatbuffers/include/flatbuffers\flatbuffers.h **** 
1273:C:/Renesas/e2studio_2021_01_workspace_RZA2M_ANPR/ANPR_RZA2M_GR_MANGO/src/tensorflow_lite/third_party/flatbuffers/include/flatbuffers\flatbuffers.h ****   void PopBytes(size_t amount) { buf_.pop(amount); }
1274:C:/Renesas/e2studio_2021_01_workspace_RZA2M_ANPR/ANPR_RZA2M_GR_MANGO/src/tensorflow_lite/third_party/flatbuffers/include/flatbuffers\flatbuffers.h **** 
1275:C:/Renesas/e2studio_2021_01_workspace_RZA2M_ANPR/ANPR_RZA2M_GR_MANGO/src/tensorflow_lite/third_party/flatbuffers/include/flatbuffers\flatbuffers.h ****   template<typename T> void AssertScalarT() {
1276:C:/Renesas/e2studio_2021_01_workspace_RZA2M_ANPR/ANPR_RZA2M_GR_MANGO/src/tensorflow_lite/third_party/flatbuffers/include/flatbuffers\flatbuffers.h ****     // The code assumes power of 2 sizes and endian-swap-ability.
1277:C:/Renesas/e2studio_2021_01_workspace_RZA2M_ANPR/ANPR_RZA2M_GR_MANGO/src/tensorflow_lite/third_party/flatbuffers/include/flatbuffers\flatbuffers.h ****     static_assert(flatbuffers::is_scalar<T>::value, "T must be a scalar type");
1278:C:/Renesas/e2studio_2021_01_workspace_RZA2M_ANPR/ANPR_RZA2M_GR_MANGO/src/tensorflow_lite/third_party/flatbuffers/include/flatbuffers\flatbuffers.h ****   }
1279:C:/Renesas/e2studio_2021_01_workspace_RZA2M_ANPR/ANPR_RZA2M_GR_MANGO/src/tensorflow_lite/third_party/flatbuffers/include/flatbuffers\flatbuffers.h **** 
1280:C:/Renesas/e2studio_2021_01_workspace_RZA2M_ANPR/ANPR_RZA2M_GR_MANGO/src/tensorflow_lite/third_party/flatbuffers/include/flatbuffers\flatbuffers.h ****   // Write a single aligned scalar to the buffer
1281:C:/Renesas/e2studio_2021_01_workspace_RZA2M_ANPR/ANPR_RZA2M_GR_MANGO/src/tensorflow_lite/third_party/flatbuffers/include/flatbuffers\flatbuffers.h ****   template<typename T> uoffset_t PushElement(T element) {
1282:C:/Renesas/e2studio_2021_01_workspace_RZA2M_ANPR/ANPR_RZA2M_GR_MANGO/src/tensorflow_lite/third_party/flatbuffers/include/flatbuffers\flatbuffers.h ****     AssertScalarT<T>();
1283:C:/Renesas/e2studio_2021_01_workspace_RZA2M_ANPR/ANPR_RZA2M_GR_MANGO/src/tensorflow_lite/third_party/flatbuffers/include/flatbuffers\flatbuffers.h ****     T litle_endian_element = EndianScalar(element);
1284:C:/Renesas/e2studio_2021_01_workspace_RZA2M_ANPR/ANPR_RZA2M_GR_MANGO/src/tensorflow_lite/third_party/flatbuffers/include/flatbuffers\flatbuffers.h ****     Align(sizeof(T));
1285:C:/Renesas/e2studio_2021_01_workspace_RZA2M_ANPR/ANPR_RZA2M_GR_MANGO/src/tensorflow_lite/third_party/flatbuffers/include/flatbuffers\flatbuffers.h ****     buf_.push_small(litle_endian_element);
1286:C:/Renesas/e2studio_2021_01_workspace_RZA2M_ANPR/ANPR_RZA2M_GR_MANGO/src/tensorflow_lite/third_party/flatbuffers/include/flatbuffers\flatbuffers.h ****     return GetSize();
1287:C:/Renesas/e2studio_2021_01_workspace_RZA2M_ANPR/ANPR_RZA2M_GR_MANGO/src/tensorflow_lite/third_party/flatbuffers/include/flatbuffers\flatbuffers.h ****   }
1288:C:/Renesas/e2studio_2021_01_workspace_RZA2M_ANPR/ANPR_RZA2M_GR_MANGO/src/tensorflow_lite/third_party/flatbuffers/include/flatbuffers\flatbuffers.h **** 
1289:C:/Renesas/e2studio_2021_01_workspace_RZA2M_ANPR/ANPR_RZA2M_GR_MANGO/src/tensorflow_lite/third_party/flatbuffers/include/flatbuffers\flatbuffers.h ****   template<typename T> uoffset_t PushElement(Offset<T> off) {
1290:C:/Renesas/e2studio_2021_01_workspace_RZA2M_ANPR/ANPR_RZA2M_GR_MANGO/src/tensorflow_lite/third_party/flatbuffers/include/flatbuffers\flatbuffers.h ****     // Special case for offsets: see ReferTo below.
1291:C:/Renesas/e2studio_2021_01_workspace_RZA2M_ANPR/ANPR_RZA2M_GR_MANGO/src/tensorflow_lite/third_party/flatbuffers/include/flatbuffers\flatbuffers.h ****     return PushElement(ReferTo(off.o));
1292:C:/Renesas/e2studio_2021_01_workspace_RZA2M_ANPR/ANPR_RZA2M_GR_MANGO/src/tensorflow_lite/third_party/flatbuffers/include/flatbuffers\flatbuffers.h ****   }
1293:C:/Renesas/e2studio_2021_01_workspace_RZA2M_ANPR/ANPR_RZA2M_GR_MANGO/src/tensorflow_lite/third_party/flatbuffers/include/flatbuffers\flatbuffers.h **** 
1294:C:/Renesas/e2studio_2021_01_workspace_RZA2M_ANPR/ANPR_RZA2M_GR_MANGO/src/tensorflow_lite/third_party/flatbuffers/include/flatbuffers\flatbuffers.h ****   // When writing fields, we track where they are, so we can create correct
1295:C:/Renesas/e2studio_2021_01_workspace_RZA2M_ANPR/ANPR_RZA2M_GR_MANGO/src/tensorflow_lite/third_party/flatbuffers/include/flatbuffers\flatbuffers.h ****   // vtables later.
1296:C:/Renesas/e2studio_2021_01_workspace_RZA2M_ANPR/ANPR_RZA2M_GR_MANGO/src/tensorflow_lite/third_party/flatbuffers/include/flatbuffers\flatbuffers.h ****   void TrackField(voffset_t field, uoffset_t off) {
1297:C:/Renesas/e2studio_2021_01_workspace_RZA2M_ANPR/ANPR_RZA2M_GR_MANGO/src/tensorflow_lite/third_party/flatbuffers/include/flatbuffers\flatbuffers.h ****     FieldLoc fl = { off, field };
1298:C:/Renesas/e2studio_2021_01_workspace_RZA2M_ANPR/ANPR_RZA2M_GR_MANGO/src/tensorflow_lite/third_party/flatbuffers/include/flatbuffers\flatbuffers.h ****     buf_.scratch_push_small(fl);
1299:C:/Renesas/e2studio_2021_01_workspace_RZA2M_ANPR/ANPR_RZA2M_GR_MANGO/src/tensorflow_lite/third_party/flatbuffers/include/flatbuffers\flatbuffers.h ****     num_field_loc++;
1300:C:/Renesas/e2studio_2021_01_workspace_RZA2M_ANPR/ANPR_RZA2M_GR_MANGO/src/tensorflow_lite/third_party/flatbuffers/include/flatbuffers\flatbuffers.h ****     max_voffset_ = (std::max)(max_voffset_, field);
1301:C:/Renesas/e2studio_2021_01_workspace_RZA2M_ANPR/ANPR_RZA2M_GR_MANGO/src/tensorflow_lite/third_party/flatbuffers/include/flatbuffers\flatbuffers.h ****   }
1302:C:/Renesas/e2studio_2021_01_workspace_RZA2M_ANPR/ANPR_RZA2M_GR_MANGO/src/tensorflow_lite/third_party/flatbuffers/include/flatbuffers\flatbuffers.h **** 
1303:C:/Renesas/e2studio_2021_01_workspace_RZA2M_ANPR/ANPR_RZA2M_GR_MANGO/src/tensorflow_lite/third_party/flatbuffers/include/flatbuffers\flatbuffers.h ****   // Like PushElement, but additionally tracks the field this represents.
1304:C:/Renesas/e2studio_2021_01_workspace_RZA2M_ANPR/ANPR_RZA2M_GR_MANGO/src/tensorflow_lite/third_party/flatbuffers/include/flatbuffers\flatbuffers.h ****   template<typename T> void AddElement(voffset_t field, T e, T def) {
1305:C:/Renesas/e2studio_2021_01_workspace_RZA2M_ANPR/ANPR_RZA2M_GR_MANGO/src/tensorflow_lite/third_party/flatbuffers/include/flatbuffers\flatbuffers.h ****     // We don't serialize values equal to the default.
1306:C:/Renesas/e2studio_2021_01_workspace_RZA2M_ANPR/ANPR_RZA2M_GR_MANGO/src/tensorflow_lite/third_party/flatbuffers/include/flatbuffers\flatbuffers.h ****     if (IsTheSameAs(e, def) && !force_defaults_) return;
1307:C:/Renesas/e2studio_2021_01_workspace_RZA2M_ANPR/ANPR_RZA2M_GR_MANGO/src/tensorflow_lite/third_party/flatbuffers/include/flatbuffers\flatbuffers.h ****     auto off = PushElement(e);
1308:C:/Renesas/e2studio_2021_01_workspace_RZA2M_ANPR/ANPR_RZA2M_GR_MANGO/src/tensorflow_lite/third_party/flatbuffers/include/flatbuffers\flatbuffers.h ****     TrackField(field, off);
1309:C:/Renesas/e2studio_2021_01_workspace_RZA2M_ANPR/ANPR_RZA2M_GR_MANGO/src/tensorflow_lite/third_party/flatbuffers/include/flatbuffers\flatbuffers.h ****   }
1310:C:/Renesas/e2studio_2021_01_workspace_RZA2M_ANPR/ANPR_RZA2M_GR_MANGO/src/tensorflow_lite/third_party/flatbuffers/include/flatbuffers\flatbuffers.h **** 
1311:C:/Renesas/e2studio_2021_01_workspace_RZA2M_ANPR/ANPR_RZA2M_GR_MANGO/src/tensorflow_lite/third_party/flatbuffers/include/flatbuffers\flatbuffers.h ****   template<typename T> void AddElement(voffset_t field, T e) {
1312:C:/Renesas/e2studio_2021_01_workspace_RZA2M_ANPR/ANPR_RZA2M_GR_MANGO/src/tensorflow_lite/third_party/flatbuffers/include/flatbuffers\flatbuffers.h ****     auto off = PushElement(e);
1313:C:/Renesas/e2studio_2021_01_workspace_RZA2M_ANPR/ANPR_RZA2M_GR_MANGO/src/tensorflow_lite/third_party/flatbuffers/include/flatbuffers\flatbuffers.h ****     TrackField(field, off);
1314:C:/Renesas/e2studio_2021_01_workspace_RZA2M_ANPR/ANPR_RZA2M_GR_MANGO/src/tensorflow_lite/third_party/flatbuffers/include/flatbuffers\flatbuffers.h ****   }
1315:C:/Renesas/e2studio_2021_01_workspace_RZA2M_ANPR/ANPR_RZA2M_GR_MANGO/src/tensorflow_lite/third_party/flatbuffers/include/flatbuffers\flatbuffers.h **** 
1316:C:/Renesas/e2studio_2021_01_workspace_RZA2M_ANPR/ANPR_RZA2M_GR_MANGO/src/tensorflow_lite/third_party/flatbuffers/include/flatbuffers\flatbuffers.h ****   template<typename T> void AddOffset(voffset_t field, Offset<T> off) {
1317:C:/Renesas/e2studio_2021_01_workspace_RZA2M_ANPR/ANPR_RZA2M_GR_MANGO/src/tensorflow_lite/third_party/flatbuffers/include/flatbuffers\flatbuffers.h ****     if (off.IsNull()) return;  // Don't store.
1318:C:/Renesas/e2studio_2021_01_workspace_RZA2M_ANPR/ANPR_RZA2M_GR_MANGO/src/tensorflow_lite/third_party/flatbuffers/include/flatbuffers\flatbuffers.h ****     AddElement(field, ReferTo(off.o), static_cast<uoffset_t>(0));
1319:C:/Renesas/e2studio_2021_01_workspace_RZA2M_ANPR/ANPR_RZA2M_GR_MANGO/src/tensorflow_lite/third_party/flatbuffers/include/flatbuffers\flatbuffers.h ****   }
1320:C:/Renesas/e2studio_2021_01_workspace_RZA2M_ANPR/ANPR_RZA2M_GR_MANGO/src/tensorflow_lite/third_party/flatbuffers/include/flatbuffers\flatbuffers.h **** 
1321:C:/Renesas/e2studio_2021_01_workspace_RZA2M_ANPR/ANPR_RZA2M_GR_MANGO/src/tensorflow_lite/third_party/flatbuffers/include/flatbuffers\flatbuffers.h ****   template<typename T> void AddStruct(voffset_t field, const T *structptr) {
1322:C:/Renesas/e2studio_2021_01_workspace_RZA2M_ANPR/ANPR_RZA2M_GR_MANGO/src/tensorflow_lite/third_party/flatbuffers/include/flatbuffers\flatbuffers.h ****     if (!structptr) return;  // Default, don't store.
1323:C:/Renesas/e2studio_2021_01_workspace_RZA2M_ANPR/ANPR_RZA2M_GR_MANGO/src/tensorflow_lite/third_party/flatbuffers/include/flatbuffers\flatbuffers.h ****     Align(AlignOf<T>());
1324:C:/Renesas/e2studio_2021_01_workspace_RZA2M_ANPR/ANPR_RZA2M_GR_MANGO/src/tensorflow_lite/third_party/flatbuffers/include/flatbuffers\flatbuffers.h ****     buf_.push_small(*structptr);
1325:C:/Renesas/e2studio_2021_01_workspace_RZA2M_ANPR/ANPR_RZA2M_GR_MANGO/src/tensorflow_lite/third_party/flatbuffers/include/flatbuffers\flatbuffers.h ****     TrackField(field, GetSize());
1326:C:/Renesas/e2studio_2021_01_workspace_RZA2M_ANPR/ANPR_RZA2M_GR_MANGO/src/tensorflow_lite/third_party/flatbuffers/include/flatbuffers\flatbuffers.h ****   }
1327:C:/Renesas/e2studio_2021_01_workspace_RZA2M_ANPR/ANPR_RZA2M_GR_MANGO/src/tensorflow_lite/third_party/flatbuffers/include/flatbuffers\flatbuffers.h **** 
1328:C:/Renesas/e2studio_2021_01_workspace_RZA2M_ANPR/ANPR_RZA2M_GR_MANGO/src/tensorflow_lite/third_party/flatbuffers/include/flatbuffers\flatbuffers.h ****   void AddStructOffset(voffset_t field, uoffset_t off) {
1329:C:/Renesas/e2studio_2021_01_workspace_RZA2M_ANPR/ANPR_RZA2M_GR_MANGO/src/tensorflow_lite/third_party/flatbuffers/include/flatbuffers\flatbuffers.h ****     TrackField(field, off);
1330:C:/Renesas/e2studio_2021_01_workspace_RZA2M_ANPR/ANPR_RZA2M_GR_MANGO/src/tensorflow_lite/third_party/flatbuffers/include/flatbuffers\flatbuffers.h ****   }
1331:C:/Renesas/e2studio_2021_01_workspace_RZA2M_ANPR/ANPR_RZA2M_GR_MANGO/src/tensorflow_lite/third_party/flatbuffers/include/flatbuffers\flatbuffers.h **** 
1332:C:/Renesas/e2studio_2021_01_workspace_RZA2M_ANPR/ANPR_RZA2M_GR_MANGO/src/tensorflow_lite/third_party/flatbuffers/include/flatbuffers\flatbuffers.h ****   // Offsets initially are relative to the end of the buffer (downwards).
1333:C:/Renesas/e2studio_2021_01_workspace_RZA2M_ANPR/ANPR_RZA2M_GR_MANGO/src/tensorflow_lite/third_party/flatbuffers/include/flatbuffers\flatbuffers.h ****   // This function converts them to be relative to the current location
1334:C:/Renesas/e2studio_2021_01_workspace_RZA2M_ANPR/ANPR_RZA2M_GR_MANGO/src/tensorflow_lite/third_party/flatbuffers/include/flatbuffers\flatbuffers.h ****   // in the buffer (when stored here), pointing upwards.
1335:C:/Renesas/e2studio_2021_01_workspace_RZA2M_ANPR/ANPR_RZA2M_GR_MANGO/src/tensorflow_lite/third_party/flatbuffers/include/flatbuffers\flatbuffers.h ****   uoffset_t ReferTo(uoffset_t off) {
1336:C:/Renesas/e2studio_2021_01_workspace_RZA2M_ANPR/ANPR_RZA2M_GR_MANGO/src/tensorflow_lite/third_party/flatbuffers/include/flatbuffers\flatbuffers.h ****     // Align to ensure GetSize() below is correct.
1337:C:/Renesas/e2studio_2021_01_workspace_RZA2M_ANPR/ANPR_RZA2M_GR_MANGO/src/tensorflow_lite/third_party/flatbuffers/include/flatbuffers\flatbuffers.h ****     Align(sizeof(uoffset_t));
1338:C:/Renesas/e2studio_2021_01_workspace_RZA2M_ANPR/ANPR_RZA2M_GR_MANGO/src/tensorflow_lite/third_party/flatbuffers/include/flatbuffers\flatbuffers.h ****     // Offset must refer to something already in buffer.
1339:C:/Renesas/e2studio_2021_01_workspace_RZA2M_ANPR/ANPR_RZA2M_GR_MANGO/src/tensorflow_lite/third_party/flatbuffers/include/flatbuffers\flatbuffers.h ****     FLATBUFFERS_ASSERT(off && off <= GetSize());
1340:C:/Renesas/e2studio_2021_01_workspace_RZA2M_ANPR/ANPR_RZA2M_GR_MANGO/src/tensorflow_lite/third_party/flatbuffers/include/flatbuffers\flatbuffers.h ****     return GetSize() - off + static_cast<uoffset_t>(sizeof(uoffset_t));
1341:C:/Renesas/e2studio_2021_01_workspace_RZA2M_ANPR/ANPR_RZA2M_GR_MANGO/src/tensorflow_lite/third_party/flatbuffers/include/flatbuffers\flatbuffers.h ****   }
1342:C:/Renesas/e2studio_2021_01_workspace_RZA2M_ANPR/ANPR_RZA2M_GR_MANGO/src/tensorflow_lite/third_party/flatbuffers/include/flatbuffers\flatbuffers.h **** 
1343:C:/Renesas/e2studio_2021_01_workspace_RZA2M_ANPR/ANPR_RZA2M_GR_MANGO/src/tensorflow_lite/third_party/flatbuffers/include/flatbuffers\flatbuffers.h ****   void NotNested() {
1344:C:/Renesas/e2studio_2021_01_workspace_RZA2M_ANPR/ANPR_RZA2M_GR_MANGO/src/tensorflow_lite/third_party/flatbuffers/include/flatbuffers\flatbuffers.h ****     // If you hit this, you're trying to construct a Table/Vector/String
1345:C:/Renesas/e2studio_2021_01_workspace_RZA2M_ANPR/ANPR_RZA2M_GR_MANGO/src/tensorflow_lite/third_party/flatbuffers/include/flatbuffers\flatbuffers.h ****     // during the construction of its parent table (between the MyTableBuilder
1346:C:/Renesas/e2studio_2021_01_workspace_RZA2M_ANPR/ANPR_RZA2M_GR_MANGO/src/tensorflow_lite/third_party/flatbuffers/include/flatbuffers\flatbuffers.h ****     // and table.Finish().
1347:C:/Renesas/e2studio_2021_01_workspace_RZA2M_ANPR/ANPR_RZA2M_GR_MANGO/src/tensorflow_lite/third_party/flatbuffers/include/flatbuffers\flatbuffers.h ****     // Move the creation of these sub-objects to above the MyTableBuilder to
1348:C:/Renesas/e2studio_2021_01_workspace_RZA2M_ANPR/ANPR_RZA2M_GR_MANGO/src/tensorflow_lite/third_party/flatbuffers/include/flatbuffers\flatbuffers.h ****     // not get this assert.
1349:C:/Renesas/e2studio_2021_01_workspace_RZA2M_ANPR/ANPR_RZA2M_GR_MANGO/src/tensorflow_lite/third_party/flatbuffers/include/flatbuffers\flatbuffers.h ****     // Ignoring this assert may appear to work in simple cases, but the reason
1350:C:/Renesas/e2studio_2021_01_workspace_RZA2M_ANPR/ANPR_RZA2M_GR_MANGO/src/tensorflow_lite/third_party/flatbuffers/include/flatbuffers\flatbuffers.h ****     // it is here is that storing objects in-line may cause vtable offsets
1351:C:/Renesas/e2studio_2021_01_workspace_RZA2M_ANPR/ANPR_RZA2M_GR_MANGO/src/tensorflow_lite/third_party/flatbuffers/include/flatbuffers\flatbuffers.h ****     // to not fit anymore. It also leads to vtable duplication.
1352:C:/Renesas/e2studio_2021_01_workspace_RZA2M_ANPR/ANPR_RZA2M_GR_MANGO/src/tensorflow_lite/third_party/flatbuffers/include/flatbuffers\flatbuffers.h ****     FLATBUFFERS_ASSERT(!nested);
1353:C:/Renesas/e2studio_2021_01_workspace_RZA2M_ANPR/ANPR_RZA2M_GR_MANGO/src/tensorflow_lite/third_party/flatbuffers/include/flatbuffers\flatbuffers.h ****     // If you hit this, fields were added outside the scope of a table.
1354:C:/Renesas/e2studio_2021_01_workspace_RZA2M_ANPR/ANPR_RZA2M_GR_MANGO/src/tensorflow_lite/third_party/flatbuffers/include/flatbuffers\flatbuffers.h ****     FLATBUFFERS_ASSERT(!num_field_loc);
1355:C:/Renesas/e2studio_2021_01_workspace_RZA2M_ANPR/ANPR_RZA2M_GR_MANGO/src/tensorflow_lite/third_party/flatbuffers/include/flatbuffers\flatbuffers.h ****   }
1356:C:/Renesas/e2studio_2021_01_workspace_RZA2M_ANPR/ANPR_RZA2M_GR_MANGO/src/tensorflow_lite/third_party/flatbuffers/include/flatbuffers\flatbuffers.h **** 
1357:C:/Renesas/e2studio_2021_01_workspace_RZA2M_ANPR/ANPR_RZA2M_GR_MANGO/src/tensorflow_lite/third_party/flatbuffers/include/flatbuffers\flatbuffers.h ****   // From generated code (or from the parser), we call StartTable/EndTable
1358:C:/Renesas/e2studio_2021_01_workspace_RZA2M_ANPR/ANPR_RZA2M_GR_MANGO/src/tensorflow_lite/third_party/flatbuffers/include/flatbuffers\flatbuffers.h ****   // with a sequence of AddElement calls in between.
1359:C:/Renesas/e2studio_2021_01_workspace_RZA2M_ANPR/ANPR_RZA2M_GR_MANGO/src/tensorflow_lite/third_party/flatbuffers/include/flatbuffers\flatbuffers.h ****   uoffset_t StartTable() {
1360:C:/Renesas/e2studio_2021_01_workspace_RZA2M_ANPR/ANPR_RZA2M_GR_MANGO/src/tensorflow_lite/third_party/flatbuffers/include/flatbuffers\flatbuffers.h ****     NotNested();
1361:C:/Renesas/e2studio_2021_01_workspace_RZA2M_ANPR/ANPR_RZA2M_GR_MANGO/src/tensorflow_lite/third_party/flatbuffers/include/flatbuffers\flatbuffers.h ****     nested = true;
1362:C:/Renesas/e2studio_2021_01_workspace_RZA2M_ANPR/ANPR_RZA2M_GR_MANGO/src/tensorflow_lite/third_party/flatbuffers/include/flatbuffers\flatbuffers.h ****     return GetSize();
1363:C:/Renesas/e2studio_2021_01_workspace_RZA2M_ANPR/ANPR_RZA2M_GR_MANGO/src/tensorflow_lite/third_party/flatbuffers/include/flatbuffers\flatbuffers.h ****   }
1364:C:/Renesas/e2studio_2021_01_workspace_RZA2M_ANPR/ANPR_RZA2M_GR_MANGO/src/tensorflow_lite/third_party/flatbuffers/include/flatbuffers\flatbuffers.h **** 
1365:C:/Renesas/e2studio_2021_01_workspace_RZA2M_ANPR/ANPR_RZA2M_GR_MANGO/src/tensorflow_lite/third_party/flatbuffers/include/flatbuffers\flatbuffers.h ****   // This finishes one serialized object by generating the vtable if it's a
1366:C:/Renesas/e2studio_2021_01_workspace_RZA2M_ANPR/ANPR_RZA2M_GR_MANGO/src/tensorflow_lite/third_party/flatbuffers/include/flatbuffers\flatbuffers.h ****   // table, comparing it against existing vtables, and writing the
1367:C:/Renesas/e2studio_2021_01_workspace_RZA2M_ANPR/ANPR_RZA2M_GR_MANGO/src/tensorflow_lite/third_party/flatbuffers/include/flatbuffers\flatbuffers.h ****   // resulting vtable offset.
1368:C:/Renesas/e2studio_2021_01_workspace_RZA2M_ANPR/ANPR_RZA2M_GR_MANGO/src/tensorflow_lite/third_party/flatbuffers/include/flatbuffers\flatbuffers.h ****   uoffset_t EndTable(uoffset_t start) {
1369:C:/Renesas/e2studio_2021_01_workspace_RZA2M_ANPR/ANPR_RZA2M_GR_MANGO/src/tensorflow_lite/third_party/flatbuffers/include/flatbuffers\flatbuffers.h ****     // If you get this assert, a corresponding StartTable wasn't called.
1370:C:/Renesas/e2studio_2021_01_workspace_RZA2M_ANPR/ANPR_RZA2M_GR_MANGO/src/tensorflow_lite/third_party/flatbuffers/include/flatbuffers\flatbuffers.h ****     FLATBUFFERS_ASSERT(nested);
1371:C:/Renesas/e2studio_2021_01_workspace_RZA2M_ANPR/ANPR_RZA2M_GR_MANGO/src/tensorflow_lite/third_party/flatbuffers/include/flatbuffers\flatbuffers.h ****     // Write the vtable offset, which is the start of any Table.
1372:C:/Renesas/e2studio_2021_01_workspace_RZA2M_ANPR/ANPR_RZA2M_GR_MANGO/src/tensorflow_lite/third_party/flatbuffers/include/flatbuffers\flatbuffers.h ****     // We fill it's value later.
1373:C:/Renesas/e2studio_2021_01_workspace_RZA2M_ANPR/ANPR_RZA2M_GR_MANGO/src/tensorflow_lite/third_party/flatbuffers/include/flatbuffers\flatbuffers.h ****     auto vtableoffsetloc = PushElement<soffset_t>(0);
1374:C:/Renesas/e2studio_2021_01_workspace_RZA2M_ANPR/ANPR_RZA2M_GR_MANGO/src/tensorflow_lite/third_party/flatbuffers/include/flatbuffers\flatbuffers.h ****     // Write a vtable, which consists entirely of voffset_t elements.
1375:C:/Renesas/e2studio_2021_01_workspace_RZA2M_ANPR/ANPR_RZA2M_GR_MANGO/src/tensorflow_lite/third_party/flatbuffers/include/flatbuffers\flatbuffers.h ****     // It starts with the number of offsets, followed by a type id, followed
1376:C:/Renesas/e2studio_2021_01_workspace_RZA2M_ANPR/ANPR_RZA2M_GR_MANGO/src/tensorflow_lite/third_party/flatbuffers/include/flatbuffers\flatbuffers.h ****     // by the offsets themselves. In reverse:
1377:C:/Renesas/e2studio_2021_01_workspace_RZA2M_ANPR/ANPR_RZA2M_GR_MANGO/src/tensorflow_lite/third_party/flatbuffers/include/flatbuffers\flatbuffers.h ****     // Include space for the last offset and ensure empty tables have a
1378:C:/Renesas/e2studio_2021_01_workspace_RZA2M_ANPR/ANPR_RZA2M_GR_MANGO/src/tensorflow_lite/third_party/flatbuffers/include/flatbuffers\flatbuffers.h ****     // minimum size.
1379:C:/Renesas/e2studio_2021_01_workspace_RZA2M_ANPR/ANPR_RZA2M_GR_MANGO/src/tensorflow_lite/third_party/flatbuffers/include/flatbuffers\flatbuffers.h ****     max_voffset_ =
1380:C:/Renesas/e2studio_2021_01_workspace_RZA2M_ANPR/ANPR_RZA2M_GR_MANGO/src/tensorflow_lite/third_party/flatbuffers/include/flatbuffers\flatbuffers.h ****         (std::max)(static_cast<voffset_t>(max_voffset_ + sizeof(voffset_t)),
1381:C:/Renesas/e2studio_2021_01_workspace_RZA2M_ANPR/ANPR_RZA2M_GR_MANGO/src/tensorflow_lite/third_party/flatbuffers/include/flatbuffers\flatbuffers.h ****                    FieldIndexToOffset(0));
1382:C:/Renesas/e2studio_2021_01_workspace_RZA2M_ANPR/ANPR_RZA2M_GR_MANGO/src/tensorflow_lite/third_party/flatbuffers/include/flatbuffers\flatbuffers.h ****     buf_.fill_big(max_voffset_);
1383:C:/Renesas/e2studio_2021_01_workspace_RZA2M_ANPR/ANPR_RZA2M_GR_MANGO/src/tensorflow_lite/third_party/flatbuffers/include/flatbuffers\flatbuffers.h ****     auto table_object_size = vtableoffsetloc - start;
1384:C:/Renesas/e2studio_2021_01_workspace_RZA2M_ANPR/ANPR_RZA2M_GR_MANGO/src/tensorflow_lite/third_party/flatbuffers/include/flatbuffers\flatbuffers.h ****     // Vtable use 16bit offsets.
1385:C:/Renesas/e2studio_2021_01_workspace_RZA2M_ANPR/ANPR_RZA2M_GR_MANGO/src/tensorflow_lite/third_party/flatbuffers/include/flatbuffers\flatbuffers.h ****     FLATBUFFERS_ASSERT(table_object_size < 0x10000);
1386:C:/Renesas/e2studio_2021_01_workspace_RZA2M_ANPR/ANPR_RZA2M_GR_MANGO/src/tensorflow_lite/third_party/flatbuffers/include/flatbuffers\flatbuffers.h ****     WriteScalar<voffset_t>(buf_.data() + sizeof(voffset_t),
1387:C:/Renesas/e2studio_2021_01_workspace_RZA2M_ANPR/ANPR_RZA2M_GR_MANGO/src/tensorflow_lite/third_party/flatbuffers/include/flatbuffers\flatbuffers.h ****                            static_cast<voffset_t>(table_object_size));
1388:C:/Renesas/e2studio_2021_01_workspace_RZA2M_ANPR/ANPR_RZA2M_GR_MANGO/src/tensorflow_lite/third_party/flatbuffers/include/flatbuffers\flatbuffers.h ****     WriteScalar<voffset_t>(buf_.data(), max_voffset_);
1389:C:/Renesas/e2studio_2021_01_workspace_RZA2M_ANPR/ANPR_RZA2M_GR_MANGO/src/tensorflow_lite/third_party/flatbuffers/include/flatbuffers\flatbuffers.h ****     // Write the offsets into the table
1390:C:/Renesas/e2studio_2021_01_workspace_RZA2M_ANPR/ANPR_RZA2M_GR_MANGO/src/tensorflow_lite/third_party/flatbuffers/include/flatbuffers\flatbuffers.h ****     for (auto it = buf_.scratch_end() - num_field_loc * sizeof(FieldLoc);
1391:C:/Renesas/e2studio_2021_01_workspace_RZA2M_ANPR/ANPR_RZA2M_GR_MANGO/src/tensorflow_lite/third_party/flatbuffers/include/flatbuffers\flatbuffers.h ****          it < buf_.scratch_end(); it += sizeof(FieldLoc)) {
1392:C:/Renesas/e2studio_2021_01_workspace_RZA2M_ANPR/ANPR_RZA2M_GR_MANGO/src/tensorflow_lite/third_party/flatbuffers/include/flatbuffers\flatbuffers.h ****       auto field_location = reinterpret_cast<FieldLoc *>(it);
1393:C:/Renesas/e2studio_2021_01_workspace_RZA2M_ANPR/ANPR_RZA2M_GR_MANGO/src/tensorflow_lite/third_party/flatbuffers/include/flatbuffers\flatbuffers.h ****       auto pos = static_cast<voffset_t>(vtableoffsetloc - field_location->off);
1394:C:/Renesas/e2studio_2021_01_workspace_RZA2M_ANPR/ANPR_RZA2M_GR_MANGO/src/tensorflow_lite/third_party/flatbuffers/include/flatbuffers\flatbuffers.h ****       // If this asserts, it means you've set a field twice.
1395:C:/Renesas/e2studio_2021_01_workspace_RZA2M_ANPR/ANPR_RZA2M_GR_MANGO/src/tensorflow_lite/third_party/flatbuffers/include/flatbuffers\flatbuffers.h ****       FLATBUFFERS_ASSERT(
1396:C:/Renesas/e2studio_2021_01_workspace_RZA2M_ANPR/ANPR_RZA2M_GR_MANGO/src/tensorflow_lite/third_party/flatbuffers/include/flatbuffers\flatbuffers.h ****           !ReadScalar<voffset_t>(buf_.data() + field_location->id));
1397:C:/Renesas/e2studio_2021_01_workspace_RZA2M_ANPR/ANPR_RZA2M_GR_MANGO/src/tensorflow_lite/third_party/flatbuffers/include/flatbuffers\flatbuffers.h ****       WriteScalar<voffset_t>(buf_.data() + field_location->id, pos);
1398:C:/Renesas/e2studio_2021_01_workspace_RZA2M_ANPR/ANPR_RZA2M_GR_MANGO/src/tensorflow_lite/third_party/flatbuffers/include/flatbuffers\flatbuffers.h ****     }
1399:C:/Renesas/e2studio_2021_01_workspace_RZA2M_ANPR/ANPR_RZA2M_GR_MANGO/src/tensorflow_lite/third_party/flatbuffers/include/flatbuffers\flatbuffers.h ****     ClearOffsets();
1400:C:/Renesas/e2studio_2021_01_workspace_RZA2M_ANPR/ANPR_RZA2M_GR_MANGO/src/tensorflow_lite/third_party/flatbuffers/include/flatbuffers\flatbuffers.h ****     auto vt1 = reinterpret_cast<voffset_t *>(buf_.data());
1401:C:/Renesas/e2studio_2021_01_workspace_RZA2M_ANPR/ANPR_RZA2M_GR_MANGO/src/tensorflow_lite/third_party/flatbuffers/include/flatbuffers\flatbuffers.h ****     auto vt1_size = ReadScalar<voffset_t>(vt1);
1402:C:/Renesas/e2studio_2021_01_workspace_RZA2M_ANPR/ANPR_RZA2M_GR_MANGO/src/tensorflow_lite/third_party/flatbuffers/include/flatbuffers\flatbuffers.h ****     auto vt_use = GetSize();
1403:C:/Renesas/e2studio_2021_01_workspace_RZA2M_ANPR/ANPR_RZA2M_GR_MANGO/src/tensorflow_lite/third_party/flatbuffers/include/flatbuffers\flatbuffers.h ****     // See if we already have generated a vtable with this exact same
1404:C:/Renesas/e2studio_2021_01_workspace_RZA2M_ANPR/ANPR_RZA2M_GR_MANGO/src/tensorflow_lite/third_party/flatbuffers/include/flatbuffers\flatbuffers.h ****     // layout before. If so, make it point to the old one, remove this one.
1405:C:/Renesas/e2studio_2021_01_workspace_RZA2M_ANPR/ANPR_RZA2M_GR_MANGO/src/tensorflow_lite/third_party/flatbuffers/include/flatbuffers\flatbuffers.h ****     if (dedup_vtables_) {
1406:C:/Renesas/e2studio_2021_01_workspace_RZA2M_ANPR/ANPR_RZA2M_GR_MANGO/src/tensorflow_lite/third_party/flatbuffers/include/flatbuffers\flatbuffers.h ****       for (auto it = buf_.scratch_data(); it < buf_.scratch_end();
1407:C:/Renesas/e2studio_2021_01_workspace_RZA2M_ANPR/ANPR_RZA2M_GR_MANGO/src/tensorflow_lite/third_party/flatbuffers/include/flatbuffers\flatbuffers.h ****            it += sizeof(uoffset_t)) {
1408:C:/Renesas/e2studio_2021_01_workspace_RZA2M_ANPR/ANPR_RZA2M_GR_MANGO/src/tensorflow_lite/third_party/flatbuffers/include/flatbuffers\flatbuffers.h ****         auto vt_offset_ptr = reinterpret_cast<uoffset_t *>(it);
1409:C:/Renesas/e2studio_2021_01_workspace_RZA2M_ANPR/ANPR_RZA2M_GR_MANGO/src/tensorflow_lite/third_party/flatbuffers/include/flatbuffers\flatbuffers.h ****         auto vt2 = reinterpret_cast<voffset_t *>(buf_.data_at(*vt_offset_ptr));
1410:C:/Renesas/e2studio_2021_01_workspace_RZA2M_ANPR/ANPR_RZA2M_GR_MANGO/src/tensorflow_lite/third_party/flatbuffers/include/flatbuffers\flatbuffers.h ****         auto vt2_size = ReadScalar<voffset_t>(vt2);
1411:C:/Renesas/e2studio_2021_01_workspace_RZA2M_ANPR/ANPR_RZA2M_GR_MANGO/src/tensorflow_lite/third_party/flatbuffers/include/flatbuffers\flatbuffers.h ****         if (vt1_size != vt2_size || 0 != memcmp(vt2, vt1, vt1_size)) continue;
1412:C:/Renesas/e2studio_2021_01_workspace_RZA2M_ANPR/ANPR_RZA2M_GR_MANGO/src/tensorflow_lite/third_party/flatbuffers/include/flatbuffers\flatbuffers.h ****         vt_use = *vt_offset_ptr;
1413:C:/Renesas/e2studio_2021_01_workspace_RZA2M_ANPR/ANPR_RZA2M_GR_MANGO/src/tensorflow_lite/third_party/flatbuffers/include/flatbuffers\flatbuffers.h ****         buf_.pop(GetSize() - vtableoffsetloc);
1414:C:/Renesas/e2studio_2021_01_workspace_RZA2M_ANPR/ANPR_RZA2M_GR_MANGO/src/tensorflow_lite/third_party/flatbuffers/include/flatbuffers\flatbuffers.h ****         break;
1415:C:/Renesas/e2studio_2021_01_workspace_RZA2M_ANPR/ANPR_RZA2M_GR_MANGO/src/tensorflow_lite/third_party/flatbuffers/include/flatbuffers\flatbuffers.h ****       }
1416:C:/Renesas/e2studio_2021_01_workspace_RZA2M_ANPR/ANPR_RZA2M_GR_MANGO/src/tensorflow_lite/third_party/flatbuffers/include/flatbuffers\flatbuffers.h ****     }
1417:C:/Renesas/e2studio_2021_01_workspace_RZA2M_ANPR/ANPR_RZA2M_GR_MANGO/src/tensorflow_lite/third_party/flatbuffers/include/flatbuffers\flatbuffers.h ****     // If this is a new vtable, remember it.
1418:C:/Renesas/e2studio_2021_01_workspace_RZA2M_ANPR/ANPR_RZA2M_GR_MANGO/src/tensorflow_lite/third_party/flatbuffers/include/flatbuffers\flatbuffers.h ****     if (vt_use == GetSize()) { buf_.scratch_push_small(vt_use); }
1419:C:/Renesas/e2studio_2021_01_workspace_RZA2M_ANPR/ANPR_RZA2M_GR_MANGO/src/tensorflow_lite/third_party/flatbuffers/include/flatbuffers\flatbuffers.h ****     // Fill the vtable offset we created above.
1420:C:/Renesas/e2studio_2021_01_workspace_RZA2M_ANPR/ANPR_RZA2M_GR_MANGO/src/tensorflow_lite/third_party/flatbuffers/include/flatbuffers\flatbuffers.h ****     // The offset points from the beginning of the object to where the
1421:C:/Renesas/e2studio_2021_01_workspace_RZA2M_ANPR/ANPR_RZA2M_GR_MANGO/src/tensorflow_lite/third_party/flatbuffers/include/flatbuffers\flatbuffers.h ****     // vtable is stored.
1422:C:/Renesas/e2studio_2021_01_workspace_RZA2M_ANPR/ANPR_RZA2M_GR_MANGO/src/tensorflow_lite/third_party/flatbuffers/include/flatbuffers\flatbuffers.h ****     // Offsets default direction is downward in memory for future format
1423:C:/Renesas/e2studio_2021_01_workspace_RZA2M_ANPR/ANPR_RZA2M_GR_MANGO/src/tensorflow_lite/third_party/flatbuffers/include/flatbuffers\flatbuffers.h ****     // flexibility (storing all vtables at the start of the file).
1424:C:/Renesas/e2studio_2021_01_workspace_RZA2M_ANPR/ANPR_RZA2M_GR_MANGO/src/tensorflow_lite/third_party/flatbuffers/include/flatbuffers\flatbuffers.h ****     WriteScalar(buf_.data_at(vtableoffsetloc),
1425:C:/Renesas/e2studio_2021_01_workspace_RZA2M_ANPR/ANPR_RZA2M_GR_MANGO/src/tensorflow_lite/third_party/flatbuffers/include/flatbuffers\flatbuffers.h ****                 static_cast<soffset_t>(vt_use) -
1426:C:/Renesas/e2studio_2021_01_workspace_RZA2M_ANPR/ANPR_RZA2M_GR_MANGO/src/tensorflow_lite/third_party/flatbuffers/include/flatbuffers\flatbuffers.h ****                     static_cast<soffset_t>(vtableoffsetloc));
1427:C:/Renesas/e2studio_2021_01_workspace_RZA2M_ANPR/ANPR_RZA2M_GR_MANGO/src/tensorflow_lite/third_party/flatbuffers/include/flatbuffers\flatbuffers.h **** 
1428:C:/Renesas/e2studio_2021_01_workspace_RZA2M_ANPR/ANPR_RZA2M_GR_MANGO/src/tensorflow_lite/third_party/flatbuffers/include/flatbuffers\flatbuffers.h ****     nested = false;
1429:C:/Renesas/e2studio_2021_01_workspace_RZA2M_ANPR/ANPR_RZA2M_GR_MANGO/src/tensorflow_lite/third_party/flatbuffers/include/flatbuffers\flatbuffers.h ****     return vtableoffsetloc;
1430:C:/Renesas/e2studio_2021_01_workspace_RZA2M_ANPR/ANPR_RZA2M_GR_MANGO/src/tensorflow_lite/third_party/flatbuffers/include/flatbuffers\flatbuffers.h ****   }
1431:C:/Renesas/e2studio_2021_01_workspace_RZA2M_ANPR/ANPR_RZA2M_GR_MANGO/src/tensorflow_lite/third_party/flatbuffers/include/flatbuffers\flatbuffers.h **** 
1432:C:/Renesas/e2studio_2021_01_workspace_RZA2M_ANPR/ANPR_RZA2M_GR_MANGO/src/tensorflow_lite/third_party/flatbuffers/include/flatbuffers\flatbuffers.h ****   FLATBUFFERS_ATTRIBUTE(deprecated("call the version above instead"))
1433:C:/Renesas/e2studio_2021_01_workspace_RZA2M_ANPR/ANPR_RZA2M_GR_MANGO/src/tensorflow_lite/third_party/flatbuffers/include/flatbuffers\flatbuffers.h ****   uoffset_t EndTable(uoffset_t start, voffset_t /*numfields*/) {
1434:C:/Renesas/e2studio_2021_01_workspace_RZA2M_ANPR/ANPR_RZA2M_GR_MANGO/src/tensorflow_lite/third_party/flatbuffers/include/flatbuffers\flatbuffers.h ****     return EndTable(start);
1435:C:/Renesas/e2studio_2021_01_workspace_RZA2M_ANPR/ANPR_RZA2M_GR_MANGO/src/tensorflow_lite/third_party/flatbuffers/include/flatbuffers\flatbuffers.h ****   }
1436:C:/Renesas/e2studio_2021_01_workspace_RZA2M_ANPR/ANPR_RZA2M_GR_MANGO/src/tensorflow_lite/third_party/flatbuffers/include/flatbuffers\flatbuffers.h **** 
1437:C:/Renesas/e2studio_2021_01_workspace_RZA2M_ANPR/ANPR_RZA2M_GR_MANGO/src/tensorflow_lite/third_party/flatbuffers/include/flatbuffers\flatbuffers.h ****   // This checks a required field has been set in a given table that has
1438:C:/Renesas/e2studio_2021_01_workspace_RZA2M_ANPR/ANPR_RZA2M_GR_MANGO/src/tensorflow_lite/third_party/flatbuffers/include/flatbuffers\flatbuffers.h ****   // just been constructed.
1439:C:/Renesas/e2studio_2021_01_workspace_RZA2M_ANPR/ANPR_RZA2M_GR_MANGO/src/tensorflow_lite/third_party/flatbuffers/include/flatbuffers\flatbuffers.h ****   template<typename T> void Required(Offset<T> table, voffset_t field);
1440:C:/Renesas/e2studio_2021_01_workspace_RZA2M_ANPR/ANPR_RZA2M_GR_MANGO/src/tensorflow_lite/third_party/flatbuffers/include/flatbuffers\flatbuffers.h **** 
1441:C:/Renesas/e2studio_2021_01_workspace_RZA2M_ANPR/ANPR_RZA2M_GR_MANGO/src/tensorflow_lite/third_party/flatbuffers/include/flatbuffers\flatbuffers.h ****   uoffset_t StartStruct(size_t alignment) {
1442:C:/Renesas/e2studio_2021_01_workspace_RZA2M_ANPR/ANPR_RZA2M_GR_MANGO/src/tensorflow_lite/third_party/flatbuffers/include/flatbuffers\flatbuffers.h ****     Align(alignment);
1443:C:/Renesas/e2studio_2021_01_workspace_RZA2M_ANPR/ANPR_RZA2M_GR_MANGO/src/tensorflow_lite/third_party/flatbuffers/include/flatbuffers\flatbuffers.h ****     return GetSize();
1444:C:/Renesas/e2studio_2021_01_workspace_RZA2M_ANPR/ANPR_RZA2M_GR_MANGO/src/tensorflow_lite/third_party/flatbuffers/include/flatbuffers\flatbuffers.h ****   }
1445:C:/Renesas/e2studio_2021_01_workspace_RZA2M_ANPR/ANPR_RZA2M_GR_MANGO/src/tensorflow_lite/third_party/flatbuffers/include/flatbuffers\flatbuffers.h **** 
1446:C:/Renesas/e2studio_2021_01_workspace_RZA2M_ANPR/ANPR_RZA2M_GR_MANGO/src/tensorflow_lite/third_party/flatbuffers/include/flatbuffers\flatbuffers.h ****   uoffset_t EndStruct() { return GetSize(); }
1447:C:/Renesas/e2studio_2021_01_workspace_RZA2M_ANPR/ANPR_RZA2M_GR_MANGO/src/tensorflow_lite/third_party/flatbuffers/include/flatbuffers\flatbuffers.h **** 
1448:C:/Renesas/e2studio_2021_01_workspace_RZA2M_ANPR/ANPR_RZA2M_GR_MANGO/src/tensorflow_lite/third_party/flatbuffers/include/flatbuffers\flatbuffers.h ****   void ClearOffsets() {
1449:C:/Renesas/e2studio_2021_01_workspace_RZA2M_ANPR/ANPR_RZA2M_GR_MANGO/src/tensorflow_lite/third_party/flatbuffers/include/flatbuffers\flatbuffers.h ****     buf_.scratch_pop(num_field_loc * sizeof(FieldLoc));
1450:C:/Renesas/e2studio_2021_01_workspace_RZA2M_ANPR/ANPR_RZA2M_GR_MANGO/src/tensorflow_lite/third_party/flatbuffers/include/flatbuffers\flatbuffers.h ****     num_field_loc = 0;
1451:C:/Renesas/e2studio_2021_01_workspace_RZA2M_ANPR/ANPR_RZA2M_GR_MANGO/src/tensorflow_lite/third_party/flatbuffers/include/flatbuffers\flatbuffers.h ****     max_voffset_ = 0;
1452:C:/Renesas/e2studio_2021_01_workspace_RZA2M_ANPR/ANPR_RZA2M_GR_MANGO/src/tensorflow_lite/third_party/flatbuffers/include/flatbuffers\flatbuffers.h ****   }
1453:C:/Renesas/e2studio_2021_01_workspace_RZA2M_ANPR/ANPR_RZA2M_GR_MANGO/src/tensorflow_lite/third_party/flatbuffers/include/flatbuffers\flatbuffers.h **** 
1454:C:/Renesas/e2studio_2021_01_workspace_RZA2M_ANPR/ANPR_RZA2M_GR_MANGO/src/tensorflow_lite/third_party/flatbuffers/include/flatbuffers\flatbuffers.h ****   // Aligns such that when "len" bytes are written, an object can be written
1455:C:/Renesas/e2studio_2021_01_workspace_RZA2M_ANPR/ANPR_RZA2M_GR_MANGO/src/tensorflow_lite/third_party/flatbuffers/include/flatbuffers\flatbuffers.h ****   // after it with "alignment" without padding.
1456:C:/Renesas/e2studio_2021_01_workspace_RZA2M_ANPR/ANPR_RZA2M_GR_MANGO/src/tensorflow_lite/third_party/flatbuffers/include/flatbuffers\flatbuffers.h ****   void PreAlign(size_t len, size_t alignment) {
1457:C:/Renesas/e2studio_2021_01_workspace_RZA2M_ANPR/ANPR_RZA2M_GR_MANGO/src/tensorflow_lite/third_party/flatbuffers/include/flatbuffers\flatbuffers.h ****     TrackMinAlign(alignment);
1458:C:/Renesas/e2studio_2021_01_workspace_RZA2M_ANPR/ANPR_RZA2M_GR_MANGO/src/tensorflow_lite/third_party/flatbuffers/include/flatbuffers\flatbuffers.h ****     buf_.fill(PaddingBytes(GetSize() + len, alignment));
1459:C:/Renesas/e2studio_2021_01_workspace_RZA2M_ANPR/ANPR_RZA2M_GR_MANGO/src/tensorflow_lite/third_party/flatbuffers/include/flatbuffers\flatbuffers.h ****   }
1460:C:/Renesas/e2studio_2021_01_workspace_RZA2M_ANPR/ANPR_RZA2M_GR_MANGO/src/tensorflow_lite/third_party/flatbuffers/include/flatbuffers\flatbuffers.h ****   template<typename T> void PreAlign(size_t len) {
1461:C:/Renesas/e2studio_2021_01_workspace_RZA2M_ANPR/ANPR_RZA2M_GR_MANGO/src/tensorflow_lite/third_party/flatbuffers/include/flatbuffers\flatbuffers.h ****     AssertScalarT<T>();
1462:C:/Renesas/e2studio_2021_01_workspace_RZA2M_ANPR/ANPR_RZA2M_GR_MANGO/src/tensorflow_lite/third_party/flatbuffers/include/flatbuffers\flatbuffers.h ****     PreAlign(len, sizeof(T));
1463:C:/Renesas/e2studio_2021_01_workspace_RZA2M_ANPR/ANPR_RZA2M_GR_MANGO/src/tensorflow_lite/third_party/flatbuffers/include/flatbuffers\flatbuffers.h ****   }
1464:C:/Renesas/e2studio_2021_01_workspace_RZA2M_ANPR/ANPR_RZA2M_GR_MANGO/src/tensorflow_lite/third_party/flatbuffers/include/flatbuffers\flatbuffers.h ****   /// @endcond
1465:C:/Renesas/e2studio_2021_01_workspace_RZA2M_ANPR/ANPR_RZA2M_GR_MANGO/src/tensorflow_lite/third_party/flatbuffers/include/flatbuffers\flatbuffers.h **** 
1466:C:/Renesas/e2studio_2021_01_workspace_RZA2M_ANPR/ANPR_RZA2M_GR_MANGO/src/tensorflow_lite/third_party/flatbuffers/include/flatbuffers\flatbuffers.h ****   /// @brief Store a string in the buffer, which can contain any binary data.
1467:C:/Renesas/e2studio_2021_01_workspace_RZA2M_ANPR/ANPR_RZA2M_GR_MANGO/src/tensorflow_lite/third_party/flatbuffers/include/flatbuffers\flatbuffers.h ****   /// @param[in] str A const char pointer to the data to be stored as a string.
1468:C:/Renesas/e2studio_2021_01_workspace_RZA2M_ANPR/ANPR_RZA2M_GR_MANGO/src/tensorflow_lite/third_party/flatbuffers/include/flatbuffers\flatbuffers.h ****   /// @param[in] len The number of bytes that should be stored from `str`.
1469:C:/Renesas/e2studio_2021_01_workspace_RZA2M_ANPR/ANPR_RZA2M_GR_MANGO/src/tensorflow_lite/third_party/flatbuffers/include/flatbuffers\flatbuffers.h ****   /// @return Returns the offset in the buffer where the string starts.
1470:C:/Renesas/e2studio_2021_01_workspace_RZA2M_ANPR/ANPR_RZA2M_GR_MANGO/src/tensorflow_lite/third_party/flatbuffers/include/flatbuffers\flatbuffers.h ****   Offset<String> CreateString(const char *str, size_t len) {
1471:C:/Renesas/e2studio_2021_01_workspace_RZA2M_ANPR/ANPR_RZA2M_GR_MANGO/src/tensorflow_lite/third_party/flatbuffers/include/flatbuffers\flatbuffers.h ****     NotNested();
1472:C:/Renesas/e2studio_2021_01_workspace_RZA2M_ANPR/ANPR_RZA2M_GR_MANGO/src/tensorflow_lite/third_party/flatbuffers/include/flatbuffers\flatbuffers.h ****     PreAlign<uoffset_t>(len + 1);  // Always 0-terminated.
1473:C:/Renesas/e2studio_2021_01_workspace_RZA2M_ANPR/ANPR_RZA2M_GR_MANGO/src/tensorflow_lite/third_party/flatbuffers/include/flatbuffers\flatbuffers.h ****     buf_.fill(1);
1474:C:/Renesas/e2studio_2021_01_workspace_RZA2M_ANPR/ANPR_RZA2M_GR_MANGO/src/tensorflow_lite/third_party/flatbuffers/include/flatbuffers\flatbuffers.h ****     PushBytes(reinterpret_cast<const uint8_t *>(str), len);
1475:C:/Renesas/e2studio_2021_01_workspace_RZA2M_ANPR/ANPR_RZA2M_GR_MANGO/src/tensorflow_lite/third_party/flatbuffers/include/flatbuffers\flatbuffers.h ****     PushElement(static_cast<uoffset_t>(len));
1476:C:/Renesas/e2studio_2021_01_workspace_RZA2M_ANPR/ANPR_RZA2M_GR_MANGO/src/tensorflow_lite/third_party/flatbuffers/include/flatbuffers\flatbuffers.h ****     return Offset<String>(GetSize());
1477:C:/Renesas/e2studio_2021_01_workspace_RZA2M_ANPR/ANPR_RZA2M_GR_MANGO/src/tensorflow_lite/third_party/flatbuffers/include/flatbuffers\flatbuffers.h ****   }
1478:C:/Renesas/e2studio_2021_01_workspace_RZA2M_ANPR/ANPR_RZA2M_GR_MANGO/src/tensorflow_lite/third_party/flatbuffers/include/flatbuffers\flatbuffers.h **** 
1479:C:/Renesas/e2studio_2021_01_workspace_RZA2M_ANPR/ANPR_RZA2M_GR_MANGO/src/tensorflow_lite/third_party/flatbuffers/include/flatbuffers\flatbuffers.h ****   /// @brief Store a string in the buffer, which is null-terminated.
1480:C:/Renesas/e2studio_2021_01_workspace_RZA2M_ANPR/ANPR_RZA2M_GR_MANGO/src/tensorflow_lite/third_party/flatbuffers/include/flatbuffers\flatbuffers.h ****   /// @param[in] str A const char pointer to a C-string to add to the buffer.
1481:C:/Renesas/e2studio_2021_01_workspace_RZA2M_ANPR/ANPR_RZA2M_GR_MANGO/src/tensorflow_lite/third_party/flatbuffers/include/flatbuffers\flatbuffers.h ****   /// @return Returns the offset in the buffer where the string starts.
1482:C:/Renesas/e2studio_2021_01_workspace_RZA2M_ANPR/ANPR_RZA2M_GR_MANGO/src/tensorflow_lite/third_party/flatbuffers/include/flatbuffers\flatbuffers.h ****   Offset<String> CreateString(const char *str) {
1483:C:/Renesas/e2studio_2021_01_workspace_RZA2M_ANPR/ANPR_RZA2M_GR_MANGO/src/tensorflow_lite/third_party/flatbuffers/include/flatbuffers\flatbuffers.h ****     return CreateString(str, strlen(str));
1484:C:/Renesas/e2studio_2021_01_workspace_RZA2M_ANPR/ANPR_RZA2M_GR_MANGO/src/tensorflow_lite/third_party/flatbuffers/include/flatbuffers\flatbuffers.h ****   }
1485:C:/Renesas/e2studio_2021_01_workspace_RZA2M_ANPR/ANPR_RZA2M_GR_MANGO/src/tensorflow_lite/third_party/flatbuffers/include/flatbuffers\flatbuffers.h **** 
1486:C:/Renesas/e2studio_2021_01_workspace_RZA2M_ANPR/ANPR_RZA2M_GR_MANGO/src/tensorflow_lite/third_party/flatbuffers/include/flatbuffers\flatbuffers.h ****   /// @brief Store a string in the buffer, which is null-terminated.
1487:C:/Renesas/e2studio_2021_01_workspace_RZA2M_ANPR/ANPR_RZA2M_GR_MANGO/src/tensorflow_lite/third_party/flatbuffers/include/flatbuffers\flatbuffers.h ****   /// @param[in] str A char pointer to a C-string to add to the buffer.
1488:C:/Renesas/e2studio_2021_01_workspace_RZA2M_ANPR/ANPR_RZA2M_GR_MANGO/src/tensorflow_lite/third_party/flatbuffers/include/flatbuffers\flatbuffers.h ****   /// @return Returns the offset in the buffer where the string starts.
1489:C:/Renesas/e2studio_2021_01_workspace_RZA2M_ANPR/ANPR_RZA2M_GR_MANGO/src/tensorflow_lite/third_party/flatbuffers/include/flatbuffers\flatbuffers.h ****   Offset<String> CreateString(char *str) {
1490:C:/Renesas/e2studio_2021_01_workspace_RZA2M_ANPR/ANPR_RZA2M_GR_MANGO/src/tensorflow_lite/third_party/flatbuffers/include/flatbuffers\flatbuffers.h ****     return CreateString(str, strlen(str));
1491:C:/Renesas/e2studio_2021_01_workspace_RZA2M_ANPR/ANPR_RZA2M_GR_MANGO/src/tensorflow_lite/third_party/flatbuffers/include/flatbuffers\flatbuffers.h ****   }
1492:C:/Renesas/e2studio_2021_01_workspace_RZA2M_ANPR/ANPR_RZA2M_GR_MANGO/src/tensorflow_lite/third_party/flatbuffers/include/flatbuffers\flatbuffers.h **** 
1493:C:/Renesas/e2studio_2021_01_workspace_RZA2M_ANPR/ANPR_RZA2M_GR_MANGO/src/tensorflow_lite/third_party/flatbuffers/include/flatbuffers\flatbuffers.h ****   /// @brief Store a string in the buffer, which can contain any binary data.
1494:C:/Renesas/e2studio_2021_01_workspace_RZA2M_ANPR/ANPR_RZA2M_GR_MANGO/src/tensorflow_lite/third_party/flatbuffers/include/flatbuffers\flatbuffers.h ****   /// @param[in] str A const reference to a std::string to store in the buffer.
1495:C:/Renesas/e2studio_2021_01_workspace_RZA2M_ANPR/ANPR_RZA2M_GR_MANGO/src/tensorflow_lite/third_party/flatbuffers/include/flatbuffers\flatbuffers.h ****   /// @return Returns the offset in the buffer where the string starts.
1496:C:/Renesas/e2studio_2021_01_workspace_RZA2M_ANPR/ANPR_RZA2M_GR_MANGO/src/tensorflow_lite/third_party/flatbuffers/include/flatbuffers\flatbuffers.h ****   Offset<String> CreateString(const std::string &str) {
1497:C:/Renesas/e2studio_2021_01_workspace_RZA2M_ANPR/ANPR_RZA2M_GR_MANGO/src/tensorflow_lite/third_party/flatbuffers/include/flatbuffers\flatbuffers.h ****     return CreateString(str.c_str(), str.length());
1498:C:/Renesas/e2studio_2021_01_workspace_RZA2M_ANPR/ANPR_RZA2M_GR_MANGO/src/tensorflow_lite/third_party/flatbuffers/include/flatbuffers\flatbuffers.h ****   }
1499:C:/Renesas/e2studio_2021_01_workspace_RZA2M_ANPR/ANPR_RZA2M_GR_MANGO/src/tensorflow_lite/third_party/flatbuffers/include/flatbuffers\flatbuffers.h **** 
1500:C:/Renesas/e2studio_2021_01_workspace_RZA2M_ANPR/ANPR_RZA2M_GR_MANGO/src/tensorflow_lite/third_party/flatbuffers/include/flatbuffers\flatbuffers.h ****   // clang-format off
1501:C:/Renesas/e2studio_2021_01_workspace_RZA2M_ANPR/ANPR_RZA2M_GR_MANGO/src/tensorflow_lite/third_party/flatbuffers/include/flatbuffers\flatbuffers.h ****   #ifdef FLATBUFFERS_HAS_STRING_VIEW
1502:C:/Renesas/e2studio_2021_01_workspace_RZA2M_ANPR/ANPR_RZA2M_GR_MANGO/src/tensorflow_lite/third_party/flatbuffers/include/flatbuffers\flatbuffers.h ****   /// @brief Store a string in the buffer, which can contain any binary data.
1503:C:/Renesas/e2studio_2021_01_workspace_RZA2M_ANPR/ANPR_RZA2M_GR_MANGO/src/tensorflow_lite/third_party/flatbuffers/include/flatbuffers\flatbuffers.h ****   /// @param[in] str A const string_view to copy in to the buffer.
1504:C:/Renesas/e2studio_2021_01_workspace_RZA2M_ANPR/ANPR_RZA2M_GR_MANGO/src/tensorflow_lite/third_party/flatbuffers/include/flatbuffers\flatbuffers.h ****   /// @return Returns the offset in the buffer where the string starts.
1505:C:/Renesas/e2studio_2021_01_workspace_RZA2M_ANPR/ANPR_RZA2M_GR_MANGO/src/tensorflow_lite/third_party/flatbuffers/include/flatbuffers\flatbuffers.h ****   Offset<String> CreateString(flatbuffers::string_view str) {
1506:C:/Renesas/e2studio_2021_01_workspace_RZA2M_ANPR/ANPR_RZA2M_GR_MANGO/src/tensorflow_lite/third_party/flatbuffers/include/flatbuffers\flatbuffers.h ****     return CreateString(str.data(), str.size());
1507:C:/Renesas/e2studio_2021_01_workspace_RZA2M_ANPR/ANPR_RZA2M_GR_MANGO/src/tensorflow_lite/third_party/flatbuffers/include/flatbuffers\flatbuffers.h ****   }
1508:C:/Renesas/e2studio_2021_01_workspace_RZA2M_ANPR/ANPR_RZA2M_GR_MANGO/src/tensorflow_lite/third_party/flatbuffers/include/flatbuffers\flatbuffers.h ****   #endif // FLATBUFFERS_HAS_STRING_VIEW
1509:C:/Renesas/e2studio_2021_01_workspace_RZA2M_ANPR/ANPR_RZA2M_GR_MANGO/src/tensorflow_lite/third_party/flatbuffers/include/flatbuffers\flatbuffers.h ****   // clang-format on
1510:C:/Renesas/e2studio_2021_01_workspace_RZA2M_ANPR/ANPR_RZA2M_GR_MANGO/src/tensorflow_lite/third_party/flatbuffers/include/flatbuffers\flatbuffers.h **** 
1511:C:/Renesas/e2studio_2021_01_workspace_RZA2M_ANPR/ANPR_RZA2M_GR_MANGO/src/tensorflow_lite/third_party/flatbuffers/include/flatbuffers\flatbuffers.h ****   /// @brief Store a string in the buffer, which can contain any binary data.
1512:C:/Renesas/e2studio_2021_01_workspace_RZA2M_ANPR/ANPR_RZA2M_GR_MANGO/src/tensorflow_lite/third_party/flatbuffers/include/flatbuffers\flatbuffers.h ****   /// @param[in] str A const pointer to a `String` struct to add to the buffer.
1513:C:/Renesas/e2studio_2021_01_workspace_RZA2M_ANPR/ANPR_RZA2M_GR_MANGO/src/tensorflow_lite/third_party/flatbuffers/include/flatbuffers\flatbuffers.h ****   /// @return Returns the offset in the buffer where the string starts
1514:C:/Renesas/e2studio_2021_01_workspace_RZA2M_ANPR/ANPR_RZA2M_GR_MANGO/src/tensorflow_lite/third_party/flatbuffers/include/flatbuffers\flatbuffers.h ****   Offset<String> CreateString(const String *str) {
1515:C:/Renesas/e2studio_2021_01_workspace_RZA2M_ANPR/ANPR_RZA2M_GR_MANGO/src/tensorflow_lite/third_party/flatbuffers/include/flatbuffers\flatbuffers.h ****     return str ? CreateString(str->c_str(), str->size()) : 0;
1516:C:/Renesas/e2studio_2021_01_workspace_RZA2M_ANPR/ANPR_RZA2M_GR_MANGO/src/tensorflow_lite/third_party/flatbuffers/include/flatbuffers\flatbuffers.h ****   }
1517:C:/Renesas/e2studio_2021_01_workspace_RZA2M_ANPR/ANPR_RZA2M_GR_MANGO/src/tensorflow_lite/third_party/flatbuffers/include/flatbuffers\flatbuffers.h **** 
1518:C:/Renesas/e2studio_2021_01_workspace_RZA2M_ANPR/ANPR_RZA2M_GR_MANGO/src/tensorflow_lite/third_party/flatbuffers/include/flatbuffers\flatbuffers.h ****   /// @brief Store a string in the buffer, which can contain any binary data.
1519:C:/Renesas/e2studio_2021_01_workspace_RZA2M_ANPR/ANPR_RZA2M_GR_MANGO/src/tensorflow_lite/third_party/flatbuffers/include/flatbuffers\flatbuffers.h ****   /// @param[in] str A const reference to a std::string like type with support
1520:C:/Renesas/e2studio_2021_01_workspace_RZA2M_ANPR/ANPR_RZA2M_GR_MANGO/src/tensorflow_lite/third_party/flatbuffers/include/flatbuffers\flatbuffers.h ****   /// of T::c_str() and T::length() to store in the buffer.
1521:C:/Renesas/e2studio_2021_01_workspace_RZA2M_ANPR/ANPR_RZA2M_GR_MANGO/src/tensorflow_lite/third_party/flatbuffers/include/flatbuffers\flatbuffers.h ****   /// @return Returns the offset in the buffer where the string starts.
1522:C:/Renesas/e2studio_2021_01_workspace_RZA2M_ANPR/ANPR_RZA2M_GR_MANGO/src/tensorflow_lite/third_party/flatbuffers/include/flatbuffers\flatbuffers.h ****   template<typename T> Offset<String> CreateString(const T &str) {
1523:C:/Renesas/e2studio_2021_01_workspace_RZA2M_ANPR/ANPR_RZA2M_GR_MANGO/src/tensorflow_lite/third_party/flatbuffers/include/flatbuffers\flatbuffers.h ****     return CreateString(str.c_str(), str.length());
1524:C:/Renesas/e2studio_2021_01_workspace_RZA2M_ANPR/ANPR_RZA2M_GR_MANGO/src/tensorflow_lite/third_party/flatbuffers/include/flatbuffers\flatbuffers.h ****   }
1525:C:/Renesas/e2studio_2021_01_workspace_RZA2M_ANPR/ANPR_RZA2M_GR_MANGO/src/tensorflow_lite/third_party/flatbuffers/include/flatbuffers\flatbuffers.h **** 
1526:C:/Renesas/e2studio_2021_01_workspace_RZA2M_ANPR/ANPR_RZA2M_GR_MANGO/src/tensorflow_lite/third_party/flatbuffers/include/flatbuffers\flatbuffers.h ****   /// @brief Store a string in the buffer, which can contain any binary data.
1527:C:/Renesas/e2studio_2021_01_workspace_RZA2M_ANPR/ANPR_RZA2M_GR_MANGO/src/tensorflow_lite/third_party/flatbuffers/include/flatbuffers\flatbuffers.h ****   /// If a string with this exact contents has already been serialized before,
1528:C:/Renesas/e2studio_2021_01_workspace_RZA2M_ANPR/ANPR_RZA2M_GR_MANGO/src/tensorflow_lite/third_party/flatbuffers/include/flatbuffers\flatbuffers.h ****   /// instead simply returns the offset of the existing string.
1529:C:/Renesas/e2studio_2021_01_workspace_RZA2M_ANPR/ANPR_RZA2M_GR_MANGO/src/tensorflow_lite/third_party/flatbuffers/include/flatbuffers\flatbuffers.h ****   /// @param[in] str A const char pointer to the data to be stored as a string.
1530:C:/Renesas/e2studio_2021_01_workspace_RZA2M_ANPR/ANPR_RZA2M_GR_MANGO/src/tensorflow_lite/third_party/flatbuffers/include/flatbuffers\flatbuffers.h ****   /// @param[in] len The number of bytes that should be stored from `str`.
1531:C:/Renesas/e2studio_2021_01_workspace_RZA2M_ANPR/ANPR_RZA2M_GR_MANGO/src/tensorflow_lite/third_party/flatbuffers/include/flatbuffers\flatbuffers.h ****   /// @return Returns the offset in the buffer where the string starts.
1532:C:/Renesas/e2studio_2021_01_workspace_RZA2M_ANPR/ANPR_RZA2M_GR_MANGO/src/tensorflow_lite/third_party/flatbuffers/include/flatbuffers\flatbuffers.h ****   Offset<String> CreateSharedString(const char *str, size_t len) {
1533:C:/Renesas/e2studio_2021_01_workspace_RZA2M_ANPR/ANPR_RZA2M_GR_MANGO/src/tensorflow_lite/third_party/flatbuffers/include/flatbuffers\flatbuffers.h ****     if (!string_pool)
1534:C:/Renesas/e2studio_2021_01_workspace_RZA2M_ANPR/ANPR_RZA2M_GR_MANGO/src/tensorflow_lite/third_party/flatbuffers/include/flatbuffers\flatbuffers.h ****       string_pool = new StringOffsetMap(StringOffsetCompare(buf_));
1535:C:/Renesas/e2studio_2021_01_workspace_RZA2M_ANPR/ANPR_RZA2M_GR_MANGO/src/tensorflow_lite/third_party/flatbuffers/include/flatbuffers\flatbuffers.h ****     auto size_before_string = buf_.size();
1536:C:/Renesas/e2studio_2021_01_workspace_RZA2M_ANPR/ANPR_RZA2M_GR_MANGO/src/tensorflow_lite/third_party/flatbuffers/include/flatbuffers\flatbuffers.h ****     // Must first serialize the string, since the set is all offsets into
1537:C:/Renesas/e2studio_2021_01_workspace_RZA2M_ANPR/ANPR_RZA2M_GR_MANGO/src/tensorflow_lite/third_party/flatbuffers/include/flatbuffers\flatbuffers.h ****     // buffer.
1538:C:/Renesas/e2studio_2021_01_workspace_RZA2M_ANPR/ANPR_RZA2M_GR_MANGO/src/tensorflow_lite/third_party/flatbuffers/include/flatbuffers\flatbuffers.h ****     auto off = CreateString(str, len);
1539:C:/Renesas/e2studio_2021_01_workspace_RZA2M_ANPR/ANPR_RZA2M_GR_MANGO/src/tensorflow_lite/third_party/flatbuffers/include/flatbuffers\flatbuffers.h ****     auto it = string_pool->find(off);
1540:C:/Renesas/e2studio_2021_01_workspace_RZA2M_ANPR/ANPR_RZA2M_GR_MANGO/src/tensorflow_lite/third_party/flatbuffers/include/flatbuffers\flatbuffers.h ****     // If it exists we reuse existing serialized data!
1541:C:/Renesas/e2studio_2021_01_workspace_RZA2M_ANPR/ANPR_RZA2M_GR_MANGO/src/tensorflow_lite/third_party/flatbuffers/include/flatbuffers\flatbuffers.h ****     if (it != string_pool->end()) {
1542:C:/Renesas/e2studio_2021_01_workspace_RZA2M_ANPR/ANPR_RZA2M_GR_MANGO/src/tensorflow_lite/third_party/flatbuffers/include/flatbuffers\flatbuffers.h ****       // We can remove the string we serialized.
1543:C:/Renesas/e2studio_2021_01_workspace_RZA2M_ANPR/ANPR_RZA2M_GR_MANGO/src/tensorflow_lite/third_party/flatbuffers/include/flatbuffers\flatbuffers.h ****       buf_.pop(buf_.size() - size_before_string);
1544:C:/Renesas/e2studio_2021_01_workspace_RZA2M_ANPR/ANPR_RZA2M_GR_MANGO/src/tensorflow_lite/third_party/flatbuffers/include/flatbuffers\flatbuffers.h ****       return *it;
1545:C:/Renesas/e2studio_2021_01_workspace_RZA2M_ANPR/ANPR_RZA2M_GR_MANGO/src/tensorflow_lite/third_party/flatbuffers/include/flatbuffers\flatbuffers.h ****     }
1546:C:/Renesas/e2studio_2021_01_workspace_RZA2M_ANPR/ANPR_RZA2M_GR_MANGO/src/tensorflow_lite/third_party/flatbuffers/include/flatbuffers\flatbuffers.h ****     // Record this string for future use.
1547:C:/Renesas/e2studio_2021_01_workspace_RZA2M_ANPR/ANPR_RZA2M_GR_MANGO/src/tensorflow_lite/third_party/flatbuffers/include/flatbuffers\flatbuffers.h ****     string_pool->insert(off);
1548:C:/Renesas/e2studio_2021_01_workspace_RZA2M_ANPR/ANPR_RZA2M_GR_MANGO/src/tensorflow_lite/third_party/flatbuffers/include/flatbuffers\flatbuffers.h ****     return off;
1549:C:/Renesas/e2studio_2021_01_workspace_RZA2M_ANPR/ANPR_RZA2M_GR_MANGO/src/tensorflow_lite/third_party/flatbuffers/include/flatbuffers\flatbuffers.h ****   }
1550:C:/Renesas/e2studio_2021_01_workspace_RZA2M_ANPR/ANPR_RZA2M_GR_MANGO/src/tensorflow_lite/third_party/flatbuffers/include/flatbuffers\flatbuffers.h **** 
1551:C:/Renesas/e2studio_2021_01_workspace_RZA2M_ANPR/ANPR_RZA2M_GR_MANGO/src/tensorflow_lite/third_party/flatbuffers/include/flatbuffers\flatbuffers.h ****   /// @brief Store a string in the buffer, which null-terminated.
1552:C:/Renesas/e2studio_2021_01_workspace_RZA2M_ANPR/ANPR_RZA2M_GR_MANGO/src/tensorflow_lite/third_party/flatbuffers/include/flatbuffers\flatbuffers.h ****   /// If a string with this exact contents has already been serialized before,
1553:C:/Renesas/e2studio_2021_01_workspace_RZA2M_ANPR/ANPR_RZA2M_GR_MANGO/src/tensorflow_lite/third_party/flatbuffers/include/flatbuffers\flatbuffers.h ****   /// instead simply returns the offset of the existing string.
1554:C:/Renesas/e2studio_2021_01_workspace_RZA2M_ANPR/ANPR_RZA2M_GR_MANGO/src/tensorflow_lite/third_party/flatbuffers/include/flatbuffers\flatbuffers.h ****   /// @param[in] str A const char pointer to a C-string to add to the buffer.
1555:C:/Renesas/e2studio_2021_01_workspace_RZA2M_ANPR/ANPR_RZA2M_GR_MANGO/src/tensorflow_lite/third_party/flatbuffers/include/flatbuffers\flatbuffers.h ****   /// @return Returns the offset in the buffer where the string starts.
1556:C:/Renesas/e2studio_2021_01_workspace_RZA2M_ANPR/ANPR_RZA2M_GR_MANGO/src/tensorflow_lite/third_party/flatbuffers/include/flatbuffers\flatbuffers.h ****   Offset<String> CreateSharedString(const char *str) {
1557:C:/Renesas/e2studio_2021_01_workspace_RZA2M_ANPR/ANPR_RZA2M_GR_MANGO/src/tensorflow_lite/third_party/flatbuffers/include/flatbuffers\flatbuffers.h ****     return CreateSharedString(str, strlen(str));
1558:C:/Renesas/e2studio_2021_01_workspace_RZA2M_ANPR/ANPR_RZA2M_GR_MANGO/src/tensorflow_lite/third_party/flatbuffers/include/flatbuffers\flatbuffers.h ****   }
1559:C:/Renesas/e2studio_2021_01_workspace_RZA2M_ANPR/ANPR_RZA2M_GR_MANGO/src/tensorflow_lite/third_party/flatbuffers/include/flatbuffers\flatbuffers.h **** 
1560:C:/Renesas/e2studio_2021_01_workspace_RZA2M_ANPR/ANPR_RZA2M_GR_MANGO/src/tensorflow_lite/third_party/flatbuffers/include/flatbuffers\flatbuffers.h ****   /// @brief Store a string in the buffer, which can contain any binary data.
1561:C:/Renesas/e2studio_2021_01_workspace_RZA2M_ANPR/ANPR_RZA2M_GR_MANGO/src/tensorflow_lite/third_party/flatbuffers/include/flatbuffers\flatbuffers.h ****   /// If a string with this exact contents has already been serialized before,
1562:C:/Renesas/e2studio_2021_01_workspace_RZA2M_ANPR/ANPR_RZA2M_GR_MANGO/src/tensorflow_lite/third_party/flatbuffers/include/flatbuffers\flatbuffers.h ****   /// instead simply returns the offset of the existing string.
1563:C:/Renesas/e2studio_2021_01_workspace_RZA2M_ANPR/ANPR_RZA2M_GR_MANGO/src/tensorflow_lite/third_party/flatbuffers/include/flatbuffers\flatbuffers.h ****   /// @param[in] str A const reference to a std::string to store in the buffer.
1564:C:/Renesas/e2studio_2021_01_workspace_RZA2M_ANPR/ANPR_RZA2M_GR_MANGO/src/tensorflow_lite/third_party/flatbuffers/include/flatbuffers\flatbuffers.h ****   /// @return Returns the offset in the buffer where the string starts.
1565:C:/Renesas/e2studio_2021_01_workspace_RZA2M_ANPR/ANPR_RZA2M_GR_MANGO/src/tensorflow_lite/third_party/flatbuffers/include/flatbuffers\flatbuffers.h ****   Offset<String> CreateSharedString(const std::string &str) {
1566:C:/Renesas/e2studio_2021_01_workspace_RZA2M_ANPR/ANPR_RZA2M_GR_MANGO/src/tensorflow_lite/third_party/flatbuffers/include/flatbuffers\flatbuffers.h ****     return CreateSharedString(str.c_str(), str.length());
1567:C:/Renesas/e2studio_2021_01_workspace_RZA2M_ANPR/ANPR_RZA2M_GR_MANGO/src/tensorflow_lite/third_party/flatbuffers/include/flatbuffers\flatbuffers.h ****   }
1568:C:/Renesas/e2studio_2021_01_workspace_RZA2M_ANPR/ANPR_RZA2M_GR_MANGO/src/tensorflow_lite/third_party/flatbuffers/include/flatbuffers\flatbuffers.h **** 
1569:C:/Renesas/e2studio_2021_01_workspace_RZA2M_ANPR/ANPR_RZA2M_GR_MANGO/src/tensorflow_lite/third_party/flatbuffers/include/flatbuffers\flatbuffers.h ****   /// @brief Store a string in the buffer, which can contain any binary data.
1570:C:/Renesas/e2studio_2021_01_workspace_RZA2M_ANPR/ANPR_RZA2M_GR_MANGO/src/tensorflow_lite/third_party/flatbuffers/include/flatbuffers\flatbuffers.h ****   /// If a string with this exact contents has already been serialized before,
1571:C:/Renesas/e2studio_2021_01_workspace_RZA2M_ANPR/ANPR_RZA2M_GR_MANGO/src/tensorflow_lite/third_party/flatbuffers/include/flatbuffers\flatbuffers.h ****   /// instead simply returns the offset of the existing string.
1572:C:/Renesas/e2studio_2021_01_workspace_RZA2M_ANPR/ANPR_RZA2M_GR_MANGO/src/tensorflow_lite/third_party/flatbuffers/include/flatbuffers\flatbuffers.h ****   /// @param[in] str A const pointer to a `String` struct to add to the buffer.
1573:C:/Renesas/e2studio_2021_01_workspace_RZA2M_ANPR/ANPR_RZA2M_GR_MANGO/src/tensorflow_lite/third_party/flatbuffers/include/flatbuffers\flatbuffers.h ****   /// @return Returns the offset in the buffer where the string starts
1574:C:/Renesas/e2studio_2021_01_workspace_RZA2M_ANPR/ANPR_RZA2M_GR_MANGO/src/tensorflow_lite/third_party/flatbuffers/include/flatbuffers\flatbuffers.h ****   Offset<String> CreateSharedString(const String *str) {
1575:C:/Renesas/e2studio_2021_01_workspace_RZA2M_ANPR/ANPR_RZA2M_GR_MANGO/src/tensorflow_lite/third_party/flatbuffers/include/flatbuffers\flatbuffers.h ****     return CreateSharedString(str->c_str(), str->size());
1576:C:/Renesas/e2studio_2021_01_workspace_RZA2M_ANPR/ANPR_RZA2M_GR_MANGO/src/tensorflow_lite/third_party/flatbuffers/include/flatbuffers\flatbuffers.h ****   }
1577:C:/Renesas/e2studio_2021_01_workspace_RZA2M_ANPR/ANPR_RZA2M_GR_MANGO/src/tensorflow_lite/third_party/flatbuffers/include/flatbuffers\flatbuffers.h **** 
1578:C:/Renesas/e2studio_2021_01_workspace_RZA2M_ANPR/ANPR_RZA2M_GR_MANGO/src/tensorflow_lite/third_party/flatbuffers/include/flatbuffers\flatbuffers.h ****   /// @cond FLATBUFFERS_INTERNAL
1579:C:/Renesas/e2studio_2021_01_workspace_RZA2M_ANPR/ANPR_RZA2M_GR_MANGO/src/tensorflow_lite/third_party/flatbuffers/include/flatbuffers\flatbuffers.h ****   uoffset_t EndVector(size_t len) {
1580:C:/Renesas/e2studio_2021_01_workspace_RZA2M_ANPR/ANPR_RZA2M_GR_MANGO/src/tensorflow_lite/third_party/flatbuffers/include/flatbuffers\flatbuffers.h ****     FLATBUFFERS_ASSERT(nested);  // Hit if no corresponding StartVector.
1581:C:/Renesas/e2studio_2021_01_workspace_RZA2M_ANPR/ANPR_RZA2M_GR_MANGO/src/tensorflow_lite/third_party/flatbuffers/include/flatbuffers\flatbuffers.h ****     nested = false;
1582:C:/Renesas/e2studio_2021_01_workspace_RZA2M_ANPR/ANPR_RZA2M_GR_MANGO/src/tensorflow_lite/third_party/flatbuffers/include/flatbuffers\flatbuffers.h ****     return PushElement(static_cast<uoffset_t>(len));
1583:C:/Renesas/e2studio_2021_01_workspace_RZA2M_ANPR/ANPR_RZA2M_GR_MANGO/src/tensorflow_lite/third_party/flatbuffers/include/flatbuffers\flatbuffers.h ****   }
1584:C:/Renesas/e2studio_2021_01_workspace_RZA2M_ANPR/ANPR_RZA2M_GR_MANGO/src/tensorflow_lite/third_party/flatbuffers/include/flatbuffers\flatbuffers.h **** 
1585:C:/Renesas/e2studio_2021_01_workspace_RZA2M_ANPR/ANPR_RZA2M_GR_MANGO/src/tensorflow_lite/third_party/flatbuffers/include/flatbuffers\flatbuffers.h ****   void StartVector(size_t len, size_t elemsize) {
1586:C:/Renesas/e2studio_2021_01_workspace_RZA2M_ANPR/ANPR_RZA2M_GR_MANGO/src/tensorflow_lite/third_party/flatbuffers/include/flatbuffers\flatbuffers.h ****     NotNested();
1587:C:/Renesas/e2studio_2021_01_workspace_RZA2M_ANPR/ANPR_RZA2M_GR_MANGO/src/tensorflow_lite/third_party/flatbuffers/include/flatbuffers\flatbuffers.h ****     nested = true;
1588:C:/Renesas/e2studio_2021_01_workspace_RZA2M_ANPR/ANPR_RZA2M_GR_MANGO/src/tensorflow_lite/third_party/flatbuffers/include/flatbuffers\flatbuffers.h ****     PreAlign<uoffset_t>(len * elemsize);
1589:C:/Renesas/e2studio_2021_01_workspace_RZA2M_ANPR/ANPR_RZA2M_GR_MANGO/src/tensorflow_lite/third_party/flatbuffers/include/flatbuffers\flatbuffers.h ****     PreAlign(len * elemsize, elemsize);  // Just in case elemsize > uoffset_t.
1590:C:/Renesas/e2studio_2021_01_workspace_RZA2M_ANPR/ANPR_RZA2M_GR_MANGO/src/tensorflow_lite/third_party/flatbuffers/include/flatbuffers\flatbuffers.h ****   }
1591:C:/Renesas/e2studio_2021_01_workspace_RZA2M_ANPR/ANPR_RZA2M_GR_MANGO/src/tensorflow_lite/third_party/flatbuffers/include/flatbuffers\flatbuffers.h **** 
1592:C:/Renesas/e2studio_2021_01_workspace_RZA2M_ANPR/ANPR_RZA2M_GR_MANGO/src/tensorflow_lite/third_party/flatbuffers/include/flatbuffers\flatbuffers.h ****   // Call this right before StartVector/CreateVector if you want to force the
1593:C:/Renesas/e2studio_2021_01_workspace_RZA2M_ANPR/ANPR_RZA2M_GR_MANGO/src/tensorflow_lite/third_party/flatbuffers/include/flatbuffers\flatbuffers.h ****   // alignment to be something different than what the element size would
1594:C:/Renesas/e2studio_2021_01_workspace_RZA2M_ANPR/ANPR_RZA2M_GR_MANGO/src/tensorflow_lite/third_party/flatbuffers/include/flatbuffers\flatbuffers.h ****   // normally dictate.
1595:C:/Renesas/e2studio_2021_01_workspace_RZA2M_ANPR/ANPR_RZA2M_GR_MANGO/src/tensorflow_lite/third_party/flatbuffers/include/flatbuffers\flatbuffers.h ****   // This is useful when storing a nested_flatbuffer in a vector of bytes,
1596:C:/Renesas/e2studio_2021_01_workspace_RZA2M_ANPR/ANPR_RZA2M_GR_MANGO/src/tensorflow_lite/third_party/flatbuffers/include/flatbuffers\flatbuffers.h ****   // or when storing SIMD floats, etc.
1597:C:/Renesas/e2studio_2021_01_workspace_RZA2M_ANPR/ANPR_RZA2M_GR_MANGO/src/tensorflow_lite/third_party/flatbuffers/include/flatbuffers\flatbuffers.h ****   void ForceVectorAlignment(size_t len, size_t elemsize, size_t alignment) {
1598:C:/Renesas/e2studio_2021_01_workspace_RZA2M_ANPR/ANPR_RZA2M_GR_MANGO/src/tensorflow_lite/third_party/flatbuffers/include/flatbuffers\flatbuffers.h ****     PreAlign(len * elemsize, alignment);
1599:C:/Renesas/e2studio_2021_01_workspace_RZA2M_ANPR/ANPR_RZA2M_GR_MANGO/src/tensorflow_lite/third_party/flatbuffers/include/flatbuffers\flatbuffers.h ****   }
1600:C:/Renesas/e2studio_2021_01_workspace_RZA2M_ANPR/ANPR_RZA2M_GR_MANGO/src/tensorflow_lite/third_party/flatbuffers/include/flatbuffers\flatbuffers.h **** 
1601:C:/Renesas/e2studio_2021_01_workspace_RZA2M_ANPR/ANPR_RZA2M_GR_MANGO/src/tensorflow_lite/third_party/flatbuffers/include/flatbuffers\flatbuffers.h ****   // Similar to ForceVectorAlignment but for String fields.
1602:C:/Renesas/e2studio_2021_01_workspace_RZA2M_ANPR/ANPR_RZA2M_GR_MANGO/src/tensorflow_lite/third_party/flatbuffers/include/flatbuffers\flatbuffers.h ****   void ForceStringAlignment(size_t len, size_t alignment) {
1603:C:/Renesas/e2studio_2021_01_workspace_RZA2M_ANPR/ANPR_RZA2M_GR_MANGO/src/tensorflow_lite/third_party/flatbuffers/include/flatbuffers\flatbuffers.h ****     PreAlign((len + 1) * sizeof(char), alignment);
1604:C:/Renesas/e2studio_2021_01_workspace_RZA2M_ANPR/ANPR_RZA2M_GR_MANGO/src/tensorflow_lite/third_party/flatbuffers/include/flatbuffers\flatbuffers.h ****   }
1605:C:/Renesas/e2studio_2021_01_workspace_RZA2M_ANPR/ANPR_RZA2M_GR_MANGO/src/tensorflow_lite/third_party/flatbuffers/include/flatbuffers\flatbuffers.h **** 
1606:C:/Renesas/e2studio_2021_01_workspace_RZA2M_ANPR/ANPR_RZA2M_GR_MANGO/src/tensorflow_lite/third_party/flatbuffers/include/flatbuffers\flatbuffers.h ****   /// @endcond
1607:C:/Renesas/e2studio_2021_01_workspace_RZA2M_ANPR/ANPR_RZA2M_GR_MANGO/src/tensorflow_lite/third_party/flatbuffers/include/flatbuffers\flatbuffers.h **** 
1608:C:/Renesas/e2studio_2021_01_workspace_RZA2M_ANPR/ANPR_RZA2M_GR_MANGO/src/tensorflow_lite/third_party/flatbuffers/include/flatbuffers\flatbuffers.h ****   /// @brief Serialize an array into a FlatBuffer `vector`.
1609:C:/Renesas/e2studio_2021_01_workspace_RZA2M_ANPR/ANPR_RZA2M_GR_MANGO/src/tensorflow_lite/third_party/flatbuffers/include/flatbuffers\flatbuffers.h ****   /// @tparam T The data type of the array elements.
1610:C:/Renesas/e2studio_2021_01_workspace_RZA2M_ANPR/ANPR_RZA2M_GR_MANGO/src/tensorflow_lite/third_party/flatbuffers/include/flatbuffers\flatbuffers.h ****   /// @param[in] v A pointer to the array of type `T` to serialize into the
1611:C:/Renesas/e2studio_2021_01_workspace_RZA2M_ANPR/ANPR_RZA2M_GR_MANGO/src/tensorflow_lite/third_party/flatbuffers/include/flatbuffers\flatbuffers.h ****   /// buffer as a `vector`.
1612:C:/Renesas/e2studio_2021_01_workspace_RZA2M_ANPR/ANPR_RZA2M_GR_MANGO/src/tensorflow_lite/third_party/flatbuffers/include/flatbuffers\flatbuffers.h ****   /// @param[in] len The number of elements to serialize.
1613:C:/Renesas/e2studio_2021_01_workspace_RZA2M_ANPR/ANPR_RZA2M_GR_MANGO/src/tensorflow_lite/third_party/flatbuffers/include/flatbuffers\flatbuffers.h ****   /// @return Returns a typed `Offset` into the serialized data indicating
1614:C:/Renesas/e2studio_2021_01_workspace_RZA2M_ANPR/ANPR_RZA2M_GR_MANGO/src/tensorflow_lite/third_party/flatbuffers/include/flatbuffers\flatbuffers.h ****   /// where the vector is stored.
1615:C:/Renesas/e2studio_2021_01_workspace_RZA2M_ANPR/ANPR_RZA2M_GR_MANGO/src/tensorflow_lite/third_party/flatbuffers/include/flatbuffers\flatbuffers.h ****   template<typename T> Offset<Vector<T>> CreateVector(const T *v, size_t len) {
1616:C:/Renesas/e2studio_2021_01_workspace_RZA2M_ANPR/ANPR_RZA2M_GR_MANGO/src/tensorflow_lite/third_party/flatbuffers/include/flatbuffers\flatbuffers.h ****     // If this assert hits, you're specifying a template argument that is
1617:C:/Renesas/e2studio_2021_01_workspace_RZA2M_ANPR/ANPR_RZA2M_GR_MANGO/src/tensorflow_lite/third_party/flatbuffers/include/flatbuffers\flatbuffers.h ****     // causing the wrong overload to be selected, remove it.
1618:C:/Renesas/e2studio_2021_01_workspace_RZA2M_ANPR/ANPR_RZA2M_GR_MANGO/src/tensorflow_lite/third_party/flatbuffers/include/flatbuffers\flatbuffers.h ****     AssertScalarT<T>();
1619:C:/Renesas/e2studio_2021_01_workspace_RZA2M_ANPR/ANPR_RZA2M_GR_MANGO/src/tensorflow_lite/third_party/flatbuffers/include/flatbuffers\flatbuffers.h ****     StartVector(len, sizeof(T));
1620:C:/Renesas/e2studio_2021_01_workspace_RZA2M_ANPR/ANPR_RZA2M_GR_MANGO/src/tensorflow_lite/third_party/flatbuffers/include/flatbuffers\flatbuffers.h ****     if (len == 0) {
1621:C:/Renesas/e2studio_2021_01_workspace_RZA2M_ANPR/ANPR_RZA2M_GR_MANGO/src/tensorflow_lite/third_party/flatbuffers/include/flatbuffers\flatbuffers.h ****       return Offset<Vector<T>>(EndVector(len));
1622:C:/Renesas/e2studio_2021_01_workspace_RZA2M_ANPR/ANPR_RZA2M_GR_MANGO/src/tensorflow_lite/third_party/flatbuffers/include/flatbuffers\flatbuffers.h ****     }
1623:C:/Renesas/e2studio_2021_01_workspace_RZA2M_ANPR/ANPR_RZA2M_GR_MANGO/src/tensorflow_lite/third_party/flatbuffers/include/flatbuffers\flatbuffers.h ****     // clang-format off
1624:C:/Renesas/e2studio_2021_01_workspace_RZA2M_ANPR/ANPR_RZA2M_GR_MANGO/src/tensorflow_lite/third_party/flatbuffers/include/flatbuffers\flatbuffers.h ****     #if FLATBUFFERS_LITTLEENDIAN
1625:C:/Renesas/e2studio_2021_01_workspace_RZA2M_ANPR/ANPR_RZA2M_GR_MANGO/src/tensorflow_lite/third_party/flatbuffers/include/flatbuffers\flatbuffers.h ****       PushBytes(reinterpret_cast<const uint8_t *>(v), len * sizeof(T));
1626:C:/Renesas/e2studio_2021_01_workspace_RZA2M_ANPR/ANPR_RZA2M_GR_MANGO/src/tensorflow_lite/third_party/flatbuffers/include/flatbuffers\flatbuffers.h ****     #else
1627:C:/Renesas/e2studio_2021_01_workspace_RZA2M_ANPR/ANPR_RZA2M_GR_MANGO/src/tensorflow_lite/third_party/flatbuffers/include/flatbuffers\flatbuffers.h ****       if (sizeof(T) == 1) {
1628:C:/Renesas/e2studio_2021_01_workspace_RZA2M_ANPR/ANPR_RZA2M_GR_MANGO/src/tensorflow_lite/third_party/flatbuffers/include/flatbuffers\flatbuffers.h ****         PushBytes(reinterpret_cast<const uint8_t *>(v), len);
1629:C:/Renesas/e2studio_2021_01_workspace_RZA2M_ANPR/ANPR_RZA2M_GR_MANGO/src/tensorflow_lite/third_party/flatbuffers/include/flatbuffers\flatbuffers.h ****       } else {
1630:C:/Renesas/e2studio_2021_01_workspace_RZA2M_ANPR/ANPR_RZA2M_GR_MANGO/src/tensorflow_lite/third_party/flatbuffers/include/flatbuffers\flatbuffers.h ****         for (auto i = len; i > 0; ) {
1631:C:/Renesas/e2studio_2021_01_workspace_RZA2M_ANPR/ANPR_RZA2M_GR_MANGO/src/tensorflow_lite/third_party/flatbuffers/include/flatbuffers\flatbuffers.h ****           PushElement(v[--i]);
1632:C:/Renesas/e2studio_2021_01_workspace_RZA2M_ANPR/ANPR_RZA2M_GR_MANGO/src/tensorflow_lite/third_party/flatbuffers/include/flatbuffers\flatbuffers.h ****         }
1633:C:/Renesas/e2studio_2021_01_workspace_RZA2M_ANPR/ANPR_RZA2M_GR_MANGO/src/tensorflow_lite/third_party/flatbuffers/include/flatbuffers\flatbuffers.h ****       }
1634:C:/Renesas/e2studio_2021_01_workspace_RZA2M_ANPR/ANPR_RZA2M_GR_MANGO/src/tensorflow_lite/third_party/flatbuffers/include/flatbuffers\flatbuffers.h ****     #endif
1635:C:/Renesas/e2studio_2021_01_workspace_RZA2M_ANPR/ANPR_RZA2M_GR_MANGO/src/tensorflow_lite/third_party/flatbuffers/include/flatbuffers\flatbuffers.h ****     // clang-format on
1636:C:/Renesas/e2studio_2021_01_workspace_RZA2M_ANPR/ANPR_RZA2M_GR_MANGO/src/tensorflow_lite/third_party/flatbuffers/include/flatbuffers\flatbuffers.h ****     return Offset<Vector<T>>(EndVector(len));
1637:C:/Renesas/e2studio_2021_01_workspace_RZA2M_ANPR/ANPR_RZA2M_GR_MANGO/src/tensorflow_lite/third_party/flatbuffers/include/flatbuffers\flatbuffers.h ****   }
1638:C:/Renesas/e2studio_2021_01_workspace_RZA2M_ANPR/ANPR_RZA2M_GR_MANGO/src/tensorflow_lite/third_party/flatbuffers/include/flatbuffers\flatbuffers.h **** 
1639:C:/Renesas/e2studio_2021_01_workspace_RZA2M_ANPR/ANPR_RZA2M_GR_MANGO/src/tensorflow_lite/third_party/flatbuffers/include/flatbuffers\flatbuffers.h ****   template<typename T>
1640:C:/Renesas/e2studio_2021_01_workspace_RZA2M_ANPR/ANPR_RZA2M_GR_MANGO/src/tensorflow_lite/third_party/flatbuffers/include/flatbuffers\flatbuffers.h ****   Offset<Vector<Offset<T>>> CreateVector(const Offset<T> *v, size_t len) {
1641:C:/Renesas/e2studio_2021_01_workspace_RZA2M_ANPR/ANPR_RZA2M_GR_MANGO/src/tensorflow_lite/third_party/flatbuffers/include/flatbuffers\flatbuffers.h ****     StartVector(len, sizeof(Offset<T>));
1642:C:/Renesas/e2studio_2021_01_workspace_RZA2M_ANPR/ANPR_RZA2M_GR_MANGO/src/tensorflow_lite/third_party/flatbuffers/include/flatbuffers\flatbuffers.h ****     for (auto i = len; i > 0;) { PushElement(v[--i]); }
1643:C:/Renesas/e2studio_2021_01_workspace_RZA2M_ANPR/ANPR_RZA2M_GR_MANGO/src/tensorflow_lite/third_party/flatbuffers/include/flatbuffers\flatbuffers.h ****     return Offset<Vector<Offset<T>>>(EndVector(len));
1644:C:/Renesas/e2studio_2021_01_workspace_RZA2M_ANPR/ANPR_RZA2M_GR_MANGO/src/tensorflow_lite/third_party/flatbuffers/include/flatbuffers\flatbuffers.h ****   }
1645:C:/Renesas/e2studio_2021_01_workspace_RZA2M_ANPR/ANPR_RZA2M_GR_MANGO/src/tensorflow_lite/third_party/flatbuffers/include/flatbuffers\flatbuffers.h **** 
1646:C:/Renesas/e2studio_2021_01_workspace_RZA2M_ANPR/ANPR_RZA2M_GR_MANGO/src/tensorflow_lite/third_party/flatbuffers/include/flatbuffers\flatbuffers.h ****   /// @brief Serialize a `std::vector` into a FlatBuffer `vector`.
1647:C:/Renesas/e2studio_2021_01_workspace_RZA2M_ANPR/ANPR_RZA2M_GR_MANGO/src/tensorflow_lite/third_party/flatbuffers/include/flatbuffers\flatbuffers.h ****   /// @tparam T The data type of the `std::vector` elements.
1648:C:/Renesas/e2studio_2021_01_workspace_RZA2M_ANPR/ANPR_RZA2M_GR_MANGO/src/tensorflow_lite/third_party/flatbuffers/include/flatbuffers\flatbuffers.h ****   /// @param v A const reference to the `std::vector` to serialize into the
1649:C:/Renesas/e2studio_2021_01_workspace_RZA2M_ANPR/ANPR_RZA2M_GR_MANGO/src/tensorflow_lite/third_party/flatbuffers/include/flatbuffers\flatbuffers.h ****   /// buffer as a `vector`.
1650:C:/Renesas/e2studio_2021_01_workspace_RZA2M_ANPR/ANPR_RZA2M_GR_MANGO/src/tensorflow_lite/third_party/flatbuffers/include/flatbuffers\flatbuffers.h ****   /// @return Returns a typed `Offset` into the serialized data indicating
1651:C:/Renesas/e2studio_2021_01_workspace_RZA2M_ANPR/ANPR_RZA2M_GR_MANGO/src/tensorflow_lite/third_party/flatbuffers/include/flatbuffers\flatbuffers.h ****   /// where the vector is stored.
1652:C:/Renesas/e2studio_2021_01_workspace_RZA2M_ANPR/ANPR_RZA2M_GR_MANGO/src/tensorflow_lite/third_party/flatbuffers/include/flatbuffers\flatbuffers.h ****   template<typename T> Offset<Vector<T>> CreateVector(const std::vector<T> &v) {
1653:C:/Renesas/e2studio_2021_01_workspace_RZA2M_ANPR/ANPR_RZA2M_GR_MANGO/src/tensorflow_lite/third_party/flatbuffers/include/flatbuffers\flatbuffers.h ****     return CreateVector(data(v), v.size());
1654:C:/Renesas/e2studio_2021_01_workspace_RZA2M_ANPR/ANPR_RZA2M_GR_MANGO/src/tensorflow_lite/third_party/flatbuffers/include/flatbuffers\flatbuffers.h ****   }
1655:C:/Renesas/e2studio_2021_01_workspace_RZA2M_ANPR/ANPR_RZA2M_GR_MANGO/src/tensorflow_lite/third_party/flatbuffers/include/flatbuffers\flatbuffers.h **** 
1656:C:/Renesas/e2studio_2021_01_workspace_RZA2M_ANPR/ANPR_RZA2M_GR_MANGO/src/tensorflow_lite/third_party/flatbuffers/include/flatbuffers\flatbuffers.h ****   // vector<bool> may be implemented using a bit-set, so we can't access it as
1657:C:/Renesas/e2studio_2021_01_workspace_RZA2M_ANPR/ANPR_RZA2M_GR_MANGO/src/tensorflow_lite/third_party/flatbuffers/include/flatbuffers\flatbuffers.h ****   // an array. Instead, read elements manually.
1658:C:/Renesas/e2studio_2021_01_workspace_RZA2M_ANPR/ANPR_RZA2M_GR_MANGO/src/tensorflow_lite/third_party/flatbuffers/include/flatbuffers\flatbuffers.h ****   // Background: https://isocpp.org/blog/2012/11/on-vectorbool
1659:C:/Renesas/e2studio_2021_01_workspace_RZA2M_ANPR/ANPR_RZA2M_GR_MANGO/src/tensorflow_lite/third_party/flatbuffers/include/flatbuffers\flatbuffers.h ****   Offset<Vector<uint8_t>> CreateVector(const std::vector<bool> &v) {
1660:C:/Renesas/e2studio_2021_01_workspace_RZA2M_ANPR/ANPR_RZA2M_GR_MANGO/src/tensorflow_lite/third_party/flatbuffers/include/flatbuffers\flatbuffers.h ****     StartVector(v.size(), sizeof(uint8_t));
1661:C:/Renesas/e2studio_2021_01_workspace_RZA2M_ANPR/ANPR_RZA2M_GR_MANGO/src/tensorflow_lite/third_party/flatbuffers/include/flatbuffers\flatbuffers.h ****     for (auto i = v.size(); i > 0;) {
1662:C:/Renesas/e2studio_2021_01_workspace_RZA2M_ANPR/ANPR_RZA2M_GR_MANGO/src/tensorflow_lite/third_party/flatbuffers/include/flatbuffers\flatbuffers.h ****       PushElement(static_cast<uint8_t>(v[--i]));
1663:C:/Renesas/e2studio_2021_01_workspace_RZA2M_ANPR/ANPR_RZA2M_GR_MANGO/src/tensorflow_lite/third_party/flatbuffers/include/flatbuffers\flatbuffers.h ****     }
1664:C:/Renesas/e2studio_2021_01_workspace_RZA2M_ANPR/ANPR_RZA2M_GR_MANGO/src/tensorflow_lite/third_party/flatbuffers/include/flatbuffers\flatbuffers.h ****     return Offset<Vector<uint8_t>>(EndVector(v.size()));
1665:C:/Renesas/e2studio_2021_01_workspace_RZA2M_ANPR/ANPR_RZA2M_GR_MANGO/src/tensorflow_lite/third_party/flatbuffers/include/flatbuffers\flatbuffers.h ****   }
1666:C:/Renesas/e2studio_2021_01_workspace_RZA2M_ANPR/ANPR_RZA2M_GR_MANGO/src/tensorflow_lite/third_party/flatbuffers/include/flatbuffers\flatbuffers.h **** 
1667:C:/Renesas/e2studio_2021_01_workspace_RZA2M_ANPR/ANPR_RZA2M_GR_MANGO/src/tensorflow_lite/third_party/flatbuffers/include/flatbuffers\flatbuffers.h ****   // clang-format off
1668:C:/Renesas/e2studio_2021_01_workspace_RZA2M_ANPR/ANPR_RZA2M_GR_MANGO/src/tensorflow_lite/third_party/flatbuffers/include/flatbuffers\flatbuffers.h ****   #ifndef FLATBUFFERS_CPP98_STL
1669:C:/Renesas/e2studio_2021_01_workspace_RZA2M_ANPR/ANPR_RZA2M_GR_MANGO/src/tensorflow_lite/third_party/flatbuffers/include/flatbuffers\flatbuffers.h ****   /// @brief Serialize values returned by a function into a FlatBuffer `vector`.
1670:C:/Renesas/e2studio_2021_01_workspace_RZA2M_ANPR/ANPR_RZA2M_GR_MANGO/src/tensorflow_lite/third_party/flatbuffers/include/flatbuffers\flatbuffers.h ****   /// This is a convenience function that takes care of iteration for you.
1671:C:/Renesas/e2studio_2021_01_workspace_RZA2M_ANPR/ANPR_RZA2M_GR_MANGO/src/tensorflow_lite/third_party/flatbuffers/include/flatbuffers\flatbuffers.h ****   /// @tparam T The data type of the `std::vector` elements.
1672:C:/Renesas/e2studio_2021_01_workspace_RZA2M_ANPR/ANPR_RZA2M_GR_MANGO/src/tensorflow_lite/third_party/flatbuffers/include/flatbuffers\flatbuffers.h ****   /// @param f A function that takes the current iteration 0..vector_size-1 and
1673:C:/Renesas/e2studio_2021_01_workspace_RZA2M_ANPR/ANPR_RZA2M_GR_MANGO/src/tensorflow_lite/third_party/flatbuffers/include/flatbuffers\flatbuffers.h ****   /// returns any type that you can construct a FlatBuffers vector out of.
1674:C:/Renesas/e2studio_2021_01_workspace_RZA2M_ANPR/ANPR_RZA2M_GR_MANGO/src/tensorflow_lite/third_party/flatbuffers/include/flatbuffers\flatbuffers.h ****   /// @return Returns a typed `Offset` into the serialized data indicating
1675:C:/Renesas/e2studio_2021_01_workspace_RZA2M_ANPR/ANPR_RZA2M_GR_MANGO/src/tensorflow_lite/third_party/flatbuffers/include/flatbuffers\flatbuffers.h ****   /// where the vector is stored.
1676:C:/Renesas/e2studio_2021_01_workspace_RZA2M_ANPR/ANPR_RZA2M_GR_MANGO/src/tensorflow_lite/third_party/flatbuffers/include/flatbuffers\flatbuffers.h ****   template<typename T> Offset<Vector<T>> CreateVector(size_t vector_size,
1677:C:/Renesas/e2studio_2021_01_workspace_RZA2M_ANPR/ANPR_RZA2M_GR_MANGO/src/tensorflow_lite/third_party/flatbuffers/include/flatbuffers\flatbuffers.h ****       const std::function<T (size_t i)> &f) {
1678:C:/Renesas/e2studio_2021_01_workspace_RZA2M_ANPR/ANPR_RZA2M_GR_MANGO/src/tensorflow_lite/third_party/flatbuffers/include/flatbuffers\flatbuffers.h ****     std::vector<T> elems(vector_size);
1679:C:/Renesas/e2studio_2021_01_workspace_RZA2M_ANPR/ANPR_RZA2M_GR_MANGO/src/tensorflow_lite/third_party/flatbuffers/include/flatbuffers\flatbuffers.h ****     for (size_t i = 0; i < vector_size; i++) elems[i] = f(i);
1680:C:/Renesas/e2studio_2021_01_workspace_RZA2M_ANPR/ANPR_RZA2M_GR_MANGO/src/tensorflow_lite/third_party/flatbuffers/include/flatbuffers\flatbuffers.h ****     return CreateVector(elems);
1681:C:/Renesas/e2studio_2021_01_workspace_RZA2M_ANPR/ANPR_RZA2M_GR_MANGO/src/tensorflow_lite/third_party/flatbuffers/include/flatbuffers\flatbuffers.h ****   }
1682:C:/Renesas/e2studio_2021_01_workspace_RZA2M_ANPR/ANPR_RZA2M_GR_MANGO/src/tensorflow_lite/third_party/flatbuffers/include/flatbuffers\flatbuffers.h ****   #endif
1683:C:/Renesas/e2studio_2021_01_workspace_RZA2M_ANPR/ANPR_RZA2M_GR_MANGO/src/tensorflow_lite/third_party/flatbuffers/include/flatbuffers\flatbuffers.h ****   // clang-format on
1684:C:/Renesas/e2studio_2021_01_workspace_RZA2M_ANPR/ANPR_RZA2M_GR_MANGO/src/tensorflow_lite/third_party/flatbuffers/include/flatbuffers\flatbuffers.h **** 
1685:C:/Renesas/e2studio_2021_01_workspace_RZA2M_ANPR/ANPR_RZA2M_GR_MANGO/src/tensorflow_lite/third_party/flatbuffers/include/flatbuffers\flatbuffers.h ****   /// @brief Serialize values returned by a function into a FlatBuffer `vector`.
1686:C:/Renesas/e2studio_2021_01_workspace_RZA2M_ANPR/ANPR_RZA2M_GR_MANGO/src/tensorflow_lite/third_party/flatbuffers/include/flatbuffers\flatbuffers.h ****   /// This is a convenience function that takes care of iteration for you.
1687:C:/Renesas/e2studio_2021_01_workspace_RZA2M_ANPR/ANPR_RZA2M_GR_MANGO/src/tensorflow_lite/third_party/flatbuffers/include/flatbuffers\flatbuffers.h ****   /// @tparam T The data type of the `std::vector` elements.
1688:C:/Renesas/e2studio_2021_01_workspace_RZA2M_ANPR/ANPR_RZA2M_GR_MANGO/src/tensorflow_lite/third_party/flatbuffers/include/flatbuffers\flatbuffers.h ****   /// @param f A function that takes the current iteration 0..vector_size-1,
1689:C:/Renesas/e2studio_2021_01_workspace_RZA2M_ANPR/ANPR_RZA2M_GR_MANGO/src/tensorflow_lite/third_party/flatbuffers/include/flatbuffers\flatbuffers.h ****   /// and the state parameter returning any type that you can construct a
1690:C:/Renesas/e2studio_2021_01_workspace_RZA2M_ANPR/ANPR_RZA2M_GR_MANGO/src/tensorflow_lite/third_party/flatbuffers/include/flatbuffers\flatbuffers.h ****   /// FlatBuffers vector out of.
1691:C:/Renesas/e2studio_2021_01_workspace_RZA2M_ANPR/ANPR_RZA2M_GR_MANGO/src/tensorflow_lite/third_party/flatbuffers/include/flatbuffers\flatbuffers.h ****   /// @param state State passed to f.
1692:C:/Renesas/e2studio_2021_01_workspace_RZA2M_ANPR/ANPR_RZA2M_GR_MANGO/src/tensorflow_lite/third_party/flatbuffers/include/flatbuffers\flatbuffers.h ****   /// @return Returns a typed `Offset` into the serialized data indicating
1693:C:/Renesas/e2studio_2021_01_workspace_RZA2M_ANPR/ANPR_RZA2M_GR_MANGO/src/tensorflow_lite/third_party/flatbuffers/include/flatbuffers\flatbuffers.h ****   /// where the vector is stored.
1694:C:/Renesas/e2studio_2021_01_workspace_RZA2M_ANPR/ANPR_RZA2M_GR_MANGO/src/tensorflow_lite/third_party/flatbuffers/include/flatbuffers\flatbuffers.h ****   template<typename T, typename F, typename S>
1695:C:/Renesas/e2studio_2021_01_workspace_RZA2M_ANPR/ANPR_RZA2M_GR_MANGO/src/tensorflow_lite/third_party/flatbuffers/include/flatbuffers\flatbuffers.h ****   Offset<Vector<T>> CreateVector(size_t vector_size, F f, S *state) {
1696:C:/Renesas/e2studio_2021_01_workspace_RZA2M_ANPR/ANPR_RZA2M_GR_MANGO/src/tensorflow_lite/third_party/flatbuffers/include/flatbuffers\flatbuffers.h ****     std::vector<T> elems(vector_size);
1697:C:/Renesas/e2studio_2021_01_workspace_RZA2M_ANPR/ANPR_RZA2M_GR_MANGO/src/tensorflow_lite/third_party/flatbuffers/include/flatbuffers\flatbuffers.h ****     for (size_t i = 0; i < vector_size; i++) elems[i] = f(i, state);
1698:C:/Renesas/e2studio_2021_01_workspace_RZA2M_ANPR/ANPR_RZA2M_GR_MANGO/src/tensorflow_lite/third_party/flatbuffers/include/flatbuffers\flatbuffers.h ****     return CreateVector(elems);
1699:C:/Renesas/e2studio_2021_01_workspace_RZA2M_ANPR/ANPR_RZA2M_GR_MANGO/src/tensorflow_lite/third_party/flatbuffers/include/flatbuffers\flatbuffers.h ****   }
1700:C:/Renesas/e2studio_2021_01_workspace_RZA2M_ANPR/ANPR_RZA2M_GR_MANGO/src/tensorflow_lite/third_party/flatbuffers/include/flatbuffers\flatbuffers.h **** 
1701:C:/Renesas/e2studio_2021_01_workspace_RZA2M_ANPR/ANPR_RZA2M_GR_MANGO/src/tensorflow_lite/third_party/flatbuffers/include/flatbuffers\flatbuffers.h ****   /// @brief Serialize a `std::vector<std::string>` into a FlatBuffer `vector`.
1702:C:/Renesas/e2studio_2021_01_workspace_RZA2M_ANPR/ANPR_RZA2M_GR_MANGO/src/tensorflow_lite/third_party/flatbuffers/include/flatbuffers\flatbuffers.h ****   /// This is a convenience function for a common case.
1703:C:/Renesas/e2studio_2021_01_workspace_RZA2M_ANPR/ANPR_RZA2M_GR_MANGO/src/tensorflow_lite/third_party/flatbuffers/include/flatbuffers\flatbuffers.h ****   /// @param v A const reference to the `std::vector` to serialize into the
1704:C:/Renesas/e2studio_2021_01_workspace_RZA2M_ANPR/ANPR_RZA2M_GR_MANGO/src/tensorflow_lite/third_party/flatbuffers/include/flatbuffers\flatbuffers.h ****   /// buffer as a `vector`.
1705:C:/Renesas/e2studio_2021_01_workspace_RZA2M_ANPR/ANPR_RZA2M_GR_MANGO/src/tensorflow_lite/third_party/flatbuffers/include/flatbuffers\flatbuffers.h ****   /// @return Returns a typed `Offset` into the serialized data indicating
1706:C:/Renesas/e2studio_2021_01_workspace_RZA2M_ANPR/ANPR_RZA2M_GR_MANGO/src/tensorflow_lite/third_party/flatbuffers/include/flatbuffers\flatbuffers.h ****   /// where the vector is stored.
1707:C:/Renesas/e2studio_2021_01_workspace_RZA2M_ANPR/ANPR_RZA2M_GR_MANGO/src/tensorflow_lite/third_party/flatbuffers/include/flatbuffers\flatbuffers.h ****   Offset<Vector<Offset<String>>> CreateVectorOfStrings(
1708:C:/Renesas/e2studio_2021_01_workspace_RZA2M_ANPR/ANPR_RZA2M_GR_MANGO/src/tensorflow_lite/third_party/flatbuffers/include/flatbuffers\flatbuffers.h ****       const std::vector<std::string> &v) {
1709:C:/Renesas/e2studio_2021_01_workspace_RZA2M_ANPR/ANPR_RZA2M_GR_MANGO/src/tensorflow_lite/third_party/flatbuffers/include/flatbuffers\flatbuffers.h ****     std::vector<Offset<String>> offsets(v.size());
1710:C:/Renesas/e2studio_2021_01_workspace_RZA2M_ANPR/ANPR_RZA2M_GR_MANGO/src/tensorflow_lite/third_party/flatbuffers/include/flatbuffers\flatbuffers.h ****     for (size_t i = 0; i < v.size(); i++) offsets[i] = CreateString(v[i]);
1711:C:/Renesas/e2studio_2021_01_workspace_RZA2M_ANPR/ANPR_RZA2M_GR_MANGO/src/tensorflow_lite/third_party/flatbuffers/include/flatbuffers\flatbuffers.h ****     return CreateVector(offsets);
1712:C:/Renesas/e2studio_2021_01_workspace_RZA2M_ANPR/ANPR_RZA2M_GR_MANGO/src/tensorflow_lite/third_party/flatbuffers/include/flatbuffers\flatbuffers.h ****   }
1713:C:/Renesas/e2studio_2021_01_workspace_RZA2M_ANPR/ANPR_RZA2M_GR_MANGO/src/tensorflow_lite/third_party/flatbuffers/include/flatbuffers\flatbuffers.h **** 
1714:C:/Renesas/e2studio_2021_01_workspace_RZA2M_ANPR/ANPR_RZA2M_GR_MANGO/src/tensorflow_lite/third_party/flatbuffers/include/flatbuffers\flatbuffers.h ****   /// @brief Serialize an array of structs into a FlatBuffer `vector`.
1715:C:/Renesas/e2studio_2021_01_workspace_RZA2M_ANPR/ANPR_RZA2M_GR_MANGO/src/tensorflow_lite/third_party/flatbuffers/include/flatbuffers\flatbuffers.h ****   /// @tparam T The data type of the struct array elements.
1716:C:/Renesas/e2studio_2021_01_workspace_RZA2M_ANPR/ANPR_RZA2M_GR_MANGO/src/tensorflow_lite/third_party/flatbuffers/include/flatbuffers\flatbuffers.h ****   /// @param[in] v A pointer to the array of type `T` to serialize into the
1717:C:/Renesas/e2studio_2021_01_workspace_RZA2M_ANPR/ANPR_RZA2M_GR_MANGO/src/tensorflow_lite/third_party/flatbuffers/include/flatbuffers\flatbuffers.h ****   /// buffer as a `vector`.
1718:C:/Renesas/e2studio_2021_01_workspace_RZA2M_ANPR/ANPR_RZA2M_GR_MANGO/src/tensorflow_lite/third_party/flatbuffers/include/flatbuffers\flatbuffers.h ****   /// @param[in] len The number of elements to serialize.
1719:C:/Renesas/e2studio_2021_01_workspace_RZA2M_ANPR/ANPR_RZA2M_GR_MANGO/src/tensorflow_lite/third_party/flatbuffers/include/flatbuffers\flatbuffers.h ****   /// @return Returns a typed `Offset` into the serialized data indicating
1720:C:/Renesas/e2studio_2021_01_workspace_RZA2M_ANPR/ANPR_RZA2M_GR_MANGO/src/tensorflow_lite/third_party/flatbuffers/include/flatbuffers\flatbuffers.h ****   /// where the vector is stored.
1721:C:/Renesas/e2studio_2021_01_workspace_RZA2M_ANPR/ANPR_RZA2M_GR_MANGO/src/tensorflow_lite/third_party/flatbuffers/include/flatbuffers\flatbuffers.h ****   template<typename T>
1722:C:/Renesas/e2studio_2021_01_workspace_RZA2M_ANPR/ANPR_RZA2M_GR_MANGO/src/tensorflow_lite/third_party/flatbuffers/include/flatbuffers\flatbuffers.h ****   Offset<Vector<const T *>> CreateVectorOfStructs(const T *v, size_t len) {
1723:C:/Renesas/e2studio_2021_01_workspace_RZA2M_ANPR/ANPR_RZA2M_GR_MANGO/src/tensorflow_lite/third_party/flatbuffers/include/flatbuffers\flatbuffers.h ****     StartVector(len * sizeof(T) / AlignOf<T>(), AlignOf<T>());
1724:C:/Renesas/e2studio_2021_01_workspace_RZA2M_ANPR/ANPR_RZA2M_GR_MANGO/src/tensorflow_lite/third_party/flatbuffers/include/flatbuffers\flatbuffers.h ****     PushBytes(reinterpret_cast<const uint8_t *>(v), sizeof(T) * len);
1725:C:/Renesas/e2studio_2021_01_workspace_RZA2M_ANPR/ANPR_RZA2M_GR_MANGO/src/tensorflow_lite/third_party/flatbuffers/include/flatbuffers\flatbuffers.h ****     return Offset<Vector<const T *>>(EndVector(len));
1726:C:/Renesas/e2studio_2021_01_workspace_RZA2M_ANPR/ANPR_RZA2M_GR_MANGO/src/tensorflow_lite/third_party/flatbuffers/include/flatbuffers\flatbuffers.h ****   }
1727:C:/Renesas/e2studio_2021_01_workspace_RZA2M_ANPR/ANPR_RZA2M_GR_MANGO/src/tensorflow_lite/third_party/flatbuffers/include/flatbuffers\flatbuffers.h **** 
1728:C:/Renesas/e2studio_2021_01_workspace_RZA2M_ANPR/ANPR_RZA2M_GR_MANGO/src/tensorflow_lite/third_party/flatbuffers/include/flatbuffers\flatbuffers.h ****   /// @brief Serialize an array of native structs into a FlatBuffer `vector`.
1729:C:/Renesas/e2studio_2021_01_workspace_RZA2M_ANPR/ANPR_RZA2M_GR_MANGO/src/tensorflow_lite/third_party/flatbuffers/include/flatbuffers\flatbuffers.h ****   /// @tparam T The data type of the struct array elements.
1730:C:/Renesas/e2studio_2021_01_workspace_RZA2M_ANPR/ANPR_RZA2M_GR_MANGO/src/tensorflow_lite/third_party/flatbuffers/include/flatbuffers\flatbuffers.h ****   /// @tparam S The data type of the native struct array elements.
1731:C:/Renesas/e2studio_2021_01_workspace_RZA2M_ANPR/ANPR_RZA2M_GR_MANGO/src/tensorflow_lite/third_party/flatbuffers/include/flatbuffers\flatbuffers.h ****   /// @param[in] v A pointer to the array of type `S` to serialize into the
1732:C:/Renesas/e2studio_2021_01_workspace_RZA2M_ANPR/ANPR_RZA2M_GR_MANGO/src/tensorflow_lite/third_party/flatbuffers/include/flatbuffers\flatbuffers.h ****   /// buffer as a `vector`.
1733:C:/Renesas/e2studio_2021_01_workspace_RZA2M_ANPR/ANPR_RZA2M_GR_MANGO/src/tensorflow_lite/third_party/flatbuffers/include/flatbuffers\flatbuffers.h ****   /// @param[in] len The number of elements to serialize.
1734:C:/Renesas/e2studio_2021_01_workspace_RZA2M_ANPR/ANPR_RZA2M_GR_MANGO/src/tensorflow_lite/third_party/flatbuffers/include/flatbuffers\flatbuffers.h ****   /// @return Returns a typed `Offset` into the serialized data indicating
1735:C:/Renesas/e2studio_2021_01_workspace_RZA2M_ANPR/ANPR_RZA2M_GR_MANGO/src/tensorflow_lite/third_party/flatbuffers/include/flatbuffers\flatbuffers.h ****   /// where the vector is stored.
1736:C:/Renesas/e2studio_2021_01_workspace_RZA2M_ANPR/ANPR_RZA2M_GR_MANGO/src/tensorflow_lite/third_party/flatbuffers/include/flatbuffers\flatbuffers.h ****   template<typename T, typename S>
1737:C:/Renesas/e2studio_2021_01_workspace_RZA2M_ANPR/ANPR_RZA2M_GR_MANGO/src/tensorflow_lite/third_party/flatbuffers/include/flatbuffers\flatbuffers.h ****   Offset<Vector<const T *>> CreateVectorOfNativeStructs(const S *v,
1738:C:/Renesas/e2studio_2021_01_workspace_RZA2M_ANPR/ANPR_RZA2M_GR_MANGO/src/tensorflow_lite/third_party/flatbuffers/include/flatbuffers\flatbuffers.h ****                                                         size_t len) {
1739:C:/Renesas/e2studio_2021_01_workspace_RZA2M_ANPR/ANPR_RZA2M_GR_MANGO/src/tensorflow_lite/third_party/flatbuffers/include/flatbuffers\flatbuffers.h ****     extern T Pack(const S &);
1740:C:/Renesas/e2studio_2021_01_workspace_RZA2M_ANPR/ANPR_RZA2M_GR_MANGO/src/tensorflow_lite/third_party/flatbuffers/include/flatbuffers\flatbuffers.h ****     std::vector<T> vv(len);
1741:C:/Renesas/e2studio_2021_01_workspace_RZA2M_ANPR/ANPR_RZA2M_GR_MANGO/src/tensorflow_lite/third_party/flatbuffers/include/flatbuffers\flatbuffers.h ****     std::transform(v, v + len, vv.begin(), Pack);
1742:C:/Renesas/e2studio_2021_01_workspace_RZA2M_ANPR/ANPR_RZA2M_GR_MANGO/src/tensorflow_lite/third_party/flatbuffers/include/flatbuffers\flatbuffers.h ****     return CreateVectorOfStructs<T>(data(vv), vv.size());
1743:C:/Renesas/e2studio_2021_01_workspace_RZA2M_ANPR/ANPR_RZA2M_GR_MANGO/src/tensorflow_lite/third_party/flatbuffers/include/flatbuffers\flatbuffers.h ****   }
1744:C:/Renesas/e2studio_2021_01_workspace_RZA2M_ANPR/ANPR_RZA2M_GR_MANGO/src/tensorflow_lite/third_party/flatbuffers/include/flatbuffers\flatbuffers.h **** 
1745:C:/Renesas/e2studio_2021_01_workspace_RZA2M_ANPR/ANPR_RZA2M_GR_MANGO/src/tensorflow_lite/third_party/flatbuffers/include/flatbuffers\flatbuffers.h ****   // clang-format off
1746:C:/Renesas/e2studio_2021_01_workspace_RZA2M_ANPR/ANPR_RZA2M_GR_MANGO/src/tensorflow_lite/third_party/flatbuffers/include/flatbuffers\flatbuffers.h ****   #ifndef FLATBUFFERS_CPP98_STL
1747:C:/Renesas/e2studio_2021_01_workspace_RZA2M_ANPR/ANPR_RZA2M_GR_MANGO/src/tensorflow_lite/third_party/flatbuffers/include/flatbuffers\flatbuffers.h ****   /// @brief Serialize an array of structs into a FlatBuffer `vector`.
1748:C:/Renesas/e2studio_2021_01_workspace_RZA2M_ANPR/ANPR_RZA2M_GR_MANGO/src/tensorflow_lite/third_party/flatbuffers/include/flatbuffers\flatbuffers.h ****   /// @tparam T The data type of the struct array elements.
1749:C:/Renesas/e2studio_2021_01_workspace_RZA2M_ANPR/ANPR_RZA2M_GR_MANGO/src/tensorflow_lite/third_party/flatbuffers/include/flatbuffers\flatbuffers.h ****   /// @param[in] filler A function that takes the current iteration 0..vector_size-1
1750:C:/Renesas/e2studio_2021_01_workspace_RZA2M_ANPR/ANPR_RZA2M_GR_MANGO/src/tensorflow_lite/third_party/flatbuffers/include/flatbuffers\flatbuffers.h ****   /// and a pointer to the struct that must be filled.
1751:C:/Renesas/e2studio_2021_01_workspace_RZA2M_ANPR/ANPR_RZA2M_GR_MANGO/src/tensorflow_lite/third_party/flatbuffers/include/flatbuffers\flatbuffers.h ****   /// @return Returns a typed `Offset` into the serialized data indicating
1752:C:/Renesas/e2studio_2021_01_workspace_RZA2M_ANPR/ANPR_RZA2M_GR_MANGO/src/tensorflow_lite/third_party/flatbuffers/include/flatbuffers\flatbuffers.h ****   /// where the vector is stored.
1753:C:/Renesas/e2studio_2021_01_workspace_RZA2M_ANPR/ANPR_RZA2M_GR_MANGO/src/tensorflow_lite/third_party/flatbuffers/include/flatbuffers\flatbuffers.h ****   /// This is mostly useful when flatbuffers are generated with mutation
1754:C:/Renesas/e2studio_2021_01_workspace_RZA2M_ANPR/ANPR_RZA2M_GR_MANGO/src/tensorflow_lite/third_party/flatbuffers/include/flatbuffers\flatbuffers.h ****   /// accessors.
1755:C:/Renesas/e2studio_2021_01_workspace_RZA2M_ANPR/ANPR_RZA2M_GR_MANGO/src/tensorflow_lite/third_party/flatbuffers/include/flatbuffers\flatbuffers.h ****   template<typename T> Offset<Vector<const T *>> CreateVectorOfStructs(
1756:C:/Renesas/e2studio_2021_01_workspace_RZA2M_ANPR/ANPR_RZA2M_GR_MANGO/src/tensorflow_lite/third_party/flatbuffers/include/flatbuffers\flatbuffers.h ****       size_t vector_size, const std::function<void(size_t i, T *)> &filler) {
1757:C:/Renesas/e2studio_2021_01_workspace_RZA2M_ANPR/ANPR_RZA2M_GR_MANGO/src/tensorflow_lite/third_party/flatbuffers/include/flatbuffers\flatbuffers.h ****     T* structs = StartVectorOfStructs<T>(vector_size);
1758:C:/Renesas/e2studio_2021_01_workspace_RZA2M_ANPR/ANPR_RZA2M_GR_MANGO/src/tensorflow_lite/third_party/flatbuffers/include/flatbuffers\flatbuffers.h ****     for (size_t i = 0; i < vector_size; i++) {
1759:C:/Renesas/e2studio_2021_01_workspace_RZA2M_ANPR/ANPR_RZA2M_GR_MANGO/src/tensorflow_lite/third_party/flatbuffers/include/flatbuffers\flatbuffers.h ****       filler(i, structs);
1760:C:/Renesas/e2studio_2021_01_workspace_RZA2M_ANPR/ANPR_RZA2M_GR_MANGO/src/tensorflow_lite/third_party/flatbuffers/include/flatbuffers\flatbuffers.h ****       structs++;
1761:C:/Renesas/e2studio_2021_01_workspace_RZA2M_ANPR/ANPR_RZA2M_GR_MANGO/src/tensorflow_lite/third_party/flatbuffers/include/flatbuffers\flatbuffers.h ****     }
1762:C:/Renesas/e2studio_2021_01_workspace_RZA2M_ANPR/ANPR_RZA2M_GR_MANGO/src/tensorflow_lite/third_party/flatbuffers/include/flatbuffers\flatbuffers.h ****     return EndVectorOfStructs<T>(vector_size);
1763:C:/Renesas/e2studio_2021_01_workspace_RZA2M_ANPR/ANPR_RZA2M_GR_MANGO/src/tensorflow_lite/third_party/flatbuffers/include/flatbuffers\flatbuffers.h ****   }
1764:C:/Renesas/e2studio_2021_01_workspace_RZA2M_ANPR/ANPR_RZA2M_GR_MANGO/src/tensorflow_lite/third_party/flatbuffers/include/flatbuffers\flatbuffers.h ****   #endif
1765:C:/Renesas/e2studio_2021_01_workspace_RZA2M_ANPR/ANPR_RZA2M_GR_MANGO/src/tensorflow_lite/third_party/flatbuffers/include/flatbuffers\flatbuffers.h ****   // clang-format on
1766:C:/Renesas/e2studio_2021_01_workspace_RZA2M_ANPR/ANPR_RZA2M_GR_MANGO/src/tensorflow_lite/third_party/flatbuffers/include/flatbuffers\flatbuffers.h **** 
1767:C:/Renesas/e2studio_2021_01_workspace_RZA2M_ANPR/ANPR_RZA2M_GR_MANGO/src/tensorflow_lite/third_party/flatbuffers/include/flatbuffers\flatbuffers.h ****   /// @brief Serialize an array of structs into a FlatBuffer `vector`.
1768:C:/Renesas/e2studio_2021_01_workspace_RZA2M_ANPR/ANPR_RZA2M_GR_MANGO/src/tensorflow_lite/third_party/flatbuffers/include/flatbuffers\flatbuffers.h ****   /// @tparam T The data type of the struct array elements.
1769:C:/Renesas/e2studio_2021_01_workspace_RZA2M_ANPR/ANPR_RZA2M_GR_MANGO/src/tensorflow_lite/third_party/flatbuffers/include/flatbuffers\flatbuffers.h ****   /// @param[in] f A function that takes the current iteration 0..vector_size-1,
1770:C:/Renesas/e2studio_2021_01_workspace_RZA2M_ANPR/ANPR_RZA2M_GR_MANGO/src/tensorflow_lite/third_party/flatbuffers/include/flatbuffers\flatbuffers.h ****   /// a pointer to the struct that must be filled and the state argument.
1771:C:/Renesas/e2studio_2021_01_workspace_RZA2M_ANPR/ANPR_RZA2M_GR_MANGO/src/tensorflow_lite/third_party/flatbuffers/include/flatbuffers\flatbuffers.h ****   /// @param[in] state Arbitrary state to pass to f.
1772:C:/Renesas/e2studio_2021_01_workspace_RZA2M_ANPR/ANPR_RZA2M_GR_MANGO/src/tensorflow_lite/third_party/flatbuffers/include/flatbuffers\flatbuffers.h ****   /// @return Returns a typed `Offset` into the serialized data indicating
1773:C:/Renesas/e2studio_2021_01_workspace_RZA2M_ANPR/ANPR_RZA2M_GR_MANGO/src/tensorflow_lite/third_party/flatbuffers/include/flatbuffers\flatbuffers.h ****   /// where the vector is stored.
1774:C:/Renesas/e2studio_2021_01_workspace_RZA2M_ANPR/ANPR_RZA2M_GR_MANGO/src/tensorflow_lite/third_party/flatbuffers/include/flatbuffers\flatbuffers.h ****   /// This is mostly useful when flatbuffers are generated with mutation
1775:C:/Renesas/e2studio_2021_01_workspace_RZA2M_ANPR/ANPR_RZA2M_GR_MANGO/src/tensorflow_lite/third_party/flatbuffers/include/flatbuffers\flatbuffers.h ****   /// accessors.
1776:C:/Renesas/e2studio_2021_01_workspace_RZA2M_ANPR/ANPR_RZA2M_GR_MANGO/src/tensorflow_lite/third_party/flatbuffers/include/flatbuffers\flatbuffers.h ****   template<typename T, typename F, typename S>
1777:C:/Renesas/e2studio_2021_01_workspace_RZA2M_ANPR/ANPR_RZA2M_GR_MANGO/src/tensorflow_lite/third_party/flatbuffers/include/flatbuffers\flatbuffers.h ****   Offset<Vector<const T *>> CreateVectorOfStructs(size_t vector_size, F f,
1778:C:/Renesas/e2studio_2021_01_workspace_RZA2M_ANPR/ANPR_RZA2M_GR_MANGO/src/tensorflow_lite/third_party/flatbuffers/include/flatbuffers\flatbuffers.h ****                                                   S *state) {
1779:C:/Renesas/e2studio_2021_01_workspace_RZA2M_ANPR/ANPR_RZA2M_GR_MANGO/src/tensorflow_lite/third_party/flatbuffers/include/flatbuffers\flatbuffers.h ****     T *structs = StartVectorOfStructs<T>(vector_size);
1780:C:/Renesas/e2studio_2021_01_workspace_RZA2M_ANPR/ANPR_RZA2M_GR_MANGO/src/tensorflow_lite/third_party/flatbuffers/include/flatbuffers\flatbuffers.h ****     for (size_t i = 0; i < vector_size; i++) {
1781:C:/Renesas/e2studio_2021_01_workspace_RZA2M_ANPR/ANPR_RZA2M_GR_MANGO/src/tensorflow_lite/third_party/flatbuffers/include/flatbuffers\flatbuffers.h ****       f(i, structs, state);
1782:C:/Renesas/e2studio_2021_01_workspace_RZA2M_ANPR/ANPR_RZA2M_GR_MANGO/src/tensorflow_lite/third_party/flatbuffers/include/flatbuffers\flatbuffers.h ****       structs++;
1783:C:/Renesas/e2studio_2021_01_workspace_RZA2M_ANPR/ANPR_RZA2M_GR_MANGO/src/tensorflow_lite/third_party/flatbuffers/include/flatbuffers\flatbuffers.h ****     }
1784:C:/Renesas/e2studio_2021_01_workspace_RZA2M_ANPR/ANPR_RZA2M_GR_MANGO/src/tensorflow_lite/third_party/flatbuffers/include/flatbuffers\flatbuffers.h ****     return EndVectorOfStructs<T>(vector_size);
1785:C:/Renesas/e2studio_2021_01_workspace_RZA2M_ANPR/ANPR_RZA2M_GR_MANGO/src/tensorflow_lite/third_party/flatbuffers/include/flatbuffers\flatbuffers.h ****   }
1786:C:/Renesas/e2studio_2021_01_workspace_RZA2M_ANPR/ANPR_RZA2M_GR_MANGO/src/tensorflow_lite/third_party/flatbuffers/include/flatbuffers\flatbuffers.h **** 
1787:C:/Renesas/e2studio_2021_01_workspace_RZA2M_ANPR/ANPR_RZA2M_GR_MANGO/src/tensorflow_lite/third_party/flatbuffers/include/flatbuffers\flatbuffers.h ****   /// @brief Serialize a `std::vector` of structs into a FlatBuffer `vector`.
1788:C:/Renesas/e2studio_2021_01_workspace_RZA2M_ANPR/ANPR_RZA2M_GR_MANGO/src/tensorflow_lite/third_party/flatbuffers/include/flatbuffers\flatbuffers.h ****   /// @tparam T The data type of the `std::vector` struct elements.
1789:C:/Renesas/e2studio_2021_01_workspace_RZA2M_ANPR/ANPR_RZA2M_GR_MANGO/src/tensorflow_lite/third_party/flatbuffers/include/flatbuffers\flatbuffers.h ****   /// @param[in] v A const reference to the `std::vector` of structs to
1790:C:/Renesas/e2studio_2021_01_workspace_RZA2M_ANPR/ANPR_RZA2M_GR_MANGO/src/tensorflow_lite/third_party/flatbuffers/include/flatbuffers\flatbuffers.h ****   /// serialize into the buffer as a `vector`.
1791:C:/Renesas/e2studio_2021_01_workspace_RZA2M_ANPR/ANPR_RZA2M_GR_MANGO/src/tensorflow_lite/third_party/flatbuffers/include/flatbuffers\flatbuffers.h ****   /// @return Returns a typed `Offset` into the serialized data indicating
1792:C:/Renesas/e2studio_2021_01_workspace_RZA2M_ANPR/ANPR_RZA2M_GR_MANGO/src/tensorflow_lite/third_party/flatbuffers/include/flatbuffers\flatbuffers.h ****   /// where the vector is stored.
1793:C:/Renesas/e2studio_2021_01_workspace_RZA2M_ANPR/ANPR_RZA2M_GR_MANGO/src/tensorflow_lite/third_party/flatbuffers/include/flatbuffers\flatbuffers.h ****   template<typename T, typename Alloc>
1794:C:/Renesas/e2studio_2021_01_workspace_RZA2M_ANPR/ANPR_RZA2M_GR_MANGO/src/tensorflow_lite/third_party/flatbuffers/include/flatbuffers\flatbuffers.h ****   Offset<Vector<const T *>> CreateVectorOfStructs(
1795:C:/Renesas/e2studio_2021_01_workspace_RZA2M_ANPR/ANPR_RZA2M_GR_MANGO/src/tensorflow_lite/third_party/flatbuffers/include/flatbuffers\flatbuffers.h ****       const std::vector<T, Alloc> &v) {
1796:C:/Renesas/e2studio_2021_01_workspace_RZA2M_ANPR/ANPR_RZA2M_GR_MANGO/src/tensorflow_lite/third_party/flatbuffers/include/flatbuffers\flatbuffers.h ****     return CreateVectorOfStructs(data(v), v.size());
1797:C:/Renesas/e2studio_2021_01_workspace_RZA2M_ANPR/ANPR_RZA2M_GR_MANGO/src/tensorflow_lite/third_party/flatbuffers/include/flatbuffers\flatbuffers.h ****   }
1798:C:/Renesas/e2studio_2021_01_workspace_RZA2M_ANPR/ANPR_RZA2M_GR_MANGO/src/tensorflow_lite/third_party/flatbuffers/include/flatbuffers\flatbuffers.h **** 
1799:C:/Renesas/e2studio_2021_01_workspace_RZA2M_ANPR/ANPR_RZA2M_GR_MANGO/src/tensorflow_lite/third_party/flatbuffers/include/flatbuffers\flatbuffers.h ****   /// @brief Serialize a `std::vector` of native structs into a FlatBuffer
1800:C:/Renesas/e2studio_2021_01_workspace_RZA2M_ANPR/ANPR_RZA2M_GR_MANGO/src/tensorflow_lite/third_party/flatbuffers/include/flatbuffers\flatbuffers.h ****   /// `vector`.
1801:C:/Renesas/e2studio_2021_01_workspace_RZA2M_ANPR/ANPR_RZA2M_GR_MANGO/src/tensorflow_lite/third_party/flatbuffers/include/flatbuffers\flatbuffers.h ****   /// @tparam T The data type of the `std::vector` struct elements.
1802:C:/Renesas/e2studio_2021_01_workspace_RZA2M_ANPR/ANPR_RZA2M_GR_MANGO/src/tensorflow_lite/third_party/flatbuffers/include/flatbuffers\flatbuffers.h ****   /// @tparam S The data type of the `std::vector` native struct elements.
1803:C:/Renesas/e2studio_2021_01_workspace_RZA2M_ANPR/ANPR_RZA2M_GR_MANGO/src/tensorflow_lite/third_party/flatbuffers/include/flatbuffers\flatbuffers.h ****   /// @param[in] v A const reference to the `std::vector` of structs to
1804:C:/Renesas/e2studio_2021_01_workspace_RZA2M_ANPR/ANPR_RZA2M_GR_MANGO/src/tensorflow_lite/third_party/flatbuffers/include/flatbuffers\flatbuffers.h ****   /// serialize into the buffer as a `vector`.
1805:C:/Renesas/e2studio_2021_01_workspace_RZA2M_ANPR/ANPR_RZA2M_GR_MANGO/src/tensorflow_lite/third_party/flatbuffers/include/flatbuffers\flatbuffers.h ****   /// @return Returns a typed `Offset` into the serialized data indicating
1806:C:/Renesas/e2studio_2021_01_workspace_RZA2M_ANPR/ANPR_RZA2M_GR_MANGO/src/tensorflow_lite/third_party/flatbuffers/include/flatbuffers\flatbuffers.h ****   /// where the vector is stored.
1807:C:/Renesas/e2studio_2021_01_workspace_RZA2M_ANPR/ANPR_RZA2M_GR_MANGO/src/tensorflow_lite/third_party/flatbuffers/include/flatbuffers\flatbuffers.h ****   template<typename T, typename S>
1808:C:/Renesas/e2studio_2021_01_workspace_RZA2M_ANPR/ANPR_RZA2M_GR_MANGO/src/tensorflow_lite/third_party/flatbuffers/include/flatbuffers\flatbuffers.h ****   Offset<Vector<const T *>> CreateVectorOfNativeStructs(
1809:C:/Renesas/e2studio_2021_01_workspace_RZA2M_ANPR/ANPR_RZA2M_GR_MANGO/src/tensorflow_lite/third_party/flatbuffers/include/flatbuffers\flatbuffers.h ****       const std::vector<S> &v) {
1810:C:/Renesas/e2studio_2021_01_workspace_RZA2M_ANPR/ANPR_RZA2M_GR_MANGO/src/tensorflow_lite/third_party/flatbuffers/include/flatbuffers\flatbuffers.h ****     return CreateVectorOfNativeStructs<T, S>(data(v), v.size());
1811:C:/Renesas/e2studio_2021_01_workspace_RZA2M_ANPR/ANPR_RZA2M_GR_MANGO/src/tensorflow_lite/third_party/flatbuffers/include/flatbuffers\flatbuffers.h ****   }
1812:C:/Renesas/e2studio_2021_01_workspace_RZA2M_ANPR/ANPR_RZA2M_GR_MANGO/src/tensorflow_lite/third_party/flatbuffers/include/flatbuffers\flatbuffers.h **** 
1813:C:/Renesas/e2studio_2021_01_workspace_RZA2M_ANPR/ANPR_RZA2M_GR_MANGO/src/tensorflow_lite/third_party/flatbuffers/include/flatbuffers\flatbuffers.h ****   /// @cond FLATBUFFERS_INTERNAL
1814:C:/Renesas/e2studio_2021_01_workspace_RZA2M_ANPR/ANPR_RZA2M_GR_MANGO/src/tensorflow_lite/third_party/flatbuffers/include/flatbuffers\flatbuffers.h ****   template<typename T> struct StructKeyComparator {
1815:C:/Renesas/e2studio_2021_01_workspace_RZA2M_ANPR/ANPR_RZA2M_GR_MANGO/src/tensorflow_lite/third_party/flatbuffers/include/flatbuffers\flatbuffers.h ****     bool operator()(const T &a, const T &b) const {
1816:C:/Renesas/e2studio_2021_01_workspace_RZA2M_ANPR/ANPR_RZA2M_GR_MANGO/src/tensorflow_lite/third_party/flatbuffers/include/flatbuffers\flatbuffers.h ****       return a.KeyCompareLessThan(&b);
1817:C:/Renesas/e2studio_2021_01_workspace_RZA2M_ANPR/ANPR_RZA2M_GR_MANGO/src/tensorflow_lite/third_party/flatbuffers/include/flatbuffers\flatbuffers.h ****     }
1818:C:/Renesas/e2studio_2021_01_workspace_RZA2M_ANPR/ANPR_RZA2M_GR_MANGO/src/tensorflow_lite/third_party/flatbuffers/include/flatbuffers\flatbuffers.h **** 
1819:C:/Renesas/e2studio_2021_01_workspace_RZA2M_ANPR/ANPR_RZA2M_GR_MANGO/src/tensorflow_lite/third_party/flatbuffers/include/flatbuffers\flatbuffers.h ****     FLATBUFFERS_DELETE_FUNC(
1820:C:/Renesas/e2studio_2021_01_workspace_RZA2M_ANPR/ANPR_RZA2M_GR_MANGO/src/tensorflow_lite/third_party/flatbuffers/include/flatbuffers\flatbuffers.h ****         StructKeyComparator &operator=(const StructKeyComparator &))
1821:C:/Renesas/e2studio_2021_01_workspace_RZA2M_ANPR/ANPR_RZA2M_GR_MANGO/src/tensorflow_lite/third_party/flatbuffers/include/flatbuffers\flatbuffers.h ****   };
1822:C:/Renesas/e2studio_2021_01_workspace_RZA2M_ANPR/ANPR_RZA2M_GR_MANGO/src/tensorflow_lite/third_party/flatbuffers/include/flatbuffers\flatbuffers.h ****   /// @endcond
1823:C:/Renesas/e2studio_2021_01_workspace_RZA2M_ANPR/ANPR_RZA2M_GR_MANGO/src/tensorflow_lite/third_party/flatbuffers/include/flatbuffers\flatbuffers.h **** 
1824:C:/Renesas/e2studio_2021_01_workspace_RZA2M_ANPR/ANPR_RZA2M_GR_MANGO/src/tensorflow_lite/third_party/flatbuffers/include/flatbuffers\flatbuffers.h ****   /// @brief Serialize a `std::vector` of structs into a FlatBuffer `vector`
1825:C:/Renesas/e2studio_2021_01_workspace_RZA2M_ANPR/ANPR_RZA2M_GR_MANGO/src/tensorflow_lite/third_party/flatbuffers/include/flatbuffers\flatbuffers.h ****   /// in sorted order.
1826:C:/Renesas/e2studio_2021_01_workspace_RZA2M_ANPR/ANPR_RZA2M_GR_MANGO/src/tensorflow_lite/third_party/flatbuffers/include/flatbuffers\flatbuffers.h ****   /// @tparam T The data type of the `std::vector` struct elements.
1827:C:/Renesas/e2studio_2021_01_workspace_RZA2M_ANPR/ANPR_RZA2M_GR_MANGO/src/tensorflow_lite/third_party/flatbuffers/include/flatbuffers\flatbuffers.h ****   /// @param[in] v A const reference to the `std::vector` of structs to
1828:C:/Renesas/e2studio_2021_01_workspace_RZA2M_ANPR/ANPR_RZA2M_GR_MANGO/src/tensorflow_lite/third_party/flatbuffers/include/flatbuffers\flatbuffers.h ****   /// serialize into the buffer as a `vector`.
1829:C:/Renesas/e2studio_2021_01_workspace_RZA2M_ANPR/ANPR_RZA2M_GR_MANGO/src/tensorflow_lite/third_party/flatbuffers/include/flatbuffers\flatbuffers.h ****   /// @return Returns a typed `Offset` into the serialized data indicating
1830:C:/Renesas/e2studio_2021_01_workspace_RZA2M_ANPR/ANPR_RZA2M_GR_MANGO/src/tensorflow_lite/third_party/flatbuffers/include/flatbuffers\flatbuffers.h ****   /// where the vector is stored.
1831:C:/Renesas/e2studio_2021_01_workspace_RZA2M_ANPR/ANPR_RZA2M_GR_MANGO/src/tensorflow_lite/third_party/flatbuffers/include/flatbuffers\flatbuffers.h ****   template<typename T>
1832:C:/Renesas/e2studio_2021_01_workspace_RZA2M_ANPR/ANPR_RZA2M_GR_MANGO/src/tensorflow_lite/third_party/flatbuffers/include/flatbuffers\flatbuffers.h ****   Offset<Vector<const T *>> CreateVectorOfSortedStructs(std::vector<T> *v) {
1833:C:/Renesas/e2studio_2021_01_workspace_RZA2M_ANPR/ANPR_RZA2M_GR_MANGO/src/tensorflow_lite/third_party/flatbuffers/include/flatbuffers\flatbuffers.h ****     return CreateVectorOfSortedStructs(data(*v), v->size());
1834:C:/Renesas/e2studio_2021_01_workspace_RZA2M_ANPR/ANPR_RZA2M_GR_MANGO/src/tensorflow_lite/third_party/flatbuffers/include/flatbuffers\flatbuffers.h ****   }
1835:C:/Renesas/e2studio_2021_01_workspace_RZA2M_ANPR/ANPR_RZA2M_GR_MANGO/src/tensorflow_lite/third_party/flatbuffers/include/flatbuffers\flatbuffers.h **** 
1836:C:/Renesas/e2studio_2021_01_workspace_RZA2M_ANPR/ANPR_RZA2M_GR_MANGO/src/tensorflow_lite/third_party/flatbuffers/include/flatbuffers\flatbuffers.h ****   /// @brief Serialize a `std::vector` of native structs into a FlatBuffer
1837:C:/Renesas/e2studio_2021_01_workspace_RZA2M_ANPR/ANPR_RZA2M_GR_MANGO/src/tensorflow_lite/third_party/flatbuffers/include/flatbuffers\flatbuffers.h ****   /// `vector` in sorted order.
1838:C:/Renesas/e2studio_2021_01_workspace_RZA2M_ANPR/ANPR_RZA2M_GR_MANGO/src/tensorflow_lite/third_party/flatbuffers/include/flatbuffers\flatbuffers.h ****   /// @tparam T The data type of the `std::vector` struct elements.
1839:C:/Renesas/e2studio_2021_01_workspace_RZA2M_ANPR/ANPR_RZA2M_GR_MANGO/src/tensorflow_lite/third_party/flatbuffers/include/flatbuffers\flatbuffers.h ****   /// @tparam S The data type of the `std::vector` native struct elements.
1840:C:/Renesas/e2studio_2021_01_workspace_RZA2M_ANPR/ANPR_RZA2M_GR_MANGO/src/tensorflow_lite/third_party/flatbuffers/include/flatbuffers\flatbuffers.h ****   /// @param[in] v A const reference to the `std::vector` of structs to
1841:C:/Renesas/e2studio_2021_01_workspace_RZA2M_ANPR/ANPR_RZA2M_GR_MANGO/src/tensorflow_lite/third_party/flatbuffers/include/flatbuffers\flatbuffers.h ****   /// serialize into the buffer as a `vector`.
1842:C:/Renesas/e2studio_2021_01_workspace_RZA2M_ANPR/ANPR_RZA2M_GR_MANGO/src/tensorflow_lite/third_party/flatbuffers/include/flatbuffers\flatbuffers.h ****   /// @return Returns a typed `Offset` into the serialized data indicating
1843:C:/Renesas/e2studio_2021_01_workspace_RZA2M_ANPR/ANPR_RZA2M_GR_MANGO/src/tensorflow_lite/third_party/flatbuffers/include/flatbuffers\flatbuffers.h ****   /// where the vector is stored.
1844:C:/Renesas/e2studio_2021_01_workspace_RZA2M_ANPR/ANPR_RZA2M_GR_MANGO/src/tensorflow_lite/third_party/flatbuffers/include/flatbuffers\flatbuffers.h ****   template<typename T, typename S>
1845:C:/Renesas/e2studio_2021_01_workspace_RZA2M_ANPR/ANPR_RZA2M_GR_MANGO/src/tensorflow_lite/third_party/flatbuffers/include/flatbuffers\flatbuffers.h ****   Offset<Vector<const T *>> CreateVectorOfSortedNativeStructs(
1846:C:/Renesas/e2studio_2021_01_workspace_RZA2M_ANPR/ANPR_RZA2M_GR_MANGO/src/tensorflow_lite/third_party/flatbuffers/include/flatbuffers\flatbuffers.h ****       std::vector<S> *v) {
1847:C:/Renesas/e2studio_2021_01_workspace_RZA2M_ANPR/ANPR_RZA2M_GR_MANGO/src/tensorflow_lite/third_party/flatbuffers/include/flatbuffers\flatbuffers.h ****     return CreateVectorOfSortedNativeStructs<T, S>(data(*v), v->size());
1848:C:/Renesas/e2studio_2021_01_workspace_RZA2M_ANPR/ANPR_RZA2M_GR_MANGO/src/tensorflow_lite/third_party/flatbuffers/include/flatbuffers\flatbuffers.h ****   }
1849:C:/Renesas/e2studio_2021_01_workspace_RZA2M_ANPR/ANPR_RZA2M_GR_MANGO/src/tensorflow_lite/third_party/flatbuffers/include/flatbuffers\flatbuffers.h **** 
1850:C:/Renesas/e2studio_2021_01_workspace_RZA2M_ANPR/ANPR_RZA2M_GR_MANGO/src/tensorflow_lite/third_party/flatbuffers/include/flatbuffers\flatbuffers.h ****   /// @brief Serialize an array of structs into a FlatBuffer `vector` in sorted
1851:C:/Renesas/e2studio_2021_01_workspace_RZA2M_ANPR/ANPR_RZA2M_GR_MANGO/src/tensorflow_lite/third_party/flatbuffers/include/flatbuffers\flatbuffers.h ****   /// order.
1852:C:/Renesas/e2studio_2021_01_workspace_RZA2M_ANPR/ANPR_RZA2M_GR_MANGO/src/tensorflow_lite/third_party/flatbuffers/include/flatbuffers\flatbuffers.h ****   /// @tparam T The data type of the struct array elements.
1853:C:/Renesas/e2studio_2021_01_workspace_RZA2M_ANPR/ANPR_RZA2M_GR_MANGO/src/tensorflow_lite/third_party/flatbuffers/include/flatbuffers\flatbuffers.h ****   /// @param[in] v A pointer to the array of type `T` to serialize into the
1854:C:/Renesas/e2studio_2021_01_workspace_RZA2M_ANPR/ANPR_RZA2M_GR_MANGO/src/tensorflow_lite/third_party/flatbuffers/include/flatbuffers\flatbuffers.h ****   /// buffer as a `vector`.
1855:C:/Renesas/e2studio_2021_01_workspace_RZA2M_ANPR/ANPR_RZA2M_GR_MANGO/src/tensorflow_lite/third_party/flatbuffers/include/flatbuffers\flatbuffers.h ****   /// @param[in] len The number of elements to serialize.
1856:C:/Renesas/e2studio_2021_01_workspace_RZA2M_ANPR/ANPR_RZA2M_GR_MANGO/src/tensorflow_lite/third_party/flatbuffers/include/flatbuffers\flatbuffers.h ****   /// @return Returns a typed `Offset` into the serialized data indicating
1857:C:/Renesas/e2studio_2021_01_workspace_RZA2M_ANPR/ANPR_RZA2M_GR_MANGO/src/tensorflow_lite/third_party/flatbuffers/include/flatbuffers\flatbuffers.h ****   /// where the vector is stored.
1858:C:/Renesas/e2studio_2021_01_workspace_RZA2M_ANPR/ANPR_RZA2M_GR_MANGO/src/tensorflow_lite/third_party/flatbuffers/include/flatbuffers\flatbuffers.h ****   template<typename T>
1859:C:/Renesas/e2studio_2021_01_workspace_RZA2M_ANPR/ANPR_RZA2M_GR_MANGO/src/tensorflow_lite/third_party/flatbuffers/include/flatbuffers\flatbuffers.h ****   Offset<Vector<const T *>> CreateVectorOfSortedStructs(T *v, size_t len) {
1860:C:/Renesas/e2studio_2021_01_workspace_RZA2M_ANPR/ANPR_RZA2M_GR_MANGO/src/tensorflow_lite/third_party/flatbuffers/include/flatbuffers\flatbuffers.h ****     std::sort(v, v + len, StructKeyComparator<T>());
1861:C:/Renesas/e2studio_2021_01_workspace_RZA2M_ANPR/ANPR_RZA2M_GR_MANGO/src/tensorflow_lite/third_party/flatbuffers/include/flatbuffers\flatbuffers.h ****     return CreateVectorOfStructs(v, len);
1862:C:/Renesas/e2studio_2021_01_workspace_RZA2M_ANPR/ANPR_RZA2M_GR_MANGO/src/tensorflow_lite/third_party/flatbuffers/include/flatbuffers\flatbuffers.h ****   }
1863:C:/Renesas/e2studio_2021_01_workspace_RZA2M_ANPR/ANPR_RZA2M_GR_MANGO/src/tensorflow_lite/third_party/flatbuffers/include/flatbuffers\flatbuffers.h **** 
1864:C:/Renesas/e2studio_2021_01_workspace_RZA2M_ANPR/ANPR_RZA2M_GR_MANGO/src/tensorflow_lite/third_party/flatbuffers/include/flatbuffers\flatbuffers.h ****   /// @brief Serialize an array of native structs into a FlatBuffer `vector` in
1865:C:/Renesas/e2studio_2021_01_workspace_RZA2M_ANPR/ANPR_RZA2M_GR_MANGO/src/tensorflow_lite/third_party/flatbuffers/include/flatbuffers\flatbuffers.h ****   /// sorted order.
1866:C:/Renesas/e2studio_2021_01_workspace_RZA2M_ANPR/ANPR_RZA2M_GR_MANGO/src/tensorflow_lite/third_party/flatbuffers/include/flatbuffers\flatbuffers.h ****   /// @tparam T The data type of the struct array elements.
1867:C:/Renesas/e2studio_2021_01_workspace_RZA2M_ANPR/ANPR_RZA2M_GR_MANGO/src/tensorflow_lite/third_party/flatbuffers/include/flatbuffers\flatbuffers.h ****   /// @tparam S The data type of the native struct array elements.
1868:C:/Renesas/e2studio_2021_01_workspace_RZA2M_ANPR/ANPR_RZA2M_GR_MANGO/src/tensorflow_lite/third_party/flatbuffers/include/flatbuffers\flatbuffers.h ****   /// @param[in] v A pointer to the array of type `S` to serialize into the
1869:C:/Renesas/e2studio_2021_01_workspace_RZA2M_ANPR/ANPR_RZA2M_GR_MANGO/src/tensorflow_lite/third_party/flatbuffers/include/flatbuffers\flatbuffers.h ****   /// buffer as a `vector`.
1870:C:/Renesas/e2studio_2021_01_workspace_RZA2M_ANPR/ANPR_RZA2M_GR_MANGO/src/tensorflow_lite/third_party/flatbuffers/include/flatbuffers\flatbuffers.h ****   /// @param[in] len The number of elements to serialize.
1871:C:/Renesas/e2studio_2021_01_workspace_RZA2M_ANPR/ANPR_RZA2M_GR_MANGO/src/tensorflow_lite/third_party/flatbuffers/include/flatbuffers\flatbuffers.h ****   /// @return Returns a typed `Offset` into the serialized data indicating
1872:C:/Renesas/e2studio_2021_01_workspace_RZA2M_ANPR/ANPR_RZA2M_GR_MANGO/src/tensorflow_lite/third_party/flatbuffers/include/flatbuffers\flatbuffers.h ****   /// where the vector is stored.
1873:C:/Renesas/e2studio_2021_01_workspace_RZA2M_ANPR/ANPR_RZA2M_GR_MANGO/src/tensorflow_lite/third_party/flatbuffers/include/flatbuffers\flatbuffers.h ****   template<typename T, typename S>
1874:C:/Renesas/e2studio_2021_01_workspace_RZA2M_ANPR/ANPR_RZA2M_GR_MANGO/src/tensorflow_lite/third_party/flatbuffers/include/flatbuffers\flatbuffers.h ****   Offset<Vector<const T *>> CreateVectorOfSortedNativeStructs(S *v,
1875:C:/Renesas/e2studio_2021_01_workspace_RZA2M_ANPR/ANPR_RZA2M_GR_MANGO/src/tensorflow_lite/third_party/flatbuffers/include/flatbuffers\flatbuffers.h ****                                                               size_t len) {
1876:C:/Renesas/e2studio_2021_01_workspace_RZA2M_ANPR/ANPR_RZA2M_GR_MANGO/src/tensorflow_lite/third_party/flatbuffers/include/flatbuffers\flatbuffers.h ****     extern T Pack(const S &);
1877:C:/Renesas/e2studio_2021_01_workspace_RZA2M_ANPR/ANPR_RZA2M_GR_MANGO/src/tensorflow_lite/third_party/flatbuffers/include/flatbuffers\flatbuffers.h ****     typedef T (*Pack_t)(const S &);
1878:C:/Renesas/e2studio_2021_01_workspace_RZA2M_ANPR/ANPR_RZA2M_GR_MANGO/src/tensorflow_lite/third_party/flatbuffers/include/flatbuffers\flatbuffers.h ****     std::vector<T> vv(len);
1879:C:/Renesas/e2studio_2021_01_workspace_RZA2M_ANPR/ANPR_RZA2M_GR_MANGO/src/tensorflow_lite/third_party/flatbuffers/include/flatbuffers\flatbuffers.h ****     std::transform(v, v + len, vv.begin(), static_cast<Pack_t &>(Pack));
1880:C:/Renesas/e2studio_2021_01_workspace_RZA2M_ANPR/ANPR_RZA2M_GR_MANGO/src/tensorflow_lite/third_party/flatbuffers/include/flatbuffers\flatbuffers.h ****     return CreateVectorOfSortedStructs<T>(vv, len);
1881:C:/Renesas/e2studio_2021_01_workspace_RZA2M_ANPR/ANPR_RZA2M_GR_MANGO/src/tensorflow_lite/third_party/flatbuffers/include/flatbuffers\flatbuffers.h ****   }
1882:C:/Renesas/e2studio_2021_01_workspace_RZA2M_ANPR/ANPR_RZA2M_GR_MANGO/src/tensorflow_lite/third_party/flatbuffers/include/flatbuffers\flatbuffers.h **** 
1883:C:/Renesas/e2studio_2021_01_workspace_RZA2M_ANPR/ANPR_RZA2M_GR_MANGO/src/tensorflow_lite/third_party/flatbuffers/include/flatbuffers\flatbuffers.h ****   /// @cond FLATBUFFERS_INTERNAL
1884:C:/Renesas/e2studio_2021_01_workspace_RZA2M_ANPR/ANPR_RZA2M_GR_MANGO/src/tensorflow_lite/third_party/flatbuffers/include/flatbuffers\flatbuffers.h ****   template<typename T> struct TableKeyComparator {
1885:C:/Renesas/e2studio_2021_01_workspace_RZA2M_ANPR/ANPR_RZA2M_GR_MANGO/src/tensorflow_lite/third_party/flatbuffers/include/flatbuffers\flatbuffers.h ****     TableKeyComparator(vector_downward &buf) : buf_(buf) {}
1886:C:/Renesas/e2studio_2021_01_workspace_RZA2M_ANPR/ANPR_RZA2M_GR_MANGO/src/tensorflow_lite/third_party/flatbuffers/include/flatbuffers\flatbuffers.h ****     TableKeyComparator(const TableKeyComparator &other) : buf_(other.buf_) {}
1887:C:/Renesas/e2studio_2021_01_workspace_RZA2M_ANPR/ANPR_RZA2M_GR_MANGO/src/tensorflow_lite/third_party/flatbuffers/include/flatbuffers\flatbuffers.h ****     bool operator()(const Offset<T> &a, const Offset<T> &b) const {
1888:C:/Renesas/e2studio_2021_01_workspace_RZA2M_ANPR/ANPR_RZA2M_GR_MANGO/src/tensorflow_lite/third_party/flatbuffers/include/flatbuffers\flatbuffers.h ****       auto table_a = reinterpret_cast<T *>(buf_.data_at(a.o));
1889:C:/Renesas/e2studio_2021_01_workspace_RZA2M_ANPR/ANPR_RZA2M_GR_MANGO/src/tensorflow_lite/third_party/flatbuffers/include/flatbuffers\flatbuffers.h ****       auto table_b = reinterpret_cast<T *>(buf_.data_at(b.o));
1890:C:/Renesas/e2studio_2021_01_workspace_RZA2M_ANPR/ANPR_RZA2M_GR_MANGO/src/tensorflow_lite/third_party/flatbuffers/include/flatbuffers\flatbuffers.h ****       return table_a->KeyCompareLessThan(table_b);
1891:C:/Renesas/e2studio_2021_01_workspace_RZA2M_ANPR/ANPR_RZA2M_GR_MANGO/src/tensorflow_lite/third_party/flatbuffers/include/flatbuffers\flatbuffers.h ****     }
1892:C:/Renesas/e2studio_2021_01_workspace_RZA2M_ANPR/ANPR_RZA2M_GR_MANGO/src/tensorflow_lite/third_party/flatbuffers/include/flatbuffers\flatbuffers.h ****     vector_downward &buf_;
1893:C:/Renesas/e2studio_2021_01_workspace_RZA2M_ANPR/ANPR_RZA2M_GR_MANGO/src/tensorflow_lite/third_party/flatbuffers/include/flatbuffers\flatbuffers.h **** 
1894:C:/Renesas/e2studio_2021_01_workspace_RZA2M_ANPR/ANPR_RZA2M_GR_MANGO/src/tensorflow_lite/third_party/flatbuffers/include/flatbuffers\flatbuffers.h ****    private:
1895:C:/Renesas/e2studio_2021_01_workspace_RZA2M_ANPR/ANPR_RZA2M_GR_MANGO/src/tensorflow_lite/third_party/flatbuffers/include/flatbuffers\flatbuffers.h ****     FLATBUFFERS_DELETE_FUNC(TableKeyComparator &operator=(const TableKeyComparator &other))
1896:C:/Renesas/e2studio_2021_01_workspace_RZA2M_ANPR/ANPR_RZA2M_GR_MANGO/src/tensorflow_lite/third_party/flatbuffers/include/flatbuffers\flatbuffers.h ****   };
1897:C:/Renesas/e2studio_2021_01_workspace_RZA2M_ANPR/ANPR_RZA2M_GR_MANGO/src/tensorflow_lite/third_party/flatbuffers/include/flatbuffers\flatbuffers.h ****   /// @endcond
1898:C:/Renesas/e2studio_2021_01_workspace_RZA2M_ANPR/ANPR_RZA2M_GR_MANGO/src/tensorflow_lite/third_party/flatbuffers/include/flatbuffers\flatbuffers.h **** 
1899:C:/Renesas/e2studio_2021_01_workspace_RZA2M_ANPR/ANPR_RZA2M_GR_MANGO/src/tensorflow_lite/third_party/flatbuffers/include/flatbuffers\flatbuffers.h ****   /// @brief Serialize an array of `table` offsets as a `vector` in the buffer
1900:C:/Renesas/e2studio_2021_01_workspace_RZA2M_ANPR/ANPR_RZA2M_GR_MANGO/src/tensorflow_lite/third_party/flatbuffers/include/flatbuffers\flatbuffers.h ****   /// in sorted order.
1901:C:/Renesas/e2studio_2021_01_workspace_RZA2M_ANPR/ANPR_RZA2M_GR_MANGO/src/tensorflow_lite/third_party/flatbuffers/include/flatbuffers\flatbuffers.h ****   /// @tparam T The data type that the offset refers to.
1902:C:/Renesas/e2studio_2021_01_workspace_RZA2M_ANPR/ANPR_RZA2M_GR_MANGO/src/tensorflow_lite/third_party/flatbuffers/include/flatbuffers\flatbuffers.h ****   /// @param[in] v An array of type `Offset<T>` that contains the `table`
1903:C:/Renesas/e2studio_2021_01_workspace_RZA2M_ANPR/ANPR_RZA2M_GR_MANGO/src/tensorflow_lite/third_party/flatbuffers/include/flatbuffers\flatbuffers.h ****   /// offsets to store in the buffer in sorted order.
1904:C:/Renesas/e2studio_2021_01_workspace_RZA2M_ANPR/ANPR_RZA2M_GR_MANGO/src/tensorflow_lite/third_party/flatbuffers/include/flatbuffers\flatbuffers.h ****   /// @param[in] len The number of elements to store in the `vector`.
1905:C:/Renesas/e2studio_2021_01_workspace_RZA2M_ANPR/ANPR_RZA2M_GR_MANGO/src/tensorflow_lite/third_party/flatbuffers/include/flatbuffers\flatbuffers.h ****   /// @return Returns a typed `Offset` into the serialized data indicating
1906:C:/Renesas/e2studio_2021_01_workspace_RZA2M_ANPR/ANPR_RZA2M_GR_MANGO/src/tensorflow_lite/third_party/flatbuffers/include/flatbuffers\flatbuffers.h ****   /// where the vector is stored.
1907:C:/Renesas/e2studio_2021_01_workspace_RZA2M_ANPR/ANPR_RZA2M_GR_MANGO/src/tensorflow_lite/third_party/flatbuffers/include/flatbuffers\flatbuffers.h ****   template<typename T>
1908:C:/Renesas/e2studio_2021_01_workspace_RZA2M_ANPR/ANPR_RZA2M_GR_MANGO/src/tensorflow_lite/third_party/flatbuffers/include/flatbuffers\flatbuffers.h ****   Offset<Vector<Offset<T>>> CreateVectorOfSortedTables(Offset<T> *v,
1909:C:/Renesas/e2studio_2021_01_workspace_RZA2M_ANPR/ANPR_RZA2M_GR_MANGO/src/tensorflow_lite/third_party/flatbuffers/include/flatbuffers\flatbuffers.h ****                                                        size_t len) {
1910:C:/Renesas/e2studio_2021_01_workspace_RZA2M_ANPR/ANPR_RZA2M_GR_MANGO/src/tensorflow_lite/third_party/flatbuffers/include/flatbuffers\flatbuffers.h ****     std::sort(v, v + len, TableKeyComparator<T>(buf_));
1911:C:/Renesas/e2studio_2021_01_workspace_RZA2M_ANPR/ANPR_RZA2M_GR_MANGO/src/tensorflow_lite/third_party/flatbuffers/include/flatbuffers\flatbuffers.h ****     return CreateVector(v, len);
1912:C:/Renesas/e2studio_2021_01_workspace_RZA2M_ANPR/ANPR_RZA2M_GR_MANGO/src/tensorflow_lite/third_party/flatbuffers/include/flatbuffers\flatbuffers.h ****   }
1913:C:/Renesas/e2studio_2021_01_workspace_RZA2M_ANPR/ANPR_RZA2M_GR_MANGO/src/tensorflow_lite/third_party/flatbuffers/include/flatbuffers\flatbuffers.h **** 
1914:C:/Renesas/e2studio_2021_01_workspace_RZA2M_ANPR/ANPR_RZA2M_GR_MANGO/src/tensorflow_lite/third_party/flatbuffers/include/flatbuffers\flatbuffers.h ****   /// @brief Serialize an array of `table` offsets as a `vector` in the buffer
1915:C:/Renesas/e2studio_2021_01_workspace_RZA2M_ANPR/ANPR_RZA2M_GR_MANGO/src/tensorflow_lite/third_party/flatbuffers/include/flatbuffers\flatbuffers.h ****   /// in sorted order.
1916:C:/Renesas/e2studio_2021_01_workspace_RZA2M_ANPR/ANPR_RZA2M_GR_MANGO/src/tensorflow_lite/third_party/flatbuffers/include/flatbuffers\flatbuffers.h ****   /// @tparam T The data type that the offset refers to.
1917:C:/Renesas/e2studio_2021_01_workspace_RZA2M_ANPR/ANPR_RZA2M_GR_MANGO/src/tensorflow_lite/third_party/flatbuffers/include/flatbuffers\flatbuffers.h ****   /// @param[in] v An array of type `Offset<T>` that contains the `table`
1918:C:/Renesas/e2studio_2021_01_workspace_RZA2M_ANPR/ANPR_RZA2M_GR_MANGO/src/tensorflow_lite/third_party/flatbuffers/include/flatbuffers\flatbuffers.h ****   /// offsets to store in the buffer in sorted order.
1919:C:/Renesas/e2studio_2021_01_workspace_RZA2M_ANPR/ANPR_RZA2M_GR_MANGO/src/tensorflow_lite/third_party/flatbuffers/include/flatbuffers\flatbuffers.h ****   /// @return Returns a typed `Offset` into the serialized data indicating
1920:C:/Renesas/e2studio_2021_01_workspace_RZA2M_ANPR/ANPR_RZA2M_GR_MANGO/src/tensorflow_lite/third_party/flatbuffers/include/flatbuffers\flatbuffers.h ****   /// where the vector is stored.
1921:C:/Renesas/e2studio_2021_01_workspace_RZA2M_ANPR/ANPR_RZA2M_GR_MANGO/src/tensorflow_lite/third_party/flatbuffers/include/flatbuffers\flatbuffers.h ****   template<typename T>
1922:C:/Renesas/e2studio_2021_01_workspace_RZA2M_ANPR/ANPR_RZA2M_GR_MANGO/src/tensorflow_lite/third_party/flatbuffers/include/flatbuffers\flatbuffers.h ****   Offset<Vector<Offset<T>>> CreateVectorOfSortedTables(
1923:C:/Renesas/e2studio_2021_01_workspace_RZA2M_ANPR/ANPR_RZA2M_GR_MANGO/src/tensorflow_lite/third_party/flatbuffers/include/flatbuffers\flatbuffers.h ****       std::vector<Offset<T>> *v) {
1924:C:/Renesas/e2studio_2021_01_workspace_RZA2M_ANPR/ANPR_RZA2M_GR_MANGO/src/tensorflow_lite/third_party/flatbuffers/include/flatbuffers\flatbuffers.h ****     return CreateVectorOfSortedTables(data(*v), v->size());
1925:C:/Renesas/e2studio_2021_01_workspace_RZA2M_ANPR/ANPR_RZA2M_GR_MANGO/src/tensorflow_lite/third_party/flatbuffers/include/flatbuffers\flatbuffers.h ****   }
1926:C:/Renesas/e2studio_2021_01_workspace_RZA2M_ANPR/ANPR_RZA2M_GR_MANGO/src/tensorflow_lite/third_party/flatbuffers/include/flatbuffers\flatbuffers.h **** 
1927:C:/Renesas/e2studio_2021_01_workspace_RZA2M_ANPR/ANPR_RZA2M_GR_MANGO/src/tensorflow_lite/third_party/flatbuffers/include/flatbuffers\flatbuffers.h ****   /// @brief Specialized version of `CreateVector` for non-copying use cases.
1928:C:/Renesas/e2studio_2021_01_workspace_RZA2M_ANPR/ANPR_RZA2M_GR_MANGO/src/tensorflow_lite/third_party/flatbuffers/include/flatbuffers\flatbuffers.h ****   /// Write the data any time later to the returned buffer pointer `buf`.
1929:C:/Renesas/e2studio_2021_01_workspace_RZA2M_ANPR/ANPR_RZA2M_GR_MANGO/src/tensorflow_lite/third_party/flatbuffers/include/flatbuffers\flatbuffers.h ****   /// @param[in] len The number of elements to store in the `vector`.
1930:C:/Renesas/e2studio_2021_01_workspace_RZA2M_ANPR/ANPR_RZA2M_GR_MANGO/src/tensorflow_lite/third_party/flatbuffers/include/flatbuffers\flatbuffers.h ****   /// @param[in] elemsize The size of each element in the `vector`.
1931:C:/Renesas/e2studio_2021_01_workspace_RZA2M_ANPR/ANPR_RZA2M_GR_MANGO/src/tensorflow_lite/third_party/flatbuffers/include/flatbuffers\flatbuffers.h ****   /// @param[out] buf A pointer to a `uint8_t` pointer that can be
1932:C:/Renesas/e2studio_2021_01_workspace_RZA2M_ANPR/ANPR_RZA2M_GR_MANGO/src/tensorflow_lite/third_party/flatbuffers/include/flatbuffers\flatbuffers.h ****   /// written to at a later time to serialize the data into a `vector`
1933:C:/Renesas/e2studio_2021_01_workspace_RZA2M_ANPR/ANPR_RZA2M_GR_MANGO/src/tensorflow_lite/third_party/flatbuffers/include/flatbuffers\flatbuffers.h ****   /// in the buffer.
1934:C:/Renesas/e2studio_2021_01_workspace_RZA2M_ANPR/ANPR_RZA2M_GR_MANGO/src/tensorflow_lite/third_party/flatbuffers/include/flatbuffers\flatbuffers.h ****   uoffset_t CreateUninitializedVector(size_t len, size_t elemsize,
1935:C:/Renesas/e2studio_2021_01_workspace_RZA2M_ANPR/ANPR_RZA2M_GR_MANGO/src/tensorflow_lite/third_party/flatbuffers/include/flatbuffers\flatbuffers.h ****                                       uint8_t **buf) {
1936:C:/Renesas/e2studio_2021_01_workspace_RZA2M_ANPR/ANPR_RZA2M_GR_MANGO/src/tensorflow_lite/third_party/flatbuffers/include/flatbuffers\flatbuffers.h ****     NotNested();
1937:C:/Renesas/e2studio_2021_01_workspace_RZA2M_ANPR/ANPR_RZA2M_GR_MANGO/src/tensorflow_lite/third_party/flatbuffers/include/flatbuffers\flatbuffers.h ****     StartVector(len, elemsize);
1938:C:/Renesas/e2studio_2021_01_workspace_RZA2M_ANPR/ANPR_RZA2M_GR_MANGO/src/tensorflow_lite/third_party/flatbuffers/include/flatbuffers\flatbuffers.h ****     buf_.make_space(len * elemsize);
1939:C:/Renesas/e2studio_2021_01_workspace_RZA2M_ANPR/ANPR_RZA2M_GR_MANGO/src/tensorflow_lite/third_party/flatbuffers/include/flatbuffers\flatbuffers.h ****     auto vec_start = GetSize();
1940:C:/Renesas/e2studio_2021_01_workspace_RZA2M_ANPR/ANPR_RZA2M_GR_MANGO/src/tensorflow_lite/third_party/flatbuffers/include/flatbuffers\flatbuffers.h ****     auto vec_end = EndVector(len);
1941:C:/Renesas/e2studio_2021_01_workspace_RZA2M_ANPR/ANPR_RZA2M_GR_MANGO/src/tensorflow_lite/third_party/flatbuffers/include/flatbuffers\flatbuffers.h ****     *buf = buf_.data_at(vec_start);
1942:C:/Renesas/e2studio_2021_01_workspace_RZA2M_ANPR/ANPR_RZA2M_GR_MANGO/src/tensorflow_lite/third_party/flatbuffers/include/flatbuffers\flatbuffers.h ****     return vec_end;
1943:C:/Renesas/e2studio_2021_01_workspace_RZA2M_ANPR/ANPR_RZA2M_GR_MANGO/src/tensorflow_lite/third_party/flatbuffers/include/flatbuffers\flatbuffers.h ****   }
1944:C:/Renesas/e2studio_2021_01_workspace_RZA2M_ANPR/ANPR_RZA2M_GR_MANGO/src/tensorflow_lite/third_party/flatbuffers/include/flatbuffers\flatbuffers.h **** 
1945:C:/Renesas/e2studio_2021_01_workspace_RZA2M_ANPR/ANPR_RZA2M_GR_MANGO/src/tensorflow_lite/third_party/flatbuffers/include/flatbuffers\flatbuffers.h ****   /// @brief Specialized version of `CreateVector` for non-copying use cases.
1946:C:/Renesas/e2studio_2021_01_workspace_RZA2M_ANPR/ANPR_RZA2M_GR_MANGO/src/tensorflow_lite/third_party/flatbuffers/include/flatbuffers\flatbuffers.h ****   /// Write the data any time later to the returned buffer pointer `buf`.
1947:C:/Renesas/e2studio_2021_01_workspace_RZA2M_ANPR/ANPR_RZA2M_GR_MANGO/src/tensorflow_lite/third_party/flatbuffers/include/flatbuffers\flatbuffers.h ****   /// @tparam T The data type of the data that will be stored in the buffer
1948:C:/Renesas/e2studio_2021_01_workspace_RZA2M_ANPR/ANPR_RZA2M_GR_MANGO/src/tensorflow_lite/third_party/flatbuffers/include/flatbuffers\flatbuffers.h ****   /// as a `vector`.
1949:C:/Renesas/e2studio_2021_01_workspace_RZA2M_ANPR/ANPR_RZA2M_GR_MANGO/src/tensorflow_lite/third_party/flatbuffers/include/flatbuffers\flatbuffers.h ****   /// @param[in] len The number of elements to store in the `vector`.
1950:C:/Renesas/e2studio_2021_01_workspace_RZA2M_ANPR/ANPR_RZA2M_GR_MANGO/src/tensorflow_lite/third_party/flatbuffers/include/flatbuffers\flatbuffers.h ****   /// @param[out] buf A pointer to a pointer of type `T` that can be
1951:C:/Renesas/e2studio_2021_01_workspace_RZA2M_ANPR/ANPR_RZA2M_GR_MANGO/src/tensorflow_lite/third_party/flatbuffers/include/flatbuffers\flatbuffers.h ****   /// written to at a later time to serialize the data into a `vector`
1952:C:/Renesas/e2studio_2021_01_workspace_RZA2M_ANPR/ANPR_RZA2M_GR_MANGO/src/tensorflow_lite/third_party/flatbuffers/include/flatbuffers\flatbuffers.h ****   /// in the buffer.
1953:C:/Renesas/e2studio_2021_01_workspace_RZA2M_ANPR/ANPR_RZA2M_GR_MANGO/src/tensorflow_lite/third_party/flatbuffers/include/flatbuffers\flatbuffers.h ****   template<typename T>
1954:C:/Renesas/e2studio_2021_01_workspace_RZA2M_ANPR/ANPR_RZA2M_GR_MANGO/src/tensorflow_lite/third_party/flatbuffers/include/flatbuffers\flatbuffers.h ****   Offset<Vector<T>> CreateUninitializedVector(size_t len, T **buf) {
1955:C:/Renesas/e2studio_2021_01_workspace_RZA2M_ANPR/ANPR_RZA2M_GR_MANGO/src/tensorflow_lite/third_party/flatbuffers/include/flatbuffers\flatbuffers.h ****     AssertScalarT<T>();
1956:C:/Renesas/e2studio_2021_01_workspace_RZA2M_ANPR/ANPR_RZA2M_GR_MANGO/src/tensorflow_lite/third_party/flatbuffers/include/flatbuffers\flatbuffers.h ****     return CreateUninitializedVector(len, sizeof(T),
1957:C:/Renesas/e2studio_2021_01_workspace_RZA2M_ANPR/ANPR_RZA2M_GR_MANGO/src/tensorflow_lite/third_party/flatbuffers/include/flatbuffers\flatbuffers.h ****                                      reinterpret_cast<uint8_t **>(buf));
1958:C:/Renesas/e2studio_2021_01_workspace_RZA2M_ANPR/ANPR_RZA2M_GR_MANGO/src/tensorflow_lite/third_party/flatbuffers/include/flatbuffers\flatbuffers.h ****   }
1959:C:/Renesas/e2studio_2021_01_workspace_RZA2M_ANPR/ANPR_RZA2M_GR_MANGO/src/tensorflow_lite/third_party/flatbuffers/include/flatbuffers\flatbuffers.h **** 
1960:C:/Renesas/e2studio_2021_01_workspace_RZA2M_ANPR/ANPR_RZA2M_GR_MANGO/src/tensorflow_lite/third_party/flatbuffers/include/flatbuffers\flatbuffers.h ****   template<typename T>
1961:C:/Renesas/e2studio_2021_01_workspace_RZA2M_ANPR/ANPR_RZA2M_GR_MANGO/src/tensorflow_lite/third_party/flatbuffers/include/flatbuffers\flatbuffers.h ****   Offset<Vector<const T *>> CreateUninitializedVectorOfStructs(size_t len,
1962:C:/Renesas/e2studio_2021_01_workspace_RZA2M_ANPR/ANPR_RZA2M_GR_MANGO/src/tensorflow_lite/third_party/flatbuffers/include/flatbuffers\flatbuffers.h ****                                                                T **buf) {
1963:C:/Renesas/e2studio_2021_01_workspace_RZA2M_ANPR/ANPR_RZA2M_GR_MANGO/src/tensorflow_lite/third_party/flatbuffers/include/flatbuffers\flatbuffers.h ****     return CreateUninitializedVector(len, sizeof(T),
1964:C:/Renesas/e2studio_2021_01_workspace_RZA2M_ANPR/ANPR_RZA2M_GR_MANGO/src/tensorflow_lite/third_party/flatbuffers/include/flatbuffers\flatbuffers.h ****                                      reinterpret_cast<uint8_t **>(buf));
1965:C:/Renesas/e2studio_2021_01_workspace_RZA2M_ANPR/ANPR_RZA2M_GR_MANGO/src/tensorflow_lite/third_party/flatbuffers/include/flatbuffers\flatbuffers.h ****   }
1966:C:/Renesas/e2studio_2021_01_workspace_RZA2M_ANPR/ANPR_RZA2M_GR_MANGO/src/tensorflow_lite/third_party/flatbuffers/include/flatbuffers\flatbuffers.h **** 
1967:C:/Renesas/e2studio_2021_01_workspace_RZA2M_ANPR/ANPR_RZA2M_GR_MANGO/src/tensorflow_lite/third_party/flatbuffers/include/flatbuffers\flatbuffers.h ****   // @brief Create a vector of scalar type T given as input a vector of scalar
1968:C:/Renesas/e2studio_2021_01_workspace_RZA2M_ANPR/ANPR_RZA2M_GR_MANGO/src/tensorflow_lite/third_party/flatbuffers/include/flatbuffers\flatbuffers.h ****   // type U, useful with e.g. pre "enum class" enums, or any existing scalar
1969:C:/Renesas/e2studio_2021_01_workspace_RZA2M_ANPR/ANPR_RZA2M_GR_MANGO/src/tensorflow_lite/third_party/flatbuffers/include/flatbuffers\flatbuffers.h ****   // data of the wrong type.
1970:C:/Renesas/e2studio_2021_01_workspace_RZA2M_ANPR/ANPR_RZA2M_GR_MANGO/src/tensorflow_lite/third_party/flatbuffers/include/flatbuffers\flatbuffers.h ****   template<typename T, typename U>
1971:C:/Renesas/e2studio_2021_01_workspace_RZA2M_ANPR/ANPR_RZA2M_GR_MANGO/src/tensorflow_lite/third_party/flatbuffers/include/flatbuffers\flatbuffers.h ****   Offset<Vector<T>> CreateVectorScalarCast(const U *v, size_t len) {
1972:C:/Renesas/e2studio_2021_01_workspace_RZA2M_ANPR/ANPR_RZA2M_GR_MANGO/src/tensorflow_lite/third_party/flatbuffers/include/flatbuffers\flatbuffers.h ****     AssertScalarT<T>();
1973:C:/Renesas/e2studio_2021_01_workspace_RZA2M_ANPR/ANPR_RZA2M_GR_MANGO/src/tensorflow_lite/third_party/flatbuffers/include/flatbuffers\flatbuffers.h ****     AssertScalarT<U>();
1974:C:/Renesas/e2studio_2021_01_workspace_RZA2M_ANPR/ANPR_RZA2M_GR_MANGO/src/tensorflow_lite/third_party/flatbuffers/include/flatbuffers\flatbuffers.h ****     StartVector(len, sizeof(T));
1975:C:/Renesas/e2studio_2021_01_workspace_RZA2M_ANPR/ANPR_RZA2M_GR_MANGO/src/tensorflow_lite/third_party/flatbuffers/include/flatbuffers\flatbuffers.h ****     for (auto i = len; i > 0;) { PushElement(static_cast<T>(v[--i])); }
1976:C:/Renesas/e2studio_2021_01_workspace_RZA2M_ANPR/ANPR_RZA2M_GR_MANGO/src/tensorflow_lite/third_party/flatbuffers/include/flatbuffers\flatbuffers.h ****     return Offset<Vector<T>>(EndVector(len));
1977:C:/Renesas/e2studio_2021_01_workspace_RZA2M_ANPR/ANPR_RZA2M_GR_MANGO/src/tensorflow_lite/third_party/flatbuffers/include/flatbuffers\flatbuffers.h ****   }
1978:C:/Renesas/e2studio_2021_01_workspace_RZA2M_ANPR/ANPR_RZA2M_GR_MANGO/src/tensorflow_lite/third_party/flatbuffers/include/flatbuffers\flatbuffers.h **** 
1979:C:/Renesas/e2studio_2021_01_workspace_RZA2M_ANPR/ANPR_RZA2M_GR_MANGO/src/tensorflow_lite/third_party/flatbuffers/include/flatbuffers\flatbuffers.h ****   /// @brief Write a struct by itself, typically to be part of a union.
1980:C:/Renesas/e2studio_2021_01_workspace_RZA2M_ANPR/ANPR_RZA2M_GR_MANGO/src/tensorflow_lite/third_party/flatbuffers/include/flatbuffers\flatbuffers.h ****   template<typename T> Offset<const T *> CreateStruct(const T &structobj) {
1981:C:/Renesas/e2studio_2021_01_workspace_RZA2M_ANPR/ANPR_RZA2M_GR_MANGO/src/tensorflow_lite/third_party/flatbuffers/include/flatbuffers\flatbuffers.h ****     NotNested();
1982:C:/Renesas/e2studio_2021_01_workspace_RZA2M_ANPR/ANPR_RZA2M_GR_MANGO/src/tensorflow_lite/third_party/flatbuffers/include/flatbuffers\flatbuffers.h ****     Align(AlignOf<T>());
1983:C:/Renesas/e2studio_2021_01_workspace_RZA2M_ANPR/ANPR_RZA2M_GR_MANGO/src/tensorflow_lite/third_party/flatbuffers/include/flatbuffers\flatbuffers.h ****     buf_.push_small(structobj);
1984:C:/Renesas/e2studio_2021_01_workspace_RZA2M_ANPR/ANPR_RZA2M_GR_MANGO/src/tensorflow_lite/third_party/flatbuffers/include/flatbuffers\flatbuffers.h ****     return Offset<const T *>(GetSize());
1985:C:/Renesas/e2studio_2021_01_workspace_RZA2M_ANPR/ANPR_RZA2M_GR_MANGO/src/tensorflow_lite/third_party/flatbuffers/include/flatbuffers\flatbuffers.h ****   }
1986:C:/Renesas/e2studio_2021_01_workspace_RZA2M_ANPR/ANPR_RZA2M_GR_MANGO/src/tensorflow_lite/third_party/flatbuffers/include/flatbuffers\flatbuffers.h **** 
1987:C:/Renesas/e2studio_2021_01_workspace_RZA2M_ANPR/ANPR_RZA2M_GR_MANGO/src/tensorflow_lite/third_party/flatbuffers/include/flatbuffers\flatbuffers.h ****   /// @brief The length of a FlatBuffer file header.
1988:C:/Renesas/e2studio_2021_01_workspace_RZA2M_ANPR/ANPR_RZA2M_GR_MANGO/src/tensorflow_lite/third_party/flatbuffers/include/flatbuffers\flatbuffers.h ****   static const size_t kFileIdentifierLength = 4;
1989:C:/Renesas/e2studio_2021_01_workspace_RZA2M_ANPR/ANPR_RZA2M_GR_MANGO/src/tensorflow_lite/third_party/flatbuffers/include/flatbuffers\flatbuffers.h **** 
1990:C:/Renesas/e2studio_2021_01_workspace_RZA2M_ANPR/ANPR_RZA2M_GR_MANGO/src/tensorflow_lite/third_party/flatbuffers/include/flatbuffers\flatbuffers.h ****   /// @brief Finish serializing a buffer by writing the root offset.
1991:C:/Renesas/e2studio_2021_01_workspace_RZA2M_ANPR/ANPR_RZA2M_GR_MANGO/src/tensorflow_lite/third_party/flatbuffers/include/flatbuffers\flatbuffers.h ****   /// @param[in] file_identifier If a `file_identifier` is given, the buffer
1992:C:/Renesas/e2studio_2021_01_workspace_RZA2M_ANPR/ANPR_RZA2M_GR_MANGO/src/tensorflow_lite/third_party/flatbuffers/include/flatbuffers\flatbuffers.h ****   /// will be prefixed with a standard FlatBuffers file header.
1993:C:/Renesas/e2studio_2021_01_workspace_RZA2M_ANPR/ANPR_RZA2M_GR_MANGO/src/tensorflow_lite/third_party/flatbuffers/include/flatbuffers\flatbuffers.h ****   template<typename T>
1994:C:/Renesas/e2studio_2021_01_workspace_RZA2M_ANPR/ANPR_RZA2M_GR_MANGO/src/tensorflow_lite/third_party/flatbuffers/include/flatbuffers\flatbuffers.h ****   void Finish(Offset<T> root, const char *file_identifier = nullptr) {
1995:C:/Renesas/e2studio_2021_01_workspace_RZA2M_ANPR/ANPR_RZA2M_GR_MANGO/src/tensorflow_lite/third_party/flatbuffers/include/flatbuffers\flatbuffers.h ****     Finish(root.o, file_identifier, false);
1996:C:/Renesas/e2studio_2021_01_workspace_RZA2M_ANPR/ANPR_RZA2M_GR_MANGO/src/tensorflow_lite/third_party/flatbuffers/include/flatbuffers\flatbuffers.h ****   }
1997:C:/Renesas/e2studio_2021_01_workspace_RZA2M_ANPR/ANPR_RZA2M_GR_MANGO/src/tensorflow_lite/third_party/flatbuffers/include/flatbuffers\flatbuffers.h **** 
1998:C:/Renesas/e2studio_2021_01_workspace_RZA2M_ANPR/ANPR_RZA2M_GR_MANGO/src/tensorflow_lite/third_party/flatbuffers/include/flatbuffers\flatbuffers.h ****   /// @brief Finish a buffer with a 32 bit size field pre-fixed (size of the
1999:C:/Renesas/e2studio_2021_01_workspace_RZA2M_ANPR/ANPR_RZA2M_GR_MANGO/src/tensorflow_lite/third_party/flatbuffers/include/flatbuffers\flatbuffers.h ****   /// buffer following the size field). These buffers are NOT compatible
2000:C:/Renesas/e2studio_2021_01_workspace_RZA2M_ANPR/ANPR_RZA2M_GR_MANGO/src/tensorflow_lite/third_party/flatbuffers/include/flatbuffers\flatbuffers.h ****   /// with standard buffers created by Finish, i.e. you can't call GetRoot
2001:C:/Renesas/e2studio_2021_01_workspace_RZA2M_ANPR/ANPR_RZA2M_GR_MANGO/src/tensorflow_lite/third_party/flatbuffers/include/flatbuffers\flatbuffers.h ****   /// on them, you have to use GetSizePrefixedRoot instead.
2002:C:/Renesas/e2studio_2021_01_workspace_RZA2M_ANPR/ANPR_RZA2M_GR_MANGO/src/tensorflow_lite/third_party/flatbuffers/include/flatbuffers\flatbuffers.h ****   /// All >32 bit quantities in this buffer will be aligned when the whole
2003:C:/Renesas/e2studio_2021_01_workspace_RZA2M_ANPR/ANPR_RZA2M_GR_MANGO/src/tensorflow_lite/third_party/flatbuffers/include/flatbuffers\flatbuffers.h ****   /// size pre-fixed buffer is aligned.
2004:C:/Renesas/e2studio_2021_01_workspace_RZA2M_ANPR/ANPR_RZA2M_GR_MANGO/src/tensorflow_lite/third_party/flatbuffers/include/flatbuffers\flatbuffers.h ****   /// These kinds of buffers are useful for creating a stream of FlatBuffers.
2005:C:/Renesas/e2studio_2021_01_workspace_RZA2M_ANPR/ANPR_RZA2M_GR_MANGO/src/tensorflow_lite/third_party/flatbuffers/include/flatbuffers\flatbuffers.h ****   template<typename T>
2006:C:/Renesas/e2studio_2021_01_workspace_RZA2M_ANPR/ANPR_RZA2M_GR_MANGO/src/tensorflow_lite/third_party/flatbuffers/include/flatbuffers\flatbuffers.h ****   void FinishSizePrefixed(Offset<T> root,
2007:C:/Renesas/e2studio_2021_01_workspace_RZA2M_ANPR/ANPR_RZA2M_GR_MANGO/src/tensorflow_lite/third_party/flatbuffers/include/flatbuffers\flatbuffers.h ****                           const char *file_identifier = nullptr) {
2008:C:/Renesas/e2studio_2021_01_workspace_RZA2M_ANPR/ANPR_RZA2M_GR_MANGO/src/tensorflow_lite/third_party/flatbuffers/include/flatbuffers\flatbuffers.h ****     Finish(root.o, file_identifier, true);
2009:C:/Renesas/e2studio_2021_01_workspace_RZA2M_ANPR/ANPR_RZA2M_GR_MANGO/src/tensorflow_lite/third_party/flatbuffers/include/flatbuffers\flatbuffers.h ****   }
2010:C:/Renesas/e2studio_2021_01_workspace_RZA2M_ANPR/ANPR_RZA2M_GR_MANGO/src/tensorflow_lite/third_party/flatbuffers/include/flatbuffers\flatbuffers.h **** 
2011:C:/Renesas/e2studio_2021_01_workspace_RZA2M_ANPR/ANPR_RZA2M_GR_MANGO/src/tensorflow_lite/third_party/flatbuffers/include/flatbuffers\flatbuffers.h ****   void SwapBufAllocator(FlatBufferBuilder &other) {
2012:C:/Renesas/e2studio_2021_01_workspace_RZA2M_ANPR/ANPR_RZA2M_GR_MANGO/src/tensorflow_lite/third_party/flatbuffers/include/flatbuffers\flatbuffers.h ****     buf_.swap_allocator(other.buf_);
2013:C:/Renesas/e2studio_2021_01_workspace_RZA2M_ANPR/ANPR_RZA2M_GR_MANGO/src/tensorflow_lite/third_party/flatbuffers/include/flatbuffers\flatbuffers.h ****   }
2014:C:/Renesas/e2studio_2021_01_workspace_RZA2M_ANPR/ANPR_RZA2M_GR_MANGO/src/tensorflow_lite/third_party/flatbuffers/include/flatbuffers\flatbuffers.h **** 
2015:C:/Renesas/e2studio_2021_01_workspace_RZA2M_ANPR/ANPR_RZA2M_GR_MANGO/src/tensorflow_lite/third_party/flatbuffers/include/flatbuffers\flatbuffers.h ****  protected:
2016:C:/Renesas/e2studio_2021_01_workspace_RZA2M_ANPR/ANPR_RZA2M_GR_MANGO/src/tensorflow_lite/third_party/flatbuffers/include/flatbuffers\flatbuffers.h ****   // You shouldn't really be copying instances of this class.
2017:C:/Renesas/e2studio_2021_01_workspace_RZA2M_ANPR/ANPR_RZA2M_GR_MANGO/src/tensorflow_lite/third_party/flatbuffers/include/flatbuffers\flatbuffers.h ****   FlatBufferBuilder(const FlatBufferBuilder &);
2018:C:/Renesas/e2studio_2021_01_workspace_RZA2M_ANPR/ANPR_RZA2M_GR_MANGO/src/tensorflow_lite/third_party/flatbuffers/include/flatbuffers\flatbuffers.h ****   FlatBufferBuilder &operator=(const FlatBufferBuilder &);
2019:C:/Renesas/e2studio_2021_01_workspace_RZA2M_ANPR/ANPR_RZA2M_GR_MANGO/src/tensorflow_lite/third_party/flatbuffers/include/flatbuffers\flatbuffers.h **** 
2020:C:/Renesas/e2studio_2021_01_workspace_RZA2M_ANPR/ANPR_RZA2M_GR_MANGO/src/tensorflow_lite/third_party/flatbuffers/include/flatbuffers\flatbuffers.h ****   void Finish(uoffset_t root, const char *file_identifier, bool size_prefix) {
2021:C:/Renesas/e2studio_2021_01_workspace_RZA2M_ANPR/ANPR_RZA2M_GR_MANGO/src/tensorflow_lite/third_party/flatbuffers/include/flatbuffers\flatbuffers.h ****     NotNested();
2022:C:/Renesas/e2studio_2021_01_workspace_RZA2M_ANPR/ANPR_RZA2M_GR_MANGO/src/tensorflow_lite/third_party/flatbuffers/include/flatbuffers\flatbuffers.h ****     buf_.clear_scratch();
2023:C:/Renesas/e2studio_2021_01_workspace_RZA2M_ANPR/ANPR_RZA2M_GR_MANGO/src/tensorflow_lite/third_party/flatbuffers/include/flatbuffers\flatbuffers.h ****     // This will cause the whole buffer to be aligned.
2024:C:/Renesas/e2studio_2021_01_workspace_RZA2M_ANPR/ANPR_RZA2M_GR_MANGO/src/tensorflow_lite/third_party/flatbuffers/include/flatbuffers\flatbuffers.h ****     PreAlign((size_prefix ? sizeof(uoffset_t) : 0) + sizeof(uoffset_t) +
2025:C:/Renesas/e2studio_2021_01_workspace_RZA2M_ANPR/ANPR_RZA2M_GR_MANGO/src/tensorflow_lite/third_party/flatbuffers/include/flatbuffers\flatbuffers.h ****                  (file_identifier ? kFileIdentifierLength : 0),
2026:C:/Renesas/e2studio_2021_01_workspace_RZA2M_ANPR/ANPR_RZA2M_GR_MANGO/src/tensorflow_lite/third_party/flatbuffers/include/flatbuffers\flatbuffers.h ****              minalign_);
2027:C:/Renesas/e2studio_2021_01_workspace_RZA2M_ANPR/ANPR_RZA2M_GR_MANGO/src/tensorflow_lite/third_party/flatbuffers/include/flatbuffers\flatbuffers.h ****     if (file_identifier) {
2028:C:/Renesas/e2studio_2021_01_workspace_RZA2M_ANPR/ANPR_RZA2M_GR_MANGO/src/tensorflow_lite/third_party/flatbuffers/include/flatbuffers\flatbuffers.h ****       FLATBUFFERS_ASSERT(strlen(file_identifier) == kFileIdentifierLength);
2029:C:/Renesas/e2studio_2021_01_workspace_RZA2M_ANPR/ANPR_RZA2M_GR_MANGO/src/tensorflow_lite/third_party/flatbuffers/include/flatbuffers\flatbuffers.h ****       PushBytes(reinterpret_cast<const uint8_t *>(file_identifier),
2030:C:/Renesas/e2studio_2021_01_workspace_RZA2M_ANPR/ANPR_RZA2M_GR_MANGO/src/tensorflow_lite/third_party/flatbuffers/include/flatbuffers\flatbuffers.h ****                 kFileIdentifierLength);
2031:C:/Renesas/e2studio_2021_01_workspace_RZA2M_ANPR/ANPR_RZA2M_GR_MANGO/src/tensorflow_lite/third_party/flatbuffers/include/flatbuffers\flatbuffers.h ****     }
2032:C:/Renesas/e2studio_2021_01_workspace_RZA2M_ANPR/ANPR_RZA2M_GR_MANGO/src/tensorflow_lite/third_party/flatbuffers/include/flatbuffers\flatbuffers.h ****     PushElement(ReferTo(root));  // Location of root.
2033:C:/Renesas/e2studio_2021_01_workspace_RZA2M_ANPR/ANPR_RZA2M_GR_MANGO/src/tensorflow_lite/third_party/flatbuffers/include/flatbuffers\flatbuffers.h ****     if (size_prefix) { PushElement(GetSize()); }
2034:C:/Renesas/e2studio_2021_01_workspace_RZA2M_ANPR/ANPR_RZA2M_GR_MANGO/src/tensorflow_lite/third_party/flatbuffers/include/flatbuffers\flatbuffers.h ****     finished = true;
2035:C:/Renesas/e2studio_2021_01_workspace_RZA2M_ANPR/ANPR_RZA2M_GR_MANGO/src/tensorflow_lite/third_party/flatbuffers/include/flatbuffers\flatbuffers.h ****   }
2036:C:/Renesas/e2studio_2021_01_workspace_RZA2M_ANPR/ANPR_RZA2M_GR_MANGO/src/tensorflow_lite/third_party/flatbuffers/include/flatbuffers\flatbuffers.h **** 
2037:C:/Renesas/e2studio_2021_01_workspace_RZA2M_ANPR/ANPR_RZA2M_GR_MANGO/src/tensorflow_lite/third_party/flatbuffers/include/flatbuffers\flatbuffers.h ****   struct FieldLoc {
2038:C:/Renesas/e2studio_2021_01_workspace_RZA2M_ANPR/ANPR_RZA2M_GR_MANGO/src/tensorflow_lite/third_party/flatbuffers/include/flatbuffers\flatbuffers.h ****     uoffset_t off;
2039:C:/Renesas/e2studio_2021_01_workspace_RZA2M_ANPR/ANPR_RZA2M_GR_MANGO/src/tensorflow_lite/third_party/flatbuffers/include/flatbuffers\flatbuffers.h ****     voffset_t id;
2040:C:/Renesas/e2studio_2021_01_workspace_RZA2M_ANPR/ANPR_RZA2M_GR_MANGO/src/tensorflow_lite/third_party/flatbuffers/include/flatbuffers\flatbuffers.h ****   };
2041:C:/Renesas/e2studio_2021_01_workspace_RZA2M_ANPR/ANPR_RZA2M_GR_MANGO/src/tensorflow_lite/third_party/flatbuffers/include/flatbuffers\flatbuffers.h **** 
2042:C:/Renesas/e2studio_2021_01_workspace_RZA2M_ANPR/ANPR_RZA2M_GR_MANGO/src/tensorflow_lite/third_party/flatbuffers/include/flatbuffers\flatbuffers.h ****   vector_downward buf_;
2043:C:/Renesas/e2studio_2021_01_workspace_RZA2M_ANPR/ANPR_RZA2M_GR_MANGO/src/tensorflow_lite/third_party/flatbuffers/include/flatbuffers\flatbuffers.h **** 
2044:C:/Renesas/e2studio_2021_01_workspace_RZA2M_ANPR/ANPR_RZA2M_GR_MANGO/src/tensorflow_lite/third_party/flatbuffers/include/flatbuffers\flatbuffers.h ****   // Accumulating offsets of table members while it is being built.
2045:C:/Renesas/e2studio_2021_01_workspace_RZA2M_ANPR/ANPR_RZA2M_GR_MANGO/src/tensorflow_lite/third_party/flatbuffers/include/flatbuffers\flatbuffers.h ****   // We store these in the scratch pad of buf_, after the vtable offsets.
2046:C:/Renesas/e2studio_2021_01_workspace_RZA2M_ANPR/ANPR_RZA2M_GR_MANGO/src/tensorflow_lite/third_party/flatbuffers/include/flatbuffers\flatbuffers.h ****   uoffset_t num_field_loc;
2047:C:/Renesas/e2studio_2021_01_workspace_RZA2M_ANPR/ANPR_RZA2M_GR_MANGO/src/tensorflow_lite/third_party/flatbuffers/include/flatbuffers\flatbuffers.h ****   // Track how much of the vtable is in use, so we can output the most compact
2048:C:/Renesas/e2studio_2021_01_workspace_RZA2M_ANPR/ANPR_RZA2M_GR_MANGO/src/tensorflow_lite/third_party/flatbuffers/include/flatbuffers\flatbuffers.h ****   // possible vtable.
2049:C:/Renesas/e2studio_2021_01_workspace_RZA2M_ANPR/ANPR_RZA2M_GR_MANGO/src/tensorflow_lite/third_party/flatbuffers/include/flatbuffers\flatbuffers.h ****   voffset_t max_voffset_;
2050:C:/Renesas/e2studio_2021_01_workspace_RZA2M_ANPR/ANPR_RZA2M_GR_MANGO/src/tensorflow_lite/third_party/flatbuffers/include/flatbuffers\flatbuffers.h **** 
2051:C:/Renesas/e2studio_2021_01_workspace_RZA2M_ANPR/ANPR_RZA2M_GR_MANGO/src/tensorflow_lite/third_party/flatbuffers/include/flatbuffers\flatbuffers.h ****   // Ensure objects are not nested.
2052:C:/Renesas/e2studio_2021_01_workspace_RZA2M_ANPR/ANPR_RZA2M_GR_MANGO/src/tensorflow_lite/third_party/flatbuffers/include/flatbuffers\flatbuffers.h ****   bool nested;
2053:C:/Renesas/e2studio_2021_01_workspace_RZA2M_ANPR/ANPR_RZA2M_GR_MANGO/src/tensorflow_lite/third_party/flatbuffers/include/flatbuffers\flatbuffers.h **** 
2054:C:/Renesas/e2studio_2021_01_workspace_RZA2M_ANPR/ANPR_RZA2M_GR_MANGO/src/tensorflow_lite/third_party/flatbuffers/include/flatbuffers\flatbuffers.h ****   // Ensure the buffer is finished before it is being accessed.
2055:C:/Renesas/e2studio_2021_01_workspace_RZA2M_ANPR/ANPR_RZA2M_GR_MANGO/src/tensorflow_lite/third_party/flatbuffers/include/flatbuffers\flatbuffers.h ****   bool finished;
2056:C:/Renesas/e2studio_2021_01_workspace_RZA2M_ANPR/ANPR_RZA2M_GR_MANGO/src/tensorflow_lite/third_party/flatbuffers/include/flatbuffers\flatbuffers.h **** 
2057:C:/Renesas/e2studio_2021_01_workspace_RZA2M_ANPR/ANPR_RZA2M_GR_MANGO/src/tensorflow_lite/third_party/flatbuffers/include/flatbuffers\flatbuffers.h ****   size_t minalign_;
2058:C:/Renesas/e2studio_2021_01_workspace_RZA2M_ANPR/ANPR_RZA2M_GR_MANGO/src/tensorflow_lite/third_party/flatbuffers/include/flatbuffers\flatbuffers.h **** 
2059:C:/Renesas/e2studio_2021_01_workspace_RZA2M_ANPR/ANPR_RZA2M_GR_MANGO/src/tensorflow_lite/third_party/flatbuffers/include/flatbuffers\flatbuffers.h ****   bool force_defaults_;  // Serialize values equal to their defaults anyway.
2060:C:/Renesas/e2studio_2021_01_workspace_RZA2M_ANPR/ANPR_RZA2M_GR_MANGO/src/tensorflow_lite/third_party/flatbuffers/include/flatbuffers\flatbuffers.h **** 
2061:C:/Renesas/e2studio_2021_01_workspace_RZA2M_ANPR/ANPR_RZA2M_GR_MANGO/src/tensorflow_lite/third_party/flatbuffers/include/flatbuffers\flatbuffers.h ****   bool dedup_vtables_;
2062:C:/Renesas/e2studio_2021_01_workspace_RZA2M_ANPR/ANPR_RZA2M_GR_MANGO/src/tensorflow_lite/third_party/flatbuffers/include/flatbuffers\flatbuffers.h **** 
2063:C:/Renesas/e2studio_2021_01_workspace_RZA2M_ANPR/ANPR_RZA2M_GR_MANGO/src/tensorflow_lite/third_party/flatbuffers/include/flatbuffers\flatbuffers.h ****   struct StringOffsetCompare {
2064:C:/Renesas/e2studio_2021_01_workspace_RZA2M_ANPR/ANPR_RZA2M_GR_MANGO/src/tensorflow_lite/third_party/flatbuffers/include/flatbuffers\flatbuffers.h ****     StringOffsetCompare(const vector_downward &buf) : buf_(&buf) {}
2065:C:/Renesas/e2studio_2021_01_workspace_RZA2M_ANPR/ANPR_RZA2M_GR_MANGO/src/tensorflow_lite/third_party/flatbuffers/include/flatbuffers\flatbuffers.h ****     bool operator()(const Offset<String> &a, const Offset<String> &b) const {
2066:C:/Renesas/e2studio_2021_01_workspace_RZA2M_ANPR/ANPR_RZA2M_GR_MANGO/src/tensorflow_lite/third_party/flatbuffers/include/flatbuffers\flatbuffers.h ****       auto stra = reinterpret_cast<const String *>(buf_->data_at(a.o));
2067:C:/Renesas/e2studio_2021_01_workspace_RZA2M_ANPR/ANPR_RZA2M_GR_MANGO/src/tensorflow_lite/third_party/flatbuffers/include/flatbuffers\flatbuffers.h ****       auto strb = reinterpret_cast<const String *>(buf_->data_at(b.o));
2068:C:/Renesas/e2studio_2021_01_workspace_RZA2M_ANPR/ANPR_RZA2M_GR_MANGO/src/tensorflow_lite/third_party/flatbuffers/include/flatbuffers\flatbuffers.h ****       return StringLessThan(stra->data(), stra->size(), strb->data(),
2069:C:/Renesas/e2studio_2021_01_workspace_RZA2M_ANPR/ANPR_RZA2M_GR_MANGO/src/tensorflow_lite/third_party/flatbuffers/include/flatbuffers\flatbuffers.h ****                             strb->size());
2070:C:/Renesas/e2studio_2021_01_workspace_RZA2M_ANPR/ANPR_RZA2M_GR_MANGO/src/tensorflow_lite/third_party/flatbuffers/include/flatbuffers\flatbuffers.h ****     }
2071:C:/Renesas/e2studio_2021_01_workspace_RZA2M_ANPR/ANPR_RZA2M_GR_MANGO/src/tensorflow_lite/third_party/flatbuffers/include/flatbuffers\flatbuffers.h ****     const vector_downward *buf_;
2072:C:/Renesas/e2studio_2021_01_workspace_RZA2M_ANPR/ANPR_RZA2M_GR_MANGO/src/tensorflow_lite/third_party/flatbuffers/include/flatbuffers\flatbuffers.h ****   };
2073:C:/Renesas/e2studio_2021_01_workspace_RZA2M_ANPR/ANPR_RZA2M_GR_MANGO/src/tensorflow_lite/third_party/flatbuffers/include/flatbuffers\flatbuffers.h **** 
2074:C:/Renesas/e2studio_2021_01_workspace_RZA2M_ANPR/ANPR_RZA2M_GR_MANGO/src/tensorflow_lite/third_party/flatbuffers/include/flatbuffers\flatbuffers.h ****   // For use with CreateSharedString. Instantiated on first use only.
2075:C:/Renesas/e2studio_2021_01_workspace_RZA2M_ANPR/ANPR_RZA2M_GR_MANGO/src/tensorflow_lite/third_party/flatbuffers/include/flatbuffers\flatbuffers.h ****   typedef std::set<Offset<String>, StringOffsetCompare> StringOffsetMap;
2076:C:/Renesas/e2studio_2021_01_workspace_RZA2M_ANPR/ANPR_RZA2M_GR_MANGO/src/tensorflow_lite/third_party/flatbuffers/include/flatbuffers\flatbuffers.h ****   StringOffsetMap *string_pool;
2077:C:/Renesas/e2studio_2021_01_workspace_RZA2M_ANPR/ANPR_RZA2M_GR_MANGO/src/tensorflow_lite/third_party/flatbuffers/include/flatbuffers\flatbuffers.h **** 
2078:C:/Renesas/e2studio_2021_01_workspace_RZA2M_ANPR/ANPR_RZA2M_GR_MANGO/src/tensorflow_lite/third_party/flatbuffers/include/flatbuffers\flatbuffers.h ****  private:
2079:C:/Renesas/e2studio_2021_01_workspace_RZA2M_ANPR/ANPR_RZA2M_GR_MANGO/src/tensorflow_lite/third_party/flatbuffers/include/flatbuffers\flatbuffers.h ****   // Allocates space for a vector of structures.
2080:C:/Renesas/e2studio_2021_01_workspace_RZA2M_ANPR/ANPR_RZA2M_GR_MANGO/src/tensorflow_lite/third_party/flatbuffers/include/flatbuffers\flatbuffers.h ****   // Must be completed with EndVectorOfStructs().
2081:C:/Renesas/e2studio_2021_01_workspace_RZA2M_ANPR/ANPR_RZA2M_GR_MANGO/src/tensorflow_lite/third_party/flatbuffers/include/flatbuffers\flatbuffers.h ****   template<typename T> T *StartVectorOfStructs(size_t vector_size) {
2082:C:/Renesas/e2studio_2021_01_workspace_RZA2M_ANPR/ANPR_RZA2M_GR_MANGO/src/tensorflow_lite/third_party/flatbuffers/include/flatbuffers\flatbuffers.h ****     StartVector(vector_size * sizeof(T) / AlignOf<T>(), AlignOf<T>());
2083:C:/Renesas/e2studio_2021_01_workspace_RZA2M_ANPR/ANPR_RZA2M_GR_MANGO/src/tensorflow_lite/third_party/flatbuffers/include/flatbuffers\flatbuffers.h ****     return reinterpret_cast<T *>(buf_.make_space(vector_size * sizeof(T)));
2084:C:/Renesas/e2studio_2021_01_workspace_RZA2M_ANPR/ANPR_RZA2M_GR_MANGO/src/tensorflow_lite/third_party/flatbuffers/include/flatbuffers\flatbuffers.h ****   }
2085:C:/Renesas/e2studio_2021_01_workspace_RZA2M_ANPR/ANPR_RZA2M_GR_MANGO/src/tensorflow_lite/third_party/flatbuffers/include/flatbuffers\flatbuffers.h **** 
2086:C:/Renesas/e2studio_2021_01_workspace_RZA2M_ANPR/ANPR_RZA2M_GR_MANGO/src/tensorflow_lite/third_party/flatbuffers/include/flatbuffers\flatbuffers.h ****   // End the vector of structues in the flatbuffers.
2087:C:/Renesas/e2studio_2021_01_workspace_RZA2M_ANPR/ANPR_RZA2M_GR_MANGO/src/tensorflow_lite/third_party/flatbuffers/include/flatbuffers\flatbuffers.h ****   // Vector should have previously be started with StartVectorOfStructs().
2088:C:/Renesas/e2studio_2021_01_workspace_RZA2M_ANPR/ANPR_RZA2M_GR_MANGO/src/tensorflow_lite/third_party/flatbuffers/include/flatbuffers\flatbuffers.h ****   template<typename T>
2089:C:/Renesas/e2studio_2021_01_workspace_RZA2M_ANPR/ANPR_RZA2M_GR_MANGO/src/tensorflow_lite/third_party/flatbuffers/include/flatbuffers\flatbuffers.h ****   Offset<Vector<const T *>> EndVectorOfStructs(size_t vector_size) {
2090:C:/Renesas/e2studio_2021_01_workspace_RZA2M_ANPR/ANPR_RZA2M_GR_MANGO/src/tensorflow_lite/third_party/flatbuffers/include/flatbuffers\flatbuffers.h ****     return Offset<Vector<const T *>>(EndVector(vector_size));
2091:C:/Renesas/e2studio_2021_01_workspace_RZA2M_ANPR/ANPR_RZA2M_GR_MANGO/src/tensorflow_lite/third_party/flatbuffers/include/flatbuffers\flatbuffers.h ****   }
2092:C:/Renesas/e2studio_2021_01_workspace_RZA2M_ANPR/ANPR_RZA2M_GR_MANGO/src/tensorflow_lite/third_party/flatbuffers/include/flatbuffers\flatbuffers.h **** };
2093:C:/Renesas/e2studio_2021_01_workspace_RZA2M_ANPR/ANPR_RZA2M_GR_MANGO/src/tensorflow_lite/third_party/flatbuffers/include/flatbuffers\flatbuffers.h **** /// @}
2094:C:/Renesas/e2studio_2021_01_workspace_RZA2M_ANPR/ANPR_RZA2M_GR_MANGO/src/tensorflow_lite/third_party/flatbuffers/include/flatbuffers\flatbuffers.h **** 
2095:C:/Renesas/e2studio_2021_01_workspace_RZA2M_ANPR/ANPR_RZA2M_GR_MANGO/src/tensorflow_lite/third_party/flatbuffers/include/flatbuffers\flatbuffers.h **** /// @cond FLATBUFFERS_INTERNAL
2096:C:/Renesas/e2studio_2021_01_workspace_RZA2M_ANPR/ANPR_RZA2M_GR_MANGO/src/tensorflow_lite/third_party/flatbuffers/include/flatbuffers\flatbuffers.h **** // Helpers to get a typed pointer to the root object contained in the buffer.
2097:C:/Renesas/e2studio_2021_01_workspace_RZA2M_ANPR/ANPR_RZA2M_GR_MANGO/src/tensorflow_lite/third_party/flatbuffers/include/flatbuffers\flatbuffers.h **** template<typename T> T *GetMutableRoot(void *buf) {
2098:C:/Renesas/e2studio_2021_01_workspace_RZA2M_ANPR/ANPR_RZA2M_GR_MANGO/src/tensorflow_lite/third_party/flatbuffers/include/flatbuffers\flatbuffers.h ****   EndianCheck();
2099:C:/Renesas/e2studio_2021_01_workspace_RZA2M_ANPR/ANPR_RZA2M_GR_MANGO/src/tensorflow_lite/third_party/flatbuffers/include/flatbuffers\flatbuffers.h ****   return reinterpret_cast<T *>(
2100:C:/Renesas/e2studio_2021_01_workspace_RZA2M_ANPR/ANPR_RZA2M_GR_MANGO/src/tensorflow_lite/third_party/flatbuffers/include/flatbuffers\flatbuffers.h ****       reinterpret_cast<uint8_t *>(buf) +
2101:C:/Renesas/e2studio_2021_01_workspace_RZA2M_ANPR/ANPR_RZA2M_GR_MANGO/src/tensorflow_lite/third_party/flatbuffers/include/flatbuffers\flatbuffers.h ****       EndianScalar(*reinterpret_cast<uoffset_t *>(buf)));
2102:C:/Renesas/e2studio_2021_01_workspace_RZA2M_ANPR/ANPR_RZA2M_GR_MANGO/src/tensorflow_lite/third_party/flatbuffers/include/flatbuffers\flatbuffers.h **** }
2103:C:/Renesas/e2studio_2021_01_workspace_RZA2M_ANPR/ANPR_RZA2M_GR_MANGO/src/tensorflow_lite/third_party/flatbuffers/include/flatbuffers\flatbuffers.h **** 
2104:C:/Renesas/e2studio_2021_01_workspace_RZA2M_ANPR/ANPR_RZA2M_GR_MANGO/src/tensorflow_lite/third_party/flatbuffers/include/flatbuffers\flatbuffers.h **** template<typename T> const T *GetRoot(const void *buf) {
2105:C:/Renesas/e2studio_2021_01_workspace_RZA2M_ANPR/ANPR_RZA2M_GR_MANGO/src/tensorflow_lite/third_party/flatbuffers/include/flatbuffers\flatbuffers.h ****   return GetMutableRoot<T>(const_cast<void *>(buf));
2106:C:/Renesas/e2studio_2021_01_workspace_RZA2M_ANPR/ANPR_RZA2M_GR_MANGO/src/tensorflow_lite/third_party/flatbuffers/include/flatbuffers\flatbuffers.h **** }
2107:C:/Renesas/e2studio_2021_01_workspace_RZA2M_ANPR/ANPR_RZA2M_GR_MANGO/src/tensorflow_lite/third_party/flatbuffers/include/flatbuffers\flatbuffers.h **** 
2108:C:/Renesas/e2studio_2021_01_workspace_RZA2M_ANPR/ANPR_RZA2M_GR_MANGO/src/tensorflow_lite/third_party/flatbuffers/include/flatbuffers\flatbuffers.h **** template<typename T> const T *GetSizePrefixedRoot(const void *buf) {
2109:C:/Renesas/e2studio_2021_01_workspace_RZA2M_ANPR/ANPR_RZA2M_GR_MANGO/src/tensorflow_lite/third_party/flatbuffers/include/flatbuffers\flatbuffers.h ****   return GetRoot<T>(reinterpret_cast<const uint8_t *>(buf) + sizeof(uoffset_t));
2110:C:/Renesas/e2studio_2021_01_workspace_RZA2M_ANPR/ANPR_RZA2M_GR_MANGO/src/tensorflow_lite/third_party/flatbuffers/include/flatbuffers\flatbuffers.h **** }
2111:C:/Renesas/e2studio_2021_01_workspace_RZA2M_ANPR/ANPR_RZA2M_GR_MANGO/src/tensorflow_lite/third_party/flatbuffers/include/flatbuffers\flatbuffers.h **** 
2112:C:/Renesas/e2studio_2021_01_workspace_RZA2M_ANPR/ANPR_RZA2M_GR_MANGO/src/tensorflow_lite/third_party/flatbuffers/include/flatbuffers\flatbuffers.h **** /// Helpers to get a typed pointer to objects that are currently being built.
2113:C:/Renesas/e2studio_2021_01_workspace_RZA2M_ANPR/ANPR_RZA2M_GR_MANGO/src/tensorflow_lite/third_party/flatbuffers/include/flatbuffers\flatbuffers.h **** /// @warning Creating new objects will lead to reallocations and invalidates
2114:C:/Renesas/e2studio_2021_01_workspace_RZA2M_ANPR/ANPR_RZA2M_GR_MANGO/src/tensorflow_lite/third_party/flatbuffers/include/flatbuffers\flatbuffers.h **** /// the pointer!
2115:C:/Renesas/e2studio_2021_01_workspace_RZA2M_ANPR/ANPR_RZA2M_GR_MANGO/src/tensorflow_lite/third_party/flatbuffers/include/flatbuffers\flatbuffers.h **** template<typename T>
2116:C:/Renesas/e2studio_2021_01_workspace_RZA2M_ANPR/ANPR_RZA2M_GR_MANGO/src/tensorflow_lite/third_party/flatbuffers/include/flatbuffers\flatbuffers.h **** T *GetMutableTemporaryPointer(FlatBufferBuilder &fbb, Offset<T> offset) {
2117:C:/Renesas/e2studio_2021_01_workspace_RZA2M_ANPR/ANPR_RZA2M_GR_MANGO/src/tensorflow_lite/third_party/flatbuffers/include/flatbuffers\flatbuffers.h ****   return reinterpret_cast<T *>(fbb.GetCurrentBufferPointer() + fbb.GetSize() -
2118:C:/Renesas/e2studio_2021_01_workspace_RZA2M_ANPR/ANPR_RZA2M_GR_MANGO/src/tensorflow_lite/third_party/flatbuffers/include/flatbuffers\flatbuffers.h ****                                offset.o);
2119:C:/Renesas/e2studio_2021_01_workspace_RZA2M_ANPR/ANPR_RZA2M_GR_MANGO/src/tensorflow_lite/third_party/flatbuffers/include/flatbuffers\flatbuffers.h **** }
2120:C:/Renesas/e2studio_2021_01_workspace_RZA2M_ANPR/ANPR_RZA2M_GR_MANGO/src/tensorflow_lite/third_party/flatbuffers/include/flatbuffers\flatbuffers.h **** 
2121:C:/Renesas/e2studio_2021_01_workspace_RZA2M_ANPR/ANPR_RZA2M_GR_MANGO/src/tensorflow_lite/third_party/flatbuffers/include/flatbuffers\flatbuffers.h **** template<typename T>
2122:C:/Renesas/e2studio_2021_01_workspace_RZA2M_ANPR/ANPR_RZA2M_GR_MANGO/src/tensorflow_lite/third_party/flatbuffers/include/flatbuffers\flatbuffers.h **** const T *GetTemporaryPointer(FlatBufferBuilder &fbb, Offset<T> offset) {
2123:C:/Renesas/e2studio_2021_01_workspace_RZA2M_ANPR/ANPR_RZA2M_GR_MANGO/src/tensorflow_lite/third_party/flatbuffers/include/flatbuffers\flatbuffers.h ****   return GetMutableTemporaryPointer<T>(fbb, offset);
2124:C:/Renesas/e2studio_2021_01_workspace_RZA2M_ANPR/ANPR_RZA2M_GR_MANGO/src/tensorflow_lite/third_party/flatbuffers/include/flatbuffers\flatbuffers.h **** }
2125:C:/Renesas/e2studio_2021_01_workspace_RZA2M_ANPR/ANPR_RZA2M_GR_MANGO/src/tensorflow_lite/third_party/flatbuffers/include/flatbuffers\flatbuffers.h **** 
2126:C:/Renesas/e2studio_2021_01_workspace_RZA2M_ANPR/ANPR_RZA2M_GR_MANGO/src/tensorflow_lite/third_party/flatbuffers/include/flatbuffers\flatbuffers.h **** /// @brief Get a pointer to the the file_identifier section of the buffer.
2127:C:/Renesas/e2studio_2021_01_workspace_RZA2M_ANPR/ANPR_RZA2M_GR_MANGO/src/tensorflow_lite/third_party/flatbuffers/include/flatbuffers\flatbuffers.h **** /// @return Returns a const char pointer to the start of the file_identifier
2128:C:/Renesas/e2studio_2021_01_workspace_RZA2M_ANPR/ANPR_RZA2M_GR_MANGO/src/tensorflow_lite/third_party/flatbuffers/include/flatbuffers\flatbuffers.h **** /// characters in the buffer.  The returned char * has length
2129:C:/Renesas/e2studio_2021_01_workspace_RZA2M_ANPR/ANPR_RZA2M_GR_MANGO/src/tensorflow_lite/third_party/flatbuffers/include/flatbuffers\flatbuffers.h **** /// 'flatbuffers::FlatBufferBuilder::kFileIdentifierLength'.
2130:C:/Renesas/e2studio_2021_01_workspace_RZA2M_ANPR/ANPR_RZA2M_GR_MANGO/src/tensorflow_lite/third_party/flatbuffers/include/flatbuffers\flatbuffers.h **** /// This function is UNDEFINED for FlatBuffers whose schema does not include
2131:C:/Renesas/e2studio_2021_01_workspace_RZA2M_ANPR/ANPR_RZA2M_GR_MANGO/src/tensorflow_lite/third_party/flatbuffers/include/flatbuffers\flatbuffers.h **** /// a file_identifier (likely points at padding or the start of a the root
2132:C:/Renesas/e2studio_2021_01_workspace_RZA2M_ANPR/ANPR_RZA2M_GR_MANGO/src/tensorflow_lite/third_party/flatbuffers/include/flatbuffers\flatbuffers.h **** /// vtable).
2133:C:/Renesas/e2studio_2021_01_workspace_RZA2M_ANPR/ANPR_RZA2M_GR_MANGO/src/tensorflow_lite/third_party/flatbuffers/include/flatbuffers\flatbuffers.h **** inline const char *GetBufferIdentifier(const void *buf,
2134:C:/Renesas/e2studio_2021_01_workspace_RZA2M_ANPR/ANPR_RZA2M_GR_MANGO/src/tensorflow_lite/third_party/flatbuffers/include/flatbuffers\flatbuffers.h ****                                        bool size_prefixed = false) {
2135:C:/Renesas/e2studio_2021_01_workspace_RZA2M_ANPR/ANPR_RZA2M_GR_MANGO/src/tensorflow_lite/third_party/flatbuffers/include/flatbuffers\flatbuffers.h ****   return reinterpret_cast<const char *>(buf) +
2136:C:/Renesas/e2studio_2021_01_workspace_RZA2M_ANPR/ANPR_RZA2M_GR_MANGO/src/tensorflow_lite/third_party/flatbuffers/include/flatbuffers\flatbuffers.h ****          ((size_prefixed) ? 2 * sizeof(uoffset_t) : sizeof(uoffset_t));
2137:C:/Renesas/e2studio_2021_01_workspace_RZA2M_ANPR/ANPR_RZA2M_GR_MANGO/src/tensorflow_lite/third_party/flatbuffers/include/flatbuffers\flatbuffers.h **** }
2138:C:/Renesas/e2studio_2021_01_workspace_RZA2M_ANPR/ANPR_RZA2M_GR_MANGO/src/tensorflow_lite/third_party/flatbuffers/include/flatbuffers\flatbuffers.h **** 
2139:C:/Renesas/e2studio_2021_01_workspace_RZA2M_ANPR/ANPR_RZA2M_GR_MANGO/src/tensorflow_lite/third_party/flatbuffers/include/flatbuffers\flatbuffers.h **** // Helper to see if the identifier in a buffer has the expected value.
2140:C:/Renesas/e2studio_2021_01_workspace_RZA2M_ANPR/ANPR_RZA2M_GR_MANGO/src/tensorflow_lite/third_party/flatbuffers/include/flatbuffers\flatbuffers.h **** inline bool BufferHasIdentifier(const void *buf, const char *identifier,
2141:C:/Renesas/e2studio_2021_01_workspace_RZA2M_ANPR/ANPR_RZA2M_GR_MANGO/src/tensorflow_lite/third_party/flatbuffers/include/flatbuffers\flatbuffers.h ****                                 bool size_prefixed = false) {
2142:C:/Renesas/e2studio_2021_01_workspace_RZA2M_ANPR/ANPR_RZA2M_GR_MANGO/src/tensorflow_lite/third_party/flatbuffers/include/flatbuffers\flatbuffers.h ****   return strncmp(GetBufferIdentifier(buf, size_prefixed), identifier,
2143:C:/Renesas/e2studio_2021_01_workspace_RZA2M_ANPR/ANPR_RZA2M_GR_MANGO/src/tensorflow_lite/third_party/flatbuffers/include/flatbuffers\flatbuffers.h ****                  FlatBufferBuilder::kFileIdentifierLength) == 0;
2144:C:/Renesas/e2studio_2021_01_workspace_RZA2M_ANPR/ANPR_RZA2M_GR_MANGO/src/tensorflow_lite/third_party/flatbuffers/include/flatbuffers\flatbuffers.h **** }
2145:C:/Renesas/e2studio_2021_01_workspace_RZA2M_ANPR/ANPR_RZA2M_GR_MANGO/src/tensorflow_lite/third_party/flatbuffers/include/flatbuffers\flatbuffers.h **** 
2146:C:/Renesas/e2studio_2021_01_workspace_RZA2M_ANPR/ANPR_RZA2M_GR_MANGO/src/tensorflow_lite/third_party/flatbuffers/include/flatbuffers\flatbuffers.h **** // Helper class to verify the integrity of a FlatBuffer
2147:C:/Renesas/e2studio_2021_01_workspace_RZA2M_ANPR/ANPR_RZA2M_GR_MANGO/src/tensorflow_lite/third_party/flatbuffers/include/flatbuffers\flatbuffers.h **** class Verifier FLATBUFFERS_FINAL_CLASS {
2148:C:/Renesas/e2studio_2021_01_workspace_RZA2M_ANPR/ANPR_RZA2M_GR_MANGO/src/tensorflow_lite/third_party/flatbuffers/include/flatbuffers\flatbuffers.h ****  public:
2149:C:/Renesas/e2studio_2021_01_workspace_RZA2M_ANPR/ANPR_RZA2M_GR_MANGO/src/tensorflow_lite/third_party/flatbuffers/include/flatbuffers\flatbuffers.h ****   Verifier(const uint8_t *buf, size_t buf_len, uoffset_t _max_depth = 64,
2150:C:/Renesas/e2studio_2021_01_workspace_RZA2M_ANPR/ANPR_RZA2M_GR_MANGO/src/tensorflow_lite/third_party/flatbuffers/include/flatbuffers\flatbuffers.h ****            uoffset_t _max_tables = 1000000, bool _check_alignment = true)
2151:C:/Renesas/e2studio_2021_01_workspace_RZA2M_ANPR/ANPR_RZA2M_GR_MANGO/src/tensorflow_lite/third_party/flatbuffers/include/flatbuffers\flatbuffers.h ****       : buf_(buf),
2152:C:/Renesas/e2studio_2021_01_workspace_RZA2M_ANPR/ANPR_RZA2M_GR_MANGO/src/tensorflow_lite/third_party/flatbuffers/include/flatbuffers\flatbuffers.h ****         size_(buf_len),
2153:C:/Renesas/e2studio_2021_01_workspace_RZA2M_ANPR/ANPR_RZA2M_GR_MANGO/src/tensorflow_lite/third_party/flatbuffers/include/flatbuffers\flatbuffers.h ****         depth_(0),
2154:C:/Renesas/e2studio_2021_01_workspace_RZA2M_ANPR/ANPR_RZA2M_GR_MANGO/src/tensorflow_lite/third_party/flatbuffers/include/flatbuffers\flatbuffers.h ****         max_depth_(_max_depth),
2155:C:/Renesas/e2studio_2021_01_workspace_RZA2M_ANPR/ANPR_RZA2M_GR_MANGO/src/tensorflow_lite/third_party/flatbuffers/include/flatbuffers\flatbuffers.h ****         num_tables_(0),
2156:C:/Renesas/e2studio_2021_01_workspace_RZA2M_ANPR/ANPR_RZA2M_GR_MANGO/src/tensorflow_lite/third_party/flatbuffers/include/flatbuffers\flatbuffers.h ****         max_tables_(_max_tables),
2157:C:/Renesas/e2studio_2021_01_workspace_RZA2M_ANPR/ANPR_RZA2M_GR_MANGO/src/tensorflow_lite/third_party/flatbuffers/include/flatbuffers\flatbuffers.h ****         upper_bound_(0),
2158:C:/Renesas/e2studio_2021_01_workspace_RZA2M_ANPR/ANPR_RZA2M_GR_MANGO/src/tensorflow_lite/third_party/flatbuffers/include/flatbuffers\flatbuffers.h ****         check_alignment_(_check_alignment) {
2159:C:/Renesas/e2studio_2021_01_workspace_RZA2M_ANPR/ANPR_RZA2M_GR_MANGO/src/tensorflow_lite/third_party/flatbuffers/include/flatbuffers\flatbuffers.h ****     FLATBUFFERS_ASSERT(size_ < FLATBUFFERS_MAX_BUFFER_SIZE);
2160:C:/Renesas/e2studio_2021_01_workspace_RZA2M_ANPR/ANPR_RZA2M_GR_MANGO/src/tensorflow_lite/third_party/flatbuffers/include/flatbuffers\flatbuffers.h ****   }
2161:C:/Renesas/e2studio_2021_01_workspace_RZA2M_ANPR/ANPR_RZA2M_GR_MANGO/src/tensorflow_lite/third_party/flatbuffers/include/flatbuffers\flatbuffers.h **** 
2162:C:/Renesas/e2studio_2021_01_workspace_RZA2M_ANPR/ANPR_RZA2M_GR_MANGO/src/tensorflow_lite/third_party/flatbuffers/include/flatbuffers\flatbuffers.h ****   // Central location where any verification failures register.
2163:C:/Renesas/e2studio_2021_01_workspace_RZA2M_ANPR/ANPR_RZA2M_GR_MANGO/src/tensorflow_lite/third_party/flatbuffers/include/flatbuffers\flatbuffers.h ****   bool Check(bool ok) const {
2164:C:/Renesas/e2studio_2021_01_workspace_RZA2M_ANPR/ANPR_RZA2M_GR_MANGO/src/tensorflow_lite/third_party/flatbuffers/include/flatbuffers\flatbuffers.h ****     // clang-format off
2165:C:/Renesas/e2studio_2021_01_workspace_RZA2M_ANPR/ANPR_RZA2M_GR_MANGO/src/tensorflow_lite/third_party/flatbuffers/include/flatbuffers\flatbuffers.h ****     #ifdef FLATBUFFERS_DEBUG_VERIFICATION_FAILURE
2166:C:/Renesas/e2studio_2021_01_workspace_RZA2M_ANPR/ANPR_RZA2M_GR_MANGO/src/tensorflow_lite/third_party/flatbuffers/include/flatbuffers\flatbuffers.h ****       FLATBUFFERS_ASSERT(ok);
2167:C:/Renesas/e2studio_2021_01_workspace_RZA2M_ANPR/ANPR_RZA2M_GR_MANGO/src/tensorflow_lite/third_party/flatbuffers/include/flatbuffers\flatbuffers.h ****     #endif
2168:C:/Renesas/e2studio_2021_01_workspace_RZA2M_ANPR/ANPR_RZA2M_GR_MANGO/src/tensorflow_lite/third_party/flatbuffers/include/flatbuffers\flatbuffers.h ****     #ifdef FLATBUFFERS_TRACK_VERIFIER_BUFFER_SIZE
2169:C:/Renesas/e2studio_2021_01_workspace_RZA2M_ANPR/ANPR_RZA2M_GR_MANGO/src/tensorflow_lite/third_party/flatbuffers/include/flatbuffers\flatbuffers.h ****       if (!ok)
2170:C:/Renesas/e2studio_2021_01_workspace_RZA2M_ANPR/ANPR_RZA2M_GR_MANGO/src/tensorflow_lite/third_party/flatbuffers/include/flatbuffers\flatbuffers.h ****         upper_bound_ = 0;
2171:C:/Renesas/e2studio_2021_01_workspace_RZA2M_ANPR/ANPR_RZA2M_GR_MANGO/src/tensorflow_lite/third_party/flatbuffers/include/flatbuffers\flatbuffers.h ****     #endif
2172:C:/Renesas/e2studio_2021_01_workspace_RZA2M_ANPR/ANPR_RZA2M_GR_MANGO/src/tensorflow_lite/third_party/flatbuffers/include/flatbuffers\flatbuffers.h ****     // clang-format on
2173:C:/Renesas/e2studio_2021_01_workspace_RZA2M_ANPR/ANPR_RZA2M_GR_MANGO/src/tensorflow_lite/third_party/flatbuffers/include/flatbuffers\flatbuffers.h ****     return ok;
2174:C:/Renesas/e2studio_2021_01_workspace_RZA2M_ANPR/ANPR_RZA2M_GR_MANGO/src/tensorflow_lite/third_party/flatbuffers/include/flatbuffers\flatbuffers.h ****   }
2175:C:/Renesas/e2studio_2021_01_workspace_RZA2M_ANPR/ANPR_RZA2M_GR_MANGO/src/tensorflow_lite/third_party/flatbuffers/include/flatbuffers\flatbuffers.h **** 
2176:C:/Renesas/e2studio_2021_01_workspace_RZA2M_ANPR/ANPR_RZA2M_GR_MANGO/src/tensorflow_lite/third_party/flatbuffers/include/flatbuffers\flatbuffers.h ****   // Verify any range within the buffer.
2177:C:/Renesas/e2studio_2021_01_workspace_RZA2M_ANPR/ANPR_RZA2M_GR_MANGO/src/tensorflow_lite/third_party/flatbuffers/include/flatbuffers\flatbuffers.h ****   bool Verify(size_t elem, size_t elem_len) const {
2178:C:/Renesas/e2studio_2021_01_workspace_RZA2M_ANPR/ANPR_RZA2M_GR_MANGO/src/tensorflow_lite/third_party/flatbuffers/include/flatbuffers\flatbuffers.h ****     // clang-format off
2179:C:/Renesas/e2studio_2021_01_workspace_RZA2M_ANPR/ANPR_RZA2M_GR_MANGO/src/tensorflow_lite/third_party/flatbuffers/include/flatbuffers\flatbuffers.h ****     #ifdef FLATBUFFERS_TRACK_VERIFIER_BUFFER_SIZE
2180:C:/Renesas/e2studio_2021_01_workspace_RZA2M_ANPR/ANPR_RZA2M_GR_MANGO/src/tensorflow_lite/third_party/flatbuffers/include/flatbuffers\flatbuffers.h ****       auto upper_bound = elem + elem_len;
2181:C:/Renesas/e2studio_2021_01_workspace_RZA2M_ANPR/ANPR_RZA2M_GR_MANGO/src/tensorflow_lite/third_party/flatbuffers/include/flatbuffers\flatbuffers.h ****       if (upper_bound_ < upper_bound)
2182:C:/Renesas/e2studio_2021_01_workspace_RZA2M_ANPR/ANPR_RZA2M_GR_MANGO/src/tensorflow_lite/third_party/flatbuffers/include/flatbuffers\flatbuffers.h ****         upper_bound_ =  upper_bound;
2183:C:/Renesas/e2studio_2021_01_workspace_RZA2M_ANPR/ANPR_RZA2M_GR_MANGO/src/tensorflow_lite/third_party/flatbuffers/include/flatbuffers\flatbuffers.h ****     #endif
2184:C:/Renesas/e2studio_2021_01_workspace_RZA2M_ANPR/ANPR_RZA2M_GR_MANGO/src/tensorflow_lite/third_party/flatbuffers/include/flatbuffers\flatbuffers.h ****     // clang-format on
2185:C:/Renesas/e2studio_2021_01_workspace_RZA2M_ANPR/ANPR_RZA2M_GR_MANGO/src/tensorflow_lite/third_party/flatbuffers/include/flatbuffers\flatbuffers.h ****     return Check(elem_len < size_ && elem <= size_ - elem_len);
2186:C:/Renesas/e2studio_2021_01_workspace_RZA2M_ANPR/ANPR_RZA2M_GR_MANGO/src/tensorflow_lite/third_party/flatbuffers/include/flatbuffers\flatbuffers.h ****   }
2187:C:/Renesas/e2studio_2021_01_workspace_RZA2M_ANPR/ANPR_RZA2M_GR_MANGO/src/tensorflow_lite/third_party/flatbuffers/include/flatbuffers\flatbuffers.h **** 
2188:C:/Renesas/e2studio_2021_01_workspace_RZA2M_ANPR/ANPR_RZA2M_GR_MANGO/src/tensorflow_lite/third_party/flatbuffers/include/flatbuffers\flatbuffers.h ****   template<typename T> bool VerifyAlignment(size_t elem) const {
2189:C:/Renesas/e2studio_2021_01_workspace_RZA2M_ANPR/ANPR_RZA2M_GR_MANGO/src/tensorflow_lite/third_party/flatbuffers/include/flatbuffers\flatbuffers.h ****     return Check((elem & (sizeof(T) - 1)) == 0 || !check_alignment_);
2190:C:/Renesas/e2studio_2021_01_workspace_RZA2M_ANPR/ANPR_RZA2M_GR_MANGO/src/tensorflow_lite/third_party/flatbuffers/include/flatbuffers\flatbuffers.h ****   }
2191:C:/Renesas/e2studio_2021_01_workspace_RZA2M_ANPR/ANPR_RZA2M_GR_MANGO/src/tensorflow_lite/third_party/flatbuffers/include/flatbuffers\flatbuffers.h **** 
2192:C:/Renesas/e2studio_2021_01_workspace_RZA2M_ANPR/ANPR_RZA2M_GR_MANGO/src/tensorflow_lite/third_party/flatbuffers/include/flatbuffers\flatbuffers.h ****   // Verify a range indicated by sizeof(T).
2193:C:/Renesas/e2studio_2021_01_workspace_RZA2M_ANPR/ANPR_RZA2M_GR_MANGO/src/tensorflow_lite/third_party/flatbuffers/include/flatbuffers\flatbuffers.h ****   template<typename T> bool Verify(size_t elem) const {
2194:C:/Renesas/e2studio_2021_01_workspace_RZA2M_ANPR/ANPR_RZA2M_GR_MANGO/src/tensorflow_lite/third_party/flatbuffers/include/flatbuffers\flatbuffers.h ****     return VerifyAlignment<T>(elem) && Verify(elem, sizeof(T));
2195:C:/Renesas/e2studio_2021_01_workspace_RZA2M_ANPR/ANPR_RZA2M_GR_MANGO/src/tensorflow_lite/third_party/flatbuffers/include/flatbuffers\flatbuffers.h ****   }
2196:C:/Renesas/e2studio_2021_01_workspace_RZA2M_ANPR/ANPR_RZA2M_GR_MANGO/src/tensorflow_lite/third_party/flatbuffers/include/flatbuffers\flatbuffers.h **** 
2197:C:/Renesas/e2studio_2021_01_workspace_RZA2M_ANPR/ANPR_RZA2M_GR_MANGO/src/tensorflow_lite/third_party/flatbuffers/include/flatbuffers\flatbuffers.h ****   bool VerifyFromPointer(const uint8_t *p, size_t len) {
2198:C:/Renesas/e2studio_2021_01_workspace_RZA2M_ANPR/ANPR_RZA2M_GR_MANGO/src/tensorflow_lite/third_party/flatbuffers/include/flatbuffers\flatbuffers.h ****     auto o = static_cast<size_t>(p - buf_);
2199:C:/Renesas/e2studio_2021_01_workspace_RZA2M_ANPR/ANPR_RZA2M_GR_MANGO/src/tensorflow_lite/third_party/flatbuffers/include/flatbuffers\flatbuffers.h ****     return Verify(o, len);
2200:C:/Renesas/e2studio_2021_01_workspace_RZA2M_ANPR/ANPR_RZA2M_GR_MANGO/src/tensorflow_lite/third_party/flatbuffers/include/flatbuffers\flatbuffers.h ****   }
2201:C:/Renesas/e2studio_2021_01_workspace_RZA2M_ANPR/ANPR_RZA2M_GR_MANGO/src/tensorflow_lite/third_party/flatbuffers/include/flatbuffers\flatbuffers.h **** 
2202:C:/Renesas/e2studio_2021_01_workspace_RZA2M_ANPR/ANPR_RZA2M_GR_MANGO/src/tensorflow_lite/third_party/flatbuffers/include/flatbuffers\flatbuffers.h ****   // Verify relative to a known-good base pointer.
2203:C:/Renesas/e2studio_2021_01_workspace_RZA2M_ANPR/ANPR_RZA2M_GR_MANGO/src/tensorflow_lite/third_party/flatbuffers/include/flatbuffers\flatbuffers.h ****   bool Verify(const uint8_t *base, voffset_t elem_off, size_t elem_len) const {
2204:C:/Renesas/e2studio_2021_01_workspace_RZA2M_ANPR/ANPR_RZA2M_GR_MANGO/src/tensorflow_lite/third_party/flatbuffers/include/flatbuffers\flatbuffers.h ****     return Verify(static_cast<size_t>(base - buf_) + elem_off, elem_len);
2205:C:/Renesas/e2studio_2021_01_workspace_RZA2M_ANPR/ANPR_RZA2M_GR_MANGO/src/tensorflow_lite/third_party/flatbuffers/include/flatbuffers\flatbuffers.h ****   }
2206:C:/Renesas/e2studio_2021_01_workspace_RZA2M_ANPR/ANPR_RZA2M_GR_MANGO/src/tensorflow_lite/third_party/flatbuffers/include/flatbuffers\flatbuffers.h **** 
2207:C:/Renesas/e2studio_2021_01_workspace_RZA2M_ANPR/ANPR_RZA2M_GR_MANGO/src/tensorflow_lite/third_party/flatbuffers/include/flatbuffers\flatbuffers.h ****   template<typename T>
2208:C:/Renesas/e2studio_2021_01_workspace_RZA2M_ANPR/ANPR_RZA2M_GR_MANGO/src/tensorflow_lite/third_party/flatbuffers/include/flatbuffers\flatbuffers.h ****   bool Verify(const uint8_t *base, voffset_t elem_off) const {
2209:C:/Renesas/e2studio_2021_01_workspace_RZA2M_ANPR/ANPR_RZA2M_GR_MANGO/src/tensorflow_lite/third_party/flatbuffers/include/flatbuffers\flatbuffers.h ****     return Verify(static_cast<size_t>(base - buf_) + elem_off, sizeof(T));
2210:C:/Renesas/e2studio_2021_01_workspace_RZA2M_ANPR/ANPR_RZA2M_GR_MANGO/src/tensorflow_lite/third_party/flatbuffers/include/flatbuffers\flatbuffers.h ****   }
2211:C:/Renesas/e2studio_2021_01_workspace_RZA2M_ANPR/ANPR_RZA2M_GR_MANGO/src/tensorflow_lite/third_party/flatbuffers/include/flatbuffers\flatbuffers.h **** 
2212:C:/Renesas/e2studio_2021_01_workspace_RZA2M_ANPR/ANPR_RZA2M_GR_MANGO/src/tensorflow_lite/third_party/flatbuffers/include/flatbuffers\flatbuffers.h ****   // Verify a pointer (may be NULL) of a table type.
2213:C:/Renesas/e2studio_2021_01_workspace_RZA2M_ANPR/ANPR_RZA2M_GR_MANGO/src/tensorflow_lite/third_party/flatbuffers/include/flatbuffers\flatbuffers.h ****   template<typename T> bool VerifyTable(const T *table) {
2214:C:/Renesas/e2studio_2021_01_workspace_RZA2M_ANPR/ANPR_RZA2M_GR_MANGO/src/tensorflow_lite/third_party/flatbuffers/include/flatbuffers\flatbuffers.h ****     return !table || table->Verify(*this);
2215:C:/Renesas/e2studio_2021_01_workspace_RZA2M_ANPR/ANPR_RZA2M_GR_MANGO/src/tensorflow_lite/third_party/flatbuffers/include/flatbuffers\flatbuffers.h ****   }
2216:C:/Renesas/e2studio_2021_01_workspace_RZA2M_ANPR/ANPR_RZA2M_GR_MANGO/src/tensorflow_lite/third_party/flatbuffers/include/flatbuffers\flatbuffers.h **** 
2217:C:/Renesas/e2studio_2021_01_workspace_RZA2M_ANPR/ANPR_RZA2M_GR_MANGO/src/tensorflow_lite/third_party/flatbuffers/include/flatbuffers\flatbuffers.h ****   // Verify a pointer (may be NULL) of any vector type.
2218:C:/Renesas/e2studio_2021_01_workspace_RZA2M_ANPR/ANPR_RZA2M_GR_MANGO/src/tensorflow_lite/third_party/flatbuffers/include/flatbuffers\flatbuffers.h ****   template<typename T> bool VerifyVector(const Vector<T> *vec) const {
2219:C:/Renesas/e2studio_2021_01_workspace_RZA2M_ANPR/ANPR_RZA2M_GR_MANGO/src/tensorflow_lite/third_party/flatbuffers/include/flatbuffers\flatbuffers.h ****     return !vec || VerifyVectorOrString(reinterpret_cast<const uint8_t *>(vec),
2220:C:/Renesas/e2studio_2021_01_workspace_RZA2M_ANPR/ANPR_RZA2M_GR_MANGO/src/tensorflow_lite/third_party/flatbuffers/include/flatbuffers\flatbuffers.h ****                                         sizeof(T));
2221:C:/Renesas/e2studio_2021_01_workspace_RZA2M_ANPR/ANPR_RZA2M_GR_MANGO/src/tensorflow_lite/third_party/flatbuffers/include/flatbuffers\flatbuffers.h ****   }
2222:C:/Renesas/e2studio_2021_01_workspace_RZA2M_ANPR/ANPR_RZA2M_GR_MANGO/src/tensorflow_lite/third_party/flatbuffers/include/flatbuffers\flatbuffers.h **** 
2223:C:/Renesas/e2studio_2021_01_workspace_RZA2M_ANPR/ANPR_RZA2M_GR_MANGO/src/tensorflow_lite/third_party/flatbuffers/include/flatbuffers\flatbuffers.h ****   // Verify a pointer (may be NULL) of a vector to struct.
2224:C:/Renesas/e2studio_2021_01_workspace_RZA2M_ANPR/ANPR_RZA2M_GR_MANGO/src/tensorflow_lite/third_party/flatbuffers/include/flatbuffers\flatbuffers.h ****   template<typename T> bool VerifyVector(const Vector<const T *> *vec) const {
2225:C:/Renesas/e2studio_2021_01_workspace_RZA2M_ANPR/ANPR_RZA2M_GR_MANGO/src/tensorflow_lite/third_party/flatbuffers/include/flatbuffers\flatbuffers.h ****     return VerifyVector(reinterpret_cast<const Vector<T> *>(vec));
2226:C:/Renesas/e2studio_2021_01_workspace_RZA2M_ANPR/ANPR_RZA2M_GR_MANGO/src/tensorflow_lite/third_party/flatbuffers/include/flatbuffers\flatbuffers.h ****   }
2227:C:/Renesas/e2studio_2021_01_workspace_RZA2M_ANPR/ANPR_RZA2M_GR_MANGO/src/tensorflow_lite/third_party/flatbuffers/include/flatbuffers\flatbuffers.h **** 
2228:C:/Renesas/e2studio_2021_01_workspace_RZA2M_ANPR/ANPR_RZA2M_GR_MANGO/src/tensorflow_lite/third_party/flatbuffers/include/flatbuffers\flatbuffers.h ****   // Verify a pointer (may be NULL) to string.
2229:C:/Renesas/e2studio_2021_01_workspace_RZA2M_ANPR/ANPR_RZA2M_GR_MANGO/src/tensorflow_lite/third_party/flatbuffers/include/flatbuffers\flatbuffers.h ****   bool VerifyString(const String *str) const {
2230:C:/Renesas/e2studio_2021_01_workspace_RZA2M_ANPR/ANPR_RZA2M_GR_MANGO/src/tensorflow_lite/third_party/flatbuffers/include/flatbuffers\flatbuffers.h ****     size_t end;
2231:C:/Renesas/e2studio_2021_01_workspace_RZA2M_ANPR/ANPR_RZA2M_GR_MANGO/src/tensorflow_lite/third_party/flatbuffers/include/flatbuffers\flatbuffers.h ****     return !str || (VerifyVectorOrString(reinterpret_cast<const uint8_t *>(str),
2232:C:/Renesas/e2studio_2021_01_workspace_RZA2M_ANPR/ANPR_RZA2M_GR_MANGO/src/tensorflow_lite/third_party/flatbuffers/include/flatbuffers\flatbuffers.h ****                                          1, &end) &&
2233:C:/Renesas/e2studio_2021_01_workspace_RZA2M_ANPR/ANPR_RZA2M_GR_MANGO/src/tensorflow_lite/third_party/flatbuffers/include/flatbuffers\flatbuffers.h ****                     Verify(end, 1) &&           // Must have terminator
2234:C:/Renesas/e2studio_2021_01_workspace_RZA2M_ANPR/ANPR_RZA2M_GR_MANGO/src/tensorflow_lite/third_party/flatbuffers/include/flatbuffers\flatbuffers.h ****                     Check(buf_[end] == '\0'));  // Terminating byte must be 0.
2235:C:/Renesas/e2studio_2021_01_workspace_RZA2M_ANPR/ANPR_RZA2M_GR_MANGO/src/tensorflow_lite/third_party/flatbuffers/include/flatbuffers\flatbuffers.h ****   }
2236:C:/Renesas/e2studio_2021_01_workspace_RZA2M_ANPR/ANPR_RZA2M_GR_MANGO/src/tensorflow_lite/third_party/flatbuffers/include/flatbuffers\flatbuffers.h **** 
2237:C:/Renesas/e2studio_2021_01_workspace_RZA2M_ANPR/ANPR_RZA2M_GR_MANGO/src/tensorflow_lite/third_party/flatbuffers/include/flatbuffers\flatbuffers.h ****   // Common code between vectors and strings.
2238:C:/Renesas/e2studio_2021_01_workspace_RZA2M_ANPR/ANPR_RZA2M_GR_MANGO/src/tensorflow_lite/third_party/flatbuffers/include/flatbuffers\flatbuffers.h ****   bool VerifyVectorOrString(const uint8_t *vec, size_t elem_size,
2239:C:/Renesas/e2studio_2021_01_workspace_RZA2M_ANPR/ANPR_RZA2M_GR_MANGO/src/tensorflow_lite/third_party/flatbuffers/include/flatbuffers\flatbuffers.h ****                             size_t *end = nullptr) const {
2240:C:/Renesas/e2studio_2021_01_workspace_RZA2M_ANPR/ANPR_RZA2M_GR_MANGO/src/tensorflow_lite/third_party/flatbuffers/include/flatbuffers\flatbuffers.h ****     auto veco = static_cast<size_t>(vec - buf_);
2241:C:/Renesas/e2studio_2021_01_workspace_RZA2M_ANPR/ANPR_RZA2M_GR_MANGO/src/tensorflow_lite/third_party/flatbuffers/include/flatbuffers\flatbuffers.h ****     // Check we can read the size field.
2242:C:/Renesas/e2studio_2021_01_workspace_RZA2M_ANPR/ANPR_RZA2M_GR_MANGO/src/tensorflow_lite/third_party/flatbuffers/include/flatbuffers\flatbuffers.h ****     if (!Verify<uoffset_t>(veco)) return false;
2243:C:/Renesas/e2studio_2021_01_workspace_RZA2M_ANPR/ANPR_RZA2M_GR_MANGO/src/tensorflow_lite/third_party/flatbuffers/include/flatbuffers\flatbuffers.h ****     // Check the whole array. If this is a string, the byte past the array
2244:C:/Renesas/e2studio_2021_01_workspace_RZA2M_ANPR/ANPR_RZA2M_GR_MANGO/src/tensorflow_lite/third_party/flatbuffers/include/flatbuffers\flatbuffers.h ****     // must be 0.
2245:C:/Renesas/e2studio_2021_01_workspace_RZA2M_ANPR/ANPR_RZA2M_GR_MANGO/src/tensorflow_lite/third_party/flatbuffers/include/flatbuffers\flatbuffers.h ****     auto size = ReadScalar<uoffset_t>(vec);
2246:C:/Renesas/e2studio_2021_01_workspace_RZA2M_ANPR/ANPR_RZA2M_GR_MANGO/src/tensorflow_lite/third_party/flatbuffers/include/flatbuffers\flatbuffers.h ****     auto max_elems = FLATBUFFERS_MAX_BUFFER_SIZE / elem_size;
2247:C:/Renesas/e2studio_2021_01_workspace_RZA2M_ANPR/ANPR_RZA2M_GR_MANGO/src/tensorflow_lite/third_party/flatbuffers/include/flatbuffers\flatbuffers.h ****     if (!Check(size < max_elems))
2248:C:/Renesas/e2studio_2021_01_workspace_RZA2M_ANPR/ANPR_RZA2M_GR_MANGO/src/tensorflow_lite/third_party/flatbuffers/include/flatbuffers\flatbuffers.h ****       return false;  // Protect against byte_size overflowing.
2249:C:/Renesas/e2studio_2021_01_workspace_RZA2M_ANPR/ANPR_RZA2M_GR_MANGO/src/tensorflow_lite/third_party/flatbuffers/include/flatbuffers\flatbuffers.h ****     auto byte_size = sizeof(size) + elem_size * size;
2250:C:/Renesas/e2studio_2021_01_workspace_RZA2M_ANPR/ANPR_RZA2M_GR_MANGO/src/tensorflow_lite/third_party/flatbuffers/include/flatbuffers\flatbuffers.h ****     if (end) *end = veco + byte_size;
2251:C:/Renesas/e2studio_2021_01_workspace_RZA2M_ANPR/ANPR_RZA2M_GR_MANGO/src/tensorflow_lite/third_party/flatbuffers/include/flatbuffers\flatbuffers.h ****     return Verify(veco, byte_size);
2252:C:/Renesas/e2studio_2021_01_workspace_RZA2M_ANPR/ANPR_RZA2M_GR_MANGO/src/tensorflow_lite/third_party/flatbuffers/include/flatbuffers\flatbuffers.h ****   }
2253:C:/Renesas/e2studio_2021_01_workspace_RZA2M_ANPR/ANPR_RZA2M_GR_MANGO/src/tensorflow_lite/third_party/flatbuffers/include/flatbuffers\flatbuffers.h **** 
2254:C:/Renesas/e2studio_2021_01_workspace_RZA2M_ANPR/ANPR_RZA2M_GR_MANGO/src/tensorflow_lite/third_party/flatbuffers/include/flatbuffers\flatbuffers.h ****   // Special case for string contents, after the above has been called.
2255:C:/Renesas/e2studio_2021_01_workspace_RZA2M_ANPR/ANPR_RZA2M_GR_MANGO/src/tensorflow_lite/third_party/flatbuffers/include/flatbuffers\flatbuffers.h ****   bool VerifyVectorOfStrings(const Vector<Offset<String>> *vec) const {
2256:C:/Renesas/e2studio_2021_01_workspace_RZA2M_ANPR/ANPR_RZA2M_GR_MANGO/src/tensorflow_lite/third_party/flatbuffers/include/flatbuffers\flatbuffers.h ****     if (vec) {
2257:C:/Renesas/e2studio_2021_01_workspace_RZA2M_ANPR/ANPR_RZA2M_GR_MANGO/src/tensorflow_lite/third_party/flatbuffers/include/flatbuffers\flatbuffers.h ****       for (uoffset_t i = 0; i < vec->size(); i++) {
2258:C:/Renesas/e2studio_2021_01_workspace_RZA2M_ANPR/ANPR_RZA2M_GR_MANGO/src/tensorflow_lite/third_party/flatbuffers/include/flatbuffers\flatbuffers.h ****         if (!VerifyString(vec->Get(i))) return false;
2259:C:/Renesas/e2studio_2021_01_workspace_RZA2M_ANPR/ANPR_RZA2M_GR_MANGO/src/tensorflow_lite/third_party/flatbuffers/include/flatbuffers\flatbuffers.h ****       }
2260:C:/Renesas/e2studio_2021_01_workspace_RZA2M_ANPR/ANPR_RZA2M_GR_MANGO/src/tensorflow_lite/third_party/flatbuffers/include/flatbuffers\flatbuffers.h ****     }
2261:C:/Renesas/e2studio_2021_01_workspace_RZA2M_ANPR/ANPR_RZA2M_GR_MANGO/src/tensorflow_lite/third_party/flatbuffers/include/flatbuffers\flatbuffers.h ****     return true;
2262:C:/Renesas/e2studio_2021_01_workspace_RZA2M_ANPR/ANPR_RZA2M_GR_MANGO/src/tensorflow_lite/third_party/flatbuffers/include/flatbuffers\flatbuffers.h ****   }
2263:C:/Renesas/e2studio_2021_01_workspace_RZA2M_ANPR/ANPR_RZA2M_GR_MANGO/src/tensorflow_lite/third_party/flatbuffers/include/flatbuffers\flatbuffers.h **** 
2264:C:/Renesas/e2studio_2021_01_workspace_RZA2M_ANPR/ANPR_RZA2M_GR_MANGO/src/tensorflow_lite/third_party/flatbuffers/include/flatbuffers\flatbuffers.h ****   // Special case for table contents, after the above has been called.
2265:C:/Renesas/e2studio_2021_01_workspace_RZA2M_ANPR/ANPR_RZA2M_GR_MANGO/src/tensorflow_lite/third_party/flatbuffers/include/flatbuffers\flatbuffers.h ****   template<typename T> bool VerifyVectorOfTables(const Vector<Offset<T>> *vec) {
2266:C:/Renesas/e2studio_2021_01_workspace_RZA2M_ANPR/ANPR_RZA2M_GR_MANGO/src/tensorflow_lite/third_party/flatbuffers/include/flatbuffers\flatbuffers.h ****     if (vec) {
2267:C:/Renesas/e2studio_2021_01_workspace_RZA2M_ANPR/ANPR_RZA2M_GR_MANGO/src/tensorflow_lite/third_party/flatbuffers/include/flatbuffers\flatbuffers.h ****       for (uoffset_t i = 0; i < vec->size(); i++) {
2268:C:/Renesas/e2studio_2021_01_workspace_RZA2M_ANPR/ANPR_RZA2M_GR_MANGO/src/tensorflow_lite/third_party/flatbuffers/include/flatbuffers\flatbuffers.h ****         if (!vec->Get(i)->Verify(*this)) return false;
2269:C:/Renesas/e2studio_2021_01_workspace_RZA2M_ANPR/ANPR_RZA2M_GR_MANGO/src/tensorflow_lite/third_party/flatbuffers/include/flatbuffers\flatbuffers.h ****       }
2270:C:/Renesas/e2studio_2021_01_workspace_RZA2M_ANPR/ANPR_RZA2M_GR_MANGO/src/tensorflow_lite/third_party/flatbuffers/include/flatbuffers\flatbuffers.h ****     }
2271:C:/Renesas/e2studio_2021_01_workspace_RZA2M_ANPR/ANPR_RZA2M_GR_MANGO/src/tensorflow_lite/third_party/flatbuffers/include/flatbuffers\flatbuffers.h ****     return true;
2272:C:/Renesas/e2studio_2021_01_workspace_RZA2M_ANPR/ANPR_RZA2M_GR_MANGO/src/tensorflow_lite/third_party/flatbuffers/include/flatbuffers\flatbuffers.h ****   }
2273:C:/Renesas/e2studio_2021_01_workspace_RZA2M_ANPR/ANPR_RZA2M_GR_MANGO/src/tensorflow_lite/third_party/flatbuffers/include/flatbuffers\flatbuffers.h **** 
2274:C:/Renesas/e2studio_2021_01_workspace_RZA2M_ANPR/ANPR_RZA2M_GR_MANGO/src/tensorflow_lite/third_party/flatbuffers/include/flatbuffers\flatbuffers.h ****   __supress_ubsan__("unsigned-integer-overflow") bool VerifyTableStart(
2275:C:/Renesas/e2studio_2021_01_workspace_RZA2M_ANPR/ANPR_RZA2M_GR_MANGO/src/tensorflow_lite/third_party/flatbuffers/include/flatbuffers\flatbuffers.h ****       const uint8_t *table) {
2276:C:/Renesas/e2studio_2021_01_workspace_RZA2M_ANPR/ANPR_RZA2M_GR_MANGO/src/tensorflow_lite/third_party/flatbuffers/include/flatbuffers\flatbuffers.h ****     // Check the vtable offset.
2277:C:/Renesas/e2studio_2021_01_workspace_RZA2M_ANPR/ANPR_RZA2M_GR_MANGO/src/tensorflow_lite/third_party/flatbuffers/include/flatbuffers\flatbuffers.h ****     auto tableo = static_cast<size_t>(table - buf_);
2278:C:/Renesas/e2studio_2021_01_workspace_RZA2M_ANPR/ANPR_RZA2M_GR_MANGO/src/tensorflow_lite/third_party/flatbuffers/include/flatbuffers\flatbuffers.h ****     if (!Verify<soffset_t>(tableo)) return false;
2279:C:/Renesas/e2studio_2021_01_workspace_RZA2M_ANPR/ANPR_RZA2M_GR_MANGO/src/tensorflow_lite/third_party/flatbuffers/include/flatbuffers\flatbuffers.h ****     // This offset may be signed, but doing the subtraction unsigned always
2280:C:/Renesas/e2studio_2021_01_workspace_RZA2M_ANPR/ANPR_RZA2M_GR_MANGO/src/tensorflow_lite/third_party/flatbuffers/include/flatbuffers\flatbuffers.h ****     // gives the result we want.
2281:C:/Renesas/e2studio_2021_01_workspace_RZA2M_ANPR/ANPR_RZA2M_GR_MANGO/src/tensorflow_lite/third_party/flatbuffers/include/flatbuffers\flatbuffers.h ****     auto vtableo = tableo - static_cast<size_t>(ReadScalar<soffset_t>(table));
2282:C:/Renesas/e2studio_2021_01_workspace_RZA2M_ANPR/ANPR_RZA2M_GR_MANGO/src/tensorflow_lite/third_party/flatbuffers/include/flatbuffers\flatbuffers.h ****     // Check the vtable size field, then check vtable fits in its entirety.
2283:C:/Renesas/e2studio_2021_01_workspace_RZA2M_ANPR/ANPR_RZA2M_GR_MANGO/src/tensorflow_lite/third_party/flatbuffers/include/flatbuffers\flatbuffers.h ****     return VerifyComplexity() && Verify<voffset_t>(vtableo) &&
2284:C:/Renesas/e2studio_2021_01_workspace_RZA2M_ANPR/ANPR_RZA2M_GR_MANGO/src/tensorflow_lite/third_party/flatbuffers/include/flatbuffers\flatbuffers.h ****            VerifyAlignment<voffset_t>(ReadScalar<voffset_t>(buf_ + vtableo)) &&
2285:C:/Renesas/e2studio_2021_01_workspace_RZA2M_ANPR/ANPR_RZA2M_GR_MANGO/src/tensorflow_lite/third_party/flatbuffers/include/flatbuffers\flatbuffers.h ****            Verify(vtableo, ReadScalar<voffset_t>(buf_ + vtableo));
2286:C:/Renesas/e2studio_2021_01_workspace_RZA2M_ANPR/ANPR_RZA2M_GR_MANGO/src/tensorflow_lite/third_party/flatbuffers/include/flatbuffers\flatbuffers.h ****   }
2287:C:/Renesas/e2studio_2021_01_workspace_RZA2M_ANPR/ANPR_RZA2M_GR_MANGO/src/tensorflow_lite/third_party/flatbuffers/include/flatbuffers\flatbuffers.h **** 
2288:C:/Renesas/e2studio_2021_01_workspace_RZA2M_ANPR/ANPR_RZA2M_GR_MANGO/src/tensorflow_lite/third_party/flatbuffers/include/flatbuffers\flatbuffers.h ****   template<typename T>
2289:C:/Renesas/e2studio_2021_01_workspace_RZA2M_ANPR/ANPR_RZA2M_GR_MANGO/src/tensorflow_lite/third_party/flatbuffers/include/flatbuffers\flatbuffers.h ****   bool VerifyBufferFromStart(const char *identifier, size_t start) {
2290:C:/Renesas/e2studio_2021_01_workspace_RZA2M_ANPR/ANPR_RZA2M_GR_MANGO/src/tensorflow_lite/third_party/flatbuffers/include/flatbuffers\flatbuffers.h ****     if (identifier && !Check((size_ >= 2 * sizeof(flatbuffers::uoffset_t) &&
2291:C:/Renesas/e2studio_2021_01_workspace_RZA2M_ANPR/ANPR_RZA2M_GR_MANGO/src/tensorflow_lite/third_party/flatbuffers/include/flatbuffers\flatbuffers.h ****                               BufferHasIdentifier(buf_ + start, identifier)))) {
2292:C:/Renesas/e2studio_2021_01_workspace_RZA2M_ANPR/ANPR_RZA2M_GR_MANGO/src/tensorflow_lite/third_party/flatbuffers/include/flatbuffers\flatbuffers.h ****       return false;
2293:C:/Renesas/e2studio_2021_01_workspace_RZA2M_ANPR/ANPR_RZA2M_GR_MANGO/src/tensorflow_lite/third_party/flatbuffers/include/flatbuffers\flatbuffers.h ****     }
2294:C:/Renesas/e2studio_2021_01_workspace_RZA2M_ANPR/ANPR_RZA2M_GR_MANGO/src/tensorflow_lite/third_party/flatbuffers/include/flatbuffers\flatbuffers.h **** 
2295:C:/Renesas/e2studio_2021_01_workspace_RZA2M_ANPR/ANPR_RZA2M_GR_MANGO/src/tensorflow_lite/third_party/flatbuffers/include/flatbuffers\flatbuffers.h ****     // Call T::Verify, which must be in the generated code for this type.
2296:C:/Renesas/e2studio_2021_01_workspace_RZA2M_ANPR/ANPR_RZA2M_GR_MANGO/src/tensorflow_lite/third_party/flatbuffers/include/flatbuffers\flatbuffers.h ****     auto o = VerifyOffset(start);
2297:C:/Renesas/e2studio_2021_01_workspace_RZA2M_ANPR/ANPR_RZA2M_GR_MANGO/src/tensorflow_lite/third_party/flatbuffers/include/flatbuffers\flatbuffers.h ****     return o && reinterpret_cast<const T *>(buf_ + start + o)->Verify(*this)
2298:C:/Renesas/e2studio_2021_01_workspace_RZA2M_ANPR/ANPR_RZA2M_GR_MANGO/src/tensorflow_lite/third_party/flatbuffers/include/flatbuffers\flatbuffers.h ****     // clang-format off
2299:C:/Renesas/e2studio_2021_01_workspace_RZA2M_ANPR/ANPR_RZA2M_GR_MANGO/src/tensorflow_lite/third_party/flatbuffers/include/flatbuffers\flatbuffers.h ****     #ifdef FLATBUFFERS_TRACK_VERIFIER_BUFFER_SIZE
2300:C:/Renesas/e2studio_2021_01_workspace_RZA2M_ANPR/ANPR_RZA2M_GR_MANGO/src/tensorflow_lite/third_party/flatbuffers/include/flatbuffers\flatbuffers.h ****            && GetComputedSize()
2301:C:/Renesas/e2studio_2021_01_workspace_RZA2M_ANPR/ANPR_RZA2M_GR_MANGO/src/tensorflow_lite/third_party/flatbuffers/include/flatbuffers\flatbuffers.h ****     #endif
2302:C:/Renesas/e2studio_2021_01_workspace_RZA2M_ANPR/ANPR_RZA2M_GR_MANGO/src/tensorflow_lite/third_party/flatbuffers/include/flatbuffers\flatbuffers.h ****         ;
2303:C:/Renesas/e2studio_2021_01_workspace_RZA2M_ANPR/ANPR_RZA2M_GR_MANGO/src/tensorflow_lite/third_party/flatbuffers/include/flatbuffers\flatbuffers.h ****     // clang-format on
2304:C:/Renesas/e2studio_2021_01_workspace_RZA2M_ANPR/ANPR_RZA2M_GR_MANGO/src/tensorflow_lite/third_party/flatbuffers/include/flatbuffers\flatbuffers.h ****   }
2305:C:/Renesas/e2studio_2021_01_workspace_RZA2M_ANPR/ANPR_RZA2M_GR_MANGO/src/tensorflow_lite/third_party/flatbuffers/include/flatbuffers\flatbuffers.h **** 
2306:C:/Renesas/e2studio_2021_01_workspace_RZA2M_ANPR/ANPR_RZA2M_GR_MANGO/src/tensorflow_lite/third_party/flatbuffers/include/flatbuffers\flatbuffers.h ****   // Verify this whole buffer, starting with root type T.
2307:C:/Renesas/e2studio_2021_01_workspace_RZA2M_ANPR/ANPR_RZA2M_GR_MANGO/src/tensorflow_lite/third_party/flatbuffers/include/flatbuffers\flatbuffers.h ****   template<typename T> bool VerifyBuffer() { return VerifyBuffer<T>(nullptr); }
2308:C:/Renesas/e2studio_2021_01_workspace_RZA2M_ANPR/ANPR_RZA2M_GR_MANGO/src/tensorflow_lite/third_party/flatbuffers/include/flatbuffers\flatbuffers.h **** 
2309:C:/Renesas/e2studio_2021_01_workspace_RZA2M_ANPR/ANPR_RZA2M_GR_MANGO/src/tensorflow_lite/third_party/flatbuffers/include/flatbuffers\flatbuffers.h ****   template<typename T> bool VerifyBuffer(const char *identifier) {
2310:C:/Renesas/e2studio_2021_01_workspace_RZA2M_ANPR/ANPR_RZA2M_GR_MANGO/src/tensorflow_lite/third_party/flatbuffers/include/flatbuffers\flatbuffers.h ****     return VerifyBufferFromStart<T>(identifier, 0);
2311:C:/Renesas/e2studio_2021_01_workspace_RZA2M_ANPR/ANPR_RZA2M_GR_MANGO/src/tensorflow_lite/third_party/flatbuffers/include/flatbuffers\flatbuffers.h ****   }
2312:C:/Renesas/e2studio_2021_01_workspace_RZA2M_ANPR/ANPR_RZA2M_GR_MANGO/src/tensorflow_lite/third_party/flatbuffers/include/flatbuffers\flatbuffers.h **** 
2313:C:/Renesas/e2studio_2021_01_workspace_RZA2M_ANPR/ANPR_RZA2M_GR_MANGO/src/tensorflow_lite/third_party/flatbuffers/include/flatbuffers\flatbuffers.h ****   template<typename T> bool VerifySizePrefixedBuffer(const char *identifier) {
2314:C:/Renesas/e2studio_2021_01_workspace_RZA2M_ANPR/ANPR_RZA2M_GR_MANGO/src/tensorflow_lite/third_party/flatbuffers/include/flatbuffers\flatbuffers.h ****     return Verify<uoffset_t>(0U) &&
2315:C:/Renesas/e2studio_2021_01_workspace_RZA2M_ANPR/ANPR_RZA2M_GR_MANGO/src/tensorflow_lite/third_party/flatbuffers/include/flatbuffers\flatbuffers.h ****            ReadScalar<uoffset_t>(buf_) == size_ - sizeof(uoffset_t) &&
2316:C:/Renesas/e2studio_2021_01_workspace_RZA2M_ANPR/ANPR_RZA2M_GR_MANGO/src/tensorflow_lite/third_party/flatbuffers/include/flatbuffers\flatbuffers.h ****            VerifyBufferFromStart<T>(identifier, sizeof(uoffset_t));
2317:C:/Renesas/e2studio_2021_01_workspace_RZA2M_ANPR/ANPR_RZA2M_GR_MANGO/src/tensorflow_lite/third_party/flatbuffers/include/flatbuffers\flatbuffers.h ****   }
2318:C:/Renesas/e2studio_2021_01_workspace_RZA2M_ANPR/ANPR_RZA2M_GR_MANGO/src/tensorflow_lite/third_party/flatbuffers/include/flatbuffers\flatbuffers.h **** 
2319:C:/Renesas/e2studio_2021_01_workspace_RZA2M_ANPR/ANPR_RZA2M_GR_MANGO/src/tensorflow_lite/third_party/flatbuffers/include/flatbuffers\flatbuffers.h ****   uoffset_t VerifyOffset(size_t start) const {
2320:C:/Renesas/e2studio_2021_01_workspace_RZA2M_ANPR/ANPR_RZA2M_GR_MANGO/src/tensorflow_lite/third_party/flatbuffers/include/flatbuffers\flatbuffers.h ****     if (!Verify<uoffset_t>(start)) return 0;
2321:C:/Renesas/e2studio_2021_01_workspace_RZA2M_ANPR/ANPR_RZA2M_GR_MANGO/src/tensorflow_lite/third_party/flatbuffers/include/flatbuffers\flatbuffers.h ****     auto o = ReadScalar<uoffset_t>(buf_ + start);
2322:C:/Renesas/e2studio_2021_01_workspace_RZA2M_ANPR/ANPR_RZA2M_GR_MANGO/src/tensorflow_lite/third_party/flatbuffers/include/flatbuffers\flatbuffers.h ****     // May not point to itself.
2323:C:/Renesas/e2studio_2021_01_workspace_RZA2M_ANPR/ANPR_RZA2M_GR_MANGO/src/tensorflow_lite/third_party/flatbuffers/include/flatbuffers\flatbuffers.h ****     if (!Check(o != 0)) return 0;
2324:C:/Renesas/e2studio_2021_01_workspace_RZA2M_ANPR/ANPR_RZA2M_GR_MANGO/src/tensorflow_lite/third_party/flatbuffers/include/flatbuffers\flatbuffers.h ****     // Can't wrap around / buffers are max 2GB.
2325:C:/Renesas/e2studio_2021_01_workspace_RZA2M_ANPR/ANPR_RZA2M_GR_MANGO/src/tensorflow_lite/third_party/flatbuffers/include/flatbuffers\flatbuffers.h ****     if (!Check(static_cast<soffset_t>(o) >= 0)) return 0;
2326:C:/Renesas/e2studio_2021_01_workspace_RZA2M_ANPR/ANPR_RZA2M_GR_MANGO/src/tensorflow_lite/third_party/flatbuffers/include/flatbuffers\flatbuffers.h ****     // Must be inside the buffer to create a pointer from it (pointer outside
2327:C:/Renesas/e2studio_2021_01_workspace_RZA2M_ANPR/ANPR_RZA2M_GR_MANGO/src/tensorflow_lite/third_party/flatbuffers/include/flatbuffers\flatbuffers.h ****     // buffer is UB).
2328:C:/Renesas/e2studio_2021_01_workspace_RZA2M_ANPR/ANPR_RZA2M_GR_MANGO/src/tensorflow_lite/third_party/flatbuffers/include/flatbuffers\flatbuffers.h ****     if (!Verify(start + o, 1)) return 0;
2329:C:/Renesas/e2studio_2021_01_workspace_RZA2M_ANPR/ANPR_RZA2M_GR_MANGO/src/tensorflow_lite/third_party/flatbuffers/include/flatbuffers\flatbuffers.h ****     return o;
2330:C:/Renesas/e2studio_2021_01_workspace_RZA2M_ANPR/ANPR_RZA2M_GR_MANGO/src/tensorflow_lite/third_party/flatbuffers/include/flatbuffers\flatbuffers.h ****   }
2331:C:/Renesas/e2studio_2021_01_workspace_RZA2M_ANPR/ANPR_RZA2M_GR_MANGO/src/tensorflow_lite/third_party/flatbuffers/include/flatbuffers\flatbuffers.h **** 
2332:C:/Renesas/e2studio_2021_01_workspace_RZA2M_ANPR/ANPR_RZA2M_GR_MANGO/src/tensorflow_lite/third_party/flatbuffers/include/flatbuffers\flatbuffers.h ****   uoffset_t VerifyOffset(const uint8_t *base, voffset_t start) const {
2333:C:/Renesas/e2studio_2021_01_workspace_RZA2M_ANPR/ANPR_RZA2M_GR_MANGO/src/tensorflow_lite/third_party/flatbuffers/include/flatbuffers\flatbuffers.h ****     return VerifyOffset(static_cast<size_t>(base - buf_) + start);
2334:C:/Renesas/e2studio_2021_01_workspace_RZA2M_ANPR/ANPR_RZA2M_GR_MANGO/src/tensorflow_lite/third_party/flatbuffers/include/flatbuffers\flatbuffers.h ****   }
2335:C:/Renesas/e2studio_2021_01_workspace_RZA2M_ANPR/ANPR_RZA2M_GR_MANGO/src/tensorflow_lite/third_party/flatbuffers/include/flatbuffers\flatbuffers.h **** 
2336:C:/Renesas/e2studio_2021_01_workspace_RZA2M_ANPR/ANPR_RZA2M_GR_MANGO/src/tensorflow_lite/third_party/flatbuffers/include/flatbuffers\flatbuffers.h ****   // Called at the start of a table to increase counters measuring data
2337:C:/Renesas/e2studio_2021_01_workspace_RZA2M_ANPR/ANPR_RZA2M_GR_MANGO/src/tensorflow_lite/third_party/flatbuffers/include/flatbuffers\flatbuffers.h ****   // structure depth and amount, and possibly bails out with false if
2338:C:/Renesas/e2studio_2021_01_workspace_RZA2M_ANPR/ANPR_RZA2M_GR_MANGO/src/tensorflow_lite/third_party/flatbuffers/include/flatbuffers\flatbuffers.h ****   // limits set by the constructor have been hit. Needs to be balanced
2339:C:/Renesas/e2studio_2021_01_workspace_RZA2M_ANPR/ANPR_RZA2M_GR_MANGO/src/tensorflow_lite/third_party/flatbuffers/include/flatbuffers\flatbuffers.h ****   // with EndTable().
2340:C:/Renesas/e2studio_2021_01_workspace_RZA2M_ANPR/ANPR_RZA2M_GR_MANGO/src/tensorflow_lite/third_party/flatbuffers/include/flatbuffers\flatbuffers.h ****   bool VerifyComplexity() {
2341:C:/Renesas/e2studio_2021_01_workspace_RZA2M_ANPR/ANPR_RZA2M_GR_MANGO/src/tensorflow_lite/third_party/flatbuffers/include/flatbuffers\flatbuffers.h ****     depth_++;
2342:C:/Renesas/e2studio_2021_01_workspace_RZA2M_ANPR/ANPR_RZA2M_GR_MANGO/src/tensorflow_lite/third_party/flatbuffers/include/flatbuffers\flatbuffers.h ****     num_tables_++;
2343:C:/Renesas/e2studio_2021_01_workspace_RZA2M_ANPR/ANPR_RZA2M_GR_MANGO/src/tensorflow_lite/third_party/flatbuffers/include/flatbuffers\flatbuffers.h ****     return Check(depth_ <= max_depth_ && num_tables_ <= max_tables_);
2344:C:/Renesas/e2studio_2021_01_workspace_RZA2M_ANPR/ANPR_RZA2M_GR_MANGO/src/tensorflow_lite/third_party/flatbuffers/include/flatbuffers\flatbuffers.h ****   }
2345:C:/Renesas/e2studio_2021_01_workspace_RZA2M_ANPR/ANPR_RZA2M_GR_MANGO/src/tensorflow_lite/third_party/flatbuffers/include/flatbuffers\flatbuffers.h **** 
2346:C:/Renesas/e2studio_2021_01_workspace_RZA2M_ANPR/ANPR_RZA2M_GR_MANGO/src/tensorflow_lite/third_party/flatbuffers/include/flatbuffers\flatbuffers.h ****   // Called at the end of a table to pop the depth count.
2347:C:/Renesas/e2studio_2021_01_workspace_RZA2M_ANPR/ANPR_RZA2M_GR_MANGO/src/tensorflow_lite/third_party/flatbuffers/include/flatbuffers\flatbuffers.h ****   bool EndTable() {
2348:C:/Renesas/e2studio_2021_01_workspace_RZA2M_ANPR/ANPR_RZA2M_GR_MANGO/src/tensorflow_lite/third_party/flatbuffers/include/flatbuffers\flatbuffers.h ****     depth_--;
2349:C:/Renesas/e2studio_2021_01_workspace_RZA2M_ANPR/ANPR_RZA2M_GR_MANGO/src/tensorflow_lite/third_party/flatbuffers/include/flatbuffers\flatbuffers.h ****     return true;
2350:C:/Renesas/e2studio_2021_01_workspace_RZA2M_ANPR/ANPR_RZA2M_GR_MANGO/src/tensorflow_lite/third_party/flatbuffers/include/flatbuffers\flatbuffers.h ****   }
2351:C:/Renesas/e2studio_2021_01_workspace_RZA2M_ANPR/ANPR_RZA2M_GR_MANGO/src/tensorflow_lite/third_party/flatbuffers/include/flatbuffers\flatbuffers.h **** 
2352:C:/Renesas/e2studio_2021_01_workspace_RZA2M_ANPR/ANPR_RZA2M_GR_MANGO/src/tensorflow_lite/third_party/flatbuffers/include/flatbuffers\flatbuffers.h ****   // Returns the message size in bytes
2353:C:/Renesas/e2studio_2021_01_workspace_RZA2M_ANPR/ANPR_RZA2M_GR_MANGO/src/tensorflow_lite/third_party/flatbuffers/include/flatbuffers\flatbuffers.h ****   size_t GetComputedSize() const {
2354:C:/Renesas/e2studio_2021_01_workspace_RZA2M_ANPR/ANPR_RZA2M_GR_MANGO/src/tensorflow_lite/third_party/flatbuffers/include/flatbuffers\flatbuffers.h ****     // clang-format off
2355:C:/Renesas/e2studio_2021_01_workspace_RZA2M_ANPR/ANPR_RZA2M_GR_MANGO/src/tensorflow_lite/third_party/flatbuffers/include/flatbuffers\flatbuffers.h ****     #ifdef FLATBUFFERS_TRACK_VERIFIER_BUFFER_SIZE
2356:C:/Renesas/e2studio_2021_01_workspace_RZA2M_ANPR/ANPR_RZA2M_GR_MANGO/src/tensorflow_lite/third_party/flatbuffers/include/flatbuffers\flatbuffers.h ****       uintptr_t size = upper_bound_;
2357:C:/Renesas/e2studio_2021_01_workspace_RZA2M_ANPR/ANPR_RZA2M_GR_MANGO/src/tensorflow_lite/third_party/flatbuffers/include/flatbuffers\flatbuffers.h ****       // Align the size to uoffset_t
2358:C:/Renesas/e2studio_2021_01_workspace_RZA2M_ANPR/ANPR_RZA2M_GR_MANGO/src/tensorflow_lite/third_party/flatbuffers/include/flatbuffers\flatbuffers.h ****       size = (size - 1 + sizeof(uoffset_t)) & ~(sizeof(uoffset_t) - 1);
2359:C:/Renesas/e2studio_2021_01_workspace_RZA2M_ANPR/ANPR_RZA2M_GR_MANGO/src/tensorflow_lite/third_party/flatbuffers/include/flatbuffers\flatbuffers.h ****       return (size > size_) ?  0 : size;
2360:C:/Renesas/e2studio_2021_01_workspace_RZA2M_ANPR/ANPR_RZA2M_GR_MANGO/src/tensorflow_lite/third_party/flatbuffers/include/flatbuffers\flatbuffers.h ****     #else
2361:C:/Renesas/e2studio_2021_01_workspace_RZA2M_ANPR/ANPR_RZA2M_GR_MANGO/src/tensorflow_lite/third_party/flatbuffers/include/flatbuffers\flatbuffers.h ****       // Must turn on FLATBUFFERS_TRACK_VERIFIER_BUFFER_SIZE for this to work.
2362:C:/Renesas/e2studio_2021_01_workspace_RZA2M_ANPR/ANPR_RZA2M_GR_MANGO/src/tensorflow_lite/third_party/flatbuffers/include/flatbuffers\flatbuffers.h ****       (void)upper_bound_;
2363:C:/Renesas/e2studio_2021_01_workspace_RZA2M_ANPR/ANPR_RZA2M_GR_MANGO/src/tensorflow_lite/third_party/flatbuffers/include/flatbuffers\flatbuffers.h ****       FLATBUFFERS_ASSERT(false);
2364:C:/Renesas/e2studio_2021_01_workspace_RZA2M_ANPR/ANPR_RZA2M_GR_MANGO/src/tensorflow_lite/third_party/flatbuffers/include/flatbuffers\flatbuffers.h ****       return 0;
2365:C:/Renesas/e2studio_2021_01_workspace_RZA2M_ANPR/ANPR_RZA2M_GR_MANGO/src/tensorflow_lite/third_party/flatbuffers/include/flatbuffers\flatbuffers.h ****     #endif
2366:C:/Renesas/e2studio_2021_01_workspace_RZA2M_ANPR/ANPR_RZA2M_GR_MANGO/src/tensorflow_lite/third_party/flatbuffers/include/flatbuffers\flatbuffers.h ****     // clang-format on
2367:C:/Renesas/e2studio_2021_01_workspace_RZA2M_ANPR/ANPR_RZA2M_GR_MANGO/src/tensorflow_lite/third_party/flatbuffers/include/flatbuffers\flatbuffers.h ****   }
2368:C:/Renesas/e2studio_2021_01_workspace_RZA2M_ANPR/ANPR_RZA2M_GR_MANGO/src/tensorflow_lite/third_party/flatbuffers/include/flatbuffers\flatbuffers.h **** 
2369:C:/Renesas/e2studio_2021_01_workspace_RZA2M_ANPR/ANPR_RZA2M_GR_MANGO/src/tensorflow_lite/third_party/flatbuffers/include/flatbuffers\flatbuffers.h ****  private:
2370:C:/Renesas/e2studio_2021_01_workspace_RZA2M_ANPR/ANPR_RZA2M_GR_MANGO/src/tensorflow_lite/third_party/flatbuffers/include/flatbuffers\flatbuffers.h ****   const uint8_t *buf_;
2371:C:/Renesas/e2studio_2021_01_workspace_RZA2M_ANPR/ANPR_RZA2M_GR_MANGO/src/tensorflow_lite/third_party/flatbuffers/include/flatbuffers\flatbuffers.h ****   size_t size_;
2372:C:/Renesas/e2studio_2021_01_workspace_RZA2M_ANPR/ANPR_RZA2M_GR_MANGO/src/tensorflow_lite/third_party/flatbuffers/include/flatbuffers\flatbuffers.h ****   uoffset_t depth_;
2373:C:/Renesas/e2studio_2021_01_workspace_RZA2M_ANPR/ANPR_RZA2M_GR_MANGO/src/tensorflow_lite/third_party/flatbuffers/include/flatbuffers\flatbuffers.h ****   uoffset_t max_depth_;
2374:C:/Renesas/e2studio_2021_01_workspace_RZA2M_ANPR/ANPR_RZA2M_GR_MANGO/src/tensorflow_lite/third_party/flatbuffers/include/flatbuffers\flatbuffers.h ****   uoffset_t num_tables_;
2375:C:/Renesas/e2studio_2021_01_workspace_RZA2M_ANPR/ANPR_RZA2M_GR_MANGO/src/tensorflow_lite/third_party/flatbuffers/include/flatbuffers\flatbuffers.h ****   uoffset_t max_tables_;
2376:C:/Renesas/e2studio_2021_01_workspace_RZA2M_ANPR/ANPR_RZA2M_GR_MANGO/src/tensorflow_lite/third_party/flatbuffers/include/flatbuffers\flatbuffers.h ****   mutable size_t upper_bound_;
2377:C:/Renesas/e2studio_2021_01_workspace_RZA2M_ANPR/ANPR_RZA2M_GR_MANGO/src/tensorflow_lite/third_party/flatbuffers/include/flatbuffers\flatbuffers.h ****   bool check_alignment_;
2378:C:/Renesas/e2studio_2021_01_workspace_RZA2M_ANPR/ANPR_RZA2M_GR_MANGO/src/tensorflow_lite/third_party/flatbuffers/include/flatbuffers\flatbuffers.h **** };
2379:C:/Renesas/e2studio_2021_01_workspace_RZA2M_ANPR/ANPR_RZA2M_GR_MANGO/src/tensorflow_lite/third_party/flatbuffers/include/flatbuffers\flatbuffers.h **** 
2380:C:/Renesas/e2studio_2021_01_workspace_RZA2M_ANPR/ANPR_RZA2M_GR_MANGO/src/tensorflow_lite/third_party/flatbuffers/include/flatbuffers\flatbuffers.h **** // Convenient way to bundle a buffer and its length, to pass it around
2381:C:/Renesas/e2studio_2021_01_workspace_RZA2M_ANPR/ANPR_RZA2M_GR_MANGO/src/tensorflow_lite/third_party/flatbuffers/include/flatbuffers\flatbuffers.h **** // typed by its root.
2382:C:/Renesas/e2studio_2021_01_workspace_RZA2M_ANPR/ANPR_RZA2M_GR_MANGO/src/tensorflow_lite/third_party/flatbuffers/include/flatbuffers\flatbuffers.h **** // A BufferRef does not own its buffer.
2383:C:/Renesas/e2studio_2021_01_workspace_RZA2M_ANPR/ANPR_RZA2M_GR_MANGO/src/tensorflow_lite/third_party/flatbuffers/include/flatbuffers\flatbuffers.h **** struct BufferRefBase {};  // for std::is_base_of
2384:C:/Renesas/e2studio_2021_01_workspace_RZA2M_ANPR/ANPR_RZA2M_GR_MANGO/src/tensorflow_lite/third_party/flatbuffers/include/flatbuffers\flatbuffers.h **** template<typename T> struct BufferRef : BufferRefBase {
2385:C:/Renesas/e2studio_2021_01_workspace_RZA2M_ANPR/ANPR_RZA2M_GR_MANGO/src/tensorflow_lite/third_party/flatbuffers/include/flatbuffers\flatbuffers.h ****   BufferRef() : buf(nullptr), len(0), must_free(false) {}
2386:C:/Renesas/e2studio_2021_01_workspace_RZA2M_ANPR/ANPR_RZA2M_GR_MANGO/src/tensorflow_lite/third_party/flatbuffers/include/flatbuffers\flatbuffers.h ****   BufferRef(uint8_t *_buf, uoffset_t _len)
2387:C:/Renesas/e2studio_2021_01_workspace_RZA2M_ANPR/ANPR_RZA2M_GR_MANGO/src/tensorflow_lite/third_party/flatbuffers/include/flatbuffers\flatbuffers.h ****       : buf(_buf), len(_len), must_free(false) {}
2388:C:/Renesas/e2studio_2021_01_workspace_RZA2M_ANPR/ANPR_RZA2M_GR_MANGO/src/tensorflow_lite/third_party/flatbuffers/include/flatbuffers\flatbuffers.h **** 
2389:C:/Renesas/e2studio_2021_01_workspace_RZA2M_ANPR/ANPR_RZA2M_GR_MANGO/src/tensorflow_lite/third_party/flatbuffers/include/flatbuffers\flatbuffers.h ****   ~BufferRef() {
2390:C:/Renesas/e2studio_2021_01_workspace_RZA2M_ANPR/ANPR_RZA2M_GR_MANGO/src/tensorflow_lite/third_party/flatbuffers/include/flatbuffers\flatbuffers.h ****     if (must_free) free(buf);
2391:C:/Renesas/e2studio_2021_01_workspace_RZA2M_ANPR/ANPR_RZA2M_GR_MANGO/src/tensorflow_lite/third_party/flatbuffers/include/flatbuffers\flatbuffers.h ****   }
2392:C:/Renesas/e2studio_2021_01_workspace_RZA2M_ANPR/ANPR_RZA2M_GR_MANGO/src/tensorflow_lite/third_party/flatbuffers/include/flatbuffers\flatbuffers.h **** 
2393:C:/Renesas/e2studio_2021_01_workspace_RZA2M_ANPR/ANPR_RZA2M_GR_MANGO/src/tensorflow_lite/third_party/flatbuffers/include/flatbuffers\flatbuffers.h ****   const T *GetRoot() const { return flatbuffers::GetRoot<T>(buf); }
2394:C:/Renesas/e2studio_2021_01_workspace_RZA2M_ANPR/ANPR_RZA2M_GR_MANGO/src/tensorflow_lite/third_party/flatbuffers/include/flatbuffers\flatbuffers.h **** 
2395:C:/Renesas/e2studio_2021_01_workspace_RZA2M_ANPR/ANPR_RZA2M_GR_MANGO/src/tensorflow_lite/third_party/flatbuffers/include/flatbuffers\flatbuffers.h ****   bool Verify() {
2396:C:/Renesas/e2studio_2021_01_workspace_RZA2M_ANPR/ANPR_RZA2M_GR_MANGO/src/tensorflow_lite/third_party/flatbuffers/include/flatbuffers\flatbuffers.h ****     Verifier verifier(buf, len);
2397:C:/Renesas/e2studio_2021_01_workspace_RZA2M_ANPR/ANPR_RZA2M_GR_MANGO/src/tensorflow_lite/third_party/flatbuffers/include/flatbuffers\flatbuffers.h ****     return verifier.VerifyBuffer<T>(nullptr);
2398:C:/Renesas/e2studio_2021_01_workspace_RZA2M_ANPR/ANPR_RZA2M_GR_MANGO/src/tensorflow_lite/third_party/flatbuffers/include/flatbuffers\flatbuffers.h ****   }
2399:C:/Renesas/e2studio_2021_01_workspace_RZA2M_ANPR/ANPR_RZA2M_GR_MANGO/src/tensorflow_lite/third_party/flatbuffers/include/flatbuffers\flatbuffers.h **** 
2400:C:/Renesas/e2studio_2021_01_workspace_RZA2M_ANPR/ANPR_RZA2M_GR_MANGO/src/tensorflow_lite/third_party/flatbuffers/include/flatbuffers\flatbuffers.h ****   uint8_t *buf;
2401:C:/Renesas/e2studio_2021_01_workspace_RZA2M_ANPR/ANPR_RZA2M_GR_MANGO/src/tensorflow_lite/third_party/flatbuffers/include/flatbuffers\flatbuffers.h ****   uoffset_t len;
2402:C:/Renesas/e2studio_2021_01_workspace_RZA2M_ANPR/ANPR_RZA2M_GR_MANGO/src/tensorflow_lite/third_party/flatbuffers/include/flatbuffers\flatbuffers.h ****   bool must_free;
2403:C:/Renesas/e2studio_2021_01_workspace_RZA2M_ANPR/ANPR_RZA2M_GR_MANGO/src/tensorflow_lite/third_party/flatbuffers/include/flatbuffers\flatbuffers.h **** };
2404:C:/Renesas/e2studio_2021_01_workspace_RZA2M_ANPR/ANPR_RZA2M_GR_MANGO/src/tensorflow_lite/third_party/flatbuffers/include/flatbuffers\flatbuffers.h **** 
2405:C:/Renesas/e2studio_2021_01_workspace_RZA2M_ANPR/ANPR_RZA2M_GR_MANGO/src/tensorflow_lite/third_party/flatbuffers/include/flatbuffers\flatbuffers.h **** // "structs" are flat structures that do not have an offset table, thus
2406:C:/Renesas/e2studio_2021_01_workspace_RZA2M_ANPR/ANPR_RZA2M_GR_MANGO/src/tensorflow_lite/third_party/flatbuffers/include/flatbuffers\flatbuffers.h **** // always have all members present and do not support forwards/backwards
2407:C:/Renesas/e2studio_2021_01_workspace_RZA2M_ANPR/ANPR_RZA2M_GR_MANGO/src/tensorflow_lite/third_party/flatbuffers/include/flatbuffers\flatbuffers.h **** // compatible extensions.
2408:C:/Renesas/e2studio_2021_01_workspace_RZA2M_ANPR/ANPR_RZA2M_GR_MANGO/src/tensorflow_lite/third_party/flatbuffers/include/flatbuffers\flatbuffers.h **** 
2409:C:/Renesas/e2studio_2021_01_workspace_RZA2M_ANPR/ANPR_RZA2M_GR_MANGO/src/tensorflow_lite/third_party/flatbuffers/include/flatbuffers\flatbuffers.h **** class Struct FLATBUFFERS_FINAL_CLASS {
2410:C:/Renesas/e2studio_2021_01_workspace_RZA2M_ANPR/ANPR_RZA2M_GR_MANGO/src/tensorflow_lite/third_party/flatbuffers/include/flatbuffers\flatbuffers.h ****  public:
2411:C:/Renesas/e2studio_2021_01_workspace_RZA2M_ANPR/ANPR_RZA2M_GR_MANGO/src/tensorflow_lite/third_party/flatbuffers/include/flatbuffers\flatbuffers.h ****   template<typename T> T GetField(uoffset_t o) const {
2412:C:/Renesas/e2studio_2021_01_workspace_RZA2M_ANPR/ANPR_RZA2M_GR_MANGO/src/tensorflow_lite/third_party/flatbuffers/include/flatbuffers\flatbuffers.h ****     return ReadScalar<T>(&data_[o]);
2413:C:/Renesas/e2studio_2021_01_workspace_RZA2M_ANPR/ANPR_RZA2M_GR_MANGO/src/tensorflow_lite/third_party/flatbuffers/include/flatbuffers\flatbuffers.h ****   }
2414:C:/Renesas/e2studio_2021_01_workspace_RZA2M_ANPR/ANPR_RZA2M_GR_MANGO/src/tensorflow_lite/third_party/flatbuffers/include/flatbuffers\flatbuffers.h **** 
2415:C:/Renesas/e2studio_2021_01_workspace_RZA2M_ANPR/ANPR_RZA2M_GR_MANGO/src/tensorflow_lite/third_party/flatbuffers/include/flatbuffers\flatbuffers.h ****   template<typename T> T GetStruct(uoffset_t o) const {
2416:C:/Renesas/e2studio_2021_01_workspace_RZA2M_ANPR/ANPR_RZA2M_GR_MANGO/src/tensorflow_lite/third_party/flatbuffers/include/flatbuffers\flatbuffers.h ****     return reinterpret_cast<T>(&data_[o]);
2417:C:/Renesas/e2studio_2021_01_workspace_RZA2M_ANPR/ANPR_RZA2M_GR_MANGO/src/tensorflow_lite/third_party/flatbuffers/include/flatbuffers\flatbuffers.h ****   }
2418:C:/Renesas/e2studio_2021_01_workspace_RZA2M_ANPR/ANPR_RZA2M_GR_MANGO/src/tensorflow_lite/third_party/flatbuffers/include/flatbuffers\flatbuffers.h **** 
2419:C:/Renesas/e2studio_2021_01_workspace_RZA2M_ANPR/ANPR_RZA2M_GR_MANGO/src/tensorflow_lite/third_party/flatbuffers/include/flatbuffers\flatbuffers.h ****   const uint8_t *GetAddressOf(uoffset_t o) const { return &data_[o]; }
2420:C:/Renesas/e2studio_2021_01_workspace_RZA2M_ANPR/ANPR_RZA2M_GR_MANGO/src/tensorflow_lite/third_party/flatbuffers/include/flatbuffers\flatbuffers.h ****   uint8_t *GetAddressOf(uoffset_t o) { return &data_[o]; }
2421:C:/Renesas/e2studio_2021_01_workspace_RZA2M_ANPR/ANPR_RZA2M_GR_MANGO/src/tensorflow_lite/third_party/flatbuffers/include/flatbuffers\flatbuffers.h **** 
2422:C:/Renesas/e2studio_2021_01_workspace_RZA2M_ANPR/ANPR_RZA2M_GR_MANGO/src/tensorflow_lite/third_party/flatbuffers/include/flatbuffers\flatbuffers.h ****  private:
2423:C:/Renesas/e2studio_2021_01_workspace_RZA2M_ANPR/ANPR_RZA2M_GR_MANGO/src/tensorflow_lite/third_party/flatbuffers/include/flatbuffers\flatbuffers.h ****   // private constructor & copy constructor: you obtain instances of this
2424:C:/Renesas/e2studio_2021_01_workspace_RZA2M_ANPR/ANPR_RZA2M_GR_MANGO/src/tensorflow_lite/third_party/flatbuffers/include/flatbuffers\flatbuffers.h ****   // class by pointing to existing data only
2425:C:/Renesas/e2studio_2021_01_workspace_RZA2M_ANPR/ANPR_RZA2M_GR_MANGO/src/tensorflow_lite/third_party/flatbuffers/include/flatbuffers\flatbuffers.h ****   Struct();
2426:C:/Renesas/e2studio_2021_01_workspace_RZA2M_ANPR/ANPR_RZA2M_GR_MANGO/src/tensorflow_lite/third_party/flatbuffers/include/flatbuffers\flatbuffers.h ****   Struct(const Struct &);
2427:C:/Renesas/e2studio_2021_01_workspace_RZA2M_ANPR/ANPR_RZA2M_GR_MANGO/src/tensorflow_lite/third_party/flatbuffers/include/flatbuffers\flatbuffers.h ****   Struct &operator=(const Struct &);
2428:C:/Renesas/e2studio_2021_01_workspace_RZA2M_ANPR/ANPR_RZA2M_GR_MANGO/src/tensorflow_lite/third_party/flatbuffers/include/flatbuffers\flatbuffers.h **** 
2429:C:/Renesas/e2studio_2021_01_workspace_RZA2M_ANPR/ANPR_RZA2M_GR_MANGO/src/tensorflow_lite/third_party/flatbuffers/include/flatbuffers\flatbuffers.h ****   uint8_t data_[1];
2430:C:/Renesas/e2studio_2021_01_workspace_RZA2M_ANPR/ANPR_RZA2M_GR_MANGO/src/tensorflow_lite/third_party/flatbuffers/include/flatbuffers\flatbuffers.h **** };
2431:C:/Renesas/e2studio_2021_01_workspace_RZA2M_ANPR/ANPR_RZA2M_GR_MANGO/src/tensorflow_lite/third_party/flatbuffers/include/flatbuffers\flatbuffers.h **** 
2432:C:/Renesas/e2studio_2021_01_workspace_RZA2M_ANPR/ANPR_RZA2M_GR_MANGO/src/tensorflow_lite/third_party/flatbuffers/include/flatbuffers\flatbuffers.h **** // "tables" use an offset table (possibly shared) that allows fields to be
2433:C:/Renesas/e2studio_2021_01_workspace_RZA2M_ANPR/ANPR_RZA2M_GR_MANGO/src/tensorflow_lite/third_party/flatbuffers/include/flatbuffers\flatbuffers.h **** // omitted and added at will, but uses an extra indirection to read.
2434:C:/Renesas/e2studio_2021_01_workspace_RZA2M_ANPR/ANPR_RZA2M_GR_MANGO/src/tensorflow_lite/third_party/flatbuffers/include/flatbuffers\flatbuffers.h **** class Table {
2435:C:/Renesas/e2studio_2021_01_workspace_RZA2M_ANPR/ANPR_RZA2M_GR_MANGO/src/tensorflow_lite/third_party/flatbuffers/include/flatbuffers\flatbuffers.h ****  public:
2436:C:/Renesas/e2studio_2021_01_workspace_RZA2M_ANPR/ANPR_RZA2M_GR_MANGO/src/tensorflow_lite/third_party/flatbuffers/include/flatbuffers\flatbuffers.h ****   const uint8_t *GetVTable() const {
2437:C:/Renesas/e2studio_2021_01_workspace_RZA2M_ANPR/ANPR_RZA2M_GR_MANGO/src/tensorflow_lite/third_party/flatbuffers/include/flatbuffers\flatbuffers.h ****     return data_ - ReadScalar<soffset_t>(data_);
2438:C:/Renesas/e2studio_2021_01_workspace_RZA2M_ANPR/ANPR_RZA2M_GR_MANGO/src/tensorflow_lite/third_party/flatbuffers/include/flatbuffers\flatbuffers.h ****   }
2439:C:/Renesas/e2studio_2021_01_workspace_RZA2M_ANPR/ANPR_RZA2M_GR_MANGO/src/tensorflow_lite/third_party/flatbuffers/include/flatbuffers\flatbuffers.h **** 
2440:C:/Renesas/e2studio_2021_01_workspace_RZA2M_ANPR/ANPR_RZA2M_GR_MANGO/src/tensorflow_lite/third_party/flatbuffers/include/flatbuffers\flatbuffers.h ****   // This gets the field offset for any of the functions below it, or 0
2441:C:/Renesas/e2studio_2021_01_workspace_RZA2M_ANPR/ANPR_RZA2M_GR_MANGO/src/tensorflow_lite/third_party/flatbuffers/include/flatbuffers\flatbuffers.h ****   // if the field was not present.
2442:C:/Renesas/e2studio_2021_01_workspace_RZA2M_ANPR/ANPR_RZA2M_GR_MANGO/src/tensorflow_lite/third_party/flatbuffers/include/flatbuffers\flatbuffers.h ****   voffset_t GetOptionalFieldOffset(voffset_t field) const {
2443:C:/Renesas/e2studio_2021_01_workspace_RZA2M_ANPR/ANPR_RZA2M_GR_MANGO/src/tensorflow_lite/third_party/flatbuffers/include/flatbuffers\flatbuffers.h ****     // The vtable offset is always at the start.
2444:C:/Renesas/e2studio_2021_01_workspace_RZA2M_ANPR/ANPR_RZA2M_GR_MANGO/src/tensorflow_lite/third_party/flatbuffers/include/flatbuffers\flatbuffers.h ****     auto vtable = GetVTable();
2445:C:/Renesas/e2studio_2021_01_workspace_RZA2M_ANPR/ANPR_RZA2M_GR_MANGO/src/tensorflow_lite/third_party/flatbuffers/include/flatbuffers\flatbuffers.h ****     // The first element is the size of the vtable (fields + type id + itself).
2446:C:/Renesas/e2studio_2021_01_workspace_RZA2M_ANPR/ANPR_RZA2M_GR_MANGO/src/tensorflow_lite/third_party/flatbuffers/include/flatbuffers\flatbuffers.h ****     auto vtsize = ReadScalar<voffset_t>(vtable);
2447:C:/Renesas/e2studio_2021_01_workspace_RZA2M_ANPR/ANPR_RZA2M_GR_MANGO/src/tensorflow_lite/third_party/flatbuffers/include/flatbuffers\flatbuffers.h ****     // If the field we're accessing is outside the vtable, we're reading older
2448:C:/Renesas/e2studio_2021_01_workspace_RZA2M_ANPR/ANPR_RZA2M_GR_MANGO/src/tensorflow_lite/third_party/flatbuffers/include/flatbuffers\flatbuffers.h ****     // data, so it's the same as if the offset was 0 (not present).
2449:C:/Renesas/e2studio_2021_01_workspace_RZA2M_ANPR/ANPR_RZA2M_GR_MANGO/src/tensorflow_lite/third_party/flatbuffers/include/flatbuffers\flatbuffers.h ****     return field < vtsize ? ReadScalar<voffset_t>(vtable + field) : 0;
2450:C:/Renesas/e2studio_2021_01_workspace_RZA2M_ANPR/ANPR_RZA2M_GR_MANGO/src/tensorflow_lite/third_party/flatbuffers/include/flatbuffers\flatbuffers.h ****   }
2451:C:/Renesas/e2studio_2021_01_workspace_RZA2M_ANPR/ANPR_RZA2M_GR_MANGO/src/tensorflow_lite/third_party/flatbuffers/include/flatbuffers\flatbuffers.h **** 
2452:C:/Renesas/e2studio_2021_01_workspace_RZA2M_ANPR/ANPR_RZA2M_GR_MANGO/src/tensorflow_lite/third_party/flatbuffers/include/flatbuffers\flatbuffers.h ****   template<typename T> T GetField(voffset_t field, T defaultval) const {
2453:C:/Renesas/e2studio_2021_01_workspace_RZA2M_ANPR/ANPR_RZA2M_GR_MANGO/src/tensorflow_lite/third_party/flatbuffers/include/flatbuffers\flatbuffers.h ****     auto field_offset = GetOptionalFieldOffset(field);
2454:C:/Renesas/e2studio_2021_01_workspace_RZA2M_ANPR/ANPR_RZA2M_GR_MANGO/src/tensorflow_lite/third_party/flatbuffers/include/flatbuffers\flatbuffers.h ****     return field_offset ? ReadScalar<T>(data_ + field_offset) : defaultval;
2455:C:/Renesas/e2studio_2021_01_workspace_RZA2M_ANPR/ANPR_RZA2M_GR_MANGO/src/tensorflow_lite/third_party/flatbuffers/include/flatbuffers\flatbuffers.h ****   }
2456:C:/Renesas/e2studio_2021_01_workspace_RZA2M_ANPR/ANPR_RZA2M_GR_MANGO/src/tensorflow_lite/third_party/flatbuffers/include/flatbuffers\flatbuffers.h **** 
2457:C:/Renesas/e2studio_2021_01_workspace_RZA2M_ANPR/ANPR_RZA2M_GR_MANGO/src/tensorflow_lite/third_party/flatbuffers/include/flatbuffers\flatbuffers.h ****   template<typename P> P GetPointer(voffset_t field) {
2458:C:/Renesas/e2studio_2021_01_workspace_RZA2M_ANPR/ANPR_RZA2M_GR_MANGO/src/tensorflow_lite/third_party/flatbuffers/include/flatbuffers\flatbuffers.h ****     auto field_offset = GetOptionalFieldOffset(field);
2459:C:/Renesas/e2studio_2021_01_workspace_RZA2M_ANPR/ANPR_RZA2M_GR_MANGO/src/tensorflow_lite/third_party/flatbuffers/include/flatbuffers\flatbuffers.h ****     auto p = data_ + field_offset;
2460:C:/Renesas/e2studio_2021_01_workspace_RZA2M_ANPR/ANPR_RZA2M_GR_MANGO/src/tensorflow_lite/third_party/flatbuffers/include/flatbuffers\flatbuffers.h ****     return field_offset ? reinterpret_cast<P>(p + ReadScalar<uoffset_t>(p))
 1320              		.loc 4 2460 0
 1321 0060 000053E3 		cmp	r3, #0
2459:C:/Renesas/e2studio_2021_01_workspace_RZA2M_ANPR/ANPR_RZA2M_GR_MANGO/src/tensorflow_lite/third_party/flatbuffers/include/flatbuffers\flatbuffers.h ****     return field_offset ? reinterpret_cast<P>(p + ReadScalar<uoffset_t>(p))
 1322              		.loc 4 2459 0
 1323 0064 032089E0 		add	r2, r9, r3
 1324              	.LVL141:
 1325              		.loc 4 2460 0
 1326 0068 3800000A 		beq	.L97
 1327              	.LVL142:
 1328              	.LBE462:
 1329              	.LBE461:
 1330              	.LBE460:
 1331              	.LBE459:
 1332              	.LBB472:
 1333              	.LBB473:
 252:C:/Renesas/e2studio_2021_01_workspace_RZA2M_ANPR/ANPR_RZA2M_GR_MANGO/src/tensorflow_lite/third_party/flatbuffers/include/flatbuffers\flatbuffers.h **** 
 1334              		.loc 4 252 0
 1335 006c 033099E7 		ldr	r3, [r9, r3]
 1336              	.LVL143:
 1337              	.LBE473:
 1338              	.LBE472:
 138:../src/tensorflow_lite/tensorflow/lite/micro/recording_micro_allocator.cc ****        subgraph_idx++) {
 1339              		.loc 2 138 0
 1340 0070 033092E7 		ldr	r3, [r2, r3]
 1341 0074 03005AE1 		cmp	r10, r3
 1342 0078 3700002A 		bcs	.L99
 1343              	.LVL144:
 1344              	.LBB474:
 1345              	.LBB475:
 224:../src/tensorflow_lite/tensorflow/lite/micro/recording_micro_allocator.cc ****       snapshotted_allocation.requested_bytes;
 1346              		.loc 2 224 0
 1347 007c 1C0094E5 		ldr	r0, [r4, #28]
 1348 0080 FEFFFFEB 		bl	_ZNK6tflite30RecordingSimpleMemoryAllocator17GetRequestedBytesEv
 1349              	.LVL145:
 225:../src/tensorflow_lite/tensorflow/lite/micro/recording_micro_allocator.cc ****   recorded_allocation.used_bytes +=
 1350              		.loc 2 225 0
 1351 0084 5C3094E5 		ldr	r3, [r4, #92]
 1352 0088 073043E0 		sub	r3, r3, r7
 1353 008c 003083E0 		add	r3, r3, r0
 227:../src/tensorflow_lite/tensorflow/lite/micro/recording_micro_allocator.cc ****       snapshotted_allocation.used_bytes;
 1354              		.loc 2 227 0
 1355 0090 1C0094E5 		ldr	r0, [r4, #28]
 223:../src/tensorflow_lite/tensorflow/lite/micro/recording_micro_allocator.cc ****       recording_memory_allocator_->GetRequestedBytes() -
 1356              		.loc 2 223 0
 1357 0094 5C3084E5 		str	r3, [r4, #92]
 227:../src/tensorflow_lite/tensorflow/lite/micro/recording_micro_allocator.cc ****       snapshotted_allocation.used_bytes;
 1358              		.loc 2 227 0
 1359 0098 FEFFFFEB 		bl	_ZNK6tflite30RecordingSimpleMemoryAllocator12GetUsedBytesEv
 1360              	.LVL146:
 228:../src/tensorflow_lite/tensorflow/lite/micro/recording_micro_allocator.cc ****   recorded_allocation.count +=
 1361              		.loc 2 228 0
 1362 009c 603094E5 		ldr	r3, [r4, #96]
 1363 00a0 063043E0 		sub	r3, r3, r6
 1364 00a4 003083E0 		add	r3, r3, r0
 230:../src/tensorflow_lite/tensorflow/lite/micro/recording_micro_allocator.cc ****       snapshotted_allocation.count;
 1365              		.loc 2 230 0
 1366 00a8 1C0094E5 		ldr	r0, [r4, #28]
 226:../src/tensorflow_lite/tensorflow/lite/micro/recording_micro_allocator.cc ****       recording_memory_allocator_->GetUsedBytes() -
 1367              		.loc 2 226 0
 1368 00ac 603084E5 		str	r3, [r4, #96]
 230:../src/tensorflow_lite/tensorflow/lite/micro/recording_micro_allocator.cc ****       snapshotted_allocation.count;
 1369              		.loc 2 230 0
 1370 00b0 FEFFFFEB 		bl	_ZNK6tflite30RecordingSimpleMemoryAllocator17GetAllocatedCountEv
 1371              	.LVL147:
 1372              	.LBE475:
 1373              	.LBE474:
 1374              	.LBB478:
 1375              	.LBB479:
 1376              	.LBB480:
 1377              	.LBB481:
 1378              	.LBB482:
 1379              	.LBB483:
 1380              	.LBB484:
 1381              	.LBB485:
 1382              	.LBB486:
 1383              	.LBB487:
 1384              		.loc 3 392 0
 1385 00b4 002099E5 		ldr	r2, [r9]
 1386              	.LBE487:
 1387              	.LBE486:
 1388              	.LBE485:
 1389              	.LBE484:
 1390              	.LBE483:
 1391              	.LBE482:
 1392              	.LBE481:
 1393              	.LBE480:
 1394              	.LBE479:
 1395              	.LBE478:
 1396              	.LBB507:
 1397              	.LBB476:
 1398              		.loc 2 231 0
 1399 00b8 643094E5 		ldr	r3, [r4, #100]
 1400              	.LBE476:
 1401              	.LBE507:
 1402              	.LBB508:
 1403              	.LBB504:
 1404              	.LBB501:
 1405              	.LBB498:
 1406              	.LBB496:
 1407              	.LBB494:
 1408              	.LBB489:
 1409              	.LBB488:
2437:C:/Renesas/e2studio_2021_01_workspace_RZA2M_ANPR/ANPR_RZA2M_GR_MANGO/src/tensorflow_lite/third_party/flatbuffers/include/flatbuffers\flatbuffers.h ****   }
 1410              		.loc 4 2437 0
 1411 00bc 022049E0 		sub	r2, r9, r2
 1412              	.LBE488:
 1413              	.LBE489:
 1414              	.LBB490:
 1415              	.LBB491:
 1416              		.loc 3 392 0
 1417 00c0 B010D2E1 		ldrh	r1, [r2]
 1418              	.LBE491:
 1419              	.LBE490:
 1420              	.LBE494:
 1421              	.LBE496:
 1422              	.LBE498:
 1423              	.LBE501:
 1424              	.LBE504:
 1425              	.LBE508:
 1426              	.LBB509:
 1427              	.LBB477:
 1428              		.loc 2 231 0
 1429 00c4 053043E0 		sub	r3, r3, r5
 1430 00c8 000083E0 		add	r0, r3, r0
 229:../src/tensorflow_lite/tensorflow/lite/micro/recording_micro_allocator.cc ****       recording_memory_allocator_->GetAllocatedCount() -
 1431              		.loc 2 229 0
 1432 00cc 640084E5 		str	r0, [r4, #100]
 1433              	.LVL148:
 1434              	.LBE477:
 1435              	.LBE509:
 1436              	.LBB510:
 1437              	.LBB505:
 1438              	.LBB502:
 1439              	.LBB499:
 1440              	.LBB497:
 1441              	.LBB495:
2449:C:/Renesas/e2studio_2021_01_workspace_RZA2M_ANPR/ANPR_RZA2M_GR_MANGO/src/tensorflow_lite/third_party/flatbuffers/include/flatbuffers\flatbuffers.h ****   }
 1442              		.loc 4 2449 0
 1443 00d0 080051E3 		cmp	r1, #8
 1444 00d4 1D0000DA 		ble	.L97
 1445              	.LVL149:
 1446              	.LBB492:
 1447              	.LBB493:
 1448              		.loc 3 392 0
 1449 00d8 B8C0D2E1 		ldrh	ip, [r2, #8]
 1450              	.LVL150:
 1451              	.LBE493:
 1452              	.LBE492:
 1453              	.LBE495:
 1454              	.LBE497:
 1455              		.loc 4 2460 0
 1456 00dc 00005CE3 		cmp	ip, #0
2459:C:/Renesas/e2studio_2021_01_workspace_RZA2M_ANPR/ANPR_RZA2M_GR_MANGO/src/tensorflow_lite/third_party/flatbuffers/include/flatbuffers\flatbuffers.h ****     return field_offset ? reinterpret_cast<P>(p + ReadScalar<uoffset_t>(p))
 1457              		.loc 4 2459 0
 1458 00e0 0C3089E0 		add	r3, r9, ip
 1459              	.LVL151:
 1460              		.loc 4 2460 0
 1461 00e4 1900000A 		beq	.L97
 1462 00e8 0CC099E7 		ldr	ip, [r9, ip]
 1463              	.LVL152:
 1464              	.LBE499:
 1465              	.LBE502:
 1466              	.LBE505:
 1467              	.LBE510:
 1468              	.LBB511:
 1469              	.LBB512:
 262:C:/Renesas/e2studio_2021_01_workspace_RZA2M_ANPR/ANPR_RZA2M_GR_MANGO/src/tensorflow_lite/third_party/flatbuffers/include/flatbuffers\flatbuffers.h ****     return IndirectHelper<T>::Read(Data(), i);
 1470              		.loc 4 262 0
 1471 00ec 0CE093E7 		ldr	lr, [r3, ip]
 1472              	.LBE512:
 1473              	.LBE511:
 1474              	.LBB522:
 1475              	.LBB506:
 1476              	.LBB503:
 1477              	.LBB500:
 1478              		.loc 4 2460 0
 1479 00f0 0C3083E0 		add	r3, r3, ip
 1480              	.LVL153:
 1481              	.LBE500:
 1482              	.LBE503:
 1483              	.LBE506:
 1484              	.LBE522:
 1485              	.LBB523:
 1486              	.LBB519:
 262:C:/Renesas/e2studio_2021_01_workspace_RZA2M_ANPR/ANPR_RZA2M_GR_MANGO/src/tensorflow_lite/third_party/flatbuffers/include/flatbuffers\flatbuffers.h ****     return IndirectHelper<T>::Read(Data(), i);
 1487              		.loc 4 262 0
 1488 00f4 0E005AE1 		cmp	r10, lr
 1489 00f8 1900002A 		bcs	.L110
 1490              	.LVL154:
 1491              	.LBB513:
 1492              	.LBB514:
 340:C:/Renesas/e2studio_2021_01_workspace_RZA2M_ANPR/ANPR_RZA2M_GR_MANGO/src/tensorflow_lite/third_party/flatbuffers/include/flatbuffers\flatbuffers.h ****   }
 1493              		.loc 4 340 0
 1494 00fc 043083E2 		add	r3, r3, #4
 1495              	.LVL155:
 1496              	.LBE514:
 1497              	.LBE513:
 1498              	.LBB515:
 1499              	.LBB516:
 119:C:/Renesas/e2studio_2021_01_workspace_RZA2M_ANPR/ANPR_RZA2M_GR_MANGO/src/tensorflow_lite/third_party/flatbuffers/include/flatbuffers\flatbuffers.h ****   }
 1500              		.loc 4 119 0
 1501 0100 0AE193E7 		ldr	lr, [r3, r10, lsl #2]
 118:C:/Renesas/e2studio_2021_01_workspace_RZA2M_ANPR/ANPR_RZA2M_GR_MANGO/src/tensorflow_lite/third_party/flatbuffers/include/flatbuffers\flatbuffers.h ****     return reinterpret_cast<return_type>(p + ReadScalar<uoffset_t>(p));
 1502              		.loc 4 118 0
 1503 0104 0A3183E0 		add	r3, r3, r10, lsl #2
 1504              	.LVL156:
 1505              	.LBE516:
 1506              	.LBE515:
 1507              	.LBE519:
 1508              	.LBE523:
 1509              	.LBB524:
 1510              	.LBB525:
 1511              	.LBB526:
 1512              	.LBB527:
 1513              	.LBB528:
 1514              	.LBB529:
 1515              	.LBB530:
 1516              	.LBB531:
2437:C:/Renesas/e2studio_2021_01_workspace_RZA2M_ANPR/ANPR_RZA2M_GR_MANGO/src/tensorflow_lite/third_party/flatbuffers/include/flatbuffers\flatbuffers.h ****   }
 1517              		.loc 4 2437 0
 1518 0108 0EC093E7 		ldr	ip, [r3, lr]
 1519              	.LVL157:
 1520              	.LBE531:
 1521              	.LBE530:
 1522              	.LBE529:
 1523              	.LBE528:
 1524              	.LBE527:
 1525              	.LBE526:
 1526              	.LBE525:
 1527              	.LBE524:
 1528              	.LBB541:
 1529              	.LBB520:
 1530              	.LBB518:
 1531              	.LBB517:
 119:C:/Renesas/e2studio_2021_01_workspace_RZA2M_ANPR/ANPR_RZA2M_GR_MANGO/src/tensorflow_lite/third_party/flatbuffers/include/flatbuffers\flatbuffers.h ****   }
 1532              		.loc 4 119 0
 1533 010c 0E3083E0 		add	r3, r3, lr
 1534              	.LVL158:
 1535              	.LBE517:
 1536              	.LBE518:
 1537              	.LBE520:
 1538              	.LBE541:
 1539              	.LBB542:
 1540              	.LBB540:
 1541              	.LBB539:
 1542              	.LBB538:
 1543              	.LBB537:
 1544              	.LBB536:
 1545              	.LBB533:
 1546              	.LBB532:
2437:C:/Renesas/e2studio_2021_01_workspace_RZA2M_ANPR/ANPR_RZA2M_GR_MANGO/src/tensorflow_lite/third_party/flatbuffers/include/flatbuffers\flatbuffers.h ****   }
 1547              		.loc 4 2437 0
 1548 0110 0CC043E0 		sub	ip, r3, ip
 1549              	.LVL159:
 1550              	.LBE532:
 1551              	.LBE533:
2449:C:/Renesas/e2studio_2021_01_workspace_RZA2M_ANPR/ANPR_RZA2M_GR_MANGO/src/tensorflow_lite/third_party/flatbuffers/include/flatbuffers\flatbuffers.h ****   }
 1552              		.loc 4 2449 0
 1553 0114 B0E0DCE1 		ldrh	lr, [ip]
 1554 0118 0A005EE3 		cmp	lr, #10
 1555 011c 0B0000DA 		ble	.L97
 1556              	.LVL160:
 1557              	.LBB534:
 1558              	.LBB535:
 1559              		.loc 3 392 0
 1560 0120 BAC0DCE1 		ldrh	ip, [ip, #10]
 1561              	.LVL161:
 1562              	.LBE535:
 1563              	.LBE534:
 1564              	.LBE536:
 1565              	.LBE537:
 1566              		.loc 4 2460 0
 1567 0124 00005CE3 		cmp	ip, #0
2459:C:/Renesas/e2studio_2021_01_workspace_RZA2M_ANPR/ANPR_RZA2M_GR_MANGO/src/tensorflow_lite/third_party/flatbuffers/include/flatbuffers\flatbuffers.h ****     return field_offset ? reinterpret_cast<P>(p + ReadScalar<uoffset_t>(p))
 1568              		.loc 4 2459 0
 1569 0128 0CE083E0 		add	lr, r3, ip
 1570              	.LVL162:
 1571              		.loc 4 2460 0
 1572 012c 0700000A 		beq	.L97
 1573              	.LVL163:
 1574              	.LBE538:
 1575              	.LBE539:
 1576              	.LBE540:
 1577              	.LBE542:
 1578              	.LBB543:
 1579              	.LBB544:
 252:C:/Renesas/e2studio_2021_01_workspace_RZA2M_ANPR/ANPR_RZA2M_GR_MANGO/src/tensorflow_lite/third_party/flatbuffers/include/flatbuffers\flatbuffers.h **** 
 1580              		.loc 4 252 0
 1581 0130 0C3093E7 		ldr	r3, [r3, ip]
 1582              	.LVL164:
 1583              	.LBE544:
 1584              	.LBE543:
 138:../src/tensorflow_lite/tensorflow/lite/micro/recording_micro_allocator.cc ****        subgraph_idx++) {
 1585              		.loc 2 138 0
 1586 0134 01A08AE2 		add	r10, r10, #1
 1587              	.LVL165:
 152:../src/tensorflow_lite/tensorflow/lite/micro/recording_micro_allocator.cc ****   }
 1588              		.loc 2 152 0
 1589 0138 03309EE7 		ldr	r3, [lr, r3]
 1590 013c 013043E2 		sub	r3, r3, #1
 1591 0140 000083E0 		add	r0, r3, r0
 151:../src/tensorflow_lite/tensorflow/lite/micro/recording_micro_allocator.cc ****         model->subgraphs()->Get(subgraph_idx)->operators()->size() - 1;
 1592              		.loc 2 151 0
 1593 0144 640084E5 		str	r0, [r4, #100]
 1594              	.LVL166:
 1595              	.L98:
 1596              	.LBB546:
 1597              	.LBB471:
 1598              	.LBB470:
 1599              	.LBB469:
 1600              	.LBB468:
 1601              	.LBB467:
2449:C:/Renesas/e2studio_2021_01_workspace_RZA2M_ANPR/ANPR_RZA2M_GR_MANGO/src/tensorflow_lite/third_party/flatbuffers/include/flatbuffers\flatbuffers.h ****   }
 1602              		.loc 4 2449 0 discriminator 3
 1603 0148 080051E3 		cmp	r1, #8
 1604 014c C2FFFFCA 		bgt	.L111
 1605              	.LVL167:
 1606              	.L97:
 1607              	.LBE467:
 1608              	.LBE468:
 1609              	.LBE469:
 1610              	.LBE470:
 1611              	.LBE471:
 1612              	.LBE546:
 1613              	.LBB547:
 1614              	.LBB545:
 252:C:/Renesas/e2studio_2021_01_workspace_RZA2M_ANPR/ANPR_RZA2M_GR_MANGO/src/tensorflow_lite/third_party/flatbuffers/include/flatbuffers\flatbuffers.h **** 
 1615              		.loc 4 252 0
 1616 0150 0030A0E3 		mov	r3, #0
 1617 0154 003093E5 		ldr	r3, [r3]
 1618 0158 F000F0E7 		.inst	0xe7f000f0
 1619              	.LVL168:
 1620              	.L99:
 1621              	.LBE545:
 1622              	.LBE547:
 1623              	.LBE458:
 155:../src/tensorflow_lite/tensorflow/lite/micro/recording_micro_allocator.cc **** 
 1624              		.loc 2 155 0
 1625 015c 0800A0E1 		mov	r0, r8
 1626 0160 F087BDE8 		pop	{r4, r5, r6, r7, r8, r9, r10, pc}
 1627              	.LVL169:
 1628              	.L110:
 1629              	.LBB549:
 1630              	.LBB548:
 1631              	.LBB521:
 262:C:/Renesas/e2studio_2021_01_workspace_RZA2M_ANPR/ANPR_RZA2M_GR_MANGO/src/tensorflow_lite/third_party/flatbuffers/include/flatbuffers\flatbuffers.h ****     return IndirectHelper<T>::Read(Data(), i);
 1632              		.loc 4 262 0
 1633 0164 003000E3 		movw	r3, #:lower16:.LC16
 1634              	.LVL170:
 1635 0168 002000E3 		movw	r2, #:lower16:.LANCHOR1
 1636              	.LVL171:
 1637 016c 000000E3 		movw	r0, #:lower16:.LC17
 1638 0170 003040E3 		movt	r3, #:upper16:.LC16
 1639 0174 002040E3 		movt	r2, #:upper16:.LANCHOR1
 1640 0178 000040E3 		movt	r0, #:upper16:.LC17
 1641 017c 061100E3 		movw	r1, #262
 1642              	.LVL172:
 1643 0180 FEFFFFEB 		bl	__assert_func
 1644              	.LVL173:
 1645              	.LBE521:
 1646              	.LBE548:
 1647              	.LBE549:
 1648              		.cfi_endproc
 1649              	.LFE6516:
 1650              		.fnend
 1652              		.section	.text._ZN6tflite23RecordingMicroAllocator25AllocateTfLiteEvalTensorsEPKNS_5ModelEPNS_19Su
 1653              		.align	2
 1654              		.global	_ZN6tflite23RecordingMicroAllocator25AllocateTfLiteEvalTensorsEPKNS_5ModelEPNS_19SubgraphA
 1655              		.syntax unified
 1656              		.arm
 1657              		.fpu neon
 1659              	_ZN6tflite23RecordingMicroAllocator25AllocateTfLiteEvalTensorsEPKNS_5ModelEPNS_19SubgraphAllocation
 1660              		.fnstart
 1661              	.LFB6517:
 158:../src/tensorflow_lite/tensorflow/lite/micro/recording_micro_allocator.cc ****   RecordedAllocation allocations = SnapshotAllocationUsage();
 1662              		.loc 2 158 0
 1663              		.cfi_startproc
 1664              		@ args = 0, pretend = 0, frame = 0
 1665              		@ frame_needed = 0, uses_anonymous_args = 0
 1666              	.LVL174:
 1667 0000 F0472DE9 		push	{r4, r5, r6, r7, r8, r9, r10, lr}
 1668              		.save {r4, r5, r6, r7, r8, r9, r10, lr}
 1669              		.cfi_def_cfa_offset 32
 1670              		.cfi_offset 4, -32
 1671              		.cfi_offset 5, -28
 1672              		.cfi_offset 6, -24
 1673              		.cfi_offset 7, -20
 1674              		.cfi_offset 8, -16
 1675              		.cfi_offset 9, -12
 1676              		.cfi_offset 10, -8
 1677              		.cfi_offset 14, -4
 158:../src/tensorflow_lite/tensorflow/lite/micro/recording_micro_allocator.cc ****   RecordedAllocation allocations = SnapshotAllocationUsage();
 1678              		.loc 2 158 0
 1679 0004 0040A0E1 		mov	r4, r0
 1680              	.LVL175:
 1681              	.LBB617:
 1682              	.LBB618:
 215:../src/tensorflow_lite/tensorflow/lite/micro/recording_micro_allocator.cc ****           /*used_bytes=*/recording_memory_allocator_->GetUsedBytes(),
 1683              		.loc 2 215 0
 1684 0008 1C0090E5 		ldr	r0, [r0, #28]
 1685              	.LVL176:
 1686              	.LBE618:
 1687              	.LBE617:
 158:../src/tensorflow_lite/tensorflow/lite/micro/recording_micro_allocator.cc ****   RecordedAllocation allocations = SnapshotAllocationUsage();
 1688              		.loc 2 158 0
 1689 000c 0190A0E1 		mov	r9, r1
 1690 0010 0280A0E1 		mov	r8, r2
 162:../src/tensorflow_lite/tensorflow/lite/micro/recording_micro_allocator.cc ****   for (size_t subgraph_idx = 0; subgraph_idx < model->subgraphs()->size();
 1691              		.loc 2 162 0
 1692 0014 00A0A0E3 		mov	r10, #0
 1693              	.LBB621:
 1694              	.LBB619:
 215:../src/tensorflow_lite/tensorflow/lite/micro/recording_micro_allocator.cc ****           /*used_bytes=*/recording_memory_allocator_->GetUsedBytes(),
 1695              		.loc 2 215 0
 1696 0018 FEFFFFEB 		bl	_ZNK6tflite30RecordingSimpleMemoryAllocator17GetRequestedBytesEv
 1697              	.LVL177:
 1698 001c 0070A0E1 		mov	r7, r0
 216:../src/tensorflow_lite/tensorflow/lite/micro/recording_micro_allocator.cc ****           /*count=*/recording_memory_allocator_->GetAllocatedCount()};
 1699              		.loc 2 216 0
 1700 0020 1C0094E5 		ldr	r0, [r4, #28]
 1701 0024 FEFFFFEB 		bl	_ZNK6tflite30RecordingSimpleMemoryAllocator12GetUsedBytesEv
 1702              	.LVL178:
 1703 0028 0060A0E1 		mov	r6, r0
 217:../src/tensorflow_lite/tensorflow/lite/micro/recording_micro_allocator.cc **** }
 1704              		.loc 2 217 0
 1705 002c 1C0094E5 		ldr	r0, [r4, #28]
 1706 0030 FEFFFFEB 		bl	_ZNK6tflite30RecordingSimpleMemoryAllocator17GetAllocatedCountEv
 1707              	.LVL179:
 1708              	.LBE619:
 1709              	.LBE621:
 162:../src/tensorflow_lite/tensorflow/lite/micro/recording_micro_allocator.cc ****   for (size_t subgraph_idx = 0; subgraph_idx < model->subgraphs()->size();
 1710              		.loc 2 162 0
 1711 0034 0820A0E1 		mov	r2, r8
 1712 0038 0910A0E1 		mov	r1, r9
 1713              	.LBB622:
 1714              	.LBB620:
 217:../src/tensorflow_lite/tensorflow/lite/micro/recording_micro_allocator.cc **** }
 1715              		.loc 2 217 0
 1716 003c 0050A0E1 		mov	r5, r0
 1717              	.LVL180:
 1718              	.LBE620:
 1719              	.LBE622:
 162:../src/tensorflow_lite/tensorflow/lite/micro/recording_micro_allocator.cc ****   for (size_t subgraph_idx = 0; subgraph_idx < model->subgraphs()->size();
 1720              		.loc 2 162 0
 1721 0040 0400A0E1 		mov	r0, r4
 1722 0044 FEFFFFEB 		bl	_ZN6tflite14MicroAllocator25AllocateTfLiteEvalTensorsEPKNS_5ModelEPNS_19SubgraphAllocationsE
 1723              	.LVL181:
 1724 0048 002099E5 		ldr	r2, [r9]
 1725 004c 0080A0E1 		mov	r8, r0
 1726              	.LVL182:
 1727 0050 022049E0 		sub	r2, r9, r2
 1728 0054 B010D2E1 		ldrh	r1, [r2]
 1729 0058 3A0000EA 		b	.L118
 1730              	.LVL183:
 1731              	.L131:
 1732              	.LBB623:
 1733              	.LBB624:
 1734              	.LBB625:
 1735              	.LBB626:
 1736              	.LBB627:
 1737              	.LBB628:
 1738              	.LBB629:
 1739              	.LBB630:
 1740              	.LBB631:
 1741              		.loc 3 392 0
 1742 005c B830D2E1 		ldrh	r3, [r2, #8]
 1743              	.LVL184:
 1744              	.LBE631:
 1745              	.LBE630:
 1746              	.LBE629:
 1747              	.LBE628:
 1748              		.loc 4 2460 0
 1749 0060 000053E3 		cmp	r3, #0
2459:C:/Renesas/e2studio_2021_01_workspace_RZA2M_ANPR/ANPR_RZA2M_GR_MANGO/src/tensorflow_lite/third_party/flatbuffers/include/flatbuffers\flatbuffers.h ****     return field_offset ? reinterpret_cast<P>(p + ReadScalar<uoffset_t>(p))
 1750              		.loc 4 2459 0
 1751 0064 032089E0 		add	r2, r9, r3
 1752              	.LVL185:
 1753              		.loc 4 2460 0
 1754 0068 3800000A 		beq	.L117
 1755              	.LVL186:
 1756              	.LBE627:
 1757              	.LBE626:
 1758              	.LBE625:
 1759              	.LBE624:
 1760              	.LBB637:
 1761              	.LBB638:
 252:C:/Renesas/e2studio_2021_01_workspace_RZA2M_ANPR/ANPR_RZA2M_GR_MANGO/src/tensorflow_lite/third_party/flatbuffers/include/flatbuffers\flatbuffers.h **** 
 1762              		.loc 4 252 0
 1763 006c 033099E7 		ldr	r3, [r9, r3]
 1764              	.LVL187:
 1765              	.LBE638:
 1766              	.LBE637:
 163:../src/tensorflow_lite/tensorflow/lite/micro/recording_micro_allocator.cc ****        subgraph_idx++) {
 1767              		.loc 2 163 0
 1768 0070 033092E7 		ldr	r3, [r2, r3]
 1769 0074 03005AE1 		cmp	r10, r3
 1770 0078 3700002A 		bcs	.L119
 1771              	.LVL188:
 1772              	.LBB639:
 1773              	.LBB640:
 224:../src/tensorflow_lite/tensorflow/lite/micro/recording_micro_allocator.cc ****       snapshotted_allocation.requested_bytes;
 1774              		.loc 2 224 0
 1775 007c 1C0094E5 		ldr	r0, [r4, #28]
 1776 0080 FEFFFFEB 		bl	_ZNK6tflite30RecordingSimpleMemoryAllocator17GetRequestedBytesEv
 1777              	.LVL189:
 225:../src/tensorflow_lite/tensorflow/lite/micro/recording_micro_allocator.cc ****   recorded_allocation.used_bytes +=
 1778              		.loc 2 225 0
 1779 0084 203094E5 		ldr	r3, [r4, #32]
 1780 0088 073043E0 		sub	r3, r3, r7
 1781 008c 003083E0 		add	r3, r3, r0
 227:../src/tensorflow_lite/tensorflow/lite/micro/recording_micro_allocator.cc ****       snapshotted_allocation.used_bytes;
 1782              		.loc 2 227 0
 1783 0090 1C0094E5 		ldr	r0, [r4, #28]
 223:../src/tensorflow_lite/tensorflow/lite/micro/recording_micro_allocator.cc ****       recording_memory_allocator_->GetRequestedBytes() -
 1784              		.loc 2 223 0
 1785 0094 203084E5 		str	r3, [r4, #32]
 227:../src/tensorflow_lite/tensorflow/lite/micro/recording_micro_allocator.cc ****       snapshotted_allocation.used_bytes;
 1786              		.loc 2 227 0
 1787 0098 FEFFFFEB 		bl	_ZNK6tflite30RecordingSimpleMemoryAllocator12GetUsedBytesEv
 1788              	.LVL190:
 228:../src/tensorflow_lite/tensorflow/lite/micro/recording_micro_allocator.cc ****   recorded_allocation.count +=
 1789              		.loc 2 228 0
 1790 009c 243094E5 		ldr	r3, [r4, #36]
 1791 00a0 063043E0 		sub	r3, r3, r6
 1792 00a4 003083E0 		add	r3, r3, r0
 230:../src/tensorflow_lite/tensorflow/lite/micro/recording_micro_allocator.cc ****       snapshotted_allocation.count;
 1793              		.loc 2 230 0
 1794 00a8 1C0094E5 		ldr	r0, [r4, #28]
 226:../src/tensorflow_lite/tensorflow/lite/micro/recording_micro_allocator.cc ****       recording_memory_allocator_->GetUsedBytes() -
 1795              		.loc 2 226 0
 1796 00ac 243084E5 		str	r3, [r4, #36]
 230:../src/tensorflow_lite/tensorflow/lite/micro/recording_micro_allocator.cc ****       snapshotted_allocation.count;
 1797              		.loc 2 230 0
 1798 00b0 FEFFFFEB 		bl	_ZNK6tflite30RecordingSimpleMemoryAllocator17GetAllocatedCountEv
 1799              	.LVL191:
 1800              	.LBE640:
 1801              	.LBE639:
 1802              	.LBB643:
 1803              	.LBB644:
 1804              	.LBB645:
 1805              	.LBB646:
 1806              	.LBB647:
 1807              	.LBB648:
 1808              	.LBB649:
 1809              	.LBB650:
 1810              	.LBB651:
 1811              	.LBB652:
 1812              		.loc 3 392 0
 1813 00b4 002099E5 		ldr	r2, [r9]
 1814              	.LBE652:
 1815              	.LBE651:
 1816              	.LBE650:
 1817              	.LBE649:
 1818              	.LBE648:
 1819              	.LBE647:
 1820              	.LBE646:
 1821              	.LBE645:
 1822              	.LBE644:
 1823              	.LBE643:
 1824              	.LBB672:
 1825              	.LBB641:
 1826              		.loc 2 231 0
 1827 00b8 283094E5 		ldr	r3, [r4, #40]
 1828              	.LBE641:
 1829              	.LBE672:
 1830              	.LBB673:
 1831              	.LBB669:
 1832              	.LBB666:
 1833              	.LBB663:
 1834              	.LBB661:
 1835              	.LBB659:
 1836              	.LBB654:
 1837              	.LBB653:
2437:C:/Renesas/e2studio_2021_01_workspace_RZA2M_ANPR/ANPR_RZA2M_GR_MANGO/src/tensorflow_lite/third_party/flatbuffers/include/flatbuffers\flatbuffers.h ****   }
 1838              		.loc 4 2437 0
 1839 00bc 022049E0 		sub	r2, r9, r2
 1840              	.LBE653:
 1841              	.LBE654:
 1842              	.LBB655:
 1843              	.LBB656:
 1844              		.loc 3 392 0
 1845 00c0 B010D2E1 		ldrh	r1, [r2]
 1846              	.LBE656:
 1847              	.LBE655:
 1848              	.LBE659:
 1849              	.LBE661:
 1850              	.LBE663:
 1851              	.LBE666:
 1852              	.LBE669:
 1853              	.LBE673:
 1854              	.LBB674:
 1855              	.LBB642:
 1856              		.loc 2 231 0
 1857 00c4 053043E0 		sub	r3, r3, r5
 1858 00c8 000083E0 		add	r0, r3, r0
 229:../src/tensorflow_lite/tensorflow/lite/micro/recording_micro_allocator.cc ****       recording_memory_allocator_->GetAllocatedCount() -
 1859              		.loc 2 229 0
 1860 00cc 280084E5 		str	r0, [r4, #40]
 1861              	.LVL192:
 1862              	.LBE642:
 1863              	.LBE674:
 1864              	.LBB675:
 1865              	.LBB670:
 1866              	.LBB667:
 1867              	.LBB664:
 1868              	.LBB662:
 1869              	.LBB660:
2449:C:/Renesas/e2studio_2021_01_workspace_RZA2M_ANPR/ANPR_RZA2M_GR_MANGO/src/tensorflow_lite/third_party/flatbuffers/include/flatbuffers\flatbuffers.h ****   }
 1870              		.loc 4 2449 0
 1871 00d0 080051E3 		cmp	r1, #8
 1872 00d4 1D0000DA 		ble	.L117
 1873              	.LVL193:
 1874              	.LBB657:
 1875              	.LBB658:
 1876              		.loc 3 392 0
 1877 00d8 B8C0D2E1 		ldrh	ip, [r2, #8]
 1878              	.LVL194:
 1879              	.LBE658:
 1880              	.LBE657:
 1881              	.LBE660:
 1882              	.LBE662:
 1883              		.loc 4 2460 0
 1884 00dc 00005CE3 		cmp	ip, #0
2459:C:/Renesas/e2studio_2021_01_workspace_RZA2M_ANPR/ANPR_RZA2M_GR_MANGO/src/tensorflow_lite/third_party/flatbuffers/include/flatbuffers\flatbuffers.h ****     return field_offset ? reinterpret_cast<P>(p + ReadScalar<uoffset_t>(p))
 1885              		.loc 4 2459 0
 1886 00e0 0C3089E0 		add	r3, r9, ip
 1887              	.LVL195:
 1888              		.loc 4 2460 0
 1889 00e4 1900000A 		beq	.L117
 1890 00e8 0CC099E7 		ldr	ip, [r9, ip]
 1891              	.LVL196:
 1892              	.LBE664:
 1893              	.LBE667:
 1894              	.LBE670:
 1895              	.LBE675:
 1896              	.LBB676:
 1897              	.LBB677:
 262:C:/Renesas/e2studio_2021_01_workspace_RZA2M_ANPR/ANPR_RZA2M_GR_MANGO/src/tensorflow_lite/third_party/flatbuffers/include/flatbuffers\flatbuffers.h ****     return IndirectHelper<T>::Read(Data(), i);
 1898              		.loc 4 262 0
 1899 00ec 0CE093E7 		ldr	lr, [r3, ip]
 1900              	.LBE677:
 1901              	.LBE676:
 1902              	.LBB687:
 1903              	.LBB671:
 1904              	.LBB668:
 1905              	.LBB665:
 1906              		.loc 4 2460 0
 1907 00f0 0C3083E0 		add	r3, r3, ip
 1908              	.LVL197:
 1909              	.LBE665:
 1910              	.LBE668:
 1911              	.LBE671:
 1912              	.LBE687:
 1913              	.LBB688:
 1914              	.LBB684:
 262:C:/Renesas/e2studio_2021_01_workspace_RZA2M_ANPR/ANPR_RZA2M_GR_MANGO/src/tensorflow_lite/third_party/flatbuffers/include/flatbuffers\flatbuffers.h ****     return IndirectHelper<T>::Read(Data(), i);
 1915              		.loc 4 262 0
 1916 00f4 0E005AE1 		cmp	r10, lr
 1917 00f8 1900002A 		bcs	.L130
 1918              	.LVL198:
 1919              	.LBB678:
 1920              	.LBB679:
 340:C:/Renesas/e2studio_2021_01_workspace_RZA2M_ANPR/ANPR_RZA2M_GR_MANGO/src/tensorflow_lite/third_party/flatbuffers/include/flatbuffers\flatbuffers.h ****   }
 1921              		.loc 4 340 0
 1922 00fc 043083E2 		add	r3, r3, #4
 1923              	.LVL199:
 1924              	.LBE679:
 1925              	.LBE678:
 1926              	.LBB680:
 1927              	.LBB681:
 119:C:/Renesas/e2studio_2021_01_workspace_RZA2M_ANPR/ANPR_RZA2M_GR_MANGO/src/tensorflow_lite/third_party/flatbuffers/include/flatbuffers\flatbuffers.h ****   }
 1928              		.loc 4 119 0
 1929 0100 0AE193E7 		ldr	lr, [r3, r10, lsl #2]
 118:C:/Renesas/e2studio_2021_01_workspace_RZA2M_ANPR/ANPR_RZA2M_GR_MANGO/src/tensorflow_lite/third_party/flatbuffers/include/flatbuffers\flatbuffers.h ****     return reinterpret_cast<return_type>(p + ReadScalar<uoffset_t>(p));
 1930              		.loc 4 118 0
 1931 0104 0A3183E0 		add	r3, r3, r10, lsl #2
 1932              	.LVL200:
 1933              	.LBE681:
 1934              	.LBE680:
 1935              	.LBE684:
 1936              	.LBE688:
 1937              	.LBB689:
 1938              	.LBB690:
 1939              	.LBB691:
 1940              	.LBB692:
 1941              	.LBB693:
 1942              	.LBB694:
 1943              	.LBB695:
 1944              	.LBB696:
2437:C:/Renesas/e2studio_2021_01_workspace_RZA2M_ANPR/ANPR_RZA2M_GR_MANGO/src/tensorflow_lite/third_party/flatbuffers/include/flatbuffers\flatbuffers.h ****   }
 1945              		.loc 4 2437 0
 1946 0108 0EC093E7 		ldr	ip, [r3, lr]
 1947              	.LVL201:
 1948              	.LBE696:
 1949              	.LBE695:
 1950              	.LBE694:
 1951              	.LBE693:
 1952              	.LBE692:
 1953              	.LBE691:
 1954              	.LBE690:
 1955              	.LBE689:
 1956              	.LBB706:
 1957              	.LBB685:
 1958              	.LBB683:
 1959              	.LBB682:
 119:C:/Renesas/e2studio_2021_01_workspace_RZA2M_ANPR/ANPR_RZA2M_GR_MANGO/src/tensorflow_lite/third_party/flatbuffers/include/flatbuffers\flatbuffers.h ****   }
 1960              		.loc 4 119 0
 1961 010c 0E3083E0 		add	r3, r3, lr
 1962              	.LVL202:
 1963              	.LBE682:
 1964              	.LBE683:
 1965              	.LBE685:
 1966              	.LBE706:
 1967              	.LBB707:
 1968              	.LBB705:
 1969              	.LBB704:
 1970              	.LBB703:
 1971              	.LBB702:
 1972              	.LBB701:
 1973              	.LBB698:
 1974              	.LBB697:
2437:C:/Renesas/e2studio_2021_01_workspace_RZA2M_ANPR/ANPR_RZA2M_GR_MANGO/src/tensorflow_lite/third_party/flatbuffers/include/flatbuffers\flatbuffers.h ****   }
 1975              		.loc 4 2437 0
 1976 0110 0CC043E0 		sub	ip, r3, ip
 1977              	.LVL203:
 1978              	.LBE697:
 1979              	.LBE698:
2449:C:/Renesas/e2studio_2021_01_workspace_RZA2M_ANPR/ANPR_RZA2M_GR_MANGO/src/tensorflow_lite/third_party/flatbuffers/include/flatbuffers\flatbuffers.h ****   }
 1980              		.loc 4 2449 0
 1981 0114 B0E0DCE1 		ldrh	lr, [ip]
 1982 0118 04005EE3 		cmp	lr, #4
 1983 011c 0B0000DA 		ble	.L117
 1984              	.LVL204:
 1985              	.LBB699:
 1986              	.LBB700:
 1987              		.loc 3 392 0
 1988 0120 B4C0DCE1 		ldrh	ip, [ip, #4]
 1989              	.LVL205:
 1990              	.LBE700:
 1991              	.LBE699:
 1992              	.LBE701:
 1993              	.LBE702:
 1994              		.loc 4 2460 0
 1995 0124 00005CE3 		cmp	ip, #0
2459:C:/Renesas/e2studio_2021_01_workspace_RZA2M_ANPR/ANPR_RZA2M_GR_MANGO/src/tensorflow_lite/third_party/flatbuffers/include/flatbuffers\flatbuffers.h ****     return field_offset ? reinterpret_cast<P>(p + ReadScalar<uoffset_t>(p))
 1996              		.loc 4 2459 0
 1997 0128 0CE083E0 		add	lr, r3, ip
 1998              	.LVL206:
 1999              		.loc 4 2460 0
 2000 012c 0700000A 		beq	.L117
 2001              	.LVL207:
 2002              	.LBE703:
 2003              	.LBE704:
 2004              	.LBE705:
 2005              	.LBE707:
 2006              	.LBB708:
 2007              	.LBB709:
 252:C:/Renesas/e2studio_2021_01_workspace_RZA2M_ANPR/ANPR_RZA2M_GR_MANGO/src/tensorflow_lite/third_party/flatbuffers/include/flatbuffers\flatbuffers.h **** 
 2008              		.loc 4 252 0
 2009 0130 0C3093E7 		ldr	r3, [r3, ip]
 2010              	.LVL208:
 2011              	.LBE709:
 2012              	.LBE708:
 163:../src/tensorflow_lite/tensorflow/lite/micro/recording_micro_allocator.cc ****        subgraph_idx++) {
 2013              		.loc 2 163 0
 2014 0134 01A08AE2 		add	r10, r10, #1
 2015              	.LVL209:
 173:../src/tensorflow_lite/tensorflow/lite/micro/recording_micro_allocator.cc ****   }
 2016              		.loc 2 173 0
 2017 0138 03309EE7 		ldr	r3, [lr, r3]
 2018 013c 013043E2 		sub	r3, r3, #1
 2019 0140 000083E0 		add	r0, r3, r0
 172:../src/tensorflow_lite/tensorflow/lite/micro/recording_micro_allocator.cc ****         model->subgraphs()->Get(subgraph_idx)->tensors()->size() - 1;
 2020              		.loc 2 172 0
 2021 0144 280084E5 		str	r0, [r4, #40]
 2022              	.LVL210:
 2023              	.L118:
 2024              	.LBB711:
 2025              	.LBB636:
 2026              	.LBB635:
 2027              	.LBB634:
 2028              	.LBB633:
 2029              	.LBB632:
2449:C:/Renesas/e2studio_2021_01_workspace_RZA2M_ANPR/ANPR_RZA2M_GR_MANGO/src/tensorflow_lite/third_party/flatbuffers/include/flatbuffers\flatbuffers.h ****   }
 2030              		.loc 4 2449 0 discriminator 3
 2031 0148 080051E3 		cmp	r1, #8
 2032 014c C2FFFFCA 		bgt	.L131
 2033              	.LVL211:
 2034              	.L117:
 2035              	.LBE632:
 2036              	.LBE633:
 2037              	.LBE634:
 2038              	.LBE635:
 2039              	.LBE636:
 2040              	.LBE711:
 2041              	.LBB712:
 2042              	.LBB710:
 252:C:/Renesas/e2studio_2021_01_workspace_RZA2M_ANPR/ANPR_RZA2M_GR_MANGO/src/tensorflow_lite/third_party/flatbuffers/include/flatbuffers\flatbuffers.h **** 
 2043              		.loc 4 252 0
 2044 0150 0030A0E3 		mov	r3, #0
 2045 0154 003093E5 		ldr	r3, [r3]
 2046 0158 F000F0E7 		.inst	0xe7f000f0
 2047              	.LVL212:
 2048              	.L119:
 2049              	.LBE710:
 2050              	.LBE712:
 2051              	.LBE623:
 176:../src/tensorflow_lite/tensorflow/lite/micro/recording_micro_allocator.cc **** 
 2052              		.loc 2 176 0
 2053 015c 0800A0E1 		mov	r0, r8
 2054 0160 F087BDE8 		pop	{r4, r5, r6, r7, r8, r9, r10, pc}
 2055              	.LVL213:
 2056              	.L130:
 2057              	.LBB714:
 2058              	.LBB713:
 2059              	.LBB686:
 262:C:/Renesas/e2studio_2021_01_workspace_RZA2M_ANPR/ANPR_RZA2M_GR_MANGO/src/tensorflow_lite/third_party/flatbuffers/include/flatbuffers\flatbuffers.h ****     return IndirectHelper<T>::Read(Data(), i);
 2060              		.loc 4 262 0
 2061 0164 003000E3 		movw	r3, #:lower16:.LC16
 2062              	.LVL214:
 2063 0168 002000E3 		movw	r2, #:lower16:.LANCHOR1
 2064              	.LVL215:
 2065 016c 000000E3 		movw	r0, #:lower16:.LC17
 2066 0170 003040E3 		movt	r3, #:upper16:.LC16
 2067 0174 002040E3 		movt	r2, #:upper16:.LANCHOR1
 2068 0178 000040E3 		movt	r0, #:upper16:.LC17
 2069 017c 061100E3 		movw	r1, #262
 2070              	.LVL216:
 2071 0180 FEFFFFEB 		bl	__assert_func
 2072              	.LVL217:
 2073              	.LBE686:
 2074              	.LBE713:
 2075              	.LBE714:
 2076              		.cfi_endproc
 2077              	.LFE6517:
 2078              		.fnend
 2080              		.section	.text._ZN6tflite23RecordingMicroAllocator17AllocateVariablesEPKNS_8SubGraphEP16TfLiteEval
 2081              		.align	2
 2082              		.global	_ZN6tflite23RecordingMicroAllocator17AllocateVariablesEPKNS_8SubGraphEP16TfLiteEvalTensor
 2083              		.syntax unified
 2084              		.arm
 2085              		.fpu neon
 2087              	_ZN6tflite23RecordingMicroAllocator17AllocateVariablesEPKNS_8SubGraphEP16TfLiteEvalTensor:
 2088              		.fnstart
 2089              	.LFB6518:
 179:../src/tensorflow_lite/tensorflow/lite/micro/recording_micro_allocator.cc ****   RecordedAllocation allocations = SnapshotAllocationUsage();
 2090              		.loc 2 179 0
 2091              		.cfi_startproc
 2092              		@ args = 0, pretend = 0, frame = 0
 2093              		@ frame_needed = 0, uses_anonymous_args = 0
 2094              	.LVL218:
 2095 0000 F0472DE9 		push	{r4, r5, r6, r7, r8, r9, r10, lr}
 2096              		.save {r4, r5, r6, r7, r8, r9, r10, lr}
 2097              		.cfi_def_cfa_offset 32
 2098              		.cfi_offset 4, -32
 2099              		.cfi_offset 5, -28
 2100              		.cfi_offset 6, -24
 2101              		.cfi_offset 7, -20
 2102              		.cfi_offset 8, -16
 2103              		.cfi_offset 9, -12
 2104              		.cfi_offset 10, -8
 2105              		.cfi_offset 14, -4
 179:../src/tensorflow_lite/tensorflow/lite/micro/recording_micro_allocator.cc ****   RecordedAllocation allocations = SnapshotAllocationUsage();
 2106              		.loc 2 179 0
 2107 0004 0040A0E1 		mov	r4, r0
 2108              	.LVL219:
 2109              	.LBB719:
 2110              	.LBB720:
 215:../src/tensorflow_lite/tensorflow/lite/micro/recording_micro_allocator.cc ****           /*used_bytes=*/recording_memory_allocator_->GetUsedBytes(),
 2111              		.loc 2 215 0
 2112 0008 1C0090E5 		ldr	r0, [r0, #28]
 2113              	.LVL220:
 2114              	.LBE720:
 2115              	.LBE719:
 179:../src/tensorflow_lite/tensorflow/lite/micro/recording_micro_allocator.cc ****   RecordedAllocation allocations = SnapshotAllocationUsage();
 2116              		.loc 2 179 0
 2117 000c 0160A0E1 		mov	r6, r1
 2118 0010 0290A0E1 		mov	r9, r2
 2119              	.LBB723:
 2120              	.LBB721:
 215:../src/tensorflow_lite/tensorflow/lite/micro/recording_micro_allocator.cc ****           /*used_bytes=*/recording_memory_allocator_->GetUsedBytes(),
 2121              		.loc 2 215 0
 2122 0014 FEFFFFEB 		bl	_ZNK6tflite30RecordingSimpleMemoryAllocator17GetRequestedBytesEv
 2123              	.LVL221:
 2124 0018 0080A0E1 		mov	r8, r0
 216:../src/tensorflow_lite/tensorflow/lite/micro/recording_micro_allocator.cc ****           /*count=*/recording_memory_allocator_->GetAllocatedCount()};
 2125              		.loc 2 216 0
 2126 001c 1C0094E5 		ldr	r0, [r4, #28]
 2127 0020 FEFFFFEB 		bl	_ZNK6tflite30RecordingSimpleMemoryAllocator12GetUsedBytesEv
 2128              	.LVL222:
 2129 0024 0070A0E1 		mov	r7, r0
 217:../src/tensorflow_lite/tensorflow/lite/micro/recording_micro_allocator.cc **** }
 2130              		.loc 2 217 0
 2131 0028 1C0094E5 		ldr	r0, [r4, #28]
 2132 002c FEFFFFEB 		bl	_ZNK6tflite30RecordingSimpleMemoryAllocator17GetAllocatedCountEv
 2133              	.LVL223:
 2134              	.LBE721:
 2135              	.LBE723:
 183:../src/tensorflow_lite/tensorflow/lite/micro/recording_micro_allocator.cc **** 
 2136              		.loc 2 183 0
 2137 0030 0610A0E1 		mov	r1, r6
 2138 0034 0920A0E1 		mov	r2, r9
 2139              	.LBB724:
 2140              	.LBB722:
 217:../src/tensorflow_lite/tensorflow/lite/micro/recording_micro_allocator.cc **** }
 2141              		.loc 2 217 0
 2142 0038 0050A0E1 		mov	r5, r0
 2143              	.LVL224:
 2144              	.LBE722:
 2145              	.LBE724:
 183:../src/tensorflow_lite/tensorflow/lite/micro/recording_micro_allocator.cc **** 
 2146              		.loc 2 183 0
 2147 003c 0400A0E1 		mov	r0, r4
 2148 0040 FEFFFFEB 		bl	_ZN6tflite14MicroAllocator17AllocateVariablesEPKNS_8SubGraphEP16TfLiteEvalTensor
 2149              	.LVL225:
 2150 0044 0060A0E1 		mov	r6, r0
 2151              	.LVL226:
 2152              	.LBB725:
 2153              	.LBB726:
 224:../src/tensorflow_lite/tensorflow/lite/micro/recording_micro_allocator.cc ****       snapshotted_allocation.requested_bytes;
 2154              		.loc 2 224 0
 2155 0048 1C0094E5 		ldr	r0, [r4, #28]
 2156 004c FEFFFFEB 		bl	_ZNK6tflite30RecordingSimpleMemoryAllocator17GetRequestedBytesEv
 2157              	.LVL227:
 225:../src/tensorflow_lite/tensorflow/lite/micro/recording_micro_allocator.cc ****   recorded_allocation.used_bytes +=
 2158              		.loc 2 225 0
 2159 0050 502094E5 		ldr	r2, [r4, #80]
 2160 0054 022080E0 		add	r2, r0, r2
 227:../src/tensorflow_lite/tensorflow/lite/micro/recording_micro_allocator.cc ****       snapshotted_allocation.used_bytes;
 2161              		.loc 2 227 0
 2162 0058 1C0094E5 		ldr	r0, [r4, #28]
 225:../src/tensorflow_lite/tensorflow/lite/micro/recording_micro_allocator.cc ****   recorded_allocation.used_bytes +=
 2163              		.loc 2 225 0
 2164 005c 082042E0 		sub	r2, r2, r8
 223:../src/tensorflow_lite/tensorflow/lite/micro/recording_micro_allocator.cc ****       recording_memory_allocator_->GetRequestedBytes() -
 2165              		.loc 2 223 0
 2166 0060 502084E5 		str	r2, [r4, #80]
 227:../src/tensorflow_lite/tensorflow/lite/micro/recording_micro_allocator.cc ****       snapshotted_allocation.used_bytes;
 2167              		.loc 2 227 0
 2168 0064 FEFFFFEB 		bl	_ZNK6tflite30RecordingSimpleMemoryAllocator12GetUsedBytesEv
 2169              	.LVL228:
 228:../src/tensorflow_lite/tensorflow/lite/micro/recording_micro_allocator.cc ****   recorded_allocation.count +=
 2170              		.loc 2 228 0
 2171 0068 542094E5 		ldr	r2, [r4, #84]
 2172 006c 022080E0 		add	r2, r0, r2
 230:../src/tensorflow_lite/tensorflow/lite/micro/recording_micro_allocator.cc ****       snapshotted_allocation.count;
 2173              		.loc 2 230 0
 2174 0070 1C0094E5 		ldr	r0, [r4, #28]
 228:../src/tensorflow_lite/tensorflow/lite/micro/recording_micro_allocator.cc ****   recorded_allocation.count +=
 2175              		.loc 2 228 0
 2176 0074 072042E0 		sub	r2, r2, r7
 226:../src/tensorflow_lite/tensorflow/lite/micro/recording_micro_allocator.cc ****       recording_memory_allocator_->GetUsedBytes() -
 2177              		.loc 2 226 0
 2178 0078 542084E5 		str	r2, [r4, #84]
 230:../src/tensorflow_lite/tensorflow/lite/micro/recording_micro_allocator.cc ****       snapshotted_allocation.count;
 2179              		.loc 2 230 0
 2180 007c FEFFFFEB 		bl	_ZNK6tflite30RecordingSimpleMemoryAllocator17GetAllocatedCountEv
 2181              	.LVL229:
 2182              		.loc 2 231 0
 2183 0080 583094E5 		ldr	r3, [r4, #88]
 2184 0084 033080E0 		add	r3, r0, r3
 2185              	.LBE726:
 2186              	.LBE725:
 188:../src/tensorflow_lite/tensorflow/lite/micro/recording_micro_allocator.cc **** 
 2187              		.loc 2 188 0
 2188 0088 0600A0E1 		mov	r0, r6
 2189              	.LBB728:
 2190              	.LBB727:
 2191              		.loc 2 231 0
 2192 008c 053043E0 		sub	r3, r3, r5
 229:../src/tensorflow_lite/tensorflow/lite/micro/recording_micro_allocator.cc ****       recording_memory_allocator_->GetAllocatedCount() -
 2193              		.loc 2 229 0
 2194 0090 583084E5 		str	r3, [r4, #88]
 2195              	.LVL230:
 2196              	.LBE727:
 2197              	.LBE728:
 188:../src/tensorflow_lite/tensorflow/lite/micro/recording_micro_allocator.cc **** 
 2198              		.loc 2 188 0
 2199 0094 F087BDE8 		pop	{r4, r5, r6, r7, r8, r9, r10, pc}
 2200              		.cfi_endproc
 2201              	.LFE6518:
 2202              		.fnend
 2204              		.section	.text._ZN6tflite23RecordingMicroAllocator38AllocatePersistentTfLiteTensorInternalEv,"ax",
 2205              		.align	2
 2206              		.global	_ZN6tflite23RecordingMicroAllocator38AllocatePersistentTfLiteTensorInternalEv
 2207              		.syntax unified
 2208              		.arm
 2209              		.fpu neon
 2211              	_ZN6tflite23RecordingMicroAllocator38AllocatePersistentTfLiteTensorInternalEv:
 2212              		.fnstart
 2213              	.LFB6519:
 191:../src/tensorflow_lite/tensorflow/lite/micro/recording_micro_allocator.cc ****   RecordedAllocation allocations = SnapshotAllocationUsage();
 2214              		.loc 2 191 0
 2215              		.cfi_startproc
 2216              		@ args = 0, pretend = 0, frame = 0
 2217              		@ frame_needed = 0, uses_anonymous_args = 0
 2218              	.LVL231:
 2219 0000 F0412DE9 		push	{r4, r5, r6, r7, r8, lr}
 2220              		.save {r4, r5, r6, r7, r8, lr}
 2221              		.cfi_def_cfa_offset 24
 2222              		.cfi_offset 4, -24
 2223              		.cfi_offset 5, -20
 2224              		.cfi_offset 6, -16
 2225              		.cfi_offset 7, -12
 2226              		.cfi_offset 8, -8
 2227              		.cfi_offset 14, -4
 191:../src/tensorflow_lite/tensorflow/lite/micro/recording_micro_allocator.cc ****   RecordedAllocation allocations = SnapshotAllocationUsage();
 2228              		.loc 2 191 0
 2229 0004 0040A0E1 		mov	r4, r0
 2230              	.LVL232:
 2231              	.LBB733:
 2232              	.LBB734:
 215:../src/tensorflow_lite/tensorflow/lite/micro/recording_micro_allocator.cc ****           /*used_bytes=*/recording_memory_allocator_->GetUsedBytes(),
 2233              		.loc 2 215 0
 2234 0008 1C0090E5 		ldr	r0, [r0, #28]
 2235              	.LVL233:
 2236 000c FEFFFFEB 		bl	_ZNK6tflite30RecordingSimpleMemoryAllocator17GetRequestedBytesEv
 2237              	.LVL234:
 2238 0010 0080A0E1 		mov	r8, r0
 216:../src/tensorflow_lite/tensorflow/lite/micro/recording_micro_allocator.cc ****           /*count=*/recording_memory_allocator_->GetAllocatedCount()};
 2239              		.loc 2 216 0
 2240 0014 1C0094E5 		ldr	r0, [r4, #28]
 2241 0018 FEFFFFEB 		bl	_ZNK6tflite30RecordingSimpleMemoryAllocator12GetUsedBytesEv
 2242              	.LVL235:
 2243 001c 0070A0E1 		mov	r7, r0
 217:../src/tensorflow_lite/tensorflow/lite/micro/recording_micro_allocator.cc **** }
 2244              		.loc 2 217 0
 2245 0020 1C0094E5 		ldr	r0, [r4, #28]
 2246 0024 FEFFFFEB 		bl	_ZNK6tflite30RecordingSimpleMemoryAllocator17GetAllocatedCountEv
 2247              	.LVL236:
 2248 0028 0050A0E1 		mov	r5, r0
 2249              	.LVL237:
 2250              	.LBE734:
 2251              	.LBE733:
 195:../src/tensorflow_lite/tensorflow/lite/micro/recording_micro_allocator.cc **** 
 2252              		.loc 2 195 0
 2253 002c 0400A0E1 		mov	r0, r4
 2254 0030 FEFFFFEB 		bl	_ZN6tflite14MicroAllocator38AllocatePersistentTfLiteTensorInternalEv
 2255              	.LVL238:
 2256 0034 0060A0E1 		mov	r6, r0
 2257              	.LVL239:
 2258              	.LBB735:
 2259              	.LBB736:
 224:../src/tensorflow_lite/tensorflow/lite/micro/recording_micro_allocator.cc ****       snapshotted_allocation.requested_bytes;
 2260              		.loc 2 224 0
 2261 0038 1C0094E5 		ldr	r0, [r4, #28]
 2262              	.LVL240:
 2263 003c FEFFFFEB 		bl	_ZNK6tflite30RecordingSimpleMemoryAllocator17GetRequestedBytesEv
 2264              	.LVL241:
 225:../src/tensorflow_lite/tensorflow/lite/micro/recording_micro_allocator.cc ****   recorded_allocation.used_bytes +=
 2265              		.loc 2 225 0
 2266 0040 2C1094E5 		ldr	r1, [r4, #44]
 2267 0044 011080E0 		add	r1, r0, r1
 227:../src/tensorflow_lite/tensorflow/lite/micro/recording_micro_allocator.cc ****       snapshotted_allocation.used_bytes;
 2268              		.loc 2 227 0
 2269 0048 1C0094E5 		ldr	r0, [r4, #28]
 225:../src/tensorflow_lite/tensorflow/lite/micro/recording_micro_allocator.cc ****   recorded_allocation.used_bytes +=
 2270              		.loc 2 225 0
 2271 004c 081041E0 		sub	r1, r1, r8
 223:../src/tensorflow_lite/tensorflow/lite/micro/recording_micro_allocator.cc ****       recording_memory_allocator_->GetRequestedBytes() -
 2272              		.loc 2 223 0
 2273 0050 2C1084E5 		str	r1, [r4, #44]
 227:../src/tensorflow_lite/tensorflow/lite/micro/recording_micro_allocator.cc ****       snapshotted_allocation.used_bytes;
 2274              		.loc 2 227 0
 2275 0054 FEFFFFEB 		bl	_ZNK6tflite30RecordingSimpleMemoryAllocator12GetUsedBytesEv
 2276              	.LVL242:
 228:../src/tensorflow_lite/tensorflow/lite/micro/recording_micro_allocator.cc ****   recorded_allocation.count +=
 2277              		.loc 2 228 0
 2278 0058 302094E5 		ldr	r2, [r4, #48]
 2279 005c 022080E0 		add	r2, r0, r2
 230:../src/tensorflow_lite/tensorflow/lite/micro/recording_micro_allocator.cc ****       snapshotted_allocation.count;
 2280              		.loc 2 230 0
 2281 0060 1C0094E5 		ldr	r0, [r4, #28]
 228:../src/tensorflow_lite/tensorflow/lite/micro/recording_micro_allocator.cc ****   recorded_allocation.count +=
 2282              		.loc 2 228 0
 2283 0064 072042E0 		sub	r2, r2, r7
 226:../src/tensorflow_lite/tensorflow/lite/micro/recording_micro_allocator.cc ****       recording_memory_allocator_->GetUsedBytes() -
 2284              		.loc 2 226 0
 2285 0068 302084E5 		str	r2, [r4, #48]
 230:../src/tensorflow_lite/tensorflow/lite/micro/recording_micro_allocator.cc ****       snapshotted_allocation.count;
 2286              		.loc 2 230 0
 2287 006c FEFFFFEB 		bl	_ZNK6tflite30RecordingSimpleMemoryAllocator17GetAllocatedCountEv
 2288              	.LVL243:
 2289              		.loc 2 231 0
 2290 0070 343094E5 		ldr	r3, [r4, #52]
 2291 0074 033080E0 		add	r3, r0, r3
 2292              	.LBE736:
 2293              	.LBE735:
 199:../src/tensorflow_lite/tensorflow/lite/micro/recording_micro_allocator.cc **** 
 2294              		.loc 2 199 0
 2295 0078 0600A0E1 		mov	r0, r6
 2296              	.LBB738:
 2297              	.LBB737:
 2298              		.loc 2 231 0
 2299 007c 053043E0 		sub	r3, r3, r5
 229:../src/tensorflow_lite/tensorflow/lite/micro/recording_micro_allocator.cc ****       recording_memory_allocator_->GetAllocatedCount() -
 2300              		.loc 2 229 0
 2301 0080 343084E5 		str	r3, [r4, #52]
 2302              	.LVL244:
 2303              	.LBE737:
 2304              	.LBE738:
 199:../src/tensorflow_lite/tensorflow/lite/micro/recording_micro_allocator.cc **** 
 2305              		.loc 2 199 0
 2306 0084 F081BDE8 		pop	{r4, r5, r6, r7, r8, pc}
 2307              		.cfi_endproc
 2308              	.LFE6519:
 2309              		.fnend
 2311              		.section	.text._ZN6tflite23RecordingMicroAllocator34PopulateTfLiteTensorFromFlatbufferEPKNS_5Model
 2312              		.align	2
 2313              		.global	_ZN6tflite23RecordingMicroAllocator34PopulateTfLiteTensorFromFlatbufferEPKNS_5ModelEP12TfL
 2314              		.syntax unified
 2315              		.arm
 2316              		.fpu neon
 2318              	_ZN6tflite23RecordingMicroAllocator34PopulateTfLiteTensorFromFlatbufferEPKNS_5ModelEP12TfLiteTensor
 2319              		.fnstart
 2320              	.LFB6520:
 203:../src/tensorflow_lite/tensorflow/lite/micro/recording_micro_allocator.cc ****   RecordedAllocation allocations = SnapshotAllocationUsage();
 2321              		.loc 2 203 0
 2322              		.cfi_startproc
 2323              		@ args = 8, pretend = 0, frame = 0
 2324              		@ frame_needed = 0, uses_anonymous_args = 0
 2325              	.LVL245:
 2326 0000 F04F2DE9 		push	{r4, r5, r6, r7, r8, r9, r10, fp, lr}
 2327              		.save {r4, r5, r6, r7, r8, r9, r10, fp, lr}
 2328              		.cfi_def_cfa_offset 36
 2329              		.cfi_offset 4, -36
 2330              		.cfi_offset 5, -32
 2331              		.cfi_offset 6, -28
 2332              		.cfi_offset 7, -24
 2333              		.cfi_offset 8, -20
 2334              		.cfi_offset 9, -16
 2335              		.cfi_offset 10, -12
 2336              		.cfi_offset 11, -8
 2337              		.cfi_offset 14, -4
 2338 0004 0040A0E1 		mov	r4, r0
 2339              	.LVL246:
 2340              		.pad #12
 2341 0008 0CD04DE2 		sub	sp, sp, #12
 2342              		.cfi_def_cfa_offset 48
 2343              	.LBB743:
 2344              	.LBB744:
 215:../src/tensorflow_lite/tensorflow/lite/micro/recording_micro_allocator.cc ****           /*used_bytes=*/recording_memory_allocator_->GetUsedBytes(),
 2345              		.loc 2 215 0
 2346 000c 1C0090E5 		ldr	r0, [r0, #28]
 2347              	.LVL247:
 2348              	.LBE744:
 2349              	.LBE743:
 203:../src/tensorflow_lite/tensorflow/lite/micro/recording_micro_allocator.cc ****   RecordedAllocation allocations = SnapshotAllocationUsage();
 2350              		.loc 2 203 0
 2351 0010 0290A0E1 		mov	r9, r2
 2352 0014 0160A0E1 		mov	r6, r1
 2353 0018 03B0A0E1 		mov	fp, r3
 2354 001c 34A0DDE5 		ldrb	r10, [sp, #52]	@ zero_extendqisi2
 2355              	.LBB747:
 2356              	.LBB745:
 215:../src/tensorflow_lite/tensorflow/lite/micro/recording_micro_allocator.cc ****           /*used_bytes=*/recording_memory_allocator_->GetUsedBytes(),
 2357              		.loc 2 215 0
 2358 0020 FEFFFFEB 		bl	_ZNK6tflite30RecordingSimpleMemoryAllocator17GetRequestedBytesEv
 2359              	.LVL248:
 2360 0024 0080A0E1 		mov	r8, r0
 216:../src/tensorflow_lite/tensorflow/lite/micro/recording_micro_allocator.cc ****           /*count=*/recording_memory_allocator_->GetAllocatedCount()};
 2361              		.loc 2 216 0
 2362 0028 1C0094E5 		ldr	r0, [r4, #28]
 2363 002c FEFFFFEB 		bl	_ZNK6tflite30RecordingSimpleMemoryAllocator12GetUsedBytesEv
 2364              	.LVL249:
 2365 0030 0070A0E1 		mov	r7, r0
 217:../src/tensorflow_lite/tensorflow/lite/micro/recording_micro_allocator.cc **** }
 2366              		.loc 2 217 0
 2367 0034 1C0094E5 		ldr	r0, [r4, #28]
 2368 0038 FEFFFFEB 		bl	_ZNK6tflite30RecordingSimpleMemoryAllocator17GetAllocatedCountEv
 2369              	.LVL250:
 2370              	.LBE745:
 2371              	.LBE747:
 207:../src/tensorflow_lite/tensorflow/lite/micro/recording_micro_allocator.cc **** 
 2372              		.loc 2 207 0
 2373 003c 30209DE5 		ldr	r2, [sp, #48]
 2374 0040 0610A0E1 		mov	r1, r6
 2375 0044 0B30A0E1 		mov	r3, fp
 2376              	.LBB748:
 2377              	.LBB746:
 217:../src/tensorflow_lite/tensorflow/lite/micro/recording_micro_allocator.cc **** }
 2378              		.loc 2 217 0
 2379 0048 0050A0E1 		mov	r5, r0
 2380              	.LVL251:
 2381              	.LBE746:
 2382              	.LBE748:
 207:../src/tensorflow_lite/tensorflow/lite/micro/recording_micro_allocator.cc **** 
 2383              		.loc 2 207 0
 2384 004c 04A08DE5 		str	r10, [sp, #4]
 2385 0050 0400A0E1 		mov	r0, r4
 2386 0054 00208DE5 		str	r2, [sp]
 2387 0058 0920A0E1 		mov	r2, r9
 2388 005c FEFFFFEB 		bl	_ZN6tflite14MicroAllocator34PopulateTfLiteTensorFromFlatbufferEPKNS_5ModelEP12TfLiteTensoriib
 2389              	.LVL252:
 2390 0060 0060A0E1 		mov	r6, r0
 2391              	.LVL253:
 2392              	.LBB749:
 2393              	.LBB750:
 224:../src/tensorflow_lite/tensorflow/lite/micro/recording_micro_allocator.cc ****       snapshotted_allocation.requested_bytes;
 2394              		.loc 2 224 0
 2395 0064 1C0094E5 		ldr	r0, [r4, #28]
 2396 0068 FEFFFFEB 		bl	_ZNK6tflite30RecordingSimpleMemoryAllocator17GetRequestedBytesEv
 2397              	.LVL254:
 225:../src/tensorflow_lite/tensorflow/lite/micro/recording_micro_allocator.cc ****   recorded_allocation.used_bytes +=
 2398              		.loc 2 225 0
 2399 006c 383094E5 		ldr	r3, [r4, #56]
 2400 0070 033080E0 		add	r3, r0, r3
 227:../src/tensorflow_lite/tensorflow/lite/micro/recording_micro_allocator.cc ****       snapshotted_allocation.used_bytes;
 2401              		.loc 2 227 0
 2402 0074 1C0094E5 		ldr	r0, [r4, #28]
 225:../src/tensorflow_lite/tensorflow/lite/micro/recording_micro_allocator.cc ****   recorded_allocation.used_bytes +=
 2403              		.loc 2 225 0
 2404 0078 083043E0 		sub	r3, r3, r8
 223:../src/tensorflow_lite/tensorflow/lite/micro/recording_micro_allocator.cc ****       recording_memory_allocator_->GetRequestedBytes() -
 2405              		.loc 2 223 0
 2406 007c 383084E5 		str	r3, [r4, #56]
 227:../src/tensorflow_lite/tensorflow/lite/micro/recording_micro_allocator.cc ****       snapshotted_allocation.used_bytes;
 2407              		.loc 2 227 0
 2408 0080 FEFFFFEB 		bl	_ZNK6tflite30RecordingSimpleMemoryAllocator12GetUsedBytesEv
 2409              	.LVL255:
 228:../src/tensorflow_lite/tensorflow/lite/micro/recording_micro_allocator.cc ****   recorded_allocation.count +=
 2410              		.loc 2 228 0
 2411 0084 3C3094E5 		ldr	r3, [r4, #60]
 2412 0088 033080E0 		add	r3, r0, r3
 230:../src/tensorflow_lite/tensorflow/lite/micro/recording_micro_allocator.cc ****       snapshotted_allocation.count;
 2413              		.loc 2 230 0
 2414 008c 1C0094E5 		ldr	r0, [r4, #28]
 228:../src/tensorflow_lite/tensorflow/lite/micro/recording_micro_allocator.cc ****   recorded_allocation.count +=
 2415              		.loc 2 228 0
 2416 0090 073043E0 		sub	r3, r3, r7
 226:../src/tensorflow_lite/tensorflow/lite/micro/recording_micro_allocator.cc ****       recording_memory_allocator_->GetUsedBytes() -
 2417              		.loc 2 226 0
 2418 0094 3C3084E5 		str	r3, [r4, #60]
 230:../src/tensorflow_lite/tensorflow/lite/micro/recording_micro_allocator.cc ****       snapshotted_allocation.count;
 2419              		.loc 2 230 0
 2420 0098 FEFFFFEB 		bl	_ZNK6tflite30RecordingSimpleMemoryAllocator17GetAllocatedCountEv
 2421              	.LVL256:
 2422              		.loc 2 231 0
 2423 009c 403094E5 		ldr	r3, [r4, #64]
 2424 00a0 033080E0 		add	r3, r0, r3
 2425              	.LBE750:
 2426              	.LBE749:
 212:../src/tensorflow_lite/tensorflow/lite/micro/recording_micro_allocator.cc **** 
 2427              		.loc 2 212 0
 2428 00a4 0600A0E1 		mov	r0, r6
 2429              	.LBB752:
 2430              	.LBB751:
 2431              		.loc 2 231 0
 2432 00a8 053043E0 		sub	r3, r3, r5
 229:../src/tensorflow_lite/tensorflow/lite/micro/recording_micro_allocator.cc ****       recording_memory_allocator_->GetAllocatedCount() -
 2433              		.loc 2 229 0
 2434 00ac 403084E5 		str	r3, [r4, #64]
 2435              	.LVL257:
 2436              	.LBE751:
 2437              	.LBE752:
 212:../src/tensorflow_lite/tensorflow/lite/micro/recording_micro_allocator.cc **** 
 2438              		.loc 2 212 0
 2439 00b0 0CD08DE2 		add	sp, sp, #12
 2440              		.cfi_def_cfa_offset 36
 2441              		@ sp needed
 2442 00b4 F08FBDE8 		pop	{r4, r5, r6, r7, r8, r9, r10, fp, pc}
 2443              		.cfi_endproc
 2444              	.LFE6520:
 2445              		.fnend
 2447              		.global	_ZTSN6tflite23RecordingMicroAllocatorE
 2448              		.global	_ZTIN6tflite23RecordingMicroAllocatorE
 2449              		.global	_ZTVN6tflite23RecordingMicroAllocatorE
 2450              		.weak	_ZN11flatbuffers25flatbuffer_version_stringE
 2451              		.section	.data._ZN11flatbuffers25flatbuffer_version_stringE,"aw",%progbits
 2452              		.align	2
 2455              	_ZN11flatbuffers25flatbuffer_version_stringE:
 2456 0000 00000000 		.word	.LC18
 2457              		.section	.rodata._ZN6tflite23RecordingMicroAllocator28AllocateNodeAndRegistrationsEPKNS_5ModelEPNS
 2458              		.align	2
 2459              	.LC16:
 2460 0000 69203C20 		.ascii	"i < size()\000"
 2460      73697A65 
 2460      282900
 2461 000b 00       		.space	1
 2462              	.LC17:
 2463 000c 433A2F52 		.ascii	"C:/Renesas/e2studio_2021_01_workspace_RZA2M_ANPR/AN"
 2463      656E6573 
 2463      61732F65 
 2463      32737475 
 2463      64696F5F 
 2464 003f 50525F52 		.ascii	"PR_RZA2M_GR_MANGO/src/tensorflow_lite/third_party/f"
 2464      5A41324D 
 2464      5F47525F 
 2464      4D414E47 
 2464      4F2F7372 
 2465 0072 6C617462 		.ascii	"latbuffers/include/flatbuffers/flatbuffers.h\000"
 2465      75666665 
 2465      72732F69 
 2465      6E636C75 
 2465      64652F66 
 2466              		.section	.rodata._ZNK6tflite23RecordingMicroAllocator16PrintAllocationsEv.str1.4,"aMS",%progbits,1
 2467              		.align	2
 2468              	.LC1:
 2469 0000 5B526563 		.ascii	"[RecordingMicroAllocator] Arena allocation total %d"
 2469      6F726469 
 2469      6E674D69 
 2469      63726F41 
 2469      6C6C6F63 
 2470 0033 20627974 		.ascii	" bytes\000"
 2470      657300
 2471 003a 0000     		.space	2
 2472              	.LC2:
 2473 003c 5B526563 		.ascii	"[RecordingMicroAllocator] Arena allocation head %d "
 2473      6F726469 
 2473      6E674D69 
 2473      63726F41 
 2473      6C6C6F63 
 2474 006f 62797465 		.ascii	"bytes\000"
 2474      7300
 2475 0075 000000   		.space	3
 2476              	.LC3:
 2477 0078 5B526563 		.ascii	"[RecordingMicroAllocator] Arena allocation tail %d "
 2477      6F726469 
 2477      6E674D69 
 2477      63726F41 
 2477      6C6C6F63 
 2478 00ab 62797465 		.ascii	"bytes\000"
 2478      7300
 2479 00b1 000000   		.space	3
 2480              	.LC4:
 2481 00b4 54664C69 		.ascii	"TfLiteEvalTensor data\000"
 2481      74654576 
 2481      616C5465 
 2481      6E736F72 
 2481      20646174 
 2482 00ca 0000     		.space	2
 2483              	.LC5:
 2484 00cc 5B526563 		.ascii	"[RecordingMicroAllocator] '%s' used %d bytes with a"
 2484      6F726469 
 2484      6E674D69 
 2484      63726F41 
 2484      6C6C6F63 
 2485 00ff 6C69676E 		.ascii	"lignment overhead (requested %d bytes for %d %s)\000"
 2485      6D656E74 
 2485      206F7665 
 2485      72686561 
 2485      64202872 
 2486              	.LC6:
 2487 0130 616C6C6F 		.ascii	"allocations\000"
 2487      63617469 
 2487      6F6E7300 
 2488              	.LC7:
 2489 013c 50657273 		.ascii	"Persistent TfLiteTensor data\000"
 2489      69737465 
 2489      6E742054 
 2489      664C6974 
 2489      6554656E 
 2490 0159 000000   		.space	3
 2491              	.LC8:
 2492 015c 74656E73 		.ascii	"tensors\000"
 2492      6F727300 
 2493              	.LC9:
 2494 0164 50657273 		.ascii	"Persistent TfLiteTensor quantization data\000"
 2494      69737465 
 2494      6E742054 
 2494      664C6974 
 2494      6554656E 
 2495 018e 0000     		.space	2
 2496              	.LC10:
 2497 0190 50657273 		.ascii	"Persistent buffer data\000"
 2497      69737465 
 2497      6E742062 
 2497      75666665 
 2497      72206461 
 2498 01a7 00       		.space	1
 2499              	.LC11:
 2500 01a8 54664C69 		.ascii	"TfLiteTensor variable buffer data\000"
 2500      74655465 
 2500      6E736F72 
 2500      20766172 
 2500      6961626C 
 2501 01ca 0000     		.space	2
 2502              	.LC12:
 2503 01cc 4E6F6465 		.ascii	"NodeAndRegistration struct\000"
 2503      416E6452 
 2503      65676973 
 2503      74726174 
 2503      696F6E20 
 2504 01e7 00       		.space	1
 2505              	.LC13:
 2506 01e8 4E6F6465 		.ascii	"NodeAndRegistration structs\000"
 2506      416E6452 
 2506      65676973 
 2506      74726174 
 2506      696F6E20 
 2507              	.LC14:
 2508 0204 4F706572 		.ascii	"Operator runtime data\000"
 2508      61746F72 
 2508      2072756E 
 2508      74696D65 
 2508      20646174 
 2509 021a 0000     		.space	2
 2510              	.LC15:
 2511 021c 4F704461 		.ascii	"OpData structs\000"
 2511      74612073 
 2511      74727563 
 2511      747300
 2512              		.section	.rodata._ZNK6tflite23RecordingMicroAllocator21GetRecordedAllocationENS_22RecordedAllocati
 2513              		.align	2
 2514              	.LC0:
 2515 0000 496E7661 		.ascii	"Invalid allocation type supplied: %d\000"
 2515      6C696420 
 2515      616C6C6F 
 2515      63617469 
 2515      6F6E2074 
 2516              		.section	.rodata._ZTIN6tflite23RecordingMicroAllocatorE,"a",%progbits
 2517              		.align	2
 2520              	_ZTIN6tflite23RecordingMicroAllocatorE:
 2521 0000 08000000 		.word	_ZTVN10__cxxabiv120__si_class_type_infoE+8
 2522 0004 00000000 		.word	_ZTSN6tflite23RecordingMicroAllocatorE
 2523 0008 00000000 		.word	_ZTIN6tflite14MicroAllocatorE
 2524              		.section	.rodata._ZTSN6tflite23RecordingMicroAllocatorE,"a",%progbits
 2525              		.align	3
 2528              	_ZTSN6tflite23RecordingMicroAllocatorE:
 2529 0000 4E367466 		.ascii	"N6tflite23RecordingMicroAllocatorE\000"
 2529      6C697465 
 2529      32335265 
 2529      636F7264 
 2529      696E674D 
 2530              		.section	.rodata._ZTVN6tflite23RecordingMicroAllocatorE,"a",%progbits
 2531              		.align	3
 2532              		.set	.LANCHOR0,. + 0
 2535              	_ZTVN6tflite23RecordingMicroAllocatorE:
 2536 0000 00000000 		.word	0
 2537 0004 00000000 		.word	_ZTIN6tflite23RecordingMicroAllocatorE
 2538 0008 00000000 		.word	_ZN6tflite14MicroAllocator30AllocatePersistentTfLiteTensorEPKNS_5ModelEPKNS_19SubgraphAlloca
 2539 000c 00000000 		.word	_ZN6tflite14MicroAllocator24AllocateTempTfLiteTensorEPKNS_5ModelEPKNS_19SubgraphAllocationsE
 2540 0010 00000000 		.word	_ZN6tflite14MicroAllocator20ResetTempAllocationsEv
 2541 0014 00000000 		.word	_ZN6tflite23RecordingMicroAllocator24AllocatePersistentBufferEj
 2542 0018 00000000 		.word	_ZN6tflite23RecordingMicroAllocatorD1Ev
 2543 001c 00000000 		.word	_ZN6tflite23RecordingMicroAllocatorD0Ev
 2544 0020 00000000 		.word	_ZN6tflite23RecordingMicroAllocator28AllocateNodeAndRegistrationsEPKNS_5ModelEPNS_19Subgraph
 2545 0024 00000000 		.word	_ZN6tflite23RecordingMicroAllocator25AllocateTfLiteEvalTensorsEPKNS_5ModelEPNS_19SubgraphAll
 2546 0028 00000000 		.word	_ZN6tflite23RecordingMicroAllocator17AllocateVariablesEPKNS_8SubGraphEP16TfLiteEvalTensor
 2547 002c 00000000 		.word	_ZN6tflite23RecordingMicroAllocator38AllocatePersistentTfLiteTensorInternalEv
 2548 0030 00000000 		.word	_ZN6tflite23RecordingMicroAllocator34PopulateTfLiteTensorFromFlatbufferEPKNS_5ModelEP12TfLit
 2549 0034 00000000 		.word	_ZN6tflite14MicroAllocator22CommitStaticMemoryPlanEPKNS_5ModelEP16TfLiteEvalTensorPNS_19Scra
 2550 0038 00000000 		.word	_ZN6tflite14MicroAllocator28AllocateScratchBufferHandlesEPPNS_19ScratchBufferHandleEj
 2551              		.section	.rodata._ZZNK11flatbuffers6VectorINS_6OffsetIN6tflite8SubGraphEEEE3GetEmE19__PRETTY_FUNCT
 2552              		.align	3
 2553              		.set	.LANCHOR1,. + 0
 2556              	_ZZNK11flatbuffers6VectorINS_6OffsetIN6tflite8SubGraphEEEE3GetEmE19__PRETTY_FUNCTION__:
 2557 0000 666C6174 		.ascii	"flatbuffers::Vector<T>::return_type flatbuffers::Ve"
 2557      62756666 
 2557      6572733A 
 2557      3A566563 
 2557      746F723C 
 2558 0033 63746F72 		.ascii	"ctor<T>::Get(flatbuffers::uoffset_t) const [with T "
 2558      3C543E3A 
 2558      3A476574 
 2558      28666C61 
 2558      74627566 
 2559 0066 3D20666C 		.ascii	"= flatbuffers::Offset<tflite::SubGraph>; flatbuffer"
 2559      61746275 
 2559      66666572 
 2559      733A3A4F 
 2559      66667365 
 2560 0099 733A3A56 		.ascii	"s::Vector<T>::return_type = const tflite::SubGraph*"
 2560      6563746F 
 2560      723C543E 
 2560      3A3A7265 
 2560      7475726E 
 2561 00cc 3B20666C 		.ascii	"; flatbuffers::uoffset_t = long unsigned int]\000"
 2561      61746275 
 2561      66666572 
 2561      733A3A75 
 2561      6F666673 
 2562              		.section	.rodata.str1.4,"aMS",%progbits,1
 2563              		.align	2
 2564              	.LC18:
 2565 0000 466C6174 		.ascii	"FlatBuffers 1.12.0\000"
 2565      42756666 
 2565      65727320 
 2565      312E3132 
 2565      2E3000
 2566              		.text
 2567              	.Letext0:
 2568              		.file 5 "c:\\program files (x86)\\gnu tools arm embedded\\6 2017-q2-update\\arm-none-eabi\\include
 2569              		.file 6 "c:\\program files (x86)\\gnu tools arm embedded\\6 2017-q2-update\\arm-none-eabi\\include
 2570              		.file 7 "c:\\program files (x86)\\gnu tools arm embedded\\6 2017-q2-update\\arm-none-eabi\\include
 2571              		.file 8 "c:\\program files (x86)\\gnu tools arm embedded\\6 2017-q2-update\\arm-none-eabi\\include
 2572              		.file 9 "c:\\program files (x86)\\gnu tools arm embedded\\6 2017-q2-update\\arm-none-eabi\\include
 2573              		.file 10 "c:\\program files (x86)\\gnu tools arm embedded\\6 2017-q2-update\\arm-none-eabi\\includ
 2574              		.file 11 "c:\\program files (x86)\\gnu tools arm embedded\\6 2017-q2-update\\arm-none-eabi\\includ
 2575              		.file 12 "c:\\program files (x86)\\gnu tools arm embedded\\6 2017-q2-update\\arm-none-eabi\\includ
 2576              		.file 13 "c:\\program files (x86)\\gnu tools arm embedded\\6 2017-q2-update\\arm-none-eabi\\includ
 2577              		.file 14 "c:\\program files (x86)\\gnu tools arm embedded\\6 2017-q2-update\\arm-none-eabi\\includ
 2578              		.file 15 "c:\\program files (x86)\\gnu tools arm embedded\\6 2017-q2-update\\arm-none-eabi\\includ
 2579              		.file 16 "c:\\program files (x86)\\gnu tools arm embedded\\6 2017-q2-update\\arm-none-eabi\\includ
 2580              		.file 17 "c:\\program files (x86)\\gnu tools arm embedded\\6 2017-q2-update\\arm-none-eabi\\includ
 2581              		.file 18 "c:\\program files (x86)\\gnu tools arm embedded\\6 2017-q2-update\\arm-none-eabi\\includ
 2582              		.file 19 "c:\\program files (x86)\\gnu tools arm embedded\\6 2017-q2-update\\arm-none-eabi\\includ
 2583              		.file 20 "c:\\program files (x86)\\gnu tools arm embedded\\6 2017-q2-update\\arm-none-eabi\\includ
 2584              		.file 21 "c:\\program files (x86)\\gnu tools arm embedded\\6 2017-q2-update\\arm-none-eabi\\includ
 2585              		.file 22 "c:\\program files (x86)\\gnu tools arm embedded\\6 2017-q2-update\\arm-none-eabi\\includ
 2586              		.file 23 "c:\\program files (x86)\\gnu tools arm embedded\\6 2017-q2-update\\arm-none-eabi\\includ
 2587              		.file 24 "c:\\program files (x86)\\gnu tools arm embedded\\6 2017-q2-update\\arm-none-eabi\\includ
 2588              		.file 25 "c:\\program files (x86)\\gnu tools arm embedded\\6 2017-q2-update\\arm-none-eabi\\includ
 2589              		.file 26 "c:\\program files (x86)\\gnu tools arm embedded\\6 2017-q2-update\\arm-none-eabi\\includ
 2590              		.file 27 "c:\\program files (x86)\\gnu tools arm embedded\\6 2017-q2-update\\arm-none-eabi\\includ
 2591              		.file 28 "c:\\program files (x86)\\gnu tools arm embedded\\6 2017-q2-update\\arm-none-eabi\\includ
 2592              		.file 29 "c:\\program files (x86)\\gnu tools arm embedded\\6 2017-q2-update\\arm-none-eabi\\includ
 2593              		.file 30 "c:\\program files (x86)\\gnu tools arm embedded\\6 2017-q2-update\\arm-none-eabi\\includ
 2594              		.file 31 "c:\\program files (x86)\\gnu tools arm embedded\\6 2017-q2-update\\arm-none-eabi\\includ
 2595              		.file 32 "c:\\program files (x86)\\gnu tools arm embedded\\6 2017-q2-update\\arm-none-eabi\\includ
 2596              		.file 33 "c:\\program files (x86)\\gnu tools arm embedded\\6 2017-q2-update\\arm-none-eabi\\includ
 2597              		.file 34 "c:\\program files (x86)\\gnu tools arm embedded\\6 2017-q2-update\\arm-none-eabi\\includ
 2598              		.file 35 "c:\\program files (x86)\\gnu tools arm embedded\\6 2017-q2-update\\arm-none-eabi\\includ
 2599              		.file 36 "c:\\program files (x86)\\gnu tools arm embedded\\6 2017-q2-update\\arm-none-eabi\\includ
 2600              		.file 37 "c:\\program files (x86)\\gnu tools arm embedded\\6 2017-q2-update\\arm-none-eabi\\includ
 2601              		.file 38 "c:\\program files (x86)\\gnu tools arm embedded\\6 2017-q2-update\\arm-none-eabi\\includ
 2602              		.file 39 "c:\\program files (x86)\\gnu tools arm embedded\\6 2017-q2-update\\arm-none-eabi\\includ
 2603              		.file 40 "c:\\program files (x86)\\gnu tools arm embedded\\6 2017-q2-update\\arm-none-eabi\\includ
 2604              		.file 41 "c:\\program files (x86)\\gnu tools arm embedded\\6 2017-q2-update\\arm-none-eabi\\includ
 2605              		.file 42 "c:\\program files (x86)\\gnu tools arm embedded\\6 2017-q2-update\\arm-none-eabi\\includ
 2606              		.file 43 "c:\\program files (x86)\\gnu tools arm embedded\\6 2017-q2-update\\arm-none-eabi\\includ
 2607              		.file 44 "c:\\program files (x86)\\gnu tools arm embedded\\6 2017-q2-update\\arm-none-eabi\\includ
 2608              		.file 45 "c:\\program files (x86)\\gnu tools arm embedded\\6 2017-q2-update\\arm-none-eabi\\includ
 2609              		.file 46 "c:\\program files (x86)\\gnu tools arm embedded\\6 2017-q2-update\\arm-none-eabi\\includ
 2610              		.file 47 "c:\\program files (x86)\\gnu tools arm embedded\\6 2017-q2-update\\arm-none-eabi\\includ
 2611              		.file 48 "c:\\program files (x86)\\gnu tools arm embedded\\6 2017-q2-update\\arm-none-eabi\\includ
 2612              		.file 49 "c:\\program files (x86)\\gnu tools arm embedded\\6 2017-q2-update\\lib\\gcc\\arm-none-ea
 2613              		.file 50 "c:\\program files (x86)\\gnu tools arm embedded\\6 2017-q2-update\\arm-none-eabi\\includ
 2614              		.file 51 "c:\\program files (x86)\\gnu tools arm embedded\\6 2017-q2-update\\arm-none-eabi\\includ
 2615              		.file 52 "c:\\program files (x86)\\gnu tools arm embedded\\6 2017-q2-update\\arm-none-eabi\\includ
 2616              		.file 53 "c:\\program files (x86)\\gnu tools arm embedded\\6 2017-q2-update\\arm-none-eabi\\includ
 2617              		.file 54 "c:\\program files (x86)\\gnu tools arm embedded\\6 2017-q2-update\\arm-none-eabi\\includ
 2618              		.file 55 "c:\\program files (x86)\\gnu tools arm embedded\\6 2017-q2-update\\arm-none-eabi\\includ
 2619              		.file 56 "c:\\program files (x86)\\gnu tools arm embedded\\6 2017-q2-update\\arm-none-eabi\\includ
 2620              		.file 57 "c:\\program files (x86)\\gnu tools arm embedded\\6 2017-q2-update\\arm-none-eabi\\includ
 2621              		.file 58 "c:\\program files (x86)\\gnu tools arm embedded\\6 2017-q2-update\\lib\\gcc\\arm-none-ea
 2622              		.file 59 "<built-in>"
 2623              		.file 60 "c:\\program files (x86)\\gnu tools arm embedded\\6 2017-q2-update\\arm-none-eabi\\includ
 2624              		.file 61 "c:\\program files (x86)\\gnu tools arm embedded\\6 2017-q2-update\\arm-none-eabi\\includ
 2625              		.file 62 "c:\\program files (x86)\\gnu tools arm embedded\\6 2017-q2-update\\arm-none-eabi\\includ
 2626              		.file 63 "c:\\program files (x86)\\gnu tools arm embedded\\6 2017-q2-update\\arm-none-eabi\\includ
 2627              		.file 64 "c:\\program files (x86)\\gnu tools arm embedded\\6 2017-q2-update\\arm-none-eabi\\includ
 2628              		.file 65 "c:\\program files (x86)\\gnu tools arm embedded\\6 2017-q2-update\\arm-none-eabi\\includ
 2629              		.file 66 "C:/Renesas/e2studio_2021_01_workspace_RZA2M_ANPR/ANPR_RZA2M_GR_MANGO/src/tensorflow_lite
 2630              		.file 67 "C:/Renesas/e2studio_2021_01_workspace_RZA2M_ANPR/ANPR_RZA2M_GR_MANGO/src/tensorflow_lite
 2631              		.file 68 "C:/Renesas/e2studio_2021_01_workspace_RZA2M_ANPR/ANPR_RZA2M_GR_MANGO/src/tensorflow_lite
 2632              		.file 69 "C:/Renesas/e2studio_2021_01_workspace_RZA2M_ANPR/ANPR_RZA2M_GR_MANGO/src/tensorflow_lite
 2633              		.file 70 "C:/Renesas/e2studio_2021_01_workspace_RZA2M_ANPR/ANPR_RZA2M_GR_MANGO/src/tensorflow_lite
 2634              		.file 71 "C:/Renesas/e2studio_2021_01_workspace_RZA2M_ANPR/ANPR_RZA2M_GR_MANGO/src/tensorflow_lite
 2635              		.file 72 "C:/Renesas/e2studio_2021_01_workspace_RZA2M_ANPR/ANPR_RZA2M_GR_MANGO/src/tensorflow_lite
 2636              		.file 73 "c:\\program files (x86)\\gnu tools arm embedded\\6 2017-q2-update\\arm-none-eabi\\includ
DEFINED SYMBOLS
                            *ABS*:00000000 recording_micro_allocator.cc
C:\Users\a5050395\AppData\Local\Temp\ccqN1BTl.s:17     .text._ZN6tflite23RecordingMicroAllocatorD2Ev:00000000 $a
C:\Users\a5050395\AppData\Local\Temp\ccqN1BTl.s:23     .text._ZN6tflite23RecordingMicroAllocatorD2Ev:00000000 _ZN6tflite23RecordingMicroAllocatorD2Ev
C:\Users\a5050395\AppData\Local\Temp\ccqN1BTl.s:51     .text._ZN6tflite23RecordingMicroAllocatorD2Ev:0000001c $d
.ARM.exidx.text._ZN6tflite23RecordingMicroAllocatorD2Ev:00000000 $d
C:\Users\a5050395\AppData\Local\Temp\ccqN1BTl.s:23     .text._ZN6tflite23RecordingMicroAllocatorD2Ev:00000000 _ZN6tflite23RecordingMicroAllocatorD1Ev
C:\Users\a5050395\AppData\Local\Temp\ccqN1BTl.s:60     .text._ZN6tflite23RecordingMicroAllocatorD0Ev:00000000 $a
C:\Users\a5050395\AppData\Local\Temp\ccqN1BTl.s:66     .text._ZN6tflite23RecordingMicroAllocatorD0Ev:00000000 _ZN6tflite23RecordingMicroAllocatorD0Ev
C:\Users\a5050395\AppData\Local\Temp\ccqN1BTl.s:101    .text._ZN6tflite23RecordingMicroAllocatorD0Ev:00000024 $d
.ARM.exidx.text._ZN6tflite23RecordingMicroAllocatorD0Ev:00000000 $d
C:\Users\a5050395\AppData\Local\Temp\ccqN1BTl.s:108    .text._ZN6tflite23RecordingMicroAllocatorC2EPNS_30RecordingSimpleMemoryAllocatorEPNS_13ErrorReporterE:00000000 $a
C:\Users\a5050395\AppData\Local\Temp\ccqN1BTl.s:114    .text._ZN6tflite23RecordingMicroAllocatorC2EPNS_30RecordingSimpleMemoryAllocatorEPNS_13ErrorReporterE:00000000 _ZN6tflite23RecordingMicroAllocatorC2EPNS_30RecordingSimpleMemoryAllocatorEPNS_13ErrorReporterE
C:\Users\a5050395\AppData\Local\Temp\ccqN1BTl.s:175    .text._ZN6tflite23RecordingMicroAllocatorC2EPNS_30RecordingSimpleMemoryAllocatorEPNS_13ErrorReporterE:00000088 $d
.ARM.exidx.text._ZN6tflite23RecordingMicroAllocatorC2EPNS_30RecordingSimpleMemoryAllocatorEPNS_13ErrorReporterE:00000000 $d
C:\Users\a5050395\AppData\Local\Temp\ccqN1BTl.s:114    .text._ZN6tflite23RecordingMicroAllocatorC2EPNS_30RecordingSimpleMemoryAllocatorEPNS_13ErrorReporterE:00000000 _ZN6tflite23RecordingMicroAllocatorC1EPNS_30RecordingSimpleMemoryAllocatorEPNS_13ErrorReporterE
C:\Users\a5050395\AppData\Local\Temp\ccqN1BTl.s:183    .text._ZN6tflite23RecordingMicroAllocator6CreateEPhjPNS_13ErrorReporterE:00000000 $a
C:\Users\a5050395\AppData\Local\Temp\ccqN1BTl.s:189    .text._ZN6tflite23RecordingMicroAllocator6CreateEPhjPNS_13ErrorReporterE:00000000 _ZN6tflite23RecordingMicroAllocator6CreateEPhjPNS_13ErrorReporterE
C:\Users\a5050395\AppData\Local\Temp\ccqN1BTl.s:283    .text._ZN6tflite23RecordingMicroAllocator6CreateEPhjPNS_13ErrorReporterE:000000c8 $d
.ARM.exidx.text._ZN6tflite23RecordingMicroAllocator6CreateEPhjPNS_13ErrorReporterE:00000000 $d
C:\Users\a5050395\AppData\Local\Temp\ccqN1BTl.s:289    .text._ZNK6tflite23RecordingMicroAllocator21GetRecordedAllocationENS_22RecordedAllocationTypeE:00000000 $a
C:\Users\a5050395\AppData\Local\Temp\ccqN1BTl.s:295    .text._ZNK6tflite23RecordingMicroAllocator21GetRecordedAllocationENS_22RecordedAllocationTypeE:00000000 _ZNK6tflite23RecordingMicroAllocator21GetRecordedAllocationENS_22RecordedAllocationTypeE
C:\Users\a5050395\AppData\Local\Temp\ccqN1BTl.s:317    .text._ZNK6tflite23RecordingMicroAllocator21GetRecordedAllocationENS_22RecordedAllocationTypeE:00000018 $d
C:\Users\a5050395\AppData\Local\Temp\ccqN1BTl.s:326    .text._ZNK6tflite23RecordingMicroAllocator21GetRecordedAllocationENS_22RecordedAllocationTypeE:00000034 $a
C:\Users\a5050395\AppData\Local\Temp\ccqN1BTl.s:2514   .rodata._ZNK6tflite23RecordingMicroAllocator21GetRecordedAllocationENS_22RecordedAllocationTypeE.str1.4:00000000 .LC0
.ARM.exidx.text._ZNK6tflite23RecordingMicroAllocator21GetRecordedAllocationENS_22RecordedAllocationTypeE:00000000 $d
C:\Users\a5050395\AppData\Local\Temp\ccqN1BTl.s:463    .text._ZNK6tflite23RecordingMicroAllocator24GetSimpleMemoryAllocatorEv:00000000 $a
C:\Users\a5050395\AppData\Local\Temp\ccqN1BTl.s:469    .text._ZNK6tflite23RecordingMicroAllocator24GetSimpleMemoryAllocatorEv:00000000 _ZNK6tflite23RecordingMicroAllocator24GetSimpleMemoryAllocatorEv
.ARM.exidx.text._ZNK6tflite23RecordingMicroAllocator24GetSimpleMemoryAllocatorEv:00000000 $d
C:\Users\a5050395\AppData\Local\Temp\ccqN1BTl.s:488    .text._ZNK6tflite23RecordingMicroAllocator16PrintAllocationsEv:00000000 $a
C:\Users\a5050395\AppData\Local\Temp\ccqN1BTl.s:494    .text._ZNK6tflite23RecordingMicroAllocator16PrintAllocationsEv:00000000 _ZNK6tflite23RecordingMicroAllocator16PrintAllocationsEv
C:\Users\a5050395\AppData\Local\Temp\ccqN1BTl.s:2468   .rodata._ZNK6tflite23RecordingMicroAllocator16PrintAllocationsEv.str1.4:00000000 .LC1
C:\Users\a5050395\AppData\Local\Temp\ccqN1BTl.s:2472   .rodata._ZNK6tflite23RecordingMicroAllocator16PrintAllocationsEv.str1.4:0000003c .LC2
C:\Users\a5050395\AppData\Local\Temp\ccqN1BTl.s:2476   .rodata._ZNK6tflite23RecordingMicroAllocator16PrintAllocationsEv.str1.4:00000078 .LC3
C:\Users\a5050395\AppData\Local\Temp\ccqN1BTl.s:2486   .rodata._ZNK6tflite23RecordingMicroAllocator16PrintAllocationsEv.str1.4:00000130 .LC6
C:\Users\a5050395\AppData\Local\Temp\ccqN1BTl.s:2480   .rodata._ZNK6tflite23RecordingMicroAllocator16PrintAllocationsEv.str1.4:000000b4 .LC4
C:\Users\a5050395\AppData\Local\Temp\ccqN1BTl.s:2483   .rodata._ZNK6tflite23RecordingMicroAllocator16PrintAllocationsEv.str1.4:000000cc .LC5
C:\Users\a5050395\AppData\Local\Temp\ccqN1BTl.s:2491   .rodata._ZNK6tflite23RecordingMicroAllocator16PrintAllocationsEv.str1.4:0000015c .LC8
C:\Users\a5050395\AppData\Local\Temp\ccqN1BTl.s:2488   .rodata._ZNK6tflite23RecordingMicroAllocator16PrintAllocationsEv.str1.4:0000013c .LC7
C:\Users\a5050395\AppData\Local\Temp\ccqN1BTl.s:2493   .rodata._ZNK6tflite23RecordingMicroAllocator16PrintAllocationsEv.str1.4:00000164 .LC9
C:\Users\a5050395\AppData\Local\Temp\ccqN1BTl.s:2496   .rodata._ZNK6tflite23RecordingMicroAllocator16PrintAllocationsEv.str1.4:00000190 .LC10
C:\Users\a5050395\AppData\Local\Temp\ccqN1BTl.s:2499   .rodata._ZNK6tflite23RecordingMicroAllocator16PrintAllocationsEv.str1.4:000001a8 .LC11
C:\Users\a5050395\AppData\Local\Temp\ccqN1BTl.s:2505   .rodata._ZNK6tflite23RecordingMicroAllocator16PrintAllocationsEv.str1.4:000001e8 .LC13
C:\Users\a5050395\AppData\Local\Temp\ccqN1BTl.s:2502   .rodata._ZNK6tflite23RecordingMicroAllocator16PrintAllocationsEv.str1.4:000001cc .LC12
C:\Users\a5050395\AppData\Local\Temp\ccqN1BTl.s:2510   .rodata._ZNK6tflite23RecordingMicroAllocator16PrintAllocationsEv.str1.4:0000021c .LC15
C:\Users\a5050395\AppData\Local\Temp\ccqN1BTl.s:2507   .rodata._ZNK6tflite23RecordingMicroAllocator16PrintAllocationsEv.str1.4:00000204 .LC14
.ARM.exidx.text._ZNK6tflite23RecordingMicroAllocator16PrintAllocationsEv:00000000 $d
C:\Users\a5050395\AppData\Local\Temp\ccqN1BTl.s:838    .text._ZNK6tflite23RecordingMicroAllocator23PrintRecordedAllocationENS_22RecordedAllocationTypeEPKcS3_:00000000 $a
C:\Users\a5050395\AppData\Local\Temp\ccqN1BTl.s:844    .text._ZNK6tflite23RecordingMicroAllocator23PrintRecordedAllocationENS_22RecordedAllocationTypeEPKcS3_:00000000 _ZNK6tflite23RecordingMicroAllocator23PrintRecordedAllocationENS_22RecordedAllocationTypeEPKcS3_
C:\Users\a5050395\AppData\Local\Temp\ccqN1BTl.s:874    .text._ZNK6tflite23RecordingMicroAllocator23PrintRecordedAllocationENS_22RecordedAllocationTypeEPKcS3_:0000001c $d
C:\Users\a5050395\AppData\Local\Temp\ccqN1BTl.s:883    .text._ZNK6tflite23RecordingMicroAllocator23PrintRecordedAllocationENS_22RecordedAllocationTypeEPKcS3_:00000038 $a
.ARM.exidx.text._ZNK6tflite23RecordingMicroAllocator23PrintRecordedAllocationENS_22RecordedAllocationTypeEPKcS3_:00000000 $d
C:\Users\a5050395\AppData\Local\Temp\ccqN1BTl.s:986    .text._ZNK6tflite23RecordingMicroAllocator23SnapshotAllocationUsageEv:00000000 $a
C:\Users\a5050395\AppData\Local\Temp\ccqN1BTl.s:992    .text._ZNK6tflite23RecordingMicroAllocator23SnapshotAllocationUsageEv:00000000 _ZNK6tflite23RecordingMicroAllocator23SnapshotAllocationUsageEv
.ARM.exidx.text._ZNK6tflite23RecordingMicroAllocator23SnapshotAllocationUsageEv:00000000 $d
C:\Users\a5050395\AppData\Local\Temp\ccqN1BTl.s:1035   .text._ZN6tflite23RecordingMicroAllocator21RecordAllocationUsageERKNS_18RecordedAllocationERS1_:00000000 $a
C:\Users\a5050395\AppData\Local\Temp\ccqN1BTl.s:1041   .text._ZN6tflite23RecordingMicroAllocator21RecordAllocationUsageERKNS_18RecordedAllocationERS1_:00000000 _ZN6tflite23RecordingMicroAllocator21RecordAllocationUsageERKNS_18RecordedAllocationERS1_
.ARM.exidx.text._ZN6tflite23RecordingMicroAllocator21RecordAllocationUsageERKNS_18RecordedAllocationERS1_:00000000 $d
C:\Users\a5050395\AppData\Local\Temp\ccqN1BTl.s:1102   .text._ZN6tflite23RecordingMicroAllocator24AllocatePersistentBufferEj:00000000 $a
C:\Users\a5050395\AppData\Local\Temp\ccqN1BTl.s:1108   .text._ZN6tflite23RecordingMicroAllocator24AllocatePersistentBufferEj:00000000 _ZN6tflite23RecordingMicroAllocator24AllocatePersistentBufferEj
.ARM.exidx.text._ZN6tflite23RecordingMicroAllocator24AllocatePersistentBufferEj:00000000 $d
C:\Users\a5050395\AppData\Local\Temp\ccqN1BTl.s:1223   .text._ZN6tflite23RecordingMicroAllocator28AllocateNodeAndRegistrationsEPKNS_5ModelEPNS_19SubgraphAllocationsE:00000000 $a
C:\Users\a5050395\AppData\Local\Temp\ccqN1BTl.s:1229   .text._ZN6tflite23RecordingMicroAllocator28AllocateNodeAndRegistrationsEPKNS_5ModelEPNS_19SubgraphAllocationsE:00000000 _ZN6tflite23RecordingMicroAllocator28AllocateNodeAndRegistrationsEPKNS_5ModelEPNS_19SubgraphAllocationsE
C:\Users\a5050395\AppData\Local\Temp\ccqN1BTl.s:2459   .rodata._ZN6tflite23RecordingMicroAllocator28AllocateNodeAndRegistrationsEPKNS_5ModelEPNS_19SubgraphAllocationsE.str1.4:00000000 .LC16
C:\Users\a5050395\AppData\Local\Temp\ccqN1BTl.s:2553   .rodata._ZZNK11flatbuffers6VectorINS_6OffsetIN6tflite8SubGraphEEEE3GetEmE19__PRETTY_FUNCTION__:00000000 .LANCHOR1
C:\Users\a5050395\AppData\Local\Temp\ccqN1BTl.s:2462   .rodata._ZN6tflite23RecordingMicroAllocator28AllocateNodeAndRegistrationsEPKNS_5ModelEPNS_19SubgraphAllocationsE.str1.4:0000000c .LC17
.ARM.exidx.text._ZN6tflite23RecordingMicroAllocator28AllocateNodeAndRegistrationsEPKNS_5ModelEPNS_19SubgraphAllocationsE:00000000 $d
C:\Users\a5050395\AppData\Local\Temp\ccqN1BTl.s:1653   .text._ZN6tflite23RecordingMicroAllocator25AllocateTfLiteEvalTensorsEPKNS_5ModelEPNS_19SubgraphAllocationsE:00000000 $a
C:\Users\a5050395\AppData\Local\Temp\ccqN1BTl.s:1659   .text._ZN6tflite23RecordingMicroAllocator25AllocateTfLiteEvalTensorsEPKNS_5ModelEPNS_19SubgraphAllocationsE:00000000 _ZN6tflite23RecordingMicroAllocator25AllocateTfLiteEvalTensorsEPKNS_5ModelEPNS_19SubgraphAllocationsE
.ARM.exidx.text._ZN6tflite23RecordingMicroAllocator25AllocateTfLiteEvalTensorsEPKNS_5ModelEPNS_19SubgraphAllocationsE:00000000 $d
C:\Users\a5050395\AppData\Local\Temp\ccqN1BTl.s:2081   .text._ZN6tflite23RecordingMicroAllocator17AllocateVariablesEPKNS_8SubGraphEP16TfLiteEvalTensor:00000000 $a
C:\Users\a5050395\AppData\Local\Temp\ccqN1BTl.s:2087   .text._ZN6tflite23RecordingMicroAllocator17AllocateVariablesEPKNS_8SubGraphEP16TfLiteEvalTensor:00000000 _ZN6tflite23RecordingMicroAllocator17AllocateVariablesEPKNS_8SubGraphEP16TfLiteEvalTensor
.ARM.exidx.text._ZN6tflite23RecordingMicroAllocator17AllocateVariablesEPKNS_8SubGraphEP16TfLiteEvalTensor:00000000 $d
C:\Users\a5050395\AppData\Local\Temp\ccqN1BTl.s:2205   .text._ZN6tflite23RecordingMicroAllocator38AllocatePersistentTfLiteTensorInternalEv:00000000 $a
C:\Users\a5050395\AppData\Local\Temp\ccqN1BTl.s:2211   .text._ZN6tflite23RecordingMicroAllocator38AllocatePersistentTfLiteTensorInternalEv:00000000 _ZN6tflite23RecordingMicroAllocator38AllocatePersistentTfLiteTensorInternalEv
.ARM.exidx.text._ZN6tflite23RecordingMicroAllocator38AllocatePersistentTfLiteTensorInternalEv:00000000 $d
C:\Users\a5050395\AppData\Local\Temp\ccqN1BTl.s:2312   .text._ZN6tflite23RecordingMicroAllocator34PopulateTfLiteTensorFromFlatbufferEPKNS_5ModelEP12TfLiteTensoriib:00000000 $a
C:\Users\a5050395\AppData\Local\Temp\ccqN1BTl.s:2318   .text._ZN6tflite23RecordingMicroAllocator34PopulateTfLiteTensorFromFlatbufferEPKNS_5ModelEP12TfLiteTensoriib:00000000 _ZN6tflite23RecordingMicroAllocator34PopulateTfLiteTensorFromFlatbufferEPKNS_5ModelEP12TfLiteTensoriib
.ARM.exidx.text._ZN6tflite23RecordingMicroAllocator34PopulateTfLiteTensorFromFlatbufferEPKNS_5ModelEP12TfLiteTensoriib:00000000 $d
C:\Users\a5050395\AppData\Local\Temp\ccqN1BTl.s:2528   .rodata._ZTSN6tflite23RecordingMicroAllocatorE:00000000 _ZTSN6tflite23RecordingMicroAllocatorE
C:\Users\a5050395\AppData\Local\Temp\ccqN1BTl.s:2520   .rodata._ZTIN6tflite23RecordingMicroAllocatorE:00000000 _ZTIN6tflite23RecordingMicroAllocatorE
C:\Users\a5050395\AppData\Local\Temp\ccqN1BTl.s:2535   .rodata._ZTVN6tflite23RecordingMicroAllocatorE:00000000 _ZTVN6tflite23RecordingMicroAllocatorE
C:\Users\a5050395\AppData\Local\Temp\ccqN1BTl.s:2455   .data._ZN11flatbuffers25flatbuffer_version_stringE:00000000 _ZN11flatbuffers25flatbuffer_version_stringE
C:\Users\a5050395\AppData\Local\Temp\ccqN1BTl.s:2452   .data._ZN11flatbuffers25flatbuffer_version_stringE:00000000 $d
C:\Users\a5050395\AppData\Local\Temp\ccqN1BTl.s:2458   .rodata._ZN6tflite23RecordingMicroAllocator28AllocateNodeAndRegistrationsEPKNS_5ModelEPNS_19SubgraphAllocationsE.str1.4:00000000 $d
C:\Users\a5050395\AppData\Local\Temp\ccqN1BTl.s:2467   .rodata._ZNK6tflite23RecordingMicroAllocator16PrintAllocationsEv.str1.4:00000000 $d
C:\Users\a5050395\AppData\Local\Temp\ccqN1BTl.s:2513   .rodata._ZNK6tflite23RecordingMicroAllocator21GetRecordedAllocationENS_22RecordedAllocationTypeE.str1.4:00000000 $d
C:\Users\a5050395\AppData\Local\Temp\ccqN1BTl.s:2517   .rodata._ZTIN6tflite23RecordingMicroAllocatorE:00000000 $d
C:\Users\a5050395\AppData\Local\Temp\ccqN1BTl.s:2525   .rodata._ZTSN6tflite23RecordingMicroAllocatorE:00000000 $d
C:\Users\a5050395\AppData\Local\Temp\ccqN1BTl.s:2531   .rodata._ZTVN6tflite23RecordingMicroAllocatorE:00000000 $d
C:\Users\a5050395\AppData\Local\Temp\ccqN1BTl.s:2552   .rodata._ZZNK11flatbuffers6VectorINS_6OffsetIN6tflite8SubGraphEEEE3GetEmE19__PRETTY_FUNCTION__:00000000 $d
C:\Users\a5050395\AppData\Local\Temp\ccqN1BTl.s:2556   .rodata._ZZNK11flatbuffers6VectorINS_6OffsetIN6tflite8SubGraphEEEE3GetEmE19__PRETTY_FUNCTION__:00000000 _ZZNK11flatbuffers6VectorINS_6OffsetIN6tflite8SubGraphEEEE3GetEmE19__PRETTY_FUNCTION__
C:\Users\a5050395\AppData\Local\Temp\ccqN1BTl.s:2563   .rodata.str1.4:00000000 $d
                     .debug_frame:00000010 $d
                           .group:00000000 _ZN6tflite23RecordingMicroAllocatorD5Ev
                           .group:00000000 wm4.0.3e1481985cce1e923928453d8be0a65b
                           .group:00000000 wm4.compatibility.h.16.1ceb35d63d4a0463dcdc2ac3bcdc6b08
                           .group:00000000 wm4.cstddef.40.7f59894b65c26f8fc669473914a0ef3e
                           .group:00000000 wm4.cconfig.h.31.1472b8c7bd4952a63a52f3f4f718f872
                           .group:00000000 wm4.cpu_defines.h.31.54d44f9d3e7c42875c5a7fd49795eb93
                           .group:00000000 wm4.cconfig.h.515.5e729db314ae74226e291b4ae081e353
                           .group:00000000 wm4.stddef.h.39.fa2e86d241f4df50b9327c72832885e1
                           .group:00000000 wm4.stdint.h.4.659be5aa44c4ab4eb7c7cc2b24d8ceee
                           .group:00000000 wm4._newlib_version.h.4.3572908597b70d672d181fc7fc501c19
                           .group:00000000 wm4.features.h.33.7b36b8b41abe4293fbb29540b719705c
                           .group:00000000 wm4._default_types.h.15.247e5cd201eca3442cbf5404108c4935
                           .group:00000000 wm4._intsup.h.10.cce27fed8484c08a33f522034c30d2b5
                           .group:00000000 wm4._stdint.h.10.c24fa3af3bc1706662bb5593a907e841
                           .group:00000000 wm4.stdint.h.23.d53047a68f4a85177f80b422d52785ed
                           .group:00000000 wm4.newlib.h.8.5f2124c7e712be65f83b91ff86a0b1c1
                           .group:00000000 wm4.config.h.219.65a553ab5bef5482f0d7880b0d33015e
                           .group:00000000 wm4._ansi.h.23.1ee1144430bedaab1a14c7b57a6c8384
                           .group:00000000 wm4.assert.h.11.a5d97ca77559a42890313c4941c01fd9
                           .group:00000000 wm4.cstdlib.44.52c5efdfb0f3c176bd11e611a0b94959
                           .group:00000000 wm4.stdlib.h.13.4ed386f5c1a80d71e72172885d946ef2
                           .group:00000000 wm4.stddef.h.161.38688f2eb958a8ed58fdb61ffe554c94
                           .group:00000000 wm4.lock.h.2.1461d1fff82dffe8bfddc23307f6484f
                           .group:00000000 wm4._types.h.125.5cf8a495f1f7ef36777ad868a1e32068
                           .group:00000000 wm4.stddef.h.161.7e98c9c86da0ed2d27af2ef92af7d013
                           .group:00000000 wm4._types.h.183.c226d164ceca1f2ecb9ae9360c54a098
                           .group:00000000 wm4.reent.h.17.23b059516345f8f5abfa01ddc379570f
                           .group:00000000 wm4.cdefs.h.47.9bc8274c84fddbf05edd550eb0bf48cd
                           .group:00000000 wm4.stdlib.h.56.b4ddaf162082f284ba35b4444af99a9a
                           .group:00000000 wm4.cstdlib.76.ae666499c8f9b0ace1b4b23fe143da2c
                           .group:00000000 wm4.string.h.8.c4b8571ce60dff2817f43fec8b86aecd
                           .group:00000000 wm4.cstring.45.6ab09de7fb97b576e744347688ddc8d7
                           .group:00000000 wm4.concept_check.h.31.f19605d278e56917c68a56d378be308c
                           .group:00000000 wm4.type_traits.30.2c7323a483bcd7601e8b71d2546ae284
                           .group:00000000 wm4.move.h.152.41d7b9e6779674d169b7813982cfa003
                           .group:00000000 wm4.exception_defines.h.31.ca6841b9be3287386aafc5c717935b2e
                           .group:00000000 wm4.cpp_type_traits.h.33.9f2bfd8c4471a9a299f6da3ec24c745c
                           .group:00000000 wm4.numeric_traits.h.30.aa01a98564b7e55086aad9e53c7e5c53
                           .group:00000000 wm4.assertions.h.30.51d443923f0d242550e04246a7819b39
                           .group:00000000 wm4.stl_iterator.h.1250.45f349a262f1b0d836d8edbc4b7b98ff
                           .group:00000000 wm4.debug.h.30.5c1f223b12199e851d4d42805b788ccf
                           .group:00000000 wm4.stl_algobase.h.491.aa250b69c90aafa2a0a62b8c58cd5f30
                           .group:00000000 wm4.wchar.h.2.f837619576d797e948eb58c44fac4678
                           .group:00000000 wm4.stddef.h.161.9f48187563b2a85291a91832aa425498
                           .group:00000000 wm4.stdarg.h.34.3a23a216c0c293b3d2ea2e89281481e6
                           .group:00000000 wm4.wchar.h.41.2307b469886c2ca55d92707971ac50ce
                           .group:00000000 wm4.cwchar.48.c4e882638bf84f6da89479dda6fe8e17
                           .group:00000000 wm4.atomic_lockfree_defines.h.31.d5c6334fb1e95c9462b052951f1411df
                           .group:00000000 wm4.allocator.h.52.0ceafb36dc1b82dbfa6b05003082e3f5
                           .group:00000000 wm4.locale.h.8.27d0fe4c0abbb6f8893a1fa7c1799fd9
                           .group:00000000 wm4.locale.h.16.524572cf3c2ed9856516685acdc598fe
                           .group:00000000 wm4.clocale.45.c36d2d5b631a875aa5273176b54fdf0f
                           .group:00000000 wm4.ctype.h.2.da310d2ad165ccf8b86542f76fdb938d
                           .group:00000000 wm4.cctype.45.0da5714876b0be7f2d816b53d9670403
                           .group:00000000 wm4.gthr.h.27.ceb1c66b926f052afcba57e8784df0d4
                           .group:00000000 wm4.gthrdefault.h.27.edc94d4398c0534988962be77dc3c2e1
                           .group:00000000 wm4.atomic_word.h.30.9e0ac69fd462d5e650933e05133b4afa
                           .group:00000000 wm4.alloc_traits.h.31.c41c7c4789404962122a4e991dfa3abf
                           .group:00000000 wm4.stdio.h.27.3fc80220048df77954e38daec3bb9670
                           .group:00000000 wm4.types.h.40.e8c16e7ec36ba55f133d0616070e25fc
                           .group:00000000 wm4.types.h.114.fb65732f4f5f288a036a25898de2c91f
                           .group:00000000 wm4.stdio.h.2.4aa87247282eca6c8f36f9de33d8df1a
                           .group:00000000 wm4.stdio.h.81.c3e9cb15e5af2807c4650345134c1a8a
                           .group:00000000 wm4.cstdio.45.ba8d321feb18bfc8923454067605c368
                           .group:00000000 wm4.errno.h.2.ba016d646105af6cad23be83630b6a3f
                           .group:00000000 wm4.errno.h.9.1ecd7b1049497a0ab61da0f6cbd4b0c6
                           .group:00000000 wm4.functional_hash.h.98.3bf7680ffcc8d24d09fa83ac1339c79d
                           .group:00000000 wm4.limits.38.55aefcf041805b6211ca3649dd2ab1b5
                           .group:00000000 wm4.wctype.h.2.898a9b94aa35d125e245195b099726a8
                           .group:00000000 wm4.wctype.h.21.aec4d35c940c33b3f9c6f879c49edcd8
                           .group:00000000 wm4.cwctype.54.6582aca101688c1c3785d03bc15e2af6
                           .group:00000000 wm4.locale_facets.h.56.0d4bb655ce5e76ea564363ed7c5a34fc
                           .group:00000000 wm4.typeinfo.30.04014f5b1b4fb021c5662653bc27c750
                           .group:00000000 wm4.functional.549.0bc5b448cf999863d3841495cd6fe920
                           .group:00000000 wm4.atomic_base.h.31.692a6b53cef50ad728d4af54dfbd4448
                           .group:00000000 wm4.base.h.81.f7b1ec2a44bbbae0afe7a7a890202b81
                           .group:00000000 wm4.flatbuffers.h.2690.8dde7194088843c14d4d121ab864e44f
                           .group:00000000 wm4.stdbool.h.29.01580e438512fc255c0619569742ffd3
                           .group:00000000 wm4.c_api_types.h.20.9b09175981ed746180e205cc0b4b2bfd
                           .group:00000000 wm4.common.h.77.124de099ec0ac4f95ebf1618a5f42cf6
                           .group:00000000 wm4.stdarg.h.31.250806951830a1b6a3066ee41cf22414
                           .group:00000000 wm4.op_macros.h.42.7b718cb416a067e7bb07e7699647769b
                           .group:00000000 wm4.compatibility.h.23.702d6356326ea59aded8ef5c6c4626d5

UNDEFINED SYMBOLS
_ZN6tflite14MicroAllocatorD2Ev
_ZdlPv
_ZN6tflite14MicroAllocatorC2EPNS_21SimpleMemoryAllocatorEPNS_13ErrorReporterE
__aeabi_unwind_cpp_pr0
_ZN6tflite30RecordingSimpleMemoryAllocator6CreateEPNS_13ErrorReporterEPhj
abort
_ZNK6tflite14MicroAllocator14error_reporterEv
_ZN6tflite13ErrorReporter6ReportEPKcz
_ZNK6tflite30RecordingSimpleMemoryAllocator12GetUsedBytesEv
_ZNK6tflite21SimpleMemoryAllocator16GetHeadUsedBytesEv
_ZNK6tflite21SimpleMemoryAllocator16GetTailUsedBytesEv
_ZNK6tflite30RecordingSimpleMemoryAllocator17GetRequestedBytesEv
_ZNK6tflite30RecordingSimpleMemoryAllocator17GetAllocatedCountEv
_ZN6tflite14MicroAllocator24AllocatePersistentBufferEj
_ZN6tflite14MicroAllocator28AllocateNodeAndRegistrationsEPKNS_5ModelEPNS_19SubgraphAllocationsE
__assert_func
_ZN6tflite14MicroAllocator25AllocateTfLiteEvalTensorsEPKNS_5ModelEPNS_19SubgraphAllocationsE
_ZN6tflite14MicroAllocator17AllocateVariablesEPKNS_8SubGraphEP16TfLiteEvalTensor
_ZN6tflite14MicroAllocator38AllocatePersistentTfLiteTensorInternalEv
_ZN6tflite14MicroAllocator34PopulateTfLiteTensorFromFlatbufferEPKNS_5ModelEP12TfLiteTensoriib
_ZTVN10__cxxabiv120__si_class_type_infoE
_ZTIN6tflite14MicroAllocatorE
_ZN6tflite14MicroAllocator30AllocatePersistentTfLiteTensorEPKNS_5ModelEPKNS_19SubgraphAllocationsEii
_ZN6tflite14MicroAllocator24AllocateTempTfLiteTensorEPKNS_5ModelEPKNS_19SubgraphAllocationsEii
_ZN6tflite14MicroAllocator20ResetTempAllocationsEv
_ZN6tflite14MicroAllocator22CommitStaticMemoryPlanEPKNS_5ModelEP16TfLiteEvalTensorPNS_19ScratchBufferHandleEi
_ZN6tflite14MicroAllocator28AllocateScratchBufferHandlesEPPNS_19ScratchBufferHandleEj
