   1              		.cpu cortex-a9
   2              		.eabi_attribute 28, 1
   3              		.eabi_attribute 20, 1
   4              		.eabi_attribute 21, 1
   5              		.eabi_attribute 23, 3
   6              		.eabi_attribute 24, 1
   7              		.eabi_attribute 25, 1
   8              		.eabi_attribute 26, 1
   9              		.eabi_attribute 30, 2
  10              		.eabi_attribute 34, 0
  11              		.eabi_attribute 18, 4
  12              		.file	"recording_micro_allocator.cc"
  13              		.text
  14              	.Ltext0:
  15              		.cfi_sections	.debug_frame
  16              		.section	.text._ZN6tflite23RecordingMicroAllocatorD2Ev,"axG",%progbits,_ZN6tflite23RecordingMicroA
  17              		.align	2
  18              		.weak	_ZN6tflite23RecordingMicroAllocatorD2Ev
  19              		.syntax unified
  20              		.arm
  21              		.fpu neon
  23              	_ZN6tflite23RecordingMicroAllocatorD2Ev:
  24              		.fnstart
  25              	.LFB10750:
  26              		.file 1 "C:/Renesas/e2studio_2021_01_workspace_RZA2M_ANPR/ANPR_RZA2M_GR_MANGO/src/tensorflow_lite/
   1:C:/Renesas/e2studio_2021_01_workspace_RZA2M_ANPR/ANPR_RZA2M_GR_MANGO/src/tensorflow_lite/tensorflow/lite/micro\recording_micro_allocator.h **** /* Copyright 2020 The TensorFlow Authors. All Rights Reserved.
   2:C:/Renesas/e2studio_2021_01_workspace_RZA2M_ANPR/ANPR_RZA2M_GR_MANGO/src/tensorflow_lite/tensorflow/lite/micro\recording_micro_allocator.h **** 
   3:C:/Renesas/e2studio_2021_01_workspace_RZA2M_ANPR/ANPR_RZA2M_GR_MANGO/src/tensorflow_lite/tensorflow/lite/micro\recording_micro_allocator.h **** Licensed under the Apache License, Version 2.0 (the "License");
   4:C:/Renesas/e2studio_2021_01_workspace_RZA2M_ANPR/ANPR_RZA2M_GR_MANGO/src/tensorflow_lite/tensorflow/lite/micro\recording_micro_allocator.h **** you may not use this file except in compliance with the License.
   5:C:/Renesas/e2studio_2021_01_workspace_RZA2M_ANPR/ANPR_RZA2M_GR_MANGO/src/tensorflow_lite/tensorflow/lite/micro\recording_micro_allocator.h **** You may obtain a copy of the License at
   6:C:/Renesas/e2studio_2021_01_workspace_RZA2M_ANPR/ANPR_RZA2M_GR_MANGO/src/tensorflow_lite/tensorflow/lite/micro\recording_micro_allocator.h **** 
   7:C:/Renesas/e2studio_2021_01_workspace_RZA2M_ANPR/ANPR_RZA2M_GR_MANGO/src/tensorflow_lite/tensorflow/lite/micro\recording_micro_allocator.h ****     http://www.apache.org/licenses/LICENSE-2.0
   8:C:/Renesas/e2studio_2021_01_workspace_RZA2M_ANPR/ANPR_RZA2M_GR_MANGO/src/tensorflow_lite/tensorflow/lite/micro\recording_micro_allocator.h **** 
   9:C:/Renesas/e2studio_2021_01_workspace_RZA2M_ANPR/ANPR_RZA2M_GR_MANGO/src/tensorflow_lite/tensorflow/lite/micro\recording_micro_allocator.h **** Unless required by applicable law or agreed to in writing, software
  10:C:/Renesas/e2studio_2021_01_workspace_RZA2M_ANPR/ANPR_RZA2M_GR_MANGO/src/tensorflow_lite/tensorflow/lite/micro\recording_micro_allocator.h **** distributed under the License is distributed on an "AS IS" BASIS,
  11:C:/Renesas/e2studio_2021_01_workspace_RZA2M_ANPR/ANPR_RZA2M_GR_MANGO/src/tensorflow_lite/tensorflow/lite/micro\recording_micro_allocator.h **** WITHOUT WARRANTIES OR CONDITIONS OF ANY KIND, either express or implied.
  12:C:/Renesas/e2studio_2021_01_workspace_RZA2M_ANPR/ANPR_RZA2M_GR_MANGO/src/tensorflow_lite/tensorflow/lite/micro\recording_micro_allocator.h **** See the License for the specific language governing permissions and
  13:C:/Renesas/e2studio_2021_01_workspace_RZA2M_ANPR/ANPR_RZA2M_GR_MANGO/src/tensorflow_lite/tensorflow/lite/micro\recording_micro_allocator.h **** limitations under the License.
  14:C:/Renesas/e2studio_2021_01_workspace_RZA2M_ANPR/ANPR_RZA2M_GR_MANGO/src/tensorflow_lite/tensorflow/lite/micro\recording_micro_allocator.h **** ==============================================================================*/
  15:C:/Renesas/e2studio_2021_01_workspace_RZA2M_ANPR/ANPR_RZA2M_GR_MANGO/src/tensorflow_lite/tensorflow/lite/micro\recording_micro_allocator.h **** 
  16:C:/Renesas/e2studio_2021_01_workspace_RZA2M_ANPR/ANPR_RZA2M_GR_MANGO/src/tensorflow_lite/tensorflow/lite/micro\recording_micro_allocator.h **** #ifndef TENSORFLOW_LITE_MICRO_RECORDING_MICRO_ALLOCATOR_H_
  17:C:/Renesas/e2studio_2021_01_workspace_RZA2M_ANPR/ANPR_RZA2M_GR_MANGO/src/tensorflow_lite/tensorflow/lite/micro\recording_micro_allocator.h **** #define TENSORFLOW_LITE_MICRO_RECORDING_MICRO_ALLOCATOR_H_
  18:C:/Renesas/e2studio_2021_01_workspace_RZA2M_ANPR/ANPR_RZA2M_GR_MANGO/src/tensorflow_lite/tensorflow/lite/micro\recording_micro_allocator.h **** 
  19:C:/Renesas/e2studio_2021_01_workspace_RZA2M_ANPR/ANPR_RZA2M_GR_MANGO/src/tensorflow_lite/tensorflow/lite/micro\recording_micro_allocator.h **** #include "tensorflow/lite/micro/compatibility.h"
  20:C:/Renesas/e2studio_2021_01_workspace_RZA2M_ANPR/ANPR_RZA2M_GR_MANGO/src/tensorflow_lite/tensorflow/lite/micro\recording_micro_allocator.h **** #include "tensorflow/lite/micro/micro_allocator.h"
  21:C:/Renesas/e2studio_2021_01_workspace_RZA2M_ANPR/ANPR_RZA2M_GR_MANGO/src/tensorflow_lite/tensorflow/lite/micro\recording_micro_allocator.h **** #include "tensorflow/lite/micro/recording_simple_memory_allocator.h"
  22:C:/Renesas/e2studio_2021_01_workspace_RZA2M_ANPR/ANPR_RZA2M_GR_MANGO/src/tensorflow_lite/tensorflow/lite/micro\recording_micro_allocator.h **** 
  23:C:/Renesas/e2studio_2021_01_workspace_RZA2M_ANPR/ANPR_RZA2M_GR_MANGO/src/tensorflow_lite/tensorflow/lite/micro\recording_micro_allocator.h **** namespace tflite {
  24:C:/Renesas/e2studio_2021_01_workspace_RZA2M_ANPR/ANPR_RZA2M_GR_MANGO/src/tensorflow_lite/tensorflow/lite/micro\recording_micro_allocator.h **** 
  25:C:/Renesas/e2studio_2021_01_workspace_RZA2M_ANPR/ANPR_RZA2M_GR_MANGO/src/tensorflow_lite/tensorflow/lite/micro\recording_micro_allocator.h **** // List of buckets currently recorded by this class. Each type keeps a list of
  26:C:/Renesas/e2studio_2021_01_workspace_RZA2M_ANPR/ANPR_RZA2M_GR_MANGO/src/tensorflow_lite/tensorflow/lite/micro\recording_micro_allocator.h **** // allocated information during model initialization.
  27:C:/Renesas/e2studio_2021_01_workspace_RZA2M_ANPR/ANPR_RZA2M_GR_MANGO/src/tensorflow_lite/tensorflow/lite/micro\recording_micro_allocator.h **** // TODO(b/169834511): Add tracking for scratch buffer allocations.
  28:C:/Renesas/e2studio_2021_01_workspace_RZA2M_ANPR/ANPR_RZA2M_GR_MANGO/src/tensorflow_lite/tensorflow/lite/micro\recording_micro_allocator.h **** enum class RecordedAllocationType {
  29:C:/Renesas/e2studio_2021_01_workspace_RZA2M_ANPR/ANPR_RZA2M_GR_MANGO/src/tensorflow_lite/tensorflow/lite/micro\recording_micro_allocator.h ****   kTfLiteEvalTensorData,
  30:C:/Renesas/e2studio_2021_01_workspace_RZA2M_ANPR/ANPR_RZA2M_GR_MANGO/src/tensorflow_lite/tensorflow/lite/micro\recording_micro_allocator.h ****   kPersistentTfLiteTensorData,
  31:C:/Renesas/e2studio_2021_01_workspace_RZA2M_ANPR/ANPR_RZA2M_GR_MANGO/src/tensorflow_lite/tensorflow/lite/micro\recording_micro_allocator.h ****   kPersistentTfLiteTensorQuantizationData,
  32:C:/Renesas/e2studio_2021_01_workspace_RZA2M_ANPR/ANPR_RZA2M_GR_MANGO/src/tensorflow_lite/tensorflow/lite/micro\recording_micro_allocator.h ****   kPersistentBufferData,
  33:C:/Renesas/e2studio_2021_01_workspace_RZA2M_ANPR/ANPR_RZA2M_GR_MANGO/src/tensorflow_lite/tensorflow/lite/micro\recording_micro_allocator.h ****   kTfLiteTensorVariableBufferData,
  34:C:/Renesas/e2studio_2021_01_workspace_RZA2M_ANPR/ANPR_RZA2M_GR_MANGO/src/tensorflow_lite/tensorflow/lite/micro\recording_micro_allocator.h ****   kNodeAndRegistrationArray,
  35:C:/Renesas/e2studio_2021_01_workspace_RZA2M_ANPR/ANPR_RZA2M_GR_MANGO/src/tensorflow_lite/tensorflow/lite/micro\recording_micro_allocator.h ****   kOpData,
  36:C:/Renesas/e2studio_2021_01_workspace_RZA2M_ANPR/ANPR_RZA2M_GR_MANGO/src/tensorflow_lite/tensorflow/lite/micro\recording_micro_allocator.h **** };
  37:C:/Renesas/e2studio_2021_01_workspace_RZA2M_ANPR/ANPR_RZA2M_GR_MANGO/src/tensorflow_lite/tensorflow/lite/micro\recording_micro_allocator.h **** 
  38:C:/Renesas/e2studio_2021_01_workspace_RZA2M_ANPR/ANPR_RZA2M_GR_MANGO/src/tensorflow_lite/tensorflow/lite/micro\recording_micro_allocator.h **** // Container for holding information about allocation recordings by a given
  39:C:/Renesas/e2studio_2021_01_workspace_RZA2M_ANPR/ANPR_RZA2M_GR_MANGO/src/tensorflow_lite/tensorflow/lite/micro\recording_micro_allocator.h **** // type. Each recording contains the number of bytes requested, the actual bytes
  40:C:/Renesas/e2studio_2021_01_workspace_RZA2M_ANPR/ANPR_RZA2M_GR_MANGO/src/tensorflow_lite/tensorflow/lite/micro\recording_micro_allocator.h **** // allocated (can defer from requested by alignment), and the number of items
  41:C:/Renesas/e2studio_2021_01_workspace_RZA2M_ANPR/ANPR_RZA2M_GR_MANGO/src/tensorflow_lite/tensorflow/lite/micro\recording_micro_allocator.h **** // allocated.
  42:C:/Renesas/e2studio_2021_01_workspace_RZA2M_ANPR/ANPR_RZA2M_GR_MANGO/src/tensorflow_lite/tensorflow/lite/micro\recording_micro_allocator.h **** struct RecordedAllocation {
  43:C:/Renesas/e2studio_2021_01_workspace_RZA2M_ANPR/ANPR_RZA2M_GR_MANGO/src/tensorflow_lite/tensorflow/lite/micro\recording_micro_allocator.h ****   size_t requested_bytes;
  44:C:/Renesas/e2studio_2021_01_workspace_RZA2M_ANPR/ANPR_RZA2M_GR_MANGO/src/tensorflow_lite/tensorflow/lite/micro\recording_micro_allocator.h ****   size_t used_bytes;
  45:C:/Renesas/e2studio_2021_01_workspace_RZA2M_ANPR/ANPR_RZA2M_GR_MANGO/src/tensorflow_lite/tensorflow/lite/micro\recording_micro_allocator.h ****   size_t count;
  46:C:/Renesas/e2studio_2021_01_workspace_RZA2M_ANPR/ANPR_RZA2M_GR_MANGO/src/tensorflow_lite/tensorflow/lite/micro\recording_micro_allocator.h **** };
  47:C:/Renesas/e2studio_2021_01_workspace_RZA2M_ANPR/ANPR_RZA2M_GR_MANGO/src/tensorflow_lite/tensorflow/lite/micro\recording_micro_allocator.h **** 
  48:C:/Renesas/e2studio_2021_01_workspace_RZA2M_ANPR/ANPR_RZA2M_GR_MANGO/src/tensorflow_lite/tensorflow/lite/micro\recording_micro_allocator.h **** // Utility subclass of MicroAllocator that records all allocations
  49:C:/Renesas/e2studio_2021_01_workspace_RZA2M_ANPR/ANPR_RZA2M_GR_MANGO/src/tensorflow_lite/tensorflow/lite/micro\recording_micro_allocator.h **** // inside the arena. A summary of allocations can be logged through the
  50:C:/Renesas/e2studio_2021_01_workspace_RZA2M_ANPR/ANPR_RZA2M_GR_MANGO/src/tensorflow_lite/tensorflow/lite/micro\recording_micro_allocator.h **** // ErrorReporter by invoking LogAllocations(). This special allocator requires
  51:C:/Renesas/e2studio_2021_01_workspace_RZA2M_ANPR/ANPR_RZA2M_GR_MANGO/src/tensorflow_lite/tensorflow/lite/micro\recording_micro_allocator.h **** // an instance of RecordingSimpleMemoryAllocator to capture allocations in the
  52:C:/Renesas/e2studio_2021_01_workspace_RZA2M_ANPR/ANPR_RZA2M_GR_MANGO/src/tensorflow_lite/tensorflow/lite/micro\recording_micro_allocator.h **** // head and tail. Arena allocation recording can be retrieved by type through
  53:C:/Renesas/e2studio_2021_01_workspace_RZA2M_ANPR/ANPR_RZA2M_GR_MANGO/src/tensorflow_lite/tensorflow/lite/micro\recording_micro_allocator.h **** // the GetRecordedAllocation() function. This class should only be used for
  54:C:/Renesas/e2studio_2021_01_workspace_RZA2M_ANPR/ANPR_RZA2M_GR_MANGO/src/tensorflow_lite/tensorflow/lite/micro\recording_micro_allocator.h **** // auditing memory usage or integration testing.
  55:C:/Renesas/e2studio_2021_01_workspace_RZA2M_ANPR/ANPR_RZA2M_GR_MANGO/src/tensorflow_lite/tensorflow/lite/micro\recording_micro_allocator.h **** class RecordingMicroAllocator : public MicroAllocator {
  27              		.loc 1 55 0
  28              		.cfi_startproc
  29              		@ args = 0, pretend = 0, frame = 0
  30              		@ frame_needed = 0, uses_anonymous_args = 0
  31              	.LVL0:
  32              	.LBB279:
  33 0000 14309FE5 		ldr	r3, .L3
  34              	.LBE279:
  35 0004 10402DE9 		push	{r4, lr}
  36              		.cfi_def_cfa_offset 8
  37              		.cfi_offset 4, -8
  38              		.cfi_offset 14, -4
  39              		.loc 1 55 0
  40 0008 0040A0E1 		mov	r4, r0
  41              	.LBB280:
  42 000c 003080E5 		str	r3, [r0]
  43 0010 FEFFFFEB 		bl	_ZN6tflite14MicroAllocatorD2Ev
  44              	.LVL1:
  45              	.LBE280:
  46 0014 0400A0E1 		mov	r0, r4
  47 0018 1080BDE8 		pop	{r4, pc}
  48              	.L4:
  49              		.align	2
  50              	.L3:
  51 001c 08000000 		.word	.LANCHOR0+8
  52              		.cfi_endproc
  53              	.LFE10750:
  54              		.cantunwind
  55              		.fnend
  57              		.weak	_ZN6tflite23RecordingMicroAllocatorD1Ev
  58              		.set	_ZN6tflite23RecordingMicroAllocatorD1Ev,_ZN6tflite23RecordingMicroAllocatorD2Ev
  59              		.section	.text._ZN6tflite23RecordingMicroAllocatorD0Ev,"axG",%progbits,_ZN6tflite23RecordingMicroA
  60              		.align	2
  61              		.weak	_ZN6tflite23RecordingMicroAllocatorD0Ev
  62              		.syntax unified
  63              		.arm
  64              		.fpu neon
  66              	_ZN6tflite23RecordingMicroAllocatorD0Ev:
  67              		.fnstart
  68              	.LFB10752:
  69              		.loc 1 55 0
  70              		.cfi_startproc
  71              		@ args = 0, pretend = 0, frame = 0
  72              		@ frame_needed = 0, uses_anonymous_args = 0
  73              	.LVL2:
  74              	.LBB281:
  75              	.LBB282:
  76 0000 1C309FE5 		ldr	r3, .L7
  77              	.LBE282:
  78              	.LBE281:
  79 0004 10402DE9 		push	{r4, lr}
  80              		.cfi_def_cfa_offset 8
  81              		.cfi_offset 4, -8
  82              		.cfi_offset 14, -4
  83              		.loc 1 55 0
  84 0008 0040A0E1 		mov	r4, r0
  85              	.LVL3:
  86              	.LBB284:
  87              	.LBB283:
  88 000c 003080E5 		str	r3, [r0]
  89 0010 FEFFFFEB 		bl	_ZN6tflite14MicroAllocatorD2Ev
  90              	.LVL4:
  91              	.LBE283:
  92              	.LBE284:
  93 0014 0400A0E1 		mov	r0, r4
  94 0018 FEFFFFEB 		bl	_ZdlPv
  95              	.LVL5:
  96 001c 0400A0E1 		mov	r0, r4
  97 0020 1080BDE8 		pop	{r4, pc}
  98              	.L8:
  99              		.align	2
 100              	.L7:
 101 0024 08000000 		.word	.LANCHOR0+8
 102              		.cfi_endproc
 103              	.LFE10752:
 104              		.cantunwind
 105              		.fnend
 107              		.section	.text._ZN6tflite23RecordingMicroAllocatorC2EPNS_30RecordingSimpleMemoryAllocatorEPNS_13Er
 108              		.align	2
 109              		.global	_ZN6tflite23RecordingMicroAllocatorC2EPNS_30RecordingSimpleMemoryAllocatorEPNS_13ErrorRepo
 110              		.syntax unified
 111              		.arm
 112              		.fpu neon
 114              	_ZN6tflite23RecordingMicroAllocatorC2EPNS_30RecordingSimpleMemoryAllocatorEPNS_13ErrorReporterE:
 115              		.fnstart
 116              	.LFB6508:
 117              		.file 2 "../src/tensorflow_lite/tensorflow/lite/micro/recording_micro_allocator.cc"
   1:../src/tensorflow_lite/tensorflow/lite/micro/recording_micro_allocator.cc **** /* Copyright 2020 The TensorFlow Authors. All Rights Reserved.
   2:../src/tensorflow_lite/tensorflow/lite/micro/recording_micro_allocator.cc **** 
   3:../src/tensorflow_lite/tensorflow/lite/micro/recording_micro_allocator.cc **** Licensed under the Apache License, Version 2.0 (the "License");
   4:../src/tensorflow_lite/tensorflow/lite/micro/recording_micro_allocator.cc **** you may not use this file except in compliance with the License.
   5:../src/tensorflow_lite/tensorflow/lite/micro/recording_micro_allocator.cc **** You may obtain a copy of the License at
   6:../src/tensorflow_lite/tensorflow/lite/micro/recording_micro_allocator.cc **** 
   7:../src/tensorflow_lite/tensorflow/lite/micro/recording_micro_allocator.cc ****     http://www.apache.org/licenses/LICENSE-2.0
   8:../src/tensorflow_lite/tensorflow/lite/micro/recording_micro_allocator.cc **** 
   9:../src/tensorflow_lite/tensorflow/lite/micro/recording_micro_allocator.cc **** Unless required by applicable law or agreed to in writing, software
  10:../src/tensorflow_lite/tensorflow/lite/micro/recording_micro_allocator.cc **** distributed under the License is distributed on an "AS IS" BASIS,
  11:../src/tensorflow_lite/tensorflow/lite/micro/recording_micro_allocator.cc **** WITHOUT WARRANTIES OR CONDITIONS OF ANY KIND, either express or implied.
  12:../src/tensorflow_lite/tensorflow/lite/micro/recording_micro_allocator.cc **** See the License for the specific language governing permissions and
  13:../src/tensorflow_lite/tensorflow/lite/micro/recording_micro_allocator.cc **** limitations under the License.
  14:../src/tensorflow_lite/tensorflow/lite/micro/recording_micro_allocator.cc **** ==============================================================================*/
  15:../src/tensorflow_lite/tensorflow/lite/micro/recording_micro_allocator.cc **** 
  16:../src/tensorflow_lite/tensorflow/lite/micro/recording_micro_allocator.cc **** #include "tensorflow/lite/micro/recording_micro_allocator.h"
  17:../src/tensorflow_lite/tensorflow/lite/micro/recording_micro_allocator.cc **** 
  18:../src/tensorflow_lite/tensorflow/lite/micro/recording_micro_allocator.cc **** #include "tensorflow/lite/core/api/error_reporter.h"
  19:../src/tensorflow_lite/tensorflow/lite/micro/recording_micro_allocator.cc **** #include "tensorflow/lite/kernels/internal/compatibility.h"
  20:../src/tensorflow_lite/tensorflow/lite/micro/recording_micro_allocator.cc **** #include "tensorflow/lite/micro/compatibility.h"
  21:../src/tensorflow_lite/tensorflow/lite/micro/recording_micro_allocator.cc **** #include "tensorflow/lite/micro/micro_allocator.h"
  22:../src/tensorflow_lite/tensorflow/lite/micro/recording_micro_allocator.cc **** #include "tensorflow/lite/micro/recording_simple_memory_allocator.h"
  23:../src/tensorflow_lite/tensorflow/lite/micro/recording_micro_allocator.cc **** 
  24:../src/tensorflow_lite/tensorflow/lite/micro/recording_micro_allocator.cc **** namespace tflite {
  25:../src/tensorflow_lite/tensorflow/lite/micro/recording_micro_allocator.cc **** 
  26:../src/tensorflow_lite/tensorflow/lite/micro/recording_micro_allocator.cc **** RecordingMicroAllocator::RecordingMicroAllocator(
 118              		.loc 2 26 0
 119              		.cfi_startproc
 120              		@ args = 0, pretend = 0, frame = 0
 121              		@ frame_needed = 0, uses_anonymous_args = 0
 122              	.LVL6:
 123 0000 F0412DE9 		push	{r4, r5, r6, r7, r8, lr}
 124              		.save {r4, r5, r6, r7, r8, lr}
 125              		.cfi_def_cfa_offset 24
 126              		.cfi_offset 4, -24
 127              		.cfi_offset 5, -20
 128              		.cfi_offset 6, -16
 129              		.cfi_offset 7, -12
 130              		.cfi_offset 8, -8
 131              		.cfi_offset 14, -4
 132              		.loc 2 26 0
 133 0004 0040A0E1 		mov	r4, r0
 134 0008 0170A0E1 		mov	r7, r1
 135              	.LBB286:
  27:../src/tensorflow_lite/tensorflow/lite/micro/recording_micro_allocator.cc ****     RecordingSimpleMemoryAllocator* recording_memory_allocator,
  28:../src/tensorflow_lite/tensorflow/lite/micro/recording_micro_allocator.cc ****     ErrorReporter* error_reporter)
  29:../src/tensorflow_lite/tensorflow/lite/micro/recording_micro_allocator.cc ****     : MicroAllocator(recording_memory_allocator, error_reporter),
  30:../src/tensorflow_lite/tensorflow/lite/micro/recording_micro_allocator.cc ****       recording_memory_allocator_(recording_memory_allocator) {}
 136              		.loc 2 30 0
 137 000c 206084E2 		add	r6, r4, #32
 138 0010 385084E2 		add	r5, r4, #56
 139 0014 FEFFFFEB 		bl	_ZN6tflite14MicroAllocatorC2EPNS_21SimpleMemoryAllocatorEPNS_13ErrorReporterE
 140              	.LVL7:
 141 0018 68209FE5 		ldr	r2, .L11
 142 001c 0030A0E3 		mov	r3, #0
 143 0020 44E084E2 		add	lr, r4, #68
 144 0024 1C7084E5 		str	r7, [r4, #28]
 145 0028 203084E5 		str	r3, [r4, #32]
 146              	.LBE286:
 147 002c 0400A0E1 		mov	r0, r4
 148              	.LBB287:
 149 0030 002084E5 		str	r2, [r4]
 150 0034 243084E5 		str	r3, [r4, #36]
 151 0038 283084E5 		str	r3, [r4, #40]
 152 003c 2C3084E5 		str	r3, [r4, #44]
 153 0040 303084E5 		str	r3, [r4, #48]
 154 0044 343084E5 		str	r3, [r4, #52]
 155 0048 383084E5 		str	r3, [r4, #56]
 156 004c 3C3084E5 		str	r3, [r4, #60]
 157 0050 403084E5 		str	r3, [r4, #64]
 158 0054 443084E5 		str	r3, [r4, #68]
 159 0058 483084E5 		str	r3, [r4, #72]
 160 005c 4C3084E5 		str	r3, [r4, #76]
 161 0060 503084E5 		str	r3, [r4, #80]
 162 0064 543084E5 		str	r3, [r4, #84]
 163 0068 583084E5 		str	r3, [r4, #88]
 164 006c 5C3084E5 		str	r3, [r4, #92]
 165 0070 603084E5 		str	r3, [r4, #96]
 166 0074 643084E5 		str	r3, [r4, #100]
 167 0078 683084E5 		str	r3, [r4, #104]
 168 007c 6C3084E5 		str	r3, [r4, #108]
 169 0080 703084E5 		str	r3, [r4, #112]
 170              	.LBE287:
 171 0084 F081BDE8 		pop	{r4, r5, r6, r7, r8, pc}
 172              	.L12:
 173              		.align	2
 174              	.L11:
 175 0088 08000000 		.word	.LANCHOR0+8
 176              		.cfi_endproc
 177              	.LFE6508:
 178              		.fnend
 180              		.global	_ZN6tflite23RecordingMicroAllocatorC1EPNS_30RecordingSimpleMemoryAllocatorEPNS_13ErrorRepo
 181              		.set	_ZN6tflite23RecordingMicroAllocatorC1EPNS_30RecordingSimpleMemoryAllocatorEPNS_13ErrorReporte
 182              		.section	.text._ZN6tflite23RecordingMicroAllocator6CreateEPhjPNS_13ErrorReporterE,"ax",%progbits
 183              		.align	2
 184              		.global	_ZN6tflite23RecordingMicroAllocator6CreateEPhjPNS_13ErrorReporterE
 185              		.syntax unified
 186              		.arm
 187              		.fpu neon
 189              	_ZN6tflite23RecordingMicroAllocator6CreateEPhjPNS_13ErrorReporterE:
 190              		.fnstart
 191              	.LFB6510:
  31:../src/tensorflow_lite/tensorflow/lite/micro/recording_micro_allocator.cc **** 
  32:../src/tensorflow_lite/tensorflow/lite/micro/recording_micro_allocator.cc **** RecordingMicroAllocator* RecordingMicroAllocator::Create(
  33:../src/tensorflow_lite/tensorflow/lite/micro/recording_micro_allocator.cc ****     uint8_t* tensor_arena, size_t arena_size, ErrorReporter* error_reporter) {
 192              		.loc 2 33 0
 193              		.cfi_startproc
 194              		@ args = 0, pretend = 0, frame = 0
 195              		@ frame_needed = 0, uses_anonymous_args = 0
 196              	.LVL8:
 197 0000 F0412DE9 		push	{r4, r5, r6, r7, r8, lr}
 198              		.save {r4, r5, r6, r7, r8, lr}
 199              		.cfi_def_cfa_offset 24
 200              		.cfi_offset 4, -24
 201              		.cfi_offset 5, -20
 202              		.cfi_offset 6, -16
 203              		.cfi_offset 7, -12
 204              		.cfi_offset 8, -8
 205              		.cfi_offset 14, -4
  34:../src/tensorflow_lite/tensorflow/lite/micro/recording_micro_allocator.cc ****   TFLITE_DCHECK(error_reporter != nullptr);
 206              		.loc 2 34 0
 207 0004 005052E2 		subs	r5, r2, #0
 208 0008 2D00000A 		beq	.L15
  35:../src/tensorflow_lite/tensorflow/lite/micro/recording_micro_allocator.cc **** 
  36:../src/tensorflow_lite/tensorflow/lite/micro/recording_micro_allocator.cc ****   RecordingSimpleMemoryAllocator* simple_memory_allocator =
  37:../src/tensorflow_lite/tensorflow/lite/micro/recording_micro_allocator.cc ****       RecordingSimpleMemoryAllocator::Create(error_reporter, tensor_arena,
  38:../src/tensorflow_lite/tensorflow/lite/micro/recording_micro_allocator.cc ****                                              arena_size);
 209              		.loc 2 38 0
 210 000c 0120A0E1 		mov	r2, r1
 211              	.LVL9:
 212 0010 0010A0E1 		mov	r1, r0
 213              	.LVL10:
 214 0014 0500A0E1 		mov	r0, r5
 215              	.LVL11:
 216 0018 FEFFFFEB 		bl	_ZN6tflite30RecordingSimpleMemoryAllocator6CreateEPNS_13ErrorReporterEPhj
 217              	.LVL12:
  39:../src/tensorflow_lite/tensorflow/lite/micro/recording_micro_allocator.cc ****   TFLITE_DCHECK(simple_memory_allocator != nullptr);
 218              		.loc 2 39 0
 219 001c 007050E2 		subs	r7, r0, #0
 220 0020 2700000A 		beq	.L15
  40:../src/tensorflow_lite/tensorflow/lite/micro/recording_micro_allocator.cc **** 
  41:../src/tensorflow_lite/tensorflow/lite/micro/recording_micro_allocator.cc ****   uint8_t* allocator_buffer = simple_memory_allocator->AllocateFromTail(
  42:../src/tensorflow_lite/tensorflow/lite/micro/recording_micro_allocator.cc ****       sizeof(RecordingMicroAllocator), alignof(RecordingMicroAllocator));
 221              		.loc 2 42 0
 222 0024 003097E5 		ldr	r3, [r7]
 223 0028 0420A0E3 		mov	r2, #4
 224 002c 7410A0E3 		mov	r1, #116
 225 0030 0C3093E5 		ldr	r3, [r3, #12]
 226 0034 33FF2FE1 		blx	r3
 227              	.LVL13:
  43:../src/tensorflow_lite/tensorflow/lite/micro/recording_micro_allocator.cc ****   RecordingMicroAllocator* allocator = new (allocator_buffer)
  44:../src/tensorflow_lite/tensorflow/lite/micro/recording_micro_allocator.cc ****       RecordingMicroAllocator(simple_memory_allocator, error_reporter);
 228              		.loc 2 44 0
 229 0038 004050E2 		subs	r4, r0, #0
 230 003c 1E00000A 		beq	.L16
 231              	.LVL14:
 232              	.LBB291:
 233              	.LBB292:
  30:../src/tensorflow_lite/tensorflow/lite/micro/recording_micro_allocator.cc **** 
 234              		.loc 2 30 0
 235 0040 0520A0E1 		mov	r2, r5
 236 0044 0710A0E1 		mov	r1, r7
 237 0048 FEFFFFEB 		bl	_ZN6tflite14MicroAllocatorC2EPNS_21SimpleMemoryAllocatorEPNS_13ErrorReporterE
 238              	.LVL15:
 239 004c 74209FE5 		ldr	r2, .L25
 240 0050 206084E2 		add	r6, r4, #32
 241 0054 2C5084E2 		add	r5, r4, #44
 242              	.LVL16:
 243 0058 38E084E2 		add	lr, r4, #56
 244 005c 0030A0E3 		mov	r3, #0
 245 0060 1C7084E5 		str	r7, [r4, #28]
 246 0064 002084E5 		str	r2, [r4]
 247 0068 203084E5 		str	r3, [r4, #32]
 248 006c 243084E5 		str	r3, [r4, #36]
 249 0070 283084E5 		str	r3, [r4, #40]
 250 0074 2C3084E5 		str	r3, [r4, #44]
 251 0078 303084E5 		str	r3, [r4, #48]
 252 007c 343084E5 		str	r3, [r4, #52]
 253 0080 383084E5 		str	r3, [r4, #56]
 254 0084 3C3084E5 		str	r3, [r4, #60]
 255 0088 403084E5 		str	r3, [r4, #64]
 256 008c 443084E5 		str	r3, [r4, #68]
 257 0090 483084E5 		str	r3, [r4, #72]
 258 0094 4C3084E5 		str	r3, [r4, #76]
 259 0098 503084E5 		str	r3, [r4, #80]
 260 009c 543084E5 		str	r3, [r4, #84]
 261 00a0 583084E5 		str	r3, [r4, #88]
 262 00a4 5C3084E5 		str	r3, [r4, #92]
 263 00a8 603084E5 		str	r3, [r4, #96]
 264 00ac 643084E5 		str	r3, [r4, #100]
 265 00b0 683084E5 		str	r3, [r4, #104]
 266 00b4 6C3084E5 		str	r3, [r4, #108]
 267 00b8 703084E5 		str	r3, [r4, #112]
 268              	.LVL17:
 269              	.L16:
 270              	.LBE292:
 271              	.LBE291:
  45:../src/tensorflow_lite/tensorflow/lite/micro/recording_micro_allocator.cc ****   return allocator;
  46:../src/tensorflow_lite/tensorflow/lite/micro/recording_micro_allocator.cc **** }
 272              		.loc 2 46 0 discriminator 6
 273 00bc 0400A0E1 		mov	r0, r4
 274 00c0 F081BDE8 		pop	{r4, r5, r6, r7, r8, pc}
 275              	.LVL18:
 276              	.L15:
  34:../src/tensorflow_lite/tensorflow/lite/micro/recording_micro_allocator.cc **** 
 277              		.loc 2 34 0 discriminator 1
 278 00c4 FEFFFFEB 		bl	abort
 279              	.LVL19:
 280              	.L26:
 281              		.align	2
 282              	.L25:
 283 00c8 08000000 		.word	.LANCHOR0+8
 284              		.cfi_endproc
 285              	.LFE6510:
 286              		.fnend
 288              		.section	.text._ZNK6tflite23RecordingMicroAllocator21GetRecordedAllocationENS_22RecordedAllocation
 289              		.align	2
 290              		.global	_ZNK6tflite23RecordingMicroAllocator21GetRecordedAllocationENS_22RecordedAllocationTypeE
 291              		.syntax unified
 292              		.arm
 293              		.fpu neon
 295              	_ZNK6tflite23RecordingMicroAllocator21GetRecordedAllocationENS_22RecordedAllocationTypeE:
 296              		.fnstart
 297              	.LFB6511:
  47:../src/tensorflow_lite/tensorflow/lite/micro/recording_micro_allocator.cc **** 
  48:../src/tensorflow_lite/tensorflow/lite/micro/recording_micro_allocator.cc **** RecordedAllocation RecordingMicroAllocator::GetRecordedAllocation(
  49:../src/tensorflow_lite/tensorflow/lite/micro/recording_micro_allocator.cc ****     RecordedAllocationType allocation_type) const {
 298              		.loc 2 49 0
 299              		.cfi_startproc
 300              		@ args = 0, pretend = 0, frame = 8
 301              		@ frame_needed = 0, uses_anonymous_args = 0
 302              	.LVL20:
 303 0000 10402DE9 		push	{r4, lr}
 304              		.save {r4, lr}
 305              		.cfi_def_cfa_offset 8
 306              		.cfi_offset 4, -8
 307              		.cfi_offset 14, -4
 308 0004 0040A0E1 		mov	r4, r0
 309              		.pad #8
 310 0008 08D04DE2 		sub	sp, sp, #8
 311              		.cfi_def_cfa_offset 16
  50:../src/tensorflow_lite/tensorflow/lite/micro/recording_micro_allocator.cc ****   switch (allocation_type) {
 312              		.loc 2 50 0
 313 000c 060052E3 		cmp	r2, #6
 314 0010 02F19F97 		ldrls	pc, [pc, r2, asl #2]
 315 0014 300000EA 		b	.L28
 316              	.L30:
 317 0018 4C000000 		.word	.L29
 318 001c 64000000 		.word	.L31
 319 0020 7C000000 		.word	.L32
 320 0024 94000000 		.word	.L33
 321 0028 AC000000 		.word	.L34
 322 002c C4000000 		.word	.L35
 323 0030 34000000 		.word	.L36
 324              	.L36:
  51:../src/tensorflow_lite/tensorflow/lite/micro/recording_micro_allocator.cc ****     case RecordedAllocationType::kTfLiteEvalTensorData:
  52:../src/tensorflow_lite/tensorflow/lite/micro/recording_micro_allocator.cc ****       return recorded_tflite_eval_tensor_data_;
  53:../src/tensorflow_lite/tensorflow/lite/micro/recording_micro_allocator.cc ****     case RecordedAllocationType::kPersistentTfLiteTensorData:
  54:../src/tensorflow_lite/tensorflow/lite/micro/recording_micro_allocator.cc ****       return recorded_persistent_tflite_tensor_data_;
  55:../src/tensorflow_lite/tensorflow/lite/micro/recording_micro_allocator.cc ****     case RecordedAllocationType::kPersistentTfLiteTensorQuantizationData:
  56:../src/tensorflow_lite/tensorflow/lite/micro/recording_micro_allocator.cc ****       return recorded_persistent_tflite_tensor_quantization_data_;
  57:../src/tensorflow_lite/tensorflow/lite/micro/recording_micro_allocator.cc ****     case RecordedAllocationType::kPersistentBufferData:
  58:../src/tensorflow_lite/tensorflow/lite/micro/recording_micro_allocator.cc ****       return recorded_persistent_buffer_data_;
  59:../src/tensorflow_lite/tensorflow/lite/micro/recording_micro_allocator.cc ****     case RecordedAllocationType::kTfLiteTensorVariableBufferData:
  60:../src/tensorflow_lite/tensorflow/lite/micro/recording_micro_allocator.cc ****       return recorded_tflite_tensor_variable_buffer_data_;
  61:../src/tensorflow_lite/tensorflow/lite/micro/recording_micro_allocator.cc ****     case RecordedAllocationType::kNodeAndRegistrationArray:
  62:../src/tensorflow_lite/tensorflow/lite/micro/recording_micro_allocator.cc ****       return recorded_node_and_registration_array_data_;
  63:../src/tensorflow_lite/tensorflow/lite/micro/recording_micro_allocator.cc ****     case RecordedAllocationType::kOpData:
  64:../src/tensorflow_lite/tensorflow/lite/micro/recording_micro_allocator.cc ****       return recorded_op_data_;
 325              		.loc 2 64 0
 326 0034 681081E2 		add	r1, r1, #104
 327              	.LVL21:
 328 0038 070091E8 		ldm	r1, {r0, r1, r2}
 329              	.LVL22:
 330 003c 070084E8 		stm	r4, {r0, r1, r2}
  65:../src/tensorflow_lite/tensorflow/lite/micro/recording_micro_allocator.cc ****   }
  66:../src/tensorflow_lite/tensorflow/lite/micro/recording_micro_allocator.cc ****   TF_LITE_REPORT_ERROR(error_reporter(), "Invalid allocation type supplied: %d",
  67:../src/tensorflow_lite/tensorflow/lite/micro/recording_micro_allocator.cc ****                        allocation_type);
  68:../src/tensorflow_lite/tensorflow/lite/micro/recording_micro_allocator.cc ****   return RecordedAllocation();
  69:../src/tensorflow_lite/tensorflow/lite/micro/recording_micro_allocator.cc **** }
 331              		.loc 2 69 0
 332 0040 0400A0E1 		mov	r0, r4
 333 0044 08D08DE2 		add	sp, sp, #8
 334              		.cfi_remember_state
 335              		.cfi_def_cfa_offset 8
 336              		@ sp needed
 337 0048 1080BDE8 		pop	{r4, pc}
 338              	.LVL23:
 339              	.L29:
 340              		.cfi_restore_state
  52:../src/tensorflow_lite/tensorflow/lite/micro/recording_micro_allocator.cc ****     case RecordedAllocationType::kPersistentTfLiteTensorData:
 341              		.loc 2 52 0
 342 004c 201081E2 		add	r1, r1, #32
 343              	.LVL24:
 344 0050 070091E8 		ldm	r1, {r0, r1, r2}
 345              	.LVL25:
 346 0054 070084E8 		stm	r4, {r0, r1, r2}
 347              		.loc 2 69 0
 348 0058 0400A0E1 		mov	r0, r4
 349 005c 08D08DE2 		add	sp, sp, #8
 350              		.cfi_remember_state
 351              		.cfi_def_cfa_offset 8
 352              		@ sp needed
 353 0060 1080BDE8 		pop	{r4, pc}
 354              	.LVL26:
 355              	.L31:
 356              		.cfi_restore_state
  54:../src/tensorflow_lite/tensorflow/lite/micro/recording_micro_allocator.cc ****     case RecordedAllocationType::kPersistentTfLiteTensorQuantizationData:
 357              		.loc 2 54 0
 358 0064 2C1081E2 		add	r1, r1, #44
 359              	.LVL27:
 360 0068 070091E8 		ldm	r1, {r0, r1, r2}
 361              	.LVL28:
 362 006c 070084E8 		stm	r4, {r0, r1, r2}
 363              		.loc 2 69 0
 364 0070 0400A0E1 		mov	r0, r4
 365 0074 08D08DE2 		add	sp, sp, #8
 366              		.cfi_remember_state
 367              		.cfi_def_cfa_offset 8
 368              		@ sp needed
 369 0078 1080BDE8 		pop	{r4, pc}
 370              	.LVL29:
 371              	.L32:
 372              		.cfi_restore_state
  56:../src/tensorflow_lite/tensorflow/lite/micro/recording_micro_allocator.cc ****     case RecordedAllocationType::kPersistentBufferData:
 373              		.loc 2 56 0
 374 007c 381081E2 		add	r1, r1, #56
 375              	.LVL30:
 376 0080 070091E8 		ldm	r1, {r0, r1, r2}
 377              	.LVL31:
 378 0084 070084E8 		stm	r4, {r0, r1, r2}
 379              		.loc 2 69 0
 380 0088 0400A0E1 		mov	r0, r4
 381 008c 08D08DE2 		add	sp, sp, #8
 382              		.cfi_remember_state
 383              		.cfi_def_cfa_offset 8
 384              		@ sp needed
 385 0090 1080BDE8 		pop	{r4, pc}
 386              	.LVL32:
 387              	.L33:
 388              		.cfi_restore_state
  58:../src/tensorflow_lite/tensorflow/lite/micro/recording_micro_allocator.cc ****     case RecordedAllocationType::kTfLiteTensorVariableBufferData:
 389              		.loc 2 58 0
 390 0094 441081E2 		add	r1, r1, #68
 391              	.LVL33:
 392 0098 070091E8 		ldm	r1, {r0, r1, r2}
 393              	.LVL34:
 394 009c 070084E8 		stm	r4, {r0, r1, r2}
 395              		.loc 2 69 0
 396 00a0 0400A0E1 		mov	r0, r4
 397 00a4 08D08DE2 		add	sp, sp, #8
 398              		.cfi_remember_state
 399              		.cfi_def_cfa_offset 8
 400              		@ sp needed
 401 00a8 1080BDE8 		pop	{r4, pc}
 402              	.LVL35:
 403              	.L34:
 404              		.cfi_restore_state
  60:../src/tensorflow_lite/tensorflow/lite/micro/recording_micro_allocator.cc ****     case RecordedAllocationType::kNodeAndRegistrationArray:
 405              		.loc 2 60 0
 406 00ac 501081E2 		add	r1, r1, #80
 407              	.LVL36:
 408 00b0 070091E8 		ldm	r1, {r0, r1, r2}
 409              	.LVL37:
 410 00b4 070084E8 		stm	r4, {r0, r1, r2}
 411              		.loc 2 69 0
 412 00b8 0400A0E1 		mov	r0, r4
 413 00bc 08D08DE2 		add	sp, sp, #8
 414              		.cfi_remember_state
 415              		.cfi_def_cfa_offset 8
 416              		@ sp needed
 417 00c0 1080BDE8 		pop	{r4, pc}
 418              	.LVL38:
 419              	.L35:
 420              		.cfi_restore_state
  62:../src/tensorflow_lite/tensorflow/lite/micro/recording_micro_allocator.cc ****     case RecordedAllocationType::kOpData:
 421              		.loc 2 62 0
 422 00c4 5C1081E2 		add	r1, r1, #92
 423              	.LVL39:
 424 00c8 070091E8 		ldm	r1, {r0, r1, r2}
 425              	.LVL40:
 426 00cc 070084E8 		stm	r4, {r0, r1, r2}
 427              		.loc 2 69 0
 428 00d0 0400A0E1 		mov	r0, r4
 429 00d4 08D08DE2 		add	sp, sp, #8
 430              		.cfi_def_cfa_offset 8
 431              		@ sp needed
 432 00d8 1080BDE8 		pop	{r4, pc}
 433              	.LVL41:
 434              	.L28:
  66:../src/tensorflow_lite/tensorflow/lite/micro/recording_micro_allocator.cc ****                        allocation_type);
 435              		.loc 2 66 0
 436 00dc 0100A0E1 		mov	r0, r1
 437              	.LVL42:
 438 00e0 04208DE5 		str	r2, [sp, #4]
 439 00e4 FEFFFFEB 		bl	_ZNK6tflite14MicroAllocator14error_reporterEv
 440              	.LVL43:
 441 00e8 001000E3 		movw	r1, #:lower16:.LC0
 442 00ec 04209DE5 		ldr	r2, [sp, #4]
 443 00f0 001040E3 		movt	r1, #:upper16:.LC0
 444 00f4 FEFFFFEB 		bl	_ZN6tflite13ErrorReporter6ReportEPKcz
 445              	.LVL44:
  68:../src/tensorflow_lite/tensorflow/lite/micro/recording_micro_allocator.cc **** }
 446              		.loc 2 68 0
 447 00f8 0030A0E3 		mov	r3, #0
 448              		.loc 2 69 0
 449 00fc 0400A0E1 		mov	r0, r4
  68:../src/tensorflow_lite/tensorflow/lite/micro/recording_micro_allocator.cc **** }
 450              		.loc 2 68 0
 451 0100 003084E5 		str	r3, [r4]
 452 0104 043084E5 		str	r3, [r4, #4]
 453 0108 083084E5 		str	r3, [r4, #8]
 454              		.loc 2 69 0
 455 010c 08D08DE2 		add	sp, sp, #8
 456              		@ sp needed
 457 0110 1080BDE8 		pop	{r4, pc}
 458              		.cfi_endproc
 459              	.LFE6511:
 460              		.fnend
 462              		.section	.text._ZNK6tflite23RecordingMicroAllocator24GetSimpleMemoryAllocatorEv,"ax",%progbits
 463              		.align	2
 464              		.global	_ZNK6tflite23RecordingMicroAllocator24GetSimpleMemoryAllocatorEv
 465              		.syntax unified
 466              		.arm
 467              		.fpu neon
 469              	_ZNK6tflite23RecordingMicroAllocator24GetSimpleMemoryAllocatorEv:
 470              		.fnstart
 471              	.LFB6512:
  70:../src/tensorflow_lite/tensorflow/lite/micro/recording_micro_allocator.cc **** 
  71:../src/tensorflow_lite/tensorflow/lite/micro/recording_micro_allocator.cc **** const RecordingSimpleMemoryAllocator*
  72:../src/tensorflow_lite/tensorflow/lite/micro/recording_micro_allocator.cc **** RecordingMicroAllocator::GetSimpleMemoryAllocator() const {
 472              		.loc 2 72 0
 473              		.cfi_startproc
 474              		@ args = 0, pretend = 0, frame = 0
 475              		@ frame_needed = 0, uses_anonymous_args = 0
 476              		@ link register save eliminated.
 477              	.LVL45:
  73:../src/tensorflow_lite/tensorflow/lite/micro/recording_micro_allocator.cc ****   return recording_memory_allocator_;
  74:../src/tensorflow_lite/tensorflow/lite/micro/recording_micro_allocator.cc **** }
 478              		.loc 2 74 0
 479 0000 1C0090E5 		ldr	r0, [r0, #28]
 480              	.LVL46:
 481 0004 1EFF2FE1 		bx	lr
 482              		.cfi_endproc
 483              	.LFE6512:
 484              		.cantunwind
 485              		.fnend
 487              		.section	.text._ZNK6tflite23RecordingMicroAllocator16PrintAllocationsEv,"ax",%progbits
 488              		.align	2
 489              		.global	_ZNK6tflite23RecordingMicroAllocator16PrintAllocationsEv
 490              		.syntax unified
 491              		.arm
 492              		.fpu neon
 494              	_ZNK6tflite23RecordingMicroAllocator16PrintAllocationsEv:
 495              		.fnstart
 496              	.LFB6513:
  75:../src/tensorflow_lite/tensorflow/lite/micro/recording_micro_allocator.cc **** 
  76:../src/tensorflow_lite/tensorflow/lite/micro/recording_micro_allocator.cc **** void RecordingMicroAllocator::PrintAllocations() const {
 497              		.loc 2 76 0
 498              		.cfi_startproc
 499              		@ args = 0, pretend = 0, frame = 0
 500              		@ frame_needed = 0, uses_anonymous_args = 0
 501              	.LVL47:
 502 0000 F0402DE9 		push	{r4, r5, r6, r7, lr}
 503              		.save {r4, r5, r6, r7, lr}
 504              		.cfi_def_cfa_offset 20
 505              		.cfi_offset 4, -20
 506              		.cfi_offset 5, -16
 507              		.cfi_offset 6, -12
 508              		.cfi_offset 7, -8
 509              		.cfi_offset 14, -4
 510 0004 0040A0E1 		mov	r4, r0
 511              		.pad #20
 512 0008 14D04DE2 		sub	sp, sp, #20
 513              		.cfi_def_cfa_offset 40
  77:../src/tensorflow_lite/tensorflow/lite/micro/recording_micro_allocator.cc ****   TF_LITE_REPORT_ERROR(
 514              		.loc 2 77 0
 515 000c FEFFFFEB 		bl	_ZNK6tflite14MicroAllocator14error_reporterEv
 516              	.LVL48:
 517 0010 0050A0E1 		mov	r5, r0
 518 0014 1C0094E5 		ldr	r0, [r4, #28]
 519 0018 FEFFFFEB 		bl	_ZNK6tflite30RecordingSimpleMemoryAllocator12GetUsedBytesEv
 520              	.LVL49:
 521 001c 001000E3 		movw	r1, #:lower16:.LC1
 522 0020 0020A0E1 		mov	r2, r0
 523 0024 001040E3 		movt	r1, #:upper16:.LC1
 524 0028 0500A0E1 		mov	r0, r5
 525 002c FEFFFFEB 		bl	_ZN6tflite13ErrorReporter6ReportEPKcz
 526              	.LVL50:
  78:../src/tensorflow_lite/tensorflow/lite/micro/recording_micro_allocator.cc ****       error_reporter(),
  79:../src/tensorflow_lite/tensorflow/lite/micro/recording_micro_allocator.cc ****       "[RecordingMicroAllocator] Arena allocation total %d bytes",
  80:../src/tensorflow_lite/tensorflow/lite/micro/recording_micro_allocator.cc ****       recording_memory_allocator_->GetUsedBytes());
  81:../src/tensorflow_lite/tensorflow/lite/micro/recording_micro_allocator.cc ****   TF_LITE_REPORT_ERROR(
 527              		.loc 2 81 0
 528 0030 0400A0E1 		mov	r0, r4
 529 0034 FEFFFFEB 		bl	_ZNK6tflite14MicroAllocator14error_reporterEv
 530              	.LVL51:
 531 0038 0050A0E1 		mov	r5, r0
 532 003c 1C0094E5 		ldr	r0, [r4, #28]
 533 0040 FEFFFFEB 		bl	_ZNK6tflite21SimpleMemoryAllocator16GetHeadUsedBytesEv
 534              	.LVL52:
 535 0044 001000E3 		movw	r1, #:lower16:.LC2
 536 0048 0020A0E1 		mov	r2, r0
 537 004c 001040E3 		movt	r1, #:upper16:.LC2
 538 0050 0500A0E1 		mov	r0, r5
 539 0054 FEFFFFEB 		bl	_ZN6tflite13ErrorReporter6ReportEPKcz
 540              	.LVL53:
  82:../src/tensorflow_lite/tensorflow/lite/micro/recording_micro_allocator.cc ****       error_reporter(),
  83:../src/tensorflow_lite/tensorflow/lite/micro/recording_micro_allocator.cc ****       "[RecordingMicroAllocator] Arena allocation head %d bytes",
  84:../src/tensorflow_lite/tensorflow/lite/micro/recording_micro_allocator.cc ****       recording_memory_allocator_->GetHeadUsedBytes());
  85:../src/tensorflow_lite/tensorflow/lite/micro/recording_micro_allocator.cc ****   TF_LITE_REPORT_ERROR(
 541              		.loc 2 85 0
 542 0058 0400A0E1 		mov	r0, r4
 543 005c FEFFFFEB 		bl	_ZNK6tflite14MicroAllocator14error_reporterEv
 544              	.LVL54:
 545 0060 0050A0E1 		mov	r5, r0
 546 0064 1C0094E5 		ldr	r0, [r4, #28]
 547 0068 FEFFFFEB 		bl	_ZNK6tflite21SimpleMemoryAllocator16GetTailUsedBytesEv
 548              	.LVL55:
 549 006c 001000E3 		movw	r1, #:lower16:.LC3
 550 0070 0020A0E1 		mov	r2, r0
 551 0074 001040E3 		movt	r1, #:upper16:.LC3
 552 0078 0500A0E1 		mov	r0, r5
 553 007c FEFFFFEB 		bl	_ZN6tflite13ErrorReporter6ReportEPKcz
 554              	.LVL56:
 555              	.LBB321:
 556              	.LBB322:
 557              	.LBB323:
 558              	.LBB324:
  52:../src/tensorflow_lite/tensorflow/lite/micro/recording_micro_allocator.cc ****     case RecordedAllocationType::kPersistentTfLiteTensorData:
 559              		.loc 2 52 0
 560 0080 205094E5 		ldr	r5, [r4, #32]
 561              	.LVL57:
 562 0084 246094E5 		ldr	r6, [r4, #36]
 563              	.LVL58:
 564              	.LBE324:
 565              	.LBE323:
  86:../src/tensorflow_lite/tensorflow/lite/micro/recording_micro_allocator.cc ****       error_reporter(),
  87:../src/tensorflow_lite/tensorflow/lite/micro/recording_micro_allocator.cc ****       "[RecordingMicroAllocator] Arena allocation tail %d bytes",
  88:../src/tensorflow_lite/tensorflow/lite/micro/recording_micro_allocator.cc ****       recording_memory_allocator_->GetTailUsedBytes());
  89:../src/tensorflow_lite/tensorflow/lite/micro/recording_micro_allocator.cc ****   PrintRecordedAllocation(RecordedAllocationType::kTfLiteEvalTensorData,
  90:../src/tensorflow_lite/tensorflow/lite/micro/recording_micro_allocator.cc ****                           "TfLiteEvalTensor data", "allocations");
  91:../src/tensorflow_lite/tensorflow/lite/micro/recording_micro_allocator.cc ****   PrintRecordedAllocation(RecordedAllocationType::kPersistentTfLiteTensorData,
  92:../src/tensorflow_lite/tensorflow/lite/micro/recording_micro_allocator.cc ****                           "Persistent TfLiteTensor data", "tensors");
  93:../src/tensorflow_lite/tensorflow/lite/micro/recording_micro_allocator.cc ****   PrintRecordedAllocation(
  94:../src/tensorflow_lite/tensorflow/lite/micro/recording_micro_allocator.cc ****       RecordedAllocationType::kPersistentTfLiteTensorQuantizationData,
  95:../src/tensorflow_lite/tensorflow/lite/micro/recording_micro_allocator.cc ****       "Persistent TfLiteTensor quantization data", "allocations");
  96:../src/tensorflow_lite/tensorflow/lite/micro/recording_micro_allocator.cc ****   PrintRecordedAllocation(RecordedAllocationType::kPersistentBufferData,
  97:../src/tensorflow_lite/tensorflow/lite/micro/recording_micro_allocator.cc ****                           "Persistent buffer data", "allocations");
  98:../src/tensorflow_lite/tensorflow/lite/micro/recording_micro_allocator.cc ****   PrintRecordedAllocation(
  99:../src/tensorflow_lite/tensorflow/lite/micro/recording_micro_allocator.cc ****       RecordedAllocationType::kTfLiteTensorVariableBufferData,
 100:../src/tensorflow_lite/tensorflow/lite/micro/recording_micro_allocator.cc ****       "TfLiteTensor variable buffer data", "allocations");
 101:../src/tensorflow_lite/tensorflow/lite/micro/recording_micro_allocator.cc ****   PrintRecordedAllocation(RecordedAllocationType::kNodeAndRegistrationArray,
 102:../src/tensorflow_lite/tensorflow/lite/micro/recording_micro_allocator.cc ****                           "NodeAndRegistration struct",
 103:../src/tensorflow_lite/tensorflow/lite/micro/recording_micro_allocator.cc ****                           "NodeAndRegistration structs");
 104:../src/tensorflow_lite/tensorflow/lite/micro/recording_micro_allocator.cc ****   PrintRecordedAllocation(RecordedAllocationType::kOpData,
 105:../src/tensorflow_lite/tensorflow/lite/micro/recording_micro_allocator.cc ****                           "Operator runtime data", "OpData structs");
 106:../src/tensorflow_lite/tensorflow/lite/micro/recording_micro_allocator.cc **** }
 107:../src/tensorflow_lite/tensorflow/lite/micro/recording_micro_allocator.cc **** 
 108:../src/tensorflow_lite/tensorflow/lite/micro/recording_micro_allocator.cc **** void* RecordingMicroAllocator::AllocatePersistentBuffer(size_t bytes) {
 109:../src/tensorflow_lite/tensorflow/lite/micro/recording_micro_allocator.cc ****   RecordedAllocation allocations = SnapshotAllocationUsage();
 110:../src/tensorflow_lite/tensorflow/lite/micro/recording_micro_allocator.cc ****   void* buffer = MicroAllocator::AllocatePersistentBuffer(bytes);
 111:../src/tensorflow_lite/tensorflow/lite/micro/recording_micro_allocator.cc ****   RecordAllocationUsage(allocations, recorded_persistent_buffer_data_);
 112:../src/tensorflow_lite/tensorflow/lite/micro/recording_micro_allocator.cc **** 
 113:../src/tensorflow_lite/tensorflow/lite/micro/recording_micro_allocator.cc ****   return buffer;
 114:../src/tensorflow_lite/tensorflow/lite/micro/recording_micro_allocator.cc **** }
 115:../src/tensorflow_lite/tensorflow/lite/micro/recording_micro_allocator.cc **** 
 116:../src/tensorflow_lite/tensorflow/lite/micro/recording_micro_allocator.cc **** void RecordingMicroAllocator::PrintRecordedAllocation(
 117:../src/tensorflow_lite/tensorflow/lite/micro/recording_micro_allocator.cc ****     RecordedAllocationType allocation_type, const char* allocation_name,
 118:../src/tensorflow_lite/tensorflow/lite/micro/recording_micro_allocator.cc ****     const char* allocation_description) const {
 119:../src/tensorflow_lite/tensorflow/lite/micro/recording_micro_allocator.cc **** #ifndef TF_LITE_STRIP_ERROR_STRINGS
 120:../src/tensorflow_lite/tensorflow/lite/micro/recording_micro_allocator.cc ****   RecordedAllocation allocation = GetRecordedAllocation(allocation_type);
 121:../src/tensorflow_lite/tensorflow/lite/micro/recording_micro_allocator.cc ****   if (allocation.used_bytes > 0 || allocation.requested_bytes > 0) {
 566              		.loc 2 121 0
 567 0088 063095E1 		orrs	r3, r5, r6
 568 008c 0D00000A 		beq	.L41
 569              	.LBB326:
 570              	.LBB325:
  52:../src/tensorflow_lite/tensorflow/lite/micro/recording_micro_allocator.cc ****     case RecordedAllocationType::kPersistentTfLiteTensorData:
 571              		.loc 2 52 0
 572 0090 287094E5 		ldr	r7, [r4, #40]
 573              	.LBE325:
 574              	.LBE326:
 122:../src/tensorflow_lite/tensorflow/lite/micro/recording_micro_allocator.cc ****     TF_LITE_REPORT_ERROR(
 575              		.loc 2 122 0
 576 0094 0400A0E1 		mov	r0, r4
 577 0098 FEFFFFEB 		bl	_ZNK6tflite14MicroAllocator14error_reporterEv
 578              	.LVL59:
 579 009c 00C000E3 		movw	ip, #:lower16:.LC6
 580 00a0 002000E3 		movw	r2, #:lower16:.LC4
 581 00a4 00C040E3 		movt	ip, #:upper16:.LC6
 582 00a8 001000E3 		movw	r1, #:lower16:.LC5
 583 00ac 04708DE5 		str	r7, [sp, #4]
 584 00b0 0630A0E1 		mov	r3, r6
 585 00b4 00508DE5 		str	r5, [sp]
 586 00b8 002040E3 		movt	r2, #:upper16:.LC4
 587 00bc 08C08DE5 		str	ip, [sp, #8]
 588 00c0 001040E3 		movt	r1, #:upper16:.LC5
 589 00c4 FEFFFFEB 		bl	_ZN6tflite13ErrorReporter6ReportEPKcz
 590              	.LVL60:
 591              	.L41:
 592              	.LBE322:
 593              	.LBE321:
 594              	.LBB327:
 595              	.LBB328:
 596              	.LBB329:
 597              	.LBB330:
  54:../src/tensorflow_lite/tensorflow/lite/micro/recording_micro_allocator.cc ****     case RecordedAllocationType::kPersistentTfLiteTensorQuantizationData:
 598              		.loc 2 54 0
 599 00c8 2C5094E5 		ldr	r5, [r4, #44]
 600              	.LVL61:
 601 00cc 306094E5 		ldr	r6, [r4, #48]
 602              	.LVL62:
 603              	.LBE330:
 604              	.LBE329:
 121:../src/tensorflow_lite/tensorflow/lite/micro/recording_micro_allocator.cc ****     TF_LITE_REPORT_ERROR(
 605              		.loc 2 121 0
 606 00d0 063095E1 		orrs	r3, r5, r6
 607 00d4 0D00000A 		beq	.L42
 608              	.LBB332:
 609              	.LBB331:
  54:../src/tensorflow_lite/tensorflow/lite/micro/recording_micro_allocator.cc ****     case RecordedAllocationType::kPersistentTfLiteTensorQuantizationData:
 610              		.loc 2 54 0
 611 00d8 347094E5 		ldr	r7, [r4, #52]
 612              	.LBE331:
 613              	.LBE332:
 614              		.loc 2 122 0
 615 00dc 0400A0E1 		mov	r0, r4
 616 00e0 FEFFFFEB 		bl	_ZNK6tflite14MicroAllocator14error_reporterEv
 617              	.LVL63:
 618 00e4 00C000E3 		movw	ip, #:lower16:.LC8
 619 00e8 002000E3 		movw	r2, #:lower16:.LC7
 620 00ec 00C040E3 		movt	ip, #:upper16:.LC8
 621 00f0 001000E3 		movw	r1, #:lower16:.LC5
 622 00f4 04708DE5 		str	r7, [sp, #4]
 623 00f8 0630A0E1 		mov	r3, r6
 624 00fc 00508DE5 		str	r5, [sp]
 625 0100 002040E3 		movt	r2, #:upper16:.LC7
 626 0104 08C08DE5 		str	ip, [sp, #8]
 627 0108 001040E3 		movt	r1, #:upper16:.LC5
 628 010c FEFFFFEB 		bl	_ZN6tflite13ErrorReporter6ReportEPKcz
 629              	.LVL64:
 630              	.L42:
 631              	.LBE328:
 632              	.LBE327:
 633              	.LBB333:
 634              	.LBB334:
 635              	.LBB335:
 636              	.LBB336:
  56:../src/tensorflow_lite/tensorflow/lite/micro/recording_micro_allocator.cc ****     case RecordedAllocationType::kPersistentBufferData:
 637              		.loc 2 56 0
 638 0110 385094E5 		ldr	r5, [r4, #56]
 639              	.LVL65:
 640 0114 3C6094E5 		ldr	r6, [r4, #60]
 641              	.LVL66:
 642              	.LBE336:
 643              	.LBE335:
 121:../src/tensorflow_lite/tensorflow/lite/micro/recording_micro_allocator.cc ****     TF_LITE_REPORT_ERROR(
 644              		.loc 2 121 0
 645 0118 063095E1 		orrs	r3, r5, r6
 646 011c 0D00000A 		beq	.L43
 647              	.LBB338:
 648              	.LBB337:
  56:../src/tensorflow_lite/tensorflow/lite/micro/recording_micro_allocator.cc ****     case RecordedAllocationType::kPersistentBufferData:
 649              		.loc 2 56 0
 650 0120 407094E5 		ldr	r7, [r4, #64]
 651              	.LBE337:
 652              	.LBE338:
 653              		.loc 2 122 0
 654 0124 0400A0E1 		mov	r0, r4
 655 0128 FEFFFFEB 		bl	_ZNK6tflite14MicroAllocator14error_reporterEv
 656              	.LVL67:
 657 012c 00C000E3 		movw	ip, #:lower16:.LC6
 658 0130 002000E3 		movw	r2, #:lower16:.LC9
 659 0134 00C040E3 		movt	ip, #:upper16:.LC6
 660 0138 001000E3 		movw	r1, #:lower16:.LC5
 661 013c 04708DE5 		str	r7, [sp, #4]
 662 0140 0630A0E1 		mov	r3, r6
 663 0144 00508DE5 		str	r5, [sp]
 664 0148 002040E3 		movt	r2, #:upper16:.LC9
 665 014c 08C08DE5 		str	ip, [sp, #8]
 666 0150 001040E3 		movt	r1, #:upper16:.LC5
 667 0154 FEFFFFEB 		bl	_ZN6tflite13ErrorReporter6ReportEPKcz
 668              	.LVL68:
 669              	.L43:
 670              	.LBE334:
 671              	.LBE333:
 672              	.LBB339:
 673              	.LBB340:
 674              	.LBB341:
 675              	.LBB342:
  58:../src/tensorflow_lite/tensorflow/lite/micro/recording_micro_allocator.cc ****     case RecordedAllocationType::kTfLiteTensorVariableBufferData:
 676              		.loc 2 58 0
 677 0158 445094E5 		ldr	r5, [r4, #68]
 678              	.LVL69:
 679 015c 486094E5 		ldr	r6, [r4, #72]
 680              	.LVL70:
 681              	.LBE342:
 682              	.LBE341:
 121:../src/tensorflow_lite/tensorflow/lite/micro/recording_micro_allocator.cc ****     TF_LITE_REPORT_ERROR(
 683              		.loc 2 121 0
 684 0160 063095E1 		orrs	r3, r5, r6
 685 0164 0D00000A 		beq	.L44
 686              	.LBB344:
 687              	.LBB343:
  58:../src/tensorflow_lite/tensorflow/lite/micro/recording_micro_allocator.cc ****     case RecordedAllocationType::kTfLiteTensorVariableBufferData:
 688              		.loc 2 58 0
 689 0168 4C7094E5 		ldr	r7, [r4, #76]
 690              	.LBE343:
 691              	.LBE344:
 692              		.loc 2 122 0
 693 016c 0400A0E1 		mov	r0, r4
 694 0170 FEFFFFEB 		bl	_ZNK6tflite14MicroAllocator14error_reporterEv
 695              	.LVL71:
 696 0174 00C000E3 		movw	ip, #:lower16:.LC6
 697 0178 002000E3 		movw	r2, #:lower16:.LC10
 698 017c 00C040E3 		movt	ip, #:upper16:.LC6
 699 0180 001000E3 		movw	r1, #:lower16:.LC5
 700 0184 04708DE5 		str	r7, [sp, #4]
 701 0188 0630A0E1 		mov	r3, r6
 702 018c 00508DE5 		str	r5, [sp]
 703 0190 002040E3 		movt	r2, #:upper16:.LC10
 704 0194 08C08DE5 		str	ip, [sp, #8]
 705 0198 001040E3 		movt	r1, #:upper16:.LC5
 706 019c FEFFFFEB 		bl	_ZN6tflite13ErrorReporter6ReportEPKcz
 707              	.LVL72:
 708              	.L44:
 709              	.LBE340:
 710              	.LBE339:
 711              	.LBB345:
 712              	.LBB346:
 713              	.LBB347:
 714              	.LBB348:
  60:../src/tensorflow_lite/tensorflow/lite/micro/recording_micro_allocator.cc ****     case RecordedAllocationType::kNodeAndRegistrationArray:
 715              		.loc 2 60 0
 716 01a0 505094E5 		ldr	r5, [r4, #80]
 717              	.LVL73:
 718 01a4 546094E5 		ldr	r6, [r4, #84]
 719              	.LVL74:
 720              	.LBE348:
 721              	.LBE347:
 121:../src/tensorflow_lite/tensorflow/lite/micro/recording_micro_allocator.cc ****     TF_LITE_REPORT_ERROR(
 722              		.loc 2 121 0
 723 01a8 063095E1 		orrs	r3, r5, r6
 724 01ac 0D00000A 		beq	.L45
 725              	.LBB350:
 726              	.LBB349:
  60:../src/tensorflow_lite/tensorflow/lite/micro/recording_micro_allocator.cc ****     case RecordedAllocationType::kNodeAndRegistrationArray:
 727              		.loc 2 60 0
 728 01b0 587094E5 		ldr	r7, [r4, #88]
 729              	.LBE349:
 730              	.LBE350:
 731              		.loc 2 122 0
 732 01b4 0400A0E1 		mov	r0, r4
 733 01b8 FEFFFFEB 		bl	_ZNK6tflite14MicroAllocator14error_reporterEv
 734              	.LVL75:
 735 01bc 00C000E3 		movw	ip, #:lower16:.LC6
 736 01c0 002000E3 		movw	r2, #:lower16:.LC11
 737 01c4 00C040E3 		movt	ip, #:upper16:.LC6
 738 01c8 001000E3 		movw	r1, #:lower16:.LC5
 739 01cc 04708DE5 		str	r7, [sp, #4]
 740 01d0 0630A0E1 		mov	r3, r6
 741 01d4 00508DE5 		str	r5, [sp]
 742 01d8 002040E3 		movt	r2, #:upper16:.LC11
 743 01dc 08C08DE5 		str	ip, [sp, #8]
 744 01e0 001040E3 		movt	r1, #:upper16:.LC5
 745 01e4 FEFFFFEB 		bl	_ZN6tflite13ErrorReporter6ReportEPKcz
 746              	.LVL76:
 747              	.L45:
 748              	.LBE346:
 749              	.LBE345:
 750              	.LBB351:
 751              	.LBB352:
 752              	.LBB353:
 753              	.LBB354:
  62:../src/tensorflow_lite/tensorflow/lite/micro/recording_micro_allocator.cc ****     case RecordedAllocationType::kOpData:
 754              		.loc 2 62 0
 755 01e8 5C5094E5 		ldr	r5, [r4, #92]
 756              	.LVL77:
 757 01ec 606094E5 		ldr	r6, [r4, #96]
 758              	.LVL78:
 759              	.LBE354:
 760              	.LBE353:
 121:../src/tensorflow_lite/tensorflow/lite/micro/recording_micro_allocator.cc ****     TF_LITE_REPORT_ERROR(
 761              		.loc 2 121 0
 762 01f0 063095E1 		orrs	r3, r5, r6
 763 01f4 0D00000A 		beq	.L46
 764              	.LBB356:
 765              	.LBB355:
  62:../src/tensorflow_lite/tensorflow/lite/micro/recording_micro_allocator.cc ****     case RecordedAllocationType::kOpData:
 766              		.loc 2 62 0
 767 01f8 647094E5 		ldr	r7, [r4, #100]
 768              	.LBE355:
 769              	.LBE356:
 770              		.loc 2 122 0
 771 01fc 0400A0E1 		mov	r0, r4
 772 0200 FEFFFFEB 		bl	_ZNK6tflite14MicroAllocator14error_reporterEv
 773              	.LVL79:
 774 0204 00C000E3 		movw	ip, #:lower16:.LC13
 775 0208 002000E3 		movw	r2, #:lower16:.LC12
 776 020c 00C040E3 		movt	ip, #:upper16:.LC13
 777 0210 001000E3 		movw	r1, #:lower16:.LC5
 778 0214 04708DE5 		str	r7, [sp, #4]
 779 0218 0630A0E1 		mov	r3, r6
 780 021c 00508DE5 		str	r5, [sp]
 781 0220 002040E3 		movt	r2, #:upper16:.LC12
 782 0224 08C08DE5 		str	ip, [sp, #8]
 783 0228 001040E3 		movt	r1, #:upper16:.LC5
 784 022c FEFFFFEB 		bl	_ZN6tflite13ErrorReporter6ReportEPKcz
 785              	.LVL80:
 786              	.L46:
 787              	.LBE352:
 788              	.LBE351:
 789              	.LBB357:
 790              	.LBB358:
 791              	.LBB359:
 792              	.LBB360:
  64:../src/tensorflow_lite/tensorflow/lite/micro/recording_micro_allocator.cc ****   }
 793              		.loc 2 64 0
 794 0230 685094E5 		ldr	r5, [r4, #104]
 795              	.LVL81:
 796 0234 6C6094E5 		ldr	r6, [r4, #108]
 797              	.LVL82:
 798              	.LBE360:
 799              	.LBE359:
 121:../src/tensorflow_lite/tensorflow/lite/micro/recording_micro_allocator.cc ****     TF_LITE_REPORT_ERROR(
 800              		.loc 2 121 0
 801 0238 063095E1 		orrs	r3, r5, r6
 802 023c 0D00000A 		beq	.L40
 803              	.LBB362:
 804              	.LBB361:
  64:../src/tensorflow_lite/tensorflow/lite/micro/recording_micro_allocator.cc ****   }
 805              		.loc 2 64 0
 806 0240 707094E5 		ldr	r7, [r4, #112]
 807              	.LBE361:
 808              	.LBE362:
 809              		.loc 2 122 0
 810 0244 0400A0E1 		mov	r0, r4
 811 0248 FEFFFFEB 		bl	_ZNK6tflite14MicroAllocator14error_reporterEv
 812              	.LVL83:
 813 024c 00C000E3 		movw	ip, #:lower16:.LC15
 814 0250 002000E3 		movw	r2, #:lower16:.LC14
 815 0254 00C040E3 		movt	ip, #:upper16:.LC15
 816 0258 001000E3 		movw	r1, #:lower16:.LC5
 817 025c 04708DE5 		str	r7, [sp, #4]
 818 0260 0630A0E1 		mov	r3, r6
 819 0264 00508DE5 		str	r5, [sp]
 820 0268 002040E3 		movt	r2, #:upper16:.LC14
 821 026c 08C08DE5 		str	ip, [sp, #8]
 822 0270 001040E3 		movt	r1, #:upper16:.LC5
 823 0274 FEFFFFEB 		bl	_ZN6tflite13ErrorReporter6ReportEPKcz
 824              	.LVL84:
 825              	.L40:
 826              	.LBE358:
 827              	.LBE357:
 106:../src/tensorflow_lite/tensorflow/lite/micro/recording_micro_allocator.cc **** 
 828              		.loc 2 106 0
 829 0278 14D08DE2 		add	sp, sp, #20
 830              		.cfi_def_cfa_offset 20
 831              		@ sp needed
 832 027c F080BDE8 		pop	{r4, r5, r6, r7, pc}
 833              		.cfi_endproc
 834              	.LFE6513:
 835              		.fnend
 837              		.section	.text._ZNK6tflite23RecordingMicroAllocator23PrintRecordedAllocationENS_22RecordedAllocati
 838              		.align	2
 839              		.global	_ZNK6tflite23RecordingMicroAllocator23PrintRecordedAllocationENS_22RecordedAllocationTypeE
 840              		.syntax unified
 841              		.arm
 842              		.fpu neon
 844              	_ZNK6tflite23RecordingMicroAllocator23PrintRecordedAllocationENS_22RecordedAllocationTypeEPKcS3_:
 845              		.fnstart
 846              	.LFB6515:
 118:../src/tensorflow_lite/tensorflow/lite/micro/recording_micro_allocator.cc **** #ifndef TF_LITE_STRIP_ERROR_STRINGS
 847              		.loc 2 118 0
 848              		.cfi_startproc
 849              		@ args = 0, pretend = 0, frame = 8
 850              		@ frame_needed = 0, uses_anonymous_args = 0
 851              	.LVL85:
 852 0000 F0412DE9 		push	{r4, r5, r6, r7, r8, lr}
 853              		.save {r4, r5, r6, r7, r8, lr}
 854              		.cfi_def_cfa_offset 24
 855              		.cfi_offset 4, -24
 856              		.cfi_offset 5, -20
 857              		.cfi_offset 6, -16
 858              		.cfi_offset 7, -12
 859              		.cfi_offset 8, -8
 860              		.cfi_offset 14, -4
 861 0004 0260A0E1 		mov	r6, r2
 862              		.pad #24
 863 0008 18D04DE2 		sub	sp, sp, #24
 864              		.cfi_def_cfa_offset 48
 118:../src/tensorflow_lite/tensorflow/lite/micro/recording_micro_allocator.cc **** #ifndef TF_LITE_STRIP_ERROR_STRINGS
 865              		.loc 2 118 0
 866 000c 0370A0E1 		mov	r7, r3
 867              	.LBB365:
 868              	.LBB366:
  50:../src/tensorflow_lite/tensorflow/lite/micro/recording_micro_allocator.cc ****     case RecordedAllocationType::kTfLiteEvalTensorData:
 869              		.loc 2 50 0
 870 0010 060051E3 		cmp	r1, #6
 871 0014 01F19F97 		ldrls	pc, [pc, r1, asl #2]
 872 0018 270000EA 		b	.L71
 873              	.L73:
 874 001c 74000000 		.word	.L72
 875 0020 80000000 		.word	.L74
 876 0024 8C000000 		.word	.L75
 877 0028 98000000 		.word	.L76
 878 002c A4000000 		.word	.L77
 879 0030 B0000000 		.word	.L78
 880 0034 38000000 		.word	.L79
 881              	.L79:
  64:../src/tensorflow_lite/tensorflow/lite/micro/recording_micro_allocator.cc ****   }
 882              		.loc 2 64 0
 883 0038 684080E2 		add	r4, r0, #104
 884 003c 300194E8 		ldm	r4, {r4, r5, r8}
 885              	.LVL86:
 886              	.L80:
 887              	.LBE366:
 888              	.LBE365:
 121:../src/tensorflow_lite/tensorflow/lite/micro/recording_micro_allocator.cc ****     TF_LITE_REPORT_ERROR(
 889              		.loc 2 121 0
 890 0040 043095E1 		orrs	r3, r5, r4
 891              	.LVL87:
 892 0044 0800000A 		beq	.L70
 893              		.loc 2 122 0
 894 0048 FEFFFFEB 		bl	_ZNK6tflite14MicroAllocator14error_reporterEv
 895              	.LVL88:
 896 004c 001000E3 		movw	r1, #:lower16:.LC5
 897 0050 08708DE5 		str	r7, [sp, #8]
 898 0054 04808DE5 		str	r8, [sp, #4]
 899 0058 0530A0E1 		mov	r3, r5
 900 005c 00408DE5 		str	r4, [sp]
 901 0060 0620A0E1 		mov	r2, r6
 902 0064 001040E3 		movt	r1, #:upper16:.LC5
 903 0068 FEFFFFEB 		bl	_ZN6tflite13ErrorReporter6ReportEPKcz
 904              	.LVL89:
 905              	.L70:
 123:../src/tensorflow_lite/tensorflow/lite/micro/recording_micro_allocator.cc ****         error_reporter(),
 124:../src/tensorflow_lite/tensorflow/lite/micro/recording_micro_allocator.cc ****         "[RecordingMicroAllocator] '%s' used %d bytes with alignment overhead "
 125:../src/tensorflow_lite/tensorflow/lite/micro/recording_micro_allocator.cc ****         "(requested %d bytes for %d %s)",
 126:../src/tensorflow_lite/tensorflow/lite/micro/recording_micro_allocator.cc ****         allocation_name, allocation.used_bytes, allocation.requested_bytes,
 127:../src/tensorflow_lite/tensorflow/lite/micro/recording_micro_allocator.cc ****         allocation.count, allocation_description);
 128:../src/tensorflow_lite/tensorflow/lite/micro/recording_micro_allocator.cc ****   }
 129:../src/tensorflow_lite/tensorflow/lite/micro/recording_micro_allocator.cc **** #endif
 130:../src/tensorflow_lite/tensorflow/lite/micro/recording_micro_allocator.cc **** }
 906              		.loc 2 130 0
 907 006c 18D08DE2 		add	sp, sp, #24
 908              		.cfi_remember_state
 909              		.cfi_def_cfa_offset 24
 910              		@ sp needed
 911 0070 F081BDE8 		pop	{r4, r5, r6, r7, r8, pc}
 912              	.LVL90:
 913              	.L72:
 914              		.cfi_restore_state
 915              	.LBB369:
 916              	.LBB367:
  52:../src/tensorflow_lite/tensorflow/lite/micro/recording_micro_allocator.cc ****     case RecordedAllocationType::kPersistentTfLiteTensorData:
 917              		.loc 2 52 0
 918 0074 204080E2 		add	r4, r0, #32
 919 0078 300194E8 		ldm	r4, {r4, r5, r8}
 920              	.LVL91:
 921 007c EFFFFFEA 		b	.L80
 922              	.LVL92:
 923              	.L74:
  54:../src/tensorflow_lite/tensorflow/lite/micro/recording_micro_allocator.cc ****     case RecordedAllocationType::kPersistentTfLiteTensorQuantizationData:
 924              		.loc 2 54 0
 925 0080 2C4080E2 		add	r4, r0, #44
 926 0084 300194E8 		ldm	r4, {r4, r5, r8}
 927              	.LVL93:
 928 0088 ECFFFFEA 		b	.L80
 929              	.LVL94:
 930              	.L75:
  56:../src/tensorflow_lite/tensorflow/lite/micro/recording_micro_allocator.cc ****     case RecordedAllocationType::kPersistentBufferData:
 931              		.loc 2 56 0
 932 008c 384080E2 		add	r4, r0, #56
 933 0090 300194E8 		ldm	r4, {r4, r5, r8}
 934              	.LVL95:
 935 0094 E9FFFFEA 		b	.L80
 936              	.LVL96:
 937              	.L76:
  58:../src/tensorflow_lite/tensorflow/lite/micro/recording_micro_allocator.cc ****     case RecordedAllocationType::kTfLiteTensorVariableBufferData:
 938              		.loc 2 58 0
 939 0098 444080E2 		add	r4, r0, #68
 940 009c 300194E8 		ldm	r4, {r4, r5, r8}
 941              	.LVL97:
 942 00a0 E6FFFFEA 		b	.L80
 943              	.LVL98:
 944              	.L77:
  60:../src/tensorflow_lite/tensorflow/lite/micro/recording_micro_allocator.cc ****     case RecordedAllocationType::kNodeAndRegistrationArray:
 945              		.loc 2 60 0
 946 00a4 504080E2 		add	r4, r0, #80
 947 00a8 300194E8 		ldm	r4, {r4, r5, r8}
 948              	.LVL99:
 949 00ac E3FFFFEA 		b	.L80
 950              	.LVL100:
 951              	.L78:
  62:../src/tensorflow_lite/tensorflow/lite/micro/recording_micro_allocator.cc ****     case RecordedAllocationType::kOpData:
 952              		.loc 2 62 0
 953 00b0 5C4080E2 		add	r4, r0, #92
 954 00b4 300194E8 		ldm	r4, {r4, r5, r8}
 955              	.LVL101:
 956 00b8 E0FFFFEA 		b	.L80
 957              	.LVL102:
 958              	.L71:
 959 00bc 14108DE5 		str	r1, [sp, #20]
  66:../src/tensorflow_lite/tensorflow/lite/micro/recording_micro_allocator.cc ****                        allocation_type);
 960              		.loc 2 66 0
 961 00c0 FEFFFFEB 		bl	_ZNK6tflite14MicroAllocator14error_reporterEv
 962              	.LVL103:
 963 00c4 14109DE5 		ldr	r1, [sp, #20]
 964 00c8 0120A0E1 		mov	r2, r1
 965 00cc 001000E3 		movw	r1, #:lower16:.LC0
 966 00d0 001040E3 		movt	r1, #:upper16:.LC0
 967              	.LBE367:
 968              	.LBE369:
 969              		.loc 2 130 0
 970 00d4 18D08DE2 		add	sp, sp, #24
 971              		@ sp needed
 972 00d8 F041BDE8 		pop	{r4, r5, r6, r7, r8, lr}
 973              	.LVL104:
 974              	.LBB370:
 975              	.LBB368:
  66:../src/tensorflow_lite/tensorflow/lite/micro/recording_micro_allocator.cc ****                        allocation_type);
 976              		.loc 2 66 0
 977 00dc FEFFFFEA 		b	_ZN6tflite13ErrorReporter6ReportEPKcz
 978              	.LVL105:
 979              	.LBE368:
 980              	.LBE370:
 981              		.cfi_endproc
 982              	.LFE6515:
 983              		.fnend
 985              		.section	.text._ZNK6tflite23RecordingMicroAllocator23SnapshotAllocationUsageEv,"ax",%progbits
 986              		.align	2
 987              		.global	_ZNK6tflite23RecordingMicroAllocator23SnapshotAllocationUsageEv
 988              		.syntax unified
 989              		.arm
 990              		.fpu neon
 992              	_ZNK6tflite23RecordingMicroAllocator23SnapshotAllocationUsageEv:
 993              		.fnstart
 994              	.LFB6521:
 131:../src/tensorflow_lite/tensorflow/lite/micro/recording_micro_allocator.cc **** 
 132:../src/tensorflow_lite/tensorflow/lite/micro/recording_micro_allocator.cc **** TfLiteStatus RecordingMicroAllocator::AllocateNodeAndRegistrations(
 133:../src/tensorflow_lite/tensorflow/lite/micro/recording_micro_allocator.cc ****     const Model* model, SubgraphAllocations* subgraph_allocations) {
 134:../src/tensorflow_lite/tensorflow/lite/micro/recording_micro_allocator.cc ****   RecordedAllocation allocations = SnapshotAllocationUsage();
 135:../src/tensorflow_lite/tensorflow/lite/micro/recording_micro_allocator.cc **** 
 136:../src/tensorflow_lite/tensorflow/lite/micro/recording_micro_allocator.cc ****   TfLiteStatus status =
 137:../src/tensorflow_lite/tensorflow/lite/micro/recording_micro_allocator.cc ****       MicroAllocator::AllocateNodeAndRegistrations(model, subgraph_allocations);
 138:../src/tensorflow_lite/tensorflow/lite/micro/recording_micro_allocator.cc ****   for (size_t subgraph_idx = 0; subgraph_idx < model->subgraphs()->size();
 139:../src/tensorflow_lite/tensorflow/lite/micro/recording_micro_allocator.cc ****        subgraph_idx++) {
 140:../src/tensorflow_lite/tensorflow/lite/micro/recording_micro_allocator.cc ****     RecordAllocationUsage(allocations,
 141:../src/tensorflow_lite/tensorflow/lite/micro/recording_micro_allocator.cc ****                           recorded_node_and_registration_array_data_);
 142:../src/tensorflow_lite/tensorflow/lite/micro/recording_micro_allocator.cc ****     // The allocation count in SimpleMemoryAllocator will only be 1. To provide
 143:../src/tensorflow_lite/tensorflow/lite/micro/recording_micro_allocator.cc ****     // better logging, decrement by 1 and add in the actual number of operators
 144:../src/tensorflow_lite/tensorflow/lite/micro/recording_micro_allocator.cc ****     // used in the graph:
 145:../src/tensorflow_lite/tensorflow/lite/micro/recording_micro_allocator.cc ****     // The allocation for this recording will always be 1. This is because the
 146:../src/tensorflow_lite/tensorflow/lite/micro/recording_micro_allocator.cc ****     // parent class mallocs one large allocation for the number of nodes in the
 147:../src/tensorflow_lite/tensorflow/lite/micro/recording_micro_allocator.cc ****     // graph (e.g. sizeof(NodeAndRegistration) * num_nodes).
 148:../src/tensorflow_lite/tensorflow/lite/micro/recording_micro_allocator.cc ****     // To prevent extra overhead and potential for fragmentation, manually
 149:../src/tensorflow_lite/tensorflow/lite/micro/recording_micro_allocator.cc ****     // adjust the accounting by decrementing by 1 and adding the actual number
 150:../src/tensorflow_lite/tensorflow/lite/micro/recording_micro_allocator.cc ****     // of nodes used in the graph:
 151:../src/tensorflow_lite/tensorflow/lite/micro/recording_micro_allocator.cc ****     recorded_node_and_registration_array_data_.count +=
 152:../src/tensorflow_lite/tensorflow/lite/micro/recording_micro_allocator.cc ****         model->subgraphs()->Get(subgraph_idx)->operators()->size() - 1;
 153:../src/tensorflow_lite/tensorflow/lite/micro/recording_micro_allocator.cc ****   }
 154:../src/tensorflow_lite/tensorflow/lite/micro/recording_micro_allocator.cc ****   return status;
 155:../src/tensorflow_lite/tensorflow/lite/micro/recording_micro_allocator.cc **** }
 156:../src/tensorflow_lite/tensorflow/lite/micro/recording_micro_allocator.cc **** 
 157:../src/tensorflow_lite/tensorflow/lite/micro/recording_micro_allocator.cc **** TfLiteStatus RecordingMicroAllocator::AllocateTfLiteEvalTensors(
 158:../src/tensorflow_lite/tensorflow/lite/micro/recording_micro_allocator.cc ****     const Model* model, SubgraphAllocations* subgraph_allocations) {
 159:../src/tensorflow_lite/tensorflow/lite/micro/recording_micro_allocator.cc ****   RecordedAllocation allocations = SnapshotAllocationUsage();
 160:../src/tensorflow_lite/tensorflow/lite/micro/recording_micro_allocator.cc **** 
 161:../src/tensorflow_lite/tensorflow/lite/micro/recording_micro_allocator.cc ****   TfLiteStatus status =
 162:../src/tensorflow_lite/tensorflow/lite/micro/recording_micro_allocator.cc ****       MicroAllocator::AllocateTfLiteEvalTensors(model, subgraph_allocations);
 163:../src/tensorflow_lite/tensorflow/lite/micro/recording_micro_allocator.cc ****   for (size_t subgraph_idx = 0; subgraph_idx < model->subgraphs()->size();
 164:../src/tensorflow_lite/tensorflow/lite/micro/recording_micro_allocator.cc ****        subgraph_idx++) {
 165:../src/tensorflow_lite/tensorflow/lite/micro/recording_micro_allocator.cc ****     RecordAllocationUsage(allocations, recorded_tflite_eval_tensor_data_);
 166:../src/tensorflow_lite/tensorflow/lite/micro/recording_micro_allocator.cc ****     // The allocation for this recording will always be 1. This is because the
 167:../src/tensorflow_lite/tensorflow/lite/micro/recording_micro_allocator.cc ****     // parent class mallocs one large allocation for the number of tensors in
 168:../src/tensorflow_lite/tensorflow/lite/micro/recording_micro_allocator.cc ****     // the graph (e.g. sizeof(TfLiteEvalTensor) * num_tensors). To prevent extra
 169:../src/tensorflow_lite/tensorflow/lite/micro/recording_micro_allocator.cc ****     // overhead and potential for fragmentation, manually adjust the accounting
 170:../src/tensorflow_lite/tensorflow/lite/micro/recording_micro_allocator.cc ****     // by decrementing by 1 and adding the actual number of tensors used in the
 171:../src/tensorflow_lite/tensorflow/lite/micro/recording_micro_allocator.cc ****     // graph:
 172:../src/tensorflow_lite/tensorflow/lite/micro/recording_micro_allocator.cc ****     recorded_tflite_eval_tensor_data_.count +=
 173:../src/tensorflow_lite/tensorflow/lite/micro/recording_micro_allocator.cc ****         model->subgraphs()->Get(subgraph_idx)->tensors()->size() - 1;
 174:../src/tensorflow_lite/tensorflow/lite/micro/recording_micro_allocator.cc ****   }
 175:../src/tensorflow_lite/tensorflow/lite/micro/recording_micro_allocator.cc ****   return status;
 176:../src/tensorflow_lite/tensorflow/lite/micro/recording_micro_allocator.cc **** }
 177:../src/tensorflow_lite/tensorflow/lite/micro/recording_micro_allocator.cc **** 
 178:../src/tensorflow_lite/tensorflow/lite/micro/recording_micro_allocator.cc **** TfLiteStatus RecordingMicroAllocator::AllocateVariables(
 179:../src/tensorflow_lite/tensorflow/lite/micro/recording_micro_allocator.cc ****     const SubGraph* subgraph, TfLiteEvalTensor* eval_tensors) {
 180:../src/tensorflow_lite/tensorflow/lite/micro/recording_micro_allocator.cc ****   RecordedAllocation allocations = SnapshotAllocationUsage();
 181:../src/tensorflow_lite/tensorflow/lite/micro/recording_micro_allocator.cc **** 
 182:../src/tensorflow_lite/tensorflow/lite/micro/recording_micro_allocator.cc ****   TfLiteStatus status =
 183:../src/tensorflow_lite/tensorflow/lite/micro/recording_micro_allocator.cc ****       MicroAllocator::AllocateVariables(subgraph, eval_tensors);
 184:../src/tensorflow_lite/tensorflow/lite/micro/recording_micro_allocator.cc **** 
 185:../src/tensorflow_lite/tensorflow/lite/micro/recording_micro_allocator.cc ****   RecordAllocationUsage(allocations,
 186:../src/tensorflow_lite/tensorflow/lite/micro/recording_micro_allocator.cc ****                         recorded_tflite_tensor_variable_buffer_data_);
 187:../src/tensorflow_lite/tensorflow/lite/micro/recording_micro_allocator.cc ****   return status;
 188:../src/tensorflow_lite/tensorflow/lite/micro/recording_micro_allocator.cc **** }
 189:../src/tensorflow_lite/tensorflow/lite/micro/recording_micro_allocator.cc **** 
 190:../src/tensorflow_lite/tensorflow/lite/micro/recording_micro_allocator.cc **** TfLiteTensor*
 191:../src/tensorflow_lite/tensorflow/lite/micro/recording_micro_allocator.cc **** RecordingMicroAllocator::AllocatePersistentTfLiteTensorInternal() {
 192:../src/tensorflow_lite/tensorflow/lite/micro/recording_micro_allocator.cc ****   RecordedAllocation allocations = SnapshotAllocationUsage();
 193:../src/tensorflow_lite/tensorflow/lite/micro/recording_micro_allocator.cc **** 
 194:../src/tensorflow_lite/tensorflow/lite/micro/recording_micro_allocator.cc ****   TfLiteTensor* result =
 195:../src/tensorflow_lite/tensorflow/lite/micro/recording_micro_allocator.cc ****       MicroAllocator::AllocatePersistentTfLiteTensorInternal();
 196:../src/tensorflow_lite/tensorflow/lite/micro/recording_micro_allocator.cc **** 
 197:../src/tensorflow_lite/tensorflow/lite/micro/recording_micro_allocator.cc ****   RecordAllocationUsage(allocations, recorded_persistent_tflite_tensor_data_);
 198:../src/tensorflow_lite/tensorflow/lite/micro/recording_micro_allocator.cc ****   return result;
 199:../src/tensorflow_lite/tensorflow/lite/micro/recording_micro_allocator.cc **** }
 200:../src/tensorflow_lite/tensorflow/lite/micro/recording_micro_allocator.cc **** 
 201:../src/tensorflow_lite/tensorflow/lite/micro/recording_micro_allocator.cc **** TfLiteStatus RecordingMicroAllocator::PopulateTfLiteTensorFromFlatbuffer(
 202:../src/tensorflow_lite/tensorflow/lite/micro/recording_micro_allocator.cc ****     const Model* model, TfLiteTensor* tensor, int tensor_index,
 203:../src/tensorflow_lite/tensorflow/lite/micro/recording_micro_allocator.cc ****     int subgraph_index, bool allocate_temp) {
 204:../src/tensorflow_lite/tensorflow/lite/micro/recording_micro_allocator.cc ****   RecordedAllocation allocations = SnapshotAllocationUsage();
 205:../src/tensorflow_lite/tensorflow/lite/micro/recording_micro_allocator.cc **** 
 206:../src/tensorflow_lite/tensorflow/lite/micro/recording_micro_allocator.cc ****   TfLiteStatus status = MicroAllocator::PopulateTfLiteTensorFromFlatbuffer(
 207:../src/tensorflow_lite/tensorflow/lite/micro/recording_micro_allocator.cc ****       model, tensor, tensor_index, subgraph_index, allocate_temp);
 208:../src/tensorflow_lite/tensorflow/lite/micro/recording_micro_allocator.cc **** 
 209:../src/tensorflow_lite/tensorflow/lite/micro/recording_micro_allocator.cc ****   RecordAllocationUsage(allocations,
 210:../src/tensorflow_lite/tensorflow/lite/micro/recording_micro_allocator.cc ****                         recorded_persistent_tflite_tensor_quantization_data_);
 211:../src/tensorflow_lite/tensorflow/lite/micro/recording_micro_allocator.cc ****   return status;
 212:../src/tensorflow_lite/tensorflow/lite/micro/recording_micro_allocator.cc **** }
 213:../src/tensorflow_lite/tensorflow/lite/micro/recording_micro_allocator.cc **** 
 214:../src/tensorflow_lite/tensorflow/lite/micro/recording_micro_allocator.cc **** RecordedAllocation RecordingMicroAllocator::SnapshotAllocationUsage() const {
 995              		.loc 2 214 0
 996              		.cfi_startproc
 997              		@ args = 0, pretend = 0, frame = 0
 998              		@ frame_needed = 0, uses_anonymous_args = 0
 999              	.LVL106:
 1000 0000 70402DE9 		push	{r4, r5, r6, lr}
 1001              		.save {r4, r5, r6, lr}
 1002              		.cfi_def_cfa_offset 16
 1003              		.cfi_offset 4, -16
 1004              		.cfi_offset 5, -12
 1005              		.cfi_offset 6, -8
 1006              		.cfi_offset 14, -4
 1007              		.loc 2 214 0
 1008 0004 0150A0E1 		mov	r5, r1
 1009 0008 0040A0E1 		mov	r4, r0
 215:../src/tensorflow_lite/tensorflow/lite/micro/recording_micro_allocator.cc ****   return {/*requested_bytes=*/recording_memory_allocator_->GetRequestedBytes(),
 1010              		.loc 2 215 0
 1011 000c 1C0091E5 		ldr	r0, [r1, #28]
 1012              	.LVL107:
 1013 0010 FEFFFFEB 		bl	_ZNK6tflite30RecordingSimpleMemoryAllocator17GetRequestedBytesEv
 1014              	.LVL108:
 216:../src/tensorflow_lite/tensorflow/lite/micro/recording_micro_allocator.cc ****           /*used_bytes=*/recording_memory_allocator_->GetUsedBytes(),
 217:../src/tensorflow_lite/tensorflow/lite/micro/recording_micro_allocator.cc ****           /*count=*/recording_memory_allocator_->GetAllocatedCount()};
 1015              		.loc 2 217 0
 1016 0014 000084E5 		str	r0, [r4]
 216:../src/tensorflow_lite/tensorflow/lite/micro/recording_micro_allocator.cc ****           /*used_bytes=*/recording_memory_allocator_->GetUsedBytes(),
 1017              		.loc 2 216 0
 1018 0018 1C0095E5 		ldr	r0, [r5, #28]
 1019 001c FEFFFFEB 		bl	_ZNK6tflite30RecordingSimpleMemoryAllocator12GetUsedBytesEv
 1020              	.LVL109:
 1021              		.loc 2 217 0
 1022 0020 040084E5 		str	r0, [r4, #4]
 1023 0024 1C0095E5 		ldr	r0, [r5, #28]
 1024 0028 FEFFFFEB 		bl	_ZNK6tflite30RecordingSimpleMemoryAllocator17GetAllocatedCountEv
 1025              	.LVL110:
 1026 002c 080084E5 		str	r0, [r4, #8]
 218:../src/tensorflow_lite/tensorflow/lite/micro/recording_micro_allocator.cc **** }
 1027              		.loc 2 218 0
 1028 0030 0400A0E1 		mov	r0, r4
 1029 0034 7080BDE8 		pop	{r4, r5, r6, pc}
 1030              		.cfi_endproc
 1031              	.LFE6521:
 1032              		.fnend
 1034              		.section	.text._ZN6tflite23RecordingMicroAllocator21RecordAllocationUsageERKNS_18RecordedAllocatio
 1035              		.align	2
 1036              		.global	_ZN6tflite23RecordingMicroAllocator21RecordAllocationUsageERKNS_18RecordedAllocationERS1_
 1037              		.syntax unified
 1038              		.arm
 1039              		.fpu neon
 1041              	_ZN6tflite23RecordingMicroAllocator21RecordAllocationUsageERKNS_18RecordedAllocationERS1_:
 1042              		.fnstart
 1043              	.LFB6522:
 219:../src/tensorflow_lite/tensorflow/lite/micro/recording_micro_allocator.cc **** 
 220:../src/tensorflow_lite/tensorflow/lite/micro/recording_micro_allocator.cc **** void RecordingMicroAllocator::RecordAllocationUsage(
 221:../src/tensorflow_lite/tensorflow/lite/micro/recording_micro_allocator.cc ****     const RecordedAllocation& snapshotted_allocation,
 222:../src/tensorflow_lite/tensorflow/lite/micro/recording_micro_allocator.cc ****     RecordedAllocation& recorded_allocation) {
 1044              		.loc 2 222 0
 1045              		.cfi_startproc
 1046              		@ args = 0, pretend = 0, frame = 0
 1047              		@ frame_needed = 0, uses_anonymous_args = 0
 1048              	.LVL111:
 1049 0000 70402DE9 		push	{r4, r5, r6, lr}
 1050              		.save {r4, r5, r6, lr}
 1051              		.cfi_def_cfa_offset 16
 1052              		.cfi_offset 4, -16
 1053              		.cfi_offset 5, -12
 1054              		.cfi_offset 6, -8
 1055              		.cfi_offset 14, -4
 1056              		.loc 2 222 0
 1057 0004 0240A0E1 		mov	r4, r2
 1058 0008 0150A0E1 		mov	r5, r1
 1059 000c 0060A0E1 		mov	r6, r0
 223:../src/tensorflow_lite/tensorflow/lite/micro/recording_micro_allocator.cc ****   recorded_allocation.requested_bytes +=
 224:../src/tensorflow_lite/tensorflow/lite/micro/recording_micro_allocator.cc ****       recording_memory_allocator_->GetRequestedBytes() -
 1060              		.loc 2 224 0
 1061 0010 1C0090E5 		ldr	r0, [r0, #28]
 1062              	.LVL112:
 1063 0014 FEFFFFEB 		bl	_ZNK6tflite30RecordingSimpleMemoryAllocator17GetRequestedBytesEv
 1064              	.LVL113:
 225:../src/tensorflow_lite/tensorflow/lite/micro/recording_micro_allocator.cc ****       snapshotted_allocation.requested_bytes;
 1065              		.loc 2 225 0
 1066 0018 002095E5 		ldr	r2, [r5]
 1067 001c 003094E5 		ldr	r3, [r4]
 1068 0020 023043E0 		sub	r3, r3, r2
 1069 0024 003083E0 		add	r3, r3, r0
 226:../src/tensorflow_lite/tensorflow/lite/micro/recording_micro_allocator.cc ****   recorded_allocation.used_bytes +=
 227:../src/tensorflow_lite/tensorflow/lite/micro/recording_micro_allocator.cc ****       recording_memory_allocator_->GetUsedBytes() -
 1070              		.loc 2 227 0
 1071 0028 1C0096E5 		ldr	r0, [r6, #28]
 223:../src/tensorflow_lite/tensorflow/lite/micro/recording_micro_allocator.cc ****       recording_memory_allocator_->GetRequestedBytes() -
 1072              		.loc 2 223 0
 1073 002c 003084E5 		str	r3, [r4]
 1074              		.loc 2 227 0
 1075 0030 FEFFFFEB 		bl	_ZNK6tflite30RecordingSimpleMemoryAllocator12GetUsedBytesEv
 1076              	.LVL114:
 228:../src/tensorflow_lite/tensorflow/lite/micro/recording_micro_allocator.cc ****       snapshotted_allocation.used_bytes;
 1077              		.loc 2 228 0
 1078 0034 042095E5 		ldr	r2, [r5, #4]
 1079 0038 043094E5 		ldr	r3, [r4, #4]
 1080 003c 023043E0 		sub	r3, r3, r2
 1081 0040 003083E0 		add	r3, r3, r0
 229:../src/tensorflow_lite/tensorflow/lite/micro/recording_micro_allocator.cc ****   recorded_allocation.count +=
 230:../src/tensorflow_lite/tensorflow/lite/micro/recording_micro_allocator.cc ****       recording_memory_allocator_->GetAllocatedCount() -
 1082              		.loc 2 230 0
 1083 0044 1C0096E5 		ldr	r0, [r6, #28]
 226:../src/tensorflow_lite/tensorflow/lite/micro/recording_micro_allocator.cc ****       recording_memory_allocator_->GetUsedBytes() -
 1084              		.loc 2 226 0
 1085 0048 043084E5 		str	r3, [r4, #4]
 1086              		.loc 2 230 0
 1087 004c FEFFFFEB 		bl	_ZNK6tflite30RecordingSimpleMemoryAllocator17GetAllocatedCountEv
 1088              	.LVL115:
 231:../src/tensorflow_lite/tensorflow/lite/micro/recording_micro_allocator.cc ****       snapshotted_allocation.count;
 1089              		.loc 2 231 0
 1090 0050 082095E5 		ldr	r2, [r5, #8]
 1091 0054 083094E5 		ldr	r3, [r4, #8]
 1092 0058 023043E0 		sub	r3, r3, r2
 1093 005c 000083E0 		add	r0, r3, r0
 229:../src/tensorflow_lite/tensorflow/lite/micro/recording_micro_allocator.cc ****   recorded_allocation.count +=
 1094              		.loc 2 229 0
 1095 0060 080084E5 		str	r0, [r4, #8]
 1096 0064 7080BDE8 		pop	{r4, r5, r6, pc}
 1097              		.cfi_endproc
 1098              	.LFE6522:
 1099              		.fnend
 1101              		.section	.text._ZN6tflite23RecordingMicroAllocator24AllocatePersistentBufferEj,"ax",%progbits
 1102              		.align	2
 1103              		.global	_ZN6tflite23RecordingMicroAllocator24AllocatePersistentBufferEj
 1104              		.syntax unified
 1105              		.arm
 1106              		.fpu neon
 1108              	_ZN6tflite23RecordingMicroAllocator24AllocatePersistentBufferEj:
 1109              		.fnstart
 1110              	.LFB6514:
 108:../src/tensorflow_lite/tensorflow/lite/micro/recording_micro_allocator.cc ****   RecordedAllocation allocations = SnapshotAllocationUsage();
 1111              		.loc 2 108 0
 1112              		.cfi_startproc
 1113              		@ args = 0, pretend = 0, frame = 0
 1114              		@ frame_needed = 0, uses_anonymous_args = 0
 1115              	.LVL116:
 1116 0000 F0412DE9 		push	{r4, r5, r6, r7, r8, lr}
 1117              		.save {r4, r5, r6, r7, r8, lr}
 1118              		.cfi_def_cfa_offset 24
 1119              		.cfi_offset 4, -24
 1120              		.cfi_offset 5, -20
 1121              		.cfi_offset 6, -16
 1122              		.cfi_offset 7, -12
 1123              		.cfi_offset 8, -8
 1124              		.cfi_offset 14, -4
 108:../src/tensorflow_lite/tensorflow/lite/micro/recording_micro_allocator.cc ****   RecordedAllocation allocations = SnapshotAllocationUsage();
 1125              		.loc 2 108 0
 1126 0004 0040A0E1 		mov	r4, r0
 1127              	.LVL117:
 1128              	.LBB375:
 1129              	.LBB376:
 215:../src/tensorflow_lite/tensorflow/lite/micro/recording_micro_allocator.cc ****           /*used_bytes=*/recording_memory_allocator_->GetUsedBytes(),
 1130              		.loc 2 215 0
 1131 0008 1C0090E5 		ldr	r0, [r0, #28]
 1132              	.LVL118:
 1133              	.LBE376:
 1134              	.LBE375:
 108:../src/tensorflow_lite/tensorflow/lite/micro/recording_micro_allocator.cc ****   RecordedAllocation allocations = SnapshotAllocationUsage();
 1135              		.loc 2 108 0
 1136 000c 0160A0E1 		mov	r6, r1
 1137              	.LBB379:
 1138              	.LBB377:
 215:../src/tensorflow_lite/tensorflow/lite/micro/recording_micro_allocator.cc ****           /*used_bytes=*/recording_memory_allocator_->GetUsedBytes(),
 1139              		.loc 2 215 0
 1140 0010 FEFFFFEB 		bl	_ZNK6tflite30RecordingSimpleMemoryAllocator17GetRequestedBytesEv
 1141              	.LVL119:
 1142 0014 0080A0E1 		mov	r8, r0
 216:../src/tensorflow_lite/tensorflow/lite/micro/recording_micro_allocator.cc ****           /*count=*/recording_memory_allocator_->GetAllocatedCount()};
 1143              		.loc 2 216 0
 1144 0018 1C0094E5 		ldr	r0, [r4, #28]
 1145 001c FEFFFFEB 		bl	_ZNK6tflite30RecordingSimpleMemoryAllocator12GetUsedBytesEv
 1146              	.LVL120:
 1147 0020 0070A0E1 		mov	r7, r0
 217:../src/tensorflow_lite/tensorflow/lite/micro/recording_micro_allocator.cc **** }
 1148              		.loc 2 217 0
 1149 0024 1C0094E5 		ldr	r0, [r4, #28]
 1150 0028 FEFFFFEB 		bl	_ZNK6tflite30RecordingSimpleMemoryAllocator17GetAllocatedCountEv
 1151              	.LVL121:
 1152              	.LBE377:
 1153              	.LBE379:
 110:../src/tensorflow_lite/tensorflow/lite/micro/recording_micro_allocator.cc ****   RecordAllocationUsage(allocations, recorded_persistent_buffer_data_);
 1154              		.loc 2 110 0
 1155 002c 0610A0E1 		mov	r1, r6
 1156              	.LBB380:
 1157              	.LBB378:
 217:../src/tensorflow_lite/tensorflow/lite/micro/recording_micro_allocator.cc **** }
 1158              		.loc 2 217 0
 1159 0030 0050A0E1 		mov	r5, r0
 1160              	.LVL122:
 1161              	.LBE378:
 1162              	.LBE380:
 110:../src/tensorflow_lite/tensorflow/lite/micro/recording_micro_allocator.cc ****   RecordAllocationUsage(allocations, recorded_persistent_buffer_data_);
 1163              		.loc 2 110 0
 1164 0034 0400A0E1 		mov	r0, r4
 1165 0038 FEFFFFEB 		bl	_ZN6tflite14MicroAllocator24AllocatePersistentBufferEj
 1166              	.LVL123:
 1167 003c 0060A0E1 		mov	r6, r0
 1168              	.LVL124:
 1169              	.LBB381:
 1170              	.LBB382:
 224:../src/tensorflow_lite/tensorflow/lite/micro/recording_micro_allocator.cc ****       snapshotted_allocation.requested_bytes;
 1171              		.loc 2 224 0
 1172 0040 1C0094E5 		ldr	r0, [r4, #28]
 1173              	.LVL125:
 1174 0044 FEFFFFEB 		bl	_ZNK6tflite30RecordingSimpleMemoryAllocator17GetRequestedBytesEv
 1175              	.LVL126:
 225:../src/tensorflow_lite/tensorflow/lite/micro/recording_micro_allocator.cc ****   recorded_allocation.used_bytes +=
 1176              		.loc 2 225 0
 1177 0048 441094E5 		ldr	r1, [r4, #68]
 1178 004c 011080E0 		add	r1, r0, r1
 227:../src/tensorflow_lite/tensorflow/lite/micro/recording_micro_allocator.cc ****       snapshotted_allocation.used_bytes;
 1179              		.loc 2 227 0
 1180 0050 1C0094E5 		ldr	r0, [r4, #28]
 225:../src/tensorflow_lite/tensorflow/lite/micro/recording_micro_allocator.cc ****   recorded_allocation.used_bytes +=
 1181              		.loc 2 225 0
 1182 0054 081041E0 		sub	r1, r1, r8
 223:../src/tensorflow_lite/tensorflow/lite/micro/recording_micro_allocator.cc ****       recording_memory_allocator_->GetRequestedBytes() -
 1183              		.loc 2 223 0
 1184 0058 441084E5 		str	r1, [r4, #68]
 227:../src/tensorflow_lite/tensorflow/lite/micro/recording_micro_allocator.cc ****       snapshotted_allocation.used_bytes;
 1185              		.loc 2 227 0
 1186 005c FEFFFFEB 		bl	_ZNK6tflite30RecordingSimpleMemoryAllocator12GetUsedBytesEv
 1187              	.LVL127:
 228:../src/tensorflow_lite/tensorflow/lite/micro/recording_micro_allocator.cc ****   recorded_allocation.count +=
 1188              		.loc 2 228 0
 1189 0060 482094E5 		ldr	r2, [r4, #72]
 1190 0064 022080E0 		add	r2, r0, r2
 230:../src/tensorflow_lite/tensorflow/lite/micro/recording_micro_allocator.cc ****       snapshotted_allocation.count;
 1191              		.loc 2 230 0
 1192 0068 1C0094E5 		ldr	r0, [r4, #28]
 228:../src/tensorflow_lite/tensorflow/lite/micro/recording_micro_allocator.cc ****   recorded_allocation.count +=
 1193              		.loc 2 228 0
 1194 006c 072042E0 		sub	r2, r2, r7
 226:../src/tensorflow_lite/tensorflow/lite/micro/recording_micro_allocator.cc ****       recording_memory_allocator_->GetUsedBytes() -
 1195              		.loc 2 226 0
 1196 0070 482084E5 		str	r2, [r4, #72]
 230:../src/tensorflow_lite/tensorflow/lite/micro/recording_micro_allocator.cc ****       snapshotted_allocation.count;
 1197              		.loc 2 230 0
 1198 0074 FEFFFFEB 		bl	_ZNK6tflite30RecordingSimpleMemoryAllocator17GetAllocatedCountEv
 1199              	.LVL128:
 1200              		.loc 2 231 0
 1201 0078 4C3094E5 		ldr	r3, [r4, #76]
 1202 007c 033080E0 		add	r3, r0, r3
 1203              	.LBE382:
 1204              	.LBE381:
 114:../src/tensorflow_lite/tensorflow/lite/micro/recording_micro_allocator.cc **** 
 1205              		.loc 2 114 0
 1206 0080 0600A0E1 		mov	r0, r6
 1207              	.LBB384:
 1208              	.LBB383:
 1209              		.loc 2 231 0
 1210 0084 053043E0 		sub	r3, r3, r5
 229:../src/tensorflow_lite/tensorflow/lite/micro/recording_micro_allocator.cc ****       recording_memory_allocator_->GetAllocatedCount() -
 1211              		.loc 2 229 0
 1212 0088 4C3084E5 		str	r3, [r4, #76]
 1213              	.LVL129:
 1214              	.LBE383:
 1215              	.LBE384:
 114:../src/tensorflow_lite/tensorflow/lite/micro/recording_micro_allocator.cc **** 
 1216              		.loc 2 114 0
 1217 008c F081BDE8 		pop	{r4, r5, r6, r7, r8, pc}
 1218              		.cfi_endproc
 1219              	.LFE6514:
 1220              		.fnend
 1222              		.section	.text._ZN6tflite23RecordingMicroAllocator28AllocateNodeAndRegistrationsEPKNS_5ModelEPNS_1
 1223              		.align	2
 1224              		.global	_ZN6tflite23RecordingMicroAllocator28AllocateNodeAndRegistrationsEPKNS_5ModelEPNS_19Subgra
 1225              		.syntax unified
 1226              		.arm
 1227              		.fpu neon
 1229              	_ZN6tflite23RecordingMicroAllocator28AllocateNodeAndRegistrationsEPKNS_5ModelEPNS_19SubgraphAllocat
 1230              		.fnstart
 1231              	.LFB6516:
 133:../src/tensorflow_lite/tensorflow/lite/micro/recording_micro_allocator.cc ****   RecordedAllocation allocations = SnapshotAllocationUsage();
 1232              		.loc 2 133 0
 1233              		.cfi_startproc
 1234              		@ args = 0, pretend = 0, frame = 0
 1235              		@ frame_needed = 0, uses_anonymous_args = 0
 1236              	.LVL130:
 1237 0000 F0472DE9 		push	{r4, r5, r6, r7, r8, r9, r10, lr}
 1238              		.save {r4, r5, r6, r7, r8, r9, r10, lr}
 1239              		.cfi_def_cfa_offset 32
 1240              		.cfi_offset 4, -32
 1241              		.cfi_offset 5, -28
 1242              		.cfi_offset 6, -24
 1243              		.cfi_offset 7, -20
 1244              		.cfi_offset 8, -16
 1245              		.cfi_offset 9, -12
 1246              		.cfi_offset 10, -8
 1247              		.cfi_offset 14, -4
 133:../src/tensorflow_lite/tensorflow/lite/micro/recording_micro_allocator.cc ****   RecordedAllocation allocations = SnapshotAllocationUsage();
 1248              		.loc 2 133 0
 1249 0004 0040A0E1 		mov	r4, r0
 1250              	.LVL131:
 1251              	.LBB452:
 1252              	.LBB453:
 215:../src/tensorflow_lite/tensorflow/lite/micro/recording_micro_allocator.cc ****           /*used_bytes=*/recording_memory_allocator_->GetUsedBytes(),
 1253              		.loc 2 215 0
 1254 0008 1C0090E5 		ldr	r0, [r0, #28]
 1255              	.LVL132:
 1256              	.LBE453:
 1257              	.LBE452:
 133:../src/tensorflow_lite/tensorflow/lite/micro/recording_micro_allocator.cc ****   RecordedAllocation allocations = SnapshotAllocationUsage();
 1258              		.loc 2 133 0
 1259 000c 0190A0E1 		mov	r9, r1
 1260 0010 0280A0E1 		mov	r8, r2
 137:../src/tensorflow_lite/tensorflow/lite/micro/recording_micro_allocator.cc ****   for (size_t subgraph_idx = 0; subgraph_idx < model->subgraphs()->size();
 1261              		.loc 2 137 0
 1262 0014 00A0A0E3 		mov	r10, #0
 1263              	.LBB456:
 1264              	.LBB454:
 215:../src/tensorflow_lite/tensorflow/lite/micro/recording_micro_allocator.cc ****           /*used_bytes=*/recording_memory_allocator_->GetUsedBytes(),
 1265              		.loc 2 215 0
 1266 0018 FEFFFFEB 		bl	_ZNK6tflite30RecordingSimpleMemoryAllocator17GetRequestedBytesEv
 1267              	.LVL133:
 1268 001c 0070A0E1 		mov	r7, r0
 216:../src/tensorflow_lite/tensorflow/lite/micro/recording_micro_allocator.cc ****           /*count=*/recording_memory_allocator_->GetAllocatedCount()};
 1269              		.loc 2 216 0
 1270 0020 1C0094E5 		ldr	r0, [r4, #28]
 1271 0024 FEFFFFEB 		bl	_ZNK6tflite30RecordingSimpleMemoryAllocator12GetUsedBytesEv
 1272              	.LVL134:
 1273 0028 0060A0E1 		mov	r6, r0
 217:../src/tensorflow_lite/tensorflow/lite/micro/recording_micro_allocator.cc **** }
 1274              		.loc 2 217 0
 1275 002c 1C0094E5 		ldr	r0, [r4, #28]
 1276 0030 FEFFFFEB 		bl	_ZNK6tflite30RecordingSimpleMemoryAllocator17GetAllocatedCountEv
 1277              	.LVL135:
 1278              	.LBE454:
 1279              	.LBE456:
 137:../src/tensorflow_lite/tensorflow/lite/micro/recording_micro_allocator.cc ****   for (size_t subgraph_idx = 0; subgraph_idx < model->subgraphs()->size();
 1280              		.loc 2 137 0
 1281 0034 0820A0E1 		mov	r2, r8
 1282 0038 0910A0E1 		mov	r1, r9
 1283              	.LBB457:
 1284              	.LBB455:
 217:../src/tensorflow_lite/tensorflow/lite/micro/recording_micro_allocator.cc **** }
 1285              		.loc 2 217 0
 1286 003c 0050A0E1 		mov	r5, r0
 1287              	.LVL136:
 1288              	.LBE455:
 1289              	.LBE457:
 137:../src/tensorflow_lite/tensorflow/lite/micro/recording_micro_allocator.cc ****   for (size_t subgraph_idx = 0; subgraph_idx < model->subgraphs()->size();
 1290              		.loc 2 137 0
 1291 0040 0400A0E1 		mov	r0, r4
 1292 0044 FEFFFFEB 		bl	_ZN6tflite14MicroAllocator28AllocateNodeAndRegistrationsEPKNS_5ModelEPNS_19SubgraphAllocationsE
 1293              	.LVL137:
 1294 0048 002099E5 		ldr	r2, [r9]
 1295 004c 0080A0E1 		mov	r8, r0
 1296              	.LVL138:
 1297 0050 022049E0 		sub	r2, r9, r2
 1298 0054 B010D2E1 		ldrh	r1, [r2]
 1299 0058 3A0000EA 		b	.L98
 1300              	.LVL139:
 1301              	.L111:
 1302              	.LBB458:
 1303              	.LBB459:
 1304              	.LBB460:
 1305              	.LBB461:
 1306              	.LBB462:
 1307              	.LBB463:
 1308              	.LBB464:
 1309              	.LBB465:
 1310              	.LBB466:
 1311              		.file 3 "C:/Renesas/e2studio_2021_01_workspace_RZA2M_ANPR/ANPR_RZA2M_GR_MANGO/src/tensorflow_lite/
   1:C:/Renesas/e2studio_2021_01_workspace_RZA2M_ANPR/ANPR_RZA2M_GR_MANGO/src/tensorflow_lite/third_party/flatbuffers/include/flatbuffers\base.h **** #ifndef FLATBUFFERS_BASE_H_
   2:C:/Renesas/e2studio_2021_01_workspace_RZA2M_ANPR/ANPR_RZA2M_GR_MANGO/src/tensorflow_lite/third_party/flatbuffers/include/flatbuffers\base.h **** #define FLATBUFFERS_BASE_H_
   3:C:/Renesas/e2studio_2021_01_workspace_RZA2M_ANPR/ANPR_RZA2M_GR_MANGO/src/tensorflow_lite/third_party/flatbuffers/include/flatbuffers\base.h **** 
   4:C:/Renesas/e2studio_2021_01_workspace_RZA2M_ANPR/ANPR_RZA2M_GR_MANGO/src/tensorflow_lite/third_party/flatbuffers/include/flatbuffers\base.h **** // clang-format off
   5:C:/Renesas/e2studio_2021_01_workspace_RZA2M_ANPR/ANPR_RZA2M_GR_MANGO/src/tensorflow_lite/third_party/flatbuffers/include/flatbuffers\base.h **** 
   6:C:/Renesas/e2studio_2021_01_workspace_RZA2M_ANPR/ANPR_RZA2M_GR_MANGO/src/tensorflow_lite/third_party/flatbuffers/include/flatbuffers\base.h **** // If activate should be declared and included first.
   7:C:/Renesas/e2studio_2021_01_workspace_RZA2M_ANPR/ANPR_RZA2M_GR_MANGO/src/tensorflow_lite/third_party/flatbuffers/include/flatbuffers\base.h **** #if defined(FLATBUFFERS_MEMORY_LEAK_TRACKING) && \
   8:C:/Renesas/e2studio_2021_01_workspace_RZA2M_ANPR/ANPR_RZA2M_GR_MANGO/src/tensorflow_lite/third_party/flatbuffers/include/flatbuffers\base.h ****     defined(_MSC_VER) && defined(_DEBUG)
   9:C:/Renesas/e2studio_2021_01_workspace_RZA2M_ANPR/ANPR_RZA2M_GR_MANGO/src/tensorflow_lite/third_party/flatbuffers/include/flatbuffers\base.h ****   // The _CRTDBG_MAP_ALLOC inside <crtdbg.h> will replace
  10:C:/Renesas/e2studio_2021_01_workspace_RZA2M_ANPR/ANPR_RZA2M_GR_MANGO/src/tensorflow_lite/third_party/flatbuffers/include/flatbuffers\base.h ****   // calloc/free (etc) to its debug version using #define directives.
  11:C:/Renesas/e2studio_2021_01_workspace_RZA2M_ANPR/ANPR_RZA2M_GR_MANGO/src/tensorflow_lite/third_party/flatbuffers/include/flatbuffers\base.h ****   #define _CRTDBG_MAP_ALLOC
  12:C:/Renesas/e2studio_2021_01_workspace_RZA2M_ANPR/ANPR_RZA2M_GR_MANGO/src/tensorflow_lite/third_party/flatbuffers/include/flatbuffers\base.h ****   #include <stdlib.h>
  13:C:/Renesas/e2studio_2021_01_workspace_RZA2M_ANPR/ANPR_RZA2M_GR_MANGO/src/tensorflow_lite/third_party/flatbuffers/include/flatbuffers\base.h ****   #include <crtdbg.h>
  14:C:/Renesas/e2studio_2021_01_workspace_RZA2M_ANPR/ANPR_RZA2M_GR_MANGO/src/tensorflow_lite/third_party/flatbuffers/include/flatbuffers\base.h ****   // Replace operator new by trace-enabled version.
  15:C:/Renesas/e2studio_2021_01_workspace_RZA2M_ANPR/ANPR_RZA2M_GR_MANGO/src/tensorflow_lite/third_party/flatbuffers/include/flatbuffers\base.h ****   #define DEBUG_NEW new(_NORMAL_BLOCK, __FILE__, __LINE__)
  16:C:/Renesas/e2studio_2021_01_workspace_RZA2M_ANPR/ANPR_RZA2M_GR_MANGO/src/tensorflow_lite/third_party/flatbuffers/include/flatbuffers\base.h ****   #define new DEBUG_NEW
  17:C:/Renesas/e2studio_2021_01_workspace_RZA2M_ANPR/ANPR_RZA2M_GR_MANGO/src/tensorflow_lite/third_party/flatbuffers/include/flatbuffers\base.h **** #endif
  18:C:/Renesas/e2studio_2021_01_workspace_RZA2M_ANPR/ANPR_RZA2M_GR_MANGO/src/tensorflow_lite/third_party/flatbuffers/include/flatbuffers\base.h **** 
  19:C:/Renesas/e2studio_2021_01_workspace_RZA2M_ANPR/ANPR_RZA2M_GR_MANGO/src/tensorflow_lite/third_party/flatbuffers/include/flatbuffers\base.h **** #if !defined(FLATBUFFERS_ASSERT)
  20:C:/Renesas/e2studio_2021_01_workspace_RZA2M_ANPR/ANPR_RZA2M_GR_MANGO/src/tensorflow_lite/third_party/flatbuffers/include/flatbuffers\base.h **** #include <assert.h>
  21:C:/Renesas/e2studio_2021_01_workspace_RZA2M_ANPR/ANPR_RZA2M_GR_MANGO/src/tensorflow_lite/third_party/flatbuffers/include/flatbuffers\base.h **** #define FLATBUFFERS_ASSERT assert
  22:C:/Renesas/e2studio_2021_01_workspace_RZA2M_ANPR/ANPR_RZA2M_GR_MANGO/src/tensorflow_lite/third_party/flatbuffers/include/flatbuffers\base.h **** #elif defined(FLATBUFFERS_ASSERT_INCLUDE)
  23:C:/Renesas/e2studio_2021_01_workspace_RZA2M_ANPR/ANPR_RZA2M_GR_MANGO/src/tensorflow_lite/third_party/flatbuffers/include/flatbuffers\base.h **** // Include file with forward declaration
  24:C:/Renesas/e2studio_2021_01_workspace_RZA2M_ANPR/ANPR_RZA2M_GR_MANGO/src/tensorflow_lite/third_party/flatbuffers/include/flatbuffers\base.h **** #include FLATBUFFERS_ASSERT_INCLUDE
  25:C:/Renesas/e2studio_2021_01_workspace_RZA2M_ANPR/ANPR_RZA2M_GR_MANGO/src/tensorflow_lite/third_party/flatbuffers/include/flatbuffers\base.h **** #endif
  26:C:/Renesas/e2studio_2021_01_workspace_RZA2M_ANPR/ANPR_RZA2M_GR_MANGO/src/tensorflow_lite/third_party/flatbuffers/include/flatbuffers\base.h **** 
  27:C:/Renesas/e2studio_2021_01_workspace_RZA2M_ANPR/ANPR_RZA2M_GR_MANGO/src/tensorflow_lite/third_party/flatbuffers/include/flatbuffers\base.h **** #ifndef ARDUINO
  28:C:/Renesas/e2studio_2021_01_workspace_RZA2M_ANPR/ANPR_RZA2M_GR_MANGO/src/tensorflow_lite/third_party/flatbuffers/include/flatbuffers\base.h **** #include <cstdint>
  29:C:/Renesas/e2studio_2021_01_workspace_RZA2M_ANPR/ANPR_RZA2M_GR_MANGO/src/tensorflow_lite/third_party/flatbuffers/include/flatbuffers\base.h **** #endif
  30:C:/Renesas/e2studio_2021_01_workspace_RZA2M_ANPR/ANPR_RZA2M_GR_MANGO/src/tensorflow_lite/third_party/flatbuffers/include/flatbuffers\base.h **** 
  31:C:/Renesas/e2studio_2021_01_workspace_RZA2M_ANPR/ANPR_RZA2M_GR_MANGO/src/tensorflow_lite/third_party/flatbuffers/include/flatbuffers\base.h **** #include <cstddef>
  32:C:/Renesas/e2studio_2021_01_workspace_RZA2M_ANPR/ANPR_RZA2M_GR_MANGO/src/tensorflow_lite/third_party/flatbuffers/include/flatbuffers\base.h **** #include <cstdlib>
  33:C:/Renesas/e2studio_2021_01_workspace_RZA2M_ANPR/ANPR_RZA2M_GR_MANGO/src/tensorflow_lite/third_party/flatbuffers/include/flatbuffers\base.h **** #include <cstring>
  34:C:/Renesas/e2studio_2021_01_workspace_RZA2M_ANPR/ANPR_RZA2M_GR_MANGO/src/tensorflow_lite/third_party/flatbuffers/include/flatbuffers\base.h **** 
  35:C:/Renesas/e2studio_2021_01_workspace_RZA2M_ANPR/ANPR_RZA2M_GR_MANGO/src/tensorflow_lite/third_party/flatbuffers/include/flatbuffers\base.h **** #if defined(ARDUINO) && !defined(ARDUINOSTL_M_H)
  36:C:/Renesas/e2studio_2021_01_workspace_RZA2M_ANPR/ANPR_RZA2M_GR_MANGO/src/tensorflow_lite/third_party/flatbuffers/include/flatbuffers\base.h ****   #include <utility.h>
  37:C:/Renesas/e2studio_2021_01_workspace_RZA2M_ANPR/ANPR_RZA2M_GR_MANGO/src/tensorflow_lite/third_party/flatbuffers/include/flatbuffers\base.h **** #else
  38:C:/Renesas/e2studio_2021_01_workspace_RZA2M_ANPR/ANPR_RZA2M_GR_MANGO/src/tensorflow_lite/third_party/flatbuffers/include/flatbuffers\base.h ****   #include <utility>
  39:C:/Renesas/e2studio_2021_01_workspace_RZA2M_ANPR/ANPR_RZA2M_GR_MANGO/src/tensorflow_lite/third_party/flatbuffers/include/flatbuffers\base.h **** #endif
  40:C:/Renesas/e2studio_2021_01_workspace_RZA2M_ANPR/ANPR_RZA2M_GR_MANGO/src/tensorflow_lite/third_party/flatbuffers/include/flatbuffers\base.h **** 
  41:C:/Renesas/e2studio_2021_01_workspace_RZA2M_ANPR/ANPR_RZA2M_GR_MANGO/src/tensorflow_lite/third_party/flatbuffers/include/flatbuffers\base.h **** #include <string>
  42:C:/Renesas/e2studio_2021_01_workspace_RZA2M_ANPR/ANPR_RZA2M_GR_MANGO/src/tensorflow_lite/third_party/flatbuffers/include/flatbuffers\base.h **** #include <type_traits>
  43:C:/Renesas/e2studio_2021_01_workspace_RZA2M_ANPR/ANPR_RZA2M_GR_MANGO/src/tensorflow_lite/third_party/flatbuffers/include/flatbuffers\base.h **** #include <vector>
  44:C:/Renesas/e2studio_2021_01_workspace_RZA2M_ANPR/ANPR_RZA2M_GR_MANGO/src/tensorflow_lite/third_party/flatbuffers/include/flatbuffers\base.h **** #include <set>
  45:C:/Renesas/e2studio_2021_01_workspace_RZA2M_ANPR/ANPR_RZA2M_GR_MANGO/src/tensorflow_lite/third_party/flatbuffers/include/flatbuffers\base.h **** #include <algorithm>
  46:C:/Renesas/e2studio_2021_01_workspace_RZA2M_ANPR/ANPR_RZA2M_GR_MANGO/src/tensorflow_lite/third_party/flatbuffers/include/flatbuffers\base.h **** #include <iterator>
  47:C:/Renesas/e2studio_2021_01_workspace_RZA2M_ANPR/ANPR_RZA2M_GR_MANGO/src/tensorflow_lite/third_party/flatbuffers/include/flatbuffers\base.h **** #include <memory>
  48:C:/Renesas/e2studio_2021_01_workspace_RZA2M_ANPR/ANPR_RZA2M_GR_MANGO/src/tensorflow_lite/third_party/flatbuffers/include/flatbuffers\base.h **** 
  49:C:/Renesas/e2studio_2021_01_workspace_RZA2M_ANPR/ANPR_RZA2M_GR_MANGO/src/tensorflow_lite/third_party/flatbuffers/include/flatbuffers\base.h **** #if defined(__unix__) && !defined(FLATBUFFERS_LOCALE_INDEPENDENT)
  50:C:/Renesas/e2studio_2021_01_workspace_RZA2M_ANPR/ANPR_RZA2M_GR_MANGO/src/tensorflow_lite/third_party/flatbuffers/include/flatbuffers\base.h ****   #include <unistd.h>
  51:C:/Renesas/e2studio_2021_01_workspace_RZA2M_ANPR/ANPR_RZA2M_GR_MANGO/src/tensorflow_lite/third_party/flatbuffers/include/flatbuffers\base.h **** #endif
  52:C:/Renesas/e2studio_2021_01_workspace_RZA2M_ANPR/ANPR_RZA2M_GR_MANGO/src/tensorflow_lite/third_party/flatbuffers/include/flatbuffers\base.h **** 
  53:C:/Renesas/e2studio_2021_01_workspace_RZA2M_ANPR/ANPR_RZA2M_GR_MANGO/src/tensorflow_lite/third_party/flatbuffers/include/flatbuffers\base.h **** #ifdef _STLPORT_VERSION
  54:C:/Renesas/e2studio_2021_01_workspace_RZA2M_ANPR/ANPR_RZA2M_GR_MANGO/src/tensorflow_lite/third_party/flatbuffers/include/flatbuffers\base.h ****   #define FLATBUFFERS_CPP98_STL
  55:C:/Renesas/e2studio_2021_01_workspace_RZA2M_ANPR/ANPR_RZA2M_GR_MANGO/src/tensorflow_lite/third_party/flatbuffers/include/flatbuffers\base.h **** #endif
  56:C:/Renesas/e2studio_2021_01_workspace_RZA2M_ANPR/ANPR_RZA2M_GR_MANGO/src/tensorflow_lite/third_party/flatbuffers/include/flatbuffers\base.h **** 
  57:C:/Renesas/e2studio_2021_01_workspace_RZA2M_ANPR/ANPR_RZA2M_GR_MANGO/src/tensorflow_lite/third_party/flatbuffers/include/flatbuffers\base.h **** #ifdef __ANDROID__
  58:C:/Renesas/e2studio_2021_01_workspace_RZA2M_ANPR/ANPR_RZA2M_GR_MANGO/src/tensorflow_lite/third_party/flatbuffers/include/flatbuffers\base.h ****   #include <android/api-level.h>
  59:C:/Renesas/e2studio_2021_01_workspace_RZA2M_ANPR/ANPR_RZA2M_GR_MANGO/src/tensorflow_lite/third_party/flatbuffers/include/flatbuffers\base.h **** #endif
  60:C:/Renesas/e2studio_2021_01_workspace_RZA2M_ANPR/ANPR_RZA2M_GR_MANGO/src/tensorflow_lite/third_party/flatbuffers/include/flatbuffers\base.h **** 
  61:C:/Renesas/e2studio_2021_01_workspace_RZA2M_ANPR/ANPR_RZA2M_GR_MANGO/src/tensorflow_lite/third_party/flatbuffers/include/flatbuffers\base.h **** #if defined(__ICCARM__)
  62:C:/Renesas/e2studio_2021_01_workspace_RZA2M_ANPR/ANPR_RZA2M_GR_MANGO/src/tensorflow_lite/third_party/flatbuffers/include/flatbuffers\base.h **** #include <intrinsics.h>
  63:C:/Renesas/e2studio_2021_01_workspace_RZA2M_ANPR/ANPR_RZA2M_GR_MANGO/src/tensorflow_lite/third_party/flatbuffers/include/flatbuffers\base.h **** #endif
  64:C:/Renesas/e2studio_2021_01_workspace_RZA2M_ANPR/ANPR_RZA2M_GR_MANGO/src/tensorflow_lite/third_party/flatbuffers/include/flatbuffers\base.h **** 
  65:C:/Renesas/e2studio_2021_01_workspace_RZA2M_ANPR/ANPR_RZA2M_GR_MANGO/src/tensorflow_lite/third_party/flatbuffers/include/flatbuffers\base.h **** // Note the __clang__ check is needed, because clang presents itself
  66:C:/Renesas/e2studio_2021_01_workspace_RZA2M_ANPR/ANPR_RZA2M_GR_MANGO/src/tensorflow_lite/third_party/flatbuffers/include/flatbuffers\base.h **** // as an older GNUC compiler (4.2).
  67:C:/Renesas/e2studio_2021_01_workspace_RZA2M_ANPR/ANPR_RZA2M_GR_MANGO/src/tensorflow_lite/third_party/flatbuffers/include/flatbuffers\base.h **** // Clang 3.3 and later implement all of the ISO C++ 2011 standard.
  68:C:/Renesas/e2studio_2021_01_workspace_RZA2M_ANPR/ANPR_RZA2M_GR_MANGO/src/tensorflow_lite/third_party/flatbuffers/include/flatbuffers\base.h **** // Clang 3.4 and later implement all of the ISO C++ 2014 standard.
  69:C:/Renesas/e2studio_2021_01_workspace_RZA2M_ANPR/ANPR_RZA2M_GR_MANGO/src/tensorflow_lite/third_party/flatbuffers/include/flatbuffers\base.h **** // http://clang.llvm.org/cxx_status.html
  70:C:/Renesas/e2studio_2021_01_workspace_RZA2M_ANPR/ANPR_RZA2M_GR_MANGO/src/tensorflow_lite/third_party/flatbuffers/include/flatbuffers\base.h **** 
  71:C:/Renesas/e2studio_2021_01_workspace_RZA2M_ANPR/ANPR_RZA2M_GR_MANGO/src/tensorflow_lite/third_party/flatbuffers/include/flatbuffers\base.h **** // Note the MSVC value '__cplusplus' may be incorrect:
  72:C:/Renesas/e2studio_2021_01_workspace_RZA2M_ANPR/ANPR_RZA2M_GR_MANGO/src/tensorflow_lite/third_party/flatbuffers/include/flatbuffers\base.h **** // The '__cplusplus' predefined macro in the MSVC stuck at the value 199711L,
  73:C:/Renesas/e2studio_2021_01_workspace_RZA2M_ANPR/ANPR_RZA2M_GR_MANGO/src/tensorflow_lite/third_party/flatbuffers/include/flatbuffers\base.h **** // indicating (erroneously!) that the compiler conformed to the C++98 Standard.
  74:C:/Renesas/e2studio_2021_01_workspace_RZA2M_ANPR/ANPR_RZA2M_GR_MANGO/src/tensorflow_lite/third_party/flatbuffers/include/flatbuffers\base.h **** // This value should be correct starting from MSVC2017-15.7-Preview-3.
  75:C:/Renesas/e2studio_2021_01_workspace_RZA2M_ANPR/ANPR_RZA2M_GR_MANGO/src/tensorflow_lite/third_party/flatbuffers/include/flatbuffers\base.h **** // The '__cplusplus' will be valid only if MSVC2017-15.7-P3 and the `/Zc:__cplusplus` switch is set
  76:C:/Renesas/e2studio_2021_01_workspace_RZA2M_ANPR/ANPR_RZA2M_GR_MANGO/src/tensorflow_lite/third_party/flatbuffers/include/flatbuffers\base.h **** // Workaround (for details see MSDN):
  77:C:/Renesas/e2studio_2021_01_workspace_RZA2M_ANPR/ANPR_RZA2M_GR_MANGO/src/tensorflow_lite/third_party/flatbuffers/include/flatbuffers\base.h **** // Use the _MSC_VER and _MSVC_LANG definition instead of the __cplusplus  for compatibility.
  78:C:/Renesas/e2studio_2021_01_workspace_RZA2M_ANPR/ANPR_RZA2M_GR_MANGO/src/tensorflow_lite/third_party/flatbuffers/include/flatbuffers\base.h **** // The _MSVC_LANG macro reports the Standard version regardless of the '/Zc:__cplusplus' switch.
  79:C:/Renesas/e2studio_2021_01_workspace_RZA2M_ANPR/ANPR_RZA2M_GR_MANGO/src/tensorflow_lite/third_party/flatbuffers/include/flatbuffers\base.h **** 
  80:C:/Renesas/e2studio_2021_01_workspace_RZA2M_ANPR/ANPR_RZA2M_GR_MANGO/src/tensorflow_lite/third_party/flatbuffers/include/flatbuffers\base.h **** #if defined(__GNUC__) && !defined(__clang__)
  81:C:/Renesas/e2studio_2021_01_workspace_RZA2M_ANPR/ANPR_RZA2M_GR_MANGO/src/tensorflow_lite/third_party/flatbuffers/include/flatbuffers\base.h ****   #define FLATBUFFERS_GCC (__GNUC__ * 10000 + __GNUC_MINOR__ * 100 + __GNUC_PATCHLEVEL__)
  82:C:/Renesas/e2studio_2021_01_workspace_RZA2M_ANPR/ANPR_RZA2M_GR_MANGO/src/tensorflow_lite/third_party/flatbuffers/include/flatbuffers\base.h **** #else
  83:C:/Renesas/e2studio_2021_01_workspace_RZA2M_ANPR/ANPR_RZA2M_GR_MANGO/src/tensorflow_lite/third_party/flatbuffers/include/flatbuffers\base.h ****   #define FLATBUFFERS_GCC 0
  84:C:/Renesas/e2studio_2021_01_workspace_RZA2M_ANPR/ANPR_RZA2M_GR_MANGO/src/tensorflow_lite/third_party/flatbuffers/include/flatbuffers\base.h **** #endif
  85:C:/Renesas/e2studio_2021_01_workspace_RZA2M_ANPR/ANPR_RZA2M_GR_MANGO/src/tensorflow_lite/third_party/flatbuffers/include/flatbuffers\base.h **** 
  86:C:/Renesas/e2studio_2021_01_workspace_RZA2M_ANPR/ANPR_RZA2M_GR_MANGO/src/tensorflow_lite/third_party/flatbuffers/include/flatbuffers\base.h **** #if defined(__clang__)
  87:C:/Renesas/e2studio_2021_01_workspace_RZA2M_ANPR/ANPR_RZA2M_GR_MANGO/src/tensorflow_lite/third_party/flatbuffers/include/flatbuffers\base.h ****   #define FLATBUFFERS_CLANG (__clang_major__ * 10000 + __clang_minor__ * 100 + __clang_patchlevel__
  88:C:/Renesas/e2studio_2021_01_workspace_RZA2M_ANPR/ANPR_RZA2M_GR_MANGO/src/tensorflow_lite/third_party/flatbuffers/include/flatbuffers\base.h **** #else
  89:C:/Renesas/e2studio_2021_01_workspace_RZA2M_ANPR/ANPR_RZA2M_GR_MANGO/src/tensorflow_lite/third_party/flatbuffers/include/flatbuffers\base.h ****   #define FLATBUFFERS_CLANG 0
  90:C:/Renesas/e2studio_2021_01_workspace_RZA2M_ANPR/ANPR_RZA2M_GR_MANGO/src/tensorflow_lite/third_party/flatbuffers/include/flatbuffers\base.h **** #endif
  91:C:/Renesas/e2studio_2021_01_workspace_RZA2M_ANPR/ANPR_RZA2M_GR_MANGO/src/tensorflow_lite/third_party/flatbuffers/include/flatbuffers\base.h **** 
  92:C:/Renesas/e2studio_2021_01_workspace_RZA2M_ANPR/ANPR_RZA2M_GR_MANGO/src/tensorflow_lite/third_party/flatbuffers/include/flatbuffers\base.h **** /// @cond FLATBUFFERS_INTERNAL
  93:C:/Renesas/e2studio_2021_01_workspace_RZA2M_ANPR/ANPR_RZA2M_GR_MANGO/src/tensorflow_lite/third_party/flatbuffers/include/flatbuffers\base.h **** #if __cplusplus <= 199711L && \
  94:C:/Renesas/e2studio_2021_01_workspace_RZA2M_ANPR/ANPR_RZA2M_GR_MANGO/src/tensorflow_lite/third_party/flatbuffers/include/flatbuffers\base.h ****     (!defined(_MSC_VER) || _MSC_VER < 1600) && \
  95:C:/Renesas/e2studio_2021_01_workspace_RZA2M_ANPR/ANPR_RZA2M_GR_MANGO/src/tensorflow_lite/third_party/flatbuffers/include/flatbuffers\base.h ****     (!defined(__GNUC__) || \
  96:C:/Renesas/e2studio_2021_01_workspace_RZA2M_ANPR/ANPR_RZA2M_GR_MANGO/src/tensorflow_lite/third_party/flatbuffers/include/flatbuffers\base.h ****       (__GNUC__ * 10000 + __GNUC_MINOR__ * 100 + __GNUC_PATCHLEVEL__ < 40400))
  97:C:/Renesas/e2studio_2021_01_workspace_RZA2M_ANPR/ANPR_RZA2M_GR_MANGO/src/tensorflow_lite/third_party/flatbuffers/include/flatbuffers\base.h ****   #error A C++11 compatible compiler with support for the auto typing is \
  98:C:/Renesas/e2studio_2021_01_workspace_RZA2M_ANPR/ANPR_RZA2M_GR_MANGO/src/tensorflow_lite/third_party/flatbuffers/include/flatbuffers\base.h ****          required for FlatBuffers.
  99:C:/Renesas/e2studio_2021_01_workspace_RZA2M_ANPR/ANPR_RZA2M_GR_MANGO/src/tensorflow_lite/third_party/flatbuffers/include/flatbuffers\base.h ****   #error __cplusplus _MSC_VER __GNUC__  __GNUC_MINOR__  __GNUC_PATCHLEVEL__
 100:C:/Renesas/e2studio_2021_01_workspace_RZA2M_ANPR/ANPR_RZA2M_GR_MANGO/src/tensorflow_lite/third_party/flatbuffers/include/flatbuffers\base.h **** #endif
 101:C:/Renesas/e2studio_2021_01_workspace_RZA2M_ANPR/ANPR_RZA2M_GR_MANGO/src/tensorflow_lite/third_party/flatbuffers/include/flatbuffers\base.h **** 
 102:C:/Renesas/e2studio_2021_01_workspace_RZA2M_ANPR/ANPR_RZA2M_GR_MANGO/src/tensorflow_lite/third_party/flatbuffers/include/flatbuffers\base.h **** #if !defined(__clang__) && \
 103:C:/Renesas/e2studio_2021_01_workspace_RZA2M_ANPR/ANPR_RZA2M_GR_MANGO/src/tensorflow_lite/third_party/flatbuffers/include/flatbuffers\base.h ****     defined(__GNUC__) && \
 104:C:/Renesas/e2studio_2021_01_workspace_RZA2M_ANPR/ANPR_RZA2M_GR_MANGO/src/tensorflow_lite/third_party/flatbuffers/include/flatbuffers\base.h ****     (__GNUC__ * 10000 + __GNUC_MINOR__ * 100 + __GNUC_PATCHLEVEL__ < 40600)
 105:C:/Renesas/e2studio_2021_01_workspace_RZA2M_ANPR/ANPR_RZA2M_GR_MANGO/src/tensorflow_lite/third_party/flatbuffers/include/flatbuffers\base.h ****   // Backwards compatibility for g++ 4.4, and 4.5 which don't have the nullptr
 106:C:/Renesas/e2studio_2021_01_workspace_RZA2M_ANPR/ANPR_RZA2M_GR_MANGO/src/tensorflow_lite/third_party/flatbuffers/include/flatbuffers\base.h ****   // and constexpr keywords. Note the __clang__ check is needed, because clang
 107:C:/Renesas/e2studio_2021_01_workspace_RZA2M_ANPR/ANPR_RZA2M_GR_MANGO/src/tensorflow_lite/third_party/flatbuffers/include/flatbuffers\base.h ****   // presents itself as an older GNUC compiler.
 108:C:/Renesas/e2studio_2021_01_workspace_RZA2M_ANPR/ANPR_RZA2M_GR_MANGO/src/tensorflow_lite/third_party/flatbuffers/include/flatbuffers\base.h ****   #ifndef nullptr_t
 109:C:/Renesas/e2studio_2021_01_workspace_RZA2M_ANPR/ANPR_RZA2M_GR_MANGO/src/tensorflow_lite/third_party/flatbuffers/include/flatbuffers\base.h ****     const class nullptr_t {
 110:C:/Renesas/e2studio_2021_01_workspace_RZA2M_ANPR/ANPR_RZA2M_GR_MANGO/src/tensorflow_lite/third_party/flatbuffers/include/flatbuffers\base.h ****     public:
 111:C:/Renesas/e2studio_2021_01_workspace_RZA2M_ANPR/ANPR_RZA2M_GR_MANGO/src/tensorflow_lite/third_party/flatbuffers/include/flatbuffers\base.h ****       template<class T> inline operator T*() const { return 0; }
 112:C:/Renesas/e2studio_2021_01_workspace_RZA2M_ANPR/ANPR_RZA2M_GR_MANGO/src/tensorflow_lite/third_party/flatbuffers/include/flatbuffers\base.h ****     private:
 113:C:/Renesas/e2studio_2021_01_workspace_RZA2M_ANPR/ANPR_RZA2M_GR_MANGO/src/tensorflow_lite/third_party/flatbuffers/include/flatbuffers\base.h ****       void operator&() const;
 114:C:/Renesas/e2studio_2021_01_workspace_RZA2M_ANPR/ANPR_RZA2M_GR_MANGO/src/tensorflow_lite/third_party/flatbuffers/include/flatbuffers\base.h ****     } nullptr = {};
 115:C:/Renesas/e2studio_2021_01_workspace_RZA2M_ANPR/ANPR_RZA2M_GR_MANGO/src/tensorflow_lite/third_party/flatbuffers/include/flatbuffers\base.h ****   #endif
 116:C:/Renesas/e2studio_2021_01_workspace_RZA2M_ANPR/ANPR_RZA2M_GR_MANGO/src/tensorflow_lite/third_party/flatbuffers/include/flatbuffers\base.h ****   #ifndef constexpr
 117:C:/Renesas/e2studio_2021_01_workspace_RZA2M_ANPR/ANPR_RZA2M_GR_MANGO/src/tensorflow_lite/third_party/flatbuffers/include/flatbuffers\base.h ****     #define constexpr const
 118:C:/Renesas/e2studio_2021_01_workspace_RZA2M_ANPR/ANPR_RZA2M_GR_MANGO/src/tensorflow_lite/third_party/flatbuffers/include/flatbuffers\base.h ****   #endif
 119:C:/Renesas/e2studio_2021_01_workspace_RZA2M_ANPR/ANPR_RZA2M_GR_MANGO/src/tensorflow_lite/third_party/flatbuffers/include/flatbuffers\base.h **** #endif
 120:C:/Renesas/e2studio_2021_01_workspace_RZA2M_ANPR/ANPR_RZA2M_GR_MANGO/src/tensorflow_lite/third_party/flatbuffers/include/flatbuffers\base.h **** 
 121:C:/Renesas/e2studio_2021_01_workspace_RZA2M_ANPR/ANPR_RZA2M_GR_MANGO/src/tensorflow_lite/third_party/flatbuffers/include/flatbuffers\base.h **** // The wire format uses a little endian encoding (since that's efficient for
 122:C:/Renesas/e2studio_2021_01_workspace_RZA2M_ANPR/ANPR_RZA2M_GR_MANGO/src/tensorflow_lite/third_party/flatbuffers/include/flatbuffers\base.h **** // the common platforms).
 123:C:/Renesas/e2studio_2021_01_workspace_RZA2M_ANPR/ANPR_RZA2M_GR_MANGO/src/tensorflow_lite/third_party/flatbuffers/include/flatbuffers\base.h **** #if defined(__s390x__)
 124:C:/Renesas/e2studio_2021_01_workspace_RZA2M_ANPR/ANPR_RZA2M_GR_MANGO/src/tensorflow_lite/third_party/flatbuffers/include/flatbuffers\base.h ****   #define FLATBUFFERS_LITTLEENDIAN 0
 125:C:/Renesas/e2studio_2021_01_workspace_RZA2M_ANPR/ANPR_RZA2M_GR_MANGO/src/tensorflow_lite/third_party/flatbuffers/include/flatbuffers\base.h **** #endif // __s390x__
 126:C:/Renesas/e2studio_2021_01_workspace_RZA2M_ANPR/ANPR_RZA2M_GR_MANGO/src/tensorflow_lite/third_party/flatbuffers/include/flatbuffers\base.h **** #if !defined(FLATBUFFERS_LITTLEENDIAN)
 127:C:/Renesas/e2studio_2021_01_workspace_RZA2M_ANPR/ANPR_RZA2M_GR_MANGO/src/tensorflow_lite/third_party/flatbuffers/include/flatbuffers\base.h ****   #if defined(__GNUC__) || defined(__clang__) || defined(__ICCARM__)
 128:C:/Renesas/e2studio_2021_01_workspace_RZA2M_ANPR/ANPR_RZA2M_GR_MANGO/src/tensorflow_lite/third_party/flatbuffers/include/flatbuffers\base.h ****     #if (defined(__BIG_ENDIAN__) || \
 129:C:/Renesas/e2studio_2021_01_workspace_RZA2M_ANPR/ANPR_RZA2M_GR_MANGO/src/tensorflow_lite/third_party/flatbuffers/include/flatbuffers\base.h ****          (defined(__BYTE_ORDER__) && __BYTE_ORDER__ == __ORDER_BIG_ENDIAN__))
 130:C:/Renesas/e2studio_2021_01_workspace_RZA2M_ANPR/ANPR_RZA2M_GR_MANGO/src/tensorflow_lite/third_party/flatbuffers/include/flatbuffers\base.h ****       #define FLATBUFFERS_LITTLEENDIAN 0
 131:C:/Renesas/e2studio_2021_01_workspace_RZA2M_ANPR/ANPR_RZA2M_GR_MANGO/src/tensorflow_lite/third_party/flatbuffers/include/flatbuffers\base.h ****     #else
 132:C:/Renesas/e2studio_2021_01_workspace_RZA2M_ANPR/ANPR_RZA2M_GR_MANGO/src/tensorflow_lite/third_party/flatbuffers/include/flatbuffers\base.h ****       #define FLATBUFFERS_LITTLEENDIAN 1
 133:C:/Renesas/e2studio_2021_01_workspace_RZA2M_ANPR/ANPR_RZA2M_GR_MANGO/src/tensorflow_lite/third_party/flatbuffers/include/flatbuffers\base.h ****     #endif // __BIG_ENDIAN__
 134:C:/Renesas/e2studio_2021_01_workspace_RZA2M_ANPR/ANPR_RZA2M_GR_MANGO/src/tensorflow_lite/third_party/flatbuffers/include/flatbuffers\base.h ****   #elif defined(_MSC_VER)
 135:C:/Renesas/e2studio_2021_01_workspace_RZA2M_ANPR/ANPR_RZA2M_GR_MANGO/src/tensorflow_lite/third_party/flatbuffers/include/flatbuffers\base.h ****     #if defined(_M_PPC)
 136:C:/Renesas/e2studio_2021_01_workspace_RZA2M_ANPR/ANPR_RZA2M_GR_MANGO/src/tensorflow_lite/third_party/flatbuffers/include/flatbuffers\base.h ****       #define FLATBUFFERS_LITTLEENDIAN 0
 137:C:/Renesas/e2studio_2021_01_workspace_RZA2M_ANPR/ANPR_RZA2M_GR_MANGO/src/tensorflow_lite/third_party/flatbuffers/include/flatbuffers\base.h ****     #else
 138:C:/Renesas/e2studio_2021_01_workspace_RZA2M_ANPR/ANPR_RZA2M_GR_MANGO/src/tensorflow_lite/third_party/flatbuffers/include/flatbuffers\base.h ****       #define FLATBUFFERS_LITTLEENDIAN 1
 139:C:/Renesas/e2studio_2021_01_workspace_RZA2M_ANPR/ANPR_RZA2M_GR_MANGO/src/tensorflow_lite/third_party/flatbuffers/include/flatbuffers\base.h ****     #endif
 140:C:/Renesas/e2studio_2021_01_workspace_RZA2M_ANPR/ANPR_RZA2M_GR_MANGO/src/tensorflow_lite/third_party/flatbuffers/include/flatbuffers\base.h ****   #else
 141:C:/Renesas/e2studio_2021_01_workspace_RZA2M_ANPR/ANPR_RZA2M_GR_MANGO/src/tensorflow_lite/third_party/flatbuffers/include/flatbuffers\base.h ****     #error Unable to determine endianness, define FLATBUFFERS_LITTLEENDIAN.
 142:C:/Renesas/e2studio_2021_01_workspace_RZA2M_ANPR/ANPR_RZA2M_GR_MANGO/src/tensorflow_lite/third_party/flatbuffers/include/flatbuffers\base.h ****   #endif
 143:C:/Renesas/e2studio_2021_01_workspace_RZA2M_ANPR/ANPR_RZA2M_GR_MANGO/src/tensorflow_lite/third_party/flatbuffers/include/flatbuffers\base.h **** #endif // !defined(FLATBUFFERS_LITTLEENDIAN)
 144:C:/Renesas/e2studio_2021_01_workspace_RZA2M_ANPR/ANPR_RZA2M_GR_MANGO/src/tensorflow_lite/third_party/flatbuffers/include/flatbuffers\base.h **** 
 145:C:/Renesas/e2studio_2021_01_workspace_RZA2M_ANPR/ANPR_RZA2M_GR_MANGO/src/tensorflow_lite/third_party/flatbuffers/include/flatbuffers\base.h **** #define FLATBUFFERS_VERSION_MAJOR 1
 146:C:/Renesas/e2studio_2021_01_workspace_RZA2M_ANPR/ANPR_RZA2M_GR_MANGO/src/tensorflow_lite/third_party/flatbuffers/include/flatbuffers\base.h **** #define FLATBUFFERS_VERSION_MINOR 12
 147:C:/Renesas/e2studio_2021_01_workspace_RZA2M_ANPR/ANPR_RZA2M_GR_MANGO/src/tensorflow_lite/third_party/flatbuffers/include/flatbuffers\base.h **** #define FLATBUFFERS_VERSION_REVISION 0
 148:C:/Renesas/e2studio_2021_01_workspace_RZA2M_ANPR/ANPR_RZA2M_GR_MANGO/src/tensorflow_lite/third_party/flatbuffers/include/flatbuffers\base.h **** #define FLATBUFFERS_STRING_EXPAND(X) #X
 149:C:/Renesas/e2studio_2021_01_workspace_RZA2M_ANPR/ANPR_RZA2M_GR_MANGO/src/tensorflow_lite/third_party/flatbuffers/include/flatbuffers\base.h **** #define FLATBUFFERS_STRING(X) FLATBUFFERS_STRING_EXPAND(X)
 150:C:/Renesas/e2studio_2021_01_workspace_RZA2M_ANPR/ANPR_RZA2M_GR_MANGO/src/tensorflow_lite/third_party/flatbuffers/include/flatbuffers\base.h **** namespace flatbuffers {
 151:C:/Renesas/e2studio_2021_01_workspace_RZA2M_ANPR/ANPR_RZA2M_GR_MANGO/src/tensorflow_lite/third_party/flatbuffers/include/flatbuffers\base.h ****   // Returns version as string  "MAJOR.MINOR.REVISION".
 152:C:/Renesas/e2studio_2021_01_workspace_RZA2M_ANPR/ANPR_RZA2M_GR_MANGO/src/tensorflow_lite/third_party/flatbuffers/include/flatbuffers\base.h ****   const char* FLATBUFFERS_VERSION();
 153:C:/Renesas/e2studio_2021_01_workspace_RZA2M_ANPR/ANPR_RZA2M_GR_MANGO/src/tensorflow_lite/third_party/flatbuffers/include/flatbuffers\base.h **** }
 154:C:/Renesas/e2studio_2021_01_workspace_RZA2M_ANPR/ANPR_RZA2M_GR_MANGO/src/tensorflow_lite/third_party/flatbuffers/include/flatbuffers\base.h **** 
 155:C:/Renesas/e2studio_2021_01_workspace_RZA2M_ANPR/ANPR_RZA2M_GR_MANGO/src/tensorflow_lite/third_party/flatbuffers/include/flatbuffers\base.h **** #if (!defined(_MSC_VER) || _MSC_VER > 1600) && \
 156:C:/Renesas/e2studio_2021_01_workspace_RZA2M_ANPR/ANPR_RZA2M_GR_MANGO/src/tensorflow_lite/third_party/flatbuffers/include/flatbuffers\base.h ****     (!defined(__GNUC__) || (__GNUC__ * 100 + __GNUC_MINOR__ >= 407)) || \
 157:C:/Renesas/e2studio_2021_01_workspace_RZA2M_ANPR/ANPR_RZA2M_GR_MANGO/src/tensorflow_lite/third_party/flatbuffers/include/flatbuffers\base.h ****     defined(__clang__)
 158:C:/Renesas/e2studio_2021_01_workspace_RZA2M_ANPR/ANPR_RZA2M_GR_MANGO/src/tensorflow_lite/third_party/flatbuffers/include/flatbuffers\base.h ****   #define FLATBUFFERS_FINAL_CLASS final
 159:C:/Renesas/e2studio_2021_01_workspace_RZA2M_ANPR/ANPR_RZA2M_GR_MANGO/src/tensorflow_lite/third_party/flatbuffers/include/flatbuffers\base.h ****   #define FLATBUFFERS_OVERRIDE override
 160:C:/Renesas/e2studio_2021_01_workspace_RZA2M_ANPR/ANPR_RZA2M_GR_MANGO/src/tensorflow_lite/third_party/flatbuffers/include/flatbuffers\base.h ****   #define FLATBUFFERS_EXPLICIT_CPP11 explicit
 161:C:/Renesas/e2studio_2021_01_workspace_RZA2M_ANPR/ANPR_RZA2M_GR_MANGO/src/tensorflow_lite/third_party/flatbuffers/include/flatbuffers\base.h ****   #define FLATBUFFERS_VTABLE_UNDERLYING_TYPE : flatbuffers::voffset_t
 162:C:/Renesas/e2studio_2021_01_workspace_RZA2M_ANPR/ANPR_RZA2M_GR_MANGO/src/tensorflow_lite/third_party/flatbuffers/include/flatbuffers\base.h **** #else
 163:C:/Renesas/e2studio_2021_01_workspace_RZA2M_ANPR/ANPR_RZA2M_GR_MANGO/src/tensorflow_lite/third_party/flatbuffers/include/flatbuffers\base.h ****   #define FLATBUFFERS_FINAL_CLASS
 164:C:/Renesas/e2studio_2021_01_workspace_RZA2M_ANPR/ANPR_RZA2M_GR_MANGO/src/tensorflow_lite/third_party/flatbuffers/include/flatbuffers\base.h ****   #define FLATBUFFERS_OVERRIDE
 165:C:/Renesas/e2studio_2021_01_workspace_RZA2M_ANPR/ANPR_RZA2M_GR_MANGO/src/tensorflow_lite/third_party/flatbuffers/include/flatbuffers\base.h ****   #define FLATBUFFERS_EXPLICIT_CPP11
 166:C:/Renesas/e2studio_2021_01_workspace_RZA2M_ANPR/ANPR_RZA2M_GR_MANGO/src/tensorflow_lite/third_party/flatbuffers/include/flatbuffers\base.h ****   #define FLATBUFFERS_VTABLE_UNDERLYING_TYPE
 167:C:/Renesas/e2studio_2021_01_workspace_RZA2M_ANPR/ANPR_RZA2M_GR_MANGO/src/tensorflow_lite/third_party/flatbuffers/include/flatbuffers\base.h **** #endif
 168:C:/Renesas/e2studio_2021_01_workspace_RZA2M_ANPR/ANPR_RZA2M_GR_MANGO/src/tensorflow_lite/third_party/flatbuffers/include/flatbuffers\base.h **** 
 169:C:/Renesas/e2studio_2021_01_workspace_RZA2M_ANPR/ANPR_RZA2M_GR_MANGO/src/tensorflow_lite/third_party/flatbuffers/include/flatbuffers\base.h **** #if (!defined(_MSC_VER) || _MSC_VER >= 1900) && \
 170:C:/Renesas/e2studio_2021_01_workspace_RZA2M_ANPR/ANPR_RZA2M_GR_MANGO/src/tensorflow_lite/third_party/flatbuffers/include/flatbuffers\base.h ****     (!defined(__GNUC__) || (__GNUC__ * 100 + __GNUC_MINOR__ >= 406)) || \
 171:C:/Renesas/e2studio_2021_01_workspace_RZA2M_ANPR/ANPR_RZA2M_GR_MANGO/src/tensorflow_lite/third_party/flatbuffers/include/flatbuffers\base.h ****     (defined(__cpp_constexpr) && __cpp_constexpr >= 200704)
 172:C:/Renesas/e2studio_2021_01_workspace_RZA2M_ANPR/ANPR_RZA2M_GR_MANGO/src/tensorflow_lite/third_party/flatbuffers/include/flatbuffers\base.h ****   #define FLATBUFFERS_CONSTEXPR constexpr
 173:C:/Renesas/e2studio_2021_01_workspace_RZA2M_ANPR/ANPR_RZA2M_GR_MANGO/src/tensorflow_lite/third_party/flatbuffers/include/flatbuffers\base.h ****   #define FLATBUFFERS_CONSTEXPR_CPP11 constexpr
 174:C:/Renesas/e2studio_2021_01_workspace_RZA2M_ANPR/ANPR_RZA2M_GR_MANGO/src/tensorflow_lite/third_party/flatbuffers/include/flatbuffers\base.h ****   #define FLATBUFFERS_CONSTEXPR_DEFINED
 175:C:/Renesas/e2studio_2021_01_workspace_RZA2M_ANPR/ANPR_RZA2M_GR_MANGO/src/tensorflow_lite/third_party/flatbuffers/include/flatbuffers\base.h **** #else
 176:C:/Renesas/e2studio_2021_01_workspace_RZA2M_ANPR/ANPR_RZA2M_GR_MANGO/src/tensorflow_lite/third_party/flatbuffers/include/flatbuffers\base.h ****   #define FLATBUFFERS_CONSTEXPR const
 177:C:/Renesas/e2studio_2021_01_workspace_RZA2M_ANPR/ANPR_RZA2M_GR_MANGO/src/tensorflow_lite/third_party/flatbuffers/include/flatbuffers\base.h ****   #define FLATBUFFERS_CONSTEXPR_CPP11
 178:C:/Renesas/e2studio_2021_01_workspace_RZA2M_ANPR/ANPR_RZA2M_GR_MANGO/src/tensorflow_lite/third_party/flatbuffers/include/flatbuffers\base.h **** #endif
 179:C:/Renesas/e2studio_2021_01_workspace_RZA2M_ANPR/ANPR_RZA2M_GR_MANGO/src/tensorflow_lite/third_party/flatbuffers/include/flatbuffers\base.h **** 
 180:C:/Renesas/e2studio_2021_01_workspace_RZA2M_ANPR/ANPR_RZA2M_GR_MANGO/src/tensorflow_lite/third_party/flatbuffers/include/flatbuffers\base.h **** // This macro is never used in code!
 181:C:/Renesas/e2studio_2021_01_workspace_RZA2M_ANPR/ANPR_RZA2M_GR_MANGO/src/tensorflow_lite/third_party/flatbuffers/include/flatbuffers\base.h **** #if (defined(__cplusplus) && __cplusplus >= 201402L) || \
 182:C:/Renesas/e2studio_2021_01_workspace_RZA2M_ANPR/ANPR_RZA2M_GR_MANGO/src/tensorflow_lite/third_party/flatbuffers/include/flatbuffers\base.h ****     (defined(__cpp_constexpr) && __cpp_constexpr >= 201304)
 183:C:/Renesas/e2studio_2021_01_workspace_RZA2M_ANPR/ANPR_RZA2M_GR_MANGO/src/tensorflow_lite/third_party/flatbuffers/include/flatbuffers\base.h ****   #define FLATBUFFERS_CONSTEXPR_CPP14 FLATBUFFERS_CONSTEXPR
 184:C:/Renesas/e2studio_2021_01_workspace_RZA2M_ANPR/ANPR_RZA2M_GR_MANGO/src/tensorflow_lite/third_party/flatbuffers/include/flatbuffers\base.h **** #else
 185:C:/Renesas/e2studio_2021_01_workspace_RZA2M_ANPR/ANPR_RZA2M_GR_MANGO/src/tensorflow_lite/third_party/flatbuffers/include/flatbuffers\base.h ****   #define FLATBUFFERS_CONSTEXPR_CPP14
 186:C:/Renesas/e2studio_2021_01_workspace_RZA2M_ANPR/ANPR_RZA2M_GR_MANGO/src/tensorflow_lite/third_party/flatbuffers/include/flatbuffers\base.h **** #endif
 187:C:/Renesas/e2studio_2021_01_workspace_RZA2M_ANPR/ANPR_RZA2M_GR_MANGO/src/tensorflow_lite/third_party/flatbuffers/include/flatbuffers\base.h **** 
 188:C:/Renesas/e2studio_2021_01_workspace_RZA2M_ANPR/ANPR_RZA2M_GR_MANGO/src/tensorflow_lite/third_party/flatbuffers/include/flatbuffers\base.h **** #if (defined(__GXX_EXPERIMENTAL_CXX0X__) && (__GNUC__ * 100 + __GNUC_MINOR__ >= 406)) || \
 189:C:/Renesas/e2studio_2021_01_workspace_RZA2M_ANPR/ANPR_RZA2M_GR_MANGO/src/tensorflow_lite/third_party/flatbuffers/include/flatbuffers\base.h ****     (defined(_MSC_FULL_VER) && (_MSC_FULL_VER >= 190023026)) || \
 190:C:/Renesas/e2studio_2021_01_workspace_RZA2M_ANPR/ANPR_RZA2M_GR_MANGO/src/tensorflow_lite/third_party/flatbuffers/include/flatbuffers\base.h ****     defined(__clang__)
 191:C:/Renesas/e2studio_2021_01_workspace_RZA2M_ANPR/ANPR_RZA2M_GR_MANGO/src/tensorflow_lite/third_party/flatbuffers/include/flatbuffers\base.h ****   #define FLATBUFFERS_NOEXCEPT noexcept
 192:C:/Renesas/e2studio_2021_01_workspace_RZA2M_ANPR/ANPR_RZA2M_GR_MANGO/src/tensorflow_lite/third_party/flatbuffers/include/flatbuffers\base.h **** #else
 193:C:/Renesas/e2studio_2021_01_workspace_RZA2M_ANPR/ANPR_RZA2M_GR_MANGO/src/tensorflow_lite/third_party/flatbuffers/include/flatbuffers\base.h ****   #define FLATBUFFERS_NOEXCEPT
 194:C:/Renesas/e2studio_2021_01_workspace_RZA2M_ANPR/ANPR_RZA2M_GR_MANGO/src/tensorflow_lite/third_party/flatbuffers/include/flatbuffers\base.h **** #endif
 195:C:/Renesas/e2studio_2021_01_workspace_RZA2M_ANPR/ANPR_RZA2M_GR_MANGO/src/tensorflow_lite/third_party/flatbuffers/include/flatbuffers\base.h **** 
 196:C:/Renesas/e2studio_2021_01_workspace_RZA2M_ANPR/ANPR_RZA2M_GR_MANGO/src/tensorflow_lite/third_party/flatbuffers/include/flatbuffers\base.h **** // NOTE: the FLATBUFFERS_DELETE_FUNC macro may change the access mode to
 197:C:/Renesas/e2studio_2021_01_workspace_RZA2M_ANPR/ANPR_RZA2M_GR_MANGO/src/tensorflow_lite/third_party/flatbuffers/include/flatbuffers\base.h **** // private, so be sure to put it at the end or reset access mode explicitly.
 198:C:/Renesas/e2studio_2021_01_workspace_RZA2M_ANPR/ANPR_RZA2M_GR_MANGO/src/tensorflow_lite/third_party/flatbuffers/include/flatbuffers\base.h **** #if (!defined(_MSC_VER) || _MSC_FULL_VER >= 180020827) && \
 199:C:/Renesas/e2studio_2021_01_workspace_RZA2M_ANPR/ANPR_RZA2M_GR_MANGO/src/tensorflow_lite/third_party/flatbuffers/include/flatbuffers\base.h ****     (!defined(__GNUC__) || (__GNUC__ * 100 + __GNUC_MINOR__ >= 404)) || \
 200:C:/Renesas/e2studio_2021_01_workspace_RZA2M_ANPR/ANPR_RZA2M_GR_MANGO/src/tensorflow_lite/third_party/flatbuffers/include/flatbuffers\base.h ****     defined(__clang__)
 201:C:/Renesas/e2studio_2021_01_workspace_RZA2M_ANPR/ANPR_RZA2M_GR_MANGO/src/tensorflow_lite/third_party/flatbuffers/include/flatbuffers\base.h ****   #define FLATBUFFERS_DELETE_FUNC(func) func = delete;
 202:C:/Renesas/e2studio_2021_01_workspace_RZA2M_ANPR/ANPR_RZA2M_GR_MANGO/src/tensorflow_lite/third_party/flatbuffers/include/flatbuffers\base.h **** #else
 203:C:/Renesas/e2studio_2021_01_workspace_RZA2M_ANPR/ANPR_RZA2M_GR_MANGO/src/tensorflow_lite/third_party/flatbuffers/include/flatbuffers\base.h ****   #define FLATBUFFERS_DELETE_FUNC(func) private: func;
 204:C:/Renesas/e2studio_2021_01_workspace_RZA2M_ANPR/ANPR_RZA2M_GR_MANGO/src/tensorflow_lite/third_party/flatbuffers/include/flatbuffers\base.h **** #endif
 205:C:/Renesas/e2studio_2021_01_workspace_RZA2M_ANPR/ANPR_RZA2M_GR_MANGO/src/tensorflow_lite/third_party/flatbuffers/include/flatbuffers\base.h **** 
 206:C:/Renesas/e2studio_2021_01_workspace_RZA2M_ANPR/ANPR_RZA2M_GR_MANGO/src/tensorflow_lite/third_party/flatbuffers/include/flatbuffers\base.h **** // Check if we can use template aliases
 207:C:/Renesas/e2studio_2021_01_workspace_RZA2M_ANPR/ANPR_RZA2M_GR_MANGO/src/tensorflow_lite/third_party/flatbuffers/include/flatbuffers\base.h **** // Not possible if Microsoft Compiler before 2012
 208:C:/Renesas/e2studio_2021_01_workspace_RZA2M_ANPR/ANPR_RZA2M_GR_MANGO/src/tensorflow_lite/third_party/flatbuffers/include/flatbuffers\base.h **** // Possible is the language feature __cpp_alias_templates is defined well
 209:C:/Renesas/e2studio_2021_01_workspace_RZA2M_ANPR/ANPR_RZA2M_GR_MANGO/src/tensorflow_lite/third_party/flatbuffers/include/flatbuffers\base.h **** // Or possible if the C++ std is C+11 or newer
 210:C:/Renesas/e2studio_2021_01_workspace_RZA2M_ANPR/ANPR_RZA2M_GR_MANGO/src/tensorflow_lite/third_party/flatbuffers/include/flatbuffers\base.h **** #if (defined(_MSC_VER) && _MSC_VER > 1700 /* MSVC2012 */) \
 211:C:/Renesas/e2studio_2021_01_workspace_RZA2M_ANPR/ANPR_RZA2M_GR_MANGO/src/tensorflow_lite/third_party/flatbuffers/include/flatbuffers\base.h ****     || (defined(__cpp_alias_templates) && __cpp_alias_templates >= 200704) \
 212:C:/Renesas/e2studio_2021_01_workspace_RZA2M_ANPR/ANPR_RZA2M_GR_MANGO/src/tensorflow_lite/third_party/flatbuffers/include/flatbuffers\base.h ****     || (defined(__cplusplus) && __cplusplus >= 201103L)
 213:C:/Renesas/e2studio_2021_01_workspace_RZA2M_ANPR/ANPR_RZA2M_GR_MANGO/src/tensorflow_lite/third_party/flatbuffers/include/flatbuffers\base.h ****   #define FLATBUFFERS_TEMPLATES_ALIASES
 214:C:/Renesas/e2studio_2021_01_workspace_RZA2M_ANPR/ANPR_RZA2M_GR_MANGO/src/tensorflow_lite/third_party/flatbuffers/include/flatbuffers\base.h **** #endif
 215:C:/Renesas/e2studio_2021_01_workspace_RZA2M_ANPR/ANPR_RZA2M_GR_MANGO/src/tensorflow_lite/third_party/flatbuffers/include/flatbuffers\base.h **** 
 216:C:/Renesas/e2studio_2021_01_workspace_RZA2M_ANPR/ANPR_RZA2M_GR_MANGO/src/tensorflow_lite/third_party/flatbuffers/include/flatbuffers\base.h **** #ifndef FLATBUFFERS_HAS_STRING_VIEW
 217:C:/Renesas/e2studio_2021_01_workspace_RZA2M_ANPR/ANPR_RZA2M_GR_MANGO/src/tensorflow_lite/third_party/flatbuffers/include/flatbuffers\base.h ****   // Only provide flatbuffers::string_view if __has_include can be used
 218:C:/Renesas/e2studio_2021_01_workspace_RZA2M_ANPR/ANPR_RZA2M_GR_MANGO/src/tensorflow_lite/third_party/flatbuffers/include/flatbuffers\base.h ****   // to detect a header that provides an implementation
 219:C:/Renesas/e2studio_2021_01_workspace_RZA2M_ANPR/ANPR_RZA2M_GR_MANGO/src/tensorflow_lite/third_party/flatbuffers/include/flatbuffers\base.h ****   #if defined(__has_include)
 220:C:/Renesas/e2studio_2021_01_workspace_RZA2M_ANPR/ANPR_RZA2M_GR_MANGO/src/tensorflow_lite/third_party/flatbuffers/include/flatbuffers\base.h ****     // Check for std::string_view (in c++17)
 221:C:/Renesas/e2studio_2021_01_workspace_RZA2M_ANPR/ANPR_RZA2M_GR_MANGO/src/tensorflow_lite/third_party/flatbuffers/include/flatbuffers\base.h ****     #if __has_include(<string_view>) && (__cplusplus >= 201606 || (defined(_HAS_CXX17) && _HAS_CXX1
 222:C:/Renesas/e2studio_2021_01_workspace_RZA2M_ANPR/ANPR_RZA2M_GR_MANGO/src/tensorflow_lite/third_party/flatbuffers/include/flatbuffers\base.h ****       #include <string_view>
 223:C:/Renesas/e2studio_2021_01_workspace_RZA2M_ANPR/ANPR_RZA2M_GR_MANGO/src/tensorflow_lite/third_party/flatbuffers/include/flatbuffers\base.h ****       namespace flatbuffers {
 224:C:/Renesas/e2studio_2021_01_workspace_RZA2M_ANPR/ANPR_RZA2M_GR_MANGO/src/tensorflow_lite/third_party/flatbuffers/include/flatbuffers\base.h ****         typedef std::string_view string_view;
 225:C:/Renesas/e2studio_2021_01_workspace_RZA2M_ANPR/ANPR_RZA2M_GR_MANGO/src/tensorflow_lite/third_party/flatbuffers/include/flatbuffers\base.h ****       }
 226:C:/Renesas/e2studio_2021_01_workspace_RZA2M_ANPR/ANPR_RZA2M_GR_MANGO/src/tensorflow_lite/third_party/flatbuffers/include/flatbuffers\base.h ****       #define FLATBUFFERS_HAS_STRING_VIEW 1
 227:C:/Renesas/e2studio_2021_01_workspace_RZA2M_ANPR/ANPR_RZA2M_GR_MANGO/src/tensorflow_lite/third_party/flatbuffers/include/flatbuffers\base.h ****     // Check for std::experimental::string_view (in c++14, compiler-dependent)
 228:C:/Renesas/e2studio_2021_01_workspace_RZA2M_ANPR/ANPR_RZA2M_GR_MANGO/src/tensorflow_lite/third_party/flatbuffers/include/flatbuffers\base.h ****     #elif __has_include(<experimental/string_view>) && (__cplusplus >= 201411)
 229:C:/Renesas/e2studio_2021_01_workspace_RZA2M_ANPR/ANPR_RZA2M_GR_MANGO/src/tensorflow_lite/third_party/flatbuffers/include/flatbuffers\base.h ****       #include <experimental/string_view>
 230:C:/Renesas/e2studio_2021_01_workspace_RZA2M_ANPR/ANPR_RZA2M_GR_MANGO/src/tensorflow_lite/third_party/flatbuffers/include/flatbuffers\base.h ****       namespace flatbuffers {
 231:C:/Renesas/e2studio_2021_01_workspace_RZA2M_ANPR/ANPR_RZA2M_GR_MANGO/src/tensorflow_lite/third_party/flatbuffers/include/flatbuffers\base.h ****         typedef std::experimental::string_view string_view;
 232:C:/Renesas/e2studio_2021_01_workspace_RZA2M_ANPR/ANPR_RZA2M_GR_MANGO/src/tensorflow_lite/third_party/flatbuffers/include/flatbuffers\base.h ****       }
 233:C:/Renesas/e2studio_2021_01_workspace_RZA2M_ANPR/ANPR_RZA2M_GR_MANGO/src/tensorflow_lite/third_party/flatbuffers/include/flatbuffers\base.h ****       #define FLATBUFFERS_HAS_STRING_VIEW 1
 234:C:/Renesas/e2studio_2021_01_workspace_RZA2M_ANPR/ANPR_RZA2M_GR_MANGO/src/tensorflow_lite/third_party/flatbuffers/include/flatbuffers\base.h ****     // Check for absl::string_view
 235:C:/Renesas/e2studio_2021_01_workspace_RZA2M_ANPR/ANPR_RZA2M_GR_MANGO/src/tensorflow_lite/third_party/flatbuffers/include/flatbuffers\base.h ****     #elif __has_include("absl/strings/string_view.h")
 236:C:/Renesas/e2studio_2021_01_workspace_RZA2M_ANPR/ANPR_RZA2M_GR_MANGO/src/tensorflow_lite/third_party/flatbuffers/include/flatbuffers\base.h ****       #include "absl/strings/string_view.h"
 237:C:/Renesas/e2studio_2021_01_workspace_RZA2M_ANPR/ANPR_RZA2M_GR_MANGO/src/tensorflow_lite/third_party/flatbuffers/include/flatbuffers\base.h ****       namespace flatbuffers {
 238:C:/Renesas/e2studio_2021_01_workspace_RZA2M_ANPR/ANPR_RZA2M_GR_MANGO/src/tensorflow_lite/third_party/flatbuffers/include/flatbuffers\base.h ****         typedef absl::string_view string_view;
 239:C:/Renesas/e2studio_2021_01_workspace_RZA2M_ANPR/ANPR_RZA2M_GR_MANGO/src/tensorflow_lite/third_party/flatbuffers/include/flatbuffers\base.h ****       }
 240:C:/Renesas/e2studio_2021_01_workspace_RZA2M_ANPR/ANPR_RZA2M_GR_MANGO/src/tensorflow_lite/third_party/flatbuffers/include/flatbuffers\base.h ****       #define FLATBUFFERS_HAS_STRING_VIEW 1
 241:C:/Renesas/e2studio_2021_01_workspace_RZA2M_ANPR/ANPR_RZA2M_GR_MANGO/src/tensorflow_lite/third_party/flatbuffers/include/flatbuffers\base.h ****     #endif
 242:C:/Renesas/e2studio_2021_01_workspace_RZA2M_ANPR/ANPR_RZA2M_GR_MANGO/src/tensorflow_lite/third_party/flatbuffers/include/flatbuffers\base.h ****   #endif // __has_include
 243:C:/Renesas/e2studio_2021_01_workspace_RZA2M_ANPR/ANPR_RZA2M_GR_MANGO/src/tensorflow_lite/third_party/flatbuffers/include/flatbuffers\base.h **** #endif // !FLATBUFFERS_HAS_STRING_VIEW
 244:C:/Renesas/e2studio_2021_01_workspace_RZA2M_ANPR/ANPR_RZA2M_GR_MANGO/src/tensorflow_lite/third_party/flatbuffers/include/flatbuffers\base.h **** 
 245:C:/Renesas/e2studio_2021_01_workspace_RZA2M_ANPR/ANPR_RZA2M_GR_MANGO/src/tensorflow_lite/third_party/flatbuffers/include/flatbuffers\base.h **** #ifndef FLATBUFFERS_HAS_NEW_STRTOD
 246:C:/Renesas/e2studio_2021_01_workspace_RZA2M_ANPR/ANPR_RZA2M_GR_MANGO/src/tensorflow_lite/third_party/flatbuffers/include/flatbuffers\base.h ****   // Modern (C++11) strtod and strtof functions are available for use.
 247:C:/Renesas/e2studio_2021_01_workspace_RZA2M_ANPR/ANPR_RZA2M_GR_MANGO/src/tensorflow_lite/third_party/flatbuffers/include/flatbuffers\base.h ****   // 1) nan/inf strings as argument of strtod;
 248:C:/Renesas/e2studio_2021_01_workspace_RZA2M_ANPR/ANPR_RZA2M_GR_MANGO/src/tensorflow_lite/third_party/flatbuffers/include/flatbuffers\base.h ****   // 2) hex-float  as argument of  strtod/strtof.
 249:C:/Renesas/e2studio_2021_01_workspace_RZA2M_ANPR/ANPR_RZA2M_GR_MANGO/src/tensorflow_lite/third_party/flatbuffers/include/flatbuffers\base.h ****   #if (defined(_MSC_VER) && _MSC_VER >= 1900) || \
 250:C:/Renesas/e2studio_2021_01_workspace_RZA2M_ANPR/ANPR_RZA2M_GR_MANGO/src/tensorflow_lite/third_party/flatbuffers/include/flatbuffers\base.h ****       (defined(__GNUC__) && (__GNUC__ * 100 + __GNUC_MINOR__ >= 409)) || \
 251:C:/Renesas/e2studio_2021_01_workspace_RZA2M_ANPR/ANPR_RZA2M_GR_MANGO/src/tensorflow_lite/third_party/flatbuffers/include/flatbuffers\base.h ****       (defined(__clang__))
 252:C:/Renesas/e2studio_2021_01_workspace_RZA2M_ANPR/ANPR_RZA2M_GR_MANGO/src/tensorflow_lite/third_party/flatbuffers/include/flatbuffers\base.h ****     #define FLATBUFFERS_HAS_NEW_STRTOD 1
 253:C:/Renesas/e2studio_2021_01_workspace_RZA2M_ANPR/ANPR_RZA2M_GR_MANGO/src/tensorflow_lite/third_party/flatbuffers/include/flatbuffers\base.h ****   #endif
 254:C:/Renesas/e2studio_2021_01_workspace_RZA2M_ANPR/ANPR_RZA2M_GR_MANGO/src/tensorflow_lite/third_party/flatbuffers/include/flatbuffers\base.h **** #endif // !FLATBUFFERS_HAS_NEW_STRTOD
 255:C:/Renesas/e2studio_2021_01_workspace_RZA2M_ANPR/ANPR_RZA2M_GR_MANGO/src/tensorflow_lite/third_party/flatbuffers/include/flatbuffers\base.h **** 
 256:C:/Renesas/e2studio_2021_01_workspace_RZA2M_ANPR/ANPR_RZA2M_GR_MANGO/src/tensorflow_lite/third_party/flatbuffers/include/flatbuffers\base.h **** #ifndef FLATBUFFERS_LOCALE_INDEPENDENT
 257:C:/Renesas/e2studio_2021_01_workspace_RZA2M_ANPR/ANPR_RZA2M_GR_MANGO/src/tensorflow_lite/third_party/flatbuffers/include/flatbuffers\base.h ****   // Enable locale independent functions {strtof_l, strtod_l,strtoll_l, strtoull_l}.
 258:C:/Renesas/e2studio_2021_01_workspace_RZA2M_ANPR/ANPR_RZA2M_GR_MANGO/src/tensorflow_lite/third_party/flatbuffers/include/flatbuffers\base.h ****   #if ((defined(_MSC_VER) && _MSC_VER >= 1800)            || \
 259:C:/Renesas/e2studio_2021_01_workspace_RZA2M_ANPR/ANPR_RZA2M_GR_MANGO/src/tensorflow_lite/third_party/flatbuffers/include/flatbuffers\base.h ****        (defined(_XOPEN_VERSION) && (_XOPEN_VERSION>=700)) && (!defined(__ANDROID_API__) || (defined
 260:C:/Renesas/e2studio_2021_01_workspace_RZA2M_ANPR/ANPR_RZA2M_GR_MANGO/src/tensorflow_lite/third_party/flatbuffers/include/flatbuffers\base.h ****     #define FLATBUFFERS_LOCALE_INDEPENDENT 1
 261:C:/Renesas/e2studio_2021_01_workspace_RZA2M_ANPR/ANPR_RZA2M_GR_MANGO/src/tensorflow_lite/third_party/flatbuffers/include/flatbuffers\base.h ****   #else
 262:C:/Renesas/e2studio_2021_01_workspace_RZA2M_ANPR/ANPR_RZA2M_GR_MANGO/src/tensorflow_lite/third_party/flatbuffers/include/flatbuffers\base.h ****     #define FLATBUFFERS_LOCALE_INDEPENDENT 0
 263:C:/Renesas/e2studio_2021_01_workspace_RZA2M_ANPR/ANPR_RZA2M_GR_MANGO/src/tensorflow_lite/third_party/flatbuffers/include/flatbuffers\base.h ****   #endif
 264:C:/Renesas/e2studio_2021_01_workspace_RZA2M_ANPR/ANPR_RZA2M_GR_MANGO/src/tensorflow_lite/third_party/flatbuffers/include/flatbuffers\base.h **** #endif  // !FLATBUFFERS_LOCALE_INDEPENDENT
 265:C:/Renesas/e2studio_2021_01_workspace_RZA2M_ANPR/ANPR_RZA2M_GR_MANGO/src/tensorflow_lite/third_party/flatbuffers/include/flatbuffers\base.h **** 
 266:C:/Renesas/e2studio_2021_01_workspace_RZA2M_ANPR/ANPR_RZA2M_GR_MANGO/src/tensorflow_lite/third_party/flatbuffers/include/flatbuffers\base.h **** // Suppress Undefined Behavior Sanitizer (recoverable only). Usage:
 267:C:/Renesas/e2studio_2021_01_workspace_RZA2M_ANPR/ANPR_RZA2M_GR_MANGO/src/tensorflow_lite/third_party/flatbuffers/include/flatbuffers\base.h **** // - __supress_ubsan__("undefined")
 268:C:/Renesas/e2studio_2021_01_workspace_RZA2M_ANPR/ANPR_RZA2M_GR_MANGO/src/tensorflow_lite/third_party/flatbuffers/include/flatbuffers\base.h **** // - __supress_ubsan__("signed-integer-overflow")
 269:C:/Renesas/e2studio_2021_01_workspace_RZA2M_ANPR/ANPR_RZA2M_GR_MANGO/src/tensorflow_lite/third_party/flatbuffers/include/flatbuffers\base.h **** #if defined(__clang__) && (__clang_major__ > 3 || (__clang_major__ == 3 && __clang_minor__ >=7))
 270:C:/Renesas/e2studio_2021_01_workspace_RZA2M_ANPR/ANPR_RZA2M_GR_MANGO/src/tensorflow_lite/third_party/flatbuffers/include/flatbuffers\base.h ****   #define __supress_ubsan__(type) __attribute__((no_sanitize(type)))
 271:C:/Renesas/e2studio_2021_01_workspace_RZA2M_ANPR/ANPR_RZA2M_GR_MANGO/src/tensorflow_lite/third_party/flatbuffers/include/flatbuffers\base.h **** #elif defined(__GNUC__) && (__GNUC__ * 100 + __GNUC_MINOR__ >= 409)
 272:C:/Renesas/e2studio_2021_01_workspace_RZA2M_ANPR/ANPR_RZA2M_GR_MANGO/src/tensorflow_lite/third_party/flatbuffers/include/flatbuffers\base.h ****   #define __supress_ubsan__(type) __attribute__((no_sanitize_undefined))
 273:C:/Renesas/e2studio_2021_01_workspace_RZA2M_ANPR/ANPR_RZA2M_GR_MANGO/src/tensorflow_lite/third_party/flatbuffers/include/flatbuffers\base.h **** #else
 274:C:/Renesas/e2studio_2021_01_workspace_RZA2M_ANPR/ANPR_RZA2M_GR_MANGO/src/tensorflow_lite/third_party/flatbuffers/include/flatbuffers\base.h ****   #define __supress_ubsan__(type)
 275:C:/Renesas/e2studio_2021_01_workspace_RZA2M_ANPR/ANPR_RZA2M_GR_MANGO/src/tensorflow_lite/third_party/flatbuffers/include/flatbuffers\base.h **** #endif
 276:C:/Renesas/e2studio_2021_01_workspace_RZA2M_ANPR/ANPR_RZA2M_GR_MANGO/src/tensorflow_lite/third_party/flatbuffers/include/flatbuffers\base.h **** 
 277:C:/Renesas/e2studio_2021_01_workspace_RZA2M_ANPR/ANPR_RZA2M_GR_MANGO/src/tensorflow_lite/third_party/flatbuffers/include/flatbuffers\base.h **** // This is constexpr function used for checking compile-time constants.
 278:C:/Renesas/e2studio_2021_01_workspace_RZA2M_ANPR/ANPR_RZA2M_GR_MANGO/src/tensorflow_lite/third_party/flatbuffers/include/flatbuffers\base.h **** // Avoid `#pragma warning(disable: 4127) // C4127: expression is constant`.
 279:C:/Renesas/e2studio_2021_01_workspace_RZA2M_ANPR/ANPR_RZA2M_GR_MANGO/src/tensorflow_lite/third_party/flatbuffers/include/flatbuffers\base.h **** template<typename T> FLATBUFFERS_CONSTEXPR inline bool IsConstTrue(T t) {
 280:C:/Renesas/e2studio_2021_01_workspace_RZA2M_ANPR/ANPR_RZA2M_GR_MANGO/src/tensorflow_lite/third_party/flatbuffers/include/flatbuffers\base.h ****   return !!t;
 281:C:/Renesas/e2studio_2021_01_workspace_RZA2M_ANPR/ANPR_RZA2M_GR_MANGO/src/tensorflow_lite/third_party/flatbuffers/include/flatbuffers\base.h **** }
 282:C:/Renesas/e2studio_2021_01_workspace_RZA2M_ANPR/ANPR_RZA2M_GR_MANGO/src/tensorflow_lite/third_party/flatbuffers/include/flatbuffers\base.h **** 
 283:C:/Renesas/e2studio_2021_01_workspace_RZA2M_ANPR/ANPR_RZA2M_GR_MANGO/src/tensorflow_lite/third_party/flatbuffers/include/flatbuffers\base.h **** // Enable C++ attribute [[]] if std:c++17 or higher.
 284:C:/Renesas/e2studio_2021_01_workspace_RZA2M_ANPR/ANPR_RZA2M_GR_MANGO/src/tensorflow_lite/third_party/flatbuffers/include/flatbuffers\base.h **** #if ((__cplusplus >= 201703L) \
 285:C:/Renesas/e2studio_2021_01_workspace_RZA2M_ANPR/ANPR_RZA2M_GR_MANGO/src/tensorflow_lite/third_party/flatbuffers/include/flatbuffers\base.h ****     || (defined(_MSVC_LANG) &&  (_MSVC_LANG >= 201703L)))
 286:C:/Renesas/e2studio_2021_01_workspace_RZA2M_ANPR/ANPR_RZA2M_GR_MANGO/src/tensorflow_lite/third_party/flatbuffers/include/flatbuffers\base.h ****   // All attributes unknown to an implementation are ignored without causing an error.
 287:C:/Renesas/e2studio_2021_01_workspace_RZA2M_ANPR/ANPR_RZA2M_GR_MANGO/src/tensorflow_lite/third_party/flatbuffers/include/flatbuffers\base.h ****   #define FLATBUFFERS_ATTRIBUTE(attr) [[attr]]
 288:C:/Renesas/e2studio_2021_01_workspace_RZA2M_ANPR/ANPR_RZA2M_GR_MANGO/src/tensorflow_lite/third_party/flatbuffers/include/flatbuffers\base.h **** 
 289:C:/Renesas/e2studio_2021_01_workspace_RZA2M_ANPR/ANPR_RZA2M_GR_MANGO/src/tensorflow_lite/third_party/flatbuffers/include/flatbuffers\base.h ****   #define FLATBUFFERS_FALLTHROUGH() [[fallthrough]]
 290:C:/Renesas/e2studio_2021_01_workspace_RZA2M_ANPR/ANPR_RZA2M_GR_MANGO/src/tensorflow_lite/third_party/flatbuffers/include/flatbuffers\base.h **** #else
 291:C:/Renesas/e2studio_2021_01_workspace_RZA2M_ANPR/ANPR_RZA2M_GR_MANGO/src/tensorflow_lite/third_party/flatbuffers/include/flatbuffers\base.h ****   #define FLATBUFFERS_ATTRIBUTE(attr)
 292:C:/Renesas/e2studio_2021_01_workspace_RZA2M_ANPR/ANPR_RZA2M_GR_MANGO/src/tensorflow_lite/third_party/flatbuffers/include/flatbuffers\base.h **** 
 293:C:/Renesas/e2studio_2021_01_workspace_RZA2M_ANPR/ANPR_RZA2M_GR_MANGO/src/tensorflow_lite/third_party/flatbuffers/include/flatbuffers\base.h ****   #if FLATBUFFERS_CLANG >= 30800
 294:C:/Renesas/e2studio_2021_01_workspace_RZA2M_ANPR/ANPR_RZA2M_GR_MANGO/src/tensorflow_lite/third_party/flatbuffers/include/flatbuffers\base.h ****     #define FLATBUFFERS_FALLTHROUGH() [[clang::fallthrough]]
 295:C:/Renesas/e2studio_2021_01_workspace_RZA2M_ANPR/ANPR_RZA2M_GR_MANGO/src/tensorflow_lite/third_party/flatbuffers/include/flatbuffers\base.h ****   #elif FLATBUFFERS_GCC >= 70300
 296:C:/Renesas/e2studio_2021_01_workspace_RZA2M_ANPR/ANPR_RZA2M_GR_MANGO/src/tensorflow_lite/third_party/flatbuffers/include/flatbuffers\base.h ****     #define FLATBUFFERS_FALLTHROUGH() [[gnu::fallthrough]]
 297:C:/Renesas/e2studio_2021_01_workspace_RZA2M_ANPR/ANPR_RZA2M_GR_MANGO/src/tensorflow_lite/third_party/flatbuffers/include/flatbuffers\base.h ****   #else
 298:C:/Renesas/e2studio_2021_01_workspace_RZA2M_ANPR/ANPR_RZA2M_GR_MANGO/src/tensorflow_lite/third_party/flatbuffers/include/flatbuffers\base.h ****     #define FLATBUFFERS_FALLTHROUGH()
 299:C:/Renesas/e2studio_2021_01_workspace_RZA2M_ANPR/ANPR_RZA2M_GR_MANGO/src/tensorflow_lite/third_party/flatbuffers/include/flatbuffers\base.h ****   #endif
 300:C:/Renesas/e2studio_2021_01_workspace_RZA2M_ANPR/ANPR_RZA2M_GR_MANGO/src/tensorflow_lite/third_party/flatbuffers/include/flatbuffers\base.h **** #endif
 301:C:/Renesas/e2studio_2021_01_workspace_RZA2M_ANPR/ANPR_RZA2M_GR_MANGO/src/tensorflow_lite/third_party/flatbuffers/include/flatbuffers\base.h **** 
 302:C:/Renesas/e2studio_2021_01_workspace_RZA2M_ANPR/ANPR_RZA2M_GR_MANGO/src/tensorflow_lite/third_party/flatbuffers/include/flatbuffers\base.h **** /// @endcond
 303:C:/Renesas/e2studio_2021_01_workspace_RZA2M_ANPR/ANPR_RZA2M_GR_MANGO/src/tensorflow_lite/third_party/flatbuffers/include/flatbuffers\base.h **** 
 304:C:/Renesas/e2studio_2021_01_workspace_RZA2M_ANPR/ANPR_RZA2M_GR_MANGO/src/tensorflow_lite/third_party/flatbuffers/include/flatbuffers\base.h **** /// @file
 305:C:/Renesas/e2studio_2021_01_workspace_RZA2M_ANPR/ANPR_RZA2M_GR_MANGO/src/tensorflow_lite/third_party/flatbuffers/include/flatbuffers\base.h **** namespace flatbuffers {
 306:C:/Renesas/e2studio_2021_01_workspace_RZA2M_ANPR/ANPR_RZA2M_GR_MANGO/src/tensorflow_lite/third_party/flatbuffers/include/flatbuffers\base.h **** 
 307:C:/Renesas/e2studio_2021_01_workspace_RZA2M_ANPR/ANPR_RZA2M_GR_MANGO/src/tensorflow_lite/third_party/flatbuffers/include/flatbuffers\base.h **** /// @cond FLATBUFFERS_INTERNAL
 308:C:/Renesas/e2studio_2021_01_workspace_RZA2M_ANPR/ANPR_RZA2M_GR_MANGO/src/tensorflow_lite/third_party/flatbuffers/include/flatbuffers\base.h **** // Our default offset / size type, 32bit on purpose on 64bit systems.
 309:C:/Renesas/e2studio_2021_01_workspace_RZA2M_ANPR/ANPR_RZA2M_GR_MANGO/src/tensorflow_lite/third_party/flatbuffers/include/flatbuffers\base.h **** // Also, using a consistent offset type maintains compatibility of serialized
 310:C:/Renesas/e2studio_2021_01_workspace_RZA2M_ANPR/ANPR_RZA2M_GR_MANGO/src/tensorflow_lite/third_party/flatbuffers/include/flatbuffers\base.h **** // offset values between 32bit and 64bit systems.
 311:C:/Renesas/e2studio_2021_01_workspace_RZA2M_ANPR/ANPR_RZA2M_GR_MANGO/src/tensorflow_lite/third_party/flatbuffers/include/flatbuffers\base.h **** typedef uint32_t uoffset_t;
 312:C:/Renesas/e2studio_2021_01_workspace_RZA2M_ANPR/ANPR_RZA2M_GR_MANGO/src/tensorflow_lite/third_party/flatbuffers/include/flatbuffers\base.h **** 
 313:C:/Renesas/e2studio_2021_01_workspace_RZA2M_ANPR/ANPR_RZA2M_GR_MANGO/src/tensorflow_lite/third_party/flatbuffers/include/flatbuffers\base.h **** // Signed offsets for references that can go in both directions.
 314:C:/Renesas/e2studio_2021_01_workspace_RZA2M_ANPR/ANPR_RZA2M_GR_MANGO/src/tensorflow_lite/third_party/flatbuffers/include/flatbuffers\base.h **** typedef int32_t soffset_t;
 315:C:/Renesas/e2studio_2021_01_workspace_RZA2M_ANPR/ANPR_RZA2M_GR_MANGO/src/tensorflow_lite/third_party/flatbuffers/include/flatbuffers\base.h **** 
 316:C:/Renesas/e2studio_2021_01_workspace_RZA2M_ANPR/ANPR_RZA2M_GR_MANGO/src/tensorflow_lite/third_party/flatbuffers/include/flatbuffers\base.h **** // Offset/index used in v-tables, can be changed to uint8_t in
 317:C:/Renesas/e2studio_2021_01_workspace_RZA2M_ANPR/ANPR_RZA2M_GR_MANGO/src/tensorflow_lite/third_party/flatbuffers/include/flatbuffers\base.h **** // format forks to save a bit of space if desired.
 318:C:/Renesas/e2studio_2021_01_workspace_RZA2M_ANPR/ANPR_RZA2M_GR_MANGO/src/tensorflow_lite/third_party/flatbuffers/include/flatbuffers\base.h **** typedef uint16_t voffset_t;
 319:C:/Renesas/e2studio_2021_01_workspace_RZA2M_ANPR/ANPR_RZA2M_GR_MANGO/src/tensorflow_lite/third_party/flatbuffers/include/flatbuffers\base.h **** 
 320:C:/Renesas/e2studio_2021_01_workspace_RZA2M_ANPR/ANPR_RZA2M_GR_MANGO/src/tensorflow_lite/third_party/flatbuffers/include/flatbuffers\base.h **** typedef uintmax_t largest_scalar_t;
 321:C:/Renesas/e2studio_2021_01_workspace_RZA2M_ANPR/ANPR_RZA2M_GR_MANGO/src/tensorflow_lite/third_party/flatbuffers/include/flatbuffers\base.h **** 
 322:C:/Renesas/e2studio_2021_01_workspace_RZA2M_ANPR/ANPR_RZA2M_GR_MANGO/src/tensorflow_lite/third_party/flatbuffers/include/flatbuffers\base.h **** // In 32bits, this evaluates to 2GB - 1
 323:C:/Renesas/e2studio_2021_01_workspace_RZA2M_ANPR/ANPR_RZA2M_GR_MANGO/src/tensorflow_lite/third_party/flatbuffers/include/flatbuffers\base.h **** #define FLATBUFFERS_MAX_BUFFER_SIZE ((1ULL << (sizeof(::flatbuffers::soffset_t) * 8 - 1)) - 1)
 324:C:/Renesas/e2studio_2021_01_workspace_RZA2M_ANPR/ANPR_RZA2M_GR_MANGO/src/tensorflow_lite/third_party/flatbuffers/include/flatbuffers\base.h **** 
 325:C:/Renesas/e2studio_2021_01_workspace_RZA2M_ANPR/ANPR_RZA2M_GR_MANGO/src/tensorflow_lite/third_party/flatbuffers/include/flatbuffers\base.h **** // We support aligning the contents of buffers up to this size.
 326:C:/Renesas/e2studio_2021_01_workspace_RZA2M_ANPR/ANPR_RZA2M_GR_MANGO/src/tensorflow_lite/third_party/flatbuffers/include/flatbuffers\base.h **** #define FLATBUFFERS_MAX_ALIGNMENT 16
 327:C:/Renesas/e2studio_2021_01_workspace_RZA2M_ANPR/ANPR_RZA2M_GR_MANGO/src/tensorflow_lite/third_party/flatbuffers/include/flatbuffers\base.h **** 
 328:C:/Renesas/e2studio_2021_01_workspace_RZA2M_ANPR/ANPR_RZA2M_GR_MANGO/src/tensorflow_lite/third_party/flatbuffers/include/flatbuffers\base.h **** #if defined(_MSC_VER)
 329:C:/Renesas/e2studio_2021_01_workspace_RZA2M_ANPR/ANPR_RZA2M_GR_MANGO/src/tensorflow_lite/third_party/flatbuffers/include/flatbuffers\base.h ****   #pragma warning(disable: 4351) // C4351: new behavior: elements of array ... will be default init
 330:C:/Renesas/e2studio_2021_01_workspace_RZA2M_ANPR/ANPR_RZA2M_GR_MANGO/src/tensorflow_lite/third_party/flatbuffers/include/flatbuffers\base.h ****   #pragma warning(push)
 331:C:/Renesas/e2studio_2021_01_workspace_RZA2M_ANPR/ANPR_RZA2M_GR_MANGO/src/tensorflow_lite/third_party/flatbuffers/include/flatbuffers\base.h ****   #pragma warning(disable: 4127) // C4127: conditional expression is constant
 332:C:/Renesas/e2studio_2021_01_workspace_RZA2M_ANPR/ANPR_RZA2M_GR_MANGO/src/tensorflow_lite/third_party/flatbuffers/include/flatbuffers\base.h **** #endif
 333:C:/Renesas/e2studio_2021_01_workspace_RZA2M_ANPR/ANPR_RZA2M_GR_MANGO/src/tensorflow_lite/third_party/flatbuffers/include/flatbuffers\base.h **** 
 334:C:/Renesas/e2studio_2021_01_workspace_RZA2M_ANPR/ANPR_RZA2M_GR_MANGO/src/tensorflow_lite/third_party/flatbuffers/include/flatbuffers\base.h **** template<typename T> T EndianSwap(T t) {
 335:C:/Renesas/e2studio_2021_01_workspace_RZA2M_ANPR/ANPR_RZA2M_GR_MANGO/src/tensorflow_lite/third_party/flatbuffers/include/flatbuffers\base.h ****   #if defined(_MSC_VER)
 336:C:/Renesas/e2studio_2021_01_workspace_RZA2M_ANPR/ANPR_RZA2M_GR_MANGO/src/tensorflow_lite/third_party/flatbuffers/include/flatbuffers\base.h ****     #define FLATBUFFERS_BYTESWAP16 _byteswap_ushort
 337:C:/Renesas/e2studio_2021_01_workspace_RZA2M_ANPR/ANPR_RZA2M_GR_MANGO/src/tensorflow_lite/third_party/flatbuffers/include/flatbuffers\base.h ****     #define FLATBUFFERS_BYTESWAP32 _byteswap_ulong
 338:C:/Renesas/e2studio_2021_01_workspace_RZA2M_ANPR/ANPR_RZA2M_GR_MANGO/src/tensorflow_lite/third_party/flatbuffers/include/flatbuffers\base.h ****     #define FLATBUFFERS_BYTESWAP64 _byteswap_uint64
 339:C:/Renesas/e2studio_2021_01_workspace_RZA2M_ANPR/ANPR_RZA2M_GR_MANGO/src/tensorflow_lite/third_party/flatbuffers/include/flatbuffers\base.h ****   #elif defined(__ICCARM__)
 340:C:/Renesas/e2studio_2021_01_workspace_RZA2M_ANPR/ANPR_RZA2M_GR_MANGO/src/tensorflow_lite/third_party/flatbuffers/include/flatbuffers\base.h ****     #define FLATBUFFERS_BYTESWAP16 __REV16
 341:C:/Renesas/e2studio_2021_01_workspace_RZA2M_ANPR/ANPR_RZA2M_GR_MANGO/src/tensorflow_lite/third_party/flatbuffers/include/flatbuffers\base.h ****     #define FLATBUFFERS_BYTESWAP32 __REV
 342:C:/Renesas/e2studio_2021_01_workspace_RZA2M_ANPR/ANPR_RZA2M_GR_MANGO/src/tensorflow_lite/third_party/flatbuffers/include/flatbuffers\base.h ****     #define FLATBUFFERS_BYTESWAP64(x) \
 343:C:/Renesas/e2studio_2021_01_workspace_RZA2M_ANPR/ANPR_RZA2M_GR_MANGO/src/tensorflow_lite/third_party/flatbuffers/include/flatbuffers\base.h ****        ((__REV(static_cast<uint32_t>(x >> 32U))) | (static_cast<uint64_t>(__REV(static_cast<uint32_
 344:C:/Renesas/e2studio_2021_01_workspace_RZA2M_ANPR/ANPR_RZA2M_GR_MANGO/src/tensorflow_lite/third_party/flatbuffers/include/flatbuffers\base.h ****   #else
 345:C:/Renesas/e2studio_2021_01_workspace_RZA2M_ANPR/ANPR_RZA2M_GR_MANGO/src/tensorflow_lite/third_party/flatbuffers/include/flatbuffers\base.h ****     #if defined(__GNUC__) && __GNUC__ * 100 + __GNUC_MINOR__ < 408 && !defined(__clang__)
 346:C:/Renesas/e2studio_2021_01_workspace_RZA2M_ANPR/ANPR_RZA2M_GR_MANGO/src/tensorflow_lite/third_party/flatbuffers/include/flatbuffers\base.h ****       // __builtin_bswap16 was missing prior to GCC 4.8.
 347:C:/Renesas/e2studio_2021_01_workspace_RZA2M_ANPR/ANPR_RZA2M_GR_MANGO/src/tensorflow_lite/third_party/flatbuffers/include/flatbuffers\base.h ****       #define FLATBUFFERS_BYTESWAP16(x) \
 348:C:/Renesas/e2studio_2021_01_workspace_RZA2M_ANPR/ANPR_RZA2M_GR_MANGO/src/tensorflow_lite/third_party/flatbuffers/include/flatbuffers\base.h ****         static_cast<uint16_t>(__builtin_bswap32(static_cast<uint32_t>(x) << 16))
 349:C:/Renesas/e2studio_2021_01_workspace_RZA2M_ANPR/ANPR_RZA2M_GR_MANGO/src/tensorflow_lite/third_party/flatbuffers/include/flatbuffers\base.h ****     #else
 350:C:/Renesas/e2studio_2021_01_workspace_RZA2M_ANPR/ANPR_RZA2M_GR_MANGO/src/tensorflow_lite/third_party/flatbuffers/include/flatbuffers\base.h ****       #define FLATBUFFERS_BYTESWAP16 __builtin_bswap16
 351:C:/Renesas/e2studio_2021_01_workspace_RZA2M_ANPR/ANPR_RZA2M_GR_MANGO/src/tensorflow_lite/third_party/flatbuffers/include/flatbuffers\base.h ****     #endif
 352:C:/Renesas/e2studio_2021_01_workspace_RZA2M_ANPR/ANPR_RZA2M_GR_MANGO/src/tensorflow_lite/third_party/flatbuffers/include/flatbuffers\base.h ****     #define FLATBUFFERS_BYTESWAP32 __builtin_bswap32
 353:C:/Renesas/e2studio_2021_01_workspace_RZA2M_ANPR/ANPR_RZA2M_GR_MANGO/src/tensorflow_lite/third_party/flatbuffers/include/flatbuffers\base.h ****     #define FLATBUFFERS_BYTESWAP64 __builtin_bswap64
 354:C:/Renesas/e2studio_2021_01_workspace_RZA2M_ANPR/ANPR_RZA2M_GR_MANGO/src/tensorflow_lite/third_party/flatbuffers/include/flatbuffers\base.h ****   #endif
 355:C:/Renesas/e2studio_2021_01_workspace_RZA2M_ANPR/ANPR_RZA2M_GR_MANGO/src/tensorflow_lite/third_party/flatbuffers/include/flatbuffers\base.h ****   if (sizeof(T) == 1) {   // Compile-time if-then's.
 356:C:/Renesas/e2studio_2021_01_workspace_RZA2M_ANPR/ANPR_RZA2M_GR_MANGO/src/tensorflow_lite/third_party/flatbuffers/include/flatbuffers\base.h ****     return t;
 357:C:/Renesas/e2studio_2021_01_workspace_RZA2M_ANPR/ANPR_RZA2M_GR_MANGO/src/tensorflow_lite/third_party/flatbuffers/include/flatbuffers\base.h ****   } else if (sizeof(T) == 2) {
 358:C:/Renesas/e2studio_2021_01_workspace_RZA2M_ANPR/ANPR_RZA2M_GR_MANGO/src/tensorflow_lite/third_party/flatbuffers/include/flatbuffers\base.h ****     union { T t; uint16_t i; } u = { t };
 359:C:/Renesas/e2studio_2021_01_workspace_RZA2M_ANPR/ANPR_RZA2M_GR_MANGO/src/tensorflow_lite/third_party/flatbuffers/include/flatbuffers\base.h ****     u.i = FLATBUFFERS_BYTESWAP16(u.i);
 360:C:/Renesas/e2studio_2021_01_workspace_RZA2M_ANPR/ANPR_RZA2M_GR_MANGO/src/tensorflow_lite/third_party/flatbuffers/include/flatbuffers\base.h ****     return u.t;
 361:C:/Renesas/e2studio_2021_01_workspace_RZA2M_ANPR/ANPR_RZA2M_GR_MANGO/src/tensorflow_lite/third_party/flatbuffers/include/flatbuffers\base.h ****   } else if (sizeof(T) == 4) {
 362:C:/Renesas/e2studio_2021_01_workspace_RZA2M_ANPR/ANPR_RZA2M_GR_MANGO/src/tensorflow_lite/third_party/flatbuffers/include/flatbuffers\base.h ****     union { T t; uint32_t i; } u = { t };
 363:C:/Renesas/e2studio_2021_01_workspace_RZA2M_ANPR/ANPR_RZA2M_GR_MANGO/src/tensorflow_lite/third_party/flatbuffers/include/flatbuffers\base.h ****     u.i = FLATBUFFERS_BYTESWAP32(u.i);
 364:C:/Renesas/e2studio_2021_01_workspace_RZA2M_ANPR/ANPR_RZA2M_GR_MANGO/src/tensorflow_lite/third_party/flatbuffers/include/flatbuffers\base.h ****     return u.t;
 365:C:/Renesas/e2studio_2021_01_workspace_RZA2M_ANPR/ANPR_RZA2M_GR_MANGO/src/tensorflow_lite/third_party/flatbuffers/include/flatbuffers\base.h ****   } else if (sizeof(T) == 8) {
 366:C:/Renesas/e2studio_2021_01_workspace_RZA2M_ANPR/ANPR_RZA2M_GR_MANGO/src/tensorflow_lite/third_party/flatbuffers/include/flatbuffers\base.h ****     union { T t; uint64_t i; } u = { t };
 367:C:/Renesas/e2studio_2021_01_workspace_RZA2M_ANPR/ANPR_RZA2M_GR_MANGO/src/tensorflow_lite/third_party/flatbuffers/include/flatbuffers\base.h ****     u.i = FLATBUFFERS_BYTESWAP64(u.i);
 368:C:/Renesas/e2studio_2021_01_workspace_RZA2M_ANPR/ANPR_RZA2M_GR_MANGO/src/tensorflow_lite/third_party/flatbuffers/include/flatbuffers\base.h ****     return u.t;
 369:C:/Renesas/e2studio_2021_01_workspace_RZA2M_ANPR/ANPR_RZA2M_GR_MANGO/src/tensorflow_lite/third_party/flatbuffers/include/flatbuffers\base.h ****   } else {
 370:C:/Renesas/e2studio_2021_01_workspace_RZA2M_ANPR/ANPR_RZA2M_GR_MANGO/src/tensorflow_lite/third_party/flatbuffers/include/flatbuffers\base.h ****     FLATBUFFERS_ASSERT(0);
 371:C:/Renesas/e2studio_2021_01_workspace_RZA2M_ANPR/ANPR_RZA2M_GR_MANGO/src/tensorflow_lite/third_party/flatbuffers/include/flatbuffers\base.h ****     return t;
 372:C:/Renesas/e2studio_2021_01_workspace_RZA2M_ANPR/ANPR_RZA2M_GR_MANGO/src/tensorflow_lite/third_party/flatbuffers/include/flatbuffers\base.h ****   }
 373:C:/Renesas/e2studio_2021_01_workspace_RZA2M_ANPR/ANPR_RZA2M_GR_MANGO/src/tensorflow_lite/third_party/flatbuffers/include/flatbuffers\base.h **** }
 374:C:/Renesas/e2studio_2021_01_workspace_RZA2M_ANPR/ANPR_RZA2M_GR_MANGO/src/tensorflow_lite/third_party/flatbuffers/include/flatbuffers\base.h **** 
 375:C:/Renesas/e2studio_2021_01_workspace_RZA2M_ANPR/ANPR_RZA2M_GR_MANGO/src/tensorflow_lite/third_party/flatbuffers/include/flatbuffers\base.h **** #if defined(_MSC_VER)
 376:C:/Renesas/e2studio_2021_01_workspace_RZA2M_ANPR/ANPR_RZA2M_GR_MANGO/src/tensorflow_lite/third_party/flatbuffers/include/flatbuffers\base.h ****   #pragma warning(pop)
 377:C:/Renesas/e2studio_2021_01_workspace_RZA2M_ANPR/ANPR_RZA2M_GR_MANGO/src/tensorflow_lite/third_party/flatbuffers/include/flatbuffers\base.h **** #endif
 378:C:/Renesas/e2studio_2021_01_workspace_RZA2M_ANPR/ANPR_RZA2M_GR_MANGO/src/tensorflow_lite/third_party/flatbuffers/include/flatbuffers\base.h **** 
 379:C:/Renesas/e2studio_2021_01_workspace_RZA2M_ANPR/ANPR_RZA2M_GR_MANGO/src/tensorflow_lite/third_party/flatbuffers/include/flatbuffers\base.h **** 
 380:C:/Renesas/e2studio_2021_01_workspace_RZA2M_ANPR/ANPR_RZA2M_GR_MANGO/src/tensorflow_lite/third_party/flatbuffers/include/flatbuffers\base.h **** template<typename T> T EndianScalar(T t) {
 381:C:/Renesas/e2studio_2021_01_workspace_RZA2M_ANPR/ANPR_RZA2M_GR_MANGO/src/tensorflow_lite/third_party/flatbuffers/include/flatbuffers\base.h ****   #if FLATBUFFERS_LITTLEENDIAN
 382:C:/Renesas/e2studio_2021_01_workspace_RZA2M_ANPR/ANPR_RZA2M_GR_MANGO/src/tensorflow_lite/third_party/flatbuffers/include/flatbuffers\base.h ****     return t;
 383:C:/Renesas/e2studio_2021_01_workspace_RZA2M_ANPR/ANPR_RZA2M_GR_MANGO/src/tensorflow_lite/third_party/flatbuffers/include/flatbuffers\base.h ****   #else
 384:C:/Renesas/e2studio_2021_01_workspace_RZA2M_ANPR/ANPR_RZA2M_GR_MANGO/src/tensorflow_lite/third_party/flatbuffers/include/flatbuffers\base.h ****     return EndianSwap(t);
 385:C:/Renesas/e2studio_2021_01_workspace_RZA2M_ANPR/ANPR_RZA2M_GR_MANGO/src/tensorflow_lite/third_party/flatbuffers/include/flatbuffers\base.h ****   #endif
 386:C:/Renesas/e2studio_2021_01_workspace_RZA2M_ANPR/ANPR_RZA2M_GR_MANGO/src/tensorflow_lite/third_party/flatbuffers/include/flatbuffers\base.h **** }
 387:C:/Renesas/e2studio_2021_01_workspace_RZA2M_ANPR/ANPR_RZA2M_GR_MANGO/src/tensorflow_lite/third_party/flatbuffers/include/flatbuffers\base.h **** 
 388:C:/Renesas/e2studio_2021_01_workspace_RZA2M_ANPR/ANPR_RZA2M_GR_MANGO/src/tensorflow_lite/third_party/flatbuffers/include/flatbuffers\base.h **** template<typename T>
 389:C:/Renesas/e2studio_2021_01_workspace_RZA2M_ANPR/ANPR_RZA2M_GR_MANGO/src/tensorflow_lite/third_party/flatbuffers/include/flatbuffers\base.h **** // UBSAN: C++ aliasing type rules, see std::bit_cast<> for details.
 390:C:/Renesas/e2studio_2021_01_workspace_RZA2M_ANPR/ANPR_RZA2M_GR_MANGO/src/tensorflow_lite/third_party/flatbuffers/include/flatbuffers\base.h **** __supress_ubsan__("alignment")
 391:C:/Renesas/e2studio_2021_01_workspace_RZA2M_ANPR/ANPR_RZA2M_GR_MANGO/src/tensorflow_lite/third_party/flatbuffers/include/flatbuffers\base.h **** T ReadScalar(const void *p) {
 392:C:/Renesas/e2studio_2021_01_workspace_RZA2M_ANPR/ANPR_RZA2M_GR_MANGO/src/tensorflow_lite/third_party/flatbuffers/include/flatbuffers\base.h ****   return EndianScalar(*reinterpret_cast<const T *>(p));
 1312              		.loc 3 392 0
 1313 005c B830D2E1 		ldrh	r3, [r2, #8]
 1314              	.LVL140:
 1315              	.LBE466:
 1316              	.LBE465:
 1317              	.LBE464:
 1318              	.LBE463:
 1319              		.file 4 "C:/Renesas/e2studio_2021_01_workspace_RZA2M_ANPR/ANPR_RZA2M_GR_MANGO/src/tensorflow_lite/
   1:C:/Renesas/e2studio_2021_01_workspace_RZA2M_ANPR/ANPR_RZA2M_GR_MANGO/src/tensorflow_lite/third_party/flatbuffers/include/flatbuffers\flatbuffers.h **** /*
   2:C:/Renesas/e2studio_2021_01_workspace_RZA2M_ANPR/ANPR_RZA2M_GR_MANGO/src/tensorflow_lite/third_party/flatbuffers/include/flatbuffers\flatbuffers.h ****  * Copyright 2014 Google Inc. All rights reserved.
   3:C:/Renesas/e2studio_2021_01_workspace_RZA2M_ANPR/ANPR_RZA2M_GR_MANGO/src/tensorflow_lite/third_party/flatbuffers/include/flatbuffers\flatbuffers.h ****  *
   4:C:/Renesas/e2studio_2021_01_workspace_RZA2M_ANPR/ANPR_RZA2M_GR_MANGO/src/tensorflow_lite/third_party/flatbuffers/include/flatbuffers\flatbuffers.h ****  * Licensed under the Apache License, Version 2.0 (the "License");
   5:C:/Renesas/e2studio_2021_01_workspace_RZA2M_ANPR/ANPR_RZA2M_GR_MANGO/src/tensorflow_lite/third_party/flatbuffers/include/flatbuffers\flatbuffers.h ****  * you may not use this file except in compliance with the License.
   6:C:/Renesas/e2studio_2021_01_workspace_RZA2M_ANPR/ANPR_RZA2M_GR_MANGO/src/tensorflow_lite/third_party/flatbuffers/include/flatbuffers\flatbuffers.h ****  * You may obtain a copy of the License at
   7:C:/Renesas/e2studio_2021_01_workspace_RZA2M_ANPR/ANPR_RZA2M_GR_MANGO/src/tensorflow_lite/third_party/flatbuffers/include/flatbuffers\flatbuffers.h ****  *
   8:C:/Renesas/e2studio_2021_01_workspace_RZA2M_ANPR/ANPR_RZA2M_GR_MANGO/src/tensorflow_lite/third_party/flatbuffers/include/flatbuffers\flatbuffers.h ****  *     http://www.apache.org/licenses/LICENSE-2.0
   9:C:/Renesas/e2studio_2021_01_workspace_RZA2M_ANPR/ANPR_RZA2M_GR_MANGO/src/tensorflow_lite/third_party/flatbuffers/include/flatbuffers\flatbuffers.h ****  *
  10:C:/Renesas/e2studio_2021_01_workspace_RZA2M_ANPR/ANPR_RZA2M_GR_MANGO/src/tensorflow_lite/third_party/flatbuffers/include/flatbuffers\flatbuffers.h ****  * Unless required by applicable law or agreed to in writing, software
  11:C:/Renesas/e2studio_2021_01_workspace_RZA2M_ANPR/ANPR_RZA2M_GR_MANGO/src/tensorflow_lite/third_party/flatbuffers/include/flatbuffers\flatbuffers.h ****  * distributed under the License is distributed on an "AS IS" BASIS,
  12:C:/Renesas/e2studio_2021_01_workspace_RZA2M_ANPR/ANPR_RZA2M_GR_MANGO/src/tensorflow_lite/third_party/flatbuffers/include/flatbuffers\flatbuffers.h ****  * WITHOUT WARRANTIES OR CONDITIONS OF ANY KIND, either express or implied.
  13:C:/Renesas/e2studio_2021_01_workspace_RZA2M_ANPR/ANPR_RZA2M_GR_MANGO/src/tensorflow_lite/third_party/flatbuffers/include/flatbuffers\flatbuffers.h ****  * See the License for the specific language governing permissions and
  14:C:/Renesas/e2studio_2021_01_workspace_RZA2M_ANPR/ANPR_RZA2M_GR_MANGO/src/tensorflow_lite/third_party/flatbuffers/include/flatbuffers\flatbuffers.h ****  * limitations under the License.
  15:C:/Renesas/e2studio_2021_01_workspace_RZA2M_ANPR/ANPR_RZA2M_GR_MANGO/src/tensorflow_lite/third_party/flatbuffers/include/flatbuffers\flatbuffers.h ****  */
  16:C:/Renesas/e2studio_2021_01_workspace_RZA2M_ANPR/ANPR_RZA2M_GR_MANGO/src/tensorflow_lite/third_party/flatbuffers/include/flatbuffers\flatbuffers.h **** 
  17:C:/Renesas/e2studio_2021_01_workspace_RZA2M_ANPR/ANPR_RZA2M_GR_MANGO/src/tensorflow_lite/third_party/flatbuffers/include/flatbuffers\flatbuffers.h **** #ifndef FLATBUFFERS_H_
  18:C:/Renesas/e2studio_2021_01_workspace_RZA2M_ANPR/ANPR_RZA2M_GR_MANGO/src/tensorflow_lite/third_party/flatbuffers/include/flatbuffers\flatbuffers.h **** #define FLATBUFFERS_H_
  19:C:/Renesas/e2studio_2021_01_workspace_RZA2M_ANPR/ANPR_RZA2M_GR_MANGO/src/tensorflow_lite/third_party/flatbuffers/include/flatbuffers\flatbuffers.h **** 
  20:C:/Renesas/e2studio_2021_01_workspace_RZA2M_ANPR/ANPR_RZA2M_GR_MANGO/src/tensorflow_lite/third_party/flatbuffers/include/flatbuffers\flatbuffers.h **** #include "flatbuffers/base.h"
  21:C:/Renesas/e2studio_2021_01_workspace_RZA2M_ANPR/ANPR_RZA2M_GR_MANGO/src/tensorflow_lite/third_party/flatbuffers/include/flatbuffers\flatbuffers.h **** #include "flatbuffers/stl_emulation.h"
  22:C:/Renesas/e2studio_2021_01_workspace_RZA2M_ANPR/ANPR_RZA2M_GR_MANGO/src/tensorflow_lite/third_party/flatbuffers/include/flatbuffers\flatbuffers.h **** 
  23:C:/Renesas/e2studio_2021_01_workspace_RZA2M_ANPR/ANPR_RZA2M_GR_MANGO/src/tensorflow_lite/third_party/flatbuffers/include/flatbuffers\flatbuffers.h **** #ifndef FLATBUFFERS_CPP98_STL
  24:C:/Renesas/e2studio_2021_01_workspace_RZA2M_ANPR/ANPR_RZA2M_GR_MANGO/src/tensorflow_lite/third_party/flatbuffers/include/flatbuffers\flatbuffers.h ****   #include <functional>
  25:C:/Renesas/e2studio_2021_01_workspace_RZA2M_ANPR/ANPR_RZA2M_GR_MANGO/src/tensorflow_lite/third_party/flatbuffers/include/flatbuffers\flatbuffers.h **** #endif
  26:C:/Renesas/e2studio_2021_01_workspace_RZA2M_ANPR/ANPR_RZA2M_GR_MANGO/src/tensorflow_lite/third_party/flatbuffers/include/flatbuffers\flatbuffers.h **** 
  27:C:/Renesas/e2studio_2021_01_workspace_RZA2M_ANPR/ANPR_RZA2M_GR_MANGO/src/tensorflow_lite/third_party/flatbuffers/include/flatbuffers\flatbuffers.h **** #if defined(FLATBUFFERS_NAN_DEFAULTS)
  28:C:/Renesas/e2studio_2021_01_workspace_RZA2M_ANPR/ANPR_RZA2M_GR_MANGO/src/tensorflow_lite/third_party/flatbuffers/include/flatbuffers\flatbuffers.h **** #  include <cmath>
  29:C:/Renesas/e2studio_2021_01_workspace_RZA2M_ANPR/ANPR_RZA2M_GR_MANGO/src/tensorflow_lite/third_party/flatbuffers/include/flatbuffers\flatbuffers.h **** #endif
  30:C:/Renesas/e2studio_2021_01_workspace_RZA2M_ANPR/ANPR_RZA2M_GR_MANGO/src/tensorflow_lite/third_party/flatbuffers/include/flatbuffers\flatbuffers.h **** 
  31:C:/Renesas/e2studio_2021_01_workspace_RZA2M_ANPR/ANPR_RZA2M_GR_MANGO/src/tensorflow_lite/third_party/flatbuffers/include/flatbuffers\flatbuffers.h **** namespace flatbuffers {
  32:C:/Renesas/e2studio_2021_01_workspace_RZA2M_ANPR/ANPR_RZA2M_GR_MANGO/src/tensorflow_lite/third_party/flatbuffers/include/flatbuffers\flatbuffers.h **** // Generic 'operator==' with conditional specialisations.
  33:C:/Renesas/e2studio_2021_01_workspace_RZA2M_ANPR/ANPR_RZA2M_GR_MANGO/src/tensorflow_lite/third_party/flatbuffers/include/flatbuffers\flatbuffers.h **** // T e - new value of a scalar field.
  34:C:/Renesas/e2studio_2021_01_workspace_RZA2M_ANPR/ANPR_RZA2M_GR_MANGO/src/tensorflow_lite/third_party/flatbuffers/include/flatbuffers\flatbuffers.h **** // T def - default of scalar (is known at compile-time).
  35:C:/Renesas/e2studio_2021_01_workspace_RZA2M_ANPR/ANPR_RZA2M_GR_MANGO/src/tensorflow_lite/third_party/flatbuffers/include/flatbuffers\flatbuffers.h **** template<typename T> inline bool IsTheSameAs(T e, T def) { return e == def; }
  36:C:/Renesas/e2studio_2021_01_workspace_RZA2M_ANPR/ANPR_RZA2M_GR_MANGO/src/tensorflow_lite/third_party/flatbuffers/include/flatbuffers\flatbuffers.h **** 
  37:C:/Renesas/e2studio_2021_01_workspace_RZA2M_ANPR/ANPR_RZA2M_GR_MANGO/src/tensorflow_lite/third_party/flatbuffers/include/flatbuffers\flatbuffers.h **** #if defined(FLATBUFFERS_NAN_DEFAULTS) && \
  38:C:/Renesas/e2studio_2021_01_workspace_RZA2M_ANPR/ANPR_RZA2M_GR_MANGO/src/tensorflow_lite/third_party/flatbuffers/include/flatbuffers\flatbuffers.h ****     defined(FLATBUFFERS_HAS_NEW_STRTOD) && (FLATBUFFERS_HAS_NEW_STRTOD > 0)
  39:C:/Renesas/e2studio_2021_01_workspace_RZA2M_ANPR/ANPR_RZA2M_GR_MANGO/src/tensorflow_lite/third_party/flatbuffers/include/flatbuffers\flatbuffers.h **** // Like `operator==(e, def)` with weak NaN if T=(float|double).
  40:C:/Renesas/e2studio_2021_01_workspace_RZA2M_ANPR/ANPR_RZA2M_GR_MANGO/src/tensorflow_lite/third_party/flatbuffers/include/flatbuffers\flatbuffers.h **** template<typename T> inline bool IsFloatTheSameAs(T e, T def) {
  41:C:/Renesas/e2studio_2021_01_workspace_RZA2M_ANPR/ANPR_RZA2M_GR_MANGO/src/tensorflow_lite/third_party/flatbuffers/include/flatbuffers\flatbuffers.h ****   return (e == def) || ((def != def) && (e != e));
  42:C:/Renesas/e2studio_2021_01_workspace_RZA2M_ANPR/ANPR_RZA2M_GR_MANGO/src/tensorflow_lite/third_party/flatbuffers/include/flatbuffers\flatbuffers.h **** }
  43:C:/Renesas/e2studio_2021_01_workspace_RZA2M_ANPR/ANPR_RZA2M_GR_MANGO/src/tensorflow_lite/third_party/flatbuffers/include/flatbuffers\flatbuffers.h **** template<> inline bool IsTheSameAs<float>(float e, float def) {
  44:C:/Renesas/e2studio_2021_01_workspace_RZA2M_ANPR/ANPR_RZA2M_GR_MANGO/src/tensorflow_lite/third_party/flatbuffers/include/flatbuffers\flatbuffers.h ****   return IsFloatTheSameAs(e, def);
  45:C:/Renesas/e2studio_2021_01_workspace_RZA2M_ANPR/ANPR_RZA2M_GR_MANGO/src/tensorflow_lite/third_party/flatbuffers/include/flatbuffers\flatbuffers.h **** }
  46:C:/Renesas/e2studio_2021_01_workspace_RZA2M_ANPR/ANPR_RZA2M_GR_MANGO/src/tensorflow_lite/third_party/flatbuffers/include/flatbuffers\flatbuffers.h **** template<> inline bool IsTheSameAs<double>(double e, double def) {
  47:C:/Renesas/e2studio_2021_01_workspace_RZA2M_ANPR/ANPR_RZA2M_GR_MANGO/src/tensorflow_lite/third_party/flatbuffers/include/flatbuffers\flatbuffers.h ****   return IsFloatTheSameAs(e, def);
  48:C:/Renesas/e2studio_2021_01_workspace_RZA2M_ANPR/ANPR_RZA2M_GR_MANGO/src/tensorflow_lite/third_party/flatbuffers/include/flatbuffers\flatbuffers.h **** }
  49:C:/Renesas/e2studio_2021_01_workspace_RZA2M_ANPR/ANPR_RZA2M_GR_MANGO/src/tensorflow_lite/third_party/flatbuffers/include/flatbuffers\flatbuffers.h **** #endif
  50:C:/Renesas/e2studio_2021_01_workspace_RZA2M_ANPR/ANPR_RZA2M_GR_MANGO/src/tensorflow_lite/third_party/flatbuffers/include/flatbuffers\flatbuffers.h **** 
  51:C:/Renesas/e2studio_2021_01_workspace_RZA2M_ANPR/ANPR_RZA2M_GR_MANGO/src/tensorflow_lite/third_party/flatbuffers/include/flatbuffers\flatbuffers.h **** // Check 'v' is out of closed range [low; high].
  52:C:/Renesas/e2studio_2021_01_workspace_RZA2M_ANPR/ANPR_RZA2M_GR_MANGO/src/tensorflow_lite/third_party/flatbuffers/include/flatbuffers\flatbuffers.h **** // Workaround for GCC warning [-Werror=type-limits]:
  53:C:/Renesas/e2studio_2021_01_workspace_RZA2M_ANPR/ANPR_RZA2M_GR_MANGO/src/tensorflow_lite/third_party/flatbuffers/include/flatbuffers\flatbuffers.h **** // comparison is always true due to limited range of data type.
  54:C:/Renesas/e2studio_2021_01_workspace_RZA2M_ANPR/ANPR_RZA2M_GR_MANGO/src/tensorflow_lite/third_party/flatbuffers/include/flatbuffers\flatbuffers.h **** template<typename T>
  55:C:/Renesas/e2studio_2021_01_workspace_RZA2M_ANPR/ANPR_RZA2M_GR_MANGO/src/tensorflow_lite/third_party/flatbuffers/include/flatbuffers\flatbuffers.h **** inline bool IsOutRange(const T &v, const T &low, const T &high) {
  56:C:/Renesas/e2studio_2021_01_workspace_RZA2M_ANPR/ANPR_RZA2M_GR_MANGO/src/tensorflow_lite/third_party/flatbuffers/include/flatbuffers\flatbuffers.h ****   return (v < low) || (high < v);
  57:C:/Renesas/e2studio_2021_01_workspace_RZA2M_ANPR/ANPR_RZA2M_GR_MANGO/src/tensorflow_lite/third_party/flatbuffers/include/flatbuffers\flatbuffers.h **** }
  58:C:/Renesas/e2studio_2021_01_workspace_RZA2M_ANPR/ANPR_RZA2M_GR_MANGO/src/tensorflow_lite/third_party/flatbuffers/include/flatbuffers\flatbuffers.h **** 
  59:C:/Renesas/e2studio_2021_01_workspace_RZA2M_ANPR/ANPR_RZA2M_GR_MANGO/src/tensorflow_lite/third_party/flatbuffers/include/flatbuffers\flatbuffers.h **** // Check 'v' is in closed range [low; high].
  60:C:/Renesas/e2studio_2021_01_workspace_RZA2M_ANPR/ANPR_RZA2M_GR_MANGO/src/tensorflow_lite/third_party/flatbuffers/include/flatbuffers\flatbuffers.h **** template<typename T>
  61:C:/Renesas/e2studio_2021_01_workspace_RZA2M_ANPR/ANPR_RZA2M_GR_MANGO/src/tensorflow_lite/third_party/flatbuffers/include/flatbuffers\flatbuffers.h **** inline bool IsInRange(const T &v, const T &low, const T &high) {
  62:C:/Renesas/e2studio_2021_01_workspace_RZA2M_ANPR/ANPR_RZA2M_GR_MANGO/src/tensorflow_lite/third_party/flatbuffers/include/flatbuffers\flatbuffers.h ****   return !IsOutRange(v, low, high);
  63:C:/Renesas/e2studio_2021_01_workspace_RZA2M_ANPR/ANPR_RZA2M_GR_MANGO/src/tensorflow_lite/third_party/flatbuffers/include/flatbuffers\flatbuffers.h **** }
  64:C:/Renesas/e2studio_2021_01_workspace_RZA2M_ANPR/ANPR_RZA2M_GR_MANGO/src/tensorflow_lite/third_party/flatbuffers/include/flatbuffers\flatbuffers.h **** 
  65:C:/Renesas/e2studio_2021_01_workspace_RZA2M_ANPR/ANPR_RZA2M_GR_MANGO/src/tensorflow_lite/third_party/flatbuffers/include/flatbuffers\flatbuffers.h **** // Wrapper for uoffset_t to allow safe template specialization.
  66:C:/Renesas/e2studio_2021_01_workspace_RZA2M_ANPR/ANPR_RZA2M_GR_MANGO/src/tensorflow_lite/third_party/flatbuffers/include/flatbuffers\flatbuffers.h **** // Value is allowed to be 0 to indicate a null object (see e.g. AddOffset).
  67:C:/Renesas/e2studio_2021_01_workspace_RZA2M_ANPR/ANPR_RZA2M_GR_MANGO/src/tensorflow_lite/third_party/flatbuffers/include/flatbuffers\flatbuffers.h **** template<typename T> struct Offset {
  68:C:/Renesas/e2studio_2021_01_workspace_RZA2M_ANPR/ANPR_RZA2M_GR_MANGO/src/tensorflow_lite/third_party/flatbuffers/include/flatbuffers\flatbuffers.h ****   uoffset_t o;
  69:C:/Renesas/e2studio_2021_01_workspace_RZA2M_ANPR/ANPR_RZA2M_GR_MANGO/src/tensorflow_lite/third_party/flatbuffers/include/flatbuffers\flatbuffers.h ****   Offset() : o(0) {}
  70:C:/Renesas/e2studio_2021_01_workspace_RZA2M_ANPR/ANPR_RZA2M_GR_MANGO/src/tensorflow_lite/third_party/flatbuffers/include/flatbuffers\flatbuffers.h ****   Offset(uoffset_t _o) : o(_o) {}
  71:C:/Renesas/e2studio_2021_01_workspace_RZA2M_ANPR/ANPR_RZA2M_GR_MANGO/src/tensorflow_lite/third_party/flatbuffers/include/flatbuffers\flatbuffers.h ****   Offset<void> Union() const { return Offset<void>(o); }
  72:C:/Renesas/e2studio_2021_01_workspace_RZA2M_ANPR/ANPR_RZA2M_GR_MANGO/src/tensorflow_lite/third_party/flatbuffers/include/flatbuffers\flatbuffers.h ****   bool IsNull() const { return !o; }
  73:C:/Renesas/e2studio_2021_01_workspace_RZA2M_ANPR/ANPR_RZA2M_GR_MANGO/src/tensorflow_lite/third_party/flatbuffers/include/flatbuffers\flatbuffers.h **** };
  74:C:/Renesas/e2studio_2021_01_workspace_RZA2M_ANPR/ANPR_RZA2M_GR_MANGO/src/tensorflow_lite/third_party/flatbuffers/include/flatbuffers\flatbuffers.h **** 
  75:C:/Renesas/e2studio_2021_01_workspace_RZA2M_ANPR/ANPR_RZA2M_GR_MANGO/src/tensorflow_lite/third_party/flatbuffers/include/flatbuffers\flatbuffers.h **** inline void EndianCheck() {
  76:C:/Renesas/e2studio_2021_01_workspace_RZA2M_ANPR/ANPR_RZA2M_GR_MANGO/src/tensorflow_lite/third_party/flatbuffers/include/flatbuffers\flatbuffers.h ****   int endiantest = 1;
  77:C:/Renesas/e2studio_2021_01_workspace_RZA2M_ANPR/ANPR_RZA2M_GR_MANGO/src/tensorflow_lite/third_party/flatbuffers/include/flatbuffers\flatbuffers.h ****   // If this fails, see FLATBUFFERS_LITTLEENDIAN above.
  78:C:/Renesas/e2studio_2021_01_workspace_RZA2M_ANPR/ANPR_RZA2M_GR_MANGO/src/tensorflow_lite/third_party/flatbuffers/include/flatbuffers\flatbuffers.h ****   FLATBUFFERS_ASSERT(*reinterpret_cast<char *>(&endiantest) ==
  79:C:/Renesas/e2studio_2021_01_workspace_RZA2M_ANPR/ANPR_RZA2M_GR_MANGO/src/tensorflow_lite/third_party/flatbuffers/include/flatbuffers\flatbuffers.h ****                      FLATBUFFERS_LITTLEENDIAN);
  80:C:/Renesas/e2studio_2021_01_workspace_RZA2M_ANPR/ANPR_RZA2M_GR_MANGO/src/tensorflow_lite/third_party/flatbuffers/include/flatbuffers\flatbuffers.h ****   (void)endiantest;
  81:C:/Renesas/e2studio_2021_01_workspace_RZA2M_ANPR/ANPR_RZA2M_GR_MANGO/src/tensorflow_lite/third_party/flatbuffers/include/flatbuffers\flatbuffers.h **** }
  82:C:/Renesas/e2studio_2021_01_workspace_RZA2M_ANPR/ANPR_RZA2M_GR_MANGO/src/tensorflow_lite/third_party/flatbuffers/include/flatbuffers\flatbuffers.h **** 
  83:C:/Renesas/e2studio_2021_01_workspace_RZA2M_ANPR/ANPR_RZA2M_GR_MANGO/src/tensorflow_lite/third_party/flatbuffers/include/flatbuffers\flatbuffers.h **** template<typename T> FLATBUFFERS_CONSTEXPR size_t AlignOf() {
  84:C:/Renesas/e2studio_2021_01_workspace_RZA2M_ANPR/ANPR_RZA2M_GR_MANGO/src/tensorflow_lite/third_party/flatbuffers/include/flatbuffers\flatbuffers.h ****   // clang-format off
  85:C:/Renesas/e2studio_2021_01_workspace_RZA2M_ANPR/ANPR_RZA2M_GR_MANGO/src/tensorflow_lite/third_party/flatbuffers/include/flatbuffers\flatbuffers.h ****   #ifdef _MSC_VER
  86:C:/Renesas/e2studio_2021_01_workspace_RZA2M_ANPR/ANPR_RZA2M_GR_MANGO/src/tensorflow_lite/third_party/flatbuffers/include/flatbuffers\flatbuffers.h ****     return __alignof(T);
  87:C:/Renesas/e2studio_2021_01_workspace_RZA2M_ANPR/ANPR_RZA2M_GR_MANGO/src/tensorflow_lite/third_party/flatbuffers/include/flatbuffers\flatbuffers.h ****   #else
  88:C:/Renesas/e2studio_2021_01_workspace_RZA2M_ANPR/ANPR_RZA2M_GR_MANGO/src/tensorflow_lite/third_party/flatbuffers/include/flatbuffers\flatbuffers.h ****     #ifndef alignof
  89:C:/Renesas/e2studio_2021_01_workspace_RZA2M_ANPR/ANPR_RZA2M_GR_MANGO/src/tensorflow_lite/third_party/flatbuffers/include/flatbuffers\flatbuffers.h ****       return __alignof__(T);
  90:C:/Renesas/e2studio_2021_01_workspace_RZA2M_ANPR/ANPR_RZA2M_GR_MANGO/src/tensorflow_lite/third_party/flatbuffers/include/flatbuffers\flatbuffers.h ****     #else
  91:C:/Renesas/e2studio_2021_01_workspace_RZA2M_ANPR/ANPR_RZA2M_GR_MANGO/src/tensorflow_lite/third_party/flatbuffers/include/flatbuffers\flatbuffers.h ****       return alignof(T);
  92:C:/Renesas/e2studio_2021_01_workspace_RZA2M_ANPR/ANPR_RZA2M_GR_MANGO/src/tensorflow_lite/third_party/flatbuffers/include/flatbuffers\flatbuffers.h ****     #endif
  93:C:/Renesas/e2studio_2021_01_workspace_RZA2M_ANPR/ANPR_RZA2M_GR_MANGO/src/tensorflow_lite/third_party/flatbuffers/include/flatbuffers\flatbuffers.h ****   #endif
  94:C:/Renesas/e2studio_2021_01_workspace_RZA2M_ANPR/ANPR_RZA2M_GR_MANGO/src/tensorflow_lite/third_party/flatbuffers/include/flatbuffers\flatbuffers.h ****   // clang-format on
  95:C:/Renesas/e2studio_2021_01_workspace_RZA2M_ANPR/ANPR_RZA2M_GR_MANGO/src/tensorflow_lite/third_party/flatbuffers/include/flatbuffers\flatbuffers.h **** }
  96:C:/Renesas/e2studio_2021_01_workspace_RZA2M_ANPR/ANPR_RZA2M_GR_MANGO/src/tensorflow_lite/third_party/flatbuffers/include/flatbuffers\flatbuffers.h **** 
  97:C:/Renesas/e2studio_2021_01_workspace_RZA2M_ANPR/ANPR_RZA2M_GR_MANGO/src/tensorflow_lite/third_party/flatbuffers/include/flatbuffers\flatbuffers.h **** // When we read serialized data from memory, in the case of most scalars,
  98:C:/Renesas/e2studio_2021_01_workspace_RZA2M_ANPR/ANPR_RZA2M_GR_MANGO/src/tensorflow_lite/third_party/flatbuffers/include/flatbuffers\flatbuffers.h **** // we want to just read T, but in the case of Offset, we want to actually
  99:C:/Renesas/e2studio_2021_01_workspace_RZA2M_ANPR/ANPR_RZA2M_GR_MANGO/src/tensorflow_lite/third_party/flatbuffers/include/flatbuffers\flatbuffers.h **** // perform the indirection and return a pointer.
 100:C:/Renesas/e2studio_2021_01_workspace_RZA2M_ANPR/ANPR_RZA2M_GR_MANGO/src/tensorflow_lite/third_party/flatbuffers/include/flatbuffers\flatbuffers.h **** // The template specialization below does just that.
 101:C:/Renesas/e2studio_2021_01_workspace_RZA2M_ANPR/ANPR_RZA2M_GR_MANGO/src/tensorflow_lite/third_party/flatbuffers/include/flatbuffers\flatbuffers.h **** // It is wrapped in a struct since function templates can't overload on the
 102:C:/Renesas/e2studio_2021_01_workspace_RZA2M_ANPR/ANPR_RZA2M_GR_MANGO/src/tensorflow_lite/third_party/flatbuffers/include/flatbuffers\flatbuffers.h **** // return type like this.
 103:C:/Renesas/e2studio_2021_01_workspace_RZA2M_ANPR/ANPR_RZA2M_GR_MANGO/src/tensorflow_lite/third_party/flatbuffers/include/flatbuffers\flatbuffers.h **** // The typedef is for the convenience of callers of this function
 104:C:/Renesas/e2studio_2021_01_workspace_RZA2M_ANPR/ANPR_RZA2M_GR_MANGO/src/tensorflow_lite/third_party/flatbuffers/include/flatbuffers\flatbuffers.h **** // (avoiding the need for a trailing return decltype)
 105:C:/Renesas/e2studio_2021_01_workspace_RZA2M_ANPR/ANPR_RZA2M_GR_MANGO/src/tensorflow_lite/third_party/flatbuffers/include/flatbuffers\flatbuffers.h **** template<typename T> struct IndirectHelper {
 106:C:/Renesas/e2studio_2021_01_workspace_RZA2M_ANPR/ANPR_RZA2M_GR_MANGO/src/tensorflow_lite/third_party/flatbuffers/include/flatbuffers\flatbuffers.h ****   typedef T return_type;
 107:C:/Renesas/e2studio_2021_01_workspace_RZA2M_ANPR/ANPR_RZA2M_GR_MANGO/src/tensorflow_lite/third_party/flatbuffers/include/flatbuffers\flatbuffers.h ****   typedef T mutable_return_type;
 108:C:/Renesas/e2studio_2021_01_workspace_RZA2M_ANPR/ANPR_RZA2M_GR_MANGO/src/tensorflow_lite/third_party/flatbuffers/include/flatbuffers\flatbuffers.h ****   static const size_t element_stride = sizeof(T);
 109:C:/Renesas/e2studio_2021_01_workspace_RZA2M_ANPR/ANPR_RZA2M_GR_MANGO/src/tensorflow_lite/third_party/flatbuffers/include/flatbuffers\flatbuffers.h ****   static return_type Read(const uint8_t *p, uoffset_t i) {
 110:C:/Renesas/e2studio_2021_01_workspace_RZA2M_ANPR/ANPR_RZA2M_GR_MANGO/src/tensorflow_lite/third_party/flatbuffers/include/flatbuffers\flatbuffers.h ****     return EndianScalar((reinterpret_cast<const T *>(p))[i]);
 111:C:/Renesas/e2studio_2021_01_workspace_RZA2M_ANPR/ANPR_RZA2M_GR_MANGO/src/tensorflow_lite/third_party/flatbuffers/include/flatbuffers\flatbuffers.h ****   }
 112:C:/Renesas/e2studio_2021_01_workspace_RZA2M_ANPR/ANPR_RZA2M_GR_MANGO/src/tensorflow_lite/third_party/flatbuffers/include/flatbuffers\flatbuffers.h **** };
 113:C:/Renesas/e2studio_2021_01_workspace_RZA2M_ANPR/ANPR_RZA2M_GR_MANGO/src/tensorflow_lite/third_party/flatbuffers/include/flatbuffers\flatbuffers.h **** template<typename T> struct IndirectHelper<Offset<T>> {
 114:C:/Renesas/e2studio_2021_01_workspace_RZA2M_ANPR/ANPR_RZA2M_GR_MANGO/src/tensorflow_lite/third_party/flatbuffers/include/flatbuffers\flatbuffers.h ****   typedef const T *return_type;
 115:C:/Renesas/e2studio_2021_01_workspace_RZA2M_ANPR/ANPR_RZA2M_GR_MANGO/src/tensorflow_lite/third_party/flatbuffers/include/flatbuffers\flatbuffers.h ****   typedef T *mutable_return_type;
 116:C:/Renesas/e2studio_2021_01_workspace_RZA2M_ANPR/ANPR_RZA2M_GR_MANGO/src/tensorflow_lite/third_party/flatbuffers/include/flatbuffers\flatbuffers.h ****   static const size_t element_stride = sizeof(uoffset_t);
 117:C:/Renesas/e2studio_2021_01_workspace_RZA2M_ANPR/ANPR_RZA2M_GR_MANGO/src/tensorflow_lite/third_party/flatbuffers/include/flatbuffers\flatbuffers.h ****   static return_type Read(const uint8_t *p, uoffset_t i) {
 118:C:/Renesas/e2studio_2021_01_workspace_RZA2M_ANPR/ANPR_RZA2M_GR_MANGO/src/tensorflow_lite/third_party/flatbuffers/include/flatbuffers\flatbuffers.h ****     p += i * sizeof(uoffset_t);
 119:C:/Renesas/e2studio_2021_01_workspace_RZA2M_ANPR/ANPR_RZA2M_GR_MANGO/src/tensorflow_lite/third_party/flatbuffers/include/flatbuffers\flatbuffers.h ****     return reinterpret_cast<return_type>(p + ReadScalar<uoffset_t>(p));
 120:C:/Renesas/e2studio_2021_01_workspace_RZA2M_ANPR/ANPR_RZA2M_GR_MANGO/src/tensorflow_lite/third_party/flatbuffers/include/flatbuffers\flatbuffers.h ****   }
 121:C:/Renesas/e2studio_2021_01_workspace_RZA2M_ANPR/ANPR_RZA2M_GR_MANGO/src/tensorflow_lite/third_party/flatbuffers/include/flatbuffers\flatbuffers.h **** };
 122:C:/Renesas/e2studio_2021_01_workspace_RZA2M_ANPR/ANPR_RZA2M_GR_MANGO/src/tensorflow_lite/third_party/flatbuffers/include/flatbuffers\flatbuffers.h **** template<typename T> struct IndirectHelper<const T *> {
 123:C:/Renesas/e2studio_2021_01_workspace_RZA2M_ANPR/ANPR_RZA2M_GR_MANGO/src/tensorflow_lite/third_party/flatbuffers/include/flatbuffers\flatbuffers.h ****   typedef const T *return_type;
 124:C:/Renesas/e2studio_2021_01_workspace_RZA2M_ANPR/ANPR_RZA2M_GR_MANGO/src/tensorflow_lite/third_party/flatbuffers/include/flatbuffers\flatbuffers.h ****   typedef T *mutable_return_type;
 125:C:/Renesas/e2studio_2021_01_workspace_RZA2M_ANPR/ANPR_RZA2M_GR_MANGO/src/tensorflow_lite/third_party/flatbuffers/include/flatbuffers\flatbuffers.h ****   static const size_t element_stride = sizeof(T);
 126:C:/Renesas/e2studio_2021_01_workspace_RZA2M_ANPR/ANPR_RZA2M_GR_MANGO/src/tensorflow_lite/third_party/flatbuffers/include/flatbuffers\flatbuffers.h ****   static return_type Read(const uint8_t *p, uoffset_t i) {
 127:C:/Renesas/e2studio_2021_01_workspace_RZA2M_ANPR/ANPR_RZA2M_GR_MANGO/src/tensorflow_lite/third_party/flatbuffers/include/flatbuffers\flatbuffers.h ****     return reinterpret_cast<const T *>(p + i * sizeof(T));
 128:C:/Renesas/e2studio_2021_01_workspace_RZA2M_ANPR/ANPR_RZA2M_GR_MANGO/src/tensorflow_lite/third_party/flatbuffers/include/flatbuffers\flatbuffers.h ****   }
 129:C:/Renesas/e2studio_2021_01_workspace_RZA2M_ANPR/ANPR_RZA2M_GR_MANGO/src/tensorflow_lite/third_party/flatbuffers/include/flatbuffers\flatbuffers.h **** };
 130:C:/Renesas/e2studio_2021_01_workspace_RZA2M_ANPR/ANPR_RZA2M_GR_MANGO/src/tensorflow_lite/third_party/flatbuffers/include/flatbuffers\flatbuffers.h **** 
 131:C:/Renesas/e2studio_2021_01_workspace_RZA2M_ANPR/ANPR_RZA2M_GR_MANGO/src/tensorflow_lite/third_party/flatbuffers/include/flatbuffers\flatbuffers.h **** // An STL compatible iterator implementation for Vector below, effectively
 132:C:/Renesas/e2studio_2021_01_workspace_RZA2M_ANPR/ANPR_RZA2M_GR_MANGO/src/tensorflow_lite/third_party/flatbuffers/include/flatbuffers\flatbuffers.h **** // calling Get() for every element.
 133:C:/Renesas/e2studio_2021_01_workspace_RZA2M_ANPR/ANPR_RZA2M_GR_MANGO/src/tensorflow_lite/third_party/flatbuffers/include/flatbuffers\flatbuffers.h **** template<typename T, typename IT> struct VectorIterator {
 134:C:/Renesas/e2studio_2021_01_workspace_RZA2M_ANPR/ANPR_RZA2M_GR_MANGO/src/tensorflow_lite/third_party/flatbuffers/include/flatbuffers\flatbuffers.h ****   typedef std::random_access_iterator_tag iterator_category;
 135:C:/Renesas/e2studio_2021_01_workspace_RZA2M_ANPR/ANPR_RZA2M_GR_MANGO/src/tensorflow_lite/third_party/flatbuffers/include/flatbuffers\flatbuffers.h ****   typedef IT value_type;
 136:C:/Renesas/e2studio_2021_01_workspace_RZA2M_ANPR/ANPR_RZA2M_GR_MANGO/src/tensorflow_lite/third_party/flatbuffers/include/flatbuffers\flatbuffers.h ****   typedef ptrdiff_t difference_type;
 137:C:/Renesas/e2studio_2021_01_workspace_RZA2M_ANPR/ANPR_RZA2M_GR_MANGO/src/tensorflow_lite/third_party/flatbuffers/include/flatbuffers\flatbuffers.h ****   typedef IT *pointer;
 138:C:/Renesas/e2studio_2021_01_workspace_RZA2M_ANPR/ANPR_RZA2M_GR_MANGO/src/tensorflow_lite/third_party/flatbuffers/include/flatbuffers\flatbuffers.h ****   typedef IT &reference;
 139:C:/Renesas/e2studio_2021_01_workspace_RZA2M_ANPR/ANPR_RZA2M_GR_MANGO/src/tensorflow_lite/third_party/flatbuffers/include/flatbuffers\flatbuffers.h **** 
 140:C:/Renesas/e2studio_2021_01_workspace_RZA2M_ANPR/ANPR_RZA2M_GR_MANGO/src/tensorflow_lite/third_party/flatbuffers/include/flatbuffers\flatbuffers.h ****   VectorIterator(const uint8_t *data, uoffset_t i)
 141:C:/Renesas/e2studio_2021_01_workspace_RZA2M_ANPR/ANPR_RZA2M_GR_MANGO/src/tensorflow_lite/third_party/flatbuffers/include/flatbuffers\flatbuffers.h ****       : data_(data + IndirectHelper<T>::element_stride * i) {}
 142:C:/Renesas/e2studio_2021_01_workspace_RZA2M_ANPR/ANPR_RZA2M_GR_MANGO/src/tensorflow_lite/third_party/flatbuffers/include/flatbuffers\flatbuffers.h ****   VectorIterator(const VectorIterator &other) : data_(other.data_) {}
 143:C:/Renesas/e2studio_2021_01_workspace_RZA2M_ANPR/ANPR_RZA2M_GR_MANGO/src/tensorflow_lite/third_party/flatbuffers/include/flatbuffers\flatbuffers.h ****   VectorIterator() : data_(nullptr) {}
 144:C:/Renesas/e2studio_2021_01_workspace_RZA2M_ANPR/ANPR_RZA2M_GR_MANGO/src/tensorflow_lite/third_party/flatbuffers/include/flatbuffers\flatbuffers.h **** 
 145:C:/Renesas/e2studio_2021_01_workspace_RZA2M_ANPR/ANPR_RZA2M_GR_MANGO/src/tensorflow_lite/third_party/flatbuffers/include/flatbuffers\flatbuffers.h ****   VectorIterator &operator=(const VectorIterator &other) {
 146:C:/Renesas/e2studio_2021_01_workspace_RZA2M_ANPR/ANPR_RZA2M_GR_MANGO/src/tensorflow_lite/third_party/flatbuffers/include/flatbuffers\flatbuffers.h ****     data_ = other.data_;
 147:C:/Renesas/e2studio_2021_01_workspace_RZA2M_ANPR/ANPR_RZA2M_GR_MANGO/src/tensorflow_lite/third_party/flatbuffers/include/flatbuffers\flatbuffers.h ****     return *this;
 148:C:/Renesas/e2studio_2021_01_workspace_RZA2M_ANPR/ANPR_RZA2M_GR_MANGO/src/tensorflow_lite/third_party/flatbuffers/include/flatbuffers\flatbuffers.h ****   }
 149:C:/Renesas/e2studio_2021_01_workspace_RZA2M_ANPR/ANPR_RZA2M_GR_MANGO/src/tensorflow_lite/third_party/flatbuffers/include/flatbuffers\flatbuffers.h **** 
 150:C:/Renesas/e2studio_2021_01_workspace_RZA2M_ANPR/ANPR_RZA2M_GR_MANGO/src/tensorflow_lite/third_party/flatbuffers/include/flatbuffers\flatbuffers.h ****   // clang-format off
 151:C:/Renesas/e2studio_2021_01_workspace_RZA2M_ANPR/ANPR_RZA2M_GR_MANGO/src/tensorflow_lite/third_party/flatbuffers/include/flatbuffers\flatbuffers.h ****   #if !defined(FLATBUFFERS_CPP98_STL)
 152:C:/Renesas/e2studio_2021_01_workspace_RZA2M_ANPR/ANPR_RZA2M_GR_MANGO/src/tensorflow_lite/third_party/flatbuffers/include/flatbuffers\flatbuffers.h ****   VectorIterator &operator=(VectorIterator &&other) {
 153:C:/Renesas/e2studio_2021_01_workspace_RZA2M_ANPR/ANPR_RZA2M_GR_MANGO/src/tensorflow_lite/third_party/flatbuffers/include/flatbuffers\flatbuffers.h ****     data_ = other.data_;
 154:C:/Renesas/e2studio_2021_01_workspace_RZA2M_ANPR/ANPR_RZA2M_GR_MANGO/src/tensorflow_lite/third_party/flatbuffers/include/flatbuffers\flatbuffers.h ****     return *this;
 155:C:/Renesas/e2studio_2021_01_workspace_RZA2M_ANPR/ANPR_RZA2M_GR_MANGO/src/tensorflow_lite/third_party/flatbuffers/include/flatbuffers\flatbuffers.h ****   }
 156:C:/Renesas/e2studio_2021_01_workspace_RZA2M_ANPR/ANPR_RZA2M_GR_MANGO/src/tensorflow_lite/third_party/flatbuffers/include/flatbuffers\flatbuffers.h ****   #endif  // !defined(FLATBUFFERS_CPP98_STL)
 157:C:/Renesas/e2studio_2021_01_workspace_RZA2M_ANPR/ANPR_RZA2M_GR_MANGO/src/tensorflow_lite/third_party/flatbuffers/include/flatbuffers\flatbuffers.h ****   // clang-format on
 158:C:/Renesas/e2studio_2021_01_workspace_RZA2M_ANPR/ANPR_RZA2M_GR_MANGO/src/tensorflow_lite/third_party/flatbuffers/include/flatbuffers\flatbuffers.h **** 
 159:C:/Renesas/e2studio_2021_01_workspace_RZA2M_ANPR/ANPR_RZA2M_GR_MANGO/src/tensorflow_lite/third_party/flatbuffers/include/flatbuffers\flatbuffers.h ****   bool operator==(const VectorIterator &other) const {
 160:C:/Renesas/e2studio_2021_01_workspace_RZA2M_ANPR/ANPR_RZA2M_GR_MANGO/src/tensorflow_lite/third_party/flatbuffers/include/flatbuffers\flatbuffers.h ****     return data_ == other.data_;
 161:C:/Renesas/e2studio_2021_01_workspace_RZA2M_ANPR/ANPR_RZA2M_GR_MANGO/src/tensorflow_lite/third_party/flatbuffers/include/flatbuffers\flatbuffers.h ****   }
 162:C:/Renesas/e2studio_2021_01_workspace_RZA2M_ANPR/ANPR_RZA2M_GR_MANGO/src/tensorflow_lite/third_party/flatbuffers/include/flatbuffers\flatbuffers.h **** 
 163:C:/Renesas/e2studio_2021_01_workspace_RZA2M_ANPR/ANPR_RZA2M_GR_MANGO/src/tensorflow_lite/third_party/flatbuffers/include/flatbuffers\flatbuffers.h ****   bool operator<(const VectorIterator &other) const {
 164:C:/Renesas/e2studio_2021_01_workspace_RZA2M_ANPR/ANPR_RZA2M_GR_MANGO/src/tensorflow_lite/third_party/flatbuffers/include/flatbuffers\flatbuffers.h ****     return data_ < other.data_;
 165:C:/Renesas/e2studio_2021_01_workspace_RZA2M_ANPR/ANPR_RZA2M_GR_MANGO/src/tensorflow_lite/third_party/flatbuffers/include/flatbuffers\flatbuffers.h ****   }
 166:C:/Renesas/e2studio_2021_01_workspace_RZA2M_ANPR/ANPR_RZA2M_GR_MANGO/src/tensorflow_lite/third_party/flatbuffers/include/flatbuffers\flatbuffers.h **** 
 167:C:/Renesas/e2studio_2021_01_workspace_RZA2M_ANPR/ANPR_RZA2M_GR_MANGO/src/tensorflow_lite/third_party/flatbuffers/include/flatbuffers\flatbuffers.h ****   bool operator!=(const VectorIterator &other) const {
 168:C:/Renesas/e2studio_2021_01_workspace_RZA2M_ANPR/ANPR_RZA2M_GR_MANGO/src/tensorflow_lite/third_party/flatbuffers/include/flatbuffers\flatbuffers.h ****     return data_ != other.data_;
 169:C:/Renesas/e2studio_2021_01_workspace_RZA2M_ANPR/ANPR_RZA2M_GR_MANGO/src/tensorflow_lite/third_party/flatbuffers/include/flatbuffers\flatbuffers.h ****   }
 170:C:/Renesas/e2studio_2021_01_workspace_RZA2M_ANPR/ANPR_RZA2M_GR_MANGO/src/tensorflow_lite/third_party/flatbuffers/include/flatbuffers\flatbuffers.h **** 
 171:C:/Renesas/e2studio_2021_01_workspace_RZA2M_ANPR/ANPR_RZA2M_GR_MANGO/src/tensorflow_lite/third_party/flatbuffers/include/flatbuffers\flatbuffers.h ****   difference_type operator-(const VectorIterator &other) const {
 172:C:/Renesas/e2studio_2021_01_workspace_RZA2M_ANPR/ANPR_RZA2M_GR_MANGO/src/tensorflow_lite/third_party/flatbuffers/include/flatbuffers\flatbuffers.h ****     return (data_ - other.data_) / IndirectHelper<T>::element_stride;
 173:C:/Renesas/e2studio_2021_01_workspace_RZA2M_ANPR/ANPR_RZA2M_GR_MANGO/src/tensorflow_lite/third_party/flatbuffers/include/flatbuffers\flatbuffers.h ****   }
 174:C:/Renesas/e2studio_2021_01_workspace_RZA2M_ANPR/ANPR_RZA2M_GR_MANGO/src/tensorflow_lite/third_party/flatbuffers/include/flatbuffers\flatbuffers.h **** 
 175:C:/Renesas/e2studio_2021_01_workspace_RZA2M_ANPR/ANPR_RZA2M_GR_MANGO/src/tensorflow_lite/third_party/flatbuffers/include/flatbuffers\flatbuffers.h ****   IT operator*() const { return IndirectHelper<T>::Read(data_, 0); }
 176:C:/Renesas/e2studio_2021_01_workspace_RZA2M_ANPR/ANPR_RZA2M_GR_MANGO/src/tensorflow_lite/third_party/flatbuffers/include/flatbuffers\flatbuffers.h **** 
 177:C:/Renesas/e2studio_2021_01_workspace_RZA2M_ANPR/ANPR_RZA2M_GR_MANGO/src/tensorflow_lite/third_party/flatbuffers/include/flatbuffers\flatbuffers.h ****   IT operator->() const { return IndirectHelper<T>::Read(data_, 0); }
 178:C:/Renesas/e2studio_2021_01_workspace_RZA2M_ANPR/ANPR_RZA2M_GR_MANGO/src/tensorflow_lite/third_party/flatbuffers/include/flatbuffers\flatbuffers.h **** 
 179:C:/Renesas/e2studio_2021_01_workspace_RZA2M_ANPR/ANPR_RZA2M_GR_MANGO/src/tensorflow_lite/third_party/flatbuffers/include/flatbuffers\flatbuffers.h ****   VectorIterator &operator++() {
 180:C:/Renesas/e2studio_2021_01_workspace_RZA2M_ANPR/ANPR_RZA2M_GR_MANGO/src/tensorflow_lite/third_party/flatbuffers/include/flatbuffers\flatbuffers.h ****     data_ += IndirectHelper<T>::element_stride;
 181:C:/Renesas/e2studio_2021_01_workspace_RZA2M_ANPR/ANPR_RZA2M_GR_MANGO/src/tensorflow_lite/third_party/flatbuffers/include/flatbuffers\flatbuffers.h ****     return *this;
 182:C:/Renesas/e2studio_2021_01_workspace_RZA2M_ANPR/ANPR_RZA2M_GR_MANGO/src/tensorflow_lite/third_party/flatbuffers/include/flatbuffers\flatbuffers.h ****   }
 183:C:/Renesas/e2studio_2021_01_workspace_RZA2M_ANPR/ANPR_RZA2M_GR_MANGO/src/tensorflow_lite/third_party/flatbuffers/include/flatbuffers\flatbuffers.h **** 
 184:C:/Renesas/e2studio_2021_01_workspace_RZA2M_ANPR/ANPR_RZA2M_GR_MANGO/src/tensorflow_lite/third_party/flatbuffers/include/flatbuffers\flatbuffers.h ****   VectorIterator operator++(int) {
 185:C:/Renesas/e2studio_2021_01_workspace_RZA2M_ANPR/ANPR_RZA2M_GR_MANGO/src/tensorflow_lite/third_party/flatbuffers/include/flatbuffers\flatbuffers.h ****     VectorIterator temp(data_, 0);
 186:C:/Renesas/e2studio_2021_01_workspace_RZA2M_ANPR/ANPR_RZA2M_GR_MANGO/src/tensorflow_lite/third_party/flatbuffers/include/flatbuffers\flatbuffers.h ****     data_ += IndirectHelper<T>::element_stride;
 187:C:/Renesas/e2studio_2021_01_workspace_RZA2M_ANPR/ANPR_RZA2M_GR_MANGO/src/tensorflow_lite/third_party/flatbuffers/include/flatbuffers\flatbuffers.h ****     return temp;
 188:C:/Renesas/e2studio_2021_01_workspace_RZA2M_ANPR/ANPR_RZA2M_GR_MANGO/src/tensorflow_lite/third_party/flatbuffers/include/flatbuffers\flatbuffers.h ****   }
 189:C:/Renesas/e2studio_2021_01_workspace_RZA2M_ANPR/ANPR_RZA2M_GR_MANGO/src/tensorflow_lite/third_party/flatbuffers/include/flatbuffers\flatbuffers.h **** 
 190:C:/Renesas/e2studio_2021_01_workspace_RZA2M_ANPR/ANPR_RZA2M_GR_MANGO/src/tensorflow_lite/third_party/flatbuffers/include/flatbuffers\flatbuffers.h ****   VectorIterator operator+(const uoffset_t &offset) const {
 191:C:/Renesas/e2studio_2021_01_workspace_RZA2M_ANPR/ANPR_RZA2M_GR_MANGO/src/tensorflow_lite/third_party/flatbuffers/include/flatbuffers\flatbuffers.h ****     return VectorIterator(data_ + offset * IndirectHelper<T>::element_stride,
 192:C:/Renesas/e2studio_2021_01_workspace_RZA2M_ANPR/ANPR_RZA2M_GR_MANGO/src/tensorflow_lite/third_party/flatbuffers/include/flatbuffers\flatbuffers.h ****                           0);
 193:C:/Renesas/e2studio_2021_01_workspace_RZA2M_ANPR/ANPR_RZA2M_GR_MANGO/src/tensorflow_lite/third_party/flatbuffers/include/flatbuffers\flatbuffers.h ****   }
 194:C:/Renesas/e2studio_2021_01_workspace_RZA2M_ANPR/ANPR_RZA2M_GR_MANGO/src/tensorflow_lite/third_party/flatbuffers/include/flatbuffers\flatbuffers.h **** 
 195:C:/Renesas/e2studio_2021_01_workspace_RZA2M_ANPR/ANPR_RZA2M_GR_MANGO/src/tensorflow_lite/third_party/flatbuffers/include/flatbuffers\flatbuffers.h ****   VectorIterator &operator+=(const uoffset_t &offset) {
 196:C:/Renesas/e2studio_2021_01_workspace_RZA2M_ANPR/ANPR_RZA2M_GR_MANGO/src/tensorflow_lite/third_party/flatbuffers/include/flatbuffers\flatbuffers.h ****     data_ += offset * IndirectHelper<T>::element_stride;
 197:C:/Renesas/e2studio_2021_01_workspace_RZA2M_ANPR/ANPR_RZA2M_GR_MANGO/src/tensorflow_lite/third_party/flatbuffers/include/flatbuffers\flatbuffers.h ****     return *this;
 198:C:/Renesas/e2studio_2021_01_workspace_RZA2M_ANPR/ANPR_RZA2M_GR_MANGO/src/tensorflow_lite/third_party/flatbuffers/include/flatbuffers\flatbuffers.h ****   }
 199:C:/Renesas/e2studio_2021_01_workspace_RZA2M_ANPR/ANPR_RZA2M_GR_MANGO/src/tensorflow_lite/third_party/flatbuffers/include/flatbuffers\flatbuffers.h **** 
 200:C:/Renesas/e2studio_2021_01_workspace_RZA2M_ANPR/ANPR_RZA2M_GR_MANGO/src/tensorflow_lite/third_party/flatbuffers/include/flatbuffers\flatbuffers.h ****   VectorIterator &operator--() {
 201:C:/Renesas/e2studio_2021_01_workspace_RZA2M_ANPR/ANPR_RZA2M_GR_MANGO/src/tensorflow_lite/third_party/flatbuffers/include/flatbuffers\flatbuffers.h ****     data_ -= IndirectHelper<T>::element_stride;
 202:C:/Renesas/e2studio_2021_01_workspace_RZA2M_ANPR/ANPR_RZA2M_GR_MANGO/src/tensorflow_lite/third_party/flatbuffers/include/flatbuffers\flatbuffers.h ****     return *this;
 203:C:/Renesas/e2studio_2021_01_workspace_RZA2M_ANPR/ANPR_RZA2M_GR_MANGO/src/tensorflow_lite/third_party/flatbuffers/include/flatbuffers\flatbuffers.h ****   }
 204:C:/Renesas/e2studio_2021_01_workspace_RZA2M_ANPR/ANPR_RZA2M_GR_MANGO/src/tensorflow_lite/third_party/flatbuffers/include/flatbuffers\flatbuffers.h **** 
 205:C:/Renesas/e2studio_2021_01_workspace_RZA2M_ANPR/ANPR_RZA2M_GR_MANGO/src/tensorflow_lite/third_party/flatbuffers/include/flatbuffers\flatbuffers.h ****   VectorIterator operator--(int) {
 206:C:/Renesas/e2studio_2021_01_workspace_RZA2M_ANPR/ANPR_RZA2M_GR_MANGO/src/tensorflow_lite/third_party/flatbuffers/include/flatbuffers\flatbuffers.h ****     VectorIterator temp(data_, 0);
 207:C:/Renesas/e2studio_2021_01_workspace_RZA2M_ANPR/ANPR_RZA2M_GR_MANGO/src/tensorflow_lite/third_party/flatbuffers/include/flatbuffers\flatbuffers.h ****     data_ -= IndirectHelper<T>::element_stride;
 208:C:/Renesas/e2studio_2021_01_workspace_RZA2M_ANPR/ANPR_RZA2M_GR_MANGO/src/tensorflow_lite/third_party/flatbuffers/include/flatbuffers\flatbuffers.h ****     return temp;
 209:C:/Renesas/e2studio_2021_01_workspace_RZA2M_ANPR/ANPR_RZA2M_GR_MANGO/src/tensorflow_lite/third_party/flatbuffers/include/flatbuffers\flatbuffers.h ****   }
 210:C:/Renesas/e2studio_2021_01_workspace_RZA2M_ANPR/ANPR_RZA2M_GR_MANGO/src/tensorflow_lite/third_party/flatbuffers/include/flatbuffers\flatbuffers.h **** 
 211:C:/Renesas/e2studio_2021_01_workspace_RZA2M_ANPR/ANPR_RZA2M_GR_MANGO/src/tensorflow_lite/third_party/flatbuffers/include/flatbuffers\flatbuffers.h ****   VectorIterator operator-(const uoffset_t &offset) const {
 212:C:/Renesas/e2studio_2021_01_workspace_RZA2M_ANPR/ANPR_RZA2M_GR_MANGO/src/tensorflow_lite/third_party/flatbuffers/include/flatbuffers\flatbuffers.h ****     return VectorIterator(data_ - offset * IndirectHelper<T>::element_stride,
 213:C:/Renesas/e2studio_2021_01_workspace_RZA2M_ANPR/ANPR_RZA2M_GR_MANGO/src/tensorflow_lite/third_party/flatbuffers/include/flatbuffers\flatbuffers.h ****                           0);
 214:C:/Renesas/e2studio_2021_01_workspace_RZA2M_ANPR/ANPR_RZA2M_GR_MANGO/src/tensorflow_lite/third_party/flatbuffers/include/flatbuffers\flatbuffers.h ****   }
 215:C:/Renesas/e2studio_2021_01_workspace_RZA2M_ANPR/ANPR_RZA2M_GR_MANGO/src/tensorflow_lite/third_party/flatbuffers/include/flatbuffers\flatbuffers.h **** 
 216:C:/Renesas/e2studio_2021_01_workspace_RZA2M_ANPR/ANPR_RZA2M_GR_MANGO/src/tensorflow_lite/third_party/flatbuffers/include/flatbuffers\flatbuffers.h ****   VectorIterator &operator-=(const uoffset_t &offset) {
 217:C:/Renesas/e2studio_2021_01_workspace_RZA2M_ANPR/ANPR_RZA2M_GR_MANGO/src/tensorflow_lite/third_party/flatbuffers/include/flatbuffers\flatbuffers.h ****     data_ -= offset * IndirectHelper<T>::element_stride;
 218:C:/Renesas/e2studio_2021_01_workspace_RZA2M_ANPR/ANPR_RZA2M_GR_MANGO/src/tensorflow_lite/third_party/flatbuffers/include/flatbuffers\flatbuffers.h ****     return *this;
 219:C:/Renesas/e2studio_2021_01_workspace_RZA2M_ANPR/ANPR_RZA2M_GR_MANGO/src/tensorflow_lite/third_party/flatbuffers/include/flatbuffers\flatbuffers.h ****   }
 220:C:/Renesas/e2studio_2021_01_workspace_RZA2M_ANPR/ANPR_RZA2M_GR_MANGO/src/tensorflow_lite/third_party/flatbuffers/include/flatbuffers\flatbuffers.h **** 
 221:C:/Renesas/e2studio_2021_01_workspace_RZA2M_ANPR/ANPR_RZA2M_GR_MANGO/src/tensorflow_lite/third_party/flatbuffers/include/flatbuffers\flatbuffers.h ****  private:
 222:C:/Renesas/e2studio_2021_01_workspace_RZA2M_ANPR/ANPR_RZA2M_GR_MANGO/src/tensorflow_lite/third_party/flatbuffers/include/flatbuffers\flatbuffers.h ****   const uint8_t *data_;
 223:C:/Renesas/e2studio_2021_01_workspace_RZA2M_ANPR/ANPR_RZA2M_GR_MANGO/src/tensorflow_lite/third_party/flatbuffers/include/flatbuffers\flatbuffers.h **** };
 224:C:/Renesas/e2studio_2021_01_workspace_RZA2M_ANPR/ANPR_RZA2M_GR_MANGO/src/tensorflow_lite/third_party/flatbuffers/include/flatbuffers\flatbuffers.h **** 
 225:C:/Renesas/e2studio_2021_01_workspace_RZA2M_ANPR/ANPR_RZA2M_GR_MANGO/src/tensorflow_lite/third_party/flatbuffers/include/flatbuffers\flatbuffers.h **** template<typename Iterator>
 226:C:/Renesas/e2studio_2021_01_workspace_RZA2M_ANPR/ANPR_RZA2M_GR_MANGO/src/tensorflow_lite/third_party/flatbuffers/include/flatbuffers\flatbuffers.h **** struct VectorReverseIterator : public std::reverse_iterator<Iterator> {
 227:C:/Renesas/e2studio_2021_01_workspace_RZA2M_ANPR/ANPR_RZA2M_GR_MANGO/src/tensorflow_lite/third_party/flatbuffers/include/flatbuffers\flatbuffers.h ****   explicit VectorReverseIterator(Iterator iter)
 228:C:/Renesas/e2studio_2021_01_workspace_RZA2M_ANPR/ANPR_RZA2M_GR_MANGO/src/tensorflow_lite/third_party/flatbuffers/include/flatbuffers\flatbuffers.h ****       : std::reverse_iterator<Iterator>(iter) {}
 229:C:/Renesas/e2studio_2021_01_workspace_RZA2M_ANPR/ANPR_RZA2M_GR_MANGO/src/tensorflow_lite/third_party/flatbuffers/include/flatbuffers\flatbuffers.h **** 
 230:C:/Renesas/e2studio_2021_01_workspace_RZA2M_ANPR/ANPR_RZA2M_GR_MANGO/src/tensorflow_lite/third_party/flatbuffers/include/flatbuffers\flatbuffers.h ****   typename Iterator::value_type operator*() const {
 231:C:/Renesas/e2studio_2021_01_workspace_RZA2M_ANPR/ANPR_RZA2M_GR_MANGO/src/tensorflow_lite/third_party/flatbuffers/include/flatbuffers\flatbuffers.h ****     return *(std::reverse_iterator<Iterator>::current);
 232:C:/Renesas/e2studio_2021_01_workspace_RZA2M_ANPR/ANPR_RZA2M_GR_MANGO/src/tensorflow_lite/third_party/flatbuffers/include/flatbuffers\flatbuffers.h ****   }
 233:C:/Renesas/e2studio_2021_01_workspace_RZA2M_ANPR/ANPR_RZA2M_GR_MANGO/src/tensorflow_lite/third_party/flatbuffers/include/flatbuffers\flatbuffers.h **** 
 234:C:/Renesas/e2studio_2021_01_workspace_RZA2M_ANPR/ANPR_RZA2M_GR_MANGO/src/tensorflow_lite/third_party/flatbuffers/include/flatbuffers\flatbuffers.h ****   typename Iterator::value_type operator->() const {
 235:C:/Renesas/e2studio_2021_01_workspace_RZA2M_ANPR/ANPR_RZA2M_GR_MANGO/src/tensorflow_lite/third_party/flatbuffers/include/flatbuffers\flatbuffers.h ****     return *(std::reverse_iterator<Iterator>::current);
 236:C:/Renesas/e2studio_2021_01_workspace_RZA2M_ANPR/ANPR_RZA2M_GR_MANGO/src/tensorflow_lite/third_party/flatbuffers/include/flatbuffers\flatbuffers.h ****   }
 237:C:/Renesas/e2studio_2021_01_workspace_RZA2M_ANPR/ANPR_RZA2M_GR_MANGO/src/tensorflow_lite/third_party/flatbuffers/include/flatbuffers\flatbuffers.h **** };
 238:C:/Renesas/e2studio_2021_01_workspace_RZA2M_ANPR/ANPR_RZA2M_GR_MANGO/src/tensorflow_lite/third_party/flatbuffers/include/flatbuffers\flatbuffers.h **** 
 239:C:/Renesas/e2studio_2021_01_workspace_RZA2M_ANPR/ANPR_RZA2M_GR_MANGO/src/tensorflow_lite/third_party/flatbuffers/include/flatbuffers\flatbuffers.h **** struct String;
 240:C:/Renesas/e2studio_2021_01_workspace_RZA2M_ANPR/ANPR_RZA2M_GR_MANGO/src/tensorflow_lite/third_party/flatbuffers/include/flatbuffers\flatbuffers.h **** 
 241:C:/Renesas/e2studio_2021_01_workspace_RZA2M_ANPR/ANPR_RZA2M_GR_MANGO/src/tensorflow_lite/third_party/flatbuffers/include/flatbuffers\flatbuffers.h **** // This is used as a helper type for accessing vectors.
 242:C:/Renesas/e2studio_2021_01_workspace_RZA2M_ANPR/ANPR_RZA2M_GR_MANGO/src/tensorflow_lite/third_party/flatbuffers/include/flatbuffers\flatbuffers.h **** // Vector::data() assumes the vector elements start after the length field.
 243:C:/Renesas/e2studio_2021_01_workspace_RZA2M_ANPR/ANPR_RZA2M_GR_MANGO/src/tensorflow_lite/third_party/flatbuffers/include/flatbuffers\flatbuffers.h **** template<typename T> class Vector {
 244:C:/Renesas/e2studio_2021_01_workspace_RZA2M_ANPR/ANPR_RZA2M_GR_MANGO/src/tensorflow_lite/third_party/flatbuffers/include/flatbuffers\flatbuffers.h ****  public:
 245:C:/Renesas/e2studio_2021_01_workspace_RZA2M_ANPR/ANPR_RZA2M_GR_MANGO/src/tensorflow_lite/third_party/flatbuffers/include/flatbuffers\flatbuffers.h ****   typedef VectorIterator<T, typename IndirectHelper<T>::mutable_return_type>
 246:C:/Renesas/e2studio_2021_01_workspace_RZA2M_ANPR/ANPR_RZA2M_GR_MANGO/src/tensorflow_lite/third_party/flatbuffers/include/flatbuffers\flatbuffers.h ****       iterator;
 247:C:/Renesas/e2studio_2021_01_workspace_RZA2M_ANPR/ANPR_RZA2M_GR_MANGO/src/tensorflow_lite/third_party/flatbuffers/include/flatbuffers\flatbuffers.h ****   typedef VectorIterator<T, typename IndirectHelper<T>::return_type>
 248:C:/Renesas/e2studio_2021_01_workspace_RZA2M_ANPR/ANPR_RZA2M_GR_MANGO/src/tensorflow_lite/third_party/flatbuffers/include/flatbuffers\flatbuffers.h ****       const_iterator;
 249:C:/Renesas/e2studio_2021_01_workspace_RZA2M_ANPR/ANPR_RZA2M_GR_MANGO/src/tensorflow_lite/third_party/flatbuffers/include/flatbuffers\flatbuffers.h ****   typedef VectorReverseIterator<iterator> reverse_iterator;
 250:C:/Renesas/e2studio_2021_01_workspace_RZA2M_ANPR/ANPR_RZA2M_GR_MANGO/src/tensorflow_lite/third_party/flatbuffers/include/flatbuffers\flatbuffers.h ****   typedef VectorReverseIterator<const_iterator> const_reverse_iterator;
 251:C:/Renesas/e2studio_2021_01_workspace_RZA2M_ANPR/ANPR_RZA2M_GR_MANGO/src/tensorflow_lite/third_party/flatbuffers/include/flatbuffers\flatbuffers.h **** 
 252:C:/Renesas/e2studio_2021_01_workspace_RZA2M_ANPR/ANPR_RZA2M_GR_MANGO/src/tensorflow_lite/third_party/flatbuffers/include/flatbuffers\flatbuffers.h ****   uoffset_t size() const { return EndianScalar(length_); }
 253:C:/Renesas/e2studio_2021_01_workspace_RZA2M_ANPR/ANPR_RZA2M_GR_MANGO/src/tensorflow_lite/third_party/flatbuffers/include/flatbuffers\flatbuffers.h **** 
 254:C:/Renesas/e2studio_2021_01_workspace_RZA2M_ANPR/ANPR_RZA2M_GR_MANGO/src/tensorflow_lite/third_party/flatbuffers/include/flatbuffers\flatbuffers.h ****   // Deprecated: use size(). Here for backwards compatibility.
 255:C:/Renesas/e2studio_2021_01_workspace_RZA2M_ANPR/ANPR_RZA2M_GR_MANGO/src/tensorflow_lite/third_party/flatbuffers/include/flatbuffers\flatbuffers.h ****   FLATBUFFERS_ATTRIBUTE(deprecated("use size() instead"))
 256:C:/Renesas/e2studio_2021_01_workspace_RZA2M_ANPR/ANPR_RZA2M_GR_MANGO/src/tensorflow_lite/third_party/flatbuffers/include/flatbuffers\flatbuffers.h ****   uoffset_t Length() const { return size(); }
 257:C:/Renesas/e2studio_2021_01_workspace_RZA2M_ANPR/ANPR_RZA2M_GR_MANGO/src/tensorflow_lite/third_party/flatbuffers/include/flatbuffers\flatbuffers.h **** 
 258:C:/Renesas/e2studio_2021_01_workspace_RZA2M_ANPR/ANPR_RZA2M_GR_MANGO/src/tensorflow_lite/third_party/flatbuffers/include/flatbuffers\flatbuffers.h ****   typedef typename IndirectHelper<T>::return_type return_type;
 259:C:/Renesas/e2studio_2021_01_workspace_RZA2M_ANPR/ANPR_RZA2M_GR_MANGO/src/tensorflow_lite/third_party/flatbuffers/include/flatbuffers\flatbuffers.h ****   typedef typename IndirectHelper<T>::mutable_return_type mutable_return_type;
 260:C:/Renesas/e2studio_2021_01_workspace_RZA2M_ANPR/ANPR_RZA2M_GR_MANGO/src/tensorflow_lite/third_party/flatbuffers/include/flatbuffers\flatbuffers.h **** 
 261:C:/Renesas/e2studio_2021_01_workspace_RZA2M_ANPR/ANPR_RZA2M_GR_MANGO/src/tensorflow_lite/third_party/flatbuffers/include/flatbuffers\flatbuffers.h ****   return_type Get(uoffset_t i) const {
 262:C:/Renesas/e2studio_2021_01_workspace_RZA2M_ANPR/ANPR_RZA2M_GR_MANGO/src/tensorflow_lite/third_party/flatbuffers/include/flatbuffers\flatbuffers.h ****     FLATBUFFERS_ASSERT(i < size());
 263:C:/Renesas/e2studio_2021_01_workspace_RZA2M_ANPR/ANPR_RZA2M_GR_MANGO/src/tensorflow_lite/third_party/flatbuffers/include/flatbuffers\flatbuffers.h ****     return IndirectHelper<T>::Read(Data(), i);
 264:C:/Renesas/e2studio_2021_01_workspace_RZA2M_ANPR/ANPR_RZA2M_GR_MANGO/src/tensorflow_lite/third_party/flatbuffers/include/flatbuffers\flatbuffers.h ****   }
 265:C:/Renesas/e2studio_2021_01_workspace_RZA2M_ANPR/ANPR_RZA2M_GR_MANGO/src/tensorflow_lite/third_party/flatbuffers/include/flatbuffers\flatbuffers.h **** 
 266:C:/Renesas/e2studio_2021_01_workspace_RZA2M_ANPR/ANPR_RZA2M_GR_MANGO/src/tensorflow_lite/third_party/flatbuffers/include/flatbuffers\flatbuffers.h ****   return_type operator[](uoffset_t i) const { return Get(i); }
 267:C:/Renesas/e2studio_2021_01_workspace_RZA2M_ANPR/ANPR_RZA2M_GR_MANGO/src/tensorflow_lite/third_party/flatbuffers/include/flatbuffers\flatbuffers.h **** 
 268:C:/Renesas/e2studio_2021_01_workspace_RZA2M_ANPR/ANPR_RZA2M_GR_MANGO/src/tensorflow_lite/third_party/flatbuffers/include/flatbuffers\flatbuffers.h ****   // If this is a Vector of enums, T will be its storage type, not the enum
 269:C:/Renesas/e2studio_2021_01_workspace_RZA2M_ANPR/ANPR_RZA2M_GR_MANGO/src/tensorflow_lite/third_party/flatbuffers/include/flatbuffers\flatbuffers.h ****   // type. This function makes it convenient to retrieve value with enum
 270:C:/Renesas/e2studio_2021_01_workspace_RZA2M_ANPR/ANPR_RZA2M_GR_MANGO/src/tensorflow_lite/third_party/flatbuffers/include/flatbuffers\flatbuffers.h ****   // type E.
 271:C:/Renesas/e2studio_2021_01_workspace_RZA2M_ANPR/ANPR_RZA2M_GR_MANGO/src/tensorflow_lite/third_party/flatbuffers/include/flatbuffers\flatbuffers.h ****   template<typename E> E GetEnum(uoffset_t i) const {
 272:C:/Renesas/e2studio_2021_01_workspace_RZA2M_ANPR/ANPR_RZA2M_GR_MANGO/src/tensorflow_lite/third_party/flatbuffers/include/flatbuffers\flatbuffers.h ****     return static_cast<E>(Get(i));
 273:C:/Renesas/e2studio_2021_01_workspace_RZA2M_ANPR/ANPR_RZA2M_GR_MANGO/src/tensorflow_lite/third_party/flatbuffers/include/flatbuffers\flatbuffers.h ****   }
 274:C:/Renesas/e2studio_2021_01_workspace_RZA2M_ANPR/ANPR_RZA2M_GR_MANGO/src/tensorflow_lite/third_party/flatbuffers/include/flatbuffers\flatbuffers.h **** 
 275:C:/Renesas/e2studio_2021_01_workspace_RZA2M_ANPR/ANPR_RZA2M_GR_MANGO/src/tensorflow_lite/third_party/flatbuffers/include/flatbuffers\flatbuffers.h ****   // If this a vector of unions, this does the cast for you. There's no check
 276:C:/Renesas/e2studio_2021_01_workspace_RZA2M_ANPR/ANPR_RZA2M_GR_MANGO/src/tensorflow_lite/third_party/flatbuffers/include/flatbuffers\flatbuffers.h ****   // to make sure this is the right type!
 277:C:/Renesas/e2studio_2021_01_workspace_RZA2M_ANPR/ANPR_RZA2M_GR_MANGO/src/tensorflow_lite/third_party/flatbuffers/include/flatbuffers\flatbuffers.h ****   template<typename U> const U *GetAs(uoffset_t i) const {
 278:C:/Renesas/e2studio_2021_01_workspace_RZA2M_ANPR/ANPR_RZA2M_GR_MANGO/src/tensorflow_lite/third_party/flatbuffers/include/flatbuffers\flatbuffers.h ****     return reinterpret_cast<const U *>(Get(i));
 279:C:/Renesas/e2studio_2021_01_workspace_RZA2M_ANPR/ANPR_RZA2M_GR_MANGO/src/tensorflow_lite/third_party/flatbuffers/include/flatbuffers\flatbuffers.h ****   }
 280:C:/Renesas/e2studio_2021_01_workspace_RZA2M_ANPR/ANPR_RZA2M_GR_MANGO/src/tensorflow_lite/third_party/flatbuffers/include/flatbuffers\flatbuffers.h **** 
 281:C:/Renesas/e2studio_2021_01_workspace_RZA2M_ANPR/ANPR_RZA2M_GR_MANGO/src/tensorflow_lite/third_party/flatbuffers/include/flatbuffers\flatbuffers.h ****   // If this a vector of unions, this does the cast for you. There's no check
 282:C:/Renesas/e2studio_2021_01_workspace_RZA2M_ANPR/ANPR_RZA2M_GR_MANGO/src/tensorflow_lite/third_party/flatbuffers/include/flatbuffers\flatbuffers.h ****   // to make sure this is actually a string!
 283:C:/Renesas/e2studio_2021_01_workspace_RZA2M_ANPR/ANPR_RZA2M_GR_MANGO/src/tensorflow_lite/third_party/flatbuffers/include/flatbuffers\flatbuffers.h ****   const String *GetAsString(uoffset_t i) const {
 284:C:/Renesas/e2studio_2021_01_workspace_RZA2M_ANPR/ANPR_RZA2M_GR_MANGO/src/tensorflow_lite/third_party/flatbuffers/include/flatbuffers\flatbuffers.h ****     return reinterpret_cast<const String *>(Get(i));
 285:C:/Renesas/e2studio_2021_01_workspace_RZA2M_ANPR/ANPR_RZA2M_GR_MANGO/src/tensorflow_lite/third_party/flatbuffers/include/flatbuffers\flatbuffers.h ****   }
 286:C:/Renesas/e2studio_2021_01_workspace_RZA2M_ANPR/ANPR_RZA2M_GR_MANGO/src/tensorflow_lite/third_party/flatbuffers/include/flatbuffers\flatbuffers.h **** 
 287:C:/Renesas/e2studio_2021_01_workspace_RZA2M_ANPR/ANPR_RZA2M_GR_MANGO/src/tensorflow_lite/third_party/flatbuffers/include/flatbuffers\flatbuffers.h ****   const void *GetStructFromOffset(size_t o) const {
 288:C:/Renesas/e2studio_2021_01_workspace_RZA2M_ANPR/ANPR_RZA2M_GR_MANGO/src/tensorflow_lite/third_party/flatbuffers/include/flatbuffers\flatbuffers.h ****     return reinterpret_cast<const void *>(Data() + o);
 289:C:/Renesas/e2studio_2021_01_workspace_RZA2M_ANPR/ANPR_RZA2M_GR_MANGO/src/tensorflow_lite/third_party/flatbuffers/include/flatbuffers\flatbuffers.h ****   }
 290:C:/Renesas/e2studio_2021_01_workspace_RZA2M_ANPR/ANPR_RZA2M_GR_MANGO/src/tensorflow_lite/third_party/flatbuffers/include/flatbuffers\flatbuffers.h **** 
 291:C:/Renesas/e2studio_2021_01_workspace_RZA2M_ANPR/ANPR_RZA2M_GR_MANGO/src/tensorflow_lite/third_party/flatbuffers/include/flatbuffers\flatbuffers.h ****   iterator begin() { return iterator(Data(), 0); }
 292:C:/Renesas/e2studio_2021_01_workspace_RZA2M_ANPR/ANPR_RZA2M_GR_MANGO/src/tensorflow_lite/third_party/flatbuffers/include/flatbuffers\flatbuffers.h ****   const_iterator begin() const { return const_iterator(Data(), 0); }
 293:C:/Renesas/e2studio_2021_01_workspace_RZA2M_ANPR/ANPR_RZA2M_GR_MANGO/src/tensorflow_lite/third_party/flatbuffers/include/flatbuffers\flatbuffers.h **** 
 294:C:/Renesas/e2studio_2021_01_workspace_RZA2M_ANPR/ANPR_RZA2M_GR_MANGO/src/tensorflow_lite/third_party/flatbuffers/include/flatbuffers\flatbuffers.h ****   iterator end() { return iterator(Data(), size()); }
 295:C:/Renesas/e2studio_2021_01_workspace_RZA2M_ANPR/ANPR_RZA2M_GR_MANGO/src/tensorflow_lite/third_party/flatbuffers/include/flatbuffers\flatbuffers.h ****   const_iterator end() const { return const_iterator(Data(), size()); }
 296:C:/Renesas/e2studio_2021_01_workspace_RZA2M_ANPR/ANPR_RZA2M_GR_MANGO/src/tensorflow_lite/third_party/flatbuffers/include/flatbuffers\flatbuffers.h **** 
 297:C:/Renesas/e2studio_2021_01_workspace_RZA2M_ANPR/ANPR_RZA2M_GR_MANGO/src/tensorflow_lite/third_party/flatbuffers/include/flatbuffers\flatbuffers.h ****   reverse_iterator rbegin() { return reverse_iterator(end() - 1); }
 298:C:/Renesas/e2studio_2021_01_workspace_RZA2M_ANPR/ANPR_RZA2M_GR_MANGO/src/tensorflow_lite/third_party/flatbuffers/include/flatbuffers\flatbuffers.h ****   const_reverse_iterator rbegin() const {
 299:C:/Renesas/e2studio_2021_01_workspace_RZA2M_ANPR/ANPR_RZA2M_GR_MANGO/src/tensorflow_lite/third_party/flatbuffers/include/flatbuffers\flatbuffers.h ****     return const_reverse_iterator(end() - 1);
 300:C:/Renesas/e2studio_2021_01_workspace_RZA2M_ANPR/ANPR_RZA2M_GR_MANGO/src/tensorflow_lite/third_party/flatbuffers/include/flatbuffers\flatbuffers.h ****   }
 301:C:/Renesas/e2studio_2021_01_workspace_RZA2M_ANPR/ANPR_RZA2M_GR_MANGO/src/tensorflow_lite/third_party/flatbuffers/include/flatbuffers\flatbuffers.h **** 
 302:C:/Renesas/e2studio_2021_01_workspace_RZA2M_ANPR/ANPR_RZA2M_GR_MANGO/src/tensorflow_lite/third_party/flatbuffers/include/flatbuffers\flatbuffers.h ****   reverse_iterator rend() { return reverse_iterator(begin() - 1); }
 303:C:/Renesas/e2studio_2021_01_workspace_RZA2M_ANPR/ANPR_RZA2M_GR_MANGO/src/tensorflow_lite/third_party/flatbuffers/include/flatbuffers\flatbuffers.h ****   const_reverse_iterator rend() const {
 304:C:/Renesas/e2studio_2021_01_workspace_RZA2M_ANPR/ANPR_RZA2M_GR_MANGO/src/tensorflow_lite/third_party/flatbuffers/include/flatbuffers\flatbuffers.h ****     return const_reverse_iterator(begin() - 1);
 305:C:/Renesas/e2studio_2021_01_workspace_RZA2M_ANPR/ANPR_RZA2M_GR_MANGO/src/tensorflow_lite/third_party/flatbuffers/include/flatbuffers\flatbuffers.h ****   }
 306:C:/Renesas/e2studio_2021_01_workspace_RZA2M_ANPR/ANPR_RZA2M_GR_MANGO/src/tensorflow_lite/third_party/flatbuffers/include/flatbuffers\flatbuffers.h **** 
 307:C:/Renesas/e2studio_2021_01_workspace_RZA2M_ANPR/ANPR_RZA2M_GR_MANGO/src/tensorflow_lite/third_party/flatbuffers/include/flatbuffers\flatbuffers.h ****   const_iterator cbegin() const { return begin(); }
 308:C:/Renesas/e2studio_2021_01_workspace_RZA2M_ANPR/ANPR_RZA2M_GR_MANGO/src/tensorflow_lite/third_party/flatbuffers/include/flatbuffers\flatbuffers.h **** 
 309:C:/Renesas/e2studio_2021_01_workspace_RZA2M_ANPR/ANPR_RZA2M_GR_MANGO/src/tensorflow_lite/third_party/flatbuffers/include/flatbuffers\flatbuffers.h ****   const_iterator cend() const { return end(); }
 310:C:/Renesas/e2studio_2021_01_workspace_RZA2M_ANPR/ANPR_RZA2M_GR_MANGO/src/tensorflow_lite/third_party/flatbuffers/include/flatbuffers\flatbuffers.h **** 
 311:C:/Renesas/e2studio_2021_01_workspace_RZA2M_ANPR/ANPR_RZA2M_GR_MANGO/src/tensorflow_lite/third_party/flatbuffers/include/flatbuffers\flatbuffers.h ****   const_reverse_iterator crbegin() const { return rbegin(); }
 312:C:/Renesas/e2studio_2021_01_workspace_RZA2M_ANPR/ANPR_RZA2M_GR_MANGO/src/tensorflow_lite/third_party/flatbuffers/include/flatbuffers\flatbuffers.h **** 
 313:C:/Renesas/e2studio_2021_01_workspace_RZA2M_ANPR/ANPR_RZA2M_GR_MANGO/src/tensorflow_lite/third_party/flatbuffers/include/flatbuffers\flatbuffers.h ****   const_reverse_iterator crend() const { return rend(); }
 314:C:/Renesas/e2studio_2021_01_workspace_RZA2M_ANPR/ANPR_RZA2M_GR_MANGO/src/tensorflow_lite/third_party/flatbuffers/include/flatbuffers\flatbuffers.h **** 
 315:C:/Renesas/e2studio_2021_01_workspace_RZA2M_ANPR/ANPR_RZA2M_GR_MANGO/src/tensorflow_lite/third_party/flatbuffers/include/flatbuffers\flatbuffers.h ****   // Change elements if you have a non-const pointer to this object.
 316:C:/Renesas/e2studio_2021_01_workspace_RZA2M_ANPR/ANPR_RZA2M_GR_MANGO/src/tensorflow_lite/third_party/flatbuffers/include/flatbuffers\flatbuffers.h ****   // Scalars only. See reflection.h, and the documentation.
 317:C:/Renesas/e2studio_2021_01_workspace_RZA2M_ANPR/ANPR_RZA2M_GR_MANGO/src/tensorflow_lite/third_party/flatbuffers/include/flatbuffers\flatbuffers.h ****   void Mutate(uoffset_t i, const T &val) {
 318:C:/Renesas/e2studio_2021_01_workspace_RZA2M_ANPR/ANPR_RZA2M_GR_MANGO/src/tensorflow_lite/third_party/flatbuffers/include/flatbuffers\flatbuffers.h ****     FLATBUFFERS_ASSERT(i < size());
 319:C:/Renesas/e2studio_2021_01_workspace_RZA2M_ANPR/ANPR_RZA2M_GR_MANGO/src/tensorflow_lite/third_party/flatbuffers/include/flatbuffers\flatbuffers.h ****     WriteScalar(data() + i, val);
 320:C:/Renesas/e2studio_2021_01_workspace_RZA2M_ANPR/ANPR_RZA2M_GR_MANGO/src/tensorflow_lite/third_party/flatbuffers/include/flatbuffers\flatbuffers.h ****   }
 321:C:/Renesas/e2studio_2021_01_workspace_RZA2M_ANPR/ANPR_RZA2M_GR_MANGO/src/tensorflow_lite/third_party/flatbuffers/include/flatbuffers\flatbuffers.h **** 
 322:C:/Renesas/e2studio_2021_01_workspace_RZA2M_ANPR/ANPR_RZA2M_GR_MANGO/src/tensorflow_lite/third_party/flatbuffers/include/flatbuffers\flatbuffers.h ****   // Change an element of a vector of tables (or strings).
 323:C:/Renesas/e2studio_2021_01_workspace_RZA2M_ANPR/ANPR_RZA2M_GR_MANGO/src/tensorflow_lite/third_party/flatbuffers/include/flatbuffers\flatbuffers.h ****   // "val" points to the new table/string, as you can obtain from
 324:C:/Renesas/e2studio_2021_01_workspace_RZA2M_ANPR/ANPR_RZA2M_GR_MANGO/src/tensorflow_lite/third_party/flatbuffers/include/flatbuffers\flatbuffers.h ****   // e.g. reflection::AddFlatBuffer().
 325:C:/Renesas/e2studio_2021_01_workspace_RZA2M_ANPR/ANPR_RZA2M_GR_MANGO/src/tensorflow_lite/third_party/flatbuffers/include/flatbuffers\flatbuffers.h ****   void MutateOffset(uoffset_t i, const uint8_t *val) {
 326:C:/Renesas/e2studio_2021_01_workspace_RZA2M_ANPR/ANPR_RZA2M_GR_MANGO/src/tensorflow_lite/third_party/flatbuffers/include/flatbuffers\flatbuffers.h ****     FLATBUFFERS_ASSERT(i < size());
 327:C:/Renesas/e2studio_2021_01_workspace_RZA2M_ANPR/ANPR_RZA2M_GR_MANGO/src/tensorflow_lite/third_party/flatbuffers/include/flatbuffers\flatbuffers.h ****     static_assert(sizeof(T) == sizeof(uoffset_t), "Unrelated types");
 328:C:/Renesas/e2studio_2021_01_workspace_RZA2M_ANPR/ANPR_RZA2M_GR_MANGO/src/tensorflow_lite/third_party/flatbuffers/include/flatbuffers\flatbuffers.h ****     WriteScalar(data() + i,
 329:C:/Renesas/e2studio_2021_01_workspace_RZA2M_ANPR/ANPR_RZA2M_GR_MANGO/src/tensorflow_lite/third_party/flatbuffers/include/flatbuffers\flatbuffers.h ****                 static_cast<uoffset_t>(val - (Data() + i * sizeof(uoffset_t))));
 330:C:/Renesas/e2studio_2021_01_workspace_RZA2M_ANPR/ANPR_RZA2M_GR_MANGO/src/tensorflow_lite/third_party/flatbuffers/include/flatbuffers\flatbuffers.h ****   }
 331:C:/Renesas/e2studio_2021_01_workspace_RZA2M_ANPR/ANPR_RZA2M_GR_MANGO/src/tensorflow_lite/third_party/flatbuffers/include/flatbuffers\flatbuffers.h **** 
 332:C:/Renesas/e2studio_2021_01_workspace_RZA2M_ANPR/ANPR_RZA2M_GR_MANGO/src/tensorflow_lite/third_party/flatbuffers/include/flatbuffers\flatbuffers.h ****   // Get a mutable pointer to tables/strings inside this vector.
 333:C:/Renesas/e2studio_2021_01_workspace_RZA2M_ANPR/ANPR_RZA2M_GR_MANGO/src/tensorflow_lite/third_party/flatbuffers/include/flatbuffers\flatbuffers.h ****   mutable_return_type GetMutableObject(uoffset_t i) const {
 334:C:/Renesas/e2studio_2021_01_workspace_RZA2M_ANPR/ANPR_RZA2M_GR_MANGO/src/tensorflow_lite/third_party/flatbuffers/include/flatbuffers\flatbuffers.h ****     FLATBUFFERS_ASSERT(i < size());
 335:C:/Renesas/e2studio_2021_01_workspace_RZA2M_ANPR/ANPR_RZA2M_GR_MANGO/src/tensorflow_lite/third_party/flatbuffers/include/flatbuffers\flatbuffers.h ****     return const_cast<mutable_return_type>(IndirectHelper<T>::Read(Data(), i));
 336:C:/Renesas/e2studio_2021_01_workspace_RZA2M_ANPR/ANPR_RZA2M_GR_MANGO/src/tensorflow_lite/third_party/flatbuffers/include/flatbuffers\flatbuffers.h ****   }
 337:C:/Renesas/e2studio_2021_01_workspace_RZA2M_ANPR/ANPR_RZA2M_GR_MANGO/src/tensorflow_lite/third_party/flatbuffers/include/flatbuffers\flatbuffers.h **** 
 338:C:/Renesas/e2studio_2021_01_workspace_RZA2M_ANPR/ANPR_RZA2M_GR_MANGO/src/tensorflow_lite/third_party/flatbuffers/include/flatbuffers\flatbuffers.h ****   // The raw data in little endian format. Use with care.
 339:C:/Renesas/e2studio_2021_01_workspace_RZA2M_ANPR/ANPR_RZA2M_GR_MANGO/src/tensorflow_lite/third_party/flatbuffers/include/flatbuffers\flatbuffers.h ****   const uint8_t *Data() const {
 340:C:/Renesas/e2studio_2021_01_workspace_RZA2M_ANPR/ANPR_RZA2M_GR_MANGO/src/tensorflow_lite/third_party/flatbuffers/include/flatbuffers\flatbuffers.h ****     return reinterpret_cast<const uint8_t *>(&length_ + 1);
 341:C:/Renesas/e2studio_2021_01_workspace_RZA2M_ANPR/ANPR_RZA2M_GR_MANGO/src/tensorflow_lite/third_party/flatbuffers/include/flatbuffers\flatbuffers.h ****   }
 342:C:/Renesas/e2studio_2021_01_workspace_RZA2M_ANPR/ANPR_RZA2M_GR_MANGO/src/tensorflow_lite/third_party/flatbuffers/include/flatbuffers\flatbuffers.h **** 
 343:C:/Renesas/e2studio_2021_01_workspace_RZA2M_ANPR/ANPR_RZA2M_GR_MANGO/src/tensorflow_lite/third_party/flatbuffers/include/flatbuffers\flatbuffers.h ****   uint8_t *Data() { return reinterpret_cast<uint8_t *>(&length_ + 1); }
 344:C:/Renesas/e2studio_2021_01_workspace_RZA2M_ANPR/ANPR_RZA2M_GR_MANGO/src/tensorflow_lite/third_party/flatbuffers/include/flatbuffers\flatbuffers.h **** 
 345:C:/Renesas/e2studio_2021_01_workspace_RZA2M_ANPR/ANPR_RZA2M_GR_MANGO/src/tensorflow_lite/third_party/flatbuffers/include/flatbuffers\flatbuffers.h ****   // Similarly, but typed, much like std::vector::data
 346:C:/Renesas/e2studio_2021_01_workspace_RZA2M_ANPR/ANPR_RZA2M_GR_MANGO/src/tensorflow_lite/third_party/flatbuffers/include/flatbuffers\flatbuffers.h ****   const T *data() const { return reinterpret_cast<const T *>(Data()); }
 347:C:/Renesas/e2studio_2021_01_workspace_RZA2M_ANPR/ANPR_RZA2M_GR_MANGO/src/tensorflow_lite/third_party/flatbuffers/include/flatbuffers\flatbuffers.h ****   T *data() { return reinterpret_cast<T *>(Data()); }
 348:C:/Renesas/e2studio_2021_01_workspace_RZA2M_ANPR/ANPR_RZA2M_GR_MANGO/src/tensorflow_lite/third_party/flatbuffers/include/flatbuffers\flatbuffers.h **** 
 349:C:/Renesas/e2studio_2021_01_workspace_RZA2M_ANPR/ANPR_RZA2M_GR_MANGO/src/tensorflow_lite/third_party/flatbuffers/include/flatbuffers\flatbuffers.h ****   template<typename K> return_type LookupByKey(K key) const {
 350:C:/Renesas/e2studio_2021_01_workspace_RZA2M_ANPR/ANPR_RZA2M_GR_MANGO/src/tensorflow_lite/third_party/flatbuffers/include/flatbuffers\flatbuffers.h ****     void *search_result = std::bsearch(
 351:C:/Renesas/e2studio_2021_01_workspace_RZA2M_ANPR/ANPR_RZA2M_GR_MANGO/src/tensorflow_lite/third_party/flatbuffers/include/flatbuffers\flatbuffers.h ****         &key, Data(), size(), IndirectHelper<T>::element_stride, KeyCompare<K>);
 352:C:/Renesas/e2studio_2021_01_workspace_RZA2M_ANPR/ANPR_RZA2M_GR_MANGO/src/tensorflow_lite/third_party/flatbuffers/include/flatbuffers\flatbuffers.h **** 
 353:C:/Renesas/e2studio_2021_01_workspace_RZA2M_ANPR/ANPR_RZA2M_GR_MANGO/src/tensorflow_lite/third_party/flatbuffers/include/flatbuffers\flatbuffers.h ****     if (!search_result) {
 354:C:/Renesas/e2studio_2021_01_workspace_RZA2M_ANPR/ANPR_RZA2M_GR_MANGO/src/tensorflow_lite/third_party/flatbuffers/include/flatbuffers\flatbuffers.h ****       return nullptr;  // Key not found.
 355:C:/Renesas/e2studio_2021_01_workspace_RZA2M_ANPR/ANPR_RZA2M_GR_MANGO/src/tensorflow_lite/third_party/flatbuffers/include/flatbuffers\flatbuffers.h ****     }
 356:C:/Renesas/e2studio_2021_01_workspace_RZA2M_ANPR/ANPR_RZA2M_GR_MANGO/src/tensorflow_lite/third_party/flatbuffers/include/flatbuffers\flatbuffers.h **** 
 357:C:/Renesas/e2studio_2021_01_workspace_RZA2M_ANPR/ANPR_RZA2M_GR_MANGO/src/tensorflow_lite/third_party/flatbuffers/include/flatbuffers\flatbuffers.h ****     const uint8_t *element = reinterpret_cast<const uint8_t *>(search_result);
 358:C:/Renesas/e2studio_2021_01_workspace_RZA2M_ANPR/ANPR_RZA2M_GR_MANGO/src/tensorflow_lite/third_party/flatbuffers/include/flatbuffers\flatbuffers.h **** 
 359:C:/Renesas/e2studio_2021_01_workspace_RZA2M_ANPR/ANPR_RZA2M_GR_MANGO/src/tensorflow_lite/third_party/flatbuffers/include/flatbuffers\flatbuffers.h ****     return IndirectHelper<T>::Read(element, 0);
 360:C:/Renesas/e2studio_2021_01_workspace_RZA2M_ANPR/ANPR_RZA2M_GR_MANGO/src/tensorflow_lite/third_party/flatbuffers/include/flatbuffers\flatbuffers.h ****   }
 361:C:/Renesas/e2studio_2021_01_workspace_RZA2M_ANPR/ANPR_RZA2M_GR_MANGO/src/tensorflow_lite/third_party/flatbuffers/include/flatbuffers\flatbuffers.h **** 
 362:C:/Renesas/e2studio_2021_01_workspace_RZA2M_ANPR/ANPR_RZA2M_GR_MANGO/src/tensorflow_lite/third_party/flatbuffers/include/flatbuffers\flatbuffers.h ****  protected:
 363:C:/Renesas/e2studio_2021_01_workspace_RZA2M_ANPR/ANPR_RZA2M_GR_MANGO/src/tensorflow_lite/third_party/flatbuffers/include/flatbuffers\flatbuffers.h ****   // This class is only used to access pre-existing data. Don't ever
 364:C:/Renesas/e2studio_2021_01_workspace_RZA2M_ANPR/ANPR_RZA2M_GR_MANGO/src/tensorflow_lite/third_party/flatbuffers/include/flatbuffers\flatbuffers.h ****   // try to construct these manually.
 365:C:/Renesas/e2studio_2021_01_workspace_RZA2M_ANPR/ANPR_RZA2M_GR_MANGO/src/tensorflow_lite/third_party/flatbuffers/include/flatbuffers\flatbuffers.h ****   Vector();
 366:C:/Renesas/e2studio_2021_01_workspace_RZA2M_ANPR/ANPR_RZA2M_GR_MANGO/src/tensorflow_lite/third_party/flatbuffers/include/flatbuffers\flatbuffers.h **** 
 367:C:/Renesas/e2studio_2021_01_workspace_RZA2M_ANPR/ANPR_RZA2M_GR_MANGO/src/tensorflow_lite/third_party/flatbuffers/include/flatbuffers\flatbuffers.h ****   uoffset_t length_;
 368:C:/Renesas/e2studio_2021_01_workspace_RZA2M_ANPR/ANPR_RZA2M_GR_MANGO/src/tensorflow_lite/third_party/flatbuffers/include/flatbuffers\flatbuffers.h **** 
 369:C:/Renesas/e2studio_2021_01_workspace_RZA2M_ANPR/ANPR_RZA2M_GR_MANGO/src/tensorflow_lite/third_party/flatbuffers/include/flatbuffers\flatbuffers.h ****  private:
 370:C:/Renesas/e2studio_2021_01_workspace_RZA2M_ANPR/ANPR_RZA2M_GR_MANGO/src/tensorflow_lite/third_party/flatbuffers/include/flatbuffers\flatbuffers.h ****   // This class is a pointer. Copying will therefore create an invalid object.
 371:C:/Renesas/e2studio_2021_01_workspace_RZA2M_ANPR/ANPR_RZA2M_GR_MANGO/src/tensorflow_lite/third_party/flatbuffers/include/flatbuffers\flatbuffers.h ****   // Private and unimplemented copy constructor.
 372:C:/Renesas/e2studio_2021_01_workspace_RZA2M_ANPR/ANPR_RZA2M_GR_MANGO/src/tensorflow_lite/third_party/flatbuffers/include/flatbuffers\flatbuffers.h ****   Vector(const Vector &);
 373:C:/Renesas/e2studio_2021_01_workspace_RZA2M_ANPR/ANPR_RZA2M_GR_MANGO/src/tensorflow_lite/third_party/flatbuffers/include/flatbuffers\flatbuffers.h ****   Vector &operator=(const Vector &);
 374:C:/Renesas/e2studio_2021_01_workspace_RZA2M_ANPR/ANPR_RZA2M_GR_MANGO/src/tensorflow_lite/third_party/flatbuffers/include/flatbuffers\flatbuffers.h **** 
 375:C:/Renesas/e2studio_2021_01_workspace_RZA2M_ANPR/ANPR_RZA2M_GR_MANGO/src/tensorflow_lite/third_party/flatbuffers/include/flatbuffers\flatbuffers.h ****   template<typename K> static int KeyCompare(const void *ap, const void *bp) {
 376:C:/Renesas/e2studio_2021_01_workspace_RZA2M_ANPR/ANPR_RZA2M_GR_MANGO/src/tensorflow_lite/third_party/flatbuffers/include/flatbuffers\flatbuffers.h ****     const K *key = reinterpret_cast<const K *>(ap);
 377:C:/Renesas/e2studio_2021_01_workspace_RZA2M_ANPR/ANPR_RZA2M_GR_MANGO/src/tensorflow_lite/third_party/flatbuffers/include/flatbuffers\flatbuffers.h ****     const uint8_t *data = reinterpret_cast<const uint8_t *>(bp);
 378:C:/Renesas/e2studio_2021_01_workspace_RZA2M_ANPR/ANPR_RZA2M_GR_MANGO/src/tensorflow_lite/third_party/flatbuffers/include/flatbuffers\flatbuffers.h ****     auto table = IndirectHelper<T>::Read(data, 0);
 379:C:/Renesas/e2studio_2021_01_workspace_RZA2M_ANPR/ANPR_RZA2M_GR_MANGO/src/tensorflow_lite/third_party/flatbuffers/include/flatbuffers\flatbuffers.h **** 
 380:C:/Renesas/e2studio_2021_01_workspace_RZA2M_ANPR/ANPR_RZA2M_GR_MANGO/src/tensorflow_lite/third_party/flatbuffers/include/flatbuffers\flatbuffers.h ****     // std::bsearch compares with the operands transposed, so we negate the
 381:C:/Renesas/e2studio_2021_01_workspace_RZA2M_ANPR/ANPR_RZA2M_GR_MANGO/src/tensorflow_lite/third_party/flatbuffers/include/flatbuffers\flatbuffers.h ****     // result here.
 382:C:/Renesas/e2studio_2021_01_workspace_RZA2M_ANPR/ANPR_RZA2M_GR_MANGO/src/tensorflow_lite/third_party/flatbuffers/include/flatbuffers\flatbuffers.h ****     return -table->KeyCompareWithValue(*key);
 383:C:/Renesas/e2studio_2021_01_workspace_RZA2M_ANPR/ANPR_RZA2M_GR_MANGO/src/tensorflow_lite/third_party/flatbuffers/include/flatbuffers\flatbuffers.h ****   }
 384:C:/Renesas/e2studio_2021_01_workspace_RZA2M_ANPR/ANPR_RZA2M_GR_MANGO/src/tensorflow_lite/third_party/flatbuffers/include/flatbuffers\flatbuffers.h **** };
 385:C:/Renesas/e2studio_2021_01_workspace_RZA2M_ANPR/ANPR_RZA2M_GR_MANGO/src/tensorflow_lite/third_party/flatbuffers/include/flatbuffers\flatbuffers.h **** 
 386:C:/Renesas/e2studio_2021_01_workspace_RZA2M_ANPR/ANPR_RZA2M_GR_MANGO/src/tensorflow_lite/third_party/flatbuffers/include/flatbuffers\flatbuffers.h **** // Represent a vector much like the template above, but in this case we
 387:C:/Renesas/e2studio_2021_01_workspace_RZA2M_ANPR/ANPR_RZA2M_GR_MANGO/src/tensorflow_lite/third_party/flatbuffers/include/flatbuffers\flatbuffers.h **** // don't know what the element types are (used with reflection.h).
 388:C:/Renesas/e2studio_2021_01_workspace_RZA2M_ANPR/ANPR_RZA2M_GR_MANGO/src/tensorflow_lite/third_party/flatbuffers/include/flatbuffers\flatbuffers.h **** class VectorOfAny {
 389:C:/Renesas/e2studio_2021_01_workspace_RZA2M_ANPR/ANPR_RZA2M_GR_MANGO/src/tensorflow_lite/third_party/flatbuffers/include/flatbuffers\flatbuffers.h ****  public:
 390:C:/Renesas/e2studio_2021_01_workspace_RZA2M_ANPR/ANPR_RZA2M_GR_MANGO/src/tensorflow_lite/third_party/flatbuffers/include/flatbuffers\flatbuffers.h ****   uoffset_t size() const { return EndianScalar(length_); }
 391:C:/Renesas/e2studio_2021_01_workspace_RZA2M_ANPR/ANPR_RZA2M_GR_MANGO/src/tensorflow_lite/third_party/flatbuffers/include/flatbuffers\flatbuffers.h **** 
 392:C:/Renesas/e2studio_2021_01_workspace_RZA2M_ANPR/ANPR_RZA2M_GR_MANGO/src/tensorflow_lite/third_party/flatbuffers/include/flatbuffers\flatbuffers.h ****   const uint8_t *Data() const {
 393:C:/Renesas/e2studio_2021_01_workspace_RZA2M_ANPR/ANPR_RZA2M_GR_MANGO/src/tensorflow_lite/third_party/flatbuffers/include/flatbuffers\flatbuffers.h ****     return reinterpret_cast<const uint8_t *>(&length_ + 1);
 394:C:/Renesas/e2studio_2021_01_workspace_RZA2M_ANPR/ANPR_RZA2M_GR_MANGO/src/tensorflow_lite/third_party/flatbuffers/include/flatbuffers\flatbuffers.h ****   }
