   1              		.cpu cortex-a9
   2              		.eabi_attribute 28, 1
   3              		.eabi_attribute 20, 1
   4              		.eabi_attribute 21, 1
   5              		.eabi_attribute 23, 3
   6              		.eabi_attribute 24, 1
   7              		.eabi_attribute 25, 1
   8              		.eabi_attribute 26, 1
   9              		.eabi_attribute 30, 1
  10              		.eabi_attribute 34, 0
  11              		.eabi_attribute 18, 4
  12              		.file	"hyperbus_ram_rza2m.c"
  13              		.text
  14              	.Ltext0:
  15              		.cfi_sections	.debug_frame
  16              		.section	.text.HyperRAM_ReadID0,"ax",%progbits
  17              		.align	2
  18              		.global	HyperRAM_ReadID0
  19              		.syntax unified
  20              		.arm
  21              		.fpu neon
  23              	HyperRAM_ReadID0:
  24              	.LFB0:
  25              		.file 1 "../src/renesas/hwsetup/hyperbus_setup/src/hyperbus_ram_rza2m.c"
   1:../src/renesas/hwsetup/hyperbus_setup/src/hyperbus_ram_rza2m.c **** /**************************************************************************************************
   2:../src/renesas/hwsetup/hyperbus_setup/src/hyperbus_ram_rza2m.c ****  * DISCLAIMER
   3:../src/renesas/hwsetup/hyperbus_setup/src/hyperbus_ram_rza2m.c ****  * This software is supplied by Renesas Electronics Corporation and is only intended for use with R
   4:../src/renesas/hwsetup/hyperbus_setup/src/hyperbus_ram_rza2m.c ****  * other uses are authorized. This software is owned by Renesas Electronics Corporation and is prot
   5:../src/renesas/hwsetup/hyperbus_setup/src/hyperbus_ram_rza2m.c ****  * applicable laws, including copyright laws.
   6:../src/renesas/hwsetup/hyperbus_setup/src/hyperbus_ram_rza2m.c ****  * THIS SOFTWARE IS PROVIDED "AS IS" AND RENESAS MAKES NO WARRANTIES REGARDING
   7:../src/renesas/hwsetup/hyperbus_setup/src/hyperbus_ram_rza2m.c ****  * THIS SOFTWARE, WHETHER EXPRESS, IMPLIED OR STATUTORY, INCLUDING BUT NOT LIMITED TO WARRANTIES OF
   8:../src/renesas/hwsetup/hyperbus_setup/src/hyperbus_ram_rza2m.c ****  * FITNESS FOR A PARTICULAR PURPOSE AND NON-INFRINGEMENT. ALL SUCH WARRANTIES ARE EXPRESSLY DISCLAI
   9:../src/renesas/hwsetup/hyperbus_setup/src/hyperbus_ram_rza2m.c ****  * EXTENT PERMITTED NOT PROHIBITED BY LAW, NEITHER RENESAS ELECTRONICS CORPORATION NOR ANY OF ITS A
  10:../src/renesas/hwsetup/hyperbus_setup/src/hyperbus_ram_rza2m.c ****  * SHALL BE LIABLE FOR ANY DIRECT, INDIRECT, SPECIAL, INCIDENTAL OR CONSEQUENTIAL DAMAGES FOR ANY R
  11:../src/renesas/hwsetup/hyperbus_setup/src/hyperbus_ram_rza2m.c ****  * THIS SOFTWARE, EVEN IF RENESAS OR ITS AFFILIATES HAVE BEEN ADVISED OF THE POSSIBILITY OF SUCH DA
  12:../src/renesas/hwsetup/hyperbus_setup/src/hyperbus_ram_rza2m.c ****  * Renesas reserves the right, without notice, to make changes to this software and to discontinue 
  13:../src/renesas/hwsetup/hyperbus_setup/src/hyperbus_ram_rza2m.c ****  * this software. By using this software, you agree to the additional terms and conditions found by
  14:../src/renesas/hwsetup/hyperbus_setup/src/hyperbus_ram_rza2m.c ****  * following link:
  15:../src/renesas/hwsetup/hyperbus_setup/src/hyperbus_ram_rza2m.c ****  * http://www.renesas.com/disclaimer
  16:../src/renesas/hwsetup/hyperbus_setup/src/hyperbus_ram_rza2m.c ****  *
  17:../src/renesas/hwsetup/hyperbus_setup/src/hyperbus_ram_rza2m.c ****  * Copyright (C) 2019 Renesas Electronics Corporation. All rights reserved.
  18:../src/renesas/hwsetup/hyperbus_setup/src/hyperbus_ram_rza2m.c ****  **************************************************************************************************
  19:../src/renesas/hwsetup/hyperbus_setup/src/hyperbus_ram_rza2m.c **** /**************************************************************************************************
  20:../src/renesas/hwsetup/hyperbus_setup/src/hyperbus_ram_rza2m.c ****  * File Name    : hyperbus_ram_rza2m.c
  21:../src/renesas/hwsetup/hyperbus_setup/src/hyperbus_ram_rza2m.c ****  * Version      : 1.0
  22:../src/renesas/hwsetup/hyperbus_setup/src/hyperbus_ram_rza2m.c ****  * Description  : API function of HyperRAM
  23:../src/renesas/hwsetup/hyperbus_setup/src/hyperbus_ram_rza2m.c ****  **************************************************************************************************
  24:../src/renesas/hwsetup/hyperbus_setup/src/hyperbus_ram_rza2m.c **** /**************************************************************************************************
  25:../src/renesas/hwsetup/hyperbus_setup/src/hyperbus_ram_rza2m.c ****  * History : DD.MM.YYYY Version  Description
  26:../src/renesas/hwsetup/hyperbus_setup/src/hyperbus_ram_rza2m.c ****  *         : 01.01.2019 1.00     First Release
  27:../src/renesas/hwsetup/hyperbus_setup/src/hyperbus_ram_rza2m.c ****  **************************************************************************************************
  28:../src/renesas/hwsetup/hyperbus_setup/src/hyperbus_ram_rza2m.c **** 
  29:../src/renesas/hwsetup/hyperbus_setup/src/hyperbus_ram_rza2m.c **** /**************************************************************************************************
  30:../src/renesas/hwsetup/hyperbus_setup/src/hyperbus_ram_rza2m.c ****  Includes   <System Includes> , "Project Includes"
  31:../src/renesas/hwsetup/hyperbus_setup/src/hyperbus_ram_rza2m.c ****  **************************************************************************************************
  32:../src/renesas/hwsetup/hyperbus_setup/src/hyperbus_ram_rza2m.c **** 
  33:../src/renesas/hwsetup/hyperbus_setup/src/hyperbus_ram_rza2m.c **** #include "r_typedefs.h"
  34:../src/renesas/hwsetup/hyperbus_setup/src/hyperbus_ram_rza2m.c **** #include "driver.h"
  35:../src/renesas/hwsetup/hyperbus_setup/src/hyperbus_ram_rza2m.c **** 
  36:../src/renesas/hwsetup/hyperbus_setup/src/hyperbus_ram_rza2m.c **** #include "r_hyperbus_lld_rza2m_api.h"
  37:../src/renesas/hwsetup/hyperbus_setup/src/hyperbus_ram_rza2m.c **** #include "hyperbus_ram_rza2m.h"
  38:../src/renesas/hwsetup/hyperbus_setup/src/hyperbus_ram_rza2m.c **** 
  39:../src/renesas/hwsetup/hyperbus_setup/src/hyperbus_ram_rza2m.c **** /**************************************************************************************************
  40:../src/renesas/hwsetup/hyperbus_setup/src/hyperbus_ram_rza2m.c ****  Macro definitions
  41:../src/renesas/hwsetup/hyperbus_setup/src/hyperbus_ram_rza2m.c ****  **************************************************************************************************
  42:../src/renesas/hwsetup/hyperbus_setup/src/hyperbus_ram_rza2m.c **** 
  43:../src/renesas/hwsetup/hyperbus_setup/src/hyperbus_ram_rza2m.c **** /**************************************************************************************************
  44:../src/renesas/hwsetup/hyperbus_setup/src/hyperbus_ram_rza2m.c ****  Local Typedef definitions
  45:../src/renesas/hwsetup/hyperbus_setup/src/hyperbus_ram_rza2m.c ****  **************************************************************************************************
  46:../src/renesas/hwsetup/hyperbus_setup/src/hyperbus_ram_rza2m.c **** 
  47:../src/renesas/hwsetup/hyperbus_setup/src/hyperbus_ram_rza2m.c **** /**************************************************************************************************
  48:../src/renesas/hwsetup/hyperbus_setup/src/hyperbus_ram_rza2m.c ****  Exported global variables
  49:../src/renesas/hwsetup/hyperbus_setup/src/hyperbus_ram_rza2m.c ****  **************************************************************************************************
  50:../src/renesas/hwsetup/hyperbus_setup/src/hyperbus_ram_rza2m.c **** 
  51:../src/renesas/hwsetup/hyperbus_setup/src/hyperbus_ram_rza2m.c **** /**************************************************************************************************
  52:../src/renesas/hwsetup/hyperbus_setup/src/hyperbus_ram_rza2m.c ****  Private (static) variables and functions
  53:../src/renesas/hwsetup/hyperbus_setup/src/hyperbus_ram_rza2m.c ****  **************************************************************************************************
  54:../src/renesas/hwsetup/hyperbus_setup/src/hyperbus_ram_rza2m.c **** 
  55:../src/renesas/hwsetup/hyperbus_setup/src/hyperbus_ram_rza2m.c **** 
  56:../src/renesas/hwsetup/hyperbus_setup/src/hyperbus_ram_rza2m.c **** /**************************************************************************************************
  57:../src/renesas/hwsetup/hyperbus_setup/src/hyperbus_ram_rza2m.c ****  * Function Name: HyperRAM_ReadID0
  58:../src/renesas/hwsetup/hyperbus_setup/src/hyperbus_ram_rza2m.c ****  * Description  : Read ID0 register of HyperRAM
  59:../src/renesas/hwsetup/hyperbus_setup/src/hyperbus_ram_rza2m.c ****  * Arguments    : baddr        : Base address of HyperRAM
  60:../src/renesas/hwsetup/hyperbus_setup/src/hyperbus_ram_rza2m.c ****  * Return Value : ID0 value
  61:../src/renesas/hwsetup/hyperbus_setup/src/hyperbus_ram_rza2m.c ****  **************************************************************************************************
  62:../src/renesas/hwsetup/hyperbus_setup/src/hyperbus_ram_rza2m.c **** uint16_t HyperRAM_ReadID0(uint32_t baddr)
  63:../src/renesas/hwsetup/hyperbus_setup/src/hyperbus_ram_rza2m.c **** {
  26              		.loc 1 63 0
  27              		.cfi_startproc
  28              		@ args = 0, pretend = 0, frame = 0
  29              		@ frame_needed = 0, uses_anonymous_args = 0
  30              	.LVL0:
  31 0000 10402DE9 		push	{r4, lr}
  32              		.cfi_def_cfa_offset 8
  33              		.cfi_offset 4, -8
  34              		.cfi_offset 14, -4
  35 0004 0040A0E1 		mov	r4, r0
  64:../src/renesas/hwsetup/hyperbus_setup/src/hyperbus_ram_rza2m.c ****     uint16_t read_id0;
  65:../src/renesas/hwsetup/hyperbus_setup/src/hyperbus_ram_rza2m.c **** 
  66:../src/renesas/hwsetup/hyperbus_setup/src/hyperbus_ram_rza2m.c ****     /** Set to register base access */
  67:../src/renesas/hwsetup/hyperbus_setup/src/hyperbus_ram_rza2m.c ****     R_HYPERBUS_SelectSpace(HYPERBUS_CS1_AREA, HYPERBUS_REGISTER_SPACE);
  36              		.loc 1 67 0
  37 0008 0110A0E3 		mov	r1, #1
  38 000c 0100A0E1 		mov	r0, r1
  39              	.LVL1:
  40 0010 FEFFFFEB 		bl	R_HYPERBUS_SelectSpace
  41              	.LVL2:
  68:../src/renesas/hwsetup/hyperbus_setup/src/hyperbus_ram_rza2m.c ****     
  69:../src/renesas/hwsetup/hyperbus_setup/src/hyperbus_ram_rza2m.c ****     /** Read ID0 register */
  70:../src/renesas/hwsetup/hyperbus_setup/src/hyperbus_ram_rza2m.c ****     read_id0 = *(volatile uint16_t *)(baddr);
  42              		.loc 1 70 0
  43 0014 B040D4E1 		ldrh	r4, [r4]
  44              	.LVL3:
  45 0018 7440FFE6 		uxth	r4, r4
  46              	.LVL4:
  71:../src/renesas/hwsetup/hyperbus_setup/src/hyperbus_ram_rza2m.c **** 
  72:../src/renesas/hwsetup/hyperbus_setup/src/hyperbus_ram_rza2m.c ****     /** Set to memory base access */
  73:../src/renesas/hwsetup/hyperbus_setup/src/hyperbus_ram_rza2m.c ****     R_HYPERBUS_SelectSpace(HYPERBUS_CS1_AREA, HYPERBUS_MEMORY_SPACE);
  47              		.loc 1 73 0
  48 001c 0010A0E3 		mov	r1, #0
  49 0020 0100A0E3 		mov	r0, #1
  50 0024 FEFFFFEB 		bl	R_HYPERBUS_SelectSpace
  51              	.LVL5:
  74:../src/renesas/hwsetup/hyperbus_setup/src/hyperbus_ram_rza2m.c **** 
  75:../src/renesas/hwsetup/hyperbus_setup/src/hyperbus_ram_rza2m.c ****     return read_id0;
  76:../src/renesas/hwsetup/hyperbus_setup/src/hyperbus_ram_rza2m.c **** }
  52              		.loc 1 76 0
  53 0028 0400A0E1 		mov	r0, r4
  54 002c 1080BDE8 		pop	{r4, pc}
  55              		.cfi_endproc
  56              	.LFE0:
  58              		.section	.text.HyperRAM_ReadID1,"ax",%progbits
  59              		.align	2
  60              		.global	HyperRAM_ReadID1
  61              		.syntax unified
  62              		.arm
  63              		.fpu neon
  65              	HyperRAM_ReadID1:
  66              	.LFB1:
  77:../src/renesas/hwsetup/hyperbus_setup/src/hyperbus_ram_rza2m.c **** /**************************************************************************************************
  78:../src/renesas/hwsetup/hyperbus_setup/src/hyperbus_ram_rza2m.c ****  * End of function HyperRAM_ReadID0
  79:../src/renesas/hwsetup/hyperbus_setup/src/hyperbus_ram_rza2m.c ****  **************************************************************************************************
  80:../src/renesas/hwsetup/hyperbus_setup/src/hyperbus_ram_rza2m.c **** 
  81:../src/renesas/hwsetup/hyperbus_setup/src/hyperbus_ram_rza2m.c **** /**************************************************************************************************
  82:../src/renesas/hwsetup/hyperbus_setup/src/hyperbus_ram_rza2m.c ****  * Function Name: HyperRAM_ReadID1
  83:../src/renesas/hwsetup/hyperbus_setup/src/hyperbus_ram_rza2m.c ****  * Description  : Read ID1 register of HyperRAM
  84:../src/renesas/hwsetup/hyperbus_setup/src/hyperbus_ram_rza2m.c ****  * Arguments    : baddr        : Base address of HyperRAM
  85:../src/renesas/hwsetup/hyperbus_setup/src/hyperbus_ram_rza2m.c ****  * Return Value : ID1 value
  86:../src/renesas/hwsetup/hyperbus_setup/src/hyperbus_ram_rza2m.c ****  **************************************************************************************************
  87:../src/renesas/hwsetup/hyperbus_setup/src/hyperbus_ram_rza2m.c **** uint16_t HyperRAM_ReadID1(uint32_t baddr)
  88:../src/renesas/hwsetup/hyperbus_setup/src/hyperbus_ram_rza2m.c **** {
  67              		.loc 1 88 0
  68              		.cfi_startproc
  69              		@ args = 0, pretend = 0, frame = 0
  70              		@ frame_needed = 0, uses_anonymous_args = 0
  71              	.LVL6:
  72 0000 10402DE9 		push	{r4, lr}
  73              		.cfi_def_cfa_offset 8
  74              		.cfi_offset 4, -8
  75              		.cfi_offset 14, -4
  76 0004 0040A0E1 		mov	r4, r0
  89:../src/renesas/hwsetup/hyperbus_setup/src/hyperbus_ram_rza2m.c ****     uint16_t read_id1;
  90:../src/renesas/hwsetup/hyperbus_setup/src/hyperbus_ram_rza2m.c **** 
  91:../src/renesas/hwsetup/hyperbus_setup/src/hyperbus_ram_rza2m.c ****     /** Set to register base access */
  92:../src/renesas/hwsetup/hyperbus_setup/src/hyperbus_ram_rza2m.c ****     R_HYPERBUS_SelectSpace(HYPERBUS_CS1_AREA, HYPERBUS_REGISTER_SPACE);
  77              		.loc 1 92 0
  78 0008 0110A0E3 		mov	r1, #1
  79 000c 0100A0E1 		mov	r0, r1
  80              	.LVL7:
  81 0010 FEFFFFEB 		bl	R_HYPERBUS_SelectSpace
  82              	.LVL8:
  93:../src/renesas/hwsetup/hyperbus_setup/src/hyperbus_ram_rza2m.c **** 
  94:../src/renesas/hwsetup/hyperbus_setup/src/hyperbus_ram_rza2m.c ****     /** Read ID1 register */
  95:../src/renesas/hwsetup/hyperbus_setup/src/hyperbus_ram_rza2m.c ****     read_id1 = *(volatile uint16_t *)(baddr + 0x2);
  83              		.loc 1 95 0
  84 0014 B240D4E1 		ldrh	r4, [r4, #2]
  85              	.LVL9:
  86 0018 7440FFE6 		uxth	r4, r4
  87              	.LVL10:
  96:../src/renesas/hwsetup/hyperbus_setup/src/hyperbus_ram_rza2m.c **** 
  97:../src/renesas/hwsetup/hyperbus_setup/src/hyperbus_ram_rza2m.c ****     /** Set to memory base access */
  98:../src/renesas/hwsetup/hyperbus_setup/src/hyperbus_ram_rza2m.c ****     R_HYPERBUS_SelectSpace(HYPERBUS_CS1_AREA, HYPERBUS_MEMORY_SPACE);
  88              		.loc 1 98 0
  89 001c 0010A0E3 		mov	r1, #0
  90 0020 0100A0E3 		mov	r0, #1
  91 0024 FEFFFFEB 		bl	R_HYPERBUS_SelectSpace
  92              	.LVL11:
  99:../src/renesas/hwsetup/hyperbus_setup/src/hyperbus_ram_rza2m.c **** 
 100:../src/renesas/hwsetup/hyperbus_setup/src/hyperbus_ram_rza2m.c ****     return read_id1;
 101:../src/renesas/hwsetup/hyperbus_setup/src/hyperbus_ram_rza2m.c **** }
  93              		.loc 1 101 0
  94 0028 0400A0E1 		mov	r0, r4
  95 002c 1080BDE8 		pop	{r4, pc}
  96              		.cfi_endproc
  97              	.LFE1:
  99              		.section	.text.HyperRAM_ReadCR0,"ax",%progbits
 100              		.align	2
 101              		.global	HyperRAM_ReadCR0
 102              		.syntax unified
 103              		.arm
 104              		.fpu neon
 106              	HyperRAM_ReadCR0:
 107              	.LFB2:
 102:../src/renesas/hwsetup/hyperbus_setup/src/hyperbus_ram_rza2m.c **** /**************************************************************************************************
 103:../src/renesas/hwsetup/hyperbus_setup/src/hyperbus_ram_rza2m.c ****  * End of function HyperRAM_ReadID1
 104:../src/renesas/hwsetup/hyperbus_setup/src/hyperbus_ram_rza2m.c ****  **************************************************************************************************
 105:../src/renesas/hwsetup/hyperbus_setup/src/hyperbus_ram_rza2m.c **** 
 106:../src/renesas/hwsetup/hyperbus_setup/src/hyperbus_ram_rza2m.c **** /**************************************************************************************************
 107:../src/renesas/hwsetup/hyperbus_setup/src/hyperbus_ram_rza2m.c ****  * Function Name: HyperRAM_ReadCR0
 108:../src/renesas/hwsetup/hyperbus_setup/src/hyperbus_ram_rza2m.c ****  * Description  : Read CR0 register of HyperRAM
 109:../src/renesas/hwsetup/hyperbus_setup/src/hyperbus_ram_rza2m.c ****  * Arguments    : baddr        : Base address of HyperRAM
 110:../src/renesas/hwsetup/hyperbus_setup/src/hyperbus_ram_rza2m.c ****  * Return Value : CR0 value
 111:../src/renesas/hwsetup/hyperbus_setup/src/hyperbus_ram_rza2m.c ****  **************************************************************************************************
 112:../src/renesas/hwsetup/hyperbus_setup/src/hyperbus_ram_rza2m.c **** uint16_t HyperRAM_ReadCR0(uint32_t baddr)
 113:../src/renesas/hwsetup/hyperbus_setup/src/hyperbus_ram_rza2m.c **** {
 108              		.loc 1 113 0
 109              		.cfi_startproc
 110              		@ args = 0, pretend = 0, frame = 0
 111              		@ frame_needed = 0, uses_anonymous_args = 0
 112              	.LVL12:
 113 0000 10402DE9 		push	{r4, lr}
 114              		.cfi_def_cfa_offset 8
 115              		.cfi_offset 4, -8
 116              		.cfi_offset 14, -4
 117 0004 0040A0E1 		mov	r4, r0
 114:../src/renesas/hwsetup/hyperbus_setup/src/hyperbus_ram_rza2m.c ****     uint16_t read_cr0;
 115:../src/renesas/hwsetup/hyperbus_setup/src/hyperbus_ram_rza2m.c **** 
 116:../src/renesas/hwsetup/hyperbus_setup/src/hyperbus_ram_rza2m.c ****     /** Set to register base access */
 117:../src/renesas/hwsetup/hyperbus_setup/src/hyperbus_ram_rza2m.c ****     R_HYPERBUS_SelectSpace(HYPERBUS_CS1_AREA, HYPERBUS_REGISTER_SPACE);
 118              		.loc 1 117 0
 119 0008 0110A0E3 		mov	r1, #1
 120 000c 0100A0E1 		mov	r0, r1
 121              	.LVL13:
 122 0010 FEFFFFEB 		bl	R_HYPERBUS_SelectSpace
 123              	.LVL14:
 118:../src/renesas/hwsetup/hyperbus_setup/src/hyperbus_ram_rza2m.c **** 
 119:../src/renesas/hwsetup/hyperbus_setup/src/hyperbus_ram_rza2m.c ****     /** Read CR0 register
 120:../src/renesas/hwsetup/hyperbus_setup/src/hyperbus_ram_rza2m.c ****         bit 3222 2222 2221 1111 1111 1000 0000 000
 121:../src/renesas/hwsetup/hyperbus_setup/src/hyperbus_ram_rza2m.c ****             0987 6543 2109 8765 4321 0987 6543 210
 122:../src/renesas/hwsetup/hyperbus_setup/src/hyperbus_ram_rza2m.c ****         val 0000 0000 0000 0000 0001 0000 0000 0000 */
 123:../src/renesas/hwsetup/hyperbus_setup/src/hyperbus_ram_rza2m.c ****     read_cr0 = *(volatile uint16_t *)(baddr + 0x00001000);
 124              		.loc 1 123 0
 125 0014 014A84E2 		add	r4, r4, #4096
 126              	.LVL15:
 127 0018 B040D4E1 		ldrh	r4, [r4]
 128              	.LVL16:
 129 001c 7440FFE6 		uxth	r4, r4
 130              	.LVL17:
 124:../src/renesas/hwsetup/hyperbus_setup/src/hyperbus_ram_rza2m.c **** 
 125:../src/renesas/hwsetup/hyperbus_setup/src/hyperbus_ram_rza2m.c ****     /** Set to memory base access */
 126:../src/renesas/hwsetup/hyperbus_setup/src/hyperbus_ram_rza2m.c ****     R_HYPERBUS_SelectSpace(HYPERBUS_CS1_AREA, HYPERBUS_MEMORY_SPACE);
 131              		.loc 1 126 0
 132 0020 0010A0E3 		mov	r1, #0
 133 0024 0100A0E3 		mov	r0, #1
 134 0028 FEFFFFEB 		bl	R_HYPERBUS_SelectSpace
 135              	.LVL18:
 127:../src/renesas/hwsetup/hyperbus_setup/src/hyperbus_ram_rza2m.c **** 
 128:../src/renesas/hwsetup/hyperbus_setup/src/hyperbus_ram_rza2m.c ****     return read_cr0;
 129:../src/renesas/hwsetup/hyperbus_setup/src/hyperbus_ram_rza2m.c **** }
 136              		.loc 1 129 0
 137 002c 0400A0E1 		mov	r0, r4
 138 0030 1080BDE8 		pop	{r4, pc}
 139              		.cfi_endproc
 140              	.LFE2:
 142              		.section	.text.HyperRAM_WriteCR0,"ax",%progbits
 143              		.align	2
 144              		.global	HyperRAM_WriteCR0
 145              		.syntax unified
 146              		.arm
 147              		.fpu neon
 149              	HyperRAM_WriteCR0:
 150              	.LFB3:
 130:../src/renesas/hwsetup/hyperbus_setup/src/hyperbus_ram_rza2m.c **** /**************************************************************************************************
 131:../src/renesas/hwsetup/hyperbus_setup/src/hyperbus_ram_rza2m.c ****  * End of function HyperRAM_ReadCR0
 132:../src/renesas/hwsetup/hyperbus_setup/src/hyperbus_ram_rza2m.c ****  **************************************************************************************************
 133:../src/renesas/hwsetup/hyperbus_setup/src/hyperbus_ram_rza2m.c **** 
 134:../src/renesas/hwsetup/hyperbus_setup/src/hyperbus_ram_rza2m.c **** /**************************************************************************************************
 135:../src/renesas/hwsetup/hyperbus_setup/src/hyperbus_ram_rza2m.c ****  * Function Name: HyperRAM_WriteCR0
 136:../src/renesas/hwsetup/hyperbus_setup/src/hyperbus_ram_rza2m.c ****  * Description  : Write CR0 register of HyperRAM
 137:../src/renesas/hwsetup/hyperbus_setup/src/hyperbus_ram_rza2m.c ****  * Arguments    : baddr        : Base address of HyperRAM
 138:../src/renesas/hwsetup/hyperbus_setup/src/hyperbus_ram_rza2m.c ****  *              : wdata       : write data to CR0
 139:../src/renesas/hwsetup/hyperbus_setup/src/hyperbus_ram_rza2m.c ****  * Return Value : DRV_SUCCESS : Successful operation (always)
 140:../src/renesas/hwsetup/hyperbus_setup/src/hyperbus_ram_rza2m.c ****  **************************************************************************************************
 141:../src/renesas/hwsetup/hyperbus_setup/src/hyperbus_ram_rza2m.c **** int_t HyperRAM_WriteCR0(uint32_t baddr, uint16_t wdata)
 142:../src/renesas/hwsetup/hyperbus_setup/src/hyperbus_ram_rza2m.c **** {
 151              		.loc 1 142 0
 152              		.cfi_startproc
 153              		@ args = 0, pretend = 0, frame = 0
 154              		@ frame_needed = 0, uses_anonymous_args = 0
 155              	.LVL19:
 156 0000 70402DE9 		push	{r4, r5, r6, lr}
 157              		.cfi_def_cfa_offset 16
 158              		.cfi_offset 4, -16
 159              		.cfi_offset 5, -12
 160              		.cfi_offset 6, -8
 161              		.cfi_offset 14, -4
 162 0004 0040A0E1 		mov	r4, r0
 163 0008 0150A0E1 		mov	r5, r1
 143:../src/renesas/hwsetup/hyperbus_setup/src/hyperbus_ram_rza2m.c **** 
 144:../src/renesas/hwsetup/hyperbus_setup/src/hyperbus_ram_rza2m.c ****     /** Set to register base access */
 145:../src/renesas/hwsetup/hyperbus_setup/src/hyperbus_ram_rza2m.c ****     R_HYPERBUS_SelectSpace(HYPERBUS_CS1_AREA, HYPERBUS_REGISTER_SPACE);
 164              		.loc 1 145 0
 165 000c 0110A0E3 		mov	r1, #1
 166              	.LVL20:
 167 0010 0100A0E1 		mov	r0, r1
 168              	.LVL21:
 169 0014 FEFFFFEB 		bl	R_HYPERBUS_SelectSpace
 170              	.LVL22:
 146:../src/renesas/hwsetup/hyperbus_setup/src/hyperbus_ram_rza2m.c **** 
 147:../src/renesas/hwsetup/hyperbus_setup/src/hyperbus_ram_rza2m.c ****     /** Write CR0 register
 148:../src/renesas/hwsetup/hyperbus_setup/src/hyperbus_ram_rza2m.c ****         bit 3222 2222 2221 1111 1111 1000 0000 000
 149:../src/renesas/hwsetup/hyperbus_setup/src/hyperbus_ram_rza2m.c ****             0987 6543 2109 8765 4321 0987 6543 210
 150:../src/renesas/hwsetup/hyperbus_setup/src/hyperbus_ram_rza2m.c ****         val 0000 0000 0000 0000 0001 0000 0000 0000 */
 151:../src/renesas/hwsetup/hyperbus_setup/src/hyperbus_ram_rza2m.c ****     *(volatile uint16_t *)(baddr + 0x00001000) = wdata;
 171              		.loc 1 151 0
 172 0018 014A84E2 		add	r4, r4, #4096
 173              	.LVL23:
 174 001c B050C4E1 		strh	r5, [r4]	@ movhi
 152:../src/renesas/hwsetup/hyperbus_setup/src/hyperbus_ram_rza2m.c **** 
 153:../src/renesas/hwsetup/hyperbus_setup/src/hyperbus_ram_rza2m.c ****     /** Set to memory base access */
 154:../src/renesas/hwsetup/hyperbus_setup/src/hyperbus_ram_rza2m.c ****     R_HYPERBUS_SelectSpace(HYPERBUS_CS1_AREA, HYPERBUS_MEMORY_SPACE);
 175              		.loc 1 154 0
 176 0020 0010A0E3 		mov	r1, #0
 177 0024 0100A0E3 		mov	r0, #1
 178 0028 FEFFFFEB 		bl	R_HYPERBUS_SelectSpace
 179              	.LVL24:
 155:../src/renesas/hwsetup/hyperbus_setup/src/hyperbus_ram_rza2m.c **** 
 156:../src/renesas/hwsetup/hyperbus_setup/src/hyperbus_ram_rza2m.c ****     return DRV_SUCCESS;
 157:../src/renesas/hwsetup/hyperbus_setup/src/hyperbus_ram_rza2m.c **** }
 180              		.loc 1 157 0
 181 002c 0000A0E3 		mov	r0, #0
 182 0030 7080BDE8 		pop	{r4, r5, r6, pc}
 183              		.cfi_endproc
 184              	.LFE3:
 186              		.section	.text.HyperRAM_ReadCR1,"ax",%progbits
 187              		.align	2
 188              		.global	HyperRAM_ReadCR1
 189              		.syntax unified
 190              		.arm
 191              		.fpu neon
 193              	HyperRAM_ReadCR1:
 194              	.LFB4:
 158:../src/renesas/hwsetup/hyperbus_setup/src/hyperbus_ram_rza2m.c **** /**************************************************************************************************
 159:../src/renesas/hwsetup/hyperbus_setup/src/hyperbus_ram_rza2m.c ****  * End of function HyperRAM_WriteCR0
 160:../src/renesas/hwsetup/hyperbus_setup/src/hyperbus_ram_rza2m.c ****  **************************************************************************************************
 161:../src/renesas/hwsetup/hyperbus_setup/src/hyperbus_ram_rza2m.c **** 
 162:../src/renesas/hwsetup/hyperbus_setup/src/hyperbus_ram_rza2m.c **** /**************************************************************************************************
 163:../src/renesas/hwsetup/hyperbus_setup/src/hyperbus_ram_rza2m.c ****  * Function Name: HyperRAM_ReadCR1
 164:../src/renesas/hwsetup/hyperbus_setup/src/hyperbus_ram_rza2m.c ****  * Description  : Read CR1 register of HyperRAM
 165:../src/renesas/hwsetup/hyperbus_setup/src/hyperbus_ram_rza2m.c ****  * Arguments    : baddr        : Base address of HyperRAM
 166:../src/renesas/hwsetup/hyperbus_setup/src/hyperbus_ram_rza2m.c ****  * Return Value : CR1 value
 167:../src/renesas/hwsetup/hyperbus_setup/src/hyperbus_ram_rza2m.c ****  **************************************************************************************************
 168:../src/renesas/hwsetup/hyperbus_setup/src/hyperbus_ram_rza2m.c **** uint16_t HyperRAM_ReadCR1(uint32_t baddr)
 169:../src/renesas/hwsetup/hyperbus_setup/src/hyperbus_ram_rza2m.c **** {
 195              		.loc 1 169 0
 196              		.cfi_startproc
 197              		@ args = 0, pretend = 0, frame = 0
 198              		@ frame_needed = 0, uses_anonymous_args = 0
 199              	.LVL25:
 200 0000 10402DE9 		push	{r4, lr}
 201              		.cfi_def_cfa_offset 8
 202              		.cfi_offset 4, -8
 203              		.cfi_offset 14, -4
 204 0004 0040A0E1 		mov	r4, r0
 170:../src/renesas/hwsetup/hyperbus_setup/src/hyperbus_ram_rza2m.c ****     uint16_t read_cr1;
 171:../src/renesas/hwsetup/hyperbus_setup/src/hyperbus_ram_rza2m.c **** 
 172:../src/renesas/hwsetup/hyperbus_setup/src/hyperbus_ram_rza2m.c ****     /** Set to register base access */
 173:../src/renesas/hwsetup/hyperbus_setup/src/hyperbus_ram_rza2m.c ****     R_HYPERBUS_SelectSpace(HYPERBUS_CS1_AREA, HYPERBUS_REGISTER_SPACE);
 205              		.loc 1 173 0
 206 0008 0110A0E3 		mov	r1, #1
 207 000c 0100A0E1 		mov	r0, r1
 208              	.LVL26:
 209 0010 FEFFFFEB 		bl	R_HYPERBUS_SelectSpace
 210              	.LVL27:
 174:../src/renesas/hwsetup/hyperbus_setup/src/hyperbus_ram_rza2m.c **** 
 175:../src/renesas/hwsetup/hyperbus_setup/src/hyperbus_ram_rza2m.c ****     /** Read CR1 register
 176:../src/renesas/hwsetup/hyperbus_setup/src/hyperbus_ram_rza2m.c ****         bit 3222 2222 2221 1111 1111 1000 0000 000
 177:../src/renesas/hwsetup/hyperbus_setup/src/hyperbus_ram_rza2m.c ****             0987 6543 2109 8765 4321 0987 6543 210
 178:../src/renesas/hwsetup/hyperbus_setup/src/hyperbus_ram_rza2m.c ****         val 0000 0000 0000 0000 0001 0000 0000 0010 */
 179:../src/renesas/hwsetup/hyperbus_setup/src/hyperbus_ram_rza2m.c ****     read_cr1 = *(volatile uint16_t *)(baddr + 0x00001002);
 211              		.loc 1 179 0
 212 0014 023001E3 		movw	r3, #4098
 213 0018 B34094E1 		ldrh	r4, [r4, r3]
 214              	.LVL28:
 215 001c 7440FFE6 		uxth	r4, r4
 216              	.LVL29:
 180:../src/renesas/hwsetup/hyperbus_setup/src/hyperbus_ram_rza2m.c **** 
 181:../src/renesas/hwsetup/hyperbus_setup/src/hyperbus_ram_rza2m.c ****     /** Set to memory base access */
 182:../src/renesas/hwsetup/hyperbus_setup/src/hyperbus_ram_rza2m.c ****     R_HYPERBUS_SelectSpace(HYPERBUS_CS1_AREA, HYPERBUS_MEMORY_SPACE);
 217              		.loc 1 182 0
 218 0020 0010A0E3 		mov	r1, #0
 219 0024 0100A0E3 		mov	r0, #1
 220 0028 FEFFFFEB 		bl	R_HYPERBUS_SelectSpace
 221              	.LVL30:
 183:../src/renesas/hwsetup/hyperbus_setup/src/hyperbus_ram_rza2m.c **** 
 184:../src/renesas/hwsetup/hyperbus_setup/src/hyperbus_ram_rza2m.c ****     return read_cr1;
 185:../src/renesas/hwsetup/hyperbus_setup/src/hyperbus_ram_rza2m.c **** }
 222              		.loc 1 185 0
 223 002c 0400A0E1 		mov	r0, r4
 224 0030 1080BDE8 		pop	{r4, pc}
 225              		.cfi_endproc
 226              	.LFE4:
 228              		.section	.text.HyperRAM_WriteCR1,"ax",%progbits
 229              		.align	2
 230              		.global	HyperRAM_WriteCR1
 231              		.syntax unified
 232              		.arm
 233              		.fpu neon
 235              	HyperRAM_WriteCR1:
 236              	.LFB5:
 186:../src/renesas/hwsetup/hyperbus_setup/src/hyperbus_ram_rza2m.c **** /**************************************************************************************************
 187:../src/renesas/hwsetup/hyperbus_setup/src/hyperbus_ram_rza2m.c ****  * End of function HyperRAM_ReadCR1
 188:../src/renesas/hwsetup/hyperbus_setup/src/hyperbus_ram_rza2m.c ****  **************************************************************************************************
 189:../src/renesas/hwsetup/hyperbus_setup/src/hyperbus_ram_rza2m.c **** 
 190:../src/renesas/hwsetup/hyperbus_setup/src/hyperbus_ram_rza2m.c **** /**************************************************************************************************
 191:../src/renesas/hwsetup/hyperbus_setup/src/hyperbus_ram_rza2m.c ****  * Function Name: HyperRAM_WriteCR1
 192:../src/renesas/hwsetup/hyperbus_setup/src/hyperbus_ram_rza2m.c ****  * Description  : Write CR1 register of HyperRAM
 193:../src/renesas/hwsetup/hyperbus_setup/src/hyperbus_ram_rza2m.c ****  * Arguments    : baddr       : Base address of HyperRAM
 194:../src/renesas/hwsetup/hyperbus_setup/src/hyperbus_ram_rza2m.c ****  *              : wdata       : write data to CR1
 195:../src/renesas/hwsetup/hyperbus_setup/src/hyperbus_ram_rza2m.c ****  * Return Value : DRV_SUCCESS : Successful operation (always)
 196:../src/renesas/hwsetup/hyperbus_setup/src/hyperbus_ram_rza2m.c ****  **************************************************************************************************
 197:../src/renesas/hwsetup/hyperbus_setup/src/hyperbus_ram_rza2m.c **** int_t HyperRAM_WriteCR1(uint32_t baddr, uint16_t wdata)
 198:../src/renesas/hwsetup/hyperbus_setup/src/hyperbus_ram_rza2m.c **** {
 237              		.loc 1 198 0
 238              		.cfi_startproc
 239              		@ args = 0, pretend = 0, frame = 0
 240              		@ frame_needed = 0, uses_anonymous_args = 0
 241              	.LVL31:
 242 0000 70402DE9 		push	{r4, r5, r6, lr}
 243              		.cfi_def_cfa_offset 16
 244              		.cfi_offset 4, -16
 245              		.cfi_offset 5, -12
 246              		.cfi_offset 6, -8
 247              		.cfi_offset 14, -4
 248 0004 0040A0E1 		mov	r4, r0
 249 0008 0150A0E1 		mov	r5, r1
 199:../src/renesas/hwsetup/hyperbus_setup/src/hyperbus_ram_rza2m.c **** 
 200:../src/renesas/hwsetup/hyperbus_setup/src/hyperbus_ram_rza2m.c ****     /** Set to register base access */
 201:../src/renesas/hwsetup/hyperbus_setup/src/hyperbus_ram_rza2m.c ****     R_HYPERBUS_SelectSpace(HYPERBUS_CS1_AREA, HYPERBUS_REGISTER_SPACE);
 250              		.loc 1 201 0
 251 000c 0110A0E3 		mov	r1, #1
 252              	.LVL32:
 253 0010 0100A0E1 		mov	r0, r1
 254              	.LVL33:
 255 0014 FEFFFFEB 		bl	R_HYPERBUS_SelectSpace
 256              	.LVL34:
 202:../src/renesas/hwsetup/hyperbus_setup/src/hyperbus_ram_rza2m.c **** 
 203:../src/renesas/hwsetup/hyperbus_setup/src/hyperbus_ram_rza2m.c ****     /** Write CR1 register
 204:../src/renesas/hwsetup/hyperbus_setup/src/hyperbus_ram_rza2m.c ****         bit 3222 2222 2221 1111 1111 1000 0000 000
 205:../src/renesas/hwsetup/hyperbus_setup/src/hyperbus_ram_rza2m.c ****             0987 6543 2109 8765 4321 0987 6543 210
 206:../src/renesas/hwsetup/hyperbus_setup/src/hyperbus_ram_rza2m.c ****         val 0000 0000 0000 0000 0001 0000 0000 0010 */
 207:../src/renesas/hwsetup/hyperbus_setup/src/hyperbus_ram_rza2m.c ****     *(volatile uint16_t *)(baddr + 0x00001002) = wdata;
 257              		.loc 1 207 0
 258 0018 023001E3 		movw	r3, #4098
 259 001c B35084E1 		strh	r5, [r4, r3]	@ movhi
 208:../src/renesas/hwsetup/hyperbus_setup/src/hyperbus_ram_rza2m.c **** 
 209:../src/renesas/hwsetup/hyperbus_setup/src/hyperbus_ram_rza2m.c ****     /** Set to memory base access */
 210:../src/renesas/hwsetup/hyperbus_setup/src/hyperbus_ram_rza2m.c ****     R_HYPERBUS_SelectSpace(HYPERBUS_CS1_AREA, HYPERBUS_MEMORY_SPACE);
 260              		.loc 1 210 0
 261 0020 0010A0E3 		mov	r1, #0
 262 0024 0100A0E3 		mov	r0, #1
 263 0028 FEFFFFEB 		bl	R_HYPERBUS_SelectSpace
 264              	.LVL35:
 211:../src/renesas/hwsetup/hyperbus_setup/src/hyperbus_ram_rza2m.c **** 
 212:../src/renesas/hwsetup/hyperbus_setup/src/hyperbus_ram_rza2m.c ****     return DRV_SUCCESS;
 213:../src/renesas/hwsetup/hyperbus_setup/src/hyperbus_ram_rza2m.c **** }
 265              		.loc 1 213 0
 266 002c 0000A0E3 		mov	r0, #0
 267 0030 7080BDE8 		pop	{r4, r5, r6, pc}
 268              		.cfi_endproc
 269              	.LFE5:
 271              		.text
 272              	.Letext0:
 273              		.file 2 "c:\\program files (x86)\\gnu tools arm embedded\\6 2017-q2-update\\arm-none-eabi\\include
 274              		.file 3 "c:\\program files (x86)\\gnu tools arm embedded\\6 2017-q2-update\\arm-none-eabi\\include
 275              		.file 4 "c:\\program files (x86)\\gnu tools arm embedded\\6 2017-q2-update\\arm-none-eabi\\include
 276              		.file 5 "c:\\program files (x86)\\gnu tools arm embedded\\6 2017-q2-update\\arm-none-eabi\\include
 277              		.file 6 "c:\\program files (x86)\\gnu tools arm embedded\\6 2017-q2-update\\lib\\gcc\\arm-none-eab
 278              		.file 7 "c:\\program files (x86)\\gnu tools arm embedded\\6 2017-q2-update\\arm-none-eabi\\include
 279              		.file 8 "c:\\program files (x86)\\gnu tools arm embedded\\6 2017-q2-update\\arm-none-eabi\\include
 280              		.file 9 "C:/Renesas/e2studio_2021_01_workspace_RZA2M_ANPR/ANPR_RZA2M_EBK/generate/system/inc/r_typ
 281              		.file 10 "C:/Renesas/e2studio_2021_01_workspace_RZA2M_ANPR/ANPR_RZA2M_EBK/generate/system/inc/driv
 282              		.file 11 "C:/Renesas/e2studio_2021_01_workspace_RZA2M_ANPR/ANPR_RZA2M_EBK/generate/sc_drivers/r_hy