   1              		.cpu cortex-a9
   2              		.eabi_attribute 28, 1
   3              		.eabi_attribute 20, 1
   4              		.eabi_attribute 21, 1
   5              		.eabi_attribute 23, 3
   6              		.eabi_attribute 24, 1
   7              		.eabi_attribute 25, 1
   8              		.eabi_attribute 26, 1
   9              		.eabi_attribute 30, 1
  10              		.eabi_attribute 34, 0
  11              		.eabi_attribute 18, 4
  12              		.file	"hyperbus_flash_rza2m.c"
  13              		.text
  14              	.Ltext0:
  15              		.cfi_sections	.debug_frame
  16              		.section	.text.hyperflash_commandwrite,"ax",%progbits
  17              		.align	2
  18              		.syntax unified
  19              		.arm
  20              		.fpu neon
  22              	hyperflash_commandwrite:
  23              	.LFB0:
  24              		.file 1 "../src/renesas/hwsetup/hyperbus_setup/src/hyperbus_flash_rza2m.c"
   1:../src/renesas/hwsetup/hyperbus_setup/src/hyperbus_flash_rza2m.c **** /**************************************************************************************************
   2:../src/renesas/hwsetup/hyperbus_setup/src/hyperbus_flash_rza2m.c ****  * DISCLAIMER
   3:../src/renesas/hwsetup/hyperbus_setup/src/hyperbus_flash_rza2m.c ****  * This software is supplied by Renesas Electronics Corporation and is only intended for use with R
   4:../src/renesas/hwsetup/hyperbus_setup/src/hyperbus_flash_rza2m.c ****  * other uses are authorized. This software is owned by Renesas Electronics Corporation and is prot
   5:../src/renesas/hwsetup/hyperbus_setup/src/hyperbus_flash_rza2m.c ****  * applicable laws, including copyright laws.
   6:../src/renesas/hwsetup/hyperbus_setup/src/hyperbus_flash_rza2m.c ****  * THIS SOFTWARE IS PROVIDED "AS IS" AND RENESAS MAKES NO WARRANTIES REGARDING
   7:../src/renesas/hwsetup/hyperbus_setup/src/hyperbus_flash_rza2m.c ****  * THIS SOFTWARE, WHETHER EXPRESS, IMPLIED OR STATUTORY, INCLUDING BUT NOT LIMITED TO WARRANTIES OF
   8:../src/renesas/hwsetup/hyperbus_setup/src/hyperbus_flash_rza2m.c ****  * FITNESS FOR A PARTICULAR PURPOSE AND NON-INFRINGEMENT. ALL SUCH WARRANTIES ARE EXPRESSLY DISCLAI
   9:../src/renesas/hwsetup/hyperbus_setup/src/hyperbus_flash_rza2m.c ****  * EXTENT PERMITTED NOT PROHIBITED BY LAW, NEITHER RENESAS ELECTRONICS CORPORATION NOR ANY OF ITS A
  10:../src/renesas/hwsetup/hyperbus_setup/src/hyperbus_flash_rza2m.c ****  * SHALL BE LIABLE FOR ANY DIRECT, INDIRECT, SPECIAL, INCIDENTAL OR CONSEQUENTIAL DAMAGES FOR ANY R
  11:../src/renesas/hwsetup/hyperbus_setup/src/hyperbus_flash_rza2m.c ****  * THIS SOFTWARE, EVEN IF RENESAS OR ITS AFFILIATES HAVE BEEN ADVISED OF THE POSSIBILITY OF SUCH DA
  12:../src/renesas/hwsetup/hyperbus_setup/src/hyperbus_flash_rza2m.c ****  * Renesas reserves the right, without notice, to make changes to this software and to discontinue 
  13:../src/renesas/hwsetup/hyperbus_setup/src/hyperbus_flash_rza2m.c ****  * this software. By using this software, you agree to the additional terms and conditions found by
  14:../src/renesas/hwsetup/hyperbus_setup/src/hyperbus_flash_rza2m.c ****  * following link:
  15:../src/renesas/hwsetup/hyperbus_setup/src/hyperbus_flash_rza2m.c ****  * http://www.renesas.com/disclaimer
  16:../src/renesas/hwsetup/hyperbus_setup/src/hyperbus_flash_rza2m.c ****  *
  17:../src/renesas/hwsetup/hyperbus_setup/src/hyperbus_flash_rza2m.c ****  * Copyright (C) 2019 Renesas Electronics Corporation. All rights reserved.
  18:../src/renesas/hwsetup/hyperbus_setup/src/hyperbus_flash_rza2m.c ****  **************************************************************************************************
  19:../src/renesas/hwsetup/hyperbus_setup/src/hyperbus_flash_rza2m.c **** /**************************************************************************************************
  20:../src/renesas/hwsetup/hyperbus_setup/src/hyperbus_flash_rza2m.c ****  * File Name    : hyperbus_flash_rza2m.c
  21:../src/renesas/hwsetup/hyperbus_setup/src/hyperbus_flash_rza2m.c ****  * Version      : 1.0
  22:../src/renesas/hwsetup/hyperbus_setup/src/hyperbus_flash_rza2m.c ****  * Description  : API function of HyperFlash Control
  23:../src/renesas/hwsetup/hyperbus_setup/src/hyperbus_flash_rza2m.c ****  **************************************************************************************************
  24:../src/renesas/hwsetup/hyperbus_setup/src/hyperbus_flash_rza2m.c **** /**************************************************************************************************
  25:../src/renesas/hwsetup/hyperbus_setup/src/hyperbus_flash_rza2m.c ****  * History : DD.MM.YYYY Version  Description
  26:../src/renesas/hwsetup/hyperbus_setup/src/hyperbus_flash_rza2m.c ****  *         : 01.01.2019 1.00     First Release
  27:../src/renesas/hwsetup/hyperbus_setup/src/hyperbus_flash_rza2m.c ****  **************************************************************************************************
  28:../src/renesas/hwsetup/hyperbus_setup/src/hyperbus_flash_rza2m.c **** 
  29:../src/renesas/hwsetup/hyperbus_setup/src/hyperbus_flash_rza2m.c **** /**************************************************************************************************
  30:../src/renesas/hwsetup/hyperbus_setup/src/hyperbus_flash_rza2m.c ****  Includes   <System Includes> , "Project Includes"
  31:../src/renesas/hwsetup/hyperbus_setup/src/hyperbus_flash_rza2m.c ****  **************************************************************************************************
  32:../src/renesas/hwsetup/hyperbus_setup/src/hyperbus_flash_rza2m.c **** 
  33:../src/renesas/hwsetup/hyperbus_setup/src/hyperbus_flash_rza2m.c **** #include "r_typedefs.h"
  34:../src/renesas/hwsetup/hyperbus_setup/src/hyperbus_flash_rza2m.c **** #include "driver.h"
  35:../src/renesas/hwsetup/hyperbus_setup/src/hyperbus_flash_rza2m.c **** 
  36:../src/renesas/hwsetup/hyperbus_setup/src/hyperbus_flash_rza2m.c **** #include "r_hyperbus_lld_rza2m_api.h"
  37:../src/renesas/hwsetup/hyperbus_setup/src/hyperbus_flash_rza2m.c **** #include "hyperbus_flash_rza2m.h"
  38:../src/renesas/hwsetup/hyperbus_setup/src/hyperbus_flash_rza2m.c **** 
  39:../src/renesas/hwsetup/hyperbus_setup/src/hyperbus_flash_rza2m.c **** /**************************************************************************************************
  40:../src/renesas/hwsetup/hyperbus_setup/src/hyperbus_flash_rza2m.c ****  Macro definitions
  41:../src/renesas/hwsetup/hyperbus_setup/src/hyperbus_flash_rza2m.c ****  **************************************************************************************************
  42:../src/renesas/hwsetup/hyperbus_setup/src/hyperbus_flash_rza2m.c **** 
  43:../src/renesas/hwsetup/hyperbus_setup/src/hyperbus_flash_rza2m.c **** /**************************************************************************************************
  44:../src/renesas/hwsetup/hyperbus_setup/src/hyperbus_flash_rza2m.c ****  Local Typedef definitions
  45:../src/renesas/hwsetup/hyperbus_setup/src/hyperbus_flash_rza2m.c ****  **************************************************************************************************
  46:../src/renesas/hwsetup/hyperbus_setup/src/hyperbus_flash_rza2m.c **** 
  47:../src/renesas/hwsetup/hyperbus_setup/src/hyperbus_flash_rza2m.c **** /**************************************************************************************************
  48:../src/renesas/hwsetup/hyperbus_setup/src/hyperbus_flash_rza2m.c ****  Exported global variables
  49:../src/renesas/hwsetup/hyperbus_setup/src/hyperbus_flash_rza2m.c ****  **************************************************************************************************
  50:../src/renesas/hwsetup/hyperbus_setup/src/hyperbus_flash_rza2m.c **** 
  51:../src/renesas/hwsetup/hyperbus_setup/src/hyperbus_flash_rza2m.c **** /**************************************************************************************************
  52:../src/renesas/hwsetup/hyperbus_setup/src/hyperbus_flash_rza2m.c ****  Private (static) variables and functions
  53:../src/renesas/hwsetup/hyperbus_setup/src/hyperbus_flash_rza2m.c ****  **************************************************************************************************
  54:../src/renesas/hwsetup/hyperbus_setup/src/hyperbus_flash_rza2m.c **** 
  55:../src/renesas/hwsetup/hyperbus_setup/src/hyperbus_flash_rza2m.c **** static void hyperflash_commandwrite(uint32_t baddr, uint32_t caddr, uint16_t write_value);
  56:../src/renesas/hwsetup/hyperbus_setup/src/hyperbus_flash_rza2m.c **** static void hyperflash_datawrite(uint32_t baddr, uint32_t offset, uint16_t write_value);
  57:../src/renesas/hwsetup/hyperbus_setup/src/hyperbus_flash_rza2m.c **** static uint16_t hyperflash_responseread(uint32_t baddr);
  58:../src/renesas/hwsetup/hyperbus_setup/src/hyperbus_flash_rza2m.c **** static uint16_t hyperflash_readstatus(uint32_t baddr);
  59:../src/renesas/hwsetup/hyperbus_setup/src/hyperbus_flash_rza2m.c **** 
  60:../src/renesas/hwsetup/hyperbus_setup/src/hyperbus_flash_rza2m.c **** /**************************************************************************************************
  61:../src/renesas/hwsetup/hyperbus_setup/src/hyperbus_flash_rza2m.c ****  * Function Name: hyperflash_commandwrite
  62:../src/renesas/hwsetup/hyperbus_setup/src/hyperbus_flash_rza2m.c ****  * Description  : Command Write to HyperFlash
  63:../src/renesas/hwsetup/hyperbus_setup/src/hyperbus_flash_rza2m.c ****  * Arguments    : baddr       : Base address of HyperFlash
  64:../src/renesas/hwsetup/hyperbus_setup/src/hyperbus_flash_rza2m.c ****  *              : caddr       : command address
  65:../src/renesas/hwsetup/hyperbus_setup/src/hyperbus_flash_rza2m.c ****  *              : write_value : Write value for the IO register
  66:../src/renesas/hwsetup/hyperbus_setup/src/hyperbus_flash_rza2m.c ****  * Return Value : None
  67:../src/renesas/hwsetup/hyperbus_setup/src/hyperbus_flash_rza2m.c ****  **************************************************************************************************
  68:../src/renesas/hwsetup/hyperbus_setup/src/hyperbus_flash_rza2m.c **** static void hyperflash_commandwrite(uint32_t baddr, uint32_t caddr, uint16_t write_value)
  69:../src/renesas/hwsetup/hyperbus_setup/src/hyperbus_flash_rza2m.c **** {
  25              		.loc 1 69 0
  26              		.cfi_startproc
  27              		@ args = 0, pretend = 0, frame = 0
  28              		@ frame_needed = 0, uses_anonymous_args = 0
  29              		@ link register save eliminated.
  30              	.LVL0:
  70:../src/renesas/hwsetup/hyperbus_setup/src/hyperbus_flash_rza2m.c ****     /* 16 bits command write to HyperFlash */
  71:../src/renesas/hwsetup/hyperbus_setup/src/hyperbus_flash_rza2m.c ****     *(volatile uint16_t *)(baddr + (caddr << 1)) = write_value;
  31              		.loc 1 71 0
  32 0000 8110A0E1 		lsl	r1, r1, #1
  33              	.LVL1:
  34 0004 B02081E1 		strh	r2, [r1, r0]	@ movhi
  35 0008 1EFF2FE1 		bx	lr
  36              		.cfi_endproc
  37              	.LFE0:
  39              		.section	.text.hyperflash_datawrite,"ax",%progbits
  40              		.align	2
  41              		.syntax unified
  42              		.arm
  43              		.fpu neon
  45              	hyperflash_datawrite:
  46              	.LFB1:
  72:../src/renesas/hwsetup/hyperbus_setup/src/hyperbus_flash_rza2m.c **** }
  73:../src/renesas/hwsetup/hyperbus_setup/src/hyperbus_flash_rza2m.c **** /**************************************************************************************************
  74:../src/renesas/hwsetup/hyperbus_setup/src/hyperbus_flash_rza2m.c ****  * End of function hyperflash_commandwrite
  75:../src/renesas/hwsetup/hyperbus_setup/src/hyperbus_flash_rza2m.c ****  **************************************************************************************************
  76:../src/renesas/hwsetup/hyperbus_setup/src/hyperbus_flash_rza2m.c **** 
  77:../src/renesas/hwsetup/hyperbus_setup/src/hyperbus_flash_rza2m.c **** /**************************************************************************************************
  78:../src/renesas/hwsetup/hyperbus_setup/src/hyperbus_flash_rza2m.c ****  * Function Name: hyperflash_datawrite
  79:../src/renesas/hwsetup/hyperbus_setup/src/hyperbus_flash_rza2m.c ****  * Description  : Data Write to HyperFlash
  80:../src/renesas/hwsetup/hyperbus_setup/src/hyperbus_flash_rza2m.c ****  * Arguments    : baddr       : Base address of HyperFlash
  81:../src/renesas/hwsetup/hyperbus_setup/src/hyperbus_flash_rza2m.c ****  *              : offset      : offset address
  82:../src/renesas/hwsetup/hyperbus_setup/src/hyperbus_flash_rza2m.c ****  *              : write_value : Write value for the IO register
  83:../src/renesas/hwsetup/hyperbus_setup/src/hyperbus_flash_rza2m.c ****  * Return Value : None
  84:../src/renesas/hwsetup/hyperbus_setup/src/hyperbus_flash_rza2m.c ****  **************************************************************************************************
  85:../src/renesas/hwsetup/hyperbus_setup/src/hyperbus_flash_rza2m.c **** static void hyperflash_datawrite(uint32_t baddr, uint32_t offset, uint16_t write_value)
  86:../src/renesas/hwsetup/hyperbus_setup/src/hyperbus_flash_rza2m.c **** {
  47              		.loc 1 86 0
  48              		.cfi_startproc
  49              		@ args = 0, pretend = 0, frame = 0
  50              		@ frame_needed = 0, uses_anonymous_args = 0
  51              		@ link register save eliminated.
  52              	.LVL2:
  87:../src/renesas/hwsetup/hyperbus_setup/src/hyperbus_flash_rza2m.c ****     /* Write 16-bit data to HyperFlash */
  88:../src/renesas/hwsetup/hyperbus_setup/src/hyperbus_flash_rza2m.c ****     *(volatile uint16_t *)(baddr + offset) = write_value;
  53              		.loc 1 88 0
  54 0000 B12080E1 		strh	r2, [r0, r1]	@ movhi
  55 0004 1EFF2FE1 		bx	lr
  56              		.cfi_endproc
  57              	.LFE1:
  59              		.section	.text.hyperflash_responseread,"ax",%progbits
  60              		.align	2
  61              		.syntax unified
  62              		.arm
  63              		.fpu neon
  65              	hyperflash_responseread:
  66              	.LFB2:
  89:../src/renesas/hwsetup/hyperbus_setup/src/hyperbus_flash_rza2m.c **** }
  90:../src/renesas/hwsetup/hyperbus_setup/src/hyperbus_flash_rza2m.c **** /**************************************************************************************************
  91:../src/renesas/hwsetup/hyperbus_setup/src/hyperbus_flash_rza2m.c ****  * End of function hyperflash_datawrite
  92:../src/renesas/hwsetup/hyperbus_setup/src/hyperbus_flash_rza2m.c ****  **************************************************************************************************
  93:../src/renesas/hwsetup/hyperbus_setup/src/hyperbus_flash_rza2m.c **** 
  94:../src/renesas/hwsetup/hyperbus_setup/src/hyperbus_flash_rza2m.c **** /**************************************************************************************************
  95:../src/renesas/hwsetup/hyperbus_setup/src/hyperbus_flash_rza2m.c ****  * Function Name: hyperflash_responseread
  96:../src/renesas/hwsetup/hyperbus_setup/src/hyperbus_flash_rza2m.c ****  * Description  : Read from HyperFlash on command sequence
  97:../src/renesas/hwsetup/hyperbus_setup/src/hyperbus_flash_rza2m.c ****  * Arguments    : baddr     : response read address
  98:../src/renesas/hwsetup/hyperbus_setup/src/hyperbus_flash_rza2m.c ****  * Return Value : read data
  99:../src/renesas/hwsetup/hyperbus_setup/src/hyperbus_flash_rza2m.c ****  **************************************************************************************************
 100:../src/renesas/hwsetup/hyperbus_setup/src/hyperbus_flash_rza2m.c **** static uint16_t hyperflash_responseread(uint32_t baddr)
 101:../src/renesas/hwsetup/hyperbus_setup/src/hyperbus_flash_rza2m.c **** {
  67              		.loc 1 101 0
  68              		.cfi_startproc
  69              		@ args = 0, pretend = 0, frame = 0
  70              		@ frame_needed = 0, uses_anonymous_args = 0
  71              		@ link register save eliminated.
  72              	.LVL3:
 102:../src/renesas/hwsetup/hyperbus_setup/src/hyperbus_flash_rza2m.c ****     /* Read 16 bits data from HyperFlash */
 103:../src/renesas/hwsetup/hyperbus_setup/src/hyperbus_flash_rza2m.c ****     return *(volatile uint16_t *)(baddr);
  73              		.loc 1 103 0
  74 0000 B000D0E1 		ldrh	r0, [r0]
  75              	.LVL4:
 104:../src/renesas/hwsetup/hyperbus_setup/src/hyperbus_flash_rza2m.c **** }
  76              		.loc 1 104 0
  77 0004 1EFF2FE1 		bx	lr
  78              		.cfi_endproc
  79              	.LFE2:
  81              		.section	.text.hyperflash_readstatus,"ax",%progbits
  82              		.align	2
  83              		.syntax unified
  84              		.arm
  85              		.fpu neon
  87              	hyperflash_readstatus:
  88              	.LFB3:
 105:../src/renesas/hwsetup/hyperbus_setup/src/hyperbus_flash_rza2m.c **** /**************************************************************************************************
 106:../src/renesas/hwsetup/hyperbus_setup/src/hyperbus_flash_rza2m.c ****  * End of function hyperflash_responseread
 107:../src/renesas/hwsetup/hyperbus_setup/src/hyperbus_flash_rza2m.c ****  **************************************************************************************************
 108:../src/renesas/hwsetup/hyperbus_setup/src/hyperbus_flash_rza2m.c **** 
 109:../src/renesas/hwsetup/hyperbus_setup/src/hyperbus_flash_rza2m.c **** /**************************************************************************************************
 110:../src/renesas/hwsetup/hyperbus_setup/src/hyperbus_flash_rza2m.c ****  * Function Name: hyperflash_readstatus
 111:../src/renesas/hwsetup/hyperbus_setup/src/hyperbus_flash_rza2m.c ****  * Description  : Read SR of HyperFlash
 112:../src/renesas/hwsetup/hyperbus_setup/src/hyperbus_flash_rza2m.c ****  * Arguments    : baddr : response read address
 113:../src/renesas/hwsetup/hyperbus_setup/src/hyperbus_flash_rza2m.c ****  * Return Value : SR value
 114:../src/renesas/hwsetup/hyperbus_setup/src/hyperbus_flash_rza2m.c ****  **************************************************************************************************
 115:../src/renesas/hwsetup/hyperbus_setup/src/hyperbus_flash_rza2m.c **** static uint16_t hyperflash_readstatus(uint32_t baddr)
 116:../src/renesas/hwsetup/hyperbus_setup/src/hyperbus_flash_rza2m.c **** {
  89              		.loc 1 116 0
  90              		.cfi_startproc
  91              		@ args = 0, pretend = 0, frame = 0
  92              		@ frame_needed = 0, uses_anonymous_args = 0
  93              	.LVL5:
  94 0000 10402DE9 		push	{r4, lr}
  95              		.cfi_def_cfa_offset 8
  96              		.cfi_offset 4, -8
  97              		.cfi_offset 14, -4
  98 0004 0040A0E1 		mov	r4, r0
 117:../src/renesas/hwsetup/hyperbus_setup/src/hyperbus_flash_rza2m.c ****     uint16_t read_sr;
 118:../src/renesas/hwsetup/hyperbus_setup/src/hyperbus_flash_rza2m.c ****     
 119:../src/renesas/hwsetup/hyperbus_setup/src/hyperbus_flash_rza2m.c ****     hyperflash_commandwrite(baddr, 0x555, 0x0070);                     /** 1st bus cycle */
  99              		.loc 1 119 0
 100 0008 7020A0E3 		mov	r2, #112
 101 000c 551500E3 		movw	r1, #1365
 102 0010 FEFFFFEB 		bl	hyperflash_commandwrite
 103              	.LVL6:
 120:../src/renesas/hwsetup/hyperbus_setup/src/hyperbus_flash_rza2m.c ****     read_sr = hyperflash_responseread(baddr); /** 2nd bus cycle */
 104              		.loc 1 120 0
 105 0014 0400A0E1 		mov	r0, r4
 106 0018 FEFFFFEB 		bl	hyperflash_responseread
 107              	.LVL7:
 121:../src/renesas/hwsetup/hyperbus_setup/src/hyperbus_flash_rza2m.c **** 
 122:../src/renesas/hwsetup/hyperbus_setup/src/hyperbus_flash_rza2m.c ****     return read_sr;
 123:../src/renesas/hwsetup/hyperbus_setup/src/hyperbus_flash_rza2m.c **** }
 108              		.loc 1 123 0
 109 001c 1080BDE8 		pop	{r4, pc}
 110              		.cfi_endproc
 111              	.LFE3:
 113              		.section	.text.HyperFlash_WriteWord,"ax",%progbits
 114              		.align	2
 115              		.global	HyperFlash_WriteWord
 116              		.syntax unified
 117              		.arm
 118              		.fpu neon
 120              	HyperFlash_WriteWord:
 121              	.LFB4:
 124:../src/renesas/hwsetup/hyperbus_setup/src/hyperbus_flash_rza2m.c **** /**************************************************************************************************
 125:../src/renesas/hwsetup/hyperbus_setup/src/hyperbus_flash_rza2m.c ****  * End of function hyperflash_readstatus
 126:../src/renesas/hwsetup/hyperbus_setup/src/hyperbus_flash_rza2m.c ****  **************************************************************************************************
 127:../src/renesas/hwsetup/hyperbus_setup/src/hyperbus_flash_rza2m.c **** 
 128:../src/renesas/hwsetup/hyperbus_setup/src/hyperbus_flash_rza2m.c **** /**************************************************************************************************
 129:../src/renesas/hwsetup/hyperbus_setup/src/hyperbus_flash_rza2m.c ****  * Function Name: HyperFlash_WriteWord
 130:../src/renesas/hwsetup/hyperbus_setup/src/hyperbus_flash_rza2m.c ****  * Description  : Write 16 bits data to HyperFlash
 131:../src/renesas/hwsetup/hyperbus_setup/src/hyperbus_flash_rza2m.c ****  * Arguments    : baddr       : Base address of HyperFlash
 132:../src/renesas/hwsetup/hyperbus_setup/src/hyperbus_flash_rza2m.c ****  *              : waddr       : Write address
 133:../src/renesas/hwsetup/hyperbus_setup/src/hyperbus_flash_rza2m.c ****  *              : wdata       : write data
 134:../src/renesas/hwsetup/hyperbus_setup/src/hyperbus_flash_rza2m.c ****  * Return Value : DRV_SUCCESS : Successful operation (always)
 135:../src/renesas/hwsetup/hyperbus_setup/src/hyperbus_flash_rza2m.c ****  **************************************************************************************************
 136:../src/renesas/hwsetup/hyperbus_setup/src/hyperbus_flash_rza2m.c **** uint16_t HyperFlash_WriteWord(uint32_t baddr, uint32_t waddr, uint16_t wdata)
 137:../src/renesas/hwsetup/hyperbus_setup/src/hyperbus_flash_rza2m.c **** {
 122              		.loc 1 137 0
 123              		.cfi_startproc
 124              		@ args = 0, pretend = 0, frame = 0
 125              		@ frame_needed = 0, uses_anonymous_args = 0
 126              	.LVL8:
 127 0000 70402DE9 		push	{r4, r5, r6, lr}
 128              		.cfi_def_cfa_offset 16
 129              		.cfi_offset 4, -16
 130              		.cfi_offset 5, -12
 131              		.cfi_offset 6, -8
 132              		.cfi_offset 14, -4
 133 0004 0040A0E1 		mov	r4, r0
 134 0008 0150A0E1 		mov	r5, r1
 135 000c 0260A0E1 		mov	r6, r2
 138:../src/renesas/hwsetup/hyperbus_setup/src/hyperbus_flash_rza2m.c ****     uint16_t read_sr;
 139:../src/renesas/hwsetup/hyperbus_setup/src/hyperbus_flash_rza2m.c **** 
 140:../src/renesas/hwsetup/hyperbus_setup/src/hyperbus_flash_rza2m.c ****     /** Word program sequence */
 141:../src/renesas/hwsetup/hyperbus_setup/src/hyperbus_flash_rza2m.c ****     hyperflash_commandwrite(baddr, 0x555, 0x00aa); /** 1st bus cycle */
 136              		.loc 1 141 0
 137 0010 AA20A0E3 		mov	r2, #170
 138              	.LVL9:
 139 0014 551500E3 		movw	r1, #1365
 140              	.LVL10:
 141 0018 FEFFFFEB 		bl	hyperflash_commandwrite
 142              	.LVL11:
 142:../src/renesas/hwsetup/hyperbus_setup/src/hyperbus_flash_rza2m.c ****     hyperflash_commandwrite(baddr, 0x2aa, 0x0055); /** 2nd bus cycle */
 143              		.loc 1 142 0
 144 001c 5520A0E3 		mov	r2, #85
 145 0020 AA1200E3 		movw	r1, #682
 146 0024 0400A0E1 		mov	r0, r4
 147 0028 FEFFFFEB 		bl	hyperflash_commandwrite
 148              	.LVL12:
 143:../src/renesas/hwsetup/hyperbus_setup/src/hyperbus_flash_rza2m.c ****     hyperflash_commandwrite(baddr, 0x555, 0x00a0); /** 3rd bus cycle */
 149              		.loc 1 143 0
 150 002c A020A0E3 		mov	r2, #160
 151 0030 551500E3 		movw	r1, #1365
 152 0034 0400A0E1 		mov	r0, r4
 153 0038 FEFFFFEB 		bl	hyperflash_commandwrite
 154              	.LVL13:
 144:../src/renesas/hwsetup/hyperbus_setup/src/hyperbus_flash_rza2m.c ****     hyperflash_datawrite(baddr, waddr, wdata);     /** 4th bus cycle */
 155              		.loc 1 144 0
 156 003c 0620A0E1 		mov	r2, r6
 157 0040 0510A0E1 		mov	r1, r5
 158 0044 0400A0E1 		mov	r0, r4
 159 0048 FEFFFFEB 		bl	hyperflash_datawrite
 160              	.LVL14:
 161              	.L7:
 145:../src/renesas/hwsetup/hyperbus_setup/src/hyperbus_flash_rza2m.c **** 
 146:../src/renesas/hwsetup/hyperbus_setup/src/hyperbus_flash_rza2m.c ****     /** Wait for device ready asserted */
 147:../src/renesas/hwsetup/hyperbus_setup/src/hyperbus_flash_rza2m.c ****     while (1)
 148:../src/renesas/hwsetup/hyperbus_setup/src/hyperbus_flash_rza2m.c ****     {
 149:../src/renesas/hwsetup/hyperbus_setup/src/hyperbus_flash_rza2m.c ****         /** Read status register */
 150:../src/renesas/hwsetup/hyperbus_setup/src/hyperbus_flash_rza2m.c ****         read_sr = hyperflash_readstatus(baddr);
 162              		.loc 1 150 0
 163 004c 0400A0E1 		mov	r0, r4
 164 0050 FEFFFFEB 		bl	hyperflash_readstatus
 165              	.LVL15:
 151:../src/renesas/hwsetup/hyperbus_setup/src/hyperbus_flash_rza2m.c ****         if ( 0 != (read_sr & 0x80))
 166              		.loc 1 151 0
 167 0054 800010E3 		tst	r0, #128
 168 0058 FBFFFF0A 		beq	.L7
 152:../src/renesas/hwsetup/hyperbus_setup/src/hyperbus_flash_rza2m.c ****         {
 153:../src/renesas/hwsetup/hyperbus_setup/src/hyperbus_flash_rza2m.c ****             break;
 154:../src/renesas/hwsetup/hyperbus_setup/src/hyperbus_flash_rza2m.c ****         }
 155:../src/renesas/hwsetup/hyperbus_setup/src/hyperbus_flash_rza2m.c ****     }
 156:../src/renesas/hwsetup/hyperbus_setup/src/hyperbus_flash_rza2m.c **** 
 157:../src/renesas/hwsetup/hyperbus_setup/src/hyperbus_flash_rza2m.c ****     return DRV_SUCCESS;
 158:../src/renesas/hwsetup/hyperbus_setup/src/hyperbus_flash_rza2m.c **** }
 169              		.loc 1 158 0
 170 005c 0000A0E3 		mov	r0, #0
 171              	.LVL16:
 172 0060 7080BDE8 		pop	{r4, r5, r6, pc}
 173              		.cfi_endproc
 174              	.LFE4:
 176              		.section	.text.HyperFlash_EraseSect,"ax",%progbits
 177              		.align	2
 178              		.global	HyperFlash_EraseSect
 179              		.syntax unified
 180              		.arm
 181              		.fpu neon
 183              	HyperFlash_EraseSect:
 184              	.LFB5:
 159:../src/renesas/hwsetup/hyperbus_setup/src/hyperbus_flash_rza2m.c **** /**************************************************************************************************
 160:../src/renesas/hwsetup/hyperbus_setup/src/hyperbus_flash_rza2m.c ****  * End of function HyperFlash_WriteWord
 161:../src/renesas/hwsetup/hyperbus_setup/src/hyperbus_flash_rza2m.c ****  **************************************************************************************************
 162:../src/renesas/hwsetup/hyperbus_setup/src/hyperbus_flash_rza2m.c **** 
 163:../src/renesas/hwsetup/hyperbus_setup/src/hyperbus_flash_rza2m.c **** /**************************************************************************************************
 164:../src/renesas/hwsetup/hyperbus_setup/src/hyperbus_flash_rza2m.c ****  * Function Name: HyperFlash_EraseSect
 165:../src/renesas/hwsetup/hyperbus_setup/src/hyperbus_flash_rza2m.c ****  * Description  : Sector erase of HyperFlash
 166:../src/renesas/hwsetup/hyperbus_setup/src/hyperbus_flash_rza2m.c ****  * Arguments    : baddr       : Base address of HyperFlash
 167:../src/renesas/hwsetup/hyperbus_setup/src/hyperbus_flash_rza2m.c ****  *              : saddr       : Sector address
 168:../src/renesas/hwsetup/hyperbus_setup/src/hyperbus_flash_rza2m.c ****  * Return Value : DRV_SUCCESS  Successful operation
 169:../src/renesas/hwsetup/hyperbus_setup/src/hyperbus_flash_rza2m.c ****  *              : DRV_ERROR    Failure operation
 170:../src/renesas/hwsetup/hyperbus_setup/src/hyperbus_flash_rza2m.c ****  **************************************************************************************************
 171:../src/renesas/hwsetup/hyperbus_setup/src/hyperbus_flash_rza2m.c **** int_t HyperFlash_EraseSect(uint32_t baddr, uint32_t saddr)
 172:../src/renesas/hwsetup/hyperbus_setup/src/hyperbus_flash_rza2m.c **** {
 185              		.loc 1 172 0
 186              		.cfi_startproc
 187              		@ args = 0, pretend = 0, frame = 0
 188              		@ frame_needed = 0, uses_anonymous_args = 0
 189              	.LVL17:
 190 0000 70402DE9 		push	{r4, r5, r6, lr}
 191              		.cfi_def_cfa_offset 16
 192              		.cfi_offset 4, -16
 193              		.cfi_offset 5, -12
 194              		.cfi_offset 6, -8
 195              		.cfi_offset 14, -4
 196 0004 0040A0E1 		mov	r4, r0
 197 0008 0150A0E1 		mov	r5, r1
 198              	.LVL18:
 173:../src/renesas/hwsetup/hyperbus_setup/src/hyperbus_flash_rza2m.c ****     int_t err = DRV_SUCCESS;
 174:../src/renesas/hwsetup/hyperbus_setup/src/hyperbus_flash_rza2m.c ****     uint16_t read_sr;
 175:../src/renesas/hwsetup/hyperbus_setup/src/hyperbus_flash_rza2m.c **** 
 176:../src/renesas/hwsetup/hyperbus_setup/src/hyperbus_flash_rza2m.c ****     /** Word program sequence */
 177:../src/renesas/hwsetup/hyperbus_setup/src/hyperbus_flash_rza2m.c ****     hyperflash_commandwrite(baddr, 0x555, 0x00aa);  /** 1st bus cycle */
 199              		.loc 1 177 0
 200 000c AA20A0E3 		mov	r2, #170
 201 0010 551500E3 		movw	r1, #1365
 202              	.LVL19:
 203 0014 FEFFFFEB 		bl	hyperflash_commandwrite
 204              	.LVL20:
 178:../src/renesas/hwsetup/hyperbus_setup/src/hyperbus_flash_rza2m.c ****     hyperflash_commandwrite(baddr, 0x2aa, 0x0055);  /** 2nd bus cycle */
 205              		.loc 1 178 0
 206 0018 5520A0E3 		mov	r2, #85
 207 001c AA1200E3 		movw	r1, #682
 208 0020 0400A0E1 		mov	r0, r4
 209 0024 FEFFFFEB 		bl	hyperflash_commandwrite
 210              	.LVL21:
 179:../src/renesas/hwsetup/hyperbus_setup/src/hyperbus_flash_rza2m.c **** 
 180:../src/renesas/hwsetup/hyperbus_setup/src/hyperbus_flash_rza2m.c ****     hyperflash_commandwrite(baddr, 0x555, 0x0080);  /** 3rd bus cycle */
 211              		.loc 1 180 0
 212 0028 8020A0E3 		mov	r2, #128
 213 002c 551500E3 		movw	r1, #1365
 214 0030 0400A0E1 		mov	r0, r4
 215 0034 FEFFFFEB 		bl	hyperflash_commandwrite
 216              	.LVL22:
 181:../src/renesas/hwsetup/hyperbus_setup/src/hyperbus_flash_rza2m.c ****     hyperflash_commandwrite(baddr, 0x555, 0x00aa);  /** 4th bus cycle */
 217              		.loc 1 181 0
 218 0038 AA20A0E3 		mov	r2, #170
 219 003c 551500E3 		movw	r1, #1365
 220 0040 0400A0E1 		mov	r0, r4
 221 0044 FEFFFFEB 		bl	hyperflash_commandwrite
 222              	.LVL23:
 182:../src/renesas/hwsetup/hyperbus_setup/src/hyperbus_flash_rza2m.c ****     hyperflash_commandwrite(baddr, 0x2aa, 0x0055);  /** 5th bus cycle */
 223              		.loc 1 182 0
 224 0048 5520A0E3 		mov	r2, #85
 225 004c AA1200E3 		movw	r1, #682
 226 0050 0400A0E1 		mov	r0, r4
 227 0054 FEFFFFEB 		bl	hyperflash_commandwrite
 228              	.LVL24:
 183:../src/renesas/hwsetup/hyperbus_setup/src/hyperbus_flash_rza2m.c ****     hyperflash_datawrite(baddr, saddr, 0x0030);     /** 6th bus cycle */
 229              		.loc 1 183 0
 230 0058 3020A0E3 		mov	r2, #48
 231 005c 0510A0E1 		mov	r1, r5
 232 0060 0400A0E1 		mov	r0, r4
 233 0064 FEFFFFEB 		bl	hyperflash_datawrite
 234              	.LVL25:
 235              	.L10:
 184:../src/renesas/hwsetup/hyperbus_setup/src/hyperbus_flash_rza2m.c **** 
 185:../src/renesas/hwsetup/hyperbus_setup/src/hyperbus_flash_rza2m.c ****     /** Wait for device ready asserted */
 186:../src/renesas/hwsetup/hyperbus_setup/src/hyperbus_flash_rza2m.c ****     while (1)
 187:../src/renesas/hwsetup/hyperbus_setup/src/hyperbus_flash_rza2m.c ****     {
 188:../src/renesas/hwsetup/hyperbus_setup/src/hyperbus_flash_rza2m.c ****         /** Read status register */
 189:../src/renesas/hwsetup/hyperbus_setup/src/hyperbus_flash_rza2m.c ****         read_sr = hyperflash_readstatus(baddr);
 236              		.loc 1 189 0
 237 0068 0400A0E1 		mov	r0, r4
 238 006c FEFFFFEB 		bl	hyperflash_readstatus
 239              	.LVL26:
 190:../src/renesas/hwsetup/hyperbus_setup/src/hyperbus_flash_rza2m.c ****         if ( 0 != (read_sr & 0x80))
 240              		.loc 1 190 0
 241 0070 800010E3 		tst	r0, #128
 242 0074 FBFFFF0A 		beq	.L10
 191:../src/renesas/hwsetup/hyperbus_setup/src/hyperbus_flash_rza2m.c ****         {
 192:../src/renesas/hwsetup/hyperbus_setup/src/hyperbus_flash_rza2m.c ****             break;
 193:../src/renesas/hwsetup/hyperbus_setup/src/hyperbus_flash_rza2m.c ****         }
 194:../src/renesas/hwsetup/hyperbus_setup/src/hyperbus_flash_rza2m.c ****     }
 195:../src/renesas/hwsetup/hyperbus_setup/src/hyperbus_flash_rza2m.c **** 
 196:../src/renesas/hwsetup/hyperbus_setup/src/hyperbus_flash_rza2m.c ****     /** Evaluate erase status */
 197:../src/renesas/hwsetup/hyperbus_setup/src/hyperbus_flash_rza2m.c ****     hyperflash_commandwrite(baddr, 0x555, 0x00d0);  /** 1st bus cycle */
 243              		.loc 1 197 0
 244 0078 D020A0E3 		mov	r2, #208
 245 007c 551500E3 		movw	r1, #1365
 246 0080 0400A0E1 		mov	r0, r4
 247              	.LVL27:
 248 0084 FEFFFFEB 		bl	hyperflash_commandwrite
 249              	.LVL28:
 250              	.L11:
 198:../src/renesas/hwsetup/hyperbus_setup/src/hyperbus_flash_rza2m.c ****     
 199:../src/renesas/hwsetup/hyperbus_setup/src/hyperbus_flash_rza2m.c ****     /** Wait for device ready asserted */
 200:../src/renesas/hwsetup/hyperbus_setup/src/hyperbus_flash_rza2m.c ****     while (1)
 201:../src/renesas/hwsetup/hyperbus_setup/src/hyperbus_flash_rza2m.c ****     {
 202:../src/renesas/hwsetup/hyperbus_setup/src/hyperbus_flash_rza2m.c ****         /** Read status register */
 203:../src/renesas/hwsetup/hyperbus_setup/src/hyperbus_flash_rza2m.c ****         read_sr = hyperflash_readstatus(baddr);
 251              		.loc 1 203 0
 252 0088 0400A0E1 		mov	r0, r4
 253 008c FEFFFFEB 		bl	hyperflash_readstatus
 254              	.LVL29:
 204:../src/renesas/hwsetup/hyperbus_setup/src/hyperbus_flash_rza2m.c ****         if ( 0 != (read_sr & 0x80))
 255              		.loc 1 204 0
 256 0090 800010E3 		tst	r0, #128
 257 0094 FBFFFF0A 		beq	.L11
 205:../src/renesas/hwsetup/hyperbus_setup/src/hyperbus_flash_rza2m.c ****         {
 206:../src/renesas/hwsetup/hyperbus_setup/src/hyperbus_flash_rza2m.c ****             break;
 207:../src/renesas/hwsetup/hyperbus_setup/src/hyperbus_flash_rza2m.c ****         }
 208:../src/renesas/hwsetup/hyperbus_setup/src/hyperbus_flash_rza2m.c ****     }
 209:../src/renesas/hwsetup/hyperbus_setup/src/hyperbus_flash_rza2m.c ****     
 210:../src/renesas/hwsetup/hyperbus_setup/src/hyperbus_flash_rza2m.c ****     /** Sector erase error check */
 211:../src/renesas/hwsetup/hyperbus_setup/src/hyperbus_flash_rza2m.c ****     if ( 0 == (read_sr & 0x01))
 258              		.loc 1 211 0
 259 0098 010010E3 		tst	r0, #1
 260 009c 0100000A 		beq	.L13
 173:../src/renesas/hwsetup/hyperbus_setup/src/hyperbus_flash_rza2m.c ****     uint16_t read_sr;
 261              		.loc 1 173 0
 262 00a0 0000A0E3 		mov	r0, #0
 263              	.LVL30:
 264 00a4 7080BDE8 		pop	{r4, r5, r6, pc}
 265              	.LVL31:
 266              	.L13:
 212:../src/renesas/hwsetup/hyperbus_setup/src/hyperbus_flash_rza2m.c ****     {
 213:../src/renesas/hwsetup/hyperbus_setup/src/hyperbus_flash_rza2m.c ****         err = DRV_ERROR; /** erase error occured */
 267              		.loc 1 213 0
 268 00a8 0000E0E3 		mvn	r0, #0
 269              	.LVL32:
 214:../src/renesas/hwsetup/hyperbus_setup/src/hyperbus_flash_rza2m.c ****     }
 215:../src/renesas/hwsetup/hyperbus_setup/src/hyperbus_flash_rza2m.c **** 
 216:../src/renesas/hwsetup/hyperbus_setup/src/hyperbus_flash_rza2m.c ****     return err;
 217:../src/renesas/hwsetup/hyperbus_setup/src/hyperbus_flash_rza2m.c **** }
 270              		.loc 1 217 0
 271 00ac 7080BDE8 		pop	{r4, r5, r6, pc}
 272              		.cfi_endproc
 273              	.LFE5:
 275              		.section	.text.HyperFlash_ReadVCR,"ax",%progbits
 276              		.align	2
 277              		.global	HyperFlash_ReadVCR
 278              		.syntax unified
 279              		.arm
 280              		.fpu neon
 282              	HyperFlash_ReadVCR:
 283              	.LFB6:
 218:../src/renesas/hwsetup/hyperbus_setup/src/hyperbus_flash_rza2m.c **** /**************************************************************************************************
 219:../src/renesas/hwsetup/hyperbus_setup/src/hyperbus_flash_rza2m.c ****  * End of function HyperFlash_EraseSect
 220:../src/renesas/hwsetup/hyperbus_setup/src/hyperbus_flash_rza2m.c ****  **************************************************************************************************
 221:../src/renesas/hwsetup/hyperbus_setup/src/hyperbus_flash_rza2m.c **** 
 222:../src/renesas/hwsetup/hyperbus_setup/src/hyperbus_flash_rza2m.c **** /**************************************************************************************************
 223:../src/renesas/hwsetup/hyperbus_setup/src/hyperbus_flash_rza2m.c ****  * Function Name: HyperFlash_ReadVCR
 224:../src/renesas/hwsetup/hyperbus_setup/src/hyperbus_flash_rza2m.c ****  * Description  : Read VCR of HyperFlash
 225:../src/renesas/hwsetup/hyperbus_setup/src/hyperbus_flash_rza2m.c ****  * Arguments    : baddr       : Base address of HyperFlash
 226:../src/renesas/hwsetup/hyperbus_setup/src/hyperbus_flash_rza2m.c ****  * Return Value : VCR value
 227:../src/renesas/hwsetup/hyperbus_setup/src/hyperbus_flash_rza2m.c ****  **************************************************************************************************
 228:../src/renesas/hwsetup/hyperbus_setup/src/hyperbus_flash_rza2m.c **** uint16_t HyperFlash_ReadVCR(uint32_t baddr)
 229:../src/renesas/hwsetup/hyperbus_setup/src/hyperbus_flash_rza2m.c **** {
 284              		.loc 1 229 0
 285              		.cfi_startproc
 286              		@ args = 0, pretend = 0, frame = 0
 287              		@ frame_needed = 0, uses_anonymous_args = 0
 288              	.LVL33:
 289 0000 10402DE9 		push	{r4, lr}
 290              		.cfi_def_cfa_offset 8
 291              		.cfi_offset 4, -8
 292              		.cfi_offset 14, -4
 293 0004 0040A0E1 		mov	r4, r0
 230:../src/renesas/hwsetup/hyperbus_setup/src/hyperbus_flash_rza2m.c ****     uint16_t read_vcr;
 231:../src/renesas/hwsetup/hyperbus_setup/src/hyperbus_flash_rza2m.c **** 
 232:../src/renesas/hwsetup/hyperbus_setup/src/hyperbus_flash_rza2m.c ****     hyperflash_commandwrite(baddr, 0x555, 0x00aa);    /** 1st bus cycle */
 294              		.loc 1 232 0
 295 0008 AA20A0E3 		mov	r2, #170
 296 000c 551500E3 		movw	r1, #1365
 297 0010 FEFFFFEB 		bl	hyperflash_commandwrite
 298              	.LVL34:
 233:../src/renesas/hwsetup/hyperbus_setup/src/hyperbus_flash_rza2m.c ****     hyperflash_commandwrite(baddr, 0x2aa, 0x0055);    /** 2nd bus cycle */
 299              		.loc 1 233 0
 300 0014 5520A0E3 		mov	r2, #85
 301 0018 AA1200E3 		movw	r1, #682
 302 001c 0400A0E1 		mov	r0, r4
 303 0020 FEFFFFEB 		bl	hyperflash_commandwrite
 304              	.LVL35:
 234:../src/renesas/hwsetup/hyperbus_setup/src/hyperbus_flash_rza2m.c ****     hyperflash_commandwrite(baddr, 0x555, 0x00c7);    /** 3rd bus cycle */
 305              		.loc 1 234 0
 306 0024 C720A0E3 		mov	r2, #199
 307 0028 551500E3 		movw	r1, #1365
 308 002c 0400A0E1 		mov	r0, r4
 309 0030 FEFFFFEB 		bl	hyperflash_commandwrite
 310              	.LVL36:
 235:../src/renesas/hwsetup/hyperbus_setup/src/hyperbus_flash_rza2m.c ****     read_vcr = hyperflash_responseread(baddr); /** 4th bus cycle */
 311              		.loc 1 235 0
 312 0034 0400A0E1 		mov	r0, r4
 313 0038 FEFFFFEB 		bl	hyperflash_responseread
 314              	.LVL37:
 236:../src/renesas/hwsetup/hyperbus_setup/src/hyperbus_flash_rza2m.c **** 
 237:../src/renesas/hwsetup/hyperbus_setup/src/hyperbus_flash_rza2m.c ****     return read_vcr;
 238:../src/renesas/hwsetup/hyperbus_setup/src/hyperbus_flash_rza2m.c **** }
 315              		.loc 1 238 0
 316 003c 1080BDE8 		pop	{r4, pc}
 317              		.cfi_endproc
 318              	.LFE6:
 320              		.section	.text.HyperFlash_WriteVCR,"ax",%progbits
 321              		.align	2
 322              		.global	HyperFlash_WriteVCR
 323              		.syntax unified
 324              		.arm
 325              		.fpu neon
 327              	HyperFlash_WriteVCR:
 328              	.LFB7:
 239:../src/renesas/hwsetup/hyperbus_setup/src/hyperbus_flash_rza2m.c **** /**************************************************************************************************
 240:../src/renesas/hwsetup/hyperbus_setup/src/hyperbus_flash_rza2m.c ****  * End of function HyperFlash_ReadVCR
 241:../src/renesas/hwsetup/hyperbus_setup/src/hyperbus_flash_rza2m.c ****  **************************************************************************************************
 242:../src/renesas/hwsetup/hyperbus_setup/src/hyperbus_flash_rza2m.c **** 
 243:../src/renesas/hwsetup/hyperbus_setup/src/hyperbus_flash_rza2m.c **** /**************************************************************************************************
 244:../src/renesas/hwsetup/hyperbus_setup/src/hyperbus_flash_rza2m.c ****  * Function Name: HyperFlash_WriteVCR
 245:../src/renesas/hwsetup/hyperbus_setup/src/hyperbus_flash_rza2m.c ****  * Description  : Write VCR of HyperFlash
 246:../src/renesas/hwsetup/hyperbus_setup/src/hyperbus_flash_rza2m.c ****  * Arguments    : baddr       : Base address of HyperFlash
 247:../src/renesas/hwsetup/hyperbus_setup/src/hyperbus_flash_rza2m.c ****  *              : wdata       : Write data
 248:../src/renesas/hwsetup/hyperbus_setup/src/hyperbus_flash_rza2m.c ****  * Return Value : DRV_SUCCESS   Successful operation (always)
 249:../src/renesas/hwsetup/hyperbus_setup/src/hyperbus_flash_rza2m.c ****  **************************************************************************************************
 250:../src/renesas/hwsetup/hyperbus_setup/src/hyperbus_flash_rza2m.c **** int_t HyperFlash_WriteVCR(uint32_t baddr, uint16_t wdata)
 251:../src/renesas/hwsetup/hyperbus_setup/src/hyperbus_flash_rza2m.c **** {
 329              		.loc 1 251 0
 330              		.cfi_startproc
 331              		@ args = 0, pretend = 0, frame = 0
 332              		@ frame_needed = 0, uses_anonymous_args = 0
 333              	.LVL38:
 334 0000 70402DE9 		push	{r4, r5, r6, lr}
 335              		.cfi_def_cfa_offset 16
 336              		.cfi_offset 4, -16
 337              		.cfi_offset 5, -12
 338              		.cfi_offset 6, -8
 339              		.cfi_offset 14, -4
 340 0004 0040A0E1 		mov	r4, r0
 341 0008 0150A0E1 		mov	r5, r1
 252:../src/renesas/hwsetup/hyperbus_setup/src/hyperbus_flash_rza2m.c ****     uint16_t read_sr;
 253:../src/renesas/hwsetup/hyperbus_setup/src/hyperbus_flash_rza2m.c **** 
 254:../src/renesas/hwsetup/hyperbus_setup/src/hyperbus_flash_rza2m.c ****     hyperflash_commandwrite(baddr, 0x555, 0x00aa); /** 1st bus cycle */
 342              		.loc 1 254 0
 343 000c AA20A0E3 		mov	r2, #170
 344 0010 551500E3 		movw	r1, #1365
 345              	.LVL39:
 346 0014 FEFFFFEB 		bl	hyperflash_commandwrite
 347              	.LVL40:
 255:../src/renesas/hwsetup/hyperbus_setup/src/hyperbus_flash_rza2m.c ****     hyperflash_commandwrite(baddr, 0x2aa, 0x0055); /** 2nd bus cycle */
 348              		.loc 1 255 0
 349 0018 5520A0E3 		mov	r2, #85
 350 001c AA1200E3 		movw	r1, #682
 351 0020 0400A0E1 		mov	r0, r4
 352 0024 FEFFFFEB 		bl	hyperflash_commandwrite
 353              	.LVL41:
 256:../src/renesas/hwsetup/hyperbus_setup/src/hyperbus_flash_rza2m.c ****     hyperflash_commandwrite(baddr, 0x555, 0x0038); /** 3rd bus cycle */
 354              		.loc 1 256 0
 355 0028 3820A0E3 		mov	r2, #56
 356 002c 551500E3 		movw	r1, #1365
 357 0030 0400A0E1 		mov	r0, r4
 358 0034 FEFFFFEB 		bl	hyperflash_commandwrite
 359              	.LVL42:
 257:../src/renesas/hwsetup/hyperbus_setup/src/hyperbus_flash_rza2m.c ****     hyperflash_commandwrite(baddr, 0x000, wdata);  /** 4th bus cycle */
 360              		.loc 1 257 0
 361 0038 0520A0E1 		mov	r2, r5
 362 003c 0010A0E3 		mov	r1, #0
 363 0040 0400A0E1 		mov	r0, r4
 364 0044 FEFFFFEB 		bl	hyperflash_commandwrite
 365              	.LVL43:
 366              	.L18:
 258:../src/renesas/hwsetup/hyperbus_setup/src/hyperbus_flash_rza2m.c **** 
 259:../src/renesas/hwsetup/hyperbus_setup/src/hyperbus_flash_rza2m.c ****     /** Wait for device ready asserted */
 260:../src/renesas/hwsetup/hyperbus_setup/src/hyperbus_flash_rza2m.c ****     while (1)
 261:../src/renesas/hwsetup/hyperbus_setup/src/hyperbus_flash_rza2m.c ****     {
 262:../src/renesas/hwsetup/hyperbus_setup/src/hyperbus_flash_rza2m.c ****         /** Read status register */
 263:../src/renesas/hwsetup/hyperbus_setup/src/hyperbus_flash_rza2m.c ****         read_sr = hyperflash_readstatus(baddr);
 367              		.loc 1 263 0
 368 0048 0400A0E1 		mov	r0, r4
 369 004c FEFFFFEB 		bl	hyperflash_readstatus
 370              	.LVL44:
 264:../src/renesas/hwsetup/hyperbus_setup/src/hyperbus_flash_rza2m.c ****         if ( 0 != (read_sr & 0x80))
 371              		.loc 1 264 0
 372 0050 800010E3 		tst	r0, #128
 373 0054 FBFFFF0A 		beq	.L18
 265:../src/renesas/hwsetup/hyperbus_setup/src/hyperbus_flash_rza2m.c ****         {
 266:../src/renesas/hwsetup/hyperbus_setup/src/hyperbus_flash_rza2m.c ****             break;
 267:../src/renesas/hwsetup/hyperbus_setup/src/hyperbus_flash_rza2m.c ****         }
 268:../src/renesas/hwsetup/hyperbus_setup/src/hyperbus_flash_rza2m.c ****     }
 269:../src/renesas/hwsetup/hyperbus_setup/src/hyperbus_flash_rza2m.c **** 
 270:../src/renesas/hwsetup/hyperbus_setup/src/hyperbus_flash_rza2m.c ****     return DRV_SUCCESS;
 271:../src/renesas/hwsetup/hyperbus_setup/src/hyperbus_flash_rza2m.c **** }
 374              		.loc 1 271 0
 375 0058 0000A0E3 		mov	r0, #0
 376              	.LVL45:
 377 005c 7080BDE8 		pop	{r4, r5, r6, pc}
 378              		.cfi_endproc
 379              	.LFE7:
 381              		.section	.text.HyperFlash_ReadROMInfo,"ax",%progbits
 382              		.align	2
 383              		.global	HyperFlash_ReadROMInfo
 384              		.syntax unified
 385              		.arm
 386              		.fpu neon
 388              	HyperFlash_ReadROMInfo:
 389              	.LFB8:
 272:../src/renesas/hwsetup/hyperbus_setup/src/hyperbus_flash_rza2m.c **** /**************************************************************************************************
 273:../src/renesas/hwsetup/hyperbus_setup/src/hyperbus_flash_rza2m.c ****  * End of function HyperFlash_WriteVCR
 274:../src/renesas/hwsetup/hyperbus_setup/src/hyperbus_flash_rza2m.c ****  **************************************************************************************************
 275:../src/renesas/hwsetup/hyperbus_setup/src/hyperbus_flash_rza2m.c **** 
 276:../src/renesas/hwsetup/hyperbus_setup/src/hyperbus_flash_rza2m.c **** /**************************************************************************************************
 277:../src/renesas/hwsetup/hyperbus_setup/src/hyperbus_flash_rza2m.c ****  * Function Name: HyperFlash_ReadROMInfo
 278:../src/renesas/hwsetup/hyperbus_setup/src/hyperbus_flash_rza2m.c ****  * Description  : Read Device ID and CFI of HyperFlash
 279:../src/renesas/hwsetup/hyperbus_setup/src/hyperbus_flash_rza2m.c ****  * Arguments    : baddr       : Base address of HyperFlash
 280:../src/renesas/hwsetup/hyperbus_setup/src/hyperbus_flash_rza2m.c ****  *              : idbuf       : Read buffer pointer
 281:../src/renesas/hwsetup/hyperbus_setup/src/hyperbus_flash_rza2m.c ****  * Return Value : None
 282:../src/renesas/hwsetup/hyperbus_setup/src/hyperbus_flash_rza2m.c ****  **************************************************************************************************
 283:../src/renesas/hwsetup/hyperbus_setup/src/hyperbus_flash_rza2m.c **** void HyperFlash_ReadROMInfo(uint32_t baddr, uint16_t *idbuf)
 284:../src/renesas/hwsetup/hyperbus_setup/src/hyperbus_flash_rza2m.c **** {
 390              		.loc 1 284 0
 391              		.cfi_startproc
 392              		@ args = 0, pretend = 0, frame = 0
 393              		@ frame_needed = 0, uses_anonymous_args = 0
 394              	.LVL46:
 395 0000 F0412DE9 		push	{r4, r5, r6, r7, r8, lr}
 396              		.cfi_def_cfa_offset 24
 397              		.cfi_offset 4, -24
 398              		.cfi_offset 5, -20
 399              		.cfi_offset 6, -16
 400              		.cfi_offset 7, -12
 401              		.cfi_offset 8, -8
 402              		.cfi_offset 14, -4
 403 0004 0060A0E1 		mov	r6, r0
 404 0008 0170A0E1 		mov	r7, r1
 285:../src/renesas/hwsetup/hyperbus_setup/src/hyperbus_flash_rza2m.c **** 
 286:../src/renesas/hwsetup/hyperbus_setup/src/hyperbus_flash_rza2m.c ****     uint32_t i;
 287:../src/renesas/hwsetup/hyperbus_setup/src/hyperbus_flash_rza2m.c **** 
 288:../src/renesas/hwsetup/hyperbus_setup/src/hyperbus_flash_rza2m.c ****     /** CFI entry */
 289:../src/renesas/hwsetup/hyperbus_setup/src/hyperbus_flash_rza2m.c ****     hyperflash_commandwrite(baddr, 0x055, 0x0098); /** 1st bus cycle */
 405              		.loc 1 289 0
 406 000c 9820A0E3 		mov	r2, #152
 407 0010 5510A0E3 		mov	r1, #85
 408              	.LVL47:
 409 0014 FEFFFFEB 		bl	hyperflash_commandwrite
 410              	.LVL48:
 290:../src/renesas/hwsetup/hyperbus_setup/src/hyperbus_flash_rza2m.c **** 
 291:../src/renesas/hwsetup/hyperbus_setup/src/hyperbus_flash_rza2m.c ****     for(i = 0; i < 256; i++)
 411              		.loc 1 291 0
 412 0018 0040A0E3 		mov	r4, #0
 413 001c 040000EA 		b	.L21
 414              	.LVL49:
 415              	.L22:
 292:../src/renesas/hwsetup/hyperbus_setup/src/hyperbus_flash_rza2m.c ****     {
 293:../src/renesas/hwsetup/hyperbus_setup/src/hyperbus_flash_rza2m.c ****         idbuf[i] = hyperflash_responseread(baddr + (i << 1));
 416              		.loc 1 293 0 discriminator 3
 417 0020 8450A0E1 		lsl	r5, r4, #1
 418 0024 050086E0 		add	r0, r6, r5
 419 0028 FEFFFFEB 		bl	hyperflash_responseread
 420              	.LVL50:
 421 002c B50087E1 		strh	r0, [r7, r5]	@ movhi
 291:../src/renesas/hwsetup/hyperbus_setup/src/hyperbus_flash_rza2m.c ****     {
 422              		.loc 1 291 0 discriminator 3
 423 0030 014084E2 		add	r4, r4, #1
 424              	.LVL51:
 425              	.L21:
 291:../src/renesas/hwsetup/hyperbus_setup/src/hyperbus_flash_rza2m.c ****     {
 426              		.loc 1 291 0 is_stmt 0 discriminator 1
 427 0034 FF0054E3 		cmp	r4, #255
 428 0038 F8FFFF9A 		bls	.L22
 294:../src/renesas/hwsetup/hyperbus_setup/src/hyperbus_flash_rza2m.c ****     }
 295:../src/renesas/hwsetup/hyperbus_setup/src/hyperbus_flash_rza2m.c **** 
 296:../src/renesas/hwsetup/hyperbus_setup/src/hyperbus_flash_rza2m.c ****     /** CFI exit */
 297:../src/renesas/hwsetup/hyperbus_setup/src/hyperbus_flash_rza2m.c ****     hyperflash_commandwrite(baddr, 0x000, 0x00f0); /** 1st bus cycle */
 429              		.loc 1 297 0 is_stmt 1
 430 003c F020A0E3 		mov	r2, #240
 431 0040 0010A0E3 		mov	r1, #0
 432 0044 0600A0E1 		mov	r0, r6
 433 0048 FEFFFFEB 		bl	hyperflash_commandwrite
 434              	.LVL52:
 435 004c F081BDE8 		pop	{r4, r5, r6, r7, r8, pc}
 436              		.cfi_endproc
 437              	.LFE8:
 439              		.text
 440              	.Letext0:
 441              		.file 2 "c:\\program files (x86)\\gnu tools arm embedded\\6 2017-q2-update\\arm-none-eabi\\include
 442              		.file 3 "c:\\program files (x86)\\gnu tools arm embedded\\6 2017-q2-update\\arm-none-eabi\\include
 443              		.file 4 "c:\\program files (x86)\\gnu tools arm embedded\\6 2017-q2-update\\arm-none-eabi\\include
 444              		.file 5 "c:\\program files (x86)\\gnu tools arm embedded\\6 2017-q2-update\\arm-none-eabi\\include
 445              		.file 6 "c:\\program files (x86)\\gnu tools arm embedded\\6 2017-q2-update\\lib\\gcc\\arm-none-eab
 446              		.file 7 "c:\\program files (x86)\\gnu tools arm embedded\\6 2017-q2-update\\arm-none-eabi\\include
 447              		.file 8 "c:\\program files (x86)\\gnu tools arm embedded\\6 2017-q2-update\\arm-none-eabi\\include
 448              		.file 9 "C:/Renesas/e2studio_2021_01_workspace_RZA2M_ANPR/ANPR_RZA2M_EBK/generate/system/inc/r_typ
 449              		.file 10 "C:/Renesas/e2studio_2021_01_workspace_RZA2M_ANPR/ANPR_RZA2M_EBK/generate/system/inc/driv