   1              		.cpu cortex-a9
   2              		.eabi_attribute 28, 1
   3              		.eabi_attribute 20, 1
   4              		.eabi_attribute 21, 1
   5              		.eabi_attribute 23, 3
   6              		.eabi_attribute 24, 1
   7              		.eabi_attribute 25, 1
   8              		.eabi_attribute 26, 1
   9              		.eabi_attribute 30, 1
  10              		.eabi_attribute 34, 0
  11              		.eabi_attribute 18, 4
  12              		.file	"freertos_tick_config.c"
  13              		.text
  14              	.Ltext0:
  15              		.cfi_sections	.debug_frame
  16              		.section	.text.vConfigureTickInterrupt,"ax",%progbits
  17              		.align	2
  18              		.global	vConfigureTickInterrupt
  19              		.syntax unified
  20              		.arm
  21              		.fpu neon
  23              	vConfigureTickInterrupt:
  24              	.LFB4:
  25              		.file 1 "../src/FreeRTOS/portable/GCC/ARM_CA9_RZA2M/freertos_tick_config.c"
   1:../src/FreeRTOS/portable/GCC/ARM_CA9_RZA2M/freertos_tick_config.c **** /*
   2:../src/FreeRTOS/portable/GCC/ARM_CA9_RZA2M/freertos_tick_config.c ****  * FreeRTOS Kernel V10.0.0
   3:../src/FreeRTOS/portable/GCC/ARM_CA9_RZA2M/freertos_tick_config.c ****  * Copyright (C) 2017 Amazon.com, Inc. or its affiliates.  All Rights Reserved.
   4:../src/FreeRTOS/portable/GCC/ARM_CA9_RZA2M/freertos_tick_config.c ****  *
   5:../src/FreeRTOS/portable/GCC/ARM_CA9_RZA2M/freertos_tick_config.c ****  * Permission is hereby granted, free of charge, to any person obtaining a copy of
   6:../src/FreeRTOS/portable/GCC/ARM_CA9_RZA2M/freertos_tick_config.c ****  * this software and associated documentation files (the "Software"), to deal in
   7:../src/FreeRTOS/portable/GCC/ARM_CA9_RZA2M/freertos_tick_config.c ****  * the Software without restriction, including without limitation the rights to
   8:../src/FreeRTOS/portable/GCC/ARM_CA9_RZA2M/freertos_tick_config.c ****  * use, copy, modify, merge, publish, distribute, sublicense, and/or sell copies of
   9:../src/FreeRTOS/portable/GCC/ARM_CA9_RZA2M/freertos_tick_config.c ****  * the Software, and to permit persons to whom the Software is furnished to do so,
  10:../src/FreeRTOS/portable/GCC/ARM_CA9_RZA2M/freertos_tick_config.c ****  * subject to the following conditions:
  11:../src/FreeRTOS/portable/GCC/ARM_CA9_RZA2M/freertos_tick_config.c ****  *
  12:../src/FreeRTOS/portable/GCC/ARM_CA9_RZA2M/freertos_tick_config.c ****  * The above copyright notice and this permission notice shall be included in all
  13:../src/FreeRTOS/portable/GCC/ARM_CA9_RZA2M/freertos_tick_config.c ****  * copies or substantial portions of the Software. If you wish to use our Amazon
  14:../src/FreeRTOS/portable/GCC/ARM_CA9_RZA2M/freertos_tick_config.c ****  * FreeRTOS name, please do so in a fair use way that does not cause confusion.
  15:../src/FreeRTOS/portable/GCC/ARM_CA9_RZA2M/freertos_tick_config.c ****  *
  16:../src/FreeRTOS/portable/GCC/ARM_CA9_RZA2M/freertos_tick_config.c ****  * THE SOFTWARE IS PROVIDED "AS IS", WITHOUT WARRANTY OF ANY KIND, EXPRESS OR
  17:../src/FreeRTOS/portable/GCC/ARM_CA9_RZA2M/freertos_tick_config.c ****  * IMPLIED, INCLUDING BUT NOT LIMITED TO THE WARRANTIES OF MERCHANTABILITY, FITNESS
  18:../src/FreeRTOS/portable/GCC/ARM_CA9_RZA2M/freertos_tick_config.c ****  * FOR A PARTICULAR PURPOSE AND NONINFRINGEMENT. IN NO EVENT SHALL THE AUTHORS OR
  19:../src/FreeRTOS/portable/GCC/ARM_CA9_RZA2M/freertos_tick_config.c ****  * COPYRIGHT HOLDERS BE LIABLE FOR ANY CLAIM, DAMAGES OR OTHER LIABILITY, WHETHER
  20:../src/FreeRTOS/portable/GCC/ARM_CA9_RZA2M/freertos_tick_config.c ****  * IN AN ACTION OF CONTRACT, TORT OR OTHERWISE, ARISING FROM, OUT OF OR IN
  21:../src/FreeRTOS/portable/GCC/ARM_CA9_RZA2M/freertos_tick_config.c ****  * CONNECTION WITH THE SOFTWARE OR THE USE OR OTHER DEALINGS IN THE SOFTWARE.
  22:../src/FreeRTOS/portable/GCC/ARM_CA9_RZA2M/freertos_tick_config.c ****  *
  23:../src/FreeRTOS/portable/GCC/ARM_CA9_RZA2M/freertos_tick_config.c ****  * http://www.FreeRTOS.org
  24:../src/FreeRTOS/portable/GCC/ARM_CA9_RZA2M/freertos_tick_config.c ****  * http://aws.amazon.com/freertos
  25:../src/FreeRTOS/portable/GCC/ARM_CA9_RZA2M/freertos_tick_config.c ****  *
  26:../src/FreeRTOS/portable/GCC/ARM_CA9_RZA2M/freertos_tick_config.c ****  * 1 tab == 4 spaces!
  27:../src/FreeRTOS/portable/GCC/ARM_CA9_RZA2M/freertos_tick_config.c ****  */
  28:../src/FreeRTOS/portable/GCC/ARM_CA9_RZA2M/freertos_tick_config.c **** 
  29:../src/FreeRTOS/portable/GCC/ARM_CA9_RZA2M/freertos_tick_config.c **** /* Renesas driver includes. */
  30:../src/FreeRTOS/portable/GCC/ARM_CA9_RZA2M/freertos_tick_config.c **** #include <stdint.h>
  31:../src/FreeRTOS/portable/GCC/ARM_CA9_RZA2M/freertos_tick_config.c **** #include "iodefine.h"
  32:../src/FreeRTOS/portable/GCC/ARM_CA9_RZA2M/freertos_tick_config.c **** 
  33:../src/FreeRTOS/portable/GCC/ARM_CA9_RZA2M/freertos_tick_config.c **** /* FreeRTOS includes. */
  34:../src/FreeRTOS/portable/GCC/ARM_CA9_RZA2M/freertos_tick_config.c **** #include "FreeRTOS.h"
  35:../src/FreeRTOS/portable/GCC/ARM_CA9_RZA2M/freertos_tick_config.c **** #include "task.h"
  36:../src/FreeRTOS/portable/GCC/ARM_CA9_RZA2M/freertos_tick_config.c **** 
  37:../src/FreeRTOS/portable/GCC/ARM_CA9_RZA2M/freertos_tick_config.c **** #include "compiler_settings.h"
  38:../src/FreeRTOS/portable/GCC/ARM_CA9_RZA2M/freertos_tick_config.c **** #include "r_devlink_wrapper.h"
  39:../src/FreeRTOS/portable/GCC/ARM_CA9_RZA2M/freertos_tick_config.c **** #include "r_os_abstraction_api.h"
  40:../src/FreeRTOS/portable/GCC/ARM_CA9_RZA2M/freertos_tick_config.c **** #include "r_ostm_drv_api.h"
  41:../src/FreeRTOS/portable/GCC/ARM_CA9_RZA2M/freertos_tick_config.c **** 
  42:../src/FreeRTOS/portable/GCC/ARM_CA9_RZA2M/freertos_tick_config.c **** /*
  43:../src/FreeRTOS/portable/GCC/ARM_CA9_RZA2M/freertos_tick_config.c ****  * The application must provide a function that configures a peripheral to
  44:../src/FreeRTOS/portable/GCC/ARM_CA9_RZA2M/freertos_tick_config.c ****  * create the FreeRTOS tick interrupt, then define configSETUP_TICK_INTERRUPT()
  45:../src/FreeRTOS/portable/GCC/ARM_CA9_RZA2M/freertos_tick_config.c ****  * in FreeRTOSConfig.h to call the function.  This file contains a function
  46:../src/FreeRTOS/portable/GCC/ARM_CA9_RZA2M/freertos_tick_config.c ****  * that is suitable for use on the Renesas RZ MPU.
  47:../src/FreeRTOS/portable/GCC/ARM_CA9_RZA2M/freertos_tick_config.c ****  */
  48:../src/FreeRTOS/portable/GCC/ARM_CA9_RZA2M/freertos_tick_config.c **** 
  49:../src/FreeRTOS/portable/GCC/ARM_CA9_RZA2M/freertos_tick_config.c **** #define R_FREERTOS_RUNTIME_STATS_OSTM_RESOURCE ("\\\\.\\runtime_stats_timer")
  50:../src/FreeRTOS/portable/GCC/ARM_CA9_RZA2M/freertos_tick_config.c **** #define runtimeCLOCK_SCALE_SHIFT	( 9UL )
  51:../src/FreeRTOS/portable/GCC/ARM_CA9_RZA2M/freertos_tick_config.c **** #define runtimeOVERFLOW_BIT			( 1UL << ( 32UL - runtimeCLOCK_SCALE_SHIFT ) )
  52:../src/FreeRTOS/portable/GCC/ARM_CA9_RZA2M/freertos_tick_config.c **** 
  53:../src/FreeRTOS/portable/GCC/ARM_CA9_RZA2M/freertos_tick_config.c **** static int_t s_tick_timer_handle = (-1);
  54:../src/FreeRTOS/portable/GCC/ARM_CA9_RZA2M/freertos_tick_config.c **** static int_t s_runtime_stats_timer_handle = (-1);
  55:../src/FreeRTOS/portable/GCC/ARM_CA9_RZA2M/freertos_tick_config.c **** 
  56:../src/FreeRTOS/portable/GCC/ARM_CA9_RZA2M/freertos_tick_config.c **** void vConfigureTickInterrupt( void )
  57:../src/FreeRTOS/portable/GCC/ARM_CA9_RZA2M/freertos_tick_config.c **** {
  26              		.loc 1 57 0
  27              		.cfi_startproc
  28              		@ args = 0, pretend = 0, frame = 0
  29              		@ frame_needed = 0, uses_anonymous_args = 0
  58:../src/FreeRTOS/portable/GCC/ARM_CA9_RZA2M/freertos_tick_config.c ****     if (( -1) == s_tick_timer_handle)
  30              		.loc 1 58 0
  31 0000 003000E3 		movw	r3, #:lower16:.LANCHOR0
  32 0004 003040E3 		movt	r3, #:upper16:.LANCHOR0
  33 0008 003093E5 		ldr	r3, [r3]
  34 000c 010073E3 		cmn	r3, #1
  35 0010 1EFF2F11 		bxne	lr
  57:../src/FreeRTOS/portable/GCC/ARM_CA9_RZA2M/freertos_tick_config.c ****     if (( -1) == s_tick_timer_handle)
  36              		.loc 1 57 0
  37 0014 10402DE9 		push	{r4, lr}
  38              		.cfi_def_cfa_offset 8
  39              		.cfi_offset 4, -8
  40              		.cfi_offset 14, -4
  59:../src/FreeRTOS/portable/GCC/ARM_CA9_RZA2M/freertos_tick_config.c ****     {
  60:../src/FreeRTOS/portable/GCC/ARM_CA9_RZA2M/freertos_tick_config.c ****         s_tick_timer_handle = open(R_OS_ABSTRACTION_OSTM_RESOURCE, O_RDWR);
  41              		.loc 1 60 0
  42 0018 0210A0E3 		mov	r1, #2
  43 001c 000000E3 		movw	r0, #:lower16:.LC0
  44 0020 000040E3 		movt	r0, #:upper16:.LC0
  45 0024 FEFFFFEB 		bl	open
  46              	.LVL0:
  47 0028 003000E3 		movw	r3, #:lower16:.LANCHOR0
  48 002c 003040E3 		movt	r3, #:upper16:.LANCHOR0
  49 0030 000083E5 		str	r0, [r3]
  61:../src/FreeRTOS/portable/GCC/ARM_CA9_RZA2M/freertos_tick_config.c **** 
  62:../src/FreeRTOS/portable/GCC/ARM_CA9_RZA2M/freertos_tick_config.c ****         if (( -1) == s_tick_timer_handle)
  50              		.loc 1 62 0
  51 0034 010070E3 		cmn	r0, #1
  52 0038 0300000A 		beq	.L8
  63:../src/FreeRTOS/portable/GCC/ARM_CA9_RZA2M/freertos_tick_config.c ****         {
  64:../src/FreeRTOS/portable/GCC/ARM_CA9_RZA2M/freertos_tick_config.c ****             R_OS_AssertCalled( __FILE__, __LINE__);
  65:../src/FreeRTOS/portable/GCC/ARM_CA9_RZA2M/freertos_tick_config.c ****         }
  66:../src/FreeRTOS/portable/GCC/ARM_CA9_RZA2M/freertos_tick_config.c ****         else
  67:../src/FreeRTOS/portable/GCC/ARM_CA9_RZA2M/freertos_tick_config.c ****         {
  68:../src/FreeRTOS/portable/GCC/ARM_CA9_RZA2M/freertos_tick_config.c ****             control(s_tick_timer_handle, CTRL_OSTM_START_TIMER, NULL);
  53              		.loc 1 68 0
  54 003c 0020A0E3 		mov	r2, #0
  55 0040 0210A0E1 		mov	r1, r2
  56 0044 FEFFFFEB 		bl	control
  57              	.LVL1:
  58 0048 1080BDE8 		pop	{r4, pc}
  59              	.L8:
  64:../src/FreeRTOS/portable/GCC/ARM_CA9_RZA2M/freertos_tick_config.c ****         }
  60              		.loc 1 64 0
  61 004c 4010A0E3 		mov	r1, #64
  62 0050 000000E3 		movw	r0, #:lower16:.LC1
  63 0054 000040E3 		movt	r0, #:upper16:.LC1
  64 0058 FEFFFFEB 		bl	R_OS_AssertCalled
  65              	.LVL2:
  66 005c 1080BDE8 		pop	{r4, pc}
  67              		.cfi_endproc
  68              	.LFE4:
  70              		.section	.text.ulGetRunTimeCounterValue,"ax",%progbits
  71              		.align	2
  72              		.global	ulGetRunTimeCounterValue
  73              		.syntax unified
  74              		.arm
  75              		.fpu neon
  77              	ulGetRunTimeCounterValue:
  78              	.LFB5:
  69:../src/FreeRTOS/portable/GCC/ARM_CA9_RZA2M/freertos_tick_config.c ****         }
  70:../src/FreeRTOS/portable/GCC/ARM_CA9_RZA2M/freertos_tick_config.c ****     }
  71:../src/FreeRTOS/portable/GCC/ARM_CA9_RZA2M/freertos_tick_config.c **** }
  72:../src/FreeRTOS/portable/GCC/ARM_CA9_RZA2M/freertos_tick_config.c **** /*-----------------------------------------------------------*/
  73:../src/FreeRTOS/portable/GCC/ARM_CA9_RZA2M/freertos_tick_config.c **** 
  74:../src/FreeRTOS/portable/GCC/ARM_CA9_RZA2M/freertos_tick_config.c **** /*
  75:../src/FreeRTOS/portable/GCC/ARM_CA9_RZA2M/freertos_tick_config.c ****  * Crude implementation of a run time counter used to measure how much time
  76:../src/FreeRTOS/portable/GCC/ARM_CA9_RZA2M/freertos_tick_config.c ****  * each task spends in the Running state.
  77:../src/FreeRTOS/portable/GCC/ARM_CA9_RZA2M/freertos_tick_config.c ****  */
  78:../src/FreeRTOS/portable/GCC/ARM_CA9_RZA2M/freertos_tick_config.c **** unsigned long ulGetRunTimeCounterValue( void )
  79:../src/FreeRTOS/portable/GCC/ARM_CA9_RZA2M/freertos_tick_config.c **** {
  79              		.loc 1 79 0
  80              		.cfi_startproc
  81              		@ args = 0, pretend = 0, frame = 8
  82              		@ frame_needed = 0, uses_anonymous_args = 0
  83 0000 04E02DE5 		str	lr, [sp, #-4]!
  84              		.cfi_def_cfa_offset 4
  85              		.cfi_offset 14, -4
  86 0004 0CD04DE2 		sub	sp, sp, #12
  87              		.cfi_def_cfa_offset 16
  80:../src/FreeRTOS/portable/GCC/ARM_CA9_RZA2M/freertos_tick_config.c ****     static unsigned long ulLastCounterValue = 0UL, ulOverflows = 0;
  81:../src/FreeRTOS/portable/GCC/ARM_CA9_RZA2M/freertos_tick_config.c ****     unsigned long ulValueNow = 0;
  88              		.loc 1 81 0
  89 0008 0030A0E3 		mov	r3, #0
  90 000c 04308DE5 		str	r3, [sp, #4]
  82:../src/FreeRTOS/portable/GCC/ARM_CA9_RZA2M/freertos_tick_config.c **** 
  83:../src/FreeRTOS/portable/GCC/ARM_CA9_RZA2M/freertos_tick_config.c ****     if (( -1) == s_runtime_stats_timer_handle)
  91              		.loc 1 83 0
  92 0010 003000E3 		movw	r3, #:lower16:.LANCHOR1
  93 0014 003040E3 		movt	r3, #:upper16:.LANCHOR1
  94 0018 000093E5 		ldr	r0, [r3]
  95 001c 010070E3 		cmn	r0, #1
  96 0020 1700000A 		beq	.L14
  84:../src/FreeRTOS/portable/GCC/ARM_CA9_RZA2M/freertos_tick_config.c ****     {
  85:../src/FreeRTOS/portable/GCC/ARM_CA9_RZA2M/freertos_tick_config.c ****         R_OS_AssertCalled( __FILE__, __LINE__);
  86:../src/FreeRTOS/portable/GCC/ARM_CA9_RZA2M/freertos_tick_config.c ****     }
  87:../src/FreeRTOS/portable/GCC/ARM_CA9_RZA2M/freertos_tick_config.c ****     else
  88:../src/FreeRTOS/portable/GCC/ARM_CA9_RZA2M/freertos_tick_config.c ****     {
  89:../src/FreeRTOS/portable/GCC/ARM_CA9_RZA2M/freertos_tick_config.c ****         control(s_runtime_stats_timer_handle, CTRL_OSTM_READ_COUNTER, &ulValueNow);
  97              		.loc 1 89 0
  98 0024 04208DE2 		add	r2, sp, #4
  99 0028 0310A0E3 		mov	r1, #3
 100 002c FEFFFFEB 		bl	control
 101              	.LVL3:
 102              	.L11:
  90:../src/FreeRTOS/portable/GCC/ARM_CA9_RZA2M/freertos_tick_config.c ****     }
  91:../src/FreeRTOS/portable/GCC/ARM_CA9_RZA2M/freertos_tick_config.c **** 
  92:../src/FreeRTOS/portable/GCC/ARM_CA9_RZA2M/freertos_tick_config.c ****     /* Has the value overflowed since it was last read. */
  93:../src/FreeRTOS/portable/GCC/ARM_CA9_RZA2M/freertos_tick_config.c ****     if( ulValueNow < ulLastCounterValue )
 103              		.loc 1 93 0
 104 0030 04009DE5 		ldr	r0, [sp, #4]
 105 0034 003000E3 		movw	r3, #:lower16:.LANCHOR2
 106 0038 003040E3 		movt	r3, #:upper16:.LANCHOR2
 107 003c 003093E5 		ldr	r3, [r3]
 108 0040 030050E1 		cmp	r0, r3
 109 0044 0400002A 		bcs	.L12
  94:../src/FreeRTOS/portable/GCC/ARM_CA9_RZA2M/freertos_tick_config.c ****     {
  95:../src/FreeRTOS/portable/GCC/ARM_CA9_RZA2M/freertos_tick_config.c ****         ulOverflows++;
 110              		.loc 1 95 0
 111 0048 003000E3 		movw	r3, #:lower16:.LANCHOR3
 112 004c 003040E3 		movt	r3, #:upper16:.LANCHOR3
 113 0050 002093E5 		ldr	r2, [r3]
 114 0054 012082E2 		add	r2, r2, #1
 115 0058 002083E5 		str	r2, [r3]
 116              	.L12:
  96:../src/FreeRTOS/portable/GCC/ARM_CA9_RZA2M/freertos_tick_config.c ****     }
  97:../src/FreeRTOS/portable/GCC/ARM_CA9_RZA2M/freertos_tick_config.c ****     ulLastCounterValue = ulValueNow;
 117              		.loc 1 97 0
 118 005c 003000E3 		movw	r3, #:lower16:.LANCHOR2
 119 0060 003040E3 		movt	r3, #:upper16:.LANCHOR2
 120 0064 000083E5 		str	r0, [r3]
  98:../src/FreeRTOS/portable/GCC/ARM_CA9_RZA2M/freertos_tick_config.c **** 
  99:../src/FreeRTOS/portable/GCC/ARM_CA9_RZA2M/freertos_tick_config.c ****     /* There is no prescale on the counter, so simulate in software. */
 100:../src/FreeRTOS/portable/GCC/ARM_CA9_RZA2M/freertos_tick_config.c ****     ulValueNow >>= runtimeCLOCK_SCALE_SHIFT;
 101:../src/FreeRTOS/portable/GCC/ARM_CA9_RZA2M/freertos_tick_config.c ****     ulValueNow += ( runtimeOVERFLOW_BIT * ulOverflows );
 121              		.loc 1 101 0
 122 0068 003000E3 		movw	r3, #:lower16:.LANCHOR3
 123 006c 003040E3 		movt	r3, #:upper16:.LANCHOR3
 124 0070 003093E5 		ldr	r3, [r3]
 125 0074 833BA0E1 		lsl	r3, r3, #23
 102:../src/FreeRTOS/portable/GCC/ARM_CA9_RZA2M/freertos_tick_config.c **** 
 103:../src/FreeRTOS/portable/GCC/ARM_CA9_RZA2M/freertos_tick_config.c ****     return ulValueNow;
 104:../src/FreeRTOS/portable/GCC/ARM_CA9_RZA2M/freertos_tick_config.c **** }
 126              		.loc 1 104 0
 127 0078 A00483E0 		add	r0, r3, r0, lsr #9
 128 007c 0CD08DE2 		add	sp, sp, #12
 129              		.cfi_remember_state
 130              		.cfi_def_cfa_offset 4
 131              		@ sp needed
 132 0080 04F09DE4 		ldr	pc, [sp], #4
 133              	.L14:
 134              		.cfi_restore_state
  85:../src/FreeRTOS/portable/GCC/ARM_CA9_RZA2M/freertos_tick_config.c ****     }
 135              		.loc 1 85 0
 136 0084 5510A0E3 		mov	r1, #85
 137 0088 000000E3 		movw	r0, #:lower16:.LC1
 138 008c 000040E3 		movt	r0, #:upper16:.LC1
 139 0090 FEFFFFEB 		bl	R_OS_AssertCalled
 140              	.LVL4:
 141 0094 E5FFFFEA 		b	.L11
 142              		.cfi_endproc
 143              	.LFE5:
 145              		.section	.text.vInitialiseRunTimeStats,"ax",%progbits
 146              		.align	2
 147              		.global	vInitialiseRunTimeStats
 148              		.syntax unified
 149              		.arm
 150              		.fpu neon
 152              	vInitialiseRunTimeStats:
 153              	.LFB6:
 105:../src/FreeRTOS/portable/GCC/ARM_CA9_RZA2M/freertos_tick_config.c **** /*-----------------------------------------------------------*/
 106:../src/FreeRTOS/portable/GCC/ARM_CA9_RZA2M/freertos_tick_config.c **** 
 107:../src/FreeRTOS/portable/GCC/ARM_CA9_RZA2M/freertos_tick_config.c **** void vInitialiseRunTimeStats( void )
 108:../src/FreeRTOS/portable/GCC/ARM_CA9_RZA2M/freertos_tick_config.c **** {
 154              		.loc 1 108 0
 155              		.cfi_startproc
 156              		@ args = 0, pretend = 0, frame = 0
 157              		@ frame_needed = 0, uses_anonymous_args = 0
 109:../src/FreeRTOS/portable/GCC/ARM_CA9_RZA2M/freertos_tick_config.c ****     if (( -1) == s_runtime_stats_timer_handle)
 158              		.loc 1 109 0
 159 0000 003000E3 		movw	r3, #:lower16:.LANCHOR1
 160 0004 003040E3 		movt	r3, #:upper16:.LANCHOR1
 161 0008 003093E5 		ldr	r3, [r3]
 162 000c 010073E3 		cmn	r3, #1
 163 0010 1EFF2F11 		bxne	lr
 108:../src/FreeRTOS/portable/GCC/ARM_CA9_RZA2M/freertos_tick_config.c ****     if (( -1) == s_runtime_stats_timer_handle)
 164              		.loc 1 108 0
 165 0014 10402DE9 		push	{r4, lr}
 166              		.cfi_def_cfa_offset 8
 167              		.cfi_offset 4, -8
 168              		.cfi_offset 14, -4
 110:../src/FreeRTOS/portable/GCC/ARM_CA9_RZA2M/freertos_tick_config.c ****     {
 111:../src/FreeRTOS/portable/GCC/ARM_CA9_RZA2M/freertos_tick_config.c ****         s_runtime_stats_timer_handle = open(R_FREERTOS_RUNTIME_STATS_OSTM_RESOURCE, O_RDWR);
 169              		.loc 1 111 0
 170 0018 0210A0E3 		mov	r1, #2
 171 001c 000000E3 		movw	r0, #:lower16:.LC2
 172 0020 000040E3 		movt	r0, #:upper16:.LC2
 173 0024 FEFFFFEB 		bl	open
 174              	.LVL5:
 175 0028 003000E3 		movw	r3, #:lower16:.LANCHOR1
 176 002c 003040E3 		movt	r3, #:upper16:.LANCHOR1
 177 0030 000083E5 		str	r0, [r3]
 112:../src/FreeRTOS/portable/GCC/ARM_CA9_RZA2M/freertos_tick_config.c **** 
 113:../src/FreeRTOS/portable/GCC/ARM_CA9_RZA2M/freertos_tick_config.c ****         if (( -1) == s_runtime_stats_timer_handle)
 178              		.loc 1 113 0
 179 0034 010070E3 		cmn	r0, #1
 180 0038 0300000A 		beq	.L22
 114:../src/FreeRTOS/portable/GCC/ARM_CA9_RZA2M/freertos_tick_config.c ****         {
 115:../src/FreeRTOS/portable/GCC/ARM_CA9_RZA2M/freertos_tick_config.c ****             R_OS_AssertCalled( __FILE__, __LINE__);
 116:../src/FreeRTOS/portable/GCC/ARM_CA9_RZA2M/freertos_tick_config.c ****         }
 117:../src/FreeRTOS/portable/GCC/ARM_CA9_RZA2M/freertos_tick_config.c ****         else
 118:../src/FreeRTOS/portable/GCC/ARM_CA9_RZA2M/freertos_tick_config.c ****         {
 119:../src/FreeRTOS/portable/GCC/ARM_CA9_RZA2M/freertos_tick_config.c ****             control(s_runtime_stats_timer_handle, CTRL_OSTM_START_TIMER, NULL);
 181              		.loc 1 119 0
 182 003c 0020A0E3 		mov	r2, #0
 183 0040 0210A0E1 		mov	r1, r2
 184 0044 FEFFFFEB 		bl	control
 185              	.LVL6:
 186 0048 1080BDE8 		pop	{r4, pc}
 187              	.L22:
 115:../src/FreeRTOS/portable/GCC/ARM_CA9_RZA2M/freertos_tick_config.c ****         }
 188              		.loc 1 115 0
 189 004c 7310A0E3 		mov	r1, #115
 190 0050 000000E3 		movw	r0, #:lower16:.LC1
 191 0054 000040E3 		movt	r0, #:upper16:.LC1
 192 0058 FEFFFFEB 		bl	R_OS_AssertCalled
 193              	.LVL7:
 194 005c 1080BDE8 		pop	{r4, pc}
 195              		.cfi_endproc
 196              	.LFE6:
 198              		.section	.bss.ulLastCounterValue.71081,"aw",%nobits
 199              		.align	2
 200              		.set	.LANCHOR2,. + 0
 203              	ulLastCounterValue.71081:
 204 0000 00000000 		.space	4
 205              		.section	.bss.ulOverflows.71082,"aw",%nobits
 206              		.align	2
 207              		.set	.LANCHOR3,. + 0
 210              	ulOverflows.71082:
 211 0000 00000000 		.space	4
 212              		.section	.data.s_runtime_stats_timer_handle,"aw",%progbits
 213              		.align	2
 214              		.set	.LANCHOR1,. + 0
 217              	s_runtime_stats_timer_handle:
 218 0000 FFFFFFFF 		.word	-1
 219              		.section	.data.s_tick_timer_handle,"aw",%progbits
 220              		.align	2
 221              		.set	.LANCHOR0,. + 0
 224              	s_tick_timer_handle:
 225 0000 FFFFFFFF 		.word	-1
 226              		.section	.rodata.vConfigureTickInterrupt.str1.4,"aMS",%progbits,1
 227              		.align	2
 228              	.LC0:
 229 0000 5C5C2E5C 		.ascii	"\\\\.\\ostm_reserved\000"
 229      6F73746D 
 229      5F726573 
 229      65727665 
 229      6400
 230 0012 0000     		.space	2
 231              	.LC1:
 232 0014 2E2E2F73 		.ascii	"../src/FreeRTOS/portable/GCC/ARM_CA9_RZA2M/freertos"
 232      72632F46 
 232      72656552 
 232      544F532F 
 232      706F7274 
 233 0047 5F746963 		.ascii	"_tick_config.c\000"
 233      6B5F636F 
 233      6E666967 
 233      2E6300
 234              		.section	.rodata.vInitialiseRunTimeStats.str1.4,"aMS",%progbits,1
 235              		.align	2
 236              	.LC2:
 237 0000 5C5C2E5C 		.ascii	"\\\\.\\runtime_stats_timer\000"
 237      72756E74 
 237      696D655F 
 237      73746174 
 237      735F7469 
 238              		.text
 239              	.Letext0:
 240              		.file 2 "c:\\program files (x86)\\gnu tools arm embedded\\6 2017-q2-update\\arm-none-eabi\\include
 241              		.file 3 "c:\\program files (x86)\\gnu tools arm embedded\\6 2017-q2-update\\arm-none-eabi\\include
 242              		.file 4 "c:\\program files (x86)\\gnu tools arm embedded\\6 2017-q2-update\\arm-none-eabi\\include
 243              		.file 5 "c:\\program files (x86)\\gnu tools arm embedded\\6 2017-q2-update\\arm-none-eabi\\include
 244              		.file 6 "c:\\program files (x86)\\gnu tools arm embedded\\6 2017-q2-update\\lib\\gcc\\arm-none-eab
 245              		.file 7 "c:\\program files (x86)\\gnu tools arm embedded\\6 2017-q2-update\\arm-none-eabi\\include
 246              		.file 8 "c:\\program files (x86)\\gnu tools arm embedded\\6 2017-q2-update\\arm-none-eabi\\include
 247              		.file 9 "C:/Renesas/e2studio_2021_01_workspace_RZA2M_ANPR/ANPR_RZA2M_EBK/generate/system/inc/r_typ
 248              		.file 10 "C:/Renesas/e2studio_2021_01_workspace_RZA2M_ANPR/ANPR_RZA2M_EBK/generate/system/inc/driv
 249              		.file 11 "C:/Renesas/e2studio_2021_01_workspace_RZA2M_ANPR/ANPR_RZA2M_EBK/generate/os_abstraction/
 250              		.file 12 "c:\\program files (x86)\\gnu tools arm embedded\\6 2017-q2-update\\arm-none-eabi\\includ
 251              		.file 13 "c:\\program files (x86)\\gnu tools arm embedded\\6 2017-q2-update\\arm-none-eabi\\includ
 252              		.file 14 "C:/Renesas/e2studio_2021_01_workspace_RZA2M_ANPR/ANPR_RZA2M_EBK/generate/drivers/r_intc/
 253              		.file 15 "C:/Renesas/e2studio_2021_01_workspace_RZA2M_ANPR/ANPR_RZA2M_EBK/generate/sc_drivers/r_os
 254              		.file 16 "c:\\program files (x86)\\gnu tools arm embedded\\6 2017-q2-update\\arm-none-eabi\\includ
 255              		.file 17 "C:/Renesas/e2studio_2021_01_workspace_RZA2M_ANPR/ANPR_RZA2M_EBK/generate/system/inc/r_de
 256              		.file 18 "C:/Renesas/e2studio_2021_01_workspace_RZA2M_ANPR/ANPR_RZA2M_EBK/generate/os_abstraction/