   1              		.cpu cortex-a9
   2              		.eabi_attribute 28, 1
   3              		.eabi_attribute 20, 1
   4              		.eabi_attribute 21, 1
   5              		.eabi_attribute 23, 3
   6              		.eabi_attribute 24, 1
   7              		.eabi_attribute 25, 1
   8              		.eabi_attribute 26, 1
   9              		.eabi_attribute 30, 2
  10              		.eabi_attribute 34, 0
  11              		.eabi_attribute 18, 4
  12              		.file	"arm_nn_mat_mult_nt_t_s8.c"
  13              		.section	.text.arm_nn_mat_mult_nt_t_s8,"ax",%progbits
  14              		.align	2
  15              		.global	arm_nn_mat_mult_nt_t_s8
  16              		.syntax unified
  17              		.arm
  18              		.fpu neon
  20              	arm_nn_mat_mult_nt_t_s8:
  21              		@ args = 36, pretend = 0, frame = 232
  22              		@ frame_needed = 0, uses_anonymous_args = 0
  23 0000 F04F2DE9 		push	{r4, r5, r6, r7, r8, r9, r10, fp, lr}
  24 0004 108B2DED 		vpush.64	{d8, d9, d10, d11, d12, d13, d14, d15}
  25 0008 ECD04DE2 		sub	sp, sp, #236
  26 000c AC008DE5 		str	r0, [sp, #172]
  27 0010 0300A0E1 		mov	r0, r3
  28 0014 94308DE5 		str	r3, [sp, #148]
  29 0018 5C319DE5 		ldr	r3, [sp, #348]
  30 001c B0108DE5 		str	r1, [sp, #176]
  31 0020 A8208DE5 		str	r2, [sp, #168]
  32 0024 010053E3 		cmp	r3, #1
  33 0028 000700DA 		ble	.L59
  34 002c 0340A0E1 		mov	r4, r3
  35 0030 60319DE5 		ldr	r3, [sp, #352]
  36 0034 01C0A0E1 		mov	ip, r1
  37 0038 58E19DE5 		ldr	lr, [sp, #344]
  38 003c 60519DE5 		ldr	r5, [sp, #352]
  39 0040 8440A0E1 		lsl	r4, r4, #1
  40 0044 101043E2 		sub	r1, r3, #16
  41 0048 5C319DE5 		ldr	r3, [sp, #348]
  42 004c 0260A0E1 		mov	r6, r2
  43 0050 2122A0E1 		lsr	r2, r1, #4
  44 0054 CEE0A0E1 		asr	lr, lr, #1
  45 0058 0F10C1E3 		bic	r1, r1, #15
  46 005c 023043E2 		sub	r3, r3, #2
  47 0060 8550A0E1 		lsl	r5, r5, #1
  48 0064 D4308DE5 		str	r3, [sp, #212]
  49 0068 0130C3E3 		bic	r3, r3, #1
  50 006c 023083E2 		add	r3, r3, #2
  51 0070 B8E08DE5 		str	lr, [sp, #184]
  52 0074 033080E0 		add	r3, r0, r3
  53 0078 940E0EE0 		mul	lr, r4, lr
  54 007c 94308DE5 		str	r3, [sp, #148]
  55 0080 58319DE5 		ldr	r3, [sp, #344]
  56 0084 B4508DE5 		str	r5, [sp, #180]
  57 0088 025042E2 		sub	r5, r2, #2
  58 008c C0E08DE5 		str	lr, [sp, #192]
  59 0090 01E082E2 		add	lr, r2, #1
  60 0094 013003E2 		and	r3, r3, #1
  61 0098 0120C5E3 		bic	r2, r5, #1
  62 009c BC308DE5 		str	r3, [sp, #188]
  63 00a0 022082E2 		add	r2, r2, #2
  64 00a4 60319DE5 		ldr	r3, [sp, #352]
  65 00a8 C4208DE5 		str	r2, [sp, #196]
  66 00ac 102081E2 		add	r2, r1, #16
  67 00b0 80208DE5 		str	r2, [sp, #128]
  68 00b4 0F3043E2 		sub	r3, r3, #15
  69 00b8 60219DE5 		ldr	r2, [sp, #352]
  70 00bc 2C308DE5 		str	r3, [sp, #44]
  71 00c0 50319DE5 		ldr	r3, [sp, #336]
  72 00c4 02208CE0 		add	r2, ip, r2
  73 00c8 D0E08DE5 		str	lr, [sp, #208]
  74 00cc 8C208DE5 		str	r2, [sp, #140]
  75 00d0 0C2086E2 		add	r2, r6, #12
  76 00d4 0C3083E2 		add	r3, r3, #12
  77 00d8 90208DE5 		str	r2, [sp, #144]
  78 00dc 54308DE5 		str	r3, [sp, #84]
  79 00e0 0EE2A0E1 		lsl	lr, lr, #4
  80 00e4 54319DE5 		ldr	r3, [sp, #340]
  81 00e8 60219DE5 		ldr	r2, [sp, #352]
  82 00ec 78408DE5 		str	r4, [sp, #120]
  83 00f0 0C3083E2 		add	r3, r3, #12
  84 00f4 C8508DE5 		str	r5, [sp, #200]
  85 00f8 012042E2 		sub	r2, r2, #1
  86 00fc CC108DE5 		str	r1, [sp, #204]
  87 0100 7CE08DE5 		str	lr, [sp, #124]
  88 0104 88008DE5 		str	r0, [sp, #136]
  89 0108 58308DE5 		str	r3, [sp, #88]
  90 010c 84208DE5 		str	r2, [sp, #132]
  91 0110 50C08DE5 		str	ip, [sp, #80]
  92              	.L3:
  93 0114 60319DE5 		ldr	r3, [sp, #352]
  94 0118 000053E3 		cmp	r3, #0
  95 011c 88309DE5 		ldr	r3, [sp, #136]
  96 0120 5C308DE5 		str	r3, [sp, #92]
  97 0124 0030A0D3 		movle	r3, #0
  98 0128 6C308DD5 		strle	r3, [sp, #108]
  99 012c 68308DD5 		strle	r3, [sp, #104]
 100 0130 F60000DA 		ble	.L61
 101 0134 50009DE5 		ldr	r0, [sp, #80]
 102 0138 8C209DE5 		ldr	r2, [sp, #140]
 103 013c 60119DE5 		ldr	r1, [sp, #352]
 104 0140 023080E1 		orr	r3, r0, r2
 105 0144 0F0051E3 		cmp	r1, #15
 106 0148 5330E3E7 		ubfx	r3, r3, #0, #4
 107 014c 0010A093 		movls	r1, #0
 108 0150 0110A083 		movhi	r1, #1
 109 0154 000053E3 		cmp	r3, #0
 110 0158 0010A013 		movne	r1, #0
 111 015c 000051E3 		cmp	r1, #0
 112 0160 2308000A 		beq	.L4
 113 0164 84309DE5 		ldr	r3, [sp, #132]
 114 0168 0E0053E3 		cmp	r3, #14
 115 016c 1A08009A 		bls	.L80
 116 0170 C8309DE5 		ldr	r3, [sp, #200]
 117 0174 040073E3 		cmn	r3, #4
 118 0178 6308008A 		bhi	.L81
 119 017c 5000C0F2 		vmov.i32	q8, #0  @ v4si
 120 0180 203080E2 		add	r3, r0, #32
 121 0184 C4E09DE5 		ldr	lr, [sp, #196]
 122 0188 202082E2 		add	r2, r2, #32
 123 018c 00C0A0E3 		mov	ip, #0
 124 0190 F06160F2 		vmov	q11, q8  @ v4si
 125              	.L7:
 126 0194 084B53ED 		vldr	d20, [r3, #-32]
 127 0198 065B53ED 		vldr	d21, [r3, #-24]
 128 019c 02C08CE2 		add	ip, ip, #2
 129 01a0 0E005CE1 		cmp	ip, lr
 130 01a4 60F0D3F5 		pld	[r3, #96]
 131 01a8 082B52ED 		vldr	d18, [r2, #-32]
 132 01ac 063B52ED 		vldr	d19, [r2, #-24]
 133 01b0 0310A0E1 		mov	r1, r3
 134 01b4 34AAC8F2 		vmovl.s8 q13, d20
 135 01b8 0200A0E1 		mov	r0, r2
 136 01bc 328AC8F2 		vmovl.s8 q12, d18
 137 01c0 203083E2 		add	r3, r3, #32
 138 01c4 354AC8F2 		vmovl.s8 q10, d21
 139 01c8 202082E2 		add	r2, r2, #32
 140 01cc 3AEAD0F2 		vmovl.s16 q15, d26
 141 01d0 38CAD0F2 		vmovl.s16 q14, d24
 142 01d4 332AC8F2 		vmovl.s8 q9, d19
 143 01d8 E6686EF2 		vadd.i32	q11, q15, q11
 144 01dc E0086CF2 		vadd.i32	q8, q14, q8
 145 01e0 39EAD0F2 		vmovl.s16 q15, d25
 146 01e4 3BAAD0F2 		vmovl.s16 q13, d27
 147 01e8 0C6B13ED 		vldr	d6, [r3, #-48]
 148 01ec 0A7B13ED 		vldr	d7, [r3, #-40]
 149 01f0 E6A86AF2 		vadd.i32	q13, q13, q11
 150 01f4 0C8B52ED 		vldr	d24, [r2, #-48]
 151 01f8 0A9B52ED 		vldr	d25, [r2, #-40]
 152 01fc 346AD0F2 		vmovl.s16 q11, d20
 153 0200 E0E86EF2 		vadd.i32	q15, q15, q8
 154 0204 324A90F2 		vmovl.s16 q2, d18
 155 0208 380AC8F2 		vmovl.s8 q8, d24
 156 020c 16CAC8F2 		vmovl.s8 q14, d6
 157 0210 EAA866F2 		vadd.i32	q13, q11, q13
 158 0214 6EE864F2 		vadd.i32	q15, q2, q15
 159 0218 356AD0F2 		vmovl.s16 q11, d21
 160 021c 334AD0F2 		vmovl.s16 q10, d19
 161 0220 EA6866F2 		vadd.i32	q11, q11, q13
 162 0224 3C2AD0F2 		vmovl.s16 q9, d28
 163 0228 EE4864F2 		vadd.i32	q10, q10, q15
 164 022c 30EAD0F2 		vmovl.s16 q15, d16
 165 0230 17AAC8F2 		vmovl.s8 q13, d7
 166 0234 398AC8F2 		vmovl.s8 q12, d25
 167 0238 E66862F2 		vadd.i32	q11, q9, q11
 168 023c E4486EF2 		vadd.i32	q10, q15, q10
 169 0240 3D2AD0F2 		vmovl.s16 q9, d29
 170 0244 310AD0F2 		vmovl.s16 q8, d17
 171 0248 E62862F2 		vadd.i32	q9, q9, q11
 172 024c E40860F2 		vadd.i32	q8, q8, q10
 173 0250 3A6AD0F2 		vmovl.s16 q11, d26
 174 0254 384AD0F2 		vmovl.s16 q10, d24
 175 0258 E26866F2 		vadd.i32	q11, q11, q9
 176 025c 3BAAD0F2 		vmovl.s16 q13, d27
 177 0260 E00864F2 		vadd.i32	q8, q10, q8
 178 0264 398AD0F2 		vmovl.s16 q12, d25
 179 0268 E6686AF2 		vadd.i32	q11, q13, q11
 180 026c E00868F2 		vadd.i32	q8, q12, q8
 181 0270 C7FFFF1A 		bne	.L7
 182 0274 0020A0E1 		mov	r2, r0
 183 0278 0130A0E1 		mov	r3, r1
 184 027c D0009DE5 		ldr	r0, [sp, #208]
 185 0280 C4109DE5 		ldr	r1, [sp, #196]
 186              	.L11:
 187 0284 DF4A63F4 		vld1.64	{d20-d21}, [r3:64]
 188 0288 011081E2 		add	r1, r1, #1
 189 028c 010050E1 		cmp	r0, r1
 190 0290 103083E2 		add	r3, r3, #16
 191 0294 DF2A62F4 		vld1.64	{d18-d19}, [r2:64]
 192 0298 102082E2 		add	r2, r2, #16
 193 029c 34AAC8F2 		vmovl.s8 q13, d20
 194 02a0 328AC8F2 		vmovl.s8 q12, d18
 195 02a4 354AC8F2 		vmovl.s8 q10, d21
 196 02a8 3AEAD0F2 		vmovl.s16 q15, d26
 197 02ac 38CAD0F2 		vmovl.s16 q14, d24
 198 02b0 332AC8F2 		vmovl.s8 q9, d19
 199 02b4 E6686EF2 		vadd.i32	q11, q15, q11
 200 02b8 398AD0F2 		vmovl.s16 q12, d25
 201 02bc 3BAAD0F2 		vmovl.s16 q13, d27
 202 02c0 E0086CF2 		vadd.i32	q8, q14, q8
 203 02c4 E6A86AF2 		vadd.i32	q13, q13, q11
 204 02c8 E00868F2 		vadd.i32	q8, q12, q8
 205 02cc 346AD0F2 		vmovl.s16 q11, d20
 206 02d0 328AD0F2 		vmovl.s16 q12, d18
 207 02d4 EA6866F2 		vadd.i32	q11, q11, q13
 208 02d8 354AD0F2 		vmovl.s16 q10, d21
 209 02dc E00868F2 		vadd.i32	q8, q12, q8
 210 02e0 332AD0F2 		vmovl.s16 q9, d19
 211 02e4 E66864F2 		vadd.i32	q11, q10, q11
 212 02e8 E00862F2 		vadd.i32	q8, q9, q8
 213 02ec E4FFFF8A 		bhi	.L11
 214 02f0 A10860F2 		vadd.i32	d16, d16, d17
 215 02f4 A76866F2 		vadd.i32	d22, d22, d23
 216 02f8 60219DE5 		ldr	r2, [sp, #352]
 217 02fc 7C309DE5 		ldr	r3, [sp, #124]
 218 0300 B00B60F2 		vpadd.i32	d16, d16, d16
 219 0304 B66B66F2 		vpadd.i32	d22, d22, d22
 220 0308 030052E1 		cmp	r2, r3
 221 030c 901B10EE 		vmov.32	r1, d16[0]
 222 0310 909B16EE 		vmov.32	r9, d22[0]
 223 0314 7700000A 		beq	.L14
 224 0318 50E09DE5 		ldr	lr, [sp, #80]
 225 031c 0240A0E1 		mov	r4, r2
 226              	.L5:
 227 0320 0E20A0E1 		mov	r2, lr
 228 0324 010083E2 		add	r0, r3, #1
 229 0328 D3C0B2E1 		ldrsb	ip, [r2, r3]!
 230 032c 000054E1 		cmp	r4, r0
 231 0330 D42092E1 		ldrsb	r2, [r2, r4]
 232 0334 0C9089E0 		add	r9, r9, ip
 233 0338 021081E0 		add	r1, r1, r2
 234 033c 6D0000DA 		ble	.L14
 235 0340 0E20A0E1 		mov	r2, lr
 236 0344 02C083E2 		add	ip, r3, #2
 237 0348 D000B2E1 		ldrsb	r0, [r2, r0]!
 238 034c 0C0054E1 		cmp	r4, ip
 239 0350 D42092E1 		ldrsb	r2, [r2, r4]
 240 0354 009089E0 		add	r9, r9, r0
 241 0358 021081E0 		add	r1, r1, r2
 242 035c 650000DA 		ble	.L14
 243 0360 0E20A0E1 		mov	r2, lr
 244 0364 030083E2 		add	r0, r3, #3
 245 0368 DCC0B2E1 		ldrsb	ip, [r2, ip]!
 246 036c 000054E1 		cmp	r4, r0
 247 0370 D42092E1 		ldrsb	r2, [r2, r4]
 248 0374 0C9089E0 		add	r9, r9, ip
 249 0378 021081E0 		add	r1, r1, r2
 250 037c 5D0000DA 		ble	.L14
 251 0380 0E20A0E1 		mov	r2, lr
 252 0384 04C083E2 		add	ip, r3, #4
 253 0388 D000B2E1 		ldrsb	r0, [r2, r0]!
 254 038c 0C0054E1 		cmp	r4, ip
 255 0390 D42092E1 		ldrsb	r2, [r2, r4]
 256 0394 009089E0 		add	r9, r9, r0
 257 0398 021081E0 		add	r1, r1, r2
 258 039c 550000DA 		ble	.L14
 259 03a0 0E20A0E1 		mov	r2, lr
 260 03a4 050083E2 		add	r0, r3, #5
 261 03a8 DCC0B2E1 		ldrsb	ip, [r2, ip]!
 262 03ac 000054E1 		cmp	r4, r0
 263 03b0 D42092E1 		ldrsb	r2, [r2, r4]
 264 03b4 0C9089E0 		add	r9, r9, ip
 265 03b8 021081E0 		add	r1, r1, r2
 266 03bc 4D0000DA 		ble	.L14
 267 03c0 0E20A0E1 		mov	r2, lr
 268 03c4 06C083E2 		add	ip, r3, #6
 269 03c8 D000B2E1 		ldrsb	r0, [r2, r0]!
 270 03cc 0C0054E1 		cmp	r4, ip
 271 03d0 D42092E1 		ldrsb	r2, [r2, r4]
 272 03d4 009089E0 		add	r9, r9, r0
 273 03d8 021081E0 		add	r1, r1, r2
 274 03dc 450000DA 		ble	.L14
 275 03e0 0E20A0E1 		mov	r2, lr
 276 03e4 070083E2 		add	r0, r3, #7
 277 03e8 DCC0B2E1 		ldrsb	ip, [r2, ip]!
 278 03ec 000054E1 		cmp	r4, r0
 279 03f0 D42092E1 		ldrsb	r2, [r2, r4]
 280 03f4 0C9089E0 		add	r9, r9, ip
 281 03f8 021081E0 		add	r1, r1, r2
 282 03fc 3D0000DA 		ble	.L14
 283 0400 0E20A0E1 		mov	r2, lr
 284 0404 08C083E2 		add	ip, r3, #8
 285 0408 D000B2E1 		ldrsb	r0, [r2, r0]!
 286 040c 0C0054E1 		cmp	r4, ip
 287 0410 D42092E1 		ldrsb	r2, [r2, r4]
 288 0414 009089E0 		add	r9, r9, r0
 289 0418 021081E0 		add	r1, r1, r2
 290 041c 350000DA 		ble	.L14
 291 0420 0E20A0E1 		mov	r2, lr
 292 0424 090083E2 		add	r0, r3, #9
 293 0428 DCC0B2E1 		ldrsb	ip, [r2, ip]!
 294 042c 000054E1 		cmp	r4, r0
 295 0430 D42092E1 		ldrsb	r2, [r2, r4]
 296 0434 0C9089E0 		add	r9, r9, ip
 297 0438 021081E0 		add	r1, r1, r2
 298 043c 2D0000DA 		ble	.L14
 299 0440 0E20A0E1 		mov	r2, lr
 300 0444 0AC083E2 		add	ip, r3, #10
 301 0448 D000B2E1 		ldrsb	r0, [r2, r0]!
 302 044c 0C0054E1 		cmp	r4, ip
 303 0450 D42092E1 		ldrsb	r2, [r2, r4]
 304 0454 009089E0 		add	r9, r9, r0
 305 0458 021081E0 		add	r1, r1, r2
 306 045c 250000DA 		ble	.L14
 307 0460 0E20A0E1 		mov	r2, lr
 308 0464 0B0083E2 		add	r0, r3, #11
 309 0468 DCC0B2E1 		ldrsb	ip, [r2, ip]!
 310 046c 000054E1 		cmp	r4, r0
 311 0470 D42092E1 		ldrsb	r2, [r2, r4]
 312 0474 0C9089E0 		add	r9, r9, ip
 313 0478 021081E0 		add	r1, r1, r2
 314 047c 1D0000DA 		ble	.L14
 315 0480 0E20A0E1 		mov	r2, lr
 316 0484 0CC083E2 		add	ip, r3, #12
 317 0488 D000B2E1 		ldrsb	r0, [r2, r0]!
 318 048c 0C0054E1 		cmp	r4, ip
 319 0490 D42092E1 		ldrsb	r2, [r2, r4]
 320 0494 009089E0 		add	r9, r9, r0
 321 0498 021081E0 		add	r1, r1, r2
 322 049c 150000DA 		ble	.L14
 323 04a0 0E20A0E1 		mov	r2, lr
 324 04a4 0D0083E2 		add	r0, r3, #13
 325 04a8 DCC0B2E1 		ldrsb	ip, [r2, ip]!
 326 04ac 000054E1 		cmp	r4, r0
 327 04b0 D42092E1 		ldrsb	r2, [r2, r4]
 328 04b4 0C9089E0 		add	r9, r9, ip
 329 04b8 021081E0 		add	r1, r1, r2
 330 04bc 0D0000DA 		ble	.L14
 331 04c0 0E20A0E1 		mov	r2, lr
 332 04c4 0E3083E2 		add	r3, r3, #14
 333 04c8 D000B2E1 		ldrsb	r0, [r2, r0]!
 334 04cc 030054E1 		cmp	r4, r3
 335 04d0 D42092E1 		ldrsb	r2, [r2, r4]
 336 04d4 009089E0 		add	r9, r9, r0
 337 04d8 021081E0 		add	r1, r1, r2
 338 04dc 050000DA 		ble	.L14
 339 04e0 0E20A0E1 		mov	r2, lr
 340 04e4 D300B2E1 		ldrsb	r0, [r2, r3]!
 341 04e8 60319DE5 		ldr	r3, [sp, #352]
 342 04ec 009089E0 		add	r9, r9, r0
 343 04f0 D33092E1 		ldrsb	r3, [r2, r3]
 344 04f4 031081E0 		add	r1, r1, r3
 345              	.L14:
 346 04f8 64319DE5 		ldr	r3, [sp, #356]
 347 04fc 990303E0 		mul	r3, r9, r3
 348 0500 68308DE5 		str	r3, [sp, #104]
 349 0504 64319DE5 		ldr	r3, [sp, #356]
 350 0508 910303E0 		mul	r3, r1, r3
 351 050c 6C308DE5 		str	r3, [sp, #108]
 352              	.L61:
 353 0510 A8309DE5 		ldr	r3, [sp, #168]
 354 0514 000053E3 		cmp	r3, #0
 355 0518 0900000A 		beq	.L15
 356 051c 90109DE5 		ldr	r1, [sp, #144]
 357 0520 00F0D1F5 		pld	[r1]
 358 0524 0C2011E5 		ldr	r2, [r1, #-12]
 359 0528 083011E5 		ldr	r3, [r1, #-8]
 360 052c 68109DE5 		ldr	r1, [sp, #104]
 361 0530 022081E0 		add	r2, r1, r2
 362 0534 68208DE5 		str	r2, [sp, #104]
 363 0538 6C209DE5 		ldr	r2, [sp, #108]
 364 053c 033082E0 		add	r3, r2, r3
 365 0540 6C308DE5 		str	r3, [sp, #108]
 366              	.L15:
 367 0544 B8309DE5 		ldr	r3, [sp, #184]
 368 0548 000053E3 		cmp	r3, #0
 369 054c 5C07000A 		beq	.L82
 370 0550 5C219DE5 		ldr	r2, [sp, #348]
 371 0554 88109DE5 		ldr	r1, [sp, #136]
 372 0558 60308DE5 		str	r3, [sp, #96]
 373 055c AC309DE5 		ldr	r3, [sp, #172]
 374 0560 012082E0 		add	r2, r2, r1
 375 0564 64208DE5 		str	r2, [sp, #100]
 376 0568 28308DE5 		str	r3, [sp, #40]
 377              	.L17:
 378 056c 2C309DE5 		ldr	r3, [sp, #44]
 379 0570 000053E3 		cmp	r3, #0
 380 0574 50309DE5 		ldr	r3, [sp, #80]
 381 0578 790600DA 		ble	.L160
 382 057c 04308DE5 		str	r3, [sp, #4]
 383 0580 28309DE5 		ldr	r3, [sp, #40]
 384 0584 6C209DE5 		ldr	r2, [sp, #108]
 385 0588 0360A0E1 		mov	r6, r3
 386 058c 68309DE5 		ldr	r3, [sp, #104]
 387 0590 02A0A0E1 		mov	r10, r2
 388 0594 08208DE5 		str	r2, [sp, #8]
 389 0598 0350A0E1 		mov	r5, r3
 390 059c 0C308DE5 		str	r3, [sp, #12]
 391 05a0 60319DE5 		ldr	r3, [sp, #352]
 392 05a4 0540A0E1 		mov	r4, r5
 393 05a8 043083E2 		add	r3, r3, #4
 394 05ac 24308DE5 		str	r3, [sp, #36]
 395 05b0 60319DE5 		ldr	r3, [sp, #352]
 396 05b4 083083E2 		add	r3, r3, #8
 397 05b8 10308DE5 		str	r3, [sp, #16]
 398 05bc 60319DE5 		ldr	r3, [sp, #352]
 399 05c0 043043E2 		sub	r3, r3, #4
 400 05c4 20308DE5 		str	r3, [sp, #32]
 401              	.L18:
 402 05c8 04B09DE5 		ldr	fp, [sp, #4]
 403 05cc 0420A0E3 		mov	r2, #4
 404 05d0 E4008DE2 		add	r0, sp, #228
 405 05d4 0B10A0E1 		mov	r1, fp
 406 05d8 FEFFFFEB 		bl	memcpy
 407 05dc 0610A0E1 		mov	r1, r6
 408 05e0 0420A0E3 		mov	r2, #4
 409 05e4 E4008DE2 		add	r0, sp, #228
 410 05e8 E4509DE5 		ldr	r5, [sp, #228]
 411 05ec FEFFFFEB 		bl	memcpy
 412 05f0 60119DE5 		ldr	r1, [sp, #352]
 413 05f4 0420A0E3 		mov	r2, #4
 414 05f8 E4008DE2 		add	r0, sp, #228
 415 05fc 04B08DE5 		str	fp, [sp, #4]
 416 0600 E4809DE5 		ldr	r8, [sp, #228]
 417 0604 01108BE0 		add	r1, fp, r1
 418 0608 FEFFFFEB 		bl	memcpy
 419              		.syntax divided
 420              	@ 1983 "C:/Renesas/e2studio_2021_01_workspace_RZA2M_ANPR/ANPR_RZA2M_EBK/src/tensorflow_lite/third_p
 421 060c 75B08FE6 		sxtb16 fp, r5
 422              	@ 0 "" 2
 423              	@ 1983 "C:/Renesas/e2studio_2021_01_workspace_RZA2M_ANPR/ANPR_RZA2M_EBK/src/tensorflow_lite/third_p
 424 0610 78208FE6 		sxtb16 r2, r8
 425              	@ 0 "" 2
 426              		.arm
 427              		.syntax unified
 428 0614 E4909DE5 		ldr	r9, [sp, #228]
 429              		.syntax divided
 430              	@ 1991 "C:/Renesas/e2studio_2021_01_workspace_RZA2M_ANPR/ANPR_RZA2M_EBK/src/tensorflow_lite/third_p
 431 0618 75548FE6 		sxtb16 r5, r5, ROR #8
 432              	@ 0 "" 2
 433              	@ 1991 "C:/Renesas/e2studio_2021_01_workspace_RZA2M_ANPR/ANPR_RZA2M_EBK/src/tensorflow_lite/third_p
 434 061c 78848FE6 		sxtb16 r8, r8, ROR #8
 435              	@ 0 "" 2
 436              	@ 2038 "C:/Renesas/e2studio_2021_01_workspace_RZA2M_ANPR/ANPR_RZA2M_EBK/src/tensorflow_lite/third_p
 437 0620 124B04E7 		smlad r4, r2, fp, r4
 438              	@ 0 "" 2
 439              	@ 1983 "C:/Renesas/e2studio_2021_01_workspace_RZA2M_ANPR/ANPR_RZA2M_EBK/src/tensorflow_lite/third_p
 440 0624 79308FE6 		sxtb16 r3, r9
 441              	@ 0 "" 2
 442              	@ 2038 "C:/Renesas/e2studio_2021_01_workspace_RZA2M_ANPR/ANPR_RZA2M_EBK/src/tensorflow_lite/third_p
 443 0628 184504E7 		smlad r4, r8, r5, r4
 444              	@ 0 "" 2
 445              	@ 1991 "C:/Renesas/e2studio_2021_01_workspace_RZA2M_ANPR/ANPR_RZA2M_EBK/src/tensorflow_lite/third_p
 446 062c 79748FE6 		sxtb16 r7, r9, ROR #8
 447              	@ 0 "" 2
 448              		.arm
 449              		.syntax unified
 450 0630 08109DE5 		ldr	r1, [sp, #8]
 451              		.syntax divided
 452              	@ 2038 "C:/Renesas/e2studio_2021_01_workspace_RZA2M_ANPR/ANPR_RZA2M_EBK/src/tensorflow_lite/third_p
 453 0634 121302E7 		smlad r2, r2, r3, r1
 454              	@ 0 "" 2
 455              		.arm
 456              		.syntax unified
 457 0638 08308DE5 		str	r3, [sp, #8]
 458              		.syntax divided
 459              	@ 2038 "C:/Renesas/e2studio_2021_01_workspace_RZA2M_ANPR/ANPR_RZA2M_EBK/src/tensorflow_lite/third_p
 460 063c 182708E7 		smlad r8, r8, r7, r2
 461              	@ 0 "" 2
 462              		.arm
 463              		.syntax unified
 464 0640 60119DE5 		ldr	r1, [sp, #352]
 465 0644 0420A0E3 		mov	r2, #4
 466 0648 E4008DE2 		add	r0, sp, #228
 467 064c 011086E0 		add	r1, r6, r1
 468 0650 FEFFFFEB 		bl	memcpy
 469 0654 E4909DE5 		ldr	r9, [sp, #228]
 470              		.syntax divided
 471              	@ 1983 "C:/Renesas/e2studio_2021_01_workspace_RZA2M_ANPR/ANPR_RZA2M_EBK/src/tensorflow_lite/third_p
 472 0658 79208FE6 		sxtb16 r2, r9
 473              	@ 0 "" 2
 474              	@ 1991 "C:/Renesas/e2studio_2021_01_workspace_RZA2M_ANPR/ANPR_RZA2M_EBK/src/tensorflow_lite/third_p
 475 065c 79948FE6 		sxtb16 r9, r9, ROR #8
 476              	@ 0 "" 2
 477              		.arm
 478              		.syntax unified
 479 0660 0C109DE5 		ldr	r1, [sp, #12]
 480              		.syntax divided
 481              	@ 2038 "C:/Renesas/e2studio_2021_01_workspace_RZA2M_ANPR/ANPR_RZA2M_EBK/src/tensorflow_lite/third_p
 482 0664 121B0BE7 		smlad fp, r2, fp, r1
 483              	@ 0 "" 2
 484              		.arm
 485              		.syntax unified
 486 0668 08309DE5 		ldr	r3, [sp, #8]
 487              		.syntax divided
 488              	@ 2038 "C:/Renesas/e2studio_2021_01_workspace_RZA2M_ANPR/ANPR_RZA2M_EBK/src/tensorflow_lite/third_p
 489 066c 12A30AE7 		smlad r10, r2, r3, r10
 490              	@ 0 "" 2
 491              	@ 2038 "C:/Renesas/e2studio_2021_01_workspace_RZA2M_ANPR/ANPR_RZA2M_EBK/src/tensorflow_lite/third_p
 492 0670 19B505E7 		smlad r5, r9, r5, fp
 493              	@ 0 "" 2
 494              		.arm
 495              		.syntax unified
 496 0674 04309DE5 		ldr	r3, [sp, #4]
 497 0678 0420A0E3 		mov	r2, #4
 498 067c E4008DE2 		add	r0, sp, #228
 499 0680 021083E0 		add	r1, r3, r2
 500 0684 FEFFFFEB 		bl	memcpy
 501 0688 E4B09DE5 		ldr	fp, [sp, #228]
 502              		.syntax divided
 503              	@ 2038 "C:/Renesas/e2studio_2021_01_workspace_RZA2M_ANPR/ANPR_RZA2M_EBK/src/tensorflow_lite/third_p
 504 068c 19A709E7 		smlad r9, r9, r7, r10
 505              	@ 0 "" 2
 506              		.arm
 507              		.syntax unified
 508 0690 04309DE5 		ldr	r3, [sp, #4]
 509 0694 0420A0E3 		mov	r2, #4
 510 0698 24109DE5 		ldr	r1, [sp, #36]
 511 069c E4008DE2 		add	r0, sp, #228
 512              		.syntax divided
 513              	@ 1983 "C:/Renesas/e2studio_2021_01_workspace_RZA2M_ANPR/ANPR_RZA2M_EBK/src/tensorflow_lite/third_p
 514 06a0 7B708FE6 		sxtb16 r7, fp
 515              	@ 0 "" 2
 516              		.arm
 517              		.syntax unified
 518 06a4 011083E0 		add	r1, r3, r1
 519 06a8 FEFFFFEB 		bl	memcpy
 520 06ac 041086E2 		add	r1, r6, #4
 521 06b0 E4008DE2 		add	r0, sp, #228
 522 06b4 0420A0E3 		mov	r2, #4
 523 06b8 E4A09DE5 		ldr	r10, [sp, #228]
 524 06bc FEFFFFEB 		bl	memcpy
 525 06c0 E4209DE5 		ldr	r2, [sp, #228]
 526              		.syntax divided
 527              	@ 1983 "C:/Renesas/e2studio_2021_01_workspace_RZA2M_ANPR/ANPR_RZA2M_EBK/src/tensorflow_lite/third_p
 528 06c4 72108FE6 		sxtb16 r1, r2
 529              	@ 0 "" 2
 530              	@ 1991 "C:/Renesas/e2studio_2021_01_workspace_RZA2M_ANPR/ANPR_RZA2M_EBK/src/tensorflow_lite/third_p
 531 06c8 7BB48FE6 		sxtb16 fp, fp, ROR #8
 532              	@ 0 "" 2
 533              	@ 1991 "C:/Renesas/e2studio_2021_01_workspace_RZA2M_ANPR/ANPR_RZA2M_EBK/src/tensorflow_lite/third_p
 534 06cc 72248FE6 		sxtb16 r2, r2, ROR #8
 535              	@ 0 "" 2
 536              	@ 2038 "C:/Renesas/e2studio_2021_01_workspace_RZA2M_ANPR/ANPR_RZA2M_EBK/src/tensorflow_lite/third_p
 537 06d0 114704E7 		smlad r4, r1, r7, r4
 538              	@ 0 "" 2
 539              	@ 1983 "C:/Renesas/e2studio_2021_01_workspace_RZA2M_ANPR/ANPR_RZA2M_EBK/src/tensorflow_lite/third_p
 540 06d4 7A308FE6 		sxtb16 r3, r10
 541              	@ 0 "" 2
 542              	@ 2038 "C:/Renesas/e2studio_2021_01_workspace_RZA2M_ANPR/ANPR_RZA2M_EBK/src/tensorflow_lite/third_p
 543 06d8 124B04E7 		smlad r4, r2, fp, r4
 544              	@ 0 "" 2
 545              	@ 1991 "C:/Renesas/e2studio_2021_01_workspace_RZA2M_ANPR/ANPR_RZA2M_EBK/src/tensorflow_lite/third_p
 546 06dc 7AA48FE6 		sxtb16 r10, r10, ROR #8
 547              	@ 0 "" 2
 548              	@ 2038 "C:/Renesas/e2studio_2021_01_workspace_RZA2M_ANPR/ANPR_RZA2M_EBK/src/tensorflow_lite/third_p
 549 06e0 118308E7 		smlad r8, r1, r3, r8
 550              	@ 0 "" 2
 551              		.arm
 552              		.syntax unified
 553 06e4 0C308DE5 		str	r3, [sp, #12]
 554              		.syntax divided
 555              	@ 2038 "C:/Renesas/e2studio_2021_01_workspace_RZA2M_ANPR/ANPR_RZA2M_EBK/src/tensorflow_lite/third_p
 556 06e8 128A02E7 		smlad r2, r2, r10, r8
 557              	@ 0 "" 2
 558              		.arm
 559              		.syntax unified
 560 06ec 24109DE5 		ldr	r1, [sp, #36]
 561 06f0 E4008DE2 		add	r0, sp, #228
 562 06f4 08208DE5 		str	r2, [sp, #8]
 563 06f8 0420A0E3 		mov	r2, #4
 564 06fc 011086E0 		add	r1, r6, r1
 565 0700 FEFFFFEB 		bl	memcpy
 566 0704 E4809DE5 		ldr	r8, [sp, #228]
 567              		.syntax divided
 568              	@ 1983 "C:/Renesas/e2studio_2021_01_workspace_RZA2M_ANPR/ANPR_RZA2M_EBK/src/tensorflow_lite/third_p
 569 0708 78208FE6 		sxtb16 r2, r8
 570              	@ 0 "" 2
 571              	@ 1991 "C:/Renesas/e2studio_2021_01_workspace_RZA2M_ANPR/ANPR_RZA2M_EBK/src/tensorflow_lite/third_p
 572 070c 78848FE6 		sxtb16 r8, r8, ROR #8
 573              	@ 0 "" 2
 574              	@ 2038 "C:/Renesas/e2studio_2021_01_workspace_RZA2M_ANPR/ANPR_RZA2M_EBK/src/tensorflow_lite/third_p
 575 0710 125705E7 		smlad r5, r2, r7, r5
 576              	@ 0 "" 2
 577              		.arm
 578              		.syntax unified
 579 0714 0C309DE5 		ldr	r3, [sp, #12]
 580              		.syntax divided
 581              	@ 2038 "C:/Renesas/e2studio_2021_01_workspace_RZA2M_ANPR/ANPR_RZA2M_EBK/src/tensorflow_lite/third_p
 582 0718 129309E7 		smlad r9, r2, r3, r9
 583              	@ 0 "" 2
 584              	@ 2038 "C:/Renesas/e2studio_2021_01_workspace_RZA2M_ANPR/ANPR_RZA2M_EBK/src/tensorflow_lite/third_p
 585 071c 185B05E7 		smlad r5, r8, fp, r5
 586              	@ 0 "" 2
 587              		.arm
 588              		.syntax unified
 589 0720 04B09DE5 		ldr	fp, [sp, #4]
 590 0724 E4308DE2 		add	r3, sp, #228
 591 0728 0420A0E3 		mov	r2, #4
 592 072c 0300A0E1 		mov	r0, r3
 593 0730 08108BE2 		add	r1, fp, #8
 594 0734 FEFFFFEB 		bl	memcpy
 595 0738 E4709DE5 		ldr	r7, [sp, #228]
 596              		.syntax divided
 597              	@ 2038 "C:/Renesas/e2studio_2021_01_workspace_RZA2M_ANPR/ANPR_RZA2M_EBK/src/tensorflow_lite/third_p
 598 073c 189A08E7 		smlad r8, r8, r10, r9
 599              	@ 0 "" 2
 600              		.arm
 601              		.syntax unified
 602 0740 10109DE5 		ldr	r1, [sp, #16]
 603 0744 0420A0E3 		mov	r2, #4
 604 0748 E4008DE2 		add	r0, sp, #228
 605 074c 04B08DE5 		str	fp, [sp, #4]
 606 0750 01108BE0 		add	r1, fp, r1
 607 0754 FEFFFFEB 		bl	memcpy
 608 0758 081086E2 		add	r1, r6, #8
 609 075c E4008DE2 		add	r0, sp, #228
 610 0760 0420A0E3 		mov	r2, #4
 611 0764 E4909DE5 		ldr	r9, [sp, #228]
 612              		.syntax divided
 613              	@ 1983 "C:/Renesas/e2studio_2021_01_workspace_RZA2M_ANPR/ANPR_RZA2M_EBK/src/tensorflow_lite/third_p
 614 0768 77B08FE6 		sxtb16 fp, r7
 615              	@ 0 "" 2
 616              		.arm
 617              		.syntax unified
 618 076c FEFFFFEB 		bl	memcpy
 619 0770 E4309DE5 		ldr	r3, [sp, #228]
 620              		.syntax divided
 621              	@ 1983 "C:/Renesas/e2studio_2021_01_workspace_RZA2M_ANPR/ANPR_RZA2M_EBK/src/tensorflow_lite/third_p
 622 0774 73208FE6 		sxtb16 r2, r3
 623              	@ 0 "" 2
 624              	@ 1991 "C:/Renesas/e2studio_2021_01_workspace_RZA2M_ANPR/ANPR_RZA2M_EBK/src/tensorflow_lite/third_p
 625 0778 77748FE6 		sxtb16 r7, r7, ROR #8
 626              	@ 0 "" 2
 627              	@ 1991 "C:/Renesas/e2studio_2021_01_workspace_RZA2M_ANPR/ANPR_RZA2M_EBK/src/tensorflow_lite/third_p
 628 077c 73348FE6 		sxtb16 r3, r3, ROR #8
 629              	@ 0 "" 2
 630              	@ 2038 "C:/Renesas/e2studio_2021_01_workspace_RZA2M_ANPR/ANPR_RZA2M_EBK/src/tensorflow_lite/third_p
 631 0780 124B04E7 		smlad r4, r2, fp, r4
 632              	@ 0 "" 2
 633              	@ 1983 "C:/Renesas/e2studio_2021_01_workspace_RZA2M_ANPR/ANPR_RZA2M_EBK/src/tensorflow_lite/third_p
 634 0784 79A08FE6 		sxtb16 r10, r9
 635              	@ 0 "" 2
 636              	@ 2038 "C:/Renesas/e2studio_2021_01_workspace_RZA2M_ANPR/ANPR_RZA2M_EBK/src/tensorflow_lite/third_p
 637 0788 134704E7 		smlad r4, r3, r7, r4
 638              	@ 0 "" 2
 639              	@ 1991 "C:/Renesas/e2studio_2021_01_workspace_RZA2M_ANPR/ANPR_RZA2M_EBK/src/tensorflow_lite/third_p
 640 078c 79948FE6 		sxtb16 r9, r9, ROR #8
 641              	@ 0 "" 2
 642              		.arm
 643              		.syntax unified
 644 0790 08009DE5 		ldr	r0, [sp, #8]
 645              		.syntax divided
 646              	@ 2038 "C:/Renesas/e2studio_2021_01_workspace_RZA2M_ANPR/ANPR_RZA2M_EBK/src/tensorflow_lite/third_p
 647 0794 120A02E7 		smlad r2, r2, r10, r0
 648              	@ 0 "" 2
 649              	@ 2038 "C:/Renesas/e2studio_2021_01_workspace_RZA2M_ANPR/ANPR_RZA2M_EBK/src/tensorflow_lite/third_p
 650 0798 132902E7 		smlad r2, r3, r9, r2
 651              	@ 0 "" 2
 652              		.arm
 653              		.syntax unified
 654 079c 10109DE5 		ldr	r1, [sp, #16]
 655 07a0 E4008DE2 		add	r0, sp, #228
 656 07a4 08208DE5 		str	r2, [sp, #8]
 657 07a8 0420A0E3 		mov	r2, #4
 658 07ac 011086E0 		add	r1, r6, r1
 659 07b0 FEFFFFEB 		bl	memcpy
 660 07b4 E4309DE5 		ldr	r3, [sp, #228]
 661              		.syntax divided
 662              	@ 1983 "C:/Renesas/e2studio_2021_01_workspace_RZA2M_ANPR/ANPR_RZA2M_EBK/src/tensorflow_lite/third_p
 663 07b8 73208FE6 		sxtb16 r2, r3
 664              	@ 0 "" 2
 665              	@ 1991 "C:/Renesas/e2studio_2021_01_workspace_RZA2M_ANPR/ANPR_RZA2M_EBK/src/tensorflow_lite/third_p
 666 07bc 73348FE6 		sxtb16 r3, r3, ROR #8
 667              	@ 0 "" 2
 668              	@ 2038 "C:/Renesas/e2studio_2021_01_workspace_RZA2M_ANPR/ANPR_RZA2M_EBK/src/tensorflow_lite/third_p
 669 07c0 125B0BE7 		smlad fp, r2, fp, r5
 670              	@ 0 "" 2
 671              	@ 2038 "C:/Renesas/e2studio_2021_01_workspace_RZA2M_ANPR/ANPR_RZA2M_EBK/src/tensorflow_lite/third_p
 672 07c4 128A0AE7 		smlad r10, r2, r10, r8
 673              	@ 0 "" 2
 674              	@ 2038 "C:/Renesas/e2studio_2021_01_workspace_RZA2M_ANPR/ANPR_RZA2M_EBK/src/tensorflow_lite/third_p
 675 07c8 13B707E7 		smlad r7, r3, r7, fp
 676              	@ 0 "" 2
 677              		.arm
 678              		.syntax unified
 679 07cc 0C308DE5 		str	r3, [sp, #12]
 680 07d0 0420A0E3 		mov	r2, #4
 681 07d4 04309DE5 		ldr	r3, [sp, #4]
 682 07d8 E4008DE2 		add	r0, sp, #228
 683 07dc 0C1083E2 		add	r1, r3, #12
 684 07e0 103083E2 		add	r3, r3, #16
 685 07e4 0380A0E1 		mov	r8, r3
 686 07e8 04308DE5 		str	r3, [sp, #4]
 687 07ec FEFFFFEB 		bl	memcpy
 688 07f0 E4509DE5 		ldr	r5, [sp, #228]
 689 07f4 0C309DE5 		ldr	r3, [sp, #12]
 690              		.syntax divided
 691              	@ 2038 "C:/Renesas/e2studio_2021_01_workspace_RZA2M_ANPR/ANPR_RZA2M_EBK/src/tensorflow_lite/third_p
 692 07f8 13A909E7 		smlad r9, r3, r9, r10
 693              	@ 0 "" 2
 694              		.arm
 695              		.syntax unified
 696 07fc 20109DE5 		ldr	r1, [sp, #32]
 697 0800 E4308DE2 		add	r3, sp, #228
 698 0804 0420A0E3 		mov	r2, #4
 699 0808 0300A0E1 		mov	r0, r3
 700              		.syntax divided
 701              	@ 1983 "C:/Renesas/e2studio_2021_01_workspace_RZA2M_ANPR/ANPR_RZA2M_EBK/src/tensorflow_lite/third_p
 702 080c 75B08FE6 		sxtb16 fp, r5
 703              	@ 0 "" 2
 704              		.arm
 705              		.syntax unified
 706 0810 011088E0 		add	r1, r8, r1
 707 0814 FEFFFFEB 		bl	memcpy
 708 0818 E4308DE2 		add	r3, sp, #228
 709 081c 0C1086E2 		add	r1, r6, #12
 710 0820 0300A0E1 		mov	r0, r3
 711 0824 0420A0E3 		mov	r2, #4
 712 0828 E4A09DE5 		ldr	r10, [sp, #228]
 713 082c 106086E2 		add	r6, r6, #16
 714 0830 FEFFFFEB 		bl	memcpy
 715 0834 E4309DE5 		ldr	r3, [sp, #228]
 716              		.syntax divided
 717              	@ 1983 "C:/Renesas/e2studio_2021_01_workspace_RZA2M_ANPR/ANPR_RZA2M_EBK/src/tensorflow_lite/third_p
 718 0838 73208FE6 		sxtb16 r2, r3
 719              	@ 0 "" 2
 720              	@ 1991 "C:/Renesas/e2studio_2021_01_workspace_RZA2M_ANPR/ANPR_RZA2M_EBK/src/tensorflow_lite/third_p
 721 083c 75548FE6 		sxtb16 r5, r5, ROR #8
 722              	@ 0 "" 2
 723              	@ 1991 "C:/Renesas/e2studio_2021_01_workspace_RZA2M_ANPR/ANPR_RZA2M_EBK/src/tensorflow_lite/third_p
 724 0840 73348FE6 		sxtb16 r3, r3, ROR #8
 725              	@ 0 "" 2
 726              	@ 2038 "C:/Renesas/e2studio_2021_01_workspace_RZA2M_ANPR/ANPR_RZA2M_EBK/src/tensorflow_lite/third_p
 727 0844 124B04E7 		smlad r4, r2, fp, r4
 728              	@ 0 "" 2
 729              	@ 1983 "C:/Renesas/e2studio_2021_01_workspace_RZA2M_ANPR/ANPR_RZA2M_EBK/src/tensorflow_lite/third_p
 730 0848 7A808FE6 		sxtb16 r8, r10
 731              	@ 0 "" 2
 732              	@ 2038 "C:/Renesas/e2studio_2021_01_workspace_RZA2M_ANPR/ANPR_RZA2M_EBK/src/tensorflow_lite/third_p
 733 084c 134504E7 		smlad r4, r3, r5, r4
 734              	@ 0 "" 2
 735              	@ 1991 "C:/Renesas/e2studio_2021_01_workspace_RZA2M_ANPR/ANPR_RZA2M_EBK/src/tensorflow_lite/third_p
 736 0850 7AA48FE6 		sxtb16 r10, r10, ROR #8
 737              	@ 0 "" 2
 738              		.arm
 739              		.syntax unified
 740 0854 08009DE5 		ldr	r0, [sp, #8]
 741              		.syntax divided
 742              	@ 2038 "C:/Renesas/e2studio_2021_01_workspace_RZA2M_ANPR/ANPR_RZA2M_EBK/src/tensorflow_lite/third_p
 743 0858 120802E7 		smlad r2, r2, r8, r0
 744              	@ 0 "" 2
 745              	@ 2038 "C:/Renesas/e2studio_2021_01_workspace_RZA2M_ANPR/ANPR_RZA2M_EBK/src/tensorflow_lite/third_p
 746 085c 132A03E7 		smlad r3, r3, r10, r2
 747              	@ 0 "" 2
 748              		.arm
 749              		.syntax unified
 750 0860 20109DE5 		ldr	r1, [sp, #32]
 751 0864 0420A0E3 		mov	r2, #4
 752 0868 E4008DE2 		add	r0, sp, #228
 753 086c 08308DE5 		str	r3, [sp, #8]
 754 0870 011086E0 		add	r1, r6, r1
 755 0874 FEFFFFEB 		bl	memcpy
 756 0878 E4209DE5 		ldr	r2, [sp, #228]
 757              		.syntax divided
 758              	@ 1983 "C:/Renesas/e2studio_2021_01_workspace_RZA2M_ANPR/ANPR_RZA2M_EBK/src/tensorflow_lite/third_p
 759 087c 72308FE6 		sxtb16 r3, r2
 760              	@ 0 "" 2
 761              	@ 1991 "C:/Renesas/e2studio_2021_01_workspace_RZA2M_ANPR/ANPR_RZA2M_EBK/src/tensorflow_lite/third_p
 762 0880 72248FE6 		sxtb16 r2, r2, ROR #8
 763              	@ 0 "" 2
 764              	@ 2038 "C:/Renesas/e2studio_2021_01_workspace_RZA2M_ANPR/ANPR_RZA2M_EBK/src/tensorflow_lite/third_p
 765 0884 137B07E7 		smlad r7, r3, fp, r7
 766              	@ 0 "" 2
 767              	@ 2038 "C:/Renesas/e2studio_2021_01_workspace_RZA2M_ANPR/ANPR_RZA2M_EBK/src/tensorflow_lite/third_p
 768 0888 139809E7 		smlad r9, r3, r8, r9
 769              	@ 0 "" 2
 770              	@ 2038 "C:/Renesas/e2studio_2021_01_workspace_RZA2M_ANPR/ANPR_RZA2M_EBK/src/tensorflow_lite/third_p
 771 088c 127503E7 		smlad r3, r2, r5, r7
 772              	@ 0 "" 2
 773              		.arm
 774              		.syntax unified
 775 0890 0C308DE5 		str	r3, [sp, #12]
 776              		.syntax divided
 777              	@ 2038 "C:/Renesas/e2studio_2021_01_workspace_RZA2M_ANPR/ANPR_RZA2M_EBK/src/tensorflow_lite/third_p
 778 0894 129A0AE7 		smlad r10, r2, r10, r9
 779              	@ 0 "" 2
 780              		.arm
 781              		.syntax unified
 782 0898 28309DE5 		ldr	r3, [sp, #40]
 783 089c 2C209DE5 		ldr	r2, [sp, #44]
 784 08a0 033046E0 		sub	r3, r6, r3
 785 08a4 030052E1 		cmp	r2, r3
 786 08a8 46FFFFCA 		bgt	.L18
 787 08ac 28209DE5 		ldr	r2, [sp, #40]
 788 08b0 0450A0E1 		mov	r5, r4
 789 08b4 80309DE5 		ldr	r3, [sp, #128]
 790 08b8 0A90A0E1 		mov	r9, r10
 791 08bc 7C009DE5 		ldr	r0, [sp, #124]
 792 08c0 032082E0 		add	r2, r2, r3
 793 08c4 28208DE5 		str	r2, [sp, #40]
 794 08c8 50209DE5 		ldr	r2, [sp, #80]
 795 08cc 033082E0 		add	r3, r2, r3
 796              	.L39:
 797 08d0 60219DE5 		ldr	r2, [sp, #352]
 798 08d4 000052E1 		cmp	r2, r0
 799 08d8 0E0200DA 		ble	.L19
 800 08dc 28409DE5 		ldr	r4, [sp, #40]
 801 08e0 02E0A0E1 		mov	lr, r2
 802 08e4 022083E0 		add	r2, r3, r2
 803 08e8 00B04EE0 		sub	fp, lr, r0
 804 08ec 0F005BE3 		cmp	fp, #15
 805 08f0 03C084E1 		orr	ip, r4, r3
 806 08f4 0E1084E0 		add	r1, r4, lr
 807 08f8 0CC082E1 		orr	ip, r2, ip
 808 08fc 00E0A093 		movls	lr, #0
 809 0900 0CC081E1 		orr	ip, r1, ip
 810 0904 01E0A083 		movhi	lr, #1
 811 0908 5CC0E3E7 		ubfx	ip, ip, #0, #4
 812 090c 00005CE3 		cmp	ip, #0
 813 0910 00E0A013 		movne	lr, #0
 814 0914 00005EE3 		cmp	lr, #0
 815 0918 8005000A 		beq	.L20
 816 091c 84E09DE5 		ldr	lr, [sp, #132]
 817 0920 10C04BE2 		sub	ip, fp, #16
 818 0924 2CC2A0E1 		lsr	ip, ip, #4
 819 0928 00E04EE0 		sub	lr, lr, r0
 820 092c 0E005EE3 		cmp	lr, #14
 821 0930 01E08CE2 		add	lr, ip, #1
 822 0934 74E08DE5 		str	lr, [sp, #116]
 823 0938 0EE2A0E1 		lsl	lr, lr, #4
 824 093c 70E08DE5 		str	lr, [sp, #112]
 825 0940 7405009A 		bls	.L83
 826 0944 02C04CE2 		sub	ip, ip, #2
 827 0948 04007CE3 		cmn	ip, #4
 828 094c 1906008A 		bhi	.L84
 829 0950 5000C0F2 		vmov.i32	q8, #0  @ v4si
 830 0954 01C0CCE3 		bic	ip, ip, #1
 831 0958 02C08CE2 		add	ip, ip, #2
 832 095c 202082E2 		add	r2, r2, #32
 833 0960 04C08DE5 		str	ip, [sp, #4]
 834 0964 201081E2 		add	r1, r1, #32
 835 0968 F0E160F2 		vmov	q15, q8  @ v4si
 836 096c 206083E2 		add	r6, r3, #32
 837 0970 F04120F2 		vmov	q2, q8  @ v4si
 838 0974 20C084E2 		add	ip, r4, #32
 839 0978 F0E120F2 		vmov	q7, q8  @ v4si
 840 097c 00A0A0E3 		mov	r10, #0
 841              	.L23:
 842 0980 08AB5CED 		vldr	d26, [ip, #-32]
 843 0984 06BB5CED 		vldr	d27, [ip, #-24]
 844 0988 02A08AE2 		add	r10, r10, #2
 845 098c 04E09DE5 		ldr	lr, [sp, #4]
 846 0990 204086E2 		add	r4, r6, #32
 847 0994 086B52ED 		vldr	d22, [r2, #-32]
 848 0998 067B52ED 		vldr	d23, [r2, #-24]
 849 099c 0680A0E1 		mov	r8, r6
 850 09a0 AA0C86F2 		vmull.s8 q0, d22, d26
 851 09a4 0270A0E1 		mov	r7, r2
 852 09a8 082B51ED 		vldr	d18, [r1, #-32]
 853 09ac 063B51ED 		vldr	d19, [r1, #-24]
 854 09b0 0E005AE1 		cmp	r10, lr
 855 09b4 A28C86F2 		vmull.s8 q4, d22, d18
 856 09b8 20E082E2 		add	lr, r2, #32
 857 09bc 088B56ED 		vldr	d24, [r6, #-32]
 858 09c0 069B56ED 		vldr	d25, [r6, #-24]
 859 09c4 AA6C88F2 		vmull.s8 q3, d24, d26
 860 09c8 A22C88F2 		vmull.s8 q1, d24, d18
 861 09cc 10CA90F2 		vmovl.s16 q6, d0
 862 09d0 ABCCC9F2 		vmull.s8 q14, d25, d27
 863 09d4 44482CF2 		vadd.i32	q2, q6, q2
 864 09d8 18CA90F2 		vmovl.s16 q6, d8
 865 09dc ABACC7F2 		vmull.s8 q13, d23, d27
 866 09e0 164AD0F2 		vmovl.s16 q10, d6
 867 09e4 60086CF2 		vadd.i32	q8, q6, q8
 868 09e8 198A90F2 		vmovl.s16 q4, d9
 869 09ec 04CB11ED 		vldr	d12, [r1, #-16]
 870 09f0 02DB11ED 		vldr	d13, [r1, #-8]
 871 09f4 A38CC9F2 		vmull.s8 q12, d25, d19
 872 09f8 A36CC7F2 		vmull.s8 q11, d23, d19
 873 09fc 042B56ED 		vldr	d18, [r6, #-16]
 874 0a00 023B56ED 		vldr	d19, [r6, #-8]
 875 0a04 0460A0E1 		mov	r6, r4
 876 0a08 CEE824F2 		vadd.i32	q7, q10, q7
 877 0a0c 600868F2 		vadd.i32	q8, q4, q8
 878 0a10 176A90F2 		vmovl.s16 q3, d7
 879 0a14 8C8C82F2 		vmull.s8 q4, d18, d12
 880 0a18 12AA90F2 		vmovl.s16 q5, d2
 881 0a1c 4E6826F2 		vadd.i32	q3, q3, q7
 882 0a20 110A90F2 		vmovl.s16 q0, d1
 883 0a24 3CEA90F2 		vmovl.s16 q7, d28
 884 0a28 6EE86AF2 		vadd.i32	q15, q5, q15
 885 0a2c 440820F2 		vadd.i32	q0, q0, q2
 886 0a30 46682EF2 		vadd.i32	q3, q7, q3
 887 0a34 132A90F2 		vmovl.s16 q1, d3
 888 0a38 3AEA90F2 		vmovl.s16 q7, d26
 889 0a3c 044B5CED 		vldr	d20, [ip, #-16]
 890 0a40 025B5CED 		vldr	d21, [ip, #-8]
 891 0a44 A44C82F2 		vmull.s8 q2, d18, d20
 892 0a48 04AB12ED 		vldr	d10, [r2, #-16]
 893 0a4c 02BB12ED 		vldr	d11, [r2, #-8]
 894 0a50 0E20A0E1 		mov	r2, lr
 895 0a54 6E2822F2 		vadd.i32	q1, q1, q15
 896 0a58 048B8DED 		vstr	d8, [sp, #16]
 897 0a5c 069B8DED 		vstr	d9, [sp, #24]
 898 0a60 24ECCAF2 		vmull.s8 q15, d10, d20
 899 0a64 0C8C8AF2 		vmull.s8 q4, d10, d12
 900 0a68 40E82EF2 		vadd.i32	q7, q7, q0
 901 0a6c 380A90F2 		vmovl.s16 q0, d24
 902 0a70 3BAAD0F2 		vmovl.s16 q13, d27
 903 0a74 420820F2 		vadd.i32	q0, q0, q1
 904 0a78 362A90F2 		vmovl.s16 q1, d22
 905 0a7c 3DCAD0F2 		vmovl.s16 q14, d29
 906 0a80 602822F2 		vadd.i32	q1, q1, q8
 907 0a84 CEE82AF2 		vadd.i32	q7, q13, q7
 908 0a88 040BDDED 		vldr	d16, [sp, #16]
 909 0a8c 061BDDED 		vldr	d17, [sp, #24]
 910 0a90 A5ACC3F2 		vmull.s8 q13, d19, d21
 911 0a94 398AD0F2 		vmovl.s16 q12, d25
 912 0a98 254CCBF2 		vmull.s8 q10, d11, d21
 913 0a9c 8D2CC3F2 		vmull.s8 q9, d19, d13
 914 0aa0 0DAC8BF2 		vmull.s8 q5, d11, d13
 915 0aa4 376AD0F2 		vmovl.s16 q11, d23
 916 0aa8 3ECA90F2 		vmovl.s16 q6, d30
 917 0aac C08868F2 		vadd.i32	q12, q12, q0
 918 0ab0 C6682CF2 		vadd.i32	q3, q14, q3
 919 0ab4 300A90F2 		vmovl.s16 q0, d16
 920 0ab8 14CAD0F2 		vmovl.s16 q14, d4
 921 0abc C26866F2 		vadd.i32	q11, q11, q1
 922 0ac0 182A90F2 		vmovl.s16 q1, d8
 923 0ac4 4EE82CF2 		vadd.i32	q7, q6, q7
 924 0ac8 C6682CF2 		vadd.i32	q3, q14, q3
 925 0acc 154A90F2 		vmovl.s16 q2, d5
 926 0ad0 680820F2 		vadd.i32	q0, q0, q12
 927 0ad4 310AD0F2 		vmovl.s16 q8, d17
 928 0ad8 3FEAD0F2 		vmovl.s16 q15, d31
 929 0adc 666862F2 		vadd.i32	q11, q1, q11
 930 0ae0 198A90F2 		vmovl.s16 q4, d9
 931 0ae4 466824F2 		vadd.i32	q3, q2, q3
 932 0ae8 3ACAD0F2 		vmovl.s16 q14, d26
 933 0aec CEE86EF2 		vadd.i32	q15, q15, q7
 934 0af0 34CA90F2 		vmovl.s16 q6, d20
 935 0af4 C00820F2 		vadd.i32	q0, q8, q0
 936 0af8 328AD0F2 		vmovl.s16 q12, d18
 937 0afc 1A0AD0F2 		vmovl.s16 q8, d10
 938 0b00 666868F2 		vadd.i32	q11, q4, q11
 939 0b04 6EE86CF2 		vadd.i32	q15, q6, q15
 940 0b08 C6E82CF2 		vadd.i32	q7, q14, q3
 941 0b0c 3BAAD0F2 		vmovl.s16 q13, d27
 942 0b10 354AD0F2 		vmovl.s16 q10, d21
 943 0b14 C08868F2 		vadd.i32	q12, q12, q0
 944 0b18 332AD0F2 		vmovl.s16 q9, d19
 945 0b1c E60860F2 		vadd.i32	q8, q8, q11
 946 0b20 1BAA90F2 		vmovl.s16 q5, d11
 947 0b24 20C08DE5 		str	ip, [sp, #32]
 948 0b28 20C08CE2 		add	ip, ip, #32
 949 0b2c 24108DE5 		str	r1, [sp, #36]
 950 0b30 201081E2 		add	r1, r1, #32
 951 0b34 EE4824F2 		vadd.i32	q2, q10, q15
 952 0b38 CEE82AF2 		vadd.i32	q7, q13, q7
 953 0b3c E8E862F2 		vadd.i32	q15, q9, q12
 954 0b40 60086AF2 		vadd.i32	q8, q5, q8
 955 0b44 00F0D4F5 		pld	[r4]
 956 0b48 00F0DEF5 		pld	[lr]
 957 0b4c 8BFFFF1A 		bne	.L23
 958 0b50 24109DE5 		ldr	r1, [sp, #36]
 959 0b54 0720A0E1 		mov	r2, r7
 960 0b58 20E09DE5 		ldr	lr, [sp, #32]
 961 0b5c 08C0A0E1 		mov	ip, r8
 962 0b60 04409DE5 		ldr	r4, [sp, #4]
 963              	.L22:
 964 0b64 74609DE5 		ldr	r6, [sp, #116]
 965              	.L27:
 966 0b68 DFAA62F4 		vld1.64	{d26-d27}, [r2:64]
 967 0b6c 014084E2 		add	r4, r4, #1
 968 0b70 040056E1 		cmp	r6, r4
 969 0b74 10C08CE2 		add	ip, ip, #16
 970 0b78 044B5CED 		vldr	d20, [ip, #-16]
 971 0b7c 025B5CED 		vldr	d21, [ip, #-8]
 972 0b80 10E08EE2 		add	lr, lr, #16
 973 0b84 102082E2 		add	r2, r2, #16
 974 0b88 101081E2 		add	r1, r1, #16
 975 0b8c 046B5EED 		vldr	d22, [lr, #-16]
 976 0b90 027B5EED 		vldr	d23, [lr, #-8]
 977 0b94 A62CC4F2 		vmull.s8 q9, d20, d22
 978 0b98 048B51ED 		vldr	d24, [r1, #-16]
 979 0b9c 029B51ED 		vldr	d25, [r1, #-8]
 980 0ba0 A62C8AF2 		vmull.s8 q1, d26, d22
 981 0ba4 A86C84F2 		vmull.s8 q3, d20, d24
 982 0ba8 A8CCCAF2 		vmull.s8 q14, d26, d24
 983 0bac A70C85F2 		vmull.s8 q0, d21, d23
 984 0bb0 A76CCBF2 		vmull.s8 q11, d27, d23
 985 0bb4 A94CC5F2 		vmull.s8 q10, d21, d25
 986 0bb8 A98CCBF2 		vmull.s8 q12, d27, d25
 987 0bbc 32CA90F2 		vmovl.s16 q6, d18
 988 0bc0 3CAAD0F2 		vmovl.s16 q13, d28
 989 0bc4 12AA90F2 		vmovl.s16 q5, d2
 990 0bc8 168A90F2 		vmovl.s16 q4, d6
 991 0bcc E0086AF2 		vadd.i32	q8, q13, q8
 992 0bd0 4EE82CF2 		vadd.i32	q7, q6, q7
 993 0bd4 332AD0F2 		vmovl.s16 q9, d19
 994 0bd8 132A90F2 		vmovl.s16 q1, d3
 995 0bdc 6EE868F2 		vadd.i32	q15, q4, q15
 996 0be0 44482AF2 		vadd.i32	q2, q5, q2
 997 0be4 176A90F2 		vmovl.s16 q3, d7
 998 0be8 3DCAD0F2 		vmovl.s16 q14, d29
 999 0bec CEE822F2 		vadd.i32	q7, q9, q7
 1000 0bf0 444822F2 		vadd.i32	q2, q1, q2
 1001 0bf4 102AD0F2 		vmovl.s16 q9, d0
 1002 0bf8 362A90F2 		vmovl.s16 q1, d22
 1003 0bfc 6E6826F2 		vadd.i32	q3, q3, q15
 1004 0c00 34CA90F2 		vmovl.s16 q6, d20
 1005 0c04 E0C86CF2 		vadd.i32	q14, q14, q8
 1006 0c08 38AAD0F2 		vmovl.s16 q13, d24
 1007 0c0c CEE822F2 		vadd.i32	q7, q9, q7
 1008 0c10 110A90F2 		vmovl.s16 q0, d1
 1009 0c14 444822F2 		vadd.i32	q2, q1, q2
 1010 0c18 376AD0F2 		vmovl.s16 q11, d23
 1011 0c1c 46682CF2 		vadd.i32	q3, q6, q3
 1012 0c20 354AD0F2 		vmovl.s16 q10, d21
 1013 0c24 ECA86AF2 		vadd.i32	q13, q13, q14
 1014 0c28 390AD0F2 		vmovl.s16 q8, d25
 1015 0c2c 4EE820F2 		vadd.i32	q7, q0, q7
 1016 0c30 C44826F2 		vadd.i32	q2, q11, q2
 1017 0c34 C6E864F2 		vadd.i32	q15, q10, q3
 1018 0c38 EA0860F2 		vadd.i32	q8, q8, q13
 1019 0c3c C9FFFF8A 		bhi	.L27
 1020 0c40 AFE86EF2 		vadd.i32	d30, d30, d31
 1021 0c44 A14860F2 		vadd.i32	d20, d16, d17
 1022 0c48 054824F2 		vadd.i32	d4, d4, d5
 1023 0c4c BEEB6EF2 		vpadd.i32	d30, d30, d30
 1024 0c50 0CE09DE5 		ldr	lr, [sp, #12]
 1025 0c54 0FE82EF2 		vadd.i32	d14, d14, d15
 1026 0c58 70209DE5 		ldr	r2, [sp, #112]
 1027 0c5c 28109DE5 		ldr	r1, [sp, #40]
 1028 0c60 B44B64F2 		vpadd.i32	d20, d20, d20
 1029 0c64 144B24F2 		vpadd.i32	d4, d4, d4
 1030 0c68 0B0052E1 		cmp	r2, fp
 1031 0c6c 90CB1EEE 		vmov.32	ip, d30[0]
 1032 0c70 020080E0 		add	r0, r0, r2
 1033 0c74 0CC08EE0 		add	ip, lr, ip
 1034 0c78 1EEB2EF2 		vpadd.i32	d14, d14, d14
 1035 0c7c 08E09DE5 		ldr	lr, [sp, #8]
 1036 0c80 023083E0 		add	r3, r3, r2
 1037 0c84 022081E0 		add	r2, r1, r2
 1038 0c88 901B14EE 		vmov.32	r1, d20[0]
 1039 0c8c 019089E0 		add	r9, r9, r1
 1040 0c90 101B14EE 		vmov.32	r1, d4[0]
 1041 0c94 0CC08DE5 		str	ip, [sp, #12]
 1042 0c98 01108EE0 		add	r1, lr, r1
 1043 0c9c 10CB1EEE 		vmov.32	ip, d14[0]
 1044 0ca0 08108DE5 		str	r1, [sp, #8]
 1045 0ca4 0C5085E0 		add	r5, r5, ip
 1046 0ca8 1701000A 		beq	.L30
 1047              	.L21:
 1048 0cac 60C19DE5 		ldr	ip, [sp, #352]
 1049 0cb0 011080E2 		add	r1, r0, #1
 1050 0cb4 08609DE5 		ldr	r6, [sp, #8]
 1051 0cb8 D0E0D3E1 		ldrsb	lr, [r3]
 1052 0cbc D040D2E1 		ldrsb	r4, [r2]
 1053 0cc0 01005CE1 		cmp	ip, r1
 1054 0cc4 0C10A0E1 		mov	r1, ip
 1055 0cc8 DCC093E1 		ldrsb	ip, [r3, ip]
 1056 0ccc D11092E1 		ldrsb	r1, [r2, r1]
 1057 0cd0 845E05E1 		smlabb	r5, r4, lr, r5
 1058 0cd4 846C04E1 		smlabb	r4, r4, ip, r6
 1059 0cd8 8C9109E1 		smlabb	r9, ip, r1, r9
 1060 0cdc 0460A0E1 		mov	r6, r4
 1061 0ce0 08408DE5 		str	r4, [sp, #8]
 1062 0ce4 0C409DE5 		ldr	r4, [sp, #12]
 1063 0ce8 8E410EE1 		smlabb	lr, lr, r1, r4
 1064 0cec 0E70A0E1 		mov	r7, lr
 1065 0cf0 0CE08DE5 		str	lr, [sp, #12]
 1066 0cf4 040100DA 		ble	.L30
 1067 0cf8 60119DE5 		ldr	r1, [sp, #352]
 1068 0cfc 60819DE5 		ldr	r8, [sp, #352]
 1069 0d00 D1C0D2E1 		ldrsb	ip, [r2, #1]
 1070 0d04 01E083E0 		add	lr, r3, r1
 1071 0d08 011082E0 		add	r1, r2, r1
 1072 0d0c D140DEE1 		ldrsb	r4, [lr, #1]
 1073 0d10 D1E0D1E1 		ldrsb	lr, [r1, #1]
 1074 0d14 021080E2 		add	r1, r0, #2
 1075 0d18 010058E1 		cmp	r8, r1
 1076 0d1c D110D3E1 		ldrsb	r1, [r3, #1]
 1077 0d20 8C6406E1 		smlabb	r6, ip, r4, r6
 1078 0d24 849E09E1 		smlabb	r9, r4, lr, r9
 1079 0d28 0680A0E1 		mov	r8, r6
 1080 0d2c 08608DE5 		str	r6, [sp, #8]
 1081 0d30 817E0EE1 		smlabb	lr, r1, lr, r7
 1082 0d34 024083E2 		add	r4, r3, #2
 1083 0d38 8C5105E1 		smlabb	r5, ip, r1, r5
 1084 0d3c 0EA0A0E1 		mov	r10, lr
 1085 0d40 0CE08DE5 		str	lr, [sp, #12]
 1086 0d44 02E082E2 		add	lr, r2, #2
 1087 0d48 EF0000DA 		ble	.L30
 1088 0d4c 60119DE5 		ldr	r1, [sp, #352]
 1089 0d50 03C080E2 		add	ip, r0, #3
 1090 0d54 036083E2 		add	r6, r3, #3
 1091 0d58 D14094E1 		ldrsb	r4, [r4, r1]
 1092 0d5c D1109EE1 		ldrsb	r1, [lr, r1]
 1093 0d60 60E19DE5 		ldr	lr, [sp, #352]
 1094 0d64 0C005EE1 		cmp	lr, ip
 1095 0d68 D2E0D2E1 		ldrsb	lr, [r2, #2]
 1096 0d6c D2C0D3E1 		ldrsb	ip, [r3, #2]
 1097 0d70 849109E1 		smlabb	r9, r4, r1, r9
 1098 0d74 8E8404E1 		smlabb	r4, lr, r4, r8
 1099 0d78 8CA101E1 		smlabb	r1, ip, r1, r10
 1100 0d7c 0470A0E1 		mov	r7, r4
 1101 0d80 08408DE5 		str	r4, [sp, #8]
 1102 0d84 8E5C05E1 		smlabb	r5, lr, ip, r5
 1103 0d88 0180A0E1 		mov	r8, r1
 1104 0d8c 0C108DE5 		str	r1, [sp, #12]
 1105 0d90 03E082E2 		add	lr, r2, #3
 1106 0d94 DC0000DA 		ble	.L30
 1107 0d98 60119DE5 		ldr	r1, [sp, #352]
 1108 0d9c 04C080E2 		add	ip, r0, #4
 1109 0da0 D14096E1 		ldrsb	r4, [r6, r1]
 1110 0da4 046083E2 		add	r6, r3, #4
 1111 0da8 D1109EE1 		ldrsb	r1, [lr, r1]
 1112 0dac 60E19DE5 		ldr	lr, [sp, #352]
 1113 0db0 0C005EE1 		cmp	lr, ip
 1114 0db4 D3E0D2E1 		ldrsb	lr, [r2, #3]
 1115 0db8 D3C0D3E1 		ldrsb	ip, [r3, #3]
 1116 0dbc 849109E1 		smlabb	r9, r4, r1, r9
 1117 0dc0 8E7404E1 		smlabb	r4, lr, r4, r7
 1118 0dc4 8C8101E1 		smlabb	r1, ip, r1, r8
 1119 0dc8 0470A0E1 		mov	r7, r4
 1120 0dcc 08408DE5 		str	r4, [sp, #8]
 1121 0dd0 8E5C05E1 		smlabb	r5, lr, ip, r5
 1122 0dd4 0180A0E1 		mov	r8, r1
 1123 0dd8 0C108DE5 		str	r1, [sp, #12]
 1124 0ddc 04E082E2 		add	lr, r2, #4
 1125 0de0 C90000DA 		ble	.L30
 1126 0de4 60119DE5 		ldr	r1, [sp, #352]
 1127 0de8 05C080E2 		add	ip, r0, #5
 1128 0dec D14096E1 		ldrsb	r4, [r6, r1]
 1129 0df0 056083E2 		add	r6, r3, #5
 1130 0df4 D1109EE1 		ldrsb	r1, [lr, r1]
 1131 0df8 60E19DE5 		ldr	lr, [sp, #352]
 1132 0dfc 0C005EE1 		cmp	lr, ip
 1133 0e00 D4E0D2E1 		ldrsb	lr, [r2, #4]
 1134 0e04 D4C0D3E1 		ldrsb	ip, [r3, #4]
 1135 0e08 849109E1 		smlabb	r9, r4, r1, r9
 1136 0e0c 8E7404E1 		smlabb	r4, lr, r4, r7
 1137 0e10 8C8101E1 		smlabb	r1, ip, r1, r8
 1138 0e14 0470A0E1 		mov	r7, r4
 1139 0e18 08408DE5 		str	r4, [sp, #8]
 1140 0e1c 8E5C05E1 		smlabb	r5, lr, ip, r5
 1141 0e20 0180A0E1 		mov	r8, r1
 1142 0e24 0C108DE5 		str	r1, [sp, #12]
 1143 0e28 05E082E2 		add	lr, r2, #5
 1144 0e2c B60000DA 		ble	.L30
 1145 0e30 60119DE5 		ldr	r1, [sp, #352]
 1146 0e34 06C080E2 		add	ip, r0, #6
 1147 0e38 D14096E1 		ldrsb	r4, [r6, r1]
 1148 0e3c 066083E2 		add	r6, r3, #6
 1149 0e40 D1109EE1 		ldrsb	r1, [lr, r1]
 1150 0e44 60E19DE5 		ldr	lr, [sp, #352]
 1151 0e48 0C005EE1 		cmp	lr, ip
 1152 0e4c D5E0D2E1 		ldrsb	lr, [r2, #5]
 1153 0e50 D5C0D3E1 		ldrsb	ip, [r3, #5]
 1154 0e54 849109E1 		smlabb	r9, r4, r1, r9
 1155 0e58 8E7404E1 		smlabb	r4, lr, r4, r7
 1156 0e5c 8C8101E1 		smlabb	r1, ip, r1, r8
 1157 0e60 0470A0E1 		mov	r7, r4
 1158 0e64 08408DE5 		str	r4, [sp, #8]
 1159 0e68 8E5C05E1 		smlabb	r5, lr, ip, r5
 1160 0e6c 0180A0E1 		mov	r8, r1
 1161 0e70 0C108DE5 		str	r1, [sp, #12]
 1162 0e74 06E082E2 		add	lr, r2, #6
 1163 0e78 A30000DA 		ble	.L30
 1164 0e7c 60119DE5 		ldr	r1, [sp, #352]
 1165 0e80 07C080E2 		add	ip, r0, #7
 1166 0e84 D14096E1 		ldrsb	r4, [r6, r1]
 1167 0e88 076083E2 		add	r6, r3, #7
 1168 0e8c D1109EE1 		ldrsb	r1, [lr, r1]
 1169 0e90 60E19DE5 		ldr	lr, [sp, #352]
 1170 0e94 0C005EE1 		cmp	lr, ip
 1171 0e98 D6E0D2E1 		ldrsb	lr, [r2, #6]
 1172 0e9c D6C0D3E1 		ldrsb	ip, [r3, #6]
 1173 0ea0 849109E1 		smlabb	r9, r4, r1, r9
 1174 0ea4 8E7404E1 		smlabb	r4, lr, r4, r7
 1175 0ea8 8C8101E1 		smlabb	r1, ip, r1, r8
 1176 0eac 0470A0E1 		mov	r7, r4
 1177 0eb0 08408DE5 		str	r4, [sp, #8]
 1178 0eb4 8E5C05E1 		smlabb	r5, lr, ip, r5
 1179 0eb8 0180A0E1 		mov	r8, r1
 1180 0ebc 0C108DE5 		str	r1, [sp, #12]
 1181 0ec0 07E082E2 		add	lr, r2, #7
 1182 0ec4 900000DA 		ble	.L30
 1183 0ec8 60119DE5 		ldr	r1, [sp, #352]
 1184 0ecc 08C080E2 		add	ip, r0, #8
 1185 0ed0 D14096E1 		ldrsb	r4, [r6, r1]
 1186 0ed4 086083E2 		add	r6, r3, #8
 1187 0ed8 D1109EE1 		ldrsb	r1, [lr, r1]
 1188 0edc 60E19DE5 		ldr	lr, [sp, #352]
 1189 0ee0 0C005EE1 		cmp	lr, ip
 1190 0ee4 D7E0D2E1 		ldrsb	lr, [r2, #7]
 1191 0ee8 D7C0D3E1 		ldrsb	ip, [r3, #7]
 1192 0eec 849109E1 		smlabb	r9, r4, r1, r9
 1193 0ef0 8E7404E1 		smlabb	r4, lr, r4, r7
 1194 0ef4 8C8101E1 		smlabb	r1, ip, r1, r8
 1195 0ef8 0470A0E1 		mov	r7, r4
 1196 0efc 08408DE5 		str	r4, [sp, #8]
 1197 0f00 8E5C05E1 		smlabb	r5, lr, ip, r5
 1198 0f04 0180A0E1 		mov	r8, r1
 1199 0f08 0C108DE5 		str	r1, [sp, #12]
 1200 0f0c 08E082E2 		add	lr, r2, #8
 1201 0f10 7D0000DA 		ble	.L30
 1202 0f14 60119DE5 		ldr	r1, [sp, #352]
 1203 0f18 09C080E2 		add	ip, r0, #9
 1204 0f1c D14096E1 		ldrsb	r4, [r6, r1]
 1205 0f20 096083E2 		add	r6, r3, #9
 1206 0f24 D1109EE1 		ldrsb	r1, [lr, r1]
 1207 0f28 60E19DE5 		ldr	lr, [sp, #352]
 1208 0f2c 0C005EE1 		cmp	lr, ip
 1209 0f30 D8E0D2E1 		ldrsb	lr, [r2, #8]
 1210 0f34 D8C0D3E1 		ldrsb	ip, [r3, #8]
 1211 0f38 849109E1 		smlabb	r9, r4, r1, r9
 1212 0f3c 8E7404E1 		smlabb	r4, lr, r4, r7
 1213 0f40 8C8101E1 		smlabb	r1, ip, r1, r8
 1214 0f44 0470A0E1 		mov	r7, r4
 1215 0f48 08408DE5 		str	r4, [sp, #8]
 1216 0f4c 8E5C05E1 		smlabb	r5, lr, ip, r5
 1217 0f50 0180A0E1 		mov	r8, r1
 1218 0f54 0C108DE5 		str	r1, [sp, #12]
 1219 0f58 09E082E2 		add	lr, r2, #9
 1220 0f5c 6A0000DA 		ble	.L30
 1221 0f60 60119DE5 		ldr	r1, [sp, #352]
 1222 0f64 0AC080E2 		add	ip, r0, #10
 1223 0f68 D14096E1 		ldrsb	r4, [r6, r1]
 1224 0f6c 0A6083E2 		add	r6, r3, #10
 1225 0f70 D1109EE1 		ldrsb	r1, [lr, r1]
 1226 0f74 60E19DE5 		ldr	lr, [sp, #352]
 1227 0f78 0C005EE1 		cmp	lr, ip
 1228 0f7c D9E0D2E1 		ldrsb	lr, [r2, #9]
 1229 0f80 D9C0D3E1 		ldrsb	ip, [r3, #9]
 1230 0f84 849109E1 		smlabb	r9, r4, r1, r9
 1231 0f88 8E7404E1 		smlabb	r4, lr, r4, r7
 1232 0f8c 8C8101E1 		smlabb	r1, ip, r1, r8
 1233 0f90 0470A0E1 		mov	r7, r4
 1234 0f94 08408DE5 		str	r4, [sp, #8]
 1235 0f98 8E5C05E1 		smlabb	r5, lr, ip, r5
 1236 0f9c 0180A0E1 		mov	r8, r1
 1237 0fa0 0C108DE5 		str	r1, [sp, #12]
 1238 0fa4 0AE082E2 		add	lr, r2, #10
 1239 0fa8 570000DA 		ble	.L30
 1240 0fac 60119DE5 		ldr	r1, [sp, #352]
 1241 0fb0 0BC080E2 		add	ip, r0, #11
 1242 0fb4 D14096E1 		ldrsb	r4, [r6, r1]
 1243 0fb8 0B6083E2 		add	r6, r3, #11
 1244 0fbc D1109EE1 		ldrsb	r1, [lr, r1]
 1245 0fc0 60E19DE5 		ldr	lr, [sp, #352]
 1246 0fc4 0C005EE1 		cmp	lr, ip
 1247 0fc8 DAE0D2E1 		ldrsb	lr, [r2, #10]
 1248 0fcc DAC0D3E1 		ldrsb	ip, [r3, #10]
 1249 0fd0 849109E1 		smlabb	r9, r4, r1, r9
 1250 0fd4 8E7404E1 		smlabb	r4, lr, r4, r7
 1251 0fd8 8C8101E1 		smlabb	r1, ip, r1, r8
 1252 0fdc 0470A0E1 		mov	r7, r4
 1253 0fe0 08408DE5 		str	r4, [sp, #8]
 1254 0fe4 8E5C05E1 		smlabb	r5, lr, ip, r5
 1255 0fe8 0180A0E1 		mov	r8, r1
 1256 0fec 0C108DE5 		str	r1, [sp, #12]
 1257 0ff0 0BE082E2 		add	lr, r2, #11
 1258 0ff4 440000DA 		ble	.L30
 1259 0ff8 60119DE5 		ldr	r1, [sp, #352]
 1260 0ffc 0CC080E2 		add	ip, r0, #12
 1261 1000 D14096E1 		ldrsb	r4, [r6, r1]
 1262 1004 0C6083E2 		add	r6, r3, #12
 1263 1008 D1109EE1 		ldrsb	r1, [lr, r1]
 1264 100c 60E19DE5 		ldr	lr, [sp, #352]
 1265 1010 0C005EE1 		cmp	lr, ip
 1266 1014 DBE0D2E1 		ldrsb	lr, [r2, #11]
 1267 1018 DBC0D3E1 		ldrsb	ip, [r3, #11]
 1268 101c 849109E1 		smlabb	r9, r4, r1, r9
 1269 1020 8E7404E1 		smlabb	r4, lr, r4, r7
 1270 1024 8C8101E1 		smlabb	r1, ip, r1, r8
 1271 1028 0470A0E1 		mov	r7, r4
 1272 102c 08408DE5 		str	r4, [sp, #8]
 1273 1030 8E5C05E1 		smlabb	r5, lr, ip, r5
 1274 1034 0180A0E1 		mov	r8, r1
 1275 1038 0C108DE5 		str	r1, [sp, #12]
 1276 103c 0CE082E2 		add	lr, r2, #12
 1277 1040 310000DA 		ble	.L30
 1278 1044 60119DE5 		ldr	r1, [sp, #352]
 1279 1048 0DC080E2 		add	ip, r0, #13
 1280 104c D14096E1 		ldrsb	r4, [r6, r1]
 1281 1050 0D6083E2 		add	r6, r3, #13
 1282 1054 D1109EE1 		ldrsb	r1, [lr, r1]
 1283 1058 60E19DE5 		ldr	lr, [sp, #352]
 1284 105c 0C005EE1 		cmp	lr, ip
 1285 1060 DCE0D2E1 		ldrsb	lr, [r2, #12]
 1286 1064 DCC0D3E1 		ldrsb	ip, [r3, #12]
 1287 1068 849109E1 		smlabb	r9, r4, r1, r9
 1288 106c 8E7404E1 		smlabb	r4, lr, r4, r7
 1289 1070 8C8101E1 		smlabb	r1, ip, r1, r8
 1290 1074 0470A0E1 		mov	r7, r4
 1291 1078 08408DE5 		str	r4, [sp, #8]
 1292 107c 8E5C05E1 		smlabb	r5, lr, ip, r5
 1293 1080 0180A0E1 		mov	r8, r1
 1294 1084 0C108DE5 		str	r1, [sp, #12]
 1295 1088 0DE082E2 		add	lr, r2, #13
 1296 108c 1E0000DA 		ble	.L30
 1297 1090 60119DE5 		ldr	r1, [sp, #352]
 1298 1094 0E0080E2 		add	r0, r0, #14
 1299 1098 0E4083E2 		add	r4, r3, #14
 1300 109c D1C096E1 		ldrsb	ip, [r6, r1]
 1301 10a0 D1109EE1 		ldrsb	r1, [lr, r1]
 1302 10a4 60E19DE5 		ldr	lr, [sp, #352]
 1303 10a8 00005EE1 		cmp	lr, r0
 1304 10ac DDE0D2E1 		ldrsb	lr, [r2, #13]
 1305 10b0 DD00D3E1 		ldrsb	r0, [r3, #13]
 1306 10b4 8C9109E1 		smlabb	r9, ip, r1, r9
 1307 10b8 8E7C0CE1 		smlabb	ip, lr, ip, r7
 1308 10bc 808101E1 		smlabb	r1, r0, r1, r8
 1309 10c0 08C08DE5 		str	ip, [sp, #8]
 1310 10c4 0EC082E2 		add	ip, r2, #14
 1311 10c8 8E5005E1 		smlabb	r5, lr, r0, r5
 1312 10cc 0C108DE5 		str	r1, [sp, #12]
 1313 10d0 0D0000DA 		ble	.L30
 1314 10d4 60119DE5 		ldr	r1, [sp, #352]
 1315 10d8 60019DE5 		ldr	r0, [sp, #352]
 1316 10dc DE30D3E1 		ldrsb	r3, [r3, #14]
 1317 10e0 D11094E1 		ldrsb	r1, [r4, r1]
 1318 10e4 D0009CE1 		ldrsb	r0, [ip, r0]
 1319 10e8 DE20D2E1 		ldrsb	r2, [r2, #14]
 1320 10ec 08C09DE5 		ldr	ip, [sp, #8]
 1321 10f0 809109E1 		smlabb	r9, r0, r1, r9
 1322 10f4 835205E1 		smlabb	r5, r3, r2, r5
 1323 10f8 81C202E1 		smlabb	r2, r1, r2, ip
 1324 10fc 08208DE5 		str	r2, [sp, #8]
 1325 1100 0C209DE5 		ldr	r2, [sp, #12]
 1326 1104 802303E1 		smlabb	r3, r0, r3, r2
 1327 1108 0C308DE5 		str	r3, [sp, #12]
 1328              	.L30:
 1329 110c 28309DE5 		ldr	r3, [sp, #40]
 1330 1110 0B3083E0 		add	r3, r3, fp
 1331 1114 28308DE5 		str	r3, [sp, #40]
 1332              	.L19:
 1333 1118 58309DE5 		ldr	r3, [sp, #88]
 1334 111c 0C2013E5 		ldr	r2, [r3, #-12]
 1335 1120 0131A0E3 		mov	r3, #1073741824
 1336 1124 30308DE5 		str	r3, [sp, #48]
 1337 1128 54309DE5 		ldr	r3, [sp, #84]
 1338 112c C2BFC2E1 		bic	fp, r2, r2, asr #31
 1339 1130 0CE013E5 		ldr	lr, [r3, #-12]
 1340 1134 0030A0E3 		mov	r3, #0
 1341 1138 34308DE5 		str	r3, [sp, #52]
 1342 113c 155BA0E1 		lsl	r5, r5, fp
 1343 1140 D003CDE1 		ldrd	r0, [sp, #48]
 1344 1144 030052E1 		cmp	r2, r3
 1345 1148 9E05E1E0 		smlal	r0, r1, lr, r5
 1346 114c A00FA0E1 		lsr	r0, r0, #31
 1347 1150 810080E1 		orr	r0, r0, r1, lsl #1
 1348 1154 00A0A0E1 		mov	r10, r0
 1349 1158 620300DA 		ble	.L161
 1350 115c D023CDE1 		ldrd	r2, [sp, #48]
 1351 1160 0370A0E1 		mov	r7, r3
 1352 1164 0320A0E1 		mov	r2, r3
 1353 1168 04308DE5 		str	r3, [sp, #4]
 1354              	.L31:
 1355 116c 0111A0E3 		mov	r1, #1073741824
 1356 1170 58309DE5 		ldr	r3, [sp, #88]
 1357 1174 38108DE5 		str	r1, [sp, #56]
 1358 1178 54109DE5 		ldr	r1, [sp, #84]
 1359 117c 083013E5 		ldr	r3, [r3, #-8]
 1360 1180 08C011E5 		ldr	ip, [r1, #-8]
 1361 1184 0010A0E3 		mov	r1, #0
 1362 1188 3C108DE5 		str	r1, [sp, #60]
 1363 118c 000053E3 		cmp	r3, #0
 1364 1190 08109DE5 		ldr	r1, [sp, #8]
 1365 1194 C38FC3E1 		bic	r8, r3, r3, asr #31
 1366 1198 D843CDE1 		ldrd	r4, [sp, #56]
 1367 119c 1118A0E1 		lsl	r1, r1, r8
 1368 11a0 9C41E5E0 		smlal	r4, r5, ip, r1
 1369 11a4 A44FA0E1 		lsr	r4, r4, #31
 1370 11a8 854084E1 		orr	r4, r4, r5, lsl #1
 1371 11ac 0410A0E1 		mov	r1, r4
 1372 11b0 410300DA 		ble	.L162
 1373 11b4 D843CDE1 		ldrd	r4, [sp, #56]
 1374 11b8 0560A0E1 		mov	r6, r5
 1375 11bc 0500A0E1 		mov	r0, r5
 1376 11c0 0530A0E1 		mov	r3, r5
 1377              	.L33:
 1378 11c4 0141A0E3 		mov	r4, #1073741824
 1379 11c8 1988A0E1 		lsl	r8, r9, r8
 1380 11cc 40408DE5 		str	r4, [sp, #64]
 1381 11d0 0C409DE5 		ldr	r4, [sp, #12]
 1382 11d4 14BBA0E1 		lsl	fp, r4, fp
 1383 11d8 0040A0E3 		mov	r4, #0
 1384 11dc 44408DE5 		str	r4, [sp, #68]
 1385 11e0 D044CDE1 		ldrd	r4, [sp, #64]
 1386 11e4 9E4BE5E0 		smlal	r4, r5, lr, fp
 1387 11e8 A44FA0E1 		lsr	r4, r4, #31
 1388 11ec 854084E1 		orr	r4, r4, r5, lsl #1
 1389 11f0 5422B0E1 		asrs	r2, r4, r2
 1390 11f4 074004E0 		and	r4, r4, r7
 1391 11f8 04E09D45 		ldrmi	lr, [sp, #4]
 1392 11fc 01E08E42 		addmi	lr, lr, #1
 1393 1200 04E08D45 		strmi	lr, [sp, #4]
 1394 1204 04E09DE5 		ldr	lr, [sp, #4]
 1395 1208 0E0054E1 		cmp	r4, lr
 1396 120c 01E1A0E3 		mov	lr, #1073741824
 1397 1210 48E08DE5 		str	lr, [sp, #72]
 1398 1214 00E0A0E3 		mov	lr, #0
 1399 1218 4CE08DE5 		str	lr, [sp, #76]
 1400 121c 012082C2 		addgt	r2, r2, #1
 1401 1220 D844CDE1 		ldrd	r4, [sp, #72]
 1402 1224 9C48E5E0 		smlal	r4, r5, ip, r8
 1403 1228 60C19DE5 		ldr	ip, [sp, #352]
 1404 122c A44FA0E1 		lsr	r4, r4, #31
 1405 1230 854084E1 		orr	r4, r4, r5, lsl #1
 1406 1234 5433B0E1 		asrs	r3, r4, r3
 1407 1238 040000E0 		and	r0, r0, r4
 1408 123c 01608642 		addmi	r6, r6, #1
 1409 1240 060050E1 		cmp	r0, r6
 1410 1244 68019DE5 		ldr	r0, [sp, #360]
 1411 1248 013083C2 		addgt	r3, r3, #1
 1412 124c 011080E0 		add	r1, r0, r1
 1413 1250 0AA080E0 		add	r10, r0, r10
 1414 1254 6C019DE5 		ldr	r0, [sp, #364]
 1415 1258 00005AE1 		cmp	r10, r0
 1416 125c 68019DE5 		ldr	r0, [sp, #360]
 1417 1260 022080E0 		add	r2, r0, r2
 1418 1264 6C019DE5 		ldr	r0, [sp, #364]
 1419 1268 00A0A0B1 		movlt	r10, r0
 1420 126c 000051E1 		cmp	r1, r0
 1421 1270 0010A0B1 		movlt	r1, r0
 1422 1274 68019DE5 		ldr	r0, [sp, #360]
 1423 1278 033080E0 		add	r3, r0, r3
 1424 127c 6C019DE5 		ldr	r0, [sp, #364]
 1425 1280 000052E1 		cmp	r2, r0
 1426 1284 28009DE5 		ldr	r0, [sp, #40]
 1427 1288 0C0080E0 		add	r0, r0, ip
 1428 128c 78C09DE5 		ldr	ip, [sp, #120]
 1429 1290 28008DE5 		str	r0, [sp, #40]
 1430 1294 6C019DE5 		ldr	r0, [sp, #364]
 1431 1298 0020A0B1 		movlt	r2, r0
 1432 129c 000053E1 		cmp	r3, r0
 1433 12a0 0030A0B1 		movlt	r3, r0
 1434 12a4 70019DE5 		ldr	r0, [sp, #368]
 1435 12a8 00005AE1 		cmp	r10, r0
 1436 12ac 00A0A0A1 		movge	r10, r0
 1437 12b0 010050E1 		cmp	r0, r1
 1438 12b4 0010A0B1 		movlt	r1, r0
 1439 12b8 020050E1 		cmp	r0, r2
 1440 12bc 0020A0B1 		movlt	r2, r0
 1441 12c0 030050E1 		cmp	r0, r3
 1442 12c4 0030A0B1 		movlt	r3, r0
 1443 12c8 60009DE5 		ldr	r0, [sp, #96]
 1444 12cc 010050E2 		subs	r0, r0, #1
 1445 12d0 60008DE5 		str	r0, [sp, #96]
 1446 12d4 5C009DE5 		ldr	r0, [sp, #92]
 1447 12d8 0110C0E5 		strb	r1, [r0, #1]
 1448 12dc 0C1080E0 		add	r1, r0, ip
 1449 12e0 5C108DE5 		str	r1, [sp, #92]
 1450 12e4 64109DE5 		ldr	r1, [sp, #100]
 1451 12e8 00A0C0E5 		strb	r10, [r0]
 1452 12ec 0130C1E5 		strb	r3, [r1, #1]
 1453 12f0 0C3081E0 		add	r3, r1, ip
 1454 12f4 0020C1E5 		strb	r2, [r1]
 1455 12f8 64308DE5 		str	r3, [sp, #100]
 1456 12fc 9AFCFF1A 		bne	.L17
 1457 1300 C0309DE5 		ldr	r3, [sp, #192]
 1458 1304 88209DE5 		ldr	r2, [sp, #136]
 1459 1308 023083E0 		add	r3, r3, r2
 1460 130c 5C308DE5 		str	r3, [sp, #92]
 1461              	.L16:
 1462 1310 BC309DE5 		ldr	r3, [sp, #188]
 1463 1314 000053E3 		cmp	r3, #0
 1464 1318 2702000A 		beq	.L40
 1465 131c 2C309DE5 		ldr	r3, [sp, #44]
 1466 1320 000053E3 		cmp	r3, #0
 1467 1324 FE0300DA 		ble	.L90
 1468 1328 CC309DE5 		ldr	r3, [sp, #204]
 1469 132c 28209DE5 		ldr	r2, [sp, #40]
 1470 1330 8C809DE5 		ldr	r8, [sp, #140]
 1471 1334 143083E2 		add	r3, r3, #20
 1472 1338 50709DE5 		ldr	r7, [sp, #80]
 1473 133c 68A09DE5 		ldr	r10, [sp, #104]
 1474 1340 033082E0 		add	r3, r2, r3
 1475 1344 6C409DE5 		ldr	r4, [sp, #108]
 1476 1348 046082E2 		add	r6, r2, #4
 1477 134c 0390A0E1 		mov	r9, r3
 1478              	.L42:
 1479 1350 0710A0E1 		mov	r1, r7
 1480 1354 0420A0E3 		mov	r2, #4
 1481 1358 E4008DE2 		add	r0, sp, #228
 1482 135c FEFFFFEB 		bl	memcpy
 1483 1360 0810A0E1 		mov	r1, r8
 1484 1364 0420A0E3 		mov	r2, #4
 1485 1368 E4008DE2 		add	r0, sp, #228
 1486 136c E4B09DE5 		ldr	fp, [sp, #228]
 1487 1370 FEFFFFEB 		bl	memcpy
 1488 1374 041046E2 		sub	r1, r6, #4
 1489 1378 0420A0E3 		mov	r2, #4
 1490 137c E4008DE2 		add	r0, sp, #228
 1491 1380 E4509DE5 		ldr	r5, [sp, #228]
 1492 1384 FEFFFFEB 		bl	memcpy
 1493 1388 E4209DE5 		ldr	r2, [sp, #228]
 1494              		.syntax divided
 1495              	@ 1983 "C:/Renesas/e2studio_2021_01_workspace_RZA2M_ANPR/ANPR_RZA2M_EBK/src/tensorflow_lite/third_p
 1496 138c 7B108FE6 		sxtb16 r1, fp
 1497              	@ 0 "" 2
 1498              	@ 1983 "C:/Renesas/e2studio_2021_01_workspace_RZA2M_ANPR/ANPR_RZA2M_EBK/src/tensorflow_lite/third_p
 1499 1390 75008FE6 		sxtb16 r0, r5
 1500              	@ 0 "" 2
 1501              	@ 1983 "C:/Renesas/e2studio_2021_01_workspace_RZA2M_ANPR/ANPR_RZA2M_EBK/src/tensorflow_lite/third_p
 1502 1394 72308FE6 		sxtb16 r3, r2
 1503              	@ 0 "" 2
 1504              	@ 1991 "C:/Renesas/e2studio_2021_01_workspace_RZA2M_ANPR/ANPR_RZA2M_EBK/src/tensorflow_lite/third_p
 1505 1398 7BB48FE6 		sxtb16 fp, fp, ROR #8
 1506              	@ 0 "" 2
 1507              	@ 1991 "C:/Renesas/e2studio_2021_01_workspace_RZA2M_ANPR/ANPR_RZA2M_EBK/src/tensorflow_lite/third_p
 1508 139c 72248FE6 		sxtb16 r2, r2, ROR #8
 1509              	@ 0 "" 2
 1510              	@ 1991 "C:/Renesas/e2studio_2021_01_workspace_RZA2M_ANPR/ANPR_RZA2M_EBK/src/tensorflow_lite/third_p
 1511 13a0 75548FE6 		sxtb16 r5, r5, ROR #8
 1512              	@ 0 "" 2
 1513              	@ 2038 "C:/Renesas/e2studio_2021_01_workspace_RZA2M_ANPR/ANPR_RZA2M_EBK/src/tensorflow_lite/third_p
 1514 13a4 13A10AE7 		smlad r10, r3, r1, r10
 1515              	@ 0 "" 2
 1516              	@ 2038 "C:/Renesas/e2studio_2021_01_workspace_RZA2M_ANPR/ANPR_RZA2M_EBK/src/tensorflow_lite/third_p
 1517 13a8 12AB0BE7 		smlad fp, r2, fp, r10
 1518              	@ 0 "" 2
 1519              	@ 2038 "C:/Renesas/e2studio_2021_01_workspace_RZA2M_ANPR/ANPR_RZA2M_EBK/src/tensorflow_lite/third_p
 1520 13ac 134003E7 		smlad r3, r3, r0, r4
 1521              	@ 0 "" 2
 1522              	@ 2038 "C:/Renesas/e2studio_2021_01_workspace_RZA2M_ANPR/ANPR_RZA2M_EBK/src/tensorflow_lite/third_p
 1523 13b0 123505E7 		smlad r5, r2, r5, r3
 1524              	@ 0 "" 2
 1525              		.arm
 1526              		.syntax unified
 1527 13b4 0420A0E3 		mov	r2, #4
 1528 13b8 E4008DE2 		add	r0, sp, #228
 1529 13bc 021087E0 		add	r1, r7, r2
 1530 13c0 FEFFFFEB 		bl	memcpy
 1531 13c4 041088E2 		add	r1, r8, #4
 1532 13c8 E4008DE2 		add	r0, sp, #228
 1533 13cc 0420A0E3 		mov	r2, #4
 1534 13d0 E4A09DE5 		ldr	r10, [sp, #228]
 1535 13d4 FEFFFFEB 		bl	memcpy
 1536 13d8 0610A0E1 		mov	r1, r6
 1537 13dc E4008DE2 		add	r0, sp, #228
 1538 13e0 0420A0E3 		mov	r2, #4
 1539 13e4 E4409DE5 		ldr	r4, [sp, #228]
 1540 13e8 FEFFFFEB 		bl	memcpy
 1541 13ec E4309DE5 		ldr	r3, [sp, #228]
 1542              		.syntax divided
 1543              	@ 1983 "C:/Renesas/e2studio_2021_01_workspace_RZA2M_ANPR/ANPR_RZA2M_EBK/src/tensorflow_lite/third_p
 1544 13f0 7A108FE6 		sxtb16 r1, r10
 1545              	@ 0 "" 2
 1546              	@ 1983 "C:/Renesas/e2studio_2021_01_workspace_RZA2M_ANPR/ANPR_RZA2M_EBK/src/tensorflow_lite/third_p
 1547 13f4 74008FE6 		sxtb16 r0, r4
 1548              	@ 0 "" 2
 1549              	@ 1983 "C:/Renesas/e2studio_2021_01_workspace_RZA2M_ANPR/ANPR_RZA2M_EBK/src/tensorflow_lite/third_p
 1550 13f8 73208FE6 		sxtb16 r2, r3
 1551              	@ 0 "" 2
 1552              	@ 1991 "C:/Renesas/e2studio_2021_01_workspace_RZA2M_ANPR/ANPR_RZA2M_EBK/src/tensorflow_lite/third_p
 1553 13fc 7AA48FE6 		sxtb16 r10, r10, ROR #8
 1554              	@ 0 "" 2
 1555              	@ 1991 "C:/Renesas/e2studio_2021_01_workspace_RZA2M_ANPR/ANPR_RZA2M_EBK/src/tensorflow_lite/third_p
 1556 1400 73348FE6 		sxtb16 r3, r3, ROR #8
 1557              	@ 0 "" 2
 1558              	@ 1991 "C:/Renesas/e2studio_2021_01_workspace_RZA2M_ANPR/ANPR_RZA2M_EBK/src/tensorflow_lite/third_p
 1559 1404 74448FE6 		sxtb16 r4, r4, ROR #8
 1560              	@ 0 "" 2
 1561              	@ 2038 "C:/Renesas/e2studio_2021_01_workspace_RZA2M_ANPR/ANPR_RZA2M_EBK/src/tensorflow_lite/third_p
 1562 1408 12B10BE7 		smlad fp, r2, r1, fp
 1563              	@ 0 "" 2
 1564              	@ 2038 "C:/Renesas/e2studio_2021_01_workspace_RZA2M_ANPR/ANPR_RZA2M_EBK/src/tensorflow_lite/third_p
 1565 140c 13BA0AE7 		smlad r10, r3, r10, fp
 1566              	@ 0 "" 2
 1567              	@ 2038 "C:/Renesas/e2studio_2021_01_workspace_RZA2M_ANPR/ANPR_RZA2M_EBK/src/tensorflow_lite/third_p
 1568 1410 125002E7 		smlad r2, r2, r0, r5
 1569              	@ 0 "" 2
 1570              	@ 2038 "C:/Renesas/e2studio_2021_01_workspace_RZA2M_ANPR/ANPR_RZA2M_EBK/src/tensorflow_lite/third_p
 1571 1414 132404E7 		smlad r4, r3, r4, r2
 1572              	@ 0 "" 2
 1573              		.arm
 1574              		.syntax unified
 1575 1418 0420A0E3 		mov	r2, #4
 1576 141c 081087E2 		add	r1, r7, #8
 1577 1420 E4008DE2 		add	r0, sp, #228
 1578 1424 FEFFFFEB 		bl	memcpy
 1579 1428 081088E2 		add	r1, r8, #8
 1580 142c E4008DE2 		add	r0, sp, #228
 1581 1430 0420A0E3 		mov	r2, #4
 1582 1434 E4B09DE5 		ldr	fp, [sp, #228]
 1583 1438 FEFFFFEB 		bl	memcpy
 1584 143c 041086E2 		add	r1, r6, #4
 1585 1440 E4008DE2 		add	r0, sp, #228
 1586 1444 0420A0E3 		mov	r2, #4
 1587 1448 E4509DE5 		ldr	r5, [sp, #228]
 1588 144c FEFFFFEB 		bl	memcpy
 1589 1450 E4309DE5 		ldr	r3, [sp, #228]
 1590              		.syntax divided
 1591              	@ 1983 "C:/Renesas/e2studio_2021_01_workspace_RZA2M_ANPR/ANPR_RZA2M_EBK/src/tensorflow_lite/third_p
 1592 1454 7B108FE6 		sxtb16 r1, fp
 1593              	@ 0 "" 2
 1594              	@ 1983 "C:/Renesas/e2studio_2021_01_workspace_RZA2M_ANPR/ANPR_RZA2M_EBK/src/tensorflow_lite/third_p
 1595 1458 75008FE6 		sxtb16 r0, r5
 1596              	@ 0 "" 2
 1597              	@ 1983 "C:/Renesas/e2studio_2021_01_workspace_RZA2M_ANPR/ANPR_RZA2M_EBK/src/tensorflow_lite/third_p
 1598 145c 73208FE6 		sxtb16 r2, r3
 1599              	@ 0 "" 2
 1600              	@ 1991 "C:/Renesas/e2studio_2021_01_workspace_RZA2M_ANPR/ANPR_RZA2M_EBK/src/tensorflow_lite/third_p
 1601 1460 7BB48FE6 		sxtb16 fp, fp, ROR #8
 1602              	@ 0 "" 2
 1603              	@ 1991 "C:/Renesas/e2studio_2021_01_workspace_RZA2M_ANPR/ANPR_RZA2M_EBK/src/tensorflow_lite/third_p
 1604 1464 73348FE6 		sxtb16 r3, r3, ROR #8
 1605              	@ 0 "" 2
 1606              	@ 1991 "C:/Renesas/e2studio_2021_01_workspace_RZA2M_ANPR/ANPR_RZA2M_EBK/src/tensorflow_lite/third_p
 1607 1468 75548FE6 		sxtb16 r5, r5, ROR #8
 1608              	@ 0 "" 2
 1609              	@ 2038 "C:/Renesas/e2studio_2021_01_workspace_RZA2M_ANPR/ANPR_RZA2M_EBK/src/tensorflow_lite/third_p
 1610 146c 12A10AE7 		smlad r10, r2, r1, r10
 1611              	@ 0 "" 2
 1612              	@ 2038 "C:/Renesas/e2studio_2021_01_workspace_RZA2M_ANPR/ANPR_RZA2M_EBK/src/tensorflow_lite/third_p
 1613 1470 13AB0BE7 		smlad fp, r3, fp, r10
 1614              	@ 0 "" 2
 1615              	@ 2038 "C:/Renesas/e2studio_2021_01_workspace_RZA2M_ANPR/ANPR_RZA2M_EBK/src/tensorflow_lite/third_p
 1616 1474 124004E7 		smlad r4, r2, r0, r4
 1617              	@ 0 "" 2
 1618              	@ 2038 "C:/Renesas/e2studio_2021_01_workspace_RZA2M_ANPR/ANPR_RZA2M_EBK/src/tensorflow_lite/third_p
 1619 1478 134505E7 		smlad r5, r3, r5, r4
 1620              	@ 0 "" 2
 1621              		.arm
 1622              		.syntax unified
 1623 147c 0420A0E3 		mov	r2, #4
 1624 1480 0C1087E2 		add	r1, r7, #12
 1625 1484 E4008DE2 		add	r0, sp, #228
 1626 1488 107087E2 		add	r7, r7, #16
 1627 148c FEFFFFEB 		bl	memcpy
 1628 1490 0C1088E2 		add	r1, r8, #12
 1629 1494 E4008DE2 		add	r0, sp, #228
 1630 1498 0420A0E3 		mov	r2, #4
 1631 149c E4A09DE5 		ldr	r10, [sp, #228]
 1632 14a0 FEFFFFEB 		bl	memcpy
 1633 14a4 081086E2 		add	r1, r6, #8
 1634 14a8 E4008DE2 		add	r0, sp, #228
 1635 14ac 0420A0E3 		mov	r2, #4
 1636 14b0 E4409DE5 		ldr	r4, [sp, #228]
 1637 14b4 FEFFFFEB 		bl	memcpy
 1638 14b8 E4309DE5 		ldr	r3, [sp, #228]
 1639              		.syntax divided
 1640              	@ 1983 "C:/Renesas/e2studio_2021_01_workspace_RZA2M_ANPR/ANPR_RZA2M_EBK/src/tensorflow_lite/third_p
 1641 14bc 7A108FE6 		sxtb16 r1, r10
 1642              	@ 0 "" 2
 1643              	@ 1983 "C:/Renesas/e2studio_2021_01_workspace_RZA2M_ANPR/ANPR_RZA2M_EBK/src/tensorflow_lite/third_p
 1644 14c0 74008FE6 		sxtb16 r0, r4
 1645              	@ 0 "" 2
 1646              	@ 1983 "C:/Renesas/e2studio_2021_01_workspace_RZA2M_ANPR/ANPR_RZA2M_EBK/src/tensorflow_lite/third_p
 1647 14c4 73208FE6 		sxtb16 r2, r3
 1648              	@ 0 "" 2
 1649              	@ 1991 "C:/Renesas/e2studio_2021_01_workspace_RZA2M_ANPR/ANPR_RZA2M_EBK/src/tensorflow_lite/third_p
 1650 14c8 7AA48FE6 		sxtb16 r10, r10, ROR #8
 1651              	@ 0 "" 2
 1652              	@ 1991 "C:/Renesas/e2studio_2021_01_workspace_RZA2M_ANPR/ANPR_RZA2M_EBK/src/tensorflow_lite/third_p
 1653 14cc 73348FE6 		sxtb16 r3, r3, ROR #8
 1654              	@ 0 "" 2
 1655              	@ 1991 "C:/Renesas/e2studio_2021_01_workspace_RZA2M_ANPR/ANPR_RZA2M_EBK/src/tensorflow_lite/third_p
 1656 14d0 74448FE6 		sxtb16 r4, r4, ROR #8
 1657              	@ 0 "" 2
 1658              	@ 2038 "C:/Renesas/e2studio_2021_01_workspace_RZA2M_ANPR/ANPR_RZA2M_EBK/src/tensorflow_lite/third_p
 1659 14d4 12B10BE7 		smlad fp, r2, r1, fp
 1660              	@ 0 "" 2
 1661              	@ 2038 "C:/Renesas/e2studio_2021_01_workspace_RZA2M_ANPR/ANPR_RZA2M_EBK/src/tensorflow_lite/third_p
 1662 14d8 13BA0AE7 		smlad r10, r3, r10, fp
 1663              	@ 0 "" 2
 1664              	@ 2038 "C:/Renesas/e2studio_2021_01_workspace_RZA2M_ANPR/ANPR_RZA2M_EBK/src/tensorflow_lite/third_p
 1665 14dc 125005E7 		smlad r5, r2, r0, r5
 1666              	@ 0 "" 2
 1667              	@ 2038 "C:/Renesas/e2studio_2021_01_workspace_RZA2M_ANPR/ANPR_RZA2M_EBK/src/tensorflow_lite/third_p
 1668 14e0 135404E7 		smlad r4, r3, r4, r5
 1669              	@ 0 "" 2
 1670              		.arm
 1671              		.syntax unified
 1672 14e4 106086E2 		add	r6, r6, #16
 1673 14e8 108088E2 		add	r8, r8, #16
 1674 14ec 090056E1 		cmp	r6, r9
 1675 14f0 96FFFF1A 		bne	.L42
 1676 14f4 28209DE5 		ldr	r2, [sp, #40]
 1677 14f8 80309DE5 		ldr	r3, [sp, #128]
 1678 14fc 7C109DE5 		ldr	r1, [sp, #124]
 1679 1500 68A08DE5 		str	r10, [sp, #104]
 1680 1504 032082E0 		add	r2, r2, r3
 1681 1508 6C408DE5 		str	r4, [sp, #108]
 1682 150c 28208DE5 		str	r2, [sp, #40]
 1683 1510 50209DE5 		ldr	r2, [sp, #80]
 1684 1514 033082E0 		add	r3, r2, r3
 1685              	.L41:
 1686 1518 60219DE5 		ldr	r2, [sp, #352]
 1687 151c 010052E1 		cmp	r2, r1
 1688 1520 6F0100DA 		ble	.L43
 1689 1524 28E09DE5 		ldr	lr, [sp, #40]
 1690 1528 02C0A0E1 		mov	ip, r2
 1691 152c 022083E0 		add	r2, r3, r2
 1692 1530 01404CE0 		sub	r4, ip, r1
 1693 1534 0F0054E3 		cmp	r4, #15
 1694 1538 03008EE1 		orr	r0, lr, r3
 1695 153c 00C0A093 		movls	ip, #0
 1696 1540 000082E1 		orr	r0, r2, r0
 1697 1544 01C0A083 		movhi	ip, #1
 1698 1548 5000E3E7 		ubfx	r0, r0, #0, #4
 1699 154c 000050E3 		cmp	r0, #0
 1700 1550 00C0A013 		movne	ip, #0
 1701 1554 00005CE3 		cmp	ip, #0
 1702 1558 5C03000A 		beq	.L44
 1703 155c 84C09DE5 		ldr	ip, [sp, #132]
 1704 1560 100044E2 		sub	r0, r4, #16
 1705 1564 2002A0E1 		lsr	r0, r0, #4
 1706 1568 01C04CE0 		sub	ip, ip, r1
 1707 156c 017080E2 		add	r7, r0, #1
 1708 1570 0E005CE3 		cmp	ip, #14
 1709 1574 0752A0E1 		lsl	r5, r7, #4
 1710 1578 7B00009A 		bls	.L45
 1711 157c 020040E2 		sub	r0, r0, #2
 1712 1580 040070E3 		cmn	r0, #4
 1713 1584 6E03008A 		bhi	.L91
 1714 1588 5020C0F2 		vmov.i32	q9, #0  @ v4si
 1715 158c 0100C0E3 		bic	r0, r0, #1
 1716 1590 026080E2 		add	r6, r0, #2
 1717 1594 20C08EE2 		add	ip, lr, #32
 1718 1598 202082E2 		add	r2, r2, #32
 1719 159c 200083E2 		add	r0, r3, #32
 1720 15a0 F22122F2 		vmov	q1, q9  @ v4si
 1721 15a4 00E0A0E3 		mov	lr, #0
 1722              	.L47:
 1723 15a8 084B5CED 		vldr	d20, [ip, #-32]
 1724 15ac 065B5CED 		vldr	d21, [ip, #-24]
 1725 15b0 02E08EE2 		add	lr, lr, #2
 1726 15b4 06005EE1 		cmp	lr, r6
 1727 15b8 50F0D0F5 		pld	[r0, #80]
 1728 15bc 08AB52ED 		vldr	d26, [r2, #-32]
 1729 15c0 06BB52ED 		vldr	d27, [r2, #-24]
 1730 15c4 00A0A0E1 		mov	r10, r0
 1731 15c8 AA6CC4F2 		vmull.s8 q11, d20, d26
 1732 15cc 0290A0E1 		mov	r9, r2
 1733 15d0 080B50ED 		vldr	d16, [r0, #-32]
 1734 15d4 061B50ED 		vldr	d17, [r0, #-24]
 1735 15d8 0C80A0E1 		mov	r8, ip
 1736 15dc A08CC4F2 		vmull.s8 q12, d20, d16
 1737 15e0 200080E2 		add	r0, r0, #32
 1738 15e4 A10CC5F2 		vmull.s8 q8, d21, d17
 1739 15e8 20C08CE2 		add	ip, ip, #32
 1740 15ec AB4CC5F2 		vmull.s8 q10, d21, d27
 1741 15f0 202082E2 		add	r2, r2, #32
 1742 15f4 0CAB5CED 		vldr	d26, [ip, #-48]
 1743 15f8 0ABB5CED 		vldr	d27, [ip, #-40]
 1744 15fc 366A90F2 		vmovl.s16 q3, d22
 1745 1600 0C4B10ED 		vldr	d4, [r0, #-48]
 1746 1604 0A5B10ED 		vldr	d5, [r0, #-40]
 1747 1608 38CAD0F2 		vmovl.s16 q14, d24
 1748 160c 0CEB52ED 		vldr	d30, [r2, #-48]
 1749 1610 0AFB52ED 		vldr	d31, [r2, #-40]
 1750 1614 C2282CF2 		vadd.i32	q1, q14, q1
 1751 1618 622866F2 		vadd.i32	q9, q3, q9
 1752 161c 2ACCC4F2 		vmull.s8 q14, d4, d26
 1753 1620 AA6C8EF2 		vmull.s8 q3, d30, d26
 1754 1624 398AD0F2 		vmovl.s16 q12, d25
 1755 1628 376AD0F2 		vmovl.s16 q11, d23
 1756 162c C28868F2 		vadd.i32	q12, q12, q1
 1757 1630 E26866F2 		vadd.i32	q11, q11, q9
 1758 1634 300A90F2 		vmovl.s16 q0, d16
 1759 1638 342A90F2 		vmovl.s16 q1, d20
 1760 163c 680820F2 		vadd.i32	q0, q0, q12
 1761 1640 662822F2 		vadd.i32	q1, q1, q11
 1762 1644 2B8CC5F2 		vmull.s8 q12, d5, d27
 1763 1648 312AD0F2 		vmovl.s16 q9, d17
 1764 164c ABACCFF2 		vmull.s8 q13, d31, d27
 1765 1650 354AD0F2 		vmovl.s16 q10, d21
 1766 1654 C02862F2 		vadd.i32	q9, q9, q0
 1767 1658 C24864F2 		vadd.i32	q10, q10, q1
 1768 165c 160AD0F2 		vmovl.s16 q8, d6
 1769 1660 3C6AD0F2 		vmovl.s16 q11, d28
 1770 1664 E44860F2 		vadd.i32	q10, q8, q10
 1771 1668 E26866F2 		vadd.i32	q11, q11, q9
 1772 166c 170AD0F2 		vmovl.s16 q8, d7
 1773 1670 3D2AD0F2 		vmovl.s16 q9, d29
 1774 1674 382A90F2 		vmovl.s16 q1, d24
 1775 1678 E62862F2 		vadd.i32	q9, q9, q11
 1776 167c E40860F2 		vadd.i32	q8, q8, q10
 1777 1680 3A6AD0F2 		vmovl.s16 q11, d26
 1778 1684 622822F2 		vadd.i32	q1, q1, q9
 1779 1688 398AD0F2 		vmovl.s16 q12, d25
 1780 168c E02866F2 		vadd.i32	q9, q11, q8
 1781 1690 3BAAD0F2 		vmovl.s16 q13, d27
 1782 1694 C22828F2 		vadd.i32	q1, q12, q1
 1783 1698 E2286AF2 		vadd.i32	q9, q13, q9
 1784 169c C1FFFF1A 		bne	.L47
 1785 16a0 0920A0E1 		mov	r2, r9
 1786 16a4 0A00A0E1 		mov	r0, r10
 1787              	.L51:
 1788 16a8 DF0A68F4 		vld1.64	{d16-d17}, [r8:64]
 1789 16ac 016086E2 		add	r6, r6, #1
 1790 16b0 060057E1 		cmp	r7, r6
 1791 16b4 100080E2 		add	r0, r0, #16
 1792 16b8 DFAA62F4 		vld1.64	{d26-d27}, [r2:64]
 1793 16bc 108088E2 		add	r8, r8, #16
 1794 16c0 A06CCAF2 		vmull.s8 q11, d26, d16
 1795 16c4 102082E2 		add	r2, r2, #16
 1796 16c8 044B50ED 		vldr	d20, [r0, #-16]
 1797 16cc 025B50ED 		vldr	d21, [r0, #-8]
 1798 16d0 A08CC4F2 		vmull.s8 q12, d20, d16
 1799 16d4 A14CC5F2 		vmull.s8 q10, d21, d17
 1800 16d8 A10CCBF2 		vmull.s8 q8, d27, d17
 1801 16dc 36AAD0F2 		vmovl.s16 q13, d22
 1802 16e0 376AD0F2 		vmovl.s16 q11, d23
 1803 16e4 38CAD0F2 		vmovl.s16 q14, d24
 1804 16e8 E2286AF2 		vadd.i32	q9, q13, q9
 1805 16ec C2C86CF2 		vadd.i32	q14, q14, q1
 1806 16f0 398AD0F2 		vmovl.s16 q12, d25
 1807 16f4 34AAD0F2 		vmovl.s16 q13, d20
 1808 16f8 E22866F2 		vadd.i32	q9, q11, q9
 1809 16fc EC8868F2 		vadd.i32	q12, q12, q14
 1810 1700 306AD0F2 		vmovl.s16 q11, d16
 1811 1704 E8886AF2 		vadd.i32	q12, q13, q12
 1812 1708 354AD0F2 		vmovl.s16 q10, d21
 1813 170c E22866F2 		vadd.i32	q9, q11, q9
 1814 1710 310AD0F2 		vmovl.s16 q8, d17
 1815 1714 E82824F2 		vadd.i32	q1, q10, q12
 1816 1718 E22860F2 		vadd.i32	q9, q8, q9
 1817 171c E1FFFF8A 		bhi	.L51
 1818 1720 A32862F2 		vadd.i32	d18, d18, d19
 1819 1724 040055E1 		cmp	r5, r4
 1820 1728 6CC09DE5 		ldr	ip, [sp, #108]
 1821 172c 051081E0 		add	r1, r1, r5
 1822 1730 036862F2 		vadd.i32	d22, d2, d3
 1823 1734 053083E0 		add	r3, r3, r5
 1824 1738 B22B62F2 		vpadd.i32	d18, d18, d18
 1825 173c 28209DE5 		ldr	r2, [sp, #40]
 1826 1740 B66B66F2 		vpadd.i32	d22, d22, d22
 1827 1744 900B12EE 		vmov.32	r0, d18[0]
 1828 1748 00008CE0 		add	r0, ip, r0
 1829 174c 052082E0 		add	r2, r2, r5
 1830 1750 6C008DE5 		str	r0, [sp, #108]
 1831 1754 68009DE5 		ldr	r0, [sp, #104]
 1832 1758 28208DE5 		str	r2, [sp, #40]
 1833 175c 902B16EE 		vmov.32	r2, d22[0]
 1834 1760 022080E0 		add	r2, r0, r2
 1835 1764 68208DE5 		str	r2, [sp, #104]
 1836 1768 DD00000A 		beq	.L43
 1837              	.L45:
 1838 176c 60419DE5 		ldr	r4, [sp, #352]
 1839 1770 012081E2 		add	r2, r1, #1
 1840 1774 28E09DE5 		ldr	lr, [sp, #40]
 1841 1778 D0C0D3E1 		ldrsb	ip, [r3]
 1842 177c 020054E1 		cmp	r4, r2
 1843 1780 D42093E1 		ldrsb	r2, [r3, r4]
 1844 1784 D000DEE1 		ldrsb	r0, [lr]
 1845 1788 68409DE5 		ldr	r4, [sp, #104]
 1846 178c 804C0CE1 		smlabb	ip, r0, ip, r4
 1847 1790 0C50A0E1 		mov	r5, ip
 1848 1794 68C08DE5 		str	ip, [sp, #104]
 1849 1798 6CC09DE5 		ldr	ip, [sp, #108]
 1850 179c 80C202E1 		smlabb	r2, r0, r2, ip
 1851 17a0 0260A0E1 		mov	r6, r2
 1852 17a4 6C208DE5 		str	r2, [sp, #108]
 1853 17a8 CD0000DA 		ble	.L43
 1854 17ac 60219DE5 		ldr	r2, [sp, #352]
 1855 17b0 0E40A0E1 		mov	r4, lr
 1856 17b4 60C19DE5 		ldr	ip, [sp, #352]
 1857 17b8 020083E0 		add	r0, r3, r2
 1858 17bc D120DEE1 		ldrsb	r2, [lr, #1]
 1859 17c0 D1E0D0E1 		ldrsb	lr, [r0, #1]
 1860 17c4 020081E2 		add	r0, r1, #2
 1861 17c8 00005CE1 		cmp	ip, r0
 1862 17cc D1C0D3E1 		ldrsb	ip, [r3, #1]
 1863 17d0 020083E2 		add	r0, r3, #2
 1864 17d4 826E0EE1 		smlabb	lr, r2, lr, r6
 1865 17d8 825C02E1 		smlabb	r2, r2, ip, r5
 1866 17dc 0E60A0E1 		mov	r6, lr
 1867 17e0 6CE08DE5 		str	lr, [sp, #108]
 1868 17e4 0270A0E1 		mov	r7, r2
 1869 17e8 68208DE5 		str	r2, [sp, #104]
 1870 17ec BC0000DA 		ble	.L43
 1871 17f0 60219DE5 		ldr	r2, [sp, #352]
 1872 17f4 60E19DE5 		ldr	lr, [sp, #352]
 1873 17f8 D2C090E1 		ldrsb	ip, [r0, r2]
 1874 17fc 032081E2 		add	r2, r1, #3
 1875 1800 D200D4E1 		ldrsb	r0, [r4, #2]
 1876 1804 02005EE1 		cmp	lr, r2
 1877 1808 D2E0D3E1 		ldrsb	lr, [r3, #2]
 1878 180c 032083E2 		add	r2, r3, #3
 1879 1810 806C0CE1 		smlabb	ip, r0, ip, r6
 1880 1814 807E00E1 		smlabb	r0, r0, lr, r7
 1881 1818 0C50A0E1 		mov	r5, ip
 1882 181c 6CC08DE5 		str	ip, [sp, #108]
 1883 1820 0060A0E1 		mov	r6, r0
 1884 1824 68008DE5 		str	r0, [sp, #104]
 1885 1828 AD0000DA 		ble	.L43
 1886 182c 60019DE5 		ldr	r0, [sp, #352]
 1887 1830 60E19DE5 		ldr	lr, [sp, #352]
 1888 1834 D0C092E1 		ldrsb	ip, [r2, r0]
 1889 1838 042081E2 		add	r2, r1, #4
 1890 183c D300D4E1 		ldrsb	r0, [r4, #3]
 1891 1840 02005EE1 		cmp	lr, r2
 1892 1844 D3E0D3E1 		ldrsb	lr, [r3, #3]
 1893 1848 042083E2 		add	r2, r3, #4
 1894 184c 805C0CE1 		smlabb	ip, r0, ip, r5
 1895 1850 806E00E1 		smlabb	r0, r0, lr, r6
 1896 1854 0C50A0E1 		mov	r5, ip
 1897 1858 6CC08DE5 		str	ip, [sp, #108]
 1898 185c 0060A0E1 		mov	r6, r0
 1899 1860 68008DE5 		str	r0, [sp, #104]
 1900 1864 9E0000DA 		ble	.L43
 1901 1868 60019DE5 		ldr	r0, [sp, #352]
 1902 186c 60E19DE5 		ldr	lr, [sp, #352]
 1903 1870 D0C092E1 		ldrsb	ip, [r2, r0]
 1904 1874 052081E2 		add	r2, r1, #5
 1905 1878 D400D4E1 		ldrsb	r0, [r4, #4]
 1906 187c 02005EE1 		cmp	lr, r2
 1907 1880 D4E0D3E1 		ldrsb	lr, [r3, #4]
 1908 1884 052083E2 		add	r2, r3, #5
 1909 1888 805C0CE1 		smlabb	ip, r0, ip, r5
 1910 188c 806E00E1 		smlabb	r0, r0, lr, r6
 1911 1890 0C50A0E1 		mov	r5, ip
 1912 1894 6CC08DE5 		str	ip, [sp, #108]
 1913 1898 0060A0E1 		mov	r6, r0
 1914 189c 68008DE5 		str	r0, [sp, #104]
 1915 18a0 8F0000DA 		ble	.L43
 1916 18a4 60019DE5 		ldr	r0, [sp, #352]
 1917 18a8 60E19DE5 		ldr	lr, [sp, #352]
 1918 18ac D0C092E1 		ldrsb	ip, [r2, r0]
 1919 18b0 062081E2 		add	r2, r1, #6
 1920 18b4 D500D4E1 		ldrsb	r0, [r4, #5]
 1921 18b8 02005EE1 		cmp	lr, r2
 1922 18bc D5E0D3E1 		ldrsb	lr, [r3, #5]
 1923 18c0 062083E2 		add	r2, r3, #6
 1924 18c4 805C0CE1 		smlabb	ip, r0, ip, r5
 1925 18c8 806E00E1 		smlabb	r0, r0, lr, r6
 1926 18cc 0C50A0E1 		mov	r5, ip
 1927 18d0 6CC08DE5 		str	ip, [sp, #108]
 1928 18d4 0060A0E1 		mov	r6, r0
 1929 18d8 68008DE5 		str	r0, [sp, #104]
 1930 18dc 800000DA 		ble	.L43
 1931 18e0 60019DE5 		ldr	r0, [sp, #352]
 1932 18e4 60E19DE5 		ldr	lr, [sp, #352]
 1933 18e8 D0C092E1 		ldrsb	ip, [r2, r0]
 1934 18ec 072081E2 		add	r2, r1, #7
 1935 18f0 D600D4E1 		ldrsb	r0, [r4, #6]
 1936 18f4 02005EE1 		cmp	lr, r2
 1937 18f8 D6E0D3E1 		ldrsb	lr, [r3, #6]
 1938 18fc 072083E2 		add	r2, r3, #7
 1939 1900 805C0CE1 		smlabb	ip, r0, ip, r5
 1940 1904 806E00E1 		smlabb	r0, r0, lr, r6
 1941 1908 0C50A0E1 		mov	r5, ip
 1942 190c 6CC08DE5 		str	ip, [sp, #108]
 1943 1910 0060A0E1 		mov	r6, r0
 1944 1914 68008DE5 		str	r0, [sp, #104]
 1945 1918 710000DA 		ble	.L43
 1946 191c 60019DE5 		ldr	r0, [sp, #352]
 1947 1920 60E19DE5 		ldr	lr, [sp, #352]
 1948 1924 D0C092E1 		ldrsb	ip, [r2, r0]
 1949 1928 082081E2 		add	r2, r1, #8
 1950 192c D700D4E1 		ldrsb	r0, [r4, #7]
 1951 1930 02005EE1 		cmp	lr, r2
 1952 1934 D7E0D3E1 		ldrsb	lr, [r3, #7]
 1953 1938 082083E2 		add	r2, r3, #8
 1954 193c 805C0CE1 		smlabb	ip, r0, ip, r5
 1955 1940 806E00E1 		smlabb	r0, r0, lr, r6
 1956 1944 0C50A0E1 		mov	r5, ip
 1957 1948 6CC08DE5 		str	ip, [sp, #108]
 1958 194c 0060A0E1 		mov	r6, r0
 1959 1950 68008DE5 		str	r0, [sp, #104]
 1960 1954 620000DA 		ble	.L43
 1961 1958 60019DE5 		ldr	r0, [sp, #352]
 1962 195c 60E19DE5 		ldr	lr, [sp, #352]
 1963 1960 D0C092E1 		ldrsb	ip, [r2, r0]
 1964 1964 092081E2 		add	r2, r1, #9
 1965 1968 D800D4E1 		ldrsb	r0, [r4, #8]
 1966 196c 02005EE1 		cmp	lr, r2
 1967 1970 D8E0D3E1 		ldrsb	lr, [r3, #8]
 1968 1974 092083E2 		add	r2, r3, #9
 1969 1978 805C0CE1 		smlabb	ip, r0, ip, r5
 1970 197c 806E00E1 		smlabb	r0, r0, lr, r6
 1971 1980 0C50A0E1 		mov	r5, ip
 1972 1984 6CC08DE5 		str	ip, [sp, #108]
 1973 1988 0060A0E1 		mov	r6, r0
 1974 198c 68008DE5 		str	r0, [sp, #104]
 1975 1990 530000DA 		ble	.L43
 1976 1994 60019DE5 		ldr	r0, [sp, #352]
 1977 1998 60E19DE5 		ldr	lr, [sp, #352]
 1978 199c D0C092E1 		ldrsb	ip, [r2, r0]
 1979 19a0 0A2081E2 		add	r2, r1, #10
 1980 19a4 D900D4E1 		ldrsb	r0, [r4, #9]
 1981 19a8 02005EE1 		cmp	lr, r2
 1982 19ac D9E0D3E1 		ldrsb	lr, [r3, #9]
 1983 19b0 0A2083E2 		add	r2, r3, #10
 1984 19b4 805C0CE1 		smlabb	ip, r0, ip, r5
 1985 19b8 806E00E1 		smlabb	r0, r0, lr, r6
 1986 19bc 0C50A0E1 		mov	r5, ip
 1987 19c0 6CC08DE5 		str	ip, [sp, #108]
 1988 19c4 0060A0E1 		mov	r6, r0
 1989 19c8 68008DE5 		str	r0, [sp, #104]
 1990 19cc 440000DA 		ble	.L43
 1991 19d0 60019DE5 		ldr	r0, [sp, #352]
 1992 19d4 60E19DE5 		ldr	lr, [sp, #352]
 1993 19d8 D0C092E1 		ldrsb	ip, [r2, r0]
 1994 19dc 0B2081E2 		add	r2, r1, #11
 1995 19e0 DA00D4E1 		ldrsb	r0, [r4, #10]
 1996 19e4 02005EE1 		cmp	lr, r2
 1997 19e8 DAE0D3E1 		ldrsb	lr, [r3, #10]
 1998 19ec 0B2083E2 		add	r2, r3, #11
 1999 19f0 805C0CE1 		smlabb	ip, r0, ip, r5
 2000 19f4 806E00E1 		smlabb	r0, r0, lr, r6
 2001 19f8 0C50A0E1 		mov	r5, ip
 2002 19fc 6CC08DE5 		str	ip, [sp, #108]
 2003 1a00 0060A0E1 		mov	r6, r0
 2004 1a04 68008DE5 		str	r0, [sp, #104]
 2005 1a08 350000DA 		ble	.L43
 2006 1a0c 60019DE5 		ldr	r0, [sp, #352]
 2007 1a10 60E19DE5 		ldr	lr, [sp, #352]
 2008 1a14 D0C092E1 		ldrsb	ip, [r2, r0]
 2009 1a18 0C2081E2 		add	r2, r1, #12
 2010 1a1c DB00D4E1 		ldrsb	r0, [r4, #11]
 2011 1a20 02005EE1 		cmp	lr, r2
 2012 1a24 DBE0D3E1 		ldrsb	lr, [r3, #11]
 2013 1a28 0C2083E2 		add	r2, r3, #12
 2014 1a2c 805C0CE1 		smlabb	ip, r0, ip, r5
 2015 1a30 806E00E1 		smlabb	r0, r0, lr, r6
 2016 1a34 0C50A0E1 		mov	r5, ip
 2017 1a38 6CC08DE5 		str	ip, [sp, #108]
 2018 1a3c 0060A0E1 		mov	r6, r0
 2019 1a40 68008DE5 		str	r0, [sp, #104]
 2020 1a44 260000DA 		ble	.L43
 2021 1a48 60019DE5 		ldr	r0, [sp, #352]
 2022 1a4c 60E19DE5 		ldr	lr, [sp, #352]
 2023 1a50 D0C092E1 		ldrsb	ip, [r2, r0]
 2024 1a54 0D2081E2 		add	r2, r1, #13
 2025 1a58 DC00D4E1 		ldrsb	r0, [r4, #12]
 2026 1a5c 02005EE1 		cmp	lr, r2
 2027 1a60 DCE0D3E1 		ldrsb	lr, [r3, #12]
 2028 1a64 0D2083E2 		add	r2, r3, #13
 2029 1a68 805C0CE1 		smlabb	ip, r0, ip, r5
 2030 1a6c 806E00E1 		smlabb	r0, r0, lr, r6
 2031 1a70 0C50A0E1 		mov	r5, ip
 2032 1a74 6CC08DE5 		str	ip, [sp, #108]
 2033 1a78 0060A0E1 		mov	r6, r0
 2034 1a7c 68008DE5 		str	r0, [sp, #104]
 2035 1a80 170000DA 		ble	.L43
 2036 1a84 60C19DE5 		ldr	ip, [sp, #352]
 2037 1a88 0E1081E2 		add	r1, r1, #14
 2038 1a8c 60019DE5 		ldr	r0, [sp, #352]
 2039 1a90 01005CE1 		cmp	ip, r1
 2040 1a94 DD10D3E1 		ldrsb	r1, [r3, #13]
 2041 1a98 D00092E1 		ldrsb	r0, [r2, r0]
 2042 1a9c 0EC083E2 		add	ip, r3, #14
 2043 1aa0 DD20D4E1 		ldrsb	r2, [r4, #13]
 2044 1aa4 825000E1 		smlabb	r0, r2, r0, r5
 2045 1aa8 826102E1 		smlabb	r2, r2, r1, r6
 2046 1aac 6C008DE5 		str	r0, [sp, #108]
 2047 1ab0 68208DE5 		str	r2, [sp, #104]
 2048 1ab4 0A0000DA 		ble	.L43
 2049 1ab8 0200A0E1 		mov	r0, r2
 2050 1abc 28209DE5 		ldr	r2, [sp, #40]
 2051 1ac0 DE10D3E1 		ldrsb	r1, [r3, #14]
 2052 1ac4 60319DE5 		ldr	r3, [sp, #352]
 2053 1ac8 DE20D2E1 		ldrsb	r2, [r2, #14]
 2054 1acc D3309CE1 		ldrsb	r3, [ip, r3]
 2055 1ad0 810201E1 		smlabb	r1, r1, r2, r0
 2056 1ad4 68108DE5 		str	r1, [sp, #104]
 2057 1ad8 6C109DE5 		ldr	r1, [sp, #108]
 2058 1adc 831203E1 		smlabb	r3, r3, r2, r1
 2059 1ae0 6C308DE5 		str	r3, [sp, #108]
 2060              	.L43:
 2061 1ae4 58309DE5 		ldr	r3, [sp, #88]
 2062 1ae8 0010A0E3 		mov	r1, #0
 2063 1aec 0121A0E3 		mov	r2, #1073741824
 2064 1af0 9C108DE5 		str	r1, [sp, #156]
 2065 1af4 68109DE5 		ldr	r1, [sp, #104]
 2066 1af8 0C3013E5 		ldr	r3, [r3, #-12]
 2067 1afc 98208DE5 		str	r2, [sp, #152]
 2068 1b00 54209DE5 		ldr	r2, [sp, #84]
 2069 1b04 000053E3 		cmp	r3, #0
 2070 1b08 C39FC3E1 		bic	r9, r3, r3, asr #31
 2071 1b0c 0C2012E5 		ldr	r2, [r2, #-12]
 2072 1b10 1199A0E1 		lsl	r9, r1, r9
 2073 1b14 D809CDE1 		ldrd	r0, [sp, #152]
 2074 1b18 9209E1E0 		smlal	r0, r1, r2, r9
 2075 1b1c A00FA0E1 		lsr	r0, r0, #31
 2076 1b20 810080E1 		orr	r0, r0, r1, lsl #1
 2077 1b24 0020A0E1 		mov	r2, r0
 2078 1b28 D20100DA 		ble	.L163
 2079              	.L55:
 2080 1b2c 58109DE5 		ldr	r1, [sp, #88]
 2081 1b30 0131A0E3 		mov	r3, #1073741824
 2082 1b34 54009DE5 		ldr	r0, [sp, #84]
 2083 1b38 00E0A0E3 		mov	lr, #0
 2084 1b3c A0308DE5 		str	r3, [sp, #160]
 2085 1b40 08C011E5 		ldr	ip, [r1, #-8]
 2086 1b44 083010E5 		ldr	r3, [r0, #-8]
 2087 1b48 00F0D0F5 		pld	[r0]
 2088 1b4c 6C009DE5 		ldr	r0, [sp, #108]
 2089 1b50 0E005CE1 		cmp	ip, lr
 2090 1b54 A4E08DE5 		str	lr, [sp, #164]
 2091 1b58 00F0D1F5 		pld	[r1]
 2092 1b5c CC1FCCE1 		bic	r1, ip, ip, asr #31
 2093 1b60 D04ACDE1 		ldrd	r4, [sp, #160]
 2094 1b64 1011A0E1 		lsl	r1, r0, r1
 2095 1b68 9341E5E0 		smlal	r4, r5, r3, r1
 2096 1b6c A40FA0E1 		lsr	r0, r4, #31
 2097 1b70 850080E1 		orr	r0, r0, r5, lsl #1
 2098 1b74 0030A0E1 		mov	r3, r0
 2099 1b78 B40100DA 		ble	.L164
 2100              	.L57:
 2101 1b7c 68119DE5 		ldr	r1, [sp, #360]
 2102 1b80 022081E0 		add	r2, r1, r2
 2103 1b84 033081E0 		add	r3, r1, r3
 2104 1b88 6C119DE5 		ldr	r1, [sp, #364]
 2105 1b8c 020051E1 		cmp	r1, r2
 2106 1b90 0120A0A1 		movge	r2, r1
 2107 1b94 030051E1 		cmp	r1, r3
 2108 1b98 0130A0A1 		movge	r3, r1
 2109 1b9c 70119DE5 		ldr	r1, [sp, #368]
 2110 1ba0 020051E1 		cmp	r1, r2
 2111 1ba4 0120A0B1 		movlt	r2, r1
 2112 1ba8 030051E1 		cmp	r1, r3
 2113 1bac 0130A0B1 		movlt	r3, r1
 2114 1bb0 5C109DE5 		ldr	r1, [sp, #92]
 2115 1bb4 0020C1E5 		strb	r2, [r1]
 2116 1bb8 0130C1E5 		strb	r3, [r1, #1]
 2117              	.L40:
 2118 1bbc 50109DE5 		ldr	r1, [sp, #80]
 2119 1bc0 B4209DE5 		ldr	r2, [sp, #180]
 2120 1bc4 88309DE5 		ldr	r3, [sp, #136]
 2121 1bc8 021081E0 		add	r1, r1, r2
 2122 1bcc 50108DE5 		str	r1, [sp, #80]
 2123 1bd0 023083E2 		add	r3, r3, #2
 2124 1bd4 94109DE5 		ldr	r1, [sp, #148]
 2125 1bd8 88308DE5 		str	r3, [sp, #136]
 2126 1bdc 010053E1 		cmp	r3, r1
 2127 1be0 54309DE5 		ldr	r3, [sp, #84]
 2128 1be4 083083E2 		add	r3, r3, #8
 2129 1be8 54308DE5 		str	r3, [sp, #84]
 2130 1bec 58309DE5 		ldr	r3, [sp, #88]
 2131 1bf0 083083E2 		add	r3, r3, #8
 2132 1bf4 58308DE5 		str	r3, [sp, #88]
 2133 1bf8 8C309DE5 		ldr	r3, [sp, #140]
 2134 1bfc 023083E0 		add	r3, r3, r2
 2135 1c00 8C308DE5 		str	r3, [sp, #140]
 2136 1c04 90309DE5 		ldr	r3, [sp, #144]
 2137 1c08 083083E2 		add	r3, r3, #8
 2138 1c0c 90308DE5 		str	r3, [sp, #144]
 2139 1c10 3FF9FF1A 		bne	.L3
 2140 1c14 D4309DE5 		ldr	r3, [sp, #212]
 2141 1c18 A330A0E1 		lsr	r3, r3, #1
 2142 1c1c 932223E0 		mla	r3, r3, r2, r2
 2143 1c20 B0209DE5 		ldr	r2, [sp, #176]
 2144 1c24 033082E0 		add	r3, r2, r3
 2145 1c28 B0308DE5 		str	r3, [sp, #176]
 2146 1c2c 5C319DE5 		ldr	r3, [sp, #348]
 2147              	.L59:
 2148 1c30 010013E3 		tst	r3, #1
 2149 1c34 5B01000A 		beq	.L113
 2150 1c38 58319DE5 		ldr	r3, [sp, #344]
 2151 1c3c 000053E3 		cmp	r3, #0
 2152 1c40 580100DA 		ble	.L113
 2153 1c44 60319DE5 		ldr	r3, [sp, #352]
 2154 1c48 0050A0E3 		mov	r5, #0
 2155 1c4c AC009DE5 		ldr	r0, [sp, #172]
 2156 1c50 60119DE5 		ldr	r1, [sp, #352]
 2157 1c54 10B043E2 		sub	fp, r3, #16
 2158 1c58 5C319DE5 		ldr	r3, [sp, #348]
 2159 1c5c 2BB2A0E1 		lsr	fp, fp, #4
 2160 1c60 64C19DE5 		ldr	ip, [sp, #356]
 2161 1c64 079143E2 		sub	r9, r3, #-1073741823
 2162 1c68 64319DE5 		ldr	r3, [sp, #356]
 2163 1c6c 0991A0E1 		lsl	r9, r9, #2
 2164 1c70 08908DE5 		str	r9, [sp, #8]
 2165 1c74 903BA6EE 		vdup.32	q11, r3
 2166 1c78 01308BE2 		add	r3, fp, #1
 2167 1c7c 0382A0E1 		lsl	r8, r3, #4
 2168 1c80 2C308DE5 		str	r3, [sp, #44]
 2169 1c84 B0309DE5 		ldr	r3, [sp, #176]
 2170 1c88 02B04BE2 		sub	fp, fp, #2
 2171 1c8c 0170CBE3 		bic	r7, fp, #1
 2172 1c90 24B08DE5 		str	fp, [sp, #36]
 2173 1c94 027087E2 		add	r7, r7, #2
 2174 1c98 20808DE5 		str	r8, [sp, #32]
 2175 1c9c 083083E0 		add	r3, r3, r8
 2176 1ca0 0C708DE5 		str	r7, [sp, #12]
 2177 1ca4 28308DE5 		str	r3, [sp, #40]
 2178 1ca8 0570A0E1 		mov	r7, r5
 2179 1cac 50319DE5 		ldr	r3, [sp, #336]
 2180 1cb0 096083E0 		add	r6, r3, r9
 2181 1cb4 54319DE5 		ldr	r3, [sp, #340]
 2182 1cb8 09A083E0 		add	r10, r3, r9
 2183 1cbc 60319DE5 		ldr	r3, [sp, #352]
 2184 1cc0 04A08DE5 		str	r10, [sp, #4]
 2185 1cc4 013043E2 		sub	r3, r3, #1
 2186 1cc8 10308DE5 		str	r3, [sp, #16]
 2187              	.L79:
 2188 1ccc A8309DE5 		ldr	r3, [sp, #168]
 2189 1cd0 000053E3 		cmp	r3, #0
 2190 1cd4 08209D15 		ldrne	r2, [sp, #8]
 2191 1cd8 02309317 		ldrne	r3, [r3, r2]
 2192 1cdc 000051E3 		cmp	r1, #0
 2193 1ce0 110100DA 		ble	.L65
 2194 1ce4 B0809DE5 		ldr	r8, [sp, #176]
 2195 1ce8 0F0051E3 		cmp	r1, #15
 2196 1cec 00E0A093 		movls	lr, #0
 2197 1cf0 01E0A083 		movhi	lr, #1
 2198 1cf4 082080E1 		orr	r2, r0, r8
 2199 1cf8 5220E3E7 		ubfx	r2, r2, #0, #4
 2200 1cfc 000052E3 		cmp	r2, #0
 2201 1d00 00E0A013 		movne	lr, #0
 2202 1d04 00005EE3 		cmp	lr, #0
 2203 1d08 6401000A 		beq	.L66
 2204 1d0c 10209DE5 		ldr	r2, [sp, #16]
 2205 1d10 0E0052E3 		cmp	r2, #14
 2206 1d14 9A00009A 		bls	.L93
 2207 1d18 24209DE5 		ldr	r2, [sp, #36]
 2208 1d1c 040072E3 		cmn	r2, #4
 2209 1d20 8201008A 		bhi	.L94
 2210 1d24 0CB09DE5 		ldr	fp, [sp, #12]
 2211 1d28 202088E2 		add	r2, r8, #32
 2212 1d2c 5000C0F2 		vmov.i32	q8, #0  @ v4si
 2213 1d30 20E080E2 		add	lr, r0, #32
 2214 1d34 0080A0E3 		mov	r8, #0
 2215              	.L69:
 2216 1d38 082B5EED 		vldr	d18, [lr, #-32]
 2217 1d3c 063B5EED 		vldr	d19, [lr, #-24]
 2218 1d40 028088E2 		add	r8, r8, #2
 2219 1d44 0B0058E1 		cmp	r8, fp
 2220 1d48 50F0D2F5 		pld	[r2, #80]
 2221 1d4c 324AC8F2 		vmovl.s8 q10, d18
 2222 1d50 02A0A0E1 		mov	r10, r2
 2223 1d54 088B52ED 		vldr	d24, [r2, #-32]
 2224 1d58 069B52ED 		vldr	d25, [r2, #-24]
 2225 1d5c 0E90A0E1 		mov	r9, lr
 2226 1d60 332AC8F2 		vmovl.s8 q9, d19
 2227 1d64 20E08EE2 		add	lr, lr, #32
 2228 1d68 38AAC8F2 		vmovl.s8 q13, d24
 2229 1d6c 202082E2 		add	r2, r2, #32
 2230 1d70 34CAD0F2 		vmovl.s16 q14, d20
 2231 1d74 354AD0F2 		vmovl.s16 q10, d21
 2232 1d78 3AEAD0F2 		vmovl.s16 q15, d26
 2233 1d7c E6C86CF2 		vadd.i32	q14, q14, q11
 2234 1d80 E64864F2 		vadd.i32	q10, q10, q11
 2235 1d84 3BAAD0F2 		vmovl.s16 q13, d27
 2236 1d88 EE096CF2 		vmla.i32	q8, q14, q15
 2237 1d8c 0C6B1EED 		vldr	d6, [lr, #-48]
 2238 1d90 0A7B1EED 		vldr	d7, [lr, #-40]
 2239 1d94 398AC8F2 		vmovl.s8 q12, d25
 2240 1d98 32CAD0F2 		vmovl.s16 q14, d18
 2241 1d9c 332AD0F2 		vmovl.s16 q9, d19
 2242 1da0 384A90F2 		vmovl.s16 q2, d24
 2243 1da4 E6C86CF2 		vadd.i32	q14, q14, q11
 2244 1da8 EA0964F2 		vmla.i32	q8, q10, q13
 2245 1dac 0CEB52ED 		vldr	d30, [r2, #-48]
 2246 1db0 0AFB52ED 		vldr	d31, [r2, #-40]
 2247 1db4 E62862F2 		vadd.i32	q9, q9, q11
 2248 1db8 392A90F2 		vmovl.s16 q1, d25
 2249 1dbc 168AC8F2 		vmovl.s8 q12, d6
 2250 1dc0 3EAAC8F2 		vmovl.s8 q13, d30
 2251 1dc4 174AC8F2 		vmovl.s8 q10, d7
 2252 1dc8 C4096CF2 		vmla.i32	q8, q14, q2
 2253 1dcc 386A90F2 		vmovl.s16 q3, d24
 2254 1dd0 3A4A90F2 		vmovl.s16 q2, d26
 2255 1dd4 666826F2 		vadd.i32	q3, q3, q11
 2256 1dd8 398AD0F2 		vmovl.s16 q12, d25
 2257 1ddc 3BCAD0F2 		vmovl.s16 q14, d27
 2258 1de0 C20962F2 		vmla.i32	q8, q9, q1
 2259 1de4 E68868F2 		vadd.i32	q12, q12, q11
 2260 1de8 3F2AC8F2 		vmovl.s8 q9, d31
 2261 1dec 34AAD0F2 		vmovl.s16 q13, d20
 2262 1df0 354AD0F2 		vmovl.s16 q10, d21
 2263 1df4 32EAD0F2 		vmovl.s16 q15, d18
 2264 1df8 440966F2 		vmla.i32	q8, q3, q2
 2265 1dfc E6A86AF2 		vadd.i32	q13, q13, q11
 2266 1e00 E64864F2 		vadd.i32	q10, q10, q11
 2267 1e04 332AD0F2 		vmovl.s16 q9, d19
 2268 1e08 EC0968F2 		vmla.i32	q8, q12, q14
 2269 1e0c EE096AF2 		vmla.i32	q8, q13, q15
 2270 1e10 E20964F2 		vmla.i32	q8, q10, q9
 2271 1e14 C7FFFF1A 		bne	.L69
 2272 1e18 0C209DE5 		ldr	r2, [sp, #12]
 2273              	.L68:
 2274 1e1c 2CE09DE5 		ldr	lr, [sp, #44]
 2275              	.L73:
 2276 1e20 DF2A69F4 		vld1.64	{d18-d19}, [r9:64]
 2277 1e24 012082E2 		add	r2, r2, #1
 2278 1e28 02005EE1 		cmp	lr, r2
 2279 1e2c 109089E2 		add	r9, r9, #16
 2280 1e30 328AC8F2 		vmovl.s8 q12, d18
 2281 1e34 10A08AE2 		add	r10, r10, #16
 2282 1e38 044B5AED 		vldr	d20, [r10, #-16]
 2283 1e3c 025B5AED 		vldr	d21, [r10, #-8]
 2284 1e40 332AC8F2 		vmovl.s8 q9, d19
 2285 1e44 34AAC8F2 		vmovl.s8 q13, d20
 2286 1e48 38CAD0F2 		vmovl.s16 q14, d24
 2287 1e4c 398AD0F2 		vmovl.s16 q12, d25
 2288 1e50 3AEAD0F2 		vmovl.s16 q15, d26
 2289 1e54 E6C86CF2 		vadd.i32	q14, q14, q11
 2290 1e58 E68868F2 		vadd.i32	q12, q12, q11
 2291 1e5c 3BAAD0F2 		vmovl.s16 q13, d27
 2292 1e60 EE096CF2 		vmla.i32	q8, q14, q15
 2293 1e64 354AC8F2 		vmovl.s8 q10, d21
 2294 1e68 32CAD0F2 		vmovl.s16 q14, d18
 2295 1e6c 332AD0F2 		vmovl.s16 q9, d19
 2296 1e70 34EAD0F2 		vmovl.s16 q15, d20
 2297 1e74 E6C86CF2 		vadd.i32	q14, q14, q11
 2298 1e78 EA0968F2 		vmla.i32	q8, q12, q13
 2299 1e7c E62862F2 		vadd.i32	q9, q9, q11
 2300 1e80 354AD0F2 		vmovl.s16 q10, d21
 2301 1e84 EE096CF2 		vmla.i32	q8, q14, q15
 2302 1e88 E40962F2 		vmla.i32	q8, q9, q10
 2303 1e8c E3FFFF8A 		bhi	.L73
 2304 1e90 A10860F2 		vadd.i32	d16, d16, d17
 2305 1e94 20209DE5 		ldr	r2, [sp, #32]
 2306 1e98 B00B60F2 		vpadd.i32	d16, d16, d16
 2307 1e9c 010052E1 		cmp	r2, r1
 2308 1ea0 022080E0 		add	r2, r0, r2
 2309 1ea4 90EB10EE 		vmov.32	lr, d16[0]
 2310 1ea8 0E3083E0 		add	r3, r3, lr
 2311 1eac 9D00000A 		beq	.L76
 2312 1eb0 20E09DE5 		ldr	lr, [sp, #32]
 2313 1eb4 28809DE5 		ldr	r8, [sp, #40]
 2314 1eb8 330000EA 		b	.L67
 2315              	.L162:
 2316 1ebc 003063E2 		rsb	r3, r3, #0
 2317 1ec0 0000E0E3 		mvn	r0, #0
 2318 1ec4 1003E0E1 		mvn	r0, r0, lsl r3
 2319 1ec8 5413B0E1 		asrs	r1, r4, r3
 2320 1ecc C060A0E1 		asr	r6, r0, #1
 2321 1ed0 004004E0 		and	r4, r4, r0
 2322 1ed4 01508642 		addmi	r5, r6, #1
 2323 1ed8 0650A051 		movpl	r5, r6
 2324 1edc 050054E1 		cmp	r4, r5
 2325 1ee0 011081C2 		addgt	r1, r1, #1
 2326 1ee4 B6FCFFEA 		b	.L33
 2327              	.L161:
 2328 1ee8 002062E2 		rsb	r2, r2, #0
 2329 1eec 0070E0E3 		mvn	r7, #0
 2330 1ef0 1772E0E1 		mvn	r7, r7, lsl r2
 2331 1ef4 50A2B0E1 		asrs	r10, r0, r2
 2332 1ef8 C730A0E1 		asr	r3, r7, #1
 2333 1efc 070000E0 		and	r0, r0, r7
 2334 1f00 04308DE5 		str	r3, [sp, #4]
 2335 1f04 C730A051 		asrpl	r3, r7, #1
 2336 1f08 01308342 		addmi	r3, r3, #1
 2337 1f0c 030050E1 		cmp	r0, r3
 2338 1f10 01A08AC2 		addgt	r10, r10, #1
 2339 1f14 94FCFFEA 		b	.L31
 2340              	.L83:
 2341 1f18 0420A0E1 		mov	r2, r4
 2342 1f1c 62FBFFEA 		b	.L21
 2343              	.L20:
 2344 1f20 08809DE5 		ldr	r8, [sp, #8]
 2345 1f24 0B7083E0 		add	r7, r3, fp
 2346 1f28 0CA09DE5 		ldr	r10, [sp, #12]
 2347 1f2c 016044E2 		sub	r6, r4, #1
 2348              	.L29:
 2349 1f30 D1E0D3E0 		ldrsb	lr, [r3], #1
 2350 1f34 D140F6E1 		ldrsb	r4, [r6, #1]!
 2351 1f38 D100D2E0 		ldrsb	r0, [r2], #1
 2352 1f3c D1C0D1E0 		ldrsb	ip, [r1], #1
 2353 1f40 070053E1 		cmp	r3, r7
 2354 1f44 8E5405E1 		smlabb	r5, lr, r4, r5
 2355 1f48 808408E1 		smlabb	r8, r0, r4, r8
 2356 1f4c 8CAE0AE1 		smlabb	r10, ip, lr, r10
 2357 1f50 8C9009E1 		smlabb	r9, ip, r0, r9
 2358 1f54 F5FFFF1A 		bne	.L29
 2359 1f58 08808DE5 		str	r8, [sp, #8]
 2360 1f5c 0CA08DE5 		str	r10, [sp, #12]
 2361 1f60 69FCFFEA 		b	.L30
 2362              	.L160:
 2363 1f64 6C109DE5 		ldr	r1, [sp, #108]
 2364 1f68 0000A0E3 		mov	r0, #0
 2365 1f6c 68209DE5 		ldr	r2, [sp, #104]
 2366 1f70 0190A0E1 		mov	r9, r1
 2367 1f74 08108DE5 		str	r1, [sp, #8]
 2368 1f78 0C208DE5 		str	r2, [sp, #12]
 2369 1f7c 0250A0E1 		mov	r5, r2
 2370 1f80 52FAFFEA 		b	.L39
 2371              	.L93:
 2372 1f84 0020A0E1 		mov	r2, r0
 2373 1f88 00E0A0E3 		mov	lr, #0
 2374              	.L67:
 2375 1f8c D090D2E1 		ldrsb	r9, [r2]
 2376 1f90 01A08EE2 		add	r10, lr, #1
 2377 1f94 D0B0D8E1 		ldrsb	fp, [r8]
 2378 1f98 0A0051E1 		cmp	r1, r10
 2379 1f9c 0C9089E0 		add	r9, r9, ip
 2380 1fa0 9B3923E0 		mla	r3, fp, r9, r3
 2381 1fa4 A70000DA 		ble	.L154
 2382 1fa8 D190D2E1 		ldrsb	r9, [r2, #1]
 2383 1fac D1B0D8E1 		ldrsb	fp, [r8, #1]
 2384 1fb0 02A08EE2 		add	r10, lr, #2
 2385 1fb4 0A0051E1 		cmp	r1, r10
 2386 1fb8 0C9089E0 		add	r9, r9, ip
 2387 1fbc 9B3923E0 		mla	r3, fp, r9, r3
 2388 1fc0 A00000DA 		ble	.L154
 2389 1fc4 D290D2E1 		ldrsb	r9, [r2, #2]
 2390 1fc8 D2B0D8E1 		ldrsb	fp, [r8, #2]
 2391 1fcc 03A08EE2 		add	r10, lr, #3
 2392 1fd0 0A0051E1 		cmp	r1, r10
 2393 1fd4 0C9089E0 		add	r9, r9, ip
 2394 1fd8 9B3923E0 		mla	r3, fp, r9, r3
 2395 1fdc 990000DA 		ble	.L154
 2396 1fe0 D390D2E1 		ldrsb	r9, [r2, #3]
 2397 1fe4 D3B0D8E1 		ldrsb	fp, [r8, #3]
 2398 1fe8 04A08EE2 		add	r10, lr, #4
 2399 1fec 0A0051E1 		cmp	r1, r10
 2400 1ff0 0C9089E0 		add	r9, r9, ip
 2401 1ff4 9B3923E0 		mla	r3, fp, r9, r3
 2402 1ff8 920000DA 		ble	.L154
 2403 1ffc D490D2E1 		ldrsb	r9, [r2, #4]
 2404 2000 D4B0D8E1 		ldrsb	fp, [r8, #4]
 2405 2004 05A08EE2 		add	r10, lr, #5
 2406 2008 0A0051E1 		cmp	r1, r10
 2407 200c 0C9089E0 		add	r9, r9, ip
 2408 2010 9B3923E0 		mla	r3, fp, r9, r3
 2409 2014 8B0000DA 		ble	.L154
 2410 2018 D590D2E1 		ldrsb	r9, [r2, #5]
 2411 201c D5B0D8E1 		ldrsb	fp, [r8, #5]
 2412 2020 06A08EE2 		add	r10, lr, #6
 2413 2024 0A0051E1 		cmp	r1, r10
 2414 2028 0C9089E0 		add	r9, r9, ip
 2415 202c 9B3923E0 		mla	r3, fp, r9, r3
 2416 2030 840000DA 		ble	.L154
 2417 2034 D690D2E1 		ldrsb	r9, [r2, #6]
 2418 2038 D6B0D8E1 		ldrsb	fp, [r8, #6]
 2419 203c 07A08EE2 		add	r10, lr, #7
 2420 2040 0A0051E1 		cmp	r1, r10
 2421 2044 0C9089E0 		add	r9, r9, ip
 2422 2048 9B3923E0 		mla	r3, fp, r9, r3
 2423 204c 7D0000DA 		ble	.L154
 2424 2050 D790D2E1 		ldrsb	r9, [r2, #7]
 2425 2054 D7B0D8E1 		ldrsb	fp, [r8, #7]
 2426 2058 08A08EE2 		add	r10, lr, #8
 2427 205c 0A0051E1 		cmp	r1, r10
 2428 2060 0C9089E0 		add	r9, r9, ip
 2429 2064 9B3923E0 		mla	r3, fp, r9, r3
 2430 2068 760000DA 		ble	.L154
 2431 206c D890D2E1 		ldrsb	r9, [r2, #8]
 2432 2070 D8B0D8E1 		ldrsb	fp, [r8, #8]
 2433 2074 09A08EE2 		add	r10, lr, #9
 2434 2078 0A0051E1 		cmp	r1, r10
 2435 207c 0C9089E0 		add	r9, r9, ip
 2436 2080 9B3923E0 		mla	r3, fp, r9, r3
 2437 2084 6F0000DA 		ble	.L154
 2438 2088 D990D2E1 		ldrsb	r9, [r2, #9]
 2439 208c D9B0D8E1 		ldrsb	fp, [r8, #9]
 2440 2090 0AA08EE2 		add	r10, lr, #10
 2441 2094 0A0051E1 		cmp	r1, r10
 2442 2098 0C9089E0 		add	r9, r9, ip
 2443 209c 9B3923E0 		mla	r3, fp, r9, r3
 2444 20a0 680000DA 		ble	.L154
 2445 20a4 DA90D2E1 		ldrsb	r9, [r2, #10]
 2446 20a8 DAB0D8E1 		ldrsb	fp, [r8, #10]
 2447 20ac 0BA08EE2 		add	r10, lr, #11
 2448 20b0 0A0051E1 		cmp	r1, r10
 2449 20b4 0C9089E0 		add	r9, r9, ip
 2450 20b8 9B3923E0 		mla	r3, fp, r9, r3
 2451 20bc 610000DA 		ble	.L154
 2452 20c0 DB90D2E1 		ldrsb	r9, [r2, #11]
 2453 20c4 DBB0D8E1 		ldrsb	fp, [r8, #11]
 2454 20c8 0CA08EE2 		add	r10, lr, #12
 2455 20cc 0A0051E1 		cmp	r1, r10
 2456 20d0 0C9089E0 		add	r9, r9, ip
 2457 20d4 9B3923E0 		mla	r3, fp, r9, r3
 2458 20d8 5A0000DA 		ble	.L154
 2459 20dc DC90D2E1 		ldrsb	r9, [r2, #12]
 2460 20e0 DCB0D8E1 		ldrsb	fp, [r8, #12]
 2461 20e4 0DA08EE2 		add	r10, lr, #13
 2462 20e8 0A0051E1 		cmp	r1, r10
 2463 20ec 0C9089E0 		add	r9, r9, ip
 2464 20f0 9B3923E0 		mla	r3, fp, r9, r3
 2465 20f4 530000DA 		ble	.L154
 2466 20f8 DD90D2E1 		ldrsb	r9, [r2, #13]
 2467 20fc DDA0D8E1 		ldrsb	r10, [r8, #13]
 2468 2100 0EE08EE2 		add	lr, lr, #14
 2469 2104 0E0051E1 		cmp	r1, lr
 2470 2108 0C9089E0 		add	r9, r9, ip
 2471 210c 9A3923E0 		mla	r3, r10, r9, r3
 2472 2110 4C0000DA 		ble	.L154
 2473 2114 DEE0D2E1 		ldrsb	lr, [r2, #14]
 2474 2118 012080E0 		add	r2, r0, r1
 2475 211c DE00D8E1 		ldrsb	r0, [r8, #14]
 2476 2120 0CE08EE0 		add	lr, lr, ip
 2477 2124 903E23E0 		mla	r3, r0, lr, r3
 2478              	.L76:
 2479 2128 0200A0E1 		mov	r0, r2
 2480              	.L65:
 2481 212c 04209DE5 		ldr	r2, [sp, #4]
 2482 2130 0050A0E3 		mov	r5, #0
 2483 2134 008096E5 		ldr	r8, [r6]
 2484 2138 0141A0E3 		mov	r4, #1073741824
 2485 213c 04A0A0E1 		mov	r10, r4
 2486 2140 05B0A0E1 		mov	fp, r5
 2487 2144 00E092E5 		ldr	lr, [r2]
 2488 2148 05005EE1 		cmp	lr, r5
 2489 214c CE2FCEE1 		bic	r2, lr, lr, asr #31
 2490 2150 1332A0E1 		lsl	r3, r3, r2
 2491 2154 98A3EBE0 		smlal	r10, fp, r8, r3
 2492 2158 AA2FA0E1 		lsr	r2, r10, #31
 2493 215c 8B2082E1 		orr	r2, r2, fp, lsl #1
 2494 2160 0280A0E1 		mov	r8, r2
 2495 2164 2C0000DA 		ble	.L165
 2496              	.L77:
 2497 2168 68319DE5 		ldr	r3, [sp, #360]
 2498 216c 017087E2 		add	r7, r7, #1
 2499 2170 6C219DE5 		ldr	r2, [sp, #364]
 2500 2174 5CE19DE5 		ldr	lr, [sp, #348]
 2501 2178 083083E0 		add	r3, r3, r8
 2502 217c 030052E1 		cmp	r2, r3
 2503 2180 0230A0A1 		movge	r3, r2
 2504 2184 70219DE5 		ldr	r2, [sp, #368]
 2505 2188 030052E1 		cmp	r2, r3
 2506 218c 0230A0B1 		movlt	r3, r2
 2507 2190 58219DE5 		ldr	r2, [sp, #344]
 2508 2194 070052E1 		cmp	r2, r7
 2509 2198 94209DE5 		ldr	r2, [sp, #148]
 2510 219c 0E30C2E6 		strb	r3, [r2], lr
 2511 21a0 94208DE5 		str	r2, [sp, #148]
 2512 21a4 C8FEFF1A 		bne	.L79
 2513              	.L113:
 2514 21a8 0000A0E3 		mov	r0, #0
 2515 21ac ECD08DE2 		add	sp, sp, #236
 2516              		@ sp needed
 2517 21b0 108BBDEC 		vldm	sp!, {d8-d15}
 2518 21b4 F08FBDE8 		pop	{r4, r5, r6, r7, r8, r9, r10, fp, pc}
 2519              	.L84:
 2520 21b8 5000C0F2 		vmov.i32	q8, #0  @ v4si
 2521 21bc 04E0A0E1 		mov	lr, r4
 2522 21c0 0040A0E3 		mov	r4, #0
 2523 21c4 03C0A0E1 		mov	ip, r3
 2524 21c8 04408DE5 		str	r4, [sp, #4]
 2525 21cc F0E160F2 		vmov	q15, q8  @ v4si
 2526 21d0 F04120F2 		vmov	q2, q8  @ v4si
 2527 21d4 F0E120F2 		vmov	q7, q8  @ v4si
 2528 21d8 61FAFFEA 		b	.L22
 2529              	.L80:
 2530 21dc 0030A0E3 		mov	r3, #0
 2531 21e0 00E0A0E1 		mov	lr, r0
 2532 21e4 0310A0E1 		mov	r1, r3
 2533 21e8 0390A0E1 		mov	r9, r3
 2534 21ec 60419DE5 		ldr	r4, [sp, #352]
 2535 21f0 4AF8FFEA 		b	.L5
 2536              	.L4:
 2537 21f4 0030A0E1 		mov	r3, r0
 2538 21f8 02E0A0E1 		mov	lr, r2
 2539 21fc 0190A0E1 		mov	r9, r1
 2540              	.L13:
 2541 2200 D1C0D3E0 		ldrsb	ip, [r3], #1
 2542 2204 D100D2E0 		ldrsb	r0, [r2], #1
 2543 2208 0E0053E1 		cmp	r3, lr
 2544 220c 0C9089E0 		add	r9, r9, ip
 2545 2210 001081E0 		add	r1, r1, r0
 2546 2214 F9FFFF1A 		bne	.L13
 2547 2218 B6F8FFEA 		b	.L14
 2548              	.L165:
 2549 221c 00E06EE2 		rsb	lr, lr, #0
 2550 2220 0180A0E3 		mov	r8, #1
 2551 2224 183EA0E1 		lsl	r3, r8, lr
 2552 2228 528EB0E1 		asrs	r8, r2, lr
 2553 222c 013043E2 		sub	r3, r3, #1
 2554 2230 032002E0 		and	r2, r2, r3
 2555 2234 C330A0E1 		asr	r3, r3, #1
 2556 2238 01308342 		addmi	r3, r3, #1
 2557 223c 030052E1 		cmp	r2, r3
 2558 2240 018088C2 		addgt	r8, r8, #1
 2559 2244 C7FFFFEA 		b	.L77
 2560              	.L154:
 2561 2248 012080E0 		add	r2, r0, r1
 2562 224c B5FFFFEA 		b	.L76
 2563              	.L164:
 2564 2250 00C06CE2 		rsb	ip, ip, #0
 2565 2254 0010E0E3 		mvn	r1, #0
 2566 2258 503CB0E1 		asrs	r3, r0, ip
 2567 225c 11CCE0E1 		mvn	ip, r1, lsl ip
 2568 2260 CC10A0E1 		asr	r1, ip, #1
 2569 2264 0C0000E0 		and	r0, r0, ip
 2570 2268 01108142 		addmi	r1, r1, #1
 2571 226c 010050E1 		cmp	r0, r1
 2572 2270 013083C2 		addgt	r3, r3, #1
 2573 2274 40FEFFEA 		b	.L57
 2574              	.L163:
 2575 2278 003063E2 		rsb	r3, r3, #0
 2576 227c 0010E0E3 		mvn	r1, #0
 2577 2280 5023B0E1 		asrs	r2, r0, r3
 2578 2284 1133E0E1 		mvn	r3, r1, lsl r3
 2579 2288 030000E0 		and	r0, r0, r3
 2580 228c C330A0E1 		asr	r3, r3, #1
 2581 2290 01308342 		addmi	r3, r3, #1
 2582 2294 030050E1 		cmp	r0, r3
 2583 2298 012082C2 		addgt	r2, r2, #1
 2584 229c 22FEFFEA 		b	.L55
 2585              	.L66:
 2586 22a0 018048E2 		sub	r8, r8, #1
 2587 22a4 012080E0 		add	r2, r0, r1
 2588              	.L75:
 2589 22a8 D1E0D0E0 		ldrsb	lr, [r0], #1
 2590 22ac D190F8E1 		ldrsb	r9, [r8, #1]!
 2591 22b0 020050E1 		cmp	r0, r2
 2592 22b4 0CE08EE0 		add	lr, lr, ip
 2593 22b8 993E23E0 		mla	r3, r9, lr, r3
 2594 22bc F9FFFF1A 		bne	.L75
 2595 22c0 98FFFFEA 		b	.L76
 2596              	.L82:
 2597 22c4 AC309DE5 		ldr	r3, [sp, #172]
 2598 22c8 28308DE5 		str	r3, [sp, #40]
 2599 22cc 0FFCFFEA 		b	.L16
 2600              	.L44:
 2601 22d0 0E10A0E1 		mov	r1, lr
 2602 22d4 04408EE0 		add	r4, lr, r4
 2603 22d8 68C09DE5 		ldr	ip, [sp, #104]
 2604 22dc 013043E2 		sub	r3, r3, #1
 2605 22e0 6CE09DE5 		ldr	lr, [sp, #108]
 2606              	.L53:
 2607 22e4 D100D1E0 		ldrsb	r0, [r1], #1
 2608 22e8 D160F3E1 		ldrsb	r6, [r3, #1]!
 2609 22ec D150D2E0 		ldrsb	r5, [r2], #1
 2610 22f0 040051E1 		cmp	r1, r4
 2611 22f4 86C00CE1 		smlabb	ip, r6, r0, ip
 2612 22f8 85E00EE1 		smlabb	lr, r5, r0, lr
 2613 22fc F8FFFF1A 		bne	.L53
 2614 2300 68C08DE5 		str	ip, [sp, #104]
 2615 2304 6CE08DE5 		str	lr, [sp, #108]
 2616 2308 F5FDFFEA 		b	.L43
 2617              	.L81:
 2618 230c 5000C0F2 		vmov.i32	q8, #0  @ v4si
 2619 2310 0030A0E1 		mov	r3, r0
 2620 2314 0010A0E3 		mov	r1, #0
 2621 2318 D0009DE5 		ldr	r0, [sp, #208]
 2622 231c F06160F2 		vmov	q11, q8  @ v4si
 2623 2320 D7F7FFEA 		b	.L11
 2624              	.L90:
 2625 2324 50309DE5 		ldr	r3, [sp, #80]
 2626 2328 0010A0E3 		mov	r1, #0
 2627 232c 79FCFFEA 		b	.L41
 2628              	.L94:
 2629 2330 08A0A0E1 		mov	r10, r8
 2630 2334 5000C0F2 		vmov.i32	q8, #0  @ v4si
 2631 2338 0090A0E1 		mov	r9, r0
 2632 233c 0020A0E3 		mov	r2, #0
 2633 2340 B5FEFFEA 		b	.L68
 2634              	.L91:
 2635 2344 5020C0F2 		vmov.i32	q9, #0  @ v4si
 2636 2348 0E80A0E1 		mov	r8, lr
 2637 234c 0300A0E1 		mov	r0, r3
 2638 2350 0060A0E3 		mov	r6, #0
 2639 2354 F22122F2 		vmov	q1, q9  @ v4si
 2640 2358 D2FCFFEA 		b	.L51
 2642              		.ident	"GCC: (GNU Tools for ARM Embedded Processors 6-2017-q2-update) 6.3.1 20170620 (release) [AR
DEFINED SYMBOLS
                            *ABS*:00000000 arm_nn_mat_mult_nt_t_s8.c
C:\Users\a5050395\AppData\Local\Temp\ccatrJba.s:14     .text.arm_nn_mat_mult_nt_t_s8:00000000 $a
C:\Users\a5050395\AppData\Local\Temp\ccatrJba.s:20     .text.arm_nn_mat_mult_nt_t_s8:00000000 arm_nn_mat_mult_nt_t_s8

UNDEFINED SYMBOLS
memcpy
