   1              		.cpu cortex-a9
   2              		.eabi_attribute 28, 1
   3              		.eabi_attribute 20, 1
   4              		.eabi_attribute 21, 1
   5              		.eabi_attribute 23, 3
   6              		.eabi_attribute 24, 1
   7              		.eabi_attribute 25, 1
   8              		.eabi_attribute 26, 1
   9              		.eabi_attribute 30, 2
  10              		.eabi_attribute 34, 0
  11              		.eabi_attribute 18, 4
  12              		.file	"camera_mipi_imx219_b.c"
  13              		.section	.text.Init_Camera,"ax",%progbits
  14              		.align	2
  15              		.global	Init_Camera
  16              		.syntax unified
  17              		.arm
  18              		.fpu neon
  20              	Init_Camera:
  21              		@ args = 0, pretend = 0, frame = 24
  22              		@ frame_needed = 0, uses_anonymous_args = 0
  23 0000 000000E3 		movw	r0, #:lower16:.LC2
  24 0004 F0432DE9 		push	{r4, r5, r6, r7, r8, r9, lr}
  25 0008 0210A0E3 		mov	r1, #2
  26 000c 1CD04DE2 		sub	sp, sp, #28
  27 0010 000040E3 		movt	r0, #:upper16:.LC2
  28 0014 004000E3 		movw	r4, #:lower16:.LANCHOR0
  29 0018 FEFFFFEB 		bl	open
  30 001c 004040E3 		movt	r4, #:upper16:.LANCHOR0
  31 0020 000050E3 		cmp	r0, #0
  32 0024 0260A0E3 		mov	r6, #2
  33 0028 0030A0E3 		mov	r3, #0
  34 002c 0150A0E3 		mov	r5, #1
  35 0030 000094B5 		ldrlt	r0, [r4]
  36 0034 01CCA0E3 		mov	ip, #256
  37 0038 08208DE2 		add	r2, sp, #8
  38 003c 2070A0E3 		mov	r7, #32
  39 0040 0230CDE5 		strb	r3, [sp, #2]
  40 0044 0410A0E3 		mov	r1, #4
  41 0048 06308DE0 		add	r3, sp, r6
  42 004c 000084A5 		strge	r0, [r4]
  43 0050 0CC08DE5 		str	ip, [sp, #12]
  44 0054 14308DE5 		str	r3, [sp, #20]
  45 0058 B870CDE1 		strh	r7, [sp, #8]	@ movhi
  46 005c 0A60CDE5 		strb	r6, [sp, #10]
  47 0060 10508DE5 		str	r5, [sp, #16]
  48 0064 FEFFFFEB 		bl	control
  49 0068 05308DE0 		add	r3, sp, r5
  50 006c 03C100E3 		movw	ip, #259
  51 0070 08208DE2 		add	r2, sp, #8
  52 0074 0410A0E3 		mov	r1, #4
  53 0078 000094E5 		ldr	r0, [r4]
  54 007c 14308DE5 		str	r3, [sp, #20]
  55 0080 0150CDE5 		strb	r5, [sp, #1]
  56 0084 B870CDE1 		strh	r7, [sp, #8]	@ movhi
  57 0088 0A60CDE5 		strb	r6, [sp, #10]
  58 008c 10508DE5 		str	r5, [sp, #16]
  59 0090 0CC08DE5 		str	ip, [sp, #12]
  60 0094 FEFFFFEB 		bl	control
  61 0098 1D3CA0E3 		mov	r3, #7424
  62 009c 103040E3 		movt	r3, 16
  63 00a0 04308DE5 		str	r3, [sp, #4]
  64 00a4 04309DE5 		ldr	r3, [sp, #4]
  65 00a8 000053E3 		cmp	r3, #0
  66 00ac 0500000A 		beq	.L6
  67              	.L9:
  68 00b0 04309DE5 		ldr	r3, [sp, #4]
  69 00b4 013043E2 		sub	r3, r3, #1
  70 00b8 04308DE5 		str	r3, [sp, #4]
  71 00bc 04309DE5 		ldr	r3, [sp, #4]
  72 00c0 000053E3 		cmp	r3, #0
  73 00c4 F9FFFF1A 		bne	.L9
  74              	.L6:
  75 00c8 0030A0E3 		mov	r3, #0
  76 00cc 008000E3 		movw	r8, #:lower16:g_mipi_reg_init_table
  77 00d0 04308DE5 		str	r3, [sp, #4]
  78 00d4 008040E3 		movt	r8, #:upper16:g_mipi_reg_init_table
  79 00d8 2070A0E3 		mov	r7, #32
  80 00dc 0260A0E3 		mov	r6, #2
  81 00e0 0150A0E3 		mov	r5, #1
  82 00e4 170000EA 		b	.L5
  83              	.L7:
  84 00e8 04E09DE5 		ldr	lr, [sp, #4]
  85 00ec 04C09DE5 		ldr	ip, [sp, #4]
  86 00f0 04309DE5 		ldr	r3, [sp, #4]
  87 00f4 000094E5 		ldr	r0, [r4]
  88 00f8 8EE08EE0 		add	lr, lr, lr, lsl #1
  89 00fc B870CDE1 		strh	r7, [sp, #8]	@ movhi
  90 0100 8CC08CE0 		add	ip, ip, ip, lsl #1
  91 0104 0A60CDE5 		strb	r6, [sp, #10]
  92 0108 0EE0D8E7 		ldrb	lr, [r8, lr]	@ zero_extendqisi2
  93 010c 833083E0 		add	r3, r3, r3, lsl #1
  94 0110 0CC088E0 		add	ip, r8, ip
  95 0114 10508DE5 		str	r5, [sp, #16]
  96 0118 01C0DCE5 		ldrb	ip, [ip, #1]	@ zero_extendqisi2
  97 011c 033088E0 		add	r3, r8, r3
  98 0120 0290D3E5 		ldrb	r9, [r3, #2]	@ zero_extendqisi2
  99 0124 03308DE2 		add	r3, sp, #3
 100 0128 14308DE5 		str	r3, [sp, #20]
 101 012c 0E348CE1 		orr	r3, ip, lr, lsl #8
 102 0130 0390CDE5 		strb	r9, [sp, #3]
 103 0134 0C308DE5 		str	r3, [sp, #12]
 104 0138 FEFFFFEB 		bl	control
 105 013c 04309DE5 		ldr	r3, [sp, #4]
 106 0140 013083E2 		add	r3, r3, #1
 107 0144 04308DE5 		str	r3, [sp, #4]
 108              	.L5:
 109 0148 04309DE5 		ldr	r3, [sp, #4]
 110 014c 08208DE2 		add	r2, sp, #8
 111 0150 0410A0E3 		mov	r1, #4
 112 0154 833083E0 		add	r3, r3, r3, lsl #1
 113 0158 0330D8E7 		ldrb	r3, [r8, r3]	@ zero_extendqisi2
 114 015c FF0053E3 		cmp	r3, #255
 115 0160 E0FFFF1A 		bne	.L7
 116 0164 04309DE5 		ldr	r3, [sp, #4]
 117 0168 833083E0 		add	r3, r3, r3, lsl #1
 118 016c 033088E0 		add	r3, r8, r3
 119 0170 0130D3E5 		ldrb	r3, [r3, #1]	@ zero_extendqisi2
 120 0174 FF0053E3 		cmp	r3, #255
 121 0178 DAFFFF1A 		bne	.L7
 122 017c 04309DE5 		ldr	r3, [sp, #4]
 123 0180 833083E0 		add	r3, r3, r3, lsl #1
 124 0184 033088E0 		add	r3, r8, r3
 125 0188 0230D3E5 		ldrb	r3, [r3, #2]	@ zero_extendqisi2
 126 018c FF0053E3 		cmp	r3, #255
 127 0190 D4FFFF1A 		bne	.L7
 128 0194 1CD08DE2 		add	sp, sp, #28
 129              		@ sp needed
 130 0198 F083BDE8 		pop	{r4, r5, r6, r7, r8, r9, pc}
 132              		.section	.text.Start_Camera,"ax",%progbits
 133              		.align	2
 134              		.global	Start_Camera
 135              		.syntax unified
 136              		.arm
 137              		.fpu neon
 139              	Start_Camera:
 140              		@ args = 0, pretend = 0, frame = 24
 141              		@ frame_needed = 0, uses_anonymous_args = 0
 142 0000 003000E3 		movw	r3, #:lower16:.LANCHOR0
 143 0004 30402DE9 		push	{r4, r5, lr}
 144 0008 003040E3 		movt	r3, #:upper16:.LANCHOR0
 145 000c 1CD04DE2 		sub	sp, sp, #28
 146 0010 01C0A0E3 		mov	ip, #1
 147 0014 01ECA0E3 		mov	lr, #256
 148 0018 2050A0E3 		mov	r5, #32
 149 001c 000093E5 		ldr	r0, [r3]
 150 0020 0240A0E3 		mov	r4, #2
 151 0024 07308DE2 		add	r3, sp, #7
 152 0028 08208DE2 		add	r2, sp, #8
 153 002c 0410A0E3 		mov	r1, #4
 154 0030 07C0CDE5 		strb	ip, [sp, #7]
 155 0034 10C08DE5 		str	ip, [sp, #16]
 156 0038 B850CDE1 		strh	r5, [sp, #8]	@ movhi
 157 003c 0A40CDE5 		strb	r4, [sp, #10]
 158 0040 0CE08DE5 		str	lr, [sp, #12]
 159 0044 14308DE5 		str	r3, [sp, #20]
 160 0048 FEFFFFEB 		bl	control
 161 004c 1CD08DE2 		add	sp, sp, #28
 162              		@ sp needed
 163 0050 3080BDE8 		pop	{r4, r5, pc}
 165              		.section	.text.RIIC_MipiWrite,"ax",%progbits
 166              		.align	2
 167              		.global	RIIC_MipiWrite
 168              		.syntax unified
 169              		.arm
 170              		.fpu neon
 172              	RIIC_MipiWrite:
 173              		@ args = 0, pretend = 0, frame = 24
 174              		@ frame_needed = 0, uses_anonymous_args = 0
 175 0000 00C000E3 		movw	ip, #:lower16:.LANCHOR0
 176 0004 30402DE9 		push	{r4, r5, lr}
 177 0008 00C040E3 		movt	ip, #:upper16:.LANCHOR0
 178 000c 1CD04DE2 		sub	sp, sp, #28
 179 0010 015482E1 		orr	r5, r2, r1, lsl #8
 180 0014 01E0A0E3 		mov	lr, #1
 181 0018 B800CDE1 		strh	r0, [sp, #8]	@ movhi
 182 001c 0240A0E3 		mov	r4, #2
 183 0020 00009CE5 		ldr	r0, [ip]
 184 0024 08208DE2 		add	r2, sp, #8
 185 0028 07C08DE2 		add	ip, sp, #7
 186 002c 0410A0E3 		mov	r1, #4
 187 0030 0C508DE5 		str	r5, [sp, #12]
 188 0034 0730CDE5 		strb	r3, [sp, #7]
 189 0038 0A40CDE5 		strb	r4, [sp, #10]
 190 003c 10E08DE5 		str	lr, [sp, #16]
 191 0040 14C08DE5 		str	ip, [sp, #20]
 192 0044 FEFFFFEB 		bl	control
 193 0048 1CD08DE2 		add	sp, sp, #28
 194              		@ sp needed
 195 004c 3080BDE8 		pop	{r4, r5, pc}
 197              		.section	.text.R_BCD_gain_setting,"ax",%progbits
 198              		.align	2
 199              		.global	R_BCD_gain_setting
 200              		.syntax unified
 201              		.arm
 202              		.fpu neon
 204              	R_BCD_gain_setting:
 205              		@ args = 0, pretend = 0, frame = 24
 206              		@ frame_needed = 0, uses_anonymous_args = 0
 207 0000 E80050E3 		cmp	r0, #232
 208 0004 003000E3 		movw	r3, #:lower16:.LANCHOR0
 209 0008 30402DE9 		push	{r4, r5, lr}
 210 000c 0010A031 		movcc	r1, r0
 211 0010 1CD04DE2 		sub	sp, sp, #28
 212 0014 E810A023 		movcs	r1, #232
 213 0018 003040E3 		movt	r3, #:upper16:.LANCHOR0
 214 001c 57E100E3 		movw	lr, #343
 215 0020 01C0A0E3 		mov	ip, #1
 216 0024 0710CDE5 		strb	r1, [sp, #7]
 217 0028 2050A0E3 		mov	r5, #32
 218 002c 000093E5 		ldr	r0, [r3]
 219 0030 0240A0E3 		mov	r4, #2
 220 0034 07308DE2 		add	r3, sp, #7
 221 0038 08208DE2 		add	r2, sp, #8
 222 003c 0410A0E3 		mov	r1, #4
 223 0040 B850CDE1 		strh	r5, [sp, #8]	@ movhi
 224 0044 0A40CDE5 		strb	r4, [sp, #10]
 225 0048 0CE08DE5 		str	lr, [sp, #12]
 226 004c 10C08DE5 		str	ip, [sp, #16]
 227 0050 14308DE5 		str	r3, [sp, #20]
 228 0054 FEFFFFEB 		bl	control
 229 0058 1CD08DE2 		add	sp, sp, #28
 230              		@ sp needed
 231 005c 3080BDE8 		pop	{r4, r5, pc}
 233              		.section	.text.R_BCD_gain_table_setting,"ax",%progbits
 234              		.align	2
 235              		.global	R_BCD_gain_table_setting
 236              		.syntax unified
 237              		.arm
 238              		.fpu neon
 240              	R_BCD_gain_table_setting:
 241              		@ args = 0, pretend = 0, frame = 24
 242              		@ frame_needed = 0, uses_anonymous_args = 0
 243 0000 100050E3 		cmp	r0, #16
 244 0004 003000E3 		movw	r3, #:lower16:gain_table
 245 0008 1000A023 		movcs	r0, #16
 246 000c 003040E3 		movt	r3, #:upper16:gain_table
 247 0010 8000A0E1 		lsl	r0, r0, #1
 248 0014 002000E3 		movw	r2, #:lower16:.LANCHOR0
 249 0018 70402DE9 		push	{r4, r5, r6, lr}
 250 001c B03093E1 		ldrh	r3, [r3, r0]
 251 0020 18D04DE2 		sub	sp, sp, #24
 252 0024 002040E3 		movt	r2, #:upper16:.LANCHOR0
 253 0028 01E0A0E3 		mov	lr, #1
 254 002c 07C08DE2 		add	ip, sp, #7
 255 0030 2060A0E3 		mov	r6, #32
 256 0034 E80053E3 		cmp	r3, #232
 257 0038 000092E5 		ldr	r0, [r2]
 258 003c E830A023 		movcs	r3, #232
 259 0040 0250A0E3 		mov	r5, #2
 260 0044 574100E3 		movw	r4, #343
 261 0048 08208DE2 		add	r2, sp, #8
 262 004c 0410A0E3 		mov	r1, #4
 263 0050 0730CDE5 		strb	r3, [sp, #7]
 264 0054 B860CDE1 		strh	r6, [sp, #8]	@ movhi
 265 0058 0A50CDE5 		strb	r5, [sp, #10]
 266 005c 0C408DE5 		str	r4, [sp, #12]
 267 0060 10E08DE5 		str	lr, [sp, #16]
 268 0064 14C08DE5 		str	ip, [sp, #20]
 269 0068 FEFFFFEB 		bl	control
 270 006c 18D08DE2 		add	sp, sp, #24
 271              		@ sp needed
 272 0070 7080BDE8 		pop	{r4, r5, r6, pc}
 274              		.section	.text.R_BCD_shutter_setting,"ax",%progbits
 275              		.align	2
 276              		.global	R_BCD_shutter_setting
 277              		.syntax unified
 278              		.arm
 279              		.fpu neon
 281              	R_BCD_shutter_setting:
 282              		@ args = 0, pretend = 0, frame = 24
 283              		@ frame_needed = 0, uses_anonymous_args = 0
 284 0000 F0412DE9 		push	{r4, r5, r6, r7, r8, lr}
 285 0004 2034A0E1 		lsr	r3, r0, #8
 286 0008 004000E3 		movw	r4, #:lower16:.LANCHOR0
 287 000c 18D04DE2 		sub	sp, sp, #24
 288 0010 004040E3 		movt	r4, #:upper16:.LANCHOR0
 289 0014 0080A0E1 		mov	r8, r0
 290 0018 08208DE2 		add	r2, sp, #8
 291 001c 2070A0E3 		mov	r7, #32
 292 0020 0260A0E3 		mov	r6, #2
 293 0024 5AC100E3 		movw	ip, #346
 294 0028 0150A0E3 		mov	r5, #1
 295 002c 0730CDE5 		strb	r3, [sp, #7]
 296 0030 0410A0E3 		mov	r1, #4
 297 0034 07308DE2 		add	r3, sp, #7
 298 0038 000094E5 		ldr	r0, [r4]
 299 003c 0CC08DE5 		str	ip, [sp, #12]
 300 0040 14308DE5 		str	r3, [sp, #20]
 301 0044 B870CDE1 		strh	r7, [sp, #8]	@ movhi
 302 0048 0A60CDE5 		strb	r6, [sp, #10]
 303 004c 10508DE5 		str	r5, [sp, #16]
 304 0050 FEFFFFEB 		bl	control
 305 0054 5BC100E3 		movw	ip, #347
 306 0058 06308DE2 		add	r3, sp, #6
 307 005c 000094E5 		ldr	r0, [r4]
 308 0060 08208DE2 		add	r2, sp, #8
 309 0064 0410A0E3 		mov	r1, #4
 310 0068 0680CDE5 		strb	r8, [sp, #6]
 311 006c B870CDE1 		strh	r7, [sp, #8]	@ movhi
 312 0070 0A60CDE5 		strb	r6, [sp, #10]
 313 0074 10508DE5 		str	r5, [sp, #16]
 314 0078 0CC08DE5 		str	ip, [sp, #12]
 315 007c 14308DE5 		str	r3, [sp, #20]
 316 0080 FEFFFFEB 		bl	control
 317 0084 18D08DE2 		add	sp, sp, #24
 318              		@ sp needed
 319 0088 F081BDE8 		pop	{r4, r5, r6, r7, r8, pc}
 321              		.section	.text.getBayerMode,"ax",%progbits
 322              		.align	2
 323              		.global	getBayerMode
 324              		.syntax unified
 325              		.arm
 326              		.fpu neon
 328              	getBayerMode:
 329              		@ args = 0, pretend = 0, frame = 0
 330              		@ frame_needed = 0, uses_anonymous_args = 0
 331              		@ link register save eliminated.
 332 0000 0000A0E3 		mov	r0, #0
 333 0004 1EFF2FE1 		bx	lr
 335              		.global	hi2c2
 336              		.section	.data.hi2c2,"aw",%progbits
 337              		.align	2
 338              		.set	.LANCHOR0,. + 0
 341              	hi2c2:
 342 0000 FFFFFFFF 		.word	-1
 343              		.section	.rodata.Init_Camera.str1.4,"aMS",%progbits,1
 344              		.align	2
 345              	.LC2:
 346 0000 5C5C2E5C 		.ascii	"\\\\.\\riic2\000"
 346      72696963 
 346      3200
 347              		.ident	"GCC: (GNU Tools for ARM Embedded Processors 6-2017-q2-update) 6.3.1 20170620 (release) [AR