   1              		.cpu cortex-a9
   2              		.eabi_attribute 28, 1
   3              		.eabi_attribute 20, 1
   4              		.eabi_attribute 21, 1
   5              		.eabi_attribute 23, 3
   6              		.eabi_attribute 24, 1
   7              		.eabi_attribute 25, 1
   8              		.eabi_attribute 26, 1
   9              		.eabi_attribute 30, 2
  10              		.eabi_attribute 34, 0
  11              		.eabi_attribute 18, 4
  12              		.file	"arm_avgpool_s8.c"
  13              		.text
  14              	.Ltext0:
  15              		.cfi_sections	.debug_frame
  16              		.global	__aeabi_idiv
  17              		.section	.text.arm_avgpool_s8,"ax",%progbits
  18              		.align	2
  19              		.global	arm_avgpool_s8
  20              		.syntax unified
  21              		.arm
  22              		.fpu neon
  24              	arm_avgpool_s8:
  25              	.LFB123:
  26              		.file 1 "../src/tensorflow_lite/src/tensorflow/lite/micro/tools/make/downloads/cmsis/CMSIS/NN/Sour
   1:../src/tensorflow_lite/src/tensorflow/lite/micro/tools/make/downloads/cmsis/CMSIS/NN/Source/PoolingFunctions/arm_avgpool_s8.c **** /*
   2:../src/tensorflow_lite/src/tensorflow/lite/micro/tools/make/downloads/cmsis/CMSIS/NN/Source/PoolingFunctions/arm_avgpool_s8.c ****  * Copyright (C) 2010-2020 Arm Limited or its affiliates. All rights reserved.
   3:../src/tensorflow_lite/src/tensorflow/lite/micro/tools/make/downloads/cmsis/CMSIS/NN/Source/PoolingFunctions/arm_avgpool_s8.c ****  *
   4:../src/tensorflow_lite/src/tensorflow/lite/micro/tools/make/downloads/cmsis/CMSIS/NN/Source/PoolingFunctions/arm_avgpool_s8.c ****  * SPDX-License-Identifier: Apache-2.0
   5:../src/tensorflow_lite/src/tensorflow/lite/micro/tools/make/downloads/cmsis/CMSIS/NN/Source/PoolingFunctions/arm_avgpool_s8.c ****  *
   6:../src/tensorflow_lite/src/tensorflow/lite/micro/tools/make/downloads/cmsis/CMSIS/NN/Source/PoolingFunctions/arm_avgpool_s8.c ****  * Licensed under the Apache License, Version 2.0 (the License); you may
   7:../src/tensorflow_lite/src/tensorflow/lite/micro/tools/make/downloads/cmsis/CMSIS/NN/Source/PoolingFunctions/arm_avgpool_s8.c ****  * not use this file except in compliance with the License.
   8:../src/tensorflow_lite/src/tensorflow/lite/micro/tools/make/downloads/cmsis/CMSIS/NN/Source/PoolingFunctions/arm_avgpool_s8.c ****  * You may obtain a copy of the License at
   9:../src/tensorflow_lite/src/tensorflow/lite/micro/tools/make/downloads/cmsis/CMSIS/NN/Source/PoolingFunctions/arm_avgpool_s8.c ****  *
  10:../src/tensorflow_lite/src/tensorflow/lite/micro/tools/make/downloads/cmsis/CMSIS/NN/Source/PoolingFunctions/arm_avgpool_s8.c ****  * www.apache.org/licenses/LICENSE-2.0
  11:../src/tensorflow_lite/src/tensorflow/lite/micro/tools/make/downloads/cmsis/CMSIS/NN/Source/PoolingFunctions/arm_avgpool_s8.c ****  *
  12:../src/tensorflow_lite/src/tensorflow/lite/micro/tools/make/downloads/cmsis/CMSIS/NN/Source/PoolingFunctions/arm_avgpool_s8.c ****  * Unless required by applicable law or agreed to in writing, software
  13:../src/tensorflow_lite/src/tensorflow/lite/micro/tools/make/downloads/cmsis/CMSIS/NN/Source/PoolingFunctions/arm_avgpool_s8.c ****  * distributed under the License is distributed on an AS IS BASIS, WITHOUT
  14:../src/tensorflow_lite/src/tensorflow/lite/micro/tools/make/downloads/cmsis/CMSIS/NN/Source/PoolingFunctions/arm_avgpool_s8.c ****  * WARRANTIES OR CONDITIONS OF ANY KIND, either express or implied.
  15:../src/tensorflow_lite/src/tensorflow/lite/micro/tools/make/downloads/cmsis/CMSIS/NN/Source/PoolingFunctions/arm_avgpool_s8.c ****  * See the License for the specific language governing permissions and
  16:../src/tensorflow_lite/src/tensorflow/lite/micro/tools/make/downloads/cmsis/CMSIS/NN/Source/PoolingFunctions/arm_avgpool_s8.c ****  * limitations under the License.
  17:../src/tensorflow_lite/src/tensorflow/lite/micro/tools/make/downloads/cmsis/CMSIS/NN/Source/PoolingFunctions/arm_avgpool_s8.c ****  */
  18:../src/tensorflow_lite/src/tensorflow/lite/micro/tools/make/downloads/cmsis/CMSIS/NN/Source/PoolingFunctions/arm_avgpool_s8.c **** 
  19:../src/tensorflow_lite/src/tensorflow/lite/micro/tools/make/downloads/cmsis/CMSIS/NN/Source/PoolingFunctions/arm_avgpool_s8.c **** /* ----------------------------------------------------------------------
  20:../src/tensorflow_lite/src/tensorflow/lite/micro/tools/make/downloads/cmsis/CMSIS/NN/Source/PoolingFunctions/arm_avgpool_s8.c ****  * Project:      CMSIS NN Library
  21:../src/tensorflow_lite/src/tensorflow/lite/micro/tools/make/downloads/cmsis/CMSIS/NN/Source/PoolingFunctions/arm_avgpool_s8.c ****  * Title:        arm_avgpool_s8.c
  22:../src/tensorflow_lite/src/tensorflow/lite/micro/tools/make/downloads/cmsis/CMSIS/NN/Source/PoolingFunctions/arm_avgpool_s8.c ****  * Description:  Pooling function implementations
  23:../src/tensorflow_lite/src/tensorflow/lite/micro/tools/make/downloads/cmsis/CMSIS/NN/Source/PoolingFunctions/arm_avgpool_s8.c ****  *
  24:../src/tensorflow_lite/src/tensorflow/lite/micro/tools/make/downloads/cmsis/CMSIS/NN/Source/PoolingFunctions/arm_avgpool_s8.c ****  * $Date:        01. March 2021
  25:../src/tensorflow_lite/src/tensorflow/lite/micro/tools/make/downloads/cmsis/CMSIS/NN/Source/PoolingFunctions/arm_avgpool_s8.c ****  * $Revision:    V.2.0.4
  26:../src/tensorflow_lite/src/tensorflow/lite/micro/tools/make/downloads/cmsis/CMSIS/NN/Source/PoolingFunctions/arm_avgpool_s8.c ****  *
  27:../src/tensorflow_lite/src/tensorflow/lite/micro/tools/make/downloads/cmsis/CMSIS/NN/Source/PoolingFunctions/arm_avgpool_s8.c ****  * Target Processor:  Cortex-M CPUs
  28:../src/tensorflow_lite/src/tensorflow/lite/micro/tools/make/downloads/cmsis/CMSIS/NN/Source/PoolingFunctions/arm_avgpool_s8.c ****  *
  29:../src/tensorflow_lite/src/tensorflow/lite/micro/tools/make/downloads/cmsis/CMSIS/NN/Source/PoolingFunctions/arm_avgpool_s8.c ****  * -------------------------------------------------------------------- */
  30:../src/tensorflow_lite/src/tensorflow/lite/micro/tools/make/downloads/cmsis/CMSIS/NN/Source/PoolingFunctions/arm_avgpool_s8.c **** 
  31:../src/tensorflow_lite/src/tensorflow/lite/micro/tools/make/downloads/cmsis/CMSIS/NN/Source/PoolingFunctions/arm_avgpool_s8.c **** #include "tensorflow/lite/micro/tools/make/downloads/cmsis/CMSIS/NN/Include/arm_nnfunctions.h"
  32:../src/tensorflow_lite/src/tensorflow/lite/micro/tools/make/downloads/cmsis/CMSIS/NN/Source/PoolingFunctions/arm_avgpool_s8.c **** #include "tensorflow/lite/micro/tools/make/downloads/cmsis/CMSIS/NN/Include/arm_nnsupportfunctions.
  33:../src/tensorflow_lite/src/tensorflow/lite/micro/tools/make/downloads/cmsis/CMSIS/NN/Source/PoolingFunctions/arm_avgpool_s8.c **** 
  34:../src/tensorflow_lite/src/tensorflow/lite/micro/tools/make/downloads/cmsis/CMSIS/NN/Source/PoolingFunctions/arm_avgpool_s8.c **** #if defined(ARM_MATH_DSP) && !defined(ARM_MATH_MVEI)
  35:../src/tensorflow_lite/src/tensorflow/lite/micro/tools/make/downloads/cmsis/CMSIS/NN/Source/PoolingFunctions/arm_avgpool_s8.c **** 
  36:../src/tensorflow_lite/src/tensorflow/lite/micro/tools/make/downloads/cmsis/CMSIS/NN/Source/PoolingFunctions/arm_avgpool_s8.c **** static void scale_q31_to_q7_and_clamp(const q31_t *buffer,
  37:../src/tensorflow_lite/src/tensorflow/lite/micro/tools/make/downloads/cmsis/CMSIS/NN/Source/PoolingFunctions/arm_avgpool_s8.c ****                                       q7_t *target,
  38:../src/tensorflow_lite/src/tensorflow/lite/micro/tools/make/downloads/cmsis/CMSIS/NN/Source/PoolingFunctions/arm_avgpool_s8.c ****                                       int32_t length,
  39:../src/tensorflow_lite/src/tensorflow/lite/micro/tools/make/downloads/cmsis/CMSIS/NN/Source/PoolingFunctions/arm_avgpool_s8.c ****                                       const int32_t count,
  40:../src/tensorflow_lite/src/tensorflow/lite/micro/tools/make/downloads/cmsis/CMSIS/NN/Source/PoolingFunctions/arm_avgpool_s8.c ****                                       const int act_min,
  41:../src/tensorflow_lite/src/tensorflow/lite/micro/tools/make/downloads/cmsis/CMSIS/NN/Source/PoolingFunctions/arm_avgpool_s8.c ****                                       const int act_max)
  42:../src/tensorflow_lite/src/tensorflow/lite/micro/tools/make/downloads/cmsis/CMSIS/NN/Source/PoolingFunctions/arm_avgpool_s8.c **** {
  43:../src/tensorflow_lite/src/tensorflow/lite/micro/tools/make/downloads/cmsis/CMSIS/NN/Source/PoolingFunctions/arm_avgpool_s8.c ****     const int half_count = count / 2;
  44:../src/tensorflow_lite/src/tensorflow/lite/micro/tools/make/downloads/cmsis/CMSIS/NN/Source/PoolingFunctions/arm_avgpool_s8.c ****     for (int i = 0; i < length; i++)
  45:../src/tensorflow_lite/src/tensorflow/lite/micro/tools/make/downloads/cmsis/CMSIS/NN/Source/PoolingFunctions/arm_avgpool_s8.c ****     {
  46:../src/tensorflow_lite/src/tensorflow/lite/micro/tools/make/downloads/cmsis/CMSIS/NN/Source/PoolingFunctions/arm_avgpool_s8.c ****         int32_t sum = buffer[i] > 0 ? (buffer[i] + half_count) : (buffer[i] - half_count);
  47:../src/tensorflow_lite/src/tensorflow/lite/micro/tools/make/downloads/cmsis/CMSIS/NN/Source/PoolingFunctions/arm_avgpool_s8.c ****         sum = sum / count;
  48:../src/tensorflow_lite/src/tensorflow/lite/micro/tools/make/downloads/cmsis/CMSIS/NN/Source/PoolingFunctions/arm_avgpool_s8.c ****         sum = MAX(sum, act_min);
  49:../src/tensorflow_lite/src/tensorflow/lite/micro/tools/make/downloads/cmsis/CMSIS/NN/Source/PoolingFunctions/arm_avgpool_s8.c ****         sum = MIN(sum, act_max);
  50:../src/tensorflow_lite/src/tensorflow/lite/micro/tools/make/downloads/cmsis/CMSIS/NN/Source/PoolingFunctions/arm_avgpool_s8.c **** 
  51:../src/tensorflow_lite/src/tensorflow/lite/micro/tools/make/downloads/cmsis/CMSIS/NN/Source/PoolingFunctions/arm_avgpool_s8.c ****         target[i] = (q7_t)sum;
  52:../src/tensorflow_lite/src/tensorflow/lite/micro/tools/make/downloads/cmsis/CMSIS/NN/Source/PoolingFunctions/arm_avgpool_s8.c ****     }
  53:../src/tensorflow_lite/src/tensorflow/lite/micro/tools/make/downloads/cmsis/CMSIS/NN/Source/PoolingFunctions/arm_avgpool_s8.c **** }
  54:../src/tensorflow_lite/src/tensorflow/lite/micro/tools/make/downloads/cmsis/CMSIS/NN/Source/PoolingFunctions/arm_avgpool_s8.c **** #endif
  55:../src/tensorflow_lite/src/tensorflow/lite/micro/tools/make/downloads/cmsis/CMSIS/NN/Source/PoolingFunctions/arm_avgpool_s8.c **** 
  56:../src/tensorflow_lite/src/tensorflow/lite/micro/tools/make/downloads/cmsis/CMSIS/NN/Source/PoolingFunctions/arm_avgpool_s8.c **** /**
  57:../src/tensorflow_lite/src/tensorflow/lite/micro/tools/make/downloads/cmsis/CMSIS/NN/Source/PoolingFunctions/arm_avgpool_s8.c ****  *  @ingroup groupNN
  58:../src/tensorflow_lite/src/tensorflow/lite/micro/tools/make/downloads/cmsis/CMSIS/NN/Source/PoolingFunctions/arm_avgpool_s8.c ****  */
  59:../src/tensorflow_lite/src/tensorflow/lite/micro/tools/make/downloads/cmsis/CMSIS/NN/Source/PoolingFunctions/arm_avgpool_s8.c **** 
  60:../src/tensorflow_lite/src/tensorflow/lite/micro/tools/make/downloads/cmsis/CMSIS/NN/Source/PoolingFunctions/arm_avgpool_s8.c **** /**
  61:../src/tensorflow_lite/src/tensorflow/lite/micro/tools/make/downloads/cmsis/CMSIS/NN/Source/PoolingFunctions/arm_avgpool_s8.c ****  * @addtogroup Pooling
  62:../src/tensorflow_lite/src/tensorflow/lite/micro/tools/make/downloads/cmsis/CMSIS/NN/Source/PoolingFunctions/arm_avgpool_s8.c ****  * @{
  63:../src/tensorflow_lite/src/tensorflow/lite/micro/tools/make/downloads/cmsis/CMSIS/NN/Source/PoolingFunctions/arm_avgpool_s8.c ****  */
  64:../src/tensorflow_lite/src/tensorflow/lite/micro/tools/make/downloads/cmsis/CMSIS/NN/Source/PoolingFunctions/arm_avgpool_s8.c **** 
  65:../src/tensorflow_lite/src/tensorflow/lite/micro/tools/make/downloads/cmsis/CMSIS/NN/Source/PoolingFunctions/arm_avgpool_s8.c **** /*
  66:../src/tensorflow_lite/src/tensorflow/lite/micro/tools/make/downloads/cmsis/CMSIS/NN/Source/PoolingFunctions/arm_avgpool_s8.c ****  * s8 average pooling function
  67:../src/tensorflow_lite/src/tensorflow/lite/micro/tools/make/downloads/cmsis/CMSIS/NN/Source/PoolingFunctions/arm_avgpool_s8.c ****  *
  68:../src/tensorflow_lite/src/tensorflow/lite/micro/tools/make/downloads/cmsis/CMSIS/NN/Source/PoolingFunctions/arm_avgpool_s8.c ****  * Refer to header file for details.
  69:../src/tensorflow_lite/src/tensorflow/lite/micro/tools/make/downloads/cmsis/CMSIS/NN/Source/PoolingFunctions/arm_avgpool_s8.c ****  *
  70:../src/tensorflow_lite/src/tensorflow/lite/micro/tools/make/downloads/cmsis/CMSIS/NN/Source/PoolingFunctions/arm_avgpool_s8.c ****  */
  71:../src/tensorflow_lite/src/tensorflow/lite/micro/tools/make/downloads/cmsis/CMSIS/NN/Source/PoolingFunctions/arm_avgpool_s8.c **** 
  72:../src/tensorflow_lite/src/tensorflow/lite/micro/tools/make/downloads/cmsis/CMSIS/NN/Source/PoolingFunctions/arm_avgpool_s8.c **** #if defined(ARM_MATH_MVEI)
  73:../src/tensorflow_lite/src/tensorflow/lite/micro/tools/make/downloads/cmsis/CMSIS/NN/Source/PoolingFunctions/arm_avgpool_s8.c **** 
  74:../src/tensorflow_lite/src/tensorflow/lite/micro/tools/make/downloads/cmsis/CMSIS/NN/Source/PoolingFunctions/arm_avgpool_s8.c **** arm_status arm_avgpool_s8(const cmsis_nn_context *ctx,
  75:../src/tensorflow_lite/src/tensorflow/lite/micro/tools/make/downloads/cmsis/CMSIS/NN/Source/PoolingFunctions/arm_avgpool_s8.c ****                           const cmsis_nn_pool_params *pool_params,
  76:../src/tensorflow_lite/src/tensorflow/lite/micro/tools/make/downloads/cmsis/CMSIS/NN/Source/PoolingFunctions/arm_avgpool_s8.c ****                           const cmsis_nn_dims *input_dims,
  77:../src/tensorflow_lite/src/tensorflow/lite/micro/tools/make/downloads/cmsis/CMSIS/NN/Source/PoolingFunctions/arm_avgpool_s8.c ****                           const q7_t *src,
  78:../src/tensorflow_lite/src/tensorflow/lite/micro/tools/make/downloads/cmsis/CMSIS/NN/Source/PoolingFunctions/arm_avgpool_s8.c ****                           const cmsis_nn_dims *filter_dims,
  79:../src/tensorflow_lite/src/tensorflow/lite/micro/tools/make/downloads/cmsis/CMSIS/NN/Source/PoolingFunctions/arm_avgpool_s8.c ****                           const cmsis_nn_dims *output_dims,
  80:../src/tensorflow_lite/src/tensorflow/lite/micro/tools/make/downloads/cmsis/CMSIS/NN/Source/PoolingFunctions/arm_avgpool_s8.c ****                           q7_t *dst)
  81:../src/tensorflow_lite/src/tensorflow/lite/micro/tools/make/downloads/cmsis/CMSIS/NN/Source/PoolingFunctions/arm_avgpool_s8.c **** {
  82:../src/tensorflow_lite/src/tensorflow/lite/micro/tools/make/downloads/cmsis/CMSIS/NN/Source/PoolingFunctions/arm_avgpool_s8.c ****     (void)ctx;
  83:../src/tensorflow_lite/src/tensorflow/lite/micro/tools/make/downloads/cmsis/CMSIS/NN/Source/PoolingFunctions/arm_avgpool_s8.c ****     const int32_t input_y = input_dims->h;
  84:../src/tensorflow_lite/src/tensorflow/lite/micro/tools/make/downloads/cmsis/CMSIS/NN/Source/PoolingFunctions/arm_avgpool_s8.c ****     const int32_t input_x = input_dims->w;
  85:../src/tensorflow_lite/src/tensorflow/lite/micro/tools/make/downloads/cmsis/CMSIS/NN/Source/PoolingFunctions/arm_avgpool_s8.c ****     const int32_t output_y = output_dims->h;
  86:../src/tensorflow_lite/src/tensorflow/lite/micro/tools/make/downloads/cmsis/CMSIS/NN/Source/PoolingFunctions/arm_avgpool_s8.c ****     const int32_t output_x = output_dims->w;
  87:../src/tensorflow_lite/src/tensorflow/lite/micro/tools/make/downloads/cmsis/CMSIS/NN/Source/PoolingFunctions/arm_avgpool_s8.c ****     const int32_t stride_y = pool_params->stride.h;
  88:../src/tensorflow_lite/src/tensorflow/lite/micro/tools/make/downloads/cmsis/CMSIS/NN/Source/PoolingFunctions/arm_avgpool_s8.c ****     const int32_t stride_x = pool_params->stride.w;
  89:../src/tensorflow_lite/src/tensorflow/lite/micro/tools/make/downloads/cmsis/CMSIS/NN/Source/PoolingFunctions/arm_avgpool_s8.c ****     const int32_t kernel_y = filter_dims->h;
  90:../src/tensorflow_lite/src/tensorflow/lite/micro/tools/make/downloads/cmsis/CMSIS/NN/Source/PoolingFunctions/arm_avgpool_s8.c ****     const int32_t kernel_x = filter_dims->w;
  91:../src/tensorflow_lite/src/tensorflow/lite/micro/tools/make/downloads/cmsis/CMSIS/NN/Source/PoolingFunctions/arm_avgpool_s8.c ****     const int32_t pad_y = pool_params->padding.h;
  92:../src/tensorflow_lite/src/tensorflow/lite/micro/tools/make/downloads/cmsis/CMSIS/NN/Source/PoolingFunctions/arm_avgpool_s8.c ****     const int32_t pad_x = pool_params->padding.w;
  93:../src/tensorflow_lite/src/tensorflow/lite/micro/tools/make/downloads/cmsis/CMSIS/NN/Source/PoolingFunctions/arm_avgpool_s8.c ****     const int32_t act_min = pool_params->activation.min;
  94:../src/tensorflow_lite/src/tensorflow/lite/micro/tools/make/downloads/cmsis/CMSIS/NN/Source/PoolingFunctions/arm_avgpool_s8.c ****     const int32_t act_max = pool_params->activation.max;
  95:../src/tensorflow_lite/src/tensorflow/lite/micro/tools/make/downloads/cmsis/CMSIS/NN/Source/PoolingFunctions/arm_avgpool_s8.c ****     const int32_t ch_src = input_dims->c;
  96:../src/tensorflow_lite/src/tensorflow/lite/micro/tools/make/downloads/cmsis/CMSIS/NN/Source/PoolingFunctions/arm_avgpool_s8.c **** 
  97:../src/tensorflow_lite/src/tensorflow/lite/micro/tools/make/downloads/cmsis/CMSIS/NN/Source/PoolingFunctions/arm_avgpool_s8.c ****     int32_t i_x, i_y;
  98:../src/tensorflow_lite/src/tensorflow/lite/micro/tools/make/downloads/cmsis/CMSIS/NN/Source/PoolingFunctions/arm_avgpool_s8.c ****     int32_t k_x, k_y;
  99:../src/tensorflow_lite/src/tensorflow/lite/micro/tools/make/downloads/cmsis/CMSIS/NN/Source/PoolingFunctions/arm_avgpool_s8.c **** 
 100:../src/tensorflow_lite/src/tensorflow/lite/micro/tools/make/downloads/cmsis/CMSIS/NN/Source/PoolingFunctions/arm_avgpool_s8.c ****     for (i_y = 0; i_y < output_y; i_y++)
 101:../src/tensorflow_lite/src/tensorflow/lite/micro/tools/make/downloads/cmsis/CMSIS/NN/Source/PoolingFunctions/arm_avgpool_s8.c ****     {
 102:../src/tensorflow_lite/src/tensorflow/lite/micro/tools/make/downloads/cmsis/CMSIS/NN/Source/PoolingFunctions/arm_avgpool_s8.c ****         for (i_x = 0; i_x < output_x; i_x++)
 103:../src/tensorflow_lite/src/tensorflow/lite/micro/tools/make/downloads/cmsis/CMSIS/NN/Source/PoolingFunctions/arm_avgpool_s8.c ****         {
 104:../src/tensorflow_lite/src/tensorflow/lite/micro/tools/make/downloads/cmsis/CMSIS/NN/Source/PoolingFunctions/arm_avgpool_s8.c **** 
 105:../src/tensorflow_lite/src/tensorflow/lite/micro/tools/make/downloads/cmsis/CMSIS/NN/Source/PoolingFunctions/arm_avgpool_s8.c ****             int32_t k_y_start, k_y_end;
 106:../src/tensorflow_lite/src/tensorflow/lite/micro/tools/make/downloads/cmsis/CMSIS/NN/Source/PoolingFunctions/arm_avgpool_s8.c ****             int32_t k_x_start, k_x_end;
 107:../src/tensorflow_lite/src/tensorflow/lite/micro/tools/make/downloads/cmsis/CMSIS/NN/Source/PoolingFunctions/arm_avgpool_s8.c ****             int32_t chCnt;
 108:../src/tensorflow_lite/src/tensorflow/lite/micro/tools/make/downloads/cmsis/CMSIS/NN/Source/PoolingFunctions/arm_avgpool_s8.c ****             const int8_t *pTmp, *pTmpInner;
 109:../src/tensorflow_lite/src/tensorflow/lite/micro/tools/make/downloads/cmsis/CMSIS/NN/Source/PoolingFunctions/arm_avgpool_s8.c ****             int8_t *pDst;
 110:../src/tensorflow_lite/src/tensorflow/lite/micro/tools/make/downloads/cmsis/CMSIS/NN/Source/PoolingFunctions/arm_avgpool_s8.c **** 
 111:../src/tensorflow_lite/src/tensorflow/lite/micro/tools/make/downloads/cmsis/CMSIS/NN/Source/PoolingFunctions/arm_avgpool_s8.c ****             k_y_start = MAX(0, i_y * stride_y - pad_y);
 112:../src/tensorflow_lite/src/tensorflow/lite/micro/tools/make/downloads/cmsis/CMSIS/NN/Source/PoolingFunctions/arm_avgpool_s8.c ****             k_y_end = MIN(i_y * stride_y - pad_y + kernel_y, input_y);
 113:../src/tensorflow_lite/src/tensorflow/lite/micro/tools/make/downloads/cmsis/CMSIS/NN/Source/PoolingFunctions/arm_avgpool_s8.c **** 
 114:../src/tensorflow_lite/src/tensorflow/lite/micro/tools/make/downloads/cmsis/CMSIS/NN/Source/PoolingFunctions/arm_avgpool_s8.c ****             k_x_start = MAX(0, i_x * stride_x - pad_x);
 115:../src/tensorflow_lite/src/tensorflow/lite/micro/tools/make/downloads/cmsis/CMSIS/NN/Source/PoolingFunctions/arm_avgpool_s8.c ****             k_x_end = MIN(i_x * stride_x - pad_x + kernel_x, input_x);
 116:../src/tensorflow_lite/src/tensorflow/lite/micro/tools/make/downloads/cmsis/CMSIS/NN/Source/PoolingFunctions/arm_avgpool_s8.c **** 
 117:../src/tensorflow_lite/src/tensorflow/lite/micro/tools/make/downloads/cmsis/CMSIS/NN/Source/PoolingFunctions/arm_avgpool_s8.c ****             pTmp = src;
 118:../src/tensorflow_lite/src/tensorflow/lite/micro/tools/make/downloads/cmsis/CMSIS/NN/Source/PoolingFunctions/arm_avgpool_s8.c ****             pDst = &dst[ch_src * (i_x + i_y * output_x)];
 119:../src/tensorflow_lite/src/tensorflow/lite/micro/tools/make/downloads/cmsis/CMSIS/NN/Source/PoolingFunctions/arm_avgpool_s8.c **** 
 120:../src/tensorflow_lite/src/tensorflow/lite/micro/tools/make/downloads/cmsis/CMSIS/NN/Source/PoolingFunctions/arm_avgpool_s8.c ****             chCnt = ch_src >> 4;
 121:../src/tensorflow_lite/src/tensorflow/lite/micro/tools/make/downloads/cmsis/CMSIS/NN/Source/PoolingFunctions/arm_avgpool_s8.c ****             while (chCnt > 0)
 122:../src/tensorflow_lite/src/tensorflow/lite/micro/tools/make/downloads/cmsis/CMSIS/NN/Source/PoolingFunctions/arm_avgpool_s8.c ****             {
 123:../src/tensorflow_lite/src/tensorflow/lite/micro/tools/make/downloads/cmsis/CMSIS/NN/Source/PoolingFunctions/arm_avgpool_s8.c ****                 int32x4_t sumV1, sumV2, sumV3, sumV4;
 124:../src/tensorflow_lite/src/tensorflow/lite/micro/tools/make/downloads/cmsis/CMSIS/NN/Source/PoolingFunctions/arm_avgpool_s8.c **** 
 125:../src/tensorflow_lite/src/tensorflow/lite/micro/tools/make/downloads/cmsis/CMSIS/NN/Source/PoolingFunctions/arm_avgpool_s8.c ****                 int8x16_t tempV;
 126:../src/tensorflow_lite/src/tensorflow/lite/micro/tools/make/downloads/cmsis/CMSIS/NN/Source/PoolingFunctions/arm_avgpool_s8.c ****                 int16x8_t tempVLO, tempVHI;
 127:../src/tensorflow_lite/src/tensorflow/lite/micro/tools/make/downloads/cmsis/CMSIS/NN/Source/PoolingFunctions/arm_avgpool_s8.c ****                 int32x4_t tempVLOLO, tempVLOHI, tempVHILO, tempVHIHI;
 128:../src/tensorflow_lite/src/tensorflow/lite/micro/tools/make/downloads/cmsis/CMSIS/NN/Source/PoolingFunctions/arm_avgpool_s8.c ****                 int32_t count = 0;
 129:../src/tensorflow_lite/src/tensorflow/lite/micro/tools/make/downloads/cmsis/CMSIS/NN/Source/PoolingFunctions/arm_avgpool_s8.c **** 
 130:../src/tensorflow_lite/src/tensorflow/lite/micro/tools/make/downloads/cmsis/CMSIS/NN/Source/PoolingFunctions/arm_avgpool_s8.c ****                 sumV1 = vdupq_n_s32(0);
 131:../src/tensorflow_lite/src/tensorflow/lite/micro/tools/make/downloads/cmsis/CMSIS/NN/Source/PoolingFunctions/arm_avgpool_s8.c ****                 sumV2 = vdupq_n_s32(0);
 132:../src/tensorflow_lite/src/tensorflow/lite/micro/tools/make/downloads/cmsis/CMSIS/NN/Source/PoolingFunctions/arm_avgpool_s8.c ****                 sumV3 = vdupq_n_s32(0);
 133:../src/tensorflow_lite/src/tensorflow/lite/micro/tools/make/downloads/cmsis/CMSIS/NN/Source/PoolingFunctions/arm_avgpool_s8.c ****                 sumV4 = vdupq_n_s32(0);
 134:../src/tensorflow_lite/src/tensorflow/lite/micro/tools/make/downloads/cmsis/CMSIS/NN/Source/PoolingFunctions/arm_avgpool_s8.c **** 
 135:../src/tensorflow_lite/src/tensorflow/lite/micro/tools/make/downloads/cmsis/CMSIS/NN/Source/PoolingFunctions/arm_avgpool_s8.c ****                 for (k_y = k_y_start; k_y < k_y_end; k_y++)
 136:../src/tensorflow_lite/src/tensorflow/lite/micro/tools/make/downloads/cmsis/CMSIS/NN/Source/PoolingFunctions/arm_avgpool_s8.c ****                 {
 137:../src/tensorflow_lite/src/tensorflow/lite/micro/tools/make/downloads/cmsis/CMSIS/NN/Source/PoolingFunctions/arm_avgpool_s8.c ****                     for (k_x = k_x_start; k_x < k_x_end; k_x++)
 138:../src/tensorflow_lite/src/tensorflow/lite/micro/tools/make/downloads/cmsis/CMSIS/NN/Source/PoolingFunctions/arm_avgpool_s8.c ****                     {
 139:../src/tensorflow_lite/src/tensorflow/lite/micro/tools/make/downloads/cmsis/CMSIS/NN/Source/PoolingFunctions/arm_avgpool_s8.c ****                         pTmpInner = pTmp + (ch_src * (k_x + k_y * input_x));
 140:../src/tensorflow_lite/src/tensorflow/lite/micro/tools/make/downloads/cmsis/CMSIS/NN/Source/PoolingFunctions/arm_avgpool_s8.c ****                         tempV = vldrbq_s8(pTmpInner);
 141:../src/tensorflow_lite/src/tensorflow/lite/micro/tools/make/downloads/cmsis/CMSIS/NN/Source/PoolingFunctions/arm_avgpool_s8.c **** 
 142:../src/tensorflow_lite/src/tensorflow/lite/micro/tools/make/downloads/cmsis/CMSIS/NN/Source/PoolingFunctions/arm_avgpool_s8.c ****                         tempVLO = vmovlbq_s8(tempV);
 143:../src/tensorflow_lite/src/tensorflow/lite/micro/tools/make/downloads/cmsis/CMSIS/NN/Source/PoolingFunctions/arm_avgpool_s8.c ****                         tempVHI = vmovltq_s8(tempV);
 144:../src/tensorflow_lite/src/tensorflow/lite/micro/tools/make/downloads/cmsis/CMSIS/NN/Source/PoolingFunctions/arm_avgpool_s8.c **** 
 145:../src/tensorflow_lite/src/tensorflow/lite/micro/tools/make/downloads/cmsis/CMSIS/NN/Source/PoolingFunctions/arm_avgpool_s8.c ****                         tempVLOLO = vmovlbq_s16(tempVLO);
 146:../src/tensorflow_lite/src/tensorflow/lite/micro/tools/make/downloads/cmsis/CMSIS/NN/Source/PoolingFunctions/arm_avgpool_s8.c ****                         tempVLOHI = vmovltq_s16(tempVLO);
 147:../src/tensorflow_lite/src/tensorflow/lite/micro/tools/make/downloads/cmsis/CMSIS/NN/Source/PoolingFunctions/arm_avgpool_s8.c **** 
 148:../src/tensorflow_lite/src/tensorflow/lite/micro/tools/make/downloads/cmsis/CMSIS/NN/Source/PoolingFunctions/arm_avgpool_s8.c ****                         tempVHILO = vmovlbq_s16(tempVHI);
 149:../src/tensorflow_lite/src/tensorflow/lite/micro/tools/make/downloads/cmsis/CMSIS/NN/Source/PoolingFunctions/arm_avgpool_s8.c ****                         tempVHIHI = vmovltq_s16(tempVHI);
 150:../src/tensorflow_lite/src/tensorflow/lite/micro/tools/make/downloads/cmsis/CMSIS/NN/Source/PoolingFunctions/arm_avgpool_s8.c **** 
 151:../src/tensorflow_lite/src/tensorflow/lite/micro/tools/make/downloads/cmsis/CMSIS/NN/Source/PoolingFunctions/arm_avgpool_s8.c ****                         sumV1 = vaddq_s32(sumV1, tempVLOLO);
 152:../src/tensorflow_lite/src/tensorflow/lite/micro/tools/make/downloads/cmsis/CMSIS/NN/Source/PoolingFunctions/arm_avgpool_s8.c ****                         sumV2 = vaddq_s32(sumV2, tempVLOHI);
 153:../src/tensorflow_lite/src/tensorflow/lite/micro/tools/make/downloads/cmsis/CMSIS/NN/Source/PoolingFunctions/arm_avgpool_s8.c ****                         sumV3 = vaddq_s32(sumV3, tempVHILO);
 154:../src/tensorflow_lite/src/tensorflow/lite/micro/tools/make/downloads/cmsis/CMSIS/NN/Source/PoolingFunctions/arm_avgpool_s8.c ****                         sumV4 = vaddq_s32(sumV4, tempVHIHI);
 155:../src/tensorflow_lite/src/tensorflow/lite/micro/tools/make/downloads/cmsis/CMSIS/NN/Source/PoolingFunctions/arm_avgpool_s8.c **** 
 156:../src/tensorflow_lite/src/tensorflow/lite/micro/tools/make/downloads/cmsis/CMSIS/NN/Source/PoolingFunctions/arm_avgpool_s8.c ****                         count++;
 157:../src/tensorflow_lite/src/tensorflow/lite/micro/tools/make/downloads/cmsis/CMSIS/NN/Source/PoolingFunctions/arm_avgpool_s8.c ****                     }
 158:../src/tensorflow_lite/src/tensorflow/lite/micro/tools/make/downloads/cmsis/CMSIS/NN/Source/PoolingFunctions/arm_avgpool_s8.c ****                 }
 159:../src/tensorflow_lite/src/tensorflow/lite/micro/tools/make/downloads/cmsis/CMSIS/NN/Source/PoolingFunctions/arm_avgpool_s8.c **** 
 160:../src/tensorflow_lite/src/tensorflow/lite/micro/tools/make/downloads/cmsis/CMSIS/NN/Source/PoolingFunctions/arm_avgpool_s8.c ****                 // Prevent static code issue DIVIDE_BY_ZERO.
 161:../src/tensorflow_lite/src/tensorflow/lite/micro/tools/make/downloads/cmsis/CMSIS/NN/Source/PoolingFunctions/arm_avgpool_s8.c ****                 if (count == 0)
 162:../src/tensorflow_lite/src/tensorflow/lite/micro/tools/make/downloads/cmsis/CMSIS/NN/Source/PoolingFunctions/arm_avgpool_s8.c ****                 {
 163:../src/tensorflow_lite/src/tensorflow/lite/micro/tools/make/downloads/cmsis/CMSIS/NN/Source/PoolingFunctions/arm_avgpool_s8.c ****                     return ARM_MATH_ARGUMENT_ERROR;
 164:../src/tensorflow_lite/src/tensorflow/lite/micro/tools/make/downloads/cmsis/CMSIS/NN/Source/PoolingFunctions/arm_avgpool_s8.c ****                 }
 165:../src/tensorflow_lite/src/tensorflow/lite/micro/tools/make/downloads/cmsis/CMSIS/NN/Source/PoolingFunctions/arm_avgpool_s8.c **** 
 166:../src/tensorflow_lite/src/tensorflow/lite/micro/tools/make/downloads/cmsis/CMSIS/NN/Source/PoolingFunctions/arm_avgpool_s8.c ****                 sumV1[0] = sumV1[0] > 0 ? (sumV1[0] + count / 2) / count : (sumV1[0] - count / 2) /
 167:../src/tensorflow_lite/src/tensorflow/lite/micro/tools/make/downloads/cmsis/CMSIS/NN/Source/PoolingFunctions/arm_avgpool_s8.c ****                 sumV1[1] = sumV1[1] > 0 ? (sumV1[1] + count / 2) / count : (sumV1[1] - count / 2) /
 168:../src/tensorflow_lite/src/tensorflow/lite/micro/tools/make/downloads/cmsis/CMSIS/NN/Source/PoolingFunctions/arm_avgpool_s8.c ****                 sumV1[2] = sumV1[2] > 0 ? (sumV1[2] + count / 2) / count : (sumV1[2] - count / 2) /
 169:../src/tensorflow_lite/src/tensorflow/lite/micro/tools/make/downloads/cmsis/CMSIS/NN/Source/PoolingFunctions/arm_avgpool_s8.c ****                 sumV1[3] = sumV1[3] > 0 ? (sumV1[3] + count / 2) / count : (sumV1[3] - count / 2) /
 170:../src/tensorflow_lite/src/tensorflow/lite/micro/tools/make/downloads/cmsis/CMSIS/NN/Source/PoolingFunctions/arm_avgpool_s8.c **** 
 171:../src/tensorflow_lite/src/tensorflow/lite/micro/tools/make/downloads/cmsis/CMSIS/NN/Source/PoolingFunctions/arm_avgpool_s8.c ****                 sumV2[0] = sumV2[0] > 0 ? (sumV2[0] + count / 2) / count : (sumV2[0] - count / 2) /
 172:../src/tensorflow_lite/src/tensorflow/lite/micro/tools/make/downloads/cmsis/CMSIS/NN/Source/PoolingFunctions/arm_avgpool_s8.c ****                 sumV2[1] = sumV2[1] > 0 ? (sumV2[1] + count / 2) / count : (sumV2[1] - count / 2) /
 173:../src/tensorflow_lite/src/tensorflow/lite/micro/tools/make/downloads/cmsis/CMSIS/NN/Source/PoolingFunctions/arm_avgpool_s8.c ****                 sumV2[2] = sumV2[2] > 0 ? (sumV2[2] + count / 2) / count : (sumV2[2] - count / 2) /
 174:../src/tensorflow_lite/src/tensorflow/lite/micro/tools/make/downloads/cmsis/CMSIS/NN/Source/PoolingFunctions/arm_avgpool_s8.c ****                 sumV2[3] = sumV2[3] > 0 ? (sumV2[3] + count / 2) / count : (sumV2[3] - count / 2) /
 175:../src/tensorflow_lite/src/tensorflow/lite/micro/tools/make/downloads/cmsis/CMSIS/NN/Source/PoolingFunctions/arm_avgpool_s8.c **** 
 176:../src/tensorflow_lite/src/tensorflow/lite/micro/tools/make/downloads/cmsis/CMSIS/NN/Source/PoolingFunctions/arm_avgpool_s8.c ****                 sumV3[0] = sumV3[0] > 0 ? (sumV3[0] + count / 2) / count : (sumV3[0] - count / 2) /
 177:../src/tensorflow_lite/src/tensorflow/lite/micro/tools/make/downloads/cmsis/CMSIS/NN/Source/PoolingFunctions/arm_avgpool_s8.c ****                 sumV3[1] = sumV3[1] > 0 ? (sumV3[1] + count / 2) / count : (sumV3[1] - count / 2) /
 178:../src/tensorflow_lite/src/tensorflow/lite/micro/tools/make/downloads/cmsis/CMSIS/NN/Source/PoolingFunctions/arm_avgpool_s8.c ****                 sumV3[2] = sumV3[2] > 0 ? (sumV3[2] + count / 2) / count : (sumV3[2] - count / 2) /
 179:../src/tensorflow_lite/src/tensorflow/lite/micro/tools/make/downloads/cmsis/CMSIS/NN/Source/PoolingFunctions/arm_avgpool_s8.c ****                 sumV3[3] = sumV3[3] > 0 ? (sumV3[3] + count / 2) / count : (sumV3[3] - count / 2) /
 180:../src/tensorflow_lite/src/tensorflow/lite/micro/tools/make/downloads/cmsis/CMSIS/NN/Source/PoolingFunctions/arm_avgpool_s8.c **** 
 181:../src/tensorflow_lite/src/tensorflow/lite/micro/tools/make/downloads/cmsis/CMSIS/NN/Source/PoolingFunctions/arm_avgpool_s8.c ****                 sumV4[0] = sumV4[0] > 0 ? (sumV4[0] + count / 2) / count : (sumV4[0] - count / 2) /
 182:../src/tensorflow_lite/src/tensorflow/lite/micro/tools/make/downloads/cmsis/CMSIS/NN/Source/PoolingFunctions/arm_avgpool_s8.c ****                 sumV4[1] = sumV4[1] > 0 ? (sumV4[1] + count / 2) / count : (sumV4[1] - count / 2) /
 183:../src/tensorflow_lite/src/tensorflow/lite/micro/tools/make/downloads/cmsis/CMSIS/NN/Source/PoolingFunctions/arm_avgpool_s8.c ****                 sumV4[2] = sumV4[2] > 0 ? (sumV4[2] + count / 2) / count : (sumV4[2] - count / 2) /
 184:../src/tensorflow_lite/src/tensorflow/lite/micro/tools/make/downloads/cmsis/CMSIS/NN/Source/PoolingFunctions/arm_avgpool_s8.c ****                 sumV4[3] = sumV4[3] > 0 ? (sumV4[3] + count / 2) / count : (sumV4[3] - count / 2) /
 185:../src/tensorflow_lite/src/tensorflow/lite/micro/tools/make/downloads/cmsis/CMSIS/NN/Source/PoolingFunctions/arm_avgpool_s8.c **** 
 186:../src/tensorflow_lite/src/tensorflow/lite/micro/tools/make/downloads/cmsis/CMSIS/NN/Source/PoolingFunctions/arm_avgpool_s8.c ****                 sumV1 = vmaxq_s32(sumV1, vdupq_n_s32(act_min));
 187:../src/tensorflow_lite/src/tensorflow/lite/micro/tools/make/downloads/cmsis/CMSIS/NN/Source/PoolingFunctions/arm_avgpool_s8.c ****                 sumV1 = vminq_s32(sumV1, vdupq_n_s32(act_max));
 188:../src/tensorflow_lite/src/tensorflow/lite/micro/tools/make/downloads/cmsis/CMSIS/NN/Source/PoolingFunctions/arm_avgpool_s8.c **** 
 189:../src/tensorflow_lite/src/tensorflow/lite/micro/tools/make/downloads/cmsis/CMSIS/NN/Source/PoolingFunctions/arm_avgpool_s8.c ****                 sumV2 = vmaxq_s32(sumV2, vdupq_n_s32(act_min));
 190:../src/tensorflow_lite/src/tensorflow/lite/micro/tools/make/downloads/cmsis/CMSIS/NN/Source/PoolingFunctions/arm_avgpool_s8.c ****                 sumV2 = vminq_s32(sumV2, vdupq_n_s32(act_max));
 191:../src/tensorflow_lite/src/tensorflow/lite/micro/tools/make/downloads/cmsis/CMSIS/NN/Source/PoolingFunctions/arm_avgpool_s8.c **** 
 192:../src/tensorflow_lite/src/tensorflow/lite/micro/tools/make/downloads/cmsis/CMSIS/NN/Source/PoolingFunctions/arm_avgpool_s8.c ****                 sumV3 = vmaxq_s32(sumV3, vdupq_n_s32(act_min));
 193:../src/tensorflow_lite/src/tensorflow/lite/micro/tools/make/downloads/cmsis/CMSIS/NN/Source/PoolingFunctions/arm_avgpool_s8.c ****                 sumV3 = vminq_s32(sumV3, vdupq_n_s32(act_max));
 194:../src/tensorflow_lite/src/tensorflow/lite/micro/tools/make/downloads/cmsis/CMSIS/NN/Source/PoolingFunctions/arm_avgpool_s8.c **** 
 195:../src/tensorflow_lite/src/tensorflow/lite/micro/tools/make/downloads/cmsis/CMSIS/NN/Source/PoolingFunctions/arm_avgpool_s8.c ****                 sumV4 = vmaxq_s32(sumV4, vdupq_n_s32(act_min));
 196:../src/tensorflow_lite/src/tensorflow/lite/micro/tools/make/downloads/cmsis/CMSIS/NN/Source/PoolingFunctions/arm_avgpool_s8.c ****                 sumV4 = vminq_s32(sumV4, vdupq_n_s32(act_max));
 197:../src/tensorflow_lite/src/tensorflow/lite/micro/tools/make/downloads/cmsis/CMSIS/NN/Source/PoolingFunctions/arm_avgpool_s8.c **** 
 198:../src/tensorflow_lite/src/tensorflow/lite/micro/tools/make/downloads/cmsis/CMSIS/NN/Source/PoolingFunctions/arm_avgpool_s8.c ****                 tempVLO = vmovnbq_s32(tempVLO, sumV1);
 199:../src/tensorflow_lite/src/tensorflow/lite/micro/tools/make/downloads/cmsis/CMSIS/NN/Source/PoolingFunctions/arm_avgpool_s8.c ****                 tempVLO = vmovntq_s32(tempVLO, sumV2);
 200:../src/tensorflow_lite/src/tensorflow/lite/micro/tools/make/downloads/cmsis/CMSIS/NN/Source/PoolingFunctions/arm_avgpool_s8.c **** 
 201:../src/tensorflow_lite/src/tensorflow/lite/micro/tools/make/downloads/cmsis/CMSIS/NN/Source/PoolingFunctions/arm_avgpool_s8.c ****                 tempVHI = vmovnbq_s32(tempVHI, sumV3);
 202:../src/tensorflow_lite/src/tensorflow/lite/micro/tools/make/downloads/cmsis/CMSIS/NN/Source/PoolingFunctions/arm_avgpool_s8.c ****                 tempVHI = vmovntq_s32(tempVHI, sumV4);
 203:../src/tensorflow_lite/src/tensorflow/lite/micro/tools/make/downloads/cmsis/CMSIS/NN/Source/PoolingFunctions/arm_avgpool_s8.c **** 
 204:../src/tensorflow_lite/src/tensorflow/lite/micro/tools/make/downloads/cmsis/CMSIS/NN/Source/PoolingFunctions/arm_avgpool_s8.c ****                 tempV = vmovnbq_s16(tempV, tempVLO);
 205:../src/tensorflow_lite/src/tensorflow/lite/micro/tools/make/downloads/cmsis/CMSIS/NN/Source/PoolingFunctions/arm_avgpool_s8.c ****                 tempV = vmovntq_s16(tempV, tempVHI);
 206:../src/tensorflow_lite/src/tensorflow/lite/micro/tools/make/downloads/cmsis/CMSIS/NN/Source/PoolingFunctions/arm_avgpool_s8.c **** 
 207:../src/tensorflow_lite/src/tensorflow/lite/micro/tools/make/downloads/cmsis/CMSIS/NN/Source/PoolingFunctions/arm_avgpool_s8.c ****                 vstrbq_s8(pDst, tempV);
 208:../src/tensorflow_lite/src/tensorflow/lite/micro/tools/make/downloads/cmsis/CMSIS/NN/Source/PoolingFunctions/arm_avgpool_s8.c ****                 pDst += 16;
 209:../src/tensorflow_lite/src/tensorflow/lite/micro/tools/make/downloads/cmsis/CMSIS/NN/Source/PoolingFunctions/arm_avgpool_s8.c **** 
 210:../src/tensorflow_lite/src/tensorflow/lite/micro/tools/make/downloads/cmsis/CMSIS/NN/Source/PoolingFunctions/arm_avgpool_s8.c ****                 chCnt--;
 211:../src/tensorflow_lite/src/tensorflow/lite/micro/tools/make/downloads/cmsis/CMSIS/NN/Source/PoolingFunctions/arm_avgpool_s8.c ****                 pTmp += 16;
 212:../src/tensorflow_lite/src/tensorflow/lite/micro/tools/make/downloads/cmsis/CMSIS/NN/Source/PoolingFunctions/arm_avgpool_s8.c ****             }
 213:../src/tensorflow_lite/src/tensorflow/lite/micro/tools/make/downloads/cmsis/CMSIS/NN/Source/PoolingFunctions/arm_avgpool_s8.c **** 
 214:../src/tensorflow_lite/src/tensorflow/lite/micro/tools/make/downloads/cmsis/CMSIS/NN/Source/PoolingFunctions/arm_avgpool_s8.c ****             chCnt = ch_src & 0xF;
 215:../src/tensorflow_lite/src/tensorflow/lite/micro/tools/make/downloads/cmsis/CMSIS/NN/Source/PoolingFunctions/arm_avgpool_s8.c ****             while (chCnt > 0)
 216:../src/tensorflow_lite/src/tensorflow/lite/micro/tools/make/downloads/cmsis/CMSIS/NN/Source/PoolingFunctions/arm_avgpool_s8.c ****             {
 217:../src/tensorflow_lite/src/tensorflow/lite/micro/tools/make/downloads/cmsis/CMSIS/NN/Source/PoolingFunctions/arm_avgpool_s8.c ****                 int32_t sum = 0;
 218:../src/tensorflow_lite/src/tensorflow/lite/micro/tools/make/downloads/cmsis/CMSIS/NN/Source/PoolingFunctions/arm_avgpool_s8.c ****                 int32_t count = 0;
 219:../src/tensorflow_lite/src/tensorflow/lite/micro/tools/make/downloads/cmsis/CMSIS/NN/Source/PoolingFunctions/arm_avgpool_s8.c **** 
 220:../src/tensorflow_lite/src/tensorflow/lite/micro/tools/make/downloads/cmsis/CMSIS/NN/Source/PoolingFunctions/arm_avgpool_s8.c ****                 for (k_y = k_y_start; k_y < k_y_end; k_y++)
 221:../src/tensorflow_lite/src/tensorflow/lite/micro/tools/make/downloads/cmsis/CMSIS/NN/Source/PoolingFunctions/arm_avgpool_s8.c ****                 {
 222:../src/tensorflow_lite/src/tensorflow/lite/micro/tools/make/downloads/cmsis/CMSIS/NN/Source/PoolingFunctions/arm_avgpool_s8.c ****                     for (k_x = k_x_start; k_x < k_x_end; k_x++)
 223:../src/tensorflow_lite/src/tensorflow/lite/micro/tools/make/downloads/cmsis/CMSIS/NN/Source/PoolingFunctions/arm_avgpool_s8.c ****                     {
 224:../src/tensorflow_lite/src/tensorflow/lite/micro/tools/make/downloads/cmsis/CMSIS/NN/Source/PoolingFunctions/arm_avgpool_s8.c ****                         sum += pTmp[ch_src * (k_x + k_y * input_x)];
 225:../src/tensorflow_lite/src/tensorflow/lite/micro/tools/make/downloads/cmsis/CMSIS/NN/Source/PoolingFunctions/arm_avgpool_s8.c ****                         count++;
 226:../src/tensorflow_lite/src/tensorflow/lite/micro/tools/make/downloads/cmsis/CMSIS/NN/Source/PoolingFunctions/arm_avgpool_s8.c ****                     }
 227:../src/tensorflow_lite/src/tensorflow/lite/micro/tools/make/downloads/cmsis/CMSIS/NN/Source/PoolingFunctions/arm_avgpool_s8.c ****                 }
 228:../src/tensorflow_lite/src/tensorflow/lite/micro/tools/make/downloads/cmsis/CMSIS/NN/Source/PoolingFunctions/arm_avgpool_s8.c ****                 sum = sum > 0 ? (sum + count / 2) / count : (sum - count / 2) / count;
 229:../src/tensorflow_lite/src/tensorflow/lite/micro/tools/make/downloads/cmsis/CMSIS/NN/Source/PoolingFunctions/arm_avgpool_s8.c ****                 sum = MAX(sum, act_min);
 230:../src/tensorflow_lite/src/tensorflow/lite/micro/tools/make/downloads/cmsis/CMSIS/NN/Source/PoolingFunctions/arm_avgpool_s8.c ****                 sum = MIN(sum, act_max);
 231:../src/tensorflow_lite/src/tensorflow/lite/micro/tools/make/downloads/cmsis/CMSIS/NN/Source/PoolingFunctions/arm_avgpool_s8.c **** 
 232:../src/tensorflow_lite/src/tensorflow/lite/micro/tools/make/downloads/cmsis/CMSIS/NN/Source/PoolingFunctions/arm_avgpool_s8.c ****                 *pDst++ = sum;
 233:../src/tensorflow_lite/src/tensorflow/lite/micro/tools/make/downloads/cmsis/CMSIS/NN/Source/PoolingFunctions/arm_avgpool_s8.c **** 
 234:../src/tensorflow_lite/src/tensorflow/lite/micro/tools/make/downloads/cmsis/CMSIS/NN/Source/PoolingFunctions/arm_avgpool_s8.c ****                 chCnt--;
 235:../src/tensorflow_lite/src/tensorflow/lite/micro/tools/make/downloads/cmsis/CMSIS/NN/Source/PoolingFunctions/arm_avgpool_s8.c ****                 pTmp++;
 236:../src/tensorflow_lite/src/tensorflow/lite/micro/tools/make/downloads/cmsis/CMSIS/NN/Source/PoolingFunctions/arm_avgpool_s8.c ****             }
 237:../src/tensorflow_lite/src/tensorflow/lite/micro/tools/make/downloads/cmsis/CMSIS/NN/Source/PoolingFunctions/arm_avgpool_s8.c ****         }
 238:../src/tensorflow_lite/src/tensorflow/lite/micro/tools/make/downloads/cmsis/CMSIS/NN/Source/PoolingFunctions/arm_avgpool_s8.c ****     }
 239:../src/tensorflow_lite/src/tensorflow/lite/micro/tools/make/downloads/cmsis/CMSIS/NN/Source/PoolingFunctions/arm_avgpool_s8.c ****     return ARM_MATH_SUCCESS;
 240:../src/tensorflow_lite/src/tensorflow/lite/micro/tools/make/downloads/cmsis/CMSIS/NN/Source/PoolingFunctions/arm_avgpool_s8.c **** }
 241:../src/tensorflow_lite/src/tensorflow/lite/micro/tools/make/downloads/cmsis/CMSIS/NN/Source/PoolingFunctions/arm_avgpool_s8.c **** 
 242:../src/tensorflow_lite/src/tensorflow/lite/micro/tools/make/downloads/cmsis/CMSIS/NN/Source/PoolingFunctions/arm_avgpool_s8.c **** #else
 243:../src/tensorflow_lite/src/tensorflow/lite/micro/tools/make/downloads/cmsis/CMSIS/NN/Source/PoolingFunctions/arm_avgpool_s8.c **** arm_status arm_avgpool_s8(const cmsis_nn_context *ctx,
 244:../src/tensorflow_lite/src/tensorflow/lite/micro/tools/make/downloads/cmsis/CMSIS/NN/Source/PoolingFunctions/arm_avgpool_s8.c ****                           const cmsis_nn_pool_params *pool_params,
 245:../src/tensorflow_lite/src/tensorflow/lite/micro/tools/make/downloads/cmsis/CMSIS/NN/Source/PoolingFunctions/arm_avgpool_s8.c ****                           const cmsis_nn_dims *input_dims,
 246:../src/tensorflow_lite/src/tensorflow/lite/micro/tools/make/downloads/cmsis/CMSIS/NN/Source/PoolingFunctions/arm_avgpool_s8.c ****                           const q7_t *src,
 247:../src/tensorflow_lite/src/tensorflow/lite/micro/tools/make/downloads/cmsis/CMSIS/NN/Source/PoolingFunctions/arm_avgpool_s8.c ****                           const cmsis_nn_dims *filter_dims,
 248:../src/tensorflow_lite/src/tensorflow/lite/micro/tools/make/downloads/cmsis/CMSIS/NN/Source/PoolingFunctions/arm_avgpool_s8.c ****                           const cmsis_nn_dims *output_dims,
 249:../src/tensorflow_lite/src/tensorflow/lite/micro/tools/make/downloads/cmsis/CMSIS/NN/Source/PoolingFunctions/arm_avgpool_s8.c ****                           q7_t *dst)
 250:../src/tensorflow_lite/src/tensorflow/lite/micro/tools/make/downloads/cmsis/CMSIS/NN/Source/PoolingFunctions/arm_avgpool_s8.c **** {
  27              		.loc 1 250 0
  28              		.cfi_startproc
  29              		@ args = 12, pretend = 0, frame = 128
  30              		@ frame_needed = 0, uses_anonymous_args = 0
  31              	.LVL0:
  32 0000 F04F2DE9 		push	{r4, r5, r6, r7, r8, r9, r10, fp, lr}
  33              		.cfi_def_cfa_offset 36
  34              		.cfi_offset 4, -36
  35              		.cfi_offset 5, -32
  36              		.cfi_offset 6, -28
  37              		.cfi_offset 7, -24
  38              		.cfi_offset 8, -20
  39              		.cfi_offset 9, -16
  40              		.cfi_offset 10, -12
  41              		.cfi_offset 11, -8
  42              		.cfi_offset 14, -4
  43 0004 84D04DE2 		sub	sp, sp, #132
  44              		.cfi_def_cfa_offset 168
 251:../src/tensorflow_lite/src/tensorflow/lite/micro/tools/make/downloads/cmsis/CMSIS/NN/Source/PoolingFunctions/arm_avgpool_s8.c ****     const int32_t input_y = input_dims->h;
 252:../src/tensorflow_lite/src/tensorflow/lite/micro/tools/make/downloads/cmsis/CMSIS/NN/Source/PoolingFunctions/arm_avgpool_s8.c ****     const int32_t input_x = input_dims->w;
 253:../src/tensorflow_lite/src/tensorflow/lite/micro/tools/make/downloads/cmsis/CMSIS/NN/Source/PoolingFunctions/arm_avgpool_s8.c ****     const int32_t output_y = output_dims->h;
 254:../src/tensorflow_lite/src/tensorflow/lite/micro/tools/make/downloads/cmsis/CMSIS/NN/Source/PoolingFunctions/arm_avgpool_s8.c ****     const int32_t output_x = output_dims->w;
 255:../src/tensorflow_lite/src/tensorflow/lite/micro/tools/make/downloads/cmsis/CMSIS/NN/Source/PoolingFunctions/arm_avgpool_s8.c ****     const int32_t stride_y = pool_params->stride.h;
 256:../src/tensorflow_lite/src/tensorflow/lite/micro/tools/make/downloads/cmsis/CMSIS/NN/Source/PoolingFunctions/arm_avgpool_s8.c ****     const int32_t stride_x = pool_params->stride.w;
 257:../src/tensorflow_lite/src/tensorflow/lite/micro/tools/make/downloads/cmsis/CMSIS/NN/Source/PoolingFunctions/arm_avgpool_s8.c ****     const int32_t kernel_y = filter_dims->h;
 258:../src/tensorflow_lite/src/tensorflow/lite/micro/tools/make/downloads/cmsis/CMSIS/NN/Source/PoolingFunctions/arm_avgpool_s8.c ****     const int32_t kernel_x = filter_dims->w;
 259:../src/tensorflow_lite/src/tensorflow/lite/micro/tools/make/downloads/cmsis/CMSIS/NN/Source/PoolingFunctions/arm_avgpool_s8.c ****     const int32_t pad_y = pool_params->padding.h;
  45              		.loc 1 259 0
  46 0008 0CE091E5 		ldr	lr, [r1, #12]
 250:../src/tensorflow_lite/src/tensorflow/lite/micro/tools/make/downloads/cmsis/CMSIS/NN/Source/PoolingFunctions/arm_avgpool_s8.c ****     const int32_t input_y = input_dims->h;
  47              		.loc 1 250 0
  48 000c AC409DE5 		ldr	r4, [sp, #172]
 260:../src/tensorflow_lite/src/tensorflow/lite/micro/tools/make/downloads/cmsis/CMSIS/NN/Source/PoolingFunctions/arm_avgpool_s8.c ****     const int32_t pad_x = pool_params->padding.w;
 261:../src/tensorflow_lite/src/tensorflow/lite/micro/tools/make/downloads/cmsis/CMSIS/NN/Source/PoolingFunctions/arm_avgpool_s8.c ****     const int32_t act_min = pool_params->activation.min;
 262:../src/tensorflow_lite/src/tensorflow/lite/micro/tools/make/downloads/cmsis/CMSIS/NN/Source/PoolingFunctions/arm_avgpool_s8.c ****     const int32_t act_max = pool_params->activation.max;
 263:../src/tensorflow_lite/src/tensorflow/lite/micro/tools/make/downloads/cmsis/CMSIS/NN/Source/PoolingFunctions/arm_avgpool_s8.c ****     const int32_t ch_src = input_dims->c;
 264:../src/tensorflow_lite/src/tensorflow/lite/micro/tools/make/downloads/cmsis/CMSIS/NN/Source/PoolingFunctions/arm_avgpool_s8.c ****     q31_t *buffer = (q31_t *)ctx->buf;
  49              		.loc 1 264 0
  50 0010 00A090E5 		ldr	r10, [r0]
  51              	.LBB26:
 265:../src/tensorflow_lite/src/tensorflow/lite/micro/tools/make/downloads/cmsis/CMSIS/NN/Source/PoolingFunctions/arm_avgpool_s8.c **** 
 266:../src/tensorflow_lite/src/tensorflow/lite/micro/tools/make/downloads/cmsis/CMSIS/NN/Source/PoolingFunctions/arm_avgpool_s8.c **** #if defined(ARM_MATH_DSP)
 267:../src/tensorflow_lite/src/tensorflow/lite/micro/tools/make/downloads/cmsis/CMSIS/NN/Source/PoolingFunctions/arm_avgpool_s8.c **** 
 268:../src/tensorflow_lite/src/tensorflow/lite/micro/tools/make/downloads/cmsis/CMSIS/NN/Source/PoolingFunctions/arm_avgpool_s8.c ****     /* Run the following code for CPU's with DSP extension
 269:../src/tensorflow_lite/src/tensorflow/lite/micro/tools/make/downloads/cmsis/CMSIS/NN/Source/PoolingFunctions/arm_avgpool_s8.c ****      */
 270:../src/tensorflow_lite/src/tensorflow/lite/micro/tools/make/downloads/cmsis/CMSIS/NN/Source/PoolingFunctions/arm_avgpool_s8.c ****     for (int i_y = 0, idx_y = -pad_y; i_y < output_y; idx_y += stride_y, i_y++)
  52              		.loc 1 270 0
  53 0014 00006EE2 		rsb	r0, lr, #0
  54              	.LVL1:
  55 0018 18008DE5 		str	r0, [sp, #24]
  56              	.LBE26:
 254:../src/tensorflow_lite/src/tensorflow/lite/micro/tools/make/downloads/cmsis/CMSIS/NN/Source/PoolingFunctions/arm_avgpool_s8.c ****     const int32_t stride_y = pool_params->stride.h;
  57              		.loc 1 254 0
  58 001c 080094E5 		ldr	r0, [r4, #8]
 263:../src/tensorflow_lite/src/tensorflow/lite/micro/tools/make/downloads/cmsis/CMSIS/NN/Source/PoolingFunctions/arm_avgpool_s8.c ****     q31_t *buffer = (q31_t *)ctx->buf;
  59              		.loc 1 263 0
  60 0020 0CB092E5 		ldr	fp, [r2, #12]
 250:../src/tensorflow_lite/src/tensorflow/lite/micro/tools/make/downloads/cmsis/CMSIS/NN/Source/PoolingFunctions/arm_avgpool_s8.c ****     const int32_t input_y = input_dims->h;
  61              		.loc 1 250 0
  62 0024 A8C09DE5 		ldr	ip, [sp, #168]
 254:../src/tensorflow_lite/src/tensorflow/lite/micro/tools/make/downloads/cmsis/CMSIS/NN/Source/PoolingFunctions/arm_avgpool_s8.c ****     const int32_t stride_y = pool_params->stride.h;
  63              		.loc 1 254 0
  64 0028 34008DE5 		str	r0, [sp, #52]
 251:../src/tensorflow_lite/src/tensorflow/lite/micro/tools/make/downloads/cmsis/CMSIS/NN/Source/PoolingFunctions/arm_avgpool_s8.c ****     const int32_t input_x = input_dims->w;
  65              		.loc 1 251 0
  66 002c 040092E5 		ldr	r0, [r2, #4]
 253:../src/tensorflow_lite/src/tensorflow/lite/micro/tools/make/downloads/cmsis/CMSIS/NN/Source/PoolingFunctions/arm_avgpool_s8.c ****     const int32_t output_x = output_dims->w;
  67              		.loc 1 253 0
  68 0030 045094E5 		ldr	r5, [r4, #4]
 261:../src/tensorflow_lite/src/tensorflow/lite/micro/tools/make/downloads/cmsis/CMSIS/NN/Source/PoolingFunctions/arm_avgpool_s8.c ****     const int32_t act_max = pool_params->activation.max;
  69              		.loc 1 261 0
  70 0034 108091E5 		ldr	r8, [r1, #16]
 251:../src/tensorflow_lite/src/tensorflow/lite/micro/tools/make/downloads/cmsis/CMSIS/NN/Source/PoolingFunctions/arm_avgpool_s8.c ****     const int32_t input_x = input_dims->w;
  71              		.loc 1 251 0
  72 0038 2C008DE5 		str	r0, [sp, #44]
  73              	.LVL2:
 252:../src/tensorflow_lite/src/tensorflow/lite/micro/tools/make/downloads/cmsis/CMSIS/NN/Source/PoolingFunctions/arm_avgpool_s8.c ****     const int32_t output_y = output_dims->h;
  74              		.loc 1 252 0
  75 003c 080092E5 		ldr	r0, [r2, #8]
  76              	.LVL3:
  77              	.LBB86:
  78              		.loc 1 270 0
  79 0040 000055E3 		cmp	r5, #0
  80              	.LBE86:
 255:../src/tensorflow_lite/src/tensorflow/lite/micro/tools/make/downloads/cmsis/CMSIS/NN/Source/PoolingFunctions/arm_avgpool_s8.c ****     const int32_t stride_x = pool_params->stride.w;
  81              		.loc 1 255 0
  82 0044 042091E5 		ldr	r2, [r1, #4]
  83              	.LVL4:
 253:../src/tensorflow_lite/src/tensorflow/lite/micro/tools/make/downloads/cmsis/CMSIS/NN/Source/PoolingFunctions/arm_avgpool_s8.c ****     const int32_t output_x = output_dims->w;
  84              		.loc 1 253 0
  85 0048 4C508DE5 		str	r5, [sp, #76]
 252:../src/tensorflow_lite/src/tensorflow/lite/micro/tools/make/downloads/cmsis/CMSIS/NN/Source/PoolingFunctions/arm_avgpool_s8.c ****     const int32_t output_y = output_dims->h;
  86              		.loc 1 252 0
  87 004c 30008DE5 		str	r0, [sp, #48]
  88              	.LVL5:
 255:../src/tensorflow_lite/src/tensorflow/lite/micro/tools/make/downloads/cmsis/CMSIS/NN/Source/PoolingFunctions/arm_avgpool_s8.c ****     const int32_t stride_x = pool_params->stride.w;
  89              		.loc 1 255 0
  90 0050 50208DE5 		str	r2, [sp, #80]
  91              	.LVL6:
 256:../src/tensorflow_lite/src/tensorflow/lite/micro/tools/make/downloads/cmsis/CMSIS/NN/Source/PoolingFunctions/arm_avgpool_s8.c ****     const int32_t kernel_y = filter_dims->h;
  92              		.loc 1 256 0
  93 0054 002091E5 		ldr	r2, [r1]
  94              	.LVL7:
  95 0058 54208DE5 		str	r2, [sp, #84]
  96              	.LVL8:
 260:../src/tensorflow_lite/src/tensorflow/lite/micro/tools/make/downloads/cmsis/CMSIS/NN/Source/PoolingFunctions/arm_avgpool_s8.c ****     const int32_t act_min = pool_params->activation.min;
  97              		.loc 1 260 0
  98 005c 082091E5 		ldr	r2, [r1, #8]
  99              	.LVL9:
 100 0060 38208DE5 		str	r2, [sp, #56]
 262:../src/tensorflow_lite/src/tensorflow/lite/micro/tools/make/downloads/cmsis/CMSIS/NN/Source/PoolingFunctions/arm_avgpool_s8.c ****     const int32_t ch_src = input_dims->c;
 101              		.loc 1 262 0
 102 0064 142091E5 		ldr	r2, [r1, #20]
 103 0068 60208DE5 		str	r2, [sp, #96]
 257:../src/tensorflow_lite/src/tensorflow/lite/micro/tools/make/downloads/cmsis/CMSIS/NN/Source/PoolingFunctions/arm_avgpool_s8.c ****     const int32_t kernel_x = filter_dims->w;
 104              		.loc 1 257 0
 105 006c 04209CE5 		ldr	r2, [ip, #4]
 106 0070 58208DE5 		str	r2, [sp, #88]
 107              	.LVL10:
 258:../src/tensorflow_lite/src/tensorflow/lite/micro/tools/make/downloads/cmsis/CMSIS/NN/Source/PoolingFunctions/arm_avgpool_s8.c ****     const int32_t pad_y = pool_params->padding.h;
 108              		.loc 1 258 0
 109 0074 08209CE5 		ldr	r2, [ip, #8]
 110              	.LVL11:
 111 0078 5C208DE5 		str	r2, [sp, #92]
 112              	.LVL12:
 113              	.LBB87:
 114              		.loc 1 270 0
 115 007c 4E0100DA 		ble	.L35
 116 0080 9B0001E0 		mul	r1, fp, r0
 117              	.LVL13:
 118 0084 74308DE5 		str	r3, [sp, #116]
 119 0088 09304BE2 		sub	r3, fp, #9
 120              	.LVL14:
 121 008c 10204BE2 		sub	r2, fp, #16
 122              	.LVL15:
 123 0090 0730C3E3 		bic	r3, r3, #7
 124 0094 2222A0E1 		lsr	r2, r2, #4
 125 0098 085083E2 		add	r5, r3, #8
 126              	.LVL16:
 127 009c 38309DE5 		ldr	r3, [sp, #56]
 128 00a0 10108DE5 		str	r1, [sp, #16]
 129 00a4 0B118AE0 		add	r1, r10, fp, lsl #2
 130 00a8 012082E2 		add	r2, r2, #1
 131 00ac 68108DE5 		str	r1, [sp, #104]
 132 00b0 003063E2 		rsb	r3, r3, #0
 133 00b4 2C109DE5 		ldr	r1, [sp, #44]
 134 00b8 0A90A0E1 		mov	r9, r10
 135 00bc 48208DE5 		str	r2, [sp, #72]
 136 00c0 08A0A0E1 		mov	r10, r8
 137              	.LVL17:
 138 00c4 0222A0E1 		lsl	r2, r2, #4
 139 00c8 6C308DE5 		str	r3, [sp, #108]
 140 00cc 0570A0E1 		mov	r7, r5
 141 00d0 01304BE2 		sub	r3, fp, #1
 142 00d4 01108EE0 		add	r1, lr, r1
 143 00d8 64308DE5 		str	r3, [sp, #100]
 144 00dc 0030A0E3 		mov	r3, #0
 145 00e0 24108DE5 		str	r1, [sp, #36]
 146 00e4 44208DE5 		str	r2, [sp, #68]
 147 00e8 3C308DE5 		str	r3, [sp, #60]
 148              	.LVL18:
 149              	.L34:
 150              	.LBB27:
 271:../src/tensorflow_lite/src/tensorflow/lite/micro/tools/make/downloads/cmsis/CMSIS/NN/Source/PoolingFunctions/arm_avgpool_s8.c ****     {
 272:../src/tensorflow_lite/src/tensorflow/lite/micro/tools/make/downloads/cmsis/CMSIS/NN/Source/PoolingFunctions/arm_avgpool_s8.c ****         for (int i_x = 0, idx_x = -pad_x; i_x < output_x; idx_x += stride_x, i_x++)
 151              		.loc 1 272 0
 152 00ec 34309DE5 		ldr	r3, [sp, #52]
 153 00f0 000053E3 		cmp	r3, #0
 154 00f4 230100DA 		ble	.L4
 155 00f8 58209DE5 		ldr	r2, [sp, #88]
 156 00fc 24309DE5 		ldr	r3, [sp, #36]
 157 0100 2C009DE5 		ldr	r0, [sp, #44]
 158 0104 38109DE5 		ldr	r1, [sp, #56]
 159 0108 020053E1 		cmp	r3, r2
 160 010c 60509DE5 		ldr	r5, [sp, #96]
 161 0110 0320A0B1 		movlt	r2, r3
 162 0114 04208DE5 		str	r2, [sp, #4]
 163 0118 18209DE5 		ldr	r2, [sp, #24]
 164 011c 1C108DE5 		str	r1, [sp, #28]
 165 0120 000052E3 		cmp	r2, #0
 166 0124 003043D0 		suble	r3, r3, r0
 167 0128 0030A0C3 		movgt	r3, #0
 168 012c 30009DE5 		ldr	r0, [sp, #48]
 169 0130 28308DE5 		str	r3, [sp, #40]
 170 0134 023083E0 		add	r3, r3, r2
 171 0138 6C209DE5 		ldr	r2, [sp, #108]
 172 013c 011080E0 		add	r1, r0, r1
 173 0140 900303E0 		mul	r3, r0, r3
 174 0144 20108DE5 		str	r1, [sp, #32]
 175 0148 14208DE5 		str	r2, [sp, #20]
 176 014c 70308DE5 		str	r3, [sp, #112]
 177 0150 0030A0E3 		mov	r3, #0
 178 0154 40308DE5 		str	r3, [sp, #64]
 179              	.LVL19:
 180              	.L29:
 181              	.LBB28:
 273:../src/tensorflow_lite/src/tensorflow/lite/micro/tools/make/downloads/cmsis/CMSIS/NN/Source/PoolingFunctions/arm_avgpool_s8.c ****         {
 274:../src/tensorflow_lite/src/tensorflow/lite/micro/tools/make/downloads/cmsis/CMSIS/NN/Source/PoolingFunctions/arm_avgpool_s8.c ****             /* Condition for kernel start dimension:
 275:../src/tensorflow_lite/src/tensorflow/lite/micro/tools/make/downloads/cmsis/CMSIS/NN/Source/PoolingFunctions/arm_avgpool_s8.c ****                       (base_idx_<x,y> + kernel_<x,y>_start) >= 0 */
 276:../src/tensorflow_lite/src/tensorflow/lite/micro/tools/make/downloads/cmsis/CMSIS/NN/Source/PoolingFunctions/arm_avgpool_s8.c ****             const int32_t kernel_y_start = MAX(0, -idx_y);
 277:../src/tensorflow_lite/src/tensorflow/lite/micro/tools/make/downloads/cmsis/CMSIS/NN/Source/PoolingFunctions/arm_avgpool_s8.c ****             const int32_t kernel_x_start = MAX(0, -idx_x);
 182              		.loc 1 277 0
 183 0158 14309DE5 		ldr	r3, [sp, #20]
 278:../src/tensorflow_lite/src/tensorflow/lite/micro/tools/make/downloads/cmsis/CMSIS/NN/Source/PoolingFunctions/arm_avgpool_s8.c **** 
 279:../src/tensorflow_lite/src/tensorflow/lite/micro/tools/make/downloads/cmsis/CMSIS/NN/Source/PoolingFunctions/arm_avgpool_s8.c ****             /* Condition for kernel end dimension:
 280:../src/tensorflow_lite/src/tensorflow/lite/micro/tools/make/downloads/cmsis/CMSIS/NN/Source/PoolingFunctions/arm_avgpool_s8.c ****                    (base_idx_<x,y> + kernel_<x,y>_end) < dim_src_<width,height> */
 281:../src/tensorflow_lite/src/tensorflow/lite/micro/tools/make/downloads/cmsis/CMSIS/NN/Source/PoolingFunctions/arm_avgpool_s8.c ****             const int32_t kernel_y_end = MIN(kernel_y, input_y - idx_y);
 282:../src/tensorflow_lite/src/tensorflow/lite/micro/tools/make/downloads/cmsis/CMSIS/NN/Source/PoolingFunctions/arm_avgpool_s8.c ****             const int32_t kernel_x_end = MIN(kernel_x, input_x - idx_x);
 184              		.loc 1 282 0
 185 015c 5C209DE5 		ldr	r2, [sp, #92]
 277:../src/tensorflow_lite/src/tensorflow/lite/micro/tools/make/downloads/cmsis/CMSIS/NN/Source/PoolingFunctions/arm_avgpool_s8.c **** 
 186              		.loc 1 277 0
 187 0160 000053E3 		cmp	r3, #0
 188 0164 1C309DE5 		ldr	r3, [sp, #28]
 189 0168 0030A0C3 		movgt	r3, #0
 190 016c 0C308DE5 		str	r3, [sp, #12]
 191              	.LVL20:
 192              		.loc 1 282 0
 193 0170 20309DE5 		ldr	r3, [sp, #32]
 194              	.LVL21:
 195 0174 020053E1 		cmp	r3, r2
 196 0178 0230A0A1 		movge	r3, r2
 197              	.LBB29:
 283:../src/tensorflow_lite/src/tensorflow/lite/micro/tools/make/downloads/cmsis/CMSIS/NN/Source/PoolingFunctions/arm_avgpool_s8.c **** 
 284:../src/tensorflow_lite/src/tensorflow/lite/micro/tools/make/downloads/cmsis/CMSIS/NN/Source/PoolingFunctions/arm_avgpool_s8.c ****             int count = 0;
 285:../src/tensorflow_lite/src/tensorflow/lite/micro/tools/make/downloads/cmsis/CMSIS/NN/Source/PoolingFunctions/arm_avgpool_s8.c **** 
 286:../src/tensorflow_lite/src/tensorflow/lite/micro/tools/make/downloads/cmsis/CMSIS/NN/Source/PoolingFunctions/arm_avgpool_s8.c ****             for (int k_y = kernel_y_start; k_y < kernel_y_end; k_y++)
 198              		.loc 1 286 0
 199 017c 28209DE5 		ldr	r2, [sp, #40]
 200              	.LBE29:
 282:../src/tensorflow_lite/src/tensorflow/lite/micro/tools/make/downloads/cmsis/CMSIS/NN/Source/PoolingFunctions/arm_avgpool_s8.c **** 
 201              		.loc 1 282 0
 202 0180 08308DE5 		str	r3, [sp, #8]
 203              	.LVL22:
 204              	.LBB71:
 205              		.loc 1 286 0
 206 0184 04309DE5 		ldr	r3, [sp, #4]
 207              	.LVL23:
 208 0188 020053E1 		cmp	r3, r2
 209 018c 100100DA 		ble	.L27
 210 0190 0280A0E1 		mov	r8, r2
 211 0194 14309DE5 		ldr	r3, [sp, #20]
 212 0198 70209DE5 		ldr	r2, [sp, #112]
 213              		.loc 1 286 0 is_stmt 0 discriminator 1
 214 019c 0040A0E3 		mov	r4, #0
 215 01a0 74109DE5 		ldr	r1, [sp, #116]
 216 01a4 78A08DE5 		str	r10, [sp, #120]
 217 01a8 023083E0 		add	r3, r3, r2
 218 01ac 0C209DE5 		ldr	r2, [sp, #12]
 219 01b0 7C508DE5 		str	r5, [sp, #124]
 220 01b4 023083E0 		add	r3, r3, r2
 221 01b8 9B1323E0 		mla	r3, fp, r3, r1
 222 01bc 08109DE5 		ldr	r1, [sp, #8]
 223 01c0 022041E0 		sub	r2, r1, r2
 224 01c4 0360A0E1 		mov	r6, r3
 225 01c8 02A0A0E1 		mov	r10, r2
 226              	.LVL24:
 227              	.L25:
 228              	.LBB30:
 287:../src/tensorflow_lite/src/tensorflow/lite/micro/tools/make/downloads/cmsis/CMSIS/NN/Source/PoolingFunctions/arm_avgpool_s8.c ****             {
 288:../src/tensorflow_lite/src/tensorflow/lite/micro/tools/make/downloads/cmsis/CMSIS/NN/Source/PoolingFunctions/arm_avgpool_s8.c ****                 for (int k_x = kernel_x_start; k_x < kernel_x_end; k_x++)
 229              		.loc 1 288 0 is_stmt 1 discriminator 1
 230 01cc 0C309DE5 		ldr	r3, [sp, #12]
 231 01d0 08209DE5 		ldr	r2, [sp, #8]
 232 01d4 020053E1 		cmp	r3, r2
 233 01d8 3E0000AA 		bge	.L10
 234 01dc 04508AE0 		add	r5, r10, r4
 235              		.loc 1 288 0 is_stmt 0
 236 01e0 06E0A0E1 		mov	lr, r6
 237              	.LVL25:
 238              	.L9:
 239              	.LBB31:
 289:../src/tensorflow_lite/src/tensorflow/lite/micro/tools/make/downloads/cmsis/CMSIS/NN/Source/PoolingFunctions/arm_avgpool_s8.c ****                 {
 290:../src/tensorflow_lite/src/tensorflow/lite/micro/tools/make/downloads/cmsis/CMSIS/NN/Source/PoolingFunctions/arm_avgpool_s8.c ****                     const q7_t *start = src + ch_src * (k_x + idx_x + (k_y + idx_y) * input_x);
 291:../src/tensorflow_lite/src/tensorflow/lite/micro/tools/make/downloads/cmsis/CMSIS/NN/Source/PoolingFunctions/arm_avgpool_s8.c **** 
 292:../src/tensorflow_lite/src/tensorflow/lite/micro/tools/make/downloads/cmsis/CMSIS/NN/Source/PoolingFunctions/arm_avgpool_s8.c ****                     if (count == 0)
 240              		.loc 1 292 0 is_stmt 1
 241 01e4 000054E3 		cmp	r4, #0
 242 01e8 FC00000A 		beq	.L7
 243              	.LVL26:
 244              	.LBB32:
 293:../src/tensorflow_lite/src/tensorflow/lite/micro/tools/make/downloads/cmsis/CMSIS/NN/Source/PoolingFunctions/arm_avgpool_s8.c ****                     {
 294:../src/tensorflow_lite/src/tensorflow/lite/micro/tools/make/downloads/cmsis/CMSIS/NN/Source/PoolingFunctions/arm_avgpool_s8.c ****                         for (int i = 0; i < ch_src; i++)
 295:../src/tensorflow_lite/src/tensorflow/lite/micro/tools/make/downloads/cmsis/CMSIS/NN/Source/PoolingFunctions/arm_avgpool_s8.c ****                         {
 296:../src/tensorflow_lite/src/tensorflow/lite/micro/tools/make/downloads/cmsis/CMSIS/NN/Source/PoolingFunctions/arm_avgpool_s8.c ****                             buffer[i] = start[i];
 297:../src/tensorflow_lite/src/tensorflow/lite/micro/tools/make/downloads/cmsis/CMSIS/NN/Source/PoolingFunctions/arm_avgpool_s8.c ****                         }
 298:../src/tensorflow_lite/src/tensorflow/lite/micro/tools/make/downloads/cmsis/CMSIS/NN/Source/PoolingFunctions/arm_avgpool_s8.c ****                     }
 299:../src/tensorflow_lite/src/tensorflow/lite/micro/tools/make/downloads/cmsis/CMSIS/NN/Source/PoolingFunctions/arm_avgpool_s8.c ****                     else
 300:../src/tensorflow_lite/src/tensorflow/lite/micro/tools/make/downloads/cmsis/CMSIS/NN/Source/PoolingFunctions/arm_avgpool_s8.c ****                     {
 301:../src/tensorflow_lite/src/tensorflow/lite/micro/tools/make/downloads/cmsis/CMSIS/NN/Source/PoolingFunctions/arm_avgpool_s8.c ****                         for (int i = 0; i < ch_src; i++)
 245              		.loc 1 301 0 discriminator 1
 246 01ec 00005BE3 		cmp	fp, #0
 247 01f0 330000DA 		ble	.L61
 248 01f4 08005BE3 		cmp	fp, #8
 249 01f8 F10000DA 		ble	.L39
 250 01fc 503089E2 		add	r3, r9, #80
 251              		.loc 1 301 0 is_stmt 0
 252 0200 0E20A0E1 		mov	r2, lr
 253 0204 0010A0E3 		mov	r1, #0
 254              	.LVL27:
 255              	.L23:
 256 0208 00F0D3F5 		pld	[r3]
 257              	.LVL28:
 302:../src/tensorflow_lite/src/tensorflow/lite/micro/tools/make/downloads/cmsis/CMSIS/NN/Source/PoolingFunctions/arm_avgpool_s8.c ****                         {
 303:../src/tensorflow_lite/src/tensorflow/lite/micro/tools/make/downloads/cmsis/CMSIS/NN/Source/PoolingFunctions/arm_avgpool_s8.c ****                             buffer[i] = __QADD(start[i], buffer[i]);
 258              		.loc 1 303 0 is_stmt 1 discriminator 3
 259 020c D000D2E1 		ldrsb	r0, [r2]
 260              	.LVL29:
 261              	.LBB33:
 262              	.LBB34:
 263              		.file 2 "C:/Renesas/e2studio_2021_01_workspace_RZA2M_ANPR/ANPR_RZA2M_RDK/src/tensorflow_lite/src/t
   1:C:/Renesas/e2studio_2021_01_workspace_RZA2M_ANPR/ANPR_RZA2M_RDK/src/tensorflow_lite/src/tensorflow/lite/micro/tools/make/downloads/cmsis/CMSIS/Core/Include\cmsis_gcc.h **** /**************************************************************************//**
   2:C:/Renesas/e2studio_2021_01_workspace_RZA2M_ANPR/ANPR_RZA2M_RDK/src/tensorflow_lite/src/tensorflow/lite/micro/tools/make/downloads/cmsis/CMSIS/Core/Include\cmsis_gcc.h ****  * @file     cmsis_gcc.h
   3:C:/Renesas/e2studio_2021_01_workspace_RZA2M_ANPR/ANPR_RZA2M_RDK/src/tensorflow_lite/src/tensorflow/lite/micro/tools/make/downloads/cmsis/CMSIS/Core/Include\cmsis_gcc.h ****  * @brief    CMSIS compiler GCC header file
   4:C:/Renesas/e2studio_2021_01_workspace_RZA2M_ANPR/ANPR_RZA2M_RDK/src/tensorflow_lite/src/tensorflow/lite/micro/tools/make/downloads/cmsis/CMSIS/Core/Include\cmsis_gcc.h ****  * @version  V5.3.3
   5:C:/Renesas/e2studio_2021_01_workspace_RZA2M_ANPR/ANPR_RZA2M_RDK/src/tensorflow_lite/src/tensorflow/lite/micro/tools/make/downloads/cmsis/CMSIS/Core/Include\cmsis_gcc.h ****  * @date     19. March 2021
   6:C:/Renesas/e2studio_2021_01_workspace_RZA2M_ANPR/ANPR_RZA2M_RDK/src/tensorflow_lite/src/tensorflow/lite/micro/tools/make/downloads/cmsis/CMSIS/Core/Include\cmsis_gcc.h ****  ******************************************************************************/
   7:C:/Renesas/e2studio_2021_01_workspace_RZA2M_ANPR/ANPR_RZA2M_RDK/src/tensorflow_lite/src/tensorflow/lite/micro/tools/make/downloads/cmsis/CMSIS/Core/Include\cmsis_gcc.h **** /*
   8:C:/Renesas/e2studio_2021_01_workspace_RZA2M_ANPR/ANPR_RZA2M_RDK/src/tensorflow_lite/src/tensorflow/lite/micro/tools/make/downloads/cmsis/CMSIS/Core/Include\cmsis_gcc.h ****  * Copyright (c) 2009-2021 Arm Limited. All rights reserved.
   9:C:/Renesas/e2studio_2021_01_workspace_RZA2M_ANPR/ANPR_RZA2M_RDK/src/tensorflow_lite/src/tensorflow/lite/micro/tools/make/downloads/cmsis/CMSIS/Core/Include\cmsis_gcc.h ****  *
  10:C:/Renesas/e2studio_2021_01_workspace_RZA2M_ANPR/ANPR_RZA2M_RDK/src/tensorflow_lite/src/tensorflow/lite/micro/tools/make/downloads/cmsis/CMSIS/Core/Include\cmsis_gcc.h ****  * SPDX-License-Identifier: Apache-2.0
  11:C:/Renesas/e2studio_2021_01_workspace_RZA2M_ANPR/ANPR_RZA2M_RDK/src/tensorflow_lite/src/tensorflow/lite/micro/tools/make/downloads/cmsis/CMSIS/Core/Include\cmsis_gcc.h ****  *
  12:C:/Renesas/e2studio_2021_01_workspace_RZA2M_ANPR/ANPR_RZA2M_RDK/src/tensorflow_lite/src/tensorflow/lite/micro/tools/make/downloads/cmsis/CMSIS/Core/Include\cmsis_gcc.h ****  * Licensed under the Apache License, Version 2.0 (the License); you may
  13:C:/Renesas/e2studio_2021_01_workspace_RZA2M_ANPR/ANPR_RZA2M_RDK/src/tensorflow_lite/src/tensorflow/lite/micro/tools/make/downloads/cmsis/CMSIS/Core/Include\cmsis_gcc.h ****  * not use this file except in compliance with the License.
  14:C:/Renesas/e2studio_2021_01_workspace_RZA2M_ANPR/ANPR_RZA2M_RDK/src/tensorflow_lite/src/tensorflow/lite/micro/tools/make/downloads/cmsis/CMSIS/Core/Include\cmsis_gcc.h ****  * You may obtain a copy of the License at
  15:C:/Renesas/e2studio_2021_01_workspace_RZA2M_ANPR/ANPR_RZA2M_RDK/src/tensorflow_lite/src/tensorflow/lite/micro/tools/make/downloads/cmsis/CMSIS/Core/Include\cmsis_gcc.h ****  *
  16:C:/Renesas/e2studio_2021_01_workspace_RZA2M_ANPR/ANPR_RZA2M_RDK/src/tensorflow_lite/src/tensorflow/lite/micro/tools/make/downloads/cmsis/CMSIS/Core/Include\cmsis_gcc.h ****  * www.apache.org/licenses/LICENSE-2.0
  17:C:/Renesas/e2studio_2021_01_workspace_RZA2M_ANPR/ANPR_RZA2M_RDK/src/tensorflow_lite/src/tensorflow/lite/micro/tools/make/downloads/cmsis/CMSIS/Core/Include\cmsis_gcc.h ****  *
  18:C:/Renesas/e2studio_2021_01_workspace_RZA2M_ANPR/ANPR_RZA2M_RDK/src/tensorflow_lite/src/tensorflow/lite/micro/tools/make/downloads/cmsis/CMSIS/Core/Include\cmsis_gcc.h ****  * Unless required by applicable law or agreed to in writing, software
  19:C:/Renesas/e2studio_2021_01_workspace_RZA2M_ANPR/ANPR_RZA2M_RDK/src/tensorflow_lite/src/tensorflow/lite/micro/tools/make/downloads/cmsis/CMSIS/Core/Include\cmsis_gcc.h ****  * distributed under the License is distributed on an AS IS BASIS, WITHOUT
  20:C:/Renesas/e2studio_2021_01_workspace_RZA2M_ANPR/ANPR_RZA2M_RDK/src/tensorflow_lite/src/tensorflow/lite/micro/tools/make/downloads/cmsis/CMSIS/Core/Include\cmsis_gcc.h ****  * WARRANTIES OR CONDITIONS OF ANY KIND, either express or implied.
  21:C:/Renesas/e2studio_2021_01_workspace_RZA2M_ANPR/ANPR_RZA2M_RDK/src/tensorflow_lite/src/tensorflow/lite/micro/tools/make/downloads/cmsis/CMSIS/Core/Include\cmsis_gcc.h ****  * See the License for the specific language governing permissions and
  22:C:/Renesas/e2studio_2021_01_workspace_RZA2M_ANPR/ANPR_RZA2M_RDK/src/tensorflow_lite/src/tensorflow/lite/micro/tools/make/downloads/cmsis/CMSIS/Core/Include\cmsis_gcc.h ****  * limitations under the License.
  23:C:/Renesas/e2studio_2021_01_workspace_RZA2M_ANPR/ANPR_RZA2M_RDK/src/tensorflow_lite/src/tensorflow/lite/micro/tools/make/downloads/cmsis/CMSIS/Core/Include\cmsis_gcc.h ****  */
  24:C:/Renesas/e2studio_2021_01_workspace_RZA2M_ANPR/ANPR_RZA2M_RDK/src/tensorflow_lite/src/tensorflow/lite/micro/tools/make/downloads/cmsis/CMSIS/Core/Include\cmsis_gcc.h **** 
  25:C:/Renesas/e2studio_2021_01_workspace_RZA2M_ANPR/ANPR_RZA2M_RDK/src/tensorflow_lite/src/tensorflow/lite/micro/tools/make/downloads/cmsis/CMSIS/Core/Include\cmsis_gcc.h **** #ifndef __CMSIS_GCC_H
  26:C:/Renesas/e2studio_2021_01_workspace_RZA2M_ANPR/ANPR_RZA2M_RDK/src/tensorflow_lite/src/tensorflow/lite/micro/tools/make/downloads/cmsis/CMSIS/Core/Include\cmsis_gcc.h **** #define __CMSIS_GCC_H
  27:C:/Renesas/e2studio_2021_01_workspace_RZA2M_ANPR/ANPR_RZA2M_RDK/src/tensorflow_lite/src/tensorflow/lite/micro/tools/make/downloads/cmsis/CMSIS/Core/Include\cmsis_gcc.h **** 
  28:C:/Renesas/e2studio_2021_01_workspace_RZA2M_ANPR/ANPR_RZA2M_RDK/src/tensorflow_lite/src/tensorflow/lite/micro/tools/make/downloads/cmsis/CMSIS/Core/Include\cmsis_gcc.h **** /* ignore some GCC warnings */
  29:C:/Renesas/e2studio_2021_01_workspace_RZA2M_ANPR/ANPR_RZA2M_RDK/src/tensorflow_lite/src/tensorflow/lite/micro/tools/make/downloads/cmsis/CMSIS/Core/Include\cmsis_gcc.h **** #pragma GCC diagnostic push
  30:C:/Renesas/e2studio_2021_01_workspace_RZA2M_ANPR/ANPR_RZA2M_RDK/src/tensorflow_lite/src/tensorflow/lite/micro/tools/make/downloads/cmsis/CMSIS/Core/Include\cmsis_gcc.h **** #pragma GCC diagnostic ignored "-Wsign-conversion"
  31:C:/Renesas/e2studio_2021_01_workspace_RZA2M_ANPR/ANPR_RZA2M_RDK/src/tensorflow_lite/src/tensorflow/lite/micro/tools/make/downloads/cmsis/CMSIS/Core/Include\cmsis_gcc.h **** #pragma GCC diagnostic ignored "-Wconversion"
  32:C:/Renesas/e2studio_2021_01_workspace_RZA2M_ANPR/ANPR_RZA2M_RDK/src/tensorflow_lite/src/tensorflow/lite/micro/tools/make/downloads/cmsis/CMSIS/Core/Include\cmsis_gcc.h **** #pragma GCC diagnostic ignored "-Wunused-parameter"
  33:C:/Renesas/e2studio_2021_01_workspace_RZA2M_ANPR/ANPR_RZA2M_RDK/src/tensorflow_lite/src/tensorflow/lite/micro/tools/make/downloads/cmsis/CMSIS/Core/Include\cmsis_gcc.h **** 
  34:C:/Renesas/e2studio_2021_01_workspace_RZA2M_ANPR/ANPR_RZA2M_RDK/src/tensorflow_lite/src/tensorflow/lite/micro/tools/make/downloads/cmsis/CMSIS/Core/Include\cmsis_gcc.h **** /* Fallback for __has_builtin */
  35:C:/Renesas/e2studio_2021_01_workspace_RZA2M_ANPR/ANPR_RZA2M_RDK/src/tensorflow_lite/src/tensorflow/lite/micro/tools/make/downloads/cmsis/CMSIS/Core/Include\cmsis_gcc.h **** #ifndef __has_builtin
  36:C:/Renesas/e2studio_2021_01_workspace_RZA2M_ANPR/ANPR_RZA2M_RDK/src/tensorflow_lite/src/tensorflow/lite/micro/tools/make/downloads/cmsis/CMSIS/Core/Include\cmsis_gcc.h ****   #define __has_builtin(x) (0)
  37:C:/Renesas/e2studio_2021_01_workspace_RZA2M_ANPR/ANPR_RZA2M_RDK/src/tensorflow_lite/src/tensorflow/lite/micro/tools/make/downloads/cmsis/CMSIS/Core/Include\cmsis_gcc.h **** #endif
  38:C:/Renesas/e2studio_2021_01_workspace_RZA2M_ANPR/ANPR_RZA2M_RDK/src/tensorflow_lite/src/tensorflow/lite/micro/tools/make/downloads/cmsis/CMSIS/Core/Include\cmsis_gcc.h **** 
  39:C:/Renesas/e2studio_2021_01_workspace_RZA2M_ANPR/ANPR_RZA2M_RDK/src/tensorflow_lite/src/tensorflow/lite/micro/tools/make/downloads/cmsis/CMSIS/Core/Include\cmsis_gcc.h **** /* CMSIS compiler specific defines */
  40:C:/Renesas/e2studio_2021_01_workspace_RZA2M_ANPR/ANPR_RZA2M_RDK/src/tensorflow_lite/src/tensorflow/lite/micro/tools/make/downloads/cmsis/CMSIS/Core/Include\cmsis_gcc.h **** #ifndef   __ASM
  41:C:/Renesas/e2studio_2021_01_workspace_RZA2M_ANPR/ANPR_RZA2M_RDK/src/tensorflow_lite/src/tensorflow/lite/micro/tools/make/downloads/cmsis/CMSIS/Core/Include\cmsis_gcc.h ****   #define __ASM                                  __asm
  42:C:/Renesas/e2studio_2021_01_workspace_RZA2M_ANPR/ANPR_RZA2M_RDK/src/tensorflow_lite/src/tensorflow/lite/micro/tools/make/downloads/cmsis/CMSIS/Core/Include\cmsis_gcc.h **** #endif
  43:C:/Renesas/e2studio_2021_01_workspace_RZA2M_ANPR/ANPR_RZA2M_RDK/src/tensorflow_lite/src/tensorflow/lite/micro/tools/make/downloads/cmsis/CMSIS/Core/Include\cmsis_gcc.h **** #ifndef   __INLINE
  44:C:/Renesas/e2studio_2021_01_workspace_RZA2M_ANPR/ANPR_RZA2M_RDK/src/tensorflow_lite/src/tensorflow/lite/micro/tools/make/downloads/cmsis/CMSIS/Core/Include\cmsis_gcc.h ****   #define __INLINE                               inline
  45:C:/Renesas/e2studio_2021_01_workspace_RZA2M_ANPR/ANPR_RZA2M_RDK/src/tensorflow_lite/src/tensorflow/lite/micro/tools/make/downloads/cmsis/CMSIS/Core/Include\cmsis_gcc.h **** #endif
  46:C:/Renesas/e2studio_2021_01_workspace_RZA2M_ANPR/ANPR_RZA2M_RDK/src/tensorflow_lite/src/tensorflow/lite/micro/tools/make/downloads/cmsis/CMSIS/Core/Include\cmsis_gcc.h **** #ifndef   __STATIC_INLINE
  47:C:/Renesas/e2studio_2021_01_workspace_RZA2M_ANPR/ANPR_RZA2M_RDK/src/tensorflow_lite/src/tensorflow/lite/micro/tools/make/downloads/cmsis/CMSIS/Core/Include\cmsis_gcc.h ****   #define __STATIC_INLINE                        static inline
  48:C:/Renesas/e2studio_2021_01_workspace_RZA2M_ANPR/ANPR_RZA2M_RDK/src/tensorflow_lite/src/tensorflow/lite/micro/tools/make/downloads/cmsis/CMSIS/Core/Include\cmsis_gcc.h **** #endif
  49:C:/Renesas/e2studio_2021_01_workspace_RZA2M_ANPR/ANPR_RZA2M_RDK/src/tensorflow_lite/src/tensorflow/lite/micro/tools/make/downloads/cmsis/CMSIS/Core/Include\cmsis_gcc.h **** #ifndef   __STATIC_FORCEINLINE
  50:C:/Renesas/e2studio_2021_01_workspace_RZA2M_ANPR/ANPR_RZA2M_RDK/src/tensorflow_lite/src/tensorflow/lite/micro/tools/make/downloads/cmsis/CMSIS/Core/Include\cmsis_gcc.h ****   #define __STATIC_FORCEINLINE                   __attribute__((always_inline)) static inline
  51:C:/Renesas/e2studio_2021_01_workspace_RZA2M_ANPR/ANPR_RZA2M_RDK/src/tensorflow_lite/src/tensorflow/lite/micro/tools/make/downloads/cmsis/CMSIS/Core/Include\cmsis_gcc.h **** #endif
  52:C:/Renesas/e2studio_2021_01_workspace_RZA2M_ANPR/ANPR_RZA2M_RDK/src/tensorflow_lite/src/tensorflow/lite/micro/tools/make/downloads/cmsis/CMSIS/Core/Include\cmsis_gcc.h **** #ifndef   __NO_RETURN
  53:C:/Renesas/e2studio_2021_01_workspace_RZA2M_ANPR/ANPR_RZA2M_RDK/src/tensorflow_lite/src/tensorflow/lite/micro/tools/make/downloads/cmsis/CMSIS/Core/Include\cmsis_gcc.h ****   #define __NO_RETURN                            __attribute__((__noreturn__))
  54:C:/Renesas/e2studio_2021_01_workspace_RZA2M_ANPR/ANPR_RZA2M_RDK/src/tensorflow_lite/src/tensorflow/lite/micro/tools/make/downloads/cmsis/CMSIS/Core/Include\cmsis_gcc.h **** #endif
  55:C:/Renesas/e2studio_2021_01_workspace_RZA2M_ANPR/ANPR_RZA2M_RDK/src/tensorflow_lite/src/tensorflow/lite/micro/tools/make/downloads/cmsis/CMSIS/Core/Include\cmsis_gcc.h **** #ifndef   __USED
  56:C:/Renesas/e2studio_2021_01_workspace_RZA2M_ANPR/ANPR_RZA2M_RDK/src/tensorflow_lite/src/tensorflow/lite/micro/tools/make/downloads/cmsis/CMSIS/Core/Include\cmsis_gcc.h ****   #define __USED                                 __attribute__((used))
  57:C:/Renesas/e2studio_2021_01_workspace_RZA2M_ANPR/ANPR_RZA2M_RDK/src/tensorflow_lite/src/tensorflow/lite/micro/tools/make/downloads/cmsis/CMSIS/Core/Include\cmsis_gcc.h **** #endif
  58:C:/Renesas/e2studio_2021_01_workspace_RZA2M_ANPR/ANPR_RZA2M_RDK/src/tensorflow_lite/src/tensorflow/lite/micro/tools/make/downloads/cmsis/CMSIS/Core/Include\cmsis_gcc.h **** #ifndef   __WEAK
  59:C:/Renesas/e2studio_2021_01_workspace_RZA2M_ANPR/ANPR_RZA2M_RDK/src/tensorflow_lite/src/tensorflow/lite/micro/tools/make/downloads/cmsis/CMSIS/Core/Include\cmsis_gcc.h ****   #define __WEAK                                 __attribute__((weak))
  60:C:/Renesas/e2studio_2021_01_workspace_RZA2M_ANPR/ANPR_RZA2M_RDK/src/tensorflow_lite/src/tensorflow/lite/micro/tools/make/downloads/cmsis/CMSIS/Core/Include\cmsis_gcc.h **** #endif
  61:C:/Renesas/e2studio_2021_01_workspace_RZA2M_ANPR/ANPR_RZA2M_RDK/src/tensorflow_lite/src/tensorflow/lite/micro/tools/make/downloads/cmsis/CMSIS/Core/Include\cmsis_gcc.h **** #ifndef   __PACKED
  62:C:/Renesas/e2studio_2021_01_workspace_RZA2M_ANPR/ANPR_RZA2M_RDK/src/tensorflow_lite/src/tensorflow/lite/micro/tools/make/downloads/cmsis/CMSIS/Core/Include\cmsis_gcc.h ****   #define __PACKED                               __attribute__((packed, aligned(1)))
  63:C:/Renesas/e2studio_2021_01_workspace_RZA2M_ANPR/ANPR_RZA2M_RDK/src/tensorflow_lite/src/tensorflow/lite/micro/tools/make/downloads/cmsis/CMSIS/Core/Include\cmsis_gcc.h **** #endif
  64:C:/Renesas/e2studio_2021_01_workspace_RZA2M_ANPR/ANPR_RZA2M_RDK/src/tensorflow_lite/src/tensorflow/lite/micro/tools/make/downloads/cmsis/CMSIS/Core/Include\cmsis_gcc.h **** #ifndef   __PACKED_STRUCT
  65:C:/Renesas/e2studio_2021_01_workspace_RZA2M_ANPR/ANPR_RZA2M_RDK/src/tensorflow_lite/src/tensorflow/lite/micro/tools/make/downloads/cmsis/CMSIS/Core/Include\cmsis_gcc.h ****   #define __PACKED_STRUCT                        struct __attribute__((packed, aligned(1)))
  66:C:/Renesas/e2studio_2021_01_workspace_RZA2M_ANPR/ANPR_RZA2M_RDK/src/tensorflow_lite/src/tensorflow/lite/micro/tools/make/downloads/cmsis/CMSIS/Core/Include\cmsis_gcc.h **** #endif
  67:C:/Renesas/e2studio_2021_01_workspace_RZA2M_ANPR/ANPR_RZA2M_RDK/src/tensorflow_lite/src/tensorflow/lite/micro/tools/make/downloads/cmsis/CMSIS/Core/Include\cmsis_gcc.h **** #ifndef   __PACKED_UNION
  68:C:/Renesas/e2studio_2021_01_workspace_RZA2M_ANPR/ANPR_RZA2M_RDK/src/tensorflow_lite/src/tensorflow/lite/micro/tools/make/downloads/cmsis/CMSIS/Core/Include\cmsis_gcc.h ****   #define __PACKED_UNION                         union __attribute__((packed, aligned(1)))
  69:C:/Renesas/e2studio_2021_01_workspace_RZA2M_ANPR/ANPR_RZA2M_RDK/src/tensorflow_lite/src/tensorflow/lite/micro/tools/make/downloads/cmsis/CMSIS/Core/Include\cmsis_gcc.h **** #endif
  70:C:/Renesas/e2studio_2021_01_workspace_RZA2M_ANPR/ANPR_RZA2M_RDK/src/tensorflow_lite/src/tensorflow/lite/micro/tools/make/downloads/cmsis/CMSIS/Core/Include\cmsis_gcc.h **** #ifndef   __UNALIGNED_UINT32        /* deprecated */
  71:C:/Renesas/e2studio_2021_01_workspace_RZA2M_ANPR/ANPR_RZA2M_RDK/src/tensorflow_lite/src/tensorflow/lite/micro/tools/make/downloads/cmsis/CMSIS/Core/Include\cmsis_gcc.h ****   #pragma GCC diagnostic push
  72:C:/Renesas/e2studio_2021_01_workspace_RZA2M_ANPR/ANPR_RZA2M_RDK/src/tensorflow_lite/src/tensorflow/lite/micro/tools/make/downloads/cmsis/CMSIS/Core/Include\cmsis_gcc.h ****   #pragma GCC diagnostic ignored "-Wpacked"
  73:C:/Renesas/e2studio_2021_01_workspace_RZA2M_ANPR/ANPR_RZA2M_RDK/src/tensorflow_lite/src/tensorflow/lite/micro/tools/make/downloads/cmsis/CMSIS/Core/Include\cmsis_gcc.h ****   #pragma GCC diagnostic ignored "-Wattributes"
  74:C:/Renesas/e2studio_2021_01_workspace_RZA2M_ANPR/ANPR_RZA2M_RDK/src/tensorflow_lite/src/tensorflow/lite/micro/tools/make/downloads/cmsis/CMSIS/Core/Include\cmsis_gcc.h ****   struct __attribute__((packed)) T_UINT32 { uint32_t v; };
  75:C:/Renesas/e2studio_2021_01_workspace_RZA2M_ANPR/ANPR_RZA2M_RDK/src/tensorflow_lite/src/tensorflow/lite/micro/tools/make/downloads/cmsis/CMSIS/Core/Include\cmsis_gcc.h ****   #pragma GCC diagnostic pop
  76:C:/Renesas/e2studio_2021_01_workspace_RZA2M_ANPR/ANPR_RZA2M_RDK/src/tensorflow_lite/src/tensorflow/lite/micro/tools/make/downloads/cmsis/CMSIS/Core/Include\cmsis_gcc.h ****   #define __UNALIGNED_UINT32(x)                  (((struct T_UINT32 *)(x))->v)
  77:C:/Renesas/e2studio_2021_01_workspace_RZA2M_ANPR/ANPR_RZA2M_RDK/src/tensorflow_lite/src/tensorflow/lite/micro/tools/make/downloads/cmsis/CMSIS/Core/Include\cmsis_gcc.h **** #endif
  78:C:/Renesas/e2studio_2021_01_workspace_RZA2M_ANPR/ANPR_RZA2M_RDK/src/tensorflow_lite/src/tensorflow/lite/micro/tools/make/downloads/cmsis/CMSIS/Core/Include\cmsis_gcc.h **** #ifndef   __UNALIGNED_UINT16_WRITE
  79:C:/Renesas/e2studio_2021_01_workspace_RZA2M_ANPR/ANPR_RZA2M_RDK/src/tensorflow_lite/src/tensorflow/lite/micro/tools/make/downloads/cmsis/CMSIS/Core/Include\cmsis_gcc.h ****   #pragma GCC diagnostic push
  80:C:/Renesas/e2studio_2021_01_workspace_RZA2M_ANPR/ANPR_RZA2M_RDK/src/tensorflow_lite/src/tensorflow/lite/micro/tools/make/downloads/cmsis/CMSIS/Core/Include\cmsis_gcc.h ****   #pragma GCC diagnostic ignored "-Wpacked"
  81:C:/Renesas/e2studio_2021_01_workspace_RZA2M_ANPR/ANPR_RZA2M_RDK/src/tensorflow_lite/src/tensorflow/lite/micro/tools/make/downloads/cmsis/CMSIS/Core/Include\cmsis_gcc.h ****   #pragma GCC diagnostic ignored "-Wattributes"
  82:C:/Renesas/e2studio_2021_01_workspace_RZA2M_ANPR/ANPR_RZA2M_RDK/src/tensorflow_lite/src/tensorflow/lite/micro/tools/make/downloads/cmsis/CMSIS/Core/Include\cmsis_gcc.h ****   __PACKED_STRUCT T_UINT16_WRITE { uint16_t v; };
  83:C:/Renesas/e2studio_2021_01_workspace_RZA2M_ANPR/ANPR_RZA2M_RDK/src/tensorflow_lite/src/tensorflow/lite/micro/tools/make/downloads/cmsis/CMSIS/Core/Include\cmsis_gcc.h ****   #pragma GCC diagnostic pop
  84:C:/Renesas/e2studio_2021_01_workspace_RZA2M_ANPR/ANPR_RZA2M_RDK/src/tensorflow_lite/src/tensorflow/lite/micro/tools/make/downloads/cmsis/CMSIS/Core/Include\cmsis_gcc.h ****   #define __UNALIGNED_UINT16_WRITE(addr, val)    (void)((((struct T_UINT16_WRITE *)(void *)(addr))-
  85:C:/Renesas/e2studio_2021_01_workspace_RZA2M_ANPR/ANPR_RZA2M_RDK/src/tensorflow_lite/src/tensorflow/lite/micro/tools/make/downloads/cmsis/CMSIS/Core/Include\cmsis_gcc.h **** #endif
  86:C:/Renesas/e2studio_2021_01_workspace_RZA2M_ANPR/ANPR_RZA2M_RDK/src/tensorflow_lite/src/tensorflow/lite/micro/tools/make/downloads/cmsis/CMSIS/Core/Include\cmsis_gcc.h **** #ifndef   __UNALIGNED_UINT16_READ
  87:C:/Renesas/e2studio_2021_01_workspace_RZA2M_ANPR/ANPR_RZA2M_RDK/src/tensorflow_lite/src/tensorflow/lite/micro/tools/make/downloads/cmsis/CMSIS/Core/Include\cmsis_gcc.h ****   #pragma GCC diagnostic push
  88:C:/Renesas/e2studio_2021_01_workspace_RZA2M_ANPR/ANPR_RZA2M_RDK/src/tensorflow_lite/src/tensorflow/lite/micro/tools/make/downloads/cmsis/CMSIS/Core/Include\cmsis_gcc.h ****   #pragma GCC diagnostic ignored "-Wpacked"
  89:C:/Renesas/e2studio_2021_01_workspace_RZA2M_ANPR/ANPR_RZA2M_RDK/src/tensorflow_lite/src/tensorflow/lite/micro/tools/make/downloads/cmsis/CMSIS/Core/Include\cmsis_gcc.h ****   #pragma GCC diagnostic ignored "-Wattributes"
  90:C:/Renesas/e2studio_2021_01_workspace_RZA2M_ANPR/ANPR_RZA2M_RDK/src/tensorflow_lite/src/tensorflow/lite/micro/tools/make/downloads/cmsis/CMSIS/Core/Include\cmsis_gcc.h ****   __PACKED_STRUCT T_UINT16_READ { uint16_t v; };
  91:C:/Renesas/e2studio_2021_01_workspace_RZA2M_ANPR/ANPR_RZA2M_RDK/src/tensorflow_lite/src/tensorflow/lite/micro/tools/make/downloads/cmsis/CMSIS/Core/Include\cmsis_gcc.h ****   #pragma GCC diagnostic pop
  92:C:/Renesas/e2studio_2021_01_workspace_RZA2M_ANPR/ANPR_RZA2M_RDK/src/tensorflow_lite/src/tensorflow/lite/micro/tools/make/downloads/cmsis/CMSIS/Core/Include\cmsis_gcc.h ****   #define __UNALIGNED_UINT16_READ(addr)          (((const struct T_UINT16_READ *)(const void *)(add
  93:C:/Renesas/e2studio_2021_01_workspace_RZA2M_ANPR/ANPR_RZA2M_RDK/src/tensorflow_lite/src/tensorflow/lite/micro/tools/make/downloads/cmsis/CMSIS/Core/Include\cmsis_gcc.h **** #endif
  94:C:/Renesas/e2studio_2021_01_workspace_RZA2M_ANPR/ANPR_RZA2M_RDK/src/tensorflow_lite/src/tensorflow/lite/micro/tools/make/downloads/cmsis/CMSIS/Core/Include\cmsis_gcc.h **** #ifndef   __UNALIGNED_UINT32_WRITE
  95:C:/Renesas/e2studio_2021_01_workspace_RZA2M_ANPR/ANPR_RZA2M_RDK/src/tensorflow_lite/src/tensorflow/lite/micro/tools/make/downloads/cmsis/CMSIS/Core/Include\cmsis_gcc.h ****   #pragma GCC diagnostic push
  96:C:/Renesas/e2studio_2021_01_workspace_RZA2M_ANPR/ANPR_RZA2M_RDK/src/tensorflow_lite/src/tensorflow/lite/micro/tools/make/downloads/cmsis/CMSIS/Core/Include\cmsis_gcc.h ****   #pragma GCC diagnostic ignored "-Wpacked"
  97:C:/Renesas/e2studio_2021_01_workspace_RZA2M_ANPR/ANPR_RZA2M_RDK/src/tensorflow_lite/src/tensorflow/lite/micro/tools/make/downloads/cmsis/CMSIS/Core/Include\cmsis_gcc.h ****   #pragma GCC diagnostic ignored "-Wattributes"
  98:C:/Renesas/e2studio_2021_01_workspace_RZA2M_ANPR/ANPR_RZA2M_RDK/src/tensorflow_lite/src/tensorflow/lite/micro/tools/make/downloads/cmsis/CMSIS/Core/Include\cmsis_gcc.h ****   __PACKED_STRUCT T_UINT32_WRITE { uint32_t v; };
  99:C:/Renesas/e2studio_2021_01_workspace_RZA2M_ANPR/ANPR_RZA2M_RDK/src/tensorflow_lite/src/tensorflow/lite/micro/tools/make/downloads/cmsis/CMSIS/Core/Include\cmsis_gcc.h ****   #pragma GCC diagnostic pop
 100:C:/Renesas/e2studio_2021_01_workspace_RZA2M_ANPR/ANPR_RZA2M_RDK/src/tensorflow_lite/src/tensorflow/lite/micro/tools/make/downloads/cmsis/CMSIS/Core/Include\cmsis_gcc.h ****   #define __UNALIGNED_UINT32_WRITE(addr, val)    (void)((((struct T_UINT32_WRITE *)(void *)(addr))-
 101:C:/Renesas/e2studio_2021_01_workspace_RZA2M_ANPR/ANPR_RZA2M_RDK/src/tensorflow_lite/src/tensorflow/lite/micro/tools/make/downloads/cmsis/CMSIS/Core/Include\cmsis_gcc.h **** #endif
 102:C:/Renesas/e2studio_2021_01_workspace_RZA2M_ANPR/ANPR_RZA2M_RDK/src/tensorflow_lite/src/tensorflow/lite/micro/tools/make/downloads/cmsis/CMSIS/Core/Include\cmsis_gcc.h **** #ifndef   __UNALIGNED_UINT32_READ
 103:C:/Renesas/e2studio_2021_01_workspace_RZA2M_ANPR/ANPR_RZA2M_RDK/src/tensorflow_lite/src/tensorflow/lite/micro/tools/make/downloads/cmsis/CMSIS/Core/Include\cmsis_gcc.h ****   #pragma GCC diagnostic push
 104:C:/Renesas/e2studio_2021_01_workspace_RZA2M_ANPR/ANPR_RZA2M_RDK/src/tensorflow_lite/src/tensorflow/lite/micro/tools/make/downloads/cmsis/CMSIS/Core/Include\cmsis_gcc.h ****   #pragma GCC diagnostic ignored "-Wpacked"
 105:C:/Renesas/e2studio_2021_01_workspace_RZA2M_ANPR/ANPR_RZA2M_RDK/src/tensorflow_lite/src/tensorflow/lite/micro/tools/make/downloads/cmsis/CMSIS/Core/Include\cmsis_gcc.h ****   #pragma GCC diagnostic ignored "-Wattributes"
 106:C:/Renesas/e2studio_2021_01_workspace_RZA2M_ANPR/ANPR_RZA2M_RDK/src/tensorflow_lite/src/tensorflow/lite/micro/tools/make/downloads/cmsis/CMSIS/Core/Include\cmsis_gcc.h ****   __PACKED_STRUCT T_UINT32_READ { uint32_t v; };
 107:C:/Renesas/e2studio_2021_01_workspace_RZA2M_ANPR/ANPR_RZA2M_RDK/src/tensorflow_lite/src/tensorflow/lite/micro/tools/make/downloads/cmsis/CMSIS/Core/Include\cmsis_gcc.h ****   #pragma GCC diagnostic pop
 108:C:/Renesas/e2studio_2021_01_workspace_RZA2M_ANPR/ANPR_RZA2M_RDK/src/tensorflow_lite/src/tensorflow/lite/micro/tools/make/downloads/cmsis/CMSIS/Core/Include\cmsis_gcc.h ****   #define __UNALIGNED_UINT32_READ(addr)          (((const struct T_UINT32_READ *)(const void *)(add
 109:C:/Renesas/e2studio_2021_01_workspace_RZA2M_ANPR/ANPR_RZA2M_RDK/src/tensorflow_lite/src/tensorflow/lite/micro/tools/make/downloads/cmsis/CMSIS/Core/Include\cmsis_gcc.h **** #endif
 110:C:/Renesas/e2studio_2021_01_workspace_RZA2M_ANPR/ANPR_RZA2M_RDK/src/tensorflow_lite/src/tensorflow/lite/micro/tools/make/downloads/cmsis/CMSIS/Core/Include\cmsis_gcc.h **** #ifndef   __ALIGNED
 111:C:/Renesas/e2studio_2021_01_workspace_RZA2M_ANPR/ANPR_RZA2M_RDK/src/tensorflow_lite/src/tensorflow/lite/micro/tools/make/downloads/cmsis/CMSIS/Core/Include\cmsis_gcc.h ****   #define __ALIGNED(x)                           __attribute__((aligned(x)))
 112:C:/Renesas/e2studio_2021_01_workspace_RZA2M_ANPR/ANPR_RZA2M_RDK/src/tensorflow_lite/src/tensorflow/lite/micro/tools/make/downloads/cmsis/CMSIS/Core/Include\cmsis_gcc.h **** #endif
 113:C:/Renesas/e2studio_2021_01_workspace_RZA2M_ANPR/ANPR_RZA2M_RDK/src/tensorflow_lite/src/tensorflow/lite/micro/tools/make/downloads/cmsis/CMSIS/Core/Include\cmsis_gcc.h **** #ifndef   __RESTRICT
 114:C:/Renesas/e2studio_2021_01_workspace_RZA2M_ANPR/ANPR_RZA2M_RDK/src/tensorflow_lite/src/tensorflow/lite/micro/tools/make/downloads/cmsis/CMSIS/Core/Include\cmsis_gcc.h ****   #define __RESTRICT                             __restrict
 115:C:/Renesas/e2studio_2021_01_workspace_RZA2M_ANPR/ANPR_RZA2M_RDK/src/tensorflow_lite/src/tensorflow/lite/micro/tools/make/downloads/cmsis/CMSIS/Core/Include\cmsis_gcc.h **** #endif
 116:C:/Renesas/e2studio_2021_01_workspace_RZA2M_ANPR/ANPR_RZA2M_RDK/src/tensorflow_lite/src/tensorflow/lite/micro/tools/make/downloads/cmsis/CMSIS/Core/Include\cmsis_gcc.h **** #ifndef   __COMPILER_BARRIER
 117:C:/Renesas/e2studio_2021_01_workspace_RZA2M_ANPR/ANPR_RZA2M_RDK/src/tensorflow_lite/src/tensorflow/lite/micro/tools/make/downloads/cmsis/CMSIS/Core/Include\cmsis_gcc.h ****   #define __COMPILER_BARRIER()                   __ASM volatile("":::"memory")
 118:C:/Renesas/e2studio_2021_01_workspace_RZA2M_ANPR/ANPR_RZA2M_RDK/src/tensorflow_lite/src/tensorflow/lite/micro/tools/make/downloads/cmsis/CMSIS/Core/Include\cmsis_gcc.h **** #endif
 119:C:/Renesas/e2studio_2021_01_workspace_RZA2M_ANPR/ANPR_RZA2M_RDK/src/tensorflow_lite/src/tensorflow/lite/micro/tools/make/downloads/cmsis/CMSIS/Core/Include\cmsis_gcc.h **** 
 120:C:/Renesas/e2studio_2021_01_workspace_RZA2M_ANPR/ANPR_RZA2M_RDK/src/tensorflow_lite/src/tensorflow/lite/micro/tools/make/downloads/cmsis/CMSIS/Core/Include\cmsis_gcc.h **** /* #########################  Startup and Lowlevel Init  ######################## */
 121:C:/Renesas/e2studio_2021_01_workspace_RZA2M_ANPR/ANPR_RZA2M_RDK/src/tensorflow_lite/src/tensorflow/lite/micro/tools/make/downloads/cmsis/CMSIS/Core/Include\cmsis_gcc.h **** 
 122:C:/Renesas/e2studio_2021_01_workspace_RZA2M_ANPR/ANPR_RZA2M_RDK/src/tensorflow_lite/src/tensorflow/lite/micro/tools/make/downloads/cmsis/CMSIS/Core/Include\cmsis_gcc.h **** #ifndef __PROGRAM_START
 123:C:/Renesas/e2studio_2021_01_workspace_RZA2M_ANPR/ANPR_RZA2M_RDK/src/tensorflow_lite/src/tensorflow/lite/micro/tools/make/downloads/cmsis/CMSIS/Core/Include\cmsis_gcc.h **** 
 124:C:/Renesas/e2studio_2021_01_workspace_RZA2M_ANPR/ANPR_RZA2M_RDK/src/tensorflow_lite/src/tensorflow/lite/micro/tools/make/downloads/cmsis/CMSIS/Core/Include\cmsis_gcc.h **** /**
 125:C:/Renesas/e2studio_2021_01_workspace_RZA2M_ANPR/ANPR_RZA2M_RDK/src/tensorflow_lite/src/tensorflow/lite/micro/tools/make/downloads/cmsis/CMSIS/Core/Include\cmsis_gcc.h ****   \brief   Initializes data and bss sections
 126:C:/Renesas/e2studio_2021_01_workspace_RZA2M_ANPR/ANPR_RZA2M_RDK/src/tensorflow_lite/src/tensorflow/lite/micro/tools/make/downloads/cmsis/CMSIS/Core/Include\cmsis_gcc.h ****   \details This default implementations initialized all data and additional bss
 127:C:/Renesas/e2studio_2021_01_workspace_RZA2M_ANPR/ANPR_RZA2M_RDK/src/tensorflow_lite/src/tensorflow/lite/micro/tools/make/downloads/cmsis/CMSIS/Core/Include\cmsis_gcc.h ****            sections relying on .copy.table and .zero.table specified properly
 128:C:/Renesas/e2studio_2021_01_workspace_RZA2M_ANPR/ANPR_RZA2M_RDK/src/tensorflow_lite/src/tensorflow/lite/micro/tools/make/downloads/cmsis/CMSIS/Core/Include\cmsis_gcc.h ****            in the used linker script.
 129:C:/Renesas/e2studio_2021_01_workspace_RZA2M_ANPR/ANPR_RZA2M_RDK/src/tensorflow_lite/src/tensorflow/lite/micro/tools/make/downloads/cmsis/CMSIS/Core/Include\cmsis_gcc.h **** 
 130:C:/Renesas/e2studio_2021_01_workspace_RZA2M_ANPR/ANPR_RZA2M_RDK/src/tensorflow_lite/src/tensorflow/lite/micro/tools/make/downloads/cmsis/CMSIS/Core/Include\cmsis_gcc.h ****  */
 131:C:/Renesas/e2studio_2021_01_workspace_RZA2M_ANPR/ANPR_RZA2M_RDK/src/tensorflow_lite/src/tensorflow/lite/micro/tools/make/downloads/cmsis/CMSIS/Core/Include\cmsis_gcc.h **** __STATIC_FORCEINLINE __NO_RETURN void __cmsis_start(void)
 132:C:/Renesas/e2studio_2021_01_workspace_RZA2M_ANPR/ANPR_RZA2M_RDK/src/tensorflow_lite/src/tensorflow/lite/micro/tools/make/downloads/cmsis/CMSIS/Core/Include\cmsis_gcc.h **** {
 133:C:/Renesas/e2studio_2021_01_workspace_RZA2M_ANPR/ANPR_RZA2M_RDK/src/tensorflow_lite/src/tensorflow/lite/micro/tools/make/downloads/cmsis/CMSIS/Core/Include\cmsis_gcc.h ****   extern void _start(void) __NO_RETURN;
 134:C:/Renesas/e2studio_2021_01_workspace_RZA2M_ANPR/ANPR_RZA2M_RDK/src/tensorflow_lite/src/tensorflow/lite/micro/tools/make/downloads/cmsis/CMSIS/Core/Include\cmsis_gcc.h **** 
 135:C:/Renesas/e2studio_2021_01_workspace_RZA2M_ANPR/ANPR_RZA2M_RDK/src/tensorflow_lite/src/tensorflow/lite/micro/tools/make/downloads/cmsis/CMSIS/Core/Include\cmsis_gcc.h ****   typedef struct {
 136:C:/Renesas/e2studio_2021_01_workspace_RZA2M_ANPR/ANPR_RZA2M_RDK/src/tensorflow_lite/src/tensorflow/lite/micro/tools/make/downloads/cmsis/CMSIS/Core/Include\cmsis_gcc.h ****     uint32_t const* src;
 137:C:/Renesas/e2studio_2021_01_workspace_RZA2M_ANPR/ANPR_RZA2M_RDK/src/tensorflow_lite/src/tensorflow/lite/micro/tools/make/downloads/cmsis/CMSIS/Core/Include\cmsis_gcc.h ****     uint32_t* dest;
 138:C:/Renesas/e2studio_2021_01_workspace_RZA2M_ANPR/ANPR_RZA2M_RDK/src/tensorflow_lite/src/tensorflow/lite/micro/tools/make/downloads/cmsis/CMSIS/Core/Include\cmsis_gcc.h ****     uint32_t  wlen;
 139:C:/Renesas/e2studio_2021_01_workspace_RZA2M_ANPR/ANPR_RZA2M_RDK/src/tensorflow_lite/src/tensorflow/lite/micro/tools/make/downloads/cmsis/CMSIS/Core/Include\cmsis_gcc.h ****   } __copy_table_t;
 140:C:/Renesas/e2studio_2021_01_workspace_RZA2M_ANPR/ANPR_RZA2M_RDK/src/tensorflow_lite/src/tensorflow/lite/micro/tools/make/downloads/cmsis/CMSIS/Core/Include\cmsis_gcc.h **** 
 141:C:/Renesas/e2studio_2021_01_workspace_RZA2M_ANPR/ANPR_RZA2M_RDK/src/tensorflow_lite/src/tensorflow/lite/micro/tools/make/downloads/cmsis/CMSIS/Core/Include\cmsis_gcc.h ****   typedef struct {
 142:C:/Renesas/e2studio_2021_01_workspace_RZA2M_ANPR/ANPR_RZA2M_RDK/src/tensorflow_lite/src/tensorflow/lite/micro/tools/make/downloads/cmsis/CMSIS/Core/Include\cmsis_gcc.h ****     uint32_t* dest;
 143:C:/Renesas/e2studio_2021_01_workspace_RZA2M_ANPR/ANPR_RZA2M_RDK/src/tensorflow_lite/src/tensorflow/lite/micro/tools/make/downloads/cmsis/CMSIS/Core/Include\cmsis_gcc.h ****     uint32_t  wlen;
 144:C:/Renesas/e2studio_2021_01_workspace_RZA2M_ANPR/ANPR_RZA2M_RDK/src/tensorflow_lite/src/tensorflow/lite/micro/tools/make/downloads/cmsis/CMSIS/Core/Include\cmsis_gcc.h ****   } __zero_table_t;
 145:C:/Renesas/e2studio_2021_01_workspace_RZA2M_ANPR/ANPR_RZA2M_RDK/src/tensorflow_lite/src/tensorflow/lite/micro/tools/make/downloads/cmsis/CMSIS/Core/Include\cmsis_gcc.h **** 
 146:C:/Renesas/e2studio_2021_01_workspace_RZA2M_ANPR/ANPR_RZA2M_RDK/src/tensorflow_lite/src/tensorflow/lite/micro/tools/make/downloads/cmsis/CMSIS/Core/Include\cmsis_gcc.h ****   extern const __copy_table_t __copy_table_start__;
 147:C:/Renesas/e2studio_2021_01_workspace_RZA2M_ANPR/ANPR_RZA2M_RDK/src/tensorflow_lite/src/tensorflow/lite/micro/tools/make/downloads/cmsis/CMSIS/Core/Include\cmsis_gcc.h ****   extern const __copy_table_t __copy_table_end__;
 148:C:/Renesas/e2studio_2021_01_workspace_RZA2M_ANPR/ANPR_RZA2M_RDK/src/tensorflow_lite/src/tensorflow/lite/micro/tools/make/downloads/cmsis/CMSIS/Core/Include\cmsis_gcc.h ****   extern const __zero_table_t __zero_table_start__;
 149:C:/Renesas/e2studio_2021_01_workspace_RZA2M_ANPR/ANPR_RZA2M_RDK/src/tensorflow_lite/src/tensorflow/lite/micro/tools/make/downloads/cmsis/CMSIS/Core/Include\cmsis_gcc.h ****   extern const __zero_table_t __zero_table_end__;
 150:C:/Renesas/e2studio_2021_01_workspace_RZA2M_ANPR/ANPR_RZA2M_RDK/src/tensorflow_lite/src/tensorflow/lite/micro/tools/make/downloads/cmsis/CMSIS/Core/Include\cmsis_gcc.h **** 
 151:C:/Renesas/e2studio_2021_01_workspace_RZA2M_ANPR/ANPR_RZA2M_RDK/src/tensorflow_lite/src/tensorflow/lite/micro/tools/make/downloads/cmsis/CMSIS/Core/Include\cmsis_gcc.h ****   for (__copy_table_t const* pTable = &__copy_table_start__; pTable < &__copy_table_end__; ++pTable
 152:C:/Renesas/e2studio_2021_01_workspace_RZA2M_ANPR/ANPR_RZA2M_RDK/src/tensorflow_lite/src/tensorflow/lite/micro/tools/make/downloads/cmsis/CMSIS/Core/Include\cmsis_gcc.h ****     for(uint32_t i=0u; i<pTable->wlen; ++i) {
 153:C:/Renesas/e2studio_2021_01_workspace_RZA2M_ANPR/ANPR_RZA2M_RDK/src/tensorflow_lite/src/tensorflow/lite/micro/tools/make/downloads/cmsis/CMSIS/Core/Include\cmsis_gcc.h ****       pTable->dest[i] = pTable->src[i];
 154:C:/Renesas/e2studio_2021_01_workspace_RZA2M_ANPR/ANPR_RZA2M_RDK/src/tensorflow_lite/src/tensorflow/lite/micro/tools/make/downloads/cmsis/CMSIS/Core/Include\cmsis_gcc.h ****     }
 155:C:/Renesas/e2studio_2021_01_workspace_RZA2M_ANPR/ANPR_RZA2M_RDK/src/tensorflow_lite/src/tensorflow/lite/micro/tools/make/downloads/cmsis/CMSIS/Core/Include\cmsis_gcc.h ****   }
 156:C:/Renesas/e2studio_2021_01_workspace_RZA2M_ANPR/ANPR_RZA2M_RDK/src/tensorflow_lite/src/tensorflow/lite/micro/tools/make/downloads/cmsis/CMSIS/Core/Include\cmsis_gcc.h **** 
 157:C:/Renesas/e2studio_2021_01_workspace_RZA2M_ANPR/ANPR_RZA2M_RDK/src/tensorflow_lite/src/tensorflow/lite/micro/tools/make/downloads/cmsis/CMSIS/Core/Include\cmsis_gcc.h ****   for (__zero_table_t const* pTable = &__zero_table_start__; pTable < &__zero_table_end__; ++pTable
 158:C:/Renesas/e2studio_2021_01_workspace_RZA2M_ANPR/ANPR_RZA2M_RDK/src/tensorflow_lite/src/tensorflow/lite/micro/tools/make/downloads/cmsis/CMSIS/Core/Include\cmsis_gcc.h ****     for(uint32_t i=0u; i<pTable->wlen; ++i) {
 159:C:/Renesas/e2studio_2021_01_workspace_RZA2M_ANPR/ANPR_RZA2M_RDK/src/tensorflow_lite/src/tensorflow/lite/micro/tools/make/downloads/cmsis/CMSIS/Core/Include\cmsis_gcc.h ****       pTable->dest[i] = 0u;
 160:C:/Renesas/e2studio_2021_01_workspace_RZA2M_ANPR/ANPR_RZA2M_RDK/src/tensorflow_lite/src/tensorflow/lite/micro/tools/make/downloads/cmsis/CMSIS/Core/Include\cmsis_gcc.h ****     }
 161:C:/Renesas/e2studio_2021_01_workspace_RZA2M_ANPR/ANPR_RZA2M_RDK/src/tensorflow_lite/src/tensorflow/lite/micro/tools/make/downloads/cmsis/CMSIS/Core/Include\cmsis_gcc.h ****   }
 162:C:/Renesas/e2studio_2021_01_workspace_RZA2M_ANPR/ANPR_RZA2M_RDK/src/tensorflow_lite/src/tensorflow/lite/micro/tools/make/downloads/cmsis/CMSIS/Core/Include\cmsis_gcc.h **** 
 163:C:/Renesas/e2studio_2021_01_workspace_RZA2M_ANPR/ANPR_RZA2M_RDK/src/tensorflow_lite/src/tensorflow/lite/micro/tools/make/downloads/cmsis/CMSIS/Core/Include\cmsis_gcc.h ****   _start();
 164:C:/Renesas/e2studio_2021_01_workspace_RZA2M_ANPR/ANPR_RZA2M_RDK/src/tensorflow_lite/src/tensorflow/lite/micro/tools/make/downloads/cmsis/CMSIS/Core/Include\cmsis_gcc.h **** }
 165:C:/Renesas/e2studio_2021_01_workspace_RZA2M_ANPR/ANPR_RZA2M_RDK/src/tensorflow_lite/src/tensorflow/lite/micro/tools/make/downloads/cmsis/CMSIS/Core/Include\cmsis_gcc.h **** 
 166:C:/Renesas/e2studio_2021_01_workspace_RZA2M_ANPR/ANPR_RZA2M_RDK/src/tensorflow_lite/src/tensorflow/lite/micro/tools/make/downloads/cmsis/CMSIS/Core/Include\cmsis_gcc.h **** #define __PROGRAM_START           __cmsis_start
 167:C:/Renesas/e2studio_2021_01_workspace_RZA2M_ANPR/ANPR_RZA2M_RDK/src/tensorflow_lite/src/tensorflow/lite/micro/tools/make/downloads/cmsis/CMSIS/Core/Include\cmsis_gcc.h **** #endif
 168:C:/Renesas/e2studio_2021_01_workspace_RZA2M_ANPR/ANPR_RZA2M_RDK/src/tensorflow_lite/src/tensorflow/lite/micro/tools/make/downloads/cmsis/CMSIS/Core/Include\cmsis_gcc.h **** 
 169:C:/Renesas/e2studio_2021_01_workspace_RZA2M_ANPR/ANPR_RZA2M_RDK/src/tensorflow_lite/src/tensorflow/lite/micro/tools/make/downloads/cmsis/CMSIS/Core/Include\cmsis_gcc.h **** #ifndef __INITIAL_SP
 170:C:/Renesas/e2studio_2021_01_workspace_RZA2M_ANPR/ANPR_RZA2M_RDK/src/tensorflow_lite/src/tensorflow/lite/micro/tools/make/downloads/cmsis/CMSIS/Core/Include\cmsis_gcc.h **** #define __INITIAL_SP              __StackTop
 171:C:/Renesas/e2studio_2021_01_workspace_RZA2M_ANPR/ANPR_RZA2M_RDK/src/tensorflow_lite/src/tensorflow/lite/micro/tools/make/downloads/cmsis/CMSIS/Core/Include\cmsis_gcc.h **** #endif
 172:C:/Renesas/e2studio_2021_01_workspace_RZA2M_ANPR/ANPR_RZA2M_RDK/src/tensorflow_lite/src/tensorflow/lite/micro/tools/make/downloads/cmsis/CMSIS/Core/Include\cmsis_gcc.h **** 
 173:C:/Renesas/e2studio_2021_01_workspace_RZA2M_ANPR/ANPR_RZA2M_RDK/src/tensorflow_lite/src/tensorflow/lite/micro/tools/make/downloads/cmsis/CMSIS/Core/Include\cmsis_gcc.h **** #ifndef __STACK_LIMIT
 174:C:/Renesas/e2studio_2021_01_workspace_RZA2M_ANPR/ANPR_RZA2M_RDK/src/tensorflow_lite/src/tensorflow/lite/micro/tools/make/downloads/cmsis/CMSIS/Core/Include\cmsis_gcc.h **** #define __STACK_LIMIT             __StackLimit
 175:C:/Renesas/e2studio_2021_01_workspace_RZA2M_ANPR/ANPR_RZA2M_RDK/src/tensorflow_lite/src/tensorflow/lite/micro/tools/make/downloads/cmsis/CMSIS/Core/Include\cmsis_gcc.h **** #endif
 176:C:/Renesas/e2studio_2021_01_workspace_RZA2M_ANPR/ANPR_RZA2M_RDK/src/tensorflow_lite/src/tensorflow/lite/micro/tools/make/downloads/cmsis/CMSIS/Core/Include\cmsis_gcc.h **** 
 177:C:/Renesas/e2studio_2021_01_workspace_RZA2M_ANPR/ANPR_RZA2M_RDK/src/tensorflow_lite/src/tensorflow/lite/micro/tools/make/downloads/cmsis/CMSIS/Core/Include\cmsis_gcc.h **** #ifndef __VECTOR_TABLE
 178:C:/Renesas/e2studio_2021_01_workspace_RZA2M_ANPR/ANPR_RZA2M_RDK/src/tensorflow_lite/src/tensorflow/lite/micro/tools/make/downloads/cmsis/CMSIS/Core/Include\cmsis_gcc.h **** #define __VECTOR_TABLE            __Vectors
 179:C:/Renesas/e2studio_2021_01_workspace_RZA2M_ANPR/ANPR_RZA2M_RDK/src/tensorflow_lite/src/tensorflow/lite/micro/tools/make/downloads/cmsis/CMSIS/Core/Include\cmsis_gcc.h **** #endif
 180:C:/Renesas/e2studio_2021_01_workspace_RZA2M_ANPR/ANPR_RZA2M_RDK/src/tensorflow_lite/src/tensorflow/lite/micro/tools/make/downloads/cmsis/CMSIS/Core/Include\cmsis_gcc.h **** 
 181:C:/Renesas/e2studio_2021_01_workspace_RZA2M_ANPR/ANPR_RZA2M_RDK/src/tensorflow_lite/src/tensorflow/lite/micro/tools/make/downloads/cmsis/CMSIS/Core/Include\cmsis_gcc.h **** #ifndef __VECTOR_TABLE_ATTRIBUTE
 182:C:/Renesas/e2studio_2021_01_workspace_RZA2M_ANPR/ANPR_RZA2M_RDK/src/tensorflow_lite/src/tensorflow/lite/micro/tools/make/downloads/cmsis/CMSIS/Core/Include\cmsis_gcc.h **** #define __VECTOR_TABLE_ATTRIBUTE  __attribute__((used, section(".vectors")))
 183:C:/Renesas/e2studio_2021_01_workspace_RZA2M_ANPR/ANPR_RZA2M_RDK/src/tensorflow_lite/src/tensorflow/lite/micro/tools/make/downloads/cmsis/CMSIS/Core/Include\cmsis_gcc.h **** #endif
 184:C:/Renesas/e2studio_2021_01_workspace_RZA2M_ANPR/ANPR_RZA2M_RDK/src/tensorflow_lite/src/tensorflow/lite/micro/tools/make/downloads/cmsis/CMSIS/Core/Include\cmsis_gcc.h **** 
 185:C:/Renesas/e2studio_2021_01_workspace_RZA2M_ANPR/ANPR_RZA2M_RDK/src/tensorflow_lite/src/tensorflow/lite/micro/tools/make/downloads/cmsis/CMSIS/Core/Include\cmsis_gcc.h **** #if defined (__ARM_FEATURE_CMSE) && (__ARM_FEATURE_CMSE == 3U)
 186:C:/Renesas/e2studio_2021_01_workspace_RZA2M_ANPR/ANPR_RZA2M_RDK/src/tensorflow_lite/src/tensorflow/lite/micro/tools/make/downloads/cmsis/CMSIS/Core/Include\cmsis_gcc.h **** #ifndef __STACK_SEAL
 187:C:/Renesas/e2studio_2021_01_workspace_RZA2M_ANPR/ANPR_RZA2M_RDK/src/tensorflow_lite/src/tensorflow/lite/micro/tools/make/downloads/cmsis/CMSIS/Core/Include\cmsis_gcc.h **** #define __STACK_SEAL              __StackSeal
 188:C:/Renesas/e2studio_2021_01_workspace_RZA2M_ANPR/ANPR_RZA2M_RDK/src/tensorflow_lite/src/tensorflow/lite/micro/tools/make/downloads/cmsis/CMSIS/Core/Include\cmsis_gcc.h **** #endif
 189:C:/Renesas/e2studio_2021_01_workspace_RZA2M_ANPR/ANPR_RZA2M_RDK/src/tensorflow_lite/src/tensorflow/lite/micro/tools/make/downloads/cmsis/CMSIS/Core/Include\cmsis_gcc.h **** 
 190:C:/Renesas/e2studio_2021_01_workspace_RZA2M_ANPR/ANPR_RZA2M_RDK/src/tensorflow_lite/src/tensorflow/lite/micro/tools/make/downloads/cmsis/CMSIS/Core/Include\cmsis_gcc.h **** #ifndef __TZ_STACK_SEAL_SIZE
 191:C:/Renesas/e2studio_2021_01_workspace_RZA2M_ANPR/ANPR_RZA2M_RDK/src/tensorflow_lite/src/tensorflow/lite/micro/tools/make/downloads/cmsis/CMSIS/Core/Include\cmsis_gcc.h **** #define __TZ_STACK_SEAL_SIZE      8U
 192:C:/Renesas/e2studio_2021_01_workspace_RZA2M_ANPR/ANPR_RZA2M_RDK/src/tensorflow_lite/src/tensorflow/lite/micro/tools/make/downloads/cmsis/CMSIS/Core/Include\cmsis_gcc.h **** #endif
 193:C:/Renesas/e2studio_2021_01_workspace_RZA2M_ANPR/ANPR_RZA2M_RDK/src/tensorflow_lite/src/tensorflow/lite/micro/tools/make/downloads/cmsis/CMSIS/Core/Include\cmsis_gcc.h **** 
 194:C:/Renesas/e2studio_2021_01_workspace_RZA2M_ANPR/ANPR_RZA2M_RDK/src/tensorflow_lite/src/tensorflow/lite/micro/tools/make/downloads/cmsis/CMSIS/Core/Include\cmsis_gcc.h **** #ifndef __TZ_STACK_SEAL_VALUE
 195:C:/Renesas/e2studio_2021_01_workspace_RZA2M_ANPR/ANPR_RZA2M_RDK/src/tensorflow_lite/src/tensorflow/lite/micro/tools/make/downloads/cmsis/CMSIS/Core/Include\cmsis_gcc.h **** #define __TZ_STACK_SEAL_VALUE     0xFEF5EDA5FEF5EDA5ULL
 196:C:/Renesas/e2studio_2021_01_workspace_RZA2M_ANPR/ANPR_RZA2M_RDK/src/tensorflow_lite/src/tensorflow/lite/micro/tools/make/downloads/cmsis/CMSIS/Core/Include\cmsis_gcc.h **** #endif
 197:C:/Renesas/e2studio_2021_01_workspace_RZA2M_ANPR/ANPR_RZA2M_RDK/src/tensorflow_lite/src/tensorflow/lite/micro/tools/make/downloads/cmsis/CMSIS/Core/Include\cmsis_gcc.h **** 
 198:C:/Renesas/e2studio_2021_01_workspace_RZA2M_ANPR/ANPR_RZA2M_RDK/src/tensorflow_lite/src/tensorflow/lite/micro/tools/make/downloads/cmsis/CMSIS/Core/Include\cmsis_gcc.h **** 
 199:C:/Renesas/e2studio_2021_01_workspace_RZA2M_ANPR/ANPR_RZA2M_RDK/src/tensorflow_lite/src/tensorflow/lite/micro/tools/make/downloads/cmsis/CMSIS/Core/Include\cmsis_gcc.h **** __STATIC_FORCEINLINE void __TZ_set_STACKSEAL_S (uint32_t* stackTop) {
 200:C:/Renesas/e2studio_2021_01_workspace_RZA2M_ANPR/ANPR_RZA2M_RDK/src/tensorflow_lite/src/tensorflow/lite/micro/tools/make/downloads/cmsis/CMSIS/Core/Include\cmsis_gcc.h ****   *((uint64_t *)stackTop) = __TZ_STACK_SEAL_VALUE;
 201:C:/Renesas/e2studio_2021_01_workspace_RZA2M_ANPR/ANPR_RZA2M_RDK/src/tensorflow_lite/src/tensorflow/lite/micro/tools/make/downloads/cmsis/CMSIS/Core/Include\cmsis_gcc.h **** }
 202:C:/Renesas/e2studio_2021_01_workspace_RZA2M_ANPR/ANPR_RZA2M_RDK/src/tensorflow_lite/src/tensorflow/lite/micro/tools/make/downloads/cmsis/CMSIS/Core/Include\cmsis_gcc.h **** #endif
 203:C:/Renesas/e2studio_2021_01_workspace_RZA2M_ANPR/ANPR_RZA2M_RDK/src/tensorflow_lite/src/tensorflow/lite/micro/tools/make/downloads/cmsis/CMSIS/Core/Include\cmsis_gcc.h **** 
 204:C:/Renesas/e2studio_2021_01_workspace_RZA2M_ANPR/ANPR_RZA2M_RDK/src/tensorflow_lite/src/tensorflow/lite/micro/tools/make/downloads/cmsis/CMSIS/Core/Include\cmsis_gcc.h **** 
 205:C:/Renesas/e2studio_2021_01_workspace_RZA2M_ANPR/ANPR_RZA2M_RDK/src/tensorflow_lite/src/tensorflow/lite/micro/tools/make/downloads/cmsis/CMSIS/Core/Include\cmsis_gcc.h **** /* ###########################  Core Function Access  ########################### */
 206:C:/Renesas/e2studio_2021_01_workspace_RZA2M_ANPR/ANPR_RZA2M_RDK/src/tensorflow_lite/src/tensorflow/lite/micro/tools/make/downloads/cmsis/CMSIS/Core/Include\cmsis_gcc.h **** /** \ingroup  CMSIS_Core_FunctionInterface
 207:C:/Renesas/e2studio_2021_01_workspace_RZA2M_ANPR/ANPR_RZA2M_RDK/src/tensorflow_lite/src/tensorflow/lite/micro/tools/make/downloads/cmsis/CMSIS/Core/Include\cmsis_gcc.h ****     \defgroup CMSIS_Core_RegAccFunctions CMSIS Core Register Access Functions
 208:C:/Renesas/e2studio_2021_01_workspace_RZA2M_ANPR/ANPR_RZA2M_RDK/src/tensorflow_lite/src/tensorflow/lite/micro/tools/make/downloads/cmsis/CMSIS/Core/Include\cmsis_gcc.h ****   @{
 209:C:/Renesas/e2studio_2021_01_workspace_RZA2M_ANPR/ANPR_RZA2M_RDK/src/tensorflow_lite/src/tensorflow/lite/micro/tools/make/downloads/cmsis/CMSIS/Core/Include\cmsis_gcc.h ****  */
 210:C:/Renesas/e2studio_2021_01_workspace_RZA2M_ANPR/ANPR_RZA2M_RDK/src/tensorflow_lite/src/tensorflow/lite/micro/tools/make/downloads/cmsis/CMSIS/Core/Include\cmsis_gcc.h **** 
 211:C:/Renesas/e2studio_2021_01_workspace_RZA2M_ANPR/ANPR_RZA2M_RDK/src/tensorflow_lite/src/tensorflow/lite/micro/tools/make/downloads/cmsis/CMSIS/Core/Include\cmsis_gcc.h **** /**
 212:C:/Renesas/e2studio_2021_01_workspace_RZA2M_ANPR/ANPR_RZA2M_RDK/src/tensorflow_lite/src/tensorflow/lite/micro/tools/make/downloads/cmsis/CMSIS/Core/Include\cmsis_gcc.h ****   \brief   Enable IRQ Interrupts
 213:C:/Renesas/e2studio_2021_01_workspace_RZA2M_ANPR/ANPR_RZA2M_RDK/src/tensorflow_lite/src/tensorflow/lite/micro/tools/make/downloads/cmsis/CMSIS/Core/Include\cmsis_gcc.h ****   \details Enables IRQ interrupts by clearing special-purpose register PRIMASK.
 214:C:/Renesas/e2studio_2021_01_workspace_RZA2M_ANPR/ANPR_RZA2M_RDK/src/tensorflow_lite/src/tensorflow/lite/micro/tools/make/downloads/cmsis/CMSIS/Core/Include\cmsis_gcc.h ****            Can only be executed in Privileged modes.
 215:C:/Renesas/e2studio_2021_01_workspace_RZA2M_ANPR/ANPR_RZA2M_RDK/src/tensorflow_lite/src/tensorflow/lite/micro/tools/make/downloads/cmsis/CMSIS/Core/Include\cmsis_gcc.h ****  */
 216:C:/Renesas/e2studio_2021_01_workspace_RZA2M_ANPR/ANPR_RZA2M_RDK/src/tensorflow_lite/src/tensorflow/lite/micro/tools/make/downloads/cmsis/CMSIS/Core/Include\cmsis_gcc.h **** __STATIC_FORCEINLINE void __enable_irq(void)
 217:C:/Renesas/e2studio_2021_01_workspace_RZA2M_ANPR/ANPR_RZA2M_RDK/src/tensorflow_lite/src/tensorflow/lite/micro/tools/make/downloads/cmsis/CMSIS/Core/Include\cmsis_gcc.h **** {
 218:C:/Renesas/e2studio_2021_01_workspace_RZA2M_ANPR/ANPR_RZA2M_RDK/src/tensorflow_lite/src/tensorflow/lite/micro/tools/make/downloads/cmsis/CMSIS/Core/Include\cmsis_gcc.h ****   __ASM volatile ("cpsie i" : : : "memory");
 219:C:/Renesas/e2studio_2021_01_workspace_RZA2M_ANPR/ANPR_RZA2M_RDK/src/tensorflow_lite/src/tensorflow/lite/micro/tools/make/downloads/cmsis/CMSIS/Core/Include\cmsis_gcc.h **** }
 220:C:/Renesas/e2studio_2021_01_workspace_RZA2M_ANPR/ANPR_RZA2M_RDK/src/tensorflow_lite/src/tensorflow/lite/micro/tools/make/downloads/cmsis/CMSIS/Core/Include\cmsis_gcc.h **** 
 221:C:/Renesas/e2studio_2021_01_workspace_RZA2M_ANPR/ANPR_RZA2M_RDK/src/tensorflow_lite/src/tensorflow/lite/micro/tools/make/downloads/cmsis/CMSIS/Core/Include\cmsis_gcc.h **** 
 222:C:/Renesas/e2studio_2021_01_workspace_RZA2M_ANPR/ANPR_RZA2M_RDK/src/tensorflow_lite/src/tensorflow/lite/micro/tools/make/downloads/cmsis/CMSIS/Core/Include\cmsis_gcc.h **** /**
 223:C:/Renesas/e2studio_2021_01_workspace_RZA2M_ANPR/ANPR_RZA2M_RDK/src/tensorflow_lite/src/tensorflow/lite/micro/tools/make/downloads/cmsis/CMSIS/Core/Include\cmsis_gcc.h ****   \brief   Disable IRQ Interrupts
 224:C:/Renesas/e2studio_2021_01_workspace_RZA2M_ANPR/ANPR_RZA2M_RDK/src/tensorflow_lite/src/tensorflow/lite/micro/tools/make/downloads/cmsis/CMSIS/Core/Include\cmsis_gcc.h ****   \details Disables IRQ interrupts by setting special-purpose register PRIMASK.
 225:C:/Renesas/e2studio_2021_01_workspace_RZA2M_ANPR/ANPR_RZA2M_RDK/src/tensorflow_lite/src/tensorflow/lite/micro/tools/make/downloads/cmsis/CMSIS/Core/Include\cmsis_gcc.h ****            Can only be executed in Privileged modes.
 226:C:/Renesas/e2studio_2021_01_workspace_RZA2M_ANPR/ANPR_RZA2M_RDK/src/tensorflow_lite/src/tensorflow/lite/micro/tools/make/downloads/cmsis/CMSIS/Core/Include\cmsis_gcc.h ****  */
 227:C:/Renesas/e2studio_2021_01_workspace_RZA2M_ANPR/ANPR_RZA2M_RDK/src/tensorflow_lite/src/tensorflow/lite/micro/tools/make/downloads/cmsis/CMSIS/Core/Include\cmsis_gcc.h **** __STATIC_FORCEINLINE void __disable_irq(void)
 228:C:/Renesas/e2studio_2021_01_workspace_RZA2M_ANPR/ANPR_RZA2M_RDK/src/tensorflow_lite/src/tensorflow/lite/micro/tools/make/downloads/cmsis/CMSIS/Core/Include\cmsis_gcc.h **** {
 229:C:/Renesas/e2studio_2021_01_workspace_RZA2M_ANPR/ANPR_RZA2M_RDK/src/tensorflow_lite/src/tensorflow/lite/micro/tools/make/downloads/cmsis/CMSIS/Core/Include\cmsis_gcc.h ****   __ASM volatile ("cpsid i" : : : "memory");
 230:C:/Renesas/e2studio_2021_01_workspace_RZA2M_ANPR/ANPR_RZA2M_RDK/src/tensorflow_lite/src/tensorflow/lite/micro/tools/make/downloads/cmsis/CMSIS/Core/Include\cmsis_gcc.h **** }
 231:C:/Renesas/e2studio_2021_01_workspace_RZA2M_ANPR/ANPR_RZA2M_RDK/src/tensorflow_lite/src/tensorflow/lite/micro/tools/make/downloads/cmsis/CMSIS/Core/Include\cmsis_gcc.h **** 
 232:C:/Renesas/e2studio_2021_01_workspace_RZA2M_ANPR/ANPR_RZA2M_RDK/src/tensorflow_lite/src/tensorflow/lite/micro/tools/make/downloads/cmsis/CMSIS/Core/Include\cmsis_gcc.h **** 
 233:C:/Renesas/e2studio_2021_01_workspace_RZA2M_ANPR/ANPR_RZA2M_RDK/src/tensorflow_lite/src/tensorflow/lite/micro/tools/make/downloads/cmsis/CMSIS/Core/Include\cmsis_gcc.h **** /**
 234:C:/Renesas/e2studio_2021_01_workspace_RZA2M_ANPR/ANPR_RZA2M_RDK/src/tensorflow_lite/src/tensorflow/lite/micro/tools/make/downloads/cmsis/CMSIS/Core/Include\cmsis_gcc.h ****   \brief   Get Control Register
 235:C:/Renesas/e2studio_2021_01_workspace_RZA2M_ANPR/ANPR_RZA2M_RDK/src/tensorflow_lite/src/tensorflow/lite/micro/tools/make/downloads/cmsis/CMSIS/Core/Include\cmsis_gcc.h ****   \details Returns the content of the Control Register.
 236:C:/Renesas/e2studio_2021_01_workspace_RZA2M_ANPR/ANPR_RZA2M_RDK/src/tensorflow_lite/src/tensorflow/lite/micro/tools/make/downloads/cmsis/CMSIS/Core/Include\cmsis_gcc.h ****   \return               Control Register value
 237:C:/Renesas/e2studio_2021_01_workspace_RZA2M_ANPR/ANPR_RZA2M_RDK/src/tensorflow_lite/src/tensorflow/lite/micro/tools/make/downloads/cmsis/CMSIS/Core/Include\cmsis_gcc.h ****  */
 238:C:/Renesas/e2studio_2021_01_workspace_RZA2M_ANPR/ANPR_RZA2M_RDK/src/tensorflow_lite/src/tensorflow/lite/micro/tools/make/downloads/cmsis/CMSIS/Core/Include\cmsis_gcc.h **** __STATIC_FORCEINLINE uint32_t __get_CONTROL(void)
 239:C:/Renesas/e2studio_2021_01_workspace_RZA2M_ANPR/ANPR_RZA2M_RDK/src/tensorflow_lite/src/tensorflow/lite/micro/tools/make/downloads/cmsis/CMSIS/Core/Include\cmsis_gcc.h **** {
 240:C:/Renesas/e2studio_2021_01_workspace_RZA2M_ANPR/ANPR_RZA2M_RDK/src/tensorflow_lite/src/tensorflow/lite/micro/tools/make/downloads/cmsis/CMSIS/Core/Include\cmsis_gcc.h ****   uint32_t result;
 241:C:/Renesas/e2studio_2021_01_workspace_RZA2M_ANPR/ANPR_RZA2M_RDK/src/tensorflow_lite/src/tensorflow/lite/micro/tools/make/downloads/cmsis/CMSIS/Core/Include\cmsis_gcc.h **** 
 242:C:/Renesas/e2studio_2021_01_workspace_RZA2M_ANPR/ANPR_RZA2M_RDK/src/tensorflow_lite/src/tensorflow/lite/micro/tools/make/downloads/cmsis/CMSIS/Core/Include\cmsis_gcc.h ****   __ASM volatile ("MRS %0, control" : "=r" (result) );
 243:C:/Renesas/e2studio_2021_01_workspace_RZA2M_ANPR/ANPR_RZA2M_RDK/src/tensorflow_lite/src/tensorflow/lite/micro/tools/make/downloads/cmsis/CMSIS/Core/Include\cmsis_gcc.h ****   return(result);
 244:C:/Renesas/e2studio_2021_01_workspace_RZA2M_ANPR/ANPR_RZA2M_RDK/src/tensorflow_lite/src/tensorflow/lite/micro/tools/make/downloads/cmsis/CMSIS/Core/Include\cmsis_gcc.h **** }
 245:C:/Renesas/e2studio_2021_01_workspace_RZA2M_ANPR/ANPR_RZA2M_RDK/src/tensorflow_lite/src/tensorflow/lite/micro/tools/make/downloads/cmsis/CMSIS/Core/Include\cmsis_gcc.h **** 
 246:C:/Renesas/e2studio_2021_01_workspace_RZA2M_ANPR/ANPR_RZA2M_RDK/src/tensorflow_lite/src/tensorflow/lite/micro/tools/make/downloads/cmsis/CMSIS/Core/Include\cmsis_gcc.h **** 
 247:C:/Renesas/e2studio_2021_01_workspace_RZA2M_ANPR/ANPR_RZA2M_RDK/src/tensorflow_lite/src/tensorflow/lite/micro/tools/make/downloads/cmsis/CMSIS/Core/Include\cmsis_gcc.h **** #if (defined (__ARM_FEATURE_CMSE ) && (__ARM_FEATURE_CMSE == 3))
 248:C:/Renesas/e2studio_2021_01_workspace_RZA2M_ANPR/ANPR_RZA2M_RDK/src/tensorflow_lite/src/tensorflow/lite/micro/tools/make/downloads/cmsis/CMSIS/Core/Include\cmsis_gcc.h **** /**
 249:C:/Renesas/e2studio_2021_01_workspace_RZA2M_ANPR/ANPR_RZA2M_RDK/src/tensorflow_lite/src/tensorflow/lite/micro/tools/make/downloads/cmsis/CMSIS/Core/Include\cmsis_gcc.h ****   \brief   Get Control Register (non-secure)
 250:C:/Renesas/e2studio_2021_01_workspace_RZA2M_ANPR/ANPR_RZA2M_RDK/src/tensorflow_lite/src/tensorflow/lite/micro/tools/make/downloads/cmsis/CMSIS/Core/Include\cmsis_gcc.h ****   \details Returns the content of the non-secure Control Register when in secure mode.
 251:C:/Renesas/e2studio_2021_01_workspace_RZA2M_ANPR/ANPR_RZA2M_RDK/src/tensorflow_lite/src/tensorflow/lite/micro/tools/make/downloads/cmsis/CMSIS/Core/Include\cmsis_gcc.h ****   \return               non-secure Control Register value
 252:C:/Renesas/e2studio_2021_01_workspace_RZA2M_ANPR/ANPR_RZA2M_RDK/src/tensorflow_lite/src/tensorflow/lite/micro/tools/make/downloads/cmsis/CMSIS/Core/Include\cmsis_gcc.h ****  */
 253:C:/Renesas/e2studio_2021_01_workspace_RZA2M_ANPR/ANPR_RZA2M_RDK/src/tensorflow_lite/src/tensorflow/lite/micro/tools/make/downloads/cmsis/CMSIS/Core/Include\cmsis_gcc.h **** __STATIC_FORCEINLINE uint32_t __TZ_get_CONTROL_NS(void)
 254:C:/Renesas/e2studio_2021_01_workspace_RZA2M_ANPR/ANPR_RZA2M_RDK/src/tensorflow_lite/src/tensorflow/lite/micro/tools/make/downloads/cmsis/CMSIS/Core/Include\cmsis_gcc.h **** {
 255:C:/Renesas/e2studio_2021_01_workspace_RZA2M_ANPR/ANPR_RZA2M_RDK/src/tensorflow_lite/src/tensorflow/lite/micro/tools/make/downloads/cmsis/CMSIS/Core/Include\cmsis_gcc.h ****   uint32_t result;
 256:C:/Renesas/e2studio_2021_01_workspace_RZA2M_ANPR/ANPR_RZA2M_RDK/src/tensorflow_lite/src/tensorflow/lite/micro/tools/make/downloads/cmsis/CMSIS/Core/Include\cmsis_gcc.h **** 
 257:C:/Renesas/e2studio_2021_01_workspace_RZA2M_ANPR/ANPR_RZA2M_RDK/src/tensorflow_lite/src/tensorflow/lite/micro/tools/make/downloads/cmsis/CMSIS/Core/Include\cmsis_gcc.h ****   __ASM volatile ("MRS %0, control_ns" : "=r" (result) );
 258:C:/Renesas/e2studio_2021_01_workspace_RZA2M_ANPR/ANPR_RZA2M_RDK/src/tensorflow_lite/src/tensorflow/lite/micro/tools/make/downloads/cmsis/CMSIS/Core/Include\cmsis_gcc.h ****   return(result);
 259:C:/Renesas/e2studio_2021_01_workspace_RZA2M_ANPR/ANPR_RZA2M_RDK/src/tensorflow_lite/src/tensorflow/lite/micro/tools/make/downloads/cmsis/CMSIS/Core/Include\cmsis_gcc.h **** }
 260:C:/Renesas/e2studio_2021_01_workspace_RZA2M_ANPR/ANPR_RZA2M_RDK/src/tensorflow_lite/src/tensorflow/lite/micro/tools/make/downloads/cmsis/CMSIS/Core/Include\cmsis_gcc.h **** #endif
 261:C:/Renesas/e2studio_2021_01_workspace_RZA2M_ANPR/ANPR_RZA2M_RDK/src/tensorflow_lite/src/tensorflow/lite/micro/tools/make/downloads/cmsis/CMSIS/Core/Include\cmsis_gcc.h **** 
 262:C:/Renesas/e2studio_2021_01_workspace_RZA2M_ANPR/ANPR_RZA2M_RDK/src/tensorflow_lite/src/tensorflow/lite/micro/tools/make/downloads/cmsis/CMSIS/Core/Include\cmsis_gcc.h **** 
 263:C:/Renesas/e2studio_2021_01_workspace_RZA2M_ANPR/ANPR_RZA2M_RDK/src/tensorflow_lite/src/tensorflow/lite/micro/tools/make/downloads/cmsis/CMSIS/Core/Include\cmsis_gcc.h **** /**
 264:C:/Renesas/e2studio_2021_01_workspace_RZA2M_ANPR/ANPR_RZA2M_RDK/src/tensorflow_lite/src/tensorflow/lite/micro/tools/make/downloads/cmsis/CMSIS/Core/Include\cmsis_gcc.h ****   \brief   Set Control Register
 265:C:/Renesas/e2studio_2021_01_workspace_RZA2M_ANPR/ANPR_RZA2M_RDK/src/tensorflow_lite/src/tensorflow/lite/micro/tools/make/downloads/cmsis/CMSIS/Core/Include\cmsis_gcc.h ****   \details Writes the given value to the Control Register.
 266:C:/Renesas/e2studio_2021_01_workspace_RZA2M_ANPR/ANPR_RZA2M_RDK/src/tensorflow_lite/src/tensorflow/lite/micro/tools/make/downloads/cmsis/CMSIS/Core/Include\cmsis_gcc.h ****   \param [in]    control  Control Register value to set
 267:C:/Renesas/e2studio_2021_01_workspace_RZA2M_ANPR/ANPR_RZA2M_RDK/src/tensorflow_lite/src/tensorflow/lite/micro/tools/make/downloads/cmsis/CMSIS/Core/Include\cmsis_gcc.h ****  */
 268:C:/Renesas/e2studio_2021_01_workspace_RZA2M_ANPR/ANPR_RZA2M_RDK/src/tensorflow_lite/src/tensorflow/lite/micro/tools/make/downloads/cmsis/CMSIS/Core/Include\cmsis_gcc.h **** __STATIC_FORCEINLINE void __set_CONTROL(uint32_t control)
 269:C:/Renesas/e2studio_2021_01_workspace_RZA2M_ANPR/ANPR_RZA2M_RDK/src/tensorflow_lite/src/tensorflow/lite/micro/tools/make/downloads/cmsis/CMSIS/Core/Include\cmsis_gcc.h **** {
 270:C:/Renesas/e2studio_2021_01_workspace_RZA2M_ANPR/ANPR_RZA2M_RDK/src/tensorflow_lite/src/tensorflow/lite/micro/tools/make/downloads/cmsis/CMSIS/Core/Include\cmsis_gcc.h ****   __ASM volatile ("MSR control, %0" : : "r" (control) : "memory");
 271:C:/Renesas/e2studio_2021_01_workspace_RZA2M_ANPR/ANPR_RZA2M_RDK/src/tensorflow_lite/src/tensorflow/lite/micro/tools/make/downloads/cmsis/CMSIS/Core/Include\cmsis_gcc.h **** }
 272:C:/Renesas/e2studio_2021_01_workspace_RZA2M_ANPR/ANPR_RZA2M_RDK/src/tensorflow_lite/src/tensorflow/lite/micro/tools/make/downloads/cmsis/CMSIS/Core/Include\cmsis_gcc.h **** 
 273:C:/Renesas/e2studio_2021_01_workspace_RZA2M_ANPR/ANPR_RZA2M_RDK/src/tensorflow_lite/src/tensorflow/lite/micro/tools/make/downloads/cmsis/CMSIS/Core/Include\cmsis_gcc.h **** 
 274:C:/Renesas/e2studio_2021_01_workspace_RZA2M_ANPR/ANPR_RZA2M_RDK/src/tensorflow_lite/src/tensorflow/lite/micro/tools/make/downloads/cmsis/CMSIS/Core/Include\cmsis_gcc.h **** #if (defined (__ARM_FEATURE_CMSE ) && (__ARM_FEATURE_CMSE == 3))
 275:C:/Renesas/e2studio_2021_01_workspace_RZA2M_ANPR/ANPR_RZA2M_RDK/src/tensorflow_lite/src/tensorflow/lite/micro/tools/make/downloads/cmsis/CMSIS/Core/Include\cmsis_gcc.h **** /**
 276:C:/Renesas/e2studio_2021_01_workspace_RZA2M_ANPR/ANPR_RZA2M_RDK/src/tensorflow_lite/src/tensorflow/lite/micro/tools/make/downloads/cmsis/CMSIS/Core/Include\cmsis_gcc.h ****   \brief   Set Control Register (non-secure)
 277:C:/Renesas/e2studio_2021_01_workspace_RZA2M_ANPR/ANPR_RZA2M_RDK/src/tensorflow_lite/src/tensorflow/lite/micro/tools/make/downloads/cmsis/CMSIS/Core/Include\cmsis_gcc.h ****   \details Writes the given value to the non-secure Control Register when in secure state.
 278:C:/Renesas/e2studio_2021_01_workspace_RZA2M_ANPR/ANPR_RZA2M_RDK/src/tensorflow_lite/src/tensorflow/lite/micro/tools/make/downloads/cmsis/CMSIS/Core/Include\cmsis_gcc.h ****   \param [in]    control  Control Register value to set
 279:C:/Renesas/e2studio_2021_01_workspace_RZA2M_ANPR/ANPR_RZA2M_RDK/src/tensorflow_lite/src/tensorflow/lite/micro/tools/make/downloads/cmsis/CMSIS/Core/Include\cmsis_gcc.h ****  */
 280:C:/Renesas/e2studio_2021_01_workspace_RZA2M_ANPR/ANPR_RZA2M_RDK/src/tensorflow_lite/src/tensorflow/lite/micro/tools/make/downloads/cmsis/CMSIS/Core/Include\cmsis_gcc.h **** __STATIC_FORCEINLINE void __TZ_set_CONTROL_NS(uint32_t control)
 281:C:/Renesas/e2studio_2021_01_workspace_RZA2M_ANPR/ANPR_RZA2M_RDK/src/tensorflow_lite/src/tensorflow/lite/micro/tools/make/downloads/cmsis/CMSIS/Core/Include\cmsis_gcc.h **** {
 282:C:/Renesas/e2studio_2021_01_workspace_RZA2M_ANPR/ANPR_RZA2M_RDK/src/tensorflow_lite/src/tensorflow/lite/micro/tools/make/downloads/cmsis/CMSIS/Core/Include\cmsis_gcc.h ****   __ASM volatile ("MSR control_ns, %0" : : "r" (control) : "memory");
 283:C:/Renesas/e2studio_2021_01_workspace_RZA2M_ANPR/ANPR_RZA2M_RDK/src/tensorflow_lite/src/tensorflow/lite/micro/tools/make/downloads/cmsis/CMSIS/Core/Include\cmsis_gcc.h **** }
 284:C:/Renesas/e2studio_2021_01_workspace_RZA2M_ANPR/ANPR_RZA2M_RDK/src/tensorflow_lite/src/tensorflow/lite/micro/tools/make/downloads/cmsis/CMSIS/Core/Include\cmsis_gcc.h **** #endif
 285:C:/Renesas/e2studio_2021_01_workspace_RZA2M_ANPR/ANPR_RZA2M_RDK/src/tensorflow_lite/src/tensorflow/lite/micro/tools/make/downloads/cmsis/CMSIS/Core/Include\cmsis_gcc.h **** 
 286:C:/Renesas/e2studio_2021_01_workspace_RZA2M_ANPR/ANPR_RZA2M_RDK/src/tensorflow_lite/src/tensorflow/lite/micro/tools/make/downloads/cmsis/CMSIS/Core/Include\cmsis_gcc.h **** 
 287:C:/Renesas/e2studio_2021_01_workspace_RZA2M_ANPR/ANPR_RZA2M_RDK/src/tensorflow_lite/src/tensorflow/lite/micro/tools/make/downloads/cmsis/CMSIS/Core/Include\cmsis_gcc.h **** /**
 288:C:/Renesas/e2studio_2021_01_workspace_RZA2M_ANPR/ANPR_RZA2M_RDK/src/tensorflow_lite/src/tensorflow/lite/micro/tools/make/downloads/cmsis/CMSIS/Core/Include\cmsis_gcc.h ****   \brief   Get IPSR Register
 289:C:/Renesas/e2studio_2021_01_workspace_RZA2M_ANPR/ANPR_RZA2M_RDK/src/tensorflow_lite/src/tensorflow/lite/micro/tools/make/downloads/cmsis/CMSIS/Core/Include\cmsis_gcc.h ****   \details Returns the content of the IPSR Register.
 290:C:/Renesas/e2studio_2021_01_workspace_RZA2M_ANPR/ANPR_RZA2M_RDK/src/tensorflow_lite/src/tensorflow/lite/micro/tools/make/downloads/cmsis/CMSIS/Core/Include\cmsis_gcc.h ****   \return               IPSR Register value
 291:C:/Renesas/e2studio_2021_01_workspace_RZA2M_ANPR/ANPR_RZA2M_RDK/src/tensorflow_lite/src/tensorflow/lite/micro/tools/make/downloads/cmsis/CMSIS/Core/Include\cmsis_gcc.h ****  */
 292:C:/Renesas/e2studio_2021_01_workspace_RZA2M_ANPR/ANPR_RZA2M_RDK/src/tensorflow_lite/src/tensorflow/lite/micro/tools/make/downloads/cmsis/CMSIS/Core/Include\cmsis_gcc.h **** __STATIC_FORCEINLINE uint32_t __get_IPSR(void)
 293:C:/Renesas/e2studio_2021_01_workspace_RZA2M_ANPR/ANPR_RZA2M_RDK/src/tensorflow_lite/src/tensorflow/lite/micro/tools/make/downloads/cmsis/CMSIS/Core/Include\cmsis_gcc.h **** {
 294:C:/Renesas/e2studio_2021_01_workspace_RZA2M_ANPR/ANPR_RZA2M_RDK/src/tensorflow_lite/src/tensorflow/lite/micro/tools/make/downloads/cmsis/CMSIS/Core/Include\cmsis_gcc.h ****   uint32_t result;
 295:C:/Renesas/e2studio_2021_01_workspace_RZA2M_ANPR/ANPR_RZA2M_RDK/src/tensorflow_lite/src/tensorflow/lite/micro/tools/make/downloads/cmsis/CMSIS/Core/Include\cmsis_gcc.h **** 
 296:C:/Renesas/e2studio_2021_01_workspace_RZA2M_ANPR/ANPR_RZA2M_RDK/src/tensorflow_lite/src/tensorflow/lite/micro/tools/make/downloads/cmsis/CMSIS/Core/Include\cmsis_gcc.h ****   __ASM volatile ("MRS %0, ipsr" : "=r" (result) );
 297:C:/Renesas/e2studio_2021_01_workspace_RZA2M_ANPR/ANPR_RZA2M_RDK/src/tensorflow_lite/src/tensorflow/lite/micro/tools/make/downloads/cmsis/CMSIS/Core/Include\cmsis_gcc.h ****   return(result);
 298:C:/Renesas/e2studio_2021_01_workspace_RZA2M_ANPR/ANPR_RZA2M_RDK/src/tensorflow_lite/src/tensorflow/lite/micro/tools/make/downloads/cmsis/CMSIS/Core/Include\cmsis_gcc.h **** }
 299:C:/Renesas/e2studio_2021_01_workspace_RZA2M_ANPR/ANPR_RZA2M_RDK/src/tensorflow_lite/src/tensorflow/lite/micro/tools/make/downloads/cmsis/CMSIS/Core/Include\cmsis_gcc.h **** 
 300:C:/Renesas/e2studio_2021_01_workspace_RZA2M_ANPR/ANPR_RZA2M_RDK/src/tensorflow_lite/src/tensorflow/lite/micro/tools/make/downloads/cmsis/CMSIS/Core/Include\cmsis_gcc.h **** 
 301:C:/Renesas/e2studio_2021_01_workspace_RZA2M_ANPR/ANPR_RZA2M_RDK/src/tensorflow_lite/src/tensorflow/lite/micro/tools/make/downloads/cmsis/CMSIS/Core/Include\cmsis_gcc.h **** /**
 302:C:/Renesas/e2studio_2021_01_workspace_RZA2M_ANPR/ANPR_RZA2M_RDK/src/tensorflow_lite/src/tensorflow/lite/micro/tools/make/downloads/cmsis/CMSIS/Core/Include\cmsis_gcc.h ****   \brief   Get APSR Register
 303:C:/Renesas/e2studio_2021_01_workspace_RZA2M_ANPR/ANPR_RZA2M_RDK/src/tensorflow_lite/src/tensorflow/lite/micro/tools/make/downloads/cmsis/CMSIS/Core/Include\cmsis_gcc.h ****   \details Returns the content of the APSR Register.
 304:C:/Renesas/e2studio_2021_01_workspace_RZA2M_ANPR/ANPR_RZA2M_RDK/src/tensorflow_lite/src/tensorflow/lite/micro/tools/make/downloads/cmsis/CMSIS/Core/Include\cmsis_gcc.h ****   \return               APSR Register value
 305:C:/Renesas/e2studio_2021_01_workspace_RZA2M_ANPR/ANPR_RZA2M_RDK/src/tensorflow_lite/src/tensorflow/lite/micro/tools/make/downloads/cmsis/CMSIS/Core/Include\cmsis_gcc.h ****  */
 306:C:/Renesas/e2studio_2021_01_workspace_RZA2M_ANPR/ANPR_RZA2M_RDK/src/tensorflow_lite/src/tensorflow/lite/micro/tools/make/downloads/cmsis/CMSIS/Core/Include\cmsis_gcc.h **** __STATIC_FORCEINLINE uint32_t __get_APSR(void)
 307:C:/Renesas/e2studio_2021_01_workspace_RZA2M_ANPR/ANPR_RZA2M_RDK/src/tensorflow_lite/src/tensorflow/lite/micro/tools/make/downloads/cmsis/CMSIS/Core/Include\cmsis_gcc.h **** {
 308:C:/Renesas/e2studio_2021_01_workspace_RZA2M_ANPR/ANPR_RZA2M_RDK/src/tensorflow_lite/src/tensorflow/lite/micro/tools/make/downloads/cmsis/CMSIS/Core/Include\cmsis_gcc.h ****   uint32_t result;
 309:C:/Renesas/e2studio_2021_01_workspace_RZA2M_ANPR/ANPR_RZA2M_RDK/src/tensorflow_lite/src/tensorflow/lite/micro/tools/make/downloads/cmsis/CMSIS/Core/Include\cmsis_gcc.h **** 
 310:C:/Renesas/e2studio_2021_01_workspace_RZA2M_ANPR/ANPR_RZA2M_RDK/src/tensorflow_lite/src/tensorflow/lite/micro/tools/make/downloads/cmsis/CMSIS/Core/Include\cmsis_gcc.h ****   __ASM volatile ("MRS %0, apsr" : "=r" (result) );
 311:C:/Renesas/e2studio_2021_01_workspace_RZA2M_ANPR/ANPR_RZA2M_RDK/src/tensorflow_lite/src/tensorflow/lite/micro/tools/make/downloads/cmsis/CMSIS/Core/Include\cmsis_gcc.h ****   return(result);
 312:C:/Renesas/e2studio_2021_01_workspace_RZA2M_ANPR/ANPR_RZA2M_RDK/src/tensorflow_lite/src/tensorflow/lite/micro/tools/make/downloads/cmsis/CMSIS/Core/Include\cmsis_gcc.h **** }
 313:C:/Renesas/e2studio_2021_01_workspace_RZA2M_ANPR/ANPR_RZA2M_RDK/src/tensorflow_lite/src/tensorflow/lite/micro/tools/make/downloads/cmsis/CMSIS/Core/Include\cmsis_gcc.h **** 
 314:C:/Renesas/e2studio_2021_01_workspace_RZA2M_ANPR/ANPR_RZA2M_RDK/src/tensorflow_lite/src/tensorflow/lite/micro/tools/make/downloads/cmsis/CMSIS/Core/Include\cmsis_gcc.h **** 
 315:C:/Renesas/e2studio_2021_01_workspace_RZA2M_ANPR/ANPR_RZA2M_RDK/src/tensorflow_lite/src/tensorflow/lite/micro/tools/make/downloads/cmsis/CMSIS/Core/Include\cmsis_gcc.h **** /**
 316:C:/Renesas/e2studio_2021_01_workspace_RZA2M_ANPR/ANPR_RZA2M_RDK/src/tensorflow_lite/src/tensorflow/lite/micro/tools/make/downloads/cmsis/CMSIS/Core/Include\cmsis_gcc.h ****   \brief   Get xPSR Register
 317:C:/Renesas/e2studio_2021_01_workspace_RZA2M_ANPR/ANPR_RZA2M_RDK/src/tensorflow_lite/src/tensorflow/lite/micro/tools/make/downloads/cmsis/CMSIS/Core/Include\cmsis_gcc.h ****   \details Returns the content of the xPSR Register.
 318:C:/Renesas/e2studio_2021_01_workspace_RZA2M_ANPR/ANPR_RZA2M_RDK/src/tensorflow_lite/src/tensorflow/lite/micro/tools/make/downloads/cmsis/CMSIS/Core/Include\cmsis_gcc.h ****   \return               xPSR Register value
 319:C:/Renesas/e2studio_2021_01_workspace_RZA2M_ANPR/ANPR_RZA2M_RDK/src/tensorflow_lite/src/tensorflow/lite/micro/tools/make/downloads/cmsis/CMSIS/Core/Include\cmsis_gcc.h ****  */
 320:C:/Renesas/e2studio_2021_01_workspace_RZA2M_ANPR/ANPR_RZA2M_RDK/src/tensorflow_lite/src/tensorflow/lite/micro/tools/make/downloads/cmsis/CMSIS/Core/Include\cmsis_gcc.h **** __STATIC_FORCEINLINE uint32_t __get_xPSR(void)
 321:C:/Renesas/e2studio_2021_01_workspace_RZA2M_ANPR/ANPR_RZA2M_RDK/src/tensorflow_lite/src/tensorflow/lite/micro/tools/make/downloads/cmsis/CMSIS/Core/Include\cmsis_gcc.h **** {
 322:C:/Renesas/e2studio_2021_01_workspace_RZA2M_ANPR/ANPR_RZA2M_RDK/src/tensorflow_lite/src/tensorflow/lite/micro/tools/make/downloads/cmsis/CMSIS/Core/Include\cmsis_gcc.h ****   uint32_t result;
 323:C:/Renesas/e2studio_2021_01_workspace_RZA2M_ANPR/ANPR_RZA2M_RDK/src/tensorflow_lite/src/tensorflow/lite/micro/tools/make/downloads/cmsis/CMSIS/Core/Include\cmsis_gcc.h **** 
 324:C:/Renesas/e2studio_2021_01_workspace_RZA2M_ANPR/ANPR_RZA2M_RDK/src/tensorflow_lite/src/tensorflow/lite/micro/tools/make/downloads/cmsis/CMSIS/Core/Include\cmsis_gcc.h ****   __ASM volatile ("MRS %0, xpsr" : "=r" (result) );
 325:C:/Renesas/e2studio_2021_01_workspace_RZA2M_ANPR/ANPR_RZA2M_RDK/src/tensorflow_lite/src/tensorflow/lite/micro/tools/make/downloads/cmsis/CMSIS/Core/Include\cmsis_gcc.h ****   return(result);
 326:C:/Renesas/e2studio_2021_01_workspace_RZA2M_ANPR/ANPR_RZA2M_RDK/src/tensorflow_lite/src/tensorflow/lite/micro/tools/make/downloads/cmsis/CMSIS/Core/Include\cmsis_gcc.h **** }
 327:C:/Renesas/e2studio_2021_01_workspace_RZA2M_ANPR/ANPR_RZA2M_RDK/src/tensorflow_lite/src/tensorflow/lite/micro/tools/make/downloads/cmsis/CMSIS/Core/Include\cmsis_gcc.h **** 
 328:C:/Renesas/e2studio_2021_01_workspace_RZA2M_ANPR/ANPR_RZA2M_RDK/src/tensorflow_lite/src/tensorflow/lite/micro/tools/make/downloads/cmsis/CMSIS/Core/Include\cmsis_gcc.h **** 
 329:C:/Renesas/e2studio_2021_01_workspace_RZA2M_ANPR/ANPR_RZA2M_RDK/src/tensorflow_lite/src/tensorflow/lite/micro/tools/make/downloads/cmsis/CMSIS/Core/Include\cmsis_gcc.h **** /**
 330:C:/Renesas/e2studio_2021_01_workspace_RZA2M_ANPR/ANPR_RZA2M_RDK/src/tensorflow_lite/src/tensorflow/lite/micro/tools/make/downloads/cmsis/CMSIS/Core/Include\cmsis_gcc.h ****   \brief   Get Process Stack Pointer
 331:C:/Renesas/e2studio_2021_01_workspace_RZA2M_ANPR/ANPR_RZA2M_RDK/src/tensorflow_lite/src/tensorflow/lite/micro/tools/make/downloads/cmsis/CMSIS/Core/Include\cmsis_gcc.h ****   \details Returns the current value of the Process Stack Pointer (PSP).
 332:C:/Renesas/e2studio_2021_01_workspace_RZA2M_ANPR/ANPR_RZA2M_RDK/src/tensorflow_lite/src/tensorflow/lite/micro/tools/make/downloads/cmsis/CMSIS/Core/Include\cmsis_gcc.h ****   \return               PSP Register value
 333:C:/Renesas/e2studio_2021_01_workspace_RZA2M_ANPR/ANPR_RZA2M_RDK/src/tensorflow_lite/src/tensorflow/lite/micro/tools/make/downloads/cmsis/CMSIS/Core/Include\cmsis_gcc.h ****  */
 334:C:/Renesas/e2studio_2021_01_workspace_RZA2M_ANPR/ANPR_RZA2M_RDK/src/tensorflow_lite/src/tensorflow/lite/micro/tools/make/downloads/cmsis/CMSIS/Core/Include\cmsis_gcc.h **** __STATIC_FORCEINLINE uint32_t __get_PSP(void)
 335:C:/Renesas/e2studio_2021_01_workspace_RZA2M_ANPR/ANPR_RZA2M_RDK/src/tensorflow_lite/src/tensorflow/lite/micro/tools/make/downloads/cmsis/CMSIS/Core/Include\cmsis_gcc.h **** {
 336:C:/Renesas/e2studio_2021_01_workspace_RZA2M_ANPR/ANPR_RZA2M_RDK/src/tensorflow_lite/src/tensorflow/lite/micro/tools/make/downloads/cmsis/CMSIS/Core/Include\cmsis_gcc.h ****   uint32_t result;
 337:C:/Renesas/e2studio_2021_01_workspace_RZA2M_ANPR/ANPR_RZA2M_RDK/src/tensorflow_lite/src/tensorflow/lite/micro/tools/make/downloads/cmsis/CMSIS/Core/Include\cmsis_gcc.h **** 
 338:C:/Renesas/e2studio_2021_01_workspace_RZA2M_ANPR/ANPR_RZA2M_RDK/src/tensorflow_lite/src/tensorflow/lite/micro/tools/make/downloads/cmsis/CMSIS/Core/Include\cmsis_gcc.h ****   __ASM volatile ("MRS %0, psp"  : "=r" (result) );
 339:C:/Renesas/e2studio_2021_01_workspace_RZA2M_ANPR/ANPR_RZA2M_RDK/src/tensorflow_lite/src/tensorflow/lite/micro/tools/make/downloads/cmsis/CMSIS/Core/Include\cmsis_gcc.h ****   return(result);
 340:C:/Renesas/e2studio_2021_01_workspace_RZA2M_ANPR/ANPR_RZA2M_RDK/src/tensorflow_lite/src/tensorflow/lite/micro/tools/make/downloads/cmsis/CMSIS/Core/Include\cmsis_gcc.h **** }
 341:C:/Renesas/e2studio_2021_01_workspace_RZA2M_ANPR/ANPR_RZA2M_RDK/src/tensorflow_lite/src/tensorflow/lite/micro/tools/make/downloads/cmsis/CMSIS/Core/Include\cmsis_gcc.h **** 
 342:C:/Renesas/e2studio_2021_01_workspace_RZA2M_ANPR/ANPR_RZA2M_RDK/src/tensorflow_lite/src/tensorflow/lite/micro/tools/make/downloads/cmsis/CMSIS/Core/Include\cmsis_gcc.h **** 
 343:C:/Renesas/e2studio_2021_01_workspace_RZA2M_ANPR/ANPR_RZA2M_RDK/src/tensorflow_lite/src/tensorflow/lite/micro/tools/make/downloads/cmsis/CMSIS/Core/Include\cmsis_gcc.h **** #if (defined (__ARM_FEATURE_CMSE ) && (__ARM_FEATURE_CMSE == 3))
 344:C:/Renesas/e2studio_2021_01_workspace_RZA2M_ANPR/ANPR_RZA2M_RDK/src/tensorflow_lite/src/tensorflow/lite/micro/tools/make/downloads/cmsis/CMSIS/Core/Include\cmsis_gcc.h **** /**
 345:C:/Renesas/e2studio_2021_01_workspace_RZA2M_ANPR/ANPR_RZA2M_RDK/src/tensorflow_lite/src/tensorflow/lite/micro/tools/make/downloads/cmsis/CMSIS/Core/Include\cmsis_gcc.h ****   \brief   Get Process Stack Pointer (non-secure)
 346:C:/Renesas/e2studio_2021_01_workspace_RZA2M_ANPR/ANPR_RZA2M_RDK/src/tensorflow_lite/src/tensorflow/lite/micro/tools/make/downloads/cmsis/CMSIS/Core/Include\cmsis_gcc.h ****   \details Returns the current value of the non-secure Process Stack Pointer (PSP) when in secure s
 347:C:/Renesas/e2studio_2021_01_workspace_RZA2M_ANPR/ANPR_RZA2M_RDK/src/tensorflow_lite/src/tensorflow/lite/micro/tools/make/downloads/cmsis/CMSIS/Core/Include\cmsis_gcc.h ****   \return               PSP Register value
 348:C:/Renesas/e2studio_2021_01_workspace_RZA2M_ANPR/ANPR_RZA2M_RDK/src/tensorflow_lite/src/tensorflow/lite/micro/tools/make/downloads/cmsis/CMSIS/Core/Include\cmsis_gcc.h ****  */
 349:C:/Renesas/e2studio_2021_01_workspace_RZA2M_ANPR/ANPR_RZA2M_RDK/src/tensorflow_lite/src/tensorflow/lite/micro/tools/make/downloads/cmsis/CMSIS/Core/Include\cmsis_gcc.h **** __STATIC_FORCEINLINE uint32_t __TZ_get_PSP_NS(void)
 350:C:/Renesas/e2studio_2021_01_workspace_RZA2M_ANPR/ANPR_RZA2M_RDK/src/tensorflow_lite/src/tensorflow/lite/micro/tools/make/downloads/cmsis/CMSIS/Core/Include\cmsis_gcc.h **** {
 351:C:/Renesas/e2studio_2021_01_workspace_RZA2M_ANPR/ANPR_RZA2M_RDK/src/tensorflow_lite/src/tensorflow/lite/micro/tools/make/downloads/cmsis/CMSIS/Core/Include\cmsis_gcc.h ****   uint32_t result;
 352:C:/Renesas/e2studio_2021_01_workspace_RZA2M_ANPR/ANPR_RZA2M_RDK/src/tensorflow_lite/src/tensorflow/lite/micro/tools/make/downloads/cmsis/CMSIS/Core/Include\cmsis_gcc.h **** 
 353:C:/Renesas/e2studio_2021_01_workspace_RZA2M_ANPR/ANPR_RZA2M_RDK/src/tensorflow_lite/src/tensorflow/lite/micro/tools/make/downloads/cmsis/CMSIS/Core/Include\cmsis_gcc.h ****   __ASM volatile ("MRS %0, psp_ns"  : "=r" (result) );
 354:C:/Renesas/e2studio_2021_01_workspace_RZA2M_ANPR/ANPR_RZA2M_RDK/src/tensorflow_lite/src/tensorflow/lite/micro/tools/make/downloads/cmsis/CMSIS/Core/Include\cmsis_gcc.h ****   return(result);
 355:C:/Renesas/e2studio_2021_01_workspace_RZA2M_ANPR/ANPR_RZA2M_RDK/src/tensorflow_lite/src/tensorflow/lite/micro/tools/make/downloads/cmsis/CMSIS/Core/Include\cmsis_gcc.h **** }
 356:C:/Renesas/e2studio_2021_01_workspace_RZA2M_ANPR/ANPR_RZA2M_RDK/src/tensorflow_lite/src/tensorflow/lite/micro/tools/make/downloads/cmsis/CMSIS/Core/Include\cmsis_gcc.h **** #endif
 357:C:/Renesas/e2studio_2021_01_workspace_RZA2M_ANPR/ANPR_RZA2M_RDK/src/tensorflow_lite/src/tensorflow/lite/micro/tools/make/downloads/cmsis/CMSIS/Core/Include\cmsis_gcc.h **** 
 358:C:/Renesas/e2studio_2021_01_workspace_RZA2M_ANPR/ANPR_RZA2M_RDK/src/tensorflow_lite/src/tensorflow/lite/micro/tools/make/downloads/cmsis/CMSIS/Core/Include\cmsis_gcc.h **** 
 359:C:/Renesas/e2studio_2021_01_workspace_RZA2M_ANPR/ANPR_RZA2M_RDK/src/tensorflow_lite/src/tensorflow/lite/micro/tools/make/downloads/cmsis/CMSIS/Core/Include\cmsis_gcc.h **** /**
 360:C:/Renesas/e2studio_2021_01_workspace_RZA2M_ANPR/ANPR_RZA2M_RDK/src/tensorflow_lite/src/tensorflow/lite/micro/tools/make/downloads/cmsis/CMSIS/Core/Include\cmsis_gcc.h ****   \brief   Set Process Stack Pointer
 361:C:/Renesas/e2studio_2021_01_workspace_RZA2M_ANPR/ANPR_RZA2M_RDK/src/tensorflow_lite/src/tensorflow/lite/micro/tools/make/downloads/cmsis/CMSIS/Core/Include\cmsis_gcc.h ****   \details Assigns the given value to the Process Stack Pointer (PSP).
 362:C:/Renesas/e2studio_2021_01_workspace_RZA2M_ANPR/ANPR_RZA2M_RDK/src/tensorflow_lite/src/tensorflow/lite/micro/tools/make/downloads/cmsis/CMSIS/Core/Include\cmsis_gcc.h ****   \param [in]    topOfProcStack  Process Stack Pointer value to set
 363:C:/Renesas/e2studio_2021_01_workspace_RZA2M_ANPR/ANPR_RZA2M_RDK/src/tensorflow_lite/src/tensorflow/lite/micro/tools/make/downloads/cmsis/CMSIS/Core/Include\cmsis_gcc.h ****  */
 364:C:/Renesas/e2studio_2021_01_workspace_RZA2M_ANPR/ANPR_RZA2M_RDK/src/tensorflow_lite/src/tensorflow/lite/micro/tools/make/downloads/cmsis/CMSIS/Core/Include\cmsis_gcc.h **** __STATIC_FORCEINLINE void __set_PSP(uint32_t topOfProcStack)
 365:C:/Renesas/e2studio_2021_01_workspace_RZA2M_ANPR/ANPR_RZA2M_RDK/src/tensorflow_lite/src/tensorflow/lite/micro/tools/make/downloads/cmsis/CMSIS/Core/Include\cmsis_gcc.h **** {
 366:C:/Renesas/e2studio_2021_01_workspace_RZA2M_ANPR/ANPR_RZA2M_RDK/src/tensorflow_lite/src/tensorflow/lite/micro/tools/make/downloads/cmsis/CMSIS/Core/Include\cmsis_gcc.h ****   __ASM volatile ("MSR psp, %0" : : "r" (topOfProcStack) : );
 367:C:/Renesas/e2studio_2021_01_workspace_RZA2M_ANPR/ANPR_RZA2M_RDK/src/tensorflow_lite/src/tensorflow/lite/micro/tools/make/downloads/cmsis/CMSIS/Core/Include\cmsis_gcc.h **** }
 368:C:/Renesas/e2studio_2021_01_workspace_RZA2M_ANPR/ANPR_RZA2M_RDK/src/tensorflow_lite/src/tensorflow/lite/micro/tools/make/downloads/cmsis/CMSIS/Core/Include\cmsis_gcc.h **** 
 369:C:/Renesas/e2studio_2021_01_workspace_RZA2M_ANPR/ANPR_RZA2M_RDK/src/tensorflow_lite/src/tensorflow/lite/micro/tools/make/downloads/cmsis/CMSIS/Core/Include\cmsis_gcc.h **** 
 370:C:/Renesas/e2studio_2021_01_workspace_RZA2M_ANPR/ANPR_RZA2M_RDK/src/tensorflow_lite/src/tensorflow/lite/micro/tools/make/downloads/cmsis/CMSIS/Core/Include\cmsis_gcc.h **** #if (defined (__ARM_FEATURE_CMSE ) && (__ARM_FEATURE_CMSE == 3))
 371:C:/Renesas/e2studio_2021_01_workspace_RZA2M_ANPR/ANPR_RZA2M_RDK/src/tensorflow_lite/src/tensorflow/lite/micro/tools/make/downloads/cmsis/CMSIS/Core/Include\cmsis_gcc.h **** /**
 372:C:/Renesas/e2studio_2021_01_workspace_RZA2M_ANPR/ANPR_RZA2M_RDK/src/tensorflow_lite/src/tensorflow/lite/micro/tools/make/downloads/cmsis/CMSIS/Core/Include\cmsis_gcc.h ****   \brief   Set Process Stack Pointer (non-secure)
 373:C:/Renesas/e2studio_2021_01_workspace_RZA2M_ANPR/ANPR_RZA2M_RDK/src/tensorflow_lite/src/tensorflow/lite/micro/tools/make/downloads/cmsis/CMSIS/Core/Include\cmsis_gcc.h ****   \details Assigns the given value to the non-secure Process Stack Pointer (PSP) when in secure sta
 374:C:/Renesas/e2studio_2021_01_workspace_RZA2M_ANPR/ANPR_RZA2M_RDK/src/tensorflow_lite/src/tensorflow/lite/micro/tools/make/downloads/cmsis/CMSIS/Core/Include\cmsis_gcc.h ****   \param [in]    topOfProcStack  Process Stack Pointer value to set
 375:C:/Renesas/e2studio_2021_01_workspace_RZA2M_ANPR/ANPR_RZA2M_RDK/src/tensorflow_lite/src/tensorflow/lite/micro/tools/make/downloads/cmsis/CMSIS/Core/Include\cmsis_gcc.h ****  */
 376:C:/Renesas/e2studio_2021_01_workspace_RZA2M_ANPR/ANPR_RZA2M_RDK/src/tensorflow_lite/src/tensorflow/lite/micro/tools/make/downloads/cmsis/CMSIS/Core/Include\cmsis_gcc.h **** __STATIC_FORCEINLINE void __TZ_set_PSP_NS(uint32_t topOfProcStack)
 377:C:/Renesas/e2studio_2021_01_workspace_RZA2M_ANPR/ANPR_RZA2M_RDK/src/tensorflow_lite/src/tensorflow/lite/micro/tools/make/downloads/cmsis/CMSIS/Core/Include\cmsis_gcc.h **** {
 378:C:/Renesas/e2studio_2021_01_workspace_RZA2M_ANPR/ANPR_RZA2M_RDK/src/tensorflow_lite/src/tensorflow/lite/micro/tools/make/downloads/cmsis/CMSIS/Core/Include\cmsis_gcc.h ****   __ASM volatile ("MSR psp_ns, %0" : : "r" (topOfProcStack) : );
 379:C:/Renesas/e2studio_2021_01_workspace_RZA2M_ANPR/ANPR_RZA2M_RDK/src/tensorflow_lite/src/tensorflow/lite/micro/tools/make/downloads/cmsis/CMSIS/Core/Include\cmsis_gcc.h **** }
 380:C:/Renesas/e2studio_2021_01_workspace_RZA2M_ANPR/ANPR_RZA2M_RDK/src/tensorflow_lite/src/tensorflow/lite/micro/tools/make/downloads/cmsis/CMSIS/Core/Include\cmsis_gcc.h **** #endif
 381:C:/Renesas/e2studio_2021_01_workspace_RZA2M_ANPR/ANPR_RZA2M_RDK/src/tensorflow_lite/src/tensorflow/lite/micro/tools/make/downloads/cmsis/CMSIS/Core/Include\cmsis_gcc.h **** 
 382:C:/Renesas/e2studio_2021_01_workspace_RZA2M_ANPR/ANPR_RZA2M_RDK/src/tensorflow_lite/src/tensorflow/lite/micro/tools/make/downloads/cmsis/CMSIS/Core/Include\cmsis_gcc.h **** 
 383:C:/Renesas/e2studio_2021_01_workspace_RZA2M_ANPR/ANPR_RZA2M_RDK/src/tensorflow_lite/src/tensorflow/lite/micro/tools/make/downloads/cmsis/CMSIS/Core/Include\cmsis_gcc.h **** /**
 384:C:/Renesas/e2studio_2021_01_workspace_RZA2M_ANPR/ANPR_RZA2M_RDK/src/tensorflow_lite/src/tensorflow/lite/micro/tools/make/downloads/cmsis/CMSIS/Core/Include\cmsis_gcc.h ****   \brief   Get Main Stack Pointer
 385:C:/Renesas/e2studio_2021_01_workspace_RZA2M_ANPR/ANPR_RZA2M_RDK/src/tensorflow_lite/src/tensorflow/lite/micro/tools/make/downloads/cmsis/CMSIS/Core/Include\cmsis_gcc.h ****   \details Returns the current value of the Main Stack Pointer (MSP).
 386:C:/Renesas/e2studio_2021_01_workspace_RZA2M_ANPR/ANPR_RZA2M_RDK/src/tensorflow_lite/src/tensorflow/lite/micro/tools/make/downloads/cmsis/CMSIS/Core/Include\cmsis_gcc.h ****   \return               MSP Register value
 387:C:/Renesas/e2studio_2021_01_workspace_RZA2M_ANPR/ANPR_RZA2M_RDK/src/tensorflow_lite/src/tensorflow/lite/micro/tools/make/downloads/cmsis/CMSIS/Core/Include\cmsis_gcc.h ****  */
 388:C:/Renesas/e2studio_2021_01_workspace_RZA2M_ANPR/ANPR_RZA2M_RDK/src/tensorflow_lite/src/tensorflow/lite/micro/tools/make/downloads/cmsis/CMSIS/Core/Include\cmsis_gcc.h **** __STATIC_FORCEINLINE uint32_t __get_MSP(void)
 389:C:/Renesas/e2studio_2021_01_workspace_RZA2M_ANPR/ANPR_RZA2M_RDK/src/tensorflow_lite/src/tensorflow/lite/micro/tools/make/downloads/cmsis/CMSIS/Core/Include\cmsis_gcc.h **** {
 390:C:/Renesas/e2studio_2021_01_workspace_RZA2M_ANPR/ANPR_RZA2M_RDK/src/tensorflow_lite/src/tensorflow/lite/micro/tools/make/downloads/cmsis/CMSIS/Core/Include\cmsis_gcc.h ****   uint32_t result;
 391:C:/Renesas/e2studio_2021_01_workspace_RZA2M_ANPR/ANPR_RZA2M_RDK/src/tensorflow_lite/src/tensorflow/lite/micro/tools/make/downloads/cmsis/CMSIS/Core/Include\cmsis_gcc.h **** 
 392:C:/Renesas/e2studio_2021_01_workspace_RZA2M_ANPR/ANPR_RZA2M_RDK/src/tensorflow_lite/src/tensorflow/lite/micro/tools/make/downloads/cmsis/CMSIS/Core/Include\cmsis_gcc.h ****   __ASM volatile ("MRS %0, msp" : "=r" (result) );
 393:C:/Renesas/e2studio_2021_01_workspace_RZA2M_ANPR/ANPR_RZA2M_RDK/src/tensorflow_lite/src/tensorflow/lite/micro/tools/make/downloads/cmsis/CMSIS/Core/Include\cmsis_gcc.h ****   return(result);
 394:C:/Renesas/e2studio_2021_01_workspace_RZA2M_ANPR/ANPR_RZA2M_RDK/src/tensorflow_lite/src/tensorflow/lite/micro/tools/make/downloads/cmsis/CMSIS/Core/Include\cmsis_gcc.h **** }
 395:C:/Renesas/e2studio_2021_01_workspace_RZA2M_ANPR/ANPR_RZA2M_RDK/src/tensorflow_lite/src/tensorflow/lite/micro/tools/make/downloads/cmsis/CMSIS/Core/Include\cmsis_gcc.h **** 
 396:C:/Renesas/e2studio_2021_01_workspace_RZA2M_ANPR/ANPR_RZA2M_RDK/src/tensorflow_lite/src/tensorflow/lite/micro/tools/make/downloads/cmsis/CMSIS/Core/Include\cmsis_gcc.h **** 
 397:C:/Renesas/e2studio_2021_01_workspace_RZA2M_ANPR/ANPR_RZA2M_RDK/src/tensorflow_lite/src/tensorflow/lite/micro/tools/make/downloads/cmsis/CMSIS/Core/Include\cmsis_gcc.h **** #if (defined (__ARM_FEATURE_CMSE ) && (__ARM_FEATURE_CMSE == 3))
 398:C:/Renesas/e2studio_2021_01_workspace_RZA2M_ANPR/ANPR_RZA2M_RDK/src/tensorflow_lite/src/tensorflow/lite/micro/tools/make/downloads/cmsis/CMSIS/Core/Include\cmsis_gcc.h **** /**
 399:C:/Renesas/e2studio_2021_01_workspace_RZA2M_ANPR/ANPR_RZA2M_RDK/src/tensorflow_lite/src/tensorflow/lite/micro/tools/make/downloads/cmsis/CMSIS/Core/Include\cmsis_gcc.h ****   \brief   Get Main Stack Pointer (non-secure)
 400:C:/Renesas/e2studio_2021_01_workspace_RZA2M_ANPR/ANPR_RZA2M_RDK/src/tensorflow_lite/src/tensorflow/lite/micro/tools/make/downloads/cmsis/CMSIS/Core/Include\cmsis_gcc.h ****   \details Returns the current value of the non-secure Main Stack Pointer (MSP) when in secure stat
 401:C:/Renesas/e2studio_2021_01_workspace_RZA2M_ANPR/ANPR_RZA2M_RDK/src/tensorflow_lite/src/tensorflow/lite/micro/tools/make/downloads/cmsis/CMSIS/Core/Include\cmsis_gcc.h ****   \return               MSP Register value
 402:C:/Renesas/e2studio_2021_01_workspace_RZA2M_ANPR/ANPR_RZA2M_RDK/src/tensorflow_lite/src/tensorflow/lite/micro/tools/make/downloads/cmsis/CMSIS/Core/Include\cmsis_gcc.h ****  */
 403:C:/Renesas/e2studio_2021_01_workspace_RZA2M_ANPR/ANPR_RZA2M_RDK/src/tensorflow_lite/src/tensorflow/lite/micro/tools/make/downloads/cmsis/CMSIS/Core/Include\cmsis_gcc.h **** __STATIC_FORCEINLINE uint32_t __TZ_get_MSP_NS(void)
 404:C:/Renesas/e2studio_2021_01_workspace_RZA2M_ANPR/ANPR_RZA2M_RDK/src/tensorflow_lite/src/tensorflow/lite/micro/tools/make/downloads/cmsis/CMSIS/Core/Include\cmsis_gcc.h **** {
 405:C:/Renesas/e2studio_2021_01_workspace_RZA2M_ANPR/ANPR_RZA2M_RDK/src/tensorflow_lite/src/tensorflow/lite/micro/tools/make/downloads/cmsis/CMSIS/Core/Include\cmsis_gcc.h ****   uint32_t result;
 406:C:/Renesas/e2studio_2021_01_workspace_RZA2M_ANPR/ANPR_RZA2M_RDK/src/tensorflow_lite/src/tensorflow/lite/micro/tools/make/downloads/cmsis/CMSIS/Core/Include\cmsis_gcc.h **** 
 407:C:/Renesas/e2studio_2021_01_workspace_RZA2M_ANPR/ANPR_RZA2M_RDK/src/tensorflow_lite/src/tensorflow/lite/micro/tools/make/downloads/cmsis/CMSIS/Core/Include\cmsis_gcc.h ****   __ASM volatile ("MRS %0, msp_ns" : "=r" (result) );
 408:C:/Renesas/e2studio_2021_01_workspace_RZA2M_ANPR/ANPR_RZA2M_RDK/src/tensorflow_lite/src/tensorflow/lite/micro/tools/make/downloads/cmsis/CMSIS/Core/Include\cmsis_gcc.h ****   return(result);
 409:C:/Renesas/e2studio_2021_01_workspace_RZA2M_ANPR/ANPR_RZA2M_RDK/src/tensorflow_lite/src/tensorflow/lite/micro/tools/make/downloads/cmsis/CMSIS/Core/Include\cmsis_gcc.h **** }
 410:C:/Renesas/e2studio_2021_01_workspace_RZA2M_ANPR/ANPR_RZA2M_RDK/src/tensorflow_lite/src/tensorflow/lite/micro/tools/make/downloads/cmsis/CMSIS/Core/Include\cmsis_gcc.h **** #endif
 411:C:/Renesas/e2studio_2021_01_workspace_RZA2M_ANPR/ANPR_RZA2M_RDK/src/tensorflow_lite/src/tensorflow/lite/micro/tools/make/downloads/cmsis/CMSIS/Core/Include\cmsis_gcc.h **** 
 412:C:/Renesas/e2studio_2021_01_workspace_RZA2M_ANPR/ANPR_RZA2M_RDK/src/tensorflow_lite/src/tensorflow/lite/micro/tools/make/downloads/cmsis/CMSIS/Core/Include\cmsis_gcc.h **** 
 413:C:/Renesas/e2studio_2021_01_workspace_RZA2M_ANPR/ANPR_RZA2M_RDK/src/tensorflow_lite/src/tensorflow/lite/micro/tools/make/downloads/cmsis/CMSIS/Core/Include\cmsis_gcc.h **** /**
 414:C:/Renesas/e2studio_2021_01_workspace_RZA2M_ANPR/ANPR_RZA2M_RDK/src/tensorflow_lite/src/tensorflow/lite/micro/tools/make/downloads/cmsis/CMSIS/Core/Include\cmsis_gcc.h ****   \brief   Set Main Stack Pointer
 415:C:/Renesas/e2studio_2021_01_workspace_RZA2M_ANPR/ANPR_RZA2M_RDK/src/tensorflow_lite/src/tensorflow/lite/micro/tools/make/downloads/cmsis/CMSIS/Core/Include\cmsis_gcc.h ****   \details Assigns the given value to the Main Stack Pointer (MSP).
 416:C:/Renesas/e2studio_2021_01_workspace_RZA2M_ANPR/ANPR_RZA2M_RDK/src/tensorflow_lite/src/tensorflow/lite/micro/tools/make/downloads/cmsis/CMSIS/Core/Include\cmsis_gcc.h ****   \param [in]    topOfMainStack  Main Stack Pointer value to set
 417:C:/Renesas/e2studio_2021_01_workspace_RZA2M_ANPR/ANPR_RZA2M_RDK/src/tensorflow_lite/src/tensorflow/lite/micro/tools/make/downloads/cmsis/CMSIS/Core/Include\cmsis_gcc.h ****  */
 418:C:/Renesas/e2studio_2021_01_workspace_RZA2M_ANPR/ANPR_RZA2M_RDK/src/tensorflow_lite/src/tensorflow/lite/micro/tools/make/downloads/cmsis/CMSIS/Core/Include\cmsis_gcc.h **** __STATIC_FORCEINLINE void __set_MSP(uint32_t topOfMainStack)
 419:C:/Renesas/e2studio_2021_01_workspace_RZA2M_ANPR/ANPR_RZA2M_RDK/src/tensorflow_lite/src/tensorflow/lite/micro/tools/make/downloads/cmsis/CMSIS/Core/Include\cmsis_gcc.h **** {
 420:C:/Renesas/e2studio_2021_01_workspace_RZA2M_ANPR/ANPR_RZA2M_RDK/src/tensorflow_lite/src/tensorflow/lite/micro/tools/make/downloads/cmsis/CMSIS/Core/Include\cmsis_gcc.h ****   __ASM volatile ("MSR msp, %0" : : "r" (topOfMainStack) : );
 421:C:/Renesas/e2studio_2021_01_workspace_RZA2M_ANPR/ANPR_RZA2M_RDK/src/tensorflow_lite/src/tensorflow/lite/micro/tools/make/downloads/cmsis/CMSIS/Core/Include\cmsis_gcc.h **** }
 422:C:/Renesas/e2studio_2021_01_workspace_RZA2M_ANPR/ANPR_RZA2M_RDK/src/tensorflow_lite/src/tensorflow/lite/micro/tools/make/downloads/cmsis/CMSIS/Core/Include\cmsis_gcc.h **** 
 423:C:/Renesas/e2studio_2021_01_workspace_RZA2M_ANPR/ANPR_RZA2M_RDK/src/tensorflow_lite/src/tensorflow/lite/micro/tools/make/downloads/cmsis/CMSIS/Core/Include\cmsis_gcc.h **** 
 424:C:/Renesas/e2studio_2021_01_workspace_RZA2M_ANPR/ANPR_RZA2M_RDK/src/tensorflow_lite/src/tensorflow/lite/micro/tools/make/downloads/cmsis/CMSIS/Core/Include\cmsis_gcc.h **** #if (defined (__ARM_FEATURE_CMSE ) && (__ARM_FEATURE_CMSE == 3))
 425:C:/Renesas/e2studio_2021_01_workspace_RZA2M_ANPR/ANPR_RZA2M_RDK/src/tensorflow_lite/src/tensorflow/lite/micro/tools/make/downloads/cmsis/CMSIS/Core/Include\cmsis_gcc.h **** /**
 426:C:/Renesas/e2studio_2021_01_workspace_RZA2M_ANPR/ANPR_RZA2M_RDK/src/tensorflow_lite/src/tensorflow/lite/micro/tools/make/downloads/cmsis/CMSIS/Core/Include\cmsis_gcc.h ****   \brief   Set Main Stack Pointer (non-secure)
 427:C:/Renesas/e2studio_2021_01_workspace_RZA2M_ANPR/ANPR_RZA2M_RDK/src/tensorflow_lite/src/tensorflow/lite/micro/tools/make/downloads/cmsis/CMSIS/Core/Include\cmsis_gcc.h ****   \details Assigns the given value to the non-secure Main Stack Pointer (MSP) when in secure state.
 428:C:/Renesas/e2studio_2021_01_workspace_RZA2M_ANPR/ANPR_RZA2M_RDK/src/tensorflow_lite/src/tensorflow/lite/micro/tools/make/downloads/cmsis/CMSIS/Core/Include\cmsis_gcc.h ****   \param [in]    topOfMainStack  Main Stack Pointer value to set
 429:C:/Renesas/e2studio_2021_01_workspace_RZA2M_ANPR/ANPR_RZA2M_RDK/src/tensorflow_lite/src/tensorflow/lite/micro/tools/make/downloads/cmsis/CMSIS/Core/Include\cmsis_gcc.h ****  */
 430:C:/Renesas/e2studio_2021_01_workspace_RZA2M_ANPR/ANPR_RZA2M_RDK/src/tensorflow_lite/src/tensorflow/lite/micro/tools/make/downloads/cmsis/CMSIS/Core/Include\cmsis_gcc.h **** __STATIC_FORCEINLINE void __TZ_set_MSP_NS(uint32_t topOfMainStack)
 431:C:/Renesas/e2studio_2021_01_workspace_RZA2M_ANPR/ANPR_RZA2M_RDK/src/tensorflow_lite/src/tensorflow/lite/micro/tools/make/downloads/cmsis/CMSIS/Core/Include\cmsis_gcc.h **** {
 432:C:/Renesas/e2studio_2021_01_workspace_RZA2M_ANPR/ANPR_RZA2M_RDK/src/tensorflow_lite/src/tensorflow/lite/micro/tools/make/downloads/cmsis/CMSIS/Core/Include\cmsis_gcc.h ****   __ASM volatile ("MSR msp_ns, %0" : : "r" (topOfMainStack) : );
 433:C:/Renesas/e2studio_2021_01_workspace_RZA2M_ANPR/ANPR_RZA2M_RDK/src/tensorflow_lite/src/tensorflow/lite/micro/tools/make/downloads/cmsis/CMSIS/Core/Include\cmsis_gcc.h **** }
 434:C:/Renesas/e2studio_2021_01_workspace_RZA2M_ANPR/ANPR_RZA2M_RDK/src/tensorflow_lite/src/tensorflow/lite/micro/tools/make/downloads/cmsis/CMSIS/Core/Include\cmsis_gcc.h **** #endif
 435:C:/Renesas/e2studio_2021_01_workspace_RZA2M_ANPR/ANPR_RZA2M_RDK/src/tensorflow_lite/src/tensorflow/lite/micro/tools/make/downloads/cmsis/CMSIS/Core/Include\cmsis_gcc.h **** 
 436:C:/Renesas/e2studio_2021_01_workspace_RZA2M_ANPR/ANPR_RZA2M_RDK/src/tensorflow_lite/src/tensorflow/lite/micro/tools/make/downloads/cmsis/CMSIS/Core/Include\cmsis_gcc.h **** 
 437:C:/Renesas/e2studio_2021_01_workspace_RZA2M_ANPR/ANPR_RZA2M_RDK/src/tensorflow_lite/src/tensorflow/lite/micro/tools/make/downloads/cmsis/CMSIS/Core/Include\cmsis_gcc.h **** #if (defined (__ARM_FEATURE_CMSE ) && (__ARM_FEATURE_CMSE == 3))
 438:C:/Renesas/e2studio_2021_01_workspace_RZA2M_ANPR/ANPR_RZA2M_RDK/src/tensorflow_lite/src/tensorflow/lite/micro/tools/make/downloads/cmsis/CMSIS/Core/Include\cmsis_gcc.h **** /**
 439:C:/Renesas/e2studio_2021_01_workspace_RZA2M_ANPR/ANPR_RZA2M_RDK/src/tensorflow_lite/src/tensorflow/lite/micro/tools/make/downloads/cmsis/CMSIS/Core/Include\cmsis_gcc.h ****   \brief   Get Stack Pointer (non-secure)
 440:C:/Renesas/e2studio_2021_01_workspace_RZA2M_ANPR/ANPR_RZA2M_RDK/src/tensorflow_lite/src/tensorflow/lite/micro/tools/make/downloads/cmsis/CMSIS/Core/Include\cmsis_gcc.h ****   \details Returns the current value of the non-secure Stack Pointer (SP) when in secure state.
 441:C:/Renesas/e2studio_2021_01_workspace_RZA2M_ANPR/ANPR_RZA2M_RDK/src/tensorflow_lite/src/tensorflow/lite/micro/tools/make/downloads/cmsis/CMSIS/Core/Include\cmsis_gcc.h ****   \return               SP Register value
 442:C:/Renesas/e2studio_2021_01_workspace_RZA2M_ANPR/ANPR_RZA2M_RDK/src/tensorflow_lite/src/tensorflow/lite/micro/tools/make/downloads/cmsis/CMSIS/Core/Include\cmsis_gcc.h ****  */
 443:C:/Renesas/e2studio_2021_01_workspace_RZA2M_ANPR/ANPR_RZA2M_RDK/src/tensorflow_lite/src/tensorflow/lite/micro/tools/make/downloads/cmsis/CMSIS/Core/Include\cmsis_gcc.h **** __STATIC_FORCEINLINE uint32_t __TZ_get_SP_NS(void)
 444:C:/Renesas/e2studio_2021_01_workspace_RZA2M_ANPR/ANPR_RZA2M_RDK/src/tensorflow_lite/src/tensorflow/lite/micro/tools/make/downloads/cmsis/CMSIS/Core/Include\cmsis_gcc.h **** {
 445:C:/Renesas/e2studio_2021_01_workspace_RZA2M_ANPR/ANPR_RZA2M_RDK/src/tensorflow_lite/src/tensorflow/lite/micro/tools/make/downloads/cmsis/CMSIS/Core/Include\cmsis_gcc.h ****   uint32_t result;
 446:C:/Renesas/e2studio_2021_01_workspace_RZA2M_ANPR/ANPR_RZA2M_RDK/src/tensorflow_lite/src/tensorflow/lite/micro/tools/make/downloads/cmsis/CMSIS/Core/Include\cmsis_gcc.h **** 
 447:C:/Renesas/e2studio_2021_01_workspace_RZA2M_ANPR/ANPR_RZA2M_RDK/src/tensorflow_lite/src/tensorflow/lite/micro/tools/make/downloads/cmsis/CMSIS/Core/Include\cmsis_gcc.h ****   __ASM volatile ("MRS %0, sp_ns" : "=r" (result) );
 448:C:/Renesas/e2studio_2021_01_workspace_RZA2M_ANPR/ANPR_RZA2M_RDK/src/tensorflow_lite/src/tensorflow/lite/micro/tools/make/downloads/cmsis/CMSIS/Core/Include\cmsis_gcc.h ****   return(result);
 449:C:/Renesas/e2studio_2021_01_workspace_RZA2M_ANPR/ANPR_RZA2M_RDK/src/tensorflow_lite/src/tensorflow/lite/micro/tools/make/downloads/cmsis/CMSIS/Core/Include\cmsis_gcc.h **** }
 450:C:/Renesas/e2studio_2021_01_workspace_RZA2M_ANPR/ANPR_RZA2M_RDK/src/tensorflow_lite/src/tensorflow/lite/micro/tools/make/downloads/cmsis/CMSIS/Core/Include\cmsis_gcc.h **** 
 451:C:/Renesas/e2studio_2021_01_workspace_RZA2M_ANPR/ANPR_RZA2M_RDK/src/tensorflow_lite/src/tensorflow/lite/micro/tools/make/downloads/cmsis/CMSIS/Core/Include\cmsis_gcc.h **** 
 452:C:/Renesas/e2studio_2021_01_workspace_RZA2M_ANPR/ANPR_RZA2M_RDK/src/tensorflow_lite/src/tensorflow/lite/micro/tools/make/downloads/cmsis/CMSIS/Core/Include\cmsis_gcc.h **** /**
 453:C:/Renesas/e2studio_2021_01_workspace_RZA2M_ANPR/ANPR_RZA2M_RDK/src/tensorflow_lite/src/tensorflow/lite/micro/tools/make/downloads/cmsis/CMSIS/Core/Include\cmsis_gcc.h ****   \brief   Set Stack Pointer (non-secure)
 454:C:/Renesas/e2studio_2021_01_workspace_RZA2M_ANPR/ANPR_RZA2M_RDK/src/tensorflow_lite/src/tensorflow/lite/micro/tools/make/downloads/cmsis/CMSIS/Core/Include\cmsis_gcc.h ****   \details Assigns the given value to the non-secure Stack Pointer (SP) when in secure state.
 455:C:/Renesas/e2studio_2021_01_workspace_RZA2M_ANPR/ANPR_RZA2M_RDK/src/tensorflow_lite/src/tensorflow/lite/micro/tools/make/downloads/cmsis/CMSIS/Core/Include\cmsis_gcc.h ****   \param [in]    topOfStack  Stack Pointer value to set
 456:C:/Renesas/e2studio_2021_01_workspace_RZA2M_ANPR/ANPR_RZA2M_RDK/src/tensorflow_lite/src/tensorflow/lite/micro/tools/make/downloads/cmsis/CMSIS/Core/Include\cmsis_gcc.h ****  */
 457:C:/Renesas/e2studio_2021_01_workspace_RZA2M_ANPR/ANPR_RZA2M_RDK/src/tensorflow_lite/src/tensorflow/lite/micro/tools/make/downloads/cmsis/CMSIS/Core/Include\cmsis_gcc.h **** __STATIC_FORCEINLINE void __TZ_set_SP_NS(uint32_t topOfStack)
 458:C:/Renesas/e2studio_2021_01_workspace_RZA2M_ANPR/ANPR_RZA2M_RDK/src/tensorflow_lite/src/tensorflow/lite/micro/tools/make/downloads/cmsis/CMSIS/Core/Include\cmsis_gcc.h **** {
 459:C:/Renesas/e2studio_2021_01_workspace_RZA2M_ANPR/ANPR_RZA2M_RDK/src/tensorflow_lite/src/tensorflow/lite/micro/tools/make/downloads/cmsis/CMSIS/Core/Include\cmsis_gcc.h ****   __ASM volatile ("MSR sp_ns, %0" : : "r" (topOfStack) : );
 460:C:/Renesas/e2studio_2021_01_workspace_RZA2M_ANPR/ANPR_RZA2M_RDK/src/tensorflow_lite/src/tensorflow/lite/micro/tools/make/downloads/cmsis/CMSIS/Core/Include\cmsis_gcc.h **** }
 461:C:/Renesas/e2studio_2021_01_workspace_RZA2M_ANPR/ANPR_RZA2M_RDK/src/tensorflow_lite/src/tensorflow/lite/micro/tools/make/downloads/cmsis/CMSIS/Core/Include\cmsis_gcc.h **** #endif
 462:C:/Renesas/e2studio_2021_01_workspace_RZA2M_ANPR/ANPR_RZA2M_RDK/src/tensorflow_lite/src/tensorflow/lite/micro/tools/make/downloads/cmsis/CMSIS/Core/Include\cmsis_gcc.h **** 
 463:C:/Renesas/e2studio_2021_01_workspace_RZA2M_ANPR/ANPR_RZA2M_RDK/src/tensorflow_lite/src/tensorflow/lite/micro/tools/make/downloads/cmsis/CMSIS/Core/Include\cmsis_gcc.h **** 
 464:C:/Renesas/e2studio_2021_01_workspace_RZA2M_ANPR/ANPR_RZA2M_RDK/src/tensorflow_lite/src/tensorflow/lite/micro/tools/make/downloads/cmsis/CMSIS/Core/Include\cmsis_gcc.h **** /**
 465:C:/Renesas/e2studio_2021_01_workspace_RZA2M_ANPR/ANPR_RZA2M_RDK/src/tensorflow_lite/src/tensorflow/lite/micro/tools/make/downloads/cmsis/CMSIS/Core/Include\cmsis_gcc.h ****   \brief   Get Priority Mask
 466:C:/Renesas/e2studio_2021_01_workspace_RZA2M_ANPR/ANPR_RZA2M_RDK/src/tensorflow_lite/src/tensorflow/lite/micro/tools/make/downloads/cmsis/CMSIS/Core/Include\cmsis_gcc.h ****   \details Returns the current state of the priority mask bit from the Priority Mask Register.
 467:C:/Renesas/e2studio_2021_01_workspace_RZA2M_ANPR/ANPR_RZA2M_RDK/src/tensorflow_lite/src/tensorflow/lite/micro/tools/make/downloads/cmsis/CMSIS/Core/Include\cmsis_gcc.h ****   \return               Priority Mask value
 468:C:/Renesas/e2studio_2021_01_workspace_RZA2M_ANPR/ANPR_RZA2M_RDK/src/tensorflow_lite/src/tensorflow/lite/micro/tools/make/downloads/cmsis/CMSIS/Core/Include\cmsis_gcc.h ****  */
 469:C:/Renesas/e2studio_2021_01_workspace_RZA2M_ANPR/ANPR_RZA2M_RDK/src/tensorflow_lite/src/tensorflow/lite/micro/tools/make/downloads/cmsis/CMSIS/Core/Include\cmsis_gcc.h **** __STATIC_FORCEINLINE uint32_t __get_PRIMASK(void)
 470:C:/Renesas/e2studio_2021_01_workspace_RZA2M_ANPR/ANPR_RZA2M_RDK/src/tensorflow_lite/src/tensorflow/lite/micro/tools/make/downloads/cmsis/CMSIS/Core/Include\cmsis_gcc.h **** {
 471:C:/Renesas/e2studio_2021_01_workspace_RZA2M_ANPR/ANPR_RZA2M_RDK/src/tensorflow_lite/src/tensorflow/lite/micro/tools/make/downloads/cmsis/CMSIS/Core/Include\cmsis_gcc.h ****   uint32_t result;
 472:C:/Renesas/e2studio_2021_01_workspace_RZA2M_ANPR/ANPR_RZA2M_RDK/src/tensorflow_lite/src/tensorflow/lite/micro/tools/make/downloads/cmsis/CMSIS/Core/Include\cmsis_gcc.h **** 
 473:C:/Renesas/e2studio_2021_01_workspace_RZA2M_ANPR/ANPR_RZA2M_RDK/src/tensorflow_lite/src/tensorflow/lite/micro/tools/make/downloads/cmsis/CMSIS/Core/Include\cmsis_gcc.h ****   __ASM volatile ("MRS %0, primask" : "=r" (result) );
 474:C:/Renesas/e2studio_2021_01_workspace_RZA2M_ANPR/ANPR_RZA2M_RDK/src/tensorflow_lite/src/tensorflow/lite/micro/tools/make/downloads/cmsis/CMSIS/Core/Include\cmsis_gcc.h ****   return(result);
 475:C:/Renesas/e2studio_2021_01_workspace_RZA2M_ANPR/ANPR_RZA2M_RDK/src/tensorflow_lite/src/tensorflow/lite/micro/tools/make/downloads/cmsis/CMSIS/Core/Include\cmsis_gcc.h **** }
 476:C:/Renesas/e2studio_2021_01_workspace_RZA2M_ANPR/ANPR_RZA2M_RDK/src/tensorflow_lite/src/tensorflow/lite/micro/tools/make/downloads/cmsis/CMSIS/Core/Include\cmsis_gcc.h **** 
 477:C:/Renesas/e2studio_2021_01_workspace_RZA2M_ANPR/ANPR_RZA2M_RDK/src/tensorflow_lite/src/tensorflow/lite/micro/tools/make/downloads/cmsis/CMSIS/Core/Include\cmsis_gcc.h **** 
 478:C:/Renesas/e2studio_2021_01_workspace_RZA2M_ANPR/ANPR_RZA2M_RDK/src/tensorflow_lite/src/tensorflow/lite/micro/tools/make/downloads/cmsis/CMSIS/Core/Include\cmsis_gcc.h **** #if (defined (__ARM_FEATURE_CMSE ) && (__ARM_FEATURE_CMSE == 3))
 479:C:/Renesas/e2studio_2021_01_workspace_RZA2M_ANPR/ANPR_RZA2M_RDK/src/tensorflow_lite/src/tensorflow/lite/micro/tools/make/downloads/cmsis/CMSIS/Core/Include\cmsis_gcc.h **** /**
 480:C:/Renesas/e2studio_2021_01_workspace_RZA2M_ANPR/ANPR_RZA2M_RDK/src/tensorflow_lite/src/tensorflow/lite/micro/tools/make/downloads/cmsis/CMSIS/Core/Include\cmsis_gcc.h ****   \brief   Get Priority Mask (non-secure)
 481:C:/Renesas/e2studio_2021_01_workspace_RZA2M_ANPR/ANPR_RZA2M_RDK/src/tensorflow_lite/src/tensorflow/lite/micro/tools/make/downloads/cmsis/CMSIS/Core/Include\cmsis_gcc.h ****   \details Returns the current state of the non-secure priority mask bit from the Priority Mask Reg
 482:C:/Renesas/e2studio_2021_01_workspace_RZA2M_ANPR/ANPR_RZA2M_RDK/src/tensorflow_lite/src/tensorflow/lite/micro/tools/make/downloads/cmsis/CMSIS/Core/Include\cmsis_gcc.h ****   \return               Priority Mask value
 483:C:/Renesas/e2studio_2021_01_workspace_RZA2M_ANPR/ANPR_RZA2M_RDK/src/tensorflow_lite/src/tensorflow/lite/micro/tools/make/downloads/cmsis/CMSIS/Core/Include\cmsis_gcc.h ****  */
 484:C:/Renesas/e2studio_2021_01_workspace_RZA2M_ANPR/ANPR_RZA2M_RDK/src/tensorflow_lite/src/tensorflow/lite/micro/tools/make/downloads/cmsis/CMSIS/Core/Include\cmsis_gcc.h **** __STATIC_FORCEINLINE uint32_t __TZ_get_PRIMASK_NS(void)
 485:C:/Renesas/e2studio_2021_01_workspace_RZA2M_ANPR/ANPR_RZA2M_RDK/src/tensorflow_lite/src/tensorflow/lite/micro/tools/make/downloads/cmsis/CMSIS/Core/Include\cmsis_gcc.h **** {
 486:C:/Renesas/e2studio_2021_01_workspace_RZA2M_ANPR/ANPR_RZA2M_RDK/src/tensorflow_lite/src/tensorflow/lite/micro/tools/make/downloads/cmsis/CMSIS/Core/Include\cmsis_gcc.h ****   uint32_t result;
 487:C:/Renesas/e2studio_2021_01_workspace_RZA2M_ANPR/ANPR_RZA2M_RDK/src/tensorflow_lite/src/tensorflow/lite/micro/tools/make/downloads/cmsis/CMSIS/Core/Include\cmsis_gcc.h **** 
 488:C:/Renesas/e2studio_2021_01_workspace_RZA2M_ANPR/ANPR_RZA2M_RDK/src/tensorflow_lite/src/tensorflow/lite/micro/tools/make/downloads/cmsis/CMSIS/Core/Include\cmsis_gcc.h ****   __ASM volatile ("MRS %0, primask_ns" : "=r" (result) );
 489:C:/Renesas/e2studio_2021_01_workspace_RZA2M_ANPR/ANPR_RZA2M_RDK/src/tensorflow_lite/src/tensorflow/lite/micro/tools/make/downloads/cmsis/CMSIS/Core/Include\cmsis_gcc.h ****   return(result);
 490:C:/Renesas/e2studio_2021_01_workspace_RZA2M_ANPR/ANPR_RZA2M_RDK/src/tensorflow_lite/src/tensorflow/lite/micro/tools/make/downloads/cmsis/CMSIS/Core/Include\cmsis_gcc.h **** }
 491:C:/Renesas/e2studio_2021_01_workspace_RZA2M_ANPR/ANPR_RZA2M_RDK/src/tensorflow_lite/src/tensorflow/lite/micro/tools/make/downloads/cmsis/CMSIS/Core/Include\cmsis_gcc.h **** #endif
 492:C:/Renesas/e2studio_2021_01_workspace_RZA2M_ANPR/ANPR_RZA2M_RDK/src/tensorflow_lite/src/tensorflow/lite/micro/tools/make/downloads/cmsis/CMSIS/Core/Include\cmsis_gcc.h **** 
 493:C:/Renesas/e2studio_2021_01_workspace_RZA2M_ANPR/ANPR_RZA2M_RDK/src/tensorflow_lite/src/tensorflow/lite/micro/tools/make/downloads/cmsis/CMSIS/Core/Include\cmsis_gcc.h **** 
 494:C:/Renesas/e2studio_2021_01_workspace_RZA2M_ANPR/ANPR_RZA2M_RDK/src/tensorflow_lite/src/tensorflow/lite/micro/tools/make/downloads/cmsis/CMSIS/Core/Include\cmsis_gcc.h **** /**
 495:C:/Renesas/e2studio_2021_01_workspace_RZA2M_ANPR/ANPR_RZA2M_RDK/src/tensorflow_lite/src/tensorflow/lite/micro/tools/make/downloads/cmsis/CMSIS/Core/Include\cmsis_gcc.h ****   \brief   Set Priority Mask
 496:C:/Renesas/e2studio_2021_01_workspace_RZA2M_ANPR/ANPR_RZA2M_RDK/src/tensorflow_lite/src/tensorflow/lite/micro/tools/make/downloads/cmsis/CMSIS/Core/Include\cmsis_gcc.h ****   \details Assigns the given value to the Priority Mask Register.
 497:C:/Renesas/e2studio_2021_01_workspace_RZA2M_ANPR/ANPR_RZA2M_RDK/src/tensorflow_lite/src/tensorflow/lite/micro/tools/make/downloads/cmsis/CMSIS/Core/Include\cmsis_gcc.h ****   \param [in]    priMask  Priority Mask
 498:C:/Renesas/e2studio_2021_01_workspace_RZA2M_ANPR/ANPR_RZA2M_RDK/src/tensorflow_lite/src/tensorflow/lite/micro/tools/make/downloads/cmsis/CMSIS/Core/Include\cmsis_gcc.h ****  */
 499:C:/Renesas/e2studio_2021_01_workspace_RZA2M_ANPR/ANPR_RZA2M_RDK/src/tensorflow_lite/src/tensorflow/lite/micro/tools/make/downloads/cmsis/CMSIS/Core/Include\cmsis_gcc.h **** __STATIC_FORCEINLINE void __set_PRIMASK(uint32_t priMask)
 500:C:/Renesas/e2studio_2021_01_workspace_RZA2M_ANPR/ANPR_RZA2M_RDK/src/tensorflow_lite/src/tensorflow/lite/micro/tools/make/downloads/cmsis/CMSIS/Core/Include\cmsis_gcc.h **** {
 501:C:/Renesas/e2studio_2021_01_workspace_RZA2M_ANPR/ANPR_RZA2M_RDK/src/tensorflow_lite/src/tensorflow/lite/micro/tools/make/downloads/cmsis/CMSIS/Core/Include\cmsis_gcc.h ****   __ASM volatile ("MSR primask, %0" : : "r" (priMask) : "memory");
 502:C:/Renesas/e2studio_2021_01_workspace_RZA2M_ANPR/ANPR_RZA2M_RDK/src/tensorflow_lite/src/tensorflow/lite/micro/tools/make/downloads/cmsis/CMSIS/Core/Include\cmsis_gcc.h **** }
 503:C:/Renesas/e2studio_2021_01_workspace_RZA2M_ANPR/ANPR_RZA2M_RDK/src/tensorflow_lite/src/tensorflow/lite/micro/tools/make/downloads/cmsis/CMSIS/Core/Include\cmsis_gcc.h **** 
 504:C:/Renesas/e2studio_2021_01_workspace_RZA2M_ANPR/ANPR_RZA2M_RDK/src/tensorflow_lite/src/tensorflow/lite/micro/tools/make/downloads/cmsis/CMSIS/Core/Include\cmsis_gcc.h **** 
 505:C:/Renesas/e2studio_2021_01_workspace_RZA2M_ANPR/ANPR_RZA2M_RDK/src/tensorflow_lite/src/tensorflow/lite/micro/tools/make/downloads/cmsis/CMSIS/Core/Include\cmsis_gcc.h **** #if (defined (__ARM_FEATURE_CMSE ) && (__ARM_FEATURE_CMSE == 3))
 506:C:/Renesas/e2studio_2021_01_workspace_RZA2M_ANPR/ANPR_RZA2M_RDK/src/tensorflow_lite/src/tensorflow/lite/micro/tools/make/downloads/cmsis/CMSIS/Core/Include\cmsis_gcc.h **** /**
 507:C:/Renesas/e2studio_2021_01_workspace_RZA2M_ANPR/ANPR_RZA2M_RDK/src/tensorflow_lite/src/tensorflow/lite/micro/tools/make/downloads/cmsis/CMSIS/Core/Include\cmsis_gcc.h ****   \brief   Set Priority Mask (non-secure)
 508:C:/Renesas/e2studio_2021_01_workspace_RZA2M_ANPR/ANPR_RZA2M_RDK/src/tensorflow_lite/src/tensorflow/lite/micro/tools/make/downloads/cmsis/CMSIS/Core/Include\cmsis_gcc.h ****   \details Assigns the given value to the non-secure Priority Mask Register when in secure state.
 509:C:/Renesas/e2studio_2021_01_workspace_RZA2M_ANPR/ANPR_RZA2M_RDK/src/tensorflow_lite/src/tensorflow/lite/micro/tools/make/downloads/cmsis/CMSIS/Core/Include\cmsis_gcc.h ****   \param [in]    priMask  Priority Mask
 510:C:/Renesas/e2studio_2021_01_workspace_RZA2M_ANPR/ANPR_RZA2M_RDK/src/tensorflow_lite/src/tensorflow/lite/micro/tools/make/downloads/cmsis/CMSIS/Core/Include\cmsis_gcc.h ****  */
 511:C:/Renesas/e2studio_2021_01_workspace_RZA2M_ANPR/ANPR_RZA2M_RDK/src/tensorflow_lite/src/tensorflow/lite/micro/tools/make/downloads/cmsis/CMSIS/Core/Include\cmsis_gcc.h **** __STATIC_FORCEINLINE void __TZ_set_PRIMASK_NS(uint32_t priMask)
 512:C:/Renesas/e2studio_2021_01_workspace_RZA2M_ANPR/ANPR_RZA2M_RDK/src/tensorflow_lite/src/tensorflow/lite/micro/tools/make/downloads/cmsis/CMSIS/Core/Include\cmsis_gcc.h **** {
 513:C:/Renesas/e2studio_2021_01_workspace_RZA2M_ANPR/ANPR_RZA2M_RDK/src/tensorflow_lite/src/tensorflow/lite/micro/tools/make/downloads/cmsis/CMSIS/Core/Include\cmsis_gcc.h ****   __ASM volatile ("MSR primask_ns, %0" : : "r" (priMask) : "memory");
 514:C:/Renesas/e2studio_2021_01_workspace_RZA2M_ANPR/ANPR_RZA2M_RDK/src/tensorflow_lite/src/tensorflow/lite/micro/tools/make/downloads/cmsis/CMSIS/Core/Include\cmsis_gcc.h **** }
 515:C:/Renesas/e2studio_2021_01_workspace_RZA2M_ANPR/ANPR_RZA2M_RDK/src/tensorflow_lite/src/tensorflow/lite/micro/tools/make/downloads/cmsis/CMSIS/Core/Include\cmsis_gcc.h **** #endif
 516:C:/Renesas/e2studio_2021_01_workspace_RZA2M_ANPR/ANPR_RZA2M_RDK/src/tensorflow_lite/src/tensorflow/lite/micro/tools/make/downloads/cmsis/CMSIS/Core/Include\cmsis_gcc.h **** 
 517:C:/Renesas/e2studio_2021_01_workspace_RZA2M_ANPR/ANPR_RZA2M_RDK/src/tensorflow_lite/src/tensorflow/lite/micro/tools/make/downloads/cmsis/CMSIS/Core/Include\cmsis_gcc.h **** 
 518:C:/Renesas/e2studio_2021_01_workspace_RZA2M_ANPR/ANPR_RZA2M_RDK/src/tensorflow_lite/src/tensorflow/lite/micro/tools/make/downloads/cmsis/CMSIS/Core/Include\cmsis_gcc.h **** #if ((defined (__ARM_ARCH_7M__      ) && (__ARM_ARCH_7M__      == 1)) || \
 519:C:/Renesas/e2studio_2021_01_workspace_RZA2M_ANPR/ANPR_RZA2M_RDK/src/tensorflow_lite/src/tensorflow/lite/micro/tools/make/downloads/cmsis/CMSIS/Core/Include\cmsis_gcc.h ****      (defined (__ARM_ARCH_7EM__     ) && (__ARM_ARCH_7EM__     == 1)) || \
 520:C:/Renesas/e2studio_2021_01_workspace_RZA2M_ANPR/ANPR_RZA2M_RDK/src/tensorflow_lite/src/tensorflow/lite/micro/tools/make/downloads/cmsis/CMSIS/Core/Include\cmsis_gcc.h ****      (defined (__ARM_ARCH_8M_MAIN__ ) && (__ARM_ARCH_8M_MAIN__ == 1))    )
 521:C:/Renesas/e2studio_2021_01_workspace_RZA2M_ANPR/ANPR_RZA2M_RDK/src/tensorflow_lite/src/tensorflow/lite/micro/tools/make/downloads/cmsis/CMSIS/Core/Include\cmsis_gcc.h **** /**
 522:C:/Renesas/e2studio_2021_01_workspace_RZA2M_ANPR/ANPR_RZA2M_RDK/src/tensorflow_lite/src/tensorflow/lite/micro/tools/make/downloads/cmsis/CMSIS/Core/Include\cmsis_gcc.h ****   \brief   Enable FIQ
 523:C:/Renesas/e2studio_2021_01_workspace_RZA2M_ANPR/ANPR_RZA2M_RDK/src/tensorflow_lite/src/tensorflow/lite/micro/tools/make/downloads/cmsis/CMSIS/Core/Include\cmsis_gcc.h ****   \details Enables FIQ interrupts by clearing special-purpose register FAULTMASK.
 524:C:/Renesas/e2studio_2021_01_workspace_RZA2M_ANPR/ANPR_RZA2M_RDK/src/tensorflow_lite/src/tensorflow/lite/micro/tools/make/downloads/cmsis/CMSIS/Core/Include\cmsis_gcc.h ****            Can only be executed in Privileged modes.
 525:C:/Renesas/e2studio_2021_01_workspace_RZA2M_ANPR/ANPR_RZA2M_RDK/src/tensorflow_lite/src/tensorflow/lite/micro/tools/make/downloads/cmsis/CMSIS/Core/Include\cmsis_gcc.h ****  */
 526:C:/Renesas/e2studio_2021_01_workspace_RZA2M_ANPR/ANPR_RZA2M_RDK/src/tensorflow_lite/src/tensorflow/lite/micro/tools/make/downloads/cmsis/CMSIS/Core/Include\cmsis_gcc.h **** __STATIC_FORCEINLINE void __enable_fault_irq(void)
 527:C:/Renesas/e2studio_2021_01_workspace_RZA2M_ANPR/ANPR_RZA2M_RDK/src/tensorflow_lite/src/tensorflow/lite/micro/tools/make/downloads/cmsis/CMSIS/Core/Include\cmsis_gcc.h **** {
 528:C:/Renesas/e2studio_2021_01_workspace_RZA2M_ANPR/ANPR_RZA2M_RDK/src/tensorflow_lite/src/tensorflow/lite/micro/tools/make/downloads/cmsis/CMSIS/Core/Include\cmsis_gcc.h ****   __ASM volatile ("cpsie f" : : : "memory");
 529:C:/Renesas/e2studio_2021_01_workspace_RZA2M_ANPR/ANPR_RZA2M_RDK/src/tensorflow_lite/src/tensorflow/lite/micro/tools/make/downloads/cmsis/CMSIS/Core/Include\cmsis_gcc.h **** }
 530:C:/Renesas/e2studio_2021_01_workspace_RZA2M_ANPR/ANPR_RZA2M_RDK/src/tensorflow_lite/src/tensorflow/lite/micro/tools/make/downloads/cmsis/CMSIS/Core/Include\cmsis_gcc.h **** 
 531:C:/Renesas/e2studio_2021_01_workspace_RZA2M_ANPR/ANPR_RZA2M_RDK/src/tensorflow_lite/src/tensorflow/lite/micro/tools/make/downloads/cmsis/CMSIS/Core/Include\cmsis_gcc.h **** 
 532:C:/Renesas/e2studio_2021_01_workspace_RZA2M_ANPR/ANPR_RZA2M_RDK/src/tensorflow_lite/src/tensorflow/lite/micro/tools/make/downloads/cmsis/CMSIS/Core/Include\cmsis_gcc.h **** /**
 533:C:/Renesas/e2studio_2021_01_workspace_RZA2M_ANPR/ANPR_RZA2M_RDK/src/tensorflow_lite/src/tensorflow/lite/micro/tools/make/downloads/cmsis/CMSIS/Core/Include\cmsis_gcc.h ****   \brief   Disable FIQ
 534:C:/Renesas/e2studio_2021_01_workspace_RZA2M_ANPR/ANPR_RZA2M_RDK/src/tensorflow_lite/src/tensorflow/lite/micro/tools/make/downloads/cmsis/CMSIS/Core/Include\cmsis_gcc.h ****   \details Disables FIQ interrupts by setting special-purpose register FAULTMASK.
 535:C:/Renesas/e2studio_2021_01_workspace_RZA2M_ANPR/ANPR_RZA2M_RDK/src/tensorflow_lite/src/tensorflow/lite/micro/tools/make/downloads/cmsis/CMSIS/Core/Include\cmsis_gcc.h ****            Can only be executed in Privileged modes.
 536:C:/Renesas/e2studio_2021_01_workspace_RZA2M_ANPR/ANPR_RZA2M_RDK/src/tensorflow_lite/src/tensorflow/lite/micro/tools/make/downloads/cmsis/CMSIS/Core/Include\cmsis_gcc.h ****  */
 537:C:/Renesas/e2studio_2021_01_workspace_RZA2M_ANPR/ANPR_RZA2M_RDK/src/tensorflow_lite/src/tensorflow/lite/micro/tools/make/downloads/cmsis/CMSIS/Core/Include\cmsis_gcc.h **** __STATIC_FORCEINLINE void __disable_fault_irq(void)
 538:C:/Renesas/e2studio_2021_01_workspace_RZA2M_ANPR/ANPR_RZA2M_RDK/src/tensorflow_lite/src/tensorflow/lite/micro/tools/make/downloads/cmsis/CMSIS/Core/Include\cmsis_gcc.h **** {
 539:C:/Renesas/e2studio_2021_01_workspace_RZA2M_ANPR/ANPR_RZA2M_RDK/src/tensorflow_lite/src/tensorflow/lite/micro/tools/make/downloads/cmsis/CMSIS/Core/Include\cmsis_gcc.h ****   __ASM volatile ("cpsid f" : : : "memory");
 540:C:/Renesas/e2studio_2021_01_workspace_RZA2M_ANPR/ANPR_RZA2M_RDK/src/tensorflow_lite/src/tensorflow/lite/micro/tools/make/downloads/cmsis/CMSIS/Core/Include\cmsis_gcc.h **** }
 541:C:/Renesas/e2studio_2021_01_workspace_RZA2M_ANPR/ANPR_RZA2M_RDK/src/tensorflow_lite/src/tensorflow/lite/micro/tools/make/downloads/cmsis/CMSIS/Core/Include\cmsis_gcc.h **** 
 542:C:/Renesas/e2studio_2021_01_workspace_RZA2M_ANPR/ANPR_RZA2M_RDK/src/tensorflow_lite/src/tensorflow/lite/micro/tools/make/downloads/cmsis/CMSIS/Core/Include\cmsis_gcc.h **** 
 543:C:/Renesas/e2studio_2021_01_workspace_RZA2M_ANPR/ANPR_RZA2M_RDK/src/tensorflow_lite/src/tensorflow/lite/micro/tools/make/downloads/cmsis/CMSIS/Core/Include\cmsis_gcc.h **** /**
 544:C:/Renesas/e2studio_2021_01_workspace_RZA2M_ANPR/ANPR_RZA2M_RDK/src/tensorflow_lite/src/tensorflow/lite/micro/tools/make/downloads/cmsis/CMSIS/Core/Include\cmsis_gcc.h ****   \brief   Get Base Priority
 545:C:/Renesas/e2studio_2021_01_workspace_RZA2M_ANPR/ANPR_RZA2M_RDK/src/tensorflow_lite/src/tensorflow/lite/micro/tools/make/downloads/cmsis/CMSIS/Core/Include\cmsis_gcc.h ****   \details Returns the current value of the Base Priority register.
 546:C:/Renesas/e2studio_2021_01_workspace_RZA2M_ANPR/ANPR_RZA2M_RDK/src/tensorflow_lite/src/tensorflow/lite/micro/tools/make/downloads/cmsis/CMSIS/Core/Include\cmsis_gcc.h ****   \return               Base Priority register value
 547:C:/Renesas/e2studio_2021_01_workspace_RZA2M_ANPR/ANPR_RZA2M_RDK/src/tensorflow_lite/src/tensorflow/lite/micro/tools/make/downloads/cmsis/CMSIS/Core/Include\cmsis_gcc.h ****  */
 548:C:/Renesas/e2studio_2021_01_workspace_RZA2M_ANPR/ANPR_RZA2M_RDK/src/tensorflow_lite/src/tensorflow/lite/micro/tools/make/downloads/cmsis/CMSIS/Core/Include\cmsis_gcc.h **** __STATIC_FORCEINLINE uint32_t __get_BASEPRI(void)
 549:C:/Renesas/e2studio_2021_01_workspace_RZA2M_ANPR/ANPR_RZA2M_RDK/src/tensorflow_lite/src/tensorflow/lite/micro/tools/make/downloads/cmsis/CMSIS/Core/Include\cmsis_gcc.h **** {
 550:C:/Renesas/e2studio_2021_01_workspace_RZA2M_ANPR/ANPR_RZA2M_RDK/src/tensorflow_lite/src/tensorflow/lite/micro/tools/make/downloads/cmsis/CMSIS/Core/Include\cmsis_gcc.h ****   uint32_t result;
 551:C:/Renesas/e2studio_2021_01_workspace_RZA2M_ANPR/ANPR_RZA2M_RDK/src/tensorflow_lite/src/tensorflow/lite/micro/tools/make/downloads/cmsis/CMSIS/Core/Include\cmsis_gcc.h **** 
 552:C:/Renesas/e2studio_2021_01_workspace_RZA2M_ANPR/ANPR_RZA2M_RDK/src/tensorflow_lite/src/tensorflow/lite/micro/tools/make/downloads/cmsis/CMSIS/Core/Include\cmsis_gcc.h ****   __ASM volatile ("MRS %0, basepri" : "=r" (result) );
 553:C:/Renesas/e2studio_2021_01_workspace_RZA2M_ANPR/ANPR_RZA2M_RDK/src/tensorflow_lite/src/tensorflow/lite/micro/tools/make/downloads/cmsis/CMSIS/Core/Include\cmsis_gcc.h ****   return(result);
 554:C:/Renesas/e2studio_2021_01_workspace_RZA2M_ANPR/ANPR_RZA2M_RDK/src/tensorflow_lite/src/tensorflow/lite/micro/tools/make/downloads/cmsis/CMSIS/Core/Include\cmsis_gcc.h **** }
 555:C:/Renesas/e2studio_2021_01_workspace_RZA2M_ANPR/ANPR_RZA2M_RDK/src/tensorflow_lite/src/tensorflow/lite/micro/tools/make/downloads/cmsis/CMSIS/Core/Include\cmsis_gcc.h **** 
 556:C:/Renesas/e2studio_2021_01_workspace_RZA2M_ANPR/ANPR_RZA2M_RDK/src/tensorflow_lite/src/tensorflow/lite/micro/tools/make/downloads/cmsis/CMSIS/Core/Include\cmsis_gcc.h **** 
 557:C:/Renesas/e2studio_2021_01_workspace_RZA2M_ANPR/ANPR_RZA2M_RDK/src/tensorflow_lite/src/tensorflow/lite/micro/tools/make/downloads/cmsis/CMSIS/Core/Include\cmsis_gcc.h **** #if (defined (__ARM_FEATURE_CMSE ) && (__ARM_FEATURE_CMSE == 3))
 558:C:/Renesas/e2studio_2021_01_workspace_RZA2M_ANPR/ANPR_RZA2M_RDK/src/tensorflow_lite/src/tensorflow/lite/micro/tools/make/downloads/cmsis/CMSIS/Core/Include\cmsis_gcc.h **** /**
 559:C:/Renesas/e2studio_2021_01_workspace_RZA2M_ANPR/ANPR_RZA2M_RDK/src/tensorflow_lite/src/tensorflow/lite/micro/tools/make/downloads/cmsis/CMSIS/Core/Include\cmsis_gcc.h ****   \brief   Get Base Priority (non-secure)
 560:C:/Renesas/e2studio_2021_01_workspace_RZA2M_ANPR/ANPR_RZA2M_RDK/src/tensorflow_lite/src/tensorflow/lite/micro/tools/make/downloads/cmsis/CMSIS/Core/Include\cmsis_gcc.h ****   \details Returns the current value of the non-secure Base Priority register when in secure state.
 561:C:/Renesas/e2studio_2021_01_workspace_RZA2M_ANPR/ANPR_RZA2M_RDK/src/tensorflow_lite/src/tensorflow/lite/micro/tools/make/downloads/cmsis/CMSIS/Core/Include\cmsis_gcc.h ****   \return               Base Priority register value
 562:C:/Renesas/e2studio_2021_01_workspace_RZA2M_ANPR/ANPR_RZA2M_RDK/src/tensorflow_lite/src/tensorflow/lite/micro/tools/make/downloads/cmsis/CMSIS/Core/Include\cmsis_gcc.h ****  */
 563:C:/Renesas/e2studio_2021_01_workspace_RZA2M_ANPR/ANPR_RZA2M_RDK/src/tensorflow_lite/src/tensorflow/lite/micro/tools/make/downloads/cmsis/CMSIS/Core/Include\cmsis_gcc.h **** __STATIC_FORCEINLINE uint32_t __TZ_get_BASEPRI_NS(void)
 564:C:/Renesas/e2studio_2021_01_workspace_RZA2M_ANPR/ANPR_RZA2M_RDK/src/tensorflow_lite/src/tensorflow/lite/micro/tools/make/downloads/cmsis/CMSIS/Core/Include\cmsis_gcc.h **** {
 565:C:/Renesas/e2studio_2021_01_workspace_RZA2M_ANPR/ANPR_RZA2M_RDK/src/tensorflow_lite/src/tensorflow/lite/micro/tools/make/downloads/cmsis/CMSIS/Core/Include\cmsis_gcc.h ****   uint32_t result;
 566:C:/Renesas/e2studio_2021_01_workspace_RZA2M_ANPR/ANPR_RZA2M_RDK/src/tensorflow_lite/src/tensorflow/lite/micro/tools/make/downloads/cmsis/CMSIS/Core/Include\cmsis_gcc.h **** 
 567:C:/Renesas/e2studio_2021_01_workspace_RZA2M_ANPR/ANPR_RZA2M_RDK/src/tensorflow_lite/src/tensorflow/lite/micro/tools/make/downloads/cmsis/CMSIS/Core/Include\cmsis_gcc.h ****   __ASM volatile ("MRS %0, basepri_ns" : "=r" (result) );
 568:C:/Renesas/e2studio_2021_01_workspace_RZA2M_ANPR/ANPR_RZA2M_RDK/src/tensorflow_lite/src/tensorflow/lite/micro/tools/make/downloads/cmsis/CMSIS/Core/Include\cmsis_gcc.h ****   return(result);
 569:C:/Renesas/e2studio_2021_01_workspace_RZA2M_ANPR/ANPR_RZA2M_RDK/src/tensorflow_lite/src/tensorflow/lite/micro/tools/make/downloads/cmsis/CMSIS/Core/Include\cmsis_gcc.h **** }
 570:C:/Renesas/e2studio_2021_01_workspace_RZA2M_ANPR/ANPR_RZA2M_RDK/src/tensorflow_lite/src/tensorflow/lite/micro/tools/make/downloads/cmsis/CMSIS/Core/Include\cmsis_gcc.h **** #endif
 571:C:/Renesas/e2studio_2021_01_workspace_RZA2M_ANPR/ANPR_RZA2M_RDK/src/tensorflow_lite/src/tensorflow/lite/micro/tools/make/downloads/cmsis/CMSIS/Core/Include\cmsis_gcc.h **** 
 572:C:/Renesas/e2studio_2021_01_workspace_RZA2M_ANPR/ANPR_RZA2M_RDK/src/tensorflow_lite/src/tensorflow/lite/micro/tools/make/downloads/cmsis/CMSIS/Core/Include\cmsis_gcc.h **** 
 573:C:/Renesas/e2studio_2021_01_workspace_RZA2M_ANPR/ANPR_RZA2M_RDK/src/tensorflow_lite/src/tensorflow/lite/micro/tools/make/downloads/cmsis/CMSIS/Core/Include\cmsis_gcc.h **** /**
 574:C:/Renesas/e2studio_2021_01_workspace_RZA2M_ANPR/ANPR_RZA2M_RDK/src/tensorflow_lite/src/tensorflow/lite/micro/tools/make/downloads/cmsis/CMSIS/Core/Include\cmsis_gcc.h ****   \brief   Set Base Priority
 575:C:/Renesas/e2studio_2021_01_workspace_RZA2M_ANPR/ANPR_RZA2M_RDK/src/tensorflow_lite/src/tensorflow/lite/micro/tools/make/downloads/cmsis/CMSIS/Core/Include\cmsis_gcc.h ****   \details Assigns the given value to the Base Priority register.
 576:C:/Renesas/e2studio_2021_01_workspace_RZA2M_ANPR/ANPR_RZA2M_RDK/src/tensorflow_lite/src/tensorflow/lite/micro/tools/make/downloads/cmsis/CMSIS/Core/Include\cmsis_gcc.h ****   \param [in]    basePri  Base Priority value to set
 577:C:/Renesas/e2studio_2021_01_workspace_RZA2M_ANPR/ANPR_RZA2M_RDK/src/tensorflow_lite/src/tensorflow/lite/micro/tools/make/downloads/cmsis/CMSIS/Core/Include\cmsis_gcc.h ****  */
 578:C:/Renesas/e2studio_2021_01_workspace_RZA2M_ANPR/ANPR_RZA2M_RDK/src/tensorflow_lite/src/tensorflow/lite/micro/tools/make/downloads/cmsis/CMSIS/Core/Include\cmsis_gcc.h **** __STATIC_FORCEINLINE void __set_BASEPRI(uint32_t basePri)
 579:C:/Renesas/e2studio_2021_01_workspace_RZA2M_ANPR/ANPR_RZA2M_RDK/src/tensorflow_lite/src/tensorflow/lite/micro/tools/make/downloads/cmsis/CMSIS/Core/Include\cmsis_gcc.h **** {
 580:C:/Renesas/e2studio_2021_01_workspace_RZA2M_ANPR/ANPR_RZA2M_RDK/src/tensorflow_lite/src/tensorflow/lite/micro/tools/make/downloads/cmsis/CMSIS/Core/Include\cmsis_gcc.h ****   __ASM volatile ("MSR basepri, %0" : : "r" (basePri) : "memory");
 581:C:/Renesas/e2studio_2021_01_workspace_RZA2M_ANPR/ANPR_RZA2M_RDK/src/tensorflow_lite/src/tensorflow/lite/micro/tools/make/downloads/cmsis/CMSIS/Core/Include\cmsis_gcc.h **** }
 582:C:/Renesas/e2studio_2021_01_workspace_RZA2M_ANPR/ANPR_RZA2M_RDK/src/tensorflow_lite/src/tensorflow/lite/micro/tools/make/downloads/cmsis/CMSIS/Core/Include\cmsis_gcc.h **** 
 583:C:/Renesas/e2studio_2021_01_workspace_RZA2M_ANPR/ANPR_RZA2M_RDK/src/tensorflow_lite/src/tensorflow/lite/micro/tools/make/downloads/cmsis/CMSIS/Core/Include\cmsis_gcc.h **** 
 584:C:/Renesas/e2studio_2021_01_workspace_RZA2M_ANPR/ANPR_RZA2M_RDK/src/tensorflow_lite/src/tensorflow/lite/micro/tools/make/downloads/cmsis/CMSIS/Core/Include\cmsis_gcc.h **** #if (defined (__ARM_FEATURE_CMSE ) && (__ARM_FEATURE_CMSE == 3))
 585:C:/Renesas/e2studio_2021_01_workspace_RZA2M_ANPR/ANPR_RZA2M_RDK/src/tensorflow_lite/src/tensorflow/lite/micro/tools/make/downloads/cmsis/CMSIS/Core/Include\cmsis_gcc.h **** /**
 586:C:/Renesas/e2studio_2021_01_workspace_RZA2M_ANPR/ANPR_RZA2M_RDK/src/tensorflow_lite/src/tensorflow/lite/micro/tools/make/downloads/cmsis/CMSIS/Core/Include\cmsis_gcc.h ****   \brief   Set Base Priority (non-secure)
 587:C:/Renesas/e2studio_2021_01_workspace_RZA2M_ANPR/ANPR_RZA2M_RDK/src/tensorflow_lite/src/tensorflow/lite/micro/tools/make/downloads/cmsis/CMSIS/Core/Include\cmsis_gcc.h ****   \details Assigns the given value to the non-secure Base Priority register when in secure state.
 588:C:/Renesas/e2studio_2021_01_workspace_RZA2M_ANPR/ANPR_RZA2M_RDK/src/tensorflow_lite/src/tensorflow/lite/micro/tools/make/downloads/cmsis/CMSIS/Core/Include\cmsis_gcc.h ****   \param [in]    basePri  Base Priority value to set
 589:C:/Renesas/e2studio_2021_01_workspace_RZA2M_ANPR/ANPR_RZA2M_RDK/src/tensorflow_lite/src/tensorflow/lite/micro/tools/make/downloads/cmsis/CMSIS/Core/Include\cmsis_gcc.h ****  */
 590:C:/Renesas/e2studio_2021_01_workspace_RZA2M_ANPR/ANPR_RZA2M_RDK/src/tensorflow_lite/src/tensorflow/lite/micro/tools/make/downloads/cmsis/CMSIS/Core/Include\cmsis_gcc.h **** __STATIC_FORCEINLINE void __TZ_set_BASEPRI_NS(uint32_t basePri)
 591:C:/Renesas/e2studio_2021_01_workspace_RZA2M_ANPR/ANPR_RZA2M_RDK/src/tensorflow_lite/src/tensorflow/lite/micro/tools/make/downloads/cmsis/CMSIS/Core/Include\cmsis_gcc.h **** {
 592:C:/Renesas/e2studio_2021_01_workspace_RZA2M_ANPR/ANPR_RZA2M_RDK/src/tensorflow_lite/src/tensorflow/lite/micro/tools/make/downloads/cmsis/CMSIS/Core/Include\cmsis_gcc.h ****   __ASM volatile ("MSR basepri_ns, %0" : : "r" (basePri) : "memory");
 593:C:/Renesas/e2studio_2021_01_workspace_RZA2M_ANPR/ANPR_RZA2M_RDK/src/tensorflow_lite/src/tensorflow/lite/micro/tools/make/downloads/cmsis/CMSIS/Core/Include\cmsis_gcc.h **** }
 594:C:/Renesas/e2studio_2021_01_workspace_RZA2M_ANPR/ANPR_RZA2M_RDK/src/tensorflow_lite/src/tensorflow/lite/micro/tools/make/downloads/cmsis/CMSIS/Core/Include\cmsis_gcc.h **** #endif
 595:C:/Renesas/e2studio_2021_01_workspace_RZA2M_ANPR/ANPR_RZA2M_RDK/src/tensorflow_lite/src/tensorflow/lite/micro/tools/make/downloads/cmsis/CMSIS/Core/Include\cmsis_gcc.h **** 
 596:C:/Renesas/e2studio_2021_01_workspace_RZA2M_ANPR/ANPR_RZA2M_RDK/src/tensorflow_lite/src/tensorflow/lite/micro/tools/make/downloads/cmsis/CMSIS/Core/Include\cmsis_gcc.h **** 
 597:C:/Renesas/e2studio_2021_01_workspace_RZA2M_ANPR/ANPR_RZA2M_RDK/src/tensorflow_lite/src/tensorflow/lite/micro/tools/make/downloads/cmsis/CMSIS/Core/Include\cmsis_gcc.h **** /**
 598:C:/Renesas/e2studio_2021_01_workspace_RZA2M_ANPR/ANPR_RZA2M_RDK/src/tensorflow_lite/src/tensorflow/lite/micro/tools/make/downloads/cmsis/CMSIS/Core/Include\cmsis_gcc.h ****   \brief   Set Base Priority with condition
 599:C:/Renesas/e2studio_2021_01_workspace_RZA2M_ANPR/ANPR_RZA2M_RDK/src/tensorflow_lite/src/tensorflow/lite/micro/tools/make/downloads/cmsis/CMSIS/Core/Include\cmsis_gcc.h ****   \details Assigns the given value to the Base Priority register only if BASEPRI masking is disable
 600:C:/Renesas/e2studio_2021_01_workspace_RZA2M_ANPR/ANPR_RZA2M_RDK/src/tensorflow_lite/src/tensorflow/lite/micro/tools/make/downloads/cmsis/CMSIS/Core/Include\cmsis_gcc.h ****            or the new value increases the BASEPRI priority level.
 601:C:/Renesas/e2studio_2021_01_workspace_RZA2M_ANPR/ANPR_RZA2M_RDK/src/tensorflow_lite/src/tensorflow/lite/micro/tools/make/downloads/cmsis/CMSIS/Core/Include\cmsis_gcc.h ****   \param [in]    basePri  Base Priority value to set
 602:C:/Renesas/e2studio_2021_01_workspace_RZA2M_ANPR/ANPR_RZA2M_RDK/src/tensorflow_lite/src/tensorflow/lite/micro/tools/make/downloads/cmsis/CMSIS/Core/Include\cmsis_gcc.h ****  */
 603:C:/Renesas/e2studio_2021_01_workspace_RZA2M_ANPR/ANPR_RZA2M_RDK/src/tensorflow_lite/src/tensorflow/lite/micro/tools/make/downloads/cmsis/CMSIS/Core/Include\cmsis_gcc.h **** __STATIC_FORCEINLINE void __set_BASEPRI_MAX(uint32_t basePri)
 604:C:/Renesas/e2studio_2021_01_workspace_RZA2M_ANPR/ANPR_RZA2M_RDK/src/tensorflow_lite/src/tensorflow/lite/micro/tools/make/downloads/cmsis/CMSIS/Core/Include\cmsis_gcc.h **** {
 605:C:/Renesas/e2studio_2021_01_workspace_RZA2M_ANPR/ANPR_RZA2M_RDK/src/tensorflow_lite/src/tensorflow/lite/micro/tools/make/downloads/cmsis/CMSIS/Core/Include\cmsis_gcc.h ****   __ASM volatile ("MSR basepri_max, %0" : : "r" (basePri) : "memory");
 606:C:/Renesas/e2studio_2021_01_workspace_RZA2M_ANPR/ANPR_RZA2M_RDK/src/tensorflow_lite/src/tensorflow/lite/micro/tools/make/downloads/cmsis/CMSIS/Core/Include\cmsis_gcc.h **** }
 607:C:/Renesas/e2studio_2021_01_workspace_RZA2M_ANPR/ANPR_RZA2M_RDK/src/tensorflow_lite/src/tensorflow/lite/micro/tools/make/downloads/cmsis/CMSIS/Core/Include\cmsis_gcc.h **** 
 608:C:/Renesas/e2studio_2021_01_workspace_RZA2M_ANPR/ANPR_RZA2M_RDK/src/tensorflow_lite/src/tensorflow/lite/micro/tools/make/downloads/cmsis/CMSIS/Core/Include\cmsis_gcc.h **** 
 609:C:/Renesas/e2studio_2021_01_workspace_RZA2M_ANPR/ANPR_RZA2M_RDK/src/tensorflow_lite/src/tensorflow/lite/micro/tools/make/downloads/cmsis/CMSIS/Core/Include\cmsis_gcc.h **** /**
 610:C:/Renesas/e2studio_2021_01_workspace_RZA2M_ANPR/ANPR_RZA2M_RDK/src/tensorflow_lite/src/tensorflow/lite/micro/tools/make/downloads/cmsis/CMSIS/Core/Include\cmsis_gcc.h ****   \brief   Get Fault Mask
 611:C:/Renesas/e2studio_2021_01_workspace_RZA2M_ANPR/ANPR_RZA2M_RDK/src/tensorflow_lite/src/tensorflow/lite/micro/tools/make/downloads/cmsis/CMSIS/Core/Include\cmsis_gcc.h ****   \details Returns the current value of the Fault Mask register.
 612:C:/Renesas/e2studio_2021_01_workspace_RZA2M_ANPR/ANPR_RZA2M_RDK/src/tensorflow_lite/src/tensorflow/lite/micro/tools/make/downloads/cmsis/CMSIS/Core/Include\cmsis_gcc.h ****   \return               Fault Mask register value
 613:C:/Renesas/e2studio_2021_01_workspace_RZA2M_ANPR/ANPR_RZA2M_RDK/src/tensorflow_lite/src/tensorflow/lite/micro/tools/make/downloads/cmsis/CMSIS/Core/Include\cmsis_gcc.h ****  */
 614:C:/Renesas/e2studio_2021_01_workspace_RZA2M_ANPR/ANPR_RZA2M_RDK/src/tensorflow_lite/src/tensorflow/lite/micro/tools/make/downloads/cmsis/CMSIS/Core/Include\cmsis_gcc.h **** __STATIC_FORCEINLINE uint32_t __get_FAULTMASK(void)
 615:C:/Renesas/e2studio_2021_01_workspace_RZA2M_ANPR/ANPR_RZA2M_RDK/src/tensorflow_lite/src/tensorflow/lite/micro/tools/make/downloads/cmsis/CMSIS/Core/Include\cmsis_gcc.h **** {
 616:C:/Renesas/e2studio_2021_01_workspace_RZA2M_ANPR/ANPR_RZA2M_RDK/src/tensorflow_lite/src/tensorflow/lite/micro/tools/make/downloads/cmsis/CMSIS/Core/Include\cmsis_gcc.h ****   uint32_t result;
 617:C:/Renesas/e2studio_2021_01_workspace_RZA2M_ANPR/ANPR_RZA2M_RDK/src/tensorflow_lite/src/tensorflow/lite/micro/tools/make/downloads/cmsis/CMSIS/Core/Include\cmsis_gcc.h **** 
 618:C:/Renesas/e2studio_2021_01_workspace_RZA2M_ANPR/ANPR_RZA2M_RDK/src/tensorflow_lite/src/tensorflow/lite/micro/tools/make/downloads/cmsis/CMSIS/Core/Include\cmsis_gcc.h ****   __ASM volatile ("MRS %0, faultmask" : "=r" (result) );
 619:C:/Renesas/e2studio_2021_01_workspace_RZA2M_ANPR/ANPR_RZA2M_RDK/src/tensorflow_lite/src/tensorflow/lite/micro/tools/make/downloads/cmsis/CMSIS/Core/Include\cmsis_gcc.h ****   return(result);
 620:C:/Renesas/e2studio_2021_01_workspace_RZA2M_ANPR/ANPR_RZA2M_RDK/src/tensorflow_lite/src/tensorflow/lite/micro/tools/make/downloads/cmsis/CMSIS/Core/Include\cmsis_gcc.h **** }
 621:C:/Renesas/e2studio_2021_01_workspace_RZA2M_ANPR/ANPR_RZA2M_RDK/src/tensorflow_lite/src/tensorflow/lite/micro/tools/make/downloads/cmsis/CMSIS/Core/Include\cmsis_gcc.h **** 
 622:C:/Renesas/e2studio_2021_01_workspace_RZA2M_ANPR/ANPR_RZA2M_RDK/src/tensorflow_lite/src/tensorflow/lite/micro/tools/make/downloads/cmsis/CMSIS/Core/Include\cmsis_gcc.h **** 
 623:C:/Renesas/e2studio_2021_01_workspace_RZA2M_ANPR/ANPR_RZA2M_RDK/src/tensorflow_lite/src/tensorflow/lite/micro/tools/make/downloads/cmsis/CMSIS/Core/Include\cmsis_gcc.h **** #if (defined (__ARM_FEATURE_CMSE ) && (__ARM_FEATURE_CMSE == 3))
 624:C:/Renesas/e2studio_2021_01_workspace_RZA2M_ANPR/ANPR_RZA2M_RDK/src/tensorflow_lite/src/tensorflow/lite/micro/tools/make/downloads/cmsis/CMSIS/Core/Include\cmsis_gcc.h **** /**
 625:C:/Renesas/e2studio_2021_01_workspace_RZA2M_ANPR/ANPR_RZA2M_RDK/src/tensorflow_lite/src/tensorflow/lite/micro/tools/make/downloads/cmsis/CMSIS/Core/Include\cmsis_gcc.h ****   \brief   Get Fault Mask (non-secure)
 626:C:/Renesas/e2studio_2021_01_workspace_RZA2M_ANPR/ANPR_RZA2M_RDK/src/tensorflow_lite/src/tensorflow/lite/micro/tools/make/downloads/cmsis/CMSIS/Core/Include\cmsis_gcc.h ****   \details Returns the current value of the non-secure Fault Mask register when in secure state.
 627:C:/Renesas/e2studio_2021_01_workspace_RZA2M_ANPR/ANPR_RZA2M_RDK/src/tensorflow_lite/src/tensorflow/lite/micro/tools/make/downloads/cmsis/CMSIS/Core/Include\cmsis_gcc.h ****   \return               Fault Mask register value
 628:C:/Renesas/e2studio_2021_01_workspace_RZA2M_ANPR/ANPR_RZA2M_RDK/src/tensorflow_lite/src/tensorflow/lite/micro/tools/make/downloads/cmsis/CMSIS/Core/Include\cmsis_gcc.h ****  */
 629:C:/Renesas/e2studio_2021_01_workspace_RZA2M_ANPR/ANPR_RZA2M_RDK/src/tensorflow_lite/src/tensorflow/lite/micro/tools/make/downloads/cmsis/CMSIS/Core/Include\cmsis_gcc.h **** __STATIC_FORCEINLINE uint32_t __TZ_get_FAULTMASK_NS(void)
 630:C:/Renesas/e2studio_2021_01_workspace_RZA2M_ANPR/ANPR_RZA2M_RDK/src/tensorflow_lite/src/tensorflow/lite/micro/tools/make/downloads/cmsis/CMSIS/Core/Include\cmsis_gcc.h **** {
 631:C:/Renesas/e2studio_2021_01_workspace_RZA2M_ANPR/ANPR_RZA2M_RDK/src/tensorflow_lite/src/tensorflow/lite/micro/tools/make/downloads/cmsis/CMSIS/Core/Include\cmsis_gcc.h ****   uint32_t result;
 632:C:/Renesas/e2studio_2021_01_workspace_RZA2M_ANPR/ANPR_RZA2M_RDK/src/tensorflow_lite/src/tensorflow/lite/micro/tools/make/downloads/cmsis/CMSIS/Core/Include\cmsis_gcc.h **** 
 633:C:/Renesas/e2studio_2021_01_workspace_RZA2M_ANPR/ANPR_RZA2M_RDK/src/tensorflow_lite/src/tensorflow/lite/micro/tools/make/downloads/cmsis/CMSIS/Core/Include\cmsis_gcc.h ****   __ASM volatile ("MRS %0, faultmask_ns" : "=r" (result) );
 634:C:/Renesas/e2studio_2021_01_workspace_RZA2M_ANPR/ANPR_RZA2M_RDK/src/tensorflow_lite/src/tensorflow/lite/micro/tools/make/downloads/cmsis/CMSIS/Core/Include\cmsis_gcc.h ****   return(result);
 635:C:/Renesas/e2studio_2021_01_workspace_RZA2M_ANPR/ANPR_RZA2M_RDK/src/tensorflow_lite/src/tensorflow/lite/micro/tools/make/downloads/cmsis/CMSIS/Core/Include\cmsis_gcc.h **** }
 636:C:/Renesas/e2studio_2021_01_workspace_RZA2M_ANPR/ANPR_RZA2M_RDK/src/tensorflow_lite/src/tensorflow/lite/micro/tools/make/downloads/cmsis/CMSIS/Core/Include\cmsis_gcc.h **** #endif
 637:C:/Renesas/e2studio_2021_01_workspace_RZA2M_ANPR/ANPR_RZA2M_RDK/src/tensorflow_lite/src/tensorflow/lite/micro/tools/make/downloads/cmsis/CMSIS/Core/Include\cmsis_gcc.h **** 
 638:C:/Renesas/e2studio_2021_01_workspace_RZA2M_ANPR/ANPR_RZA2M_RDK/src/tensorflow_lite/src/tensorflow/lite/micro/tools/make/downloads/cmsis/CMSIS/Core/Include\cmsis_gcc.h **** 
 639:C:/Renesas/e2studio_2021_01_workspace_RZA2M_ANPR/ANPR_RZA2M_RDK/src/tensorflow_lite/src/tensorflow/lite/micro/tools/make/downloads/cmsis/CMSIS/Core/Include\cmsis_gcc.h **** /**
 640:C:/Renesas/e2studio_2021_01_workspace_RZA2M_ANPR/ANPR_RZA2M_RDK/src/tensorflow_lite/src/tensorflow/lite/micro/tools/make/downloads/cmsis/CMSIS/Core/Include\cmsis_gcc.h ****   \brief   Set Fault Mask
 641:C:/Renesas/e2studio_2021_01_workspace_RZA2M_ANPR/ANPR_RZA2M_RDK/src/tensorflow_lite/src/tensorflow/lite/micro/tools/make/downloads/cmsis/CMSIS/Core/Include\cmsis_gcc.h ****   \details Assigns the given value to the Fault Mask register.
 642:C:/Renesas/e2studio_2021_01_workspace_RZA2M_ANPR/ANPR_RZA2M_RDK/src/tensorflow_lite/src/tensorflow/lite/micro/tools/make/downloads/cmsis/CMSIS/Core/Include\cmsis_gcc.h ****   \param [in]    faultMask  Fault Mask value to set
 643:C:/Renesas/e2studio_2021_01_workspace_RZA2M_ANPR/ANPR_RZA2M_RDK/src/tensorflow_lite/src/tensorflow/lite/micro/tools/make/downloads/cmsis/CMSIS/Core/Include\cmsis_gcc.h ****  */
 644:C:/Renesas/e2studio_2021_01_workspace_RZA2M_ANPR/ANPR_RZA2M_RDK/src/tensorflow_lite/src/tensorflow/lite/micro/tools/make/downloads/cmsis/CMSIS/Core/Include\cmsis_gcc.h **** __STATIC_FORCEINLINE void __set_FAULTMASK(uint32_t faultMask)
 645:C:/Renesas/e2studio_2021_01_workspace_RZA2M_ANPR/ANPR_RZA2M_RDK/src/tensorflow_lite/src/tensorflow/lite/micro/tools/make/downloads/cmsis/CMSIS/Core/Include\cmsis_gcc.h **** {
 646:C:/Renesas/e2studio_2021_01_workspace_RZA2M_ANPR/ANPR_RZA2M_RDK/src/tensorflow_lite/src/tensorflow/lite/micro/tools/make/downloads/cmsis/CMSIS/Core/Include\cmsis_gcc.h ****   __ASM volatile ("MSR faultmask, %0" : : "r" (faultMask) : "memory");
 647:C:/Renesas/e2studio_2021_01_workspace_RZA2M_ANPR/ANPR_RZA2M_RDK/src/tensorflow_lite/src/tensorflow/lite/micro/tools/make/downloads/cmsis/CMSIS/Core/Include\cmsis_gcc.h **** }
 648:C:/Renesas/e2studio_2021_01_workspace_RZA2M_ANPR/ANPR_RZA2M_RDK/src/tensorflow_lite/src/tensorflow/lite/micro/tools/make/downloads/cmsis/CMSIS/Core/Include\cmsis_gcc.h **** 
 649:C:/Renesas/e2studio_2021_01_workspace_RZA2M_ANPR/ANPR_RZA2M_RDK/src/tensorflow_lite/src/tensorflow/lite/micro/tools/make/downloads/cmsis/CMSIS/Core/Include\cmsis_gcc.h **** 
 650:C:/Renesas/e2studio_2021_01_workspace_RZA2M_ANPR/ANPR_RZA2M_RDK/src/tensorflow_lite/src/tensorflow/lite/micro/tools/make/downloads/cmsis/CMSIS/Core/Include\cmsis_gcc.h **** #if (defined (__ARM_FEATURE_CMSE ) && (__ARM_FEATURE_CMSE == 3))
 651:C:/Renesas/e2studio_2021_01_workspace_RZA2M_ANPR/ANPR_RZA2M_RDK/src/tensorflow_lite/src/tensorflow/lite/micro/tools/make/downloads/cmsis/CMSIS/Core/Include\cmsis_gcc.h **** /**
 652:C:/Renesas/e2studio_2021_01_workspace_RZA2M_ANPR/ANPR_RZA2M_RDK/src/tensorflow_lite/src/tensorflow/lite/micro/tools/make/downloads/cmsis/CMSIS/Core/Include\cmsis_gcc.h ****   \brief   Set Fault Mask (non-secure)
 653:C:/Renesas/e2studio_2021_01_workspace_RZA2M_ANPR/ANPR_RZA2M_RDK/src/tensorflow_lite/src/tensorflow/lite/micro/tools/make/downloads/cmsis/CMSIS/Core/Include\cmsis_gcc.h ****   \details Assigns the given value to the non-secure Fault Mask register when in secure state.
 654:C:/Renesas/e2studio_2021_01_workspace_RZA2M_ANPR/ANPR_RZA2M_RDK/src/tensorflow_lite/src/tensorflow/lite/micro/tools/make/downloads/cmsis/CMSIS/Core/Include\cmsis_gcc.h ****   \param [in]    faultMask  Fault Mask value to set
 655:C:/Renesas/e2studio_2021_01_workspace_RZA2M_ANPR/ANPR_RZA2M_RDK/src/tensorflow_lite/src/tensorflow/lite/micro/tools/make/downloads/cmsis/CMSIS/Core/Include\cmsis_gcc.h ****  */
 656:C:/Renesas/e2studio_2021_01_workspace_RZA2M_ANPR/ANPR_RZA2M_RDK/src/tensorflow_lite/src/tensorflow/lite/micro/tools/make/downloads/cmsis/CMSIS/Core/Include\cmsis_gcc.h **** __STATIC_FORCEINLINE void __TZ_set_FAULTMASK_NS(uint32_t faultMask)
 657:C:/Renesas/e2studio_2021_01_workspace_RZA2M_ANPR/ANPR_RZA2M_RDK/src/tensorflow_lite/src/tensorflow/lite/micro/tools/make/downloads/cmsis/CMSIS/Core/Include\cmsis_gcc.h **** {
 658:C:/Renesas/e2studio_2021_01_workspace_RZA2M_ANPR/ANPR_RZA2M_RDK/src/tensorflow_lite/src/tensorflow/lite/micro/tools/make/downloads/cmsis/CMSIS/Core/Include\cmsis_gcc.h ****   __ASM volatile ("MSR faultmask_ns, %0" : : "r" (faultMask) : "memory");
 659:C:/Renesas/e2studio_2021_01_workspace_RZA2M_ANPR/ANPR_RZA2M_RDK/src/tensorflow_lite/src/tensorflow/lite/micro/tools/make/downloads/cmsis/CMSIS/Core/Include\cmsis_gcc.h **** }
 660:C:/Renesas/e2studio_2021_01_workspace_RZA2M_ANPR/ANPR_RZA2M_RDK/src/tensorflow_lite/src/tensorflow/lite/micro/tools/make/downloads/cmsis/CMSIS/Core/Include\cmsis_gcc.h **** #endif
 661:C:/Renesas/e2studio_2021_01_workspace_RZA2M_ANPR/ANPR_RZA2M_RDK/src/tensorflow_lite/src/tensorflow/lite/micro/tools/make/downloads/cmsis/CMSIS/Core/Include\cmsis_gcc.h **** 
 662:C:/Renesas/e2studio_2021_01_workspace_RZA2M_ANPR/ANPR_RZA2M_RDK/src/tensorflow_lite/src/tensorflow/lite/micro/tools/make/downloads/cmsis/CMSIS/Core/Include\cmsis_gcc.h **** #endif /* ((defined (__ARM_ARCH_7M__      ) && (__ARM_ARCH_7M__      == 1)) || \
 663:C:/Renesas/e2studio_2021_01_workspace_RZA2M_ANPR/ANPR_RZA2M_RDK/src/tensorflow_lite/src/tensorflow/lite/micro/tools/make/downloads/cmsis/CMSIS/Core/Include\cmsis_gcc.h ****            (defined (__ARM_ARCH_7EM__     ) && (__ARM_ARCH_7EM__     == 1)) || \
 664:C:/Renesas/e2studio_2021_01_workspace_RZA2M_ANPR/ANPR_RZA2M_RDK/src/tensorflow_lite/src/tensorflow/lite/micro/tools/make/downloads/cmsis/CMSIS/Core/Include\cmsis_gcc.h ****            (defined (__ARM_ARCH_8M_MAIN__ ) && (__ARM_ARCH_8M_MAIN__ == 1))    ) */
 665:C:/Renesas/e2studio_2021_01_workspace_RZA2M_ANPR/ANPR_RZA2M_RDK/src/tensorflow_lite/src/tensorflow/lite/micro/tools/make/downloads/cmsis/CMSIS/Core/Include\cmsis_gcc.h **** 
 666:C:/Renesas/e2studio_2021_01_workspace_RZA2M_ANPR/ANPR_RZA2M_RDK/src/tensorflow_lite/src/tensorflow/lite/micro/tools/make/downloads/cmsis/CMSIS/Core/Include\cmsis_gcc.h **** 
 667:C:/Renesas/e2studio_2021_01_workspace_RZA2M_ANPR/ANPR_RZA2M_RDK/src/tensorflow_lite/src/tensorflow/lite/micro/tools/make/downloads/cmsis/CMSIS/Core/Include\cmsis_gcc.h **** #if ((defined (__ARM_ARCH_8M_MAIN__ ) && (__ARM_ARCH_8M_MAIN__ == 1)) || \
 668:C:/Renesas/e2studio_2021_01_workspace_RZA2M_ANPR/ANPR_RZA2M_RDK/src/tensorflow_lite/src/tensorflow/lite/micro/tools/make/downloads/cmsis/CMSIS/Core/Include\cmsis_gcc.h ****      (defined (__ARM_ARCH_8M_BASE__ ) && (__ARM_ARCH_8M_BASE__ == 1))    )
 669:C:/Renesas/e2studio_2021_01_workspace_RZA2M_ANPR/ANPR_RZA2M_RDK/src/tensorflow_lite/src/tensorflow/lite/micro/tools/make/downloads/cmsis/CMSIS/Core/Include\cmsis_gcc.h **** 
 670:C:/Renesas/e2studio_2021_01_workspace_RZA2M_ANPR/ANPR_RZA2M_RDK/src/tensorflow_lite/src/tensorflow/lite/micro/tools/make/downloads/cmsis/CMSIS/Core/Include\cmsis_gcc.h **** /**
 671:C:/Renesas/e2studio_2021_01_workspace_RZA2M_ANPR/ANPR_RZA2M_RDK/src/tensorflow_lite/src/tensorflow/lite/micro/tools/make/downloads/cmsis/CMSIS/Core/Include\cmsis_gcc.h ****   \brief   Get Process Stack Pointer Limit
 672:C:/Renesas/e2studio_2021_01_workspace_RZA2M_ANPR/ANPR_RZA2M_RDK/src/tensorflow_lite/src/tensorflow/lite/micro/tools/make/downloads/cmsis/CMSIS/Core/Include\cmsis_gcc.h ****   Devices without ARMv8-M Main Extensions (i.e. Cortex-M23) lack the non-secure
 673:C:/Renesas/e2studio_2021_01_workspace_RZA2M_ANPR/ANPR_RZA2M_RDK/src/tensorflow_lite/src/tensorflow/lite/micro/tools/make/downloads/cmsis/CMSIS/Core/Include\cmsis_gcc.h ****   Stack Pointer Limit register hence zero is returned always in non-secure
 674:C:/Renesas/e2studio_2021_01_workspace_RZA2M_ANPR/ANPR_RZA2M_RDK/src/tensorflow_lite/src/tensorflow/lite/micro/tools/make/downloads/cmsis/CMSIS/Core/Include\cmsis_gcc.h ****   mode.
 675:C:/Renesas/e2studio_2021_01_workspace_RZA2M_ANPR/ANPR_RZA2M_RDK/src/tensorflow_lite/src/tensorflow/lite/micro/tools/make/downloads/cmsis/CMSIS/Core/Include\cmsis_gcc.h **** 
 676:C:/Renesas/e2studio_2021_01_workspace_RZA2M_ANPR/ANPR_RZA2M_RDK/src/tensorflow_lite/src/tensorflow/lite/micro/tools/make/downloads/cmsis/CMSIS/Core/Include\cmsis_gcc.h ****   \details Returns the current value of the Process Stack Pointer Limit (PSPLIM).
 677:C:/Renesas/e2studio_2021_01_workspace_RZA2M_ANPR/ANPR_RZA2M_RDK/src/tensorflow_lite/src/tensorflow/lite/micro/tools/make/downloads/cmsis/CMSIS/Core/Include\cmsis_gcc.h ****   \return               PSPLIM Register value
 678:C:/Renesas/e2studio_2021_01_workspace_RZA2M_ANPR/ANPR_RZA2M_RDK/src/tensorflow_lite/src/tensorflow/lite/micro/tools/make/downloads/cmsis/CMSIS/Core/Include\cmsis_gcc.h ****  */
 679:C:/Renesas/e2studio_2021_01_workspace_RZA2M_ANPR/ANPR_RZA2M_RDK/src/tensorflow_lite/src/tensorflow/lite/micro/tools/make/downloads/cmsis/CMSIS/Core/Include\cmsis_gcc.h **** __STATIC_FORCEINLINE uint32_t __get_PSPLIM(void)
 680:C:/Renesas/e2studio_2021_01_workspace_RZA2M_ANPR/ANPR_RZA2M_RDK/src/tensorflow_lite/src/tensorflow/lite/micro/tools/make/downloads/cmsis/CMSIS/Core/Include\cmsis_gcc.h **** {
 681:C:/Renesas/e2studio_2021_01_workspace_RZA2M_ANPR/ANPR_RZA2M_RDK/src/tensorflow_lite/src/tensorflow/lite/micro/tools/make/downloads/cmsis/CMSIS/Core/Include\cmsis_gcc.h **** #if (!(defined (__ARM_ARCH_8M_MAIN__ ) && (__ARM_ARCH_8M_MAIN__ == 1)) && \
 682:C:/Renesas/e2studio_2021_01_workspace_RZA2M_ANPR/ANPR_RZA2M_RDK/src/tensorflow_lite/src/tensorflow/lite/micro/tools/make/downloads/cmsis/CMSIS/Core/Include\cmsis_gcc.h ****     (!defined (__ARM_FEATURE_CMSE) || (__ARM_FEATURE_CMSE < 3)))
 683:C:/Renesas/e2studio_2021_01_workspace_RZA2M_ANPR/ANPR_RZA2M_RDK/src/tensorflow_lite/src/tensorflow/lite/micro/tools/make/downloads/cmsis/CMSIS/Core/Include\cmsis_gcc.h ****     // without main extensions, the non-secure PSPLIM is RAZ/WI
 684:C:/Renesas/e2studio_2021_01_workspace_RZA2M_ANPR/ANPR_RZA2M_RDK/src/tensorflow_lite/src/tensorflow/lite/micro/tools/make/downloads/cmsis/CMSIS/Core/Include\cmsis_gcc.h ****   return 0U;
 685:C:/Renesas/e2studio_2021_01_workspace_RZA2M_ANPR/ANPR_RZA2M_RDK/src/tensorflow_lite/src/tensorflow/lite/micro/tools/make/downloads/cmsis/CMSIS/Core/Include\cmsis_gcc.h **** #else
 686:C:/Renesas/e2studio_2021_01_workspace_RZA2M_ANPR/ANPR_RZA2M_RDK/src/tensorflow_lite/src/tensorflow/lite/micro/tools/make/downloads/cmsis/CMSIS/Core/Include\cmsis_gcc.h ****   uint32_t result;
 687:C:/Renesas/e2studio_2021_01_workspace_RZA2M_ANPR/ANPR_RZA2M_RDK/src/tensorflow_lite/src/tensorflow/lite/micro/tools/make/downloads/cmsis/CMSIS/Core/Include\cmsis_gcc.h ****   __ASM volatile ("MRS %0, psplim"  : "=r" (result) );
 688:C:/Renesas/e2studio_2021_01_workspace_RZA2M_ANPR/ANPR_RZA2M_RDK/src/tensorflow_lite/src/tensorflow/lite/micro/tools/make/downloads/cmsis/CMSIS/Core/Include\cmsis_gcc.h ****   return result;
 689:C:/Renesas/e2studio_2021_01_workspace_RZA2M_ANPR/ANPR_RZA2M_RDK/src/tensorflow_lite/src/tensorflow/lite/micro/tools/make/downloads/cmsis/CMSIS/Core/Include\cmsis_gcc.h **** #endif
 690:C:/Renesas/e2studio_2021_01_workspace_RZA2M_ANPR/ANPR_RZA2M_RDK/src/tensorflow_lite/src/tensorflow/lite/micro/tools/make/downloads/cmsis/CMSIS/Core/Include\cmsis_gcc.h **** }
 691:C:/Renesas/e2studio_2021_01_workspace_RZA2M_ANPR/ANPR_RZA2M_RDK/src/tensorflow_lite/src/tensorflow/lite/micro/tools/make/downloads/cmsis/CMSIS/Core/Include\cmsis_gcc.h **** 
 692:C:/Renesas/e2studio_2021_01_workspace_RZA2M_ANPR/ANPR_RZA2M_RDK/src/tensorflow_lite/src/tensorflow/lite/micro/tools/make/downloads/cmsis/CMSIS/Core/Include\cmsis_gcc.h **** #if (defined (__ARM_FEATURE_CMSE) && (__ARM_FEATURE_CMSE == 3))
 693:C:/Renesas/e2studio_2021_01_workspace_RZA2M_ANPR/ANPR_RZA2M_RDK/src/tensorflow_lite/src/tensorflow/lite/micro/tools/make/downloads/cmsis/CMSIS/Core/Include\cmsis_gcc.h **** /**
 694:C:/Renesas/e2studio_2021_01_workspace_RZA2M_ANPR/ANPR_RZA2M_RDK/src/tensorflow_lite/src/tensorflow/lite/micro/tools/make/downloads/cmsis/CMSIS/Core/Include\cmsis_gcc.h ****   \brief   Get Process Stack Pointer Limit (non-secure)
 695:C:/Renesas/e2studio_2021_01_workspace_RZA2M_ANPR/ANPR_RZA2M_RDK/src/tensorflow_lite/src/tensorflow/lite/micro/tools/make/downloads/cmsis/CMSIS/Core/Include\cmsis_gcc.h ****   Devices without ARMv8-M Main Extensions (i.e. Cortex-M23) lack the non-secure
 696:C:/Renesas/e2studio_2021_01_workspace_RZA2M_ANPR/ANPR_RZA2M_RDK/src/tensorflow_lite/src/tensorflow/lite/micro/tools/make/downloads/cmsis/CMSIS/Core/Include\cmsis_gcc.h ****   Stack Pointer Limit register hence zero is returned always.
 697:C:/Renesas/e2studio_2021_01_workspace_RZA2M_ANPR/ANPR_RZA2M_RDK/src/tensorflow_lite/src/tensorflow/lite/micro/tools/make/downloads/cmsis/CMSIS/Core/Include\cmsis_gcc.h **** 
 698:C:/Renesas/e2studio_2021_01_workspace_RZA2M_ANPR/ANPR_RZA2M_RDK/src/tensorflow_lite/src/tensorflow/lite/micro/tools/make/downloads/cmsis/CMSIS/Core/Include\cmsis_gcc.h ****   \details Returns the current value of the non-secure Process Stack Pointer Limit (PSPLIM) when in
 699:C:/Renesas/e2studio_2021_01_workspace_RZA2M_ANPR/ANPR_RZA2M_RDK/src/tensorflow_lite/src/tensorflow/lite/micro/tools/make/downloads/cmsis/CMSIS/Core/Include\cmsis_gcc.h ****   \return               PSPLIM Register value
 700:C:/Renesas/e2studio_2021_01_workspace_RZA2M_ANPR/ANPR_RZA2M_RDK/src/tensorflow_lite/src/tensorflow/lite/micro/tools/make/downloads/cmsis/CMSIS/Core/Include\cmsis_gcc.h ****  */
 701:C:/Renesas/e2studio_2021_01_workspace_RZA2M_ANPR/ANPR_RZA2M_RDK/src/tensorflow_lite/src/tensorflow/lite/micro/tools/make/downloads/cmsis/CMSIS/Core/Include\cmsis_gcc.h **** __STATIC_FORCEINLINE uint32_t __TZ_get_PSPLIM_NS(void)
 702:C:/Renesas/e2studio_2021_01_workspace_RZA2M_ANPR/ANPR_RZA2M_RDK/src/tensorflow_lite/src/tensorflow/lite/micro/tools/make/downloads/cmsis/CMSIS/Core/Include\cmsis_gcc.h **** {
 703:C:/Renesas/e2studio_2021_01_workspace_RZA2M_ANPR/ANPR_RZA2M_RDK/src/tensorflow_lite/src/tensorflow/lite/micro/tools/make/downloads/cmsis/CMSIS/Core/Include\cmsis_gcc.h **** #if (!(defined (__ARM_ARCH_8M_MAIN__ ) && (__ARM_ARCH_8M_MAIN__ == 1)))
 704:C:/Renesas/e2studio_2021_01_workspace_RZA2M_ANPR/ANPR_RZA2M_RDK/src/tensorflow_lite/src/tensorflow/lite/micro/tools/make/downloads/cmsis/CMSIS/Core/Include\cmsis_gcc.h ****   // without main extensions, the non-secure PSPLIM is RAZ/WI
 705:C:/Renesas/e2studio_2021_01_workspace_RZA2M_ANPR/ANPR_RZA2M_RDK/src/tensorflow_lite/src/tensorflow/lite/micro/tools/make/downloads/cmsis/CMSIS/Core/Include\cmsis_gcc.h ****   return 0U;
 706:C:/Renesas/e2studio_2021_01_workspace_RZA2M_ANPR/ANPR_RZA2M_RDK/src/tensorflow_lite/src/tensorflow/lite/micro/tools/make/downloads/cmsis/CMSIS/Core/Include\cmsis_gcc.h **** #else
 707:C:/Renesas/e2studio_2021_01_workspace_RZA2M_ANPR/ANPR_RZA2M_RDK/src/tensorflow_lite/src/tensorflow/lite/micro/tools/make/downloads/cmsis/CMSIS/Core/Include\cmsis_gcc.h ****   uint32_t result;
 708:C:/Renesas/e2studio_2021_01_workspace_RZA2M_ANPR/ANPR_RZA2M_RDK/src/tensorflow_lite/src/tensorflow/lite/micro/tools/make/downloads/cmsis/CMSIS/Core/Include\cmsis_gcc.h ****   __ASM volatile ("MRS %0, psplim_ns"  : "=r" (result) );
 709:C:/Renesas/e2studio_2021_01_workspace_RZA2M_ANPR/ANPR_RZA2M_RDK/src/tensorflow_lite/src/tensorflow/lite/micro/tools/make/downloads/cmsis/CMSIS/Core/Include\cmsis_gcc.h ****   return result;
 710:C:/Renesas/e2studio_2021_01_workspace_RZA2M_ANPR/ANPR_RZA2M_RDK/src/tensorflow_lite/src/tensorflow/lite/micro/tools/make/downloads/cmsis/CMSIS/Core/Include\cmsis_gcc.h **** #endif
 711:C:/Renesas/e2studio_2021_01_workspace_RZA2M_ANPR/ANPR_RZA2M_RDK/src/tensorflow_lite/src/tensorflow/lite/micro/tools/make/downloads/cmsis/CMSIS/Core/Include\cmsis_gcc.h **** }
 712:C:/Renesas/e2studio_2021_01_workspace_RZA2M_ANPR/ANPR_RZA2M_RDK/src/tensorflow_lite/src/tensorflow/lite/micro/tools/make/downloads/cmsis/CMSIS/Core/Include\cmsis_gcc.h **** #endif
 713:C:/Renesas/e2studio_2021_01_workspace_RZA2M_ANPR/ANPR_RZA2M_RDK/src/tensorflow_lite/src/tensorflow/lite/micro/tools/make/downloads/cmsis/CMSIS/Core/Include\cmsis_gcc.h **** 
 714:C:/Renesas/e2studio_2021_01_workspace_RZA2M_ANPR/ANPR_RZA2M_RDK/src/tensorflow_lite/src/tensorflow/lite/micro/tools/make/downloads/cmsis/CMSIS/Core/Include\cmsis_gcc.h **** 
 715:C:/Renesas/e2studio_2021_01_workspace_RZA2M_ANPR/ANPR_RZA2M_RDK/src/tensorflow_lite/src/tensorflow/lite/micro/tools/make/downloads/cmsis/CMSIS/Core/Include\cmsis_gcc.h **** /**
 716:C:/Renesas/e2studio_2021_01_workspace_RZA2M_ANPR/ANPR_RZA2M_RDK/src/tensorflow_lite/src/tensorflow/lite/micro/tools/make/downloads/cmsis/CMSIS/Core/Include\cmsis_gcc.h ****   \brief   Set Process Stack Pointer Limit
 717:C:/Renesas/e2studio_2021_01_workspace_RZA2M_ANPR/ANPR_RZA2M_RDK/src/tensorflow_lite/src/tensorflow/lite/micro/tools/make/downloads/cmsis/CMSIS/Core/Include\cmsis_gcc.h ****   Devices without ARMv8-M Main Extensions (i.e. Cortex-M23) lack the non-secure
 718:C:/Renesas/e2studio_2021_01_workspace_RZA2M_ANPR/ANPR_RZA2M_RDK/src/tensorflow_lite/src/tensorflow/lite/micro/tools/make/downloads/cmsis/CMSIS/Core/Include\cmsis_gcc.h ****   Stack Pointer Limit register hence the write is silently ignored in non-secure
 719:C:/Renesas/e2studio_2021_01_workspace_RZA2M_ANPR/ANPR_RZA2M_RDK/src/tensorflow_lite/src/tensorflow/lite/micro/tools/make/downloads/cmsis/CMSIS/Core/Include\cmsis_gcc.h ****   mode.
 720:C:/Renesas/e2studio_2021_01_workspace_RZA2M_ANPR/ANPR_RZA2M_RDK/src/tensorflow_lite/src/tensorflow/lite/micro/tools/make/downloads/cmsis/CMSIS/Core/Include\cmsis_gcc.h **** 
 721:C:/Renesas/e2studio_2021_01_workspace_RZA2M_ANPR/ANPR_RZA2M_RDK/src/tensorflow_lite/src/tensorflow/lite/micro/tools/make/downloads/cmsis/CMSIS/Core/Include\cmsis_gcc.h ****   \details Assigns the given value to the Process Stack Pointer Limit (PSPLIM).
 722:C:/Renesas/e2studio_2021_01_workspace_RZA2M_ANPR/ANPR_RZA2M_RDK/src/tensorflow_lite/src/tensorflow/lite/micro/tools/make/downloads/cmsis/CMSIS/Core/Include\cmsis_gcc.h ****   \param [in]    ProcStackPtrLimit  Process Stack Pointer Limit value to set
 723:C:/Renesas/e2studio_2021_01_workspace_RZA2M_ANPR/ANPR_RZA2M_RDK/src/tensorflow_lite/src/tensorflow/lite/micro/tools/make/downloads/cmsis/CMSIS/Core/Include\cmsis_gcc.h ****  */
 724:C:/Renesas/e2studio_2021_01_workspace_RZA2M_ANPR/ANPR_RZA2M_RDK/src/tensorflow_lite/src/tensorflow/lite/micro/tools/make/downloads/cmsis/CMSIS/Core/Include\cmsis_gcc.h **** __STATIC_FORCEINLINE void __set_PSPLIM(uint32_t ProcStackPtrLimit)
 725:C:/Renesas/e2studio_2021_01_workspace_RZA2M_ANPR/ANPR_RZA2M_RDK/src/tensorflow_lite/src/tensorflow/lite/micro/tools/make/downloads/cmsis/CMSIS/Core/Include\cmsis_gcc.h **** {
 726:C:/Renesas/e2studio_2021_01_workspace_RZA2M_ANPR/ANPR_RZA2M_RDK/src/tensorflow_lite/src/tensorflow/lite/micro/tools/make/downloads/cmsis/CMSIS/Core/Include\cmsis_gcc.h **** #if (!(defined (__ARM_ARCH_8M_MAIN__ ) && (__ARM_ARCH_8M_MAIN__ == 1)) && \
 727:C:/Renesas/e2studio_2021_01_workspace_RZA2M_ANPR/ANPR_RZA2M_RDK/src/tensorflow_lite/src/tensorflow/lite/micro/tools/make/downloads/cmsis/CMSIS/Core/Include\cmsis_gcc.h ****     (!defined (__ARM_FEATURE_CMSE) || (__ARM_FEATURE_CMSE < 3)))
 728:C:/Renesas/e2studio_2021_01_workspace_RZA2M_ANPR/ANPR_RZA2M_RDK/src/tensorflow_lite/src/tensorflow/lite/micro/tools/make/downloads/cmsis/CMSIS/Core/Include\cmsis_gcc.h ****   // without main extensions, the non-secure PSPLIM is RAZ/WI
 729:C:/Renesas/e2studio_2021_01_workspace_RZA2M_ANPR/ANPR_RZA2M_RDK/src/tensorflow_lite/src/tensorflow/lite/micro/tools/make/downloads/cmsis/CMSIS/Core/Include\cmsis_gcc.h ****   (void)ProcStackPtrLimit;
 730:C:/Renesas/e2studio_2021_01_workspace_RZA2M_ANPR/ANPR_RZA2M_RDK/src/tensorflow_lite/src/tensorflow/lite/micro/tools/make/downloads/cmsis/CMSIS/Core/Include\cmsis_gcc.h **** #else
 731:C:/Renesas/e2studio_2021_01_workspace_RZA2M_ANPR/ANPR_RZA2M_RDK/src/tensorflow_lite/src/tensorflow/lite/micro/tools/make/downloads/cmsis/CMSIS/Core/Include\cmsis_gcc.h ****   __ASM volatile ("MSR psplim, %0" : : "r" (ProcStackPtrLimit));
 732:C:/Renesas/e2studio_2021_01_workspace_RZA2M_ANPR/ANPR_RZA2M_RDK/src/tensorflow_lite/src/tensorflow/lite/micro/tools/make/downloads/cmsis/CMSIS/Core/Include\cmsis_gcc.h **** #endif
 733:C:/Renesas/e2studio_2021_01_workspace_RZA2M_ANPR/ANPR_RZA2M_RDK/src/tensorflow_lite/src/tensorflow/lite/micro/tools/make/downloads/cmsis/CMSIS/Core/Include\cmsis_gcc.h **** }
 734:C:/Renesas/e2studio_2021_01_workspace_RZA2M_ANPR/ANPR_RZA2M_RDK/src/tensorflow_lite/src/tensorflow/lite/micro/tools/make/downloads/cmsis/CMSIS/Core/Include\cmsis_gcc.h **** 
 735:C:/Renesas/e2studio_2021_01_workspace_RZA2M_ANPR/ANPR_RZA2M_RDK/src/tensorflow_lite/src/tensorflow/lite/micro/tools/make/downloads/cmsis/CMSIS/Core/Include\cmsis_gcc.h **** 
 736:C:/Renesas/e2studio_2021_01_workspace_RZA2M_ANPR/ANPR_RZA2M_RDK/src/tensorflow_lite/src/tensorflow/lite/micro/tools/make/downloads/cmsis/CMSIS/Core/Include\cmsis_gcc.h **** #if (defined (__ARM_FEATURE_CMSE  ) && (__ARM_FEATURE_CMSE   == 3))
 737:C:/Renesas/e2studio_2021_01_workspace_RZA2M_ANPR/ANPR_RZA2M_RDK/src/tensorflow_lite/src/tensorflow/lite/micro/tools/make/downloads/cmsis/CMSIS/Core/Include\cmsis_gcc.h **** /**
 738:C:/Renesas/e2studio_2021_01_workspace_RZA2M_ANPR/ANPR_RZA2M_RDK/src/tensorflow_lite/src/tensorflow/lite/micro/tools/make/downloads/cmsis/CMSIS/Core/Include\cmsis_gcc.h ****   \brief   Set Process Stack Pointer (non-secure)
 739:C:/Renesas/e2studio_2021_01_workspace_RZA2M_ANPR/ANPR_RZA2M_RDK/src/tensorflow_lite/src/tensorflow/lite/micro/tools/make/downloads/cmsis/CMSIS/Core/Include\cmsis_gcc.h ****   Devices without ARMv8-M Main Extensions (i.e. Cortex-M23) lack the non-secure
 740:C:/Renesas/e2studio_2021_01_workspace_RZA2M_ANPR/ANPR_RZA2M_RDK/src/tensorflow_lite/src/tensorflow/lite/micro/tools/make/downloads/cmsis/CMSIS/Core/Include\cmsis_gcc.h ****   Stack Pointer Limit register hence the write is silently ignored.
 741:C:/Renesas/e2studio_2021_01_workspace_RZA2M_ANPR/ANPR_RZA2M_RDK/src/tensorflow_lite/src/tensorflow/lite/micro/tools/make/downloads/cmsis/CMSIS/Core/Include\cmsis_gcc.h **** 
 742:C:/Renesas/e2studio_2021_01_workspace_RZA2M_ANPR/ANPR_RZA2M_RDK/src/tensorflow_lite/src/tensorflow/lite/micro/tools/make/downloads/cmsis/CMSIS/Core/Include\cmsis_gcc.h ****   \details Assigns the given value to the non-secure Process Stack Pointer Limit (PSPLIM) when in s
 743:C:/Renesas/e2studio_2021_01_workspace_RZA2M_ANPR/ANPR_RZA2M_RDK/src/tensorflow_lite/src/tensorflow/lite/micro/tools/make/downloads/cmsis/CMSIS/Core/Include\cmsis_gcc.h ****   \param [in]    ProcStackPtrLimit  Process Stack Pointer Limit value to set
 744:C:/Renesas/e2studio_2021_01_workspace_RZA2M_ANPR/ANPR_RZA2M_RDK/src/tensorflow_lite/src/tensorflow/lite/micro/tools/make/downloads/cmsis/CMSIS/Core/Include\cmsis_gcc.h ****  */
 745:C:/Renesas/e2studio_2021_01_workspace_RZA2M_ANPR/ANPR_RZA2M_RDK/src/tensorflow_lite/src/tensorflow/lite/micro/tools/make/downloads/cmsis/CMSIS/Core/Include\cmsis_gcc.h **** __STATIC_FORCEINLINE void __TZ_set_PSPLIM_NS(uint32_t ProcStackPtrLimit)
 746:C:/Renesas/e2studio_2021_01_workspace_RZA2M_ANPR/ANPR_RZA2M_RDK/src/tensorflow_lite/src/tensorflow/lite/micro/tools/make/downloads/cmsis/CMSIS/Core/Include\cmsis_gcc.h **** {
 747:C:/Renesas/e2studio_2021_01_workspace_RZA2M_ANPR/ANPR_RZA2M_RDK/src/tensorflow_lite/src/tensorflow/lite/micro/tools/make/downloads/cmsis/CMSIS/Core/Include\cmsis_gcc.h **** #if (!(defined (__ARM_ARCH_8M_MAIN__ ) && (__ARM_ARCH_8M_MAIN__ == 1)))
 748:C:/Renesas/e2studio_2021_01_workspace_RZA2M_ANPR/ANPR_RZA2M_RDK/src/tensorflow_lite/src/tensorflow/lite/micro/tools/make/downloads/cmsis/CMSIS/Core/Include\cmsis_gcc.h ****   // without main extensions, the non-secure PSPLIM is RAZ/WI
 749:C:/Renesas/e2studio_2021_01_workspace_RZA2M_ANPR/ANPR_RZA2M_RDK/src/tensorflow_lite/src/tensorflow/lite/micro/tools/make/downloads/cmsis/CMSIS/Core/Include\cmsis_gcc.h ****   (void)ProcStackPtrLimit;
 750:C:/Renesas/e2studio_2021_01_workspace_RZA2M_ANPR/ANPR_RZA2M_RDK/src/tensorflow_lite/src/tensorflow/lite/micro/tools/make/downloads/cmsis/CMSIS/Core/Include\cmsis_gcc.h **** #else
 751:C:/Renesas/e2studio_2021_01_workspace_RZA2M_ANPR/ANPR_RZA2M_RDK/src/tensorflow_lite/src/tensorflow/lite/micro/tools/make/downloads/cmsis/CMSIS/Core/Include\cmsis_gcc.h ****   __ASM volatile ("MSR psplim_ns, %0\n" : : "r" (ProcStackPtrLimit));
 752:C:/Renesas/e2studio_2021_01_workspace_RZA2M_ANPR/ANPR_RZA2M_RDK/src/tensorflow_lite/src/tensorflow/lite/micro/tools/make/downloads/cmsis/CMSIS/Core/Include\cmsis_gcc.h **** #endif
 753:C:/Renesas/e2studio_2021_01_workspace_RZA2M_ANPR/ANPR_RZA2M_RDK/src/tensorflow_lite/src/tensorflow/lite/micro/tools/make/downloads/cmsis/CMSIS/Core/Include\cmsis_gcc.h **** }
 754:C:/Renesas/e2studio_2021_01_workspace_RZA2M_ANPR/ANPR_RZA2M_RDK/src/tensorflow_lite/src/tensorflow/lite/micro/tools/make/downloads/cmsis/CMSIS/Core/Include\cmsis_gcc.h **** #endif
 755:C:/Renesas/e2studio_2021_01_workspace_RZA2M_ANPR/ANPR_RZA2M_RDK/src/tensorflow_lite/src/tensorflow/lite/micro/tools/make/downloads/cmsis/CMSIS/Core/Include\cmsis_gcc.h **** 
 756:C:/Renesas/e2studio_2021_01_workspace_RZA2M_ANPR/ANPR_RZA2M_RDK/src/tensorflow_lite/src/tensorflow/lite/micro/tools/make/downloads/cmsis/CMSIS/Core/Include\cmsis_gcc.h **** 
 757:C:/Renesas/e2studio_2021_01_workspace_RZA2M_ANPR/ANPR_RZA2M_RDK/src/tensorflow_lite/src/tensorflow/lite/micro/tools/make/downloads/cmsis/CMSIS/Core/Include\cmsis_gcc.h **** /**
 758:C:/Renesas/e2studio_2021_01_workspace_RZA2M_ANPR/ANPR_RZA2M_RDK/src/tensorflow_lite/src/tensorflow/lite/micro/tools/make/downloads/cmsis/CMSIS/Core/Include\cmsis_gcc.h ****   \brief   Get Main Stack Pointer Limit
 759:C:/Renesas/e2studio_2021_01_workspace_RZA2M_ANPR/ANPR_RZA2M_RDK/src/tensorflow_lite/src/tensorflow/lite/micro/tools/make/downloads/cmsis/CMSIS/Core/Include\cmsis_gcc.h ****   Devices without ARMv8-M Main Extensions (i.e. Cortex-M23) lack the non-secure
 760:C:/Renesas/e2studio_2021_01_workspace_RZA2M_ANPR/ANPR_RZA2M_RDK/src/tensorflow_lite/src/tensorflow/lite/micro/tools/make/downloads/cmsis/CMSIS/Core/Include\cmsis_gcc.h ****   Stack Pointer Limit register hence zero is returned always in non-secure
 761:C:/Renesas/e2studio_2021_01_workspace_RZA2M_ANPR/ANPR_RZA2M_RDK/src/tensorflow_lite/src/tensorflow/lite/micro/tools/make/downloads/cmsis/CMSIS/Core/Include\cmsis_gcc.h ****   mode.
 762:C:/Renesas/e2studio_2021_01_workspace_RZA2M_ANPR/ANPR_RZA2M_RDK/src/tensorflow_lite/src/tensorflow/lite/micro/tools/make/downloads/cmsis/CMSIS/Core/Include\cmsis_gcc.h **** 
 763:C:/Renesas/e2studio_2021_01_workspace_RZA2M_ANPR/ANPR_RZA2M_RDK/src/tensorflow_lite/src/tensorflow/lite/micro/tools/make/downloads/cmsis/CMSIS/Core/Include\cmsis_gcc.h ****   \details Returns the current value of the Main Stack Pointer Limit (MSPLIM).
 764:C:/Renesas/e2studio_2021_01_workspace_RZA2M_ANPR/ANPR_RZA2M_RDK/src/tensorflow_lite/src/tensorflow/lite/micro/tools/make/downloads/cmsis/CMSIS/Core/Include\cmsis_gcc.h ****   \return               MSPLIM Register value
 765:C:/Renesas/e2studio_2021_01_workspace_RZA2M_ANPR/ANPR_RZA2M_RDK/src/tensorflow_lite/src/tensorflow/lite/micro/tools/make/downloads/cmsis/CMSIS/Core/Include\cmsis_gcc.h ****  */
 766:C:/Renesas/e2studio_2021_01_workspace_RZA2M_ANPR/ANPR_RZA2M_RDK/src/tensorflow_lite/src/tensorflow/lite/micro/tools/make/downloads/cmsis/CMSIS/Core/Include\cmsis_gcc.h **** __STATIC_FORCEINLINE uint32_t __get_MSPLIM(void)
 767:C:/Renesas/e2studio_2021_01_workspace_RZA2M_ANPR/ANPR_RZA2M_RDK/src/tensorflow_lite/src/tensorflow/lite/micro/tools/make/downloads/cmsis/CMSIS/Core/Include\cmsis_gcc.h **** {
 768:C:/Renesas/e2studio_2021_01_workspace_RZA2M_ANPR/ANPR_RZA2M_RDK/src/tensorflow_lite/src/tensorflow/lite/micro/tools/make/downloads/cmsis/CMSIS/Core/Include\cmsis_gcc.h **** #if (!(defined (__ARM_ARCH_8M_MAIN__ ) && (__ARM_ARCH_8M_MAIN__ == 1)) && \
 769:C:/Renesas/e2studio_2021_01_workspace_RZA2M_ANPR/ANPR_RZA2M_RDK/src/tensorflow_lite/src/tensorflow/lite/micro/tools/make/downloads/cmsis/CMSIS/Core/Include\cmsis_gcc.h ****     (!defined (__ARM_FEATURE_CMSE) || (__ARM_FEATURE_CMSE < 3)))
 770:C:/Renesas/e2studio_2021_01_workspace_RZA2M_ANPR/ANPR_RZA2M_RDK/src/tensorflow_lite/src/tensorflow/lite/micro/tools/make/downloads/cmsis/CMSIS/Core/Include\cmsis_gcc.h ****   // without main extensions, the non-secure MSPLIM is RAZ/WI
 771:C:/Renesas/e2studio_2021_01_workspace_RZA2M_ANPR/ANPR_RZA2M_RDK/src/tensorflow_lite/src/tensorflow/lite/micro/tools/make/downloads/cmsis/CMSIS/Core/Include\cmsis_gcc.h ****   return 0U;
 772:C:/Renesas/e2studio_2021_01_workspace_RZA2M_ANPR/ANPR_RZA2M_RDK/src/tensorflow_lite/src/tensorflow/lite/micro/tools/make/downloads/cmsis/CMSIS/Core/Include\cmsis_gcc.h **** #else
 773:C:/Renesas/e2studio_2021_01_workspace_RZA2M_ANPR/ANPR_RZA2M_RDK/src/tensorflow_lite/src/tensorflow/lite/micro/tools/make/downloads/cmsis/CMSIS/Core/Include\cmsis_gcc.h ****   uint32_t result;
 774:C:/Renesas/e2studio_2021_01_workspace_RZA2M_ANPR/ANPR_RZA2M_RDK/src/tensorflow_lite/src/tensorflow/lite/micro/tools/make/downloads/cmsis/CMSIS/Core/Include\cmsis_gcc.h ****   __ASM volatile ("MRS %0, msplim" : "=r" (result) );
 775:C:/Renesas/e2studio_2021_01_workspace_RZA2M_ANPR/ANPR_RZA2M_RDK/src/tensorflow_lite/src/tensorflow/lite/micro/tools/make/downloads/cmsis/CMSIS/Core/Include\cmsis_gcc.h ****   return result;
 776:C:/Renesas/e2studio_2021_01_workspace_RZA2M_ANPR/ANPR_RZA2M_RDK/src/tensorflow_lite/src/tensorflow/lite/micro/tools/make/downloads/cmsis/CMSIS/Core/Include\cmsis_gcc.h **** #endif
 777:C:/Renesas/e2studio_2021_01_workspace_RZA2M_ANPR/ANPR_RZA2M_RDK/src/tensorflow_lite/src/tensorflow/lite/micro/tools/make/downloads/cmsis/CMSIS/Core/Include\cmsis_gcc.h **** }
 778:C:/Renesas/e2studio_2021_01_workspace_RZA2M_ANPR/ANPR_RZA2M_RDK/src/tensorflow_lite/src/tensorflow/lite/micro/tools/make/downloads/cmsis/CMSIS/Core/Include\cmsis_gcc.h **** 
 779:C:/Renesas/e2studio_2021_01_workspace_RZA2M_ANPR/ANPR_RZA2M_RDK/src/tensorflow_lite/src/tensorflow/lite/micro/tools/make/downloads/cmsis/CMSIS/Core/Include\cmsis_gcc.h **** 
 780:C:/Renesas/e2studio_2021_01_workspace_RZA2M_ANPR/ANPR_RZA2M_RDK/src/tensorflow_lite/src/tensorflow/lite/micro/tools/make/downloads/cmsis/CMSIS/Core/Include\cmsis_gcc.h **** #if (defined (__ARM_FEATURE_CMSE  ) && (__ARM_FEATURE_CMSE   == 3))
 781:C:/Renesas/e2studio_2021_01_workspace_RZA2M_ANPR/ANPR_RZA2M_RDK/src/tensorflow_lite/src/tensorflow/lite/micro/tools/make/downloads/cmsis/CMSIS/Core/Include\cmsis_gcc.h **** /**
 782:C:/Renesas/e2studio_2021_01_workspace_RZA2M_ANPR/ANPR_RZA2M_RDK/src/tensorflow_lite/src/tensorflow/lite/micro/tools/make/downloads/cmsis/CMSIS/Core/Include\cmsis_gcc.h ****   \brief   Get Main Stack Pointer Limit (non-secure)
 783:C:/Renesas/e2studio_2021_01_workspace_RZA2M_ANPR/ANPR_RZA2M_RDK/src/tensorflow_lite/src/tensorflow/lite/micro/tools/make/downloads/cmsis/CMSIS/Core/Include\cmsis_gcc.h ****   Devices without ARMv8-M Main Extensions (i.e. Cortex-M23) lack the non-secure
 784:C:/Renesas/e2studio_2021_01_workspace_RZA2M_ANPR/ANPR_RZA2M_RDK/src/tensorflow_lite/src/tensorflow/lite/micro/tools/make/downloads/cmsis/CMSIS/Core/Include\cmsis_gcc.h ****   Stack Pointer Limit register hence zero is returned always.
 785:C:/Renesas/e2studio_2021_01_workspace_RZA2M_ANPR/ANPR_RZA2M_RDK/src/tensorflow_lite/src/tensorflow/lite/micro/tools/make/downloads/cmsis/CMSIS/Core/Include\cmsis_gcc.h **** 
 786:C:/Renesas/e2studio_2021_01_workspace_RZA2M_ANPR/ANPR_RZA2M_RDK/src/tensorflow_lite/src/tensorflow/lite/micro/tools/make/downloads/cmsis/CMSIS/Core/Include\cmsis_gcc.h ****   \details Returns the current value of the non-secure Main Stack Pointer Limit(MSPLIM) when in sec
 787:C:/Renesas/e2studio_2021_01_workspace_RZA2M_ANPR/ANPR_RZA2M_RDK/src/tensorflow_lite/src/tensorflow/lite/micro/tools/make/downloads/cmsis/CMSIS/Core/Include\cmsis_gcc.h ****   \return               MSPLIM Register value
 788:C:/Renesas/e2studio_2021_01_workspace_RZA2M_ANPR/ANPR_RZA2M_RDK/src/tensorflow_lite/src/tensorflow/lite/micro/tools/make/downloads/cmsis/CMSIS/Core/Include\cmsis_gcc.h ****  */
 789:C:/Renesas/e2studio_2021_01_workspace_RZA2M_ANPR/ANPR_RZA2M_RDK/src/tensorflow_lite/src/tensorflow/lite/micro/tools/make/downloads/cmsis/CMSIS/Core/Include\cmsis_gcc.h **** __STATIC_FORCEINLINE uint32_t __TZ_get_MSPLIM_NS(void)
 790:C:/Renesas/e2studio_2021_01_workspace_RZA2M_ANPR/ANPR_RZA2M_RDK/src/tensorflow_lite/src/tensorflow/lite/micro/tools/make/downloads/cmsis/CMSIS/Core/Include\cmsis_gcc.h **** {
 791:C:/Renesas/e2studio_2021_01_workspace_RZA2M_ANPR/ANPR_RZA2M_RDK/src/tensorflow_lite/src/tensorflow/lite/micro/tools/make/downloads/cmsis/CMSIS/Core/Include\cmsis_gcc.h **** #if (!(defined (__ARM_ARCH_8M_MAIN__ ) && (__ARM_ARCH_8M_MAIN__ == 1)))
 792:C:/Renesas/e2studio_2021_01_workspace_RZA2M_ANPR/ANPR_RZA2M_RDK/src/tensorflow_lite/src/tensorflow/lite/micro/tools/make/downloads/cmsis/CMSIS/Core/Include\cmsis_gcc.h ****   // without main extensions, the non-secure MSPLIM is RAZ/WI
 793:C:/Renesas/e2studio_2021_01_workspace_RZA2M_ANPR/ANPR_RZA2M_RDK/src/tensorflow_lite/src/tensorflow/lite/micro/tools/make/downloads/cmsis/CMSIS/Core/Include\cmsis_gcc.h ****   return 0U;
 794:C:/Renesas/e2studio_2021_01_workspace_RZA2M_ANPR/ANPR_RZA2M_RDK/src/tensorflow_lite/src/tensorflow/lite/micro/tools/make/downloads/cmsis/CMSIS/Core/Include\cmsis_gcc.h **** #else
 795:C:/Renesas/e2studio_2021_01_workspace_RZA2M_ANPR/ANPR_RZA2M_RDK/src/tensorflow_lite/src/tensorflow/lite/micro/tools/make/downloads/cmsis/CMSIS/Core/Include\cmsis_gcc.h ****   uint32_t result;
 796:C:/Renesas/e2studio_2021_01_workspace_RZA2M_ANPR/ANPR_RZA2M_RDK/src/tensorflow_lite/src/tensorflow/lite/micro/tools/make/downloads/cmsis/CMSIS/Core/Include\cmsis_gcc.h ****   __ASM volatile ("MRS %0, msplim_ns" : "=r" (result) );
 797:C:/Renesas/e2studio_2021_01_workspace_RZA2M_ANPR/ANPR_RZA2M_RDK/src/tensorflow_lite/src/tensorflow/lite/micro/tools/make/downloads/cmsis/CMSIS/Core/Include\cmsis_gcc.h ****   return result;
 798:C:/Renesas/e2studio_2021_01_workspace_RZA2M_ANPR/ANPR_RZA2M_RDK/src/tensorflow_lite/src/tensorflow/lite/micro/tools/make/downloads/cmsis/CMSIS/Core/Include\cmsis_gcc.h **** #endif
 799:C:/Renesas/e2studio_2021_01_workspace_RZA2M_ANPR/ANPR_RZA2M_RDK/src/tensorflow_lite/src/tensorflow/lite/micro/tools/make/downloads/cmsis/CMSIS/Core/Include\cmsis_gcc.h **** }
 800:C:/Renesas/e2studio_2021_01_workspace_RZA2M_ANPR/ANPR_RZA2M_RDK/src/tensorflow_lite/src/tensorflow/lite/micro/tools/make/downloads/cmsis/CMSIS/Core/Include\cmsis_gcc.h **** #endif
 801:C:/Renesas/e2studio_2021_01_workspace_RZA2M_ANPR/ANPR_RZA2M_RDK/src/tensorflow_lite/src/tensorflow/lite/micro/tools/make/downloads/cmsis/CMSIS/Core/Include\cmsis_gcc.h **** 
 802:C:/Renesas/e2studio_2021_01_workspace_RZA2M_ANPR/ANPR_RZA2M_RDK/src/tensorflow_lite/src/tensorflow/lite/micro/tools/make/downloads/cmsis/CMSIS/Core/Include\cmsis_gcc.h **** 
 803:C:/Renesas/e2studio_2021_01_workspace_RZA2M_ANPR/ANPR_RZA2M_RDK/src/tensorflow_lite/src/tensorflow/lite/micro/tools/make/downloads/cmsis/CMSIS/Core/Include\cmsis_gcc.h **** /**
 804:C:/Renesas/e2studio_2021_01_workspace_RZA2M_ANPR/ANPR_RZA2M_RDK/src/tensorflow_lite/src/tensorflow/lite/micro/tools/make/downloads/cmsis/CMSIS/Core/Include\cmsis_gcc.h ****   \brief   Set Main Stack Pointer Limit
 805:C:/Renesas/e2studio_2021_01_workspace_RZA2M_ANPR/ANPR_RZA2M_RDK/src/tensorflow_lite/src/tensorflow/lite/micro/tools/make/downloads/cmsis/CMSIS/Core/Include\cmsis_gcc.h ****   Devices without ARMv8-M Main Extensions (i.e. Cortex-M23) lack the non-secure
 806:C:/Renesas/e2studio_2021_01_workspace_RZA2M_ANPR/ANPR_RZA2M_RDK/src/tensorflow_lite/src/tensorflow/lite/micro/tools/make/downloads/cmsis/CMSIS/Core/Include\cmsis_gcc.h ****   Stack Pointer Limit register hence the write is silently ignored in non-secure
 807:C:/Renesas/e2studio_2021_01_workspace_RZA2M_ANPR/ANPR_RZA2M_RDK/src/tensorflow_lite/src/tensorflow/lite/micro/tools/make/downloads/cmsis/CMSIS/Core/Include\cmsis_gcc.h ****   mode.
 808:C:/Renesas/e2studio_2021_01_workspace_RZA2M_ANPR/ANPR_RZA2M_RDK/src/tensorflow_lite/src/tensorflow/lite/micro/tools/make/downloads/cmsis/CMSIS/Core/Include\cmsis_gcc.h **** 
 809:C:/Renesas/e2studio_2021_01_workspace_RZA2M_ANPR/ANPR_RZA2M_RDK/src/tensorflow_lite/src/tensorflow/lite/micro/tools/make/downloads/cmsis/CMSIS/Core/Include\cmsis_gcc.h ****   \details Assigns the given value to the Main Stack Pointer Limit (MSPLIM).
 810:C:/Renesas/e2studio_2021_01_workspace_RZA2M_ANPR/ANPR_RZA2M_RDK/src/tensorflow_lite/src/tensorflow/lite/micro/tools/make/downloads/cmsis/CMSIS/Core/Include\cmsis_gcc.h ****   \param [in]    MainStackPtrLimit  Main Stack Pointer Limit value to set
 811:C:/Renesas/e2studio_2021_01_workspace_RZA2M_ANPR/ANPR_RZA2M_RDK/src/tensorflow_lite/src/tensorflow/lite/micro/tools/make/downloads/cmsis/CMSIS/Core/Include\cmsis_gcc.h ****  */
 812:C:/Renesas/e2studio_2021_01_workspace_RZA2M_ANPR/ANPR_RZA2M_RDK/src/tensorflow_lite/src/tensorflow/lite/micro/tools/make/downloads/cmsis/CMSIS/Core/Include\cmsis_gcc.h **** __STATIC_FORCEINLINE void __set_MSPLIM(uint32_t MainStackPtrLimit)
 813:C:/Renesas/e2studio_2021_01_workspace_RZA2M_ANPR/ANPR_RZA2M_RDK/src/tensorflow_lite/src/tensorflow/lite/micro/tools/make/downloads/cmsis/CMSIS/Core/Include\cmsis_gcc.h **** {
 814:C:/Renesas/e2studio_2021_01_workspace_RZA2M_ANPR/ANPR_RZA2M_RDK/src/tensorflow_lite/src/tensorflow/lite/micro/tools/make/downloads/cmsis/CMSIS/Core/Include\cmsis_gcc.h **** #if (!(defined (__ARM_ARCH_8M_MAIN__ ) && (__ARM_ARCH_8M_MAIN__ == 1)) && \
 815:C:/Renesas/e2studio_2021_01_workspace_RZA2M_ANPR/ANPR_RZA2M_RDK/src/tensorflow_lite/src/tensorflow/lite/micro/tools/make/downloads/cmsis/CMSIS/Core/Include\cmsis_gcc.h ****     (!defined (__ARM_FEATURE_CMSE) || (__ARM_FEATURE_CMSE < 3)))
 816:C:/Renesas/e2studio_2021_01_workspace_RZA2M_ANPR/ANPR_RZA2M_RDK/src/tensorflow_lite/src/tensorflow/lite/micro/tools/make/downloads/cmsis/CMSIS/Core/Include\cmsis_gcc.h ****   // without main extensions, the non-secure MSPLIM is RAZ/WI
 817:C:/Renesas/e2studio_2021_01_workspace_RZA2M_ANPR/ANPR_RZA2M_RDK/src/tensorflow_lite/src/tensorflow/lite/micro/tools/make/downloads/cmsis/CMSIS/Core/Include\cmsis_gcc.h ****   (void)MainStackPtrLimit;
 818:C:/Renesas/e2studio_2021_01_workspace_RZA2M_ANPR/ANPR_RZA2M_RDK/src/tensorflow_lite/src/tensorflow/lite/micro/tools/make/downloads/cmsis/CMSIS/Core/Include\cmsis_gcc.h **** #else
 819:C:/Renesas/e2studio_2021_01_workspace_RZA2M_ANPR/ANPR_RZA2M_RDK/src/tensorflow_lite/src/tensorflow/lite/micro/tools/make/downloads/cmsis/CMSIS/Core/Include\cmsis_gcc.h ****   __ASM volatile ("MSR msplim, %0" : : "r" (MainStackPtrLimit));
 820:C:/Renesas/e2studio_2021_01_workspace_RZA2M_ANPR/ANPR_RZA2M_RDK/src/tensorflow_lite/src/tensorflow/lite/micro/tools/make/downloads/cmsis/CMSIS/Core/Include\cmsis_gcc.h **** #endif
 821:C:/Renesas/e2studio_2021_01_workspace_RZA2M_ANPR/ANPR_RZA2M_RDK/src/tensorflow_lite/src/tensorflow/lite/micro/tools/make/downloads/cmsis/CMSIS/Core/Include\cmsis_gcc.h **** }
 822:C:/Renesas/e2studio_2021_01_workspace_RZA2M_ANPR/ANPR_RZA2M_RDK/src/tensorflow_lite/src/tensorflow/lite/micro/tools/make/downloads/cmsis/CMSIS/Core/Include\cmsis_gcc.h **** 
 823:C:/Renesas/e2studio_2021_01_workspace_RZA2M_ANPR/ANPR_RZA2M_RDK/src/tensorflow_lite/src/tensorflow/lite/micro/tools/make/downloads/cmsis/CMSIS/Core/Include\cmsis_gcc.h **** 
 824:C:/Renesas/e2studio_2021_01_workspace_RZA2M_ANPR/ANPR_RZA2M_RDK/src/tensorflow_lite/src/tensorflow/lite/micro/tools/make/downloads/cmsis/CMSIS/Core/Include\cmsis_gcc.h **** #if (defined (__ARM_FEATURE_CMSE  ) && (__ARM_FEATURE_CMSE   == 3))
 825:C:/Renesas/e2studio_2021_01_workspace_RZA2M_ANPR/ANPR_RZA2M_RDK/src/tensorflow_lite/src/tensorflow/lite/micro/tools/make/downloads/cmsis/CMSIS/Core/Include\cmsis_gcc.h **** /**
 826:C:/Renesas/e2studio_2021_01_workspace_RZA2M_ANPR/ANPR_RZA2M_RDK/src/tensorflow_lite/src/tensorflow/lite/micro/tools/make/downloads/cmsis/CMSIS/Core/Include\cmsis_gcc.h ****   \brief   Set Main Stack Pointer Limit (non-secure)
 827:C:/Renesas/e2studio_2021_01_workspace_RZA2M_ANPR/ANPR_RZA2M_RDK/src/tensorflow_lite/src/tensorflow/lite/micro/tools/make/downloads/cmsis/CMSIS/Core/Include\cmsis_gcc.h ****   Devices without ARMv8-M Main Extensions (i.e. Cortex-M23) lack the non-secure
 828:C:/Renesas/e2studio_2021_01_workspace_RZA2M_ANPR/ANPR_RZA2M_RDK/src/tensorflow_lite/src/tensorflow/lite/micro/tools/make/downloads/cmsis/CMSIS/Core/Include\cmsis_gcc.h ****   Stack Pointer Limit register hence the write is silently ignored.
 829:C:/Renesas/e2studio_2021_01_workspace_RZA2M_ANPR/ANPR_RZA2M_RDK/src/tensorflow_lite/src/tensorflow/lite/micro/tools/make/downloads/cmsis/CMSIS/Core/Include\cmsis_gcc.h **** 
 830:C:/Renesas/e2studio_2021_01_workspace_RZA2M_ANPR/ANPR_RZA2M_RDK/src/tensorflow_lite/src/tensorflow/lite/micro/tools/make/downloads/cmsis/CMSIS/Core/Include\cmsis_gcc.h ****   \details Assigns the given value to the non-secure Main Stack Pointer Limit (MSPLIM) when in secu
 831:C:/Renesas/e2studio_2021_01_workspace_RZA2M_ANPR/ANPR_RZA2M_RDK/src/tensorflow_lite/src/tensorflow/lite/micro/tools/make/downloads/cmsis/CMSIS/Core/Include\cmsis_gcc.h ****   \param [in]    MainStackPtrLimit  Main Stack Pointer value to set
 832:C:/Renesas/e2studio_2021_01_workspace_RZA2M_ANPR/ANPR_RZA2M_RDK/src/tensorflow_lite/src/tensorflow/lite/micro/tools/make/downloads/cmsis/CMSIS/Core/Include\cmsis_gcc.h ****  */
 833:C:/Renesas/e2studio_2021_01_workspace_RZA2M_ANPR/ANPR_RZA2M_RDK/src/tensorflow_lite/src/tensorflow/lite/micro/tools/make/downloads/cmsis/CMSIS/Core/Include\cmsis_gcc.h **** __STATIC_FORCEINLINE void __TZ_set_MSPLIM_NS(uint32_t MainStackPtrLimit)
 834:C:/Renesas/e2studio_2021_01_workspace_RZA2M_ANPR/ANPR_RZA2M_RDK/src/tensorflow_lite/src/tensorflow/lite/micro/tools/make/downloads/cmsis/CMSIS/Core/Include\cmsis_gcc.h **** {
 835:C:/Renesas/e2studio_2021_01_workspace_RZA2M_ANPR/ANPR_RZA2M_RDK/src/tensorflow_lite/src/tensorflow/lite/micro/tools/make/downloads/cmsis/CMSIS/Core/Include\cmsis_gcc.h **** #if (!(defined (__ARM_ARCH_8M_MAIN__ ) && (__ARM_ARCH_8M_MAIN__ == 1)))
 836:C:/Renesas/e2studio_2021_01_workspace_RZA2M_ANPR/ANPR_RZA2M_RDK/src/tensorflow_lite/src/tensorflow/lite/micro/tools/make/downloads/cmsis/CMSIS/Core/Include\cmsis_gcc.h ****   // without main extensions, the non-secure MSPLIM is RAZ/WI
 837:C:/Renesas/e2studio_2021_01_workspace_RZA2M_ANPR/ANPR_RZA2M_RDK/src/tensorflow_lite/src/tensorflow/lite/micro/tools/make/downloads/cmsis/CMSIS/Core/Include\cmsis_gcc.h ****   (void)MainStackPtrLimit;
 838:C:/Renesas/e2studio_2021_01_workspace_RZA2M_ANPR/ANPR_RZA2M_RDK/src/tensorflow_lite/src/tensorflow/lite/micro/tools/make/downloads/cmsis/CMSIS/Core/Include\cmsis_gcc.h **** #else
 839:C:/Renesas/e2studio_2021_01_workspace_RZA2M_ANPR/ANPR_RZA2M_RDK/src/tensorflow_lite/src/tensorflow/lite/micro/tools/make/downloads/cmsis/CMSIS/Core/Include\cmsis_gcc.h ****   __ASM volatile ("MSR msplim_ns, %0" : : "r" (MainStackPtrLimit));
 840:C:/Renesas/e2studio_2021_01_workspace_RZA2M_ANPR/ANPR_RZA2M_RDK/src/tensorflow_lite/src/tensorflow/lite/micro/tools/make/downloads/cmsis/CMSIS/Core/Include\cmsis_gcc.h **** #endif
 841:C:/Renesas/e2studio_2021_01_workspace_RZA2M_ANPR/ANPR_RZA2M_RDK/src/tensorflow_lite/src/tensorflow/lite/micro/tools/make/downloads/cmsis/CMSIS/Core/Include\cmsis_gcc.h **** }
 842:C:/Renesas/e2studio_2021_01_workspace_RZA2M_ANPR/ANPR_RZA2M_RDK/src/tensorflow_lite/src/tensorflow/lite/micro/tools/make/downloads/cmsis/CMSIS/Core/Include\cmsis_gcc.h **** #endif
 843:C:/Renesas/e2studio_2021_01_workspace_RZA2M_ANPR/ANPR_RZA2M_RDK/src/tensorflow_lite/src/tensorflow/lite/micro/tools/make/downloads/cmsis/CMSIS/Core/Include\cmsis_gcc.h **** 
 844:C:/Renesas/e2studio_2021_01_workspace_RZA2M_ANPR/ANPR_RZA2M_RDK/src/tensorflow_lite/src/tensorflow/lite/micro/tools/make/downloads/cmsis/CMSIS/Core/Include\cmsis_gcc.h **** #endif /* ((defined (__ARM_ARCH_8M_MAIN__ ) && (__ARM_ARCH_8M_MAIN__ == 1)) || \
 845:C:/Renesas/e2studio_2021_01_workspace_RZA2M_ANPR/ANPR_RZA2M_RDK/src/tensorflow_lite/src/tensorflow/lite/micro/tools/make/downloads/cmsis/CMSIS/Core/Include\cmsis_gcc.h ****            (defined (__ARM_ARCH_8M_BASE__ ) && (__ARM_ARCH_8M_BASE__ == 1))    ) */
 846:C:/Renesas/e2studio_2021_01_workspace_RZA2M_ANPR/ANPR_RZA2M_RDK/src/tensorflow_lite/src/tensorflow/lite/micro/tools/make/downloads/cmsis/CMSIS/Core/Include\cmsis_gcc.h **** 
 847:C:/Renesas/e2studio_2021_01_workspace_RZA2M_ANPR/ANPR_RZA2M_RDK/src/tensorflow_lite/src/tensorflow/lite/micro/tools/make/downloads/cmsis/CMSIS/Core/Include\cmsis_gcc.h **** 
 848:C:/Renesas/e2studio_2021_01_workspace_RZA2M_ANPR/ANPR_RZA2M_RDK/src/tensorflow_lite/src/tensorflow/lite/micro/tools/make/downloads/cmsis/CMSIS/Core/Include\cmsis_gcc.h **** /**
 849:C:/Renesas/e2studio_2021_01_workspace_RZA2M_ANPR/ANPR_RZA2M_RDK/src/tensorflow_lite/src/tensorflow/lite/micro/tools/make/downloads/cmsis/CMSIS/Core/Include\cmsis_gcc.h ****   \brief   Get FPSCR
 850:C:/Renesas/e2studio_2021_01_workspace_RZA2M_ANPR/ANPR_RZA2M_RDK/src/tensorflow_lite/src/tensorflow/lite/micro/tools/make/downloads/cmsis/CMSIS/Core/Include\cmsis_gcc.h ****   \details Returns the current value of the Floating Point Status/Control register.
 851:C:/Renesas/e2studio_2021_01_workspace_RZA2M_ANPR/ANPR_RZA2M_RDK/src/tensorflow_lite/src/tensorflow/lite/micro/tools/make/downloads/cmsis/CMSIS/Core/Include\cmsis_gcc.h ****   \return               Floating Point Status/Control register value
 852:C:/Renesas/e2studio_2021_01_workspace_RZA2M_ANPR/ANPR_RZA2M_RDK/src/tensorflow_lite/src/tensorflow/lite/micro/tools/make/downloads/cmsis/CMSIS/Core/Include\cmsis_gcc.h ****  */
 853:C:/Renesas/e2studio_2021_01_workspace_RZA2M_ANPR/ANPR_RZA2M_RDK/src/tensorflow_lite/src/tensorflow/lite/micro/tools/make/downloads/cmsis/CMSIS/Core/Include\cmsis_gcc.h **** __STATIC_FORCEINLINE uint32_t __get_FPSCR(void)
 854:C:/Renesas/e2studio_2021_01_workspace_RZA2M_ANPR/ANPR_RZA2M_RDK/src/tensorflow_lite/src/tensorflow/lite/micro/tools/make/downloads/cmsis/CMSIS/Core/Include\cmsis_gcc.h **** {
 855:C:/Renesas/e2studio_2021_01_workspace_RZA2M_ANPR/ANPR_RZA2M_RDK/src/tensorflow_lite/src/tensorflow/lite/micro/tools/make/downloads/cmsis/CMSIS/Core/Include\cmsis_gcc.h **** #if ((defined (__FPU_PRESENT) && (__FPU_PRESENT == 1U)) && \
 856:C:/Renesas/e2studio_2021_01_workspace_RZA2M_ANPR/ANPR_RZA2M_RDK/src/tensorflow_lite/src/tensorflow/lite/micro/tools/make/downloads/cmsis/CMSIS/Core/Include\cmsis_gcc.h ****      (defined (__FPU_USED   ) && (__FPU_USED    == 1U))     )
 857:C:/Renesas/e2studio_2021_01_workspace_RZA2M_ANPR/ANPR_RZA2M_RDK/src/tensorflow_lite/src/tensorflow/lite/micro/tools/make/downloads/cmsis/CMSIS/Core/Include\cmsis_gcc.h **** #if __has_builtin(__builtin_arm_get_fpscr)
 858:C:/Renesas/e2studio_2021_01_workspace_RZA2M_ANPR/ANPR_RZA2M_RDK/src/tensorflow_lite/src/tensorflow/lite/micro/tools/make/downloads/cmsis/CMSIS/Core/Include\cmsis_gcc.h **** // Re-enable using built-in when GCC has been fixed
 859:C:/Renesas/e2studio_2021_01_workspace_RZA2M_ANPR/ANPR_RZA2M_RDK/src/tensorflow_lite/src/tensorflow/lite/micro/tools/make/downloads/cmsis/CMSIS/Core/Include\cmsis_gcc.h **** // || (__GNUC__ > 7) || (__GNUC__ == 7 && __GNUC_MINOR__ >= 2)
 860:C:/Renesas/e2studio_2021_01_workspace_RZA2M_ANPR/ANPR_RZA2M_RDK/src/tensorflow_lite/src/tensorflow/lite/micro/tools/make/downloads/cmsis/CMSIS/Core/Include\cmsis_gcc.h ****   /* see https://gcc.gnu.org/ml/gcc-patches/2017-04/msg00443.html */
 861:C:/Renesas/e2studio_2021_01_workspace_RZA2M_ANPR/ANPR_RZA2M_RDK/src/tensorflow_lite/src/tensorflow/lite/micro/tools/make/downloads/cmsis/CMSIS/Core/Include\cmsis_gcc.h ****   return __builtin_arm_get_fpscr();
 862:C:/Renesas/e2studio_2021_01_workspace_RZA2M_ANPR/ANPR_RZA2M_RDK/src/tensorflow_lite/src/tensorflow/lite/micro/tools/make/downloads/cmsis/CMSIS/Core/Include\cmsis_gcc.h **** #else
 863:C:/Renesas/e2studio_2021_01_workspace_RZA2M_ANPR/ANPR_RZA2M_RDK/src/tensorflow_lite/src/tensorflow/lite/micro/tools/make/downloads/cmsis/CMSIS/Core/Include\cmsis_gcc.h ****   uint32_t result;
 864:C:/Renesas/e2studio_2021_01_workspace_RZA2M_ANPR/ANPR_RZA2M_RDK/src/tensorflow_lite/src/tensorflow/lite/micro/tools/make/downloads/cmsis/CMSIS/Core/Include\cmsis_gcc.h **** 
 865:C:/Renesas/e2studio_2021_01_workspace_RZA2M_ANPR/ANPR_RZA2M_RDK/src/tensorflow_lite/src/tensorflow/lite/micro/tools/make/downloads/cmsis/CMSIS/Core/Include\cmsis_gcc.h ****   __ASM volatile ("VMRS %0, fpscr" : "=r" (result) );
 866:C:/Renesas/e2studio_2021_01_workspace_RZA2M_ANPR/ANPR_RZA2M_RDK/src/tensorflow_lite/src/tensorflow/lite/micro/tools/make/downloads/cmsis/CMSIS/Core/Include\cmsis_gcc.h ****   return(result);
 867:C:/Renesas/e2studio_2021_01_workspace_RZA2M_ANPR/ANPR_RZA2M_RDK/src/tensorflow_lite/src/tensorflow/lite/micro/tools/make/downloads/cmsis/CMSIS/Core/Include\cmsis_gcc.h **** #endif
 868:C:/Renesas/e2studio_2021_01_workspace_RZA2M_ANPR/ANPR_RZA2M_RDK/src/tensorflow_lite/src/tensorflow/lite/micro/tools/make/downloads/cmsis/CMSIS/Core/Include\cmsis_gcc.h **** #else
 869:C:/Renesas/e2studio_2021_01_workspace_RZA2M_ANPR/ANPR_RZA2M_RDK/src/tensorflow_lite/src/tensorflow/lite/micro/tools/make/downloads/cmsis/CMSIS/Core/Include\cmsis_gcc.h ****   return(0U);
 870:C:/Renesas/e2studio_2021_01_workspace_RZA2M_ANPR/ANPR_RZA2M_RDK/src/tensorflow_lite/src/tensorflow/lite/micro/tools/make/downloads/cmsis/CMSIS/Core/Include\cmsis_gcc.h **** #endif
 871:C:/Renesas/e2studio_2021_01_workspace_RZA2M_ANPR/ANPR_RZA2M_RDK/src/tensorflow_lite/src/tensorflow/lite/micro/tools/make/downloads/cmsis/CMSIS/Core/Include\cmsis_gcc.h **** }
 872:C:/Renesas/e2studio_2021_01_workspace_RZA2M_ANPR/ANPR_RZA2M_RDK/src/tensorflow_lite/src/tensorflow/lite/micro/tools/make/downloads/cmsis/CMSIS/Core/Include\cmsis_gcc.h **** 
 873:C:/Renesas/e2studio_2021_01_workspace_RZA2M_ANPR/ANPR_RZA2M_RDK/src/tensorflow_lite/src/tensorflow/lite/micro/tools/make/downloads/cmsis/CMSIS/Core/Include\cmsis_gcc.h **** 
 874:C:/Renesas/e2studio_2021_01_workspace_RZA2M_ANPR/ANPR_RZA2M_RDK/src/tensorflow_lite/src/tensorflow/lite/micro/tools/make/downloads/cmsis/CMSIS/Core/Include\cmsis_gcc.h **** /**
 875:C:/Renesas/e2studio_2021_01_workspace_RZA2M_ANPR/ANPR_RZA2M_RDK/src/tensorflow_lite/src/tensorflow/lite/micro/tools/make/downloads/cmsis/CMSIS/Core/Include\cmsis_gcc.h ****   \brief   Set FPSCR
 876:C:/Renesas/e2studio_2021_01_workspace_RZA2M_ANPR/ANPR_RZA2M_RDK/src/tensorflow_lite/src/tensorflow/lite/micro/tools/make/downloads/cmsis/CMSIS/Core/Include\cmsis_gcc.h ****   \details Assigns the given value to the Floating Point Status/Control register.
 877:C:/Renesas/e2studio_2021_01_workspace_RZA2M_ANPR/ANPR_RZA2M_RDK/src/tensorflow_lite/src/tensorflow/lite/micro/tools/make/downloads/cmsis/CMSIS/Core/Include\cmsis_gcc.h ****   \param [in]    fpscr  Floating Point Status/Control value to set
 878:C:/Renesas/e2studio_2021_01_workspace_RZA2M_ANPR/ANPR_RZA2M_RDK/src/tensorflow_lite/src/tensorflow/lite/micro/tools/make/downloads/cmsis/CMSIS/Core/Include\cmsis_gcc.h ****  */
 879:C:/Renesas/e2studio_2021_01_workspace_RZA2M_ANPR/ANPR_RZA2M_RDK/src/tensorflow_lite/src/tensorflow/lite/micro/tools/make/downloads/cmsis/CMSIS/Core/Include\cmsis_gcc.h **** __STATIC_FORCEINLINE void __set_FPSCR(uint32_t fpscr)
 880:C:/Renesas/e2studio_2021_01_workspace_RZA2M_ANPR/ANPR_RZA2M_RDK/src/tensorflow_lite/src/tensorflow/lite/micro/tools/make/downloads/cmsis/CMSIS/Core/Include\cmsis_gcc.h **** {
