   1              		.cpu cortex-a9
   2              		.eabi_attribute 28, 1
   3              		.eabi_attribute 20, 1
   4              		.eabi_attribute 21, 1
   5              		.eabi_attribute 23, 3
   6              		.eabi_attribute 24, 1
   7              		.eabi_attribute 25, 1
   8              		.eabi_attribute 26, 1
   9              		.eabi_attribute 30, 4
  10              		.eabi_attribute 34, 0
  11              		.eabi_attribute 18, 4
  12              		.file	"flatbuffer_conversions.cpp"
  13              		.section	.text._ZN6tflite12_GLOBAL__N_124SafeBuiltinDataAllocator18BuiltinDataDeleterclEPv,"ax",%p
  14              		.align	2
  15              		.syntax unified
  16              		.arm
  17              		.fpu neon
  19              	_ZN6tflite12_GLOBAL__N_124SafeBuiltinDataAllocator18BuiltinDataDeleterclEPv:
  20              		.fnstart
  21              	.LFB6088:
  22              		@ args = 0, pretend = 0, frame = 0
  23              		@ frame_needed = 0, uses_anonymous_args = 0
  24              		@ link register save eliminated.
  25 0000 000090E5 		ldr	r0, [r0]
  26 0004 003090E5 		ldr	r3, [r0]
  27 0008 043093E5 		ldr	r3, [r3, #4]
  28 000c 13FF2FE1 		bx	r3	@ indirect register sibling call
  29              		.cantunwind
  30              		.fnend
  32              		.section	.text._ZNSt10unique_ptrI16TfLiteCastParamsN6tflite12_GLOBAL__N_124SafeBuiltinDataAllocato
  33              		.align	2
  34              		.syntax unified
  35              		.arm
  36              		.fpu neon
  38              	_ZNSt10unique_ptrI16TfLiteCastParamsN6tflite12_GLOBAL__N_124SafeBuiltinDataAllocator18BuiltinDataDe
  39              		.fnstart
  40              	.LFB7608:
  41              		@ args = 0, pretend = 0, frame = 0
  42              		@ frame_needed = 0, uses_anonymous_args = 0
  43 0000 041090E5 		ldr	r1, [r0, #4]
  44 0004 10402DE9 		push	{r4, lr}
  45              		.save {r4, lr}
  46 0008 0040A0E1 		mov	r4, r0
  47 000c 000051E3 		cmp	r1, #0
  48 0010 0000000A 		beq	.L3
  49 0014 FEFFFFEB 		bl	_ZN6tflite12_GLOBAL__N_124SafeBuiltinDataAllocator18BuiltinDataDeleterclEPv
  50              	.L3:
  51 0018 0400A0E1 		mov	r0, r4
  52 001c 1080BDE8 		pop	{r4, pc}
  53              		.global	__gxx_personality_v0
  54              		.personality	__gxx_personality_v0
  55              		.handlerdata
  56              	.LLSDA7608:
  57 0008 FF       		.byte	0xff
  58 0009 FF       		.byte	0xff
  59 000a 01       		.byte	0x1
  60 000b 00       		.uleb128 .LLSDACSE7608-.LLSDACSB7608
  61              	.LLSDACSB7608:
  62              	.LLSDACSE7608:
  63              		.section	.text._ZNSt10unique_ptrI16TfLiteCastParamsN6tflite12_GLOBAL__N_124SafeBuiltinDataAllocato
  64              		.fnend
  66              		.set	_ZNSt10unique_ptrI16TfLiteCastParamsN6tflite12_GLOBAL__N_124SafeBuiltinDataAllocator18Builtin
  67              		.section	.text._ZNSt10unique_ptrI26TfLiteFullyConnectedParamsN6tflite12_GLOBAL__N_124SafeBuiltinDa
  68              		.align	2
  69              		.syntax unified
  70              		.arm
  71              		.fpu neon
  73              	_ZNSt10unique_ptrI26TfLiteFullyConnectedParamsN6tflite12_GLOBAL__N_124SafeBuiltinDataAllocator18Bui
  74              		.fnstart
  75              	.LFB7851:
  76              		@ args = 0, pretend = 0, frame = 0
  77              		@ frame_needed = 0, uses_anonymous_args = 0
  78 0000 041090E5 		ldr	r1, [r0, #4]
  79 0004 10402DE9 		push	{r4, lr}
  80              		.save {r4, lr}
  81 0008 0040A0E1 		mov	r4, r0
  82 000c 000051E3 		cmp	r1, #0
  83 0010 0000000A 		beq	.L9
  84 0014 FEFFFFEB 		bl	_ZN6tflite12_GLOBAL__N_124SafeBuiltinDataAllocator18BuiltinDataDeleterclEPv
  85              	.L9:
  86 0018 0400A0E1 		mov	r0, r4
  87 001c 1080BDE8 		pop	{r4, pc}
  88              		.personality	__gxx_personality_v0
  89              		.handlerdata
  90              	.LLSDA7851:
  91 0008 FF       		.byte	0xff
  92 0009 FF       		.byte	0xff
  93 000a 01       		.byte	0x1
  94 000b 00       		.uleb128 .LLSDACSE7851-.LLSDACSB7851
  95              	.LLSDACSB7851:
  96              	.LLSDACSE7851:
  97              		.section	.text._ZNSt10unique_ptrI26TfLiteFullyConnectedParamsN6tflite12_GLOBAL__N_124SafeBuiltinDa
  98              		.fnend
 100              		.set	_ZNSt10unique_ptrI26TfLiteFullyConnectedParamsN6tflite12_GLOBAL__N_124SafeBuiltinDataAllocato
 101              		.section	.text._ZNSt10unique_ptrI16TfLiteLSTMParamsN6tflite12_GLOBAL__N_124SafeBuiltinDataAllocato
 102              		.align	2
 103              		.syntax unified
 104              		.arm
 105              		.fpu neon
 107              	_ZNSt10unique_ptrI16TfLiteLSTMParamsN6tflite12_GLOBAL__N_124SafeBuiltinDataAllocator18BuiltinDataDe
 108              		.fnstart
 109              	.LFB8094:
 110              		@ args = 0, pretend = 0, frame = 0
 111              		@ frame_needed = 0, uses_anonymous_args = 0
 112 0000 041090E5 		ldr	r1, [r0, #4]
 113 0004 10402DE9 		push	{r4, lr}
 114              		.save {r4, lr}
 115 0008 0040A0E1 		mov	r4, r0
 116 000c 000051E3 		cmp	r1, #0
 117 0010 0000000A 		beq	.L15
 118 0014 FEFFFFEB 		bl	_ZN6tflite12_GLOBAL__N_124SafeBuiltinDataAllocator18BuiltinDataDeleterclEPv
 119              	.L15:
 120 0018 0400A0E1 		mov	r0, r4
 121 001c 1080BDE8 		pop	{r4, pc}
 122              		.personality	__gxx_personality_v0
 123              		.handlerdata
 124              	.LLSDA8094:
 125 0008 FF       		.byte	0xff
 126 0009 FF       		.byte	0xff
 127 000a 01       		.byte	0x1
 128 000b 00       		.uleb128 .LLSDACSE8094-.LLSDACSB8094
 129              	.LLSDACSB8094:
 130              	.LLSDACSE8094:
 131              		.section	.text._ZNSt10unique_ptrI16TfLiteLSTMParamsN6tflite12_GLOBAL__N_124SafeBuiltinDataAllocato
 132              		.fnend
 134              		.set	_ZNSt10unique_ptrI16TfLiteLSTMParamsN6tflite12_GLOBAL__N_124SafeBuiltinDataAllocator18Builtin
 135              		.section	.text._ZNSt10unique_ptrI19TfLiteReshapeParamsN6tflite12_GLOBAL__N_124SafeBuiltinDataAlloc
 136              		.align	2
 137              		.syntax unified
 138              		.arm
 139              		.fpu neon
 141              	_ZNSt10unique_ptrI19TfLiteReshapeParamsN6tflite12_GLOBAL__N_124SafeBuiltinDataAllocator18BuiltinDat
 142              		.fnstart
 143              	.LFB8229:
 144              		@ args = 0, pretend = 0, frame = 0
 145              		@ frame_needed = 0, uses_anonymous_args = 0
 146 0000 041090E5 		ldr	r1, [r0, #4]
 147 0004 10402DE9 		push	{r4, lr}
 148              		.save {r4, lr}
 149 0008 0040A0E1 		mov	r4, r0
 150 000c 000051E3 		cmp	r1, #0
 151 0010 0000000A 		beq	.L21
 152 0014 FEFFFFEB 		bl	_ZN6tflite12_GLOBAL__N_124SafeBuiltinDataAllocator18BuiltinDataDeleterclEPv
 153              	.L21:
 154 0018 0400A0E1 		mov	r0, r4
 155 001c 1080BDE8 		pop	{r4, pc}
 156              		.personality	__gxx_personality_v0
 157              		.handlerdata
 158              	.LLSDA8229:
 159 0008 FF       		.byte	0xff
 160 0009 FF       		.byte	0xff
 161 000a 01       		.byte	0x1
 162 000b 00       		.uleb128 .LLSDACSE8229-.LLSDACSB8229
 163              	.LLSDACSB8229:
 164              	.LLSDACSE8229:
 165              		.section	.text._ZNSt10unique_ptrI19TfLiteReshapeParamsN6tflite12_GLOBAL__N_124SafeBuiltinDataAlloc
 166              		.fnend
 168              		.set	_ZNSt10unique_ptrI19TfLiteReshapeParamsN6tflite12_GLOBAL__N_124SafeBuiltinDataAllocator18Buil
 169              		.section	.text._ZNSt10unique_ptrI19TfLiteSqueezeParamsN6tflite12_GLOBAL__N_124SafeBuiltinDataAlloc
 170              		.align	2
 171              		.syntax unified
 172              		.arm
 173              		.fpu neon
 175              	_ZNSt10unique_ptrI19TfLiteSqueezeParamsN6tflite12_GLOBAL__N_124SafeBuiltinDataAllocator18BuiltinDat
 176              		.fnstart
 177              	.LFB8418:
 178              		@ args = 0, pretend = 0, frame = 0
 179              		@ frame_needed = 0, uses_anonymous_args = 0
 180 0000 041090E5 		ldr	r1, [r0, #4]
 181 0004 10402DE9 		push	{r4, lr}
 182              		.save {r4, lr}
 183 0008 0040A0E1 		mov	r4, r0
 184 000c 000051E3 		cmp	r1, #0
 185 0010 0000000A 		beq	.L27
 186 0014 FEFFFFEB 		bl	_ZN6tflite12_GLOBAL__N_124SafeBuiltinDataAllocator18BuiltinDataDeleterclEPv
 187              	.L27:
 188 0018 0400A0E1 		mov	r0, r4
 189 001c 1080BDE8 		pop	{r4, pc}
 190              		.personality	__gxx_personality_v0
 191              		.handlerdata
 192              	.LLSDA8418:
 193 0008 FF       		.byte	0xff
 194 0009 FF       		.byte	0xff
 195 000a 01       		.byte	0x1
 196 000b 00       		.uleb128 .LLSDACSE8418-.LLSDACSB8418
 197              	.LLSDACSB8418:
 198              	.LLSDACSE8418:
 199              		.section	.text._ZNSt10unique_ptrI19TfLiteSqueezeParamsN6tflite12_GLOBAL__N_124SafeBuiltinDataAlloc
 200              		.fnend
 202              		.set	_ZNSt10unique_ptrI19TfLiteSqueezeParamsN6tflite12_GLOBAL__N_124SafeBuiltinDataAllocator18Buil
 203              		.section	.text._ZZN6tflite11ParseOpDataEPKNS_8OperatorENS_15BuiltinOperatorEPNS_13ErrorReporterEPN
 204              		.align	2
 205              		.syntax unified
 206              		.arm
 207              		.fpu neon
 209              	_ZZN6tflite11ParseOpDataEPKNS_8OperatorENS_15BuiltinOperatorEPNS_13ErrorReporterEPNS_20BuiltinDataA
 210              		.fnstart
 211              	.LFB11577:
 212              		@ args = 0, pretend = 0, frame = 0
 213              		@ frame_needed = 0, uses_anonymous_args = 0
 214              		@ link register save eliminated.
 215 0000 000050E3 		cmp	r0, #0
 216 0004 0300000A 		beq	.L36
 217 0008 010050E3 		cmp	r0, #1
 218 000c 0200A003 		moveq	r0, #2
 219 0010 0000A013 		movne	r0, #0
 220 0014 1EFF2FE1 		bx	lr
 221              	.L36:
 222 0018 0100A0E3 		mov	r0, #1
 223 001c 1EFF2FE1 		bx	lr
 224              		.cantunwind
 225              		.fnend
 227              		.section	.text._ZZN6tflite11ParseOpDataEPKNS_8OperatorENS_15BuiltinOperatorEPNS_13ErrorReporterEPN
 228              		.align	2
 229              		.syntax unified
 230              		.arm
 231              		.fpu neon
 233              	_ZZN6tflite11ParseOpDataEPKNS_8OperatorENS_15BuiltinOperatorEPNS_13ErrorReporterEPNS_20BuiltinDataA
 234              		.fnstart
 235              	.LFB11578:
 236              		@ args = 0, pretend = 0, frame = 0
 237              		@ frame_needed = 0, uses_anonymous_args = 0
 238              		@ link register save eliminated.
 239 0000 010040E2 		sub	r0, r0, #1
 240 0004 7000EFE6 		uxtb	r0, r0
 241 0008 040050E3 		cmp	r0, #4
 242 000c 08309F95 		ldrls	r3, .L40
 243 0010 0000D397 		ldrbls	r0, [r3, r0]	@ zero_extendqisi2
 244 0014 0000A083 		movhi	r0, #0
 245 0018 1EFF2FE1 		bx	lr
 246              	.L41:
 247              		.align	2
 248              	.L40:
 249 001c 00000000 		.word	.LANCHOR0
 250              		.cantunwind
 251              		.fnend
 253              		.section	.text._ZN6tflite12_GLOBAL__N_126FlatBufferIntVectorToArrayEiPKN11flatbuffers6VectorIlEEPi
 254              		.align	2
 255              		.syntax unified
 256              		.arm
 257              		.fpu neon
 259              	_ZN6tflite12_GLOBAL__N_126FlatBufferIntVectorToArrayEiPKN11flatbuffers6VectorIlEEPiPNS_13ErrorRepor
 260              		.fnstart
 261              	.LFB11581:
 262              		@ args = 0, pretend = 0, frame = 0
 263              		@ frame_needed = 0, uses_anonymous_args = 0
 264 0000 000050E3 		cmp	r0, #0
 265 0004 10402DE9 		push	{r4, lr}
 266              		.save {r4, lr}
 267 0008 48109F05 		ldreq	r1, .L51
 268 000c 02E0A0E1 		mov	lr, r2
 269 0010 0320A0E1 		mov	r2, r3
 270 0014 0500000A 		beq	.L50
 271 0018 00C090E5 		ldr	ip, [r0]
 272 001c 08005CE3 		cmp	ip, #8
 273 0020 04104192 		subls	r1, r1, #4
 274 0024 0CC18090 		addls	ip, r0, ip, lsl #2
 275 0028 0400009A 		bls	.L46
 276 002c 28109FE5 		ldr	r1, .L51+4
 277              	.L50:
 278 0030 0E00A0E1 		mov	r0, lr
 279 0034 FEFFFFEB 		bl	_ZN6tflite13ErrorReporter6ReportEPKcz
 280 0038 0100A0E3 		mov	r0, #1
 281 003c 1080BDE8 		pop	{r4, pc}
 282              	.L46:
 283 0040 0C0050E1 		cmp	r0, ip
 284 0044 0430B015 		ldrne	r3, [r0, #4]!
 285 0048 0430A115 		strne	r3, [r1, #4]!
 286 004c FBFFFF1A 		bne	.L46
 287              	.L47:
 288 0050 0000A0E3 		mov	r0, #0
 289 0054 1080BDE8 		pop	{r4, pc}
 290              	.L52:
 291              		.align	2
 292              	.L51:
 293 0058 00000000 		.word	.LC0
 294 005c 2E000000 		.word	.LC1
 295              		.fnend
 297              		.section	.text._ZNK11flatbuffers5Table22GetOptionalFieldOffsetEt,"axG",%progbits,_ZNK11flatbuffers
 298              		.align	2
 299              		.weak	_ZNK11flatbuffers5Table22GetOptionalFieldOffsetEt
 300              		.syntax unified
 301              		.arm
 302              		.fpu neon
 304              	_ZNK11flatbuffers5Table22GetOptionalFieldOffsetEt:
 305              		.fnstart
 306              	.LFB3697:
 307              		@ args = 0, pretend = 0, frame = 0
 308              		@ frame_needed = 0, uses_anonymous_args = 0
 309              		@ link register save eliminated.
 310 0000 003090E5 		ldr	r3, [r0]
 311 0004 030040E0 		sub	r0, r0, r3
 312 0008 B030D0E1 		ldrh	r3, [r0]
 313 000c 030051E1 		cmp	r1, r3
 314 0010 B10090B1 		ldrhlt	r0, [r0, r1]
 315 0014 0000A0A3 		movge	r0, #0
 316 0018 1EFF2FE1 		bx	lr
 317              		.cantunwind
 318              		.fnend
 320              		.section	.text._ZNK6tflite8Operator15builtin_optionsEv,"axG",%progbits,_ZNK6tflite8Operator15built
 321              		.align	2
 322              		.weak	_ZNK6tflite8Operator15builtin_optionsEv
 323              		.syntax unified
 324              		.arm
 325              		.fpu neon
 327              	_ZNK6tflite8Operator15builtin_optionsEv:
 328              		.fnstart
 329              	.LFB5267:
 330              		@ args = 0, pretend = 0, frame = 0
 331              		@ frame_needed = 0, uses_anonymous_args = 0
 332 0000 10402DE9 		push	{r4, lr}
 333 0004 0C10A0E3 		mov	r1, #12
 334 0008 0040A0E1 		mov	r4, r0
 335 000c FEFFFFEB 		bl	_ZNK11flatbuffers5Table22GetOptionalFieldOffsetEt
 336 0010 000050E3 		cmp	r0, #0
 337 0014 003084E0 		add	r3, r4, r0
 338 0018 00009417 		ldrne	r0, [r4, r0]
 339 001c 00008310 		addne	r0, r3, r0
 340 0020 1080BDE8 		pop	{r4, pc}
 341              		.cantunwind
 342              		.fnend
 344              		.section	.text._ZN6tflite17ConvertTensorTypeENS_10TensorTypeEP10TfLiteTypePNS_13ErrorReporterE,"ax
 345              		.align	2
 346              		.global	_ZN6tflite17ConvertTensorTypeENS_10TensorTypeEP10TfLiteTypePNS_13ErrorReporterE
 347              		.syntax unified
 348              		.arm
 349              		.fpu neon
 351              	_ZN6tflite17ConvertTensorTypeENS_10TensorTypeEP10TfLiteTypePNS_13ErrorReporterE:
 352              		.fnstart
 353              	.LFB6094:
 354              		@ args = 0, pretend = 0, frame = 0
 355              		@ frame_needed = 0, uses_anonymous_args = 0
 356 0000 0030A0E1 		mov	r3, r0
 357 0004 090050E3 		cmp	r0, #9
 358 0008 00F19F97 		ldrls	pc, [pc, r0, asl #2]
 359 000c 090000EA 		b	.L61
 360              	.L63:
 361 0010 68000000 		.word	.L62
 362 0014 70000000 		.word	.L64
 363 0018 80000000 		.word	.L65
 364 001c 88000000 		.word	.L66
 365 0020 98000000 		.word	.L67
 366 0024 A0000000 		.word	.L68
 367 0028 A8000000 		.word	.L69
 368 002c 78000000 		.word	.L70
 369 0030 B0000000 		.word	.L71
 370 0034 90000000 		.word	.L72
 371              	.L61:
 372 0038 0000A0E3 		mov	r0, #0
 373              	.L80:
 374 003c 0000C1E5 		strb	r0, [r1]
 375 0040 0010D1E5 		ldrb	r1, [r1]	@ zero_extendqisi2
 376 0044 000051E3 		cmp	r1, #0
 377 0048 1A00001A 		bne	.L75
 378 004c 10402DE9 		push	{r4, lr}
 379              		.save {r4, lr}
 380 0050 0200A0E1 		mov	r0, r2
 381 0054 64109FE5 		ldr	r1, .L81
 382 0058 0320A0E1 		mov	r2, r3
 383 005c FEFFFFEB 		bl	_ZN6tflite13ErrorReporter6ReportEPKcz
 384 0060 0100A0E3 		mov	r0, #1
 385 0064 1080BDE8 		pop	{r4, pc}
 386              	.L62:
 387 0068 0100A0E3 		mov	r0, #1
 388 006c F2FFFFEA 		b	.L80
 389              	.L64:
 390 0070 0A00A0E3 		mov	r0, #10
 391 0074 F0FFFFEA 		b	.L80
 392              	.L70:
 393 0078 0700A0E3 		mov	r0, #7
 394 007c EEFFFFEA 		b	.L80
 395              	.L65:
 396 0080 0200A0E3 		mov	r0, #2
 397 0084 ECFFFFEA 		b	.L80
 398              	.L66:
 399 0088 0300A0E3 		mov	r0, #3
 400 008c EAFFFFEA 		b	.L80
 401              	.L72:
 402 0090 0900A0E3 		mov	r0, #9
 403 0094 E8FFFFEA 		b	.L80
 404              	.L67:
 405 0098 0400A0E3 		mov	r0, #4
 406 009c E6FFFFEA 		b	.L80
 407              	.L68:
 408 00a0 0500A0E3 		mov	r0, #5
 409 00a4 E4FFFFEA 		b	.L80
 410              	.L69:
 411 00a8 0600A0E3 		mov	r0, #6
 412 00ac E2FFFFEA 		b	.L80
 413              	.L71:
 414 00b0 0800A0E3 		mov	r0, #8
 415 00b4 E0FFFFEA 		b	.L80
 416              	.L75:
 417 00b8 0000A0E3 		mov	r0, #0
 418 00bc 1EFF2FE1 		bx	lr
 419              	.L82:
 420              		.align	2
 421              	.L81:
 422 00c0 00000000 		.word	.LC2
 423              		.fnend
 425              		.section	.text._ZNK11flatbuffers5Table8GetFieldIhEET_tS2_,"axG",%progbits,_ZNK11flatbuffers5Table8
 426              		.align	2
 427              		.weak	_ZNK11flatbuffers5Table8GetFieldIhEET_tS2_
 428              		.syntax unified
 429              		.arm
 430              		.fpu neon
 432              	_ZNK11flatbuffers5Table8GetFieldIhEET_tS2_:
 433              		.fnstart
 434              	.LFB6454:
 435              		@ args = 0, pretend = 0, frame = 0
 436              		@ frame_needed = 0, uses_anonymous_args = 0
 437 0000 70402DE9 		push	{r4, r5, r6, lr}
 438 0004 0240A0E1 		mov	r4, r2
 439 0008 0050A0E1 		mov	r5, r0
 440 000c FEFFFFEB 		bl	_ZNK11flatbuffers5Table22GetOptionalFieldOffsetEt
 441 0010 000050E3 		cmp	r0, #0
 442 0014 0040D517 		ldrbne	r4, [r5, r0]	@ zero_extendqisi2
 443 0018 0400A0E1 		mov	r0, r4
 444 001c 7080BDE8 		pop	{r4, r5, r6, pc}
 445              		.cantunwind
 446              		.fnend
 448              		.section	.text._ZNK6tflite8Operator20builtin_options_typeEv,"axG",%progbits,_ZNK6tflite8Operator20
 449              		.align	2
 450              		.weak	_ZNK6tflite8Operator20builtin_options_typeEv
 451              		.syntax unified
 452              		.arm
 453              		.fpu neon
 455              	_ZNK6tflite8Operator20builtin_options_typeEv:
 456              		.fnstart
 457              	.LFB5266:
 458              		@ args = 0, pretend = 0, frame = 0
 459              		@ frame_needed = 0, uses_anonymous_args = 0
 460 0000 10402DE9 		push	{r4, lr}
 461 0004 0020A0E3 		mov	r2, #0
 462 0008 0A10A0E3 		mov	r1, #10
 463 000c FEFFFFEB 		bl	_ZNK11flatbuffers5Table8GetFieldIhEET_tS2_
 464 0010 1080BDE8 		pop	{r4, pc}
 465              		.cantunwind
 466              		.fnend
 468              		.section	.text._ZNK11flatbuffers5Table8GetFieldIlEET_tS2_,"axG",%progbits,_ZNK11flatbuffers5Table8
 469              		.align	2
 470              		.weak	_ZNK11flatbuffers5Table8GetFieldIlEET_tS2_
 471              		.syntax unified
 472              		.arm
 473              		.fpu neon
 475              	_ZNK11flatbuffers5Table8GetFieldIlEET_tS2_:
 476              		.fnstart
 477              	.LFB6456:
 478              		@ args = 0, pretend = 0, frame = 0
 479              		@ frame_needed = 0, uses_anonymous_args = 0
 480 0000 70402DE9 		push	{r4, r5, r6, lr}
 481 0004 0240A0E1 		mov	r4, r2
 482 0008 0050A0E1 		mov	r5, r0
 483 000c FEFFFFEB 		bl	_ZNK11flatbuffers5Table22GetOptionalFieldOffsetEt
 484 0010 000050E3 		cmp	r0, #0
 485 0014 00409517 		ldrne	r4, [r5, r0]
 486 0018 0400A0E1 		mov	r0, r4
 487 001c 7080BDE8 		pop	{r4, r5, r6, pc}
 488              		.cantunwind
 489              		.fnend
 491              		.section	.text._ZNK11flatbuffers5Table8GetFieldIaEET_tS2_,"axG",%progbits,_ZNK11flatbuffers5Table8
 492              		.align	2
 493              		.weak	_ZNK11flatbuffers5Table8GetFieldIaEET_tS2_
 494              		.syntax unified
 495              		.arm
 496              		.fpu neon
 498              	_ZNK11flatbuffers5Table8GetFieldIaEET_tS2_:
 499              		.fnstart
 500              	.LFB6483:
 501              		@ args = 0, pretend = 0, frame = 0
 502              		@ frame_needed = 0, uses_anonymous_args = 0
 503 0000 70402DE9 		push	{r4, r5, r6, lr}
 504 0004 0240A0E1 		mov	r4, r2
 505 0008 0050A0E1 		mov	r5, r0
 506 000c FEFFFFEB 		bl	_ZNK11flatbuffers5Table22GetOptionalFieldOffsetEt
 507 0010 000050E3 		cmp	r0, #0
 508 0014 D0409511 		ldrsbne	r4, [r5, r0]
 509 0018 0400A0E1 		mov	r0, r4
 510 001c 7080BDE8 		pop	{r4, r5, r6, pc}
 511              		.cantunwind
 512              		.fnend
 514              		.section	.text._ZNK11flatbuffers5Table8GetFieldIfEET_tS2_,"axG",%progbits,_ZNK11flatbuffers5Table8
 515              		.align	2
 516              		.weak	_ZNK11flatbuffers5Table8GetFieldIfEET_tS2_
 517              		.syntax unified
 518              		.arm
 519              		.fpu neon
 521              	_ZNK11flatbuffers5Table8GetFieldIfEET_tS2_:
 522              		.fnstart
 523              	.LFB6574:
 524              		@ args = 0, pretend = 0, frame = 0
 525              		@ frame_needed = 0, uses_anonymous_args = 0
 526 0000 10402DE9 		push	{r4, lr}
 527 0004 0040A0E1 		mov	r4, r0
 528 0008 028B2DED 		vpush.64	{d8}
 529 000c 408AB0EE 		vmov.f32	s16, s0
 530 0010 FEFFFFEB 		bl	_ZNK11flatbuffers5Table22GetOptionalFieldOffsetEt
 531 0014 000050E3 		cmp	r0, #0
 532 0018 00408410 		addne	r4, r4, r0
 533 001c 008A941D 		vldrne.32	s16, [r4]
 534 0020 480AB0EE 		vmov.f32	s0, s16
 535 0024 028BBDEC 		vldm	sp!, {d8}
 536 0028 1080BDE8 		pop	{r4, pc}
 537              		.cantunwind
 538              		.fnend
 540              		.section	.text._ZN6tflite11ParseOpDataEPKNS_8OperatorENS_15BuiltinOperatorEPNS_13ErrorReporterEPNS
 541              		.align	2
 542              		.global	_ZN6tflite11ParseOpDataEPKNS_8OperatorENS_15BuiltinOperatorEPNS_13ErrorReporterEPNS_20Buil
 543              		.syntax unified
 544              		.arm
 545              		.fpu neon
 547              	_ZN6tflite11ParseOpDataEPKNS_8OperatorENS_15BuiltinOperatorEPNS_13ErrorReporterEPNS_20BuiltinDataAl
 548              		.fnstart
 549              	.LFB6095:
 550              		@ args = 4, pretend = 0, frame = 8
 551              		@ frame_needed = 0, uses_anonymous_args = 0
 552 0000 F7432DE9 		push	{r0, r1, r2, r4, r5, r6, r7, r8, r9, lr}
 553              		.save {r4, r5, r6, r7, r8, r9, lr}
 554              		.pad #12
 555 0004 0340A0E1 		mov	r4, r3
 556 0008 28609DE5 		ldr	r6, [sp, #40]
 557 000c 0030A0E3 		mov	r3, #0
 558 0010 0050A0E1 		mov	r5, r0
 559 0014 0270A0E1 		mov	r7, r2
 560 0018 003086E5 		str	r3, [r6]
 561 001c 770051E3 		cmp	r1, #119
 562 0020 01F19F97 		ldrls	pc, [pc, r1, asl #2]
 563 0024 AE0400EA 		b	.L245
 564              	.L112:
 565 0028 78090000 		.word	.L111
 566 002c F4030000 		.word	.L113
 567 0030 BC080000 		.word	.L114
 568 0034 08020000 		.word	.L115
 569 0038 B4040000 		.word	.L116
 570 003c E00F0000 		.word	.L117
 571 0040 E4120000 		.word	.L245
 572 0044 E4120000 		.word	.L245
 573 0048 E4120000 		.word	.L245
 574 004c A4070000 		.word	.L118
 575 0050 E4120000 		.word	.L245
 576 0054 740A0000 		.word	.L119
 577 0058 F4030000 		.word	.L113
 578 005c C80A0000 		.word	.L120
 579 0060 E4120000 		.word	.L245
 580 0064 90030000 		.word	.L121
 581 0068 500B0000 		.word	.L122
 582 006c F4030000 		.word	.L113
 583 0070 24090000 		.word	.L123
 584 0074 E4120000 		.word	.L245
 585 0078 E4120000 		.word	.L245
 586 007c E4120000 		.word	.L245
 587 0080 700E0000 		.word	.L124
 588 0084 9C0D0000 		.word	.L125
 589 0088 F0060000 		.word	.L126
 590 008c 70080000 		.word	.L127
 591 0090 940F0000 		.word	.L128
 592 0094 88050000 		.word	.L129
 593 0098 E4120000 		.word	.L245
 594 009c E4120000 		.word	.L245
 595 00a0 180F0000 		.word	.L130
 596 00a4 E4120000 		.word	.L245
 597 00a8 E4120000 		.word	.L245
 598 00ac 44070000 		.word	.L131
 599 00b0 E4120000 		.word	.L245
 600 00b4 F4050000 		.word	.L132
 601 00b8 2C100000 		.word	.L133
 602 00bc E4120000 		.word	.L245
 603 00c0 E4120000 		.word	.L245
 604 00c4 E4120000 		.word	.L245
 605 00c8 80100000 		.word	.L134
 606 00cc 200A0000 		.word	.L135
 607 00d0 CC090000 		.word	.L136
 608 00d4 6C110000 		.word	.L137
 609 00d8 500C0000 		.word	.L138
 610 00dc 14120000 		.word	.L139
 611 00e0 64060000 		.word	.L140
 612 00e4 E4120000 		.word	.L245
 613 00e8 E4120000 		.word	.L245
 614 00ec D4100000 		.word	.L141
 615 00f0 E4120000 		.word	.L245
 616 00f4 04150000 		.word	.L142
 617 00f8 E80C0000 		.word	.L143
 618 00fc D0020000 		.word	.L144
 619 0100 E4120000 		.word	.L245
 620 0104 E4120000 		.word	.L245
 621 0108 B0120000 		.word	.L145
 622 010c E4120000 		.word	.L245
 623 0110 E4120000 		.word	.L245
 624 0114 E4120000 		.word	.L245
 625 0118 E4120000 		.word	.L245
 626 011c E4120000 		.word	.L245
 627 0120 E4120000 		.word	.L245
 628 0124 E4120000 		.word	.L245
 629 0128 E4120000 		.word	.L245
 630 012c E4120000 		.word	.L245
 631 0130 E4120000 		.word	.L245
 632 0134 78130000 		.word	.L146
 633 0138 F4130000 		.word	.L147
 634 013c E4120000 		.word	.L245
 635 0140 E4120000 		.word	.L245
 636 0144 E4120000 		.word	.L245
 637 0148 E4120000 		.word	.L245
 638 014c E4120000 		.word	.L245
 639 0150 80100000 		.word	.L134
 640 0154 E4120000 		.word	.L245
 641 0158 E4120000 		.word	.L245
 642 015c 48140000 		.word	.L148
 643 0160 E4120000 		.word	.L245
 644 0164 1C130000 		.word	.L149
 645 0168 14150000 		.word	.L150
 646 016c 80100000 		.word	.L134
 647 0170 80100000 		.word	.L134
 648 0174 A4140000 		.word	.L151
 649 0178 E4120000 		.word	.L245
 650 017c A4150000 		.word	.L152
 651 0180 E4120000 		.word	.L245
 652 0184 E4120000 		.word	.L245
 653 0188 F0150000 		.word	.L153
 654 018c 80100000 		.word	.L134
 655 0190 E4120000 		.word	.L245
 656 0194 80100000 		.word	.L134
 657 0198 E4120000 		.word	.L245
 658 019c E4120000 		.word	.L245
 659 01a0 E4120000 		.word	.L245
 660 01a4 E4120000 		.word	.L245
 661 01a8 E4120000 		.word	.L245
 662 01ac 1C0E0000 		.word	.L154
 663 01b0 50160000 		.word	.L155
 664 01b4 E4120000 		.word	.L245
 665 01b8 9C160000 		.word	.L156
 666 01bc E4120000 		.word	.L245
 667 01c0 20110000 		.word	.L157
 668 01c4 F4160000 		.word	.L158
 669 01c8 E4120000 		.word	.L245
 670 01cc E4120000 		.word	.L245
 671 01d0 E4120000 		.word	.L245
 672 01d4 E4120000 		.word	.L245
 673 01d8 E4120000 		.word	.L245
 674 01dc E4120000 		.word	.L245
 675 01e0 E4120000 		.word	.L245
 676 01e4 E4120000 		.word	.L245
 677 01e8 4C170000 		.word	.L159
 678 01ec E4120000 		.word	.L245
 679 01f0 E4120000 		.word	.L245
 680 01f4 E4120000 		.word	.L245
 681 01f8 E4120000 		.word	.L245
 682 01fc E4120000 		.word	.L245
 683 0200 AC170000 		.word	.L160
 684 0204 0C180000 		.word	.L161
 685              	.L115:
 686 0208 003094E5 		ldr	r3, [r4]
 687 020c 1810A0E3 		mov	r1, #24
 688 0210 0400A0E1 		mov	r0, r4
 689 0214 003093E5 		ldr	r3, [r3]
 690              	.LEHB0:
 691 0218 33FF2FE1 		blx	r3
 692 021c 0040A0E1 		mov	r4, r0
 693 0220 0500A0E1 		mov	r0, r5
 694 0224 FEFFFFEB 		bl	_ZNK6tflite8Operator20builtin_options_typeEv
 695 0228 010050E3 		cmp	r0, #1
 696 022c 0070A0E1 		mov	r7, r0
 697 0230 2400001A 		bne	.L233
 698 0234 0500A0E1 		mov	r0, r5
 699 0238 FEFFFFEB 		bl	_ZNK6tflite8Operator15builtin_optionsEv
 700 023c 005050E2 		subs	r5, r0, #0
 701 0240 2000000A 		beq	.L233
 702 0244 0020A0E3 		mov	r2, #0
 703 0248 0410A0E3 		mov	r1, #4
 704 024c FEFFFFEB 		bl	_ZNK11flatbuffers5Table8GetFieldIaEET_tS2_
 705 0250 7000EFE6 		uxtb	r0, r0
 706 0254 FEFFFFEB 		bl	_ZZN6tflite11ParseOpDataEPKNS_8OperatorENS_15BuiltinOperatorEPNS_13ErrorReporterEPNS_20BuiltinD
 707 0258 0020A0E3 		mov	r2, #0
 708 025c 0000C4E5 		strb	r0, [r4]
 709 0260 0610A0E3 		mov	r1, #6
 710 0264 0500A0E1 		mov	r0, r5
 711 0268 FEFFFFEB 		bl	_ZNK11flatbuffers5Table8GetFieldIlEET_tS2_
 712 026c 0020A0E3 		mov	r2, #0
 713 0270 040084E5 		str	r0, [r4, #4]
 714 0274 0810A0E3 		mov	r1, #8
 715 0278 0500A0E1 		mov	r0, r5
 716 027c FEFFFFEB 		bl	_ZNK11flatbuffers5Table8GetFieldIlEET_tS2_
 717 0280 0020A0E3 		mov	r2, #0
 718 0284 0A10A0E3 		mov	r1, #10
 719 0288 080084E5 		str	r0, [r4, #8]
 720 028c 0500A0E1 		mov	r0, r5
 721 0290 FEFFFFEB 		bl	_ZNK11flatbuffers5Table8GetFieldIaEET_tS2_
 722 0294 7000EFE6 		uxtb	r0, r0
 723 0298 FEFFFFEB 		bl	_ZZN6tflite11ParseOpDataEPKNS_8OperatorENS_15BuiltinOperatorEPNS_13ErrorReporterEPNS_20BuiltinD
 724 029c 0720A0E1 		mov	r2, r7
 725 02a0 0C00C4E5 		strb	r0, [r4, #12]
 726 02a4 0C10A0E3 		mov	r1, #12
 727 02a8 0500A0E1 		mov	r0, r5
 728 02ac FEFFFFEB 		bl	_ZNK11flatbuffers5Table8GetFieldIlEET_tS2_
 729 02b0 0720A0E1 		mov	r2, r7
 730 02b4 100084E5 		str	r0, [r4, #16]
 731 02b8 0E10A0E3 		mov	r1, #14
 732 02bc 0500A0E1 		mov	r0, r5
 733 02c0 FEFFFFEB 		bl	_ZNK11flatbuffers5Table8GetFieldIlEET_tS2_
 734 02c4 140084E5 		str	r0, [r4, #20]
 735              	.L233:
 736 02c8 004086E5 		str	r4, [r6]
 737 02cc 040400EA 		b	.L245
 738              	.L144:
 739 02d0 003094E5 		ldr	r3, [r4]
 740 02d4 0210A0E3 		mov	r1, #2
 741 02d8 0400A0E1 		mov	r0, r4
 742 02dc 003093E5 		ldr	r3, [r3]
 743 02e0 33FF2FE1 		blx	r3
 744              	.LEHE0:
 745 02e4 0080A0E1 		mov	r8, r0
 746 02e8 0500A0E1 		mov	r0, r5
 747 02ec 10018DE8 		stm	sp, {r4, r8}
 748 02f0 FEFFFFEB 		bl	_ZNK6tflite8Operator20builtin_options_typeEv
 749 02f4 250050E3 		cmp	r0, #37
 750 02f8 1B00001A 		bne	.L163
 751 02fc 0500A0E1 		mov	r0, r5
 752 0300 FEFFFFEB 		bl	_ZNK6tflite8Operator15builtin_optionsEv
 753 0304 005050E2 		subs	r5, r0, #0
 754 0308 1700000A 		beq	.L163
 755 030c 0020A0E3 		mov	r2, #0
 756 0310 0410A0E3 		mov	r1, #4
 757 0314 FEFFFFEB 		bl	_ZNK11flatbuffers5Table8GetFieldIaEET_tS2_
 758 0318 0720A0E1 		mov	r2, r7
 759 031c 0810A0E1 		mov	r1, r8
 760 0320 7000EFE6 		uxtb	r0, r0
 761              	.LEHB1:
 762 0324 FEFFFFEB 		bl	_ZN6tflite17ConvertTensorTypeENS_10TensorTypeEP10TfLiteTypePNS_13ErrorReporterE
 763 0328 0020A0E3 		mov	r2, #0
 764 032c 0610A0E3 		mov	r1, #6
 765 0330 0040A0E1 		mov	r4, r0
 766 0334 0500A0E1 		mov	r0, r5
 767 0338 FEFFFFEB 		bl	_ZNK11flatbuffers5Table8GetFieldIaEET_tS2_
 768 033c 04109DE5 		ldr	r1, [sp, #4]
 769 0340 0720A0E1 		mov	r2, r7
 770 0344 7000EFE6 		uxtb	r0, r0
 771 0348 011081E2 		add	r1, r1, #1
 772 034c FEFFFFEB 		bl	_ZN6tflite17ConvertTensorTypeENS_10TensorTypeEP10TfLiteTypePNS_13ErrorReporterE
 773              	.LEHE1:
 774 0350 000084E1 		orr	r0, r4, r0
 775 0354 FF0010E3 		tst	r0, #255
 776 0358 0300000A 		beq	.L163
 777 035c 0D00A0E1 		mov	r0, sp
 778 0360 FEFFFFEB 		bl	_ZNSt10unique_ptrI16TfLiteCastParamsN6tflite12_GLOBAL__N_124SafeBuiltinDataAllocator18BuiltinDa
 779              	.L428:
 780 0364 0140A0E3 		mov	r4, #1
 781 0368 050000EA 		b	.L424
 782              	.L163:
 783 036c 04309DE5 		ldr	r3, [sp, #4]
 784 0370 0040A0E3 		mov	r4, #0
 785 0374 0D00A0E1 		mov	r0, sp
 786 0378 04408DE5 		str	r4, [sp, #4]
 787 037c 003086E5 		str	r3, [r6]
 788 0380 FEFFFFEB 		bl	_ZNSt10unique_ptrI16TfLiteCastParamsN6tflite12_GLOBAL__N_124SafeBuiltinDataAllocator18BuiltinDa
 789              	.L424:
 790 0384 0400A0E1 		mov	r0, r4
 791 0388 0CD08DE2 		add	sp, sp, #12
 792              		@ sp needed
 793 038c F083BDE8 		pop	{r4, r5, r6, r7, r8, r9, pc}
 794              	.L121:
 795 0390 003094E5 		ldr	r3, [r4]
 796 0394 0110A0E3 		mov	r1, #1
 797 0398 0400A0E1 		mov	r0, r4
 798 039c 003093E5 		ldr	r3, [r3]
 799              	.LEHB2:
 800 03a0 33FF2FE1 		blx	r3
 801 03a4 0040A0E1 		mov	r4, r0
 802 03a8 0500A0E1 		mov	r0, r5
 803 03ac FEFFFFEB 		bl	_ZNK6tflite8Operator20builtin_options_typeEv
 804 03b0 040050E3 		cmp	r0, #4
 805 03b4 0070A0E1 		mov	r7, r0
 806 03b8 C2FFFF1A 		bne	.L233
 807 03bc 0500A0E1 		mov	r0, r5
 808 03c0 FEFFFFEB 		bl	_ZNK6tflite8Operator15builtin_optionsEv
 809 03c4 000050E3 		cmp	r0, #0
 810 03c8 BEFFFF0A 		beq	.L233
 811 03cc 0020A0E3 		mov	r2, #0
 812 03d0 0710A0E1 		mov	r1, r7
 813 03d4 FEFFFFEB 		bl	_ZNK11flatbuffers5Table8GetFieldIaEET_tS2_
 814 03d8 010050E3 		cmp	r0, #1
 815 03dc 0200000A 		beq	.L166
 816 03e0 020050E3 		cmp	r0, #2
 817 03e4 0200A003 		moveq	r0, #2
 818 03e8 0000A013 		movne	r0, #0
 819              	.L166:
 820 03ec 0000C4E5 		strb	r0, [r4]
 821 03f0 B4FFFFEA 		b	.L233
 822              	.L113:
 823 03f4 003094E5 		ldr	r3, [r4]
 824 03f8 2810A0E3 		mov	r1, #40
 825 03fc 0400A0E1 		mov	r0, r4
 826 0400 003093E5 		ldr	r3, [r3]
 827 0404 33FF2FE1 		blx	r3
 828 0408 0040A0E1 		mov	r4, r0
 829 040c 0500A0E1 		mov	r0, r5
 830 0410 FEFFFFEB 		bl	_ZNK6tflite8Operator20builtin_options_typeEv
 831 0414 050050E3 		cmp	r0, #5
 832 0418 AAFFFF1A 		bne	.L233
 833 041c 0500A0E1 		mov	r0, r5
 834 0420 FEFFFFEB 		bl	_ZNK6tflite8Operator15builtin_optionsEv
 835 0424 005050E2 		subs	r5, r0, #0
 836 0428 A6FFFF0A 		beq	.L233
 837 042c 0020A0E3 		mov	r2, #0
 838 0430 0410A0E3 		mov	r1, #4
 839 0434 FEFFFFEB 		bl	_ZNK11flatbuffers5Table8GetFieldIaEET_tS2_
 840 0438 7000EFE6 		uxtb	r0, r0
 841 043c FEFFFFEB 		bl	_ZZN6tflite11ParseOpDataEPKNS_8OperatorENS_15BuiltinOperatorEPNS_13ErrorReporterEPNS_20BuiltinD
 842 0440 0020A0E3 		mov	r2, #0
 843 0444 0000C4E5 		strb	r0, [r4]
 844 0448 0610A0E3 		mov	r1, #6
 845 044c 0500A0E1 		mov	r0, r5
 846 0450 FEFFFFEB 		bl	_ZNK11flatbuffers5Table8GetFieldIlEET_tS2_
 847 0454 0020A0E3 		mov	r2, #0
 848 0458 040084E5 		str	r0, [r4, #4]
 849 045c 0810A0E3 		mov	r1, #8
 850 0460 0500A0E1 		mov	r0, r5
 851 0464 FEFFFFEB 		bl	_ZNK11flatbuffers5Table8GetFieldIlEET_tS2_
 852 0468 0020A0E3 		mov	r2, #0
 853 046c 080084E5 		str	r0, [r4, #8]
 854 0470 0A10A0E3 		mov	r1, #10
 855 0474 0500A0E1 		mov	r0, r5
 856 0478 FEFFFFEB 		bl	_ZNK11flatbuffers5Table8GetFieldIlEET_tS2_
 857 047c 0020A0E3 		mov	r2, #0
 858 0480 0C0084E5 		str	r0, [r4, #12]
 859 0484 0C10A0E3 		mov	r1, #12
 860 0488 0500A0E1 		mov	r0, r5
 861 048c FEFFFFEB 		bl	_ZNK11flatbuffers5Table8GetFieldIlEET_tS2_
 862 0490 0020A0E3 		mov	r2, #0
 863 0494 100084E5 		str	r0, [r4, #16]
 864 0498 0E10A0E3 		mov	r1, #14
 865 049c 0500A0E1 		mov	r0, r5
 866 04a0 FEFFFFEB 		bl	_ZNK11flatbuffers5Table8GetFieldIaEET_tS2_
 867 04a4 7000EFE6 		uxtb	r0, r0
 868 04a8 FEFFFFEB 		bl	_ZZN6tflite11ParseOpDataEPKNS_8OperatorENS_15BuiltinOperatorEPNS_13ErrorReporterEPNS_20BuiltinD
 869 04ac 1400C4E5 		strb	r0, [r4, #20]
 870 04b0 84FFFFEA 		b	.L233
 871              	.L116:
 872 04b4 003094E5 		ldr	r3, [r4]
 873 04b8 1C10A0E3 		mov	r1, #28
 874 04bc 0400A0E1 		mov	r0, r4
 875 04c0 003093E5 		ldr	r3, [r3]
 876 04c4 33FF2FE1 		blx	r3
 877 04c8 0040A0E1 		mov	r4, r0
 878 04cc 0500A0E1 		mov	r0, r5
 879 04d0 FEFFFFEB 		bl	_ZNK6tflite8Operator20builtin_options_typeEv
 880 04d4 020050E3 		cmp	r0, #2
 881 04d8 7AFFFF1A 		bne	.L233
 882 04dc 0500A0E1 		mov	r0, r5
 883 04e0 FEFFFFEB 		bl	_ZNK6tflite8Operator15builtin_optionsEv
 884 04e4 005050E2 		subs	r5, r0, #0
 885 04e8 76FFFF0A 		beq	.L233
 886 04ec 0020A0E3 		mov	r2, #0
 887 04f0 0410A0E3 		mov	r1, #4
 888 04f4 FEFFFFEB 		bl	_ZNK11flatbuffers5Table8GetFieldIaEET_tS2_
 889 04f8 7000EFE6 		uxtb	r0, r0
 890 04fc FEFFFFEB 		bl	_ZZN6tflite11ParseOpDataEPKNS_8OperatorENS_15BuiltinOperatorEPNS_13ErrorReporterEPNS_20BuiltinD
 891 0500 0020A0E3 		mov	r2, #0
 892 0504 0000C4E5 		strb	r0, [r4]
 893 0508 0610A0E3 		mov	r1, #6
 894 050c 0500A0E1 		mov	r0, r5
 895 0510 FEFFFFEB 		bl	_ZNK11flatbuffers5Table8GetFieldIlEET_tS2_
 896 0514 0020A0E3 		mov	r2, #0
 897 0518 040084E5 		str	r0, [r4, #4]
 898 051c 0810A0E3 		mov	r1, #8
 899 0520 0500A0E1 		mov	r0, r5
 900 0524 FEFFFFEB 		bl	_ZNK11flatbuffers5Table8GetFieldIlEET_tS2_
 901 0528 0020A0E3 		mov	r2, #0
 902 052c 080084E5 		str	r0, [r4, #8]
 903 0530 0A10A0E3 		mov	r1, #10
 904 0534 0500A0E1 		mov	r0, r5
 905 0538 FEFFFFEB 		bl	_ZNK11flatbuffers5Table8GetFieldIlEET_tS2_
 906 053c 0020A0E3 		mov	r2, #0
 907 0540 0C10A0E3 		mov	r1, #12
 908 0544 0C0084E5 		str	r0, [r4, #12]
 909 0548 0500A0E1 		mov	r0, r5
 910 054c FEFFFFEB 		bl	_ZNK11flatbuffers5Table8GetFieldIaEET_tS2_
 911 0550 7000EFE6 		uxtb	r0, r0
 912 0554 FEFFFFEB 		bl	_ZZN6tflite11ParseOpDataEPKNS_8OperatorENS_15BuiltinOperatorEPNS_13ErrorReporterEPNS_20BuiltinD
 913 0558 0120A0E3 		mov	r2, #1
 914 055c 1000C4E5 		strb	r0, [r4, #16]
 915 0560 0E10A0E3 		mov	r1, #14
 916 0564 0500A0E1 		mov	r0, r5
 917 0568 FEFFFFEB 		bl	_ZNK11flatbuffers5Table8GetFieldIlEET_tS2_
 918 056c 0120A0E3 		mov	r2, #1
 919 0570 140084E5 		str	r0, [r4, #20]
 920 0574 1010A0E3 		mov	r1, #16
 921 0578 0500A0E1 		mov	r0, r5
 922 057c FEFFFFEB 		bl	_ZNK11flatbuffers5Table8GetFieldIlEET_tS2_
 923 0580 180084E5 		str	r0, [r4, #24]
 924 0584 4FFFFFEA 		b	.L233
 925              	.L129:
 926 0588 003094E5 		ldr	r3, [r4]
 927 058c 0810A0E3 		mov	r1, #8
 928 0590 0400A0E1 		mov	r0, r4
 929 0594 003093E5 		ldr	r3, [r3]
 930 0598 33FF2FE1 		blx	r3
 931 059c 0040A0E1 		mov	r4, r0
 932 05a0 0500A0E1 		mov	r0, r5
 933 05a4 FEFFFFEB 		bl	_ZNK6tflite8Operator20builtin_options_typeEv
 934 05a8 060050E3 		cmp	r0, #6
 935 05ac 0070A0E1 		mov	r7, r0
 936 05b0 44FFFF1A 		bne	.L233
 937 05b4 0500A0E1 		mov	r0, r5
 938 05b8 FEFFFFEB 		bl	_ZNK6tflite8Operator15builtin_optionsEv
 939 05bc 005050E2 		subs	r5, r0, #0
 940 05c0 40FFFF0A 		beq	.L233
 941 05c4 0020A0E3 		mov	r2, #0
 942 05c8 0410A0E3 		mov	r1, #4
 943 05cc FEFFFFEB 		bl	_ZNK11flatbuffers5Table8GetFieldIlEET_tS2_
 944 05d0 0020A0E3 		mov	r2, #0
 945 05d4 000084E5 		str	r0, [r4]
 946 05d8 0710A0E1 		mov	r1, r7
 947 05dc 0500A0E1 		mov	r0, r5
 948 05e0 FEFFFFEB 		bl	_ZNK11flatbuffers5Table8GetFieldIaEET_tS2_
 949 05e4 7000EFE6 		uxtb	r0, r0
 950 05e8 FEFFFFEB 		bl	_ZZN6tflite11ParseOpDataEPKNS_8OperatorENS_15BuiltinOperatorEPNS_13ErrorReporterEPNS_20BuiltinD
 951 05ec 0400C4E5 		strb	r0, [r4, #4]
 952 05f0 34FFFFEA 		b	.L233
 953              	.L132:
 954 05f4 003094E5 		ldr	r3, [r4]
 955 05f8 0210A0E3 		mov	r1, #2
 956 05fc 0400A0E1 		mov	r0, r4
 957 0600 003093E5 		ldr	r3, [r3]
 958 0604 33FF2FE1 		blx	r3
 959 0608 0040A0E1 		mov	r4, r0
 960 060c 0500A0E1 		mov	r0, r5
 961 0610 FEFFFFEB 		bl	_ZNK6tflite8Operator20builtin_options_typeEv
 962 0614 1F0050E3 		cmp	r0, #31
 963 0618 2AFFFF1A 		bne	.L233
 964 061c 0500A0E1 		mov	r0, r5
 965 0620 FEFFFFEB 		bl	_ZNK6tflite8Operator15builtin_optionsEv
 966 0624 005050E2 		subs	r5, r0, #0
 967 0628 26FFFF0A 		beq	.L233
 968 062c 0020A0E3 		mov	r2, #0
 969 0630 0610A0E3 		mov	r1, #6
 970 0634 FEFFFFEB 		bl	_ZNK11flatbuffers5Table8GetFieldIaEET_tS2_
 971 0638 7000EFE6 		uxtb	r0, r0
 972 063c FEFFFFEB 		bl	_ZZN6tflite11ParseOpDataEPKNS_8OperatorENS_15BuiltinOperatorEPNS_13ErrorReporterEPNS_20BuiltinD
 973 0640 0020A0E3 		mov	r2, #0
 974 0644 0100C4E5 		strb	r0, [r4, #1]
 975 0648 0410A0E3 		mov	r1, #4
 976 064c 0500A0E1 		mov	r0, r5
 977 0650 FEFFFFEB 		bl	_ZNK11flatbuffers5Table8GetFieldIhEET_tS2_
 978 0654 000090E2 		adds	r0, r0, #0
 979 0658 0100A013 		movne	r0, #1
 980 065c 0000C4E5 		strb	r0, [r4]
 981 0660 18FFFFEA 		b	.L233
 982              	.L140:
 983 0664 003094E5 		ldr	r3, [r4]
 984 0668 0310A0E3 		mov	r1, #3
 985 066c 0400A0E1 		mov	r0, r4
 986 0670 003093E5 		ldr	r3, [r3]
 987 0674 33FF2FE1 		blx	r3
 988 0678 0040A0E1 		mov	r4, r0
 989 067c 0500A0E1 		mov	r0, r5
 990 0680 FEFFFFEB 		bl	_ZNK6tflite8Operator20builtin_options_typeEv
 991 0684 460050E3 		cmp	r0, #70
 992 0688 0EFFFF1A 		bne	.L233
 993 068c 0500A0E1 		mov	r0, r5
 994 0690 FEFFFFEB 		bl	_ZNK6tflite8Operator15builtin_optionsEv
 995 0694 005050E2 		subs	r5, r0, #0
 996 0698 0AFFFF0A 		beq	.L233
 997 069c 0020A0E3 		mov	r2, #0
 998 06a0 0610A0E3 		mov	r1, #6
 999 06a4 FEFFFFEB 		bl	_ZNK11flatbuffers5Table8GetFieldIaEET_tS2_
 1000 06a8 7000EFE6 		uxtb	r0, r0
 1001 06ac FEFFFFEB 		bl	_ZZN6tflite11ParseOpDataEPKNS_8OperatorENS_15BuiltinOperatorEPNS_13ErrorReporterEPNS_20BuiltinD
 1002 06b0 0020A0E3 		mov	r2, #0
 1003 06b4 0100C4E5 		strb	r0, [r4, #1]
 1004 06b8 0410A0E3 		mov	r1, #4
 1005 06bc 0500A0E1 		mov	r0, r5
 1006 06c0 FEFFFFEB 		bl	_ZNK11flatbuffers5Table8GetFieldIhEET_tS2_
 1007 06c4 000090E2 		adds	r0, r0, #0
 1008 06c8 0020A0E3 		mov	r2, #0
 1009 06cc 0100A013 		movne	r0, #1
 1010 06d0 0810A0E3 		mov	r1, #8
 1011 06d4 0000C4E5 		strb	r0, [r4]
 1012 06d8 0500A0E1 		mov	r0, r5
 1013 06dc FEFFFFEB 		bl	_ZNK11flatbuffers5Table8GetFieldIhEET_tS2_
 1014 06e0 000090E2 		adds	r0, r0, #0
 1015 06e4 0100A013 		movne	r0, #1
 1016 06e8 0200C4E5 		strb	r0, [r4, #2]
 1017 06ec F5FEFFEA 		b	.L233
 1018              	.L126:
 1019 06f0 003094E5 		ldr	r3, [r4]
 1020 06f4 0110A0E3 		mov	r1, #1
 1021 06f8 0400A0E1 		mov	r0, r4
 1022 06fc 003093E5 		ldr	r3, [r3]
 1023 0700 33FF2FE1 		blx	r3
 1024 0704 0040A0E1 		mov	r4, r0
 1025 0708 0500A0E1 		mov	r0, r5
 1026 070c FEFFFFEB 		bl	_ZNK6tflite8Operator20builtin_options_typeEv
 1027 0710 070050E3 		cmp	r0, #7
 1028 0714 EBFEFF1A 		bne	.L233
 1029 0718 0500A0E1 		mov	r0, r5
 1030 071c FEFFFFEB 		bl	_ZNK6tflite8Operator15builtin_optionsEv
 1031 0720 000050E3 		cmp	r0, #0
 1032 0724 E7FEFF0A 		beq	.L233
 1033 0728 0020A0E3 		mov	r2, #0
 1034 072c 0410A0E3 		mov	r1, #4
 1035 0730 FEFFFFEB 		bl	_ZNK11flatbuffers5Table8GetFieldIaEET_tS2_
 1036 0734 7000EFE6 		uxtb	r0, r0
 1037 0738 FEFFFFEB 		bl	_ZZN6tflite11ParseOpDataEPKNS_8OperatorENS_15BuiltinOperatorEPNS_13ErrorReporterEPNS_20BuiltinD
 1038 073c 0000C4E5 		strb	r0, [r4]
 1039 0740 E0FEFFEA 		b	.L233
 1040              	.L131:
 1041 0744 003094E5 		ldr	r3, [r4]
 1042 0748 0110A0E3 		mov	r1, #1
 1043 074c 0400A0E1 		mov	r0, r4
 1044 0750 003093E5 		ldr	r3, [r3]
 1045 0754 33FF2FE1 		blx	r3
 1046 0758 0040A0E1 		mov	r4, r0
 1047 075c 0500A0E1 		mov	r0, r5
 1048 0760 FEFFFFEB 		bl	_ZNK6tflite8Operator20builtin_options_typeEv
 1049 0764 140050E3 		cmp	r0, #20
 1050 0768 D6FEFF1A 		bne	.L233
 1051 076c 0500A0E1 		mov	r0, r5
 1052 0770 FEFFFFEB 		bl	_ZNK6tflite8Operator15builtin_optionsEv
 1053 0774 000050E3 		cmp	r0, #0
 1054 0778 D2FEFF0A 		beq	.L233
 1055 077c 0020A0E3 		mov	r2, #0
 1056 0780 0410A0E3 		mov	r1, #4
 1057 0784 FEFFFFEB 		bl	_ZNK11flatbuffers5Table8GetFieldIaEET_tS2_
 1058 0788 010050E3 		cmp	r0, #1
 1059 078c 0200000A 		beq	.L176
 1060 0790 020050E3 		cmp	r0, #2
 1061 0794 0200A003 		moveq	r0, #2
 1062 0798 0000A013 		movne	r0, #0
 1063              	.L176:
 1064 079c 0000C4E5 		strb	r0, [r4]
 1065 07a0 C8FEFFEA 		b	.L233
 1066              	.L118:
 1067 07a4 003094E5 		ldr	r3, [r4]
 1068 07a8 0310A0E3 		mov	r1, #3
 1069 07ac 0400A0E1 		mov	r0, r4
 1070 07b0 003093E5 		ldr	r3, [r3]
 1071 07b4 33FF2FE1 		blx	r3
 1072              	.LEHE2:
 1073 07b8 0080A0E1 		mov	r8, r0
 1074 07bc 0500A0E1 		mov	r0, r5
 1075 07c0 10018DE8 		stm	sp, {r4, r8}
 1076 07c4 FEFFFFEB 		bl	_ZNK6tflite8Operator20builtin_options_typeEv
 1077 07c8 080050E3 		cmp	r0, #8
 1078 07cc 0090A0E1 		mov	r9, r0
 1079 07d0 1D00001A 		bne	.L178
 1080 07d4 0500A0E1 		mov	r0, r5
 1081 07d8 FEFFFFEB 		bl	_ZNK6tflite8Operator15builtin_optionsEv
 1082 07dc 004050E2 		subs	r4, r0, #0
 1083 07e0 1900000A 		beq	.L178
 1084 07e4 0020A0E3 		mov	r2, #0
 1085 07e8 0410A0E3 		mov	r1, #4
 1086 07ec FEFFFFEB 		bl	_ZNK11flatbuffers5Table8GetFieldIaEET_tS2_
 1087 07f0 7000EFE6 		uxtb	r0, r0
 1088 07f4 FEFFFFEB 		bl	_ZZN6tflite11ParseOpDataEPKNS_8OperatorENS_15BuiltinOperatorEPNS_13ErrorReporterEPNS_20BuiltinD
 1089 07f8 0020A0E3 		mov	r2, #0
 1090 07fc 0000C8E5 		strb	r0, [r8]
 1091 0800 0910A0E1 		mov	r1, r9
 1092 0804 0400A0E1 		mov	r0, r4
 1093 0808 FEFFFFEB 		bl	_ZNK11flatbuffers5Table8GetFieldIhEET_tS2_
 1094 080c 000090E2 		adds	r0, r0, #0
 1095 0810 0020A0E3 		mov	r2, #0
 1096 0814 0100A013 		movne	r0, #1
 1097 0818 0610A0E3 		mov	r1, #6
 1098 081c 0200C8E5 		strb	r0, [r8, #2]
 1099 0820 0400A0E1 		mov	r0, r4
 1100 0824 FEFFFFEB 		bl	_ZNK11flatbuffers5Table8GetFieldIaEET_tS2_
 1101 0828 000050E3 		cmp	r0, #0
 1102 082c 0500000A 		beq	.L181
 1103 0830 010050E3 		cmp	r0, #1
 1104 0834 0300000A 		beq	.L181
 1105 0838 F4139FE5 		ldr	r1, .L431
 1106 083c 0700A0E1 		mov	r0, r7
 1107              	.LEHB3:
 1108 0840 FEFFFFEB 		bl	_ZN6tflite13ErrorReporter6ReportEPKcz
 1109              	.LEHE3:
 1110 0844 060000EA 		b	.L430
 1111              	.L181:
 1112 0848 0100C8E5 		strb	r0, [r8, #1]
 1113              	.L178:
 1114 084c 0040A0E3 		mov	r4, #0
 1115 0850 008086E5 		str	r8, [r6]
 1116 0854 0D00A0E1 		mov	r0, sp
 1117 0858 04408DE5 		str	r4, [sp, #4]
 1118 085c FEFFFFEB 		bl	_ZNSt10unique_ptrI26TfLiteFullyConnectedParamsN6tflite12_GLOBAL__N_124SafeBuiltinDataAllocator1
 1119 0860 C7FEFFEA 		b	.L424
 1120              	.L430:
 1121 0864 0D00A0E1 		mov	r0, sp
 1122 0868 FEFFFFEB 		bl	_ZNSt10unique_ptrI26TfLiteFullyConnectedParamsN6tflite12_GLOBAL__N_124SafeBuiltinDataAllocator1
 1123 086c BCFEFFEA 		b	.L428
 1124              	.L127:
 1125 0870 003094E5 		ldr	r3, [r4]
 1126 0874 0410A0E3 		mov	r1, #4
 1127 0878 0400A0E1 		mov	r0, r4
 1128 087c 003093E5 		ldr	r3, [r3]
 1129              	.LEHB4:
 1130 0880 33FF2FE1 		blx	r3
 1131 0884 0040A0E1 		mov	r4, r0
 1132 0888 0500A0E1 		mov	r0, r5
 1133 088c FEFFFFEB 		bl	_ZNK6tflite8Operator20builtin_options_typeEv
 1134 0890 090050E3 		cmp	r0, #9
 1135 0894 8BFEFF1A 		bne	.L233
 1136 0898 0500A0E1 		mov	r0, r5
 1137 089c FEFFFFEB 		bl	_ZNK6tflite8Operator15builtin_optionsEv
 1138 08a0 000050E3 		cmp	r0, #0
 1139 08a4 87FEFF0A 		beq	.L233
 1140 08a8 E70A9FED 		vldr.32	s0, .L431+24
 1141 08ac 0410A0E3 		mov	r1, #4
 1142 08b0 FEFFFFEB 		bl	_ZNK11flatbuffers5Table8GetFieldIfEET_tS2_
 1143 08b4 000A84ED 		vstr.32	s0, [r4]
 1144 08b8 82FEFFEA 		b	.L233
 1145              	.L114:
 1146 08bc 003094E5 		ldr	r3, [r4]
 1147 08c0 0810A0E3 		mov	r1, #8
 1148 08c4 0400A0E1 		mov	r0, r4
 1149 08c8 003093E5 		ldr	r3, [r3]
 1150 08cc 33FF2FE1 		blx	r3
 1151 08d0 0040A0E1 		mov	r4, r0
 1152 08d4 0500A0E1 		mov	r0, r5
 1153 08d8 FEFFFFEB 		bl	_ZNK6tflite8Operator20builtin_options_typeEv
 1154 08dc 0A0050E3 		cmp	r0, #10
 1155 08e0 78FEFF1A 		bne	.L233
 1156 08e4 0500A0E1 		mov	r0, r5
 1157 08e8 FEFFFFEB 		bl	_ZNK6tflite8Operator15builtin_optionsEv
 1158 08ec 005050E2 		subs	r5, r0, #0
 1159 08f0 74FEFF0A 		beq	.L233
 1160 08f4 0020A0E3 		mov	r2, #0
 1161 08f8 0610A0E3 		mov	r1, #6
 1162 08fc FEFFFFEB 		bl	_ZNK11flatbuffers5Table8GetFieldIaEET_tS2_
 1163 0900 7000EFE6 		uxtb	r0, r0
 1164 0904 FEFFFFEB 		bl	_ZZN6tflite11ParseOpDataEPKNS_8OperatorENS_15BuiltinOperatorEPNS_13ErrorReporterEPNS_20BuiltinD
 1165 0908 0020A0E3 		mov	r2, #0
 1166 090c 0400C4E5 		strb	r0, [r4, #4]
 1167 0910 0410A0E3 		mov	r1, #4
 1168 0914 0500A0E1 		mov	r0, r5
 1169 0918 FEFFFFEB 		bl	_ZNK11flatbuffers5Table8GetFieldIlEET_tS2_
 1170 091c 000084E5 		str	r0, [r4]
 1171 0920 68FEFFEA 		b	.L233
 1172              	.L123:
 1173 0924 003094E5 		ldr	r3, [r4]
 1174 0928 0110A0E3 		mov	r1, #1
 1175 092c 0400A0E1 		mov	r0, r4
 1176 0930 003093E5 		ldr	r3, [r3]
 1177 0934 33FF2FE1 		blx	r3
 1178 0938 0040A0E1 		mov	r4, r0
 1179 093c 0500A0E1 		mov	r0, r5
 1180 0940 FEFFFFEB 		bl	_ZNK6tflite8Operator20builtin_options_typeEv
 1181 0944 150050E3 		cmp	r0, #21
 1182 0948 5EFEFF1A 		bne	.L233
 1183 094c 0500A0E1 		mov	r0, r5
 1184 0950 FEFFFFEB 		bl	_ZNK6tflite8Operator15builtin_optionsEv
 1185 0954 000050E3 		cmp	r0, #0
 1186 0958 5AFEFF0A 		beq	.L233
 1187 095c 0020A0E3 		mov	r2, #0
 1188 0960 0410A0E3 		mov	r1, #4
 1189 0964 FEFFFFEB 		bl	_ZNK11flatbuffers5Table8GetFieldIaEET_tS2_
 1190 0968 7000EFE6 		uxtb	r0, r0
 1191 096c FEFFFFEB 		bl	_ZZN6tflite11ParseOpDataEPKNS_8OperatorENS_15BuiltinOperatorEPNS_13ErrorReporterEPNS_20BuiltinD
 1192 0970 0000C4E5 		strb	r0, [r4]
 1193 0974 53FEFFEA 		b	.L233
 1194              	.L111:
 1195 0978 003094E5 		ldr	r3, [r4]
 1196 097c 0110A0E3 		mov	r1, #1
 1197 0980 0400A0E1 		mov	r0, r4
 1198 0984 003093E5 		ldr	r3, [r3]
 1199 0988 33FF2FE1 		blx	r3
 1200 098c 0040A0E1 		mov	r4, r0
 1201 0990 0500A0E1 		mov	r0, r5
 1202 0994 FEFFFFEB 		bl	_ZNK6tflite8Operator20builtin_options_typeEv
 1203 0998 0B0050E3 		cmp	r0, #11
 1204 099c 49FEFF1A 		bne	.L233
 1205 09a0 0500A0E1 		mov	r0, r5
 1206 09a4 FEFFFFEB 		bl	_ZNK6tflite8Operator15builtin_optionsEv
 1207 09a8 000050E3 		cmp	r0, #0
 1208 09ac 45FEFF0A 		beq	.L233
 1209 09b0 0020A0E3 		mov	r2, #0
 1210 09b4 0410A0E3 		mov	r1, #4
 1211 09b8 FEFFFFEB 		bl	_ZNK11flatbuffers5Table8GetFieldIaEET_tS2_
 1212 09bc 7000EFE6 		uxtb	r0, r0
 1213 09c0 FEFFFFEB 		bl	_ZZN6tflite11ParseOpDataEPKNS_8OperatorENS_15BuiltinOperatorEPNS_13ErrorReporterEPNS_20BuiltinD
 1214 09c4 0000C4E5 		strb	r0, [r4]
 1215 09c8 3EFEFFEA 		b	.L233
 1216              	.L136:
 1217 09cc 003094E5 		ldr	r3, [r4]
 1218 09d0 0110A0E3 		mov	r1, #1
 1219 09d4 0400A0E1 		mov	r0, r4
 1220 09d8 003093E5 		ldr	r3, [r3]
 1221 09dc 33FF2FE1 		blx	r3
 1222 09e0 0040A0E1 		mov	r4, r0
 1223 09e4 0500A0E1 		mov	r0, r5
 1224 09e8 FEFFFFEB 		bl	_ZNK6tflite8Operator20builtin_options_typeEv
 1225 09ec 1D0050E3 		cmp	r0, #29
 1226 09f0 34FEFF1A 		bne	.L233
 1227 09f4 0500A0E1 		mov	r0, r5
 1228 09f8 FEFFFFEB 		bl	_ZNK6tflite8Operator15builtin_optionsEv
 1229 09fc 000050E3 		cmp	r0, #0
 1230 0a00 30FEFF0A 		beq	.L233
 1231 0a04 0020A0E3 		mov	r2, #0
 1232 0a08 0410A0E3 		mov	r1, #4
 1233 0a0c FEFFFFEB 		bl	_ZNK11flatbuffers5Table8GetFieldIaEET_tS2_
 1234 0a10 7000EFE6 		uxtb	r0, r0
 1235 0a14 FEFFFFEB 		bl	_ZZN6tflite11ParseOpDataEPKNS_8OperatorENS_15BuiltinOperatorEPNS_13ErrorReporterEPNS_20BuiltinD
 1236 0a18 0000C4E5 		strb	r0, [r4]
 1237 0a1c 29FEFFEA 		b	.L233
 1238              	.L135:
 1239 0a20 003094E5 		ldr	r3, [r4]
 1240 0a24 0110A0E3 		mov	r1, #1
 1241 0a28 0400A0E1 		mov	r0, r4
 1242 0a2c 003093E5 		ldr	r3, [r3]
 1243 0a30 33FF2FE1 		blx	r3
 1244 0a34 0040A0E1 		mov	r4, r0
 1245 0a38 0500A0E1 		mov	r0, r5
 1246 0a3c FEFFFFEB 		bl	_ZNK6tflite8Operator20builtin_options_typeEv
 1247 0a40 1C0050E3 		cmp	r0, #28
 1248 0a44 1FFEFF1A 		bne	.L233
 1249 0a48 0500A0E1 		mov	r0, r5
 1250 0a4c FEFFFFEB 		bl	_ZNK6tflite8Operator15builtin_optionsEv
 1251 0a50 000050E3 		cmp	r0, #0
 1252 0a54 1BFEFF0A 		beq	.L233
 1253 0a58 0020A0E3 		mov	r2, #0
 1254 0a5c 0410A0E3 		mov	r1, #4
 1255 0a60 FEFFFFEB 		bl	_ZNK11flatbuffers5Table8GetFieldIaEET_tS2_
 1256 0a64 7000EFE6 		uxtb	r0, r0
 1257 0a68 FEFFFFEB 		bl	_ZZN6tflite11ParseOpDataEPKNS_8OperatorENS_15BuiltinOperatorEPNS_13ErrorReporterEPNS_20BuiltinD
 1258 0a6c 0000C4E5 		strb	r0, [r4]
 1259 0a70 14FEFFEA 		b	.L233
 1260              	.L119:
 1261 0a74 003094E5 		ldr	r3, [r4]
 1262 0a78 0110A0E3 		mov	r1, #1
 1263 0a7c 0400A0E1 		mov	r0, r4
 1264 0a80 003093E5 		ldr	r3, [r3]
 1265 0a84 33FF2FE1 		blx	r3
 1266 0a88 0040A0E1 		mov	r4, r0
 1267 0a8c 0500A0E1 		mov	r0, r5
 1268 0a90 FEFFFFEB 		bl	_ZNK6tflite8Operator20builtin_options_typeEv
 1269 0a94 0C0050E3 		cmp	r0, #12
 1270 0a98 0AFEFF1A 		bne	.L233
 1271 0a9c 0500A0E1 		mov	r0, r5
 1272 0aa0 FEFFFFEB 		bl	_ZNK6tflite8Operator15builtin_optionsEv
 1273 0aa4 000050E3 		cmp	r0, #0
 1274 0aa8 06FEFF0A 		beq	.L233
 1275 0aac 0020A0E3 		mov	r2, #0
 1276 0ab0 0410A0E3 		mov	r1, #4
 1277 0ab4 FEFFFFEB 		bl	_ZNK11flatbuffers5Table8GetFieldIaEET_tS2_
 1278 0ab8 7000EFE6 		uxtb	r0, r0
 1279 0abc FEFFFFEB 		bl	_ZZN6tflite11ParseOpDataEPKNS_8OperatorENS_15BuiltinOperatorEPNS_13ErrorReporterEPNS_20BuiltinD
 1280 0ac0 0000C4E5 		strb	r0, [r4]
 1281 0ac4 FFFDFFEA 		b	.L233
 1282              	.L120:
 1283 0ac8 003094E5 		ldr	r3, [r4]
 1284 0acc 1010A0E3 		mov	r1, #16
 1285 0ad0 0400A0E1 		mov	r0, r4
 1286 0ad4 003093E5 		ldr	r3, [r3]
 1287 0ad8 33FF2FE1 		blx	r3
 1288 0adc 0040A0E1 		mov	r4, r0
 1289 0ae0 0500A0E1 		mov	r0, r5
 1290 0ae4 FEFFFFEB 		bl	_ZNK6tflite8Operator20builtin_options_typeEv
 1291 0ae8 0D0050E3 		cmp	r0, #13
 1292 0aec F5FDFF1A 		bne	.L233
 1293 0af0 0500A0E1 		mov	r0, r5
 1294 0af4 FEFFFFEB 		bl	_ZNK6tflite8Operator15builtin_optionsEv
 1295 0af8 005050E2 		subs	r5, r0, #0
 1296 0afc F1FDFF0A 		beq	.L233
 1297 0b00 0020A0E3 		mov	r2, #0
 1298 0b04 0410A0E3 		mov	r1, #4
 1299 0b08 FEFFFFEB 		bl	_ZNK11flatbuffers5Table8GetFieldIlEET_tS2_
 1300 0b0c 4E0A9FED 		vldr.32	s0, .L431+24
 1301 0b10 0610A0E3 		mov	r1, #6
 1302 0b14 000084E5 		str	r0, [r4]
 1303 0b18 0500A0E1 		mov	r0, r5
 1304 0b1c FEFFFFEB 		bl	_ZNK11flatbuffers5Table8GetFieldIfEET_tS2_
 1305 0b20 0810A0E3 		mov	r1, #8
 1306 0b24 010A84ED 		vstr.32	s0, [r4, #4]
 1307 0b28 0500A0E1 		mov	r0, r5
 1308 0b2c 460A9FED 		vldr.32	s0, .L431+24
 1309 0b30 FEFFFFEB 		bl	_ZNK11flatbuffers5Table8GetFieldIfEET_tS2_
 1310 0b34 0A10A0E3 		mov	r1, #10
 1311 0b38 020A84ED 		vstr.32	s0, [r4, #8]
 1312 0b3c 0500A0E1 		mov	r0, r5
 1313 0b40 410A9FED 		vldr.32	s0, .L431+24
 1314 0b44 FEFFFFEB 		bl	_ZNK11flatbuffers5Table8GetFieldIfEET_tS2_
 1315 0b48 030A84ED 		vstr.32	s0, [r4, #12]
 1316 0b4c DDFDFFEA 		b	.L233
 1317              	.L122:
 1318 0b50 003094E5 		ldr	r3, [r4]
 1319 0b54 1010A0E3 		mov	r1, #16
 1320 0b58 0400A0E1 		mov	r0, r4
 1321 0b5c 003093E5 		ldr	r3, [r3]
 1322 0b60 33FF2FE1 		blx	r3
 1323              	.LEHE4:
 1324 0b64 0080A0E1 		mov	r8, r0
 1325 0b68 0500A0E1 		mov	r0, r5
 1326 0b6c 10018DE8 		stm	sp, {r4, r8}
 1327 0b70 FEFFFFEB 		bl	_ZNK6tflite8Operator20builtin_options_typeEv
 1328 0b74 0E0050E3 		cmp	r0, #14
 1329 0b78 2700001A 		bne	.L190
 1330 0b7c 0500A0E1 		mov	r0, r5
 1331 0b80 FEFFFFEB 		bl	_ZNK6tflite8Operator15builtin_optionsEv
 1332 0b84 004050E2 		subs	r4, r0, #0
 1333 0b88 2300000A 		beq	.L190
 1334 0b8c 0020A0E3 		mov	r2, #0
 1335 0b90 0410A0E3 		mov	r1, #4
 1336 0b94 FEFFFFEB 		bl	_ZNK11flatbuffers5Table8GetFieldIaEET_tS2_
 1337 0b98 7000EFE6 		uxtb	r0, r0
 1338 0b9c FEFFFFEB 		bl	_ZZN6tflite11ParseOpDataEPKNS_8OperatorENS_15BuiltinOperatorEPNS_13ErrorReporterEPNS_20BuiltinD
 1339 0ba0 290A9FED 		vldr.32	s0, .L431+24
 1340 0ba4 0610A0E3 		mov	r1, #6
 1341 0ba8 0000C8E5 		strb	r0, [r8]
 1342 0bac 0400A0E1 		mov	r0, r4
 1343 0bb0 FEFFFFEB 		bl	_ZNK11flatbuffers5Table8GetFieldIfEET_tS2_
 1344 0bb4 0810A0E3 		mov	r1, #8
 1345 0bb8 010A88ED 		vstr.32	s0, [r8, #4]
 1346 0bbc 0400A0E1 		mov	r0, r4
 1347 0bc0 210A9FED 		vldr.32	s0, .L431+24
 1348 0bc4 FEFFFFEB 		bl	_ZNK11flatbuffers5Table8GetFieldIfEET_tS2_
 1349 0bc8 0020A0E3 		mov	r2, #0
 1350 0bcc 020A88ED 		vstr.32	s0, [r8, #8]
 1351 0bd0 0A10A0E3 		mov	r1, #10
 1352 0bd4 0400A0E1 		mov	r0, r4
 1353 0bd8 FEFFFFEB 		bl	_ZNK11flatbuffers5Table8GetFieldIaEET_tS2_
 1354 0bdc 002050E2 		subs	r2, r0, #0
 1355 0be0 0600000A 		beq	.L193
 1356 0be4 010052E3 		cmp	r2, #1
 1357 0be8 0400000A 		beq	.L193
 1358 0bec 7220EFE6 		uxtb	r2, r2
 1359 0bf0 40109FE5 		ldr	r1, .L431+4
 1360 0bf4 0700A0E1 		mov	r0, r7
 1361              	.LEHB5:
 1362 0bf8 FEFFFFEB 		bl	_ZN6tflite13ErrorReporter6ReportEPKcz
 1363 0bfc 090000EA 		b	.L195
 1364              	.L193:
 1365 0c00 0C20C8E5 		strb	r2, [r8, #12]
 1366 0c04 0040A0E3 		mov	r4, #0
 1367 0c08 008086E5 		str	r8, [r6]
 1368 0c0c 0D00A0E1 		mov	r0, sp
 1369 0c10 04408DE5 		str	r4, [sp, #4]
 1370 0c14 FEFFFFEB 		bl	_ZNSt10unique_ptrI16TfLiteLSTMParamsN6tflite12_GLOBAL__N_124SafeBuiltinDataAllocator18BuiltinDa
 1371 0c18 D9FDFFEA 		b	.L424
 1372              	.L190:
 1373 0c1c 18109FE5 		ldr	r1, .L431+8
 1374 0c20 0700A0E1 		mov	r0, r7
 1375 0c24 FEFFFFEB 		bl	_ZN6tflite13ErrorReporter6ReportEPKcz
 1376              	.LEHE5:
 1377              	.L195:
 1378 0c28 0D00A0E1 		mov	r0, sp
 1379 0c2c FEFFFFEB 		bl	_ZNSt10unique_ptrI16TfLiteLSTMParamsN6tflite12_GLOBAL__N_124SafeBuiltinDataAllocator18BuiltinDa
 1380 0c30 CBFDFFEA 		b	.L428
 1381              	.L432:
 1382              		.align	2
 1383              	.L431:
 1384 0c34 00000000 		.word	.LC3
 1385 0c38 2A000000 		.word	.LC4
 1386 0c3c 49000000 		.word	.LC5
 1387 0c40 6D000000 		.word	.LC6
 1388 0c44 75000000 		.word	.LC7
 1389 0c48 7D000000 		.word	.LC8
 1390 0c4c 00000000 		.word	0
 1391              	.L138:
 1392 0c50 003094E5 		ldr	r3, [r4]
 1393 0c54 1010A0E3 		mov	r1, #16
 1394 0c58 0400A0E1 		mov	r0, r4
 1395 0c5c 003093E5 		ldr	r3, [r3]
 1396              	.LEHB6:
 1397 0c60 33FF2FE1 		blx	r3
 1398 0c64 0040A0E1 		mov	r4, r0
 1399 0c68 0500A0E1 		mov	r0, r5
 1400 0c6c FEFFFFEB 		bl	_ZNK6tflite8Operator20builtin_options_typeEv
 1401 0c70 470050E3 		cmp	r0, #71
 1402 0c74 93FDFF1A 		bne	.L233
 1403 0c78 0500A0E1 		mov	r0, r5
 1404 0c7c FEFFFFEB 		bl	_ZNK6tflite8Operator15builtin_optionsEv
 1405 0c80 005050E2 		subs	r5, r0, #0
 1406 0c84 8FFDFF0A 		beq	.L233
 1407 0c88 0020A0E3 		mov	r2, #0
 1408 0c8c 0410A0E3 		mov	r1, #4
 1409 0c90 FEFFFFEB 		bl	_ZNK11flatbuffers5Table8GetFieldIaEET_tS2_
 1410 0c94 7000EFE6 		uxtb	r0, r0
 1411 0c98 FEFFFFEB 		bl	_ZZN6tflite11ParseOpDataEPKNS_8OperatorENS_15BuiltinOperatorEPNS_13ErrorReporterEPNS_20BuiltinD
 1412 0c9c 160A1FED 		vldr.32	s0, .L431+24
 1413 0ca0 0610A0E3 		mov	r1, #6
 1414 0ca4 0000C4E5 		strb	r0, [r4]
 1415 0ca8 0500A0E1 		mov	r0, r5
 1416 0cac FEFFFFEB 		bl	_ZNK11flatbuffers5Table8GetFieldIfEET_tS2_
 1417 0cb0 0810A0E3 		mov	r1, #8
 1418 0cb4 010A84ED 		vstr.32	s0, [r4, #4]
 1419 0cb8 0500A0E1 		mov	r0, r5
 1420 0cbc 1E0A1FED 		vldr.32	s0, .L431+24
 1421 0cc0 FEFFFFEB 		bl	_ZNK11flatbuffers5Table8GetFieldIfEET_tS2_
 1422 0cc4 0020A0E3 		mov	r2, #0
 1423 0cc8 020A84ED 		vstr.32	s0, [r4, #8]
 1424 0ccc 0A10A0E3 		mov	r1, #10
 1425 0cd0 0500A0E1 		mov	r0, r5
 1426 0cd4 FEFFFFEB 		bl	_ZNK11flatbuffers5Table8GetFieldIhEET_tS2_
 1427 0cd8 000090E2 		adds	r0, r0, #0
 1428 0cdc 0100A013 		movne	r0, #1
 1429 0ce0 0C00C4E5 		strb	r0, [r4, #12]
 1430 0ce4 77FDFFEA 		b	.L233
 1431              	.L143:
 1432 0ce8 003094E5 		ldr	r3, [r4]
 1433 0cec 1010A0E3 		mov	r1, #16
 1434 0cf0 0400A0E1 		mov	r0, r4
 1435 0cf4 003093E5 		ldr	r3, [r3]
 1436 0cf8 33FF2FE1 		blx	r3
 1437 0cfc 0040A0E1 		mov	r4, r0
 1438 0d00 0500A0E1 		mov	r0, r5
 1439 0d04 FEFFFFEB 		bl	_ZNK6tflite8Operator20builtin_options_typeEv
 1440 0d08 450050E3 		cmp	r0, #69
 1441 0d0c 6DFDFF1A 		bne	.L233
 1442 0d10 0500A0E1 		mov	r0, r5
 1443 0d14 FEFFFFEB 		bl	_ZNK6tflite8Operator15builtin_optionsEv
 1444 0d18 005050E2 		subs	r5, r0, #0
 1445 0d1c 69FDFF0A 		beq	.L233
 1446 0d20 0020A0E3 		mov	r2, #0
 1447 0d24 0410A0E3 		mov	r1, #4
 1448 0d28 FEFFFFEB 		bl	_ZNK11flatbuffers5Table8GetFieldIaEET_tS2_
 1449 0d2c 7000EFE6 		uxtb	r0, r0
 1450 0d30 FEFFFFEB 		bl	_ZZN6tflite11ParseOpDataEPKNS_8OperatorENS_15BuiltinOperatorEPNS_13ErrorReporterEPNS_20BuiltinD
 1451 0d34 3C0A1FED 		vldr.32	s0, .L431+24
 1452 0d38 0610A0E3 		mov	r1, #6
 1453 0d3c 0000C4E5 		strb	r0, [r4]
 1454 0d40 0500A0E1 		mov	r0, r5
 1455 0d44 FEFFFFEB 		bl	_ZNK11flatbuffers5Table8GetFieldIfEET_tS2_
 1456 0d48 0810A0E3 		mov	r1, #8
 1457 0d4c 010A84ED 		vstr.32	s0, [r4, #4]
 1458 0d50 0500A0E1 		mov	r0, r5
 1459 0d54 440A1FED 		vldr.32	s0, .L431+24
 1460 0d58 FEFFFFEB 		bl	_ZNK11flatbuffers5Table8GetFieldIfEET_tS2_
 1461 0d5c 0020A0E3 		mov	r2, #0
 1462 0d60 020A84ED 		vstr.32	s0, [r4, #8]
 1463 0d64 0A10A0E3 		mov	r1, #10
 1464 0d68 0500A0E1 		mov	r0, r5
 1465 0d6c FEFFFFEB 		bl	_ZNK11flatbuffers5Table8GetFieldIhEET_tS2_
 1466 0d70 000090E2 		adds	r0, r0, #0
 1467 0d74 0120A0E3 		mov	r2, #1
 1468 0d78 0100A013 		movne	r0, #1
 1469 0d7c 0C10A0E3 		mov	r1, #12
 1470 0d80 0C00C4E5 		strb	r0, [r4, #12]
 1471 0d84 0500A0E1 		mov	r0, r5
 1472 0d88 FEFFFFEB 		bl	_ZNK11flatbuffers5Table8GetFieldIhEET_tS2_
 1473 0d8c 000090E2 		adds	r0, r0, #0
 1474 0d90 0100A013 		movne	r0, #1
 1475 0d94 0D00C4E5 		strb	r0, [r4, #13]
 1476 0d98 4AFDFFEA 		b	.L233
 1477              	.L125:
 1478 0d9c 003094E5 		ldr	r3, [r4]
 1479 0da0 0210A0E3 		mov	r1, #2
 1480 0da4 0400A0E1 		mov	r0, r4
 1481 0da8 003093E5 		ldr	r3, [r3]
 1482 0dac 33FF2FE1 		blx	r3
 1483 0db0 0040A0E1 		mov	r4, r0
 1484 0db4 0500A0E1 		mov	r0, r5
 1485 0db8 FEFFFFEB 		bl	_ZNK6tflite8Operator20builtin_options_typeEv
 1486 0dbc 0F0050E3 		cmp	r0, #15
 1487 0dc0 1100001A 		bne	.L198
 1488 0dc4 0500A0E1 		mov	r0, r5
 1489 0dc8 FEFFFFEB 		bl	_ZNK6tflite8Operator15builtin_optionsEv
 1490 0dcc 005050E2 		subs	r5, r0, #0
 1491 0dd0 0D00000A 		beq	.L198
 1492 0dd4 0020A0E3 		mov	r2, #0
 1493 0dd8 0810A0E3 		mov	r1, #8
 1494 0ddc FEFFFFEB 		bl	_ZNK11flatbuffers5Table8GetFieldIhEET_tS2_
 1495 0de0 000090E2 		adds	r0, r0, #0
 1496 0de4 0020A0E3 		mov	r2, #0
 1497 0de8 0100A013 		movne	r0, #1
 1498 0dec 0A10A0E3 		mov	r1, #10
 1499 0df0 0000C4E5 		strb	r0, [r4]
 1500 0df4 0500A0E1 		mov	r0, r5
 1501 0df8 FEFFFFEB 		bl	_ZNK11flatbuffers5Table8GetFieldIhEET_tS2_
 1502 0dfc 000090E2 		adds	r0, r0, #0
 1503 0e00 0100A013 		movne	r0, #1
 1504 0e04 0100C4E5 		strb	r0, [r4, #1]
 1505 0e08 2EFDFFEA 		b	.L233
 1506              	.L198:
 1507 0e0c 0030A0E3 		mov	r3, #0
 1508 0e10 0030C4E5 		strb	r3, [r4]
 1509 0e14 0130C4E5 		strb	r3, [r4, #1]
 1510 0e18 2AFDFFEA 		b	.L233
 1511              	.L154:
 1512 0e1c 003094E5 		ldr	r3, [r4]
 1513 0e20 0110A0E3 		mov	r1, #1
 1514 0e24 0400A0E1 		mov	r0, r4
 1515 0e28 003093E5 		ldr	r3, [r3]
 1516 0e2c 33FF2FE1 		blx	r3
 1517 0e30 0040A0E1 		mov	r4, r0
 1518 0e34 0500A0E1 		mov	r0, r5
 1519 0e38 FEFFFFEB 		bl	_ZNK6tflite8Operator20builtin_options_typeEv
 1520 0e3c 4A0050E3 		cmp	r0, #74
 1521 0e40 20FDFF1A 		bne	.L233
 1522 0e44 0500A0E1 		mov	r0, r5
 1523 0e48 FEFFFFEB 		bl	_ZNK6tflite8Operator15builtin_optionsEv
 1524 0e4c 000050E3 		cmp	r0, #0
 1525 0e50 1CFDFF0A 		beq	.L233
 1526 0e54 0020A0E3 		mov	r2, #0
 1527 0e58 0410A0E3 		mov	r1, #4
 1528 0e5c FEFFFFEB 		bl	_ZNK11flatbuffers5Table8GetFieldIhEET_tS2_
 1529 0e60 000090E2 		adds	r0, r0, #0
 1530 0e64 0100A013 		movne	r0, #1
 1531 0e68 0000C4E5 		strb	r0, [r4]
 1532 0e6c 15FDFFEA 		b	.L233
 1533              	.L124:
 1534 0e70 003094E5 		ldr	r3, [r4]
 1535 0e74 2410A0E3 		mov	r1, #36
 1536 0e78 0400A0E1 		mov	r0, r4
 1537 0e7c 003093E5 		ldr	r3, [r3]
 1538 0e80 33FF2FE1 		blx	r3
 1539              	.LEHE6:
 1540 0e84 0080A0E1 		mov	r8, r0
 1541 0e88 0500A0E1 		mov	r0, r5
 1542 0e8c 10018DE8 		stm	sp, {r4, r8}
 1543 0e90 FEFFFFEB 		bl	_ZNK6tflite8Operator20builtin_options_typeEv
 1544 0e94 110050E3 		cmp	r0, #17
 1545 0e98 1700001A 		bne	.L201
 1546 0e9c 0500A0E1 		mov	r0, r5
 1547 0ea0 FEFFFFEB 		bl	_ZNK6tflite8Operator15builtin_optionsEv
 1548 0ea4 004050E2 		subs	r4, r0, #0
 1549 0ea8 1300000A 		beq	.L201
 1550 0eac 0410A0E3 		mov	r1, #4
 1551 0eb0 FEFFFFEB 		bl	_ZNK11flatbuffers5Table22GetOptionalFieldOffsetEt
 1552 0eb4 000050E3 		cmp	r0, #0
 1553 0eb8 005084E0 		add	r5, r4, r0
 1554 0ebc 0E00000A 		beq	.L201
 1555 0ec0 004094E7 		ldr	r4, [r4, r0]
 1556 0ec4 040095E0 		adds	r0, r5, r4
 1557 0ec8 0B00000A 		beq	.L201
 1558 0ecc 94321FE5 		ldr	r3, .L431+12
 1559 0ed0 0720A0E1 		mov	r2, r7
 1560 0ed4 0810A0E1 		mov	r1, r8
 1561              	.LEHB7:
 1562 0ed8 FEFFFFEB 		bl	_ZN6tflite12_GLOBAL__N_126FlatBufferIntVectorToArrayEiPKN11flatbuffers6VectorIlEEPiPNS_13ErrorR
 1563              	.LEHE7:
 1564 0edc 000050E3 		cmp	r0, #0
 1565 0ee0 04209507 		ldreq	r2, [r5, r4]
 1566 0ee4 04309D05 		ldreq	r3, [sp, #4]
 1567 0ee8 20208305 		streq	r2, [r3, #32]
 1568 0eec 0200000A 		beq	.L201
 1569 0ef0 0D00A0E1 		mov	r0, sp
 1570 0ef4 FEFFFFEB 		bl	_ZNSt10unique_ptrI19TfLiteReshapeParamsN6tflite12_GLOBAL__N_124SafeBuiltinDataAllocator18Builti
 1571 0ef8 19FDFFEA 		b	.L428
 1572              	.L201:
 1573 0efc 04309DE5 		ldr	r3, [sp, #4]
 1574 0f00 0040A0E3 		mov	r4, #0
 1575 0f04 0D00A0E1 		mov	r0, sp
 1576 0f08 04408DE5 		str	r4, [sp, #4]
 1577 0f0c 003086E5 		str	r3, [r6]
 1578 0f10 FEFFFFEB 		bl	_ZNSt10unique_ptrI19TfLiteReshapeParamsN6tflite12_GLOBAL__N_124SafeBuiltinDataAllocator18Builti
 1579 0f14 1AFDFFEA 		b	.L424
 1580              	.L130:
 1581 0f18 003094E5 		ldr	r3, [r4]
 1582 0f1c 0C10A0E3 		mov	r1, #12
 1583 0f20 0400A0E1 		mov	r0, r4
 1584 0f24 003093E5 		ldr	r3, [r3]
 1585              	.LEHB8:
 1586 0f28 33FF2FE1 		blx	r3
 1587 0f2c 0040A0E1 		mov	r4, r0
 1588 0f30 0500A0E1 		mov	r0, r5
 1589 0f34 FEFFFFEB 		bl	_ZNK6tflite8Operator20builtin_options_typeEv
 1590 0f38 120050E3 		cmp	r0, #18
 1591 0f3c E1FCFF1A 		bne	.L233
 1592 0f40 0500A0E1 		mov	r0, r5
 1593 0f44 FEFFFFEB 		bl	_ZNK6tflite8Operator15builtin_optionsEv
 1594 0f48 005050E2 		subs	r5, r0, #0
 1595 0f4c DDFCFF0A 		beq	.L233
 1596 0f50 0020A0E3 		mov	r2, #0
 1597 0f54 0410A0E3 		mov	r1, #4
 1598 0f58 FEFFFFEB 		bl	_ZNK11flatbuffers5Table8GetFieldIlEET_tS2_
 1599 0f5c 0020A0E3 		mov	r2, #0
 1600 0f60 000084E5 		str	r0, [r4]
 1601 0f64 0610A0E3 		mov	r1, #6
 1602 0f68 0500A0E1 		mov	r0, r5
 1603 0f6c FEFFFFEB 		bl	_ZNK11flatbuffers5Table8GetFieldIlEET_tS2_
 1604 0f70 0020A0E3 		mov	r2, #0
 1605 0f74 040084E5 		str	r0, [r4, #4]
 1606 0f78 0810A0E3 		mov	r1, #8
 1607 0f7c 0500A0E1 		mov	r0, r5
 1608 0f80 FEFFFFEB 		bl	_ZNK11flatbuffers5Table8GetFieldIhEET_tS2_
 1609 0f84 000090E2 		adds	r0, r0, #0
 1610 0f88 0100A013 		movne	r0, #1
 1611 0f8c 0800C4E5 		strb	r0, [r4, #8]
 1612 0f90 CCFCFFEA 		b	.L233
 1613              	.L128:
 1614 0f94 003094E5 		ldr	r3, [r4]
 1615 0f98 0410A0E3 		mov	r1, #4
 1616 0f9c 0400A0E1 		mov	r0, r4
 1617 0fa0 003093E5 		ldr	r3, [r3]
 1618 0fa4 33FF2FE1 		blx	r3
 1619 0fa8 0040A0E1 		mov	r4, r0
 1620 0fac 0500A0E1 		mov	r0, r5
 1621 0fb0 FEFFFFEB 		bl	_ZNK6tflite8Operator20builtin_options_typeEv
 1622 0fb4 130050E3 		cmp	r0, #19
 1623 0fb8 C2FCFF1A 		bne	.L233
 1624 0fbc 0500A0E1 		mov	r0, r5
 1625 0fc0 FEFFFFEB 		bl	_ZNK6tflite8Operator15builtin_optionsEv
 1626 0fc4 000050E3 		cmp	r0, #0
 1627 0fc8 BEFCFF0A 		beq	.L233
 1628 0fcc 0020A0E3 		mov	r2, #0
 1629 0fd0 0410A0E3 		mov	r1, #4
 1630 0fd4 FEFFFFEB 		bl	_ZNK11flatbuffers5Table8GetFieldIlEET_tS2_
 1631 0fd8 000084E5 		str	r0, [r4]
 1632 0fdc B9FCFFEA 		b	.L233
 1633              	.L117:
 1634 0fe0 003094E5 		ldr	r3, [r4]
 1635 0fe4 0410A0E3 		mov	r1, #4
 1636 0fe8 0400A0E1 		mov	r0, r4
 1637 0fec 003093E5 		ldr	r3, [r3]
 1638 0ff0 33FF2FE1 		blx	r3
 1639 0ff4 0040A0E1 		mov	r4, r0
 1640 0ff8 0500A0E1 		mov	r0, r5
 1641 0ffc FEFFFFEB 		bl	_ZNK6tflite8Operator20builtin_options_typeEv
 1642 1000 5E0050E3 		cmp	r0, #94
 1643 1004 AFFCFF1A 		bne	.L233
 1644 1008 0500A0E1 		mov	r0, r5
 1645 100c FEFFFFEB 		bl	_ZNK6tflite8Operator15builtin_optionsEv
 1646 1010 000050E3 		cmp	r0, #0
 1647 1014 ABFCFF0A 		beq	.L233
 1648 1018 0020A0E3 		mov	r2, #0
 1649 101c 0410A0E3 		mov	r1, #4
 1650 1020 FEFFFFEB 		bl	_ZNK11flatbuffers5Table8GetFieldIlEET_tS2_
 1651 1024 000084E5 		str	r0, [r4]
 1652 1028 A6FCFFEA 		b	.L233
 1653              	.L133:
 1654 102c 003094E5 		ldr	r3, [r4]
 1655 1030 0410A0E3 		mov	r1, #4
 1656 1034 0400A0E1 		mov	r0, r4
 1657 1038 0070A0E3 		mov	r7, #0
 1658 103c 003093E5 		ldr	r3, [r3]
 1659 1040 33FF2FE1 		blx	r3
 1660 1044 007080E5 		str	r7, [r0]
 1661 1048 0040A0E1 		mov	r4, r0
 1662 104c 0500A0E1 		mov	r0, r5
 1663 1050 FEFFFFEB 		bl	_ZNK6tflite8Operator20builtin_options_typeEv
 1664 1054 170050E3 		cmp	r0, #23
 1665 1058 9AFCFF1A 		bne	.L233
 1666 105c 0500A0E1 		mov	r0, r5
 1667 1060 FEFFFFEB 		bl	_ZNK6tflite8Operator15builtin_optionsEv
 1668 1064 070050E1 		cmp	r0, r7
 1669 1068 96FCFF0A 		beq	.L233
 1670 106c 0720A0E1 		mov	r2, r7
 1671 1070 0410A0E3 		mov	r1, #4
 1672 1074 FEFFFFEB 		bl	_ZNK11flatbuffers5Table8GetFieldIlEET_tS2_
 1673 1078 000084E5 		str	r0, [r4]
 1674 107c 91FCFFEA 		b	.L233
 1675              	.L134:
 1676 1080 003094E5 		ldr	r3, [r4]
 1677 1084 0110A0E3 		mov	r1, #1
 1678 1088 0400A0E1 		mov	r0, r4
 1679 108c 003093E5 		ldr	r3, [r3]
 1680 1090 33FF2FE1 		blx	r3
 1681 1094 0040A0E1 		mov	r4, r0
 1682 1098 0500A0E1 		mov	r0, r5
 1683 109c FEFFFFEB 		bl	_ZNK6tflite8Operator20builtin_options_typeEv
 1684 10a0 1B0050E3 		cmp	r0, #27
 1685 10a4 87FCFF1A 		bne	.L233
 1686 10a8 0500A0E1 		mov	r0, r5
 1687 10ac FEFFFFEB 		bl	_ZNK6tflite8Operator15builtin_optionsEv
 1688 10b0 000050E3 		cmp	r0, #0
 1689 10b4 83FCFF0A 		beq	.L233
 1690 10b8 0020A0E3 		mov	r2, #0
 1691 10bc 0410A0E3 		mov	r1, #4
 1692 10c0 FEFFFFEB 		bl	_ZNK11flatbuffers5Table8GetFieldIhEET_tS2_
 1693 10c4 000090E2 		adds	r0, r0, #0
 1694 10c8 0100A013 		movne	r0, #1
 1695 10cc 0000C4E5 		strb	r0, [r4]
 1696 10d0 7CFCFFEA 		b	.L233
 1697              	.L141:
 1698 10d4 003094E5 		ldr	r3, [r4]
 1699 10d8 0410A0E3 		mov	r1, #4
 1700 10dc 0400A0E1 		mov	r0, r4
 1701 10e0 003093E5 		ldr	r3, [r3]
 1702 10e4 33FF2FE1 		blx	r3
 1703 10e8 0040A0E1 		mov	r4, r0
 1704 10ec 0500A0E1 		mov	r0, r5
 1705 10f0 FEFFFFEB 		bl	_ZNK6tflite8Operator20builtin_options_typeEv
 1706 10f4 230050E3 		cmp	r0, #35
 1707 10f8 72FCFF1A 		bne	.L233
 1708 10fc 0500A0E1 		mov	r0, r5
 1709 1100 FEFFFFEB 		bl	_ZNK6tflite8Operator15builtin_optionsEv
 1710 1104 000050E3 		cmp	r0, #0
 1711 1108 6EFCFF0A 		beq	.L233
 1712 110c 0020A0E3 		mov	r2, #0
 1713 1110 0410A0E3 		mov	r1, #4
 1714 1114 FEFFFFEB 		bl	_ZNK11flatbuffers5Table8GetFieldIlEET_tS2_
 1715 1118 000084E5 		str	r0, [r4]
 1716 111c 69FCFFEA 		b	.L233
 1717              	.L157:
 1718 1120 003094E5 		ldr	r3, [r4]
 1719 1124 0410A0E3 		mov	r1, #4
 1720 1128 0400A0E1 		mov	r0, r4
 1721 112c 003093E5 		ldr	r3, [r3]
 1722 1130 33FF2FE1 		blx	r3
 1723 1134 0040A0E1 		mov	r4, r0
 1724 1138 0500A0E1 		mov	r0, r5
 1725 113c FEFFFFEB 		bl	_ZNK6tflite8Operator20builtin_options_typeEv
 1726 1140 4F0050E3 		cmp	r0, #79
 1727 1144 5FFCFF1A 		bne	.L233
 1728 1148 0500A0E1 		mov	r0, r5
 1729 114c FEFFFFEB 		bl	_ZNK6tflite8Operator15builtin_optionsEv
 1730 1150 000050E3 		cmp	r0, #0
 1731 1154 5BFCFF0A 		beq	.L233
 1732 1158 0020A0E3 		mov	r2, #0
 1733 115c 0410A0E3 		mov	r1, #4
 1734 1160 FEFFFFEB 		bl	_ZNK11flatbuffers5Table8GetFieldIlEET_tS2_
 1735 1164 000084E5 		str	r0, [r4]
 1736 1168 56FCFFEA 		b	.L233
 1737              	.L137:
 1738 116c 003094E5 		ldr	r3, [r4]
 1739 1170 2410A0E3 		mov	r1, #36
 1740 1174 0400A0E1 		mov	r0, r4
 1741 1178 003093E5 		ldr	r3, [r3]
 1742 117c 33FF2FE1 		blx	r3
 1743              	.LEHE8:
 1744 1180 0080A0E1 		mov	r8, r0
 1745 1184 0500A0E1 		mov	r0, r5
 1746 1188 10018DE8 		stm	sp, {r4, r8}
 1747 118c FEFFFFEB 		bl	_ZNK6tflite8Operator20builtin_options_typeEv
 1748 1190 1E0050E3 		cmp	r0, #30
 1749 1194 1700001A 		bne	.L210
 1750 1198 0500A0E1 		mov	r0, r5
 1751 119c FEFFFFEB 		bl	_ZNK6tflite8Operator15builtin_optionsEv
 1752 11a0 005050E2 		subs	r5, r0, #0
 1753 11a4 1300000A 		beq	.L210
 1754 11a8 0410A0E3 		mov	r1, #4
 1755 11ac FEFFFFEB 		bl	_ZNK11flatbuffers5Table22GetOptionalFieldOffsetEt
 1756 11b0 000050E3 		cmp	r0, #0
 1757 11b4 004085E0 		add	r4, r5, r0
 1758 11b8 00009517 		ldrne	r0, [r5, r0]
 1759 11bc 0040A001 		moveq	r4, r0
 1760 11c0 84351FE5 		ldr	r3, .L431+16
 1761 11c4 0720A0E1 		mov	r2, r7
 1762 11c8 0810A0E1 		mov	r1, r8
 1763 11cc 00408410 		addne	r4, r4, r0
 1764 11d0 0400A0E1 		mov	r0, r4
 1765              	.LEHB9:
 1766 11d4 FEFFFFEB 		bl	_ZN6tflite12_GLOBAL__N_126FlatBufferIntVectorToArrayEiPKN11flatbuffers6VectorIlEEPiPNS_13ErrorR
 1767              	.LEHE9:
 1768 11d8 000050E3 		cmp	r0, #0
 1769 11dc 00209405 		ldreq	r2, [r4]
 1770 11e0 04309D05 		ldreq	r3, [sp, #4]
 1771 11e4 20208305 		streq	r2, [r3, #32]
 1772 11e8 0200000A 		beq	.L210
 1773 11ec 0D00A0E1 		mov	r0, sp
 1774 11f0 FEFFFFEB 		bl	_ZNSt10unique_ptrI19TfLiteSqueezeParamsN6tflite12_GLOBAL__N_124SafeBuiltinDataAllocator18Builti
 1775 11f4 5AFCFFEA 		b	.L428
 1776              	.L210:
 1777 11f8 04309DE5 		ldr	r3, [sp, #4]
 1778 11fc 0040A0E3 		mov	r4, #0
 1779 1200 0D00A0E1 		mov	r0, sp
 1780 1204 04408DE5 		str	r4, [sp, #4]
 1781 1208 003086E5 		str	r3, [r6]
 1782 120c FEFFFFEB 		bl	_ZNSt10unique_ptrI19TfLiteSqueezeParamsN6tflite12_GLOBAL__N_124SafeBuiltinDataAllocator18Builti
 1783 1210 5BFCFFEA 		b	.L424
 1784              	.L139:
 1785 1214 003094E5 		ldr	r3, [r4]
 1786 1218 1410A0E3 		mov	r1, #20
 1787 121c 0400A0E1 		mov	r0, r4
 1788 1220 003093E5 		ldr	r3, [r3]
 1789              	.LEHB10:
 1790 1224 33FF2FE1 		blx	r3
 1791 1228 0040A0E1 		mov	r4, r0
 1792 122c 0500A0E1 		mov	r0, r5
 1793 1230 FEFFFFEB 		bl	_ZNK6tflite8Operator20builtin_options_typeEv
 1794 1234 200050E3 		cmp	r0, #32
 1795 1238 22FCFF1A 		bne	.L233
 1796 123c 0500A0E1 		mov	r0, r5
 1797 1240 FEFFFFEB 		bl	_ZNK6tflite8Operator15builtin_optionsEv
 1798 1244 005050E2 		subs	r5, r0, #0
 1799 1248 1EFCFF0A 		beq	.L233
 1800 124c 0020A0E3 		mov	r2, #0
 1801 1250 0410A0E3 		mov	r1, #4
 1802 1254 FEFFFFEB 		bl	_ZNK11flatbuffers5Table8GetFieldIlEET_tS2_
 1803 1258 0020A0E3 		mov	r2, #0
 1804 125c 000084E5 		str	r0, [r4]
 1805 1260 0610A0E3 		mov	r1, #6
 1806 1264 0500A0E1 		mov	r0, r5
 1807 1268 FEFFFFEB 		bl	_ZNK11flatbuffers5Table8GetFieldIlEET_tS2_
 1808 126c 0020A0E3 		mov	r2, #0
 1809 1270 040084E5 		str	r0, [r4, #4]
 1810 1274 0810A0E3 		mov	r1, #8
 1811 1278 0500A0E1 		mov	r0, r5
 1812 127c FEFFFFEB 		bl	_ZNK11flatbuffers5Table8GetFieldIlEET_tS2_
 1813 1280 0020A0E3 		mov	r2, #0
 1814 1284 080084E5 		str	r0, [r4, #8]
 1815 1288 0A10A0E3 		mov	r1, #10
 1816 128c 0500A0E1 		mov	r0, r5
 1817 1290 FEFFFFEB 		bl	_ZNK11flatbuffers5Table8GetFieldIlEET_tS2_
 1818 1294 0020A0E3 		mov	r2, #0
 1819 1298 0C0084E5 		str	r0, [r4, #12]
 1820 129c 0C10A0E3 		mov	r1, #12
 1821 12a0 0500A0E1 		mov	r0, r5
 1822 12a4 FEFFFFEB 		bl	_ZNK11flatbuffers5Table8GetFieldIlEET_tS2_
 1823 12a8 100084E5 		str	r0, [r4, #16]
 1824 12ac 05FCFFEA 		b	.L233
 1825              	.L145:
 1826 12b0 003094E5 		ldr	r3, [r4]
 1827 12b4 0110A0E3 		mov	r1, #1
 1828 12b8 0400A0E1 		mov	r0, r4
 1829 12bc 003093E5 		ldr	r3, [r3]
 1830 12c0 33FF2FE1 		blx	r3
 1831              	.LEHE10:
 1832 12c4 0080A0E1 		mov	r8, r0
 1833 12c8 0500A0E1 		mov	r0, r5
 1834 12cc 10018DE8 		stm	sp, {r4, r8}
 1835 12d0 FEFFFFEB 		bl	_ZNK6tflite8Operator20builtin_options_typeEv
 1836 12d4 280050E3 		cmp	r0, #40
 1837 12d8 0300000A 		beq	.L214
 1838              	.L221:
 1839 12dc 04309DE5 		ldr	r3, [sp, #4]
 1840 12e0 003086E5 		str	r3, [r6]
 1841              	.L245:
 1842 12e4 0040A0E3 		mov	r4, #0
 1843 12e8 25FCFFEA 		b	.L424
 1844              	.L214:
 1845 12ec 0500A0E1 		mov	r0, r5
 1846 12f0 FEFFFFEB 		bl	_ZNK6tflite8Operator15builtin_optionsEv
 1847 12f4 000050E3 		cmp	r0, #0
 1848 12f8 F7FFFF0A 		beq	.L221
 1849 12fc 0020A0E3 		mov	r2, #0
 1850 1300 0410A0E3 		mov	r1, #4
 1851 1304 FEFFFFEB 		bl	_ZNK11flatbuffers5Table8GetFieldIaEET_tS2_
 1852 1308 0720A0E1 		mov	r2, r7
 1853 130c 0810A0E1 		mov	r1, r8
 1854 1310 7000EFE6 		uxtb	r0, r0
 1855              	.LEHB11:
 1856 1314 FEFFFFEB 		bl	_ZN6tflite17ConvertTensorTypeENS_10TensorTypeEP10TfLiteTypePNS_13ErrorReporterE
 1857              	.LEHE11:
 1858 1318 EFFFFFEA 		b	.L221
 1859              	.L149:
 1860 131c 003094E5 		ldr	r3, [r4]
 1861 1320 0110A0E3 		mov	r1, #1
 1862 1324 0400A0E1 		mov	r0, r4
 1863 1328 003093E5 		ldr	r3, [r3]
 1864              	.LEHB12:
 1865 132c 33FF2FE1 		blx	r3
 1866              	.LEHE12:
 1867 1330 0080A0E1 		mov	r8, r0
 1868 1334 0500A0E1 		mov	r0, r5
 1869 1338 10018DE8 		stm	sp, {r4, r8}
 1870 133c FEFFFFEB 		bl	_ZNK6tflite8Operator20builtin_options_typeEv
 1871 1340 390050E3 		cmp	r0, #57
 1872 1344 E4FFFF1A 		bne	.L221
 1873 1348 0500A0E1 		mov	r0, r5
 1874 134c FEFFFFEB 		bl	_ZNK6tflite8Operator15builtin_optionsEv
 1875 1350 000050E3 		cmp	r0, #0
 1876 1354 E0FFFF0A 		beq	.L221
 1877 1358 0020A0E3 		mov	r2, #0
 1878 135c 0410A0E3 		mov	r1, #4
 1879 1360 FEFFFFEB 		bl	_ZNK11flatbuffers5Table8GetFieldIaEET_tS2_
 1880 1364 0720A0E1 		mov	r2, r7
 1881 1368 0810A0E1 		mov	r1, r8
 1882 136c 7000EFE6 		uxtb	r0, r0
 1883              	.LEHB13:
 1884 1370 FEFFFFEB 		bl	_ZN6tflite17ConvertTensorTypeENS_10TensorTypeEP10TfLiteTypePNS_13ErrorReporterE
 1885              	.LEHE13:
 1886 1374 D8FFFFEA 		b	.L221
 1887              	.L146:
 1888 1378 003094E5 		ldr	r3, [r4]
 1889 137c 0C10A0E3 		mov	r1, #12
 1890 1380 0400A0E1 		mov	r0, r4
 1891 1384 003093E5 		ldr	r3, [r3]
 1892              	.LEHB14:
 1893 1388 33FF2FE1 		blx	r3
 1894 138c 0040A0E1 		mov	r4, r0
 1895 1390 0500A0E1 		mov	r0, r5
 1896 1394 FEFFFFEB 		bl	_ZNK6tflite8Operator20builtin_options_typeEv
 1897 1398 310050E3 		cmp	r0, #49
 1898 139c C9FBFF1A 		bne	.L233
 1899 13a0 0500A0E1 		mov	r0, r5
 1900 13a4 FEFFFFEB 		bl	_ZNK6tflite8Operator15builtin_optionsEv
 1901 13a8 005050E2 		subs	r5, r0, #0
 1902 13ac C5FBFF0A 		beq	.L233
 1903 13b0 0020A0E3 		mov	r2, #0
 1904 13b4 0410A0E3 		mov	r1, #4
 1905 13b8 FEFFFFEB 		bl	_ZNK11flatbuffers5Table8GetFieldIaEET_tS2_
 1906 13bc 7000EFE6 		uxtb	r0, r0
 1907 13c0 FEFFFFEB 		bl	_ZZN6tflite11ParseOpDataEPKNS_8OperatorENS_15BuiltinOperatorEPNS_13ErrorReporterEPNS_20BuiltinD
 1908 13c4 0020A0E3 		mov	r2, #0
 1909 13c8 0000C4E5 		strb	r0, [r4]
 1910 13cc 0610A0E3 		mov	r1, #6
 1911 13d0 0500A0E1 		mov	r0, r5
 1912 13d4 FEFFFFEB 		bl	_ZNK11flatbuffers5Table8GetFieldIlEET_tS2_
 1913 13d8 0020A0E3 		mov	r2, #0
 1914 13dc 040084E5 		str	r0, [r4, #4]
 1915 13e0 0810A0E3 		mov	r1, #8
 1916 13e4 0500A0E1 		mov	r0, r5
 1917 13e8 FEFFFFEB 		bl	_ZNK11flatbuffers5Table8GetFieldIlEET_tS2_
 1918 13ec 080084E5 		str	r0, [r4, #8]
 1919 13f0 B4FBFFEA 		b	.L233
 1920              	.L147:
 1921 13f4 003094E5 		ldr	r3, [r4]
 1922 13f8 0110A0E3 		mov	r1, #1
 1923 13fc 0400A0E1 		mov	r0, r4
 1924 1400 003093E5 		ldr	r3, [r3]
 1925 1404 33FF2FE1 		blx	r3
 1926 1408 0040A0E1 		mov	r4, r0
 1927 140c 0500A0E1 		mov	r0, r5
 1928 1410 FEFFFFEB 		bl	_ZNK6tflite8Operator20builtin_options_typeEv
 1929 1414 320050E3 		cmp	r0, #50
 1930 1418 AAFBFF1A 		bne	.L233
 1931 141c 0500A0E1 		mov	r0, r5
 1932 1420 FEFFFFEB 		bl	_ZNK6tflite8Operator15builtin_optionsEv
 1933 1424 000050E3 		cmp	r0, #0
 1934 1428 A6FBFF0A 		beq	.L233
 1935 142c 0020A0E3 		mov	r2, #0
 1936 1430 0410A0E3 		mov	r1, #4
 1937 1434 FEFFFFEB 		bl	_ZNK11flatbuffers5Table8GetFieldIhEET_tS2_
 1938 1438 000090E2 		adds	r0, r0, #0
 1939 143c 0100A013 		movne	r0, #1
 1940 1440 0000C4E5 		strb	r0, [r4]
 1941 1444 9FFBFFEA 		b	.L233
 1942              	.L148:
 1943 1448 003094E5 		ldr	r3, [r4]
 1944 144c 0110A0E3 		mov	r1, #1
 1945 1450 0400A0E1 		mov	r0, r4
 1946 1454 003093E5 		ldr	r3, [r3]
 1947 1458 33FF2FE1 		blx	r3
 1948              	.LEHE14:
 1949 145c 0080A0E1 		mov	r8, r0
 1950 1460 0500A0E1 		mov	r0, r5
 1951 1464 10018DE8 		stm	sp, {r4, r8}
 1952 1468 FEFFFFEB 		bl	_ZNK6tflite8Operator20builtin_options_typeEv
 1953 146c 370050E3 		cmp	r0, #55
 1954 1470 99FFFF1A 		bne	.L221
 1955 1474 0500A0E1 		mov	r0, r5
 1956 1478 FEFFFFEB 		bl	_ZNK6tflite8Operator15builtin_optionsEv
 1957 147c 000050E3 		cmp	r0, #0
 1958 1480 95FFFF0A 		beq	.L221
 1959 1484 0020A0E3 		mov	r2, #0
 1960 1488 0410A0E3 		mov	r1, #4
 1961 148c FEFFFFEB 		bl	_ZNK11flatbuffers5Table8GetFieldIaEET_tS2_
 1962 1490 0720A0E1 		mov	r2, r7
 1963 1494 0810A0E1 		mov	r1, r8
 1964 1498 7000EFE6 		uxtb	r0, r0
 1965              	.LEHB15:
 1966 149c FEFFFFEB 		bl	_ZN6tflite17ConvertTensorTypeENS_10TensorTypeEP10TfLiteTypePNS_13ErrorReporterE
 1967              	.LEHE15:
 1968 14a0 8DFFFFEA 		b	.L221
 1969              	.L151:
 1970 14a4 003094E5 		ldr	r3, [r4]
 1971 14a8 0810A0E3 		mov	r1, #8
 1972 14ac 0400A0E1 		mov	r0, r4
 1973 14b0 003093E5 		ldr	r3, [r3]
 1974              	.LEHB16:
 1975 14b4 33FF2FE1 		blx	r3
 1976 14b8 0040A0E1 		mov	r4, r0
 1977 14bc 0500A0E1 		mov	r0, r5
 1978 14c0 FEFFFFEB 		bl	_ZNK6tflite8Operator20builtin_options_typeEv
 1979 14c4 3B0050E3 		cmp	r0, #59
 1980 14c8 7EFBFF1A 		bne	.L233
 1981 14cc 0500A0E1 		mov	r0, r5
 1982 14d0 FEFFFFEB 		bl	_ZNK6tflite8Operator15builtin_optionsEv
 1983 14d4 005050E2 		subs	r5, r0, #0
 1984 14d8 7AFBFF0A 		beq	.L233
 1985 14dc 0020A0E3 		mov	r2, #0
 1986 14e0 0410A0E3 		mov	r1, #4
 1987 14e4 FEFFFFEB 		bl	_ZNK11flatbuffers5Table8GetFieldIlEET_tS2_
 1988 14e8 0020A0E3 		mov	r2, #0
 1989 14ec 000084E5 		str	r0, [r4]
 1990 14f0 0610A0E3 		mov	r1, #6
 1991 14f4 0500A0E1 		mov	r0, r5
 1992 14f8 FEFFFFEB 		bl	_ZNK11flatbuffers5Table8GetFieldIlEET_tS2_
 1993 14fc 040084E5 		str	r0, [r4, #4]
 1994 1500 70FBFFEA 		b	.L233
 1995              	.L142:
 1996 1504 C4181FE5 		ldr	r1, .L431+20
 1997 1508 0200A0E1 		mov	r0, r2
 1998 150c FEFFFFEB 		bl	_ZN6tflite13ErrorReporter6ReportEPKcz
 1999 1510 93FBFFEA 		b	.L428
 2000              	.L150:
 2001 1514 003094E5 		ldr	r3, [r4]
 2002 1518 1010A0E3 		mov	r1, #16
 2003 151c 0400A0E1 		mov	r0, r4
 2004 1520 003093E5 		ldr	r3, [r3]
 2005 1524 33FF2FE1 		blx	r3
 2006 1528 0040A0E1 		mov	r4, r0
 2007 152c 0500A0E1 		mov	r0, r5
 2008 1530 FEFFFFEB 		bl	_ZNK6tflite8Operator20builtin_options_typeEv
 2009 1534 3A0050E3 		cmp	r0, #58
 2010 1538 62FBFF1A 		bne	.L233
 2011 153c 0500A0E1 		mov	r0, r5
 2012 1540 FEFFFFEB 		bl	_ZNK6tflite8Operator15builtin_optionsEv
 2013 1544 005050E2 		subs	r5, r0, #0
 2014 1548 5EFBFF0A 		beq	.L233
 2015 154c 0410A0E3 		mov	r1, #4
 2016 1550 E60A9FED 		vldr.32	s0, .L433
 2017 1554 FEFFFFEB 		bl	_ZNK11flatbuffers5Table8GetFieldIfEET_tS2_
 2018 1558 0610A0E3 		mov	r1, #6
 2019 155c 000A84ED 		vstr.32	s0, [r4]
 2020 1560 0500A0E1 		mov	r0, r5
 2021 1564 E10A9FED 		vldr.32	s0, .L433
 2022 1568 FEFFFFEB 		bl	_ZNK11flatbuffers5Table8GetFieldIfEET_tS2_
 2023 156c 0020A0E3 		mov	r2, #0
 2024 1570 010A84ED 		vstr.32	s0, [r4, #4]
 2025 1574 0810A0E3 		mov	r1, #8
 2026 1578 0500A0E1 		mov	r0, r5
 2027 157c FEFFFFEB 		bl	_ZNK11flatbuffers5Table8GetFieldIlEET_tS2_
 2028 1580 0020A0E3 		mov	r2, #0
 2029 1584 080084E5 		str	r0, [r4, #8]
 2030 1588 0A10A0E3 		mov	r1, #10
 2031 158c 0500A0E1 		mov	r0, r5
 2032 1590 FEFFFFEB 		bl	_ZNK11flatbuffers5Table8GetFieldIhEET_tS2_
 2033 1594 000090E2 		adds	r0, r0, #0
 2034 1598 0100A013 		movne	r0, #1
 2035 159c 0C00C4E5 		strb	r0, [r4, #12]
 2036 15a0 48FBFFEA 		b	.L233
 2037              	.L152:
 2038 15a4 003094E5 		ldr	r3, [r4]
 2039 15a8 0410A0E3 		mov	r1, #4
 2040 15ac 0400A0E1 		mov	r0, r4
 2041 15b0 003093E5 		ldr	r3, [r3]
 2042 15b4 33FF2FE1 		blx	r3
 2043 15b8 0040A0E1 		mov	r4, r0
 2044 15bc 0500A0E1 		mov	r0, r5
 2045 15c0 FEFFFFEB 		bl	_ZNK6tflite8Operator20builtin_options_typeEv
 2046 15c4 3D0050E3 		cmp	r0, #61
 2047 15c8 3EFBFF1A 		bne	.L233
 2048 15cc 0500A0E1 		mov	r0, r5
 2049 15d0 FEFFFFEB 		bl	_ZNK6tflite8Operator15builtin_optionsEv
 2050 15d4 000050E3 		cmp	r0, #0
 2051 15d8 3AFBFF0A 		beq	.L233
 2052 15dc 0020A0E3 		mov	r2, #0
 2053 15e0 0410A0E3 		mov	r1, #4
 2054 15e4 FEFFFFEB 		bl	_ZNK11flatbuffers5Table8GetFieldIlEET_tS2_
 2055 15e8 000084E5 		str	r0, [r4]
 2056 15ec 35FBFFEA 		b	.L233
 2057              	.L153:
 2058 15f0 003094E5 		ldr	r3, [r4]
 2059 15f4 0810A0E3 		mov	r1, #8
 2060 15f8 0400A0E1 		mov	r0, r4
 2061 15fc 003093E5 		ldr	r3, [r3]
 2062 1600 33FF2FE1 		blx	r3
 2063 1604 0040A0E1 		mov	r4, r0
 2064 1608 0500A0E1 		mov	r0, r5
 2065 160c FEFFFFEB 		bl	_ZNK6tflite8Operator20builtin_options_typeEv
 2066 1610 400050E3 		cmp	r0, #64
 2067 1614 2BFBFF1A 		bne	.L233
 2068 1618 0500A0E1 		mov	r0, r5
 2069 161c FEFFFFEB 		bl	_ZNK6tflite8Operator15builtin_optionsEv
 2070 1620 005050E2 		subs	r5, r0, #0
 2071 1624 27FBFF0A 		beq	.L233
 2072 1628 0020A0E3 		mov	r2, #0
 2073 162c 0410A0E3 		mov	r1, #4
 2074 1630 FEFFFFEB 		bl	_ZNK11flatbuffers5Table8GetFieldIlEET_tS2_
 2075 1634 0020A0E3 		mov	r2, #0
 2076 1638 000084E5 		str	r0, [r4]
 2077 163c 0610A0E3 		mov	r1, #6
 2078 1640 0500A0E1 		mov	r0, r5
 2079 1644 FEFFFFEB 		bl	_ZNK11flatbuffers5Table8GetFieldIlEET_tS2_
 2080 1648 040084E5 		str	r0, [r4, #4]
 2081 164c 1DFBFFEA 		b	.L233
 2082              	.L155:
 2083 1650 003094E5 		ldr	r3, [r4]
 2084 1654 0410A0E3 		mov	r1, #4
 2085 1658 0400A0E1 		mov	r0, r4
 2086 165c 003093E5 		ldr	r3, [r3]
 2087 1660 33FF2FE1 		blx	r3
 2088 1664 0040A0E1 		mov	r4, r0
 2089 1668 0500A0E1 		mov	r0, r5
 2090 166c FEFFFFEB 		bl	_ZNK6tflite8Operator20builtin_options_typeEv
 2091 1670 4B0050E3 		cmp	r0, #75
 2092 1674 13FBFF1A 		bne	.L233
 2093 1678 0500A0E1 		mov	r0, r5
 2094 167c FEFFFFEB 		bl	_ZNK6tflite8Operator15builtin_optionsEv
 2095 1680 000050E3 		cmp	r0, #0
 2096 1684 0FFBFF0A 		beq	.L233
 2097 1688 980A9FED 		vldr.32	s0, .L433
 2098 168c 0410A0E3 		mov	r1, #4
 2099 1690 FEFFFFEB 		bl	_ZNK11flatbuffers5Table8GetFieldIfEET_tS2_
 2100 1694 000A84ED 		vstr.32	s0, [r4]
 2101 1698 0AFBFFEA 		b	.L233
 2102              	.L156:
 2103 169c 003094E5 		ldr	r3, [r4]
 2104 16a0 0110A0E3 		mov	r1, #1
 2105 16a4 0400A0E1 		mov	r0, r4
 2106 16a8 003093E5 		ldr	r3, [r3]
 2107 16ac 33FF2FE1 		blx	r3
 2108 16b0 0040A0E1 		mov	r4, r0
 2109 16b4 0500A0E1 		mov	r0, r5
 2110 16b8 FEFFFFEB 		bl	_ZNK6tflite8Operator20builtin_options_typeEv
 2111 16bc 4D0050E3 		cmp	r0, #77
 2112 16c0 00FBFF1A 		bne	.L233
 2113 16c4 0500A0E1 		mov	r0, r5
 2114 16c8 FEFFFFEB 		bl	_ZNK6tflite8Operator15builtin_optionsEv
 2115 16cc 000050E3 		cmp	r0, #0
 2116 16d0 FCFAFF0A 		beq	.L233
 2117 16d4 0020A0E3 		mov	r2, #0
 2118 16d8 0410A0E3 		mov	r1, #4
 2119 16dc FEFFFFEB 		bl	_ZNK11flatbuffers5Table8GetFieldIaEET_tS2_
 2120 16e0 000050E3 		cmp	r0, #0
 2121 16e4 0130A003 		moveq	r3, #1
 2122 16e8 0230A013 		movne	r3, #2
 2123 16ec 0030C4E5 		strb	r3, [r4]
 2124 16f0 F4FAFFEA 		b	.L233
 2125              	.L158:
 2126 16f4 003094E5 		ldr	r3, [r4]
 2127 16f8 0110A0E3 		mov	r1, #1
 2128 16fc 0400A0E1 		mov	r0, r4
 2129 1700 003093E5 		ldr	r3, [r3]
 2130 1704 33FF2FE1 		blx	r3
 2131 1708 0040A0E1 		mov	r4, r0
 2132 170c 0500A0E1 		mov	r0, r5
 2133 1710 FEFFFFEB 		bl	_ZNK6tflite8Operator20builtin_options_typeEv
 2134 1714 500050E3 		cmp	r0, #80
 2135 1718 EAFAFF1A 		bne	.L233
 2136 171c 0500A0E1 		mov	r0, r5
 2137 1720 FEFFFFEB 		bl	_ZNK6tflite8Operator15builtin_optionsEv
 2138 1724 000050E3 		cmp	r0, #0
 2139 1728 E6FAFF0A 		beq	.L233
 2140 172c 0220A0E3 		mov	r2, #2
 2141 1730 0410A0E3 		mov	r1, #4
 2142 1734 FEFFFFEB 		bl	_ZNK11flatbuffers5Table8GetFieldIaEET_tS2_
 2143 1738 040050E3 		cmp	r0, #4
 2144 173c 0430A003 		moveq	r3, #4
 2145 1740 0230A013 		movne	r3, #2
 2146 1744 0030C4E5 		strb	r3, [r4]
 2147 1748 DEFAFFEA 		b	.L233
 2148              	.L159:
 2149 174c 003094E5 		ldr	r3, [r4]
 2150 1750 0810A0E3 		mov	r1, #8
 2151 1754 0400A0E1 		mov	r0, r4
 2152 1758 003093E5 		ldr	r3, [r3]
 2153 175c 33FF2FE1 		blx	r3
 2154 1760 0040A0E1 		mov	r4, r0
 2155 1764 0500A0E1 		mov	r0, r5
 2156 1768 FEFFFFEB 		bl	_ZNK6tflite8Operator20builtin_options_typeEv
 2157 176c 570050E3 		cmp	r0, #87
 2158 1770 D4FAFF1A 		bne	.L233
 2159 1774 0500A0E1 		mov	r0, r5
 2160 1778 FEFFFFEB 		bl	_ZNK6tflite8Operator15builtin_optionsEv
 2161 177c 005050E2 		subs	r5, r0, #0
 2162 1780 D0FAFF0A 		beq	.L233
 2163 1784 0020A0E3 		mov	r2, #0
 2164 1788 0410A0E3 		mov	r1, #4
 2165 178c FEFFFFEB 		bl	_ZNK11flatbuffers5Table8GetFieldIlEET_tS2_
 2166 1790 0020A0E3 		mov	r2, #0
 2167 1794 000084E5 		str	r0, [r4]
 2168 1798 0610A0E3 		mov	r1, #6
 2169 179c 0500A0E1 		mov	r0, r5
 2170 17a0 FEFFFFEB 		bl	_ZNK11flatbuffers5Table8GetFieldIlEET_tS2_
 2171 17a4 040084E5 		str	r0, [r4, #4]
 2172 17a8 C6FAFFEA 		b	.L233
 2173              	.L160:
 2174 17ac 003094E5 		ldr	r3, [r4]
 2175 17b0 0810A0E3 		mov	r1, #8
 2176 17b4 0400A0E1 		mov	r0, r4
 2177 17b8 003093E5 		ldr	r3, [r3]
 2178 17bc 33FF2FE1 		blx	r3
 2179 17c0 0040A0E1 		mov	r4, r0
 2180 17c4 0500A0E1 		mov	r0, r5
 2181 17c8 FEFFFFEB 		bl	_ZNK6tflite8Operator20builtin_options_typeEv
 2182 17cc 5C0050E3 		cmp	r0, #92
 2183 17d0 BCFAFF1A 		bne	.L233
 2184 17d4 0500A0E1 		mov	r0, r5
 2185 17d8 FEFFFFEB 		bl	_ZNK6tflite8Operator15builtin_optionsEv
 2186 17dc 005050E2 		subs	r5, r0, #0
 2187 17e0 B8FAFF0A 		beq	.L233
 2188 17e4 0020A0E3 		mov	r2, #0
 2189 17e8 0410A0E3 		mov	r1, #4
 2190 17ec FEFFFFEB 		bl	_ZNK11flatbuffers5Table8GetFieldIlEET_tS2_
 2191 17f0 0020A0E3 		mov	r2, #0
 2192 17f4 000084E5 		str	r0, [r4]
 2193 17f8 0610A0E3 		mov	r1, #6
 2194 17fc 0500A0E1 		mov	r0, r5
 2195 1800 FEFFFFEB 		bl	_ZNK11flatbuffers5Table8GetFieldIlEET_tS2_
 2196 1804 040084E5 		str	r0, [r4, #4]
 2197 1808 AEFAFFEA 		b	.L233
 2198              	.L161:
 2199 180c 003094E5 		ldr	r3, [r4]
 2200 1810 0810A0E3 		mov	r1, #8
 2201 1814 0400A0E1 		mov	r0, r4
 2202 1818 003093E5 		ldr	r3, [r3]
 2203 181c 33FF2FE1 		blx	r3
 2204 1820 0040A0E1 		mov	r4, r0
 2205 1824 0500A0E1 		mov	r0, r5
 2206 1828 FEFFFFEB 		bl	_ZNK6tflite8Operator20builtin_options_typeEv
 2207 182c 5D0050E3 		cmp	r0, #93
 2208 1830 A4FAFF1A 		bne	.L233
 2209 1834 0500A0E1 		mov	r0, r5
 2210 1838 FEFFFFEB 		bl	_ZNK6tflite8Operator15builtin_optionsEv
 2211 183c 005050E2 		subs	r5, r0, #0
 2212 1840 A0FAFF0A 		beq	.L233
 2213 1844 0020A0E3 		mov	r2, #0
 2214 1848 0410A0E3 		mov	r1, #4
 2215 184c FEFFFFEB 		bl	_ZNK11flatbuffers5Table8GetFieldIlEET_tS2_
 2216 1850 0020A0E3 		mov	r2, #0
 2217 1854 000084E5 		str	r0, [r4]
 2218 1858 0610A0E3 		mov	r1, #6
 2219 185c 0500A0E1 		mov	r0, r5
 2220 1860 FEFFFFEB 		bl	_ZNK11flatbuffers5Table8GetFieldIlEET_tS2_
 2221 1864 040084E5 		str	r0, [r4, #4]
 2222 1868 96FAFFEA 		b	.L233
 2223              	.L251:
 2224 186c 0D00A0E1 		mov	r0, sp
 2225 1870 FEFFFFEB 		bl	_ZNSt10unique_ptrI16TfLiteCastParamsN6tflite12_GLOBAL__N_124SafeBuiltinDataAllocator18BuiltinDa
 2226              	.L429:
 2227 1874 FEFFFFEB 		bl	__cxa_end_cleanup
 2228              	.LEHE16:
 2229              	.L252:
 2230 1878 0D00A0E1 		mov	r0, sp
 2231 187c FEFFFFEB 		bl	_ZNSt10unique_ptrI26TfLiteFullyConnectedParamsN6tflite12_GLOBAL__N_124SafeBuiltinDataAllocator1
 2232 1880 FBFFFFEA 		b	.L429
 2233              	.L253:
 2234 1884 0D00A0E1 		mov	r0, sp
 2235 1888 FEFFFFEB 		bl	_ZNSt10unique_ptrI16TfLiteLSTMParamsN6tflite12_GLOBAL__N_124SafeBuiltinDataAllocator18BuiltinDa
 2236 188c F8FFFFEA 		b	.L429
 2237              	.L254:
 2238 1890 0D00A0E1 		mov	r0, sp
 2239 1894 FEFFFFEB 		bl	_ZNSt10unique_ptrI19TfLiteReshapeParamsN6tflite12_GLOBAL__N_124SafeBuiltinDataAllocator18Builti
 2240 1898 F5FFFFEA 		b	.L429
 2241              	.L255:
 2242 189c 0D00A0E1 		mov	r0, sp
 2243 18a0 FEFFFFEB 		bl	_ZNSt10unique_ptrI19TfLiteSqueezeParamsN6tflite12_GLOBAL__N_124SafeBuiltinDataAllocator18Builti
 2244 18a4 F2FFFFEA 		b	.L429
 2245              	.L256:
 2246 18a8 04109DE5 		ldr	r1, [sp, #4]
 2247 18ac 000051E3 		cmp	r1, #0
 2248 18b0 EFFFFF0A 		beq	.L429
 2249 18b4 0D00A0E1 		mov	r0, sp
 2250 18b8 FEFFFFEB 		bl	_ZN6tflite12_GLOBAL__N_124SafeBuiltinDataAllocator18BuiltinDataDeleterclEPv
 2251 18bc ECFFFFEA 		b	.L429
 2252              	.L257:
 2253 18c0 04109DE5 		ldr	r1, [sp, #4]
 2254 18c4 000051E3 		cmp	r1, #0
 2255 18c8 E9FFFF0A 		beq	.L429
 2256 18cc 0D00A0E1 		mov	r0, sp
 2257 18d0 FEFFFFEB 		bl	_ZN6tflite12_GLOBAL__N_124SafeBuiltinDataAllocator18BuiltinDataDeleterclEPv
 2258 18d4 E6FFFFEA 		b	.L429
 2259              	.L258:
 2260 18d8 04109DE5 		ldr	r1, [sp, #4]
 2261 18dc 000051E3 		cmp	r1, #0
 2262 18e0 E3FFFF0A 		beq	.L429
 2263 18e4 0D00A0E1 		mov	r0, sp
 2264 18e8 FEFFFFEB 		bl	_ZN6tflite12_GLOBAL__N_124SafeBuiltinDataAllocator18BuiltinDataDeleterclEPv
 2265 18ec E0FFFFEA 		b	.L429
 2266              	.L434:
 2267              		.align	2
 2268              	.L433:
 2269 18f0 00000000 		.word	0
 2270              		.personality	__gxx_personality_v0
 2271              		.handlerdata
 2272              	.LLSDA6095:
 2273 0008 FF       		.byte	0xff
 2274 0009 FF       		.byte	0xff
 2275 000a 01       		.byte	0x1
 2276 000b 65       		.uleb128 .LLSDACSE6095-.LLSDACSB6095
 2277              	.LLSDACSB6095:
 2278 000c 9804     		.uleb128 .LEHB0-.LFB6095
 2279 000e CC01     		.uleb128 .LEHE0-.LEHB0
 2280 0010 00       		.uleb128 0
 2281 0011 00       		.uleb128 0
 2282 0012 A406     		.uleb128 .LEHB1-.LFB6095
 2283 0014 2C       		.uleb128 .LEHE1-.LEHB1
 2284 0015 EC30     		.uleb128 .L251-.LFB6095
 2285 0017 00       		.uleb128 0
 2286 0018 A007     		.uleb128 .LEHB2-.LFB6095
 2287 001a 9808     		.uleb128 .LEHE2-.LEHB2
 2288 001c 00       		.uleb128 0
 2289 001d 00       		.uleb128 0
 2290 001e C010     		.uleb128 .LEHB3-.LFB6095
 2291 0020 04       		.uleb128 .LEHE3-.LEHB3
 2292 0021 F830     		.uleb128 .L252-.LFB6095
 2293 0023 00       		.uleb128 0
 2294 0024 8011     		.uleb128 .LEHB4-.LFB6095
 2295 0026 E405     		.uleb128 .LEHE4-.LEHB4
 2296 0028 00       		.uleb128 0
 2297 0029 00       		.uleb128 0
 2298 002a F817     		.uleb128 .LEHB5-.LFB6095
 2299 002c 30       		.uleb128 .LEHE5-.LEHB5
 2300 002d 8431     		.uleb128 .L253-.LFB6095
 2301 002f 00       		.uleb128 0
 2302 0030 E018     		.uleb128 .LEHB6-.LFB6095
 2303 0032 A404     		.uleb128 .LEHE6-.LEHB6
 2304 0034 00       		.uleb128 0
 2305 0035 00       		.uleb128 0
 2306 0036 D81D     		.uleb128 .LEHB7-.LFB6095
 2307 0038 04       		.uleb128 .LEHE7-.LEHB7
 2308 0039 9031     		.uleb128 .L254-.LFB6095
 2309 003b 00       		.uleb128 0
 2310 003c A81E     		.uleb128 .LEHB8-.LFB6095
 2311 003e D804     		.uleb128 .LEHE8-.LEHB8
 2312 0040 00       		.uleb128 0
 2313 0041 00       		.uleb128 0
 2314 0042 D423     		.uleb128 .LEHB9-.LFB6095
 2315 0044 04       		.uleb128 .LEHE9-.LEHB9
 2316 0045 9C31     		.uleb128 .L255-.LFB6095
 2317 0047 00       		.uleb128 0
 2318 0048 A424     		.uleb128 .LEHB10-.LFB6095
 2319 004a A001     		.uleb128 .LEHE10-.LEHB10
 2320 004c 00       		.uleb128 0
 2321 004d 00       		.uleb128 0
 2322 004e 9426     		.uleb128 .LEHB11-.LFB6095
 2323 0050 04       		.uleb128 .LEHE11-.LEHB11
 2324 0051 A831     		.uleb128 .L256-.LFB6095
 2325 0053 00       		.uleb128 0
 2326 0054 AC26     		.uleb128 .LEHB12-.LFB6095
 2327 0056 04       		.uleb128 .LEHE12-.LEHB12
 2328 0057 00       		.uleb128 0
 2329 0058 00       		.uleb128 0
 2330 0059 F026     		.uleb128 .LEHB13-.LFB6095
 2331 005b 04       		.uleb128 .LEHE13-.LEHB13
 2332 005c C031     		.uleb128 .L257-.LFB6095
 2333 005e 00       		.uleb128 0
 2334 005f 8827     		.uleb128 .LEHB14-.LFB6095
 2335 0061 D401     		.uleb128 .LEHE14-.LEHB14
 2336 0063 00       		.uleb128 0
 2337 0064 00       		.uleb128 0
 2338 0065 9C29     		.uleb128 .LEHB15-.LFB6095
 2339 0067 04       		.uleb128 .LEHE15-.LEHB15
 2340 0068 D831     		.uleb128 .L258-.LFB6095
 2341 006a 00       		.uleb128 0
 2342 006b B429     		.uleb128 .LEHB16-.LFB6095
 2343 006d C407     		.uleb128 .LEHE16-.LEHB16
 2344 006f 00       		.uleb128 0
 2345 0070 00       		.uleb128 0
 2346              	.LLSDACSE6095:
 2347              		.section	.text._ZN6tflite11ParseOpDataEPKNS_8OperatorENS_15BuiltinOperatorEPNS_13ErrorReporterEPNS
 2348              		.fnend
 2350              		.weak	_ZN11flatbuffers25flatbuffer_version_stringE
 2351              		.section	.data._ZN11flatbuffers25flatbuffer_version_stringE,"aw",%progbits
 2352              		.align	2
 2355              	_ZN11flatbuffers25flatbuffer_version_stringE:
 2356 0000 00000000 		.word	.LC9
 2357              		.section	.rodata.CSWTCH.70,"a",%progbits
 2358              		.set	.LANCHOR0,. + 0
 2361              	CSWTCH.70:
 2362 0000 01       		.byte	1
 2363 0001 02       		.byte	2
 2364 0002 03       		.byte	3
 2365 0003 04       		.byte	4
 2366 0004 05       		.byte	5
 2367              		.section	.rodata._ZN6tflite11ParseOpDataEPKNS_8OperatorENS_15BuiltinOperatorEPNS_13ErrorReporterEP
 2368              	.LC3:
 2369 0000 556E6861 		.ascii	"Unhandled fully-connected weights format.\000"
 2369      6E646C65 
 2369      64206675 
 2369      6C6C792D 
 2369      636F6E6E 
 2370              	.LC4:
 2371 002a 556E6861 		.ascii	"Unhandled LSTM kernel type: %d\000"
 2371      6E646C65 
 2371      64204C53 
 2371      544D206B 
 2371      65726E65 
 2372              	.LC5:
 2373 0049 4E6F2076 		.ascii	"No valid LSTM builtin options exist\000"
 2373      616C6964 
 2373      204C5354 
 2373      4D206275 
 2373      696C7469 
 2374              	.LC6:
 2375 006d 72657368 		.ascii	"reshape\000"
 2375      61706500 
 2376              	.LC7:
 2377 0075 73717565 		.ascii	"squeeze\000"
 2377      657A6500 
 2378              	.LC8:
 2379 007d 44454C45 		.ascii	"DELEGATE op shouldn't exist in model.\000"
 2379      47415445 
 2379      206F7020 
 2379      73686F75 
 2379      6C646E27 
 2380              		.section	.rodata._ZN6tflite12_GLOBAL__N_126FlatBufferIntVectorToArrayEiPKN11flatbuffers6VectorIlEE
 2381              	.LC0:
 2382 0000 496E7075 		.ascii	"Input array not provided for operation '%s'.\012\000"
 2382      74206172 
 2382      72617920 
 2382      6E6F7420 
 2382      70726F76 
 2383              	.LC1:
 2384 002e 466F756E 		.ascii	"Found too many dimensions in the input array of ope"
 2384      6420746F 
 2384      6F206D61 
 2384      6E792064 
 2384      696D656E 
 2385 0061 72617469 		.ascii	"ration '%s'.\012\000"
 2385      6F6E2027 
 2385      2573272E 
 2385      0A00
 2386              		.section	.rodata._ZN6tflite17ConvertTensorTypeENS_10TensorTypeEP10TfLiteTypePNS_13ErrorReporterE.s
 2387              	.LC2:
 2388 0000 556E7375 		.ascii	"Unsupported data type %d in tensor\012\000"
 2388      70706F72 
 2388      74656420 
 2388      64617461 
 2388      20747970 
 2389              		.section	.rodata.str1.1,"aMS",%progbits,1
 2390              	.LC9:
 2391 0000 466C6174 		.ascii	"FlatBuffers 1.11.0\000"
 2391      42756666 
 2391      65727320 
 2391      312E3131 
 2391      2E3000
 2392              		.ident	"GCC: (GNU Tools for ARM Embedded Processors 6-2017-q2-update) 6.3.1 20170620 (release) [AR