   1              		.cpu cortex-a9
   2              		.eabi_attribute 28, 1
   3              		.eabi_attribute 20, 1
   4              		.eabi_attribute 21, 1
   5              		.eabi_attribute 23, 3
   6              		.eabi_attribute 24, 1
   7              		.eabi_attribute 25, 1
   8              		.eabi_attribute 26, 1
   9              		.eabi_attribute 30, 2
  10              		.eabi_attribute 34, 0
  11              		.eabi_attribute 18, 4
  12              		.file	"comparisons.cc"
  13              		.section	.text._ZN6tflite3ops5micro11comparisons4InitEP13TfLiteContextPKcj,"ax",%progbits
  14              		.align	2
  15              		.global	_ZN6tflite3ops5micro11comparisons4InitEP13TfLiteContextPKcj
  16              		.syntax unified
  17              		.arm
  18              		.fpu neon
  20              	_ZN6tflite3ops5micro11comparisons4InitEP13TfLiteContextPKcj:
  21              		.fnstart
  22              	.LFB4293:
  23              		@ args = 0, pretend = 0, frame = 0
  24              		@ frame_needed = 0, uses_anonymous_args = 0
  25 0000 383090E5 		ldr	r3, [r0, #56]
  26 0004 000053E3 		cmp	r3, #0
  27 0008 0100000A 		beq	.L7
  28 000c 2010A0E3 		mov	r1, #32
  29 0010 13FF2FE1 		bx	r3
  30              	.L7:
  31 0014 10402DE9 		push	{r4, lr}
  32              		.save {r4, lr}
  33 0018 FEFFFFEB 		bl	abort
  34              		.fnend
  36              		.section	.text._ZN6tflite3ops5micro11comparisons7PrepareEP13TfLiteContextP10TfLiteNode,"ax",%progb
  37              		.align	2
  38              		.global	_ZN6tflite3ops5micro11comparisons7PrepareEP13TfLiteContextP10TfLiteNode
  39              		.syntax unified
  40              		.arm
  41              		.fpu neon
  43              	_ZN6tflite3ops5micro11comparisons7PrepareEP13TfLiteContextP10TfLiteNode:
  44              		.fnstart
  45              	.LFB4294:
  46              		@ args = 0, pretend = 0, frame = 16
  47              		@ frame_needed = 0, uses_anonymous_args = 0
  48 0000 F0402DE9 		push	{r4, r5, r6, r7, lr}
  49              		.save {r4, r5, r6, r7, lr}
  50              		.pad #20
  51 0004 14D04DE2 		sub	sp, sp, #20
  52 0008 104091E5 		ldr	r4, [r1, #16]
  53 000c 000054E3 		cmp	r4, #0
  54 0010 3300000A 		beq	.L18
  55 0014 0020A0E3 		mov	r2, #0
  56 0018 0150A0E1 		mov	r5, r1
  57 001c 0070A0E1 		mov	r7, r0
  58 0020 FEFFFFEB 		bl	_ZN6tflite8GetInputEPK13TfLiteContextPK10TfLiteNodei
  59 0024 006050E2 		subs	r6, r0, #0
  60 0028 2A00000A 		beq	.L12
  61 002c 0510A0E1 		mov	r1, r5
  62 0030 0700A0E1 		mov	r0, r7
  63 0034 0120A0E3 		mov	r2, #1
  64 0038 FEFFFFEB 		bl	_ZN6tflite8GetInputEPK13TfLiteContextPK10TfLiteNodei
  65 003c 005050E2 		subs	r5, r0, #0
  66 0040 2400000A 		beq	.L12
  67 0044 0000D6E5 		ldrb	r0, [r6]	@ zero_extendqisi2
  68 0048 090050E3 		cmp	r0, #9
  69 004c 03005013 		cmpne	r0, #3
  70 0050 0100A003 		moveq	r0, #1
  71 0054 0000A013 		movne	r0, #0
  72 0058 0100000A 		beq	.L19
  73 005c 14D08DE2 		add	sp, sp, #20
  74              		@ sp needed
  75 0060 F080BDE8 		pop	{r4, r5, r6, r7, pc}
  76              	.L19:
  77 0064 030A96ED 		vldr.32	s0, [r6, #12]
  78 0068 04108DE2 		add	r1, sp, #4
  79 006c 0D00A0E1 		mov	r0, sp
  80 0070 107096E5 		ldr	r7, [r6, #16]
  81 0074 106095E5 		ldr	r6, [r5, #16]
  82 0078 C00AB7EE 		vcvt.f64.f32	d0, s0
  83 007c 007067E2 		rsb	r7, r7, #0
  84 0080 FEFFFFEB 		bl	_ZN6tflite35QuantizeMultiplierSmallerThanOneExpEdPlPi
  85 0084 0C108DE2 		add	r1, sp, #12
  86 0088 08008DE2 		add	r0, sp, #8
  87 008c 006066E2 		rsb	r6, r6, #0
  88 0090 030A95ED 		vldr.32	s0, [r5, #12]
  89 0094 C00AB7EE 		vcvt.f64.f32	d0, s0
  90 0098 FEFFFFEB 		bl	_ZN6tflite35QuantizeMultiplierSmallerThanOneExpEdPlPi
  91 009c 00E09DE5 		ldr	lr, [sp]
  92 00a0 0830A0E3 		mov	r3, #8
  93 00a4 04C09DE5 		ldr	ip, [sp, #4]
  94 00a8 0000A0E3 		mov	r0, #0
  95 00ac 08109DE5 		ldr	r1, [sp, #8]
  96 00b0 0C209DE5 		ldr	r2, [sp, #12]
  97 00b4 047084E5 		str	r7, [r4, #4]
  98 00b8 106084E5 		str	r6, [r4, #16]
  99 00bc 08E084E5 		str	lr, [r4, #8]
 100 00c0 0CC084E5 		str	ip, [r4, #12]
 101 00c4 141084E5 		str	r1, [r4, #20]
 102 00c8 182084E5 		str	r2, [r4, #24]
 103 00cc 003084E5 		str	r3, [r4]
 104 00d0 14D08DE2 		add	sp, sp, #20
 105              		@ sp needed
 106 00d4 F080BDE8 		pop	{r4, r5, r6, r7, pc}
 107              	.L12:
 108 00d8 0100A0E3 		mov	r0, #1
 109 00dc 14D08DE2 		add	sp, sp, #20
 110              		@ sp needed
 111 00e0 F080BDE8 		pop	{r4, r5, r6, r7, pc}
 112              	.L18:
 113 00e4 FEFFFFEB 		bl	abort
 114              		.fnend
 116              		.section	.text._ZN6tflite16MatchingFlatSizeERKNS_12RuntimeShapeES2_S2_,"axG",%progbits,_ZN6tflite1
 117              		.align	2
 118              		.weak	_ZN6tflite16MatchingFlatSizeERKNS_12RuntimeShapeES2_S2_
 119              		.syntax unified
 120              		.arm
 121              		.fpu neon
 123              	_ZN6tflite16MatchingFlatSizeERKNS_12RuntimeShapeES2_S2_:
 124              		.fnstart
 125              	.LFB4131:
 126              		@ args = 0, pretend = 0, frame = 0
 127              		@ frame_needed = 0, uses_anonymous_args = 0
 128 0000 003090E5 		ldr	r3, [r0]
 129 0004 00C091E5 		ldr	ip, [r1]
 130 0008 70402DE9 		push	{r4, r5, r6, lr}
 131              		.save {r4, r5, r6, lr}
 132 000c 0C0053E1 		cmp	r3, ip
 133 0010 AE00001A 		bne	.L21
 134 0014 000053E3 		cmp	r3, #0
 135 0018 930000DA 		ble	.L78
 136 001c 050053E3 		cmp	r3, #5
 137 0020 9D0000CA 		bgt	.L24
 138 0024 04E090E5 		ldr	lr, [r0, #4]
 139 0028 04C091E5 		ldr	ip, [r1, #4]
 140 002c 0C005EE1 		cmp	lr, ip
 141 0030 A600001A 		bne	.L21
 142 0034 010053E3 		cmp	r3, #1
 143 0038 1500000A 		beq	.L25
 144 003c 08E090E5 		ldr	lr, [r0, #8]
 145 0040 08C091E5 		ldr	ip, [r1, #8]
 146 0044 0C005EE1 		cmp	lr, ip
 147 0048 A000001A 		bne	.L21
 148 004c 020053E3 		cmp	r3, #2
 149 0050 0F00000A 		beq	.L25
 150 0054 0CE090E5 		ldr	lr, [r0, #12]
 151 0058 0CC091E5 		ldr	ip, [r1, #12]
 152 005c 0C005EE1 		cmp	lr, ip
 153 0060 9A00001A 		bne	.L21
 154 0064 030053E3 		cmp	r3, #3
 155 0068 0900000A 		beq	.L25
 156 006c 10E090E5 		ldr	lr, [r0, #16]
 157 0070 10C091E5 		ldr	ip, [r1, #16]
 158 0074 0C005EE1 		cmp	lr, ip
 159 0078 9400001A 		bne	.L21
 160 007c 040053E3 		cmp	r3, #4
 161 0080 0300000A 		beq	.L25
 162 0084 14C091E5 		ldr	ip, [r1, #20]
 163 0088 141090E5 		ldr	r1, [r0, #20]
 164 008c 01005CE1 		cmp	ip, r1
 165 0090 8E00001A 		bne	.L21
 166              	.L25:
 167 0094 001092E5 		ldr	r1, [r2]
 168 0098 010053E1 		cmp	r3, r1
 169 009c 8B00001A 		bne	.L21
 170 00a0 050053E3 		cmp	r3, #5
 171 00a4 04C090E5 		ldr	ip, [r0, #4]
 172 00a8 890000CA 		bgt	.L27
 173 00ac 041092E5 		ldr	r1, [r2, #4]
 174 00b0 01005CE1 		cmp	ip, r1
 175 00b4 8500001A 		bne	.L21
 176 00b8 010053E3 		cmp	r3, #1
 177 00bc 150000DA 		ble	.L28
 178 00c0 08C090E5 		ldr	ip, [r0, #8]
 179 00c4 081092E5 		ldr	r1, [r2, #8]
 180 00c8 01005CE1 		cmp	ip, r1
 181 00cc 7F00001A 		bne	.L21
 182 00d0 020053E3 		cmp	r3, #2
 183 00d4 6700000A 		beq	.L30
 184 00d8 0CC090E5 		ldr	ip, [r0, #12]
 185 00dc 0C1092E5 		ldr	r1, [r2, #12]
 186 00e0 01005CE1 		cmp	ip, r1
 187 00e4 7900001A 		bne	.L21
 188 00e8 030053E3 		cmp	r3, #3
 189 00ec 6100000A 		beq	.L30
 190 00f0 10C090E5 		ldr	ip, [r0, #16]
 191 00f4 101092E5 		ldr	r1, [r2, #16]
 192 00f8 01005CE1 		cmp	ip, r1
 193 00fc 7300001A 		bne	.L21
 194 0100 040053E3 		cmp	r3, #4
 195 0104 5B00000A 		beq	.L30
 196 0108 141092E5 		ldr	r1, [r2, #20]
 197 010c 142090E5 		ldr	r2, [r0, #20]
 198 0110 020051E1 		cmp	r1, r2
 199 0114 6D00001A 		bne	.L21
 200              	.L28:
 201 0118 050053E3 		cmp	r3, #5
 202 011c 550000DA 		ble	.L30
 203 0120 04E090E5 		ldr	lr, [r0, #4]
 204              	.L31:
 205 0124 5E21A0E7 		sbfx	r2, lr, #2, #1
 206 0128 032002E2 		and	r2, r2, #3
 207 012c 030052E1 		cmp	r2, r3
 208 0130 0320A021 		movcs	r2, r3
 209 0134 080053E3 		cmp	r3, #8
 210 0138 0320A0D1 		movle	r2, r3
 211 013c 720000CA 		bgt	.L79
 212              	.L33:
 213 0140 010052E3 		cmp	r2, #1
 214 0144 00009EE5 		ldr	r0, [lr]
 215 0148 4F00000A 		beq	.L52
 216 014c 04109EE5 		ldr	r1, [lr, #4]
 217 0150 020052E3 		cmp	r2, #2
 218 0154 910000E0 		mul	r0, r1, r0
 219 0158 4B00000A 		beq	.L52
 220 015c 08109EE5 		ldr	r1, [lr, #8]
 221 0160 030052E3 		cmp	r2, #3
 222 0164 910000E0 		mul	r0, r1, r0
 223 0168 4700000A 		beq	.L52
 224 016c 0C109EE5 		ldr	r1, [lr, #12]
 225 0170 040052E3 		cmp	r2, #4
 226 0174 910000E0 		mul	r0, r1, r0
 227 0178 4300000A 		beq	.L52
 228 017c 10109EE5 		ldr	r1, [lr, #16]
 229 0180 050052E3 		cmp	r2, #5
 230 0184 910000E0 		mul	r0, r1, r0
 231 0188 3F00000A 		beq	.L52
 232 018c 14109EE5 		ldr	r1, [lr, #20]
 233 0190 060052E3 		cmp	r2, #6
 234 0194 910000E0 		mul	r0, r1, r0
 235 0198 3B00000A 		beq	.L52
 236 019c 18109EE5 		ldr	r1, [lr, #24]
 237 01a0 070052E3 		cmp	r2, #7
 238 01a4 910000E0 		mul	r0, r1, r0
 239 01a8 3700000A 		beq	.L52
 240 01ac 1C109EE5 		ldr	r1, [lr, #28]
 241 01b0 020053E1 		cmp	r3, r2
 242 01b4 0840A0E3 		mov	r4, #8
 243 01b8 910000E0 		mul	r0, r1, r0
 244 01bc 3500000A 		beq	.L80
 245              	.L34:
 246 01c0 025043E0 		sub	r5, r3, r2
 247 01c4 011043E2 		sub	r1, r3, #1
 248 01c8 04C045E2 		sub	ip, r5, #4
 249 01cc 021041E0 		sub	r1, r1, r2
 250 01d0 2CC1A0E1 		lsr	ip, ip, #2
 251 01d4 020051E3 		cmp	r1, #2
 252 01d8 01C08CE2 		add	ip, ip, #1
 253 01dc 0C61A0E1 		lsl	r6, ip, #2
 254 01e0 1200009A 		bls	.L37
 255 01e4 02218EE0 		add	r2, lr, r2, lsl #2
 256 01e8 5100C0F2 		vmov.i32	q8, #1  @ v4si
 257 01ec 0010A0E3 		mov	r1, #0
 258              	.L39:
 259 01f0 011081E2 		add	r1, r1, #1
 260 01f4 DF2A62F4 		vld1.64	{d18-d19}, [r2:64]
 261 01f8 01005CE1 		cmp	ip, r1
 262 01fc 102082E2 		add	r2, r2, #16
 263 0200 F20960F2 		vmul.i32	q8, q8, q9
 264 0204 F9FFFF8A 		bhi	.L39
 265 0208 050056E1 		cmp	r6, r5
 266 020c 064084E0 		add	r4, r4, r6
 267 0210 5020C0F2 		vmov.i32	q9, #0  @ v4si
 268 0214 E248F0F2 		vext.32	q10, q8, q9, #2
 269 0218 F40960F2 		vmul.i32	q8, q8, q10
 270 021c E224F0F2 		vext.32	q9, q8, q9, #1
 271 0220 F20960F2 		vmul.i32	q8, q8, q9
 272 0224 901B10EE 		vmov.32	r1, d16[0]
 273 0228 910000E0 		mul	r0, r1, r0
 274 022c 7080BD08 		popeq	{r4, r5, r6, pc}
 275              	.L37:
 276 0230 04119EE7 		ldr	r1, [lr, r4, lsl #2]
 277 0234 012084E2 		add	r2, r4, #1
 278 0238 020053E1 		cmp	r3, r2
 279 023c 0421A0E1 		lsl	r2, r4, #2
 280 0240 910000E0 		mul	r0, r1, r0
 281 0244 7080BDD8 		pople	{r4, r5, r6, pc}
 282 0248 02208EE0 		add	r2, lr, r2
 283 024c 021084E2 		add	r1, r4, #2
 284 0250 04C092E5 		ldr	ip, [r2, #4]
 285 0254 010053E1 		cmp	r3, r1
 286 0258 9C0000E0 		mul	r0, ip, r0
 287 025c 2F0000DA 		ble	.L81
 288 0260 083092E5 		ldr	r3, [r2, #8]
 289 0264 930000E0 		mul	r0, r3, r0
 290 0268 7080BDE8 		pop	{r4, r5, r6, pc}
 291              	.L78:
 292 026c 002092E5 		ldr	r2, [r2]
 293 0270 020053E1 		cmp	r3, r2
 294 0274 1500001A 		bne	.L21
 295              	.L30:
 296 0278 000053E3 		cmp	r3, #0
 297 027c 04E080E2 		add	lr, r0, #4
 298 0280 A7FFFFCA 		bgt	.L31
 299 0284 0100A0E3 		mov	r0, #1
 300 0288 7080BDE8 		pop	{r4, r5, r6, pc}
 301              	.L52:
 302 028c 020053E1 		cmp	r3, r2
 303 0290 0240A0E1 		mov	r4, r2
 304 0294 C9FFFF1A 		bne	.L34
 305              	.L80:
 306 0298 7080BDE8 		pop	{r4, r5, r6, pc}
 307              	.L24:
 308 029c 04E091E5 		ldr	lr, [r1, #4]
 309 02a0 0010A0E3 		mov	r1, #0
 310 02a4 04C090E5 		ldr	ip, [r0, #4]
 311 02a8 04E04EE2 		sub	lr, lr, #4
 312 02ac 04C04CE2 		sub	ip, ip, #4
 313 02b0 020000EA 		b	.L26
 314              	.L82:
 315 02b4 011081E2 		add	r1, r1, #1
 316 02b8 030051E1 		cmp	r1, r3
 317 02bc 74FFFF0A 		beq	.L25
 318              	.L26:
 319 02c0 0450BEE5 		ldr	r5, [lr, #4]!
 320 02c4 0440BCE5 		ldr	r4, [ip, #4]!
 321 02c8 040055E1 		cmp	r5, r4
 322 02cc F8FFFF0A 		beq	.L82
 323              	.L21:
 324 02d0 FEFFFFEB 		bl	abort
 325              	.L27:
 326 02d4 0010A0E3 		mov	r1, #0
 327 02d8 04C04CE2 		sub	ip, ip, #4
 328 02dc 060000EA 		b	.L29
 329              	.L83:
 330 02e0 044092E5 		ldr	r4, [r2, #4]
 331 02e4 014194E7 		ldr	r4, [r4, r1, lsl #2]
 332 02e8 0E0054E1 		cmp	r4, lr
 333 02ec F7FFFF1A 		bne	.L21
 334 02f0 011081E2 		add	r1, r1, #1
 335 02f4 010053E1 		cmp	r3, r1
 336 02f8 86FFFF0A 		beq	.L28
 337              	.L29:
 338 02fc 030051E1 		cmp	r1, r3
 339 0300 04E0BCE5 		ldr	lr, [ip, #4]!
 340 0304 F5FFFF1A 		bne	.L83
 341 0308 F0FFFFEA 		b	.L21
 342              	.L79:
 343 030c 000052E3 		cmp	r2, #0
 344 0310 0100A003 		moveq	r0, #1
 345 0314 0240A001 		moveq	r4, r2
 346 0318 A8FFFF0A 		beq	.L34
 347 031c 87FFFFEA 		b	.L33
 348              	.L81:
 349 0320 7080BDE8 		pop	{r4, r5, r6, pc}
 350              		.fnend
 352              		.section	.text._ZN6tflite13reference_ops35BroadcastComparison4DSlowPreprocessERKNS_12RuntimeShapeE
 353              		.align	2
 354              		.weak	_ZN6tflite13reference_ops35BroadcastComparison4DSlowPreprocessERKNS_12RuntimeShapeES3_S3_
 355              		.syntax unified
 356              		.arm
 357              		.fpu neon
 359              	_ZN6tflite13reference_ops35BroadcastComparison4DSlowPreprocessERKNS_12RuntimeShapeES3_S3_:
 360              		.fnstart
 361              	.LFB4220:
 362              		@ args = 0, pretend = 0, frame = 112
 363              		@ frame_needed = 0, uses_anonymous_args = 0
 364 0000 00C091E5 		ldr	ip, [r1]
 365 0004 F0412DE9 		push	{r4, r5, r6, r7, r8, lr}
 366              		.save {r4, r5, r6, r7, r8, lr}
 367              		.pad #112
 368 0008 70D04DE2 		sub	sp, sp, #112
 369 000c 04005CE3 		cmp	ip, #4
 370 0010 190000CA 		bgt	.L86
 371 0014 005092E5 		ldr	r5, [r2]
 372 0018 0270A0E1 		mov	r7, r2
 373 001c 040055E3 		cmp	r5, #4
 374 0020 150000CA 		bgt	.L86
 375 0024 0360A0E1 		mov	r6, r3
 376 0028 003093E5 		ldr	r3, [r3]
 377 002c 040053E3 		cmp	r3, #4
 378 0030 110000CA 		bgt	.L86
 379 0034 0040A0E1 		mov	r4, r0
 380 0038 04007CE2 		rsbs	r0, ip, #4
 381 003c 0430A0E3 		mov	r3, #4
 382 0040 00308DE5 		str	r3, [sp]
 383 0044 0D00000A 		beq	.L90
 384 0048 010050E3 		cmp	r0, #1
 385 004c 0130A0E3 		mov	r3, #1
 386 0050 04308DE5 		str	r3, [sp, #4]
 387 0054 0900000A 		beq	.L90
 388 0058 020050E3 		cmp	r0, #2
 389 005c 08308DE5 		str	r3, [sp, #8]
 390 0060 0600000A 		beq	.L90
 391 0064 030050E3 		cmp	r0, #3
 392 0068 0C308DE5 		str	r3, [sp, #12]
 393 006c 0300000A 		beq	.L90
 394 0070 040050E3 		cmp	r0, #4
 395 0074 10308DE5 		str	r3, [sp, #16]
 396 0078 0000000A 		beq	.L90
 397              	.L86:
 398              	.LEHB0:
 399 007c FEFFFFEB 		bl	abort
 400              	.LEHE0:
 401              	.L90:
 402 0080 04308DE2 		add	r3, sp, #4
 403 0084 0C21A0E1 		lsl	r2, ip, #2
 404 0088 000183E0 		add	r0, r3, r0, lsl #2
 405 008c 041081E2 		add	r1, r1, #4
 406 0090 FEFFFFEB 		bl	memcpy
 407 0094 040075E2 		rsbs	r0, r5, #4
 408 0098 0430A0E3 		mov	r3, #4
 409 009c 18308DE5 		str	r3, [sp, #24]
 410 00a0 0D00000A 		beq	.L88
 411 00a4 010050E3 		cmp	r0, #1
 412 00a8 0130A0E3 		mov	r3, #1
 413 00ac 1C308DE5 		str	r3, [sp, #28]
 414 00b0 0900000A 		beq	.L88
 415 00b4 020050E3 		cmp	r0, #2
 416 00b8 20308DE5 		str	r3, [sp, #32]
 417 00bc 0600000A 		beq	.L88
 418 00c0 030050E3 		cmp	r0, #3
 419 00c4 24308DE5 		str	r3, [sp, #36]
 420 00c8 0300000A 		beq	.L88
 421 00cc 040050E3 		cmp	r0, #4
 422 00d0 28308DE5 		str	r3, [sp, #40]
 423 00d4 0000000A 		beq	.L88
 424              	.LEHB1:
 425 00d8 FEFFFFEB 		bl	abort
 426              	.LEHE1:
 427              	.L88:
 428 00dc 1C308DE2 		add	r3, sp, #28
 429 00e0 0521A0E1 		lsl	r2, r5, #2
 430 00e4 000183E0 		add	r0, r3, r0, lsl #2
 431 00e8 041087E2 		add	r1, r7, #4
 432 00ec FEFFFFEB 		bl	memcpy
 433 00f0 00509DE5 		ldr	r5, [sp]
 434 00f4 04309DE5 		ldr	r3, [sp, #4]
 435 00f8 050055E3 		cmp	r5, #5
 436 00fc BE0000CA 		bgt	.L229
 437 0100 030055E3 		cmp	r5, #3
 438 0104 6F0100DA 		ble	.L96
 439 0108 10109DE5 		ldr	r1, [sp, #16]
 440 010c 01E0A0E3 		mov	lr, #1
 441 0110 0CC09DE5 		ldr	ip, [sp, #12]
 442 0114 08209DE5 		ldr	r2, [sp, #8]
 443 0118 18709DE5 		ldr	r7, [sp, #24]
 444 011c 30308DE5 		str	r3, [sp, #48]
 445 0120 9C0100E0 		mul	r0, ip, r1
 446 0124 34208DE5 		str	r2, [sp, #52]
 447 0128 050057E3 		cmp	r7, #5
 448 012c 3C108DE5 		str	r1, [sp, #60]
 449 0130 48108DE5 		str	r1, [sp, #72]
 450 0134 38C08DE5 		str	ip, [sp, #56]
 451 0138 920002E0 		mul	r2, r2, r0
 452 013c 44008DE5 		str	r0, [sp, #68]
 453 0140 4CE08DE5 		str	lr, [sp, #76]
 454 0144 1C009DE5 		ldr	r0, [sp, #28]
 455 0148 40208DE5 		str	r2, [sp, #64]
 456 014c BC0000CA 		bgt	.L98
 457              	.L232:
 458 0150 030057E3 		cmp	r7, #3
 459 0154 5E0100DA 		ble	.L99
 460 0158 28209DE5 		ldr	r2, [sp, #40]
 461 015c 0180A0E3 		mov	r8, #1
 462 0160 24C09DE5 		ldr	ip, [sp, #36]
 463 0164 050055E3 		cmp	r5, #5
 464 0168 20109DE5 		ldr	r1, [sp, #32]
 465 016c 6C808DE5 		str	r8, [sp, #108]
 466 0170 50008DE5 		str	r0, [sp, #80]
 467 0174 9C020EE0 		mul	lr, ip, r2
 468 0178 5C208DE5 		str	r2, [sp, #92]
 469 017c 68208DE5 		str	r2, [sp, #104]
 470 0180 58C08DE5 		str	ip, [sp, #88]
 471 0184 54108DE5 		str	r1, [sp, #84]
 472 0188 910E08E0 		mul	r8, r1, lr
 473 018c 64E08DE5 		str	lr, [sp, #100]
 474 0190 60808DE5 		str	r8, [sp, #96]
 475 0194 680000CA 		bgt	.L230
 476 0198 000055E3 		cmp	r5, #0
 477 019c 400100DA 		ble	.L104
 478 01a0 030050E1 		cmp	r0, r3
 479 01a4 0600000A 		beq	.L105
 480 01a8 010053E3 		cmp	r3, #1
 481 01ac FB00000A 		beq	.L106
 482 01b0 010050E3 		cmp	r0, #1
 483 01b4 4201001A 		bne	.L107
 484 01b8 0000A0E3 		mov	r0, #0
 485 01bc 50308DE5 		str	r3, [sp, #80]
 486 01c0 60008DE5 		str	r0, [sp, #96]
 487              	.L105:
 488 01c4 010055E3 		cmp	r5, #1
 489 01c8 3501000A 		beq	.L104
 490 01cc 08309DE5 		ldr	r3, [sp, #8]
 491 01d0 030051E1 		cmp	r1, r3
 492 01d4 0600000A 		beq	.L109
 493 01d8 010053E3 		cmp	r3, #1
 494 01dc F300000A 		beq	.L108
 495 01e0 010051E3 		cmp	r1, #1
 496 01e4 3601001A 		bne	.L107
 497 01e8 0010A0E3 		mov	r1, #0
 498 01ec 54308DE5 		str	r3, [sp, #84]
 499 01f0 64108DE5 		str	r1, [sp, #100]
 500              	.L109:
 501 01f4 020055E3 		cmp	r5, #2
 502 01f8 2901000A 		beq	.L104
 503 01fc 0C309DE5 		ldr	r3, [sp, #12]
 504 0200 03005CE1 		cmp	ip, r3
 505 0204 0600000A 		beq	.L111
 506 0208 010053E3 		cmp	r3, #1
 507 020c DF00000A 		beq	.L110
 508 0210 01005CE3 		cmp	ip, #1
 509 0214 2A01001A 		bne	.L107
 510 0218 0010A0E3 		mov	r1, #0
 511 021c 58308DE5 		str	r3, [sp, #88]
 512 0220 68108DE5 		str	r1, [sp, #104]
 513              	.L111:
 514 0224 030055E3 		cmp	r5, #3
 515 0228 1D01000A 		beq	.L104
 516 022c 10309DE5 		ldr	r3, [sp, #16]
 517 0230 030052E1 		cmp	r2, r3
 518 0234 0600000A 		beq	.L158
 519 0238 010053E3 		cmp	r3, #1
 520 023c 6A00000A 		beq	.L122
 521              	.L231:
 522 0240 010052E3 		cmp	r2, #1
 523 0244 1E01001A 		bne	.L107
 524 0248 0020A0E3 		mov	r2, #0
 525 024c 5C308DE5 		str	r3, [sp, #92]
 526 0250 6C208DE5 		str	r2, [sp, #108]
 527              	.L158:
 528 0254 050055E3 		cmp	r5, #5
 529 0258 030000DA 		ble	.L142
 530 025c 04009DE5 		ldr	r0, [sp, #4]
 531 0260 000050E3 		cmp	r0, #0
 532 0264 0000000A 		beq	.L142
 533 0268 FEFFFFEB 		bl	_ZdaPv
 534              	.L142:
 535 026c 0020A0E3 		mov	r2, #0
 536 0270 002084E5 		str	r2, [r4]
 537 0274 003096E5 		ldr	r3, [r6]
 538 0278 040053E3 		cmp	r3, #4
 539 027c 7EFFFFCA 		bgt	.L86
 540 0280 04C0A0E3 		mov	ip, #4
 541 0284 00C084E5 		str	ip, [r4]
 542 0288 003096E5 		ldr	r3, [r6]
 543 028c 03004CE0 		sub	r0, ip, r3
 544 0290 000050E3 		cmp	r0, #0
 545 0294 0C1084D0 		addle	r1, r4, ip
 546 0298 120000DA 		ble	.L154
 547 029c 041084E2 		add	r1, r4, #4
 548 02a0 0150A0E3 		mov	r5, #1
 549 02a4 01E0A0E1 		mov	lr, r1
 550 02a8 030000EA 		b	.L150
 551              	.L153:
 552 02ac 00C094E5 		ldr	ip, [r4]
 553 02b0 04E08EE2 		add	lr, lr, #4
 554 02b4 0C0052E1 		cmp	r2, ip
 555 02b8 6FFFFFAA 		bge	.L86
 556              	.L150:
 557 02bc 05005CE3 		cmp	ip, #5
 558 02c0 043094C5 		ldrgt	r3, [r4, #4]
 559 02c4 00508ED5 		strle	r5, [lr]
 560 02c8 025183C7 		strgt	r5, [r3, r2, lsl #2]
 561 02cc 012082E2 		add	r2, r2, #1
 562 02d0 020050E1 		cmp	r0, r2
 563 02d4 F4FFFF1A 		bne	.L153
 564 02d8 002094E5 		ldr	r2, [r4]
 565 02dc 003096E5 		ldr	r3, [r6]
 566 02e0 050052E3 		cmp	r2, #5
 567 02e4 041094C5 		ldrgt	r1, [r4, #4]
 568              	.L154:
 569 02e8 050053E3 		cmp	r3, #5
 570 02ec 000181E0 		add	r0, r1, r0, lsl #2
 571 02f0 0321A0E1 		lsl	r2, r3, #2
 572 02f4 041096C5 		ldrgt	r1, [r6, #4]
 573 02f8 041086D2 		addle	r1, r6, #4
 574 02fc 30608DE2 		add	r6, sp, #48
 575 0300 185084E2 		add	r5, r4, #24
 576 0304 FEFFFFEB 		bl	memcpy
 577 0308 0F00B6E8 		ldmia	r6!, {r0, r1, r2, r3}
 578 030c 50E08DE2 		add	lr, sp, #80
 579 0310 38C084E2 		add	ip, r4, #56
 580 0314 0F00A5E8 		stmia	r5!, {r0, r1, r2, r3}
 581 0318 0F0096E8 		ldm	r6, {r0, r1, r2, r3}
 582 031c 0F0085E8 		stm	r5, {r0, r1, r2, r3}
 583 0320 0F00BEE8 		ldmia	lr!, {r0, r1, r2, r3}
 584 0324 0F00ACE8 		stmia	ip!, {r0, r1, r2, r3}
 585 0328 0F009EE8 		ldm	lr, {r0, r1, r2, r3}
 586 032c 0F008CE8 		stm	ip, {r0, r1, r2, r3}
 587 0330 0400A0E1 		mov	r0, r4
 588 0334 70D08DE2 		add	sp, sp, #112
 589              		@ sp needed
 590 0338 F081BDE8 		pop	{r4, r5, r6, r7, r8, pc}
 591              	.L230:
 592 033c 00E093E5 		ldr	lr, [r3]
 593 0340 00005EE1 		cmp	lr, r0
 594 0344 0900000A 		beq	.L115
 595 0348 01005EE3 		cmp	lr, #1
 596 034c 00E0A003 		moveq	lr, #0
 597 0350 30008D05 		streq	r0, [sp, #48]
 598 0354 40E08D05 		streq	lr, [sp, #64]
 599 0358 0400000A 		beq	.L115
 600 035c 010050E3 		cmp	r0, #1
 601 0360 D700001A 		bne	.L107
 602 0364 0000A0E3 		mov	r0, #0
 603 0368 50E08DE5 		str	lr, [sp, #80]
 604 036c 60008DE5 		str	r0, [sp, #96]
 605              	.L115:
 606 0370 040093E5 		ldr	r0, [r3, #4]
 607 0374 010050E1 		cmp	r0, r1
 608 0378 0900000A 		beq	.L117
 609 037c 010050E3 		cmp	r0, #1
 610 0380 0000A003 		moveq	r0, #0
 611 0384 34108D05 		streq	r1, [sp, #52]
 612 0388 44008D05 		streq	r0, [sp, #68]
 613 038c 0400000A 		beq	.L117
 614 0390 010051E3 		cmp	r1, #1
 615 0394 CA00001A 		bne	.L107
 616 0398 0010A0E3 		mov	r1, #0
 617 039c 54008DE5 		str	r0, [sp, #84]
 618 03a0 64108DE5 		str	r1, [sp, #100]
 619              	.L117:
 620 03a4 081093E5 		ldr	r1, [r3, #8]
 621 03a8 0C0051E1 		cmp	r1, ip
 622 03ac 0900000A 		beq	.L119
 623 03b0 010051E3 		cmp	r1, #1
 624 03b4 0010A003 		moveq	r1, #0
 625 03b8 38C08D05 		streq	ip, [sp, #56]
 626 03bc 48108D05 		streq	r1, [sp, #72]
 627 03c0 0400000A 		beq	.L119
 628 03c4 01005CE3 		cmp	ip, #1
 629 03c8 BD00001A 		bne	.L107
 630 03cc 0000A0E3 		mov	r0, #0
 631 03d0 58108DE5 		str	r1, [sp, #88]
 632 03d4 68008DE5 		str	r0, [sp, #104]
 633              	.L119:
 634 03d8 0C3093E5 		ldr	r3, [r3, #12]
 635 03dc 030052E1 		cmp	r2, r3
 636 03e0 9BFFFF0A 		beq	.L158
 637 03e4 010053E3 		cmp	r3, #1
 638 03e8 94FFFF1A 		bne	.L231
 639              	.L122:
 640 03ec 0030A0E3 		mov	r3, #0
 641 03f0 3C208DE5 		str	r2, [sp, #60]
 642 03f4 4C308DE5 		str	r3, [sp, #76]
 643 03f8 95FFFFEA 		b	.L158
 644              	.L229:
 645 03fc 041093E9 		ldmib	r3, {r2, ip}
 646 0400 01E0A0E3 		mov	lr, #1
 647 0404 0C1093E5 		ldr	r1, [r3, #12]
 648 0408 007093E5 		ldr	r7, [r3]
 649 040c 34208DE5 		str	r2, [sp, #52]
 650 0410 3C108DE5 		str	r1, [sp, #60]
 651 0414 9C0100E0 		mul	r0, ip, r1
 652 0418 30708DE5 		str	r7, [sp, #48]
 653 041c 18709DE5 		ldr	r7, [sp, #24]
 654 0420 48108DE5 		str	r1, [sp, #72]
 655 0424 38C08DE5 		str	ip, [sp, #56]
 656 0428 920002E0 		mul	r2, r2, r0
 657 042c 050057E3 		cmp	r7, #5
 658 0430 44008DE5 		str	r0, [sp, #68]
 659 0434 4CE08DE5 		str	lr, [sp, #76]
 660 0438 1C009DE5 		ldr	r0, [sp, #28]
 661 043c 40208DE5 		str	r2, [sp, #64]
 662 0440 42FFFFDA 		ble	.L232
 663              	.L98:
 664 0444 0C2090E5 		ldr	r2, [r0, #12]
 665 0448 050055E3 		cmp	r5, #5
 666 044c 08C090E5 		ldr	ip, [r0, #8]
 667 0450 01E0A0E3 		mov	lr, #1
 668 0454 041090E5 		ldr	r1, [r0, #4]
 669 0458 5C208DE5 		str	r2, [sp, #92]
 670 045c 68208DE5 		str	r2, [sp, #104]
 671 0460 9C0202E0 		mul	r2, ip, r2
 672 0464 54108DE5 		str	r1, [sp, #84]
 673 0468 58C08DE5 		str	ip, [sp, #88]
 674 046c 00C090E5 		ldr	ip, [r0]
 675 0470 6CE08DE5 		str	lr, [sp, #108]
 676 0474 910201E0 		mul	r1, r1, r2
 677 0478 64208DE5 		str	r2, [sp, #100]
 678 047c 50C08DE5 		str	ip, [sp, #80]
 679 0480 60108DE5 		str	r1, [sp, #96]
 680 0484 4D0000CA 		bgt	.L233
 681 0488 000055E3 		cmp	r5, #0
 682 048c 840000DA 		ble	.L104
 683 0490 0C0053E1 		cmp	r3, ip
 684 0494 0900000A 		beq	.L123
 685 0498 010053E3 		cmp	r3, #1
 686 049c 0030A003 		moveq	r3, #0
 687 04a0 30C08D05 		streq	ip, [sp, #48]
 688 04a4 40308D05 		streq	r3, [sp, #64]
 689 04a8 0400000A 		beq	.L123
 690 04ac 01005CE3 		cmp	ip, #1
 691 04b0 8300001A 		bne	.L107
 692 04b4 0020A0E3 		mov	r2, #0
 693 04b8 50308DE5 		str	r3, [sp, #80]
 694 04bc 60208DE5 		str	r2, [sp, #96]
 695              	.L123:
 696 04c0 010055E3 		cmp	r5, #1
 697 04c4 7600000A 		beq	.L104
 698 04c8 08309DE5 		ldr	r3, [sp, #8]
 699 04cc 042090E5 		ldr	r2, [r0, #4]
 700 04d0 030052E1 		cmp	r2, r3
 701 04d4 0900000A 		beq	.L126
 702 04d8 010053E3 		cmp	r3, #1
 703 04dc 0030A003 		moveq	r3, #0
 704 04e0 34208D05 		streq	r2, [sp, #52]
 705 04e4 44308D05 		streq	r3, [sp, #68]
 706 04e8 0400000A 		beq	.L126
 707 04ec 010052E3 		cmp	r2, #1
 708 04f0 7300001A 		bne	.L107
 709 04f4 0020A0E3 		mov	r2, #0
 710 04f8 54308DE5 		str	r3, [sp, #84]
 711 04fc 64208DE5 		str	r2, [sp, #100]
 712              	.L126:
 713 0500 020055E3 		cmp	r5, #2
 714 0504 6600000A 		beq	.L104
 715 0508 0C309DE5 		ldr	r3, [sp, #12]
 716 050c 082090E5 		ldr	r2, [r0, #8]
 717 0510 030052E1 		cmp	r2, r3
 718 0514 0900000A 		beq	.L128
 719 0518 010053E3 		cmp	r3, #1
 720 051c 0030A003 		moveq	r3, #0
 721 0520 38208D05 		streq	r2, [sp, #56]
 722 0524 48308D05 		streq	r3, [sp, #72]
 723 0528 0400000A 		beq	.L128
 724 052c 010052E3 		cmp	r2, #1
 725 0530 6300001A 		bne	.L107
 726 0534 0020A0E3 		mov	r2, #0
 727 0538 58308DE5 		str	r3, [sp, #88]
 728 053c 68208DE5 		str	r2, [sp, #104]
 729              	.L128:
 730 0540 030055E3 		cmp	r5, #3
 731 0544 5600000A 		beq	.L104
 732 0548 10309DE5 		ldr	r3, [sp, #16]
 733 054c 0C2090E5 		ldr	r2, [r0, #12]
 734 0550 030052E1 		cmp	r2, r3
 735 0554 0900000A 		beq	.L131
 736              	.L138:
 737 0558 010053E3 		cmp	r3, #1
 738 055c 0030A003 		moveq	r3, #0
 739 0560 3C208D05 		streq	r2, [sp, #60]
 740 0564 4C308D05 		streq	r3, [sp, #76]
 741 0568 0400000A 		beq	.L131
 742 056c 010052E3 		cmp	r2, #1
 743 0570 0020A003 		moveq	r2, #0
 744 0574 5C308D05 		streq	r3, [sp, #92]
 745 0578 6C208D05 		streq	r2, [sp, #108]
 746 057c 5000001A 		bne	.L107
 747              	.L131:
 748 0580 000050E3 		cmp	r0, #0
 749 0584 32FFFF0A 		beq	.L158
 750 0588 FEFFFFEB 		bl	_ZdaPv
 751 058c 30FFFFEA 		b	.L158
 752              	.L110:
 753 0590 0030A0E3 		mov	r3, #0
 754 0594 38C08DE5 		str	ip, [sp, #56]
 755 0598 48308DE5 		str	r3, [sp, #72]
 756 059c 20FFFFEA 		b	.L111
 757              	.L106:
 758 05a0 0030A0E3 		mov	r3, #0
 759 05a4 30008DE5 		str	r0, [sp, #48]
 760 05a8 40308DE5 		str	r3, [sp, #64]
 761 05ac 04FFFFEA 		b	.L105
 762              	.L108:
 763 05b0 0030A0E3 		mov	r3, #0
 764 05b4 34108DE5 		str	r1, [sp, #52]
 765 05b8 44308DE5 		str	r3, [sp, #68]
 766 05bc 0CFFFFEA 		b	.L109
 767              	.L233:
 768 05c0 002093E5 		ldr	r2, [r3]
 769 05c4 0C0052E1 		cmp	r2, ip
 770 05c8 0600000A 		beq	.L132
 771 05cc 010052E3 		cmp	r2, #1
 772 05d0 2F00000A 		beq	.L133
 773 05d4 01005CE3 		cmp	ip, #1
 774 05d8 3900001A 		bne	.L107
 775 05dc 0010A0E3 		mov	r1, #0
 776 05e0 50208DE5 		str	r2, [sp, #80]
 777 05e4 60108DE5 		str	r1, [sp, #96]
 778              	.L132:
 779 05e8 042093E5 		ldr	r2, [r3, #4]
 780 05ec 041090E5 		ldr	r1, [r0, #4]
 781 05f0 010052E1 		cmp	r2, r1
 782 05f4 0600000A 		beq	.L134
 783 05f8 010052E3 		cmp	r2, #1
 784 05fc 2000000A 		beq	.L135
 785 0600 010051E3 		cmp	r1, #1
 786 0604 2E00001A 		bne	.L107
 787 0608 0010A0E3 		mov	r1, #0
 788 060c 54208DE5 		str	r2, [sp, #84]
 789 0610 64108DE5 		str	r1, [sp, #100]
 790              	.L134:
 791 0614 082093E5 		ldr	r2, [r3, #8]
 792 0618 081090E5 		ldr	r1, [r0, #8]
 793 061c 010052E1 		cmp	r2, r1
 794 0620 0600000A 		beq	.L136
 795 0624 010052E3 		cmp	r2, #1
 796 0628 1100000A 		beq	.L137
 797 062c 010051E3 		cmp	r1, #1
 798 0630 2300001A 		bne	.L107
 799 0634 0010A0E3 		mov	r1, #0
 800 0638 58208DE5 		str	r2, [sp, #88]
 801 063c 68108DE5 		str	r1, [sp, #104]
 802              	.L136:
 803 0640 0C3093E5 		ldr	r3, [r3, #12]
 804 0644 0C2090E5 		ldr	r2, [r0, #12]
 805 0648 020053E1 		cmp	r3, r2
 806 064c C1FFFF1A 		bne	.L138
 807 0650 CAFFFFEA 		b	.L131
 808              	.L172:
 809 0654 00509DE5 		ldr	r5, [sp]
 810              	.L94:
 811 0658 050055E3 		cmp	r5, #5
 812 065c 030000DA 		ble	.L147
 813 0660 04009DE5 		ldr	r0, [sp, #4]
 814 0664 000050E3 		cmp	r0, #0
 815 0668 0000000A 		beq	.L147
 816 066c FEFFFFEB 		bl	_ZdaPv
 817              	.L147:
 818              	.LEHB2:
 819 0670 FEFFFFEB 		bl	__cxa_end_cleanup
 820              	.LEHE2:
 821              	.L137:
 822 0674 0020A0E3 		mov	r2, #0
 823 0678 38108DE5 		str	r1, [sp, #56]
 824 067c 48208DE5 		str	r2, [sp, #72]
 825 0680 EEFFFFEA 		b	.L136
 826              	.L135:
 827 0684 0020A0E3 		mov	r2, #0
 828 0688 34108DE5 		str	r1, [sp, #52]
 829 068c 44208DE5 		str	r2, [sp, #68]
 830 0690 DFFFFFEA 		b	.L134
 831              	.L133:
 832 0694 0020A0E3 		mov	r2, #0
 833 0698 30C08DE5 		str	ip, [sp, #48]
 834 069c 40208DE5 		str	r2, [sp, #64]
 835 06a0 D0FFFFEA 		b	.L132
 836              	.L104:
 837              	.LEHB3:
 838 06a4 FEFFFFEB 		bl	abort
 839              	.L171:
 840              	.L145:
 841 06a8 050057E3 		cmp	r7, #5
 842 06ac E9FFFFDA 		ble	.L94
 843 06b0 1C009DE5 		ldr	r0, [sp, #28]
 844 06b4 000050E3 		cmp	r0, #0
 845 06b8 E6FFFF0A 		beq	.L94
 846 06bc FEFFFFEB 		bl	_ZdaPv
 847 06c0 E4FFFFEA 		b	.L94
 848              	.L107:
 849 06c4 FEFFFFEB 		bl	abort
 850              	.LEHE3:
 851              	.L96:
 852              	.LEHB4:
 853 06c8 FEFFFFEB 		bl	abort
 854              	.LEHE4:
 855              	.L173:
 856 06cc 18709DE5 		ldr	r7, [sp, #24]
 857 06d0 F4FFFFEA 		b	.L145
 858              	.L99:
 859              	.LEHB5:
 860 06d4 FEFFFFEB 		bl	abort
 861              	.LEHE5:
 862              		.global	__gxx_personality_v0
 863              		.personality	__gxx_personality_v0
 864              		.handlerdata
 865              	.LLSDA4220:
 866 0008 FF       		.byte	0xff
 867 0009 FF       		.byte	0xff
 868 000a 01       		.byte	0x1
 869 000b 21       		.uleb128 .LLSDACSE4220-.LLSDACSB4220
 870              	.LLSDACSB4220:
 871 000c 7C       		.uleb128 .LEHB0-.LFB4220
 872 000d 04       		.uleb128 .LEHE0-.LEHB0
 873 000e 00       		.uleb128 0
 874 000f 00       		.uleb128 0
 875 0010 D801     		.uleb128 .LEHB1-.LFB4220
 876 0012 04       		.uleb128 .LEHE1-.LEHB1
 877 0013 D40C     		.uleb128 .L172-.LFB4220
 878 0015 00       		.uleb128 0
 879 0016 F00C     		.uleb128 .LEHB2-.LFB4220
 880 0018 04       		.uleb128 .LEHE2-.LEHB2
 881 0019 00       		.uleb128 0
 882 001a 00       		.uleb128 0
 883 001b A40D     		.uleb128 .LEHB3-.LFB4220
 884 001d 24       		.uleb128 .LEHE3-.LEHB3
 885 001e A80D     		.uleb128 .L171-.LFB4220
 886 0020 00       		.uleb128 0
 887 0021 C80D     		.uleb128 .LEHB4-.LFB4220
 888 0023 04       		.uleb128 .LEHE4-.LEHB4
 889 0024 CC0D     		.uleb128 .L173-.LFB4220
 890 0026 00       		.uleb128 0
 891 0027 D40D     		.uleb128 .LEHB5-.LFB4220
 892 0029 04       		.uleb128 .LEHE5-.LEHB5
 893 002a A80D     		.uleb128 .L171-.LFB4220
 894 002c 00       		.uleb128 0
 895              	.LLSDACSE4220:
 896              		.section	.text._ZN6tflite13reference_ops35BroadcastComparison4DSlowPreprocessERKNS_12RuntimeShapeE
 897              		.fnend
 899              		.section	.text._ZN6tflite3ops5micro11comparisons12_GLOBAL__N_19EqualEvalEP13TfLiteContextP10TfLite
 900              		.align	2
 901              		.syntax unified
 902              		.arm
 903              		.fpu neon
 905              	_ZN6tflite3ops5micro11comparisons12_GLOBAL__N_19EqualEvalEP13TfLiteContextP10TfLiteNode:
 906              		.fnstart
 907              	.LFB4287:
 908              		@ args = 0, pretend = 0, frame = 808
 909              		@ frame_needed = 0, uses_anonymous_args = 0
 910 0000 F04F2DE9 		push	{r4, r5, r6, r7, r8, r9, r10, fp, lr}
 911              		.save {r4, r5, r6, r7, r8, r9, r10, fp, lr}
 912              		.pad #812
 913 0004 CBDF4DE2 		sub	sp, sp, #812
 914 0008 104091E5 		ldr	r4, [r1, #16]
 915 000c 000054E3 		cmp	r4, #0
 916 0010 FD0C000A 		beq	.L236
 917 0014 000050E3 		cmp	r0, #0
 918 0018 0060A0E1 		mov	r6, r0
 919 001c FA0C000A 		beq	.L236
 920 0020 002091E5 		ldr	r2, [r1]
 921 0024 0170A0E1 		mov	r7, r1
 922 0028 543090E5 		ldr	r3, [r0, #84]
 923 002c 041092E5 		ldr	r1, [r2, #4]
 924              	.LEHB6:
 925 0030 33FF2FE1 		blx	r3
 926 0034 002097E5 		ldr	r2, [r7]
 927 0038 0080A0E1 		mov	r8, r0
 928 003c 543096E5 		ldr	r3, [r6, #84]
 929 0040 0600A0E1 		mov	r0, r6
 930 0044 081092E5 		ldr	r1, [r2, #8]
 931 0048 33FF2FE1 		blx	r3
 932 004c 042097E5 		ldr	r2, [r7, #4]
 933 0050 0050A0E1 		mov	r5, r0
 934 0054 543096E5 		ldr	r3, [r6, #84]
 935 0058 0600A0E1 		mov	r0, r6
 936 005c 041092E5 		ldr	r1, [r2, #4]
 937 0060 33FF2FE1 		blx	r3
 938 0064 0810A0E1 		mov	r1, r8
 939 0068 00A0A0E1 		mov	r10, r0
 940 006c D0008DE2 		add	r0, sp, #208
 941 0070 FEFFFFEB 		bl	_ZN6tflite5micro14GetTensorShapeEPK16TfLiteEvalTensor
 942              	.LEHE6:
 943 0074 0510A0E1 		mov	r1, r5
 944 0078 E8008DE2 		add	r0, sp, #232
 945              	.LEHB7:
 946 007c FEFFFFEB 		bl	_ZN6tflite5micro14GetTensorShapeEPK16TfLiteEvalTensor
 947              	.LEHE7:
 948 0080 0A10A0E1 		mov	r1, r10
 949 0084 010C8DE2 		add	r0, sp, #256
 950              	.LEHB8:
 951 0088 FEFFFFEB 		bl	_ZN6tflite5micro14GetTensorShapeEPK16TfLiteEvalTensor
 952              	.LEHE8:
 953 008c 00005AE3 		cmp	r10, #0
 954 0090 0510A0E1 		mov	r1, r5
 955 0094 0800A0E1 		mov	r0, r8
 956 0098 00A09A15 		ldrne	r10, [r10]
 957              	.LEHB9:
 958 009c FEFFFFEB 		bl	_ZN6tflite5micro14HaveSameShapesEPK16TfLiteEvalTensorS3_
 959 00a0 0830D8E5 		ldrb	r3, [r8, #8]	@ zero_extendqisi2
 960 00a4 010020E2 		eor	r0, r0, #1
 961 00a8 7000EFE6 		uxtb	r0, r0
 962 00ac 013043E2 		sub	r3, r3, #1
 963 00b0 080053E3 		cmp	r3, #8
 964 00b4 03F19F97 		ldrls	pc, [pc, r3, asl #2]
 965 00b8 600500EA 		b	.L238
 966              	.L240:
 967 00bc E8050000 		.word	.L239
 968 00c0 B0080000 		.word	.L241
 969 00c4 3C110000 		.word	.L242
 970 00c8 900B0000 		.word	.L243
 971 00cc 40160000 		.word	.L238
 972 00d0 880E0000 		.word	.L244
 973 00d4 40160000 		.word	.L238
 974 00d8 40160000 		.word	.L238
 975 00dc E0000000 		.word	.L245
 976              	.L245:
 977 00e0 000050E3 		cmp	r0, #0
 978 00e4 9009000A 		beq	.L570
 979 00e8 000055E3 		cmp	r5, #0
 980 00ec 006098E5 		ldr	r6, [r8]
 981 00f0 FB0D000A 		beq	.L1102
 982 00f4 013C8DE2 		add	r3, sp, #256
 983 00f8 E8208DE2 		add	r2, sp, #232
 984 00fc D0108DE2 		add	r1, sp, #208
 985 0100 2D0E8DE2 		add	r0, sp, #720
 986 0104 005095E5 		ldr	r5, [r5]
 987 0108 FEFFFFEB 		bl	_ZN6tflite13reference_ops35BroadcastComparison4DSlowPreprocessERKNS_12RuntimeShapeES3_S3_
 988 010c D0329DE5 		ldr	r3, [sp, #720]
 989 0110 002094E5 		ldr	r2, [r4]
 990 0114 0CB094E5 		ldr	fp, [r4, #12]
 991 0118 24308DE5 		str	r3, [sp, #36]
 992 011c 000053E3 		cmp	r3, #0
 993 0120 083094E5 		ldr	r3, [r4, #8]
 994 0124 58208DE5 		str	r2, [sp, #88]
 995 0128 042094E5 		ldr	r2, [r4, #4]
 996 012c 5C308DE5 		str	r3, [sp, #92]
 997 0130 103094E5 		ldr	r3, [r4, #16]
 998 0134 38208DE5 		str	r2, [sp, #56]
 999 0138 60308DE5 		str	r3, [sp, #96]
 1000 013c 143094E5 		ldr	r3, [r4, #20]
 1001 0140 68308DE5 		str	r3, [sp, #104]
 1002 0144 183094E5 		ldr	r3, [r4, #24]
 1003 0148 0320A0E1 		mov	r2, r3
 1004 014c 20308DE5 		str	r3, [sp, #32]
 1005 0150 E20D00DA 		ble	.L572
 1006 0154 D8329DE5 		ldr	r3, [sp, #728]
 1007 0158 860BDFED 		vldr.64	d16, .L1176	@ int
 1008 015c ACA08DE5 		str	r10, [sp, #172]
 1009 0160 00A0A0E3 		mov	r10, #0
 1010 0164 0370A0E1 		mov	r7, r3
 1011 0168 3C308DE5 		str	r3, [sp, #60]
 1012 016c 00306BE2 		rsb	r3, fp, #0
 1013 0170 B0508DE5 		str	r5, [sp, #176]
 1014 0174 0310A0E1 		mov	r1, r3
 1015 0178 6C308DE5 		str	r3, [sp, #108]
 1016 017c DC329DE5 		ldr	r3, [sp, #732]
 1017 0180 0A90A0E1 		mov	r9, r10
 1018 0184 901B02EE 		vmov.32	d18[0], r1
 1019 0188 03C0A0E1 		mov	ip, r3
 1020 018c 28308DE5 		str	r3, [sp, #40]
 1021 0190 04339DE5 		ldr	r3, [sp, #772]
 1022 0194 A01472F3 		vshl.u64	d17, d16, d18
 1023 0198 03E0A0E1 		mov	lr, r3
 1024 019c 88308DE5 		str	r3, [sp, #136]
 1025 01a0 003062E2 		rsb	r3, r2, #0
 1026 01a4 0300A0E1 		mov	r0, r3
 1027 01a8 78308DE5 		str	r3, [sp, #120]
 1028 01ac E0329DE5 		ldr	r3, [sp, #736]
 1029 01b0 0340A0E1 		mov	r4, r3
 1030 01b4 10308DE5 		str	r3, [sp, #16]
 1031 01b8 312B53EC 		vmov	r2, r3, d17	@ int
 1032 01bc 900B01EE 		vmov.32	d17[0], r0
 1033 01c0 013042E2 		sub	r3, r2, #1
 1034 01c4 0380A0E1 		mov	r8, r3
 1035 01c8 70308DE5 		str	r3, [sp, #112]
 1036 01cc A00471F3 		vshl.u64	d16, d16, d17
 1037 01d0 9C0702E0 		mul	r2, ip, r7
 1038 01d4 300B51EC 		vmov	r0, r1, d16	@ int
 1039 01d8 C810A0E1 		asr	r1, r8, #1
 1040 01dc 013040E2 		sub	r3, r0, #1
 1041 01e0 940202E0 		mul	r2, r4, r2
 1042 01e4 0370A0E1 		mov	r7, r3
 1043 01e8 7C308DE5 		str	r3, [sp, #124]
 1044 01ec 8E308EE0 		add	r3, lr, lr, lsl #1
 1045 01f0 74108DE5 		str	r1, [sp, #116]
 1046 01f4 C710A0E1 		asr	r1, r7, #1
 1047 01f8 0E00A0E1 		mov	r0, lr
 1048 01fc 033086E0 		add	r3, r6, r3
 1049 0200 C4208DE5 		str	r2, [sp, #196]
 1050 0204 B4308DE5 		str	r3, [sp, #180]
 1051 0208 E8329DE5 		ldr	r3, [sp, #744]
 1052 020c 80108DE5 		str	r1, [sp, #128]
 1053 0210 940C01E0 		mul	r1, r4, ip
 1054 0214 2C308DE5 		str	r3, [sp, #44]
 1055 0218 EC329DE5 		ldr	r3, [sp, #748]
 1056 021c C0108DE5 		str	r1, [sp, #192]
 1057 0220 001140E0 		sub	r1, r0, r0, lsl #2
 1058 0224 30308DE5 		str	r3, [sp, #48]
 1059 0228 F0329DE5 		ldr	r3, [sp, #752]
 1060 022c 4C108DE5 		str	r1, [sp, #76]
 1061 0230 D4129DE5 		ldr	r1, [sp, #724]
 1062 0234 34308DE5 		str	r3, [sp, #52]
 1063 0238 F4329DE5 		ldr	r3, [sp, #756]
 1064 023c 18108DE5 		str	r1, [sp, #24]
 1065 0240 40308DE5 		str	r3, [sp, #64]
 1066 0244 FC329DE5 		ldr	r3, [sp, #764]
 1067 0248 B8308DE5 		str	r3, [sp, #184]
 1068 024c 00339DE5 		ldr	r3, [sp, #768]
 1069 0250 08B08DE5 		str	fp, [sp, #8]
 1070 0254 98308DE5 		str	r3, [sp, #152]
 1071 0258 08339DE5 		ldr	r3, [sp, #776]
 1072 025c 48308DE5 		str	r3, [sp, #72]
 1073 0260 0C339DE5 		ldr	r3, [sp, #780]
 1074 0264 50308DE5 		str	r3, [sp, #80]
 1075 0268 10339DE5 		ldr	r3, [sp, #784]
 1076 026c 54308DE5 		str	r3, [sp, #84]
 1077 0270 14339DE5 		ldr	r3, [sp, #788]
 1078 0274 64308DE5 		str	r3, [sp, #100]
 1079 0278 1C339DE5 		ldr	r3, [sp, #796]
 1080 027c BC308DE5 		str	r3, [sp, #188]
 1081 0280 20339DE5 		ldr	r3, [sp, #800]
 1082 0284 9C308DE5 		str	r3, [sp, #156]
 1083 0288 24339DE5 		ldr	r3, [sp, #804]
 1084 028c 84308DE5 		str	r3, [sp, #132]
 1085 0290 18339DE5 		ldr	r3, [sp, #792]
 1086 0294 C8308DE5 		str	r3, [sp, #200]
 1087 0298 F8329DE5 		ldr	r3, [sp, #760]
 1088 029c CC308DE5 		str	r3, [sp, #204]
 1089              	.L573:
 1090 02a0 24309DE5 		ldr	r3, [sp, #36]
 1091 02a4 050053E3 		cmp	r3, #5
 1092 02a8 18309DE5 		ldr	r3, [sp, #24]
 1093 02ac 003093C5 		ldrgt	r3, [r3]
 1094 02b0 030059E1 		cmp	r9, r3
 1095 02b4 24309DE5 		ldr	r3, [sp, #36]
 1096 02b8 F40B00AA 		bge	.L575
 1097 02bc 010053E3 		cmp	r3, #1
 1098 02c0 850D000A 		beq	.L576
 1099 02c4 B4309DE5 		ldr	r3, [sp, #180]
 1100 02c8 00B0A0E3 		mov	fp, #0
 1101 02cc 09A0A0E1 		mov	r10, r9
 1102 02d0 A8308DE5 		str	r3, [sp, #168]
 1103 02d4 B0309DE5 		ldr	r3, [sp, #176]
 1104 02d8 A4308DE5 		str	r3, [sp, #164]
 1105 02dc AC309DE5 		ldr	r3, [sp, #172]
 1106 02e0 A0308DE5 		str	r3, [sp, #160]
 1107              	.L577:
 1108 02e4 24309DE5 		ldr	r3, [sp, #36]
 1109 02e8 050053E3 		cmp	r3, #5
 1110 02ec 18309DC5 		ldrgt	r3, [sp, #24]
 1111 02f0 3C309DD5 		ldrle	r3, [sp, #60]
 1112 02f4 043093C5 		ldrgt	r3, [r3, #4]
 1113 02f8 03005BE1 		cmp	fp, r3
 1114 02fc 660C00AA 		bge	.L579
 1115 0300 24309DE5 		ldr	r3, [sp, #36]
 1116 0304 020053E3 		cmp	r3, #2
 1117 0308 520D000A 		beq	.L580
 1118 030c A8309DE5 		ldr	r3, [sp, #168]
 1119 0310 0070A0E3 		mov	r7, #0
 1120 0314 0780A0E1 		mov	r8, r7
 1121 0318 94308DE5 		str	r3, [sp, #148]
 1122 031c A4309DE5 		ldr	r3, [sp, #164]
 1123 0320 90308DE5 		str	r3, [sp, #144]
 1124 0324 A0309DE5 		ldr	r3, [sp, #160]
 1125 0328 8C308DE5 		str	r3, [sp, #140]
 1126              	.L581:
 1127 032c 24309DE5 		ldr	r3, [sp, #36]
 1128 0330 050053E3 		cmp	r3, #5
 1129 0334 18309DC5 		ldrgt	r3, [sp, #24]
 1130 0338 28309DD5 		ldrle	r3, [sp, #40]
 1131 033c 083093C5 		ldrgt	r3, [r3, #8]
 1132 0340 030058E1 		cmp	r8, r3
 1133 0344 830B00AA 		bge	.L583
 1134 0348 24309DE5 		ldr	r3, [sp, #36]
 1135 034c 030053E3 		cmp	r3, #3
 1136 0350 DC0B000A 		beq	.L584
 1137 0354 050053E3 		cmp	r3, #5
 1138 0358 8C309DE5 		ldr	r3, [sp, #140]
 1139 035c 94009DE5 		ldr	r0, [sp, #148]
 1140 0360 0010A0E3 		mov	r1, #0
 1141 0364 90C09DE5 		ldr	ip, [sp, #144]
 1142 0368 00308DE5 		str	r3, [sp]
 1143 036c 8C0000DA 		ble	.L704
 1144 0370 CB0400EA 		b	.L1103
 1145              	.L1177:
 1146 0374 00F020E3 		.align	3
 1147              	.L1176:
 1148 0378 01000000 		.word	1
 1149 037c 00000000 		.word	0
 1150              	.L632:
 1151 0380 2C309DE5 		ldr	r3, [sp, #44]
 1152 0384 03005AE1 		cmp	r10, r3
 1153 0388 5B0B00AA 		bge	.L1104
 1154 038c 30309DE5 		ldr	r3, [sp, #48]
 1155 0390 03005BE1 		cmp	fp, r3
 1156 0394 570B00AA 		bge	.L1105
 1157 0398 34309DE5 		ldr	r3, [sp, #52]
 1158 039c 030058E1 		cmp	r8, r3
 1159 03a0 530B00AA 		bge	.L1106
 1160 03a4 40309DE5 		ldr	r3, [sp, #64]
 1161 03a8 030051E1 		cmp	r1, r3
 1162 03ac 4F0B00AA 		bge	.L1107
 1163 03b0 4C309DE5 		ldr	r3, [sp, #76]
 1164 03b4 00F0D0F5 		pld	[r0]
 1165 03b8 D36090E1 		ldrsb	r6, [r0, r3]
 1166 03bc 48309DE5 		ldr	r3, [sp, #72]
 1167 03c0 03005AE1 		cmp	r10, r3
 1168 03c4 38309DE5 		ldr	r3, [sp, #56]
 1169 03c8 036086E0 		add	r6, r6, r3
 1170 03cc 460B00AA 		bge	.L1108
 1171 03d0 50309DE5 		ldr	r3, [sp, #80]
 1172 03d4 03005BE1 		cmp	fp, r3
 1173 03d8 420B00AA 		bge	.L1109
 1174 03dc 54309DE5 		ldr	r3, [sp, #84]
 1175 03e0 030058E1 		cmp	r8, r3
 1176 03e4 3E0B00AA 		bge	.L1110
 1177 03e8 64309DE5 		ldr	r3, [sp, #100]
 1178 03ec 030051E1 		cmp	r1, r3
 1179 03f0 3A0B00AA 		bge	.L1111
 1180 03f4 58309DE5 		ldr	r3, [sp, #88]
 1181 03f8 5C209DE5 		ldr	r2, [sp, #92]
 1182 03fc D0E0DCE1 		ldrsb	lr, [ip]
 1183 0400 1663A0E1 		lsl	r6, r6, r3
 1184 0404 9642C5E0 		smull	r4, r5, r6, r2
 1185 0408 060052E1 		cmp	r2, r6
 1186 040c 02015603 		cmpeq	r6, #-2147483648
 1187 0410 60209DE5 		ldr	r2, [sp, #96]
 1188 0414 0160A003 		moveq	r6, #1
 1189 0418 0060A013 		movne	r6, #0
 1190 041c 02E08EE0 		add	lr, lr, r2
 1191 0420 000054E3 		cmp	r4, #0
 1192 0424 1EE3A0E1 		lsl	lr, lr, r3
 1193 0428 0030D5E2 		sbcs	r3, r5, #0
 1194 042c 0121A0A3 		movge	r2, #1073741824
 1195 0430 0030A0A3 		movge	r3, #0
 1196 0434 0721A0B3 		movlt	r2, #-1073741823
 1197 0438 0030E0B3 		mvnlt	r3, #0
 1198 043c 000056E3 		cmp	r6, #0
 1199 0440 0261E013 		mvnne	r6, #-2147483648
 1200 0444 0800001A 		bne	.L596
 1201 0448 024094E0 		adds	r4, r4, r2
 1202 044c 0350A5E0 		adc	r5, r5, r3
 1203 0450 0030A0E3 		mov	r3, #0
 1204 0454 C52FA0E1 		asr	r2, r5, #31
 1205 0458 0221C2E3 		bic	r2, r2, #-2147483648
 1206 045c 042092E0 		adds	r2, r2, r4
 1207 0460 A26FA0E1 		lsr	r6, r2, #31
 1208 0464 0530A3E0 		adc	r3, r3, r5
 1209 0468 836086E1 		orr	r6, r6, r3, lsl #1
 1210              	.L596:
 1211 046c 08309DE5 		ldr	r3, [sp, #8]
 1212 0470 000053E3 		cmp	r3, #0
 1213 0474 CE0B00CA 		bgt	.L1112
 1214 0478 1F0073E3 		cmn	r3, #31
 1215 047c C40B00BA 		blt	.L1113
 1216 0480 74309DE5 		ldr	r3, [sp, #116]
 1217 0484 68209DE5 		ldr	r2, [sp, #104]
 1218 0488 70909DE5 		ldr	r9, [sp, #112]
 1219 048c A67F83E0 		add	r7, r3, r6, lsr #31
 1220 0490 6C309DE5 		ldr	r3, [sp, #108]
 1221 0494 9E42C5E0 		smull	r4, r5, lr, r2
 1222 0498 0E0052E1 		cmp	r2, lr
 1223 049c 02015E03 		cmpeq	lr, #-2147483648
 1224 04a0 01E0A003 		moveq	lr, #1
 1225 04a4 00E0A013 		movne	lr, #0
 1226 04a8 5633A0E1 		asr	r3, r6, r3
 1227 04ac 096006E0 		and	r6, r6, r9
 1228 04b0 070056E1 		cmp	r6, r7
 1229 04b4 0360A0D1 		movle	r6, r3
 1230 04b8 016083C2 		addgt	r6, r3, #1
 1231 04bc 000054E3 		cmp	r4, #0
 1232 04c0 0030D5E2 		sbcs	r3, r5, #0
 1233 04c4 0121A0A3 		movge	r2, #1073741824
 1234 04c8 0721A0B3 		movlt	r2, #-1073741823
 1235 04cc 0030A0A3 		movge	r3, #0
 1236 04d0 0030E0B3 		mvnlt	r3, #0
 1237 04d4 00005EE3 		cmp	lr, #0
 1238 04d8 0221E013 		mvnne	r2, #-2147483648
 1239 04dc 0800001A 		bne	.L600
 1240 04e0 024094E0 		adds	r4, r4, r2
 1241 04e4 0350A5E0 		adc	r5, r5, r3
 1242 04e8 0030A0E3 		mov	r3, #0
 1243 04ec C52FA0E1 		asr	r2, r5, #31
 1244 04f0 0221C2E3 		bic	r2, r2, #-2147483648
 1245 04f4 042092E0 		adds	r2, r2, r4
 1246 04f8 A22FA0E1 		lsr	r2, r2, #31
 1247 04fc 0530A3E0 		adc	r3, r3, r5
 1248 0500 832082E1 		orr	r2, r2, r3, lsl #1
 1249              	.L600:
 1250 0504 20309DE5 		ldr	r3, [sp, #32]
 1251 0508 000053E3 		cmp	r3, #0
 1252 050c 980B00CA 		bgt	.L1114
 1253 0510 1F0073E3 		cmn	r3, #31
 1254 0514 8E0B00BA 		blt	.L1115
 1255 0518 80309DE5 		ldr	r3, [sp, #128]
 1256 051c 7C409DE5 		ldr	r4, [sp, #124]
 1257 0520 A2EF83E0 		add	lr, r3, r2, lsr #31
 1258 0524 78309DE5 		ldr	r3, [sp, #120]
 1259 0528 5233A0E1 		asr	r3, r2, r3
 1260 052c 042002E0 		and	r2, r2, r4
 1261 0530 0E0052E1 		cmp	r2, lr
 1262 0534 0320A0D1 		movle	r2, r3
 1263 0538 012083C2 		addgt	r2, r3, #1
 1264 053c 24309DE5 		ldr	r3, [sp, #36]
 1265 0540 040053E3 		cmp	r3, #4
 1266 0544 600B001A 		bne	.L1116
 1267 0548 18309DE5 		ldr	r3, [sp, #24]
 1268 054c 03005AE1 		cmp	r10, r3
 1269 0550 E10A00AA 		bge	.L1117
 1270 0554 3C309DE5 		ldr	r3, [sp, #60]
 1271 0558 03005BE1 		cmp	fp, r3
 1272 055c DD0A00AA 		bge	.L1118
 1273 0560 28309DE5 		ldr	r3, [sp, #40]
 1274 0564 030058E1 		cmp	r8, r3
 1275 0568 D90A00AA 		bge	.L1119
 1276 056c 10309DE5 		ldr	r3, [sp, #16]
 1277 0570 030051E1 		cmp	r1, r3
 1278 0574 84309DE5 		ldr	r3, [sp, #132]
 1279 0578 03C08CE0 		add	ip, ip, r3
 1280 057c 88309DE5 		ldr	r3, [sp, #136]
 1281 0580 030080E0 		add	r0, r0, r3
 1282 0584 CA0A00AA 		bge	.L1120
 1283 0588 022046E0 		sub	r2, r6, r2
 1284 058c 00309DE5 		ldr	r3, [sp]
 1285 0590 122F6FE1 		clz	r2, r2
 1286 0594 011081E2 		add	r1, r1, #1
 1287 0598 A222A0E1 		lsr	r2, r2, #5
 1288 059c 0120C3E4 		strb	r2, [r3], #1
 1289 05a0 00308DE5 		str	r3, [sp]
 1290              	.L704:
 1291 05a4 10309DE5 		ldr	r3, [sp, #16]
 1292              	.L586:
 1293 05a8 030051E1 		cmp	r1, r3
 1294 05ac 73FFFFBA 		blt	.L632
 1295 05b0 8C309DE5 		ldr	r3, [sp, #140]
 1296 05b4 018088E2 		add	r8, r8, #1
 1297 05b8 10209DE5 		ldr	r2, [sp, #16]
 1298 05bc 023083E0 		add	r3, r3, r2
 1299 05c0 9C209DE5 		ldr	r2, [sp, #156]
 1300 05c4 8C308DE5 		str	r3, [sp, #140]
 1301 05c8 90309DE5 		ldr	r3, [sp, #144]
 1302 05cc 023083E0 		add	r3, r3, r2
 1303 05d0 98209DE5 		ldr	r2, [sp, #152]
 1304 05d4 90308DE5 		str	r3, [sp, #144]
 1305 05d8 94309DE5 		ldr	r3, [sp, #148]
 1306 05dc 023083E0 		add	r3, r3, r2
 1307 05e0 94308DE5 		str	r3, [sp, #148]
 1308 05e4 50FFFFEA 		b	.L581
 1309              	.L239:
 1310 05e8 000050E3 		cmp	r0, #0
 1311 05ec E505000A 		beq	.L334
 1312 05f0 000055E3 		cmp	r5, #0
 1313 05f4 004098E5 		ldr	r4, [r8]
 1314 05f8 530C000A 		beq	.L1121
 1315 05fc 013C8DE2 		add	r3, sp, #256
 1316 0600 E8208DE2 		add	r2, sp, #232
 1317 0604 D0108DE2 		add	r1, sp, #208
 1318 0608 170E8DE2 		add	r0, sp, #368
 1319 060c 005095E5 		ldr	r5, [r5]
 1320 0610 FEFFFFEB 		bl	_ZN6tflite13reference_ops35BroadcastComparison4DSlowPreprocessERKNS_12RuntimeShapeES3_S3_
 1321 0614 70B19DE5 		ldr	fp, [sp, #368]
 1322 0618 00005BE3 		cmp	fp, #0
 1323 061c 490C00DA 		ble	.L336
 1324 0620 B8319DE5 		ldr	r3, [sp, #440]
 1325 0624 00C0A0E3 		mov	ip, #0
 1326 0628 98219DE5 		ldr	r2, [sp, #408]
 1327 062c 7C619DE5 		ldr	r6, [sp, #380]
 1328 0630 78719DE5 		ldr	r7, [sp, #376]
 1329 0634 BCE19DE5 		ldr	lr, [sp, #444]
 1330 0638 0331A0E1 		lsl	r3, r3, #2
 1331 063c 58408DE5 		str	r4, [sp, #88]
 1332 0640 70308DE5 		str	r3, [sp, #112]
 1333 0644 0231A0E1 		lsl	r3, r2, #2
 1334 0648 9C419DE5 		ldr	r4, [sp, #412]
 1335 064c 960700E0 		mul	r0, r6, r7
 1336 0650 5C508DE5 		str	r5, [sp, #92]
 1337 0654 54A08DE5 		str	r10, [sp, #84]
 1338 0658 C0519DE5 		ldr	r5, [sp, #448]
 1339 065c 80A19DE5 		ldr	r10, [sp, #384]
 1340 0660 6C308DE5 		str	r3, [sp, #108]
 1341 0664 0E31A0E1 		lsl	r3, lr, #2
 1342 0668 A4119DE5 		ldr	r1, [sp, #420]
 1343 066c 7C308DE5 		str	r3, [sp, #124]
 1344 0670 0431A0E1 		lsl	r3, r4, #2
 1345 0674 9A0000E0 		mul	r0, r10, r0
 1346 0678 78308DE5 		str	r3, [sp, #120]
 1347 067c 0531A0E1 		lsl	r3, r5, #2
 1348 0680 0181A0E1 		lsl	r8, r1, #2
 1349 0684 811081E0 		add	r1, r1, r1, lsl #1
 1350 0688 50308DE5 		str	r3, [sp, #80]
 1351 068c A0319DE5 		ldr	r3, [sp, #416]
 1352 0690 8111A0E1 		lsl	r1, r1, #3
 1353 0694 74008DE5 		str	r0, [sp, #116]
 1354 0698 009068E2 		rsb	r9, r8, #0
 1355 069c C4019DE5 		ldr	r0, [sp, #452]
 1356 06a0 28108DE5 		str	r1, [sp, #40]
 1357 06a4 9A0601E0 		mul	r1, r10, r6
 1358 06a8 0331A0E1 		lsl	r3, r3, #2
 1359 06ac 24908DE5 		str	r9, [sp, #36]
 1360 06b0 74919DE5 		ldr	r9, [sp, #372]
 1361 06b4 4C308DE5 		str	r3, [sp, #76]
 1362 06b8 0031A0E1 		lsl	r3, r0, #2
 1363 06bc 80108DE5 		str	r1, [sp, #128]
 1364 06c0 2C308DE5 		str	r3, [sp, #44]
 1365 06c4 88319DE5 		ldr	r3, [sp, #392]
 1366 06c8 00308DE5 		str	r3, [sp]
 1367 06cc 8C319DE5 		ldr	r3, [sp, #396]
 1368 06d0 08308DE5 		str	r3, [sp, #8]
 1369 06d4 90319DE5 		ldr	r3, [sp, #400]
 1370 06d8 20308DE5 		str	r3, [sp, #32]
 1371 06dc 94319DE5 		ldr	r3, [sp, #404]
 1372 06e0 10308DE5 		str	r3, [sp, #16]
 1373 06e4 A8319DE5 		ldr	r3, [sp, #424]
 1374 06e8 3C308DE5 		str	r3, [sp, #60]
 1375 06ec AC319DE5 		ldr	r3, [sp, #428]
 1376 06f0 40308DE5 		str	r3, [sp, #64]
 1377 06f4 B0319DE5 		ldr	r3, [sp, #432]
 1378 06f8 48308DE5 		str	r3, [sp, #72]
 1379 06fc B4319DE5 		ldr	r3, [sp, #436]
 1380 0700 18308DE5 		str	r3, [sp, #24]
 1381 0704 0630A0E1 		mov	r3, r6
 1382 0708 0760A0E1 		mov	r6, r7
 1383 070c 0370A0E1 		mov	r7, r3
 1384              	.L337:
 1385 0710 05005BE3 		cmp	fp, #5
 1386 0714 003099C5 		ldrgt	r3, [r9]
 1387 0718 0930A0D1 		movle	r3, r9
 1388 071c 0C0053E1 		cmp	r3, ip
 1389 0720 770A00DA 		ble	.L968
 1390 0724 01005BE3 		cmp	fp, #1
 1391 0728 490C000A 		beq	.L1122
 1392 072c 58309DE5 		ldr	r3, [sp, #88]
 1393 0730 00E0A0E3 		mov	lr, #0
 1394 0734 60308DE5 		str	r3, [sp, #96]
 1395 0738 54309DE5 		ldr	r3, [sp, #84]
 1396 073c 64308DE5 		str	r3, [sp, #100]
 1397 0740 5C309DE5 		ldr	r3, [sp, #92]
 1398 0744 68308DE5 		str	r3, [sp, #104]
 1399              	.L340:
 1400 0748 05005BE3 		cmp	fp, #5
 1401 074c 043099C5 		ldrgt	r3, [r9, #4]
 1402 0750 0630A0D1 		movle	r3, r6
 1403 0754 03005EE1 		cmp	lr, r3
 1404 0758 410B00AA 		bge	.L342
 1405 075c 02005BE3 		cmp	fp, #2
 1406 0760 3E0C000A 		beq	.L1123
 1407 0764 60309DE5 		ldr	r3, [sp, #96]
 1408 0768 0000A0E3 		mov	r0, #0
 1409 076c 30308DE5 		str	r3, [sp, #48]
 1410 0770 64309DE5 		ldr	r3, [sp, #100]
 1411 0774 34308DE5 		str	r3, [sp, #52]
 1412 0778 68309DE5 		ldr	r3, [sp, #104]
 1413 077c 38308DE5 		str	r3, [sp, #56]
 1414              	.L343:
 1415 0780 05005BE3 		cmp	fp, #5
 1416 0784 083099C5 		ldrgt	r3, [r9, #8]
 1417 0788 0730A0D1 		movle	r3, r7
 1418 078c 000053E1 		cmp	r3, r0
 1419 0790 620A00DA 		ble	.L345
 1420 0794 03005BE3 		cmp	fp, #3
 1421 0798 BB0A000A 		beq	.L346
 1422 079c 05005BE3 		cmp	fp, #5
 1423 07a0 48309DE5 		ldr	r3, [sp, #72]
 1424 07a4 D00300CA 		bgt	.L347
 1425 07a8 000053E1 		cmp	r3, r0
 1426 07ac 40309DE5 		ldr	r3, [sp, #64]
 1427 07b0 2B0C00DA 		ble	.L1124
 1428 07b4 03005EE1 		cmp	lr, r3
 1429 07b8 3C309DE5 		ldr	r3, [sp, #60]
 1430 07bc B40C00AA 		bge	.L1090
 1431 07c0 0C0053E1 		cmp	r3, ip
 1432 07c4 990C00DA 		ble	.L1074
 1433 07c8 30209DE5 		ldr	r2, [sp, #48]
 1434 07cc 0030A0E3 		mov	r3, #0
 1435 07d0 34409DE5 		ldr	r4, [sp, #52]
 1436 07d4 38109DE5 		ldr	r1, [sp, #56]
 1437 07d8 250000EA 		b	.L366
 1438              	.L1125:
 1439 07dc 04005BE3 		cmp	fp, #4
 1440 07e0 C403001A 		bne	.L352
 1441 07e4 0C0059E1 		cmp	r9, ip
 1442 07e8 140A00DA 		ble	.L353
 1443 07ec 06005EE1 		cmp	lr, r6
 1444 07f0 130A00AA 		bge	.L354
 1445 07f4 000057E1 		cmp	r7, r0
 1446 07f8 0F0A00DA 		ble	.L355
 1447 07fc 00509DE5 		ldr	r5, [sp]
 1448 0800 0C0055E1 		cmp	r5, ip
 1449 0804 0B0A00DA 		ble	.L356
 1450 0808 08509DE5 		ldr	r5, [sp, #8]
 1451 080c 05005EE1 		cmp	lr, r5
 1452 0810 070A00AA 		bge	.L357
 1453 0814 20509DE5 		ldr	r5, [sp, #32]
 1454 0818 000055E1 		cmp	r5, r0
 1455 081c 030A00DA 		ble	.L358
 1456 0820 10509DE5 		ldr	r5, [sp, #16]
 1457 0824 050053E1 		cmp	r3, r5
 1458 0828 FF0900AA 		bge	.L360
 1459 082c 28509DE5 		ldr	r5, [sp, #40]
 1460 0830 02F0D5F7 		pld	[r5, r2]
 1461 0834 082082E0 		add	r2, r2, r8
 1462 0838 18509DE5 		ldr	r5, [sp, #24]
 1463 083c 050053E1 		cmp	r3, r5
 1464 0840 24509DE5 		ldr	r5, [sp, #36]
 1465 0844 055082E0 		add	r5, r2, r5
 1466 0848 007AD5ED 		vldr.32	s15, [r5]
 1467 084c F50900AA 		bge	.L367
 1468 0850 007A91ED 		vldr.32	s14, [r1]
 1469 0854 013083E2 		add	r3, r3, #1
 1470 0858 2C509DE5 		ldr	r5, [sp, #44]
 1471 085c 677AB4EE 		vcmp.f32	s14, s15
 1472 0860 051081E0 		add	r1, r1, r5
 1473 0864 10FAF1EE 		vmrs	APSR_nzcv, FPSCR
 1474 0868 0150A003 		moveq	r5, #1
 1475 086c 0050A013 		movne	r5, #0
 1476 0870 0150C4E4 		strb	r5, [r4], #1
 1477              	.L366:
 1478 0874 0A0053E1 		cmp	r3, r10
 1479 0878 D7FFFFBA 		blt	.L1125
 1480              	.L351:
 1481 087c 38309DE5 		ldr	r3, [sp, #56]
 1482 0880 010080E2 		add	r0, r0, #1
 1483 0884 50209DE5 		ldr	r2, [sp, #80]
 1484 0888 023083E0 		add	r3, r3, r2
 1485 088c 4C209DE5 		ldr	r2, [sp, #76]
 1486 0890 38308DE5 		str	r3, [sp, #56]
 1487 0894 34309DE5 		ldr	r3, [sp, #52]
 1488 0898 0A3083E0 		add	r3, r3, r10
 1489 089c 34308DE5 		str	r3, [sp, #52]
 1490 08a0 30309DE5 		ldr	r3, [sp, #48]
 1491 08a4 023083E0 		add	r3, r3, r2
 1492 08a8 30308DE5 		str	r3, [sp, #48]
 1493 08ac B3FFFFEA 		b	.L343
 1494              	.L241:
 1495 08b0 000050E3 		cmp	r0, #0
 1496 08b4 9003000A 		beq	.L383
 1497 08b8 000055E3 		cmp	r5, #0
 1498 08bc 004098E5 		ldr	r4, [r8]
 1499 08c0 E50B000A 		beq	.L1126
 1500 08c4 013C8DE2 		add	r3, sp, #256
 1501 08c8 E8208DE2 		add	r2, sp, #232
 1502 08cc D0108DE2 		add	r1, sp, #208
 1503 08d0 720F8DE2 		add	r0, sp, #456
 1504 08d4 005095E5 		ldr	r5, [r5]
 1505 08d8 FEFFFFEB 		bl	_ZN6tflite13reference_ops35BroadcastComparison4DSlowPreprocessERKNS_12RuntimeShapeES3_S3_
 1506 08dc C8919DE5 		ldr	r9, [sp, #456]
 1507 08e0 000059E3 		cmp	r9, #0
 1508 08e4 9E0B00DA 		ble	.L385
 1509 08e8 10329DE5 		ldr	r3, [sp, #528]
 1510 08ec 0070A0E3 		mov	r7, #0
 1511 08f0 D4619DE5 		ldr	r6, [sp, #468]
 1512 08f4 60A08DE5 		str	r10, [sp, #96]
 1513 08f8 D8A19DE5 		ldr	r10, [sp, #472]
 1514 08fc 0331A0E1 		lsl	r3, r3, #2
 1515 0900 F0E19DE5 		ldr	lr, [sp, #496]
 1516 0904 58508DE5 		str	r5, [sp, #88]
 1517 0908 78308DE5 		str	r3, [sp, #120]
 1518 090c 9A0603E0 		mul	r3, r10, r6
 1519 0910 14529DE5 		ldr	r5, [sp, #532]
 1520 0914 1CC29DE5 		ldr	ip, [sp, #540]
 1521 0918 FC019DE5 		ldr	r0, [sp, #508]
 1522 091c D0B19DE5 		ldr	fp, [sp, #464]
 1523 0920 80308DE5 		str	r3, [sp, #128]
 1524 0924 0E31A0E1 		lsl	r3, lr, #2
 1525 0928 0CC1A0E1 		lsl	ip, ip, #2
 1526 092c 74308DE5 		str	r3, [sp, #116]
 1527 0930 0531A0E1 		lsl	r3, r5, #2
 1528 0934 08C08DE5 		str	ip, [sp, #8]
 1529 0938 0011A0E1 		lsl	r1, r0, #2
 1530 093c 84308DE5 		str	r3, [sp, #132]
 1531 0940 960B02E0 		mul	r2, r6, fp
 1532 0944 F4319DE5 		ldr	r3, [sp, #500]
 1533 0948 0180A0E1 		mov	r8, r1
 1534 094c 18C29DE5 		ldr	ip, [sp, #536]
 1535 0950 2C108DE5 		str	r1, [sp, #44]
 1536 0954 801080E0 		add	r1, r0, r0, lsl #1
 1537 0958 080040E0 		sub	r0, r0, r8
 1538 095c 0331A0E1 		lsl	r3, r3, #2
 1539 0960 811184E0 		add	r1, r4, r1, lsl #3
 1540 0964 8001A0E1 		lsl	r0, r0, #3
 1541 0968 7C308DE5 		str	r3, [sp, #124]
 1542 096c 0C31A0E1 		lsl	r3, ip, #2
 1543 0970 5C108DE5 		str	r1, [sp, #92]
 1544 0974 9A0201E0 		mul	r1, r10, r2
 1545 0978 54308DE5 		str	r3, [sp, #84]
 1546 097c F8319DE5 		ldr	r3, [sp, #504]
 1547 0980 08209DE5 		ldr	r2, [sp, #8]
 1548 0984 30008DE5 		str	r0, [sp, #48]
 1549 0988 70108DE5 		str	r1, [sp, #112]
 1550 098c 0331A0E1 		lsl	r3, r3, #2
 1551 0990 008062E2 		rsb	r8, r2, #0
 1552 0994 CC219DE5 		ldr	r2, [sp, #460]
 1553 0998 50308DE5 		str	r3, [sp, #80]
 1554 099c E0319DE5 		ldr	r3, [sp, #480]
 1555 09a0 20308DE5 		str	r3, [sp, #32]
 1556 09a4 E4319DE5 		ldr	r3, [sp, #484]
 1557 09a8 10308DE5 		str	r3, [sp, #16]
 1558 09ac E8319DE5 		ldr	r3, [sp, #488]
 1559 09b0 18308DE5 		str	r3, [sp, #24]
 1560 09b4 EC319DE5 		ldr	r3, [sp, #492]
 1561 09b8 24308DE5 		str	r3, [sp, #36]
 1562 09bc 00329DE5 		ldr	r3, [sp, #512]
 1563 09c0 40308DE5 		str	r3, [sp, #64]
 1564 09c4 04329DE5 		ldr	r3, [sp, #516]
 1565 09c8 48308DE5 		str	r3, [sp, #72]
 1566 09cc 08329DE5 		ldr	r3, [sp, #520]
 1567 09d0 4C308DE5 		str	r3, [sp, #76]
 1568 09d4 0C329DE5 		ldr	r3, [sp, #524]
 1569 09d8 28308DE5 		str	r3, [sp, #40]
 1570 09dc 0A30A0E1 		mov	r3, r10
 1571 09e0 06A0A0E1 		mov	r10, r6
 1572 09e4 0B60A0E1 		mov	r6, fp
 1573 09e8 03B0A0E1 		mov	fp, r3
 1574              	.L386:
 1575 09ec 050059E3 		cmp	r9, #5
 1576 09f0 003092C5 		ldrgt	r3, [r2]
 1577 09f4 0230A0D1 		movle	r3, r2
 1578 09f8 070053E1 		cmp	r3, r7
 1579 09fc 910A00DA 		ble	.L388
 1580 0a00 010059E3 		cmp	r9, #1
 1581 0a04 510B000A 		beq	.L1127
 1582 0a08 5C309DE5 		ldr	r3, [sp, #92]
 1583 0a0c 0040A0E3 		mov	r4, #0
 1584 0a10 0610A0E1 		mov	r1, r6
 1585 0a14 64308DE5 		str	r3, [sp, #100]
 1586 0a18 60309DE5 		ldr	r3, [sp, #96]
 1587 0a1c 68308DE5 		str	r3, [sp, #104]
 1588 0a20 58309DE5 		ldr	r3, [sp, #88]
 1589 0a24 6C308DE5 		str	r3, [sp, #108]
 1590              	.L389:
 1591 0a28 050059E3 		cmp	r9, #5
 1592 0a2c 043092C5 		ldrgt	r3, [r2, #4]
 1593 0a30 0130A0D1 		movle	r3, r1
 1594 0a34 040053E1 		cmp	r3, r4
 1595 0a38 A50A00DA 		ble	.L391
 1596 0a3c 020059E3 		cmp	r9, #2
 1597 0a40 EE0A000A 		beq	.L1128
 1598 0a44 64309DE5 		ldr	r3, [sp, #100]
 1599 0a48 00E0A0E3 		mov	lr, #0
 1600 0a4c 00108DE5 		str	r1, [sp]
 1601 0a50 38308DE5 		str	r3, [sp, #56]
 1602 0a54 68309DE5 		ldr	r3, [sp, #104]
 1603 0a58 34308DE5 		str	r3, [sp, #52]
 1604 0a5c 6C309DE5 		ldr	r3, [sp, #108]
 1605 0a60 3C308DE5 		str	r3, [sp, #60]
 1606              	.L392:
 1607 0a64 050059E3 		cmp	r9, #5
 1608 0a68 083092C5 		ldrgt	r3, [r2, #8]
 1609 0a6c 0A30A0D1 		movle	r3, r10
 1610 0a70 0E0053E1 		cmp	r3, lr
 1611 0a74 EF0900DA 		ble	.L394
 1612 0a78 030059E3 		cmp	r9, #3
 1613 0a7c 0C0A000A 		beq	.L395
 1614 0a80 050059E3 		cmp	r9, #5
 1615 0a84 4C309DE5 		ldr	r3, [sp, #76]
 1616 0a88 130300CA 		bgt	.L396
 1617 0a8c 0E0053E1 		cmp	r3, lr
 1618 0a90 48309DE5 		ldr	r3, [sp, #72]
 1619 0a94 DA0A00DA 		ble	.L1129
 1620 0a98 040053E1 		cmp	r3, r4
 1621 0a9c 40309DE5 		ldr	r3, [sp, #64]
 1622 0aa0 0C0B00DA 		ble	.L1092
 1623 0aa4 070053E1 		cmp	r3, r7
 1624 0aa8 F20A00DA 		ble	.L1079
 1625 0aac 38C09DE5 		ldr	ip, [sp, #56]
 1626 0ab0 0000A0E3 		mov	r0, #0
 1627 0ab4 34609DE5 		ldr	r6, [sp, #52]
 1628 0ab8 3C509DE5 		ldr	r5, [sp, #60]
 1629 0abc 240000EA 		b	.L415
 1630              	.L1130:
 1631 0ac0 040059E3 		cmp	r9, #4
 1632 0ac4 0703001A 		bne	.L401
 1633 0ac8 070052E1 		cmp	r2, r7
 1634 0acc 530900DA 		ble	.L402
 1635 0ad0 00309DE5 		ldr	r3, [sp]
 1636 0ad4 040053E1 		cmp	r3, r4
 1637 0ad8 510900DA 		ble	.L403
 1638 0adc 0E005AE1 		cmp	r10, lr
 1639 0ae0 4D0900DA 		ble	.L404
 1640 0ae4 20309DE5 		ldr	r3, [sp, #32]
 1641 0ae8 070053E1 		cmp	r3, r7
 1642 0aec 490900DA 		ble	.L405
 1643 0af0 10309DE5 		ldr	r3, [sp, #16]
 1644 0af4 040053E1 		cmp	r3, r4
 1645 0af8 450900DA 		ble	.L406
 1646 0afc 18309DE5 		ldr	r3, [sp, #24]
 1647 0b00 0E0053E1 		cmp	r3, lr
 1648 0b04 410900DA 		ble	.L407
 1649 0b08 24309DE5 		ldr	r3, [sp, #36]
 1650 0b0c 000053E1 		cmp	r3, r0
 1651 0b10 3D0900DA 		ble	.L409
 1652 0b14 28309DE5 		ldr	r3, [sp, #40]
 1653 0b18 00F0DCF5 		pld	[ip]
 1654 0b1c 000053E1 		cmp	r3, r0
 1655 0b20 08309DE5 		ldr	r3, [sp, #8]
 1656 0b24 035085E0 		add	r5, r5, r3
 1657 0b28 30309DE5 		ldr	r3, [sp, #48]
 1658 0b2c 03109CE7 		ldr	r1, [ip, r3]
 1659 0b30 2C309DE5 		ldr	r3, [sp, #44]
 1660 0b34 03C08CE0 		add	ip, ip, r3
 1661 0b38 320900DA 		ble	.L416
 1662 0b3c 083095E7 		ldr	r3, [r5, r8]
 1663 0b40 010080E2 		add	r0, r0, #1
 1664 0b44 013043E0 		sub	r3, r3, r1
 1665 0b48 133F6FE1 		clz	r3, r3
 1666 0b4c A332A0E1 		lsr	r3, r3, #5
 1667 0b50 0130C6E4 		strb	r3, [r6], #1
 1668              	.L415:
 1669 0b54 00005BE1 		cmp	fp, r0
 1670 0b58 D8FFFFCA 		bgt	.L1130
 1671              	.L400:
 1672 0b5c 3C309DE5 		ldr	r3, [sp, #60]
 1673 0b60 01E08EE2 		add	lr, lr, #1
 1674 0b64 54109DE5 		ldr	r1, [sp, #84]
 1675 0b68 013083E0 		add	r3, r3, r1
 1676 0b6c 50109DE5 		ldr	r1, [sp, #80]
 1677 0b70 3C308DE5 		str	r3, [sp, #60]
 1678 0b74 34309DE5 		ldr	r3, [sp, #52]
 1679 0b78 0B3083E0 		add	r3, r3, fp
 1680 0b7c 34308DE5 		str	r3, [sp, #52]
 1681 0b80 38309DE5 		ldr	r3, [sp, #56]
 1682 0b84 013083E0 		add	r3, r3, r1
 1683 0b88 38308DE5 		str	r3, [sp, #56]
 1684 0b8c B4FFFFEA 		b	.L392
 1685              	.L243:
 1686 0b90 000050E3 		cmp	r0, #0
 1687 0b94 8706000A 		beq	.L469
 1688 0b98 000055E3 		cmp	r5, #0
 1689 0b9c 004098E5 		ldr	r4, [r8]
 1690 0ba0 710A000A 		beq	.L1131
 1691 0ba4 013C8DE2 		add	r3, sp, #256
 1692 0ba8 E8208DE2 		add	r2, sp, #232
 1693 0bac D0108DE2 		add	r1, sp, #208
 1694 0bb0 220E8DE2 		add	r0, sp, #544
 1695 0bb4 005095E5 		ldr	r5, [r5]
 1696 0bb8 FEFFFFEB 		bl	_ZN6tflite13reference_ops35BroadcastComparison4DSlowPreprocessERKNS_12RuntimeShapeES3_S3_
 1697 0bbc 20B29DE5 		ldr	fp, [sp, #544]
 1698 0bc0 00005BE3 		cmp	fp, #0
 1699 0bc4 6D0A00DA 		ble	.L471
 1700 0bc8 28329DE5 		ldr	r3, [sp, #552]
 1701 0bcc 54129DE5 		ldr	r1, [sp, #596]
 1702 0bd0 48229DE5 		ldr	r2, [sp, #584]
 1703 0bd4 0300A0E1 		mov	r0, r3
 1704 0bd8 20308DE5 		str	r3, [sp, #32]
 1705 0bdc 2C329DE5 		ldr	r3, [sp, #556]
 1706 0be0 30E29DE5 		ldr	lr, [sp, #560]
 1707 0be4 6CC29DE5 		ldr	ip, [sp, #620]
 1708 0be8 0370A0E1 		mov	r7, r3
 1709 0bec 08308DE5 		str	r3, [sp, #8]
 1710 0bf0 68329DE5 		ldr	r3, [sp, #616]
 1711 0bf4 970000E0 		mul	r0, r7, r0
 1712 0bf8 78408DE5 		str	r4, [sp, #120]
 1713 0bfc 8141A0E1 		lsl	r4, r1, #3
 1714 0c00 4C629DE5 		ldr	r6, [sp, #588]
 1715 0c04 811081E0 		add	r1, r1, r1, lsl #1
 1716 0c08 70508DE5 		str	r5, [sp, #112]
 1717 0c0c 0450A0E1 		mov	r5, r4
 1718 0c10 8331A0E1 		lsl	r3, r3, #3
 1719 0c14 9E0000E0 		mul	r0, lr, r0
 1720 0c18 30408DE5 		str	r4, [sp, #48]
 1721 0c1c 005065E2 		rsb	r5, r5, #0
 1722 0c20 88308DE5 		str	r3, [sp, #136]
 1723 0c24 8231A0E1 		lsl	r3, r2, #3
 1724 0c28 70429DE5 		ldr	r4, [sp, #624]
 1725 0c2c 0112A0E1 		lsl	r1, r1, #4
 1726 0c30 90308DE5 		str	r3, [sp, #144]
 1727 0c34 8C31A0E1 		lsl	r3, ip, #3
 1728 0c38 34508DE5 		str	r5, [sp, #52]
 1729 0c3c 7C308DE5 		str	r3, [sp, #124]
 1730 0c40 8631A0E1 		lsl	r3, r6, #3
 1731 0c44 50529DE5 		ldr	r5, [sp, #592]
 1732 0c48 8C008DE5 		str	r0, [sp, #140]
 1733 0c4c 84308DE5 		str	r3, [sp, #132]
 1734 0c50 8431A0E1 		lsl	r3, r4, #3
 1735 0c54 74029DE5 		ldr	r0, [sp, #628]
 1736 0c58 5C308DE5 		str	r3, [sp, #92]
 1737 0c5c 8531A0E1 		lsl	r3, r5, #3
 1738 0c60 38108DE5 		str	r1, [sp, #56]
 1739 0c64 9E0701E0 		mul	r1, lr, r7
 1740 0c68 60308DE5 		str	r3, [sp, #96]
 1741 0c6c 8031A0E1 		lsl	r3, r0, #3
 1742 0c70 24929DE5 		ldr	r9, [sp, #548]
 1743 0c74 74A08DE5 		str	r10, [sp, #116]
 1744 0c78 00A0A0E3 		mov	r10, #0
 1745 0c7c 3C308DE5 		str	r3, [sp, #60]
 1746 0c80 38329DE5 		ldr	r3, [sp, #568]
 1747 0c84 80108DE5 		str	r1, [sp, #128]
 1748 0c88 10308DE5 		str	r3, [sp, #16]
 1749 0c8c 3C329DE5 		ldr	r3, [sp, #572]
 1750 0c90 18308DE5 		str	r3, [sp, #24]
 1751 0c94 40329DE5 		ldr	r3, [sp, #576]
 1752 0c98 24308DE5 		str	r3, [sp, #36]
 1753 0c9c 44329DE5 		ldr	r3, [sp, #580]
 1754 0ca0 28308DE5 		str	r3, [sp, #40]
 1755 0ca4 58329DE5 		ldr	r3, [sp, #600]
 1756 0ca8 50308DE5 		str	r3, [sp, #80]
 1757 0cac 5C329DE5 		ldr	r3, [sp, #604]
 1758 0cb0 54308DE5 		str	r3, [sp, #84]
 1759 0cb4 60329DE5 		ldr	r3, [sp, #608]
 1760 0cb8 58308DE5 		str	r3, [sp, #88]
 1761 0cbc 64329DE5 		ldr	r3, [sp, #612]
 1762 0cc0 2C308DE5 		str	r3, [sp, #44]
 1763 0cc4 0E30A0E1 		mov	r3, lr
 1764 0cc8 09E0A0E1 		mov	lr, r9
 1765 0ccc 0390A0E1 		mov	r9, r3
 1766              	.L472:
 1767 0cd0 05005BE3 		cmp	fp, #5
 1768 0cd4 00309EC5 		ldrgt	r3, [lr]
 1769 0cd8 0E30A0D1 		movle	r3, lr
 1770 0cdc 03005AE1 		cmp	r10, r3
 1771 0ce0 060900AA 		bge	.L474
 1772 0ce4 01005BE3 		cmp	fp, #1
 1773 0ce8 990A000A 		beq	.L1132
 1774 0cec 78309DE5 		ldr	r3, [sp, #120]
 1775 0cf0 0080A0E3 		mov	r8, #0
 1776 0cf4 6C308DE5 		str	r3, [sp, #108]
 1777 0cf8 74309DE5 		ldr	r3, [sp, #116]
 1778 0cfc 68308DE5 		str	r3, [sp, #104]
 1779 0d00 70309DE5 		ldr	r3, [sp, #112]
 1780 0d04 64308DE5 		str	r3, [sp, #100]
 1781              	.L475:
 1782 0d08 05005BE3 		cmp	fp, #5
 1783 0d0c 04309EC5 		ldrgt	r3, [lr, #4]
 1784 0d10 20309DD5 		ldrle	r3, [sp, #32]
 1785 0d14 080053E1 		cmp	r3, r8
 1786 0d18 FC0900DA 		ble	.L477
 1787 0d1c 02005BE3 		cmp	fp, #2
 1788 0d20 8D0A000A 		beq	.L1133
 1789 0d24 6C309DE5 		ldr	r3, [sp, #108]
 1790 0d28 00C0A0E3 		mov	ip, #0
 1791 0d2c 4C308DE5 		str	r3, [sp, #76]
 1792 0d30 68309DE5 		ldr	r3, [sp, #104]
 1793 0d34 48308DE5 		str	r3, [sp, #72]
 1794 0d38 64309DE5 		ldr	r3, [sp, #100]
 1795 0d3c 40308DE5 		str	r3, [sp, #64]
 1796              	.L478:
 1797 0d40 05005BE3 		cmp	fp, #5
 1798 0d44 08309EC5 		ldrgt	r3, [lr, #8]
 1799 0d48 08309DD5 		ldrle	r3, [sp, #8]
 1800 0d4c 0C0053E1 		cmp	r3, ip
 1801 0d50 1C0900DA 		ble	.L480
 1802 0d54 03005BE3 		cmp	fp, #3
 1803 0d58 5609000A 		beq	.L481
 1804 0d5c 05005BE3 		cmp	fp, #5
 1805 0d60 58309DE5 		ldr	r3, [sp, #88]
 1806 0d64 580200CA 		bgt	.L482
 1807 0d68 0C0053E1 		cmp	r3, ip
 1808 0d6c 54309DE5 		ldr	r3, [sp, #84]
 1809 0d70 030A00DA 		ble	.L1134
 1810 0d74 080053E1 		cmp	r3, r8
 1811 0d78 50309DE5 		ldr	r3, [sp, #80]
 1812 0d7c 920A00DA 		ble	.L1094
 1813 0d80 03005AE1 		cmp	r10, r3
 1814 0d84 770A00AA 		bge	.L1084
 1815 0d88 48009DE5 		ldr	r0, [sp, #72]
 1816 0d8c 0030A0E3 		mov	r3, #0
 1817 0d90 4C209DE5 		ldr	r2, [sp, #76]
 1818 0d94 40109DE5 		ldr	r1, [sp, #64]
 1819 0d98 00008DE5 		str	r0, [sp]
 1820 0d9c 2A0000EA 		b	.L501
 1821              	.L1135:
 1822 0da0 04005BE3 		cmp	fp, #4
 1823 0da4 4B02001A 		bne	.L487
 1824 0da8 0E005AE1 		cmp	r10, lr
 1825 0dac 930800AA 		bge	.L488
 1826 0db0 20409DE5 		ldr	r4, [sp, #32]
 1827 0db4 080054E1 		cmp	r4, r8
 1828 0db8 910800DA 		ble	.L489
 1829 0dbc 08409DE5 		ldr	r4, [sp, #8]
 1830 0dc0 0C0054E1 		cmp	r4, ip
 1831 0dc4 8C0800DA 		ble	.L490
 1832 0dc8 10409DE5 		ldr	r4, [sp, #16]
 1833 0dcc 04005AE1 		cmp	r10, r4
 1834 0dd0 880800AA 		bge	.L491
 1835 0dd4 18409DE5 		ldr	r4, [sp, #24]
 1836 0dd8 080054E1 		cmp	r4, r8
 1837 0ddc 840800DA 		ble	.L492
 1838 0de0 24409DE5 		ldr	r4, [sp, #36]
 1839 0de4 0C0054E1 		cmp	r4, ip
 1840 0de8 800800DA 		ble	.L493
 1841 0dec 28409DE5 		ldr	r4, [sp, #40]
 1842 0df0 030054E1 		cmp	r4, r3
 1843 0df4 7C0800DA 		ble	.L495
 1844 0df8 38409DE5 		ldr	r4, [sp, #56]
 1845 0dfc 02F0D4F7 		pld	[r4, r2]
 1846 0e00 2C409DE5 		ldr	r4, [sp, #44]
 1847 0e04 030054E1 		cmp	r4, r3
 1848 0e08 30409DE5 		ldr	r4, [sp, #48]
 1849 0e0c 042082E0 		add	r2, r2, r4
 1850 0e10 34409DE5 		ldr	r4, [sp, #52]
 1851 0e14 044082E0 		add	r4, r2, r4
 1852 0e18 D040C4E1 		ldrd	r4, [r4]
 1853 0e1c 710800DA 		ble	.L502
 1854 0e20 D060C1E1 		ldrd	r6, [r1]
 1855 0e24 013083E2 		add	r3, r3, #1
 1856 0e28 3C009DE5 		ldr	r0, [sp, #60]
 1857 0e2c 050057E1 		cmp	r7, r5
 1858 0e30 001081E0 		add	r1, r1, r0
 1859 0e34 00009DE5 		ldr	r0, [sp]
 1860 0e38 04005601 		cmpeq	r6, r4
 1861 0e3c 0140A003 		moveq	r4, #1
 1862 0e40 0040A013 		movne	r4, #0
 1863 0e44 0140C0E4 		strb	r4, [r0], #1
 1864 0e48 00008DE5 		str	r0, [sp]
 1865              	.L501:
 1866 0e4c 030059E1 		cmp	r9, r3
 1867 0e50 D2FFFFCA 		bgt	.L1135
 1868              	.L486:
 1869 0e54 40309DE5 		ldr	r3, [sp, #64]
 1870 0e58 01C08CE2 		add	ip, ip, #1
 1871 0e5c 5C209DE5 		ldr	r2, [sp, #92]
 1872 0e60 023083E0 		add	r3, r3, r2
 1873 0e64 60209DE5 		ldr	r2, [sp, #96]
 1874 0e68 40308DE5 		str	r3, [sp, #64]
 1875 0e6c 48309DE5 		ldr	r3, [sp, #72]
 1876 0e70 093083E0 		add	r3, r3, r9
 1877 0e74 48308DE5 		str	r3, [sp, #72]
 1878 0e78 4C309DE5 		ldr	r3, [sp, #76]
 1879 0e7c 023083E0 		add	r3, r3, r2
 1880 0e80 4C308DE5 		str	r3, [sp, #76]
 1881 0e84 ADFFFFEA 		b	.L478
 1882              	.L244:
 1883 0e88 000050E3 		cmp	r0, #0
 1884 0e8c 3604000A 		beq	.L247
 1885 0e90 000055E3 		cmp	r5, #0
 1886 0e94 004098E5 		ldr	r4, [r8]
 1887 0e98 B209000A 		beq	.L1136
 1888 0e9c 013C8DE2 		add	r3, sp, #256
 1889 0ea0 E8208DE2 		add	r2, sp, #232
 1890 0ea4 D0108DE2 		add	r1, sp, #208
 1891 0ea8 460F8DE2 		add	r0, sp, #280
 1892 0eac 005095E5 		ldr	r5, [r5]
 1893 0eb0 FEFFFFEB 		bl	_ZN6tflite13reference_ops35BroadcastComparison4DSlowPreprocessERKNS_12RuntimeShapeES3_S3_
 1894 0eb4 18B19DE5 		ldr	fp, [sp, #280]
 1895 0eb8 00005BE3 		cmp	fp, #0
 1896 0ebc 630A00DA 		ble	.L249
 1897 0ec0 24619DE5 		ldr	r6, [sp, #292]
 1898 0ec4 0080A0E3 		mov	r8, #0
 1899 0ec8 20319DE5 		ldr	r3, [sp, #288]
 1900 0ecc 6C219DE5 		ldr	r2, [sp, #364]
 1901 0ed0 4C719DE5 		ldr	r7, [sp, #332]
 1902 0ed4 00308DE5 		str	r3, [sp]
 1903 0ed8 0200A0E1 		mov	r0, r2
 1904 0edc 28208DE5 		str	r2, [sp, #40]
 1905 0ee0 960302E0 		mul	r2, r6, r3
 1906 0ee4 30319DE5 		ldr	r3, [sp, #304]
 1907 0ee8 68A08DE5 		str	r10, [sp, #104]
 1908 0eec 871087E0 		add	r1, r7, r7, lsl #1
 1909 0ef0 28A19DE5 		ldr	r10, [sp, #296]
 1910 0ef4 08308DE5 		str	r3, [sp, #8]
 1911 0ef8 073147E0 		sub	r3, r7, r7, lsl #2
 1912 0efc 811084E0 		add	r1, r4, r1, lsl #1
 1913 0f00 64508DE5 		str	r5, [sp, #100]
 1914 0f04 8330A0E1 		lsl	r3, r3, #1
 1915 0f08 1C919DE5 		ldr	r9, [sp, #284]
 1916 0f0c 9A060CE0 		mul	ip, r10, r6
 1917 0f10 6C108DE5 		str	r1, [sp, #108]
 1918 0f14 2C308DE5 		str	r3, [sp, #44]
 1919 0f18 001060E2 		rsb	r1, r0, #0
 1920 0f1c 34319DE5 		ldr	r3, [sp, #308]
 1921 0f20 9A0202E0 		mul	r2, r10, r2
 1922 0f24 30108DE5 		str	r1, [sp, #48]
 1923 0f28 78C08DE5 		str	ip, [sp, #120]
 1924 0f2c 20308DE5 		str	r3, [sp, #32]
 1925 0f30 38319DE5 		ldr	r3, [sp, #312]
 1926 0f34 80208DE5 		str	r2, [sp, #128]
 1927 0f38 10308DE5 		str	r3, [sp, #16]
 1928 0f3c 3C319DE5 		ldr	r3, [sp, #316]
 1929 0f40 18308DE5 		str	r3, [sp, #24]
 1930 0f44 44319DE5 		ldr	r3, [sp, #324]
 1931 0f48 70308DE5 		str	r3, [sp, #112]
 1932 0f4c 48319DE5 		ldr	r3, [sp, #328]
 1933 0f50 50308DE5 		str	r3, [sp, #80]
 1934 0f54 50319DE5 		ldr	r3, [sp, #336]
 1935 0f58 40308DE5 		str	r3, [sp, #64]
 1936 0f5c 54319DE5 		ldr	r3, [sp, #340]
 1937 0f60 48308DE5 		str	r3, [sp, #72]
 1938 0f64 58319DE5 		ldr	r3, [sp, #344]
 1939 0f68 4C308DE5 		str	r3, [sp, #76]
 1940 0f6c 5C319DE5 		ldr	r3, [sp, #348]
 1941 0f70 24308DE5 		str	r3, [sp, #36]
 1942 0f74 64319DE5 		ldr	r3, [sp, #356]
 1943 0f78 74308DE5 		str	r3, [sp, #116]
 1944 0f7c 68319DE5 		ldr	r3, [sp, #360]
 1945 0f80 54308DE5 		str	r3, [sp, #84]
 1946 0f84 60319DE5 		ldr	r3, [sp, #352]
 1947 0f88 7C308DE5 		str	r3, [sp, #124]
 1948 0f8c 40319DE5 		ldr	r3, [sp, #320]
 1949 0f90 84308DE5 		str	r3, [sp, #132]
 1950 0f94 0730A0E1 		mov	r3, r7
 1951 0f98 0670A0E1 		mov	r7, r6
 1952 0f9c 0360A0E1 		mov	r6, r3
 1953              	.L250:
 1954 0fa0 05005BE3 		cmp	fp, #5
 1955 0fa4 003099C5 		ldrgt	r3, [r9]
 1956 0fa8 0930A0D1 		movle	r3, r9
 1957 0fac 080053E1 		cmp	r3, r8
 1958 0fb0 530800DA 		ble	.L968
 1959 0fb4 01005BE3 		cmp	fp, #1
 1960 0fb8 230A000A 		beq	.L253
 1961 0fbc 6C309DE5 		ldr	r3, [sp, #108]
 1962 0fc0 0040A0E3 		mov	r4, #0
 1963 0fc4 60308DE5 		str	r3, [sp, #96]
 1964 0fc8 68309DE5 		ldr	r3, [sp, #104]
 1965 0fcc 5C308DE5 		str	r3, [sp, #92]
 1966 0fd0 64309DE5 		ldr	r3, [sp, #100]
 1967 0fd4 58308DE5 		str	r3, [sp, #88]
 1968              	.L254:
 1969 0fd8 05005BE3 		cmp	fp, #5
 1970 0fdc 043099C5 		ldrgt	r3, [r9, #4]
 1971 0fe0 00309DD5 		ldrle	r3, [sp]
 1972 0fe4 040053E1 		cmp	r3, r4
 1973 0fe8 080900DA 		ble	.L256
 1974 0fec 02005BE3 		cmp	fp, #2
 1975 0ff0 DA09000A 		beq	.L257
 1976 0ff4 60309DE5 		ldr	r3, [sp, #96]
 1977 0ff8 00E0A0E3 		mov	lr, #0
 1978 0ffc 3C308DE5 		str	r3, [sp, #60]
 1979 1000 5C309DE5 		ldr	r3, [sp, #92]
 1980 1004 38308DE5 		str	r3, [sp, #56]
 1981 1008 58309DE5 		ldr	r3, [sp, #88]
 1982 100c 34308DE5 		str	r3, [sp, #52]
 1983              	.L258:
 1984 1010 05005BE3 		cmp	fp, #5
 1985 1014 083099C5 		ldrgt	r3, [r9, #8]
 1986 1018 0730A0D1 		movle	r3, r7
 1987 101c 0E0053E1 		cmp	r3, lr
 1988 1020 760800DA 		ble	.L260
 1989 1024 03005BE3 		cmp	fp, #3
 1990 1028 A008000A 		beq	.L261
 1991 102c 05005BE3 		cmp	fp, #5
 1992 1030 4C309DE5 		ldr	r3, [sp, #76]
 1993 1034 A00100CA 		bgt	.L262
 1994 1038 0E0053E1 		cmp	r3, lr
 1995 103c 48309DE5 		ldr	r3, [sp, #72]
 1996 1040 5B0A00DA 		ble	.L1137
 1997 1044 040053E1 		cmp	r3, r4
 1998 1048 40309DE5 		ldr	r3, [sp, #64]
 1999 104c 3E0A00DA 		ble	.L1088
 2000 1050 080053E1 		cmp	r3, r8
 2001 1054 240A00DA 		ble	.L1069
 2002 1058 3C009DE5 		ldr	r0, [sp, #60]
 2003 105c 0010A0E3 		mov	r1, #0
 2004 1060 38509DE5 		ldr	r5, [sp, #56]
 2005 1064 34C09DE5 		ldr	ip, [sp, #52]
 2006 1068 240000EA 		b	.L283
 2007              	.L1138:
 2008 106c 04005BE3 		cmp	fp, #4
 2009 1070 9401001A 		bne	.L267
 2010 1074 080059E1 		cmp	r9, r8
 2011 1078 F90700DA 		ble	.L268
 2012 107c 00309DE5 		ldr	r3, [sp]
 2013 1080 040053E1 		cmp	r3, r4
 2014 1084 F50700DA 		ble	.L269
 2015 1088 0E0057E1 		cmp	r7, lr
 2016 108c F20700DA 		ble	.L270
 2017 1090 08309DE5 		ldr	r3, [sp, #8]
 2018 1094 080053E1 		cmp	r3, r8
 2019 1098 EE0700DA 		ble	.L271
 2020 109c 20309DE5 		ldr	r3, [sp, #32]
 2021 10a0 040053E1 		cmp	r3, r4
 2022 10a4 EA0700DA 		ble	.L272
 2023 10a8 10309DE5 		ldr	r3, [sp, #16]
 2024 10ac 0E0053E1 		cmp	r3, lr
 2025 10b0 E60700DA 		ble	.L273
 2026 10b4 18309DE5 		ldr	r3, [sp, #24]
 2027 10b8 010053E1 		cmp	r3, r1
 2028 10bc E20700DA 		ble	.L275
 2029 10c0 24309DE5 		ldr	r3, [sp, #36]
 2030 10c4 00F0D0F5 		pld	[r0]
 2031 10c8 010053E1 		cmp	r3, r1
 2032 10cc 28309DE5 		ldr	r3, [sp, #40]
 2033 10d0 03C08CE0 		add	ip, ip, r3
 2034 10d4 2C309DE5 		ldr	r3, [sp, #44]
 2035 10d8 0320D0E7 		ldrb	r2, [r0, r3]	@ zero_extendqisi2
 2036 10dc 060080E0 		add	r0, r0, r6
 2037 10e0 D80700DA 		ble	.L282
 2038 10e4 30309DE5 		ldr	r3, [sp, #48]
 2039 10e8 011081E2 		add	r1, r1, #1
 2040 10ec 0330DCE7 		ldrb	r3, [ip, r3]	@ zero_extendqisi2
 2041 10f0 023043E0 		sub	r3, r3, r2
 2042 10f4 133F6FE1 		clz	r3, r3
 2043 10f8 A332A0E1 		lsr	r3, r3, #5
 2044 10fc 0130C5E4 		strb	r3, [r5], #1
 2045              	.L283:
 2046 1100 01005AE1 		cmp	r10, r1
 2047 1104 D8FFFFCA 		bgt	.L1138
 2048              	.L266:
 2049 1108 34309DE5 		ldr	r3, [sp, #52]
 2050 110c 01E08EE2 		add	lr, lr, #1
 2051 1110 54209DE5 		ldr	r2, [sp, #84]
 2052 1114 023083E0 		add	r3, r3, r2
 2053 1118 50209DE5 		ldr	r2, [sp, #80]
 2054 111c 34308DE5 		str	r3, [sp, #52]
 2055 1120 38309DE5 		ldr	r3, [sp, #56]
 2056 1124 0A3083E0 		add	r3, r3, r10
 2057 1128 38308DE5 		str	r3, [sp, #56]
 2058 112c 3C309DE5 		ldr	r3, [sp, #60]
 2059 1130 023083E0 		add	r3, r3, r2
 2060 1134 3C308DE5 		str	r3, [sp, #60]
 2061 1138 B4FFFFEA 		b	.L258
 2062              	.L242:
 2063 113c 000050E3 		cmp	r0, #0
 2064 1140 1006000A 		beq	.L518
 2065 1144 000055E3 		cmp	r5, #0
 2066 1148 006098E5 		ldr	r6, [r8]
 2067 114c 7C09000A 		beq	.L1139
 2068 1150 013C8DE2 		add	r3, sp, #256
 2069 1154 E8208DE2 		add	r2, sp, #232
 2070 1158 D0108DE2 		add	r1, sp, #208
 2071 115c 9E0F8DE2 		add	r0, sp, #632
 2072 1160 005095E5 		ldr	r5, [r5]
 2073 1164 FEFFFFEB 		bl	_ZN6tflite13reference_ops35BroadcastComparison4DSlowPreprocessERKNS_12RuntimeShapeES3_S3_
 2074              	.LEHE9:
 2075 1168 78329DE5 		ldr	r3, [sp, #632]
 2076 116c 002094E5 		ldr	r2, [r4]
 2077 1170 0CB094E5 		ldr	fp, [r4, #12]
 2078 1174 24308DE5 		str	r3, [sp, #36]
 2079 1178 000053E3 		cmp	r3, #0
 2080 117c 083094E5 		ldr	r3, [r4, #8]
 2081 1180 58208DE5 		str	r2, [sp, #88]
 2082 1184 042094E5 		ldr	r2, [r4, #4]
 2083 1188 5C308DE5 		str	r3, [sp, #92]
 2084 118c 103094E5 		ldr	r3, [r4, #16]
 2085 1190 38208DE5 		str	r2, [sp, #56]
 2086 1194 60308DE5 		str	r3, [sp, #96]
 2087 1198 143094E5 		ldr	r3, [r4, #20]
 2088 119c 68308DE5 		str	r3, [sp, #104]
 2089 11a0 183094E5 		ldr	r3, [r4, #24]
 2090 11a4 0320A0E1 		mov	r2, r3
 2091 11a8 20308DE5 		str	r3, [sp, #32]
 2092 11ac 630900DA 		ble	.L520
 2093 11b0 80329DE5 		ldr	r3, [sp, #640]
 2094 11b4 850BDFED 		vldr.64	d16, .L1178	@ int
 2095 11b8 ACA08DE5 		str	r10, [sp, #172]
 2096 11bc 00A0A0E3 		mov	r10, #0
 2097 11c0 0370A0E1 		mov	r7, r3
 2098 11c4 3C308DE5 		str	r3, [sp, #60]
 2099 11c8 00306BE2 		rsb	r3, fp, #0
 2100 11cc B0508DE5 		str	r5, [sp, #176]
 2101 11d0 0310A0E1 		mov	r1, r3
 2102 11d4 6C308DE5 		str	r3, [sp, #108]
 2103 11d8 84329DE5 		ldr	r3, [sp, #644]
 2104 11dc 0A90A0E1 		mov	r9, r10
 2105 11e0 901B02EE 		vmov.32	d18[0], r1
 2106 11e4 03C0A0E1 		mov	ip, r3
 2107 11e8 28308DE5 		str	r3, [sp, #40]
 2108 11ec AC329DE5 		ldr	r3, [sp, #684]
 2109 11f0 A01472F3 		vshl.u64	d17, d16, d18
 2110 11f4 03E0A0E1 		mov	lr, r3
 2111 11f8 88308DE5 		str	r3, [sp, #136]
 2112 11fc 003062E2 		rsb	r3, r2, #0
 2113 1200 0300A0E1 		mov	r0, r3
 2114 1204 78308DE5 		str	r3, [sp, #120]
 2115 1208 88329DE5 		ldr	r3, [sp, #648]
 2116 120c 0340A0E1 		mov	r4, r3
 2117 1210 10308DE5 		str	r3, [sp, #16]
 2118 1214 312B53EC 		vmov	r2, r3, d17	@ int
 2119 1218 900B01EE 		vmov.32	d17[0], r0
 2120 121c 013042E2 		sub	r3, r2, #1
 2121 1220 0380A0E1 		mov	r8, r3
 2122 1224 70308DE5 		str	r3, [sp, #112]
 2123 1228 A00471F3 		vshl.u64	d16, d16, d17
 2124 122c 9C0702E0 		mul	r2, ip, r7
 2125 1230 300B51EC 		vmov	r0, r1, d16	@ int
 2126 1234 C810A0E1 		asr	r1, r8, #1
 2127 1238 013040E2 		sub	r3, r0, #1
 2128 123c 940202E0 		mul	r2, r4, r2
 2129 1240 0370A0E1 		mov	r7, r3
 2130 1244 7C308DE5 		str	r3, [sp, #124]
 2131 1248 8E308EE0 		add	r3, lr, lr, lsl #1
 2132 124c 74108DE5 		str	r1, [sp, #116]
 2133 1250 C710A0E1 		asr	r1, r7, #1
 2134 1254 0E00A0E1 		mov	r0, lr
 2135 1258 033086E0 		add	r3, r6, r3
 2136 125c C4208DE5 		str	r2, [sp, #196]
 2137 1260 B4308DE5 		str	r3, [sp, #180]
 2138 1264 90329DE5 		ldr	r3, [sp, #656]
 2139 1268 80108DE5 		str	r1, [sp, #128]
 2140 126c 940C01E0 		mul	r1, r4, ip
 2141 1270 2C308DE5 		str	r3, [sp, #44]
 2142 1274 94329DE5 		ldr	r3, [sp, #660]
 2143 1278 C0108DE5 		str	r1, [sp, #192]
 2144 127c 001140E0 		sub	r1, r0, r0, lsl #2
 2145 1280 30308DE5 		str	r3, [sp, #48]
 2146 1284 98329DE5 		ldr	r3, [sp, #664]
 2147 1288 4C108DE5 		str	r1, [sp, #76]
 2148 128c 7C129DE5 		ldr	r1, [sp, #636]
 2149 1290 34308DE5 		str	r3, [sp, #52]
 2150 1294 9C329DE5 		ldr	r3, [sp, #668]
 2151 1298 18108DE5 		str	r1, [sp, #24]
 2152 129c 40308DE5 		str	r3, [sp, #64]
 2153 12a0 A4329DE5 		ldr	r3, [sp, #676]
 2154 12a4 B8308DE5 		str	r3, [sp, #184]
 2155 12a8 A8329DE5 		ldr	r3, [sp, #680]
 2156 12ac 08B08DE5 		str	fp, [sp, #8]
 2157 12b0 98308DE5 		str	r3, [sp, #152]
 2158 12b4 B0329DE5 		ldr	r3, [sp, #688]
 2159 12b8 48308DE5 		str	r3, [sp, #72]
 2160 12bc B4329DE5 		ldr	r3, [sp, #692]
 2161 12c0 50308DE5 		str	r3, [sp, #80]
 2162 12c4 B8329DE5 		ldr	r3, [sp, #696]
 2163 12c8 54308DE5 		str	r3, [sp, #84]
 2164 12cc BC329DE5 		ldr	r3, [sp, #700]
 2165 12d0 64308DE5 		str	r3, [sp, #100]
 2166 12d4 C4329DE5 		ldr	r3, [sp, #708]
 2167 12d8 BC308DE5 		str	r3, [sp, #188]
 2168 12dc C8329DE5 		ldr	r3, [sp, #712]
 2169 12e0 9C308DE5 		str	r3, [sp, #156]
 2170 12e4 CC329DE5 		ldr	r3, [sp, #716]
 2171 12e8 84308DE5 		str	r3, [sp, #132]
 2172 12ec C0329DE5 		ldr	r3, [sp, #704]
 2173 12f0 C8308DE5 		str	r3, [sp, #200]
 2174 12f4 A0329DE5 		ldr	r3, [sp, #672]
 2175 12f8 CC308DE5 		str	r3, [sp, #204]
 2176              	.L521:
 2177 12fc 24309DE5 		ldr	r3, [sp, #36]
 2178 1300 050053E3 		cmp	r3, #5
 2179 1304 18309DE5 		ldr	r3, [sp, #24]
 2180 1308 003093C5 		ldrgt	r3, [r3]
 2181 130c 030059E1 		cmp	r9, r3
 2182 1310 24309DE5 		ldr	r3, [sp, #36]
 2183 1314 DD0700AA 		bge	.L575
 2184 1318 010053E3 		cmp	r3, #1
 2185 131c F709000A 		beq	.L524
 2186 1320 B4309DE5 		ldr	r3, [sp, #180]
 2187 1324 00B0A0E3 		mov	fp, #0
 2188 1328 09A0A0E1 		mov	r10, r9
 2189 132c A8308DE5 		str	r3, [sp, #168]
 2190 1330 B0309DE5 		ldr	r3, [sp, #176]
 2191 1334 A4308DE5 		str	r3, [sp, #164]
 2192 1338 AC309DE5 		ldr	r3, [sp, #172]
 2193 133c A0308DE5 		str	r3, [sp, #160]
 2194              	.L525:
 2195 1340 24309DE5 		ldr	r3, [sp, #36]
 2196 1344 050053E3 		cmp	r3, #5
 2197 1348 18309DC5 		ldrgt	r3, [sp, #24]
 2198 134c 3C309DD5 		ldrle	r3, [sp, #60]
 2199 1350 043093C5 		ldrgt	r3, [r3, #4]
 2200 1354 0B0053E1 		cmp	r3, fp
 2201 1358 1D0800DA 		ble	.L527
 2202 135c 24309DE5 		ldr	r3, [sp, #36]
 2203 1360 020053E3 		cmp	r3, #2
 2204 1364 FB08000A 		beq	.L528
 2205 1368 A8309DE5 		ldr	r3, [sp, #168]
 2206 136c 0070A0E3 		mov	r7, #0
 2207 1370 0780A0E1 		mov	r8, r7
 2208 1374 94308DE5 		str	r3, [sp, #148]
 2209 1378 A4309DE5 		ldr	r3, [sp, #164]
 2210 137c 90308DE5 		str	r3, [sp, #144]
 2211 1380 A0309DE5 		ldr	r3, [sp, #160]
 2212 1384 8C308DE5 		str	r3, [sp, #140]
 2213              	.L529:
 2214 1388 24309DE5 		ldr	r3, [sp, #36]
 2215 138c 050053E3 		cmp	r3, #5
 2216 1390 18309DC5 		ldrgt	r3, [sp, #24]
 2217 1394 28309DD5 		ldrle	r3, [sp, #40]
 2218 1398 083093C5 		ldrgt	r3, [r3, #8]
 2219 139c 030058E1 		cmp	r8, r3
 2220 13a0 7A0700AA 		bge	.L531
 2221 13a4 24309DE5 		ldr	r3, [sp, #36]
 2222 13a8 030053E3 		cmp	r3, #3
 2223 13ac C407000A 		beq	.L532
 2224 13b0 050053E3 		cmp	r3, #5
 2225 13b4 8C309DE5 		ldr	r3, [sp, #140]
 2226 13b8 94009DE5 		ldr	r0, [sp, #148]
 2227 13bc 0010A0E3 		mov	r1, #0
 2228 13c0 90C09DE5 		ldr	ip, [sp, #144]
 2229 13c4 00308DE5 		str	r3, [sp]
 2230 13c8 8B0000DA 		ble	.L692
 2231 13cc B70000EA 		b	.L1140
 2232              	.L1179:
 2233              		.align	3
 2234              	.L1178:
 2235 13d0 01000000 		.word	1
 2236 13d4 00000000 		.word	0
 2237              	.L630:
 2238 13d8 2C309DE5 		ldr	r3, [sp, #44]
 2239 13dc 03005AE1 		cmp	r10, r3
 2240 13e0 200700AA 		bge	.L1141
 2241 13e4 30309DE5 		ldr	r3, [sp, #48]
 2242 13e8 0B0053E1 		cmp	r3, fp
 2243 13ec 2F0700DA 		ble	.L1142
 2244 13f0 34309DE5 		ldr	r3, [sp, #52]
 2245 13f4 030058E1 		cmp	r8, r3
 2246 13f8 2B0700AA 		bge	.L1143
 2247 13fc 40309DE5 		ldr	r3, [sp, #64]
 2248 1400 010053E1 		cmp	r3, r1
 2249 1404 270700DA 		ble	.L1144
 2250 1408 4C309DE5 		ldr	r3, [sp, #76]
 2251 140c 00F0D0F5 		pld	[r0]
 2252 1410 0360D0E7 		ldrb	r6, [r0, r3]	@ zero_extendqisi2
 2253 1414 48309DE5 		ldr	r3, [sp, #72]
 2254 1418 03005AE1 		cmp	r10, r3
 2255 141c 38309DE5 		ldr	r3, [sp, #56]
 2256 1420 036086E0 		add	r6, r6, r3
 2257 1424 1E0700AA 		bge	.L1145
 2258 1428 50309DE5 		ldr	r3, [sp, #80]
 2259 142c 0B0053E1 		cmp	r3, fp
 2260 1430 1A0700DA 		ble	.L1146
 2261 1434 54309DE5 		ldr	r3, [sp, #84]
 2262 1438 030058E1 		cmp	r8, r3
 2263 143c 160700AA 		bge	.L1147
 2264 1440 64309DE5 		ldr	r3, [sp, #100]
 2265 1444 010053E1 		cmp	r3, r1
 2266 1448 120700DA 		ble	.L1148
 2267 144c 58409DE5 		ldr	r4, [sp, #88]
 2268 1450 5C509DE5 		ldr	r5, [sp, #92]
 2269 1454 00E0DCE5 		ldrb	lr, [ip]	@ zero_extendqisi2
 2270 1458 1664A0E1 		lsl	r6, r6, r4
 2271 145c 9625C3E0 		smull	r2, r3, r6, r5
 2272 1460 060055E1 		cmp	r5, r6
 2273 1464 02015603 		cmpeq	r6, #-2147483648
 2274 1468 60509DE5 		ldr	r5, [sp, #96]
 2275 146c 0160A003 		moveq	r6, #1
 2276 1470 0060A013 		movne	r6, #0
 2277 1474 05E08EE0 		add	lr, lr, r5
 2278 1478 000052E3 		cmp	r2, #0
 2279 147c 1EE4A0E1 		lsl	lr, lr, r4
 2280 1480 0040D3E2 		sbcs	r4, r3, #0
 2281 1484 0141A0A3 		movge	r4, #1073741824
 2282 1488 0050A0A3 		movge	r5, #0
 2283 148c 0741A0B3 		movlt	r4, #-1073741823
 2284 1490 0050E0B3 		mvnlt	r5, #0
 2285 1494 000056E3 		cmp	r6, #0
 2286 1498 0261E013 		mvnne	r6, #-2147483648
 2287 149c 0800001A 		bne	.L544
 2288 14a0 024094E0 		adds	r4, r4, r2
 2289 14a4 0350A5E0 		adc	r5, r5, r3
 2290 14a8 0030A0E3 		mov	r3, #0
 2291 14ac C52FA0E1 		asr	r2, r5, #31
 2292 14b0 0221C2E3 		bic	r2, r2, #-2147483648
 2293 14b4 042092E0 		adds	r2, r2, r4
 2294 14b8 A26FA0E1 		lsr	r6, r2, #31
 2295 14bc 0530A3E0 		adc	r3, r3, r5
 2296 14c0 836086E1 		orr	r6, r6, r3, lsl #1
 2297              	.L544:
 2298 14c4 08309DE5 		ldr	r3, [sp, #8]
 2299 14c8 000053E3 		cmp	r3, #0
 2300 14cc 7F0700CA 		bgt	.L1149
 2301 14d0 1F0073E3 		cmn	r3, #31
 2302 14d4 960700BA 		blt	.L1150
 2303 14d8 74309DE5 		ldr	r3, [sp, #116]
 2304 14dc 68209DE5 		ldr	r2, [sp, #104]
 2305 14e0 70909DE5 		ldr	r9, [sp, #112]
 2306 14e4 A67F83E0 		add	r7, r3, r6, lsr #31
 2307 14e8 6C309DE5 		ldr	r3, [sp, #108]
 2308 14ec 9E42C5E0 		smull	r4, r5, lr, r2
 2309 14f0 0E0052E1 		cmp	r2, lr
 2310 14f4 02015E03 		cmpeq	lr, #-2147483648
 2311 14f8 01E0A003 		moveq	lr, #1
 2312 14fc 00E0A013 		movne	lr, #0
 2313 1500 5633A0E1 		asr	r3, r6, r3
 2314 1504 096006E0 		and	r6, r6, r9
 2315 1508 070056E1 		cmp	r6, r7
 2316 150c 0360A0D1 		movle	r6, r3
 2317 1510 016083C2 		addgt	r6, r3, #1
 2318 1514 000054E3 		cmp	r4, #0
 2319 1518 0030D5E2 		sbcs	r3, r5, #0
 2320 151c 0121A0A3 		movge	r2, #1073741824
 2321 1520 0721A0B3 		movlt	r2, #-1073741823
 2322 1524 0030A0A3 		movge	r3, #0
 2323 1528 0030E0B3 		mvnlt	r3, #0
 2324 152c 00005EE3 		cmp	lr, #0
 2325 1530 0221E013 		mvnne	r2, #-2147483648
 2326 1534 0800001A 		bne	.L548
 2327 1538 024094E0 		adds	r4, r4, r2
 2328 153c 0350A5E0 		adc	r5, r5, r3
 2329 1540 0030A0E3 		mov	r3, #0
 2330 1544 C52FA0E1 		asr	r2, r5, #31
 2331 1548 0221C2E3 		bic	r2, r2, #-2147483648
 2332 154c 042092E0 		adds	r2, r2, r4
 2333 1550 A22FA0E1 		lsr	r2, r2, #31
 2334 1554 0530A3E0 		adc	r3, r3, r5
 2335 1558 832082E1 		orr	r2, r2, r3, lsl #1
 2336              	.L548:
 2337 155c 20309DE5 		ldr	r3, [sp, #32]
 2338 1560 000053E3 		cmp	r3, #0
 2339 1564 6A0700CA 		bgt	.L1151
 2340 1568 1F0073E3 		cmn	r3, #31
 2341 156c 600700BA 		blt	.L1152
 2342 1570 80309DE5 		ldr	r3, [sp, #128]
 2343 1574 7C409DE5 		ldr	r4, [sp, #124]
 2344 1578 A2EF83E0 		add	lr, r3, r2, lsr #31
 2345 157c 78309DE5 		ldr	r3, [sp, #120]
 2346 1580 5233A0E1 		asr	r3, r2, r3
 2347 1584 042002E0 		and	r2, r2, r4
 2348 1588 0E0052E1 		cmp	r2, lr
 2349 158c 0320A0D1 		movle	r2, r3
 2350 1590 012083C2 		addgt	r2, r3, #1
 2351 1594 24309DE5 		ldr	r3, [sp, #36]
 2352 1598 040053E3 		cmp	r3, #4
 2353 159c 5307001A 		bne	.L1153
 2354 15a0 18309DE5 		ldr	r3, [sp, #24]
 2355 15a4 03005AE1 		cmp	r10, r3
 2356 15a8 B90600AA 		bge	.L1154
 2357 15ac 3C309DE5 		ldr	r3, [sp, #60]
 2358 15b0 0B0053E1 		cmp	r3, fp
 2359 15b4 B50600DA 		ble	.L1155
 2360 15b8 28309DE5 		ldr	r3, [sp, #40]
 2361 15bc 030058E1 		cmp	r8, r3
 2362 15c0 B10600AA 		bge	.L1156
 2363 15c4 10309DE5 		ldr	r3, [sp, #16]
 2364 15c8 010053E1 		cmp	r3, r1
 2365 15cc 84309DE5 		ldr	r3, [sp, #132]
 2366 15d0 03C08CE0 		add	ip, ip, r3
 2367 15d4 88309DE5 		ldr	r3, [sp, #136]
 2368 15d8 030080E0 		add	r0, r0, r3
 2369 15dc A90600DA 		ble	.L1157
 2370 15e0 022046E0 		sub	r2, r6, r2
 2371 15e4 00309DE5 		ldr	r3, [sp]
 2372 15e8 122F6FE1 		clz	r2, r2
 2373 15ec 011081E2 		add	r1, r1, #1
 2374 15f0 A222A0E1 		lsr	r2, r2, #5
 2375 15f4 0120C3E4 		strb	r2, [r3], #1
 2376 15f8 00308DE5 		str	r3, [sp]
 2377              	.L692:
 2378 15fc 10309DE5 		ldr	r3, [sp, #16]
 2379              	.L534:
 2380 1600 030051E1 		cmp	r1, r3
 2381 1604 73FFFFBA 		blt	.L630
 2382 1608 8C309DE5 		ldr	r3, [sp, #140]
 2383 160c 018088E2 		add	r8, r8, #1
 2384 1610 10209DE5 		ldr	r2, [sp, #16]
 2385 1614 023083E0 		add	r3, r3, r2
 2386 1618 9C209DE5 		ldr	r2, [sp, #156]
 2387 161c 8C308DE5 		str	r3, [sp, #140]
 2388 1620 90309DE5 		ldr	r3, [sp, #144]
 2389 1624 023083E0 		add	r3, r3, r2
 2390 1628 98209DE5 		ldr	r2, [sp, #152]
 2391 162c 90308DE5 		str	r3, [sp, #144]
 2392 1630 94309DE5 		ldr	r3, [sp, #148]
 2393 1634 023083E0 		add	r3, r3, r2
 2394 1638 94308DE5 		str	r3, [sp, #148]
 2395 163c 51FFFFEA 		b	.L529
 2396              	.L238:
 2397 1640 00E19DE5 		ldr	lr, [sp, #256]
 2398 1644 0140A0E3 		mov	r4, #1
 2399              	.L246:
 2400 1648 05005EE3 		cmp	lr, #5
 2401 164c 030000DA 		ble	.L622
 2402 1650 04019DE5 		ldr	r0, [sp, #260]
 2403 1654 000050E3 		cmp	r0, #0
 2404 1658 0000000A 		beq	.L622
 2405 165c FEFFFFEB 		bl	_ZdaPv
 2406              	.L622:
 2407 1660 E8309DE5 		ldr	r3, [sp, #232]
 2408 1664 050053E3 		cmp	r3, #5
 2409 1668 030000DA 		ble	.L623
 2410 166c EC009DE5 		ldr	r0, [sp, #236]
 2411 1670 000050E3 		cmp	r0, #0
 2412 1674 0000000A 		beq	.L623
 2413 1678 FEFFFFEB 		bl	_ZdaPv
 2414              	.L623:
 2415 167c D0309DE5 		ldr	r3, [sp, #208]
 2416 1680 050053E3 		cmp	r3, #5
 2417 1684 030000DA 		ble	.L722
 2418 1688 D4009DE5 		ldr	r0, [sp, #212]
 2419 168c 000050E3 		cmp	r0, #0
 2420 1690 0000000A 		beq	.L722
 2421 1694 FEFFFFEB 		bl	_ZdaPv
 2422              	.L722:
 2423 1698 0400A0E1 		mov	r0, r4
 2424 169c CBDF8DE2 		add	sp, sp, #812
 2425              		@ sp needed
 2426 16a0 F08FBDE8 		pop	{r4, r5, r6, r7, r8, r9, r10, fp, pc}
 2427              	.L1103:
 2428 16a4 18309DE5 		ldr	r3, [sp, #24]
 2429 16a8 0C3093E5 		ldr	r3, [r3, #12]
 2430 16ac BDFBFFEA 		b	.L586
 2431              	.L1140:
 2432 16b0 18309DE5 		ldr	r3, [sp, #24]
 2433 16b4 0C3093E5 		ldr	r3, [r3, #12]
 2434 16b8 D0FFFFEA 		b	.L534
 2435              	.L262:
 2436 16bc 0C3099E5 		ldr	r3, [r9, #12]
 2437 16c0 000053E3 		cmp	r3, #0
 2438 16c4 8FFEFFDA 		ble	.L266
 2439              	.L267:
 2440              	.LEHB10:
 2441 16c8 FEFFFFEB 		bl	abort
 2442              	.LEHE10:
 2443              	.L482:
 2444 16cc 0C309EE5 		ldr	r3, [lr, #12]
 2445 16d0 000053E3 		cmp	r3, #0
 2446 16d4 DEFDFFDA 		ble	.L486
 2447              	.L487:
 2448              	.LEHB11:
 2449 16d8 FEFFFFEB 		bl	abort
 2450              	.LEHE11:
 2451              	.L396:
 2452 16dc 0C3092E5 		ldr	r3, [r2, #12]
 2453 16e0 000053E3 		cmp	r3, #0
 2454 16e4 1CFDFFDA 		ble	.L400
 2455              	.L401:
 2456              	.LEHB12:
 2457 16e8 FEFFFFEB 		bl	abort
 2458              	.LEHE12:
 2459              	.L347:
 2460 16ec 0C3099E5 		ldr	r3, [r9, #12]
 2461 16f0 000053E3 		cmp	r3, #0
 2462 16f4 60FCFFDA 		ble	.L351
 2463              	.L352:
 2464              	.LEHB13:
 2465 16f8 FEFFFFEB 		bl	abort
 2466              	.LEHE13:
 2467              	.L383:
 2468 16fc 000055E3 		cmp	r5, #0
 2469 1700 001098E5 		ldr	r1, [r8]
 2470 1704 C808000A 		beq	.L1158
 2471 1708 D0E09DE5 		ldr	lr, [sp, #208]
 2472 170c E8609DE5 		ldr	r6, [sp, #232]
 2473 1710 00C095E5 		ldr	ip, [r5]
 2474 1714 06005EE1 		cmp	lr, r6
 2475 1718 C208001A 		bne	.L428
 2476 171c 00005EE3 		cmp	lr, #0
 2477 1720 450500DA 		ble	.L429
 2478 1724 05005EE3 		cmp	lr, #5
 2479 1728 D4209DE5 		ldr	r2, [sp, #212]
 2480 172c EC409DE5 		ldr	r4, [sp, #236]
 2481 1730 350500CA 		bgt	.L431
 2482 1734 00005EE3 		cmp	lr, #0
 2483 1738 850700DA 		ble	.L432
 2484 173c 040052E1 		cmp	r2, r4
 2485 1740 8207001A 		bne	.L433
 2486 1744 01005EE3 		cmp	lr, #1
 2487 1748 1B00000A 		beq	.L434
 2488 174c D8009DE5 		ldr	r0, [sp, #216]
 2489 1750 F0309DE5 		ldr	r3, [sp, #240]
 2490 1754 030050E1 		cmp	r0, r3
 2491 1758 7C07001A 		bne	.L433
 2492 175c 02005EE3 		cmp	lr, #2
 2493 1760 1500000A 		beq	.L434
 2494 1764 020056E3 		cmp	r6, #2
 2495 1768 DC009DE5 		ldr	r0, [sp, #220]
 2496 176c 7807000A 		beq	.L432
 2497 1770 F4309DE5 		ldr	r3, [sp, #244]
 2498 1774 030050E1 		cmp	r0, r3
 2499 1778 7407001A 		bne	.L433
 2500 177c 03005EE3 		cmp	lr, #3
 2501 1780 0D00000A 		beq	.L434
 2502 1784 030056E3 		cmp	r6, #3
 2503 1788 E0009DE5 		ldr	r0, [sp, #224]
 2504 178c 7007000A 		beq	.L432
 2505 1790 F8309DE5 		ldr	r3, [sp, #248]
 2506 1794 030050E1 		cmp	r0, r3
 2507 1798 6C07001A 		bne	.L433
 2508 179c 04005EE3 		cmp	lr, #4
 2509 17a0 0500000A 		beq	.L434
 2510 17a4 040056E3 		cmp	r6, #4
 2511 17a8 E4009DE5 		ldr	r0, [sp, #228]
 2512 17ac 6807000A 		beq	.L432
 2513 17b0 FC309DE5 		ldr	r3, [sp, #252]
 2514 17b4 030050E1 		cmp	r0, r3
 2515 17b8 6407001A 		bne	.L433
 2516              	.L434:
 2517 17bc 00319DE5 		ldr	r3, [sp, #256]
 2518 17c0 03005EE1 		cmp	lr, r3
 2519 17c4 6607001A 		bne	.L438
 2520              	.L440:
 2521 17c8 05005EE3 		cmp	lr, #5
 2522 17cc 04019DE5 		ldr	r0, [sp, #260]
 2523 17d0 680500CA 		bgt	.L441
 2524 17d4 000052E1 		cmp	r2, r0
 2525 17d8 5E07001A 		bne	.L442
 2526 17dc 01005EE3 		cmp	lr, #1
 2527 17e0 150000DA 		ble	.L443
 2528 17e4 D8209DE5 		ldr	r2, [sp, #216]
 2529 17e8 08319DE5 		ldr	r3, [sp, #264]
 2530 17ec 030052E1 		cmp	r2, r3
 2531 17f0 5807001A 		bne	.L442
 2532 17f4 02005EE3 		cmp	lr, #2
 2533 17f8 1100000A 		beq	.L792
 2534 17fc DC209DE5 		ldr	r2, [sp, #220]
 2535 1800 0C319DE5 		ldr	r3, [sp, #268]
 2536 1804 030052E1 		cmp	r2, r3
 2537 1808 5207001A 		bne	.L442
 2538 180c 03005EE3 		cmp	lr, #3
 2539 1810 0B00000A 		beq	.L792
 2540 1814 E0209DE5 		ldr	r2, [sp, #224]
 2541 1818 10319DE5 		ldr	r3, [sp, #272]
 2542 181c 030052E1 		cmp	r2, r3
 2543 1820 4C07001A 		bne	.L442
 2544 1824 04005EE3 		cmp	lr, #4
 2545 1828 0500000A 		beq	.L792
 2546 182c E4209DE5 		ldr	r2, [sp, #228]
 2547 1830 14319DE5 		ldr	r3, [sp, #276]
 2548 1834 030052E1 		cmp	r2, r3
 2549 1838 4607001A 		bne	.L442
 2550              	.L443:
 2551 183c 00005EE3 		cmp	lr, #0
 2552 1840 7C0500DA 		ble	.L669
 2553              	.L792:
 2554 1844 D4208DE2 		add	r2, sp, #212
 2555              	.L448:
 2556 1848 5231A0E7 		sbfx	r3, r2, #2, #1
 2557 184c 033003E2 		and	r3, r3, #3
 2558 1850 0E0053E1 		cmp	r3, lr
 2559 1854 0E30A021 		movcs	r3, lr
 2560 1858 08005EE3 		cmp	lr, #8
 2561 185c 0E30A0D1 		movle	r3, lr
 2562 1860 570500CA 		bgt	.L1159
 2563              	.L450:
 2564 1864 010053E3 		cmp	r3, #1
 2565 1868 004092E5 		ldr	r4, [r2]
 2566 186c 2B05000A 		beq	.L678
 2567 1870 040092E5 		ldr	r0, [r2, #4]
 2568 1874 020053E3 		cmp	r3, #2
 2569 1878 900404E0 		mul	r4, r0, r4
 2570 187c 2705000A 		beq	.L678
 2571 1880 080092E5 		ldr	r0, [r2, #8]
 2572 1884 030053E3 		cmp	r3, #3
 2573 1888 900404E0 		mul	r4, r0, r4
 2574 188c 2305000A 		beq	.L678
 2575 1890 0C0092E5 		ldr	r0, [r2, #12]
 2576 1894 040053E3 		cmp	r3, #4
 2577 1898 900404E0 		mul	r4, r0, r4
 2578 189c 1F05000A 		beq	.L678
 2579 18a0 100092E5 		ldr	r0, [r2, #16]
 2580 18a4 050053E3 		cmp	r3, #5
 2581 18a8 900404E0 		mul	r4, r0, r4
 2582 18ac 1B05000A 		beq	.L678
 2583 18b0 140092E5 		ldr	r0, [r2, #20]
 2584 18b4 060053E3 		cmp	r3, #6
 2585 18b8 900404E0 		mul	r4, r0, r4
 2586 18bc 1705000A 		beq	.L678
 2587 18c0 180092E5 		ldr	r0, [r2, #24]
 2588 18c4 070053E3 		cmp	r3, #7
 2589 18c8 900404E0 		mul	r4, r0, r4
 2590 18cc 1305000A 		beq	.L678
 2591 18d0 1C0092E5 		ldr	r0, [r2, #28]
 2592 18d4 0850A0E3 		mov	r5, #8
 2593 18d8 900404E0 		mul	r4, r0, r4
 2594              	.L452:
 2595 18dc 03005EE1 		cmp	lr, r3
 2596 18e0 2800000A 		beq	.L453
 2597              	.L451:
 2598 18e4 03704EE0 		sub	r7, lr, r3
 2599 18e8 01604EE2 		sub	r6, lr, #1
 2600 18ec 040047E2 		sub	r0, r7, #4
 2601 18f0 036046E0 		sub	r6, r6, r3
 2602 18f4 2001A0E1 		lsr	r0, r0, #2
 2603 18f8 020056E3 		cmp	r6, #2
 2604 18fc 010080E2 		add	r0, r0, #1
 2605 1900 0081A0E1 		lsl	r8, r0, #2
 2606 1904 1200009A 		bls	.L454
 2607 1908 033182E0 		add	r3, r2, r3, lsl #2
 2608 190c 5120C0F2 		vmov.i32	q9, #1  @ v4si
 2609 1910 0060A0E3 		mov	r6, #0
 2610              	.L456:
 2611 1914 016086E2 		add	r6, r6, #1
 2612 1918 DF0A63F4 		vld1.64	{d16-d17}, [r3:64]
 2613 191c 060050E1 		cmp	r0, r6
 2614 1920 103083E2 		add	r3, r3, #16
 2615 1924 F02962F2 		vmul.i32	q9, q9, q8
 2616 1928 F9FFFF8A 		bhi	.L456
 2617 192c 080057E1 		cmp	r7, r8
 2618 1930 085085E0 		add	r5, r5, r8
 2619 1934 5000C0F2 		vmov.i32	q8, #0  @ v4si
 2620 1938 E048F2F2 		vext.32	q10, q9, q8, #2
 2621 193c F22964F2 		vmul.i32	q9, q10, q9
 2622 1940 E004F2F2 		vext.32	q8, q9, q8, #1
 2623 1944 F20960F2 		vmul.i32	q8, q8, q9
 2624 1948 903B10EE 		vmov.32	r3, d16[0]
 2625 194c 930404E0 		mul	r4, r3, r4
 2626 1950 0C00000A 		beq	.L453
 2627              	.L454:
 2628 1954 050192E7 		ldr	r0, [r2, r5, lsl #2]
 2629 1958 013085E2 		add	r3, r5, #1
 2630 195c 03005EE1 		cmp	lr, r3
 2631 1960 0531A0E1 		lsl	r3, r5, #2
 2632 1964 900404E0 		mul	r4, r0, r4
 2633 1968 060000DA 		ble	.L453
 2634 196c 033082E0 		add	r3, r2, r3
 2635 1970 022085E2 		add	r2, r5, #2
 2636 1974 040093E5 		ldr	r0, [r3, #4]
 2637 1978 02005EE1 		cmp	lr, r2
 2638 197c 900404E0 		mul	r4, r0, r4
 2639 1980 083093C5 		ldrgt	r3, [r3, #8]
 2640 1984 930404C0 		mulgt	r4, r3, r4
 2641              	.L453:
 2642 1988 C49FA0E1 		asr	r9, r4, #31
 2643 198c 010054E3 		cmp	r4, #1
 2644 1990 0030D9E2 		sbcs	r3, r9, #0
 2645 1994 0480A0E1 		mov	r8, r4
 2646 1998 040300BA 		blt	.L679
 2647 199c 0C3081E1 		orr	r3, r1, ip
 2648 19a0 03308AE1 		orr	r3, r10, r3
 2649 19a4 0F0013E3 		tst	r3, #15
 2650 19a8 0130A003 		moveq	r3, #1
 2651 19ac 0030A013 		movne	r3, #0
 2652 19b0 000059E3 		cmp	r9, #0
 2653 19b4 0F005403 		cmpeq	r4, #15
 2654 19b8 0030A093 		movls	r3, #0
 2655 19bc 01300382 		andhi	r3, r3, #1
 2656 19c0 000053E3 		cmp	r3, #0
 2657 19c4 3405000A 		beq	.L460
 2658 19c8 104054E2 		subs	r4, r4, #16
 2659 19cc 0020A0E3 		mov	r2, #0
 2660 19d0 2442A0E1 		lsr	r4, r4, #4
 2661 19d4 0050C9E2 		sbc	r5, r9, #0
 2662 19d8 054E84E1 		orr	r4, r4, r5, lsl #28
 2663 19dc 2552A0E1 		lsr	r5, r5, #4
 2664 19e0 014094E2 		adds	r4, r4, #1
 2665 19e4 0050A5E2 		adc	r5, r5, #0
 2666 19e8 100058E3 		cmp	r8, #16
 2667 19ec 0030D9E2 		sbcs	r3, r9, #0
 2668 19f0 0030A0E3 		mov	r3, #0
 2669 19f4 304B45EC 		vmov	d16, r4, r5	@ int
 2670 19f8 B065C4F2 		vshl.u64	d22, d16, #4
 2671 19fc 310000BA 		blt	.L461
 2672 1a00 51C0C0F2 		vmov.i32	q14, #1  @ v4si
 2673 1a04 40608CE2 		add	r6, ip, #64
 2674 1a08 50A0C0F2 		vmov.i32	q13, #0  @ v4si
 2675 1a0c 400081E2 		add	r0, r1, #64
 2676 1a10 0A70A0E1 		mov	r7, r10
 2677              	.L463:
 2678 1a14 104B56ED 		vldr	d20, [r6, #-64]
 2679 1a18 0E5B56ED 		vldr	d21, [r6, #-56]
 2680 1a1c 012092E2 		adds	r2, r2, #1
 2681 1a20 0030A3E2 		adc	r3, r3, #0
 2682 1a24 406086E2 		add	r6, r6, #64
 2683 1a28 10EB50ED 		vldr	d30, [r0, #-64]
 2684 1a2c 0EFB50ED 		vldr	d31, [r0, #-56]
 2685 1a30 030055E1 		cmp	r5, r3
 2686 1a34 02005401 		cmpeq	r4, r2
 2687 1a38 400080E2 		add	r0, r0, #64
 2688 1a3c 180B50ED 		vldr	d16, [r0, #-96]
 2689 1a40 161B50ED 		vldr	d17, [r0, #-88]
 2690 1a44 107087E2 		add	r7, r7, #16
 2691 1a48 FEE864F3 		vceq.i32	q15, q10, q15
 2692 1a4c 184B56ED 		vldr	d20, [r6, #-96]
 2693 1a50 165B56ED 		vldr	d21, [r6, #-88]
 2694 1a54 1C2B56ED 		vldr	d18, [r6, #-112]
 2695 1a58 1A3B56ED 		vldr	d19, [r6, #-104]
 2696 1a5c F04864F3 		vceq.i32	q10, q10, q8
 2697 1a60 1C8B50ED 		vldr	d24, [r0, #-112]
 2698 1a64 1A9B50ED 		vldr	d25, [r0, #-104]
 2699 1a68 FAE15CF3 		vbsl	q15, q14, q13
 2700 1a6c 140B50ED 		vldr	d16, [r0, #-80]
 2701 1a70 121B50ED 		vldr	d17, [r0, #-72]
 2702 1a74 F88862F3 		vceq.i32	q12, q9, q12
 2703 1a78 142B56ED 		vldr	d18, [r6, #-80]
 2704 1a7c 123B56ED 		vldr	d19, [r6, #-72]
 2705 1a80 F00862F3 		vceq.i32	q8, q9, q8
 2706 1a84 F42164F2 		vmov	q9, q10  @ v4si
 2707 1a88 FA815CF3 		vbsl	q12, q14, q13
 2708 1a8c FA015CF3 		vbsl	q8, q14, q13
 2709 1a90 FA215CF3 		vbsl	q9, q14, q13
 2710 1a94 2E62B6F3 		vmovn.i32	d6, q15
 2711 1a98 2872B6F3 		vmovn.i32	d7, q12
 2712 1a9c 2242F6F3 		vmovn.i32	d20, q9
 2713 1aa0 2052F6F3 		vmovn.i32	d21, q8
 2714 1aa4 0602F2F3 		vmovn.i16	d16, q3
 2715 1aa8 2412F2F3 		vmovn.i16	d17, q10
 2716 1aac 040B47ED 		vstr	d16, [r7, #-16]
 2717 1ab0 021B47ED 		vstr	d17, [r7, #-8]
 2718 1ab4 D6FFFF8A 		bhi	.L463
 2719 1ab8 362B53EC 		vmov	r2, r3, d22	@ int
 2720 1abc 030059E1 		cmp	r9, r3
 2721 1ac0 02005801 		cmpeq	r8, r2
 2722 1ac4 B902000A 		beq	.L679
 2723              	.L461:
 2724 1ac8 0201A0E1 		lsl	r0, r2, #2
 2725 1acc 014092E2 		adds	r4, r2, #1
 2726 1ad0 0050A3E2 		adc	r5, r3, #0
 2727 1ad4 00709CE7 		ldr	r7, [ip, r0]
 2728 1ad8 080054E1 		cmp	r4, r8
 2729 1adc 000091E7 		ldr	r0, [r1, r0]
 2730 1ae0 007047E0 		sub	r7, r7, r0
 2731 1ae4 0900D5E0 		sbcs	r0, r5, r9
 2732 1ae8 177F6FE1 		clz	r7, r7
 2733 1aec A772A0E1 		lsr	r7, r7, #5
 2734 1af0 0270CAE7 		strb	r7, [r10, r2]
 2735 1af4 AD0200AA 		bge	.L679
 2736 1af8 0451A0E1 		lsl	r5, r4, #2
 2737 1afc 026092E2 		adds	r6, r2, #2
 2738 1b00 0070A3E2 		adc	r7, r3, #0
 2739 1b04 05009CE7 		ldr	r0, [ip, r5]
 2740 1b08 080056E1 		cmp	r6, r8
 2741 1b0c 055091E7 		ldr	r5, [r1, r5]
 2742 1b10 050040E0 		sub	r0, r0, r5
 2743 1b14 0950D7E0 		sbcs	r5, r7, r9
 2744 1b18 100F6FE1 		clz	r0, r0
 2745 1b1c A002A0E1 		lsr	r0, r0, #5
 2746 1b20 0400CAE7 		strb	r0, [r10, r4]
 2747 1b24 A10200AA 		bge	.L679
 2748 1b28 0671A0E1 		lsl	r7, r6, #2
 2749 1b2c 034092E2 		adds	r4, r2, #3
 2750 1b30 0050A3E2 		adc	r5, r3, #0
 2751 1b34 07009CE7 		ldr	r0, [ip, r7]
 2752 1b38 080054E1 		cmp	r4, r8
 2753 1b3c 077091E7 		ldr	r7, [r1, r7]
 2754 1b40 070040E0 		sub	r0, r0, r7
 2755 1b44 0970D5E0 		sbcs	r7, r5, r9
 2756 1b48 100F6FE1 		clz	r0, r0
 2757 1b4c A002A0E1 		lsr	r0, r0, #5
 2758 1b50 0600CAE7 		strb	r0, [r10, r6]
 2759 1b54 950200AA 		bge	.L679
 2760 1b58 0451A0E1 		lsl	r5, r4, #2
 2761 1b5c 046092E2 		adds	r6, r2, #4
 2762 1b60 0070A3E2 		adc	r7, r3, #0
 2763 1b64 05009CE7 		ldr	r0, [ip, r5]
 2764 1b68 080056E1 		cmp	r6, r8
 2765 1b6c 055091E7 		ldr	r5, [r1, r5]
 2766 1b70 050040E0 		sub	r0, r0, r5
 2767 1b74 0950D7E0 		sbcs	r5, r7, r9
 2768 1b78 100F6FE1 		clz	r0, r0
 2769 1b7c A002A0E1 		lsr	r0, r0, #5
 2770 1b80 0400CAE7 		strb	r0, [r10, r4]
 2771 1b84 890200AA 		bge	.L679
 2772 1b88 0671A0E1 		lsl	r7, r6, #2
 2773 1b8c 054092E2 		adds	r4, r2, #5
 2774 1b90 0050A3E2 		adc	r5, r3, #0
 2775 1b94 070091E7 		ldr	r0, [r1, r7]
 2776 1b98 080054E1 		cmp	r4, r8
 2777 1b9c 07709CE7 		ldr	r7, [ip, r7]
 2778 1ba0 070040E0 		sub	r0, r0, r7
 2779 1ba4 0970D5E0 		sbcs	r7, r5, r9
 2780 1ba8 100F6FE1 		clz	r0, r0
 2781 1bac A002A0E1 		lsr	r0, r0, #5
 2782 1bb0 0600CAE7 		strb	r0, [r10, r6]
 2783 1bb4 7D0200AA 		bge	.L679
 2784 1bb8 0451A0E1 		lsl	r5, r4, #2
 2785 1bbc 066092E2 		adds	r6, r2, #6
 2786 1bc0 0070A3E2 		adc	r7, r3, #0
 2787 1bc4 050091E7 		ldr	r0, [r1, r5]
 2788 1bc8 080056E1 		cmp	r6, r8
 2789 1bcc 05509CE7 		ldr	r5, [ip, r5]
 2790 1bd0 050040E0 		sub	r0, r0, r5
 2791 1bd4 0950D7E0 		sbcs	r5, r7, r9
 2792 1bd8 100F6FE1 		clz	r0, r0
 2793 1bdc A002A0E1 		lsr	r0, r0, #5
 2794 1be0 0400CAE7 		strb	r0, [r10, r4]
 2795 1be4 710200AA 		bge	.L679
 2796 1be8 0671A0E1 		lsl	r7, r6, #2
 2797 1bec 074092E2 		adds	r4, r2, #7
 2798 1bf0 0050A3E2 		adc	r5, r3, #0
 2799 1bf4 070091E7 		ldr	r0, [r1, r7]
 2800 1bf8 080054E1 		cmp	r4, r8
 2801 1bfc 07709CE7 		ldr	r7, [ip, r7]
 2802 1c00 070040E0 		sub	r0, r0, r7
 2803 1c04 0970D5E0 		sbcs	r7, r5, r9
 2804 1c08 100F6FE1 		clz	r0, r0
 2805 1c0c A002A0E1 		lsr	r0, r0, #5
 2806 1c10 0600CAE7 		strb	r0, [r10, r6]
 2807 1c14 650200AA 		bge	.L679
 2808 1c18 0451A0E1 		lsl	r5, r4, #2
 2809 1c1c 086092E2 		adds	r6, r2, #8
 2810 1c20 0070A3E2 		adc	r7, r3, #0
 2811 1c24 050091E7 		ldr	r0, [r1, r5]
 2812 1c28 080056E1 		cmp	r6, r8
 2813 1c2c 05509CE7 		ldr	r5, [ip, r5]
 2814 1c30 050040E0 		sub	r0, r0, r5
 2815 1c34 0950D7E0 		sbcs	r5, r7, r9
 2816 1c38 100F6FE1 		clz	r0, r0
 2817 1c3c A002A0E1 		lsr	r0, r0, #5
 2818 1c40 0400CAE7 		strb	r0, [r10, r4]
 2819 1c44 590200AA 		bge	.L679
 2820 1c48 0671A0E1 		lsl	r7, r6, #2
 2821 1c4c 094092E2 		adds	r4, r2, #9
 2822 1c50 0050A3E2 		adc	r5, r3, #0
 2823 1c54 070091E7 		ldr	r0, [r1, r7]
 2824 1c58 080054E1 		cmp	r4, r8
 2825 1c5c 07709CE7 		ldr	r7, [ip, r7]
 2826 1c60 070040E0 		sub	r0, r0, r7
 2827 1c64 0970D5E0 		sbcs	r7, r5, r9
 2828 1c68 100F6FE1 		clz	r0, r0
 2829 1c6c A002A0E1 		lsr	r0, r0, #5
 2830 1c70 0600CAE7 		strb	r0, [r10, r6]
 2831 1c74 4D0200AA 		bge	.L679
 2832 1c78 0451A0E1 		lsl	r5, r4, #2
 2833 1c7c 0A6092E2 		adds	r6, r2, #10
 2834 1c80 0070A3E2 		adc	r7, r3, #0
 2835 1c84 050091E7 		ldr	r0, [r1, r5]
 2836 1c88 080056E1 		cmp	r6, r8
 2837 1c8c 05509CE7 		ldr	r5, [ip, r5]
 2838 1c90 050040E0 		sub	r0, r0, r5
 2839 1c94 0950D7E0 		sbcs	r5, r7, r9
 2840 1c98 100F6FE1 		clz	r0, r0
 2841 1c9c A002A0E1 		lsr	r0, r0, #5
 2842 1ca0 0400CAE7 		strb	r0, [r10, r4]
 2843 1ca4 410200AA 		bge	.L679
 2844 1ca8 0671A0E1 		lsl	r7, r6, #2
 2845 1cac 0B4092E2 		adds	r4, r2, #11
 2846 1cb0 0050A3E2 		adc	r5, r3, #0
 2847 1cb4 070091E7 		ldr	r0, [r1, r7]
 2848 1cb8 080054E1 		cmp	r4, r8
 2849 1cbc 07709CE7 		ldr	r7, [ip, r7]
 2850 1cc0 070040E0 		sub	r0, r0, r7
 2851 1cc4 0970D5E0 		sbcs	r7, r5, r9
 2852 1cc8 100F6FE1 		clz	r0, r0
 2853 1ccc A002A0E1 		lsr	r0, r0, #5
 2854 1cd0 0600CAE7 		strb	r0, [r10, r6]
 2855 1cd4 350200AA 		bge	.L679
 2856 1cd8 0451A0E1 		lsl	r5, r4, #2
 2857 1cdc 0C6092E2 		adds	r6, r2, #12
 2858 1ce0 0070A3E2 		adc	r7, r3, #0
 2859 1ce4 050091E7 		ldr	r0, [r1, r5]
 2860 1ce8 080056E1 		cmp	r6, r8
 2861 1cec 05509CE7 		ldr	r5, [ip, r5]
 2862 1cf0 050040E0 		sub	r0, r0, r5
 2863 1cf4 0950D7E0 		sbcs	r5, r7, r9
 2864 1cf8 100F6FE1 		clz	r0, r0
 2865 1cfc A002A0E1 		lsr	r0, r0, #5
 2866 1d00 0400CAE7 		strb	r0, [r10, r4]
 2867 1d04 290200AA 		bge	.L679
 2868 1d08 0671A0E1 		lsl	r7, r6, #2
 2869 1d0c 0D4092E2 		adds	r4, r2, #13
 2870 1d10 0050A3E2 		adc	r5, r3, #0
 2871 1d14 070091E7 		ldr	r0, [r1, r7]
 2872 1d18 080054E1 		cmp	r4, r8
 2873 1d1c 07709CE7 		ldr	r7, [ip, r7]
 2874 1d20 070040E0 		sub	r0, r0, r7
 2875 1d24 0970D5E0 		sbcs	r7, r5, r9
 2876 1d28 100F6FE1 		clz	r0, r0
 2877 1d2c A002A0E1 		lsr	r0, r0, #5
 2878 1d30 0600CAE7 		strb	r0, [r10, r6]
 2879 1d34 1D0200AA 		bge	.L679
 2880 1d38 0451A0E1 		lsl	r5, r4, #2
 2881 1d3c 0E2092E2 		adds	r2, r2, #14
 2882 1d40 0030A3E2 		adc	r3, r3, #0
 2883 1d44 050091E7 		ldr	r0, [r1, r5]
 2884 1d48 080052E1 		cmp	r2, r8
 2885 1d4c 05509CE7 		ldr	r5, [ip, r5]
 2886 1d50 050040E0 		sub	r0, r0, r5
 2887 1d54 0950D3E0 		sbcs	r5, r3, r9
 2888 1d58 100F6FE1 		clz	r0, r0
 2889 1d5c A002A0E1 		lsr	r0, r0, #5
 2890 1d60 0400CAE7 		strb	r0, [r10, r4]
 2891 1d64 110200AA 		bge	.L679
 2892 1d68 0201A0E1 		lsl	r0, r2, #2
 2893 1d6c 00309CE7 		ldr	r3, [ip, r0]
 2894 1d70 001091E7 		ldr	r1, [r1, r0]
 2895 1d74 013043E0 		sub	r3, r3, r1
 2896 1d78 133F6FE1 		clz	r3, r3
 2897 1d7c A332A0E1 		lsr	r3, r3, #5
 2898 1d80 0230CAE7 		strb	r3, [r10, r2]
 2899 1d84 090200EA 		b	.L679
 2900              	.L334:
 2901 1d88 003098E5 		ldr	r3, [r8]
 2902 1d8c 000055E3 		cmp	r5, #0
 2903 1d90 00308DE5 		str	r3, [sp]
 2904 1d94 D306000A 		beq	.L1160
 2905 1d98 003095E5 		ldr	r3, [r5]
 2906 1d9c 012C8DE2 		add	r2, sp, #256
 2907 1da0 E8108DE2 		add	r1, sp, #232
 2908 1da4 D0008DE2 		add	r0, sp, #208
 2909 1da8 08308DE5 		str	r3, [sp, #8]
 2910              	.LEHB14:
 2911 1dac FEFFFFEB 		bl	_ZN6tflite16MatchingFlatSizeERKNS_12RuntimeShapeES2_S2_
 2912 1db0 C07FA0E1 		asr	r7, r0, #31
 2913 1db4 010050E3 		cmp	r0, #1
 2914 1db8 0060A0E1 		mov	r6, r0
 2915 1dbc 0030D7E2 		sbcs	r3, r7, #0
 2916 1dc0 660000BA 		blt	.L885
 2917 1dc4 080050E3 		cmp	r0, #8
 2918 1dc8 170400DA 		ble	.L662
 2919 1dcc 00309DE5 		ldr	r3, [sp]
 2920 1dd0 090050E2 		subs	r0, r0, #9
 2921 1dd4 0700C0E3 		bic	r0, r0, #7
 2922 1dd8 0010C7E2 		sbc	r1, r7, #0
 2923 1ddc 088090E2 		adds	r8, r0, #8
 2924 1de0 0040A0E3 		mov	r4, #0
 2925 1de4 4C2083E2 		add	r2, r3, #76
 2926 1de8 08309DE5 		ldr	r3, [sp, #8]
 2927 1dec 0090A1E2 		adc	r9, r1, #0
 2928 1df0 0050A0E3 		mov	r5, #0
 2929 1df4 0A10A0E1 		mov	r1, r10
 2930 1df8 20A08DE5 		str	r10, [sp, #32]
 2931 1dfc 4C3083E2 		add	r3, r3, #76
 2932 1e00 F061CDE1 		strd	r6, [sp, #16]
 2933              	.L381:
 2934 1e04 134A52ED 		vldr.32	s9, [r2, #-76]
 2935 1e08 081081E2 		add	r1, r1, #8
 2936 1e0c 135A13ED 		vldr.32	s10, [r3, #-76]
 2937 1e10 125A52ED 		vldr.32	s11, [r2, #-72]
 2938 1e14 126A13ED 		vldr.32	s12, [r3, #-72]
 2939 1e18 116A53ED 		vldr.32	s13, [r3, #-68]
 2940 1e1c 117A12ED 		vldr.32	s14, [r2, #-68]
 2941 1e20 107A53ED 		vldr.32	s15, [r3, #-64]
 2942 1e24 103A52ED 		vldr.32	s7, [r2, #-64]
 2943 1e28 0F4A13ED 		vldr.32	s8, [r3, #-60]
 2944 1e2c 454AF4EE 		vcmp.f32	s9, s10
 2945 1e30 0F4A52ED 		vldr.32	s9, [r2, #-60]
 2946 1e34 0E5A13ED 		vldr.32	s10, [r3, #-56]
 2947 1e38 10FAF1EE 		vmrs	APSR_nzcv, FPSCR
 2948 1e3c 465AF4EE 		vcmp.f32	s11, s12
 2949 1e40 01C0A003 		moveq	ip, #1
 2950 1e44 0E5A52ED 		vldr.32	s11, [r2, #-56]
 2951 1e48 00C0A013 		movne	ip, #0
 2952 1e4c 0D6A12ED 		vldr.32	s12, [r2, #-52]
 2953 1e50 10FAF1EE 		vmrs	APSR_nzcv, FPSCR
 2954 1e54 476AF4EE 		vcmp.f32	s13, s14
 2955 1e58 0170A003 		moveq	r7, #1
 2956 1e5c 0D6A53ED 		vldr.32	s13, [r3, #-52]
 2957 1e60 0070A013 		movne	r7, #0
 2958 1e64 0C7A12ED 		vldr.32	s14, [r2, #-48]
 2959 1e68 10FAF1EE 		vmrs	APSR_nzcv, FPSCR
 2960 1e6c 673AF4EE 		vcmp.f32	s7, s15
 2961 1e70 0100A003 		moveq	r0, #1
 2962 1e74 0C7A53ED 		vldr.32	s15, [r3, #-48]
 2963 1e78 0000A013 		movne	r0, #0
 2964 1e7c 10FAF1EE 		vmrs	APSR_nzcv, FPSCR
 2965 1e80 644AB4EE 		vcmp.f32	s8, s9
 2966 1e84 01A0A003 		moveq	r10, #1
 2967 1e88 00A0A013 		movne	r10, #0
 2968 1e8c 10FAF1EE 		vmrs	APSR_nzcv, FPSCR
 2969 1e90 655AB4EE 		vcmp.f32	s10, s11
 2970 1e94 01B0A003 		moveq	fp, #1
 2971 1e98 00B0A013 		movne	fp, #0
 2972 1e9c 10FAF1EE 		vmrs	APSR_nzcv, FPSCR
 2973 1ea0 666AB4EE 		vcmp.f32	s12, s13
 2974 1ea4 01E0A003 		moveq	lr, #1
 2975 1ea8 00E0A013 		movne	lr, #0
 2976 1eac 10FAF1EE 		vmrs	APSR_nzcv, FPSCR
 2977 1eb0 677AB4EE 		vcmp.f32	s14, s15
 2978 1eb4 00F0D2F5 		pld	[r2]
 2979 1eb8 202082E2 		add	r2, r2, #32
 2980 1ebc 00F0D3F5 		pld	[r3]
 2981 1ec0 203083E2 		add	r3, r3, #32
 2982 1ec4 08C041E5 		strb	ip, [r1, #-8]
 2983 1ec8 01C0A003 		moveq	ip, #1
 2984 1ecc 00C0A013 		movne	ip, #0
 2985 1ed0 10FAF1EE 		vmrs	APSR_nzcv, FPSCR
 2986 1ed4 060041E5 		strb	r0, [r1, #-6]
 2987 1ed8 0100A003 		moveq	r0, #1
 2988 1edc 0000A013 		movne	r0, #0
 2989 1ee0 084094E2 		adds	r4, r4, #8
 2990 1ee4 0050A5E2 		adc	r5, r5, #0
 2991 1ee8 077041E5 		strb	r7, [r1, #-7]
 2992 1eec 050059E1 		cmp	r9, r5
 2993 1ef0 05A041E5 		strb	r10, [r1, #-5]
 2994 1ef4 04005801 		cmpeq	r8, r4
 2995 1ef8 04B041E5 		strb	fp, [r1, #-4]
 2996 1efc 03E041E5 		strb	lr, [r1, #-3]
 2997 1f00 02C041E5 		strb	ip, [r1, #-2]
 2998 1f04 010041E5 		strb	r0, [r1, #-1]
 2999 1f08 BDFFFF1A 		bne	.L381
 3000 1f0c 20A09DE5 		ldr	r10, [sp, #32]
 3001 1f10 D061CDE1 		ldrd	r6, [sp, #16]
 3002              	.L380:
 3003 1f14 012044E2 		sub	r2, r4, #1
 3004 1f18 08109DE5 		ldr	r1, [sp, #8]
 3005 1f1c 02A08AE0 		add	r10, r10, r2
 3006 1f20 00209DE5 		ldr	r2, [sp]
 3007 1f24 0431A0E1 		lsl	r3, r4, #2
 3008 1f28 032082E0 		add	r2, r2, r3
 3009 1f2c 033081E0 		add	r3, r1, r3
 3010              	.L382:
 3011 1f30 017AF2EC 		vldmia.32	r2!, {s15}
 3012 1f34 017AB3EC 		vldmia.32	r3!, {s14}
 3013 1f38 677AB4EE 		vcmp.f32	s14, s15
 3014 1f3c 10FAF1EE 		vmrs	APSR_nzcv, FPSCR
 3015 1f40 0110A003 		moveq	r1, #1
 3016 1f44 0010A013 		movne	r1, #0
 3017 1f48 014094E2 		adds	r4, r4, #1
 3018 1f4c 0110EAE5 		strb	r1, [r10, #1]!
 3019 1f50 0050A5E2 		adc	r5, r5, #0
 3020 1f54 060054E1 		cmp	r4, r6
 3021 1f58 0700D5E0 		sbcs	r0, r5, r7
 3022 1f5c F3FFFFBA 		blt	.L382
 3023              	.L885:
 3024 1f60 00E19DE5 		ldr	lr, [sp, #256]
 3025 1f64 0040A0E3 		mov	r4, #0
 3026 1f68 B6FDFFEA 		b	.L246
 3027              	.L247:
 3028 1f6c 000055E3 		cmp	r5, #0
 3029 1f70 001098E5 		ldr	r1, [r8]
 3030 1f74 ED06000A 		beq	.L1161
 3031 1f78 D0309DE5 		ldr	r3, [sp, #208]
 3032 1f7c E8709DE5 		ldr	r7, [sp, #232]
 3033 1f80 00C095E5 		ldr	ip, [r5]
 3034 1f84 070053E1 		cmp	r3, r7
 3035 1f88 9B05001A 		bne	.L296
 3036 1f8c 000053E3 		cmp	r3, #0
 3037 1f90 B90400DA 		ble	.L1162
 3038 1f94 050053E3 		cmp	r3, #5
 3039 1f98 D4209DE5 		ldr	r2, [sp, #212]
 3040 1f9c ECE09DE5 		ldr	lr, [sp, #236]
 3041 1fa0 0C0300CA 		bgt	.L299
 3042 1fa4 000053E3 		cmp	r3, #0
 3043 1fa8 160300DA 		ble	.L300
 3044 1fac 0E0052E1 		cmp	r2, lr
 3045 1fb0 6405001A 		bne	.L301
 3046 1fb4 010053E3 		cmp	r3, #1
 3047 1fb8 1B00000A 		beq	.L302
 3048 1fbc D8E09DE5 		ldr	lr, [sp, #216]
 3049 1fc0 F0009DE5 		ldr	r0, [sp, #240]
 3050 1fc4 00005EE1 		cmp	lr, r0
 3051 1fc8 5E05001A 		bne	.L301
 3052 1fcc 020053E3 		cmp	r3, #2
 3053 1fd0 1500000A 		beq	.L302
 3054 1fd4 020057E3 		cmp	r7, #2
 3055 1fd8 DCE09DE5 		ldr	lr, [sp, #220]
 3056 1fdc 0903000A 		beq	.L300
 3057 1fe0 F4009DE5 		ldr	r0, [sp, #244]
 3058 1fe4 00005EE1 		cmp	lr, r0
 3059 1fe8 5605001A 		bne	.L301
 3060 1fec 030053E3 		cmp	r3, #3
 3061 1ff0 0D00000A 		beq	.L302
 3062 1ff4 030057E3 		cmp	r7, #3
 3063 1ff8 E0E09DE5 		ldr	lr, [sp, #224]
 3064 1ffc 0103000A 		beq	.L300
 3065 2000 F8009DE5 		ldr	r0, [sp, #248]
 3066 2004 00005EE1 		cmp	lr, r0
 3067 2008 4E05001A 		bne	.L301
 3068 200c 040053E3 		cmp	r3, #4
 3069 2010 0500000A 		beq	.L302
 3070 2014 040057E3 		cmp	r7, #4
 3071 2018 E4E09DE5 		ldr	lr, [sp, #228]
 3072 201c F902000A 		beq	.L300
 3073 2020 FC009DE5 		ldr	r0, [sp, #252]
 3074 2024 00005EE1 		cmp	lr, r0
 3075 2028 4605001A 		bne	.L301
 3076              	.L302:
 3077 202c 00019DE5 		ldr	r0, [sp, #256]
 3078 2030 000053E1 		cmp	r3, r0
 3079 2034 9304001A 		bne	.L634
 3080 2038 050053E3 		cmp	r3, #5
 3081 203c 04E19DE5 		ldr	lr, [sp, #260]
 3082 2040 3E0300CA 		bgt	.L307
 3083 2044 D4009DE5 		ldr	r0, [sp, #212]
 3084 2048 0E0050E1 		cmp	r0, lr
 3085 204c 4305001A 		bne	.L308
 3086 2050 010053E3 		cmp	r3, #1
 3087 2054 450300DA 		ble	.L639
 3088 2058 D8E09DE5 		ldr	lr, [sp, #216]
 3089 205c 08019DE5 		ldr	r0, [sp, #264]
 3090 2060 00005EE1 		cmp	lr, r0
 3091 2064 3D05001A 		bne	.L308
 3092 2068 020053E3 		cmp	r3, #2
 3093 206c 8004000A 		beq	.L641
 3094 2070 DCE09DE5 		ldr	lr, [sp, #220]
 3095 2074 0C019DE5 		ldr	r0, [sp, #268]
 3096 2078 00005EE1 		cmp	lr, r0
 3097 207c 3705001A 		bne	.L308
 3098 2080 030053E3 		cmp	r3, #3
 3099 2084 7A04000A 		beq	.L641
 3100 2088 E0E09DE5 		ldr	lr, [sp, #224]
 3101 208c 10019DE5 		ldr	r0, [sp, #272]
 3102 2090 00005EE1 		cmp	lr, r0
 3103 2094 3105001A 		bne	.L308
 3104 2098 040053E3 		cmp	r3, #4
 3105 209c 8604000A 		beq	.L642
 3106 20a0 E4E09DE5 		ldr	lr, [sp, #228]
 3107 20a4 14019DE5 		ldr	r0, [sp, #276]
 3108 20a8 00005EE1 		cmp	lr, r0
 3109 20ac 05E0A003 		moveq	lr, #5
 3110 20b0 2A05001A 		bne	.L308
 3111              	.L309:
 3112 20b4 050053E3 		cmp	r3, #5
 3113 20b8 1C0300DA 		ble	.L313
 3114              	.L314:
 3115 20bc 5201A0E7 		sbfx	r0, r2, #2, #1
 3116 20c0 030000E2 		and	r0, r0, #3
 3117 20c4 030050E1 		cmp	r0, r3
 3118 20c8 0300A021 		movcs	r0, r3
 3119 20cc 080053E3 		cmp	r3, #8
 3120 20d0 0300A0D1 		movle	r0, r3
 3121 20d4 350300CA 		bgt	.L1163
 3122              	.L316:
 3123 20d8 010050E3 		cmp	r0, #1
 3124 20dc 006092E5 		ldr	r6, [r2]
 3125 20e0 1003000A 		beq	.L653
 3126 20e4 044092E5 		ldr	r4, [r2, #4]
 3127 20e8 020050E3 		cmp	r0, #2
 3128 20ec 940606E0 		mul	r6, r4, r6
 3129 20f0 0C03000A 		beq	.L653
 3130 20f4 084092E5 		ldr	r4, [r2, #8]
 3131 20f8 030050E3 		cmp	r0, #3
 3132 20fc 940606E0 		mul	r6, r4, r6
 3133 2100 0803000A 		beq	.L653
 3134 2104 0C4092E5 		ldr	r4, [r2, #12]
 3135 2108 040050E3 		cmp	r0, #4
 3136 210c 940606E0 		mul	r6, r4, r6
 3137 2110 0403000A 		beq	.L653
 3138 2114 104092E5 		ldr	r4, [r2, #16]
 3139 2118 050050E3 		cmp	r0, #5
 3140 211c 940606E0 		mul	r6, r4, r6
 3141 2120 0003000A 		beq	.L653
 3142 2124 144092E5 		ldr	r4, [r2, #20]
 3143 2128 060050E3 		cmp	r0, #6
 3144 212c 940606E0 		mul	r6, r4, r6
 3145 2130 FC02000A 		beq	.L653
 3146 2134 184092E5 		ldr	r4, [r2, #24]
 3147 2138 070050E3 		cmp	r0, #7
 3148 213c 940606E0 		mul	r6, r4, r6
 3149 2140 F802000A 		beq	.L653
 3150 2144 1C4092E5 		ldr	r4, [r2, #28]
 3151 2148 0870A0E3 		mov	r7, #8
 3152 214c 940606E0 		mul	r6, r4, r6
 3153              	.L318:
 3154 2150 000053E1 		cmp	r3, r0
 3155 2154 2800000A 		beq	.L319
 3156              	.L317:
 3157 2158 004043E0 		sub	r4, r3, r0
 3158 215c 018043E2 		sub	r8, r3, #1
 3159 2160 045044E2 		sub	r5, r4, #4
 3160 2164 008048E0 		sub	r8, r8, r0
 3161 2168 2551A0E1 		lsr	r5, r5, #2
 3162 216c 020058E3 		cmp	r8, #2
 3163 2170 015085E2 		add	r5, r5, #1
 3164 2174 0591A0E1 		lsl	r9, r5, #2
 3165 2178 1200009A 		bls	.L320
 3166 217c 000182E0 		add	r0, r2, r0, lsl #2
 3167 2180 5100C0F2 		vmov.i32	q8, #1  @ v4si
 3168 2184 0080A0E3 		mov	r8, #0
 3169              	.L322:
 3170 2188 018088E2 		add	r8, r8, #1
 3171 218c DF2A60F4 		vld1.64	{d18-d19}, [r0:64]
 3172 2190 080055E1 		cmp	r5, r8
 3173 2194 100080E2 		add	r0, r0, #16
 3174 2198 F20960F2 		vmul.i32	q8, q8, q9
 3175 219c F9FFFF8A 		bhi	.L322
 3176 21a0 040059E1 		cmp	r9, r4
 3177 21a4 097087E0 		add	r7, r7, r9
 3178 21a8 5020C0F2 		vmov.i32	q9, #0  @ v4si
 3179 21ac E248F0F2 		vext.32	q10, q8, q9, #2
 3180 21b0 F40960F2 		vmul.i32	q8, q8, q10
 3181 21b4 E224F0F2 		vext.32	q9, q8, q9, #1
 3182 21b8 F20960F2 		vmul.i32	q8, q8, q9
 3183 21bc 904B10EE 		vmov.32	r4, d16[0]
 3184 21c0 940606E0 		mul	r6, r4, r6
 3185 21c4 0C00000A 		beq	.L319
 3186              	.L320:
 3187 21c8 074192E7 		ldr	r4, [r2, r7, lsl #2]
 3188 21cc 010087E2 		add	r0, r7, #1
 3189 21d0 000053E1 		cmp	r3, r0
 3190 21d4 0701A0E1 		lsl	r0, r7, #2
 3191 21d8 940606E0 		mul	r6, r4, r6
 3192 21dc 060000DA 		ble	.L319
 3193 21e0 000082E0 		add	r0, r2, r0
 3194 21e4 024087E2 		add	r4, r7, #2
 3195 21e8 042090E5 		ldr	r2, [r0, #4]
 3196 21ec 040053E1 		cmp	r3, r4
 3197 21f0 920606E0 		mul	r6, r2, r6
 3198 21f4 083090C5 		ldrgt	r3, [r0, #8]
 3199 21f8 930606C0 		mulgt	r6, r3, r6
 3200              	.L319:
 3201 21fc C63FA0E1 		asr	r3, r6, #31
 3202 2200 010056E3 		cmp	r6, #1
 3203 2204 0000D3E2 		sbcs	r0, r3, #0
 3204 2208 0620A0E1 		mov	r2, r6
 3205 220c E70000BA 		blt	.L679
 3206              	.L315:
 3207 2210 10008CE2 		add	r0, ip, #16
 3208 2214 10608AE2 		add	r6, r10, #16
 3209 2218 105081E2 		add	r5, r1, #16
 3210 221c 06005CE1 		cmp	ip, r6
 3211 2220 00005A31 		cmpcc	r10, r0
 3212 2224 0100A023 		movcs	r0, #1
 3213 2228 0000A033 		movcc	r0, #0
 3214 222c 01408CE1 		orr	r4, ip, r1
 3215 2230 060051E1 		cmp	r1, r6
 3216 2234 05005A31 		cmpcc	r10, r5
 3217 2238 0150A023 		movcs	r5, #1
 3218 223c 0050A033 		movcc	r5, #0
 3219 2240 04408AE1 		orr	r4, r10, r4
 3220 2244 050000E0 		and	r0, r0, r5
 3221 2248 0F0014E3 		tst	r4, #15
 3222 224c 0000A013 		movne	r0, #0
 3223 2250 01000002 		andeq	r0, r0, #1
 3224 2254 000053E3 		cmp	r3, #0
 3225 2258 0F005203 		cmpeq	r2, #15
 3226 225c 0000A093 		movls	r0, #0
 3227 2260 01000082 		andhi	r0, r0, #1
 3228 2264 000050E3 		cmp	r0, #0
 3229 2268 DA02000A 		beq	.L326
 3230 226c 106052E2 		subs	r6, r2, #16
 3231 2270 0040A0E3 		mov	r4, #0
 3232 2274 2662A0E1 		lsr	r6, r6, #4
 3233 2278 0070C3E2 		sbc	r7, r3, #0
 3234 227c 0050A0E3 		mov	r5, #0
 3235 2280 076E86E1 		orr	r6, r6, r7, lsl #28
 3236 2284 2772A0E1 		lsr	r7, r7, #4
 3237 2288 016096E2 		adds	r6, r6, #1
 3238 228c 0070A7E2 		adc	r7, r7, #0
 3239 2290 100052E3 		cmp	r2, #16
 3240 2294 0000D3E2 		sbcs	r0, r3, #0
 3241 2298 306B47EC 		vmov	d16, r6, r7	@ int
 3242 229c B045C4F2 		vshl.u64	d20, d16, #4
 3243 22a0 160000BA 		blt	.L327
 3244 22a4 518EC0F2 		vmov.i8	q12, #1  @ v16qi
 3245 22a8 0190A0E1 		mov	r9, r1
 3246 22ac 5060C0F2 		vmov.i32	q11, #0  @ v16qi
 3247 22b0 0C80A0E1 		mov	r8, ip
 3248 22b4 0A00A0E1 		mov	r0, r10
 3249              	.L329:
 3250 22b8 DF0A69F4 		vld1.64	{d16-d17}, [r9:64]
 3251 22bc 014094E2 		adds	r4, r4, #1
 3252 22c0 0050A5E2 		adc	r5, r5, #0
 3253 22c4 109089E2 		add	r9, r9, #16
 3254 22c8 DF2A68F4 		vld1.64	{d18-d19}, [r8:64]
 3255 22cc 050057E1 		cmp	r7, r5
 3256 22d0 04005601 		cmpeq	r6, r4
 3257 22d4 108088E2 		add	r8, r8, #16
 3258 22d8 F00842F3 		vceq.i8	q8, q9, q8
 3259 22dc 100080E2 		add	r0, r0, #16
 3260 22e0 F60158F3 		vbsl	q8, q12, q11
 3261 22e4 040B40ED 		vstr	d16, [r0, #-16]
 3262 22e8 021B40ED 		vstr	d17, [r0, #-8]
 3263 22ec F1FFFF8A 		bhi	.L329
 3264 22f0 344B55EC 		vmov	r4, r5, d20	@ int
 3265 22f4 030055E1 		cmp	r5, r3
 3266 22f8 02005401 		cmpeq	r4, r2
 3267 22fc AB00000A 		beq	.L679
 3268              	.L327:
 3269 2300 0490D1E7 		ldrb	r9, [r1, r4]	@ zero_extendqisi2
 3270 2304 016094E2 		adds	r6, r4, #1
 3271 2308 0480DCE7 		ldrb	r8, [ip, r4]	@ zero_extendqisi2
 3272 230c 0070A5E2 		adc	r7, r5, #0
 3273 2310 020056E1 		cmp	r6, r2
 3274 2314 098048E0 		sub	r8, r8, r9
 3275 2318 0390D7E0 		sbcs	r9, r7, r3
 3276 231c 188F6FE1 		clz	r8, r8
 3277 2320 A882A0E1 		lsr	r8, r8, #5
 3278 2324 0480CAE7 		strb	r8, [r10, r4]
 3279 2328 A00000AA 		bge	.L679
 3280 232c 0690DCE7 		ldrb	r9, [ip, r6]	@ zero_extendqisi2
 3281 2330 0600A0E1 		mov	r0, r6
 3282 2334 0680D1E7 		ldrb	r8, [r1, r6]	@ zero_extendqisi2
 3283 2338 026094E2 		adds	r6, r4, #2
 3284 233c 0070A5E2 		adc	r7, r5, #0
 3285 2340 020056E1 		cmp	r6, r2
 3286 2344 098048E0 		sub	r8, r8, r9
 3287 2348 0390D7E0 		sbcs	r9, r7, r3
 3288 234c 188F6FE1 		clz	r8, r8
 3289 2350 A882A0E1 		lsr	r8, r8, #5
 3290 2354 0080CAE7 		strb	r8, [r10, r0]
 3291 2358 940000AA 		bge	.L679
 3292 235c 0690D1E7 		ldrb	r9, [r1, r6]	@ zero_extendqisi2
 3293 2360 0600A0E1 		mov	r0, r6
 3294 2364 0680DCE7 		ldrb	r8, [ip, r6]	@ zero_extendqisi2
 3295 2368 036094E2 		adds	r6, r4, #3
 3296 236c 0070A5E2 		adc	r7, r5, #0
 3297 2370 020056E1 		cmp	r6, r2
 3298 2374 098048E0 		sub	r8, r8, r9
 3299 2378 0390D7E0 		sbcs	r9, r7, r3
 3300 237c 188F6FE1 		clz	r8, r8
 3301 2380 A882A0E1 		lsr	r8, r8, #5
 3302 2384 0080CAE7 		strb	r8, [r10, r0]
 3303 2388 880000AA 		bge	.L679
 3304 238c 0690D1E7 		ldrb	r9, [r1, r6]	@ zero_extendqisi2
 3305 2390 0600A0E1 		mov	r0, r6
 3306 2394 0680DCE7 		ldrb	r8, [ip, r6]	@ zero_extendqisi2
 3307 2398 046094E2 		adds	r6, r4, #4
 3308 239c 0070A5E2 		adc	r7, r5, #0
 3309 23a0 020056E1 		cmp	r6, r2
 3310 23a4 098048E0 		sub	r8, r8, r9
 3311 23a8 0390D7E0 		sbcs	r9, r7, r3
 3312 23ac 188F6FE1 		clz	r8, r8
 3313 23b0 A882A0E1 		lsr	r8, r8, #5
 3314 23b4 0080CAE7 		strb	r8, [r10, r0]
 3315 23b8 7C0000AA 		bge	.L679
 3316 23bc 0690D1E7 		ldrb	r9, [r1, r6]	@ zero_extendqisi2
 3317 23c0 0600A0E1 		mov	r0, r6
 3318 23c4 0680DCE7 		ldrb	r8, [ip, r6]	@ zero_extendqisi2
 3319 23c8 056094E2 		adds	r6, r4, #5
 3320 23cc 0070A5E2 		adc	r7, r5, #0
 3321 23d0 020056E1 		cmp	r6, r2
 3322 23d4 098048E0 		sub	r8, r8, r9
 3323 23d8 0390D7E0 		sbcs	r9, r7, r3
 3324 23dc 188F6FE1 		clz	r8, r8
 3325 23e0 A882A0E1 		lsr	r8, r8, #5
 3326 23e4 0080CAE7 		strb	r8, [r10, r0]
 3327 23e8 700000AA 		bge	.L679
 3328 23ec 0690DCE7 		ldrb	r9, [ip, r6]	@ zero_extendqisi2
 3329 23f0 0600A0E1 		mov	r0, r6
 3330 23f4 0680D1E7 		ldrb	r8, [r1, r6]	@ zero_extendqisi2
 3331 23f8 066094E2 		adds	r6, r4, #6
 3332 23fc 0070A5E2 		adc	r7, r5, #0
 3333 2400 020056E1 		cmp	r6, r2
 3334 2404 098048E0 		sub	r8, r8, r9
 3335 2408 0390D7E0 		sbcs	r9, r7, r3
 3336 240c 188F6FE1 		clz	r8, r8
 3337 2410 A882A0E1 		lsr	r8, r8, #5
 3338 2414 0080CAE7 		strb	r8, [r10, r0]
 3339 2418 640000AA 		bge	.L679
 3340 241c 0690DCE7 		ldrb	r9, [ip, r6]	@ zero_extendqisi2
 3341 2420 0600A0E1 		mov	r0, r6
 3342 2424 0680D1E7 		ldrb	r8, [r1, r6]	@ zero_extendqisi2
 3343 2428 076094E2 		adds	r6, r4, #7
 3344 242c 0070A5E2 		adc	r7, r5, #0
 3345 2430 020056E1 		cmp	r6, r2
 3346 2434 098048E0 		sub	r8, r8, r9
 3347 2438 0390D7E0 		sbcs	r9, r7, r3
 3348 243c 188F6FE1 		clz	r8, r8
 3349 2440 A882A0E1 		lsr	r8, r8, #5
 3350 2444 0080CAE7 		strb	r8, [r10, r0]
 3351 2448 580000AA 		bge	.L679
 3352 244c 0690DCE7 		ldrb	r9, [ip, r6]	@ zero_extendqisi2
 3353 2450 0600A0E1 		mov	r0, r6
 3354 2454 0680D1E7 		ldrb	r8, [r1, r6]	@ zero_extendqisi2
 3355 2458 086094E2 		adds	r6, r4, #8
 3356 245c 0070A5E2 		adc	r7, r5, #0
 3357 2460 020056E1 		cmp	r6, r2
 3358 2464 098048E0 		sub	r8, r8, r9
 3359 2468 0390D7E0 		sbcs	r9, r7, r3
 3360 246c 188F6FE1 		clz	r8, r8
 3361 2470 A882A0E1 		lsr	r8, r8, #5
 3362 2474 0080CAE7 		strb	r8, [r10, r0]
 3363 2478 4C0000AA 		bge	.L679
 3364 247c 0690DCE7 		ldrb	r9, [ip, r6]	@ zero_extendqisi2
 3365 2480 0600A0E1 		mov	r0, r6
 3366 2484 0680D1E7 		ldrb	r8, [r1, r6]	@ zero_extendqisi2
 3367 2488 096094E2 		adds	r6, r4, #9
 3368 248c 0070A5E2 		adc	r7, r5, #0
 3369 2490 020056E1 		cmp	r6, r2
 3370 2494 098048E0 		sub	r8, r8, r9
 3371 2498 0390D7E0 		sbcs	r9, r7, r3
 3372 249c 188F6FE1 		clz	r8, r8
 3373 24a0 A882A0E1 		lsr	r8, r8, #5
 3374 24a4 0080CAE7 		strb	r8, [r10, r0]
 3375 24a8 400000AA 		bge	.L679
 3376 24ac 0690DCE7 		ldrb	r9, [ip, r6]	@ zero_extendqisi2
 3377 24b0 0600A0E1 		mov	r0, r6
 3378 24b4 0680D1E7 		ldrb	r8, [r1, r6]	@ zero_extendqisi2
 3379 24b8 0A6094E2 		adds	r6, r4, #10
 3380 24bc 0070A5E2 		adc	r7, r5, #0
 3381 24c0 020056E1 		cmp	r6, r2
 3382 24c4 098048E0 		sub	r8, r8, r9
 3383 24c8 0390D7E0 		sbcs	r9, r7, r3
 3384 24cc 188F6FE1 		clz	r8, r8
 3385 24d0 A882A0E1 		lsr	r8, r8, #5
 3386 24d4 0080CAE7 		strb	r8, [r10, r0]
 3387 24d8 340000AA 		bge	.L679
 3388 24dc 0690DCE7 		ldrb	r9, [ip, r6]	@ zero_extendqisi2
 3389 24e0 0600A0E1 		mov	r0, r6
 3390 24e4 0680D1E7 		ldrb	r8, [r1, r6]	@ zero_extendqisi2
 3391 24e8 0B6094E2 		adds	r6, r4, #11
 3392 24ec 0070A5E2 		adc	r7, r5, #0
 3393 24f0 020056E1 		cmp	r6, r2
 3394 24f4 098048E0 		sub	r8, r8, r9
 3395 24f8 0390D7E0 		sbcs	r9, r7, r3
 3396 24fc 188F6FE1 		clz	r8, r8
 3397 2500 A882A0E1 		lsr	r8, r8, #5
 3398 2504 0080CAE7 		strb	r8, [r10, r0]
 3399 2508 280000AA 		bge	.L679
 3400 250c 0690DCE7 		ldrb	r9, [ip, r6]	@ zero_extendqisi2
 3401 2510 0600A0E1 		mov	r0, r6
 3402 2514 0680D1E7 		ldrb	r8, [r1, r6]	@ zero_extendqisi2
 3403 2518 0C6094E2 		adds	r6, r4, #12
 3404 251c 0070A5E2 		adc	r7, r5, #0
 3405 2520 020056E1 		cmp	r6, r2
 3406 2524 098048E0 		sub	r8, r8, r9
 3407 2528 0390D7E0 		sbcs	r9, r7, r3
 3408 252c 188F6FE1 		clz	r8, r8
 3409 2530 A882A0E1 		lsr	r8, r8, #5
 3410 2534 0080CAE7 		strb	r8, [r10, r0]
 3411 2538 1C0000AA 		bge	.L679
 3412 253c 0690DCE7 		ldrb	r9, [ip, r6]	@ zero_extendqisi2
 3413 2540 0600A0E1 		mov	r0, r6
 3414 2544 0680D1E7 		ldrb	r8, [r1, r6]	@ zero_extendqisi2
 3415 2548 0D6094E2 		adds	r6, r4, #13
 3416 254c 0070A5E2 		adc	r7, r5, #0
 3417 2550 020056E1 		cmp	r6, r2
 3418 2554 098048E0 		sub	r8, r8, r9
 3419 2558 0390D7E0 		sbcs	r9, r7, r3
 3420 255c 188F6FE1 		clz	r8, r8
 3421 2560 A882A0E1 		lsr	r8, r8, #5
 3422 2564 0080CAE7 		strb	r8, [r10, r0]
 3423 2568 100000AA 		bge	.L679
 3424 256c 0600D1E7 		ldrb	r0, [r1, r6]	@ zero_extendqisi2
 3425 2570 0E4094E2 		adds	r4, r4, #14
 3426 2574 0670DCE7 		ldrb	r7, [ip, r6]	@ zero_extendqisi2
 3427 2578 0050A5E2 		adc	r5, r5, #0
 3428 257c 020054E1 		cmp	r4, r2
 3429 2580 0330D5E0 		sbcs	r3, r5, r3
 3430 2584 070040E0 		sub	r0, r0, r7
 3431 2588 100F6FE1 		clz	r0, r0
 3432 258c A002A0E1 		lsr	r0, r0, #5
 3433 2590 0600CAE7 		strb	r0, [r10, r6]
 3434 2594 050000AA 		bge	.L679
 3435 2598 0430DCE7 		ldrb	r3, [ip, r4]	@ zero_extendqisi2
 3436 259c 0420D1E7 		ldrb	r2, [r1, r4]	@ zero_extendqisi2
 3437 25a0 023043E0 		sub	r3, r3, r2
 3438 25a4 133F6FE1 		clz	r3, r3
 3439 25a8 A332A0E1 		lsr	r3, r3, #5
 3440 25ac 0430CAE7 		strb	r3, [r10, r4]
 3441              	.L679:
 3442 25b0 0040A0E3 		mov	r4, #0
 3443 25b4 23FCFFEA 		b	.L246
 3444              	.L469:
 3445 25b8 000055E3 		cmp	r5, #0
 3446 25bc 00B098E5 		ldr	fp, [r8]
 3447 25c0 A004000A 		beq	.L1164
 3448 25c4 003095E5 		ldr	r3, [r5]
 3449 25c8 012C8DE2 		add	r2, sp, #256
 3450 25cc E8108DE2 		add	r1, sp, #232
 3451 25d0 D0008DE2 		add	r0, sp, #208
 3452 25d4 00308DE5 		str	r3, [sp]
 3453 25d8 FEFFFFEB 		bl	_ZN6tflite16MatchingFlatSizeERKNS_12RuntimeShapeES2_S2_
 3454 25dc 900B80EE 		vdup.32	d16, r0
 3455 25e0 C03FA0E1 		asr	r3, r0, #31
 3456 25e4 010050E3 		cmp	r0, #1
 3457 25e8 B000E0F2 		vshr.s64	d16, d16, #32
 3458 25ec 0030D3E2 		sbcs	r3, r3, #0
 3459 25f0 020BCDED 		vstr.64	d16, [sp, #8]	@ int
 3460 25f4 59FEFFBA 		blt	.L885
 3461 25f8 040050E3 		cmp	r0, #4
 3462 25fc 060200DA 		ble	.L688
 3463 2600 300B51EC 		vmov	r0, r1, d16	@ int
 3464 2604 80308BE2 		add	r3, fp, #128
 3465 2608 050050E2 		subs	r0, r0, #5
 3466 260c 00209DE5 		ldr	r2, [sp]
 3467 2610 0300C0E3 		bic	r0, r0, #3
 3468 2614 0010C1E2 		sbc	r1, r1, #0
 3469 2618 044090E2 		adds	r4, r0, #4
 3470 261c 0AC0A0E1 		mov	ip, r10
 3471 2620 0050A1E2 		adc	r5, r1, #0
 3472 2624 20A08DE5 		str	r10, [sp, #32]
 3473 2628 10B08DE5 		str	fp, [sp, #16]
 3474 262c 0080A0E3 		mov	r8, #0
 3475 2630 0090A0E3 		mov	r9, #0
 3476 2634 04A0A0E1 		mov	r10, r4
 3477 2638 05B0A0E1 		mov	fp, r5
 3478              	.L516:
 3479 263c D04843E1 		ldrd	r4, [r3, #-128]
 3480 2640 202082E2 		add	r2, r2, #32
 3481 2644 D00242E1 		ldrd	r0, [r2, #-32]
 3482 2648 04C08CE2 		add	ip, ip, #4
 3483 264c D86142E1 		ldrd	r6, [r2, #-24]
 3484 2650 00F0D3F5 		pld	[r3]
 3485 2654 203083E2 		add	r3, r3, #32
 3486 2658 010055E1 		cmp	r5, r1
 3487 265c 00005401 		cmpeq	r4, r0
 3488 2660 D84943E1 		ldrd	r4, [r3, #-152]
 3489 2664 01E0A003 		moveq	lr, #1
 3490 2668 00E0A013 		movne	lr, #0
 3491 266c D00943E1 		ldrd	r0, [r3, #-144]
 3492 2670 050057E1 		cmp	r7, r5
 3493 2674 04E04CE5 		strb	lr, [ip, #-4]
 3494 2678 04005601 		cmpeq	r6, r4
 3495 267c D04142E1 		ldrd	r4, [r2, #-16]
 3496 2680 01E0A003 		moveq	lr, #1
 3497 2684 00E0A013 		movne	lr, #0
 3498 2688 D86843E1 		ldrd	r6, [r3, #-136]
 3499 268c 050051E1 		cmp	r1, r5
 3500 2690 03E04CE5 		strb	lr, [ip, #-3]
 3501 2694 04005001 		cmpeq	r0, r4
 3502 2698 D80042E1 		ldrd	r0, [r2, #-8]
 3503 269c 01E0A003 		moveq	lr, #1
 3504 26a0 00E0A013 		movne	lr, #0
 3505 26a4 02E04CE5 		strb	lr, [ip, #-2]
 3506 26a8 010057E1 		cmp	r7, r1
 3507 26ac 00005601 		cmpeq	r6, r0
 3508 26b0 0110A003 		moveq	r1, #1
 3509 26b4 0010A013 		movne	r1, #0
 3510 26b8 048098E2 		adds	r8, r8, #4
 3511 26bc 01104CE5 		strb	r1, [ip, #-1]
 3512 26c0 0090A9E2 		adc	r9, r9, #0
 3513 26c4 0B0059E1 		cmp	r9, fp
 3514 26c8 0A005801 		cmpeq	r8, r10
 3515 26cc DAFFFF1A 		bne	.L516
 3516 26d0 20A09DE5 		ldr	r10, [sp, #32]
 3517 26d4 10B09DE5 		ldr	fp, [sp, #16]
 3518 26d8 D840CDE1 		ldrd	r4, [sp, #8]
 3519              	.L515:
 3520 26dc 013048E2 		sub	r3, r8, #1
 3521 26e0 1EC248E2 		sub	ip, r8, #-536870911
 3522 26e4 03A08AE0 		add	r10, r10, r3
 3523 26e8 00309DE5 		ldr	r3, [sp]
 3524 26ec 8CC1A0E1 		lsl	ip, ip, #3
 3525 26f0 0CB08BE0 		add	fp, fp, ip
 3526 26f4 0CC083E0 		add	ip, r3, ip
 3527              	.L517:
 3528 26f8 D820ECE1 		ldrd	r2, [ip, #8]!
 3529 26fc D800EBE1 		ldrd	r0, [fp, #8]!
 3530 2700 030051E1 		cmp	r1, r3
 3531 2704 02005001 		cmpeq	r0, r2
 3532 2708 0130A003 		moveq	r3, #1
 3533 270c 0030A013 		movne	r3, #0
 3534 2710 018098E2 		adds	r8, r8, #1
 3535 2714 0130EAE5 		strb	r3, [r10, #1]!
 3536 2718 0090A9E2 		adc	r9, r9, #0
 3537 271c 040058E1 		cmp	r8, r4
 3538 2720 0520D9E0 		sbcs	r2, r9, r5
 3539 2724 F3FFFFBA 		blt	.L517
 3540 2728 0CFEFFEA 		b	.L885
 3541              	.L570:
 3542 272c 003098E5 		ldr	r3, [r8]
 3543 2730 000055E3 		cmp	r5, #0
 3544 2734 08308DE5 		str	r3, [sp, #8]
 3545 2738 FB04000A 		beq	.L1165
 3546 273c 003095E5 		ldr	r3, [r5]
 3547 2740 012C8DE2 		add	r2, sp, #256
 3548 2744 E8108DE2 		add	r1, sp, #232
 3549 2748 D0008DE2 		add	r0, sp, #208
 3550 274c 08B094E5 		ldr	fp, [r4, #8]
 3551 2750 20308DE5 		str	r3, [sp, #32]
 3552 2754 003094E5 		ldr	r3, [r4]
 3553 2758 0C5094E5 		ldr	r5, [r4, #12]
 3554 275c 149094E5 		ldr	r9, [r4, #20]
 3555 2760 10308DE5 		str	r3, [sp, #16]
 3556 2764 043094E5 		ldr	r3, [r4, #4]
 3557 2768 188094E5 		ldr	r8, [r4, #24]
 3558 276c 18308DE5 		str	r3, [sp, #24]
 3559 2770 103094E5 		ldr	r3, [r4, #16]
 3560 2774 24308DE5 		str	r3, [sp, #36]
 3561 2778 FEFFFFEB 		bl	_ZN6tflite16MatchingFlatSizeERKNS_12RuntimeShapeES2_S2_
 3562 277c 000050E3 		cmp	r0, #0
 3563 2780 F6FDFFDA 		ble	.L885
 3564 2784 003065E2 		rsb	r3, r5, #0
 3565 2788 7C0BDFED 		vldr.64	d16, .L1180	@ int
 3566 278c 002068E2 		rsb	r2, r8, #0
 3567 2790 3C308DE5 		str	r3, [sp, #60]
 3568 2794 903B02EE 		vmov.32	d18[0], r3
 3569 2798 30208DE5 		str	r2, [sp, #48]
 3570 279c A01472F3 		vshl.u64	d17, d16, d18
 3571 27a0 902B02EE 		vmov.32	d18[0], r2
 3572 27a4 48A08DE5 		str	r10, [sp, #72]
 3573 27a8 05A0A0E1 		mov	r10, r5
 3574 27ac 316B57EC 		vmov	r6, r7, d17	@ int
 3575 27b0 A01472F3 		vshl.u64	d17, d16, d18
 3576 27b4 011046E2 		sub	r1, r6, #1
 3577 27b8 28108DE5 		str	r1, [sp, #40]
 3578 27bc 306B57EC 		vmov	r6, r7, d16	@ int
 3579 27c0 312B53EC 		vmov	r2, r3, d17	@ int
 3580 27c4 013042E2 		sub	r3, r2, #1
 3581 27c8 C120A0E1 		asr	r2, r1, #1
 3582 27cc 34308DE5 		str	r3, [sp, #52]
 3583 27d0 C01FA0E1 		asr	r1, r0, #31
 3584 27d4 C330A0E1 		asr	r3, r3, #1
 3585 27d8 2C208DE5 		str	r2, [sp, #44]
 3586 27dc 012090E2 		adds	r2, r0, #1
 3587 27e0 38308DE5 		str	r3, [sp, #56]
 3588 27e4 0030A1E2 		adc	r3, r1, #0
 3589 27e8 F024CDE1 		strd	r2, [sp, #64]
 3590              	.L621:
 3591 27ec 08309DE5 		ldr	r3, [sp, #8]
 3592 27f0 00608DE5 		str	r6, [sp]
 3593 27f4 062083E0 		add	r2, r3, r6
 3594 27f8 20309DE5 		ldr	r3, [sp, #32]
 3595 27fc D1E052E1 		ldrsb	lr, [r2, #-1]
 3596 2800 24209DE5 		ldr	r2, [sp, #36]
 3597 2804 063083E0 		add	r3, r3, r6
 3598 2808 D1C053E1 		ldrsb	ip, [r3, #-1]
 3599 280c 18309DE5 		ldr	r3, [sp, #24]
 3600 2810 02C08CE0 		add	ip, ip, r2
 3601 2814 03E08EE0 		add	lr, lr, r3
 3602 2818 10309DE5 		ldr	r3, [sp, #16]
 3603 281c 1EE3A0E1 		lsl	lr, lr, r3
 3604 2820 1CC3A0E1 		lsl	ip, ip, r3
 3605 2824 9B0EC1E0 		smull	r0, r1, fp, lr
 3606 2828 0E005BE1 		cmp	fp, lr
 3607 282c 02015E03 		cmpeq	lr, #-2147483648
 3608 2830 01E0A003 		moveq	lr, #1
 3609 2834 00E0A013 		movne	lr, #0
 3610 2838 000050E3 		cmp	r0, #0
 3611 283c 0030D1E2 		sbcs	r3, r1, #0
 3612 2840 0121A0A3 		movge	r2, #1073741824
 3613 2844 0721A0B3 		movlt	r2, #-1073741823
 3614 2848 0030A0A3 		movge	r3, #0
 3615 284c 0030E0B3 		mvnlt	r3, #0
 3616 2850 00005EE3 		cmp	lr, #0
 3617 2854 0221E013 		mvnne	r2, #-2147483648
 3618 2858 0800001A 		bne	.L614
 3619 285c 020090E0 		adds	r0, r0, r2
 3620 2860 0310A1E0 		adc	r1, r1, r3
 3621 2864 0030A0E3 		mov	r3, #0
 3622 2868 C12FA0E1 		asr	r2, r1, #31
 3623 286c 0221C2E3 		bic	r2, r2, #-2147483648
 3624 2870 002092E0 		adds	r2, r2, r0
 3625 2874 A22FA0E1 		lsr	r2, r2, #31
 3626 2878 0130A3E0 		adc	r3, r3, r1
 3627 287c 832082E1 		orr	r2, r2, r3, lsl #1
 3628              	.L614:
 3629 2880 00005AE3 		cmp	r10, #0
 3630 2884 DB0400CA 		bgt	.L1166
 3631 2888 1F007AE3 		cmn	r10, #31
 3632 288c D10400BA 		blt	.L1167
 3633 2890 2C309DE5 		ldr	r3, [sp, #44]
 3634 2894 9C49C5E0 		smull	r4, r5, ip, r9
 3635 2898 28009DE5 		ldr	r0, [sp, #40]
 3636 289c 0C0059E1 		cmp	r9, ip
 3637 28a0 02015C03 		cmpeq	ip, #-2147483648
 3638 28a4 01C0A003 		moveq	ip, #1
 3639 28a8 00C0A013 		movne	ip, #0
 3640 28ac A21F83E0 		add	r1, r3, r2, lsr #31
 3641 28b0 3C309DE5 		ldr	r3, [sp, #60]
 3642 28b4 5233A0E1 		asr	r3, r2, r3
 3643 28b8 002002E0 		and	r2, r2, r0
 3644 28bc 010052E1 		cmp	r2, r1
 3645 28c0 03E0A0D1 		movle	lr, r3
 3646 28c4 01E083C2 		addgt	lr, r3, #1
 3647 28c8 000054E3 		cmp	r4, #0
 3648 28cc 0030D5E2 		sbcs	r3, r5, #0
 3649 28d0 0101A0A3 		movge	r0, #1073741824
 3650 28d4 0010A0A3 		movge	r1, #0
 3651 28d8 0701A0B3 		movlt	r0, #-1073741823
 3652 28dc 0010E0B3 		mvnlt	r1, #0
 3653 28e0 00005CE3 		cmp	ip, #0
 3654 28e4 0221E013 		mvnne	r2, #-2147483648
 3655 28e8 0800001A 		bne	.L618
 3656 28ec 040090E0 		adds	r0, r0, r4
 3657 28f0 0030A0E3 		mov	r3, #0
 3658 28f4 0510A1E0 		adc	r1, r1, r5
 3659 28f8 C12FA0E1 		asr	r2, r1, #31
 3660 28fc 0221C2E3 		bic	r2, r2, #-2147483648
 3661 2900 002092E0 		adds	r2, r2, r0
 3662 2904 A22FA0E1 		lsr	r2, r2, #31
 3663 2908 0130A3E0 		adc	r3, r3, r1
 3664 290c 832082E1 		orr	r2, r2, r3, lsl #1
 3665              	.L618:
 3666 2910 000058E3 		cmp	r8, #0
 3667 2914 A70400CA 		bgt	.L1168
 3668 2918 1F0078E3 		cmn	r8, #31
 3669 291c 9D0400BA 		blt	.L1169
 3670 2920 38309DE5 		ldr	r3, [sp, #56]
 3671 2924 016096E2 		adds	r6, r6, #1
 3672 2928 34009DE5 		ldr	r0, [sp, #52]
 3673 292c 0070A7E2 		adc	r7, r7, #0
 3674 2930 D044CDE1 		ldrd	r4, [sp, #64]
 3675 2934 A21F83E0 		add	r1, r3, r2, lsr #31
 3676 2938 30309DE5 		ldr	r3, [sp, #48]
 3677 293c 5233A0E1 		asr	r3, r2, r3
 3678 2940 002002E0 		and	r2, r2, r0
 3679 2944 010052E1 		cmp	r2, r1
 3680 2948 0320A0D1 		movle	r2, r3
 3681 294c 012083C2 		addgt	r2, r3, #1
 3682 2950 48309DE5 		ldr	r3, [sp, #72]
 3683 2954 00109DE5 		ldr	r1, [sp]
 3684 2958 0E2042E0 		sub	r2, r2, lr
 3685 295c 122F6FE1 		clz	r2, r2
 3686 2960 050057E1 		cmp	r7, r5
 3687 2964 A222A0E1 		lsr	r2, r2, #5
 3688 2968 04005601 		cmpeq	r6, r4
 3689 296c 010083E0 		add	r0, r3, r1
 3690 2970 012040E5 		strb	r2, [r0, #-1]
 3691 2974 9CFFFF1A 		bne	.L621
 3692 2978 78FDFFEA 		b	.L885
 3693              	.L1181:
 3694 297c 00F020E3 		.align	3
 3695              	.L1180:
 3696 2980 01000000 		.word	1
 3697 2984 00000000 		.word	0
 3698              	.L518:
 3699 2988 003098E5 		ldr	r3, [r8]
 3700 298c 000055E3 		cmp	r5, #0
 3701 2990 08308DE5 		str	r3, [sp, #8]
 3702 2994 7E04000A 		beq	.L1170
 3703 2998 003095E5 		ldr	r3, [r5]
 3704 299c 012C8DE2 		add	r2, sp, #256
 3705 29a0 E8108DE2 		add	r1, sp, #232
 3706 29a4 D0008DE2 		add	r0, sp, #208
 3707 29a8 08B094E5 		ldr	fp, [r4, #8]
 3708 29ac 20308DE5 		str	r3, [sp, #32]
 3709 29b0 003094E5 		ldr	r3, [r4]
 3710 29b4 0C5094E5 		ldr	r5, [r4, #12]
 3711 29b8 149094E5 		ldr	r9, [r4, #20]
 3712 29bc 10308DE5 		str	r3, [sp, #16]
 3713 29c0 043094E5 		ldr	r3, [r4, #4]
 3714 29c4 188094E5 		ldr	r8, [r4, #24]
 3715 29c8 18308DE5 		str	r3, [sp, #24]
 3716 29cc 103094E5 		ldr	r3, [r4, #16]
 3717 29d0 24308DE5 		str	r3, [sp, #36]
 3718 29d4 FEFFFFEB 		bl	_ZN6tflite16MatchingFlatSizeERKNS_12RuntimeShapeES2_S2_
 3719 29d8 000050E3 		cmp	r0, #0
 3720 29dc 5FFDFFDA 		ble	.L885
 3721 29e0 003065E2 		rsb	r3, r5, #0
 3722 29e4 1B0B5FED 		vldr.64	d16, .L1180	@ int
 3723 29e8 002068E2 		rsb	r2, r8, #0
 3724 29ec 28308DE5 		str	r3, [sp, #40]
 3725 29f0 903B02EE 		vmov.32	d18[0], r3
 3726 29f4 34208DE5 		str	r2, [sp, #52]
 3727 29f8 A01472F3 		vshl.u64	d17, d16, d18
 3728 29fc 902B02EE 		vmov.32	d18[0], r2
 3729 2a00 48A08DE5 		str	r10, [sp, #72]
 3730 2a04 05A0A0E1 		mov	r10, r5
 3731 2a08 316B57EC 		vmov	r6, r7, d17	@ int
 3732 2a0c A01472F3 		vshl.u64	d17, d16, d18
 3733 2a10 011046E2 		sub	r1, r6, #1
 3734 2a14 2C108DE5 		str	r1, [sp, #44]
 3735 2a18 306B57EC 		vmov	r6, r7, d16	@ int
 3736 2a1c 312B53EC 		vmov	r2, r3, d17	@ int
 3737 2a20 013042E2 		sub	r3, r2, #1
 3738 2a24 C120A0E1 		asr	r2, r1, #1
 3739 2a28 38308DE5 		str	r3, [sp, #56]
 3740 2a2c C01FA0E1 		asr	r1, r0, #31
 3741 2a30 C330A0E1 		asr	r3, r3, #1
 3742 2a34 30208DE5 		str	r2, [sp, #48]
 3743 2a38 012090E2 		adds	r2, r0, #1
 3744 2a3c 3C308DE5 		str	r3, [sp, #60]
 3745 2a40 0030A1E2 		adc	r3, r1, #0
 3746 2a44 F024CDE1 		strd	r2, [sp, #64]
 3747              	.L569:
 3748 2a48 08309DE5 		ldr	r3, [sp, #8]
 3749 2a4c 00608DE5 		str	r6, [sp]
 3750 2a50 062083E0 		add	r2, r3, r6
 3751 2a54 20309DE5 		ldr	r3, [sp, #32]
 3752 2a58 01E052E5 		ldrb	lr, [r2, #-1]	@ zero_extendqisi2
 3753 2a5c 24209DE5 		ldr	r2, [sp, #36]
 3754 2a60 063083E0 		add	r3, r3, r6
 3755 2a64 01C053E5 		ldrb	ip, [r3, #-1]	@ zero_extendqisi2
 3756 2a68 18309DE5 		ldr	r3, [sp, #24]
 3757 2a6c 02C08CE0 		add	ip, ip, r2
 3758 2a70 03E08EE0 		add	lr, lr, r3
 3759 2a74 10309DE5 		ldr	r3, [sp, #16]
 3760 2a78 1EE3A0E1 		lsl	lr, lr, r3
 3761 2a7c 1CC3A0E1 		lsl	ip, ip, r3
 3762 2a80 9E2BC3E0 		smull	r2, r3, lr, fp
 3763 2a84 0E005BE1 		cmp	fp, lr
 3764 2a88 02015E03 		cmpeq	lr, #-2147483648
 3765 2a8c 01E0A003 		moveq	lr, #1
 3766 2a90 00E0A013 		movne	lr, #0
 3767 2a94 000052E3 		cmp	r2, #0
 3768 2a98 0010D3E2 		sbcs	r1, r3, #0
 3769 2a9c 0101A0A3 		movge	r0, #1073741824
 3770 2aa0 0010A0A3 		movge	r1, #0
 3771 2aa4 0701A0B3 		movlt	r0, #-1073741823
 3772 2aa8 0010E0B3 		mvnlt	r1, #0
 3773 2aac 00005EE3 		cmp	lr, #0
 3774 2ab0 0221E013 		mvnne	r2, #-2147483648
 3775 2ab4 0800001A 		bne	.L562
 3776 2ab8 020090E0 		adds	r0, r0, r2
 3777 2abc 0310A1E0 		adc	r1, r1, r3
 3778 2ac0 0030A0E3 		mov	r3, #0
 3779 2ac4 C12FA0E1 		asr	r2, r1, #31
 3780 2ac8 0221C2E3 		bic	r2, r2, #-2147483648
 3781 2acc 002092E0 		adds	r2, r2, r0
 3782 2ad0 A22FA0E1 		lsr	r2, r2, #31
 3783 2ad4 0130A3E0 		adc	r3, r3, r1
 3784 2ad8 832082E1 		orr	r2, r2, r3, lsl #1
 3785              	.L562:
 3786 2adc 00005AE3 		cmp	r10, #0
 3787 2ae0 230400CA 		bgt	.L1171
 3788 2ae4 1F007AE3 		cmn	r10, #31
 3789 2ae8 190400BA 		blt	.L1172
 3790 2aec 30309DE5 		ldr	r3, [sp, #48]
 3791 2af0 9C49C5E0 		smull	r4, r5, ip, r9
 3792 2af4 2C009DE5 		ldr	r0, [sp, #44]
 3793 2af8 0C0059E1 		cmp	r9, ip
 3794 2afc 02015C03 		cmpeq	ip, #-2147483648
 3795 2b00 01C0A003 		moveq	ip, #1
 3796 2b04 00C0A013 		movne	ip, #0
 3797 2b08 A21F83E0 		add	r1, r3, r2, lsr #31
 3798 2b0c 28309DE5 		ldr	r3, [sp, #40]
 3799 2b10 5233A0E1 		asr	r3, r2, r3
 3800 2b14 002002E0 		and	r2, r2, r0
 3801 2b18 010052E1 		cmp	r2, r1
 3802 2b1c 03E0A0D1 		movle	lr, r3
 3803 2b20 01E083C2 		addgt	lr, r3, #1
 3804 2b24 000054E3 		cmp	r4, #0
 3805 2b28 0030D5E2 		sbcs	r3, r5, #0
 3806 2b2c 0101A0A3 		movge	r0, #1073741824
 3807 2b30 0010A0A3 		movge	r1, #0
 3808 2b34 0701A0B3 		movlt	r0, #-1073741823
 3809 2b38 0010E0B3 		mvnlt	r1, #0
 3810 2b3c 00005CE3 		cmp	ip, #0
 3811 2b40 0221E013 		mvnne	r2, #-2147483648
 3812 2b44 0800001A 		bne	.L566
 3813 2b48 040090E0 		adds	r0, r0, r4
 3814 2b4c 0030A0E3 		mov	r3, #0
 3815 2b50 0510A1E0 		adc	r1, r1, r5
 3816 2b54 C12FA0E1 		asr	r2, r1, #31
 3817 2b58 0221C2E3 		bic	r2, r2, #-2147483648
 3818 2b5c 002092E0 		adds	r2, r2, r0
 3819 2b60 A22FA0E1 		lsr	r2, r2, #31
 3820 2b64 0130A3E0 		adc	r3, r3, r1
 3821 2b68 832082E1 		orr	r2, r2, r3, lsl #1
 3822              	.L566:
 3823 2b6c 000058E3 		cmp	r8, #0
 3824 2b70 EF0300CA 		bgt	.L1173
 3825 2b74 1F0078E3 		cmn	r8, #31
 3826 2b78 E10300BA 		blt	.L1174
 3827 2b7c 3C309DE5 		ldr	r3, [sp, #60]
 3828 2b80 016096E2 		adds	r6, r6, #1
 3829 2b84 38009DE5 		ldr	r0, [sp, #56]
 3830 2b88 0070A7E2 		adc	r7, r7, #0
 3831 2b8c D044CDE1 		ldrd	r4, [sp, #64]
 3832 2b90 A21F83E0 		add	r1, r3, r2, lsr #31
 3833 2b94 34309DE5 		ldr	r3, [sp, #52]
 3834 2b98 5233A0E1 		asr	r3, r2, r3
 3835 2b9c 002002E0 		and	r2, r2, r0
 3836 2ba0 010052E1 		cmp	r2, r1
 3837 2ba4 0320A0D1 		movle	r2, r3
 3838 2ba8 012083C2 		addgt	r2, r3, #1
 3839 2bac 48309DE5 		ldr	r3, [sp, #72]
 3840 2bb0 00109DE5 		ldr	r1, [sp]
 3841 2bb4 0E2042E0 		sub	r2, r2, lr
 3842 2bb8 122F6FE1 		clz	r2, r2
 3843 2bbc 050057E1 		cmp	r7, r5
 3844 2bc0 A222A0E1 		lsr	r2, r2, #5
 3845 2bc4 04005601 		cmpeq	r6, r4
 3846 2bc8 010083E0 		add	r0, r3, r1
 3847 2bcc 012040E5 		strb	r2, [r0, #-1]
 3848 2bd0 9CFFFF1A 		bne	.L569
 3849 2bd4 E1FCFFEA 		b	.L885
 3850              	.L299:
 3851 2bd8 04E04EE2 		sub	lr, lr, #4
 3852 2bdc 044042E2 		sub	r4, r2, #4
 3853 2be0 050000EA 		b	.L305
 3854              	.L303:
 3855 2be4 0450BEE5 		ldr	r5, [lr, #4]!
 3856 2be8 050056E1 		cmp	r6, r5
 3857 2bec 5502001A 		bne	.L301
 3858 2bf0 010080E2 		add	r0, r0, #1
 3859 2bf4 000053E1 		cmp	r3, r0
 3860 2bf8 0BFDFF0A 		beq	.L302
 3861              	.L305:
 3862 2bfc 000057E1 		cmp	r7, r0
 3863 2c00 0460B4E5 		ldr	r6, [r4, #4]!
 3864 2c04 F6FFFFCA 		bgt	.L303
 3865              	.L300:
 3866 2c08 FEFFFFEB 		bl	abort
 3867              	.LEHE14:
 3868              	.L431:
 3869 2c0c 042042E2 		sub	r2, r2, #4
 3870 2c10 044044E2 		sub	r4, r4, #4
 3871 2c14 0030A0E1 		mov	r3, r0
 3872              	.L437:
 3873 2c18 030056E1 		cmp	r6, r3
 3874 2c1c 0450B2E5 		ldr	r5, [r2, #4]!
 3875 2c20 4B0200DA 		ble	.L432
 3876 2c24 0400B4E5 		ldr	r0, [r4, #4]!
 3877 2c28 000055E1 		cmp	r5, r0
 3878 2c2c 4702001A 		bne	.L433
 3879 2c30 013083E2 		add	r3, r3, #1
 3880 2c34 03005EE1 		cmp	lr, r3
 3881 2c38 F6FFFF1A 		bne	.L437
 3882              	.L429:
 3883 2c3c 00319DE5 		ldr	r3, [sp, #256]
 3884 2c40 03005EE1 		cmp	lr, r3
 3885 2c44 4602001A 		bne	.L438
 3886 2c48 00005EE3 		cmp	lr, #0
 3887 2c4c 470200DA 		ble	.L439
 3888 2c50 D4209DE5 		ldr	r2, [sp, #212]
 3889 2c54 DBFAFFEA 		b	.L440
 3890              	.L717:
 3891 2c58 70319DE5 		ldr	r3, [sp, #368]
 3892 2c5c 050053E3 		cmp	r3, #5
 3893 2c60 030000DA 		ble	.L294
 3894 2c64 74019DE5 		ldr	r0, [sp, #372]
 3895 2c68 000050E3 		cmp	r0, #0
 3896 2c6c 0000000A 		beq	.L294
 3897              	.L887:
 3898 2c70 FEFFFFEB 		bl	_ZdaPv
 3899              	.L294:
 3900 2c74 00319DE5 		ldr	r3, [sp, #256]
 3901 2c78 050053E3 		cmp	r3, #5
 3902 2c7c 030000DA 		ble	.L626
 3903 2c80 04019DE5 		ldr	r0, [sp, #260]
 3904 2c84 000050E3 		cmp	r0, #0
 3905 2c88 0000000A 		beq	.L626
 3906 2c8c FEFFFFEB 		bl	_ZdaPv
 3907              	.L626:
 3908 2c90 E8309DE5 		ldr	r3, [sp, #232]
 3909 2c94 050053E3 		cmp	r3, #5
 3910 2c98 030000DA 		ble	.L628
 3911 2c9c EC009DE5 		ldr	r0, [sp, #236]
 3912 2ca0 000050E3 		cmp	r0, #0
 3913 2ca4 0000000A 		beq	.L628
 3914 2ca8 FEFFFFEB 		bl	_ZdaPv
 3915              	.L628:
 3916 2cac D0309DE5 		ldr	r3, [sp, #208]
 3917 2cb0 050053E3 		cmp	r3, #5
 3918 2cb4 030000DA 		ble	.L629
 3919 2cb8 D4009DE5 		ldr	r0, [sp, #212]
 3920 2cbc 000050E3 		cmp	r0, #0
 3921 2cc0 0000000A 		beq	.L629
 3922 2cc4 FEFFFFEB 		bl	_ZdaPv
 3923              	.L629:
 3924              	.LEHB15:
 3925 2cc8 FEFFFFEB 		bl	__cxa_end_cleanup
 3926              	.LEHE15:
 3927              	.L718:
 3928 2ccc C8319DE5 		ldr	r3, [sp, #456]
 3929 2cd0 050053E3 		cmp	r3, #5
 3930 2cd4 E6FFFFDA 		ble	.L294
 3931 2cd8 CC019DE5 		ldr	r0, [sp, #460]
 3932 2cdc 000050E3 		cmp	r0, #0
 3933 2ce0 E2FFFF1A 		bne	.L887
 3934 2ce4 E2FFFFEA 		b	.L294
 3935              	.L719:
 3936 2ce8 20329DE5 		ldr	r3, [sp, #544]
 3937 2cec 050053E3 		cmp	r3, #5
 3938 2cf0 DFFFFFDA 		ble	.L294
 3939 2cf4 24029DE5 		ldr	r0, [sp, #548]
 3940 2cf8 000050E3 		cmp	r0, #0
 3941 2cfc DBFFFF1A 		bne	.L887
 3942 2d00 DBFFFFEA 		b	.L294
 3943              	.L716:
 3944 2d04 18319DE5 		ldr	r3, [sp, #280]
 3945 2d08 050053E3 		cmp	r3, #5
 3946 2d0c D8FFFFDA 		ble	.L294
 3947 2d10 1C019DE5 		ldr	r0, [sp, #284]
 3948 2d14 000050E3 		cmp	r0, #0
 3949 2d18 D4FFFF1A 		bne	.L887
 3950 2d1c D4FFFFEA 		b	.L294
 3951              	.L678:
 3952 2d20 0350A0E1 		mov	r5, r3
 3953 2d24 ECFAFFEA 		b	.L452
 3954              	.L653:
 3955 2d28 0070A0E1 		mov	r7, r0
 3956 2d2c 07FDFFEA 		b	.L318
 3957              	.L313:
 3958 2d30 000053E3 		cmp	r3, #0
 3959 2d34 550000DA 		ble	.L644
 3960              	.L850:
 3961 2d38 D4208DE2 		add	r2, sp, #212
 3962 2d3c DEFCFFEA 		b	.L314
 3963              	.L307:
 3964 2d40 04E04EE2 		sub	lr, lr, #4
 3965 2d44 044042E2 		sub	r4, r2, #4
 3966 2d48 0000A0E3 		mov	r0, #0
 3967              	.L312:
 3968 2d4c 000053E1 		cmp	r3, r0
 3969 2d50 0460B4E5 		ldr	r6, [r4, #4]!
 3970 2d54 0002000A 		beq	.L1175
 3971 2d58 0450BEE5 		ldr	r5, [lr, #4]!
 3972 2d5c 050056E1 		cmp	r6, r5
 3973 2d60 FE01001A 		bne	.L308
 3974 2d64 010080E2 		add	r0, r0, #1
 3975 2d68 000053E1 		cmp	r3, r0
 3976 2d6c F6FFFF1A 		bne	.L312
 3977              	.L639:
 3978 2d70 03E0A0E1 		mov	lr, r3
 3979 2d74 CEFCFFEA 		b	.L309
 3980              	.L441:
 3981 2d78 040040E2 		sub	r0, r0, #4
 3982 2d7c 044042E2 		sub	r4, r2, #4
 3983 2d80 0030A0E3 		mov	r3, #0
 3984 2d84 050000EA 		b	.L447
 3985              	.L444:
 3986 2d88 0450B0E5 		ldr	r5, [r0, #4]!
 3987 2d8c 050056E1 		cmp	r6, r5
 3988 2d90 F001001A 		bne	.L442
 3989 2d94 013083E2 		add	r3, r3, #1
 3990 2d98 03005EE1 		cmp	lr, r3
 3991 2d9c A9FAFF0A 		beq	.L448
 3992              	.L447:
 3993 2da0 03005EE1 		cmp	lr, r3
 3994 2da4 0460B4E5 		ldr	r6, [r4, #4]!
 3995 2da8 F6FFFF1A 		bne	.L444
 3996              	.LEHB16:
 3997 2dac FEFFFFEB 		bl	abort
 3998              	.LEHE16:
 3999              	.L1163:
 4000 2db0 000050E3 		cmp	r0, #0
 4001 2db4 0160A003 		moveq	r6, #1
 4002 2db8 0070A001 		moveq	r7, r0
 4003 2dbc E5FCFF0A 		beq	.L317
 4004 2dc0 C4FCFFEA 		b	.L316
 4005              	.L1159:
 4006 2dc4 000053E3 		cmp	r3, #0
 4007 2dc8 0140A003 		moveq	r4, #1
 4008 2dcc 0350A001 		moveq	r5, r3
 4009 2dd0 C3FAFF0A 		beq	.L451
 4010 2dd4 A2FAFFEA 		b	.L450
 4011              	.L326:
 4012 2dd8 0040A0E3 		mov	r4, #0
 4013 2ddc 0050A0E3 		mov	r5, #0
 4014 2de0 011041E2 		sub	r1, r1, #1
 4015 2de4 01C04CE2 		sub	ip, ip, #1
 4016 2de8 01A04AE2 		sub	r10, r10, #1
 4017              	.L333:
 4018 2dec 0160F1E5 		ldrb	r6, [r1, #1]!	@ zero_extendqisi2
 4019 2df0 014094E2 		adds	r4, r4, #1
 4020 2df4 0100FCE5 		ldrb	r0, [ip, #1]!	@ zero_extendqisi2
 4021 2df8 0050A5E2 		adc	r5, r5, #0
 4022 2dfc 020054E1 		cmp	r4, r2
 4023 2e00 060040E0 		sub	r0, r0, r6
 4024 2e04 0360D5E0 		sbcs	r6, r5, r3
 4025 2e08 100F6FE1 		clz	r0, r0
 4026 2e0c A002A0E1 		lsr	r0, r0, #5
 4027 2e10 0100EAE5 		strb	r0, [r10, #1]!
 4028 2e14 F4FFFFBA 		blt	.L333
 4029 2e18 E4FDFFEA 		b	.L679
 4030              	.L688:
 4031 2e1c 0080A0E3 		mov	r8, #0
 4032 2e20 0090A0E3 		mov	r9, #0
 4033 2e24 304B55EC 		vmov	r4, r5, d16	@ int
 4034 2e28 2BFEFFEA 		b	.L515
 4035              	.L662:
 4036 2e2c 0040A0E3 		mov	r4, #0
 4037 2e30 0050A0E3 		mov	r5, #0
 4038 2e34 36FCFFEA 		b	.L380
 4039              	.L669:
 4040 2e38 1000C0F2 		vmov.i32	d16, #0  @ di
 4041 2e3c 0180A0E3 		mov	r8, #1
 4042 2e40 0090A0E3 		mov	r9, #0
 4043 2e44 304B55EC 		vmov	r4, r5, d16	@ int
 4044 2e48 000BCDED 		vstr.64	d16, [sp]	@ int
 4045              	.L449:
 4046 2e4c 013044E2 		sub	r3, r4, #1
 4047 2e50 0420A0E1 		mov	r2, r4
 4048 2e54 03A08AE0 		add	r10, r10, r3
 4049 2e58 0530A0E1 		mov	r3, r5
 4050              	.L468:
 4051 2e5c 0240A0E1 		mov	r4, r2
 4052 2e60 012092E2 		adds	r2, r2, #1
 4053 2e64 040191E7 		ldr	r0, [r1, r4, lsl #2]
 4054 2e68 0030A3E2 		adc	r3, r3, #0
 4055 2e6c 04419CE7 		ldr	r4, [ip, r4, lsl #2]
 4056 2e70 080052E1 		cmp	r2, r8
 4057 2e74 040040E0 		sub	r0, r0, r4
 4058 2e78 0940D3E0 		sbcs	r4, r3, r9
 4059 2e7c 100F6FE1 		clz	r0, r0
 4060 2e80 A002A0E1 		lsr	r0, r0, #5
 4061 2e84 0100EAE5 		strb	r0, [r10, #1]!
 4062 2e88 F3FFFFBA 		blt	.L468
 4063 2e8c C7FDFFEA 		b	.L679
 4064              	.L644:
 4065 2e90 0120A0E3 		mov	r2, #1
 4066 2e94 0030A0E3 		mov	r3, #0
 4067 2e98 DCFCFFEA 		b	.L315
 4068              	.L460:
 4069 2e9c 090054E3 		cmp	r4, #9
 4070 2ea0 0030D9E2 		sbcs	r3, r9, #0
 4071 2ea4 630200BA 		blt	.L681
 4072 2ea8 094054E2 		subs	r4, r4, #9
 4073 2eac 4C2081E2 		add	r2, r1, #76
 4074 2eb0 0740C4E3 		bic	r4, r4, #7
 4075 2eb4 0050C9E2 		sbc	r5, r9, #0
 4076 2eb8 086094E2 		adds	r6, r4, #8
 4077 2ebc 4C308CE2 		add	r3, ip, #76
 4078 2ec0 0070A5E2 		adc	r7, r5, #0
 4079 2ec4 0A00A0E1 		mov	r0, r10
 4080 2ec8 0040A0E3 		mov	r4, #0
 4081 2ecc 0050A0E3 		mov	r5, #0
 4082 2ed0 00A08DE5 		str	r10, [sp]
 4083 2ed4 08108DE5 		str	r1, [sp, #8]
 4084 2ed8 20C08DE5 		str	ip, [sp, #32]
 4085 2edc 10E08DE5 		str	lr, [sp, #16]
 4086 2ee0 F881CDE1 		strd	r8, [sp, #24]
 4087              	.L466:
 4088 2ee4 4C1013E5 		ldr	r1, [r3, #-76]
 4089 2ee8 084094E2 		adds	r4, r4, #8
 4090 2eec 48E012E5 		ldr	lr, [r2, #-72]
 4091 2ef0 0050A5E2 		adc	r5, r5, #0
 4092 2ef4 48A013E5 		ldr	r10, [r3, #-72]
 4093 2ef8 050057E1 		cmp	r7, r5
 4094 2efc 44B012E5 		ldr	fp, [r2, #-68]
 4095 2f00 04005601 		cmpeq	r6, r4
 4096 2f04 4CC012E5 		ldr	ip, [r2, #-76]
 4097 2f08 080080E2 		add	r0, r0, #8
 4098 2f0c 449013E5 		ldr	r9, [r3, #-68]
 4099 2f10 00F0D2F5 		pld	[r2]
 4100 2f14 202082E2 		add	r2, r2, #32
 4101 2f18 01C04CE0 		sub	ip, ip, r1
 4102 2f1c 0A104EE0 		sub	r1, lr, r10
 4103 2f20 09904BE0 		sub	r9, fp, r9
 4104 2f24 60E012E5 		ldr	lr, [r2, #-96]
 4105 2f28 40B013E5 		ldr	fp, [r3, #-64]
 4106 2f2c 111F6FE1 		clz	r1, r1
 4107 2f30 5CA012E5 		ldr	r10, [r2, #-92]
 4108 2f34 A112A0E1 		lsr	r1, r1, #5
 4109 2f38 00F0D3F5 		pld	[r3]
 4110 2f3c 1CCF6FE1 		clz	ip, ip
 4111 2f40 0BB04EE0 		sub	fp, lr, fp
 4112 2f44 3CE013E5 		ldr	lr, [r3, #-60]
 4113 2f48 199F6FE1 		clz	r9, r9
 4114 2f4c 071040E5 		strb	r1, [r0, #-7]
 4115 2f50 1BBF6FE1 		clz	fp, fp
 4116 2f54 381013E5 		ldr	r1, [r3, #-56]
 4117 2f58 0EA04AE0 		sub	r10, r10, lr
 4118 2f5c 58E012E5 		ldr	lr, [r2, #-88]
 4119 2f60 ACC2A0E1 		lsr	ip, ip, #5
 4120 2f64 A992A0E1 		lsr	r9, r9, #5
 4121 2f68 ABB2A0E1 		lsr	fp, fp, #5
 4122 2f6c 08C040E5 		strb	ip, [r0, #-8]
 4123 2f70 0EE041E0 		sub	lr, r1, lr
 4124 2f74 54C012E5 		ldr	ip, [r2, #-84]
 4125 2f78 1AAF6FE1 		clz	r10, r10
 4126 2f7c 501012E5 		ldr	r1, [r2, #-80]
 4127 2f80 1EEF6FE1 		clz	lr, lr
 4128 2f84 069040E5 		strb	r9, [r0, #-6]
 4129 2f88 AAA2A0E1 		lsr	r10, r10, #5
 4130 2f8c 349013E5 		ldr	r9, [r3, #-52]
 4131 2f90 AEE2A0E1 		lsr	lr, lr, #5
 4132 2f94 05B040E5 		strb	fp, [r0, #-5]
 4133 2f98 203083E2 		add	r3, r3, #32
 4134 2f9c 50B013E5 		ldr	fp, [r3, #-80]
 4135 2fa0 09C04CE0 		sub	ip, ip, r9
 4136 2fa4 04A040E5 		strb	r10, [r0, #-4]
 4137 2fa8 1CCF6FE1 		clz	ip, ip
 4138 2fac 03E040E5 		strb	lr, [r0, #-3]
 4139 2fb0 0B1041E0 		sub	r1, r1, fp
 4140 2fb4 ACC2A0E1 		lsr	ip, ip, #5
 4141 2fb8 111F6FE1 		clz	r1, r1
 4142 2fbc A112A0E1 		lsr	r1, r1, #5
 4143 2fc0 02C040E5 		strb	ip, [r0, #-2]
 4144 2fc4 011040E5 		strb	r1, [r0, #-1]
 4145 2fc8 C5FFFF1A 		bne	.L466
 4146 2fcc 00A09DE5 		ldr	r10, [sp]
 4147 2fd0 08109DE5 		ldr	r1, [sp, #8]
 4148 2fd4 20C09DE5 		ldr	ip, [sp, #32]
 4149 2fd8 10E09DE5 		ldr	lr, [sp, #16]
 4150 2fdc F040CDE1 		strd	r4, [sp]
 4151 2fe0 D881CDE1 		ldrd	r8, [sp, #24]
 4152 2fe4 98FFFFEA 		b	.L449
 4153              	.L502:
 4154              	.LEHB17:
 4155 2fe8 FEFFFFEB 		bl	abort
 4156              	.L495:
 4157 2fec FEFFFFEB 		bl	abort
 4158              	.L493:
 4159 2ff0 FEFFFFEB 		bl	abort
 4160              	.L492:
 4161 2ff4 FEFFFFEB 		bl	abort
 4162              	.L491:
 4163 2ff8 FEFFFFEB 		bl	abort
 4164              	.L490:
 4165 2ffc FEFFFFEB 		bl	abort
 4166              	.L488:
 4167 3000 FEFFFFEB 		bl	abort
 4168              	.L489:
 4169 3004 FEFFFFEB 		bl	abort
 4170              	.LEHE17:
 4171              	.L416:
 4172              	.LEHB18:
 4173 3008 FEFFFFEB 		bl	abort
 4174              	.L409:
 4175 300c FEFFFFEB 		bl	abort
 4176              	.L407:
 4177 3010 FEFFFFEB 		bl	abort
 4178              	.L406:
 4179 3014 FEFFFFEB 		bl	abort
 4180              	.L405:
 4181 3018 FEFFFFEB 		bl	abort
 4182              	.L404:
 4183 301c FEFFFFEB 		bl	abort
 4184              	.L402:
 4185 3020 FEFFFFEB 		bl	abort
 4186              	.L403:
 4187 3024 FEFFFFEB 		bl	abort
 4188              	.LEHE18:
 4189              	.L367:
 4190              	.LEHB19:
 4191 3028 FEFFFFEB 		bl	abort
 4192              	.L360:
 4193 302c FEFFFFEB 		bl	abort
 4194              	.L358:
 4195 3030 FEFFFFEB 		bl	abort
 4196              	.L357:
 4197 3034 FEFFFFEB 		bl	abort
 4198              	.L356:
 4199 3038 FEFFFFEB 		bl	abort
 4200              	.L355:
 4201 303c FEFFFFEB 		bl	abort
 4202              	.L353:
 4203 3040 FEFFFFEB 		bl	abort
 4204              	.L354:
 4205 3044 FEFFFFEB 		bl	abort
 4206              	.LEHE19:
 4207              	.L282:
 4208              	.LEHB20:
 4209 3048 FEFFFFEB 		bl	abort
 4210              	.L275:
 4211 304c FEFFFFEB 		bl	abort
 4212              	.L273:
 4213 3050 FEFFFFEB 		bl	abort
 4214              	.L272:
 4215 3054 FEFFFFEB 		bl	abort
 4216              	.L271:
 4217 3058 FEFFFFEB 		bl	abort
 4218              	.L270:
 4219 305c FEFFFFEB 		bl	abort
 4220              	.L269:
 4221 3060 FEFFFFEB 		bl	abort
 4222              	.L268:
 4223 3064 FEFFFFEB 		bl	abort
 4224              	.LEHE20:
 4225              	.L1141:
 4226              	.LEHB21:
 4227 3068 FEFFFFEB 		bl	abort
 4228              	.L720:
 4229 306c 78329DE5 		ldr	r3, [sp, #632]
 4230 3070 050053E3 		cmp	r3, #5
 4231 3074 FEFEFFDA 		ble	.L294
 4232 3078 7C029DE5 		ldr	r0, [sp, #636]
 4233 307c 000050E3 		cmp	r0, #0
 4234 3080 FAFEFF1A 		bne	.L887
 4235 3084 FAFEFFEA 		b	.L294
 4236              	.L1157:
 4237 3088 FEFFFFEB 		bl	abort
 4238              	.L1156:
 4239 308c FEFFFFEB 		bl	abort
 4240              	.L1155:
 4241 3090 FEFFFFEB 		bl	abort
 4242              	.L1154:
 4243 3094 FEFFFFEB 		bl	abort
 4244              	.L1148:
 4245 3098 FEFFFFEB 		bl	abort
 4246              	.L1147:
 4247 309c FEFFFFEB 		bl	abort
 4248              	.L1146:
 4249 30a0 FEFFFFEB 		bl	abort
 4250              	.L1145:
 4251 30a4 FEFFFFEB 		bl	abort
 4252              	.L1144:
 4253 30a8 FEFFFFEB 		bl	abort
 4254              	.L1143:
 4255 30ac FEFFFFEB 		bl	abort
 4256              	.L1142:
 4257 30b0 FEFFFFEB 		bl	abort
 4258              	.LEHE21:
 4259              	.L1120:
 4260              	.LEHB22:
 4261 30b4 FEFFFFEB 		bl	abort
 4262              	.L721:
 4263 30b8 D0329DE5 		ldr	r3, [sp, #720]
 4264 30bc 050053E3 		cmp	r3, #5
 4265 30c0 EBFEFFDA 		ble	.L294
 4266 30c4 D4029DE5 		ldr	r0, [sp, #724]
 4267 30c8 000050E3 		cmp	r0, #0
 4268 30cc E7FEFF1A 		bne	.L887
 4269 30d0 E7FEFFEA 		b	.L294
 4270              	.L1119:
 4271 30d4 FEFFFFEB 		bl	abort
 4272              	.L1118:
 4273 30d8 FEFFFFEB 		bl	abort
 4274              	.L1117:
 4275 30dc FEFFFFEB 		bl	abort
 4276              	.L1111:
 4277 30e0 FEFFFFEB 		bl	abort
 4278              	.L1110:
 4279 30e4 FEFFFFEB 		bl	abort
 4280              	.L1109:
 4281 30e8 FEFFFFEB 		bl	abort
 4282              	.L1108:
 4283 30ec FEFFFFEB 		bl	abort
 4284              	.L1107:
 4285 30f0 FEFFFFEB 		bl	abort
 4286              	.L1106:
 4287 30f4 FEFFFFEB 		bl	abort
 4288              	.L1105:
 4289 30f8 FEFFFFEB 		bl	abort
 4290              	.L1104:
 4291 30fc FEFFFFEB 		bl	abort
 4292              	.LEHE22:
 4293              	.L474:
 4294 3100 0E90A0E1 		mov	r9, lr
 4295              	.L968:
 4296 3104 05005BE3 		cmp	fp, #5
 4297 3108 94FBFFDA 		ble	.L885
 4298 310c 000059E3 		cmp	r9, #0
 4299 3110 92FBFF0A 		beq	.L885
 4300 3114 0900A0E1 		mov	r0, r9
 4301 3118 FEFFFFEB 		bl	_ZdaPv
 4302 311c 8FFBFFEA 		b	.L885
 4303              	.L345:
 4304 3120 68309DE5 		ldr	r3, [sp, #104]
 4305 3124 01E08EE2 		add	lr, lr, #1
 4306 3128 7C209DE5 		ldr	r2, [sp, #124]
 4307 312c 023083E0 		add	r3, r3, r2
 4308 3130 80209DE5 		ldr	r2, [sp, #128]
 4309 3134 68308DE5 		str	r3, [sp, #104]
 4310 3138 64309DE5 		ldr	r3, [sp, #100]
 4311 313c 023083E0 		add	r3, r3, r2
 4312 3140 78209DE5 		ldr	r2, [sp, #120]
 4313 3144 64308DE5 		str	r3, [sp, #100]
 4314 3148 60309DE5 		ldr	r3, [sp, #96]
 4315 314c 023083E0 		add	r3, r3, r2
 4316 3150 60308DE5 		str	r3, [sp, #96]
 4317 3154 7BF5FFEA 		b	.L340
 4318              	.L583:
 4319 3158 A0309DE5 		ldr	r3, [sp, #160]
 4320 315c 01B08BE2 		add	fp, fp, #1
 4321 3160 C0209DE5 		ldr	r2, [sp, #192]
 4322 3164 023083E0 		add	r3, r3, r2
 4323 3168 BC209DE5 		ldr	r2, [sp, #188]
 4324 316c A0308DE5 		str	r3, [sp, #160]
 4325 3170 A4309DE5 		ldr	r3, [sp, #164]
 4326 3174 023083E0 		add	r3, r3, r2
 4327 3178 B8209DE5 		ldr	r2, [sp, #184]
 4328 317c A4308DE5 		str	r3, [sp, #164]
 4329 3180 A8309DE5 		ldr	r3, [sp, #168]
 4330 3184 023083E0 		add	r3, r3, r2
 4331 3188 A8308DE5 		str	r3, [sp, #168]
 4332 318c 54F4FFEA 		b	.L577
 4333              	.L531:
 4334 3190 A0309DE5 		ldr	r3, [sp, #160]
 4335 3194 01B08BE2 		add	fp, fp, #1
 4336 3198 C0209DE5 		ldr	r2, [sp, #192]
 4337 319c 023083E0 		add	r3, r3, r2
 4338 31a0 BC209DE5 		ldr	r2, [sp, #188]
 4339 31a4 A0308DE5 		str	r3, [sp, #160]
 4340 31a8 A4309DE5 		ldr	r3, [sp, #164]
 4341 31ac 023083E0 		add	r3, r3, r2
 4342 31b0 B8209DE5 		ldr	r2, [sp, #184]
 4343 31b4 A4308DE5 		str	r3, [sp, #164]
 4344 31b8 A8309DE5 		ldr	r3, [sp, #168]
 4345 31bc 023083E0 		add	r3, r3, r2
 4346 31c0 A8308DE5 		str	r3, [sp, #168]
 4347 31c4 5DF8FFEA 		b	.L525
 4348              	.L480:
 4349 31c8 64309DE5 		ldr	r3, [sp, #100]
 4350 31cc 018088E2 		add	r8, r8, #1
 4351 31d0 7C209DE5 		ldr	r2, [sp, #124]
 4352 31d4 023083E0 		add	r3, r3, r2
 4353 31d8 80209DE5 		ldr	r2, [sp, #128]
 4354 31dc 64308DE5 		str	r3, [sp, #100]
 4355 31e0 68309DE5 		ldr	r3, [sp, #104]
 4356 31e4 023083E0 		add	r3, r3, r2
 4357 31e8 84209DE5 		ldr	r2, [sp, #132]
 4358 31ec 68308DE5 		str	r3, [sp, #104]
 4359 31f0 6C309DE5 		ldr	r3, [sp, #108]
 4360 31f4 023083E0 		add	r3, r3, r2
 4361 31f8 6C308DE5 		str	r3, [sp, #108]
 4362 31fc C1F6FFEA 		b	.L475
 4363              	.L260:
 4364 3200 58309DE5 		ldr	r3, [sp, #88]
 4365 3204 014084E2 		add	r4, r4, #1
 4366 3208 74209DE5 		ldr	r2, [sp, #116]
 4367 320c 023083E0 		add	r3, r3, r2
 4368 3210 78209DE5 		ldr	r2, [sp, #120]
 4369 3214 58308DE5 		str	r3, [sp, #88]
 4370 3218 5C309DE5 		ldr	r3, [sp, #92]
 4371 321c 023083E0 		add	r3, r3, r2
 4372 3220 70209DE5 		ldr	r2, [sp, #112]
 4373 3224 5C308DE5 		str	r3, [sp, #92]
 4374 3228 60309DE5 		ldr	r3, [sp, #96]
 4375 322c 023083E0 		add	r3, r3, r2
 4376 3230 60308DE5 		str	r3, [sp, #96]
 4377 3234 67F7FFEA 		b	.L254
 4378              	.L394:
 4379 3238 6C309DE5 		ldr	r3, [sp, #108]
 4380 323c 014084E2 		add	r4, r4, #1
 4381 3240 84009DE5 		ldr	r0, [sp, #132]
 4382 3244 00109DE5 		ldr	r1, [sp]
 4383 3248 003083E0 		add	r3, r3, r0
 4384 324c 80009DE5 		ldr	r0, [sp, #128]
 4385 3250 6C308DE5 		str	r3, [sp, #108]
 4386 3254 68309DE5 		ldr	r3, [sp, #104]
 4387 3258 003083E0 		add	r3, r3, r0
 4388 325c 7C009DE5 		ldr	r0, [sp, #124]
 4389 3260 68308DE5 		str	r3, [sp, #104]
 4390 3264 64309DE5 		ldr	r3, [sp, #100]
 4391 3268 003083E0 		add	r3, r3, r0
 4392 326c 64308DE5 		str	r3, [sp, #100]
 4393 3270 ECF5FFEA 		b	.L389
 4394              	.L641:
 4395 3274 03E0A0E1 		mov	lr, r3
 4396 3278 AEFEFFEA 		b	.L850
 4397              	.L1162:
 4398 327c 00E19DE5 		ldr	lr, [sp, #256]
 4399 3280 0E0053E1 		cmp	r3, lr
 4400 3284 A9FEFF0A 		beq	.L313
 4401              	.L634:
 4402              	.LEHB23:
 4403 3288 FEFFFFEB 		bl	abort
 4404              	.LEHE23:
 4405              	.L346:
 4406              	.LEHB24:
 4407 328c FEFFFFEB 		bl	abort
 4408              	.LEHE24:
 4409              	.L575:
 4410 3290 050053E3 		cmp	r3, #5
 4411 3294 31FBFFDA 		ble	.L885
 4412 3298 18309DE5 		ldr	r3, [sp, #24]
 4413 329c 000053E3 		cmp	r3, #0
 4414 32a0 2EFBFF0A 		beq	.L885
 4415 32a4 0300A0E1 		mov	r0, r3
 4416 32a8 FEFFFFEB 		bl	_ZdaPv
 4417 32ac 2BFBFFEA 		b	.L885
 4418              	.L261:
 4419              	.LEHB25:
 4420 32b0 FEFFFFEB 		bl	abort
 4421              	.LEHE25:
 4422              	.L395:
 4423              	.LEHB26:
 4424 32b4 FEFFFFEB 		bl	abort
 4425              	.LEHE26:
 4426              	.L481:
 4427              	.LEHB27:
 4428 32b8 FEFFFFEB 		bl	abort
 4429              	.LEHE27:
 4430              	.L642:
 4431 32bc 04E0A0E3 		mov	lr, #4
 4432 32c0 9CFEFFEA 		b	.L850
 4433              	.L532:
 4434              	.LEHB28:
 4435 32c4 FEFFFFEB 		bl	abort
 4436              	.LEHE28:
 4437              	.L584:
 4438              	.LEHB29:
 4439 32c8 FEFFFFEB 		bl	abort
 4440              	.L1116:
 4441 32cc FEFFFFEB 		bl	abort
 4442              	.LEHE29:
 4443              	.L1149:
 4444 32d0 003000E3 		movw	r3, #:lower16:.LC6
 4445 32d4 002000E3 		movw	r2, #:lower16:.LANCHOR0
 4446 32d8 000000E3 		movw	r0, #:lower16:.LC7
 4447 32dc 003040E3 		movt	r3, #:upper16:.LC6
 4448 32e0 002040E3 		movt	r2, #:upper16:.LANCHOR0
 4449 32e4 000040E3 		movt	r0, #:upper16:.LC7
 4450 32e8 661100E3 		movw	r1, #358
 4451              	.LEHB30:
 4452 32ec FEFFFFEB 		bl	__assert_func
 4453              	.L1153:
 4454 32f0 FEFFFFEB 		bl	abort
 4455              	.L1152:
 4456 32f4 003000E3 		movw	r3, #:lower16:.LC8
 4457 32f8 002000E3 		movw	r2, #:lower16:.LANCHOR0
 4458 32fc 000000E3 		movw	r0, #:lower16:.LC7
 4459 3300 003040E3 		movt	r3, #:upper16:.LC8
 4460 3304 002040E3 		movt	r2, #:upper16:.LANCHOR0
 4461 3308 000040E3 		movt	r0, #:upper16:.LC7
 4462 330c 671100E3 		movw	r1, #359
 4463 3310 FEFFFFEB 		bl	__assert_func
 4464              	.L1151:
 4465 3314 003000E3 		movw	r3, #:lower16:.LC6
 4466 3318 002000E3 		movw	r2, #:lower16:.LANCHOR0
 4467 331c 000000E3 		movw	r0, #:lower16:.LC7
 4468 3320 003040E3 		movt	r3, #:upper16:.LC6
 4469 3324 002040E3 		movt	r2, #:upper16:.LANCHOR0
 4470 3328 000040E3 		movt	r0, #:upper16:.LC7
 4471 332c 661100E3 		movw	r1, #358
 4472 3330 FEFFFFEB 		bl	__assert_func
 4473              	.L1150:
 4474 3334 003000E3 		movw	r3, #:lower16:.LC8
 4475 3338 002000E3 		movw	r2, #:lower16:.LANCHOR0
 4476 333c 000000E3 		movw	r0, #:lower16:.LC7
 4477 3340 003040E3 		movt	r3, #:upper16:.LC8
 4478 3344 002040E3 		movt	r2, #:upper16:.LANCHOR0
 4479 3348 000040E3 		movt	r0, #:upper16:.LC7
 4480 334c 671100E3 		movw	r1, #359
 4481 3350 FEFFFFEB 		bl	__assert_func
 4482              	.LEHE30:
 4483              	.L1115:
 4484 3354 003000E3 		movw	r3, #:lower16:.LC8
 4485 3358 002000E3 		movw	r2, #:lower16:.LANCHOR0
 4486 335c 000000E3 		movw	r0, #:lower16:.LC7
 4487 3360 003040E3 		movt	r3, #:upper16:.LC8
 4488 3364 002040E3 		movt	r2, #:upper16:.LANCHOR0
 4489 3368 000040E3 		movt	r0, #:upper16:.LC7
 4490 336c 671100E3 		movw	r1, #359
 4491              	.LEHB31:
 4492 3370 FEFFFFEB 		bl	__assert_func
 4493              	.L1114:
 4494 3374 003000E3 		movw	r3, #:lower16:.LC6
 4495 3378 002000E3 		movw	r2, #:lower16:.LANCHOR0
 4496 337c 000000E3 		movw	r0, #:lower16:.LC7
 4497 3380 003040E3 		movt	r3, #:upper16:.LC6
 4498 3384 002040E3 		movt	r2, #:upper16:.LANCHOR0
 4499 3388 000040E3 		movt	r0, #:upper16:.LC7
 4500 338c 661100E3 		movw	r1, #358
 4501 3390 FEFFFFEB 		bl	__assert_func
 4502              	.L1113:
 4503 3394 003000E3 		movw	r3, #:lower16:.LC8
 4504 3398 002000E3 		movw	r2, #:lower16:.LANCHOR0
 4505 339c 000000E3 		movw	r0, #:lower16:.LC7
 4506 33a0 003040E3 		movt	r3, #:upper16:.LC8
 4507 33a4 002040E3 		movt	r2, #:upper16:.LANCHOR0
 4508 33a8 000040E3 		movt	r0, #:upper16:.LC7
 4509 33ac 671100E3 		movw	r1, #359
 4510 33b0 FEFFFFEB 		bl	__assert_func
 4511              	.L1112:
 4512 33b4 003000E3 		movw	r3, #:lower16:.LC6
 4513 33b8 002000E3 		movw	r2, #:lower16:.LANCHOR0
 4514 33bc 000000E3 		movw	r0, #:lower16:.LC7
 4515 33c0 003040E3 		movt	r3, #:upper16:.LC6
 4516 33c4 002040E3 		movt	r2, #:upper16:.LANCHOR0
 4517 33c8 000040E3 		movt	r0, #:upper16:.LC7
 4518 33cc 661100E3 		movw	r1, #358
 4519 33d0 FEFFFFEB 		bl	__assert_func
 4520              	.LEHE31:
 4521              	.L527:
 4522 33d4 AC309DE5 		ldr	r3, [sp, #172]
 4523 33d8 01908AE2 		add	r9, r10, #1
 4524 33dc C4209DE5 		ldr	r2, [sp, #196]
 4525 33e0 023083E0 		add	r3, r3, r2
 4526 33e4 C8209DE5 		ldr	r2, [sp, #200]
 4527 33e8 AC308DE5 		str	r3, [sp, #172]
 4528 33ec B0309DE5 		ldr	r3, [sp, #176]
 4529 33f0 023083E0 		add	r3, r3, r2
 4530 33f4 CC209DE5 		ldr	r2, [sp, #204]
 4531 33f8 B0308DE5 		str	r3, [sp, #176]
 4532 33fc B4309DE5 		ldr	r3, [sp, #180]
 4533 3400 023083E0 		add	r3, r3, r2
 4534 3404 B4308DE5 		str	r3, [sp, #180]
 4535 3408 BBF7FFEA 		b	.L521
 4536              	.L236:
 4537              	.LEHB32:
 4538 340c FEFFFFEB 		bl	abort
 4539              	.LEHE32:
 4540              	.L256:
 4541 3410 64309DE5 		ldr	r3, [sp, #100]
 4542 3414 018088E2 		add	r8, r8, #1
 4543 3418 7C209DE5 		ldr	r2, [sp, #124]
 4544 341c 023083E0 		add	r3, r3, r2
 4545 3420 80209DE5 		ldr	r2, [sp, #128]
 4546 3424 64308DE5 		str	r3, [sp, #100]
 4547 3428 68309DE5 		ldr	r3, [sp, #104]
 4548 342c 023083E0 		add	r3, r3, r2
 4549 3430 84209DE5 		ldr	r2, [sp, #132]
 4550 3434 68308DE5 		str	r3, [sp, #104]
 4551 3438 6C309DE5 		ldr	r3, [sp, #108]
 4552 343c 023083E0 		add	r3, r3, r2
 4553 3440 6C308DE5 		str	r3, [sp, #108]
 4554 3444 D5F6FFEA 		b	.L250
 4555              	.L388:
 4556 3448 050059E3 		cmp	r9, #5
 4557 344c C3FAFFDA 		ble	.L885
 4558 3450 000052E3 		cmp	r2, #0
 4559 3454 C1FAFF0A 		beq	.L885
 4560 3458 0200A0E1 		mov	r0, r2
 4561 345c FEFFFFEB 		bl	_ZdaPv
 4562 3460 BEFAFFEA 		b	.L885
 4563              	.L342:
 4564 3464 5C309DE5 		ldr	r3, [sp, #92]
 4565 3468 01C08CE2 		add	ip, ip, #1
 4566 346c 70209DE5 		ldr	r2, [sp, #112]
 4567 3470 023083E0 		add	r3, r3, r2
 4568 3474 74209DE5 		ldr	r2, [sp, #116]
 4569 3478 5C308DE5 		str	r3, [sp, #92]
 4570 347c 54309DE5 		ldr	r3, [sp, #84]
 4571 3480 023083E0 		add	r3, r3, r2
 4572 3484 6C209DE5 		ldr	r2, [sp, #108]
 4573 3488 54308DE5 		str	r3, [sp, #84]
 4574 348c 58309DE5 		ldr	r3, [sp, #88]
 4575 3490 023083E0 		add	r3, r3, r2
 4576 3494 58308DE5 		str	r3, [sp, #88]
 4577 3498 9CF4FFEA 		b	.L337
 4578              	.L579:
 4579 349c AC309DE5 		ldr	r3, [sp, #172]
 4580 34a0 01908AE2 		add	r9, r10, #1
 4581 34a4 C4209DE5 		ldr	r2, [sp, #196]
 4582 34a8 023083E0 		add	r3, r3, r2
 4583 34ac C8209DE5 		ldr	r2, [sp, #200]
 4584 34b0 AC308DE5 		str	r3, [sp, #172]
 4585 34b4 B0309DE5 		ldr	r3, [sp, #176]
 4586 34b8 023083E0 		add	r3, r3, r2
 4587 34bc CC209DE5 		ldr	r2, [sp, #204]
 4588 34c0 B0308DE5 		str	r3, [sp, #176]
 4589 34c4 B4309DE5 		ldr	r3, [sp, #180]
 4590 34c8 023083E0 		add	r3, r3, r2
 4591 34cc B4308DE5 		str	r3, [sp, #180]
 4592 34d0 72F3FFEA 		b	.L573
 4593              	.L391:
 4594 34d4 58309DE5 		ldr	r3, [sp, #88]
 4595 34d8 0160A0E1 		mov	r6, r1
 4596 34dc 78109DE5 		ldr	r1, [sp, #120]
 4597 34e0 017087E2 		add	r7, r7, #1
 4598 34e4 013083E0 		add	r3, r3, r1
 4599 34e8 70109DE5 		ldr	r1, [sp, #112]
 4600 34ec 58308DE5 		str	r3, [sp, #88]
 4601 34f0 60309DE5 		ldr	r3, [sp, #96]
 4602 34f4 013083E0 		add	r3, r3, r1
 4603 34f8 74109DE5 		ldr	r1, [sp, #116]
 4604 34fc 60308DE5 		str	r3, [sp, #96]
 4605 3500 5C309DE5 		ldr	r3, [sp, #92]
 4606 3504 013083E0 		add	r3, r3, r1
 4607 3508 5C308DE5 		str	r3, [sp, #92]
 4608 350c 36F5FFEA 		b	.L386
 4609              	.L477:
 4610 3510 70309DE5 		ldr	r3, [sp, #112]
 4611 3514 01A08AE2 		add	r10, r10, #1
 4612 3518 88209DE5 		ldr	r2, [sp, #136]
 4613 351c 023083E0 		add	r3, r3, r2
 4614 3520 8C209DE5 		ldr	r2, [sp, #140]
 4615 3524 70308DE5 		str	r3, [sp, #112]
 4616 3528 74309DE5 		ldr	r3, [sp, #116]
 4617 352c 023083E0 		add	r3, r3, r2
 4618 3530 90209DE5 		ldr	r2, [sp, #144]
 4619 3534 74308DE5 		str	r3, [sp, #116]
 4620 3538 78309DE5 		ldr	r3, [sp, #120]
 4621 353c 023083E0 		add	r3, r3, r2
 4622 3540 78308DE5 		str	r3, [sp, #120]
 4623 3544 E1F5FFEA 		b	.L472
 4624              	.L301:
 4625              	.LEHB33:
 4626 3548 FEFFFFEB 		bl	abort
 4627              	.L715:
 4628 354c C8FDFFEA 		b	.L294
 4629              	.L433:
 4630 3550 FEFFFFEB 		bl	abort
 4631              	.L432:
 4632 3554 FEFFFFEB 		bl	abort
 4633              	.L442:
 4634 3558 FEFFFFEB 		bl	abort
 4635              	.L1175:
 4636 355c FEFFFFEB 		bl	abort
 4637              	.L308:
 4638 3560 FEFFFFEB 		bl	abort
 4639              	.L438:
 4640 3564 FEFFFFEB 		bl	abort
 4641              	.L1136:
 4642 3568 FEFFFFEB 		bl	abort
 4643              	.L1131:
 4644 356c FEFFFFEB 		bl	abort
 4645              	.LEHE33:
 4646              	.L439:
 4647 3570 05005EE3 		cmp	lr, #5
 4648 3574 B0F8FFDA 		ble	.L443
 4649 3578 D4209DE5 		ldr	r2, [sp, #212]
 4650 357c B1F8FFEA 		b	.L448
 4651              	.L471:
 4652              	.LEHB34:
 4653 3580 FEFFFFEB 		bl	abort
 4654              	.L1134:
 4655 3584 080053E1 		cmp	r3, r8
 4656 3588 50309DE5 		ldr	r3, [sp, #80]
 4657 358c 8E0000DA 		ble	.L1094
 4658 3590 03005AE1 		cmp	r10, r3
 4659 3594 730000AA 		bge	.L1084
 4660 3598 000059E3 		cmp	r9, #0
 4661 359c 2CF6FFDA 		ble	.L486
 4662 35a0 04005BE3 		cmp	fp, #4
 4663 35a4 4BF8FF1A 		bne	.L487
 4664 35a8 0E005AE1 		cmp	r10, lr
 4665 35ac 93FEFFAA 		bge	.L488
 4666 35b0 20309DE5 		ldr	r3, [sp, #32]
 4667 35b4 080053E1 		cmp	r3, r8
 4668 35b8 91FEFFDA 		ble	.L489
 4669 35bc 08309DE5 		ldr	r3, [sp, #8]
 4670 35c0 0C0053E1 		cmp	r3, ip
 4671 35c4 8CFEFFDA 		ble	.L490
 4672 35c8 10309DE5 		ldr	r3, [sp, #16]
 4673 35cc 03005AE1 		cmp	r10, r3
 4674 35d0 88FEFFAA 		bge	.L491
 4675 35d4 18309DE5 		ldr	r3, [sp, #24]
 4676 35d8 080053E1 		cmp	r3, r8
 4677 35dc 84FEFFDA 		ble	.L492
 4678 35e0 24309DE5 		ldr	r3, [sp, #36]
 4679 35e4 0C0053E1 		cmp	r3, ip
 4680 35e8 80FEFFDA 		ble	.L493
 4681 35ec 28309DE5 		ldr	r3, [sp, #40]
 4682 35f0 000053E3 		cmp	r3, #0
 4683 35f4 7CFEFFDA 		ble	.L495
 4684 35f8 FEFFFFEB 		bl	abort
 4685              	.LEHE34:
 4686              	.L296:
 4687              	.LEHB35:
 4688 35fc FEFFFFEB 		bl	abort
 4689              	.LEHE35:
 4690              	.L1128:
 4691              	.LEHB36:
 4692 3600 FEFFFFEB 		bl	abort
 4693              	.L1129:
 4694 3604 040053E1 		cmp	r3, r4
 4695 3608 40309DE5 		ldr	r3, [sp, #64]
 4696 360c 310000DA 		ble	.L1092
 4697 3610 070053E1 		cmp	r3, r7
 4698 3614 170000DA 		ble	.L1079
 4699 3618 00005BE3 		cmp	fp, #0
 4700 361c 4EF5FFDA 		ble	.L400
 4701 3620 040059E3 		cmp	r9, #4
 4702 3624 00B09DE5 		ldr	fp, [sp]
 4703 3628 2EF8FF1A 		bne	.L401
 4704 362c 070052E1 		cmp	r2, r7
 4705 3630 7AFEFFDA 		ble	.L402
 4706 3634 04005BE1 		cmp	fp, r4
 4707 3638 79FEFFDA 		ble	.L403
 4708 363c 0E005AE1 		cmp	r10, lr
 4709 3640 75FEFFDA 		ble	.L404
 4710 3644 20309DE5 		ldr	r3, [sp, #32]
 4711 3648 070053E1 		cmp	r3, r7
 4712 364c 71FEFFDA 		ble	.L405
 4713 3650 10309DE5 		ldr	r3, [sp, #16]
 4714 3654 040053E1 		cmp	r3, r4
 4715 3658 6DFEFFDA 		ble	.L406
 4716 365c 18309DE5 		ldr	r3, [sp, #24]
 4717 3660 0E0053E1 		cmp	r3, lr
 4718 3664 69FEFFDA 		ble	.L407
 4719 3668 24309DE5 		ldr	r3, [sp, #36]
 4720 366c 000053E3 		cmp	r3, #0
 4721 3670 65FEFFDA 		ble	.L409
 4722 3674 FEFFFFEB 		bl	abort
 4723              	.L1079:
 4724 3678 00005BE3 		cmp	fp, #0
 4725 367c 36F5FFDA 		ble	.L400
 4726 3680 040059E3 		cmp	r9, #4
 4727 3684 00B09DE5 		ldr	fp, [sp]
 4728 3688 16F8FF1A 		bne	.L401
 4729 368c 070052E1 		cmp	r2, r7
 4730 3690 62FEFFDA 		ble	.L402
 4731 3694 04005BE1 		cmp	fp, r4
 4732 3698 61FEFFDA 		ble	.L403
 4733 369c 0E005AE1 		cmp	r10, lr
 4734 36a0 5DFEFFDA 		ble	.L404
 4735 36a4 20309DE5 		ldr	r3, [sp, #32]
 4736 36a8 070053E1 		cmp	r3, r7
 4737 36ac 59FEFFDA 		ble	.L405
 4738 36b0 10309DE5 		ldr	r3, [sp, #16]
 4739 36b4 040053E1 		cmp	r3, r4
 4740 36b8 55FEFFDA 		ble	.L406
 4741 36bc 18309DE5 		ldr	r3, [sp, #24]
 4742 36c0 0E0053E1 		cmp	r3, lr
 4743 36c4 51FEFFDA 		ble	.L407
 4744 36c8 24309DE5 		ldr	r3, [sp, #36]
 4745 36cc 000053E3 		cmp	r3, #0
 4746 36d0 4DFEFFDA 		ble	.L409
 4747 36d4 FEFFFFEB 		bl	abort
 4748              	.L1092:
 4749 36d8 070053E1 		cmp	r3, r7
 4750 36dc E5FFFFDA 		ble	.L1079
 4751 36e0 00005BE3 		cmp	fp, #0
 4752 36e4 1CF5FFDA 		ble	.L400
 4753 36e8 040059E3 		cmp	r9, #4
 4754 36ec 00B09DE5 		ldr	fp, [sp]
 4755 36f0 FCF7FF1A 		bne	.L401
 4756 36f4 070052E1 		cmp	r2, r7
 4757 36f8 48FEFFDA 		ble	.L402
 4758 36fc 04005BE1 		cmp	fp, r4
 4759 3700 47FEFFDA 		ble	.L403
 4760 3704 0E005AE1 		cmp	r10, lr
 4761 3708 43FEFFDA 		ble	.L404
 4762 370c 20309DE5 		ldr	r3, [sp, #32]
 4763 3710 070053E1 		cmp	r3, r7
 4764 3714 3FFEFFDA 		ble	.L405
 4765 3718 10309DE5 		ldr	r3, [sp, #16]
 4766 371c 040053E1 		cmp	r3, r4
 4767 3720 3BFEFFDA 		ble	.L406
 4768 3724 18309DE5 		ldr	r3, [sp, #24]
 4769 3728 0E0053E1 		cmp	r3, lr
 4770 372c 37FEFFDA 		ble	.L407
 4771 3730 24309DE5 		ldr	r3, [sp, #36]
 4772 3734 000053E3 		cmp	r3, #0
 4773 3738 33FEFFDA 		ble	.L409
 4774 373c FEFFFFEB 		bl	abort
 4775              	.LEHE36:
 4776              	.L520:
 4777              	.LEHB37:
 4778 3740 FEFFFFEB 		bl	abort
 4779              	.LEHE37:
 4780              	.L1139:
 4781              	.LEHB38:
 4782 3744 FEFFFFEB 		bl	abort
 4783              	.LEHE38:
 4784              	.L336:
 4785              	.LEHB39:
 4786 3748 FEFFFFEB 		bl	abort
 4787              	.LEHE39:
 4788              	.L1121:
 4789              	.LEHB40:
 4790 374c FEFFFFEB 		bl	abort
 4791              	.LEHE40:
 4792              	.L1127:
 4793              	.LEHB41:
 4794 3750 FEFFFFEB 		bl	abort
 4795              	.LEHE41:
 4796              	.L1132:
 4797              	.LEHB42:
 4798 3754 FEFFFFEB 		bl	abort
 4799              	.LEHE42:
 4800              	.L528:
 4801              	.LEHB43:
 4802 3758 FEFFFFEB 		bl	abort
 4803              	.LEHE43:
 4804              	.L1133:
 4805              	.LEHB44:
 4806 375c FEFFFFEB 		bl	abort
 4807              	.LEHE44:
 4808              	.L257:
 4809              	.LEHB45:
 4810 3760 FEFFFFEB 		bl	abort
 4811              	.LEHE45:
 4812              	.L385:
 4813              	.LEHB46:
 4814 3764 FEFFFFEB 		bl	abort
 4815              	.LEHE46:
 4816              	.L1084:
 4817 3768 000059E3 		cmp	r9, #0
 4818 376c B8F5FFDA 		ble	.L486
 4819 3770 04005BE3 		cmp	fp, #4
 4820 3774 D7F7FF1A 		bne	.L487
 4821 3778 0E005AE1 		cmp	r10, lr
 4822 377c 1FFEFFAA 		bge	.L488
 4823 3780 20309DE5 		ldr	r3, [sp, #32]
 4824 3784 080053E1 		cmp	r3, r8
 4825 3788 1DFEFFDA 		ble	.L489
 4826 378c 08309DE5 		ldr	r3, [sp, #8]
 4827 3790 0C0053E1 		cmp	r3, ip
 4828 3794 18FEFFDA 		ble	.L490
 4829 3798 10309DE5 		ldr	r3, [sp, #16]
 4830 379c 03005AE1 		cmp	r10, r3
 4831 37a0 14FEFFAA 		bge	.L491
 4832 37a4 18309DE5 		ldr	r3, [sp, #24]
 4833 37a8 080053E1 		cmp	r3, r8
 4834 37ac 10FEFFDA 		ble	.L492
 4835 37b0 24309DE5 		ldr	r3, [sp, #36]
 4836 37b4 0C0053E1 		cmp	r3, ip
 4837 37b8 0CFEFFDA 		ble	.L493
 4838 37bc 28309DE5 		ldr	r3, [sp, #40]
 4839 37c0 000053E3 		cmp	r3, #0
 4840 37c4 08FEFFDA 		ble	.L495
 4841              	.LEHB47:
 4842 37c8 FEFFFFEB 		bl	abort
 4843              	.L1094:
 4844 37cc 03005AE1 		cmp	r10, r3
 4845 37d0 E4FFFFAA 		bge	.L1084
 4846 37d4 000059E3 		cmp	r9, #0
 4847 37d8 9DF5FFDA 		ble	.L486
 4848 37dc 04005BE3 		cmp	fp, #4
 4849 37e0 BCF7FF1A 		bne	.L487
 4850 37e4 0E005AE1 		cmp	r10, lr
 4851 37e8 04FEFFAA 		bge	.L488
 4852 37ec 20309DE5 		ldr	r3, [sp, #32]
 4853 37f0 080053E1 		cmp	r3, r8
 4854 37f4 02FEFFDA 		ble	.L489
 4855 37f8 08309DE5 		ldr	r3, [sp, #8]
 4856 37fc 0C0053E1 		cmp	r3, ip
 4857 3800 FDFDFFDA 		ble	.L490
 4858 3804 10309DE5 		ldr	r3, [sp, #16]
 4859 3808 03005AE1 		cmp	r10, r3
 4860 380c F9FDFFAA 		bge	.L491
 4861 3810 18309DE5 		ldr	r3, [sp, #24]
 4862 3814 080053E1 		cmp	r3, r8
 4863 3818 F5FDFFDA 		ble	.L492
 4864 381c 24309DE5 		ldr	r3, [sp, #36]
 4865 3820 0C0053E1 		cmp	r3, ip
 4866 3824 F1FDFFDA 		ble	.L493
 4867 3828 28309DE5 		ldr	r3, [sp, #40]
 4868 382c 000053E3 		cmp	r3, #0
 4869 3830 EDFDFFDA 		ble	.L495
 4870 3834 FEFFFFEB 		bl	abort
 4871              	.LEHE47:
 4872              	.L681:
 4873 3838 1000C0F2 		vmov.i32	d16, #0  @ di
 4874 383c 000BCDED 		vstr.64	d16, [sp]	@ int
 4875 3840 304B55EC 		vmov	r4, r5, d16	@ int
 4876 3844 80FDFFEA 		b	.L449
 4877              	.L1164:
 4878              	.LEHB48:
 4879 3848 FEFFFFEB 		bl	abort
 4880              	.LEHE48:
 4881              	.L253:
 4882              	.LEHB49:
 4883 384c FEFFFFEB 		bl	abort
 4884              	.L249:
 4885 3850 FEFFFFEB 		bl	abort
 4886              	.LEHE49:
 4887              	.L1122:
 4888              	.LEHB50:
 4889 3854 FEFFFFEB 		bl	abort
 4890              	.LEHE50:
 4891              	.L580:
 4892              	.LEHB51:
 4893 3858 FEFFFFEB 		bl	abort
 4894              	.LEHE51:
 4895              	.L1126:
 4896              	.LEHB52:
 4897 385c FEFFFFEB 		bl	abort
 4898              	.LEHE52:
 4899              	.L1123:
 4900              	.LEHB53:
 4901 3860 FEFFFFEB 		bl	abort
 4902              	.L1124:
 4903 3864 03005EE1 		cmp	lr, r3
 4904 3868 3C309DE5 		ldr	r3, [sp, #60]
 4905 386c 880000AA 		bge	.L1090
 4906 3870 0C0053E1 		cmp	r3, ip
 4907 3874 6D0000DA 		ble	.L1074
 4908 3878 00005AE3 		cmp	r10, #0
 4909 387c FEF3FFDA 		ble	.L351
 4910 3880 04005BE3 		cmp	fp, #4
 4911 3884 0730A0E1 		mov	r3, r7
 4912 3888 0670A0E1 		mov	r7, r6
 4913 388c 99F7FF1A 		bne	.L352
 4914 3890 0C0059E1 		cmp	r9, ip
 4915 3894 E9FDFFDA 		ble	.L353
 4916 3898 07005EE1 		cmp	lr, r7
 4917 389c E8FDFFAA 		bge	.L354
 4918 38a0 000053E1 		cmp	r3, r0
 4919 38a4 E4FDFFDA 		ble	.L355
 4920 38a8 00309DE5 		ldr	r3, [sp]
 4921 38ac 0C0053E1 		cmp	r3, ip
 4922 38b0 E0FDFFDA 		ble	.L356
 4923 38b4 08309DE5 		ldr	r3, [sp, #8]
 4924 38b8 03005EE1 		cmp	lr, r3
 4925 38bc DCFDFFAA 		bge	.L357
 4926 38c0 20309DE5 		ldr	r3, [sp, #32]
 4927 38c4 000053E1 		cmp	r3, r0
 4928 38c8 D8FDFFDA 		ble	.L358
 4929 38cc 10309DE5 		ldr	r3, [sp, #16]
 4930 38d0 000053E3 		cmp	r3, #0
 4931 38d4 D4FDFFDA 		ble	.L360
 4932 38d8 FEFFFFEB 		bl	abort
 4933              	.LEHE53:
 4934              	.L576:
 4935              	.LEHB54:
 4936 38dc FEFFFFEB 		bl	abort
 4937              	.L572:
 4938 38e0 FEFFFFEB 		bl	abort
 4939              	.LEHE54:
 4940              	.L1102:
 4941              	.LEHB55:
 4942 38e4 FEFFFFEB 		bl	abort
 4943              	.L1160:
 4944 38e8 FEFFFFEB 		bl	abort
 4945              	.LEHE55:
 4946              	.L1069:
 4947 38ec 00005AE3 		cmp	r10, #0
 4948 38f0 04F6FFDA 		ble	.L266
 4949 38f4 04005BE3 		cmp	fp, #4
 4950 38f8 72F7FF1A 		bne	.L267
 4951 38fc 080059E1 		cmp	r9, r8
 4952 3900 D7FDFFDA 		ble	.L268
 4953 3904 00309DE5 		ldr	r3, [sp]
 4954 3908 040053E1 		cmp	r3, r4
 4955 390c D3FDFFDA 		ble	.L269
 4956 3910 0E0057E1 		cmp	r7, lr
 4957 3914 D0FDFFDA 		ble	.L270
 4958 3918 08309DE5 		ldr	r3, [sp, #8]
 4959 391c 080053E1 		cmp	r3, r8
 4960 3920 CCFDFFDA 		ble	.L271
 4961 3924 20309DE5 		ldr	r3, [sp, #32]
 4962 3928 040053E1 		cmp	r3, r4
 4963 392c C8FDFFDA 		ble	.L272
 4964 3930 10309DE5 		ldr	r3, [sp, #16]
 4965 3934 0E0053E1 		cmp	r3, lr
 4966 3938 C4FDFFDA 		ble	.L273
 4967 393c 18309DE5 		ldr	r3, [sp, #24]
 4968 3940 000053E3 		cmp	r3, #0
 4969 3944 C0FDFFDA 		ble	.L275
 4970              	.LEHB56:
 4971 3948 FEFFFFEB 		bl	abort
 4972              	.L1088:
 4973 394c 080053E1 		cmp	r3, r8
 4974 3950 E5FFFFDA 		ble	.L1069
 4975 3954 00005AE3 		cmp	r10, #0
 4976 3958 EAF5FFDA 		ble	.L266
 4977 395c 04005BE3 		cmp	fp, #4
 4978 3960 58F7FF1A 		bne	.L267
 4979 3964 080059E1 		cmp	r9, r8
 4980 3968 BDFDFFDA 		ble	.L268
 4981 396c 00309DE5 		ldr	r3, [sp]
 4982 3970 040053E1 		cmp	r3, r4
 4983 3974 B9FDFFDA 		ble	.L269
 4984 3978 0E0057E1 		cmp	r7, lr
 4985 397c B6FDFFDA 		ble	.L270
 4986 3980 08309DE5 		ldr	r3, [sp, #8]
 4987 3984 080053E1 		cmp	r3, r8
 4988 3988 B2FDFFDA 		ble	.L271
 4989 398c 20309DE5 		ldr	r3, [sp, #32]
 4990 3990 040053E1 		cmp	r3, r4
 4991 3994 AEFDFFDA 		ble	.L272
 4992 3998 10309DE5 		ldr	r3, [sp, #16]
 4993 399c 0E0053E1 		cmp	r3, lr
 4994 39a0 AAFDFFDA 		ble	.L273
 4995 39a4 18309DE5 		ldr	r3, [sp, #24]
 4996 39a8 000053E3 		cmp	r3, #0
 4997 39ac A6FDFFDA 		ble	.L275
 4998 39b0 FEFFFFEB 		bl	abort
 4999              	.L1137:
 5000 39b4 040053E1 		cmp	r3, r4
 5001 39b8 40309DE5 		ldr	r3, [sp, #64]
 5002 39bc E2FFFFDA 		ble	.L1088
 5003 39c0 080053E1 		cmp	r3, r8
 5004 39c4 C8FFFFDA 		ble	.L1069
 5005 39c8 00005AE3 		cmp	r10, #0
 5006 39cc CDF5FFDA 		ble	.L266
 5007 39d0 04005BE3 		cmp	fp, #4
 5008 39d4 3BF7FF1A 		bne	.L267
 5009 39d8 080059E1 		cmp	r9, r8
 5010 39dc A0FDFFDA 		ble	.L268
 5011 39e0 00309DE5 		ldr	r3, [sp]
 5012 39e4 040053E1 		cmp	r3, r4
 5013 39e8 9CFDFFDA 		ble	.L269
 5014 39ec 0E0057E1 		cmp	r7, lr
 5015 39f0 99FDFFDA 		ble	.L270
 5016 39f4 08309DE5 		ldr	r3, [sp, #8]
 5017 39f8 080053E1 		cmp	r3, r8
 5018 39fc 95FDFFDA 		ble	.L271
 5019 3a00 20309DE5 		ldr	r3, [sp, #32]
 5020 3a04 040053E1 		cmp	r3, r4
 5021 3a08 91FDFFDA 		ble	.L272
 5022 3a0c 10309DE5 		ldr	r3, [sp, #16]
 5023 3a10 0E0053E1 		cmp	r3, lr
 5024 3a14 8DFDFFDA 		ble	.L273
 5025 3a18 18309DE5 		ldr	r3, [sp, #24]
 5026 3a1c 000053E3 		cmp	r3, #0
 5027 3a20 89FDFFDA 		ble	.L275
 5028 3a24 FEFFFFEB 		bl	abort
 5029              	.LEHE56:
 5030              	.L428:
 5031              	.LEHB57:
 5032 3a28 FEFFFFEB 		bl	abort
 5033              	.L1158:
 5034 3a2c FEFFFFEB 		bl	abort
 5035              	.LEHE57:
 5036              	.L1074:
 5037 3a30 00005AE3 		cmp	r10, #0
 5038 3a34 90F3FFDA 		ble	.L351
 5039 3a38 04005BE3 		cmp	fp, #4
 5040 3a3c 0730A0E1 		mov	r3, r7
 5041 3a40 0670A0E1 		mov	r7, r6
 5042 3a44 2BF7FF1A 		bne	.L352
 5043 3a48 0C0059E1 		cmp	r9, ip
 5044 3a4c 7BFDFFDA 		ble	.L353
 5045 3a50 07005EE1 		cmp	lr, r7
 5046 3a54 7AFDFFAA 		bge	.L354
 5047 3a58 000053E1 		cmp	r3, r0
 5048 3a5c 76FDFFDA 		ble	.L355
 5049 3a60 00309DE5 		ldr	r3, [sp]
 5050 3a64 0C0053E1 		cmp	r3, ip
 5051 3a68 72FDFFDA 		ble	.L356
 5052 3a6c 08309DE5 		ldr	r3, [sp, #8]
 5053 3a70 03005EE1 		cmp	lr, r3
 5054 3a74 6EFDFFAA 		bge	.L357
 5055 3a78 20309DE5 		ldr	r3, [sp, #32]
 5056 3a7c 000053E1 		cmp	r3, r0
 5057 3a80 6AFDFFDA 		ble	.L358
 5058 3a84 10309DE5 		ldr	r3, [sp, #16]
 5059 3a88 000053E3 		cmp	r3, #0
 5060 3a8c 66FDFFDA 		ble	.L360
 5061              	.LEHB58:
 5062 3a90 FEFFFFEB 		bl	abort
 5063              	.L1090:
 5064 3a94 0C0053E1 		cmp	r3, ip
 5065 3a98 E4FFFFDA 		ble	.L1074
 5066 3a9c 00005AE3 		cmp	r10, #0
 5067 3aa0 75F3FFDA 		ble	.L351
 5068 3aa4 04005BE3 		cmp	fp, #4
 5069 3aa8 0730A0E1 		mov	r3, r7
 5070 3aac 0670A0E1 		mov	r7, r6
 5071 3ab0 10F7FF1A 		bne	.L352
 5072 3ab4 0C0059E1 		cmp	r9, ip
 5073 3ab8 60FDFFDA 		ble	.L353
 5074 3abc 07005EE1 		cmp	lr, r7
 5075 3ac0 5FFDFFAA 		bge	.L354
 5076 3ac4 000053E1 		cmp	r3, r0
 5077 3ac8 5BFDFFDA 		ble	.L355
 5078 3acc 00309DE5 		ldr	r3, [sp]
 5079 3ad0 0C0053E1 		cmp	r3, ip
 5080 3ad4 57FDFFDA 		ble	.L356
 5081 3ad8 08309DE5 		ldr	r3, [sp, #8]
 5082 3adc 03005EE1 		cmp	lr, r3
 5083 3ae0 53FDFFAA 		bge	.L357
 5084 3ae4 20309DE5 		ldr	r3, [sp, #32]
 5085 3ae8 000053E1 		cmp	r3, r0
 5086 3aec 4FFDFFDA 		ble	.L358
 5087 3af0 10309DE5 		ldr	r3, [sp, #16]
 5088 3af4 000053E3 		cmp	r3, #0
 5089 3af8 4BFDFFDA 		ble	.L360
 5090 3afc FEFFFFEB 		bl	abort
 5091              	.LEHE58:
 5092              	.L524:
 5093              	.LEHB59:
 5094 3b00 FEFFFFEB 		bl	abort
 5095              	.LEHE59:
 5096              	.L1174:
 5097 3b04 003000E3 		movw	r3, #:lower16:.LC8
 5098 3b08 002000E3 		movw	r2, #:lower16:.LANCHOR0
 5099 3b0c 000000E3 		movw	r0, #:lower16:.LC7
 5100 3b10 003040E3 		movt	r3, #:upper16:.LC8
 5101 3b14 002040E3 		movt	r2, #:upper16:.LANCHOR0
 5102 3b18 000040E3 		movt	r0, #:upper16:.LC7
 5103 3b1c 671100E3 		movw	r1, #359
 5104              	.LEHB60:
 5105 3b20 FEFFFFEB 		bl	__assert_func
 5106              	.L714:
 5107 3b24 59FCFFEA 		b	.L626
 5108              	.L713:
 5109 3b28 5FFCFFEA 		b	.L628
 5110              	.L1165:
 5111 3b2c FEFFFFEB 		bl	abort
 5112              	.L1161:
 5113 3b30 FEFFFFEB 		bl	abort
 5114              	.L1173:
 5115 3b34 003000E3 		movw	r3, #:lower16:.LC6
 5116 3b38 002000E3 		movw	r2, #:lower16:.LANCHOR0
 5117 3b3c 000000E3 		movw	r0, #:lower16:.LC7
 5118 3b40 003040E3 		movt	r3, #:upper16:.LC6
 5119 3b44 002040E3 		movt	r2, #:upper16:.LANCHOR0
 5120 3b48 000040E3 		movt	r0, #:upper16:.LC7
 5121 3b4c 661100E3 		movw	r1, #358
 5122 3b50 FEFFFFEB 		bl	__assert_func
 5123              	.L1172:
 5124 3b54 003000E3 		movw	r3, #:lower16:.LC8
 5125 3b58 002000E3 		movw	r2, #:lower16:.LANCHOR0
 5126 3b5c 000000E3 		movw	r0, #:lower16:.LC7
 5127 3b60 003040E3 		movt	r3, #:upper16:.LC8
 5128 3b64 002040E3 		movt	r2, #:upper16:.LANCHOR0
 5129 3b68 000040E3 		movt	r0, #:upper16:.LC7
 5130 3b6c 671100E3 		movw	r1, #359
 5131 3b70 FEFFFFEB 		bl	__assert_func
 5132              	.L1171:
 5133 3b74 003000E3 		movw	r3, #:lower16:.LC6
 5134 3b78 002000E3 		movw	r2, #:lower16:.LANCHOR0
 5135 3b7c 000000E3 		movw	r0, #:lower16:.LC7
 5136 3b80 003040E3 		movt	r3, #:upper16:.LC6
 5137 3b84 002040E3 		movt	r2, #:upper16:.LANCHOR0
 5138 3b88 000040E3 		movt	r0, #:upper16:.LC7
 5139 3b8c 661100E3 		movw	r1, #358
 5140 3b90 FEFFFFEB 		bl	__assert_func
 5141              	.L1170:
 5142 3b94 FEFFFFEB 		bl	abort
 5143              	.L1169:
 5144 3b98 003000E3 		movw	r3, #:lower16:.LC8
 5145 3b9c 002000E3 		movw	r2, #:lower16:.LANCHOR0
 5146 3ba0 000000E3 		movw	r0, #:lower16:.LC7
 5147 3ba4 003040E3 		movt	r3, #:upper16:.LC8
 5148 3ba8 002040E3 		movt	r2, #:upper16:.LANCHOR0
 5149 3bac 000040E3 		movt	r0, #:upper16:.LC7
 5150 3bb0 671100E3 		movw	r1, #359
 5151 3bb4 FEFFFFEB 		bl	__assert_func
 5152              	.L1168:
 5153 3bb8 003000E3 		movw	r3, #:lower16:.LC6
 5154 3bbc 002000E3 		movw	r2, #:lower16:.LANCHOR0
 5155 3bc0 000000E3 		movw	r0, #:lower16:.LC7
 5156 3bc4 003040E3 		movt	r3, #:upper16:.LC6
 5157 3bc8 002040E3 		movt	r2, #:upper16:.LANCHOR0
 5158 3bcc 000040E3 		movt	r0, #:upper16:.LC7
 5159 3bd0 661100E3 		movw	r1, #358
 5160 3bd4 FEFFFFEB 		bl	__assert_func
 5161              	.L1167:
 5162 3bd8 003000E3 		movw	r3, #:lower16:.LC8
 5163 3bdc 002000E3 		movw	r2, #:lower16:.LANCHOR0
 5164 3be0 000000E3 		movw	r0, #:lower16:.LC7
 5165 3be4 003040E3 		movt	r3, #:upper16:.LC8
 5166 3be8 002040E3 		movt	r2, #:upper16:.LANCHOR0
 5167 3bec 000040E3 		movt	r0, #:upper16:.LC7
 5168 3bf0 671100E3 		movw	r1, #359
 5169 3bf4 FEFFFFEB 		bl	__assert_func
 5170              	.L1166:
 5171 3bf8 003000E3 		movw	r3, #:lower16:.LC6
 5172 3bfc 002000E3 		movw	r2, #:lower16:.LANCHOR0
 5173 3c00 000000E3 		movw	r0, #:lower16:.LC7
 5174 3c04 003040E3 		movt	r3, #:upper16:.LC6
 5175 3c08 002040E3 		movt	r2, #:upper16:.LANCHOR0
 5176 3c0c 000040E3 		movt	r0, #:upper16:.LC7
 5177 3c10 661100E3 		movw	r1, #358
 5178 3c14 FEFFFFEB 		bl	__assert_func
 5179              	.LEHE60:
 5180              		.personality	__gxx_personality_v0
 5181              		.handlerdata
 5182              	.LLSDA4287:
 5183 0008 FF       		.byte	0xff
 5184 0009 FF       		.byte	0xff
 5185 000a 01       		.byte	0x1
 5186 000b CA02     		.uleb128 .LLSDACSE4287-.LLSDACSB4287
 5187              	.LLSDACSB4287:
 5188 000d 30       		.uleb128 .LEHB6-.LFB4287
 5189 000e 44       		.uleb128 .LEHE6-.LEHB6
 5190 000f 00       		.uleb128 0
 5191 0010 00       		.uleb128 0
 5192 0011 7C       		.uleb128 .LEHB7-.LFB4287
 5193 0012 04       		.uleb128 .LEHE7-.LEHB7
 5194 0013 A876     		.uleb128 .L713-.LFB4287
 5195 0015 00       		.uleb128 0
 5196 0016 8801     		.uleb128 .LEHB8-.LFB4287
 5197 0018 04       		.uleb128 .LEHE8-.LEHB8
 5198 0019 A476     		.uleb128 .L714-.LFB4287
 5199 001b 00       		.uleb128 0
 5200 001c 9C01     		.uleb128 .LEHB9-.LFB4287
 5201 001e CC21     		.uleb128 .LEHE9-.LEHB9
 5202 0020 CC6A     		.uleb128 .L715-.LFB4287
 5203 0022 00       		.uleb128 0
 5204 0023 C82D     		.uleb128 .LEHB10-.LFB4287
 5205 0025 04       		.uleb128 .LEHE10-.LEHB10
 5206 0026 845A     		.uleb128 .L716-.LFB4287
 5207 0028 00       		.uleb128 0
 5208 0029 D82D     		.uleb128 .LEHB11-.LFB4287
 5209 002b 04       		.uleb128 .LEHE11-.LEHB11
 5210 002c E859     		.uleb128 .L719-.LFB4287
 5211 002e 00       		.uleb128 0
 5212 002f E82D     		.uleb128 .LEHB12-.LFB4287
 5213 0031 04       		.uleb128 .LEHE12-.LEHB12
 5214 0032 CC59     		.uleb128 .L718-.LFB4287
 5215 0034 00       		.uleb128 0
 5216 0035 F82D     		.uleb128 .LEHB13-.LFB4287
 5217 0037 04       		.uleb128 .LEHE13-.LEHB13
 5218 0038 D858     		.uleb128 .L717-.LFB4287
 5219 003a 00       		.uleb128 0
 5220 003b AC3B     		.uleb128 .LEHB14-.LFB4287
 5221 003d E01C     		.uleb128 .LEHE14-.LEHB14
 5222 003f CC6A     		.uleb128 .L715-.LFB4287
 5223 0041 00       		.uleb128 0
 5224 0042 C859     		.uleb128 .LEHB15-.LFB4287
 5225 0044 04       		.uleb128 .LEHE15-.LEHB15
 5226 0045 00       		.uleb128 0
 5227 0046 00       		.uleb128 0
 5228 0047 AC5B     		.uleb128 .LEHB16-.LFB4287
 5229 0049 04       		.uleb128 .LEHE16-.LEHB16
 5230 004a CC6A     		.uleb128 .L715-.LFB4287
 5231 004c 00       		.uleb128 0
 5232 004d E85F     		.uleb128 .LEHB17-.LFB4287
 5233 004f 20       		.uleb128 .LEHE17-.LEHB17
 5234 0050 E859     		.uleb128 .L719-.LFB4287
 5235 0052 00       		.uleb128 0
 5236 0053 8860     		.uleb128 .LEHB18-.LFB4287
 5237 0055 20       		.uleb128 .LEHE18-.LEHB18
 5238 0056 CC59     		.uleb128 .L718-.LFB4287
 5239 0058 00       		.uleb128 0
 5240 0059 A860     		.uleb128 .LEHB19-.LFB4287
 5241 005b 20       		.uleb128 .LEHE19-.LEHB19
 5242 005c D858     		.uleb128 .L717-.LFB4287
 5243 005e 00       		.uleb128 0
 5244 005f C860     		.uleb128 .LEHB20-.LFB4287
 5245 0061 20       		.uleb128 .LEHE20-.LEHB20
 5246 0062 845A     		.uleb128 .L716-.LFB4287
 5247 0064 00       		.uleb128 0
 5248 0065 E860     		.uleb128 .LEHB21-.LFB4287
 5249 0067 4C       		.uleb128 .LEHE21-.LEHB21
 5250 0068 EC60     		.uleb128 .L720-.LFB4287
 5251 006a 00       		.uleb128 0
 5252 006b B461     		.uleb128 .LEHB22-.LFB4287
 5253 006d 4C       		.uleb128 .LEHE22-.LEHB22
 5254 006e B861     		.uleb128 .L721-.LFB4287
 5255 0070 00       		.uleb128 0
 5256 0071 8865     		.uleb128 .LEHB23-.LFB4287
 5257 0073 04       		.uleb128 .LEHE23-.LEHB23
 5258 0074 CC6A     		.uleb128 .L715-.LFB4287
 5259 0076 00       		.uleb128 0
 5260 0077 8C65     		.uleb128 .LEHB24-.LFB4287
 5261 0079 04       		.uleb128 .LEHE24-.LEHB24
 5262 007a D858     		.uleb128 .L717-.LFB4287
 5263 007c 00       		.uleb128 0
 5264 007d B065     		.uleb128 .LEHB25-.LFB4287
 5265 007f 04       		.uleb128 .LEHE25-.LEHB25
 5266 0080 845A     		.uleb128 .L716-.LFB4287
 5267 0082 00       		.uleb128 0
 5268 0083 B465     		.uleb128 .LEHB26-.LFB4287
 5269 0085 04       		.uleb128 .LEHE26-.LEHB26
 5270 0086 CC59     		.uleb128 .L718-.LFB4287
 5271 0088 00       		.uleb128 0
 5272 0089 B865     		.uleb128 .LEHB27-.LFB4287
 5273 008b 04       		.uleb128 .LEHE27-.LEHB27
 5274 008c E859     		.uleb128 .L719-.LFB4287
 5275 008e 00       		.uleb128 0
 5276 008f C465     		.uleb128 .LEHB28-.LFB4287
 5277 0091 04       		.uleb128 .LEHE28-.LEHB28
 5278 0092 EC60     		.uleb128 .L720-.LFB4287
 5279 0094 00       		.uleb128 0
 5280 0095 C865     		.uleb128 .LEHB29-.LFB4287
 5281 0097 08       		.uleb128 .LEHE29-.LEHB29
 5282 0098 B861     		.uleb128 .L721-.LFB4287
 5283 009a 00       		.uleb128 0
 5284 009b EC65     		.uleb128 .LEHB30-.LFB4287
 5285 009d 68       		.uleb128 .LEHE30-.LEHB30
 5286 009e EC60     		.uleb128 .L720-.LFB4287
 5287 00a0 00       		.uleb128 0
 5288 00a1 F066     		.uleb128 .LEHB31-.LFB4287
 5289 00a3 64       		.uleb128 .LEHE31-.LEHB31
 5290 00a4 B861     		.uleb128 .L721-.LFB4287
 5291 00a6 00       		.uleb128 0
 5292 00a7 8C68     		.uleb128 .LEHB32-.LFB4287
 5293 00a9 04       		.uleb128 .LEHE32-.LEHB32
 5294 00aa 00       		.uleb128 0
 5295 00ab 00       		.uleb128 0
 5296 00ac C86A     		.uleb128 .LEHB33-.LFB4287
 5297 00ae 28       		.uleb128 .LEHE33-.LEHB33
 5298 00af CC6A     		.uleb128 .L715-.LFB4287
 5299 00b1 00       		.uleb128 0
 5300 00b2 806B     		.uleb128 .LEHB34-.LFB4287
 5301 00b4 7C       		.uleb128 .LEHE34-.LEHB34
 5302 00b5 E859     		.uleb128 .L719-.LFB4287
 5303 00b7 00       		.uleb128 0
 5304 00b8 FC6B     		.uleb128 .LEHB35-.LFB4287
 5305 00ba 04       		.uleb128 .LEHE35-.LEHB35
 5306 00bb CC6A     		.uleb128 .L715-.LFB4287
 5307 00bd 00       		.uleb128 0
 5308 00be 806C     		.uleb128 .LEHB36-.LFB4287
 5309 00c0 C002     		.uleb128 .LEHE36-.LEHB36
 5310 00c2 CC59     		.uleb128 .L718-.LFB4287
 5311 00c4 00       		.uleb128 0
 5312 00c5 C06E     		.uleb128 .LEHB37-.LFB4287
 5313 00c7 04       		.uleb128 .LEHE37-.LEHB37
 5314 00c8 EC60     		.uleb128 .L720-.LFB4287
 5315 00ca 00       		.uleb128 0
 5316 00cb C46E     		.uleb128 .LEHB38-.LFB4287
 5317 00cd 04       		.uleb128 .LEHE38-.LEHB38
 5318 00ce CC6A     		.uleb128 .L715-.LFB4287
 5319 00d0 00       		.uleb128 0
 5320 00d1 C86E     		.uleb128 .LEHB39-.LFB4287
 5321 00d3 04       		.uleb128 .LEHE39-.LEHB39
 5322 00d4 D858     		.uleb128 .L717-.LFB4287
 5323 00d6 00       		.uleb128 0
 5324 00d7 CC6E     		.uleb128 .LEHB40-.LFB4287
 5325 00d9 04       		.uleb128 .LEHE40-.LEHB40
 5326 00da CC6A     		.uleb128 .L715-.LFB4287
 5327 00dc 00       		.uleb128 0
 5328 00dd D06E     		.uleb128 .LEHB41-.LFB4287
 5329 00df 04       		.uleb128 .LEHE41-.LEHB41
 5330 00e0 CC59     		.uleb128 .L718-.LFB4287
 5331 00e2 00       		.uleb128 0
 5332 00e3 D46E     		.uleb128 .LEHB42-.LFB4287
 5333 00e5 04       		.uleb128 .LEHE42-.LEHB42
 5334 00e6 E859     		.uleb128 .L719-.LFB4287
 5335 00e8 00       		.uleb128 0
 5336 00e9 D86E     		.uleb128 .LEHB43-.LFB4287
 5337 00eb 04       		.uleb128 .LEHE43-.LEHB43
 5338 00ec EC60     		.uleb128 .L720-.LFB4287
 5339 00ee 00       		.uleb128 0
 5340 00ef DC6E     		.uleb128 .LEHB44-.LFB4287
 5341 00f1 04       		.uleb128 .LEHE44-.LEHB44
 5342 00f2 E859     		.uleb128 .L719-.LFB4287
 5343 00f4 00       		.uleb128 0
 5344 00f5 E06E     		.uleb128 .LEHB45-.LFB4287
 5345 00f7 04       		.uleb128 .LEHE45-.LEHB45
 5346 00f8 845A     		.uleb128 .L716-.LFB4287
 5347 00fa 00       		.uleb128 0
 5348 00fb E46E     		.uleb128 .LEHB46-.LFB4287
 5349 00fd 04       		.uleb128 .LEHE46-.LEHB46
 5350 00fe CC59     		.uleb128 .L718-.LFB4287
 5351 0100 00       		.uleb128 0
 5352 0101 C86F     		.uleb128 .LEHB47-.LFB4287
 5353 0103 70       		.uleb128 .LEHE47-.LEHB47
 5354 0104 E859     		.uleb128 .L719-.LFB4287
 5355 0106 00       		.uleb128 0
 5356 0107 C870     		.uleb128 .LEHB48-.LFB4287
 5357 0109 04       		.uleb128 .LEHE48-.LEHB48
 5358 010a CC6A     		.uleb128 .L715-.LFB4287
 5359 010c 00       		.uleb128 0
 5360 010d CC70     		.uleb128 .LEHB49-.LFB4287
 5361 010f 08       		.uleb128 .LEHE49-.LEHB49
 5362 0110 845A     		.uleb128 .L716-.LFB4287
 5363 0112 00       		.uleb128 0
 5364 0113 D470     		.uleb128 .LEHB50-.LFB4287
 5365 0115 04       		.uleb128 .LEHE50-.LEHB50
 5366 0116 D858     		.uleb128 .L717-.LFB4287
 5367 0118 00       		.uleb128 0
 5368 0119 D870     		.uleb128 .LEHB51-.LFB4287
 5369 011b 04       		.uleb128 .LEHE51-.LEHB51
 5370 011c B861     		.uleb128 .L721-.LFB4287
 5371 011e 00       		.uleb128 0
 5372 011f DC70     		.uleb128 .LEHB52-.LFB4287
 5373 0121 04       		.uleb128 .LEHE52-.LEHB52
 5374 0122 CC6A     		.uleb128 .L715-.LFB4287
 5375 0124 00       		.uleb128 0
 5376 0125 E070     		.uleb128 .LEHB53-.LFB4287
 5377 0127 7C       		.uleb128 .LEHE53-.LEHB53
 5378 0128 D858     		.uleb128 .L717-.LFB4287
 5379 012a 00       		.uleb128 0
 5380 012b DC71     		.uleb128 .LEHB54-.LFB4287
 5381 012d 08       		.uleb128 .LEHE54-.LEHB54
 5382 012e B861     		.uleb128 .L721-.LFB4287
 5383 0130 00       		.uleb128 0
 5384 0131 E471     		.uleb128 .LEHB55-.LFB4287
 5385 0133 08       		.uleb128 .LEHE55-.LEHB55
 5386 0134 CC6A     		.uleb128 .L715-.LFB4287
 5387 0136 00       		.uleb128 0
 5388 0137 C872     		.uleb128 .LEHB56-.LFB4287
 5389 0139 E001     		.uleb128 .LEHE56-.LEHB56
 5390 013b 845A     		.uleb128 .L716-.LFB4287
 5391 013d 00       		.uleb128 0
 5392 013e A874     		.uleb128 .LEHB57-.LFB4287
 5393 0140 08       		.uleb128 .LEHE57-.LEHB57
 5394 0141 CC6A     		.uleb128 .L715-.LFB4287
 5395 0143 00       		.uleb128 0
 5396 0144 9075     		.uleb128 .LEHB58-.LFB4287
 5397 0146 70       		.uleb128 .LEHE58-.LEHB58
 5398 0147 D858     		.uleb128 .L717-.LFB4287
 5399 0149 00       		.uleb128 0
 5400 014a 8076     		.uleb128 .LEHB59-.LFB4287
 5401 014c 04       		.uleb128 .LEHE59-.LEHB59
 5402 014d EC60     		.uleb128 .L720-.LFB4287
 5403 014f 00       		.uleb128 0
 5404 0150 A076     		.uleb128 .LEHB60-.LFB4287
 5405 0152 F801     		.uleb128 .LEHE60-.LEHB60
 5406 0154 CC6A     		.uleb128 .L715-.LFB4287
 5407 0156 00       		.uleb128 0
 5408              	.LLSDACSE4287:
 5409              		.section	.text._ZN6tflite3ops5micro11comparisons12_GLOBAL__N_19EqualEvalEP13TfLiteContextP10TfLite
 5410              		.fnend
 5412              		.section	.text._ZN6tflite3ops5micro11comparisons12_GLOBAL__N_112NotEqualEvalEP13TfLiteContextP10Tf
 5413              		.align	2
 5414              		.syntax unified
 5415              		.arm
 5416              		.fpu neon
 5418              	_ZN6tflite3ops5micro11comparisons12_GLOBAL__N_112NotEqualEvalEP13TfLiteContextP10TfLiteNode:
 5419              		.fnstart
 5420              	.LFB4288:
 5421              		@ args = 0, pretend = 0, frame = 808
 5422              		@ frame_needed = 0, uses_anonymous_args = 0
 5423 0000 F04F2DE9 		push	{r4, r5, r6, r7, r8, r9, r10, fp, lr}
 5424              		.save {r4, r5, r6, r7, r8, r9, r10, fp, lr}
 5425              		.pad #812
 5426 0004 CBDF4DE2 		sub	sp, sp, #812
 5427 0008 104091E5 		ldr	r4, [r1, #16]
 5428 000c 000054E3 		cmp	r4, #0
 5429 0010 430E000A 		beq	.L1184
 5430 0014 000050E3 		cmp	r0, #0
 5431 0018 0060A0E1 		mov	r6, r0
 5432 001c 400E000A 		beq	.L1184
 5433 0020 002091E5 		ldr	r2, [r1]
 5434 0024 0180A0E1 		mov	r8, r1
 5435 0028 543090E5 		ldr	r3, [r0, #84]
 5436 002c 041092E5 		ldr	r1, [r2, #4]
 5437              	.LEHB61:
 5438 0030 33FF2FE1 		blx	r3
 5439 0034 002098E5 		ldr	r2, [r8]
 5440 0038 0070A0E1 		mov	r7, r0
 5441 003c 543096E5 		ldr	r3, [r6, #84]
 5442 0040 0600A0E1 		mov	r0, r6
 5443 0044 081092E5 		ldr	r1, [r2, #8]
 5444 0048 33FF2FE1 		blx	r3
 5445 004c 042098E5 		ldr	r2, [r8, #4]
 5446 0050 0050A0E1 		mov	r5, r0
 5447 0054 543096E5 		ldr	r3, [r6, #84]
 5448 0058 0600A0E1 		mov	r0, r6
 5449 005c 041092E5 		ldr	r1, [r2, #4]
 5450 0060 33FF2FE1 		blx	r3
 5451 0064 0710A0E1 		mov	r1, r7
 5452 0068 00B0A0E1 		mov	fp, r0
 5453 006c D0008DE2 		add	r0, sp, #208
 5454 0070 FEFFFFEB 		bl	_ZN6tflite5micro14GetTensorShapeEPK16TfLiteEvalTensor
 5455              	.LEHE61:
 5456 0074 0510A0E1 		mov	r1, r5
 5457 0078 E8008DE2 		add	r0, sp, #232
 5458              	.LEHB62:
 5459 007c FEFFFFEB 		bl	_ZN6tflite5micro14GetTensorShapeEPK16TfLiteEvalTensor
 5460              	.LEHE62:
 5461 0080 0B10A0E1 		mov	r1, fp
 5462 0084 010C8DE2 		add	r0, sp, #256
 5463              	.LEHB63:
 5464 0088 FEFFFFEB 		bl	_ZN6tflite5micro14GetTensorShapeEPK16TfLiteEvalTensor
 5465              	.LEHE63:
 5466 008c 00005BE3 		cmp	fp, #0
 5467 0090 0510A0E1 		mov	r1, r5
 5468 0094 0700A0E1 		mov	r0, r7
 5469 0098 00B09B15 		ldrne	fp, [fp]
 5470              	.LEHB64:
 5471 009c FEFFFFEB 		bl	_ZN6tflite5micro14HaveSameShapesEPK16TfLiteEvalTensorS3_
 5472 00a0 0830D7E5 		ldrb	r3, [r7, #8]	@ zero_extendqisi2
 5473 00a4 010020E2 		eor	r0, r0, #1
 5474 00a8 7000EFE6 		uxtb	r0, r0
 5475 00ac 013043E2 		sub	r3, r3, #1
 5476 00b0 080053E3 		cmp	r3, #8
 5477 00b4 03F19F97 		ldrls	pc, [pc, r3, asl #2]
 5478 00b8 520500EA 		b	.L1186
 5479              	.L1188:
 5480 00bc E0050000 		.word	.L1187
 5481 00c0 A8080000 		.word	.L1189
 5482 00c4 14110000 		.word	.L1190
 5483 00c8 700B0000 		.word	.L1191
 5484 00cc 08160000 		.word	.L1186
 5485 00d0 680E0000 		.word	.L1192
 5486 00d4 08160000 		.word	.L1186
 5487 00d8 08160000 		.word	.L1186
 5488 00dc E0000000 		.word	.L1193
 5489              	.L1193:
 5490 00e0 000050E3 		cmp	r0, #0
 5491 00e4 5109000A 		beq	.L1543
 5492 00e8 000055E3 		cmp	r5, #0
 5493 00ec 006097E5 		ldr	r6, [r7]
 5494 00f0 CF0E000A 		beq	.L2194
 5495 00f4 013C8DE2 		add	r3, sp, #256
 5496 00f8 E8208DE2 		add	r2, sp, #232
 5497 00fc D0108DE2 		add	r1, sp, #208
 5498 0100 2D0E8DE2 		add	r0, sp, #720
 5499 0104 005095E5 		ldr	r5, [r5]
 5500 0108 FEFFFFEB 		bl	_ZN6tflite13reference_ops35BroadcastComparison4DSlowPreprocessERKNS_12RuntimeShapeES3_S3_
 5501 010c D0329DE5 		ldr	r3, [sp, #720]
 5502 0110 002094E5 		ldr	r2, [r4]
 5503 0114 0C8094E5 		ldr	r8, [r4, #12]
 5504 0118 28308DE5 		str	r3, [sp, #40]
 5505 011c 000053E3 		cmp	r3, #0
 5506 0120 083094E5 		ldr	r3, [r4, #8]
 5507 0124 58208DE5 		str	r2, [sp, #88]
 5508 0128 042094E5 		ldr	r2, [r4, #4]
 5509 012c 5C308DE5 		str	r3, [sp, #92]
 5510 0130 103094E5 		ldr	r3, [r4, #16]
 5511 0134 3C208DE5 		str	r2, [sp, #60]
 5512 0138 60308DE5 		str	r3, [sp, #96]
 5513 013c 143094E5 		ldr	r3, [r4, #20]
 5514 0140 68308DE5 		str	r3, [sp, #104]
 5515 0144 183094E5 		ldr	r3, [r4, #24]
 5516 0148 0320A0E1 		mov	r2, r3
 5517 014c 10308DE5 		str	r3, [sp, #16]
 5518 0150 B60E00DA 		ble	.L1545
 5519 0154 D8329DE5 		ldr	r3, [sp, #728]
 5520 0158 00A0A0E3 		mov	r10, #0
 5521 015c 830BDFED 		vldr.64	d16, .L2274	@ int
 5522 0160 ACB08DE5 		str	fp, [sp, #172]
 5523 0164 0370A0E1 		mov	r7, r3
 5524 0168 40308DE5 		str	r3, [sp, #64]
 5525 016c 003068E2 		rsb	r3, r8, #0
 5526 0170 B0508DE5 		str	r5, [sp, #176]
 5527 0174 0310A0E1 		mov	r1, r3
 5528 0178 6C308DE5 		str	r3, [sp, #108]
 5529 017c DC329DE5 		ldr	r3, [sp, #732]
 5530 0180 901B02EE 		vmov.32	d18[0], r1
 5531 0184 03C0A0E1 		mov	ip, r3
 5532 0188 2C308DE5 		str	r3, [sp, #44]
 5533 018c 04339DE5 		ldr	r3, [sp, #772]
 5534 0190 A01472F3 		vshl.u64	d17, d16, d18
 5535 0194 03E0A0E1 		mov	lr, r3
 5536 0198 88308DE5 		str	r3, [sp, #136]
 5537 019c 003062E2 		rsb	r3, r2, #0
 5538 01a0 0300A0E1 		mov	r0, r3
 5539 01a4 78308DE5 		str	r3, [sp, #120]
 5540 01a8 E0329DE5 		ldr	r3, [sp, #736]
 5541 01ac 0340A0E1 		mov	r4, r3
 5542 01b0 1C308DE5 		str	r3, [sp, #28]
 5543 01b4 312B53EC 		vmov	r2, r3, d17	@ int
 5544 01b8 900B01EE 		vmov.32	d17[0], r0
 5545 01bc 013042E2 		sub	r3, r2, #1
 5546 01c0 0390A0E1 		mov	r9, r3
 5547 01c4 70308DE5 		str	r3, [sp, #112]
 5548 01c8 A00471F3 		vshl.u64	d16, d16, d17
 5549 01cc 9C0702E0 		mul	r2, ip, r7
 5550 01d0 300B51EC 		vmov	r0, r1, d16	@ int
 5551 01d4 C910A0E1 		asr	r1, r9, #1
 5552 01d8 013040E2 		sub	r3, r0, #1
 5553 01dc 940202E0 		mul	r2, r4, r2
 5554 01e0 0370A0E1 		mov	r7, r3
 5555 01e4 7C308DE5 		str	r3, [sp, #124]
 5556 01e8 8E308EE0 		add	r3, lr, lr, lsl #1
 5557 01ec 74108DE5 		str	r1, [sp, #116]
 5558 01f0 C710A0E1 		asr	r1, r7, #1
 5559 01f4 0E00A0E1 		mov	r0, lr
 5560 01f8 033086E0 		add	r3, r6, r3
 5561 01fc C4208DE5 		str	r2, [sp, #196]
 5562 0200 B4308DE5 		str	r3, [sp, #180]
 5563 0204 0A90A0E1 		mov	r9, r10
 5564 0208 E8329DE5 		ldr	r3, [sp, #744]
 5565 020c 80108DE5 		str	r1, [sp, #128]
 5566 0210 940C01E0 		mul	r1, r4, ip
 5567 0214 30308DE5 		str	r3, [sp, #48]
 5568 0218 EC329DE5 		ldr	r3, [sp, #748]
 5569 021c C0108DE5 		str	r1, [sp, #192]
 5570 0220 001140E0 		sub	r1, r0, r0, lsl #2
 5571 0224 34308DE5 		str	r3, [sp, #52]
 5572 0228 F0329DE5 		ldr	r3, [sp, #752]
 5573 022c 4C108DE5 		str	r1, [sp, #76]
 5574 0230 D4129DE5 		ldr	r1, [sp, #724]
 5575 0234 38308DE5 		str	r3, [sp, #56]
 5576 0238 F4329DE5 		ldr	r3, [sp, #756]
 5577 023c 20108DE5 		str	r1, [sp, #32]
 5578 0240 44308DE5 		str	r3, [sp, #68]
 5579 0244 FC329DE5 		ldr	r3, [sp, #764]
 5580 0248 B8308DE5 		str	r3, [sp, #184]
 5581 024c 00339DE5 		ldr	r3, [sp, #768]
 5582 0250 08808DE5 		str	r8, [sp, #8]
 5583 0254 98308DE5 		str	r3, [sp, #152]
 5584 0258 08339DE5 		ldr	r3, [sp, #776]
 5585 025c 48308DE5 		str	r3, [sp, #72]
 5586 0260 0C339DE5 		ldr	r3, [sp, #780]
 5587 0264 50308DE5 		str	r3, [sp, #80]
 5588 0268 10339DE5 		ldr	r3, [sp, #784]
 5589 026c 54308DE5 		str	r3, [sp, #84]
 5590 0270 14339DE5 		ldr	r3, [sp, #788]
 5591 0274 64308DE5 		str	r3, [sp, #100]
 5592 0278 1C339DE5 		ldr	r3, [sp, #796]
 5593 027c BC308DE5 		str	r3, [sp, #188]
 5594 0280 20339DE5 		ldr	r3, [sp, #800]
 5595 0284 9C308DE5 		str	r3, [sp, #156]
 5596 0288 24339DE5 		ldr	r3, [sp, #804]
 5597 028c 84308DE5 		str	r3, [sp, #132]
 5598 0290 18339DE5 		ldr	r3, [sp, #792]
 5599 0294 C8308DE5 		str	r3, [sp, #200]
 5600 0298 F8329DE5 		ldr	r3, [sp, #760]
 5601 029c CC308DE5 		str	r3, [sp, #204]
 5602              	.L1546:
 5603 02a0 28309DE5 		ldr	r3, [sp, #40]
 5604 02a4 050053E3 		cmp	r3, #5
 5605 02a8 20309DE5 		ldr	r3, [sp, #32]
 5606 02ac 003093C5 		ldrgt	r3, [r3]
 5607 02b0 030059E1 		cmp	r9, r3
 5608 02b4 28309DE5 		ldr	r3, [sp, #40]
 5609 02b8 430D00AA 		bge	.L1548
 5610 02bc 010053E3 		cmp	r3, #1
 5611 02c0 590E000A 		beq	.L1549
 5612 02c4 B4309DE5 		ldr	r3, [sp, #180]
 5613 02c8 00B0A0E3 		mov	fp, #0
 5614 02cc 09A0A0E1 		mov	r10, r9
 5615 02d0 A8308DE5 		str	r3, [sp, #168]
 5616 02d4 B0309DE5 		ldr	r3, [sp, #176]
 5617 02d8 A4308DE5 		str	r3, [sp, #164]
 5618 02dc AC309DE5 		ldr	r3, [sp, #172]
 5619 02e0 A0308DE5 		str	r3, [sp, #160]
 5620              	.L1550:
 5621 02e4 28309DE5 		ldr	r3, [sp, #40]
 5622 02e8 050053E3 		cmp	r3, #5
 5623 02ec 20309DC5 		ldrgt	r3, [sp, #32]
 5624 02f0 40309DD5 		ldrle	r3, [sp, #64]
 5625 02f4 043093C5 		ldrgt	r3, [r3, #4]
 5626 02f8 0B0053E1 		cmp	r3, fp
 5627 02fc 970D00DA 		ble	.L1552
 5628 0300 28309DE5 		ldr	r3, [sp, #40]
 5629 0304 020053E3 		cmp	r3, #2
 5630 0308 5C0F000A 		beq	.L1553
 5631 030c A8309DE5 		ldr	r3, [sp, #168]
 5632 0310 0070A0E3 		mov	r7, #0
 5633 0314 94308DE5 		str	r3, [sp, #148]
 5634 0318 A4309DE5 		ldr	r3, [sp, #164]
 5635 031c 90308DE5 		str	r3, [sp, #144]
 5636 0320 A0309DE5 		ldr	r3, [sp, #160]
 5637 0324 8C308DE5 		str	r3, [sp, #140]
 5638              	.L1554:
 5639 0328 28309DE5 		ldr	r3, [sp, #40]
 5640 032c 050053E3 		cmp	r3, #5
 5641 0330 20309DC5 		ldrgt	r3, [sp, #32]
 5642 0334 2C309DD5 		ldrle	r3, [sp, #44]
 5643 0338 083093C5 		ldrgt	r3, [r3, #8]
 5644 033c 030057E1 		cmp	r7, r3
 5645 0340 AF0C00AA 		bge	.L1556
 5646 0344 28309DE5 		ldr	r3, [sp, #40]
 5647 0348 030053E3 		cmp	r3, #3
 5648 034c 350D000A 		beq	.L1557
 5649 0350 050053E3 		cmp	r3, #5
 5650 0354 8C309DE5 		ldr	r3, [sp, #140]
 5651 0358 94009DE5 		ldr	r0, [sp, #148]
 5652 035c 0010A0E3 		mov	r1, #0
 5653 0360 90C09DE5 		ldr	ip, [sp, #144]
 5654 0364 00308DE5 		str	r3, [sp]
 5655 0368 8B0000DA 		ble	.L1731
 5656 036c BE0400EA 		b	.L2195
 5657              	.L2275:
 5658              		.align	3
 5659              	.L2274:
 5660 0370 01000000 		.word	1
 5661 0374 00000000 		.word	0
 5662              	.L1634:
 5663 0378 30309DE5 		ldr	r3, [sp, #48]
 5664 037c 03005AE1 		cmp	r10, r3
 5665 0380 9E0C00AA 		bge	.L2196
 5666 0384 34309DE5 		ldr	r3, [sp, #52]
 5667 0388 0B0053E1 		cmp	r3, fp
 5668 038c 9A0C00DA 		ble	.L2197
 5669 0390 38309DE5 		ldr	r3, [sp, #56]
 5670 0394 030057E1 		cmp	r7, r3
 5671 0398 960C00AA 		bge	.L2198
 5672 039c 44309DE5 		ldr	r3, [sp, #68]
 5673 03a0 010053E1 		cmp	r3, r1
 5674 03a4 920C00DA 		ble	.L2199
 5675 03a8 4C309DE5 		ldr	r3, [sp, #76]
 5676 03ac 00F0D0F5 		pld	[r0]
 5677 03b0 D36090E1 		ldrsb	r6, [r0, r3]
 5678 03b4 48309DE5 		ldr	r3, [sp, #72]
 5679 03b8 03005AE1 		cmp	r10, r3
 5680 03bc 3C309DE5 		ldr	r3, [sp, #60]
 5681 03c0 036086E0 		add	r6, r6, r3
 5682 03c4 890C00AA 		bge	.L2200
 5683 03c8 50309DE5 		ldr	r3, [sp, #80]
 5684 03cc 0B0053E1 		cmp	r3, fp
 5685 03d0 850C00DA 		ble	.L2201
 5686 03d4 54309DE5 		ldr	r3, [sp, #84]
 5687 03d8 030057E1 		cmp	r7, r3
 5688 03dc 810C00AA 		bge	.L2202
 5689 03e0 64309DE5 		ldr	r3, [sp, #100]
 5690 03e4 010053E1 		cmp	r3, r1
 5691 03e8 7D0C00DA 		ble	.L2203
 5692 03ec 58309DE5 		ldr	r3, [sp, #88]
 5693 03f0 5C209DE5 		ldr	r2, [sp, #92]
 5694 03f4 D0E0DCE1 		ldrsb	lr, [ip]
 5695 03f8 1663A0E1 		lsl	r6, r6, r3
 5696 03fc 9642C5E0 		smull	r4, r5, r6, r2
 5697 0400 060052E1 		cmp	r2, r6
 5698 0404 02015603 		cmpeq	r6, #-2147483648
 5699 0408 60209DE5 		ldr	r2, [sp, #96]
 5700 040c 0160A003 		moveq	r6, #1
 5701 0410 0060A013 		movne	r6, #0
 5702 0414 02E08EE0 		add	lr, lr, r2
 5703 0418 000054E3 		cmp	r4, #0
 5704 041c 1EE3A0E1 		lsl	lr, lr, r3
 5705 0420 0030D5E2 		sbcs	r3, r5, #0
 5706 0424 0121A0A3 		movge	r2, #1073741824
 5707 0428 0030A0A3 		movge	r3, #0
 5708 042c 0721A0B3 		movlt	r2, #-1073741823
 5709 0430 0030E0B3 		mvnlt	r3, #0
 5710 0434 000056E3 		cmp	r6, #0
 5711 0438 0261E013 		mvnne	r6, #-2147483648
 5712 043c 0900001A 		bne	.L1569
 5713 0440 024094E0 		adds	r4, r4, r2
 5714 0444 0350A5E0 		adc	r5, r5, r3
 5715 0448 0030A0E3 		mov	r3, #0
 5716 044c C52FA0E1 		asr	r2, r5, #31
 5717 0450 0221C2E3 		bic	r2, r2, #-2147483648
 5718 0454 042092E0 		adds	r2, r2, r4
 5719 0458 A22FA0E1 		lsr	r2, r2, #31
 5720 045c 0530A3E0 		adc	r3, r3, r5
 5721 0460 832082E1 		orr	r2, r2, r3, lsl #1
 5722 0464 0260A0E1 		mov	r6, r2
 5723              	.L1569:
 5724 0468 08309DE5 		ldr	r3, [sp, #8]
 5725 046c 000053E3 		cmp	r3, #0
 5726 0470 1E0D00CA 		bgt	.L2204
 5727 0474 1F0073E3 		cmn	r3, #31
 5728 0478 140D00BA 		blt	.L2205
 5729 047c 74309DE5 		ldr	r3, [sp, #116]
 5730 0480 68209DE5 		ldr	r2, [sp, #104]
 5731 0484 70409DE5 		ldr	r4, [sp, #112]
 5732 0488 A65F83E0 		add	r5, r3, r6, lsr #31
 5733 048c 6C309DE5 		ldr	r3, [sp, #108]
 5734 0490 9E82C9E0 		smull	r8, r9, lr, r2
 5735 0494 0E0052E1 		cmp	r2, lr
 5736 0498 02015E03 		cmpeq	lr, #-2147483648
 5737 049c 01E0A003 		moveq	lr, #1
 5738 04a0 00E0A013 		movne	lr, #0
 5739 04a4 5633A0E1 		asr	r3, r6, r3
 5740 04a8 046006E0 		and	r6, r6, r4
 5741 04ac 050056E1 		cmp	r6, r5
 5742 04b0 0360A0D1 		movle	r6, r3
 5743 04b4 016083C2 		addgt	r6, r3, #1
 5744 04b8 000058E3 		cmp	r8, #0
 5745 04bc 0030D9E2 		sbcs	r3, r9, #0
 5746 04c0 0141A0A3 		movge	r4, #1073741824
 5747 04c4 0050A0A3 		movge	r5, #0
 5748 04c8 0741A0B3 		movlt	r4, #-1073741823
 5749 04cc 0050E0B3 		mvnlt	r5, #0
 5750 04d0 00005EE3 		cmp	lr, #0
 5751 04d4 0221E013 		mvnne	r2, #-2147483648
 5752 04d8 0800001A 		bne	.L1573
 5753 04dc 084094E0 		adds	r4, r4, r8
 5754 04e0 0030A0E3 		mov	r3, #0
 5755 04e4 0950A5E0 		adc	r5, r5, r9
 5756 04e8 C52FA0E1 		asr	r2, r5, #31
 5757 04ec 0221C2E3 		bic	r2, r2, #-2147483648
 5758 04f0 042092E0 		adds	r2, r2, r4
 5759 04f4 A22FA0E1 		lsr	r2, r2, #31
 5760 04f8 0530A3E0 		adc	r3, r3, r5
 5761 04fc 832082E1 		orr	r2, r2, r3, lsl #1
 5762              	.L1573:
 5763 0500 10309DE5 		ldr	r3, [sp, #16]
 5764 0504 000053E3 		cmp	r3, #0
 5765 0508 E80C00CA 		bgt	.L2206
 5766 050c 1F0073E3 		cmn	r3, #31
 5767 0510 DE0C00BA 		blt	.L2207
 5768 0514 80309DE5 		ldr	r3, [sp, #128]
 5769 0518 7C409DE5 		ldr	r4, [sp, #124]
 5770 051c A2EF83E0 		add	lr, r3, r2, lsr #31
 5771 0520 78309DE5 		ldr	r3, [sp, #120]
 5772 0524 5233A0E1 		asr	r3, r2, r3
 5773 0528 042002E0 		and	r2, r2, r4
 5774 052c 0E0052E1 		cmp	r2, lr
 5775 0530 0320A0D1 		movle	r2, r3
 5776 0534 012083C2 		addgt	r2, r3, #1
 5777 0538 28309DE5 		ldr	r3, [sp, #40]
 5778 053c 040053E3 		cmp	r3, #4
 5779 0540 B70C001A 		bne	.L2208
 5780 0544 20309DE5 		ldr	r3, [sp, #32]
 5781 0548 03005AE1 		cmp	r10, r3
 5782 054c 230C00AA 		bge	.L2209
 5783 0550 40309DE5 		ldr	r3, [sp, #64]
 5784 0554 0B0053E1 		cmp	r3, fp
 5785 0558 1F0C00DA 		ble	.L2210
 5786 055c 2C309DE5 		ldr	r3, [sp, #44]
 5787 0560 030057E1 		cmp	r7, r3
 5788 0564 1B0C00AA 		bge	.L2211
 5789 0568 1C309DE5 		ldr	r3, [sp, #28]
 5790 056c 010053E1 		cmp	r3, r1
 5791 0570 84309DE5 		ldr	r3, [sp, #132]
 5792 0574 03C08CE0 		add	ip, ip, r3
 5793 0578 88309DE5 		ldr	r3, [sp, #136]
 5794 057c 030080E0 		add	r0, r0, r3
 5795 0580 0C0C00DA 		ble	.L2212
 5796 0584 00309DE5 		ldr	r3, [sp]
 5797 0588 022056E0 		subs	r2, r6, r2
 5798 058c 011081E2 		add	r1, r1, #1
 5799 0590 0120A013 		movne	r2, #1
 5800 0594 0120C3E4 		strb	r2, [r3], #1
 5801 0598 00308DE5 		str	r3, [sp]
 5802              	.L1731:
 5803 059c 1C309DE5 		ldr	r3, [sp, #28]
 5804              	.L1559:
 5805 05a0 030051E1 		cmp	r1, r3
 5806 05a4 73FFFFBA 		blt	.L1634
 5807 05a8 8C309DE5 		ldr	r3, [sp, #140]
 5808 05ac 017087E2 		add	r7, r7, #1
 5809 05b0 1C209DE5 		ldr	r2, [sp, #28]
 5810 05b4 023083E0 		add	r3, r3, r2
 5811 05b8 9C209DE5 		ldr	r2, [sp, #156]
 5812 05bc 8C308DE5 		str	r3, [sp, #140]
 5813 05c0 90309DE5 		ldr	r3, [sp, #144]
 5814 05c4 023083E0 		add	r3, r3, r2
 5815 05c8 98209DE5 		ldr	r2, [sp, #152]
 5816 05cc 90308DE5 		str	r3, [sp, #144]
 5817 05d0 94309DE5 		ldr	r3, [sp, #148]
 5818 05d4 023083E0 		add	r3, r3, r2
 5819 05d8 94308DE5 		str	r3, [sp, #148]
 5820 05dc 51FFFFEA 		b	.L1554
 5821              	.L1187:
 5822 05e0 000050E3 		cmp	r0, #0
 5823 05e4 2E05000A 		beq	.L1282
 5824 05e8 000055E3 		cmp	r5, #0
 5825 05ec 004097E5 		ldr	r4, [r7]
 5826 05f0 A00E000A 		beq	.L2213
 5827 05f4 013C8DE2 		add	r3, sp, #256
 5828 05f8 E8208DE2 		add	r2, sp, #232
 5829 05fc D0108DE2 		add	r1, sp, #208
 5830 0600 170E8DE2 		add	r0, sp, #368
 5831 0604 005095E5 		ldr	r5, [r5]
 5832 0608 FEFFFFEB 		bl	_ZN6tflite13reference_ops35BroadcastComparison4DSlowPreprocessERKNS_12RuntimeShapeES3_S3_
 5833 060c 70A19DE5 		ldr	r10, [sp, #368]
 5834 0610 00005AE3 		cmp	r10, #0
 5835 0614 B30D00DA 		ble	.L1284
 5836 0618 B8319DE5 		ldr	r3, [sp, #440]
 5837 061c 00C0A0E3 		mov	ip, #0
 5838 0620 98219DE5 		ldr	r2, [sp, #408]
 5839 0624 7C619DE5 		ldr	r6, [sp, #380]
 5840 0628 78719DE5 		ldr	r7, [sp, #376]
 5841 062c BCE19DE5 		ldr	lr, [sp, #444]
 5842 0630 0331A0E1 		lsl	r3, r3, #2
 5843 0634 68408DE5 		str	r4, [sp, #104]
 5844 0638 78308DE5 		str	r3, [sp, #120]
 5845 063c 0231A0E1 		lsl	r3, r2, #2
 5846 0640 9C419DE5 		ldr	r4, [sp, #412]
 5847 0644 960700E0 		mul	r0, r6, r7
 5848 0648 60508DE5 		str	r5, [sp, #96]
 5849 064c 64B08DE5 		str	fp, [sp, #100]
 5850 0650 C0519DE5 		ldr	r5, [sp, #448]
 5851 0654 80B19DE5 		ldr	fp, [sp, #384]
 5852 0658 80308DE5 		str	r3, [sp, #128]
 5853 065c 0E31A0E1 		lsl	r3, lr, #2
 5854 0660 A4119DE5 		ldr	r1, [sp, #420]
 5855 0664 6C308DE5 		str	r3, [sp, #108]
 5856 0668 0431A0E1 		lsl	r3, r4, #2
 5857 066c 9B0000E0 		mul	r0, fp, r0
 5858 0670 70308DE5 		str	r3, [sp, #112]
 5859 0674 0531A0E1 		lsl	r3, r5, #2
 5860 0678 0181A0E1 		lsl	r8, r1, #2
 5861 067c 811081E0 		add	r1, r1, r1, lsl #1
 5862 0680 50308DE5 		str	r3, [sp, #80]
 5863 0684 A0319DE5 		ldr	r3, [sp, #416]
 5864 0688 8111A0E1 		lsl	r1, r1, #3
 5865 068c 7C008DE5 		str	r0, [sp, #124]
 5866 0690 009068E2 		rsb	r9, r8, #0
 5867 0694 C4019DE5 		ldr	r0, [sp, #452]
 5868 0698 2C108DE5 		str	r1, [sp, #44]
 5869 069c 9B0601E0 		mul	r1, fp, r6
 5870 06a0 0331A0E1 		lsl	r3, r3, #2
 5871 06a4 20908DE5 		str	r9, [sp, #32]
 5872 06a8 74919DE5 		ldr	r9, [sp, #372]
 5873 06ac 4C308DE5 		str	r3, [sp, #76]
 5874 06b0 0031A0E1 		lsl	r3, r0, #2
 5875 06b4 74108DE5 		str	r1, [sp, #116]
 5876 06b8 30308DE5 		str	r3, [sp, #48]
 5877 06bc 88319DE5 		ldr	r3, [sp, #392]
 5878 06c0 00308DE5 		str	r3, [sp]
 5879 06c4 8C319DE5 		ldr	r3, [sp, #396]
 5880 06c8 08308DE5 		str	r3, [sp, #8]
 5881 06cc 90319DE5 		ldr	r3, [sp, #400]
 5882 06d0 10308DE5 		str	r3, [sp, #16]
 5883 06d4 94319DE5 		ldr	r3, [sp, #404]
 5884 06d8 1C308DE5 		str	r3, [sp, #28]
 5885 06dc A8319DE5 		ldr	r3, [sp, #424]
 5886 06e0 40308DE5 		str	r3, [sp, #64]
 5887 06e4 AC319DE5 		ldr	r3, [sp, #428]
 5888 06e8 44308DE5 		str	r3, [sp, #68]
 5889 06ec B0319DE5 		ldr	r3, [sp, #432]
 5890 06f0 48308DE5 		str	r3, [sp, #72]
 5891 06f4 B4319DE5 		ldr	r3, [sp, #436]
 5892 06f8 28308DE5 		str	r3, [sp, #40]
 5893 06fc 0830A0E1 		mov	r3, r8
 5894 0700 0680A0E1 		mov	r8, r6
 5895 0704 0360A0E1 		mov	r6, r3
 5896              	.L1285:
 5897 0708 05005AE3 		cmp	r10, #5
 5898 070c 003099C5 		ldrgt	r3, [r9]
 5899 0710 0930A0D1 		movle	r3, r9
 5900 0714 0C0053E1 		cmp	r3, ip
 5901 0718 C80B00DA 		ble	.L2058
 5902 071c 01005AE3 		cmp	r10, #1
 5903 0720 6F0D000A 		beq	.L2214
 5904 0724 68309DE5 		ldr	r3, [sp, #104]
 5905 0728 00E0A0E3 		mov	lr, #0
 5906 072c 54308DE5 		str	r3, [sp, #84]
 5907 0730 64309DE5 		ldr	r3, [sp, #100]
 5908 0734 5C308DE5 		str	r3, [sp, #92]
 5909 0738 60309DE5 		ldr	r3, [sp, #96]
 5910 073c 58308DE5 		str	r3, [sp, #88]
 5911              	.L1288:
 5912 0740 05005AE3 		cmp	r10, #5
 5913 0744 043099C5 		ldrgt	r3, [r9, #4]
 5914 0748 0730A0D1 		movle	r3, r7
 5915 074c 0E0053E1 		cmp	r3, lr
 5916 0750 B40C00DA 		ble	.L1290
 5917 0754 02005AE3 		cmp	r10, #2
 5918 0758 630D000A 		beq	.L2215
 5919 075c 54309DE5 		ldr	r3, [sp, #84]
 5920 0760 0000A0E3 		mov	r0, #0
 5921 0764 34308DE5 		str	r3, [sp, #52]
 5922 0768 5C309DE5 		ldr	r3, [sp, #92]
 5923 076c 38308DE5 		str	r3, [sp, #56]
 5924 0770 58309DE5 		ldr	r3, [sp, #88]
 5925 0774 3C308DE5 		str	r3, [sp, #60]
 5926              	.L1291:
 5927 0778 05005AE3 		cmp	r10, #5
 5928 077c 083099C5 		ldrgt	r3, [r9, #8]
 5929 0780 0830A0D1 		movle	r3, r8
 5930 0784 030050E1 		cmp	r0, r3
 5931 0788 B30B00AA 		bge	.L1293
 5932 078c 03005AE3 		cmp	r10, #3
 5933 0790 0A0C000A 		beq	.L1294
 5934 0794 05005AE3 		cmp	r10, #5
 5935 0798 48309DE5 		ldr	r3, [sp, #72]
 5936 079c C40300CA 		bgt	.L1295
 5937 07a0 030050E1 		cmp	r0, r3
 5938 07a4 44309DE5 		ldr	r3, [sp, #68]
 5939 07a8 A90D00AA 		bge	.L2216
 5940 07ac 0E0053E1 		cmp	r3, lr
 5941 07b0 40309DE5 		ldr	r3, [sp, #64]
 5942 07b4 DA0D00DA 		ble	.L2180
 5943 07b8 0C0053E1 		cmp	r3, ip
 5944 07bc C10D00DA 		ble	.L2164
 5945 07c0 34209DE5 		ldr	r2, [sp, #52]
 5946 07c4 0030A0E3 		mov	r3, #0
 5947 07c8 38409DE5 		ldr	r4, [sp, #56]
 5948 07cc 3C109DE5 		ldr	r1, [sp, #60]
 5949 07d0 250000EA 		b	.L1314
 5950              	.L2217:
 5951 07d4 04005AE3 		cmp	r10, #4
 5952 07d8 B803001A 		bne	.L1300
 5953 07dc 0C0059E1 		cmp	r9, ip
 5954 07e0 570B00DA 		ble	.L1301
 5955 07e4 0E0057E1 		cmp	r7, lr
 5956 07e8 560B00DA 		ble	.L1302
 5957 07ec 080050E1 		cmp	r0, r8
 5958 07f0 520B00AA 		bge	.L1303
 5959 07f4 00509DE5 		ldr	r5, [sp]
 5960 07f8 0C0055E1 		cmp	r5, ip
 5961 07fc 4E0B00DA 		ble	.L1304
 5962 0800 08509DE5 		ldr	r5, [sp, #8]
 5963 0804 0E0055E1 		cmp	r5, lr
 5964 0808 4A0B00DA 		ble	.L1305
 5965 080c 10509DE5 		ldr	r5, [sp, #16]
 5966 0810 050050E1 		cmp	r0, r5
 5967 0814 460B00AA 		bge	.L1306
 5968 0818 1C509DE5 		ldr	r5, [sp, #28]
 5969 081c 050053E1 		cmp	r3, r5
 5970 0820 420B00AA 		bge	.L1308
 5971 0824 2C509DE5 		ldr	r5, [sp, #44]
 5972 0828 05F0D2F7 		pld	[r2, r5]
 5973 082c 062082E0 		add	r2, r2, r6
 5974 0830 28509DE5 		ldr	r5, [sp, #40]
 5975 0834 050053E1 		cmp	r3, r5
 5976 0838 20509DE5 		ldr	r5, [sp, #32]
 5977 083c 055082E0 		add	r5, r2, r5
 5978 0840 007AD5ED 		vldr.32	s15, [r5]
 5979 0844 380B00AA 		bge	.L1315
 5980 0848 007A91ED 		vldr.32	s14, [r1]
 5981 084c 013083E2 		add	r3, r3, #1
 5982 0850 30509DE5 		ldr	r5, [sp, #48]
 5983 0854 677AB4EE 		vcmp.f32	s14, s15
 5984 0858 051081E0 		add	r1, r1, r5
 5985 085c 10FAF1EE 		vmrs	APSR_nzcv, FPSCR
 5986 0860 0150A013 		movne	r5, #1
 5987 0864 0050A003 		moveq	r5, #0
 5988 0868 0150C4E4 		strb	r5, [r4], #1
 5989              	.L1314:
 5990 086c 0B0053E1 		cmp	r3, fp
 5991 0870 D7FFFFBA 		blt	.L2217
 5992              	.L1299:
 5993 0874 3C309DE5 		ldr	r3, [sp, #60]
 5994 0878 010080E2 		add	r0, r0, #1
 5995 087c 50209DE5 		ldr	r2, [sp, #80]
 5996 0880 023083E0 		add	r3, r3, r2
 5997 0884 4C209DE5 		ldr	r2, [sp, #76]
 5998 0888 3C308DE5 		str	r3, [sp, #60]
 5999 088c 38309DE5 		ldr	r3, [sp, #56]
 6000 0890 0B3083E0 		add	r3, r3, fp
 6001 0894 38308DE5 		str	r3, [sp, #56]
 6002 0898 34309DE5 		ldr	r3, [sp, #52]
 6003 089c 023083E0 		add	r3, r3, r2
 6004 08a0 34308DE5 		str	r3, [sp, #52]
 6005 08a4 B3FFFFEA 		b	.L1291
 6006              	.L1189:
 6007 08a8 000050E3 		cmp	r0, #0
 6008 08ac 8403000A 		beq	.L1359
 6009 08b0 000055E3 		cmp	r5, #0
 6010 08b4 004097E5 		ldr	r4, [r7]
 6011 08b8 0C0D000A 		beq	.L2218
 6012 08bc 013C8DE2 		add	r3, sp, #256
 6013 08c0 E8208DE2 		add	r2, sp, #232
 6014 08c4 D0108DE2 		add	r1, sp, #208
 6015 08c8 720F8DE2 		add	r0, sp, #456
 6016 08cc 005095E5 		ldr	r5, [r5]
 6017 08d0 FEFFFFEB 		bl	_ZN6tflite13reference_ops35BroadcastComparison4DSlowPreprocessERKNS_12RuntimeShapeES3_S3_
 6018 08d4 C8919DE5 		ldr	r9, [sp, #456]
 6019 08d8 000059E3 		cmp	r9, #0
 6020 08dc FF0C00DA 		ble	.L1361
 6021 08e0 10329DE5 		ldr	r3, [sp, #528]
 6022 08e4 0080A0E3 		mov	r8, #0
 6023 08e8 D4A19DE5 		ldr	r10, [sp, #468]
 6024 08ec 68B08DE5 		str	fp, [sp, #104]
 6025 08f0 D8B19DE5 		ldr	fp, [sp, #472]
 6026 08f4 0331A0E1 		lsl	r3, r3, #2
 6027 08f8 F0E19DE5 		ldr	lr, [sp, #496]
 6028 08fc 64508DE5 		str	r5, [sp, #100]
 6029 0900 7C308DE5 		str	r3, [sp, #124]
 6030 0904 9B0A03E0 		mul	r3, fp, r10
 6031 0908 14529DE5 		ldr	r5, [sp, #532]
 6032 090c 1CC29DE5 		ldr	ip, [sp, #540]
 6033 0910 FC019DE5 		ldr	r0, [sp, #508]
 6034 0914 D0619DE5 		ldr	r6, [sp, #464]
 6035 0918 74308DE5 		str	r3, [sp, #116]
 6036 091c 0E31A0E1 		lsl	r3, lr, #2
 6037 0920 0CC1A0E1 		lsl	ip, ip, #2
 6038 0924 84308DE5 		str	r3, [sp, #132]
 6039 0928 0531A0E1 		lsl	r3, r5, #2
 6040 092c 08C08DE5 		str	ip, [sp, #8]
 6041 0930 0011A0E1 		lsl	r1, r0, #2
 6042 0934 70308DE5 		str	r3, [sp, #112]
 6043 0938 9A0602E0 		mul	r2, r10, r6
 6044 093c F4319DE5 		ldr	r3, [sp, #500]
 6045 0940 0170A0E1 		mov	r7, r1
 6046 0944 18C29DE5 		ldr	ip, [sp, #536]
 6047 0948 30108DE5 		str	r1, [sp, #48]
 6048 094c 801080E0 		add	r1, r0, r0, lsl #1
 6049 0950 070040E0 		sub	r0, r0, r7
 6050 0954 0331A0E1 		lsl	r3, r3, #2
 6051 0958 811184E0 		add	r1, r4, r1, lsl #3
 6052 095c 8001A0E1 		lsl	r0, r0, #3
 6053 0960 78308DE5 		str	r3, [sp, #120]
 6054 0964 0C31A0E1 		lsl	r3, ip, #2
 6055 0968 6C108DE5 		str	r1, [sp, #108]
 6056 096c 9B0201E0 		mul	r1, fp, r2
 6057 0970 50308DE5 		str	r3, [sp, #80]
 6058 0974 F8319DE5 		ldr	r3, [sp, #504]
 6059 0978 08209DE5 		ldr	r2, [sp, #8]
 6060 097c 34008DE5 		str	r0, [sp, #52]
 6061 0980 80108DE5 		str	r1, [sp, #128]
 6062 0984 0331A0E1 		lsl	r3, r3, #2
 6063 0988 007062E2 		rsb	r7, r2, #0
 6064 098c CC219DE5 		ldr	r2, [sp, #460]
 6065 0990 54308DE5 		str	r3, [sp, #84]
 6066 0994 E0319DE5 		ldr	r3, [sp, #480]
 6067 0998 10308DE5 		str	r3, [sp, #16]
 6068 099c E4319DE5 		ldr	r3, [sp, #484]
 6069 09a0 1C308DE5 		str	r3, [sp, #28]
 6070 09a4 E8319DE5 		ldr	r3, [sp, #488]
 6071 09a8 20308DE5 		str	r3, [sp, #32]
 6072 09ac EC319DE5 		ldr	r3, [sp, #492]
 6073 09b0 28308DE5 		str	r3, [sp, #40]
 6074 09b4 00329DE5 		ldr	r3, [sp, #512]
 6075 09b8 44308DE5 		str	r3, [sp, #68]
 6076 09bc 04329DE5 		ldr	r3, [sp, #516]
 6077 09c0 48308DE5 		str	r3, [sp, #72]
 6078 09c4 08329DE5 		ldr	r3, [sp, #520]
 6079 09c8 4C308DE5 		str	r3, [sp, #76]
 6080 09cc 0C329DE5 		ldr	r3, [sp, #524]
 6081 09d0 2C308DE5 		str	r3, [sp, #44]
 6082              	.L1362:
 6083 09d4 050059E3 		cmp	r9, #5
 6084 09d8 003092C5 		ldrgt	r3, [r2]
 6085 09dc 0230A0D1 		movle	r3, r2
 6086 09e0 030058E1 		cmp	r8, r3
 6087 09e4 080C00AA 		bge	.L1364
 6088 09e8 010059E3 		cmp	r9, #1
 6089 09ec 170D000A 		beq	.L2219
 6090 09f0 6C309DE5 		ldr	r3, [sp, #108]
 6091 09f4 0040A0E3 		mov	r4, #0
 6092 09f8 0610A0E1 		mov	r1, r6
 6093 09fc 60308DE5 		str	r3, [sp, #96]
 6094 0a00 68309DE5 		ldr	r3, [sp, #104]
 6095 0a04 5C308DE5 		str	r3, [sp, #92]
 6096 0a08 64309DE5 		ldr	r3, [sp, #100]
 6097 0a0c 58308DE5 		str	r3, [sp, #88]
 6098              	.L1365:
 6099 0a10 050059E3 		cmp	r9, #5
 6100 0a14 043092C5 		ldrgt	r3, [r2, #4]
 6101 0a18 0130A0D1 		movle	r3, r1
 6102 0a1c 030054E1 		cmp	r4, r3
 6103 0a20 EA0B00AA 		bge	.L1367
 6104 0a24 020059E3 		cmp	r9, #2
 6105 0a28 250D000A 		beq	.L2220
 6106 0a2c 60309DE5 		ldr	r3, [sp, #96]
 6107 0a30 00E0A0E3 		mov	lr, #0
 6108 0a34 00108DE5 		str	r1, [sp]
 6109 0a38 40308DE5 		str	r3, [sp, #64]
 6110 0a3c 5C309DE5 		ldr	r3, [sp, #92]
 6111 0a40 3C308DE5 		str	r3, [sp, #60]
 6112 0a44 58309DE5 		ldr	r3, [sp, #88]
 6113 0a48 38308DE5 		str	r3, [sp, #56]
 6114              	.L1368:
 6115 0a4c 050059E3 		cmp	r9, #5
 6116 0a50 083092C5 		ldrgt	r3, [r2, #8]
 6117 0a54 0A30A0D1 		movle	r3, r10
 6118 0a58 03005EE1 		cmp	lr, r3
 6119 0a5c 1A0B00AA 		bge	.L1370
 6120 0a60 030059E3 		cmp	r9, #3
 6121 0a64 570B000A 		beq	.L1371
 6122 0a68 050059E3 		cmp	r9, #5
 6123 0a6c 4C309DE5 		ldr	r3, [sp, #76]
 6124 0a70 0B0300CA 		bgt	.L1372
 6125 0a74 03005EE1 		cmp	lr, r3
 6126 0a78 48309DE5 		ldr	r3, [sp, #72]
 6127 0a7c 4D0C00AA 		bge	.L2221
 6128 0a80 030054E1 		cmp	r4, r3
 6129 0a84 44309DE5 		ldr	r3, [sp, #68]
 6130 0a88 560D00AA 		bge	.L2182
 6131 0a8c 030058E1 		cmp	r8, r3
 6132 0a90 3C0D00AA 		bge	.L2169
 6133 0a94 38508DE2 		add	r5, sp, #56
 6134 0a98 0000A0E3 		mov	r0, #0
 6135 0a9c 601095E8 		ldm	r5, {r5, r6, ip}
 6136 0aa0 230000EA 		b	.L1391
 6137              	.L2222:
 6138 0aa4 040059E3 		cmp	r9, #4
 6139 0aa8 0003001A 		bne	.L1377
 6140 0aac 020058E1 		cmp	r8, r2
 6141 0ab0 9B0A00AA 		bge	.L1378
 6142 0ab4 00309DE5 		ldr	r3, [sp]
 6143 0ab8 030054E1 		cmp	r4, r3
 6144 0abc 990A00AA 		bge	.L1379
 6145 0ac0 0A005EE1 		cmp	lr, r10
 6146 0ac4 950A00AA 		bge	.L1380
 6147 0ac8 10309DE5 		ldr	r3, [sp, #16]
 6148 0acc 030058E1 		cmp	r8, r3
 6149 0ad0 910A00AA 		bge	.L1381
 6150 0ad4 1C309DE5 		ldr	r3, [sp, #28]
 6151 0ad8 030054E1 		cmp	r4, r3
 6152 0adc 8D0A00AA 		bge	.L1382
 6153 0ae0 20309DE5 		ldr	r3, [sp, #32]
 6154 0ae4 03005EE1 		cmp	lr, r3
 6155 0ae8 890A00AA 		bge	.L1383
 6156 0aec 28309DE5 		ldr	r3, [sp, #40]
 6157 0af0 000053E1 		cmp	r3, r0
 6158 0af4 850A00DA 		ble	.L1385
 6159 0af8 2C309DE5 		ldr	r3, [sp, #44]
 6160 0afc 00F0DCF5 		pld	[ip]
 6161 0b00 000053E1 		cmp	r3, r0
 6162 0b04 08309DE5 		ldr	r3, [sp, #8]
 6163 0b08 035085E0 		add	r5, r5, r3
 6164 0b0c 34309DE5 		ldr	r3, [sp, #52]
 6165 0b10 03109CE7 		ldr	r1, [ip, r3]
 6166 0b14 30309DE5 		ldr	r3, [sp, #48]
 6167 0b18 03C08CE0 		add	ip, ip, r3
 6168 0b1c 7A0A00DA 		ble	.L1392
 6169 0b20 073095E7 		ldr	r3, [r5, r7]
 6170 0b24 010080E2 		add	r0, r0, #1
 6171 0b28 013053E0 		subs	r3, r3, r1
 6172 0b2c 0130A013 		movne	r3, #1
 6173 0b30 0130C6E4 		strb	r3, [r6], #1
 6174              	.L1391:
 6175 0b34 00005BE1 		cmp	fp, r0
 6176 0b38 D9FFFFCA 		bgt	.L2222
 6177              	.L1376:
 6178 0b3c 38309DE5 		ldr	r3, [sp, #56]
 6179 0b40 01E08EE2 		add	lr, lr, #1
 6180 0b44 50109DE5 		ldr	r1, [sp, #80]
 6181 0b48 013083E0 		add	r3, r3, r1
 6182 0b4c 54109DE5 		ldr	r1, [sp, #84]
 6183 0b50 38308DE5 		str	r3, [sp, #56]
 6184 0b54 3C309DE5 		ldr	r3, [sp, #60]
 6185 0b58 0B3083E0 		add	r3, r3, fp
 6186 0b5c 3C308DE5 		str	r3, [sp, #60]
 6187 0b60 40309DE5 		ldr	r3, [sp, #64]
 6188 0b64 013083E0 		add	r3, r3, r1
 6189 0b68 40308DE5 		str	r3, [sp, #64]
 6190 0b6c B6FFFFEA 		b	.L1368
 6191              	.L1191:
 6192 0b70 000050E3 		cmp	r0, #0
 6193 0b74 4F06000A 		beq	.L1414
 6194 0b78 000055E3 		cmp	r5, #0
 6195 0b7c 004097E5 		ldr	r4, [r7]
 6196 0b80 5D0C000A 		beq	.L2223
 6197 0b84 013C8DE2 		add	r3, sp, #256
 6198 0b88 E8208DE2 		add	r2, sp, #232
 6199 0b8c D0108DE2 		add	r1, sp, #208
 6200 0b90 220E8DE2 		add	r0, sp, #544
 6201 0b94 005095E5 		ldr	r5, [r5]
 6202 0b98 FEFFFFEB 		bl	_ZN6tflite13reference_ops35BroadcastComparison4DSlowPreprocessERKNS_12RuntimeShapeES3_S3_
 6203 0b9c 20A29DE5 		ldr	r10, [sp, #544]
 6204 0ba0 00005AE3 		cmp	r10, #0
 6205 0ba4 520C00DA 		ble	.L1416
 6206 0ba8 28329DE5 		ldr	r3, [sp, #552]
 6207 0bac 0080A0E3 		mov	r8, #0
 6208 0bb0 54129DE5 		ldr	r1, [sp, #596]
 6209 0bb4 48229DE5 		ldr	r2, [sp, #584]
 6210 0bb8 0300A0E1 		mov	r0, r3
 6211 0bbc 10308DE5 		str	r3, [sp, #16]
 6212 0bc0 2C329DE5 		ldr	r3, [sp, #556]
 6213 0bc4 30C29DE5 		ldr	ip, [sp, #560]
 6214 0bc8 81E1A0E1 		lsl	lr, r1, #3
 6215 0bcc 6C629DE5 		ldr	r6, [sp, #620]
 6216 0bd0 811081E0 		add	r1, r1, r1, lsl #1
 6217 0bd4 0370A0E1 		mov	r7, r3
 6218 0bd8 08308DE5 		str	r3, [sp, #8]
 6219 0bdc 68329DE5 		ldr	r3, [sp, #616]
 6220 0be0 970000E0 		mul	r0, r7, r0
 6221 0be4 70508DE5 		str	r5, [sp, #112]
 6222 0be8 0E50A0E1 		mov	r5, lr
 6223 0bec 34E08DE5 		str	lr, [sp, #52]
 6224 0bf0 005065E2 		rsb	r5, r5, #0
 6225 0bf4 4CE29DE5 		ldr	lr, [sp, #588]
 6226 0bf8 0112A0E1 		lsl	r1, r1, #4
 6227 0bfc 8331A0E1 		lsl	r3, r3, #3
 6228 0c00 9C0000E0 		mul	r0, ip, r0
 6229 0c04 78408DE5 		str	r4, [sp, #120]
 6230 0c08 88308DE5 		str	r3, [sp, #136]
 6231 0c0c 8231A0E1 		lsl	r3, r2, #3
 6232 0c10 70429DE5 		ldr	r4, [sp, #624]
 6233 0c14 90308DE5 		str	r3, [sp, #144]
 6234 0c18 8631A0E1 		lsl	r3, r6, #3
 6235 0c1c 38508DE5 		str	r5, [sp, #56]
 6236 0c20 7C308DE5 		str	r3, [sp, #124]
 6237 0c24 8E31A0E1 		lsl	r3, lr, #3
 6238 0c28 50529DE5 		ldr	r5, [sp, #592]
 6239 0c2c 8C008DE5 		str	r0, [sp, #140]
 6240 0c30 84308DE5 		str	r3, [sp, #132]
 6241 0c34 8431A0E1 		lsl	r3, r4, #3
 6242 0c38 74029DE5 		ldr	r0, [sp, #628]
 6243 0c3c 5C308DE5 		str	r3, [sp, #92]
 6244 0c40 8531A0E1 		lsl	r3, r5, #3
 6245 0c44 3C108DE5 		str	r1, [sp, #60]
 6246 0c48 9C0701E0 		mul	r1, ip, r7
 6247 0c4c 60308DE5 		str	r3, [sp, #96]
 6248 0c50 8031A0E1 		lsl	r3, r0, #3
 6249 0c54 74B08DE5 		str	fp, [sp, #116]
 6250 0c58 24929DE5 		ldr	r9, [sp, #548]
 6251 0c5c 40308DE5 		str	r3, [sp, #64]
 6252 0c60 38329DE5 		ldr	r3, [sp, #568]
 6253 0c64 80108DE5 		str	r1, [sp, #128]
 6254 0c68 1C308DE5 		str	r3, [sp, #28]
 6255 0c6c 3C329DE5 		ldr	r3, [sp, #572]
 6256 0c70 20308DE5 		str	r3, [sp, #32]
 6257 0c74 40329DE5 		ldr	r3, [sp, #576]
 6258 0c78 28308DE5 		str	r3, [sp, #40]
 6259 0c7c 44329DE5 		ldr	r3, [sp, #580]
 6260 0c80 2C308DE5 		str	r3, [sp, #44]
 6261 0c84 58329DE5 		ldr	r3, [sp, #600]
 6262 0c88 50308DE5 		str	r3, [sp, #80]
 6263 0c8c 5C329DE5 		ldr	r3, [sp, #604]
 6264 0c90 54308DE5 		str	r3, [sp, #84]
 6265 0c94 60329DE5 		ldr	r3, [sp, #608]
 6266 0c98 58308DE5 		str	r3, [sp, #88]
 6267 0c9c 64329DE5 		ldr	r3, [sp, #612]
 6268 0ca0 30308DE5 		str	r3, [sp, #48]
 6269 0ca4 0C30A0E1 		mov	r3, ip
 6270 0ca8 0AC0A0E1 		mov	ip, r10
 6271 0cac 03A0A0E1 		mov	r10, r3
 6272              	.L1417:
 6273 0cb0 05005CE3 		cmp	ip, #5
 6274 0cb4 003099C5 		ldrgt	r3, [r9]
 6275 0cb8 0930A0D1 		movle	r3, r9
 6276 0cbc 030058E1 		cmp	r8, r3
 6277 0cc0 5D0A00AA 		bge	.L1419
 6278 0cc4 01005CE3 		cmp	ip, #1
 6279 0cc8 EB0C000A 		beq	.L2224
 6280 0ccc 78309DE5 		ldr	r3, [sp, #120]
 6281 0cd0 00B0A0E3 		mov	fp, #0
 6282 0cd4 6C308DE5 		str	r3, [sp, #108]
 6283 0cd8 74309DE5 		ldr	r3, [sp, #116]
 6284 0cdc 68308DE5 		str	r3, [sp, #104]
 6285 0ce0 70309DE5 		ldr	r3, [sp, #112]
 6286 0ce4 64308DE5 		str	r3, [sp, #100]
 6287              	.L1420:
 6288 0ce8 05005CE3 		cmp	ip, #5
 6289 0cec 043099C5 		ldrgt	r3, [r9, #4]
 6290 0cf0 10309DD5 		ldrle	r3, [sp, #16]
 6291 0cf4 03005BE1 		cmp	fp, r3
 6292 0cf8 0A0B00AA 		bge	.L1422
 6293 0cfc 02005CE3 		cmp	ip, #2
 6294 0d00 500C000A 		beq	.L2225
 6295 0d04 6C309DE5 		ldr	r3, [sp, #108]
 6296 0d08 00E0A0E3 		mov	lr, #0
 6297 0d0c 4C308DE5 		str	r3, [sp, #76]
 6298 0d10 68309DE5 		ldr	r3, [sp, #104]
 6299 0d14 48308DE5 		str	r3, [sp, #72]
 6300 0d18 64309DE5 		ldr	r3, [sp, #100]
 6301 0d1c 44308DE5 		str	r3, [sp, #68]
 6302              	.L1423:
 6303 0d20 05005CE3 		cmp	ip, #5
 6304 0d24 083099C5 		ldrgt	r3, [r9, #8]
 6305 0d28 08309DD5 		ldrle	r3, [sp, #8]
 6306 0d2c 03005EE1 		cmp	lr, r3
 6307 0d30 840A00AA 		bge	.L1425
 6308 0d34 03005CE3 		cmp	ip, #3
 6309 0d38 AB0A000A 		beq	.L1426
 6310 0d3c 05005CE3 		cmp	ip, #5
 6311 0d40 58309DE5 		ldr	r3, [sp, #88]
 6312 0d44 520200CA 		bgt	.L1427
 6313 0d48 03005EE1 		cmp	lr, r3
 6314 0d4c 54309DE5 		ldr	r3, [sp, #84]
 6315 0d50 1E0C00AA 		bge	.L2226
 6316 0d54 03005BE1 		cmp	fp, r3
 6317 0d58 50309DE5 		ldr	r3, [sp, #80]
 6318 0d5c 000C00AA 		bge	.L2184
 6319 0d60 030058E1 		cmp	r8, r3
 6320 0d64 E50B00AA 		bge	.L2174
 6321 0d68 48009DE5 		ldr	r0, [sp, #72]
 6322 0d6c 0030A0E3 		mov	r3, #0
 6323 0d70 4C209DE5 		ldr	r2, [sp, #76]
 6324 0d74 44109DE5 		ldr	r1, [sp, #68]
 6325 0d78 00008DE5 		str	r0, [sp]
 6326 0d7c 2A0000EA 		b	.L1446
 6327              	.L2227:
 6328 0d80 04005CE3 		cmp	ip, #4
 6329 0d84 4502001A 		bne	.L1432
 6330 0d88 090058E1 		cmp	r8, r9
 6331 0d8c DC0900AA 		bge	.L1433
 6332 0d90 10409DE5 		ldr	r4, [sp, #16]
 6333 0d94 04005BE1 		cmp	fp, r4
 6334 0d98 DA0900AA 		bge	.L1434
 6335 0d9c 08409DE5 		ldr	r4, [sp, #8]
 6336 0da0 04005EE1 		cmp	lr, r4
 6337 0da4 D50900AA 		bge	.L1435
 6338 0da8 1C409DE5 		ldr	r4, [sp, #28]
 6339 0dac 040058E1 		cmp	r8, r4
 6340 0db0 D10900AA 		bge	.L1436
 6341 0db4 20409DE5 		ldr	r4, [sp, #32]
 6342 0db8 04005BE1 		cmp	fp, r4
 6343 0dbc CD0900AA 		bge	.L1437
 6344 0dc0 28409DE5 		ldr	r4, [sp, #40]
 6345 0dc4 04005EE1 		cmp	lr, r4
 6346 0dc8 C90900AA 		bge	.L1438
 6347 0dcc 2C409DE5 		ldr	r4, [sp, #44]
 6348 0dd0 030054E1 		cmp	r4, r3
 6349 0dd4 C50900DA 		ble	.L1440
 6350 0dd8 3C409DE5 		ldr	r4, [sp, #60]
 6351 0ddc 02F0D4F7 		pld	[r4, r2]
 6352 0de0 30409DE5 		ldr	r4, [sp, #48]
 6353 0de4 030054E1 		cmp	r4, r3
 6354 0de8 34409DE5 		ldr	r4, [sp, #52]
 6355 0dec 042082E0 		add	r2, r2, r4
 6356 0df0 38409DE5 		ldr	r4, [sp, #56]
 6357 0df4 044082E0 		add	r4, r2, r4
 6358 0df8 D040C4E1 		ldrd	r4, [r4]
 6359 0dfc BA0900DA 		ble	.L1447
 6360 0e00 D060C1E1 		ldrd	r6, [r1]
 6361 0e04 013083E2 		add	r3, r3, #1
 6362 0e08 40009DE5 		ldr	r0, [sp, #64]
 6363 0e0c 050057E1 		cmp	r7, r5
 6364 0e10 001081E0 		add	r1, r1, r0
 6365 0e14 00009DE5 		ldr	r0, [sp]
 6366 0e18 04005601 		cmpeq	r6, r4
 6367 0e1c 0140A013 		movne	r4, #1
 6368 0e20 0040A003 		moveq	r4, #0
 6369 0e24 0140C0E4 		strb	r4, [r0], #1
 6370 0e28 00008DE5 		str	r0, [sp]
 6371              	.L1446:
 6372 0e2c 03005AE1 		cmp	r10, r3
 6373 0e30 D2FFFFCA 		bgt	.L2227
 6374              	.L1431:
 6375 0e34 44309DE5 		ldr	r3, [sp, #68]
 6376 0e38 01E08EE2 		add	lr, lr, #1
 6377 0e3c 5C209DE5 		ldr	r2, [sp, #92]
 6378 0e40 023083E0 		add	r3, r3, r2
 6379 0e44 60209DE5 		ldr	r2, [sp, #96]
 6380 0e48 44308DE5 		str	r3, [sp, #68]
 6381 0e4c 48309DE5 		ldr	r3, [sp, #72]
 6382 0e50 0A3083E0 		add	r3, r3, r10
 6383 0e54 48308DE5 		str	r3, [sp, #72]
 6384 0e58 4C309DE5 		ldr	r3, [sp, #76]
 6385 0e5c 023083E0 		add	r3, r3, r2
 6386 0e60 4C308DE5 		str	r3, [sp, #76]
 6387 0e64 ADFFFFEA 		b	.L1423
 6388              	.L1192:
 6389 0e68 000050E3 		cmp	r0, #0
 6390 0e6c 2204000A 		beq	.L1195
 6391 0e70 000055E3 		cmp	r5, #0
 6392 0e74 004097E5 		ldr	r4, [r7]
 6393 0e78 9E0B000A 		beq	.L2228
 6394 0e7c 013C8DE2 		add	r3, sp, #256
 6395 0e80 E8208DE2 		add	r2, sp, #232
 6396 0e84 D0108DE2 		add	r1, sp, #208
 6397 0e88 460F8DE2 		add	r0, sp, #280
 6398 0e8c 005095E5 		ldr	r5, [r5]
 6399 0e90 FEFFFFEB 		bl	_ZN6tflite13reference_ops35BroadcastComparison4DSlowPreprocessERKNS_12RuntimeShapeES3_S3_
 6400 0e94 18A19DE5 		ldr	r10, [sp, #280]
 6401 0e98 00005AE3 		cmp	r10, #0
 6402 0e9c 8C0B00DA 		ble	.L1197
 6403 0ea0 24619DE5 		ldr	r6, [sp, #292]
 6404 0ea4 0080A0E3 		mov	r8, #0
 6405 0ea8 20319DE5 		ldr	r3, [sp, #288]
 6406 0eac 6C219DE5 		ldr	r2, [sp, #364]
 6407 0eb0 4C719DE5 		ldr	r7, [sp, #332]
 6408 0eb4 00308DE5 		str	r3, [sp]
 6409 0eb8 0200A0E1 		mov	r0, r2
 6410 0ebc 2C208DE5 		str	r2, [sp, #44]
 6411 0ec0 960302E0 		mul	r2, r6, r3
 6412 0ec4 30319DE5 		ldr	r3, [sp, #304]
 6413 0ec8 68B08DE5 		str	fp, [sp, #104]
 6414 0ecc 871087E0 		add	r1, r7, r7, lsl #1
 6415 0ed0 28B19DE5 		ldr	fp, [sp, #296]
 6416 0ed4 08308DE5 		str	r3, [sp, #8]
 6417 0ed8 073147E0 		sub	r3, r7, r7, lsl #2
 6418 0edc 811084E0 		add	r1, r4, r1, lsl #1
 6419 0ee0 64508DE5 		str	r5, [sp, #100]
 6420 0ee4 8330A0E1 		lsl	r3, r3, #1
 6421 0ee8 1C919DE5 		ldr	r9, [sp, #284]
 6422 0eec 9B060CE0 		mul	ip, fp, r6
 6423 0ef0 6C108DE5 		str	r1, [sp, #108]
 6424 0ef4 30308DE5 		str	r3, [sp, #48]
 6425 0ef8 001060E2 		rsb	r1, r0, #0
 6426 0efc 34319DE5 		ldr	r3, [sp, #308]
 6427 0f00 9B0202E0 		mul	r2, fp, r2
 6428 0f04 34108DE5 		str	r1, [sp, #52]
 6429 0f08 78C08DE5 		str	ip, [sp, #120]
 6430 0f0c 10308DE5 		str	r3, [sp, #16]
 6431 0f10 38319DE5 		ldr	r3, [sp, #312]
 6432 0f14 80208DE5 		str	r2, [sp, #128]
 6433 0f18 1C308DE5 		str	r3, [sp, #28]
 6434 0f1c 3C319DE5 		ldr	r3, [sp, #316]
 6435 0f20 20308DE5 		str	r3, [sp, #32]
 6436 0f24 44319DE5 		ldr	r3, [sp, #324]
 6437 0f28 70308DE5 		str	r3, [sp, #112]
 6438 0f2c 48319DE5 		ldr	r3, [sp, #328]
 6439 0f30 50308DE5 		str	r3, [sp, #80]
 6440 0f34 50319DE5 		ldr	r3, [sp, #336]
 6441 0f38 44308DE5 		str	r3, [sp, #68]
 6442 0f3c 54319DE5 		ldr	r3, [sp, #340]
 6443 0f40 48308DE5 		str	r3, [sp, #72]
 6444 0f44 58319DE5 		ldr	r3, [sp, #344]
 6445 0f48 4C308DE5 		str	r3, [sp, #76]
 6446 0f4c 5C319DE5 		ldr	r3, [sp, #348]
 6447 0f50 28308DE5 		str	r3, [sp, #40]
 6448 0f54 64319DE5 		ldr	r3, [sp, #356]
 6449 0f58 74308DE5 		str	r3, [sp, #116]
 6450 0f5c 68319DE5 		ldr	r3, [sp, #360]
 6451 0f60 54308DE5 		str	r3, [sp, #84]
 6452 0f64 60319DE5 		ldr	r3, [sp, #352]
 6453 0f68 7C308DE5 		str	r3, [sp, #124]
 6454 0f6c 40319DE5 		ldr	r3, [sp, #320]
 6455 0f70 84308DE5 		str	r3, [sp, #132]
 6456 0f74 0730A0E1 		mov	r3, r7
 6457 0f78 0670A0E1 		mov	r7, r6
 6458 0f7c 0360A0E1 		mov	r6, r3
 6459              	.L1198:
 6460 0f80 05005AE3 		cmp	r10, #5
 6461 0f84 003099C5 		ldrgt	r3, [r9]
 6462 0f88 0930A0D1 		movle	r3, r9
 6463 0f8c 080053E1 		cmp	r3, r8
 6464 0f90 AA0900DA 		ble	.L2058
 6465 0f94 01005AE3 		cmp	r10, #1
 6466 0f98 4C0B000A 		beq	.L1201
 6467 0f9c 6C309DE5 		ldr	r3, [sp, #108]
 6468 0fa0 0040A0E3 		mov	r4, #0
 6469 0fa4 60308DE5 		str	r3, [sp, #96]
 6470 0fa8 68309DE5 		ldr	r3, [sp, #104]
 6471 0fac 5C308DE5 		str	r3, [sp, #92]
 6472 0fb0 64309DE5 		ldr	r3, [sp, #100]
 6473 0fb4 58308DE5 		str	r3, [sp, #88]
 6474              	.L1202:
 6475 0fb8 05005AE3 		cmp	r10, #5
 6476 0fbc 043099C5 		ldrgt	r3, [r9, #4]
 6477 0fc0 00309DD5 		ldrle	r3, [sp]
 6478 0fc4 040053E1 		cmp	r3, r4
 6479 0fc8 720A00DA 		ble	.L1204
 6480 0fcc 02005AE3 		cmp	r10, #2
 6481 0fd0 9D0B000A 		beq	.L1205
 6482 0fd4 60309DE5 		ldr	r3, [sp, #96]
 6483 0fd8 00E0A0E3 		mov	lr, #0
 6484 0fdc 40308DE5 		str	r3, [sp, #64]
 6485 0fe0 5C309DE5 		ldr	r3, [sp, #92]
 6486 0fe4 3C308DE5 		str	r3, [sp, #60]
 6487 0fe8 58309DE5 		ldr	r3, [sp, #88]
 6488 0fec 38308DE5 		str	r3, [sp, #56]
 6489              	.L1206:
 6490 0ff0 05005AE3 		cmp	r10, #5
 6491 0ff4 083099C5 		ldrgt	r3, [r9, #8]
 6492 0ff8 0730A0D1 		movle	r3, r7
 6493 0ffc 0E0053E1 		cmp	r3, lr
 6494 1000 A30900DA 		ble	.L1208
 6495 1004 03005AE3 		cmp	r10, #3
 6496 1008 ED09000A 		beq	.L1209
 6497 100c 05005AE3 		cmp	r10, #5
 6498 1010 4C309DE5 		ldr	r3, [sp, #76]
 6499 1014 9A0100CA 		bgt	.L1210
 6500 1018 0E0053E1 		cmp	r3, lr
 6501 101c 48309DE5 		ldr	r3, [sp, #72]
 6502 1020 310C00DA 		ble	.L2229
 6503 1024 040053E1 		cmp	r3, r4
 6504 1028 44309DE5 		ldr	r3, [sp, #68]
 6505 102c 140C00DA 		ble	.L2178
 6506 1030 080053E1 		cmp	r3, r8
 6507 1034 FF0A00DA 		ble	.L2159
 6508 1038 40009DE5 		ldr	r0, [sp, #64]
 6509 103c 0010A0E3 		mov	r1, #0
 6510 1040 3C509DE5 		ldr	r5, [sp, #60]
 6511 1044 38C09DE5 		ldr	ip, [sp, #56]
 6512 1048 220000EA 		b	.L1231
 6513              	.L2230:
 6514 104c 04005AE3 		cmp	r10, #4
 6515 1050 8E01001A 		bne	.L1215
 6516 1054 080059E1 		cmp	r9, r8
 6517 1058 420900DA 		ble	.L1216
 6518 105c 00309DE5 		ldr	r3, [sp]
 6519 1060 040053E1 		cmp	r3, r4
 6520 1064 3E0900DA 		ble	.L1217
 6521 1068 0E0057E1 		cmp	r7, lr
 6522 106c 3B0900DA 		ble	.L1218
 6523 1070 08309DE5 		ldr	r3, [sp, #8]
 6524 1074 080053E1 		cmp	r3, r8
 6525 1078 370900DA 		ble	.L1219
 6526 107c 10309DE5 		ldr	r3, [sp, #16]
 6527 1080 040053E1 		cmp	r3, r4
 6528 1084 330900DA 		ble	.L1220
 6529 1088 1C309DE5 		ldr	r3, [sp, #28]
 6530 108c 0E0053E1 		cmp	r3, lr
 6531 1090 2F0900DA 		ble	.L1221
 6532 1094 20309DE5 		ldr	r3, [sp, #32]
 6533 1098 010053E1 		cmp	r3, r1
 6534 109c 2B0900DA 		ble	.L1223
 6535 10a0 28309DE5 		ldr	r3, [sp, #40]
 6536 10a4 00F0D0F5 		pld	[r0]
 6537 10a8 010053E1 		cmp	r3, r1
 6538 10ac 2C309DE5 		ldr	r3, [sp, #44]
 6539 10b0 03C08CE0 		add	ip, ip, r3
 6540 10b4 30309DE5 		ldr	r3, [sp, #48]
 6541 10b8 0330D0E7 		ldrb	r3, [r0, r3]	@ zero_extendqisi2
 6542 10bc 060080E0 		add	r0, r0, r6
 6543 10c0 210900DA 		ble	.L1230
 6544 10c4 34209DE5 		ldr	r2, [sp, #52]
 6545 10c8 011081E2 		add	r1, r1, #1
 6546 10cc 0220DCE7 		ldrb	r2, [ip, r2]	@ zero_extendqisi2
 6547 10d0 023023E0 		eor	r3, r3, r2
 6548 10d4 0130C5E4 		strb	r3, [r5], #1
 6549              	.L1231:
 6550 10d8 01005BE1 		cmp	fp, r1
 6551 10dc DAFFFFCA 		bgt	.L2230
 6552              	.L1214:
 6553 10e0 38309DE5 		ldr	r3, [sp, #56]
 6554 10e4 01E08EE2 		add	lr, lr, #1
 6555 10e8 54209DE5 		ldr	r2, [sp, #84]
 6556 10ec 023083E0 		add	r3, r3, r2
 6557 10f0 50209DE5 		ldr	r2, [sp, #80]
 6558 10f4 38308DE5 		str	r3, [sp, #56]
 6559 10f8 3C309DE5 		ldr	r3, [sp, #60]
 6560 10fc 0B3083E0 		add	r3, r3, fp
 6561 1100 3C308DE5 		str	r3, [sp, #60]
 6562 1104 40309DE5 		ldr	r3, [sp, #64]
 6563 1108 023083E0 		add	r3, r3, r2
 6564 110c 40308DE5 		str	r3, [sp, #64]
 6565 1110 B6FFFFEA 		b	.L1206
 6566              	.L1190:
 6567 1114 000050E3 		cmp	r0, #0
 6568 1118 7806000A 		beq	.L1463
 6569 111c 000055E3 		cmp	r5, #0
 6570 1120 006097E5 		ldr	r6, [r7]
 6571 1124 EC0A000A 		beq	.L2231
 6572 1128 013C8DE2 		add	r3, sp, #256
 6573 112c E8208DE2 		add	r2, sp, #232
 6574 1130 D0108DE2 		add	r1, sp, #208
 6575 1134 9E0F8DE2 		add	r0, sp, #632
 6576 1138 005095E5 		ldr	r5, [r5]
 6577 113c FEFFFFEB 		bl	_ZN6tflite13reference_ops35BroadcastComparison4DSlowPreprocessERKNS_12RuntimeShapeES3_S3_
 6578              	.LEHE64:
 6579 1140 78329DE5 		ldr	r3, [sp, #632]
 6580 1144 002094E5 		ldr	r2, [r4]
 6581 1148 0C8094E5 		ldr	r8, [r4, #12]
 6582 114c 28308DE5 		str	r3, [sp, #40]
 6583 1150 000053E3 		cmp	r3, #0
 6584 1154 083094E5 		ldr	r3, [r4, #8]
 6585 1158 58208DE5 		str	r2, [sp, #88]
 6586 115c 042094E5 		ldr	r2, [r4, #4]
 6587 1160 5C308DE5 		str	r3, [sp, #92]
 6588 1164 103094E5 		ldr	r3, [r4, #16]
 6589 1168 3C208DE5 		str	r2, [sp, #60]
 6590 116c 60308DE5 		str	r3, [sp, #96]
 6591 1170 143094E5 		ldr	r3, [r4, #20]
 6592 1174 68308DE5 		str	r3, [sp, #104]
 6593 1178 183094E5 		ldr	r3, [r4, #24]
 6594 117c 0320A0E1 		mov	r2, r3
 6595 1180 10308DE5 		str	r3, [sp, #16]
 6596 1184 D30A00DA 		ble	.L1465
 6597 1188 80329DE5 		ldr	r3, [sp, #640]
 6598 118c 00A0A0E3 		mov	r10, #0
 6599 1190 820BDFED 		vldr.64	d16, .L2276	@ int
 6600 1194 A8B08DE5 		str	fp, [sp, #168]
 6601 1198 0370A0E1 		mov	r7, r3
 6602 119c 40308DE5 		str	r3, [sp, #64]
 6603 11a0 003068E2 		rsb	r3, r8, #0
 6604 11a4 AC508DE5 		str	r5, [sp, #172]
 6605 11a8 0310A0E1 		mov	r1, r3
 6606 11ac 6C308DE5 		str	r3, [sp, #108]
 6607 11b0 84329DE5 		ldr	r3, [sp, #644]
 6608 11b4 901B02EE 		vmov.32	d18[0], r1
 6609 11b8 03C0A0E1 		mov	ip, r3
 6610 11bc 2C308DE5 		str	r3, [sp, #44]
 6611 11c0 AC329DE5 		ldr	r3, [sp, #684]
 6612 11c4 A01472F3 		vshl.u64	d17, d16, d18
 6613 11c8 03E0A0E1 		mov	lr, r3
 6614 11cc 84308DE5 		str	r3, [sp, #132]
 6615 11d0 003062E2 		rsb	r3, r2, #0
 6616 11d4 0300A0E1 		mov	r0, r3
 6617 11d8 74308DE5 		str	r3, [sp, #116]
 6618 11dc 88329DE5 		ldr	r3, [sp, #648]
 6619 11e0 0340A0E1 		mov	r4, r3
