   1              		.cpu cortex-a9
   2              		.eabi_attribute 28, 1
   3              		.eabi_attribute 20, 1
   4              		.eabi_attribute 21, 1
   5              		.eabi_attribute 23, 3
   6              		.eabi_attribute 24, 1
   7              		.eabi_attribute 25, 1
   8              		.eabi_attribute 26, 1
   9              		.eabi_attribute 30, 2
  10              		.eabi_attribute 34, 0
  11              		.eabi_attribute 18, 4
  12              		.file	"exp.cc"
  13              		.section	.text._ZN6tflite12_GLOBAL__N_17PrepareEP13TfLiteContextP10TfLiteNode,"ax",%progbits
  14              		.align	2
  15              		.syntax unified
  16              		.arm
  17              		.fpu neon
  19              	_ZN6tflite12_GLOBAL__N_17PrepareEP13TfLiteContextP10TfLiteNode:
  20              		.fnstart
  21              	.LFB1158:
  22              		@ args = 0, pretend = 0, frame = 0
  23              		@ frame_needed = 0, uses_anonymous_args = 0
  24 0000 002091E5 		ldr	r2, [r1]
  25 0004 002092E5 		ldr	r2, [r2]
  26 0008 010052E3 		cmp	r2, #1
  27 000c 0100000A 		beq	.L19
  28 0010 0100A0E3 		mov	r0, #1
  29 0014 1EFF2FE1 		bx	lr
  30              	.L19:
  31 0018 042091E5 		ldr	r2, [r1, #4]
  32 001c 70402DE9 		push	{r4, r5, r6, lr}
  33              		.save {r4, r5, r6, lr}
  34 0020 0140A0E1 		mov	r4, r1
  35 0024 002092E5 		ldr	r2, [r2]
  36 0028 010052E3 		cmp	r2, #1
  37 002c 0100000A 		beq	.L20
  38              	.L4:
  39 0030 0100A0E3 		mov	r0, #1
  40 0034 7080BDE8 		pop	{r4, r5, r6, pc}
  41              	.L20:
  42 0038 0020A0E3 		mov	r2, #0
  43 003c 0050A0E1 		mov	r5, r0
  44 0040 FEFFFFEB 		bl	_ZN6tflite8GetInputEPK13TfLiteContextPK10TfLiteNodei
  45 0044 006050E2 		subs	r6, r0, #0
  46 0048 F8FFFF0A 		beq	.L4
  47 004c 0410A0E1 		mov	r1, r4
  48 0050 0500A0E1 		mov	r0, r5
  49 0054 0020A0E3 		mov	r2, #0
  50 0058 FEFFFFEB 		bl	_ZN6tflite9GetOutputEP13TfLiteContextPK10TfLiteNodei
  51 005c 000050E3 		cmp	r0, #0
  52 0060 F2FFFF0A 		beq	.L4
  53 0064 0030D6E5 		ldrb	r3, [r6]	@ zero_extendqisi2
  54 0068 010053E3 		cmp	r3, #1
  55 006c EFFFFF1A 		bne	.L4
  56 0070 0030D0E5 		ldrb	r3, [r0]	@ zero_extendqisi2
  57 0074 010053E3 		cmp	r3, #1
  58 0078 ECFFFF1A 		bne	.L4
  59 007c 182090E5 		ldr	r2, [r0, #24]
  60 0080 183096E5 		ldr	r3, [r6, #24]
  61 0084 030052E1 		cmp	r2, r3
  62 0088 E8FFFF1A 		bne	.L4
  63 008c 081090E5 		ldr	r1, [r0, #8]
  64 0090 082096E5 		ldr	r2, [r6, #8]
  65 0094 00E091E5 		ldr	lr, [r1]
  66 0098 003092E5 		ldr	r3, [r2]
  67 009c 03005EE1 		cmp	lr, r3
  68 00a0 E2FFFF1A 		bne	.L4
  69 00a4 00005EE3 		cmp	lr, #0
  70 00a8 0E0000DA 		ble	.L7
  71 00ac 040091E5 		ldr	r0, [r1, #4]
  72 00b0 043092E5 		ldr	r3, [r2, #4]
  73 00b4 030050E1 		cmp	r0, r3
  74 00b8 DCFFFF1A 		bne	.L4
  75 00bc 081081E2 		add	r1, r1, #8
  76 00c0 082082E2 		add	r2, r2, #8
  77 00c4 0030A0E3 		mov	r3, #0
  78 00c8 030000EA 		b	.L5
  79              	.L6:
  80 00cc 04C091E4 		ldr	ip, [r1], #4
  81 00d0 040092E4 		ldr	r0, [r2], #4
  82 00d4 00005CE1 		cmp	ip, r0
  83 00d8 D4FFFF1A 		bne	.L4
  84              	.L5:
  85 00dc 013083E2 		add	r3, r3, #1
  86 00e0 03005EE1 		cmp	lr, r3
  87 00e4 F8FFFF1A 		bne	.L6
  88              	.L7:
  89 00e8 0000A0E3 		mov	r0, #0
  90 00ec 7080BDE8 		pop	{r4, r5, r6, pc}
  91              		.fnend
  93              		.section	.text._ZN6tflite12_GLOBAL__N_14EvalEP13TfLiteContextP10TfLiteNode,"ax",%progbits
  94              		.align	2
  95              		.syntax unified
  96              		.arm
  97              		.fpu neon
  99              	_ZN6tflite12_GLOBAL__N_14EvalEP13TfLiteContextP10TfLiteNode:
 100              		.fnstart
 101              	.LFB1159:
 102              		@ args = 0, pretend = 0, frame = 48
 103              		@ frame_needed = 0, uses_anonymous_args = 0
 104 0000 F04F2DE9 		push	{r4, r5, r6, r7, r8, r9, r10, fp, lr}
 105              		.save {r4, r5, r6, r7, r8, r9, r10, fp, lr}
 106 0004 004050E2 		subs	r4, r0, #0
 107              		.pad #52
 108 0008 34D04DE2 		sub	sp, sp, #52
 109 000c 0C01000A 		beq	.L23
 110 0010 000051E3 		cmp	r1, #0
 111 0014 0160A0E1 		mov	r6, r1
 112 0018 0901000A 		beq	.L23
 113 001c 002091E5 		ldr	r2, [r1]
 114 0020 543094E5 		ldr	r3, [r4, #84]
 115 0024 041092E5 		ldr	r1, [r2, #4]
 116              	.LEHB0:
 117 0028 33FF2FE1 		blx	r3
 118 002c 042096E5 		ldr	r2, [r6, #4]
 119 0030 0050A0E1 		mov	r5, r0
 120 0034 543094E5 		ldr	r3, [r4, #84]
 121 0038 0400A0E1 		mov	r0, r4
 122 003c 041092E5 		ldr	r1, [r2, #4]
 123 0040 33FF2FE1 		blx	r3
 124 0044 0510A0E1 		mov	r1, r5
 125 0048 0040A0E1 		mov	r4, r0
 126 004c 0D00A0E1 		mov	r0, sp
 127 0050 FEFFFFEB 		bl	_ZN6tflite5micro14GetTensorShapeEPK16TfLiteEvalTensor
 128              	.LEHE0:
 129 0054 0410A0E1 		mov	r1, r4
 130 0058 18008DE2 		add	r0, sp, #24
 131              	.LEHB1:
 132 005c FEFFFFEB 		bl	_ZN6tflite5micro14GetTensorShapeEPK16TfLiteEvalTensor
 133              	.LEHE1:
 134 0060 00209DE5 		ldr	r2, [sp]
 135 0064 18809DE5 		ldr	r8, [sp, #24]
 136 0068 080052E1 		cmp	r2, r8
 137 006c F500001A 		bne	.L24
 138 0070 000052E3 		cmp	r2, #0
 139 0074 DD0000DA 		ble	.L106
 140 0078 050052E3 		cmp	r2, #5
 141 007c 04709DE5 		ldr	r7, [sp, #4]
 142 0080 1C009DE5 		ldr	r0, [sp, #28]
 143 0084 C60000CA 		bgt	.L27
 144 0088 000052E3 		cmp	r2, #0
 145 008c EB0000DA 		ble	.L28
 146 0090 000057E1 		cmp	r7, r0
 147 0094 D900001A 		bne	.L29
 148 0098 010052E3 		cmp	r2, #1
 149 009c 1900000A 		beq	.L64
 150 00a0 08109DE5 		ldr	r1, [sp, #8]
 151 00a4 20309DE5 		ldr	r3, [sp, #32]
 152 00a8 030051E1 		cmp	r1, r3
 153 00ac D300001A 		bne	.L29
 154 00b0 020052E3 		cmp	r2, #2
 155 00b4 1300000A 		beq	.L64
 156 00b8 0C109DE5 		ldr	r1, [sp, #12]
 157 00bc 24309DE5 		ldr	r3, [sp, #36]
 158 00c0 030051E1 		cmp	r1, r3
 159 00c4 CD00001A 		bne	.L29
 160 00c8 030052E3 		cmp	r2, #3
 161 00cc 0D00000A 		beq	.L64
 162 00d0 030058E3 		cmp	r8, #3
 163 00d4 10109DE5 		ldr	r1, [sp, #16]
 164 00d8 D800000A 		beq	.L28
 165 00dc 28309DE5 		ldr	r3, [sp, #40]
 166 00e0 030051E1 		cmp	r1, r3
 167 00e4 C500001A 		bne	.L29
 168 00e8 040052E3 		cmp	r2, #4
 169 00ec 0500000A 		beq	.L64
 170 00f0 040058E3 		cmp	r8, #4
 171 00f4 14309DE5 		ldr	r3, [sp, #20]
 172 00f8 D000000A 		beq	.L28
 173 00fc 2C109DE5 		ldr	r1, [sp, #44]
 174 0100 030051E1 		cmp	r1, r3
 175 0104 BD00001A 		bne	.L29
 176              	.L64:
 177 0108 04108DE2 		add	r1, sp, #4
 178              	.L30:
 179 010c 010052E3 		cmp	r2, #1
 180 0110 5131A0E7 		sbfx	r3, r1, #2, #1
 181 0114 02C0A0A1 		movge	ip, r2
 182 0118 01C0A0B3 		movlt	ip, #1
 183 011c 033003E2 		and	r3, r3, #3
 184 0120 0C0053E1 		cmp	r3, ip
 185 0124 0C30A021 		movcs	r3, ip
 186 0128 08005CE3 		cmp	ip, #8
 187 012c 0C30A0D1 		movle	r3, ip
 188 0130 A90000CA 		bgt	.L107
 189              	.L35:
 190 0134 010053E3 		cmp	r3, #1
 191 0138 007091E5 		ldr	r7, [r1]
 192 013c 4F00000A 		beq	.L73
 193 0140 04E091E5 		ldr	lr, [r1, #4]
 194 0144 020053E3 		cmp	r3, #2
 195 0148 9E0707E0 		mul	r7, lr, r7
 196 014c 4B00000A 		beq	.L73
 197 0150 08E091E5 		ldr	lr, [r1, #8]
 198 0154 030053E3 		cmp	r3, #3
 199 0158 9E0707E0 		mul	r7, lr, r7
 200 015c 4700000A 		beq	.L73
 201 0160 0CE091E5 		ldr	lr, [r1, #12]
 202 0164 040053E3 		cmp	r3, #4
 203 0168 9E0707E0 		mul	r7, lr, r7
 204 016c 4300000A 		beq	.L73
 205 0170 10E091E5 		ldr	lr, [r1, #16]
 206 0174 050053E3 		cmp	r3, #5
 207 0178 9E0707E0 		mul	r7, lr, r7
 208 017c 3F00000A 		beq	.L73
 209 0180 14E091E5 		ldr	lr, [r1, #20]
 210 0184 060053E3 		cmp	r3, #6
 211 0188 9E0707E0 		mul	r7, lr, r7
 212 018c 3B00000A 		beq	.L73
 213 0190 18E091E5 		ldr	lr, [r1, #24]
 214 0194 070053E3 		cmp	r3, #7
 215 0198 9E0707E0 		mul	r7, lr, r7
 216 019c 3700000A 		beq	.L73
 217 01a0 1C6091E5 		ldr	r6, [r1, #28]
 218 01a4 08E0A0E3 		mov	lr, #8
 219 01a8 960707E0 		mul	r7, r6, r7
 220              	.L37:
 221 01ac 03005CE1 		cmp	ip, r3
 222 01b0 2A00000A 		beq	.L38
 223              	.L36:
 224 01b4 000052E3 		cmp	r2, #0
 225 01b8 03C04CE0 		sub	ip, ip, r3
 226 01bc 019042C2 		subgt	r9, r2, #1
 227 01c0 0090A0D3 		movle	r9, #0
 228 01c4 04604CE2 		sub	r6, ip, #4
 229 01c8 2661A0E1 		lsr	r6, r6, #2
 230 01cc 039049E0 		sub	r9, r9, r3
 231 01d0 020059E3 		cmp	r9, #2
 232 01d4 016086E2 		add	r6, r6, #1
 233 01d8 06A1A0E1 		lsl	r10, r6, #2
 234 01dc 1200009A 		bls	.L39
 235 01e0 033181E0 		add	r3, r1, r3, lsl #2
 236 01e4 5100C0F2 		vmov.i32	q8, #1  @ v4si
 237 01e8 0090A0E3 		mov	r9, #0
 238              	.L41:
 239 01ec 019089E2 		add	r9, r9, #1
 240 01f0 DF2A63F4 		vld1.64	{d18-d19}, [r3:64]
 241 01f4 090056E1 		cmp	r6, r9
 242 01f8 103083E2 		add	r3, r3, #16
 243 01fc F20960F2 		vmul.i32	q8, q8, q9
 244 0200 F9FFFF8A 		bhi	.L41
 245 0204 0C005AE1 		cmp	r10, ip
 246 0208 0AE08EE0 		add	lr, lr, r10
 247 020c 5020C0F2 		vmov.i32	q9, #0  @ v4si
 248 0210 E248F0F2 		vext.32	q10, q8, q9, #2
 249 0214 F40960F2 		vmul.i32	q8, q8, q10
 250 0218 E224F0F2 		vext.32	q9, q8, q9, #1
 251 021c F20960F2 		vmul.i32	q8, q8, q9
 252 0220 903B10EE 		vmov.32	r3, d16[0]
 253 0224 930707E0 		mul	r7, r3, r7
 254 0228 0C00000A 		beq	.L38
 255              	.L39:
 256 022c 0EC191E7 		ldr	ip, [r1, lr, lsl #2]
 257 0230 01308EE2 		add	r3, lr, #1
 258 0234 030052E1 		cmp	r2, r3
 259 0238 0E31A0E1 		lsl	r3, lr, #2
 260 023c 9C0707E0 		mul	r7, ip, r7
 261 0240 060000DA 		ble	.L38
 262 0244 031081E0 		add	r1, r1, r3
 263 0248 02E08EE2 		add	lr, lr, #2
 264 024c 043091E5 		ldr	r3, [r1, #4]
 265 0250 0E0052E1 		cmp	r2, lr
 266 0254 930707E0 		mul	r7, r3, r7
 267 0258 083091C5 		ldrgt	r3, [r1, #8]
 268 025c 930707C0 		mulgt	r7, r3, r7
 269              	.L38:
 270 0260 050058E3 		cmp	r8, #5
 271 0264 070000CA 		bgt	.L108
 272              	.L46:
 273 0268 0830D5E5 		ldrb	r3, [r5, #8]	@ zero_extendqisi2
 274 026c 010053E3 		cmp	r3, #1
 275 0270 0100A013 		movne	r0, #1
 276 0274 1100000A 		beq	.L109
 277              	.L102:
 278 0278 34D08DE2 		add	sp, sp, #52
 279              		@ sp needed
 280 027c F08FBDE8 		pop	{r4, r5, r6, r7, r8, r9, r10, fp, pc}
 281              	.L73:
 282 0280 03E0A0E1 		mov	lr, r3
 283 0284 C8FFFFEA 		b	.L37
 284              	.L108:
 285 0288 000050E3 		cmp	r0, #0
 286 028c 0100000A 		beq	.L25
 287 0290 FEFFFFEB 		bl	_ZdaPv
 288 0294 00809DE5 		ldr	r8, [sp]
 289              	.L25:
 290 0298 050058E3 		cmp	r8, #5
 291 029c F1FFFFDA 		ble	.L46
 292 02a0 04009DE5 		ldr	r0, [sp, #4]
 293 02a4 000050E3 		cmp	r0, #0
 294 02a8 EEFFFF0A 		beq	.L46
 295 02ac FEFFFFEB 		bl	_ZdaPv
 296 02b0 0830D5E5 		ldrb	r3, [r5, #8]	@ zero_extendqisi2
 297 02b4 010053E3 		cmp	r3, #1
 298 02b8 0100A013 		movne	r0, #1
 299 02bc EDFFFF1A 		bne	.L102
 300              	.L109:
 301 02c0 000054E3 		cmp	r4, #0
 302 02c4 009095E5 		ldr	r9, [r5]
 303 02c8 00A09415 		ldrne	r10, [r4]
 304 02cc 04A0A001 		moveq	r10, r4
 305 02d0 000057E3 		cmp	r7, #0
 306 02d4 2F00000A 		beq	.L52
 307 02d8 080057E3 		cmp	r7, #8
 308 02dc 07B047E2 		sub	fp, r7, #7
 309 02e0 4400009A 		bls	.L75
 310 02e4 285089E2 		add	r5, r9, #40
 311 02e8 28408AE2 		add	r4, r10, #40
 312 02ec 0080A0E3 		mov	r8, #0
 313              	.L51:
 314 02f0 0A0A15ED 		vldr.32	s0, [r5, #-40]
 315 02f4 086088E2 		add	r6, r8, #8
 316 02f8 00F0D5F5 		pld	[r5]
 317 02fc 098088E2 		add	r8, r8, #9
 318 0300 FEFFFFEB 		bl	expf
 319 0304 0A0A04ED 		vstr.32	s0, [r4, #-40]
 320 0308 205085E2 		add	r5, r5, #32
 321 030c 110A15ED 		vldr.32	s0, [r5, #-68]
 322 0310 00F0D4F5 		pld	[r4]
 323 0314 204084E2 		add	r4, r4, #32
 324 0318 FEFFFFEB 		bl	expf
 325 031c 110A04ED 		vstr.32	s0, [r4, #-68]
 326 0320 100A15ED 		vldr.32	s0, [r5, #-64]
 327 0324 FEFFFFEB 		bl	expf
 328 0328 100A04ED 		vstr.32	s0, [r4, #-64]
 329 032c 0F0A15ED 		vldr.32	s0, [r5, #-60]
 330 0330 FEFFFFEB 		bl	expf
 331 0334 0F0A04ED 		vstr.32	s0, [r4, #-60]
 332 0338 0E0A15ED 		vldr.32	s0, [r5, #-56]
 333 033c FEFFFFEB 		bl	expf
 334 0340 0E0A04ED 		vstr.32	s0, [r4, #-56]
 335 0344 0D0A15ED 		vldr.32	s0, [r5, #-52]
 336 0348 FEFFFFEB 		bl	expf
 337 034c 0D0A04ED 		vstr.32	s0, [r4, #-52]
 338 0350 0C0A15ED 		vldr.32	s0, [r5, #-48]
 339 0354 FEFFFFEB 		bl	expf
 340 0358 0C0A04ED 		vstr.32	s0, [r4, #-48]
 341 035c 0B0A15ED 		vldr.32	s0, [r5, #-44]
 342 0360 FEFFFFEB 		bl	expf
 343 0364 08005BE1 		cmp	fp, r8
 344 0368 0B0A04ED 		vstr.32	s0, [r4, #-44]
 345 036c 0680A0E1 		mov	r8, r6
 346 0370 DEFFFF8A 		bhi	.L51
 347              	.L50:
 348 0374 0641A0E1 		lsl	r4, r6, #2
 349 0378 049089E0 		add	r9, r9, r4
 350 037c 04408AE0 		add	r4, r10, r4
 351              	.L53:
 352 0380 016086E2 		add	r6, r6, #1
 353 0384 010AB9EC 		vldmia.32	r9!, {s0}
 354 0388 FEFFFFEB 		bl	expf
 355 038c 060057E1 		cmp	r7, r6
 356 0390 010AA4EC 		vstmia.32	r4!, {s0}
 357 0394 F9FFFF8A 		bhi	.L53
 358              	.L52:
 359 0398 0000A0E3 		mov	r0, #0
 360 039c 34D08DE2 		add	sp, sp, #52
 361              		@ sp needed
 362 03a0 F08FBDE8 		pop	{r4, r5, r6, r7, r8, r9, r10, fp, pc}
 363              	.L27:
 364 03a4 041047E2 		sub	r1, r7, #4
 365 03a8 04C040E2 		sub	ip, r0, #4
 366 03ac 0030A0E3 		mov	r3, #0
 367              	.L34:
 368 03b0 030058E1 		cmp	r8, r3
 369 03b4 04E0B1E5 		ldr	lr, [r1, #4]!
 370 03b8 200000DA 		ble	.L28
 371 03bc 0460BCE5 		ldr	r6, [ip, #4]!
 372 03c0 06005EE1 		cmp	lr, r6
 373 03c4 0D00001A 		bne	.L29
 374 03c8 013083E2 		add	r3, r3, #1
 375 03cc 030052E1 		cmp	r2, r3
 376 03d0 F6FFFF1A 		bne	.L34
 377 03d4 0710A0E1 		mov	r1, r7
 378 03d8 4BFFFFEA 		b	.L30
 379              	.L107:
 380 03dc 000053E3 		cmp	r3, #0
 381 03e0 0170A003 		moveq	r7, #1
 382 03e4 03E0A001 		moveq	lr, r3
 383 03e8 71FFFF0A 		beq	.L36
 384 03ec 50FFFFEA 		b	.L35
 385              	.L106:
 386 03f0 0170A0E3 		mov	r7, #1
 387 03f4 A7FFFFEA 		b	.L25
 388              	.L75:
 389 03f8 0060A0E3 		mov	r6, #0
 390 03fc DCFFFFEA 		b	.L50
 391              	.L29:
 392              	.LEHB2:
 393 0400 FEFFFFEB 		bl	abort
 394              	.LEHE2:
 395              	.L77:
 396 0404 18309DE5 		ldr	r3, [sp, #24]
 397 0408 050053E3 		cmp	r3, #5
 398 040c 030000DA 		ble	.L56
 399 0410 1C009DE5 		ldr	r0, [sp, #28]
 400 0414 000050E3 		cmp	r0, #0
 401 0418 0000000A 		beq	.L56
 402 041c FEFFFFEB 		bl	_ZdaPv
 403              	.L56:
 404 0420 00309DE5 		ldr	r3, [sp]
 405 0424 050053E3 		cmp	r3, #5
 406 0428 030000DA 		ble	.L57
 407 042c 04009DE5 		ldr	r0, [sp, #4]
 408 0430 000050E3 		cmp	r0, #0
 409 0434 0000000A 		beq	.L57
 410 0438 FEFFFFEB 		bl	_ZdaPv
 411              	.L57:
 412              	.LEHB3:
 413 043c FEFFFFEB 		bl	__cxa_end_cleanup
 414              	.LEHE3:
 415              	.L28:
 416              	.LEHB4:
 417 0440 FEFFFFEB 		bl	abort
 418              	.LEHE4:
 419              	.L23:
 420              	.LEHB5:
 421 0444 FEFFFFEB 		bl	abort
 422              	.LEHE5:
 423              	.L24:
 424              	.LEHB6:
 425 0448 FEFFFFEB 		bl	abort
 426              	.LEHE6:
 427              	.L76:
 428 044c F3FFFFEA 		b	.L56
 429              		.global	__gxx_personality_v0
 430              		.personality	__gxx_personality_v0
 431              		.handlerdata
 432              	.LLSDA1159:
 433 0008 FF       		.byte	0xff
 434 0009 FF       		.byte	0xff
 435 000a 01       		.byte	0x1
 436 000b 25       		.uleb128 .LLSDACSE1159-.LLSDACSB1159
 437              	.LLSDACSB1159:
 438 000c 28       		.uleb128 .LEHB0-.LFB1159
 439 000d 2C       		.uleb128 .LEHE0-.LEHB0
 440 000e 00       		.uleb128 0
 441 000f 00       		.uleb128 0
 442 0010 5C       		.uleb128 .LEHB1-.LFB1159
 443 0011 04       		.uleb128 .LEHE1-.LEHB1
 444 0012 CC08     		.uleb128 .L76-.LFB1159
 445 0014 00       		.uleb128 0
 446 0015 8008     		.uleb128 .LEHB2-.LFB1159
 447 0017 04       		.uleb128 .LEHE2-.LEHB2
 448 0018 8408     		.uleb128 .L77-.LFB1159
 449 001a 00       		.uleb128 0
 450 001b BC08     		.uleb128 .LEHB3-.LFB1159
 451 001d 04       		.uleb128 .LEHE3-.LEHB3
 452 001e 00       		.uleb128 0
 453 001f 00       		.uleb128 0
 454 0020 C008     		.uleb128 .LEHB4-.LFB1159
 455 0022 04       		.uleb128 .LEHE4-.LEHB4
 456 0023 8408     		.uleb128 .L77-.LFB1159
 457 0025 00       		.uleb128 0
 458 0026 C408     		.uleb128 .LEHB5-.LFB1159
 459 0028 04       		.uleb128 .LEHE5-.LEHB5
 460 0029 00       		.uleb128 0
 461 002a 00       		.uleb128 0
 462 002b C808     		.uleb128 .LEHB6-.LFB1159
 463 002d 04       		.uleb128 .LEHE6-.LEHB6
 464 002e 8408     		.uleb128 .L77-.LFB1159
 465 0030 00       		.uleb128 0
 466              	.LLSDACSE1159:
 467              		.section	.text._ZN6tflite12_GLOBAL__N_14EvalEP13TfLiteContextP10TfLiteNode
 468              		.fnend
 470              		.section	.text._ZN6tflite12Register_EXPEv,"ax",%progbits
 471              		.align	2
 472              		.global	_ZN6tflite12Register_EXPEv
 473              		.syntax unified
 474              		.arm
 475              		.fpu neon
 477              	_ZN6tflite12Register_EXPEv:
 478              		.fnstart
 479              	.LFB1160:
 480              		@ args = 0, pretend = 0, frame = 0
 481              		@ frame_needed = 0, uses_anonymous_args = 0
 482 0000 00C000E3 		movw	ip, #:lower16:.LANCHOR0
 483 0004 10402DE9 		push	{r4, lr}
 484 0008 00C040E3 		movt	ip, #:upper16:.LANCHOR0
 485 000c 0040A0E1 		mov	r4, r0
 486 0010 00E0A0E1 		mov	lr, r0
 487 0014 0F00BCE8 		ldmia	ip!, {r0, r1, r2, r3}
 488 0018 0F00AEE8 		stmia	lr!, {r0, r1, r2, r3}
 489 001c 0F009CE8 		ldm	ip, {r0, r1, r2, r3}
 490 0020 0F008EE8 		stm	lr, {r0, r1, r2, r3}
 491 0024 0400A0E1 		mov	r0, r4
 492 0028 1080BDE8 		pop	{r4, pc}
 493              		.cantunwind
 494              		.fnend
 496              		.section	.rodata
 497              		.align	2
 498              		.set	.LANCHOR0,. + 0
 499              	.LC0:
 500 0000 00000000 		.word	0
 501 0004 00000000 		.word	0
 502 0008 00000000 		.word	_ZN6tflite12_GLOBAL__N_17PrepareEP13TfLiteContextP10TfLiteNode
 503 000c 00000000 		.word	_ZN6tflite12_GLOBAL__N_14EvalEP13TfLiteContextP10TfLiteNode
 504 0010 00000000 		.word	0
 505 0014 00000000 		.word	0
 506 0018 00000000 		.word	0
 507 001c 00000000 		.word	0
 508              		.ident	"GCC: (GNU Tools for ARM Embedded Processors 6-2017-q2-update) 6.3.1 20170620 (release) [AR