   1              		.cpu cortex-a9
   2              		.eabi_attribute 28, 1
   3              		.eabi_attribute 20, 1
   4              		.eabi_attribute 21, 1
   5              		.eabi_attribute 23, 3
   6              		.eabi_attribute 24, 1
   7              		.eabi_attribute 25, 1
   8              		.eabi_attribute 26, 1
   9              		.eabi_attribute 30, 2
  10              		.eabi_attribute 34, 0
  11              		.eabi_attribute 18, 4
  12              		.file	"fill.cc"
  13              		.section	.text._ZN6tflite12_GLOBAL__N_14EvalEP13TfLiteContextP10TfLiteNode,"ax",%progbits
  14              		.align	2
  15              		.syntax unified
  16              		.arm
  17              		.fpu neon
  19              	_ZN6tflite12_GLOBAL__N_14EvalEP13TfLiteContextP10TfLiteNode:
  20              		.fnstart
  21              	.LFB1158:
  22              		@ args = 0, pretend = 0, frame = 48
  23              		@ frame_needed = 0, uses_anonymous_args = 0
  24 0000 F0412DE9 		push	{r4, r5, r6, r7, r8, lr}
  25              		.save {r4, r5, r6, r7, r8, lr}
  26 0004 004050E2 		subs	r4, r0, #0
  27              		.pad #48
  28 0008 30D04DE2 		sub	sp, sp, #48
  29 000c E300000A 		beq	.L3
  30 0010 000051E3 		cmp	r1, #0
  31 0014 0150A0E1 		mov	r5, r1
  32 0018 E000000A 		beq	.L3
  33 001c 002091E5 		ldr	r2, [r1]
  34 0020 543094E5 		ldr	r3, [r4, #84]
  35 0024 081092E5 		ldr	r1, [r2, #8]
  36              	.LEHB0:
  37 0028 33FF2FE1 		blx	r3
  38 002c 042095E5 		ldr	r2, [r5, #4]
  39 0030 0060A0E1 		mov	r6, r0
  40 0034 543094E5 		ldr	r3, [r4, #84]
  41 0038 0400A0E1 		mov	r0, r4
  42 003c 041092E5 		ldr	r1, [r2, #4]
  43 0040 33FF2FE1 		blx	r3
  44 0044 0830D6E5 		ldrb	r3, [r6, #8]	@ zero_extendqisi2
  45 0048 0050A0E1 		mov	r5, r0
  46 004c 010053E3 		cmp	r3, #1
  47 0050 0100A013 		movne	r0, #1
  48 0054 0100000A 		beq	.L78
  49 0058 30D08DE2 		add	sp, sp, #48
  50              		@ sp needed
  51 005c F081BDE8 		pop	{r4, r5, r6, r7, r8, pc}
  52              	.L78:
  53 0060 0610A0E1 		mov	r1, r6
  54 0064 18008DE2 		add	r0, sp, #24
  55 0068 FEFFFFEB 		bl	_ZN6tflite5micro14GetTensorShapeEPK16TfLiteEvalTensor
  56              	.LEHE0:
  57 006c 0510A0E1 		mov	r1, r5
  58 0070 0D00A0E1 		mov	r0, sp
  59 0074 004096E5 		ldr	r4, [r6]
  60              	.LEHB1:
  61 0078 FEFFFFEB 		bl	_ZN6tflite5micro14GetTensorShapeEPK16TfLiteEvalTensor
  62              	.LEHE1:
  63 007c 18309DE5 		ldr	r3, [sp, #24]
  64 0080 000055E3 		cmp	r5, #0
  65 0084 00009515 		ldrne	r0, [r5]
  66 0088 0500A001 		moveq	r0, r5
  67 008c 000053E3 		cmp	r3, #0
  68 0090 CB00001A 		bne	.L79
  69 0094 00C09DE5 		ldr	ip, [sp]
  70 0098 05005CE3 		cmp	ip, #5
  71 009c 900000CA 		bgt	.L80
  72 00a0 00005CE3 		cmp	ip, #0
  73 00a4 04508DC2 		addgt	r5, sp, #4
  74 00a8 BA0000DA 		ble	.L81
  75              	.L9:
  76 00ac 5521A0E7 		sbfx	r2, r5, #2, #1
  77 00b0 032002E2 		and	r2, r2, #3
  78 00b4 0C0052E1 		cmp	r2, ip
  79 00b8 0C20A021 		movcs	r2, ip
  80 00bc 08005CE3 		cmp	ip, #8
  81 00c0 0C20A0D1 		movle	r2, ip
  82 00c4 8A0000CA 		bgt	.L82
  83              	.L13:
  84 00c8 010052E3 		cmp	r2, #1
  85 00cc 003095E5 		ldr	r3, [r5]
  86 00d0 8500000A 		beq	.L50
  87 00d4 041095E5 		ldr	r1, [r5, #4]
  88 00d8 020052E3 		cmp	r2, #2
  89 00dc 910303E0 		mul	r3, r1, r3
  90 00e0 8100000A 		beq	.L50
  91 00e4 081095E5 		ldr	r1, [r5, #8]
  92 00e8 030052E3 		cmp	r2, #3
  93 00ec 910303E0 		mul	r3, r1, r3
  94 00f0 7D00000A 		beq	.L50
  95 00f4 0C1095E5 		ldr	r1, [r5, #12]
  96 00f8 040052E3 		cmp	r2, #4
  97 00fc 910303E0 		mul	r3, r1, r3
  98 0100 7900000A 		beq	.L50
  99 0104 101095E5 		ldr	r1, [r5, #16]
 100 0108 050052E3 		cmp	r2, #5
 101 010c 910303E0 		mul	r3, r1, r3
 102 0110 7500000A 		beq	.L50
 103 0114 141095E5 		ldr	r1, [r5, #20]
 104 0118 060052E3 		cmp	r2, #6
 105 011c 910303E0 		mul	r3, r1, r3
 106 0120 7100000A 		beq	.L50
 107 0124 181095E5 		ldr	r1, [r5, #24]
 108 0128 070052E3 		cmp	r2, #7
 109 012c 910303E0 		mul	r3, r1, r3
 110 0130 6D00000A 		beq	.L50
 111 0134 1C1095E5 		ldr	r1, [r5, #28]
 112 0138 0860A0E3 		mov	r6, #8
 113 013c 910303E0 		mul	r3, r1, r3
 114              	.L15:
 115 0140 02005CE1 		cmp	ip, r2
 116 0144 2800000A 		beq	.L16
 117              	.L14:
 118 0148 02704CE0 		sub	r7, ip, r2
 119 014c 01104CE2 		sub	r1, ip, #1
 120 0150 04E047E2 		sub	lr, r7, #4
 121 0154 021041E0 		sub	r1, r1, r2
 122 0158 2EE1A0E1 		lsr	lr, lr, #2
 123 015c 020051E3 		cmp	r1, #2
 124 0160 01E08EE2 		add	lr, lr, #1
 125 0164 0E81A0E1 		lsl	r8, lr, #2
 126 0168 1200009A 		bls	.L17
 127 016c 022185E0 		add	r2, r5, r2, lsl #2
 128 0170 5100C0F2 		vmov.i32	q8, #1  @ v4si
 129 0174 0010A0E3 		mov	r1, #0
 130              	.L19:
 131 0178 011081E2 		add	r1, r1, #1
 132 017c DF2A62F4 		vld1.64	{d18-d19}, [r2:64]
 133 0180 01005EE1 		cmp	lr, r1
 134 0184 102082E2 		add	r2, r2, #16
 135 0188 F20960F2 		vmul.i32	q8, q8, q9
 136 018c F9FFFF8A 		bhi	.L19
 137 0190 080057E1 		cmp	r7, r8
 138 0194 086086E0 		add	r6, r6, r8
 139 0198 5020C0F2 		vmov.i32	q9, #0  @ v4si
 140 019c E248F0F2 		vext.32	q10, q8, q9, #2
 141 01a0 F40960F2 		vmul.i32	q8, q8, q10
 142 01a4 E224F0F2 		vext.32	q9, q8, q9, #1
 143 01a8 F20960F2 		vmul.i32	q8, q8, q9
 144 01ac 901B10EE 		vmov.32	r1, d16[0]
 145 01b0 910303E0 		mul	r3, r1, r3
 146 01b4 0C00000A 		beq	.L16
 147              	.L17:
 148 01b8 061195E7 		ldr	r1, [r5, r6, lsl #2]
 149 01bc 012086E2 		add	r2, r6, #1
 150 01c0 02005CE1 		cmp	ip, r2
 151 01c4 0621A0E1 		lsl	r2, r6, #2
 152 01c8 910303E0 		mul	r3, r1, r3
 153 01cc 060000DA 		ble	.L16
 154 01d0 022085E0 		add	r2, r5, r2
 155 01d4 021086E2 		add	r1, r6, #2
 156 01d8 04E092E5 		ldr	lr, [r2, #4]
 157 01dc 01005CE1 		cmp	ip, r1
 158 01e0 9E0303E0 		mul	r3, lr, r3
 159 01e4 082092C5 		ldrgt	r2, [r2, #8]
 160 01e8 920303C0 		mulgt	r3, r2, r3
 161              	.L16:
 162 01ec 000053E3 		cmp	r3, #0
 163 01f0 2B0000DA 		ble	.L29
 164              	.L10:
 165 01f4 04E080E1 		orr	lr, r0, r4
 166 01f8 090053E3 		cmp	r3, #9
 167 01fc 031180E0 		add	r1, r0, r3, lsl #2
 168 0200 5EE0E3E7 		ubfx	lr, lr, #0, #4
 169 0204 042084E2 		add	r2, r4, #4
 170 0208 0050A093 		movls	r5, #0
 171 020c 0150A083 		movhi	r5, #1
 172 0210 00005EE3 		cmp	lr, #0
 173 0214 0050A013 		movne	r5, #0
 174 0218 020050E1 		cmp	r0, r2
 175 021c 01005431 		cmpcc	r4, r1
 176 0220 0120A023 		movcs	r2, #1
 177 0224 0020A033 		movcc	r2, #0
 178 0228 052012E0 		ands	r2, r2, r5
 179 022c 3700000A 		beq	.L23
 180 0230 042043E2 		sub	r2, r3, #4
 181 0234 030053E3 		cmp	r3, #3
 182 0238 2221A0E1 		lsr	r2, r2, #2
 183 023c 012082E2 		add	r2, r2, #1
 184 0240 0211A0E1 		lsl	r1, r2, #2
 185 0244 2F0000DA 		ble	.L51
 186 0248 AF0CE4F4 		vld1.32	{d16[], d17[]}, [r4]
 187 024c 0050A0E1 		mov	r5, r0
 188 0250 00E0A0E3 		mov	lr, #0
 189              	.L26:
 190 0254 01E08EE2 		add	lr, lr, #1
 191 0258 DF0A45F4 		vst1.64	{d16-d17}, [r5:64]
 192 025c 0E0052E1 		cmp	r2, lr
 193 0260 105085E2 		add	r5, r5, #16
 194 0264 FAFFFF8A 		bhi	.L26
 195 0268 010053E1 		cmp	r3, r1
 196 026c 0120A0E1 		mov	r2, r1
 197 0270 0B00000A 		beq	.L29
 198              	.L24:
 199 0274 00E094E5 		ldr	lr, [r4]	@ float
 200 0278 011082E2 		add	r1, r2, #1
 201 027c 020180E0 		add	r0, r0, r2, lsl #2
 202 0280 010053E1 		cmp	r3, r1
 203 0284 00E080E5 		str	lr, [r0]	@ float
 204 0288 050000DA 		ble	.L29
 205 028c 022082E2 		add	r2, r2, #2
 206 0290 001094E5 		ldr	r1, [r4]	@ float
 207 0294 020053E1 		cmp	r3, r2
 208 0298 041080E5 		str	r1, [r0, #4]	@ float
 209 029c 003094C5 		ldrgt	r3, [r4]	@ float
 210 02a0 083080C5 		strgt	r3, [r0, #8]	@ float
 211              	.L29:
 212 02a4 05005CE3 		cmp	ip, #5
 213 02a8 0A0000DA 		ble	.L34
 214 02ac 04009DE5 		ldr	r0, [sp, #4]
 215 02b0 000050E3 		cmp	r0, #0
 216 02b4 0700000A 		beq	.L34
 217 02b8 FEFFFFEB 		bl	_ZdaPv
 218 02bc 18309DE5 		ldr	r3, [sp, #24]
 219 02c0 050053E3 		cmp	r3, #5
 220 02c4 030000DA 		ble	.L34
 221 02c8 1C009DE5 		ldr	r0, [sp, #28]
 222 02cc 000050E3 		cmp	r0, #0
 223 02d0 0000000A 		beq	.L34
 224 02d4 FEFFFFEB 		bl	_ZdaPv
 225              	.L34:
 226 02d8 0000A0E3 		mov	r0, #0
 227 02dc 30D08DE2 		add	sp, sp, #48
 228              		@ sp needed
 229 02e0 F081BDE8 		pop	{r4, r5, r6, r7, r8, pc}
 230              	.L80:
 231 02e4 04509DE5 		ldr	r5, [sp, #4]
 232 02e8 6FFFFFEA 		b	.L9
 233              	.L50:
 234 02ec 0260A0E1 		mov	r6, r2
 235 02f0 92FFFFEA 		b	.L15
 236              	.L82:
 237 02f4 000052E3 		cmp	r2, #0
 238 02f8 0130A003 		moveq	r3, #1
 239 02fc 0260A001 		moveq	r6, r2
 240 0300 90FFFF0A 		beq	.L14
 241 0304 6FFFFFEA 		b	.L13
 242              	.L51:
 243 0308 0020A0E3 		mov	r2, #0
 244 030c D8FFFFEA 		b	.L24
 245              	.L23:
 246 0310 080053E3 		cmp	r3, #8
 247 0314 180000DA 		ble	.L30
 248 0318 09E043E2 		sub	lr, r3, #9
 249 031c 741080E2 		add	r1, r0, #116
 250 0320 07E0CEE3 		bic	lr, lr, #7
 251 0324 08E08EE2 		add	lr, lr, #8
 252              	.L31:
 253 0328 005094E5 		ldr	r5, [r4]	@ float
 254 032c 082082E2 		add	r2, r2, #8
 255 0330 0E0052E1 		cmp	r2, lr
 256 0334 00F0D1F5 		pld	[r1]
 257 0338 201081E2 		add	r1, r1, #32
 258 033c 945001E5 		str	r5, [r1, #-148]	@ float
 259 0340 005094E5 		ldr	r5, [r4]	@ float
 260 0344 905001E5 		str	r5, [r1, #-144]	@ float
 261 0348 005094E5 		ldr	r5, [r4]	@ float
 262 034c 8C5001E5 		str	r5, [r1, #-140]	@ float
 263 0350 005094E5 		ldr	r5, [r4]	@ float
 264 0354 885001E5 		str	r5, [r1, #-136]	@ float
 265 0358 005094E5 		ldr	r5, [r4]	@ float
 266 035c 845001E5 		str	r5, [r1, #-132]	@ float
 267 0360 005094E5 		ldr	r5, [r4]	@ float
 268 0364 805001E5 		str	r5, [r1, #-128]	@ float
 269 0368 005094E5 		ldr	r5, [r4]	@ float
 270 036c 7C5001E5 		str	r5, [r1, #-124]	@ float
 271 0370 005094E5 		ldr	r5, [r4]	@ float
 272 0374 785001E5 		str	r5, [r1, #-120]	@ float
 273 0378 EAFFFF1A 		bne	.L31
 274              	.L30:
 275 037c 020180E0 		add	r0, r0, r2, lsl #2
 276              	.L33:
 277 0380 012082E2 		add	r2, r2, #1
 278 0384 001094E5 		ldr	r1, [r4]	@ float
 279 0388 020053E1 		cmp	r3, r2
 280 038c 041080E4 		str	r1, [r0], #4	@ float
 281 0390 FAFFFFCA 		bgt	.L33
 282 0394 C2FFFFEA 		b	.L29
 283              	.L81:
 284 0398 0130A0E3 		mov	r3, #1
 285 039c 94FFFFEA 		b	.L10
 286              	.L3:
 287              	.LEHB2:
 288 03a0 FEFFFFEB 		bl	abort
 289              	.L53:
 290              	.L37:
 291 03a4 18309DE5 		ldr	r3, [sp, #24]
 292 03a8 050053E3 		cmp	r3, #5
 293 03ac 030000DA 		ble	.L38
 294 03b0 1C009DE5 		ldr	r0, [sp, #28]
 295 03b4 000050E3 		cmp	r0, #0
 296 03b8 0000000A 		beq	.L38
 297 03bc FEFFFFEB 		bl	_ZdaPv
 298              	.L38:
 299 03c0 FEFFFFEB 		bl	__cxa_end_cleanup
 300              	.LEHE2:
 301              	.L79:
 302              	.LEHB3:
 303 03c4 FEFFFFEB 		bl	abort
 304              	.LEHE3:
 305              	.L54:
 306 03c8 00309DE5 		ldr	r3, [sp]
 307 03cc 050053E3 		cmp	r3, #5
 308 03d0 F3FFFFDA 		ble	.L37
 309 03d4 04009DE5 		ldr	r0, [sp, #4]
 310 03d8 000050E3 		cmp	r0, #0
 311 03dc F0FFFF0A 		beq	.L37
 312 03e0 FEFFFFEB 		bl	_ZdaPv
 313 03e4 EEFFFFEA 		b	.L37
 314              		.global	__gxx_personality_v0
 315              		.personality	__gxx_personality_v0
 316              		.handlerdata
 317              	.LLSDA1158:
 318 0008 FF       		.byte	0xff
 319 0009 FF       		.byte	0xff
 320 000a 01       		.byte	0x1
 321 000b 14       		.uleb128 .LLSDACSE1158-.LLSDACSB1158
 322              	.LLSDACSB1158:
 323 000c 28       		.uleb128 .LEHB0-.LFB1158
 324 000d 44       		.uleb128 .LEHE0-.LEHB0
 325 000e 00       		.uleb128 0
 326 000f 00       		.uleb128 0
 327 0010 78       		.uleb128 .LEHB1-.LFB1158
 328 0011 04       		.uleb128 .LEHE1-.LEHB1
 329 0012 A407     		.uleb128 .L53-.LFB1158
 330 0014 00       		.uleb128 0
 331 0015 A007     		.uleb128 .LEHB2-.LFB1158
 332 0017 24       		.uleb128 .LEHE2-.LEHB2
 333 0018 00       		.uleb128 0
 334 0019 00       		.uleb128 0
 335 001a C407     		.uleb128 .LEHB3-.LFB1158
 336 001c 04       		.uleb128 .LEHE3-.LEHB3
 337 001d C807     		.uleb128 .L54-.LFB1158
 338 001f 00       		.uleb128 0
 339              	.LLSDACSE1158:
 340              		.section	.text._ZN6tflite12_GLOBAL__N_14EvalEP13TfLiteContextP10TfLiteNode
 341              		.fnend
 343              		.section	.text._ZN6tflite12_GLOBAL__N_17PrepareEP13TfLiteContextP10TfLiteNode,"ax",%progbits
 344              		.align	2
 345              		.syntax unified
 346              		.arm
 347              		.fpu neon
 349              	_ZN6tflite12_GLOBAL__N_17PrepareEP13TfLiteContextP10TfLiteNode:
 350              		.fnstart
 351              	.LFB1156:
 352              		@ args = 0, pretend = 0, frame = 16
 353              		@ frame_needed = 0, uses_anonymous_args = 0
 354 0000 30402DE9 		push	{r4, r5, lr}
 355              		.save {r4, r5, lr}
 356              		.pad #20
 357 0004 14D04DE2 		sub	sp, sp, #20
 358 0008 04308DE2 		add	r3, sp, #4
 359 000c 0020A0E3 		mov	r2, #0
 360 0010 0040A0E1 		mov	r4, r0
 361 0014 0150A0E1 		mov	r5, r1
 362 0018 FEFFFFEB 		bl	_ZN6tflite12GetInputSafeEPK13TfLiteContextPK10TfLiteNodeiPPK12TfLiteTensor
 363 001c 000050E3 		cmp	r0, #0
 364 0020 0100000A 		beq	.L144
 365              	.L84:
 366 0024 14D08DE2 		add	sp, sp, #20
 367              		@ sp needed
 368 0028 3080BDE8 		pop	{r4, r5, pc}
 369              	.L144:
 370 002c 08308DE2 		add	r3, sp, #8
 371 0030 0120A0E3 		mov	r2, #1
 372 0034 0510A0E1 		mov	r1, r5
 373 0038 0400A0E1 		mov	r0, r4
 374 003c FEFFFFEB 		bl	_ZN6tflite12GetInputSafeEPK13TfLiteContextPK10TfLiteNodeiPPK12TfLiteTensor
 375 0040 000050E3 		cmp	r0, #0
 376 0044 F6FFFF1A 		bne	.L84
 377 0048 0020A0E1 		mov	r2, r0
 378 004c 0510A0E1 		mov	r1, r5
 379 0050 0400A0E1 		mov	r0, r4
 380 0054 0C308DE2 		add	r3, sp, #12
 381 0058 FEFFFFEB 		bl	_ZN6tflite13GetOutputSafeEPK13TfLiteContextPK10TfLiteNodeiPP12TfLiteTensor
 382 005c 000050E3 		cmp	r0, #0
 383 0060 EFFFFF1A 		bne	.L84
 384 0064 08309DE5 		ldr	r3, [sp, #8]
 385 0068 082093E5 		ldr	r2, [r3, #8]
 386 006c 002092E5 		ldr	r2, [r2]
 387 0070 000052E3 		cmp	r2, #0
 388 0074 0400001A 		bne	.L129
 389 0078 0C109DE5 		ldr	r1, [sp, #12]
 390 007c 0000D3E5 		ldrb	r0, [r3]	@ zero_extendqisi2
 391 0080 0030D1E5 		ldrb	r3, [r1]	@ zero_extendqisi2
 392 0084 030050E1 		cmp	r0, r3
 393 0088 0100000A 		beq	.L145
 394              	.L129:
 395 008c 0100A0E3 		mov	r0, #1
 396 0090 E3FFFFEA 		b	.L84
 397              	.L145:
 398 0094 04C09DE5 		ldr	ip, [sp, #4]
 399 0098 08E09CE5 		ldr	lr, [ip, #8]
 400 009c 00009EE5 		ldr	r0, [lr]
 401 00a0 010050E3 		cmp	r0, #1
 402 00a4 F8FFFF1A 		bne	.L129
 403 00a8 083091E5 		ldr	r3, [r1, #8]
 404 00ac 04E09EE5 		ldr	lr, [lr, #4]
 405 00b0 001093E5 		ldr	r1, [r3]
 406 00b4 01005EE1 		cmp	lr, r1
 407 00b8 D9FFFF1A 		bne	.L84
 408 00bc 0010DCE5 		ldrb	r1, [ip]	@ zero_extendqisi2
 409 00c0 021041E2 		sub	r1, r1, #2
 410 00c4 070051E3 		cmp	r1, #7
 411 00c8 01F19F97 		ldrls	pc, [pc, r1, asl #2]
 412 00cc EEFFFFEA 		b	.L129
 413              	.L86:
 414 00d0 CC010000 		.word	.L85
 415 00d4 84010000 		.word	.L87
 416 00d8 10020000 		.word	.L88
 417 00dc 8C000000 		.word	.L129
 418 00e0 8C000000 		.word	.L129
 419 00e4 3C010000 		.word	.L89
 420 00e8 8C000000 		.word	.L129
 421 00ec F0000000 		.word	.L90
 422              	.L90:
 423 00f0 00005EE3 		cmp	lr, #0
 424 00f4 0E0000DA 		ble	.L127
 425 00f8 04209CE5 		ldr	r2, [ip, #4]
 426 00fc 040093E5 		ldr	r0, [r3, #4]
 427 0100 D010D2E1 		ldrsb	r1, [r2]
 428 0104 010050E1 		cmp	r0, r1
 429 0108 DFFFFF1A 		bne	.L129
 430 010c 0EE082E0 		add	lr, r2, lr
 431 0110 083083E2 		add	r3, r3, #8
 432 0114 012082E2 		add	r2, r2, #1
 433 0118 030000EA 		b	.L96
 434              	.L139:
 435 011c 040093E4 		ldr	r0, [r3], #4
 436 0120 D110D2E0 		ldrsb	r1, [r2], #1
 437 0124 010050E1 		cmp	r0, r1
 438 0128 D7FFFF1A 		bne	.L129
 439              	.L96:
 440 012c 0E0052E1 		cmp	r2, lr
 441 0130 F9FFFF1A 		bne	.L139
 442              	.L127:
 443 0134 0000A0E3 		mov	r0, #0
 444 0138 B9FFFFEA 		b	.L84
 445              	.L89:
 446 013c 00005EE3 		cmp	lr, #0
 447 0140 FBFFFFDA 		ble	.L127
 448 0144 04209CE5 		ldr	r2, [ip, #4]
 449 0148 041093E5 		ldr	r1, [r3, #4]
 450 014c F000D2E1 		ldrsh	r0, [r2]
 451 0150 010050E1 		cmp	r0, r1
 452 0154 CCFFFF1A 		bne	.L129
 453 0158 8EE082E0 		add	lr, r2, lr, lsl #1
 454 015c 083083E2 		add	r3, r3, #8
 455 0160 022082E2 		add	r2, r2, #2
 456 0164 030000EA 		b	.L100
 457              	.L141:
 458 0168 040093E4 		ldr	r0, [r3], #4
 459 016c F210D2E0 		ldrsh	r1, [r2], #2
 460 0170 010050E1 		cmp	r0, r1
 461 0174 C4FFFF1A 		bne	.L129
 462              	.L100:
 463 0178 0E0052E1 		cmp	r2, lr
 464 017c F9FFFF1A 		bne	.L141
 465 0180 EBFFFFEA 		b	.L127
 466              	.L87:
 467 0184 00005EE3 		cmp	lr, #0
 468 0188 E9FFFFDA 		ble	.L127
 469 018c 04209CE5 		ldr	r2, [ip, #4]
 470 0190 041093E5 		ldr	r1, [r3, #4]
 471 0194 0000D2E5 		ldrb	r0, [r2]	@ zero_extendqisi2
 472 0198 010050E1 		cmp	r0, r1
 473 019c BAFFFF1A 		bne	.L129
 474 01a0 0EE082E0 		add	lr, r2, lr
 475 01a4 083083E2 		add	r3, r3, #8
 476 01a8 012082E2 		add	r2, r2, #1
 477 01ac 030000EA 		b	.L98
 478              	.L140:
 479 01b0 040093E4 		ldr	r0, [r3], #4
 480 01b4 0110D2E4 		ldrb	r1, [r2], #1	@ zero_extendqisi2
 481 01b8 010050E1 		cmp	r0, r1
 482 01bc B2FFFF1A 		bne	.L129
 483              	.L98:
 484 01c0 0E0052E1 		cmp	r2, lr
 485 01c4 F9FFFF1A 		bne	.L140
 486 01c8 D9FFFFEA 		b	.L127
 487              	.L85:
 488 01cc 00005EE3 		cmp	lr, #0
 489 01d0 D7FFFFDA 		ble	.L127
 490 01d4 04109CE5 		ldr	r1, [ip, #4]
 491 01d8 040093E5 		ldr	r0, [r3, #4]
 492 01dc 00C091E5 		ldr	ip, [r1]
 493 01e0 00005CE1 		cmp	ip, r0
 494 01e4 A8FFFF1A 		bne	.L129
 495 01e8 083083E2 		add	r3, r3, #8
 496 01ec 030000EA 		b	.L102
 497              	.L142:
 498 01f0 04C093E4 		ldr	ip, [r3], #4
 499 01f4 0400B1E5 		ldr	r0, [r1, #4]!
 500 01f8 00005CE1 		cmp	ip, r0
 501 01fc A2FFFF1A 		bne	.L129
 502              	.L102:
 503 0200 012082E2 		add	r2, r2, #1
 504 0204 02005EE1 		cmp	lr, r2
 505 0208 F8FFFF1A 		bne	.L142
 506 020c C8FFFFEA 		b	.L127
 507              	.L88:
 508 0210 00005EE3 		cmp	lr, #0
 509 0214 C6FFFFDA 		ble	.L127
 510 0218 044093E5 		ldr	r4, [r3, #4]
 511 021c 04C09CE5 		ldr	ip, [ip, #4]
 512 0220 D000CCE1 		ldrd	r0, [ip]
 513 0224 C45FA0E1 		asr	r5, r4, #31
 514 0228 050051E1 		cmp	r1, r5
 515 022c 04005001 		cmpeq	r0, r4
 516 0230 95FFFF1A 		bne	.L129
 517 0234 083083E2 		add	r3, r3, #8
 518 0238 050000EA 		b	.L104
 519              	.L105:
 520 023c 040093E4 		ldr	r0, [r3], #4
 521 0240 D840ECE1 		ldrd	r4, [ip, #8]!
 522 0244 C01FA0E1 		asr	r1, r0, #31
 523 0248 050051E1 		cmp	r1, r5
 524 024c 04005001 		cmpeq	r0, r4
 525 0250 8DFFFF1A 		bne	.L129
 526              	.L104:
 527 0254 012082E2 		add	r2, r2, #1
 528 0258 02005EE1 		cmp	lr, r2
 529 025c F6FFFF1A 		bne	.L105
 530 0260 B3FFFFEA 		b	.L127
 531              		.fnend
 533              		.section	.text._ZN6tflite13Register_FILLEv,"ax",%progbits
 534              		.align	2
 535              		.global	_ZN6tflite13Register_FILLEv
 536              		.syntax unified
 537              		.arm
 538              		.fpu neon
 540              	_ZN6tflite13Register_FILLEv:
 541              		.fnstart
 542              	.LFB1159:
 543              		@ args = 0, pretend = 0, frame = 0
 544              		@ frame_needed = 0, uses_anonymous_args = 0
 545 0000 00C000E3 		movw	ip, #:lower16:.LANCHOR0
 546 0004 10402DE9 		push	{r4, lr}
 547 0008 00C040E3 		movt	ip, #:upper16:.LANCHOR0
 548 000c 0040A0E1 		mov	r4, r0
 549 0010 00E0A0E1 		mov	lr, r0
 550 0014 0F00BCE8 		ldmia	ip!, {r0, r1, r2, r3}
 551 0018 0F00AEE8 		stmia	lr!, {r0, r1, r2, r3}
 552 001c 0F009CE8 		ldm	ip, {r0, r1, r2, r3}
 553 0020 0F008EE8 		stm	lr, {r0, r1, r2, r3}
 554 0024 0400A0E1 		mov	r0, r4
 555 0028 1080BDE8 		pop	{r4, pc}
 556              		.cantunwind
 557              		.fnend
 559              		.section	.rodata
 560              		.align	2
 561              		.set	.LANCHOR0,. + 0
 562              	.LC0:
 563 0000 00000000 		.word	0
 564 0004 00000000 		.word	0
 565 0008 00000000 		.word	_ZN6tflite12_GLOBAL__N_17PrepareEP13TfLiteContextP10TfLiteNode
 566 000c 00000000 		.word	_ZN6tflite12_GLOBAL__N_14EvalEP13TfLiteContextP10TfLiteNode
 567 0010 00000000 		.word	0
 568 0014 00000000 		.word	0
 569 0018 00000000 		.word	0
 570 001c 00000000 		.word	0
 571              		.ident	"GCC: (GNU Tools for ARM Embedded Processors 6-2017-q2-update) 6.3.1 20170620 (release) [AR