   1              		.cpu cortex-a9
   2              		.eabi_attribute 28, 1
   3              		.eabi_attribute 20, 1
   4              		.eabi_attribute 21, 1
   5              		.eabi_attribute 23, 3
   6              		.eabi_attribute 24, 1
   7              		.eabi_attribute 25, 1
   8              		.eabi_attribute 26, 1
   9              		.eabi_attribute 30, 2
  10              		.eabi_attribute 34, 0
  11              		.eabi_attribute 18, 4
  12              		.file	"neg.cc"
  13              		.section	.text._ZN6tflite3ops5micro3neg4EvalEP13TfLiteContextP10TfLiteNode,"ax",%progbits
  14              		.align	2
  15              		.global	_ZN6tflite3ops5micro3neg4EvalEP13TfLiteContextP10TfLiteNode
  16              		.syntax unified
  17              		.arm
  18              		.fpu neon
  20              	_ZN6tflite3ops5micro3neg4EvalEP13TfLiteContextP10TfLiteNode:
  21              		.fnstart
  22              	.LFB922:
  23              		@ args = 0, pretend = 0, frame = 48
  24              		@ frame_needed = 0, uses_anonymous_args = 0
  25 0000 F0432DE9 		push	{r4, r5, r6, r7, r8, r9, lr}
  26              		.save {r4, r5, r6, r7, r8, r9, lr}
  27 0004 004050E2 		subs	r4, r0, #0
  28              		.pad #52
  29 0008 34D04DE2 		sub	sp, sp, #52
  30 000c 4001000A 		beq	.L3
  31 0010 000051E3 		cmp	r1, #0
  32 0014 0150A0E1 		mov	r5, r1
  33 0018 3D01000A 		beq	.L3
  34 001c 002091E5 		ldr	r2, [r1]
  35 0020 543094E5 		ldr	r3, [r4, #84]
  36 0024 041092E5 		ldr	r1, [r2, #4]
  37              	.LEHB0:
  38 0028 33FF2FE1 		blx	r3
  39 002c 042095E5 		ldr	r2, [r5, #4]
  40 0030 0060A0E1 		mov	r6, r0
  41 0034 543094E5 		ldr	r3, [r4, #84]
  42 0038 0400A0E1 		mov	r0, r4
  43 003c 041092E5 		ldr	r1, [r2, #4]
  44 0040 33FF2FE1 		blx	r3
  45 0044 0830D6E5 		ldrb	r3, [r6, #8]	@ zero_extendqisi2
  46 0048 0050A0E1 		mov	r5, r0
  47 004c 010053E3 		cmp	r3, #1
  48 0050 0100A013 		movne	r0, #1
  49 0054 0100000A 		beq	.L100
  50 0058 34D08DE2 		add	sp, sp, #52
  51              		@ sp needed
  52 005c F083BDE8 		pop	{r4, r5, r6, r7, r8, r9, pc}
  53              	.L100:
  54 0060 0610A0E1 		mov	r1, r6
  55 0064 0D00A0E1 		mov	r0, sp
  56 0068 FEFFFFEB 		bl	_ZN6tflite5micro14GetTensorShapeEPK16TfLiteEvalTensor
  57              	.LEHE0:
  58 006c 0510A0E1 		mov	r1, r5
  59 0070 18008DE2 		add	r0, sp, #24
  60 0074 004096E5 		ldr	r4, [r6]
  61              	.LEHB1:
  62 0078 FEFFFFEB 		bl	_ZN6tflite5micro14GetTensorShapeEPK16TfLiteEvalTensor
  63              	.LEHE1:
  64 007c 00209DE5 		ldr	r2, [sp]
  65 0080 000055E3 		cmp	r5, #0
  66 0084 18C09DE5 		ldr	ip, [sp, #24]
  67 0088 0500A001 		moveq	r0, r5
  68 008c 00009515 		ldrne	r0, [r5]
  69 0090 0C0052E1 		cmp	r2, ip
  70 0094 2001001A 		bne	.L7
  71 0098 000052E3 		cmp	r2, #0
  72 009c D70000DA 		ble	.L55
  73 00a0 050052E3 		cmp	r2, #5
  74 00a4 04709DE5 		ldr	r7, [sp, #4]
  75 00a8 1C109DE5 		ldr	r1, [sp, #28]
  76 00ac C40000CA 		bgt	.L10
  77 00b0 000052E3 		cmp	r2, #0
  78 00b4 150100DA 		ble	.L11
  79 00b8 010057E1 		cmp	r7, r1
  80 00bc 0301001A 		bne	.L12
  81 00c0 010052E3 		cmp	r2, #1
  82 00c4 1900000A 		beq	.L54
  83 00c8 08109DE5 		ldr	r1, [sp, #8]
  84 00cc 20309DE5 		ldr	r3, [sp, #32]
  85 00d0 030051E1 		cmp	r1, r3
  86 00d4 FD00001A 		bne	.L12
  87 00d8 020052E3 		cmp	r2, #2
  88 00dc 1300000A 		beq	.L54
  89 00e0 0C109DE5 		ldr	r1, [sp, #12]
  90 00e4 24309DE5 		ldr	r3, [sp, #36]
  91 00e8 030051E1 		cmp	r1, r3
  92 00ec F700001A 		bne	.L12
  93 00f0 030052E3 		cmp	r2, #3
  94 00f4 0D00000A 		beq	.L54
  95 00f8 03005CE3 		cmp	ip, #3
  96 00fc 10109DE5 		ldr	r1, [sp, #16]
  97 0100 0201000A 		beq	.L11
  98 0104 28309DE5 		ldr	r3, [sp, #40]
  99 0108 030051E1 		cmp	r1, r3
 100 010c EF00001A 		bne	.L12
 101 0110 040052E3 		cmp	r2, #4
 102 0114 0500000A 		beq	.L54
 103 0118 04005CE3 		cmp	ip, #4
 104 011c 14309DE5 		ldr	r3, [sp, #20]
 105 0120 FA00000A 		beq	.L11
 106 0124 2C109DE5 		ldr	r1, [sp, #44]
 107 0128 030051E1 		cmp	r1, r3
 108 012c E700001A 		bne	.L12
 109              	.L54:
 110 0130 04608DE2 		add	r6, sp, #4
 111              	.L13:
 112 0134 5611A0E7 		sbfx	r1, r6, #2, #1
 113 0138 031001E2 		and	r1, r1, #3
 114 013c 020051E1 		cmp	r1, r2
 115 0140 0210A021 		movcs	r1, r2
 116 0144 080052E3 		cmp	r2, #8
 117 0148 0210A091 		movls	r1, r2
 118 014c 000051E3 		cmp	r1, #0
 119 0150 AC00000A 		beq	.L56
 120 0154 010051E3 		cmp	r1, #1
 121 0158 003096E5 		ldr	r3, [r6]
 122 015c 9600000A 		beq	.L63
 123 0160 04E096E5 		ldr	lr, [r6, #4]
 124 0164 020051E3 		cmp	r1, #2
 125 0168 9E0303E0 		mul	r3, lr, r3
 126 016c 9200000A 		beq	.L63
 127 0170 08E096E5 		ldr	lr, [r6, #8]
 128 0174 030051E3 		cmp	r1, #3
 129 0178 9E0303E0 		mul	r3, lr, r3
 130 017c 8E00000A 		beq	.L63
 131 0180 0CE096E5 		ldr	lr, [r6, #12]
 132 0184 040051E3 		cmp	r1, #4
 133 0188 9E0303E0 		mul	r3, lr, r3
 134 018c 8A00000A 		beq	.L63
 135 0190 10E096E5 		ldr	lr, [r6, #16]
 136 0194 050051E3 		cmp	r1, #5
 137 0198 9E0303E0 		mul	r3, lr, r3
 138 019c 8600000A 		beq	.L63
 139 01a0 14E096E5 		ldr	lr, [r6, #20]
 140 01a4 060051E3 		cmp	r1, #6
 141 01a8 9E0303E0 		mul	r3, lr, r3
 142 01ac 8200000A 		beq	.L63
 143 01b0 18E096E5 		ldr	lr, [r6, #24]
 144 01b4 070051E3 		cmp	r1, #7
 145 01b8 9E0303E0 		mul	r3, lr, r3
 146 01bc 7E00000A 		beq	.L63
 147 01c0 1CE096E5 		ldr	lr, [r6, #28]
 148 01c4 0870A0E3 		mov	r7, #8
 149 01c8 9E0303E0 		mul	r3, lr, r3
 150              	.L21:
 151 01cc 010052E1 		cmp	r2, r1
 152 01d0 2800000A 		beq	.L22
 153              	.L20:
 154 01d4 018042E0 		sub	r8, r2, r1
 155 01d8 01E042E2 		sub	lr, r2, #1
 156 01dc 045048E2 		sub	r5, r8, #4
 157 01e0 01E04EE0 		sub	lr, lr, r1
 158 01e4 2551A0E1 		lsr	r5, r5, #2
 159 01e8 02005EE3 		cmp	lr, #2
 160 01ec 015085E2 		add	r5, r5, #1
 161 01f0 0591A0E1 		lsl	r9, r5, #2
 162 01f4 1200009A 		bls	.L23
 163 01f8 011186E0 		add	r1, r6, r1, lsl #2
 164 01fc 5100C0F2 		vmov.i32	q8, #1  @ v4si
 165 0200 00E0A0E3 		mov	lr, #0
 166              	.L25:
 167 0204 01E08EE2 		add	lr, lr, #1
 168 0208 DF2A61F4 		vld1.64	{d18-d19}, [r1:64]
 169 020c 0E0055E1 		cmp	r5, lr
 170 0210 101081E2 		add	r1, r1, #16
 171 0214 F20960F2 		vmul.i32	q8, q8, q9
 172 0218 F9FFFF8A 		bhi	.L25
 173 021c 090058E1 		cmp	r8, r9
 174 0220 097087E0 		add	r7, r7, r9
 175 0224 5020C0F2 		vmov.i32	q9, #0  @ v4si
 176 0228 E248F0F2 		vext.32	q10, q8, q9, #2
 177 022c F40960F2 		vmul.i32	q8, q8, q10
 178 0230 E224F0F2 		vext.32	q9, q8, q9, #1
 179 0234 F20960F2 		vmul.i32	q8, q8, q9
 180 0238 90EB10EE 		vmov.32	lr, d16[0]
 181 023c 9E0303E0 		mul	r3, lr, r3
 182 0240 0C00000A 		beq	.L22
 183              	.L23:
 184 0244 07E196E7 		ldr	lr, [r6, r7, lsl #2]
 185 0248 011087E2 		add	r1, r7, #1
 186 024c 010052E1 		cmp	r2, r1
 187 0250 0711A0E1 		lsl	r1, r7, #2
 188 0254 9E0303E0 		mul	r3, lr, r3
 189 0258 060000DA 		ble	.L22
 190 025c 011086E0 		add	r1, r6, r1
 191 0260 02E087E2 		add	lr, r7, #2
 192 0264 045091E5 		ldr	r5, [r1, #4]
 193 0268 0E0052E1 		cmp	r2, lr
 194 026c 950303E0 		mul	r3, r5, r3
 195 0270 082091C5 		ldrgt	r2, [r1, #8]
 196 0274 920303C0 		mulgt	r3, r2, r3
 197              	.L22:
 198 0278 000053E3 		cmp	r3, #0
 199 027c 3C0000DA 		ble	.L35
 200              	.L8:
 201 0280 102080E2 		add	r2, r0, #16
 202 0284 105084E2 		add	r5, r4, #16
 203 0288 0210A0E1 		mov	r1, r2
 204 028c 00E084E1 		orr	lr, r4, r0
 205 0290 050050E1 		cmp	r0, r5
 206 0294 01005431 		cmpcc	r4, r1
 207 0298 0520A0E1 		mov	r2, r5
 208 029c 0120A023 		movcs	r2, #1
 209 02a0 0020A033 		movcc	r2, #0
 210 02a4 0F001EE3 		tst	lr, #15
 211 02a8 0020A013 		movne	r2, #0
 212 02ac 01200202 		andeq	r2, r2, #1
 213 02b0 060053E3 		cmp	r3, #6
 214 02b4 0020A093 		movls	r2, #0
 215 02b8 01200282 		andhi	r2, r2, #1
 216 02bc 000052E3 		cmp	r2, #0
 217 02c0 5300000A 		beq	.L29
 218 02c4 042043E2 		sub	r2, r3, #4
 219 02c8 030053E3 		cmp	r3, #3
 220 02cc 2221A0E1 		lsr	r2, r2, #2
 221 02d0 012082E2 		add	r2, r2, #1
 222 02d4 0211A0E1 		lsl	r1, r2, #2
 223 02d8 350000DA 		ble	.L64
 224 02dc 0460A0E1 		mov	r6, r4
 225 02e0 0050A0E1 		mov	r5, r0
 226 02e4 00E0A0E3 		mov	lr, #0
 227              	.L32:
 228 02e8 DF0A66F4 		vld1.64	{d16-d17}, [r6:64]
 229 02ec 01E08EE2 		add	lr, lr, #1
 230 02f0 E007F9F3 		vneg.f32	q8, q8
 231 02f4 0E0052E1 		cmp	r2, lr
 232 02f8 106086E2 		add	r6, r6, #16
 233 02fc 105085E2 		add	r5, r5, #16
 234 0300 040B45ED 		vstr	d16, [r5, #-16]
 235 0304 021B45ED 		vstr	d17, [r5, #-8]
 236 0308 F6FFFF8A 		bhi	.L32
 237 030c 010053E1 		cmp	r3, r1
 238 0310 1700000A 		beq	.L35
 239              	.L30:
 240 0314 0121A0E1 		lsl	r2, r1, #2
 241 0318 01E081E2 		add	lr, r1, #1
 242 031c 03005EE1 		cmp	lr, r3
 243 0320 025084E0 		add	r5, r4, r2
 244 0324 02E080E0 		add	lr, r0, r2
 245 0328 007AD5ED 		vldr.32	s15, [r5]
 246 032c 677AF1EE 		vneg.f32	s15, s15
 247 0330 007ACEED 		vstr.32	s15, [lr]
 248 0334 0E0000AA 		bge	.L35
 249 0338 04E082E2 		add	lr, r2, #4
 250 033c 021081E2 		add	r1, r1, #2
 251 0340 0E5084E0 		add	r5, r4, lr
 252 0344 030051E1 		cmp	r1, r3
 253 0348 007AD5ED 		vldr.32	s15, [r5]
 254 034c 0EE080E0 		add	lr, r0, lr
 255 0350 677AF1EE 		vneg.f32	s15, s15
 256 0354 007ACEED 		vstr.32	s15, [lr]
 257 0358 050000AA 		bge	.L35
 258 035c 082082E2 		add	r2, r2, #8
 259 0360 024084E0 		add	r4, r4, r2
 260 0364 022080E0 		add	r2, r0, r2
 261 0368 007AD4ED 		vldr.32	s15, [r4]
 262 036c 677AF1EE 		vneg.f32	s15, s15
 263 0370 007AC2ED 		vstr.32	s15, [r2]
 264              	.L35:
 265 0374 05005CE3 		cmp	ip, #5
 266 0378 0A0000DA 		ble	.L41
 267 037c 1C009DE5 		ldr	r0, [sp, #28]
 268 0380 000050E3 		cmp	r0, #0
 269 0384 0300000A 		beq	.L46
 270 0388 FEFFFFEB 		bl	_ZdaPv
 271 038c 00309DE5 		ldr	r3, [sp]
 272 0390 050053E3 		cmp	r3, #5
 273 0394 030000DA 		ble	.L41
 274              	.L46:
 275 0398 04009DE5 		ldr	r0, [sp, #4]
 276 039c 000050E3 		cmp	r0, #0
 277 03a0 0000000A 		beq	.L41
 278 03a4 FEFFFFEB 		bl	_ZdaPv
 279              	.L41:
 280 03a8 0000A0E3 		mov	r0, #0
 281 03ac 34D08DE2 		add	sp, sp, #52
 282              		@ sp needed
 283 03b0 F083BDE8 		pop	{r4, r5, r6, r7, r8, r9, pc}
 284              	.L64:
 285 03b4 0010A0E3 		mov	r1, #0
 286 03b8 D5FFFFEA 		b	.L30
 287              	.L63:
 288 03bc 0170A0E1 		mov	r7, r1
 289 03c0 81FFFFEA 		b	.L21
 290              	.L10:
 291 03c4 041041E2 		sub	r1, r1, #4
 292 03c8 04E047E2 		sub	lr, r7, #4
 293 03cc 0030A0E3 		mov	r3, #0
 294              	.L16:
 295 03d0 03005CE1 		cmp	ip, r3
 296 03d4 0450BEE5 		ldr	r5, [lr, #4]!
 297 03d8 4C0000DA 		ble	.L11
 298 03dc 0460B1E5 		ldr	r6, [r1, #4]!
 299 03e0 060055E1 		cmp	r5, r6
 300 03e4 3900001A 		bne	.L12
 301 03e8 013083E2 		add	r3, r3, #1
 302 03ec 030052E1 		cmp	r2, r3
 303 03f0 F6FFFF1A 		bne	.L16
 304 03f4 000052E3 		cmp	r2, #0
 305 03f8 0760A0E1 		mov	r6, r7
 306 03fc 4CFFFFCA 		bgt	.L13
 307              	.L55:
 308 0400 0130A0E3 		mov	r3, #1
 309 0404 9DFFFFEA 		b	.L8
 310              	.L56:
 311 0408 0130A0E3 		mov	r3, #1
 312 040c 0170A0E1 		mov	r7, r1
 313 0410 6FFFFFEA 		b	.L20
 314              	.L29:
 315 0414 080053E3 		cmp	r3, #8
 316 0418 220000DA 		ble	.L36
 317 041c 095043E2 		sub	r5, r3, #9
 318 0420 5C1084E2 		add	r1, r4, #92
 319 0424 0750C5E3 		bic	r5, r5, #7
 320 0428 00E0A0E1 		mov	lr, r0
 321 042c 085085E2 		add	r5, r5, #8
 322              	.L37:
 323 0430 177A51ED 		vldr.32	s15, [r1, #-92]
 324 0434 082082E2 		add	r2, r2, #8
 325 0438 00F0D1F5 		pld	[r1]
 326 043c 050052E1 		cmp	r2, r5
 327 0440 201081E2 		add	r1, r1, #32
 328 0444 20E08EE2 		add	lr, lr, #32
 329 0448 677AF1EE 		vneg.f32	s15, s15
 330 044c 087A4EED 		vstr.32	s15, [lr, #-32]
 331 0450 1E7A51ED 		vldr.32	s15, [r1, #-120]
 332 0454 677AF1EE 		vneg.f32	s15, s15
 333 0458 077A4EED 		vstr.32	s15, [lr, #-28]
 334 045c 1D7A51ED 		vldr.32	s15, [r1, #-116]
 335 0460 677AF1EE 		vneg.f32	s15, s15
 336 0464 067A4EED 		vstr.32	s15, [lr, #-24]
 337 0468 1C7A51ED 		vldr.32	s15, [r1, #-112]
 338 046c 677AF1EE 		vneg.f32	s15, s15
 339 0470 057A4EED 		vstr.32	s15, [lr, #-20]
 340 0474 1B7A51ED 		vldr.32	s15, [r1, #-108]
 341 0478 677AF1EE 		vneg.f32	s15, s15
 342 047c 047A4EED 		vstr.32	s15, [lr, #-16]
 343 0480 1A7A51ED 		vldr.32	s15, [r1, #-104]
 344 0484 677AF1EE 		vneg.f32	s15, s15
 345 0488 037A4EED 		vstr.32	s15, [lr, #-12]
 346 048c 197A51ED 		vldr.32	s15, [r1, #-100]
 347 0490 677AF1EE 		vneg.f32	s15, s15
 348 0494 027A4EED 		vstr.32	s15, [lr, #-8]
 349 0498 187A51ED 		vldr.32	s15, [r1, #-96]
 350 049c 677AF1EE 		vneg.f32	s15, s15
 351 04a0 017A4EED 		vstr.32	s15, [lr, #-4]
 352 04a4 E1FFFF1A 		bne	.L37
 353              	.L36:
 354 04a8 0211A0E1 		lsl	r1, r2, #2
 355 04ac 014084E0 		add	r4, r4, r1
 356 04b0 010080E0 		add	r0, r0, r1
 357              	.L39:
 358 04b4 017AF4EC 		vldmia.32	r4!, {s15}
 359 04b8 012082E2 		add	r2, r2, #1
 360 04bc 020053E1 		cmp	r3, r2
 361 04c0 677AF1EE 		vneg.f32	s15, s15
 362 04c4 017AE0EC 		vstmia.32	r0!, {s15}
 363 04c8 F9FFFFCA 		bgt	.L39
 364 04cc A8FFFFEA 		b	.L35
 365              	.L12:
 366              	.LEHB2:
 367 04d0 FEFFFFEB 		bl	abort
 368              	.LEHE2:
 369              	.L67:
 370 04d4 18309DE5 		ldr	r3, [sp, #24]
 371 04d8 050053E3 		cmp	r3, #5
 372 04dc 030000DA 		ble	.L44
 373 04e0 1C009DE5 		ldr	r0, [sp, #28]
 374 04e4 000050E3 		cmp	r0, #0
 375 04e8 0000000A 		beq	.L44
 376 04ec FEFFFFEB 		bl	_ZdaPv
 377              	.L44:
 378 04f0 00309DE5 		ldr	r3, [sp]
 379 04f4 050053E3 		cmp	r3, #5
 380 04f8 030000DA 		ble	.L45
 381 04fc 04009DE5 		ldr	r0, [sp, #4]
 382 0500 000050E3 		cmp	r0, #0
 383 0504 0000000A 		beq	.L45
 384 0508 FEFFFFEB 		bl	_ZdaPv
 385              	.L45:
 386              	.LEHB3:
 387 050c FEFFFFEB 		bl	__cxa_end_cleanup
 388              	.LEHE3:
 389              	.L11:
 390              	.LEHB4:
 391 0510 FEFFFFEB 		bl	abort
 392              	.LEHE4:
 393              	.L3:
 394              	.LEHB5:
 395 0514 FEFFFFEB 		bl	abort
 396              	.LEHE5:
 397              	.L66:
 398 0518 F4FFFFEA 		b	.L44
 399              	.L7:
 400              	.LEHB6:
 401 051c FEFFFFEB 		bl	abort
 402              	.LEHE6:
 403              		.global	__gxx_personality_v0
 404              		.personality	__gxx_personality_v0
 405              		.handlerdata
 406              	.LLSDA922:
 407 0008 FF       		.byte	0xff
 408 0009 FF       		.byte	0xff
 409 000a 01       		.byte	0x1
 410 000b 25       		.uleb128 .LLSDACSE922-.LLSDACSB922
 411              	.LLSDACSB922:
 412 000c 28       		.uleb128 .LEHB0-.LFB922
 413 000d 44       		.uleb128 .LEHE0-.LEHB0
 414 000e 00       		.uleb128 0
 415 000f 00       		.uleb128 0
 416 0010 78       		.uleb128 .LEHB1-.LFB922
 417 0011 04       		.uleb128 .LEHE1-.LEHB1
 418 0012 980A     		.uleb128 .L66-.LFB922
 419 0014 00       		.uleb128 0
 420 0015 D009     		.uleb128 .LEHB2-.LFB922
 421 0017 04       		.uleb128 .LEHE2-.LEHB2
 422 0018 D409     		.uleb128 .L67-.LFB922
 423 001a 00       		.uleb128 0
 424 001b 8C0A     		.uleb128 .LEHB3-.LFB922
 425 001d 04       		.uleb128 .LEHE3-.LEHB3
 426 001e 00       		.uleb128 0
 427 001f 00       		.uleb128 0
 428 0020 900A     		.uleb128 .LEHB4-.LFB922
 429 0022 04       		.uleb128 .LEHE4-.LEHB4
 430 0023 D409     		.uleb128 .L67-.LFB922
 431 0025 00       		.uleb128 0
 432 0026 940A     		.uleb128 .LEHB5-.LFB922
 433 0028 04       		.uleb128 .LEHE5-.LEHB5
 434 0029 00       		.uleb128 0
 435 002a 00       		.uleb128 0
 436 002b 9C0A     		.uleb128 .LEHB6-.LFB922
 437 002d 04       		.uleb128 .LEHE6-.LEHB6
 438 002e D409     		.uleb128 .L67-.LFB922
 439 0030 00       		.uleb128 0
 440              	.LLSDACSE922:
 441              		.section	.text._ZN6tflite3ops5micro3neg4EvalEP13TfLiteContextP10TfLiteNode
 442              		.fnend
 444              		.section	.text._ZN6tflite3ops5micro12Register_NEGEv,"ax",%progbits
 445              		.align	2
 446              		.global	_ZN6tflite3ops5micro12Register_NEGEv
 447              		.syntax unified
 448              		.arm
 449              		.fpu neon
 451              	_ZN6tflite3ops5micro12Register_NEGEv:
 452              		.fnstart
 453              	.LFB923:
 454              		@ args = 0, pretend = 0, frame = 0
 455              		@ frame_needed = 0, uses_anonymous_args = 0
 456 0000 10402DE9 		push	{r4, lr}
 457 0004 2020A0E3 		mov	r2, #32
 458 0008 0010A0E3 		mov	r1, #0
 459 000c 0040A0E1 		mov	r4, r0
 460 0010 FEFFFFEB 		bl	memset
 461 0014 003000E3 		movw	r3, #:lower16:_ZN6tflite3ops5micro3neg4EvalEP13TfLiteContextP10TfLiteNode
 462 0018 0400A0E1 		mov	r0, r4
 463 001c 003040E3 		movt	r3, #:upper16:_ZN6tflite3ops5micro3neg4EvalEP13TfLiteContextP10TfLiteNode
 464 0020 0C3084E5 		str	r3, [r4, #12]
 465 0024 1080BDE8 		pop	{r4, pc}
 466              		.cantunwind
 467              		.fnend
 469              		.ident	"GCC: (GNU Tools for ARM Embedded Processors 6-2017-q2-update) 6.3.1 20170620 (release) [AR
DEFINED SYMBOLS
                            *ABS*:00000000 neg.cc
C:\Users\a5050395\AppData\Local\Temp\cc9K7v5J.s:14     .text._ZN6tflite3ops5micro3neg4EvalEP13TfLiteContextP10TfLiteNode:00000000 $a
C:\Users\a5050395\AppData\Local\Temp\cc9K7v5J.s:20     .text._ZN6tflite3ops5micro3neg4EvalEP13TfLiteContextP10TfLiteNode:00000000 _ZN6tflite3ops5micro3neg4EvalEP13TfLiteContextP10TfLiteNode
.ARM.extab.text._ZN6tflite3ops5micro3neg4EvalEP13TfLiteContextP10TfLiteNode:00000000 $d
.ARM.exidx.text._ZN6tflite3ops5micro3neg4EvalEP13TfLiteContextP10TfLiteNode:00000000 $d
C:\Users\a5050395\AppData\Local\Temp\cc9K7v5J.s:445    .text._ZN6tflite3ops5micro12Register_NEGEv:00000000 $a
C:\Users\a5050395\AppData\Local\Temp\cc9K7v5J.s:451    .text._ZN6tflite3ops5micro12Register_NEGEv:00000000 _ZN6tflite3ops5micro12Register_NEGEv
.ARM.exidx.text._ZN6tflite3ops5micro12Register_NEGEv:00000000 $d

UNDEFINED SYMBOLS
_ZN6tflite5micro14GetTensorShapeEPK16TfLiteEvalTensor
_ZdaPv
abort
__cxa_end_cleanup
__gxx_personality_v0
memset
