   1              		.cpu cortex-a9
   2              		.eabi_attribute 28, 1
   3              		.eabi_attribute 20, 1
   4              		.eabi_attribute 21, 1
   5              		.eabi_attribute 23, 3
   6              		.eabi_attribute 24, 1
   7              		.eabi_attribute 25, 1
   8              		.eabi_attribute 26, 1
   9              		.eabi_attribute 30, 2
  10              		.eabi_attribute 34, 0
  11              		.eabi_attribute 18, 4
  12              		.file	"resize_nearest_neighbor.cc"
  13              		.section	.text._ZN6tflite3ops5micro23resize_nearest_neighbor7PrepareEP13TfLiteContextP10TfLiteNode
  14              		.align	2
  15              		.global	_ZN6tflite3ops5micro23resize_nearest_neighbor7PrepareEP13TfLiteContextP10TfLiteNode
  16              		.syntax unified
  17              		.arm
  18              		.fpu neon
  20              	_ZN6tflite3ops5micro23resize_nearest_neighbor7PrepareEP13TfLiteContextP10TfLiteNode:
  21              		.fnstart
  22              	.LFB1158:
  23              		@ args = 0, pretend = 0, frame = 0
  24              		@ frame_needed = 0, uses_anonymous_args = 0
  25 0000 002091E5 		ldr	r2, [r1]
  26 0004 002092E5 		ldr	r2, [r2]
  27 0008 020052E3 		cmp	r2, #2
  28 000c 0100000A 		beq	.L10
  29 0010 0100A0E3 		mov	r0, #1
  30 0014 1EFF2FE1 		bx	lr
  31              	.L10:
  32 0018 042091E5 		ldr	r2, [r1, #4]
  33 001c F0412DE9 		push	{r4, r5, r6, r7, r8, lr}
  34              		.save {r4, r5, r6, r7, r8, lr}
  35 0020 0140A0E1 		mov	r4, r1
  36 0024 006092E5 		ldr	r6, [r2]
  37 0028 010056E3 		cmp	r6, #1
  38 002c 0100000A 		beq	.L11
  39              	.L4:
  40 0030 0100A0E3 		mov	r0, #1
  41 0034 F081BDE8 		pop	{r4, r5, r6, r7, r8, pc}
  42              	.L11:
  43 0038 0050A0E1 		mov	r5, r0
  44 003c 0020A0E3 		mov	r2, #0
  45 0040 FEFFFFEB 		bl	_ZN6tflite8GetInputEPK13TfLiteContextPK10TfLiteNodei
  46 0044 0620A0E1 		mov	r2, r6
  47 0048 0070A0E1 		mov	r7, r0
  48 004c 0410A0E1 		mov	r1, r4
  49 0050 0500A0E1 		mov	r0, r5
  50 0054 FEFFFFEB 		bl	_ZN6tflite8GetInputEPK13TfLiteContextPK10TfLiteNodei
  51 0058 0020A0E3 		mov	r2, #0
  52 005c 0060A0E1 		mov	r6, r0
  53 0060 0410A0E1 		mov	r1, r4
  54 0064 0500A0E1 		mov	r0, r5
  55 0068 FEFFFFEB 		bl	_ZN6tflite9GetOutputEP13TfLiteContextPK10TfLiteNodei
  56 006c 083097E5 		ldr	r3, [r7, #8]
  57 0070 0020A0E1 		mov	r2, r0
  58 0074 003093E5 		ldr	r3, [r3]
  59 0078 040053E3 		cmp	r3, #4
  60 007c EBFFFF1A 		bne	.L4
  61 0080 083096E5 		ldr	r3, [r6, #8]
  62 0084 001093E5 		ldr	r1, [r3]
  63 0088 010051E3 		cmp	r1, #1
  64 008c E7FFFF1A 		bne	.L4
  65 0090 0010D6E5 		ldrb	r1, [r6]	@ zero_extendqisi2
  66 0094 020051E3 		cmp	r1, #2
  67 0098 E4FFFF1A 		bne	.L4
  68 009c 043093E5 		ldr	r3, [r3, #4]
  69 00a0 020053E3 		cmp	r3, #2
  70 00a4 E1FFFF1A 		bne	.L4
  71 00a8 1430D6E5 		ldrb	r3, [r6, #20]	@ zero_extendqisi2
  72 00ac 0010D7E5 		ldrb	r1, [r7]	@ zero_extendqisi2
  73 00b0 010053E2 		subs	r0, r3, #1
  74 00b4 0100A013 		movne	r0, #1
  75 00b8 0010C2E5 		strb	r1, [r2]
  76 00bc F081BDE8 		pop	{r4, r5, r6, r7, r8, pc}
  77              		.fnend
  79              		.section	.text._ZN6tflite3ops5micro23resize_nearest_neighbor4EvalEP13TfLiteContextP10TfLiteNode,"a
  80              		.align	2
  81              		.global	_ZN6tflite3ops5micro23resize_nearest_neighbor4EvalEP13TfLiteContextP10TfLiteNode
  82              		.syntax unified
  83              		.arm
  84              		.fpu neon
  86              	_ZN6tflite3ops5micro23resize_nearest_neighbor4EvalEP13TfLiteContextP10TfLiteNode:
  87              		.fnstart
  88              	.LFB1159:
  89              		@ args = 0, pretend = 0, frame = 176
  90              		@ frame_needed = 0, uses_anonymous_args = 0
  91 0000 F04F2DE9 		push	{r4, r5, r6, r7, r8, r9, r10, fp, lr}
  92              		.save {r4, r5, r6, r7, r8, r9, r10, fp, lr}
  93 0004 004050E2 		subs	r4, r0, #0
  94 0008 068B2DED 		vpush.64	{d8, d9, d10}
  95              		.vsave {d8, d9, d10}
  96              		.pad #180
  97 000c B4D04DE2 		sub	sp, sp, #180
  98 0010 148091E5 		ldr	r8, [r1, #20]
  99 0014 0E05000A 		beq	.L559
 100 0018 002091E5 		ldr	r2, [r1]
 101 001c 0150A0E1 		mov	r5, r1
 102 0020 543094E5 		ldr	r3, [r4, #84]
 103 0024 041092E5 		ldr	r1, [r2, #4]
 104              	.LEHB0:
 105 0028 33FF2FE1 		blx	r3
 106 002c 002095E5 		ldr	r2, [r5]
 107 0030 0070A0E1 		mov	r7, r0
 108 0034 543094E5 		ldr	r3, [r4, #84]
 109 0038 0400A0E1 		mov	r0, r4
 110 003c 081092E5 		ldr	r1, [r2, #8]
 111 0040 33FF2FE1 		blx	r3
 112 0044 042095E5 		ldr	r2, [r5, #4]
 113 0048 0060A0E1 		mov	r6, r0
 114 004c 543094E5 		ldr	r3, [r4, #84]
 115 0050 0400A0E1 		mov	r0, r4
 116 0054 041092E5 		ldr	r1, [r2, #4]
 117 0058 33FF2FE1 		blx	r3
 118 005c 0830D0E5 		ldrb	r3, [r0, #8]	@ zero_extendqisi2
 119 0060 0040A0E1 		mov	r4, r0
 120 0064 0020D8E5 		ldrb	r2, [r8]	@ zero_extendqisi2
 121 0068 010053E3 		cmp	r3, #1
 122 006c 0C208DE5 		str	r2, [sp, #12]
 123 0070 8801000A 		beq	.L560
 124 0074 030053E3 		cmp	r3, #3
 125 0078 F202000A 		beq	.L561
 126 007c 090053E3 		cmp	r3, #9
 127 0080 0100A013 		movne	r0, #1
 128 0084 0200000A 		beq	.L562
 129 0088 B4D08DE2 		add	sp, sp, #180
 130              		@ sp needed
 131 008c 068BBDEC 		vldm	sp!, {d8-d10}
 132 0090 F08FBDE8 		pop	{r4, r5, r6, r7, r8, r9, r10, fp, pc}
 133              	.L562:
 134 0094 0710A0E1 		mov	r1, r7
 135 0098 38008DE2 		add	r0, sp, #56
 136 009c FEFFFFEB 		bl	_ZN6tflite5micro14GetTensorShapeEPK16TfLiteEvalTensor
 137              	.LEHE0:
 138 00a0 000057E3 		cmp	r7, #0
 139 00a4 E904000A 		beq	.L563
 140 00a8 0610A0E1 		mov	r1, r6
 141 00ac 50008DE2 		add	r0, sp, #80
 142 00b0 009097E5 		ldr	r9, [r7]
 143              	.LEHB1:
 144 00b4 FEFFFFEB 		bl	_ZN6tflite5micro14GetTensorShapeEPK16TfLiteEvalTensor
 145              	.LEHE1:
 146 00b8 000056E3 		cmp	r6, #0
 147 00bc 1905000A 		beq	.L564
 148 00c0 0410A0E1 		mov	r1, r4
 149 00c4 68008DE2 		add	r0, sp, #104
 150 00c8 008096E5 		ldr	r8, [r6]
 151              	.LEHB2:
 152 00cc FEFFFFEB 		bl	_ZN6tflite5micro14GetTensorShapeEPK16TfLiteEvalTensor
 153              	.LEHE2:
 154 00d0 38209DE5 		ldr	r2, [sp, #56]
 155 00d4 00B094E5 		ldr	fp, [r4]
 156 00d8 040052E3 		cmp	r2, #4
 157 00dc 0F0500CA 		bgt	.L565
 158 00e0 68409DE5 		ldr	r4, [sp, #104]
 159 00e4 040054E3 		cmp	r4, #4
 160 00e8 0B0500CA 		bgt	.L566
 161 00ec 040072E2 		rsbs	r0, r2, #4
 162 00f0 0430A0E3 		mov	r3, #4
 163 00f4 80308DE5 		str	r3, [sp, #128]
 164 00f8 0D00000A 		beq	.L172
 165 00fc 010050E3 		cmp	r0, #1
 166 0100 0130A0E3 		mov	r3, #1
 167 0104 84308DE5 		str	r3, [sp, #132]
 168 0108 0900000A 		beq	.L172
 169 010c 020050E3 		cmp	r0, #2
 170 0110 88308DE5 		str	r3, [sp, #136]
 171 0114 0600000A 		beq	.L172
 172 0118 030050E3 		cmp	r0, #3
 173 011c 8C308DE5 		str	r3, [sp, #140]
 174 0120 0300000A 		beq	.L172
 175 0124 040050E3 		cmp	r0, #4
 176 0128 90308DE5 		str	r3, [sp, #144]
 177 012c 0000000A 		beq	.L172
 178              	.LEHB3:
 179 0130 FEFFFFEB 		bl	abort
 180              	.LEHE3:
 181              	.L172:
 182 0134 84308DE2 		add	r3, sp, #132
 183 0138 0221A0E1 		lsl	r2, r2, #2
 184 013c 000183E0 		add	r0, r3, r0, lsl #2
 185 0140 3C108DE2 		add	r1, sp, #60
 186 0144 FEFFFFEB 		bl	memcpy
 187 0148 040074E2 		rsbs	r0, r4, #4
 188 014c 0430A0E3 		mov	r3, #4
 189 0150 98308DE5 		str	r3, [sp, #152]
 190 0154 0D00000A 		beq	.L170
 191 0158 010050E3 		cmp	r0, #1
 192 015c 0130A0E3 		mov	r3, #1
 193 0160 9C308DE5 		str	r3, [sp, #156]
 194 0164 0900000A 		beq	.L170
 195 0168 020050E3 		cmp	r0, #2
 196 016c A0308DE5 		str	r3, [sp, #160]
 197 0170 0600000A 		beq	.L170
 198 0174 030050E3 		cmp	r0, #3
 199 0178 A4308DE5 		str	r3, [sp, #164]
 200 017c 0300000A 		beq	.L170
 201 0180 040050E3 		cmp	r0, #4
 202 0184 A8308DE5 		str	r3, [sp, #168]
 203 0188 0000000A 		beq	.L170
 204              	.LEHB4:
 205 018c FEFFFFEB 		bl	abort
 206              	.LEHE4:
 207              	.L170:
 208 0190 9C308DE2 		add	r3, sp, #156
 209 0194 0421A0E1 		lsl	r2, r4, #2
 210 0198 000183E0 		add	r0, r3, r0, lsl #2
 211 019c 6C108DE2 		add	r1, sp, #108
 212 01a0 FEFFFFEB 		bl	memcpy
 213 01a4 80309DE5 		ldr	r3, [sp, #128]
 214 01a8 000053E3 		cmp	r3, #0
 215 01ac 2C308DE5 		str	r3, [sp, #44]
 216 01b0 D40400DA 		ble	.L567
 217 01b4 050053E3 		cmp	r3, #5
 218 01b8 84309DE5 		ldr	r3, [sp, #132]
 219 01bc 003093C5 		ldrgt	r3, [r3]
 220 01c0 24308DE5 		str	r3, [sp, #36]
 221 01c4 98309DE5 		ldr	r3, [sp, #152]
 222 01c8 000053E3 		cmp	r3, #0
 223 01cc 30308DE5 		str	r3, [sp, #48]
 224 01d0 CB0400DA 		ble	.L568
 225 01d4 050053E3 		cmp	r3, #5
 226 01d8 9C309DE5 		ldr	r3, [sp, #156]
 227 01dc 24209DE5 		ldr	r2, [sp, #36]
 228 01e0 003093C5 		ldrgt	r3, [r3]
 229 01e4 030052E1 		cmp	r2, r3
 230 01e8 F404001A 		bne	.L569
 231 01ec 2C309DE5 		ldr	r3, [sp, #44]
 232 01f0 010053E3 		cmp	r3, #1
 233 01f4 F004000A 		beq	.L570
 234 01f8 050053E3 		cmp	r3, #5
 235 01fc 090400CA 		bgt	.L571
 236 0200 020053E3 		cmp	r3, #2
 237 0204 229A9DED 		vldr.32	s18, [sp, #136]	@ int
 238 0208 EA04000A 		beq	.L572
 239 020c 030053E3 		cmp	r3, #3
 240 0210 23AA9DED 		vldr.32	s20, [sp, #140]	@ int
 241 0214 E604000A 		beq	.L256
 242 0218 90409DE5 		ldr	r4, [sp, #144]
 243              	.L187:
 244 021c 30309DE5 		ldr	r3, [sp, #48]
 245 0220 030053E3 		cmp	r3, #3
 246 0224 DF0400DA 		ble	.L573
 247 0228 050053E3 		cmp	r3, #5
 248 022c 9C309DC5 		ldrgt	r3, [sp, #156]
 249 0230 A8309DD5 		ldrle	r3, [sp, #168]
 250 0234 0C3093C5 		ldrgt	r3, [r3, #12]
 251 0238 030054E1 		cmp	r4, r3
 252 023c D804001A 		bne	.L574
 253 0240 50C09DE5 		ldr	ip, [sp, #80]
 254 0244 05005CE3 		cmp	ip, #5
 255 0248 F00200DA 		ble	.L193
 256 024c 54009DE5 		ldr	r0, [sp, #84]
 257              	.L194:
 258 0250 5031A0E7 		sbfx	r3, r0, #2, #1
 259 0254 033003E2 		and	r3, r3, #3
 260 0258 0C0053E1 		cmp	r3, ip
 261 025c 0C30A021 		movcs	r3, ip
 262 0260 08005CE3 		cmp	ip, #8
 263 0264 0C30A0D1 		movle	r3, ip
 264 0268 F30300CA 		bgt	.L575
 265              	.L196:
 266 026c 010053E3 		cmp	r3, #1
 267 0270 002090E5 		ldr	r2, [r0]
 268 0274 7102000A 		beq	.L287
 269 0278 041090E5 		ldr	r1, [r0, #4]
 270 027c 020053E3 		cmp	r3, #2
 271 0280 910202E0 		mul	r2, r1, r2
 272 0284 6D02000A 		beq	.L287
 273 0288 081090E5 		ldr	r1, [r0, #8]
 274 028c 030053E3 		cmp	r3, #3
 275 0290 910202E0 		mul	r2, r1, r2
 276 0294 6902000A 		beq	.L287
 277 0298 0C1090E5 		ldr	r1, [r0, #12]
 278 029c 040053E3 		cmp	r3, #4
 279 02a0 910202E0 		mul	r2, r1, r2
 280 02a4 6502000A 		beq	.L287
 281 02a8 101090E5 		ldr	r1, [r0, #16]
 282 02ac 050053E3 		cmp	r3, #5
 283 02b0 910202E0 		mul	r2, r1, r2
 284 02b4 6102000A 		beq	.L287
 285 02b8 141090E5 		ldr	r1, [r0, #20]
 286 02bc 060053E3 		cmp	r3, #6
 287 02c0 910202E0 		mul	r2, r1, r2
 288 02c4 5D02000A 		beq	.L287
 289 02c8 181090E5 		ldr	r1, [r0, #24]
 290 02cc 070053E3 		cmp	r3, #7
 291 02d0 910202E0 		mul	r2, r1, r2
 292 02d4 5902000A 		beq	.L287
 293 02d8 1CE090E5 		ldr	lr, [r0, #28]
 294 02dc 0810A0E3 		mov	r1, #8
 295 02e0 9E0202E0 		mul	r2, lr, r2
 296              	.L198:
 297 02e4 03005CE1 		cmp	ip, r3
 298 02e8 2800000A 		beq	.L199
 299              	.L197:
 300 02ec 03704CE0 		sub	r7, ip, r3
 301 02f0 01504CE2 		sub	r5, ip, #1
 302 02f4 04E047E2 		sub	lr, r7, #4
 303 02f8 035045E0 		sub	r5, r5, r3
 304 02fc 2EE1A0E1 		lsr	lr, lr, #2
 305 0300 020055E3 		cmp	r5, #2
 306 0304 01E08EE2 		add	lr, lr, #1
 307 0308 0E61A0E1 		lsl	r6, lr, #2
 308 030c 1200009A 		bls	.L200
 309 0310 033180E0 		add	r3, r0, r3, lsl #2
 310 0314 5120C0F2 		vmov.i32	q9, #1  @ v4si
 311 0318 0050A0E3 		mov	r5, #0
 312              	.L202:
 313 031c 015085E2 		add	r5, r5, #1
 314 0320 DF0A63F4 		vld1.64	{d16-d17}, [r3:64]
 315 0324 05005EE1 		cmp	lr, r5
 316 0328 103083E2 		add	r3, r3, #16
 317 032c F02962F2 		vmul.i32	q9, q9, q8
 318 0330 F9FFFF8A 		bhi	.L202
 319 0334 070056E1 		cmp	r6, r7
 320 0338 061081E0 		add	r1, r1, r6
 321 033c 5000C0F2 		vmov.i32	q8, #0  @ v4si
 322 0340 E048F2F2 		vext.32	q10, q9, q8, #2
 323 0344 F42962F2 		vmul.i32	q9, q9, q10
 324 0348 E004F2F2 		vext.32	q8, q9, q8, #1
 325 034c F20960F2 		vmul.i32	q8, q8, q9
 326 0350 903B10EE 		vmov.32	r3, d16[0]
 327 0354 930202E0 		mul	r2, r3, r2
 328 0358 0C00000A 		beq	.L199
 329              	.L200:
 330 035c 01E190E7 		ldr	lr, [r0, r1, lsl #2]
 331 0360 013081E2 		add	r3, r1, #1
 332 0364 0C0053E1 		cmp	r3, ip
 333 0368 0131A0E1 		lsl	r3, r1, #2
 334 036c 9E0202E0 		mul	r2, lr, r2
 335 0370 060000AA 		bge	.L199
 336 0374 030080E0 		add	r0, r0, r3
 337 0378 021081E2 		add	r1, r1, #2
 338 037c 043090E5 		ldr	r3, [r0, #4]
 339 0380 0C0051E1 		cmp	r1, ip
 340 0384 930202E0 		mul	r2, r3, r2
 341 0388 083090B5 		ldrlt	r3, [r0, #8]
 342 038c 930202B0 		mullt	r2, r3, r2
 343              	.L199:
 344 0390 020052E3 		cmp	r2, #2
 345 0394 8104001A 		bne	.L195
 346 0398 24209DE5 		ldr	r2, [sp, #36]
 347 039c 103A1AEE 		vmov	r3, s20	@ int
 348 03a0 930403E0 		mul	r3, r3, r4
 349 03a4 000052E3 		cmp	r2, #0
 350 03a8 002098E5 		ldr	r2, [r8]
 351 03ac 048098E5 		ldr	r8, [r8, #4]
 352 03b0 04208DE5 		str	r2, [sp, #4]
 353 03b4 102A19EE 		vmov	r2, s18	@ int
 354 03b8 10308DE5 		str	r3, [sp, #16]
 355 03bc 930203E0 		mul	r3, r3, r2
 356 03c0 28308DE5 		str	r3, [sp, #40]
 357 03c4 5E0000DA 		ble	.L212
 358 03c8 0C209DE5 		ldr	r2, [sp, #12]
 359 03cc 04109DE5 		ldr	r1, [sp, #4]
 360 03d0 0230A0E1 		mov	r3, r2
 361 03d4 010051E3 		cmp	r1, #1
 362 03d8 0030A0D3 		movle	r3, #0
 363 03dc 013003C2 		andgt	r3, r3, #1
 364 03e0 14308DE5 		str	r3, [sp, #20]
 365 03e4 0230A0E1 		mov	r3, r2
 366 03e8 010058E3 		cmp	r8, #1
 367 03ec 0030A0D3 		movle	r3, #0
 368 03f0 013003C2 		andgt	r3, r3, #1
 369 03f4 000051E3 		cmp	r1, #0
 370 03f8 1C308DE5 		str	r3, [sp, #28]
 371 03fc 500000DA 		ble	.L212
 372 0400 940803E0 		mul	r3, r4, r8
 373 0404 E38A9FED 		vldr.32	s16, .L606
 374 0408 18308DE5 		str	r3, [sp, #24]
 375 040c 0030A0E3 		mov	r3, #0
 376 0410 20308DE5 		str	r3, [sp, #32]
 377 0414 103A19EE 		vmov	r3, s18	@ int
 378 0418 013043E2 		sub	r3, r3, #1
 379 041c 08308DE5 		str	r3, [sp, #8]
 380 0420 103A1AEE 		vmov	r3, s20	@ int
 381 0424 015043E2 		sub	r5, r3, #1
 382              	.L226:
 383 0428 0030A0E3 		mov	r3, #0
 384 042c 00308DE5 		str	r3, [sp]
 385 0430 013048E2 		sub	r3, r8, #1
 386 0434 903A09EE 		vmov	s19, r3	@ int
 387              	.L225:
 388 0438 14309DE5 		ldr	r3, [sp, #20]
 389 043c 000053E3 		cmp	r3, #0
 390 0440 6600000A 		beq	.L213
 391 0444 04309DE5 		ldr	r3, [sp, #4]
 392 0448 027A9DED 		vldr.32	s14, [sp, #8]	@ int
 393 044c 013043E2 		sub	r3, r3, #1
 394 0450 903A07EE 		vmov	s15, r3	@ int
 395 0454 C76AF8EE 		vcvt.f32.s32	s13, s14
 396 0458 E77AF8EE 		vcvt.f32.s32	s15, s15
 397 045c A77A86EE 		vdiv.f32	s14, s13, s15
 398              	.L214:
 399 0460 007ADDED 		vldr.32	s15, [sp]	@ int
 400 0464 E70AB8EE 		vcvt.f32.s32	s0, s15
 401 0468 080A30EE 		vadd.f32	s0, s0, s16
 402 046c 070A20EE 		vmul.f32	s0, s0, s14
 403 0470 FEFFFFEB 		bl	roundf
 404 0474 C07AFDEE 		vcvt.s32.f32	s15, s0
 405 0478 08309DE5 		ldr	r3, [sp, #8]
 406 047c 906A17EE 		vmov	r6, s15	@ int
 407 0480 030056E1 		cmp	r6, r3
 408 0484 0360A0A1 		movge	r6, r3
 409 0488 10309DE5 		ldr	r3, [sp, #16]
 410 048c 000058E3 		cmp	r8, #0
 411 0490 930606E0 		mul	r6, r3, r6
 412 0494 1C0000DA 		ble	.L216
 413 0498 1C309DE5 		ldr	r3, [sp, #28]
 414 049c 000053E3 		cmp	r3, #0
 415 04a0 2104000A 		beq	.L576
 416 04a4 105A07EE 		vmov	s14, r5	@ int
 417 04a8 0B70A0E1 		mov	r7, fp
 418 04ac E97AF8EE 		vcvt.f32.s32	s15, s19
 419 04b0 00A0A0E3 		mov	r10, #0
 420 04b4 C77AB8EE 		vcvt.f32.s32	s14, s14
 421 04b8 278AC7EE 		vdiv.f32	s17, s14, s15
 422              	.L224:
 423 04bc 90AA07EE 		vmov	s15, r10	@ int
 424 04c0 01A08AE2 		add	r10, r10, #1
 425 04c4 E70AB8EE 		vcvt.f32.s32	s0, s15
 426 04c8 080A30EE 		vadd.f32	s0, s0, s16
 427 04cc 280A20EE 		vmul.f32	s0, s0, s17
 428 04d0 FEFFFFEB 		bl	roundf
 429 04d4 C07AFDEE 		vcvt.s32.f32	s15, s0
 430 04d8 0700A0E1 		mov	r0, r7
 431 04dc 0420A0E1 		mov	r2, r4
 432 04e0 047087E0 		add	r7, r7, r4
 433 04e4 901A17EE 		vmov	r1, s15	@ int
 434 04e8 050051E1 		cmp	r1, r5
 435 04ec 0510A0A1 		movge	r1, r5
 436 04f0 946121E0 		mla	r1, r4, r1, r6
 437 04f4 011089E0 		add	r1, r9, r1
 438 04f8 FEFFFFEB 		bl	memcpy
 439 04fc 0A0058E1 		cmp	r8, r10
 440 0500 EDFFFF1A 		bne	.L224
 441              	.L505:
 442 0504 18309DE5 		ldr	r3, [sp, #24]
 443 0508 03B08BE0 		add	fp, fp, r3
 444              	.L216:
 445 050c 00309DE5 		ldr	r3, [sp]
 446 0510 04209DE5 		ldr	r2, [sp, #4]
 447 0514 013083E2 		add	r3, r3, #1
 448 0518 030052E1 		cmp	r2, r3
 449 051c 00308DE5 		str	r3, [sp]
 450 0520 C4FFFF1A 		bne	.L225
 451 0524 28209DE5 		ldr	r2, [sp, #40]
 452 0528 20309DE5 		ldr	r3, [sp, #32]
 453 052c 029089E0 		add	r9, r9, r2
 454 0530 24209DE5 		ldr	r2, [sp, #36]
 455 0534 013083E2 		add	r3, r3, #1
 456 0538 20308DE5 		str	r3, [sp, #32]
 457 053c 020053E1 		cmp	r3, r2
 458 0540 B8FFFF1A 		bne	.L226
 459              	.L212:
 460 0544 30309DE5 		ldr	r3, [sp, #48]
 461 0548 050053E3 		cmp	r3, #5
 462 054c 030000DA 		ble	.L211
 463              	.L210:
 464 0550 9C009DE5 		ldr	r0, [sp, #156]
 465 0554 000050E3 		cmp	r0, #0
 466 0558 0000000A 		beq	.L211
 467 055c FEFFFFEB 		bl	_ZdaPv
 468              	.L211:
 469 0560 2C309DE5 		ldr	r3, [sp, #44]
 470 0564 050053E3 		cmp	r3, #5
 471 0568 030000DA 		ble	.L227
 472              	.L542:
 473 056c 84009DE5 		ldr	r0, [sp, #132]
 474 0570 000050E3 		cmp	r0, #0
 475 0574 0000000A 		beq	.L227
 476 0578 FEFFFFEB 		bl	_ZdaPv
 477              	.L227:
 478 057c 68309DE5 		ldr	r3, [sp, #104]
 479 0580 050053E3 		cmp	r3, #5
 480 0584 030000DA 		ble	.L229
 481 0588 6C009DE5 		ldr	r0, [sp, #108]
 482 058c 000050E3 		cmp	r0, #0
 483 0590 0000000A 		beq	.L229
 484 0594 FEFFFFEB 		bl	_ZdaPv
 485              	.L229:
 486 0598 50309DE5 		ldr	r3, [sp, #80]
 487 059c 050053E3 		cmp	r3, #5
 488 05a0 030000DA 		ble	.L237
 489 05a4 54009DE5 		ldr	r0, [sp, #84]
 490 05a8 000050E3 		cmp	r0, #0
 491 05ac 0000000A 		beq	.L237
 492 05b0 FEFFFFEB 		bl	_ZdaPv
 493              	.L237:
 494 05b4 38309DE5 		ldr	r3, [sp, #56]
 495 05b8 050053E3 		cmp	r3, #5
 496 05bc 030000DA 		ble	.L238
 497 05c0 3C009DE5 		ldr	r0, [sp, #60]
 498 05c4 000050E3 		cmp	r0, #0
 499 05c8 0000000A 		beq	.L238
 500 05cc FEFFFFEB 		bl	_ZdaPv
 501              	.L238:
 502 05d0 0000A0E3 		mov	r0, #0
 503 05d4 B4D08DE2 		add	sp, sp, #180
 504              		@ sp needed
 505 05d8 068BBDEC 		vldm	sp!, {d8-d10}
 506 05dc F08FBDE8 		pop	{r4, r5, r6, r7, r8, r9, r10, fp, pc}
 507              	.L213:
 508 05e0 017A9DED 		vldr.32	s14, [sp, #4]	@ int
 509 05e4 0C309DE5 		ldr	r3, [sp, #12]
 510 05e8 C97AF8EE 		vcvt.f32.s32	s15, s18
 511 05ec C76AF8EE 		vcvt.f32.s32	s13, s14
 512 05f0 000053E3 		cmp	r3, #0
 513 05f4 A67A87EE 		vdiv.f32	s14, s15, s13
 514 05f8 98FFFF1A 		bne	.L214
 515 05fc 007ADDED 		vldr.32	s15, [sp]	@ int
 516 0600 E70AB8EE 		vcvt.f32.s32	s0, s15
 517 0604 080A30EE 		vadd.f32	s0, s0, s16
 518 0608 070A20EE 		vmul.f32	s0, s0, s14
 519 060c FEFFFFEB 		bl	floorf
 520 0610 C07AFDEE 		vcvt.s32.f32	s15, s0
 521 0614 08309DE5 		ldr	r3, [sp, #8]
 522 0618 906A17EE 		vmov	r6, s15	@ int
 523 061c 030056E1 		cmp	r6, r3
 524 0620 0360A0A1 		movge	r6, r3
 525 0624 10309DE5 		ldr	r3, [sp, #16]
 526 0628 000058E3 		cmp	r8, #0
 527 062c 930606E0 		mul	r6, r3, r6
 528 0630 B5FFFFDA 		ble	.L216
 529              	.L259:
 530 0634 908A07EE 		vmov	s15, r8	@ int
 531 0638 0B70A0E1 		mov	r7, fp
 532 063c CA7AB8EE 		vcvt.f32.s32	s14, s20
 533 0640 00A0A0E3 		mov	r10, #0
 534 0644 E77AF8EE 		vcvt.f32.s32	s15, s15
 535 0648 278AC7EE 		vdiv.f32	s17, s14, s15
 536              	.L221:
 537 064c 90AA07EE 		vmov	s15, r10	@ int
 538 0650 01A08AE2 		add	r10, r10, #1
 539 0654 E70AB8EE 		vcvt.f32.s32	s0, s15
 540 0658 080A30EE 		vadd.f32	s0, s0, s16
 541 065c 280A20EE 		vmul.f32	s0, s0, s17
 542 0660 FEFFFFEB 		bl	floorf
 543 0664 C07AFDEE 		vcvt.s32.f32	s15, s0
 544 0668 0700A0E1 		mov	r0, r7
 545 066c 0420A0E1 		mov	r2, r4
 546 0670 047087E0 		add	r7, r7, r4
 547 0674 901A17EE 		vmov	r1, s15	@ int
 548 0678 050051E1 		cmp	r1, r5
 549 067c 0510A0A1 		movge	r1, r5
 550 0680 946121E0 		mla	r1, r4, r1, r6
 551 0684 011089E0 		add	r1, r9, r1
 552 0688 FEFFFFEB 		bl	memcpy
 553 068c 0A0058E1 		cmp	r8, r10
 554 0690 EDFFFF1A 		bne	.L221
 555 0694 9AFFFFEA 		b	.L505
 556              	.L560:
 557 0698 0710A0E1 		mov	r1, r7
 558 069c 38008DE2 		add	r0, sp, #56
 559              	.LEHB5:
 560 06a0 FEFFFFEB 		bl	_ZN6tflite5micro14GetTensorShapeEPK16TfLiteEvalTensor
 561              	.LEHE5:
 562 06a4 000057E3 		cmp	r7, #0
 563 06a8 6603000A 		beq	.L577
 564 06ac 0610A0E1 		mov	r1, r6
 565 06b0 50008DE2 		add	r0, sp, #80
 566 06b4 009097E5 		ldr	r9, [r7]
 567              	.LEHB6:
 568 06b8 FEFFFFEB 		bl	_ZN6tflite5micro14GetTensorShapeEPK16TfLiteEvalTensor
 569              	.LEHE6:
 570 06bc 000056E3 		cmp	r6, #0
 571 06c0 5E03000A 		beq	.L578
 572 06c4 0410A0E1 		mov	r1, r4
 573 06c8 68008DE2 		add	r0, sp, #104
 574 06cc 007096E5 		ldr	r7, [r6]
 575              	.LEHB7:
 576 06d0 FEFFFFEB 		bl	_ZN6tflite5micro14GetTensorShapeEPK16TfLiteEvalTensor
 577              	.LEHE7:
 578 06d4 38209DE5 		ldr	r2, [sp, #56]
 579 06d8 003094E5 		ldr	r3, [r4]
 580 06dc 040052E3 		cmp	r2, #4
 581 06e0 04308DE5 		str	r3, [sp, #4]
 582 06e4 850300CA 		bgt	.L579
 583 06e8 68409DE5 		ldr	r4, [sp, #104]
 584 06ec 040054E3 		cmp	r4, #4
 585 06f0 810300CA 		bgt	.L580
 586 06f4 040072E2 		rsbs	r0, r2, #4
 587 06f8 0430A0E3 		mov	r3, #4
 588 06fc 80308DE5 		str	r3, [sp, #128]
 589 0700 0D00000A 		beq	.L22
 590 0704 010050E3 		cmp	r0, #1
 591 0708 0130A0E3 		mov	r3, #1
 592 070c 84308DE5 		str	r3, [sp, #132]
 593 0710 0900000A 		beq	.L22
 594 0714 020050E3 		cmp	r0, #2
 595 0718 88308DE5 		str	r3, [sp, #136]
 596 071c 0600000A 		beq	.L22
 597 0720 030050E3 		cmp	r0, #3
 598 0724 8C308DE5 		str	r3, [sp, #140]
 599 0728 0300000A 		beq	.L22
 600 072c 040050E3 		cmp	r0, #4
 601 0730 90308DE5 		str	r3, [sp, #144]
 602 0734 0000000A 		beq	.L22
 603              	.LEHB8:
 604 0738 FEFFFFEB 		bl	abort
 605              	.LEHE8:
 606              	.L22:
 607 073c 84308DE2 		add	r3, sp, #132
 608 0740 0221A0E1 		lsl	r2, r2, #2
 609 0744 000183E0 		add	r0, r3, r0, lsl #2
 610 0748 3C108DE2 		add	r1, sp, #60
 611 074c FEFFFFEB 		bl	memcpy
 612 0750 040074E2 		rsbs	r0, r4, #4
 613 0754 0430A0E3 		mov	r3, #4
 614 0758 98308DE5 		str	r3, [sp, #152]
 615 075c 0E00000A 		beq	.L20
 616 0760 010050E3 		cmp	r0, #1
 617 0764 0130A0E3 		mov	r3, #1
 618 0768 9C308DE5 		str	r3, [sp, #156]
 619 076c 0A00000A 		beq	.L20
 620 0770 020050E3 		cmp	r0, #2
 621 0774 A0308DE5 		str	r3, [sp, #160]
 622 0778 0700000A 		beq	.L20
 623 077c 030050E3 		cmp	r0, #3
 624 0780 A4308DE5 		str	r3, [sp, #164]
 625 0784 0400000A 		beq	.L20
 626 0788 040050E3 		cmp	r0, #4
 627 078c A8308DE5 		str	r3, [sp, #168]
 628 0790 0100000A 		beq	.L20
 629              	.LEHB9:
 630 0794 FEFFFFEB 		bl	abort
 631              	.LEHE9:
 632              	.L607:
 633              		.align	2
 634              	.L606:
 635 0798 00000000 		.word	0
 636              	.L20:
 637 079c 9C308DE2 		add	r3, sp, #156
 638 07a0 0421A0E1 		lsl	r2, r4, #2
 639 07a4 000183E0 		add	r0, r3, r0, lsl #2
 640 07a8 6C108DE2 		add	r1, sp, #108
 641 07ac FEFFFFEB 		bl	memcpy
 642 07b0 80309DE5 		ldr	r3, [sp, #128]
 643 07b4 000053E3 		cmp	r3, #0
 644 07b8 2C308DE5 		str	r3, [sp, #44]
 645 07bc E60200DA 		ble	.L581
 646 07c0 050053E3 		cmp	r3, #5
 647 07c4 84309DE5 		ldr	r3, [sp, #132]
 648 07c8 003093C5 		ldrgt	r3, [r3]
 649 07cc 28308DE5 		str	r3, [sp, #40]
 650 07d0 98309DE5 		ldr	r3, [sp, #152]
 651 07d4 000053E3 		cmp	r3, #0
 652 07d8 34308DE5 		str	r3, [sp, #52]
 653 07dc DD0200DA 		ble	.L582
 654 07e0 050053E3 		cmp	r3, #5
 655 07e4 9C309DE5 		ldr	r3, [sp, #156]
 656 07e8 28209DE5 		ldr	r2, [sp, #40]
 657 07ec 003093C5 		ldrgt	r3, [r3]
 658 07f0 030052E1 		cmp	r2, r3
 659 07f4 D602001A 		bne	.L583
 660 07f8 2C309DE5 		ldr	r3, [sp, #44]
 661 07fc 010053E3 		cmp	r3, #1
 662 0800 D202000A 		beq	.L584
 663 0804 050053E3 		cmp	r3, #5
 664 0808 900200CA 		bgt	.L585
 665 080c 020053E3 		cmp	r3, #2
 666 0810 229A9DED 		vldr.32	s18, [sp, #136]	@ int
 667 0814 CB02000A 		beq	.L586
 668 0818 030053E3 		cmp	r3, #3
 669 081c 23AA9DED 		vldr.32	s20, [sp, #140]	@ int
 670 0820 C702000A 		beq	.L254
 671 0824 90A09DE5 		ldr	r10, [sp, #144]
 672              	.L37:
 673 0828 34309DE5 		ldr	r3, [sp, #52]
 674 082c 030053E3 		cmp	r3, #3
 675 0830 C20200DA 		ble	.L587
 676 0834 050053E3 		cmp	r3, #5
 677 0838 9C309DC5 		ldrgt	r3, [sp, #156]
 678 083c A8309DD5 		ldrle	r3, [sp, #168]
 679 0840 0C3093C5 		ldrgt	r3, [r3, #12]
 680 0844 03005AE1 		cmp	r10, r3
 681 0848 BB02001A 		bne	.L588
 682 084c 50C09DE5 		ldr	ip, [sp, #80]
 683 0850 05005CE3 		cmp	ip, #5
 684 0854 710100DA 		ble	.L43
 685 0858 54009DE5 		ldr	r0, [sp, #84]
 686              	.L44:
 687 085c 5031A0E7 		sbfx	r3, r0, #2, #1
 688 0860 033003E2 		and	r3, r3, #3
 689 0864 0C0053E1 		cmp	r3, ip
 690 0868 0C30A021 		movcs	r3, ip
 691 086c 08005CE3 		cmp	ip, #8
 692 0870 0C30A0D1 		movle	r3, ip
 693 0874 A90200CA 		bgt	.L589
 694              	.L46:
 695 0878 010053E3 		cmp	r3, #1
 696 087c 002090E5 		ldr	r2, [r0]
 697 0880 EC00000A 		beq	.L268
 698 0884 041090E5 		ldr	r1, [r0, #4]
 699 0888 020053E3 		cmp	r3, #2
 700 088c 910202E0 		mul	r2, r1, r2
 701 0890 E800000A 		beq	.L268
 702 0894 081090E5 		ldr	r1, [r0, #8]
 703 0898 030053E3 		cmp	r3, #3
 704 089c 910202E0 		mul	r2, r1, r2
 705 08a0 E400000A 		beq	.L268
 706 08a4 0C1090E5 		ldr	r1, [r0, #12]
 707 08a8 040053E3 		cmp	r3, #4
 708 08ac 910202E0 		mul	r2, r1, r2
 709 08b0 E000000A 		beq	.L268
 710 08b4 101090E5 		ldr	r1, [r0, #16]
 711 08b8 050053E3 		cmp	r3, #5
 712 08bc 910202E0 		mul	r2, r1, r2
 713 08c0 DC00000A 		beq	.L268
 714 08c4 141090E5 		ldr	r1, [r0, #20]
 715 08c8 060053E3 		cmp	r3, #6
 716 08cc 910202E0 		mul	r2, r1, r2
 717 08d0 D800000A 		beq	.L268
 718 08d4 181090E5 		ldr	r1, [r0, #24]
 719 08d8 070053E3 		cmp	r3, #7
 720 08dc 910202E0 		mul	r2, r1, r2
 721 08e0 D400000A 		beq	.L268
 722 08e4 1CE090E5 		ldr	lr, [r0, #28]
 723 08e8 0810A0E3 		mov	r1, #8
 724 08ec 9E0202E0 		mul	r2, lr, r2
 725              	.L48:
 726 08f0 03005CE1 		cmp	ip, r3
 727 08f4 2800000A 		beq	.L49
 728              	.L47:
 729 08f8 03604CE0 		sub	r6, ip, r3
 730 08fc 01404CE2 		sub	r4, ip, #1
 731 0900 04E046E2 		sub	lr, r6, #4
 732 0904 034044E0 		sub	r4, r4, r3
 733 0908 2EE1A0E1 		lsr	lr, lr, #2
 734 090c 020054E3 		cmp	r4, #2
 735 0910 01E08EE2 		add	lr, lr, #1
 736 0914 0E51A0E1 		lsl	r5, lr, #2
 737 0918 1200009A 		bls	.L50
 738 091c 033180E0 		add	r3, r0, r3, lsl #2
 739 0920 5140C0F2 		vmov.i32	q10, #1  @ v4si
 740 0924 0040A0E3 		mov	r4, #0
 741              	.L52:
 742 0928 014084E2 		add	r4, r4, #1
 743 092c DF0A63F4 		vld1.64	{d16-d17}, [r3:64]
 744 0930 0E0054E1 		cmp	r4, lr
 745 0934 103083E2 		add	r3, r3, #16
 746 0938 F04964F2 		vmul.i32	q10, q10, q8
 747 093c F9FFFF3A 		bcc	.L52
 748 0940 060055E1 		cmp	r5, r6
 749 0944 051081E0 		add	r1, r1, r5
 750 0948 5000C0F2 		vmov.i32	q8, #0  @ v4si
 751 094c E028F4F2 		vext.32	q9, q10, q8, #2
 752 0950 F42962F2 		vmul.i32	q9, q9, q10
 753 0954 E004F2F2 		vext.32	q8, q9, q8, #1
 754 0958 F20960F2 		vmul.i32	q8, q8, q9
 755 095c 903B10EE 		vmov.32	r3, d16[0]
 756 0960 930202E0 		mul	r2, r3, r2
 757 0964 0C00000A 		beq	.L49
 758              	.L50:
 759 0968 01E190E7 		ldr	lr, [r0, r1, lsl #2]
 760 096c 013081E2 		add	r3, r1, #1
 761 0970 03005CE1 		cmp	ip, r3
 762 0974 0131A0E1 		lsl	r3, r1, #2
 763 0978 9E0202E0 		mul	r2, lr, r2
 764 097c 060000DA 		ble	.L49
 765 0980 030080E0 		add	r0, r0, r3
 766 0984 021081E2 		add	r1, r1, #2
 767 0988 043090E5 		ldr	r3, [r0, #4]
 768 098c 01005CE1 		cmp	ip, r1
 769 0990 930202E0 		mul	r2, r3, r2
 770 0994 083090C5 		ldrgt	r3, [r0, #8]
 771 0998 930202C0 		mulgt	r2, r3, r2
 772              	.L49:
 773 099c 020052E3 		cmp	r2, #2
 774 09a0 6302001A 		bne	.L45
 775 09a4 28209DE5 		ldr	r2, [sp, #40]
 776 09a8 103A1AEE 		vmov	r3, s20	@ int
 777 09ac 9A0303E0 		mul	r3, r10, r3
 778 09b0 048097E5 		ldr	r8, [r7, #4]
 779 09b4 000052E3 		cmp	r2, #0
 780 09b8 002097E5 		ldr	r2, [r7]
 781 09bc 08208DE5 		str	r2, [sp, #8]
 782 09c0 102A19EE 		vmov	r2, s18	@ int
 783 09c4 18308DE5 		str	r3, [sp, #24]
 784 09c8 930203E0 		mul	r3, r3, r2
 785 09cc 650000DA 		ble	.L62
 786 09d0 0C109DE5 		ldr	r1, [sp, #12]
 787 09d4 0331A0E1 		lsl	r3, r3, #2
 788 09d8 08009DE5 		ldr	r0, [sp, #8]
 789 09dc 0A51A0E1 		lsl	r5, r10, #2
 790 09e0 30308DE5 		str	r3, [sp, #48]
 791 09e4 0120A0E1 		mov	r2, r1
 792 09e8 010050E3 		cmp	r0, #1
 793 09ec 0020A0D3 		movle	r2, #0
 794 09f0 012002C2 		andgt	r2, r2, #1
 795 09f4 14208DE5 		str	r2, [sp, #20]
 796 09f8 0120A0E1 		mov	r2, r1
 797 09fc 010058E3 		cmp	r8, #1
 798 0a00 0020A0D3 		movle	r2, #0
 799 0a04 012002C2 		andgt	r2, r2, #1
 800 0a08 000050E3 		cmp	r0, #0
 801 0a0c 20208DE5 		str	r2, [sp, #32]
 802 0a10 540000DA 		ble	.L62
 803 0a14 950803E0 		mul	r3, r5, r8
 804 0a18 A28A1FED 		vldr.32	s16, .L606
 805 0a1c 1C308DE5 		str	r3, [sp, #28]
 806 0a20 0030A0E3 		mov	r3, #0
 807 0a24 24308DE5 		str	r3, [sp, #36]
 808 0a28 103A19EE 		vmov	r3, s18	@ int
 809 0a2c 013043E2 		sub	r3, r3, #1
 810 0a30 10308DE5 		str	r3, [sp, #16]
 811 0a34 103A1AEE 		vmov	r3, s20	@ int
 812 0a38 014043E2 		sub	r4, r3, #1
 813              	.L76:
 814 0a3c 0030A0E3 		mov	r3, #0
 815 0a40 00308DE5 		str	r3, [sp]
 816 0a44 013048E2 		sub	r3, r8, #1
 817 0a48 903A09EE 		vmov	s19, r3	@ int
 818              	.L75:
 819 0a4c 14309DE5 		ldr	r3, [sp, #20]
 820 0a50 000053E3 		cmp	r3, #0
 821 0a54 4700000A 		beq	.L63
 822 0a58 08309DE5 		ldr	r3, [sp, #8]
 823 0a5c 047A9DED 		vldr.32	s14, [sp, #16]	@ int
 824 0a60 013043E2 		sub	r3, r3, #1
 825 0a64 903A07EE 		vmov	s15, r3	@ int
 826 0a68 C76AF8EE 		vcvt.f32.s32	s13, s14
 827 0a6c E77AF8EE 		vcvt.f32.s32	s15, s15
 828 0a70 A77A86EE 		vdiv.f32	s14, s13, s15
 829              	.L64:
 830 0a74 007ADDED 		vldr.32	s15, [sp]	@ int
 831 0a78 E70AB8EE 		vcvt.f32.s32	s0, s15
 832 0a7c 080A30EE 		vadd.f32	s0, s0, s16
 833 0a80 070A20EE 		vmul.f32	s0, s0, s14
 834 0a84 FEFFFFEB 		bl	roundf
 835 0a88 C07AFDEE 		vcvt.s32.f32	s15, s0
 836 0a8c 10309DE5 		ldr	r3, [sp, #16]
 837 0a90 906A17EE 		vmov	r6, s15	@ int
 838 0a94 030056E1 		cmp	r6, r3
 839 0a98 0360A0A1 		movge	r6, r3
 840 0a9c 18309DE5 		ldr	r3, [sp, #24]
 841 0aa0 000058E3 		cmp	r8, #0
 842 0aa4 930606E0 		mul	r6, r3, r6
 843 0aa8 0661A0E1 		lsl	r6, r6, #2
 844 0aac 1F0000DA 		ble	.L66
 845 0ab0 20309DE5 		ldr	r3, [sp, #32]
 846 0ab4 000053E3 		cmp	r3, #0
 847 0ab8 2A02000A 		beq	.L590
 848 0abc 104A07EE 		vmov	s14, r4	@ int
 849 0ac0 00B0A0E3 		mov	fp, #0
 850 0ac4 E97AF8EE 		vcvt.f32.s32	s15, s19
 851 0ac8 C77AB8EE 		vcvt.f32.s32	s14, s14
 852 0acc 04709DE5 		ldr	r7, [sp, #4]
 853 0ad0 278AC7EE 		vdiv.f32	s17, s14, s15
 854              	.L74:
 855 0ad4 90BA07EE 		vmov	s15, fp	@ int
 856 0ad8 01B08BE2 		add	fp, fp, #1
 857 0adc E70AB8EE 		vcvt.f32.s32	s0, s15
 858 0ae0 080A30EE 		vadd.f32	s0, s0, s16
 859 0ae4 280A20EE 		vmul.f32	s0, s0, s17
 860 0ae8 FEFFFFEB 		bl	roundf
 861 0aec C07AFDEE 		vcvt.s32.f32	s15, s0
 862 0af0 0700A0E1 		mov	r0, r7
 863 0af4 0520A0E1 		mov	r2, r5
 864 0af8 057087E0 		add	r7, r7, r5
 865 0afc 901A17EE 		vmov	r1, s15	@ int
 866 0b00 040051E1 		cmp	r1, r4
 867 0b04 0410A0A1 		movge	r1, r4
 868 0b08 9A0101E0 		mul	r1, r10, r1
 869 0b0c 011186E0 		add	r1, r6, r1, lsl #2
 870 0b10 011089E0 		add	r1, r9, r1
 871 0b14 FEFFFFEB 		bl	memcpy
 872 0b18 0B0058E1 		cmp	r8, fp
 873 0b1c ECFFFF1A 		bne	.L74
 874              	.L503:
 875 0b20 04309DE5 		ldr	r3, [sp, #4]
 876 0b24 1C209DE5 		ldr	r2, [sp, #28]
 877 0b28 023083E0 		add	r3, r3, r2
 878 0b2c 04308DE5 		str	r3, [sp, #4]
 879              	.L66:
 880 0b30 00309DE5 		ldr	r3, [sp]
 881 0b34 08209DE5 		ldr	r2, [sp, #8]
 882 0b38 013083E2 		add	r3, r3, #1
 883 0b3c 030052E1 		cmp	r2, r3
 884 0b40 00308DE5 		str	r3, [sp]
 885 0b44 C0FFFF1A 		bne	.L75
 886 0b48 30209DE5 		ldr	r2, [sp, #48]
 887 0b4c 24309DE5 		ldr	r3, [sp, #36]
 888 0b50 029089E0 		add	r9, r9, r2
 889 0b54 28209DE5 		ldr	r2, [sp, #40]
 890 0b58 013083E2 		add	r3, r3, #1
 891 0b5c 24308DE5 		str	r3, [sp, #36]
 892 0b60 020053E1 		cmp	r3, r2
 893 0b64 B4FFFF1A 		bne	.L76
 894              	.L62:
 895 0b68 34309DE5 		ldr	r3, [sp, #52]
 896 0b6c 050053E3 		cmp	r3, #5
 897 0b70 76FEFFCA 		bgt	.L210
 898 0b74 79FEFFEA 		b	.L211
 899              	.L63:
 900 0b78 027A9DED 		vldr.32	s14, [sp, #8]	@ int
 901 0b7c 0C309DE5 		ldr	r3, [sp, #12]
 902 0b80 C97AF8EE 		vcvt.f32.s32	s15, s18
 903 0b84 C76AF8EE 		vcvt.f32.s32	s13, s14
 904 0b88 000053E3 		cmp	r3, #0
 905 0b8c A67A87EE 		vdiv.f32	s14, s15, s13
 906 0b90 B7FFFF1A 		bne	.L64
 907 0b94 007ADDED 		vldr.32	s15, [sp]	@ int
 908 0b98 E70AB8EE 		vcvt.f32.s32	s0, s15
 909 0b9c 080A30EE 		vadd.f32	s0, s0, s16
 910 0ba0 070A20EE 		vmul.f32	s0, s0, s14
 911 0ba4 FEFFFFEB 		bl	floorf
 912 0ba8 C07AFDEE 		vcvt.s32.f32	s15, s0
 913 0bac 10309DE5 		ldr	r3, [sp, #16]
 914 0bb0 906A17EE 		vmov	r6, s15	@ int
 915 0bb4 030056E1 		cmp	r6, r3
 916 0bb8 0360A0A1 		movge	r6, r3
 917 0bbc 18309DE5 		ldr	r3, [sp, #24]
 918 0bc0 000058E3 		cmp	r8, #0
 919 0bc4 930606E0 		mul	r6, r3, r6
 920 0bc8 0661A0E1 		lsl	r6, r6, #2
 921 0bcc D7FFFFDA 		ble	.L66
 922              	.L257:
 923 0bd0 908A07EE 		vmov	s15, r8	@ int
 924 0bd4 00B0A0E3 		mov	fp, #0
 925 0bd8 CA7AB8EE 		vcvt.f32.s32	s14, s20
 926 0bdc E77AF8EE 		vcvt.f32.s32	s15, s15
 927 0be0 04709DE5 		ldr	r7, [sp, #4]
 928 0be4 278AC7EE 		vdiv.f32	s17, s14, s15
 929              	.L71:
 930 0be8 90BA07EE 		vmov	s15, fp	@ int
 931 0bec 01B08BE2 		add	fp, fp, #1
 932 0bf0 E70AB8EE 		vcvt.f32.s32	s0, s15
 933 0bf4 080A30EE 		vadd.f32	s0, s0, s16
 934 0bf8 280A20EE 		vmul.f32	s0, s0, s17
 935 0bfc FEFFFFEB 		bl	floorf
 936 0c00 C07AFDEE 		vcvt.s32.f32	s15, s0
 937 0c04 0700A0E1 		mov	r0, r7
 938 0c08 0520A0E1 		mov	r2, r5
 939 0c0c 057087E0 		add	r7, r7, r5
 940 0c10 901A17EE 		vmov	r1, s15	@ int
 941 0c14 040051E1 		cmp	r1, r4
 942 0c18 0410A0A1 		movge	r1, r4
 943 0c1c 9A0101E0 		mul	r1, r10, r1
 944 0c20 011186E0 		add	r1, r6, r1, lsl #2
 945 0c24 011089E0 		add	r1, r9, r1
 946 0c28 FEFFFFEB 		bl	memcpy
 947 0c2c 0B0058E1 		cmp	r8, fp
 948 0c30 ECFFFF1A 		bne	.L71
 949 0c34 B9FFFFEA 		b	.L503
 950              	.L268:
 951 0c38 0310A0E1 		mov	r1, r3
 952 0c3c 2BFFFFEA 		b	.L48
 953              	.L287:
 954 0c40 0310A0E1 		mov	r1, r3
 955 0c44 A6FDFFEA 		b	.L198
 956              	.L561:
 957 0c48 0710A0E1 		mov	r1, r7
 958 0c4c 38008DE2 		add	r0, sp, #56
 959              	.LEHB10:
 960 0c50 FEFFFFEB 		bl	_ZN6tflite5micro14GetTensorShapeEPK16TfLiteEvalTensor
 961              	.LEHE10:
 962 0c54 000057E3 		cmp	r7, #0
 963 0c58 C101000A 		beq	.L591
 964 0c5c 0610A0E1 		mov	r1, r6
 965 0c60 50008DE2 		add	r0, sp, #80
 966 0c64 009097E5 		ldr	r9, [r7]
 967              	.LEHB11:
 968 0c68 FEFFFFEB 		bl	_ZN6tflite5micro14GetTensorShapeEPK16TfLiteEvalTensor
 969              	.LEHE11:
 970 0c6c 000056E3 		cmp	r6, #0
 971 0c70 EB01000A 		beq	.L592
 972 0c74 0410A0E1 		mov	r1, r4
 973 0c78 68008DE2 		add	r0, sp, #104
 974 0c7c 008096E5 		ldr	r8, [r6]
 975              	.LEHB12:
 976 0c80 FEFFFFEB 		bl	_ZN6tflite5micro14GetTensorShapeEPK16TfLiteEvalTensor
 977              	.LEHE12:
 978 0c84 38209DE5 		ldr	r2, [sp, #56]
 979 0c88 00B094E5 		ldr	fp, [r4]
 980 0c8c 040052E3 		cmp	r2, #4
 981 0c90 B20100CA 		bgt	.L593
 982 0c94 68409DE5 		ldr	r4, [sp, #104]
 983 0c98 040054E3 		cmp	r4, #4
 984 0c9c 0A0200CA 		bgt	.L594
 985 0ca0 040072E2 		rsbs	r0, r2, #4
 986 0ca4 0430A0E3 		mov	r3, #4
 987 0ca8 80308DE5 		str	r3, [sp, #128]
 988 0cac 0D00000A 		beq	.L98
 989 0cb0 010050E3 		cmp	r0, #1
 990 0cb4 0130A0E3 		mov	r3, #1
 991 0cb8 84308DE5 		str	r3, [sp, #132]
 992 0cbc 0900000A 		beq	.L98
 993 0cc0 020050E3 		cmp	r0, #2
 994 0cc4 88308DE5 		str	r3, [sp, #136]
 995 0cc8 0600000A 		beq	.L98
 996 0ccc 030050E3 		cmp	r0, #3
 997 0cd0 8C308DE5 		str	r3, [sp, #140]
 998 0cd4 0300000A 		beq	.L98
 999 0cd8 040050E3 		cmp	r0, #4
 1000 0cdc 90308DE5 		str	r3, [sp, #144]
 1001 0ce0 0000000A 		beq	.L98
 1002              	.LEHB13:
 1003 0ce4 FEFFFFEB 		bl	abort
 1004              	.LEHE13:
 1005              	.L98:
 1006 0ce8 84308DE2 		add	r3, sp, #132
 1007 0cec 0221A0E1 		lsl	r2, r2, #2
 1008 0cf0 000183E0 		add	r0, r3, r0, lsl #2
 1009 0cf4 3C108DE2 		add	r1, sp, #60
 1010 0cf8 FEFFFFEB 		bl	memcpy
 1011 0cfc 040074E2 		rsbs	r0, r4, #4
 1012 0d00 0430A0E3 		mov	r3, #4
 1013 0d04 98308DE5 		str	r3, [sp, #152]
 1014 0d08 0D00000A 		beq	.L96
 1015 0d0c 010050E3 		cmp	r0, #1
 1016 0d10 0130A0E3 		mov	r3, #1
 1017 0d14 9C308DE5 		str	r3, [sp, #156]
 1018 0d18 0900000A 		beq	.L96
 1019 0d1c 020050E3 		cmp	r0, #2
 1020 0d20 A0308DE5 		str	r3, [sp, #160]
 1021 0d24 0600000A 		beq	.L96
 1022 0d28 030050E3 		cmp	r0, #3
 1023 0d2c A4308DE5 		str	r3, [sp, #164]
 1024 0d30 0300000A 		beq	.L96
 1025 0d34 040050E3 		cmp	r0, #4
 1026 0d38 A8308DE5 		str	r3, [sp, #168]
 1027 0d3c 0000000A 		beq	.L96
 1028              	.LEHB14:
 1029 0d40 FEFFFFEB 		bl	abort
 1030              	.LEHE14:
 1031              	.L96:
 1032 0d44 9C308DE2 		add	r3, sp, #156
 1033 0d48 0421A0E1 		lsl	r2, r4, #2
 1034 0d4c 000183E0 		add	r0, r3, r0, lsl #2
 1035 0d50 6C108DE2 		add	r1, sp, #108
 1036 0d54 FEFFFFEB 		bl	memcpy
 1037 0d58 80309DE5 		ldr	r3, [sp, #128]
 1038 0d5c 000053E3 		cmp	r3, #0
 1039 0d60 28308DE5 		str	r3, [sp, #40]
 1040 0d64 D90100DA 		ble	.L595
 1041 0d68 050053E3 		cmp	r3, #5
 1042 0d6c 84309DE5 		ldr	r3, [sp, #132]
 1043 0d70 003093C5 		ldrgt	r3, [r3]
 1044 0d74 24308DE5 		str	r3, [sp, #36]
 1045 0d78 98309DE5 		ldr	r3, [sp, #152]
 1046 0d7c 000053E3 		cmp	r3, #0
 1047 0d80 30308DE5 		str	r3, [sp, #48]
 1048 0d84 D30100DA 		ble	.L596
 1049 0d88 050053E3 		cmp	r3, #5
 1050 0d8c 9C309DE5 		ldr	r3, [sp, #156]
 1051 0d90 24209DE5 		ldr	r2, [sp, #36]
 1052 0d94 003093C5 		ldrgt	r3, [r3]
 1053 0d98 030052E1 		cmp	r2, r3
 1054 0d9c CC01001A 		bne	.L597
 1055 0da0 28309DE5 		ldr	r3, [sp, #40]
 1056 0da4 010053E3 		cmp	r3, #1
 1057 0da8 D201000A 		beq	.L598
 1058 0dac 050053E3 		cmp	r3, #5
 1059 0db0 170100CA 		bgt	.L599
 1060 0db4 020053E3 		cmp	r3, #2
 1061 0db8 229A9DED 		vldr.32	s18, [sp, #136]	@ int
 1062 0dbc CC01000A 		beq	.L600
 1063 0dc0 030053E3 		cmp	r3, #3
 1064 0dc4 23AA9DED 		vldr.32	s20, [sp, #140]	@ int
 1065 0dc8 C801000A 		beq	.L255
 1066 0dcc 90409DE5 		ldr	r4, [sp, #144]
 1067              	.L113:
 1068 0dd0 30309DE5 		ldr	r3, [sp, #48]
 1069 0dd4 030053E3 		cmp	r3, #3
 1070 0dd8 C30100DA 		ble	.L601
 1071 0ddc 050053E3 		cmp	r3, #5
 1072 0de0 9C309DC5 		ldrgt	r3, [sp, #156]
 1073 0de4 A8309DD5 		ldrle	r3, [sp, #168]
 1074 0de8 0C3093C5 		ldrgt	r3, [r3, #12]
 1075 0dec 030054E1 		cmp	r4, r3
 1076 0df0 5001001A 		bne	.L602
 1077 0df4 50C09DE5 		ldr	ip, [sp, #80]
 1078 0df8 05005CE3 		cmp	ip, #5
 1079 0dfc 0B0000CA 		bgt	.L603
 1080 0e00 00005CE3 		cmp	ip, #0
 1081 0e04 3F0100DA 		ble	.L121
 1082 0e08 54008DE2 		add	r0, sp, #84
 1083 0e0c 080000EA 		b	.L120
 1084              	.L193:
 1085 0e10 00005CE3 		cmp	ip, #0
 1086 0e14 E10100DA 		ble	.L195
 1087 0e18 54008DE2 		add	r0, sp, #84
 1088 0e1c 0BFDFFEA 		b	.L194
 1089              	.L43:
 1090 0e20 00005CE3 		cmp	ip, #0
 1091 0e24 420100DA 		ble	.L45
 1092 0e28 54008DE2 		add	r0, sp, #84
 1093 0e2c 8AFEFFEA 		b	.L44
 1094              	.L603:
 1095 0e30 54009DE5 		ldr	r0, [sp, #84]
 1096              	.L120:
 1097 0e34 5031A0E7 		sbfx	r3, r0, #2, #1
 1098 0e38 033003E2 		and	r3, r3, #3
 1099 0e3c 0C0053E1 		cmp	r3, ip
 1100 0e40 0C30A021 		movcs	r3, ip
 1101 0e44 08005CE3 		cmp	ip, #8
 1102 0e48 0C30A0D1 		movle	r3, ip
 1103 0e4c 2E0100CA 		bgt	.L604
 1104              	.L122:
 1105 0e50 010053E3 		cmp	r3, #1
 1106 0e54 002090E5 		ldr	r2, [r0]
 1107 0e58 EB00000A 		beq	.L277
 1108 0e5c 041090E5 		ldr	r1, [r0, #4]
 1109 0e60 020053E3 		cmp	r3, #2
 1110 0e64 910202E0 		mul	r2, r1, r2
 1111 0e68 E700000A 		beq	.L277
 1112 0e6c 081090E5 		ldr	r1, [r0, #8]
 1113 0e70 030053E3 		cmp	r3, #3
 1114 0e74 910202E0 		mul	r2, r1, r2
 1115 0e78 E300000A 		beq	.L277
 1116 0e7c 0C1090E5 		ldr	r1, [r0, #12]
 1117 0e80 040053E3 		cmp	r3, #4
 1118 0e84 910202E0 		mul	r2, r1, r2
 1119 0e88 DF00000A 		beq	.L277
 1120 0e8c 101090E5 		ldr	r1, [r0, #16]
 1121 0e90 050053E3 		cmp	r3, #5
 1122 0e94 910202E0 		mul	r2, r1, r2
 1123 0e98 DB00000A 		beq	.L277
 1124 0e9c 141090E5 		ldr	r1, [r0, #20]
 1125 0ea0 060053E3 		cmp	r3, #6
 1126 0ea4 910202E0 		mul	r2, r1, r2
 1127 0ea8 D700000A 		beq	.L277
 1128 0eac 181090E5 		ldr	r1, [r0, #24]
 1129 0eb0 070053E3 		cmp	r3, #7
 1130 0eb4 910202E0 		mul	r2, r1, r2
 1131 0eb8 D300000A 		beq	.L277
 1132 0ebc 1CE090E5 		ldr	lr, [r0, #28]
 1133 0ec0 0810A0E3 		mov	r1, #8
 1134 0ec4 9E0202E0 		mul	r2, lr, r2
 1135              	.L124:
 1136 0ec8 03005CE1 		cmp	ip, r3
 1137 0ecc 2800000A 		beq	.L125
 1138              	.L123:
 1139 0ed0 03704CE0 		sub	r7, ip, r3
 1140 0ed4 01504CE2 		sub	r5, ip, #1
 1141 0ed8 04E047E2 		sub	lr, r7, #4
 1142 0edc 035045E0 		sub	r5, r5, r3
 1143 0ee0 2EE1A0E1 		lsr	lr, lr, #2
 1144 0ee4 020055E3 		cmp	r5, #2
 1145 0ee8 01E08EE2 		add	lr, lr, #1
 1146 0eec 0E61A0E1 		lsl	r6, lr, #2
 1147 0ef0 1200009A 		bls	.L126
 1148 0ef4 033180E0 		add	r3, r0, r3, lsl #2
 1149 0ef8 5140C0F2 		vmov.i32	q10, #1  @ v4si
 1150 0efc 0050A0E3 		mov	r5, #0
 1151              	.L128:
 1152 0f00 015085E2 		add	r5, r5, #1
 1153 0f04 DF0A63F4 		vld1.64	{d16-d17}, [r3:64]
 1154 0f08 05005EE1 		cmp	lr, r5
 1155 0f0c 103083E2 		add	r3, r3, #16
 1156 0f10 F04964F2 		vmul.i32	q10, q10, q8
 1157 0f14 F9FFFF8A 		bhi	.L128
 1158 0f18 070056E1 		cmp	r6, r7
 1159 0f1c 061081E0 		add	r1, r1, r6
 1160 0f20 5000C0F2 		vmov.i32	q8, #0  @ v4si
 1161 0f24 E028F4F2 		vext.32	q9, q10, q8, #2
 1162 0f28 F42962F2 		vmul.i32	q9, q9, q10
 1163 0f2c E004F2F2 		vext.32	q8, q9, q8, #1
 1164 0f30 F20960F2 		vmul.i32	q8, q8, q9
 1165 0f34 903B10EE 		vmov.32	r3, d16[0]
 1166 0f38 930202E0 		mul	r2, r3, r2
 1167 0f3c 0C00000A 		beq	.L125
 1168              	.L126:
 1169 0f40 01E190E7 		ldr	lr, [r0, r1, lsl #2]
 1170 0f44 013081E2 		add	r3, r1, #1
 1171 0f48 03005CE1 		cmp	ip, r3
 1172 0f4c 0131A0E1 		lsl	r3, r1, #2
 1173 0f50 9E0202E0 		mul	r2, lr, r2
 1174 0f54 060000DA 		ble	.L125
 1175 0f58 030080E0 		add	r0, r0, r3
 1176 0f5c 021081E2 		add	r1, r1, #2
 1177 0f60 043090E5 		ldr	r3, [r0, #4]
 1178 0f64 01005CE1 		cmp	ip, r1
 1179 0f68 930202E0 		mul	r2, r3, r2
 1180 0f6c 083090C5 		ldrgt	r3, [r0, #8]
 1181 0f70 930202C0 		mulgt	r2, r3, r2
 1182              	.L125:
 1183 0f74 020052E3 		cmp	r2, #2
 1184 0f78 E200001A 		bne	.L121
 1185 0f7c 24209DE5 		ldr	r2, [sp, #36]
 1186 0f80 103A1AEE 		vmov	r3, s20	@ int
 1187 0f84 940303E0 		mul	r3, r4, r3
 1188 0f88 000052E3 		cmp	r2, #0
 1189 0f8c 002098E5 		ldr	r2, [r8]
 1190 0f90 048098E5 		ldr	r8, [r8, #4]
 1191 0f94 04208DE5 		str	r2, [sp, #4]
 1192 0f98 102A19EE 		vmov	r2, s18	@ int
 1193 0f9c 10308DE5 		str	r3, [sp, #16]
 1194 0fa0 920303E0 		mul	r3, r2, r3
 1195 0fa4 2C308DE5 		str	r3, [sp, #44]
 1196 0fa8 5E0000DA 		ble	.L138
 1197 0fac 0C209DE5 		ldr	r2, [sp, #12]
 1198 0fb0 04109DE5 		ldr	r1, [sp, #4]
 1199 0fb4 0230A0E1 		mov	r3, r2
 1200 0fb8 010051E3 		cmp	r1, #1
 1201 0fbc 0030A0D3 		movle	r3, #0
 1202 0fc0 013003C2 		andgt	r3, r3, #1
 1203 0fc4 14308DE5 		str	r3, [sp, #20]
 1204 0fc8 0230A0E1 		mov	r3, r2
 1205 0fcc 010058E3 		cmp	r8, #1
 1206 0fd0 0030A0D3 		movle	r3, #0
 1207 0fd4 013003C2 		andgt	r3, r3, #1
 1208 0fd8 000051E3 		cmp	r1, #0
 1209 0fdc 1C308DE5 		str	r3, [sp, #28]
 1210 0fe0 500000DA 		ble	.L138
 1211 0fe4 940803E0 		mul	r3, r4, r8
 1212 0fe8 FC8A9FED 		vldr.32	s16, .L608
 1213 0fec 18308DE5 		str	r3, [sp, #24]
 1214 0ff0 0030A0E3 		mov	r3, #0
 1215 0ff4 20308DE5 		str	r3, [sp, #32]
 1216 0ff8 103A19EE 		vmov	r3, s18	@ int
 1217 0ffc 013043E2 		sub	r3, r3, #1
 1218 1000 08308DE5 		str	r3, [sp, #8]
 1219 1004 103A1AEE 		vmov	r3, s20	@ int
 1220 1008 015043E2 		sub	r5, r3, #1
 1221              	.L152:
 1222 100c 0030A0E3 		mov	r3, #0
 1223 1010 00308DE5 		str	r3, [sp]
 1224 1014 013048E2 		sub	r3, r8, #1
 1225 1018 903A09EE 		vmov	s19, r3	@ int
 1226              	.L151:
 1227 101c 14309DE5 		ldr	r3, [sp, #20]
 1228 1020 000053E3 		cmp	r3, #0
 1229 1024 4A00000A 		beq	.L139
 1230 1028 04309DE5 		ldr	r3, [sp, #4]
 1231 102c 027A9DED 		vldr.32	s14, [sp, #8]	@ int
 1232 1030 013043E2 		sub	r3, r3, #1
 1233 1034 903A07EE 		vmov	s15, r3	@ int
 1234 1038 C77AB8EE 		vcvt.f32.s32	s14, s14
 1235 103c E77AF8EE 		vcvt.f32.s32	s15, s15
 1236 1040 270A87EE 		vdiv.f32	s0, s14, s15
 1237              	.L140:
 1238 1044 007ADDED 		vldr.32	s15, [sp]	@ int
 1239 1048 E77AF8EE 		vcvt.f32.s32	s15, s15
 1240 104c 887A77EE 		vadd.f32	s15, s15, s16
 1241 1050 800A27EE 		vmul.f32	s0, s15, s0
 1242 1054 FEFFFFEB 		bl	roundf
 1243 1058 C07AFDEE 		vcvt.s32.f32	s15, s0
 1244 105c 08309DE5 		ldr	r3, [sp, #8]
 1245 1060 906A17EE 		vmov	r6, s15	@ int
 1246 1064 030056E1 		cmp	r6, r3
 1247 1068 0360A0A1 		movge	r6, r3
 1248 106c 10309DE5 		ldr	r3, [sp, #16]
 1249 1070 000058E3 		cmp	r8, #0
 1250 1074 930606E0 		mul	r6, r3, r6
 1251 1078 1C0000DA 		ble	.L142
 1252 107c 1C309DE5 		ldr	r3, [sp, #28]
 1253 1080 000053E3 		cmp	r3, #0
 1254 1084 F300000A 		beq	.L605
 1255 1088 105A07EE 		vmov	s14, r5	@ int
 1256 108c 0B70A0E1 		mov	r7, fp
 1257 1090 E97AF8EE 		vcvt.f32.s32	s15, s19
 1258 1094 00A0A0E3 		mov	r10, #0
 1259 1098 C77AB8EE 		vcvt.f32.s32	s14, s14
 1260 109c 278AC7EE 		vdiv.f32	s17, s14, s15
 1261              	.L150:
 1262 10a0 90AA07EE 		vmov	s15, r10	@ int
 1263 10a4 01A08AE2 		add	r10, r10, #1
 1264 10a8 E70AB8EE 		vcvt.f32.s32	s0, s15
 1265 10ac 080A30EE 		vadd.f32	s0, s0, s16
 1266 10b0 280A20EE 		vmul.f32	s0, s0, s17
 1267 10b4 FEFFFFEB 		bl	roundf
 1268 10b8 C07AFDEE 		vcvt.s32.f32	s15, s0
 1269 10bc 0700A0E1 		mov	r0, r7
 1270 10c0 0420A0E1 		mov	r2, r4
 1271 10c4 047087E0 		add	r7, r7, r4
 1272 10c8 901A17EE 		vmov	r1, s15	@ int
 1273 10cc 050051E1 		cmp	r1, r5
 1274 10d0 0510A0A1 		movge	r1, r5
 1275 10d4 946121E0 		mla	r1, r4, r1, r6
 1276 10d8 011089E0 		add	r1, r9, r1
 1277 10dc FEFFFFEB 		bl	memcpy
 1278 10e0 0A0058E1 		cmp	r8, r10
 1279 10e4 EDFFFF1A 		bne	.L150
 1280              	.L504:
 1281 10e8 18309DE5 		ldr	r3, [sp, #24]
 1282 10ec 03B08BE0 		add	fp, fp, r3
 1283              	.L142:
 1284 10f0 00309DE5 		ldr	r3, [sp]
 1285 10f4 04209DE5 		ldr	r2, [sp, #4]
 1286 10f8 013083E2 		add	r3, r3, #1
 1287 10fc 030052E1 		cmp	r2, r3
 1288 1100 00308DE5 		str	r3, [sp]
 1289 1104 C4FFFF1A 		bne	.L151
 1290 1108 2C209DE5 		ldr	r2, [sp, #44]
 1291 110c 20309DE5 		ldr	r3, [sp, #32]
 1292 1110 029089E0 		add	r9, r9, r2
 1293 1114 24209DE5 		ldr	r2, [sp, #36]
 1294 1118 013083E2 		add	r3, r3, #1
 1295 111c 20308DE5 		str	r3, [sp, #32]
 1296 1120 020053E1 		cmp	r3, r2
 1297 1124 B8FFFF1A 		bne	.L152
 1298              	.L138:
 1299 1128 30309DE5 		ldr	r3, [sp, #48]
 1300 112c 050053E3 		cmp	r3, #5
 1301 1130 030000DA 		ble	.L137
 1302 1134 9C009DE5 		ldr	r0, [sp, #156]
 1303 1138 000050E3 		cmp	r0, #0
 1304 113c 0000000A 		beq	.L137
 1305 1140 FEFFFFEB 		bl	_ZdaPv
 1306              	.L137:
 1307 1144 28309DE5 		ldr	r3, [sp, #40]
 1308 1148 050053E3 		cmp	r3, #5
 1309 114c 06FDFFCA 		bgt	.L542
 1310 1150 09FDFFEA 		b	.L227
 1311              	.L139:
 1312 1154 017A9DED 		vldr.32	s14, [sp, #4]	@ int
 1313 1158 0C309DE5 		ldr	r3, [sp, #12]
 1314 115c C97AF8EE 		vcvt.f32.s32	s15, s18
 1315 1160 C77AB8EE 		vcvt.f32.s32	s14, s14
 1316 1164 000053E3 		cmp	r3, #0
 1317 1168 870A87EE 		vdiv.f32	s0, s15, s14
 1318 116c B4FFFF1A 		bne	.L140
 1319 1170 007ADDED 		vldr.32	s15, [sp]	@ int
 1320 1174 E77AF8EE 		vcvt.f32.s32	s15, s15
 1321 1178 887A77EE 		vadd.f32	s15, s15, s16
 1322 117c 800A27EE 		vmul.f32	s0, s15, s0
 1323 1180 FEFFFFEB 		bl	floorf
 1324 1184 C07AFDEE 		vcvt.s32.f32	s15, s0
 1325 1188 08309DE5 		ldr	r3, [sp, #8]
 1326 118c 906A17EE 		vmov	r6, s15	@ int
 1327 1190 030056E1 		cmp	r6, r3
 1328 1194 0360A0A1 		movge	r6, r3
 1329 1198 10309DE5 		ldr	r3, [sp, #16]
 1330 119c 000058E3 		cmp	r8, #0
 1331 11a0 930606E0 		mul	r6, r3, r6
 1332 11a4 D1FFFFDA 		ble	.L142
 1333              	.L258:
 1334 11a8 908A07EE 		vmov	s15, r8	@ int
 1335 11ac 0B70A0E1 		mov	r7, fp
 1336 11b0 CA7AB8EE 		vcvt.f32.s32	s14, s20
 1337 11b4 00A0A0E3 		mov	r10, #0
 1338 11b8 E77AF8EE 		vcvt.f32.s32	s15, s15
 1339 11bc 278AC7EE 		vdiv.f32	s17, s14, s15
 1340              	.L147:
 1341 11c0 90AA07EE 		vmov	s15, r10	@ int
 1342 11c4 01A08AE2 		add	r10, r10, #1
 1343 11c8 E70AB8EE 		vcvt.f32.s32	s0, s15
 1344 11cc 080A30EE 		vadd.f32	s0, s0, s16
 1345 11d0 280A20EE 		vmul.f32	s0, s0, s17
 1346 11d4 FEFFFFEB 		bl	floorf
 1347 11d8 C07AFDEE 		vcvt.s32.f32	s15, s0
 1348 11dc 0700A0E1 		mov	r0, r7
 1349 11e0 0420A0E1 		mov	r2, r4
 1350 11e4 047087E0 		add	r7, r7, r4
 1351 11e8 901A17EE 		vmov	r1, s15	@ int
 1352 11ec 050051E1 		cmp	r1, r5
 1353 11f0 0510A0A1 		movge	r1, r5
 1354 11f4 946121E0 		mla	r1, r4, r1, r6
 1355 11f8 011089E0 		add	r1, r9, r1
 1356 11fc FEFFFFEB 		bl	memcpy
 1357 1200 0A0058E1 		cmp	r8, r10
 1358 1204 EDFFFF1A 		bne	.L147
 1359 1208 B6FFFFEA 		b	.L504
 1360              	.L277:
 1361 120c 0310A0E1 		mov	r1, r3
 1362 1210 2CFFFFEA 		b	.L124
 1363              	.L599:
 1364 1214 84309DE5 		ldr	r3, [sp, #132]
 1365 1218 019A93ED 		vldr.32	s18, [r3, #4]	@ int
 1366 121c 02AA93ED 		vldr.32	s20, [r3, #8]	@ int
 1367 1220 0C4093E5 		ldr	r4, [r3, #12]
 1368 1224 E9FEFFEA 		b	.L113
 1369              	.L571:
 1370 1228 84309DE5 		ldr	r3, [sp, #132]
 1371 122c 019A93ED 		vldr.32	s18, [r3, #4]	@ int
 1372 1230 02AA93ED 		vldr.32	s20, [r3, #8]	@ int
 1373 1234 0C4093E5 		ldr	r4, [r3, #12]
 1374 1238 F7FBFFEA 		b	.L187
 1375              	.L575:
 1376 123c 000053E3 		cmp	r3, #0
 1377 1240 0120A003 		moveq	r2, #1
 1378 1244 0310A001 		moveq	r1, r3
 1379 1248 27FCFF0A 		beq	.L197
 1380 124c 06FCFFEA 		b	.L196
 1381              	.L585:
 1382 1250 84309DE5 		ldr	r3, [sp, #132]
 1383 1254 019A93ED 		vldr.32	s18, [r3, #4]	@ int
 1384 1258 02AA93ED 		vldr.32	s20, [r3, #8]	@ int
 1385 125c 0CA093E5 		ldr	r10, [r3, #12]
 1386 1260 70FDFFEA 		b	.L37
 1387              	.L293:
 1388              	.L236:
 1389 1264 68309DE5 		ldr	r3, [sp, #104]
 1390 1268 050053E3 		cmp	r3, #5
 1391 126c 030000DA 		ble	.L250
 1392 1270 6C009DE5 		ldr	r0, [sp, #108]
 1393 1274 000050E3 		cmp	r0, #0
 1394 1278 0000000A 		beq	.L250
 1395 127c FEFFFFEB 		bl	_ZdaPv
 1396              	.L250:
 1397 1280 50309DE5 		ldr	r3, [sp, #80]
 1398 1284 050053E3 		cmp	r3, #5
 1399 1288 030000DA 		ble	.L252
 1400 128c 54009DE5 		ldr	r0, [sp, #84]
 1401 1290 000050E3 		cmp	r0, #0
 1402 1294 0000000A 		beq	.L252
 1403 1298 FEFFFFEB 		bl	_ZdaPv
 1404              	.L252:
 1405 129c 38309DE5 		ldr	r3, [sp, #56]
 1406 12a0 050053E3 		cmp	r3, #5
 1407 12a4 030000DA 		ble	.L253
 1408 12a8 3C009DE5 		ldr	r0, [sp, #60]
 1409 12ac 000050E3 		cmp	r0, #0
 1410 12b0 0000000A 		beq	.L253
 1411 12b4 FEFFFFEB 		bl	_ZdaPv
 1412              	.L253:
 1413              	.LEHB15:
 1414 12b8 FEFFFFEB 		bl	__cxa_end_cleanup
 1415              	.LEHE15:
 1416              	.L300:
 1417              	.L550:
 1418 12bc 80309DE5 		ldr	r3, [sp, #128]
 1419 12c0 2C308DE5 		str	r3, [sp, #44]
 1420              	.L177:
 1421 12c4 2C309DE5 		ldr	r3, [sp, #44]
 1422 12c8 050053E3 		cmp	r3, #5
 1423 12cc E4FFFFDA 		ble	.L236
 1424              	.L545:
 1425 12d0 84009DE5 		ldr	r0, [sp, #132]
 1426 12d4 000050E3 		cmp	r0, #0
 1427 12d8 E1FFFF0A 		beq	.L236
 1428 12dc FEFFFFEB 		bl	_ZdaPv
 1429 12e0 DFFFFFEA 		b	.L236
 1430              	.L290:
 1431 12e4 DEFFFFEA 		b	.L236
 1432              	.L304:
 1433 12e8 F3FFFFEA 		b	.L550
 1434              	.L296:
 1435 12ec DCFFFFEA 		b	.L236
 1436              	.L302:
 1437 12f0 80309DE5 		ldr	r3, [sp, #128]
 1438 12f4 28308DE5 		str	r3, [sp, #40]
 1439              	.L103:
 1440 12f8 28309DE5 		ldr	r3, [sp, #40]
 1441 12fc 050053E3 		cmp	r3, #5
 1442 1300 D7FFFFDA 		ble	.L236
 1443 1304 F1FFFFEA 		b	.L545
 1444              	.L121:
 1445              	.LEHB16:
 1446 1308 FEFFFFEB 		bl	abort
 1447              	.LEHE16:
 1448              	.L604:
 1449 130c 000053E3 		cmp	r3, #0
 1450 1310 0120A003 		moveq	r2, #1
 1451 1314 0310A001 		moveq	r1, r3
 1452 1318 ECFEFF0A 		beq	.L123
 1453 131c CBFEFFEA 		b	.L122
 1454              	.L589:
 1455 1320 000053E3 		cmp	r3, #0
 1456 1324 0120A003 		moveq	r2, #1
 1457 1328 0310A001 		moveq	r1, r3
 1458 132c 71FDFF0A 		beq	.L47
 1459 1330 50FDFFEA 		b	.L46
 1460              	.L45:
 1461              	.LEHB17:
 1462 1334 FEFFFFEB 		bl	abort
 1463              	.LEHE17:
 1464              	.L602:
 1465              	.LEHB18:
 1466 1338 FEFFFFEB 		bl	abort
 1467              	.LEHE18:
 1468              	.L588:
 1469              	.LEHB19:
 1470 133c FEFFFFEB 		bl	abort
 1471              	.LEHE19:
 1472              	.L587:
 1473              	.LEHB20:
 1474 1340 FEFFFFEB 		bl	abort
 1475              	.LEHE20:
 1476              	.L254:
 1477              	.LEHB21:
 1478 1344 FEFFFFEB 		bl	abort
 1479              	.L586:
 1480 1348 FEFFFFEB 		bl	abort
 1481              	.L306:
 1482 134c DCFFFFEA 		b	.L177
 1483              	.L584:
 1484 1350 FEFFFFEB 		bl	abort
 1485              	.L583:
 1486 1354 FEFFFFEB 		bl	abort
 1487              	.LEHE21:
 1488              	.L582:
 1489              	.LEHB22:
 1490 1358 FEFFFFEB 		bl	abort
 1491              	.LEHE22:
 1492              	.L581:
 1493              	.LEHB23:
 1494 135c FEFFFFEB 		bl	abort
 1495              	.LEHE23:
 1496              	.L593:
 1497              	.LEHB24:
 1498 1360 FEFFFFEB 		bl	abort
 1499              	.LEHE24:
 1500              	.L591:
 1501              	.LEHB25:
 1502 1364 FEFFFFEB 		bl	abort
 1503              	.LEHE25:
 1504              	.L590:
 1505 1368 0C309DE5 		ldr	r3, [sp, #12]
 1506 136c 000053E3 		cmp	r3, #0
 1507 1370 16FEFF0A 		beq	.L257
 1508 1374 908A07EE 		vmov	s15, r8	@ int
 1509 1378 CA7AB8EE 		vcvt.f32.s32	s14, s20
 1510 137c E77AF8EE 		vcvt.f32.s32	s15, s15
 1511 1380 04709DE5 		ldr	r7, [sp, #4]
 1512 1384 20B09DE5 		ldr	fp, [sp, #32]
 1513 1388 278AC7EE 		vdiv.f32	s17, s14, s15
 1514              	.L73:
 1515 138c 90BA07EE 		vmov	s15, fp	@ int
 1516 1390 01B08BE2 		add	fp, fp, #1
 1517 1394 E70AB8EE 		vcvt.f32.s32	s0, s15
 1518 1398 080A30EE 		vadd.f32	s0, s0, s16
 1519 139c 280A20EE 		vmul.f32	s0, s0, s17
 1520 13a0 FEFFFFEB 		bl	roundf
 1521 13a4 C00ABDEE 		vcvt.s32.f32	s0, s0
 1522 13a8 0700A0E1 		mov	r0, r7
 1523 13ac 0520A0E1 		mov	r2, r5
 1524 13b0 057087E0 		add	r7, r7, r5
 1525 13b4 103A10EE 		vmov	r3, s0	@ int
 1526 13b8 040053E1 		cmp	r3, r4
 1527 13bc 0310A0B1 		movlt	r1, r3
 1528 13c0 0410A0A1 		movge	r1, r4
 1529 13c4 9A0101E0 		mul	r1, r10, r1
 1530 13c8 011186E0 		add	r1, r6, r1, lsl #2
 1531 13cc 011089E0 		add	r1, r9, r1
 1532 13d0 FEFFFFEB 		bl	memcpy
 1533 13d4 0B0058E1 		cmp	r8, fp
 1534 13d8 EBFFFF1A 		bne	.L73
 1535 13dc CFFDFFEA 		b	.L503
 1536              	.L609:
 1537              		.align	2
 1538              	.L608:
 1539 13e0 00000000 		.word	0
 1540              	.L298:
 1541 13e4 30309DE5 		ldr	r3, [sp, #48]
 1542              	.L157:
 1543 13e8 050053E3 		cmp	r3, #5
 1544 13ec C1FFFFDA 		ble	.L103
 1545 13f0 9C009DE5 		ldr	r0, [sp, #156]
 1546 13f4 000050E3 		cmp	r0, #0
 1547 13f8 BEFFFF0A 		beq	.L103
 1548 13fc FEFFFFEB 		bl	_ZdaPv
 1549 1400 BCFFFFEA 		b	.L103
 1550              	.L297:
 1551 1404 34309DE5 		ldr	r3, [sp, #52]
 1552              	.L231:
 1553 1408 050053E3 		cmp	r3, #5
 1554 140c ACFFFFDA 		ble	.L177
 1555 1410 9C009DE5 		ldr	r0, [sp, #156]
 1556 1414 000050E3 		cmp	r0, #0
 1557 1418 A9FFFF0A 		beq	.L177
 1558 141c FEFFFFEB 		bl	_ZdaPv
 1559 1420 A7FFFFEA 		b	.L177
 1560              	.L592:
 1561              	.LEHB26:
 1562 1424 FEFFFFEB 		bl	abort
 1563              	.LEHE26:
 1564              	.L291:
 1565 1428 9BFFFFEA 		b	.L252
 1566              	.L292:
 1567 142c 93FFFFEA 		b	.L250
 1568              	.L301:
 1569 1430 98309DE5 		ldr	r3, [sp, #152]
 1570 1434 34308DE5 		str	r3, [sp, #52]
 1571 1438 F2FFFFEA 		b	.L231
 1572              	.L289:
 1573 143c 8FFFFFEA 		b	.L250
 1574              	.L578:
 1575              	.LEHB27:
 1576 1440 FEFFFFEB 		bl	abort
 1577              	.LEHE27:
 1578              	.L288:
 1579 1444 94FFFFEA 		b	.L252
 1580              	.L577:
 1581              	.LEHB28:
 1582 1448 FEFFFFEB 		bl	abort
 1583              	.LEHE28:
 1584              	.L294:
 1585 144c 92FFFFEA 		b	.L252
 1586              	.L563:
 1587              	.LEHB29:
 1588 1450 FEFFFFEB 		bl	abort
 1589              	.LEHE29:
 1590              	.L559:
 1591              	.LEHB30:
 1592 1454 FEFFFFEB 		bl	abort
 1593              	.LEHE30:
 1594              	.L605:
 1595 1458 0C309DE5 		ldr	r3, [sp, #12]
 1596 145c 000053E3 		cmp	r3, #0
 1597 1460 50FFFF0A 		beq	.L258
 1598 1464 908A07EE 		vmov	s15, r8	@ int
 1599 1468 0B70A0E1 		mov	r7, fp
 1600 146c CA7AB8EE 		vcvt.f32.s32	s14, s20
 1601 1470 E77AF8EE 		vcvt.f32.s32	s15, s15
 1602 1474 1CA09DE5 		ldr	r10, [sp, #28]
 1603 1478 278AC7EE 		vdiv.f32	s17, s14, s15
 1604              	.L149:
 1605 147c 90AA07EE 		vmov	s15, r10	@ int
 1606 1480 01A08AE2 		add	r10, r10, #1
 1607 1484 E70AB8EE 		vcvt.f32.s32	s0, s15
 1608 1488 080A30EE 		vadd.f32	s0, s0, s16
 1609 148c 280A20EE 		vmul.f32	s0, s0, s17
 1610 1490 FEFFFFEB 		bl	roundf
 1611 1494 C00ABDEE 		vcvt.s32.f32	s0, s0
 1612 1498 0700A0E1 		mov	r0, r7
 1613 149c 0420A0E1 		mov	r2, r4
 1614 14a0 047087E0 		add	r7, r7, r4
 1615 14a4 103A10EE 		vmov	r3, s0	@ int
 1616 14a8 050053E1 		cmp	r3, r5
 1617 14ac 0310A0B1 		movlt	r1, r3
 1618 14b0 0510A0A1 		movge	r1, r5
 1619 14b4 946121E0 		mla	r1, r4, r1, r6
 1620 14b8 011089E0 		add	r1, r9, r1
 1621 14bc FEFFFFEB 		bl	memcpy
 1622 14c0 0A0058E1 		cmp	r8, r10
 1623 14c4 ECFFFF1A 		bne	.L149
 1624 14c8 06FFFFEA 		b	.L504
 1625              	.L594:
 1626              	.LEHB31:
 1627 14cc FEFFFFEB 		bl	abort
 1628              	.LEHE31:
 1629              	.L595:
 1630              	.LEHB32:
 1631 14d0 FEFFFFEB 		bl	abort
 1632              	.LEHE32:
 1633              	.L597:
 1634              	.LEHB33:
 1635 14d4 FEFFFFEB 		bl	abort
 1636              	.LEHE33:
 1637              	.L596:
 1638              	.LEHB34:
 1639 14d8 FEFFFFEB 		bl	abort
 1640              	.L303:
 1641 14dc 98309DE5 		ldr	r3, [sp, #152]
 1642 14e0 30308DE5 		str	r3, [sp, #48]
 1643 14e4 BFFFFFEA 		b	.L157
 1644              	.L307:
 1645 14e8 82FFFFEA 		b	.L103
 1646              	.L601:
 1647 14ec FEFFFFEB 		bl	abort
 1648              	.LEHE34:
 1649              	.L255:
 1650              	.LEHB35:
 1651 14f0 FEFFFFEB 		bl	abort
 1652              	.L600:
 1653 14f4 FEFFFFEB 		bl	abort
 1654              	.L598:
 1655 14f8 FEFFFFEB 		bl	abort
 1656              	.LEHE35:
 1657              	.L580:
 1658              	.LEHB36:
 1659 14fc FEFFFFEB 		bl	abort
 1660              	.L579:
 1661 1500 FEFFFFEB 		bl	abort
 1662              	.LEHE36:
 1663              	.L568:
 1664              	.LEHB37:
 1665 1504 FEFFFFEB 		bl	abort
 1666              	.LEHE37:
 1667              	.L567:
 1668              	.LEHB38:
 1669 1508 FEFFFFEB 		bl	abort
 1670              	.LEHE38:
 1671              	.L308:
 1672 150c 6CFFFFEA 		b	.L177
 1673              	.L305:
 1674 1510 98309DE5 		ldr	r3, [sp, #152]
 1675 1514 30308DE5 		str	r3, [sp, #48]
 1676 1518 BAFFFFEA 		b	.L231
 1677              	.L566:
 1678              	.LEHB39:
 1679 151c FEFFFFEB 		bl	abort
 1680              	.L565:
 1681 1520 FEFFFFEB 		bl	abort
 1682              	.LEHE39:
 1683              	.L295:
 1684 1524 55FFFFEA 		b	.L250
 1685              	.L564:
 1686              	.LEHB40:
 1687 1528 FEFFFFEB 		bl	abort
 1688              	.LEHE40:
 1689              	.L576:
 1690 152c 0C309DE5 		ldr	r3, [sp, #12]
 1691 1530 000053E3 		cmp	r3, #0
 1692 1534 3EFCFF0A 		beq	.L259
 1693 1538 908A07EE 		vmov	s15, r8	@ int
 1694 153c 0B70A0E1 		mov	r7, fp
 1695 1540 CA7AB8EE 		vcvt.f32.s32	s14, s20
 1696 1544 E77AF8EE 		vcvt.f32.s32	s15, s15
 1697 1548 1CA09DE5 		ldr	r10, [sp, #28]
 1698 154c 278AC7EE 		vdiv.f32	s17, s14, s15
 1699              	.L223:
 1700 1550 90AA07EE 		vmov	s15, r10	@ int
 1701 1554 01A08AE2 		add	r10, r10, #1
 1702 1558 E70AB8EE 		vcvt.f32.s32	s0, s15
 1703 155c 080A30EE 		vadd.f32	s0, s0, s16
 1704 1560 280A20EE 		vmul.f32	s0, s0, s17
 1705 1564 FEFFFFEB 		bl	roundf
 1706 1568 C00ABDEE 		vcvt.s32.f32	s0, s0
 1707 156c 0700A0E1 		mov	r0, r7
 1708 1570 0420A0E1 		mov	r2, r4
 1709 1574 047087E0 		add	r7, r7, r4
 1710 1578 103A10EE 		vmov	r3, s0	@ int
 1711 157c 050053E1 		cmp	r3, r5
 1712 1580 0310A0B1 		movlt	r1, r3
 1713 1584 0510A0A1 		movge	r1, r5
 1714 1588 946121E0 		mla	r1, r4, r1, r6
 1715 158c 011089E0 		add	r1, r9, r1
 1716 1590 FEFFFFEB 		bl	memcpy
 1717 1594 0A0058E1 		cmp	r8, r10
 1718 1598 ECFFFF1A 		bne	.L223
 1719 159c D8FBFFEA 		b	.L505
 1720              	.L195:
 1721              	.LEHB41:
 1722 15a0 FEFFFFEB 		bl	abort
 1723              	.L574:
 1724 15a4 FEFFFFEB 		bl	abort
 1725              	.LEHE41:
 1726              	.L573:
 1727              	.LEHB42:
 1728 15a8 FEFFFFEB 		bl	abort
 1729              	.LEHE42:
 1730              	.L299:
 1731 15ac 30309DE5 		ldr	r3, [sp, #48]
 1732 15b0 94FFFFEA 		b	.L231
 1733              	.L256:
 1734              	.LEHB43:
 1735 15b4 FEFFFFEB 		bl	abort
 1736              	.L572:
 1737 15b8 FEFFFFEB 		bl	abort
 1738              	.L570:
 1739 15bc FEFFFFEB 		bl	abort
 1740              	.L569:
 1741 15c0 FEFFFFEB 		bl	abort
 1742              	.LEHE43:
 1743              		.global	__gxx_personality_v0
 1744              		.personality	__gxx_personality_v0
 1745              		.handlerdata
 1746              	.LLSDA1159:
 1747 000c FF       		.byte	0xff
 1748 000d FF       		.byte	0xff
 1749 000e 01       		.byte	0x1
 1750 000f 8202     		.uleb128 .LLSDACSE1159-.LLSDACSB1159
 1751              	.LLSDACSB1159:
 1752 0011 28       		.uleb128 .LEHB0-.LFB1159
 1753 0012 78       		.uleb128 .LEHE0-.LEHB0
 1754 0013 00       		.uleb128 0
 1755 0014 00       		.uleb128 0
 1756 0015 B401     		.uleb128 .LEHB1-.LFB1159
 1757 0017 04       		.uleb128 .LEHE1-.LEHB1
 1758 0018 CC28     		.uleb128 .L294-.LFB1159
 1759 001a 00       		.uleb128 0
 1760 001b CC01     		.uleb128 .LEHB2-.LFB1159
 1761 001d 04       		.uleb128 .LEHE2-.LEHB2
 1762 001e A42A     		.uleb128 .L295-.LFB1159
 1763 0020 00       		.uleb128 0
 1764 0021 B002     		.uleb128 .LEHB3-.LFB1159
 1765 0023 04       		.uleb128 .LEHE3-.LEHB3
 1766 0024 EC25     		.uleb128 .L296-.LFB1159
 1767 0026 00       		.uleb128 0
 1768 0027 8C03     		.uleb128 .LEHB4-.LFB1159
 1769 0029 04       		.uleb128 .LEHE4-.LEHB4
 1770 002a E825     		.uleb128 .L304-.LFB1159
 1771 002c 00       		.uleb128 0
 1772 002d A00D     		.uleb128 .LEHB5-.LFB1159
 1773 002f 04       		.uleb128 .LEHE5-.LEHB5
 1774 0030 00       		.uleb128 0
 1775 0031 00       		.uleb128 0
 1776 0032 B80D     		.uleb128 .LEHB6-.LFB1159
 1777 0034 04       		.uleb128 .LEHE6-.LEHB6
 1778 0035 C428     		.uleb128 .L288-.LFB1159
 1779 0037 00       		.uleb128 0
 1780 0038 D00D     		.uleb128 .LEHB7-.LFB1159
 1781 003a 04       		.uleb128 .LEHE7-.LEHB7
 1782 003b BC28     		.uleb128 .L289-.LFB1159
 1783 003d 00       		.uleb128 0
 1784 003e B80E     		.uleb128 .LEHB8-.LFB1159
 1785 0040 04       		.uleb128 .LEHE8-.LEHB8
 1786 0041 E425     		.uleb128 .L290-.LFB1159
 1787 0043 00       		.uleb128 0
 1788 0044 940F     		.uleb128 .LEHB9-.LFB1159
 1789 0046 04       		.uleb128 .LEHE9-.LEHB9
 1790 0047 BC25     		.uleb128 .L300-.LFB1159
 1791 0049 00       		.uleb128 0
 1792 004a D018     		.uleb128 .LEHB10-.LFB1159
 1793 004c 04       		.uleb128 .LEHE10-.LEHB10
 1794 004d 00       		.uleb128 0
 1795 004e 00       		.uleb128 0
 1796 004f E818     		.uleb128 .LEHB11-.LFB1159
 1797 0051 04       		.uleb128 .LEHE11-.LEHB11
 1798 0052 A828     		.uleb128 .L291-.LFB1159
 1799 0054 00       		.uleb128 0
 1800 0055 8019     		.uleb128 .LEHB12-.LFB1159
 1801 0057 04       		.uleb128 .LEHE12-.LEHB12
 1802 0058 AC28     		.uleb128 .L292-.LFB1159
 1803 005a 00       		.uleb128 0
 1804 005b E419     		.uleb128 .LEHB13-.LFB1159
 1805 005d 04       		.uleb128 .LEHE13-.LEHB13
 1806 005e E424     		.uleb128 .L293-.LFB1159
 1807 0060 00       		.uleb128 0
 1808 0061 C01A     		.uleb128 .LEHB14-.LFB1159
 1809 0063 04       		.uleb128 .LEHE14-.LEHB14
 1810 0064 F025     		.uleb128 .L302-.LFB1159
 1811 0066 00       		.uleb128 0
 1812 0067 B825     		.uleb128 .LEHB15-.LFB1159
 1813 0069 04       		.uleb128 .LEHE15-.LEHB15
 1814 006a 00       		.uleb128 0
 1815 006b 00       		.uleb128 0
 1816 006c 8826     		.uleb128 .LEHB16-.LFB1159
 1817 006e 04       		.uleb128 .LEHE16-.LEHB16
 1818 006f E427     		.uleb128 .L298-.LFB1159
 1819 0071 00       		.uleb128 0
 1820 0072 B426     		.uleb128 .LEHB17-.LFB1159
 1821 0074 04       		.uleb128 .LEHE17-.LEHB17
 1822 0075 8428     		.uleb128 .L297-.LFB1159
 1823 0077 00       		.uleb128 0
 1824 0078 B826     		.uleb128 .LEHB18-.LFB1159
 1825 007a 04       		.uleb128 .LEHE18-.LEHB18
 1826 007b E427     		.uleb128 .L298-.LFB1159
 1827 007d 00       		.uleb128 0
 1828 007e BC26     		.uleb128 .LEHB19-.LFB1159
 1829 0080 04       		.uleb128 .LEHE19-.LEHB19
 1830 0081 8428     		.uleb128 .L297-.LFB1159
 1831 0083 00       		.uleb128 0
 1832 0084 C026     		.uleb128 .LEHB20-.LFB1159
 1833 0086 04       		.uleb128 .LEHE20-.LEHB20
 1834 0087 CC26     		.uleb128 .L306-.LFB1159
 1835 0089 00       		.uleb128 0
 1836 008a C426     		.uleb128 .LEHB21-.LFB1159
 1837 008c 14       		.uleb128 .LEHE21-.LEHB21
 1838 008d 8428     		.uleb128 .L297-.LFB1159
 1839 008f 00       		.uleb128 0
 1840 0090 D826     		.uleb128 .LEHB22-.LFB1159
 1841 0092 04       		.uleb128 .LEHE22-.LEHB22
 1842 0093 CC26     		.uleb128 .L306-.LFB1159
 1843 0095 00       		.uleb128 0
 1844 0096 DC26     		.uleb128 .LEHB23-.LFB1159
 1845 0098 04       		.uleb128 .LEHE23-.LEHB23
 1846 0099 B028     		.uleb128 .L301-.LFB1159
 1847 009b 00       		.uleb128 0
 1848 009c E026     		.uleb128 .LEHB24-.LFB1159
 1849 009e 04       		.uleb128 .LEHE24-.LEHB24
 1850 009f E424     		.uleb128 .L293-.LFB1159
 1851 00a1 00       		.uleb128 0
 1852 00a2 E426     		.uleb128 .LEHB25-.LFB1159
 1853 00a4 04       		.uleb128 .LEHE25-.LEHB25
 1854 00a5 A828     		.uleb128 .L291-.LFB1159
 1855 00a7 00       		.uleb128 0
 1856 00a8 A428     		.uleb128 .LEHB26-.LFB1159
 1857 00aa 04       		.uleb128 .LEHE26-.LEHB26
 1858 00ab AC28     		.uleb128 .L292-.LFB1159
 1859 00ad 00       		.uleb128 0
 1860 00ae C028     		.uleb128 .LEHB27-.LFB1159
 1861 00b0 04       		.uleb128 .LEHE27-.LEHB27
 1862 00b1 BC28     		.uleb128 .L289-.LFB1159
 1863 00b3 00       		.uleb128 0
 1864 00b4 C828     		.uleb128 .LEHB28-.LFB1159
 1865 00b6 04       		.uleb128 .LEHE28-.LEHB28
 1866 00b7 C428     		.uleb128 .L288-.LFB1159
 1867 00b9 00       		.uleb128 0
 1868 00ba D028     		.uleb128 .LEHB29-.LFB1159
 1869 00bc 04       		.uleb128 .LEHE29-.LEHB29
 1870 00bd CC28     		.uleb128 .L294-.LFB1159
 1871 00bf 00       		.uleb128 0
 1872 00c0 D428     		.uleb128 .LEHB30-.LFB1159
 1873 00c2 04       		.uleb128 .LEHE30-.LEHB30
 1874 00c3 00       		.uleb128 0
 1875 00c4 00       		.uleb128 0
 1876 00c5 CC29     		.uleb128 .LEHB31-.LFB1159
 1877 00c7 04       		.uleb128 .LEHE31-.LEHB31
 1878 00c8 E424     		.uleb128 .L293-.LFB1159
 1879 00ca 00       		.uleb128 0
 1880 00cb D029     		.uleb128 .LEHB32-.LFB1159
 1881 00cd 04       		.uleb128 .LEHE32-.LEHB32
 1882 00ce DC29     		.uleb128 .L303-.LFB1159
 1883 00d0 00       		.uleb128 0
 1884 00d1 D429     		.uleb128 .LEHB33-.LFB1159
 1885 00d3 04       		.uleb128 .LEHE33-.LEHB33
 1886 00d4 E427     		.uleb128 .L298-.LFB1159
 1887 00d6 00       		.uleb128 0
 1888 00d7 D829     		.uleb128 .LEHB34-.LFB1159
 1889 00d9 18       		.uleb128 .LEHE34-.LEHB34
 1890 00da E829     		.uleb128 .L307-.LFB1159
 1891 00dc 00       		.uleb128 0
 1892 00dd F029     		.uleb128 .LEHB35-.LFB1159
 1893 00df 0C       		.uleb128 .LEHE35-.LEHB35
 1894 00e0 E427     		.uleb128 .L298-.LFB1159
 1895 00e2 00       		.uleb128 0
 1896 00e3 FC29     		.uleb128 .LEHB36-.LFB1159
 1897 00e5 08       		.uleb128 .LEHE36-.LEHB36
 1898 00e6 E425     		.uleb128 .L290-.LFB1159
 1899 00e8 00       		.uleb128 0
 1900 00e9 842A     		.uleb128 .LEHB37-.LFB1159
 1901 00eb 04       		.uleb128 .LEHE37-.LEHB37
 1902 00ec 8C2A     		.uleb128 .L308-.LFB1159
 1903 00ee 00       		.uleb128 0
 1904 00ef 882A     		.uleb128 .LEHB38-.LFB1159
 1905 00f1 04       		.uleb128 .LEHE38-.LEHB38
 1906 00f2 902A     		.uleb128 .L305-.LFB1159
 1907 00f4 00       		.uleb128 0
 1908 00f5 9C2A     		.uleb128 .LEHB39-.LFB1159
 1909 00f7 08       		.uleb128 .LEHE39-.LEHB39
 1910 00f8 EC25     		.uleb128 .L296-.LFB1159
 1911 00fa 00       		.uleb128 0
 1912 00fb A82A     		.uleb128 .LEHB40-.LFB1159
 1913 00fd 04       		.uleb128 .LEHE40-.LEHB40
 1914 00fe A42A     		.uleb128 .L295-.LFB1159
 1915 0100 00       		.uleb128 0
 1916 0101 A02B     		.uleb128 .LEHB41-.LFB1159
 1917 0103 08       		.uleb128 .LEHE41-.LEHB41
 1918 0104 AC2B     		.uleb128 .L299-.LFB1159
 1919 0106 00       		.uleb128 0
 1920 0107 A82B     		.uleb128 .LEHB42-.LFB1159
 1921 0109 04       		.uleb128 .LEHE42-.LEHB42
 1922 010a 8C2A     		.uleb128 .L308-.LFB1159
 1923 010c 00       		.uleb128 0
 1924 010d B42B     		.uleb128 .LEHB43-.LFB1159
 1925 010f 10       		.uleb128 .LEHE43-.LEHB43
 1926 0110 AC2B     		.uleb128 .L299-.LFB1159
 1927 0112 00       		.uleb128 0
 1928              	.LLSDACSE1159:
 1929              		.section	.text._ZN6tflite3ops5micro23resize_nearest_neighbor4EvalEP13TfLiteContextP10TfLiteNode
 1930              		.fnend
 1932              		.section	.text._ZN6tflite3ops5micro32Register_RESIZE_NEAREST_NEIGHBOREv,"ax",%progbits
 1933              		.align	2
 1934              		.global	_ZN6tflite3ops5micro32Register_RESIZE_NEAREST_NEIGHBOREv
 1935              		.syntax unified
 1936              		.arm
 1937              		.fpu neon
 1939              	_ZN6tflite3ops5micro32Register_RESIZE_NEAREST_NEIGHBOREv:
 1940              		.fnstart
 1941              	.LFB1160:
 1942              		@ args = 0, pretend = 0, frame = 0
 1943              		@ frame_needed = 0, uses_anonymous_args = 0
 1944 0000 00C000E3 		movw	ip, #:lower16:.LANCHOR0
 1945 0004 10402DE9 		push	{r4, lr}
 1946 0008 00C040E3 		movt	ip, #:upper16:.LANCHOR0
 1947 000c 0040A0E1 		mov	r4, r0
 1948 0010 00E0A0E1 		mov	lr, r0
 1949 0014 0F00BCE8 		ldmia	ip!, {r0, r1, r2, r3}
 1950 0018 0F00AEE8 		stmia	lr!, {r0, r1, r2, r3}
 1951 001c 0F009CE8 		ldm	ip, {r0, r1, r2, r3}
 1952 0020 0F008EE8 		stm	lr, {r0, r1, r2, r3}
 1953 0024 0400A0E1 		mov	r0, r4
 1954 0028 1080BDE8 		pop	{r4, pc}
 1955              		.cantunwind
 1956              		.fnend
 1958              		.section	.rodata
 1959              		.align	2
 1960              		.set	.LANCHOR0,. + 0
 1961              	.LC0:
 1962 0000 00000000 		.word	0
 1963 0004 00000000 		.word	0
 1964 0008 00000000 		.word	_ZN6tflite3ops5micro23resize_nearest_neighbor7PrepareEP13TfLiteContextP10TfLiteNode
 1965 000c 00000000 		.word	_ZN6tflite3ops5micro23resize_nearest_neighbor4EvalEP13TfLiteContextP10TfLiteNode
 1966 0010 00000000 		.word	0
 1967 0014 00000000 		.word	0
 1968 0018 00000000 		.word	0
 1969 001c 00000000 		.word	0
 1970              		.ident	"GCC: (GNU Tools for ARM Embedded Processors 6-2017-q2-update) 6.3.1 20170620 (release) [AR