   1              		.cpu cortex-a9
   2              		.eabi_attribute 28, 1
   3              		.eabi_attribute 20, 1
   4              		.eabi_attribute 21, 1
   5              		.eabi_attribute 23, 3
   6              		.eabi_attribute 24, 1
   7              		.eabi_attribute 25, 1
   8              		.eabi_attribute 26, 1
   9              		.eabi_attribute 30, 2
  10              		.eabi_attribute 34, 0
  11              		.eabi_attribute 18, 4
  12              		.file	"resize_bilinear.cc"
  13              		.section	.text._ZN6tflite12_GLOBAL__N_17PrepareEP13TfLiteContextP10TfLiteNode,"ax",%progbits
  14              		.align	2
  15              		.syntax unified
  16              		.arm
  17              		.fpu neon
  19              	_ZN6tflite12_GLOBAL__N_17PrepareEP13TfLiteContextP10TfLiteNode:
  20              		.fnstart
  21              	.LFB1167:
  22              		@ args = 0, pretend = 0, frame = 0
  23              		@ frame_needed = 0, uses_anonymous_args = 0
  24 0000 002091E5 		ldr	r2, [r1]
  25 0004 002092E5 		ldr	r2, [r2]
  26 0008 020052E3 		cmp	r2, #2
  27 000c 0100000A 		beq	.L11
  28 0010 0100A0E3 		mov	r0, #1
  29 0014 1EFF2FE1 		bx	lr
  30              	.L11:
  31 0018 042091E5 		ldr	r2, [r1, #4]
  32 001c F0412DE9 		push	{r4, r5, r6, r7, r8, lr}
  33              		.save {r4, r5, r6, r7, r8, lr}
  34 0020 0140A0E1 		mov	r4, r1
  35 0024 006092E5 		ldr	r6, [r2]
  36 0028 010056E3 		cmp	r6, #1
  37 002c 0100000A 		beq	.L12
  38              	.L4:
  39 0030 0100A0E3 		mov	r0, #1
  40 0034 F081BDE8 		pop	{r4, r5, r6, r7, r8, pc}
  41              	.L12:
  42 0038 0050A0E1 		mov	r5, r0
  43 003c 0020A0E3 		mov	r2, #0
  44 0040 FEFFFFEB 		bl	_ZN6tflite8GetInputEPK13TfLiteContextPK10TfLiteNodei
  45 0044 0620A0E1 		mov	r2, r6
  46 0048 0070A0E1 		mov	r7, r0
  47 004c 0410A0E1 		mov	r1, r4
  48 0050 0500A0E1 		mov	r0, r5
  49 0054 FEFFFFEB 		bl	_ZN6tflite8GetInputEPK13TfLiteContextPK10TfLiteNodei
  50 0058 0020A0E3 		mov	r2, #0
  51 005c 0060A0E1 		mov	r6, r0
  52 0060 0410A0E1 		mov	r1, r4
  53 0064 0500A0E1 		mov	r0, r5
  54 0068 FEFFFFEB 		bl	_ZN6tflite9GetOutputEP13TfLiteContextPK10TfLiteNodei
  55 006c 083097E5 		ldr	r3, [r7, #8]
  56 0070 003093E5 		ldr	r3, [r3]
  57 0074 040053E3 		cmp	r3, #4
  58 0078 ECFFFF1A 		bne	.L4
  59 007c 083096E5 		ldr	r3, [r6, #8]
  60 0080 003093E5 		ldr	r3, [r3]
  61 0084 010053E3 		cmp	r3, #1
  62 0088 E8FFFF1A 		bne	.L4
  63 008c 0030D6E5 		ldrb	r3, [r6]	@ zero_extendqisi2
  64 0090 020053E3 		cmp	r3, #2
  65 0094 E5FFFF1A 		bne	.L4
  66 0098 1420D6E5 		ldrb	r2, [r6, #20]	@ zero_extendqisi2
  67 009c 0030D7E5 		ldrb	r3, [r7]	@ zero_extendqisi2
  68 00a0 010052E3 		cmp	r2, #1
  69 00a4 0030C0E5 		strb	r3, [r0]
  70 00a8 E0FFFF1A 		bne	.L4
  71 00ac 143094E5 		ldr	r3, [r4, #20]
  72 00b0 0100D3E5 		ldrb	r0, [r3, #1]	@ zero_extendqisi2
  73 00b4 000050E3 		cmp	r0, #0
  74 00b8 F081BD08 		popeq	{r4, r5, r6, r7, r8, pc}
  75 00bc 0000D3E5 		ldrb	r0, [r3]	@ zero_extendqisi2
  76 00c0 000050E3 		cmp	r0, #0
  77 00c4 D9FFFF1A 		bne	.L4
  78 00c8 F081BDE8 		pop	{r4, r5, r6, r7, r8, pc}
  79              		.fnend
  81              		.section	.text._ZN6tflite24Register_RESIZE_BILINEAREv,"ax",%progbits
  82              		.align	2
  83              		.global	_ZN6tflite24Register_RESIZE_BILINEAREv
  84              		.syntax unified
  85              		.arm
  86              		.fpu neon
  88              	_ZN6tflite24Register_RESIZE_BILINEAREv:
  89              		.fnstart
  90              	.LFB1169:
  91              		@ args = 0, pretend = 0, frame = 0
  92              		@ frame_needed = 0, uses_anonymous_args = 0
  93 0000 00C000E3 		movw	ip, #:lower16:.LANCHOR0
  94 0004 10402DE9 		push	{r4, lr}
  95 0008 00C040E3 		movt	ip, #:upper16:.LANCHOR0
  96 000c 0040A0E1 		mov	r4, r0
  97 0010 00E0A0E1 		mov	lr, r0
  98 0014 0F00BCE8 		ldmia	ip!, {r0, r1, r2, r3}
  99 0018 0F00AEE8 		stmia	lr!, {r0, r1, r2, r3}
 100 001c 0F009CE8 		ldm	ip, {r0, r1, r2, r3}
 101 0020 0F008EE8 		stm	lr, {r0, r1, r2, r3}
 102 0024 0400A0E1 		mov	r0, r4
 103 0028 1080BDE8 		pop	{r4, pc}
 104              		.cantunwind
 105              		.fnend
 107              		.section	.text._ZN6tflite13reference_ops14ResizeBilinearIfEEvRKNS_20ResizeBilinearParamsERKNS_12Ru
 108              		.align	2
 109              		.weak	_ZN6tflite13reference_ops14ResizeBilinearIfEEvRKNS_20ResizeBilinearParamsERKNS_12RuntimeShap
 110              		.syntax unified
 111              		.arm
 112              		.fpu neon
 114              	_ZN6tflite13reference_ops14ResizeBilinearIfEEvRKNS_20ResizeBilinearParamsERKNS_12RuntimeShapeEPKT_S
 115              		.fnstart
 116              	.LFB1178:
 117              		@ args = 12, pretend = 0, frame = 192
 118              		@ frame_needed = 0, uses_anonymous_args = 0
 119 0000 F04F2DE9 		push	{r4, r5, r6, r7, r8, r9, r10, fp, lr}
 120              		.save {r4, r5, r6, r7, r8, r9, r10, fp, lr}
 121 0004 0050A0E1 		mov	r5, r0
 122 0008 0100D0E5 		ldrb	r0, [r0, #1]	@ zero_extendqisi2
 123 000c 03A0A0E1 		mov	r10, r3
 124 0010 088B2DED 		vpush.64	{d8, d9, d10, d11}
 125              		.vsave {d8, d9, d10, d11}
 126              		.pad #196
 127 0014 C4D04DE2 		sub	sp, sp, #196
 128 0018 000050E3 		cmp	r0, #0
 129 001c 28008DE5 		str	r0, [sp, #40]
 130 0020 44208DE5 		str	r2, [sp, #68]
 131 0024 08B19DE5 		ldr	fp, [sp, #264]
 132 0028 0C919DE5 		ldr	r9, [sp, #268]
 133 002c 10419DE5 		ldr	r4, [sp, #272]
 134 0030 0200000A 		beq	.L16
 135 0034 0030D5E5 		ldrb	r3, [r5]	@ zero_extendqisi2
 136 0038 000053E3 		cmp	r3, #0
 137 003c 1900001A 		bne	.L17
 138              	.L16:
 139 0040 002091E5 		ldr	r2, [r1]
 140 0044 040052E3 		cmp	r2, #4
 141 0048 160000CA 		bgt	.L17
 142 004c 00809AE5 		ldr	r8, [r10]
 143 0050 040058E3 		cmp	r8, #4
 144 0054 130000CA 		bgt	.L17
 145 0058 007099E5 		ldr	r7, [r9]
 146 005c 040057E3 		cmp	r7, #4
 147 0060 100000CA 		bgt	.L17
 148 0064 040072E2 		rsbs	r0, r2, #4
 149 0068 0430A0E3 		mov	r3, #4
 150 006c 78308DE5 		str	r3, [sp, #120]
 151 0070 0D00000A 		beq	.L21
 152 0074 010050E3 		cmp	r0, #1
 153 0078 0130A0E3 		mov	r3, #1
 154 007c 7C308DE5 		str	r3, [sp, #124]
 155 0080 0900000A 		beq	.L21
 156 0084 020050E3 		cmp	r0, #2
 157 0088 80308DE5 		str	r3, [sp, #128]
 158 008c 0600000A 		beq	.L21
 159 0090 030050E3 		cmp	r0, #3
 160 0094 84308DE5 		str	r3, [sp, #132]
 161 0098 0300000A 		beq	.L21
 162 009c 040050E3 		cmp	r0, #4
 163 00a0 88308DE5 		str	r3, [sp, #136]
 164 00a4 0000000A 		beq	.L21
 165              	.L17:
 166              	.LEHB0:
 167 00a8 FEFFFFEB 		bl	abort
 168              	.LEHE0:
 169              	.L21:
 170 00ac 7C308DE2 		add	r3, sp, #124
 171 00b0 0221A0E1 		lsl	r2, r2, #2
 172 00b4 000183E0 		add	r0, r3, r0, lsl #2
 173 00b8 041081E2 		add	r1, r1, #4
 174 00bc FEFFFFEB 		bl	memcpy
 175 00c0 040078E2 		rsbs	r0, r8, #4
 176 00c4 0430A0E3 		mov	r3, #4
 177 00c8 90308DE5 		str	r3, [sp, #144]
 178 00cc 0D00000A 		beq	.L19
 179 00d0 010050E3 		cmp	r0, #1
 180 00d4 0130A0E3 		mov	r3, #1
 181 00d8 94308DE5 		str	r3, [sp, #148]
 182 00dc 0900000A 		beq	.L19
 183 00e0 020050E3 		cmp	r0, #2
 184 00e4 98308DE5 		str	r3, [sp, #152]
 185 00e8 0600000A 		beq	.L19
 186 00ec 030050E3 		cmp	r0, #3
 187 00f0 9C308DE5 		str	r3, [sp, #156]
 188 00f4 0300000A 		beq	.L19
 189 00f8 040050E3 		cmp	r0, #4
 190 00fc A0308DE5 		str	r3, [sp, #160]
 191 0100 0000000A 		beq	.L19
 192              	.LEHB1:
 193 0104 FEFFFFEB 		bl	abort
 194              	.LEHE1:
 195              	.L19:
 196 0108 94308DE2 		add	r3, sp, #148
 197 010c 0821A0E1 		lsl	r2, r8, #2
 198 0110 000183E0 		add	r0, r3, r0, lsl #2
 199 0114 04108AE2 		add	r1, r10, #4
 200 0118 FEFFFFEB 		bl	memcpy
 201 011c 040077E2 		rsbs	r0, r7, #4
 202 0120 0430A0E3 		mov	r3, #4
 203 0124 A8308DE5 		str	r3, [sp, #168]
 204 0128 0D00000A 		beq	.L22
 205 012c 010050E3 		cmp	r0, #1
 206 0130 0130A0E3 		mov	r3, #1
 207 0134 AC308DE5 		str	r3, [sp, #172]
 208 0138 0900000A 		beq	.L22
 209 013c 020050E3 		cmp	r0, #2
 210 0140 B0308DE5 		str	r3, [sp, #176]
 211 0144 0600000A 		beq	.L22
 212 0148 030050E3 		cmp	r0, #3
 213 014c B4308DE5 		str	r3, [sp, #180]
 214 0150 0300000A 		beq	.L22
 215 0154 040050E3 		cmp	r0, #4
 216 0158 B8308DE5 		str	r3, [sp, #184]
 217 015c 0000000A 		beq	.L22
 218              	.LEHB2:
 219 0160 FEFFFFEB 		bl	abort
 220              	.LEHE2:
 221              	.L22:
 222 0164 AC308DE2 		add	r3, sp, #172
 223 0168 0721A0E1 		lsl	r2, r7, #2
 224 016c 000183E0 		add	r0, r3, r0, lsl #2
 225 0170 041089E2 		add	r1, r9, #4
 226 0174 FEFFFFEB 		bl	memcpy
 227 0178 78309DE5 		ldr	r3, [sp, #120]
 228 017c 000053E3 		cmp	r3, #0
 229 0180 1C308DE5 		str	r3, [sp, #28]
 230 0184 C40100DA 		ble	.L188
 231 0188 050053E3 		cmp	r3, #5
 232 018c 7C309DE5 		ldr	r3, [sp, #124]
 233 0190 A8609DE5 		ldr	r6, [sp, #168]
 234 0194 003093C5 		ldrgt	r3, [r3]
 235 0198 000056E3 		cmp	r6, #0
 236 019c 4C308DE5 		str	r3, [sp, #76]
 237 01a0 BC0100DA 		ble	.L189
 238 01a4 AC309DE5 		ldr	r3, [sp, #172]
 239 01a8 050056E3 		cmp	r6, #5
 240 01ac 4C209DE5 		ldr	r2, [sp, #76]
 241 01b0 003093C5 		ldrgt	r3, [r3]
 242 01b4 030052E1 		cmp	r2, r3
 243 01b8 B501001A 		bne	.L190
 244 01bc 1C309DE5 		ldr	r3, [sp, #28]
 245 01c0 010053E3 		cmp	r3, #1
 246 01c4 B101000A 		beq	.L191
 247 01c8 050053E3 		cmp	r3, #5
 248 01cc 6B0100CA 		bgt	.L192
 249 01d0 020053E3 		cmp	r3, #2
 250 01d4 80309DE5 		ldr	r3, [sp, #128]
 251 01d8 3C308DE5 		str	r3, [sp, #60]
 252 01dc A701000A 		beq	.L193
 253 01e0 1C309DE5 		ldr	r3, [sp, #28]
 254 01e4 030053E3 		cmp	r3, #3
 255 01e8 84309DE5 		ldr	r3, [sp, #132]
 256 01ec 40308DE5 		str	r3, [sp, #64]
 257 01f0 A401000A 		beq	.L109
 258 01f4 88A09DE5 		ldr	r10, [sp, #136]
 259              	.L36:
 260 01f8 030056E3 		cmp	r6, #3
 261 01fc A00100DA 		ble	.L194
 262 0200 050056E3 		cmp	r6, #5
 263 0204 AC309DC5 		ldrgt	r3, [sp, #172]
 264 0208 B8309DD5 		ldrle	r3, [sp, #184]
 265 020c 0C3093C5 		ldrgt	r3, [r3, #12]
 266 0210 03005AE1 		cmp	r10, r3
 267 0214 A501001A 		bne	.L195
 268 0218 90309DE5 		ldr	r3, [sp, #144]
 269 021c 000053E3 		cmp	r3, #0
 270 0220 A10100DA 		ble	.L196
 271 0224 94209DE5 		ldr	r2, [sp, #148]
 272 0228 050053E3 		cmp	r3, #5
 273 022c 002092C5 		ldrgt	r2, [r2]
 274 0230 010052E3 		cmp	r2, #1
 275 0234 9B01001A 		bne	.L197
 276 0238 010053E3 		cmp	r3, #1
 277 023c 9801000A 		beq	.L198
 278 0240 050053E3 		cmp	r3, #5
 279 0244 94209DC5 		ldrgt	r2, [sp, #148]
 280 0248 98209DD5 		ldrle	r2, [sp, #152]
 281 024c 042092C5 		ldrgt	r2, [r2, #4]
 282 0250 010052E3 		cmp	r2, #1
 283 0254 9701001A 		bne	.L199
 284 0258 020053E3 		cmp	r3, #2
 285 025c 9401000A 		beq	.L200
 286 0260 050053E3 		cmp	r3, #5
 287 0264 94209DC5 		ldrgt	r2, [sp, #148]
 288 0268 9C209DD5 		ldrle	r2, [sp, #156]
 289 026c 082092C5 		ldrgt	r2, [r2, #8]
 290 0270 010052E3 		cmp	r2, #1
 291 0274 9001001A 		bne	.L201
 292 0278 030053E3 		cmp	r3, #3
 293 027c 8701000A 		beq	.L202
 294 0280 050053E3 		cmp	r3, #5
 295 0284 94209DC5 		ldrgt	r2, [sp, #148]
 296 0288 A0209DD5 		ldrle	r2, [sp, #160]
 297 028c 0C2092C5 		ldrgt	r2, [r2, #12]
 298 0290 020052E3 		cmp	r2, #2
 299 0294 7701001A 		bne	.L203
 300 0298 040053E3 		cmp	r3, #4
 301 029c 7401001A 		bne	.L204
 302 02a0 94309DE5 		ldr	r3, [sp, #148]
 303 02a4 000053E3 		cmp	r3, #0
 304 02a8 700100DA 		ble	.L205
 305 02ac 98309DE5 		ldr	r3, [sp, #152]
 306 02b0 000053E3 		cmp	r3, #0
 307 02b4 6C0100DA 		ble	.L206
 308 02b8 9C309DE5 		ldr	r3, [sp, #156]
 309 02bc 000053E3 		cmp	r3, #0
 310 02c0 680100DA 		ble	.L207
 311 02c4 A0309DE5 		ldr	r3, [sp, #160]
 312 02c8 000053E3 		cmp	r3, #0
 313 02cc 640100DA 		ble	.L208
 314 02d0 010053E3 		cmp	r3, #1
 315 02d4 00309BE5 		ldr	r3, [fp]
 316 02d8 38308DE5 		str	r3, [sp, #56]
 317 02dc 6601000A 		beq	.L209
 318 02e0 04309BE5 		ldr	r3, [fp, #4]
 319 02e4 0320A0E1 		mov	r2, r3
 320 02e8 34308DE5 		str	r3, [sp, #52]
 321 02ec 0030D5E5 		ldrb	r3, [r5]	@ zero_extendqisi2
 322 02f0 902A07EE 		vmov	s15, r2	@ int
 323 02f4 E77AB8EE 		vcvt.f32.s32	s14, s15
 324 02f8 107ADDED 		vldr.32	s15, [sp, #64]	@ int
 325 02fc 000053E3 		cmp	r3, #0
 326 0300 E77AF8EE 		vcvt.f32.s32	s15, s15
 327 0304 87AA87EE 		vdiv.f32	s20, s15, s14
 328 0308 0F7ADDED 		vldr.32	s15, [sp, #60]	@ int
 329 030c E77AB8EE 		vcvt.f32.s32	s14, s15
 330 0310 0E7ADDED 		vldr.32	s15, [sp, #56]	@ int
 331 0314 E77AF8EE 		vcvt.f32.s32	s15, s15
 332 0318 27AAC7EE 		vdiv.f32	s21, s14, s15
 333 031c FF00001A 		bne	.L210
 334              	.L64:
 335 0320 4C309DE5 		ldr	r3, [sp, #76]
 336 0324 000053E3 		cmp	r3, #0
 337 0328 EB0000DA 		ble	.L70
 338 032c B0309DE5 		ldr	r3, [sp, #176]
 339 0330 7C209DE5 		ldr	r2, [sp, #124]
 340 0334 B8909DE5 		ldr	r9, [sp, #184]
 341 0338 0310A0E1 		mov	r1, r3
 342 033c 14308DE5 		str	r3, [sp, #20]
 343 0340 0030A0E3 		mov	r3, #0
 344 0344 50208DE5 		str	r2, [sp, #80]
 345 0348 0370A0E1 		mov	r7, r3
 346 034c 64308DE5 		str	r3, [sp, #100]
 347 0350 B4309DE5 		ldr	r3, [sp, #180]
 348 0354 80209DE5 		ldr	r2, [sp, #128]
 349 0358 88809DE5 		ldr	r8, [sp, #136]
 350 035c 18308DE5 		str	r3, [sp, #24]
 351 0360 30208DE5 		str	r2, [sp, #48]
 352 0364 0320A0E1 		mov	r2, r3
 353 0368 930103E0 		mul	r3, r3, r1
 354 036c 84109DE5 		ldr	r1, [sp, #132]
 355 0370 E9BADFED 		vldr.32	s23, .L218
 356 0374 920902E0 		mul	r2, r2, r9
 357 0378 009AF6EE 		vmov.f32	s19, #5.0e-1
 358 037c 20108DE5 		str	r1, [sp, #32]
 359 0380 0911A0E1 		lsl	r1, r9, #2
 360 0384 0331A0E1 		lsl	r3, r3, #2
 361 0388 009AB7EE 		vmov.f32	s18, #1.0e+0
 362 038c 5C108DE5 		str	r1, [sp, #92]
 363 0390 990303E0 		mul	r3, r9, r3
 364 0394 AC109DE5 		ldr	r1, [sp, #172]
 365 0398 60408DE5 		str	r4, [sp, #96]
 366 039c 10108DE5 		str	r1, [sp, #16]
 367 03a0 70308DE5 		str	r3, [sp, #112]
 368 03a4 0231A0E1 		lsl	r3, r2, #2
 369 03a8 74308DE5 		str	r3, [sp, #116]
 370 03ac 0930A0E1 		mov	r3, r9
 371 03b0 0790A0E1 		mov	r9, r7
 372 03b4 0670A0E1 		mov	r7, r6
 373 03b8 0360A0E1 		mov	r6, r3
 374              	.L71:
 375 03bc 38309DE5 		ldr	r3, [sp, #56]
 376 03c0 000053E3 		cmp	r3, #0
 377 03c4 B70000DA 		ble	.L75
 378 03c8 3C309DE5 		ldr	r3, [sp, #60]
 379 03cc 013043E2 		sub	r3, r3, #1
 380 03d0 6C308DE5 		str	r3, [sp, #108]
 381 03d4 60309DE5 		ldr	r3, [sp, #96]
 382 03d8 68308DE5 		str	r3, [sp, #104]
 383 03dc 0030A0E3 		mov	r3, #0
 384 03e0 08308DE5 		str	r3, [sp, #8]
 385 03e4 40309DE5 		ldr	r3, [sp, #64]
 386 03e8 013043E2 		sub	r3, r3, #1
 387 03ec 48308DE5 		str	r3, [sp, #72]
 388              	.L76:
 389 03f0 027ADDED 		vldr.32	s15, [sp, #8]	@ int
 390 03f4 28309DE5 		ldr	r3, [sp, #40]
 391 03f8 E78AF8EE 		vcvt.f32.s32	s17, s15
 392 03fc 000053E3 		cmp	r3, #0
 393 0400 697AF01E 		vmovne.f32	s15, s19
 394 0404 A98A781E 		vaddne.f32	s17, s17, s19
 395 0408 AA8A680E 		vmuleq.f32	s17, s17, s21
 396 040c AA7A581E 		vnmlsne.f32	s15, s17, s21
 397 0410 678AF01E 		vmovne.f32	s17, s15
 398 0414 680AB0EE 		vmov.f32	s0, s17
 399 0418 FEFFFFEB 		bl	floorf
 400 041c C08ABDEE 		vcvt.s32.f32	s16, s0
 401 0420 680AB0EE 		vmov.f32	s0, s17
 402 0424 FEFFFFEB 		bl	ceilf
 403 0428 C07AFDEE 		vcvt.s32.f32	s15, s0
 404 042c 103A18EE 		vmov	r3, s16	@ int
 405 0430 C33FC3E1 		bic	r3, r3, r3, asr #31
 406 0434 904A17EE 		vmov	r4, s15	@ int
 407 0438 103A08EE 		vmov	s16, r3	@ int
 408 043c 6C309DE5 		ldr	r3, [sp, #108]
 409 0440 030054E1 		cmp	r4, r3
 410 0444 0340A0A1 		movge	r4, r3
 411 0448 34309DE5 		ldr	r3, [sp, #52]
 412 044c 000053E3 		cmp	r3, #0
 413 0450 8A0000DA 		ble	.L80
 414 0454 64309DE5 		ldr	r3, [sp, #100]
 415 0458 0050A0E3 		mov	r5, #0
 416 045c 20109DE5 		ldr	r1, [sp, #32]
 417 0460 102A18EE 		vmov	r2, s16	@ int
 418 0464 032082E0 		add	r2, r2, r3
 419 0468 033084E0 		add	r3, r4, r3
 420 046c 910202E0 		mul	r2, r1, r2
 421 0470 910303E0 		mul	r3, r1, r3
 422 0474 58208DE5 		str	r2, [sp, #88]
 423 0478 30209DE5 		ldr	r2, [sp, #48]
 424 047c 54308DE5 		str	r3, [sp, #84]
 425 0480 000054E3 		cmp	r4, #0
 426 0484 040052A1 		cmpge	r2, r4
 427 0488 68209DE5 		ldr	r2, [sp, #104]
 428 048c 0140A0C3 		movgt	r4, #1
 429 0490 0040A0D3 		movle	r4, #0
 430 0494 2C408DE5 		str	r4, [sp, #44]
 431 0498 24208DE5 		str	r2, [sp, #36]
 432              	.L81:
 433 049c 28309DE5 		ldr	r3, [sp, #40]
 434 04a0 905A07EE 		vmov	s15, r5	@ int
 435 04a4 E70AB8EE 		vcvt.f32.s32	s0, s15
 436 04a8 000053E3 		cmp	r3, #0
 437 04ac 69BAB01E 		vmovne.f32	s22, s19
 438 04b0 290A301E 		vaddne.f32	s0, s0, s19
 439 04b4 00BA2A0E 		vmuleq.f32	s22, s20, s0
 440 04b8 0ABA101E 		vnmlsne.f32	s22, s0, s20
 441 04bc 4B0AB0EE 		vmov.f32	s0, s22
 442 04c0 FEFFFFEB 		bl	floorf
 443 04c4 C07AFDEE 		vcvt.s32.f32	s15, s0
 444 04c8 4B0AB0EE 		vmov.f32	s0, s22
 445 04cc 017ACDED 		vstr.32	s15, [sp, #4]	@ int
 446 04d0 FEFFFFEB 		bl	ceilf
 447 04d4 C07AFDEE 		vcvt.s32.f32	s15, s0
 448 04d8 48309DE5 		ldr	r3, [sp, #72]
 449 04dc 04209DE5 		ldr	r2, [sp, #4]
 450 04e0 90BA17EE 		vmov	fp, s15	@ int
 451 04e4 03005BE1 		cmp	fp, r3
 452 04e8 03B0A0A1 		movge	fp, r3
 453 04ec 00005AE3 		cmp	r10, #0
 454 04f0 C22FC2E1 		bic	r2, r2, r2, asr #31
 455 04f4 590000DA 		ble	.L96
 456 04f8 1C309DE5 		ldr	r3, [sp, #28]
 457 04fc 040053E3 		cmp	r3, #4
 458 0500 D200001A 		bne	.L82
 459 0504 50309DE5 		ldr	r3, [sp, #80]
 460 0508 090053E1 		cmp	r3, r9
 461 050c BB0000DA 		ble	.L83
 462 0510 30309DE5 		ldr	r3, [sp, #48]
 463 0514 101A18EE 		vmov	r1, s16	@ int
 464 0518 010053E1 		cmp	r3, r1
 465 051c AE0000DA 		ble	.L84
 466 0520 20309DE5 		ldr	r3, [sp, #32]
 467 0524 020053E1 		cmp	r3, r2
 468 0528 C20000DA 		ble	.L85
 469 052c 000058E3 		cmp	r8, #0
 470 0530 C40000DA 		ble	.L186
 471 0534 902A07EE 		vmov	s15, r2	@ int
 472 0538 58309DE5 		ldr	r3, [sp, #88]
 473 053c 54109DE5 		ldr	r1, [sp, #84]
 474 0540 E70AB8EE 		vcvt.f32.s32	s0, s15
 475 0544 C86AB8EE 		vcvt.f32.s32	s12, s16
 476 0548 03008BE0 		add	r0, fp, r3
 477 054c 02C083E0 		add	ip, r3, r2
 478 0550 012082E0 		add	r2, r2, r1
 479 0554 01108BE0 		add	r1, fp, r1
 480 0558 44409DE5 		ldr	r4, [sp, #68]
 481 055c 20309DE5 		ldr	r3, [sp, #32]
 482 0560 980C0CE0 		mul	ip, r8, ip
 483 0564 C66A38EE 		vsub.f32	s12, s17, s12
 484 0568 400A3BEE 		vsub.f32	s0, s22, s0
 485 056c 980202E0 		mul	r2, r8, r2
 486 0570 24E09DE5 		ldr	lr, [sp, #36]
 487 0574 00005BE3 		cmp	fp, #0
 488 0578 0B0053A1 		cmpge	r3, fp
 489 057c 980000E0 		mul	r0, r8, r0
 490 0580 0CC184E0 		add	ip, r4, ip, lsl #2
 491 0584 01B0A0C3 		movgt	fp, #1
 492 0588 465A39EE 		vsub.f32	s10, s18, s12
 493 058c 980101E0 		mul	r1, r8, r1
 494 0590 022184E0 		add	r2, r4, r2, lsl #2
 495 0594 00B0A0D3 		movle	fp, #0
 496 0598 405A79EE 		vsub.f32	s11, s18, s0
 497 059c 000184E0 		add	r0, r4, r0, lsl #2
 498 05a0 0030A0E3 		mov	r3, #0
 499 05a4 0C808DE5 		str	r8, [sp, #12]
 500 05a8 011184E0 		add	r1, r4, r1, lsl #2
 501 05ac 04E08DE5 		str	lr, [sp, #4]
 502 05b0 2C409DE5 		ldr	r4, [sp, #44]
 503 05b4 020000EA 		b	.L88
 504              	.L184:
 505 05b8 0CE09DE5 		ldr	lr, [sp, #12]
 506 05bc 0E0053E1 		cmp	r3, lr
 507 05c0 A000000A 		beq	.L186
 508              	.L88:
 509 05c4 017AFCEC 		vldmia.32	ip!, {s15}
 510 05c8 000054E3 		cmp	r4, #0
 511 05cc 857A67EE 		vmul.f32	s15, s15, s10
 512 05d0 A57A67EE 		vmul.f32	s15, s15, s11
 513 05d4 9100000A 		beq	.L211
 514 05d8 017AB2EC 		vldmia.32	r2!, {s14}
 515 05dc 00005BE3 		cmp	fp, #0
 516 05e0 067A27EE 		vmul.f32	s14, s14, s12
 517 05e4 257A47EE 		vmla.f32	s15, s14, s11
 518 05e8 8A00000A 		beq	.L212
 519 05ec 016AF0EC 		vldmia.32	r0!, {s13}
 520 05f0 040057E3 		cmp	r7, #4
 521 05f4 017AB1EC 		vldmia.32	r1!, {s14}
 522 05f8 856A66EE 		vmul.f32	s13, s13, s10
 523 05fc 067A27EE 		vmul.f32	s14, s14, s12
 524 0600 807A46EE 		vmla.f32	s15, s13, s0
 525 0604 007A47EE 		vmla.f32	s15, s14, s0
 526 0608 AB7A77EE 		vadd.f32	s15, s15, s23
 527 060c 8B00001A 		bne	.L213
 528 0610 10809DE5 		ldr	r8, [sp, #16]
 529 0614 080059E1 		cmp	r9, r8
 530 0618 7C0000AA 		bge	.L214
 531 061c 08809DE5 		ldr	r8, [sp, #8]
 532 0620 14E09DE5 		ldr	lr, [sp, #20]
 533 0624 0E0058E1 		cmp	r8, lr
 534 0628 800000AA 		bge	.L215
 535 062c 18E09DE5 		ldr	lr, [sp, #24]
 536 0630 0E0055E1 		cmp	r5, lr
 537 0634 7B0000AA 		bge	.L216
 538 0638 060053E1 		cmp	r3, r6
 539 063c 710000AA 		bge	.L217
 540 0640 04E09DE5 		ldr	lr, [sp, #4]
 541 0644 013083E2 		add	r3, r3, #1
 542 0648 0A0053E1 		cmp	r3, r10
 543 064c 017AEEEC 		vstmia.32	lr!, {s15}
 544 0650 04E08DE5 		str	lr, [sp, #4]
 545 0654 D7FFFF1A 		bne	.L184
 546 0658 0C809DE5 		ldr	r8, [sp, #12]
 547 065c 2C408DE5 		str	r4, [sp, #44]
 548              	.L96:
 549 0660 24309DE5 		ldr	r3, [sp, #36]
 550 0664 015085E2 		add	r5, r5, #1
 551 0668 5C209DE5 		ldr	r2, [sp, #92]
 552 066c 023083E0 		add	r3, r3, r2
 553 0670 24308DE5 		str	r3, [sp, #36]
 554 0674 34309DE5 		ldr	r3, [sp, #52]
 555 0678 050053E1 		cmp	r3, r5
 556 067c 86FFFF1A 		bne	.L81
 557              	.L80:
 558 0680 68209DE5 		ldr	r2, [sp, #104]
 559 0684 74109DE5 		ldr	r1, [sp, #116]
 560 0688 08309DE5 		ldr	r3, [sp, #8]
 561 068c 012082E0 		add	r2, r2, r1
 562 0690 68208DE5 		str	r2, [sp, #104]
 563 0694 013083E2 		add	r3, r3, #1
 564 0698 38209DE5 		ldr	r2, [sp, #56]
 565 069c 08308DE5 		str	r3, [sp, #8]
 566 06a0 030052E1 		cmp	r2, r3
 567 06a4 51FFFF1A 		bne	.L76
 568              	.L75:
 569 06a8 64309DE5 		ldr	r3, [sp, #100]
 570 06ac 019089E2 		add	r9, r9, #1
 571 06b0 30209DE5 		ldr	r2, [sp, #48]
 572 06b4 023083E0 		add	r3, r3, r2
 573 06b8 70209DE5 		ldr	r2, [sp, #112]
 574 06bc 64308DE5 		str	r3, [sp, #100]
 575 06c0 4C309DE5 		ldr	r3, [sp, #76]
 576 06c4 030059E1 		cmp	r9, r3
 577 06c8 60309DE5 		ldr	r3, [sp, #96]
 578 06cc 023083E0 		add	r3, r3, r2
 579 06d0 60308DE5 		str	r3, [sp, #96]
 580 06d4 38FFFF1A 		bne	.L71
 581 06d8 0760A0E1 		mov	r6, r7
 582              	.L70:
 583 06dc 050056E3 		cmp	r6, #5
 584 06e0 030000DA 		ble	.L68
 585 06e4 AC009DE5 		ldr	r0, [sp, #172]
 586 06e8 000050E3 		cmp	r0, #0
 587 06ec 0000000A 		beq	.L68
 588 06f0 FEFFFFEB 		bl	_ZdaPv
 589              	.L68:
 590 06f4 1C309DE5 		ldr	r3, [sp, #28]
 591 06f8 050053E3 		cmp	r3, #5
 592 06fc 550000DA 		ble	.L15
 593 0700 7C009DE5 		ldr	r0, [sp, #124]
 594 0704 000050E3 		cmp	r0, #0
 595 0708 5200000A 		beq	.L15
 596 070c C4D08DE2 		add	sp, sp, #196
 597              		@ sp needed
 598 0710 088BBDEC 		vldm	sp!, {d8-d11}
 599 0714 F04FBDE8 		pop	{r4, r5, r6, r7, r8, r9, r10, fp, lr}
 600 0718 FEFFFFEA 		b	_ZdaPv
 601              	.L219:
 602              		.align	2
 603              	.L218:
 604 071c 00000000 		.word	0
 605              	.L210:
 606 0720 38309DE5 		ldr	r3, [sp, #56]
 607 0724 010053E3 		cmp	r3, #1
 608 0728 070000DA 		ble	.L65
 609 072c 3C209DE5 		ldr	r2, [sp, #60]
 610 0730 013043E2 		sub	r3, r3, #1
 611 0734 012042E2 		sub	r2, r2, #1
 612 0738 902A07EE 		vmov	s15, r2	@ int
 613 073c E77AB8EE 		vcvt.f32.s32	s14, s15
 614 0740 903A07EE 		vmov	s15, r3	@ int
 615 0744 E77AF8EE 		vcvt.f32.s32	s15, s15
 616 0748 27AAC7EE 		vdiv.f32	s21, s14, s15
 617              	.L65:
 618 074c 34309DE5 		ldr	r3, [sp, #52]
 619 0750 010053E3 		cmp	r3, #1
 620 0754 F1FEFFDA 		ble	.L64
 621 0758 40309DE5 		ldr	r3, [sp, #64]
 622 075c 012043E2 		sub	r2, r3, #1
 623 0760 34309DE5 		ldr	r3, [sp, #52]
 624 0764 902A07EE 		vmov	s15, r2	@ int
 625 0768 013043E2 		sub	r3, r3, #1
 626 076c E77AB8EE 		vcvt.f32.s32	s14, s15
 627 0770 903A07EE 		vmov	s15, r3	@ int
 628 0774 E77AF8EE 		vcvt.f32.s32	s15, s15
 629 0778 27AA87EE 		vdiv.f32	s20, s14, s15
 630 077c E7FEFFEA 		b	.L64
 631              	.L192:
 632 0780 7C309DE5 		ldr	r3, [sp, #124]
 633 0784 042093E5 		ldr	r2, [r3, #4]
 634 0788 0CA093E5 		ldr	r10, [r3, #12]
 635 078c 3C208DE5 		str	r2, [sp, #60]
 636 0790 082093E5 		ldr	r2, [r3, #8]
 637 0794 40208DE5 		str	r2, [sp, #64]
 638 0798 96FEFFEA 		b	.L36
 639              	.L111:
 640              	.L104:
 641 079c 90309DE5 		ldr	r3, [sp, #144]
 642 07a0 050053E3 		cmp	r3, #5
 643 07a4 030000DA 		ble	.L106
 644 07a8 94009DE5 		ldr	r0, [sp, #148]
 645 07ac 000050E3 		cmp	r0, #0
 646 07b0 0000000A 		beq	.L106
 647 07b4 FEFFFFEB 		bl	_ZdaPv
 648              	.L106:
 649 07b8 78309DE5 		ldr	r3, [sp, #120]
 650 07bc 050053E3 		cmp	r3, #5
 651 07c0 030000DA 		ble	.L107
 652 07c4 7C009DE5 		ldr	r0, [sp, #124]
 653 07c8 000050E3 		cmp	r0, #0
 654 07cc 0000000A 		beq	.L107
 655 07d0 FEFFFFEB 		bl	_ZdaPv
 656              	.L107:
 657              	.LEHB3:
 658 07d4 FEFFFFEB 		bl	__cxa_end_cleanup
 659              	.LEHE3:
 660              	.L110:
 661 07d8 F6FFFFEA 		b	.L106
 662              	.L84:
 663 07dc 0760A0E1 		mov	r6, r7
 664              	.LEHB4:
 665 07e0 FEFFFFEB 		bl	abort
 666              	.L112:
 667              	.L100:
 668 07e4 050056E3 		cmp	r6, #5
 669 07e8 EBFFFFDA 		ble	.L104
 670 07ec AC009DE5 		ldr	r0, [sp, #172]
 671 07f0 000050E3 		cmp	r0, #0
 672 07f4 E8FFFF0A 		beq	.L104
 673 07f8 FEFFFFEB 		bl	_ZdaPv
 674 07fc E6FFFFEA 		b	.L104
 675              	.L83:
 676 0800 0760A0E1 		mov	r6, r7
 677 0804 FEFFFFEB 		bl	abort
 678              	.L217:
 679 0808 0760A0E1 		mov	r6, r7
 680 080c FEFFFFEB 		bl	abort
 681              	.L214:
 682 0810 0760A0E1 		mov	r6, r7
 683 0814 FEFFFFEB 		bl	abort
 684              	.L212:
 685 0818 0760A0E1 		mov	r6, r7
 686 081c FEFFFFEB 		bl	abort
 687              	.L211:
 688 0820 0760A0E1 		mov	r6, r7
 689 0824 FEFFFFEB 		bl	abort
 690              	.L216:
 691 0828 0760A0E1 		mov	r6, r7
 692 082c FEFFFFEB 		bl	abort
 693              	.L215:
 694 0830 0760A0E1 		mov	r6, r7
 695 0834 FEFFFFEB 		bl	abort
 696              	.L85:
 697 0838 0760A0E1 		mov	r6, r7
 698 083c FEFFFFEB 		bl	abort
 699              	.L213:
 700 0840 0760A0E1 		mov	r6, r7
 701 0844 FEFFFFEB 		bl	abort
 702              	.L186:
 703 0848 0760A0E1 		mov	r6, r7
 704 084c FEFFFFEB 		bl	abort
 705              	.L82:
 706 0850 0760A0E1 		mov	r6, r7
 707 0854 FEFFFFEB 		bl	abort
 708              	.L15:
 709 0858 C4D08DE2 		add	sp, sp, #196
 710              		@ sp needed
 711 085c 088BBDEC 		vldm	sp!, {d8-d11}
 712 0860 F08FBDE8 		pop	{r4, r5, r6, r7, r8, r9, r10, fp, pc}
 713              	.L208:
 714 0864 FEFFFFEB 		bl	abort
 715              	.L207:
 716 0868 FEFFFFEB 		bl	abort
 717              	.L206:
 718 086c FEFFFFEB 		bl	abort
 719              	.L205:
 720 0870 FEFFFFEB 		bl	abort
 721              	.L204:
 722 0874 FEFFFFEB 		bl	abort
 723              	.L203:
 724 0878 FEFFFFEB 		bl	abort
 725              	.L209:
 726 087c FEFFFFEB 		bl	abort
 727              	.L193:
 728 0880 FEFFFFEB 		bl	abort
 729              	.LEHE4:
 730              	.L194:
 731              	.LEHB5:
 732 0884 FEFFFFEB 		bl	abort
 733              	.LEHE5:
 734              	.L109:
 735              	.LEHB6:
 736 0888 FEFFFFEB 		bl	abort
 737              	.L114:
 738 088c C2FFFFEA 		b	.L104
 739              	.L191:
 740 0890 FEFFFFEB 		bl	abort
 741              	.L190:
 742 0894 FEFFFFEB 		bl	abort
 743              	.LEHE6:
 744              	.L189:
 745              	.LEHB7:
 746 0898 FEFFFFEB 		bl	abort
 747              	.LEHE7:
 748              	.L188:
 749              	.LEHB8:
 750 089c FEFFFFEB 		bl	abort
 751              	.LEHE8:
 752              	.L202:
 753              	.LEHB9:
 754 08a0 FEFFFFEB 		bl	abort
 755              	.L198:
 756 08a4 FEFFFFEB 		bl	abort
 757              	.L197:
 758 08a8 FEFFFFEB 		bl	abort
 759              	.L196:
 760 08ac FEFFFFEB 		bl	abort
 761              	.L195:
 762 08b0 FEFFFFEB 		bl	abort
 763              	.L200:
 764 08b4 FEFFFFEB 		bl	abort
 765              	.L199:
 766 08b8 FEFFFFEB 		bl	abort
 767              	.L201:
 768 08bc FEFFFFEB 		bl	abort
 769              	.LEHE9:
 770              	.L113:
 771 08c0 A8609DE5 		ldr	r6, [sp, #168]
 772 08c4 C6FFFFEA 		b	.L100
 773              		.global	__gxx_personality_v0
 774              		.personality	__gxx_personality_v0
 775              		.handlerdata
 776              	.LLSDA1178:
 777 000c FF       		.byte	0xff
 778 000d FF       		.byte	0xff
 779 000e 01       		.byte	0x1
 780 000f 3B       		.uleb128 .LLSDACSE1178-.LLSDACSB1178
 781              	.LLSDACSB1178:
 782 0010 A801     		.uleb128 .LEHB0-.LFB1178
 783 0012 04       		.uleb128 .LEHE0-.LEHB0
 784 0013 00       		.uleb128 0
 785 0014 00       		.uleb128 0
 786 0015 8402     		.uleb128 .LEHB1-.LFB1178
 787 0017 04       		.uleb128 .LEHE1-.LEHB1
 788 0018 D80F     		.uleb128 .L110-.LFB1178
 789 001a 00       		.uleb128 0
 790 001b E002     		.uleb128 .LEHB2-.LFB1178
 791 001d 04       		.uleb128 .LEHE2-.LEHB2
 792 001e 9C0F     		.uleb128 .L111-.LFB1178
 793 0020 00       		.uleb128 0
 794 0021 D40F     		.uleb128 .LEHB3-.LFB1178
 795 0023 04       		.uleb128 .LEHE3-.LEHB3
 796 0024 00       		.uleb128 0
 797 0025 00       		.uleb128 0
 798 0026 E00F     		.uleb128 .LEHB4-.LFB1178
 799 0028 A401     		.uleb128 .LEHE4-.LEHB4
 800 002a E40F     		.uleb128 .L112-.LFB1178
 801 002c 00       		.uleb128 0
 802 002d 8411     		.uleb128 .LEHB5-.LFB1178
 803 002f 04       		.uleb128 .LEHE5-.LEHB5
 804 0030 8C11     		.uleb128 .L114-.LFB1178
 805 0032 00       		.uleb128 0
 806 0033 8811     		.uleb128 .LEHB6-.LFB1178
 807 0035 10       		.uleb128 .LEHE6-.LEHB6
 808 0036 E40F     		.uleb128 .L112-.LFB1178
 809 0038 00       		.uleb128 0
 810 0039 9811     		.uleb128 .LEHB7-.LFB1178
 811 003b 04       		.uleb128 .LEHE7-.LEHB7
 812 003c 8C11     		.uleb128 .L114-.LFB1178
 813 003e 00       		.uleb128 0
 814 003f 9C11     		.uleb128 .LEHB8-.LFB1178
 815 0041 04       		.uleb128 .LEHE8-.LEHB8
 816 0042 C011     		.uleb128 .L113-.LFB1178
 817 0044 00       		.uleb128 0
 818 0045 A011     		.uleb128 .LEHB9-.LFB1178
 819 0047 20       		.uleb128 .LEHE9-.LEHB9
 820 0048 E40F     		.uleb128 .L112-.LFB1178
 821 004a 00       		.uleb128 0
 822              	.LLSDACSE1178:
 823              		.section	.text._ZN6tflite13reference_ops14ResizeBilinearIfEEvRKNS_20ResizeBilinearParamsERKNS_12Ru
 824              		.fnend
 826              		.global	__aeabi_idiv
 827              		.section	.text._ZN6tflite13reference_ops21ResizeBilinearIntegerIaEEvRKNS_20ResizeBilinearParamsERK
 828              		.align	2
 829              		.weak	_ZN6tflite13reference_ops21ResizeBilinearIntegerIaEEvRKNS_20ResizeBilinearParamsERKNS_12Runt
 830              		.syntax unified
 831              		.arm
 832              		.fpu neon
 834              	_ZN6tflite13reference_ops21ResizeBilinearIntegerIaEEvRKNS_20ResizeBilinearParamsERKNS_12RuntimeShap
 835              		.fnstart
 836              	.LFB1181:
 837              		@ args = 12, pretend = 0, frame = 272
 838              		@ frame_needed = 0, uses_anonymous_args = 0
 839 0000 F04F2DE9 		push	{r4, r5, r6, r7, r8, r9, r10, fp, lr}
 840              		.save {r4, r5, r6, r7, r8, r9, r10, fp, lr}
 841              		.pad #276
 842 0004 45DF4DE2 		sub	sp, sp, #276
 843 0008 00C0A0E1 		mov	ip, r0
 844 000c 54008DE5 		str	r0, [sp, #84]
 845 0010 0390A0E1 		mov	r9, r3
 846 0014 0100D0E5 		ldrb	r0, [r0, #1]	@ zero_extendqisi2
 847 0018 70208DE5 		str	r2, [sp, #112]
 848 001c 38519DE5 		ldr	r5, [sp, #312]
 849 0020 000050E3 		cmp	r0, #0
 850 0024 3C719DE5 		ldr	r7, [sp, #316]
 851 0028 40419DE5 		ldr	r4, [sp, #320]
 852 002c 0200000A 		beq	.L221
 853 0030 0030DCE5 		ldrb	r3, [ip]	@ zero_extendqisi2
 854 0034 000053E3 		cmp	r3, #0
 855 0038 1900001A 		bne	.L222
 856              	.L221:
 857 003c 002091E5 		ldr	r2, [r1]
 858 0040 040052E3 		cmp	r2, #4
 859 0044 160000CA 		bgt	.L222
 860 0048 008099E5 		ldr	r8, [r9]
 861 004c 040058E3 		cmp	r8, #4
 862 0050 130000CA 		bgt	.L222
 863 0054 006097E5 		ldr	r6, [r7]
 864 0058 040056E3 		cmp	r6, #4
 865 005c 100000CA 		bgt	.L222
 866 0060 040072E2 		rsbs	r0, r2, #4
 867 0064 0430A0E3 		mov	r3, #4
 868 0068 C8308DE5 		str	r3, [sp, #200]
 869 006c 0D00000A 		beq	.L226
 870 0070 010050E3 		cmp	r0, #1
 871 0074 0130A0E3 		mov	r3, #1
 872 0078 CC308DE5 		str	r3, [sp, #204]
 873 007c 0900000A 		beq	.L226
 874 0080 020050E3 		cmp	r0, #2
 875 0084 D0308DE5 		str	r3, [sp, #208]
 876 0088 0600000A 		beq	.L226
 877 008c 030050E3 		cmp	r0, #3
 878 0090 D4308DE5 		str	r3, [sp, #212]
 879 0094 0300000A 		beq	.L226
 880 0098 040050E3 		cmp	r0, #4
 881 009c D8308DE5 		str	r3, [sp, #216]
 882 00a0 0000000A 		beq	.L226
 883              	.L222:
 884              	.LEHB10:
 885 00a4 FEFFFFEB 		bl	abort
 886              	.LEHE10:
 887              	.L226:
 888 00a8 CC308DE2 		add	r3, sp, #204
 889 00ac 0221A0E1 		lsl	r2, r2, #2
 890 00b0 000183E0 		add	r0, r3, r0, lsl #2
 891 00b4 041081E2 		add	r1, r1, #4
 892 00b8 FEFFFFEB 		bl	memcpy
 893 00bc 040078E2 		rsbs	r0, r8, #4
 894 00c0 0430A0E3 		mov	r3, #4
 895 00c4 E0308DE5 		str	r3, [sp, #224]
 896 00c8 0D00000A 		beq	.L224
 897 00cc 010050E3 		cmp	r0, #1
 898 00d0 0130A0E3 		mov	r3, #1
 899 00d4 E4308DE5 		str	r3, [sp, #228]
 900 00d8 0900000A 		beq	.L224
 901 00dc 020050E3 		cmp	r0, #2
 902 00e0 E8308DE5 		str	r3, [sp, #232]
 903 00e4 0600000A 		beq	.L224
 904 00e8 030050E3 		cmp	r0, #3
 905 00ec EC308DE5 		str	r3, [sp, #236]
 906 00f0 0300000A 		beq	.L224
 907 00f4 040050E3 		cmp	r0, #4
 908 00f8 F0308DE5 		str	r3, [sp, #240]
 909 00fc 0000000A 		beq	.L224
 910              	.LEHB11:
 911 0100 FEFFFFEB 		bl	abort
 912              	.LEHE11:
 913              	.L224:
 914 0104 E4308DE2 		add	r3, sp, #228
 915 0108 0821A0E1 		lsl	r2, r8, #2
 916 010c 000183E0 		add	r0, r3, r0, lsl #2
 917 0110 041089E2 		add	r1, r9, #4
 918 0114 FEFFFFEB 		bl	memcpy
 919 0118 040076E2 		rsbs	r0, r6, #4
 920 011c 0430A0E3 		mov	r3, #4
 921 0120 F8308DE5 		str	r3, [sp, #248]
 922 0124 0D00000A 		beq	.L227
 923 0128 010050E3 		cmp	r0, #1
 924 012c 0130A0E3 		mov	r3, #1
 925 0130 FC308DE5 		str	r3, [sp, #252]
 926 0134 0900000A 		beq	.L227
 927 0138 020050E3 		cmp	r0, #2
 928 013c 00318DE5 		str	r3, [sp, #256]
 929 0140 0600000A 		beq	.L227
 930 0144 030050E3 		cmp	r0, #3
 931 0148 04318DE5 		str	r3, [sp, #260]
 932 014c 0300000A 		beq	.L227
 933 0150 040050E3 		cmp	r0, #4
 934 0154 08318DE5 		str	r3, [sp, #264]
 935 0158 0000000A 		beq	.L227
 936              	.LEHB12:
 937 015c FEFFFFEB 		bl	abort
 938              	.LEHE12:
 939              	.L227:
 940 0160 FC308DE2 		add	r3, sp, #252
 941 0164 0621A0E1 		lsl	r2, r6, #2
 942 0168 000183E0 		add	r0, r3, r0, lsl #2
 943 016c 041087E2 		add	r1, r7, #4
 944 0170 FEFFFFEB 		bl	memcpy
 945 0174 C8309DE5 		ldr	r3, [sp, #200]
 946 0178 000053E3 		cmp	r3, #0
 947 017c 34308DE5 		str	r3, [sp, #52]
 948 0180 320200DA 		ble	.L457
 949 0184 050053E3 		cmp	r3, #5
 950 0188 CC309DE5 		ldr	r3, [sp, #204]
 951 018c 003093C5 		ldrgt	r3, [r3]
 952 0190 7C308DE5 		str	r3, [sp, #124]
 953 0194 F8309DE5 		ldr	r3, [sp, #248]
 954 0198 000053E3 		cmp	r3, #0
 955 019c 20308DE5 		str	r3, [sp, #32]
 956 01a0 290200DA 		ble	.L458
 957 01a4 050053E3 		cmp	r3, #5
 958 01a8 FC309DE5 		ldr	r3, [sp, #252]
 959 01ac 7C209DE5 		ldr	r2, [sp, #124]
 960 01b0 003093C5 		ldrgt	r3, [r3]
 961 01b4 030052E1 		cmp	r2, r3
 962 01b8 2202001A 		bne	.L459
 963 01bc 34309DE5 		ldr	r3, [sp, #52]
 964 01c0 010053E3 		cmp	r3, #1
 965 01c4 1E02000A 		beq	.L460
 966 01c8 050053E3 		cmp	r3, #5
 967 01cc 970100CA 		bgt	.L461
 968 01d0 020053E3 		cmp	r3, #2
 969 01d4 D0309DE5 		ldr	r3, [sp, #208]
 970 01d8 94308DE5 		str	r3, [sp, #148]
 971 01dc 1402000A 		beq	.L462
 972 01e0 34309DE5 		ldr	r3, [sp, #52]
 973 01e4 030053E3 		cmp	r3, #3
 974 01e8 D4309DE5 		ldr	r3, [sp, #212]
 975 01ec 98308DE5 		str	r3, [sp, #152]
 976 01f0 1102000A 		beq	.L325
 977 01f4 D8309DE5 		ldr	r3, [sp, #216]
 978 01f8 24308DE5 		str	r3, [sp, #36]
 979              	.L241:
 980 01fc 20309DE5 		ldr	r3, [sp, #32]
 981 0200 030053E3 		cmp	r3, #3
 982 0204 0B0200DA 		ble	.L463
 983 0208 050053E3 		cmp	r3, #5
 984 020c 24209DE5 		ldr	r2, [sp, #36]
 985 0210 FC309DC5 		ldrgt	r3, [sp, #252]
 986 0214 08319DD5 		ldrle	r3, [sp, #264]
 987 0218 0C3093C5 		ldrgt	r3, [r3, #12]
 988 021c 030052E1 		cmp	r2, r3
 989 0220 0102001A 		bne	.L464
 990 0224 E0309DE5 		ldr	r3, [sp, #224]
 991 0228 000053E3 		cmp	r3, #0
 992 022c FD0100DA 		ble	.L465
 993 0230 E4209DE5 		ldr	r2, [sp, #228]
 994 0234 050053E3 		cmp	r3, #5
 995 0238 002092C5 		ldrgt	r2, [r2]
 996 023c 010052E3 		cmp	r2, #1
 997 0240 F701001A 		bne	.L466
 998 0244 010053E3 		cmp	r3, #1
 999 0248 F401000A 		beq	.L467
 1000 024c 050053E3 		cmp	r3, #5
 1001 0250 E4209DC5 		ldrgt	r2, [sp, #228]
 1002 0254 E8209DD5 		ldrle	r2, [sp, #232]
 1003 0258 042092C5 		ldrgt	r2, [r2, #4]
 1004 025c 010052E3 		cmp	r2, #1
 1005 0260 FD01001A 		bne	.L468
 1006 0264 020053E3 		cmp	r3, #2
 1007 0268 FA01000A 		beq	.L469
 1008 026c 050053E3 		cmp	r3, #5
 1009 0270 E4209DC5 		ldrgt	r2, [sp, #228]
 1010 0274 EC209DD5 		ldrle	r2, [sp, #236]
 1011 0278 082092C5 		ldrgt	r2, [r2, #8]
 1012 027c 010052E3 		cmp	r2, #1
 1013 0280 F801001A 		bne	.L470
 1014 0284 030053E3 		cmp	r3, #3
 1015 0288 F101000A 		beq	.L471
 1016 028c 050053E3 		cmp	r3, #5
 1017 0290 E4209DC5 		ldrgt	r2, [sp, #228]
 1018 0294 F0209DD5 		ldrle	r2, [sp, #240]
 1019 0298 0C2092C5 		ldrgt	r2, [r2, #12]
 1020 029c 020052E3 		cmp	r2, #2
 1021 02a0 DD01001A 		bne	.L472
 1022 02a4 040053E3 		cmp	r3, #4
 1023 02a8 DA01001A 		bne	.L473
 1024 02ac E4309DE5 		ldr	r3, [sp, #228]
 1025 02b0 000053E3 		cmp	r3, #0
 1026 02b4 D60100DA 		ble	.L474
 1027 02b8 E8309DE5 		ldr	r3, [sp, #232]
 1028 02bc 000053E3 		cmp	r3, #0
 1029 02c0 D20100DA 		ble	.L475
 1030 02c4 EC309DE5 		ldr	r3, [sp, #236]
 1031 02c8 000053E3 		cmp	r3, #0
 1032 02cc E40100DA 		ble	.L476
 1033 02d0 F0309DE5 		ldr	r3, [sp, #240]
 1034 02d4 000053E3 		cmp	r3, #0
 1035 02d8 E00100DA 		ble	.L477
 1036 02dc 010053E3 		cmp	r3, #1
 1037 02e0 003095E5 		ldr	r3, [r5]
 1038 02e4 90308DE5 		str	r3, [sp, #144]
 1039 02e8 D001000A 		beq	.L478
 1040 02ec 0380A0E1 		mov	r8, r3
 1041 02f0 043095E5 		ldr	r3, [r5, #4]
 1042 02f4 A80F88E0 		add	r0, r8, r8, lsr #31
 1043 02f8 0810A0E1 		mov	r1, r8
 1044 02fc 0370A0E1 		mov	r7, r3
 1045 0300 58308DE5 		str	r3, [sp, #88]
 1046 0304 94309DE5 		ldr	r3, [sp, #148]
 1047 0308 0365A0E1 		lsl	r6, r3, #10
 1048 030c 98309DE5 		ldr	r3, [sp, #152]
 1049 0310 C00086E0 		add	r0, r6, r0, asr #1
 1050 0314 0355A0E1 		lsl	r5, r3, #10
 1051 0318 FEFFFFEB 		bl	__aeabi_idiv
 1052 031c A0008DE5 		str	r0, [sp, #160]
 1053 0320 A70F87E0 		add	r0, r7, r7, lsr #31
 1054 0324 0710A0E1 		mov	r1, r7
 1055 0328 C00085E0 		add	r0, r5, r0, asr #1
 1056 032c FEFFFFEB 		bl	__aeabi_idiv
 1057 0330 54309DE5 		ldr	r3, [sp, #84]
 1058 0334 5C008DE5 		str	r0, [sp, #92]
 1059 0338 0030D3E5 		ldrb	r3, [r3]	@ zero_extendqisi2
 1060 033c 000053E3 		cmp	r3, #0
 1061 0340 2A01001A 		bne	.L479
 1062              	.L269:
 1063 0344 7C309DE5 		ldr	r3, [sp, #124]
 1064 0348 000053E3 		cmp	r3, #0
 1065 034c 790100DA 		ble	.L275
 1066 0350 00319DE5 		ldr	r3, [sp, #256]
 1067 0354 08019DE5 		ldr	r0, [sp, #264]
 1068 0358 A8408DE5 		str	r4, [sp, #168]
 1069 035c 03C0A0E1 		mov	ip, r3
 1070 0360 6C308DE5 		str	r3, [sp, #108]
 1071 0364 A0309DE5 		ldr	r3, [sp, #160]
 1072 0368 30008DE5 		str	r0, [sp, #48]
 1073 036c A32F83E0 		add	r2, r3, r3, lsr #31
 1074 0370 04319DE5 		ldr	r3, [sp, #260]
 1075 0374 C220A0E1 		asr	r2, r2, #1
 1076 0378 0310A0E1 		mov	r1, r3
 1077 037c 84308DE5 		str	r3, [sp, #132]
 1078 0380 5C309DE5 		ldr	r3, [sp, #92]
 1079 0384 9C208DE5 		str	r2, [sp, #156]
 1080 0388 CC209DE5 		ldr	r2, [sp, #204]
 1081 038c A33F83E0 		add	r3, r3, r3, lsr #31
 1082 0390 80208DE5 		str	r2, [sp, #128]
 1083 0394 0120A0E1 		mov	r2, r1
 1084 0398 C330A0E1 		asr	r3, r3, #1
 1085 039c D4109DE5 		ldr	r1, [sp, #212]
 1086 03a0 BC308DE5 		str	r3, [sp, #188]
 1087 03a4 D0309DE5 		ldr	r3, [sp, #208]
 1088 03a8 38108DE5 		str	r1, [sp, #56]
 1089 03ac D8109DE5 		ldr	r1, [sp, #216]
 1090 03b0 4C308DE5 		str	r3, [sp, #76]
 1091 03b4 0030A0E3 		mov	r3, #0
 1092 03b8 03E0A0E1 		mov	lr, r3
 1093 03bc B0308DE5 		str	r3, [sp, #176]
 1094 03c0 920C03E0 		mul	r3, r2, ip
 1095 03c4 28108DE5 		str	r1, [sp, #40]
 1096 03c8 3CE08DE5 		str	lr, [sp, #60]
 1097 03cc 900202E0 		mul	r2, r0, r2
 1098 03d0 900303E0 		mul	r3, r0, r3
 1099 03d4 C4208DE5 		str	r2, [sp, #196]
 1100 03d8 FC209DE5 		ldr	r2, [sp, #252]
 1101 03dc C0308DE5 		str	r3, [sp, #192]
 1102 03e0 64208DE5 		str	r2, [sp, #100]
 1103 03e4 0E20A0E1 		mov	r2, lr
 1104              	.L276:
 1105 03e8 90309DE5 		ldr	r3, [sp, #144]
 1106 03ec 000053E3 		cmp	r3, #0
 1107 03f0 420100DA 		ble	.L280
 1108 03f4 94309DE5 		ldr	r3, [sp, #148]
 1109 03f8 013043E2 		sub	r3, r3, #1
 1110 03fc B4308DE5 		str	r3, [sp, #180]
 1111 0400 9C309DE5 		ldr	r3, [sp, #156]
 1112 0404 023C43E2 		sub	r3, r3, #512
 1113 0408 A4308DE5 		str	r3, [sp, #164]
 1114 040c A8309DE5 		ldr	r3, [sp, #168]
 1115 0410 AC308DE5 		str	r3, [sp, #172]
 1116 0414 0030A0E3 		mov	r3, #0
 1117 0418 60308DE5 		str	r3, [sp, #96]
 1118              	.L281:
 1119 041c 54309DE5 		ldr	r3, [sp, #84]
 1120 0420 FF0300E3 		movw	r0, #1023
 1121 0424 0130D3E5 		ldrb	r3, [r3, #1]	@ zero_extendqisi2
 1122 0428 000053E3 		cmp	r3, #0
 1123 042c 9C209D05 		ldreq	r2, [sp, #156]
 1124 0430 A4E09D15 		ldrne	lr, [sp, #164]
 1125 0434 02EC6202 		rsbeq	lr, r2, #512
 1126 0438 A4209D05 		ldreq	r2, [sp, #164]
 1127 043c 02E08E00 		addeq	lr, lr, r2
 1128 0440 00C08EE0 		add	ip, lr, r0
 1129 0444 00005EE3 		cmp	lr, #0
 1130 0448 0E10A0A1 		movge	r1, lr
 1131 044c 0C10A0B1 		movlt	r1, ip
 1132 0450 4115A0E1 		asr	r1, r1, #10
 1133 0454 00005CE3 		cmp	ip, #0
 1134 0458 00208CE0 		add	r2, ip, r0
 1135 045c C11FC1E1 		bic	r1, r1, r1, asr #31
 1136 0460 0C20A0A1 		movge	r2, ip
 1137 0464 4225A0E1 		asr	r2, r2, #10
 1138 0468 50108DE5 		str	r1, [sp, #80]
 1139 046c B4109DE5 		ldr	r1, [sp, #180]
 1140 0470 010052E1 		cmp	r2, r1
 1141 0474 0120A0A1 		movge	r2, r1
 1142 0478 58109DE5 		ldr	r1, [sp, #88]
 1143 047c 000051E3 		cmp	r1, #0
 1144 0480 100100DA 		ble	.L285
 1145 0484 50409DE5 		ldr	r4, [sp, #80]
 1146 0488 B0109DE5 		ldr	r1, [sp, #176]
 1147 048c 74008DE5 		str	r0, [sp, #116]
 1148 0490 04C081E0 		add	ip, r1, r4
 1149 0494 04E54EE0 		sub	lr, lr, r4, lsl #10
 1150 0498 38409DE5 		ldr	r4, [sp, #56]
 1151 049c 011082E0 		add	r1, r2, r1
 1152 04a0 18E08DE5 		str	lr, [sp, #24]
 1153 04a4 940101E0 		mul	r1, r4, r1
 1154 04a8 940C0CE0 		mul	ip, r4, ip
 1155 04ac 88108DE5 		str	r1, [sp, #136]
 1156 04b0 011B6EE2 		rsb	r1, lr, #1024
 1157 04b4 1C108DE5 		str	r1, [sp, #28]
 1158 04b8 4C109DE5 		ldr	r1, [sp, #76]
 1159 04bc 8CC08DE5 		str	ip, [sp, #140]
 1160 04c0 000052E3 		cmp	r2, #0
 1161 04c4 020051A1 		cmpge	r1, r2
 1162 04c8 0120A0C3 		movgt	r2, #1
 1163 04cc 0020A0D3 		movle	r2, #0
 1164 04d0 78208DE5 		str	r2, [sp, #120]
 1165 04d4 98209DE5 		ldr	r2, [sp, #152]
 1166 04d8 012042E2 		sub	r2, r2, #1
 1167 04dc 68208DE5 		str	r2, [sp, #104]
 1168 04e0 BC209DE5 		ldr	r2, [sp, #188]
 1169 04e4 021C42E2 		sub	r1, r2, #512
 1170 04e8 022C62E2 		rsb	r2, r2, #512
 1171 04ec 48108DE5 		str	r1, [sp, #72]
 1172 04f0 AC109DE5 		ldr	r1, [sp, #172]
 1173 04f4 B8208DE5 		str	r2, [sp, #184]
 1174 04f8 40108DE5 		str	r1, [sp, #64]
 1175 04fc 0010A0E3 		mov	r1, #0
 1176 0500 44108DE5 		str	r1, [sp, #68]
 1177              	.L313:
 1178 0504 000053E3 		cmp	r3, #0
 1179 0508 B8309D05 		ldreq	r3, [sp, #184]
 1180 050c 48209D05 		ldreq	r2, [sp, #72]
 1181 0510 48E09D15 		ldrne	lr, [sp, #72]
 1182 0514 02E08300 		addeq	lr, r3, r2
 1183 0518 74309DE5 		ldr	r3, [sp, #116]
 1184 051c 00005EE3 		cmp	lr, #0
 1185 0520 0E10A0A1 		movge	r1, lr
 1186 0524 03208EE0 		add	r2, lr, r3
 1187 0528 0210A0B1 		movlt	r1, r2
 1188 052c 000052E3 		cmp	r2, #0
 1189 0530 033082E0 		add	r3, r2, r3
 1190 0534 0230A0A1 		movge	r3, r2
 1191 0538 68209DE5 		ldr	r2, [sp, #104]
 1192 053c 4335A0E1 		asr	r3, r3, #10
 1193 0540 4115A0E1 		asr	r1, r1, #10
 1194 0544 020053E1 		cmp	r3, r2
 1195 0548 C11FC1E1 		bic	r1, r1, r1, asr #31
 1196 054c 0230A0A1 		movge	r3, r2
 1197 0550 24209DE5 		ldr	r2, [sp, #36]
 1198 0554 000052E3 		cmp	r2, #0
 1199 0558 930000DA 		ble	.L311
 1200 055c 34209DE5 		ldr	r2, [sp, #52]
 1201 0560 040052E3 		cmp	r2, #4
 1202 0564 0401001A 		bne	.L287
 1203 0568 80209DE5 		ldr	r2, [sp, #128]
 1204 056c 3C009DE5 		ldr	r0, [sp, #60]
 1205 0570 000052E1 		cmp	r2, r0
 1206 0574 D20000DA 		ble	.L288
 1207 0578 4C209DE5 		ldr	r2, [sp, #76]
 1208 057c 50009DE5 		ldr	r0, [sp, #80]
 1209 0580 000052E1 		cmp	r2, r0
 1210 0584 CD0000DA 		ble	.L289
 1211 0588 38209DE5 		ldr	r2, [sp, #56]
 1212 058c 010052E1 		cmp	r2, r1
 1213 0590 C90000DA 		ble	.L290
 1214 0594 28209DE5 		ldr	r2, [sp, #40]
 1215 0598 000052E3 		cmp	r2, #0
 1216 059c C50000DA 		ble	.L292
 1217 05a0 38209DE5 		ldr	r2, [sp, #56]
 1218 05a4 01E54EE0 		sub	lr, lr, r1, lsl #10
 1219 05a8 88409DE5 		ldr	r4, [sp, #136]
 1220 05ac 01CB6EE2 		rsb	ip, lr, #1024
 1221 05b0 000053E3 		cmp	r3, #0
 1222 05b4 030052A1 		cmpge	r2, r3
 1223 05b8 CC5FA0E1 		asr	r5, ip, #31
 1224 05bc 0120A0C3 		movgt	r2, #1
 1225 05c0 0020A0D3 		movle	r2, #0
 1226 05c4 2C208DE5 		str	r2, [sp, #44]
 1227 05c8 78209DE5 		ldr	r2, [sp, #120]
 1228 05cc 000052E3 		cmp	r2, #0
 1229 05d0 8C209DE5 		ldr	r2, [sp, #140]
 1230 05d4 010082E0 		add	r0, r2, r1
 1231 05d8 041081E0 		add	r1, r1, r4
 1232 05dc 022083E0 		add	r2, r3, r2
 1233 05e0 043083E0 		add	r3, r3, r4
 1234 05e4 0C40A0E1 		mov	r4, ip
 1235 05e8 28C09DE5 		ldr	ip, [sp, #40]
 1236 05ec 9C0000E0 		mul	r0, ip, r0
 1237 05f0 9C0101E0 		mul	r1, ip, r1
 1238 05f4 9C0202E0 		mul	r2, ip, r2
 1239 05f8 9C0303E0 		mul	r3, ip, r3
 1240 05fc F000000A 		beq	.L480
 1241 0600 44C09DE5 		ldr	ip, [sp, #68]
 1242 0604 84609DE5 		ldr	r6, [sp, #132]
 1243 0608 06005CE1 		cmp	ip, r6
 1244 060c DD0000AA 		bge	.L481
 1245 0610 60C09DE5 		ldr	ip, [sp, #96]
 1246 0614 6C609DE5 		ldr	r6, [sp, #108]
 1247 0618 06005CE1 		cmp	ip, r6
 1248 061c F00000AA 		bge	.L482
 1249 0620 3CC09DE5 		ldr	ip, [sp, #60]
 1250 0624 64609DE5 		ldr	r6, [sp, #100]
 1251 0628 06005CE1 		cmp	ip, r6
 1252 062c E50000AA 		bge	.L483
 1253 0630 70C09DE5 		ldr	ip, [sp, #112]
 1254 0634 90EB80EE 		vdup.32	d16, lr
 1255 0638 03308CE0 		add	r3, ip, r3
 1256 063c B000E0F2 		vshr.s64	d16, d16, #32
 1257 0640 10308DE5 		str	r3, [sp, #16]
 1258 0644 00008CE0 		add	r0, ip, r0
 1259 0648 40309DE5 		ldr	r3, [sp, #64]
 1260 064c 01608CE0 		add	r6, ip, r1
 1261 0650 02208CE0 		add	r2, ip, r2
 1262 0654 020BCDED 		vstr.64	d16, [sp, #8]	@ int
 1263 0658 04208DE5 		str	r2, [sp, #4]
 1264 065c 00C0A0E3 		mov	ip, #0
 1265 0660 14308DE5 		str	r3, [sp, #20]
 1266 0664 06A0A0E1 		mov	r10, r6
 1267 0668 00B0A0E1 		mov	fp, r0
 1268 066c 020000EA 		b	.L293
 1269              	.L441:
 1270 0670 28309DE5 		ldr	r3, [sp, #40]
 1271 0674 03005CE1 		cmp	ip, r3
 1272 0678 8E00000A 		beq	.L292
 1273              	.L293:
 1274 067c 2C309DE5 		ldr	r3, [sp, #44]
 1275 0680 D160DBE0 		ldrsb	r6, [fp], #1
 1276 0684 D100DAE0 		ldrsb	r0, [r10], #1
 1277 0688 000053E3 		cmp	r3, #0
 1278 068c 1C309DE5 		ldr	r3, [sp, #28]
 1279 0690 9663C7E0 		smull	r6, r7, r6, r3
 1280 0694 18309DE5 		ldr	r3, [sp, #24]
 1281 0698 9003C1E0 		smull	r0, r1, r0, r3
 1282 069c 960502E0 		mul	r2, r6, r5
 1283 06a0 900503E0 		mul	r3, r0, r5
 1284 06a4 968489E0 		umull	r8, r9, r6, r4
 1285 06a8 942722E0 		mla	r2, r4, r7, r2
 1286 06ac 906487E0 		umull	r6, r7, r0, r4
 1287 06b0 099082E0 		add	r9, r2, r9
 1288 06b4 943123E0 		mla	r3, r4, r1, r3
 1289 06b8 077083E0 		add	r7, r3, r7
 1290 06bc 7300000A 		beq	.L298
 1291 06c0 04309DE5 		ldr	r3, [sp, #4]
 1292 06c4 086096E0 		adds	r6, r6, r8
 1293 06c8 18109DE5 		ldr	r1, [sp, #24]
 1294 06cc 0970A7E0 		adc	r7, r7, r9
 1295 06d0 0C809DE5 		ldr	r8, [sp, #12]
 1296 06d4 D120D3E0 		ldrsb	r2, [r3], #1
 1297 06d8 04308DE5 		str	r3, [sp, #4]
 1298 06dc 10309DE5 		ldr	r3, [sp, #16]
 1299 06e0 D100D3E0 		ldrsb	r0, [r3], #1
 1300 06e4 10308DE5 		str	r3, [sp, #16]
 1301 06e8 1C309DE5 		ldr	r3, [sp, #28]
 1302 06ec 9001C1E0 		smull	r0, r1, r0, r1
 1303 06f0 9223C3E0 		smull	r2, r3, r2, r3
 1304 06f4 920809E0 		mul	r9, r2, r8
 1305 06f8 900808E0 		mul	r8, r0, r8
 1306 06fc 9E9329E0 		mla	r9, lr, r3, r9
 1307 0700 922E83E0 		umull	r2, r3, r2, lr
 1308 0704 9E8128E0 		mla	r8, lr, r1, r8
 1309 0708 900E81E0 		umull	r0, r1, r0, lr
 1310 070c 062092E0 		adds	r2, r2, r6
 1311 0710 033089E0 		add	r3, r9, r3
 1312 0714 0730A3E0 		adc	r3, r3, r7
 1313 0718 011088E0 		add	r1, r8, r1
 1314 071c 002092E0 		adds	r2, r2, r0
 1315 0720 0130A3E0 		adc	r3, r3, r1
 1316 0724 010052E3 		cmp	r2, #1
 1317 0728 0010D3E2 		sbcs	r1, r3, #0
 1318 072c 0000A0B3 		movlt	r0, #0
 1319 0730 0207A0A3 		movge	r0, #524288
 1320 0734 F80F4FB3 		movtlt	r0, 65528
 1321 0738 0010A0A3 		movge	r1, #0
 1322 073c 0010E0B3 		mvnlt	r1, #0
 1323 0740 002092E0 		adds	r2, r2, r0
 1324 0744 0130A3E0 		adc	r3, r3, r1
 1325 0748 FF0F0FE3 		movw	r0, #65535
 1326 074c C36FA0E1 		asr	r6, r3, #31
 1327 0750 0F0040E3 		movt	r0, 15
 1328 0754 0010A0E3 		mov	r1, #0
 1329 0758 C67FA0E1 		asr	r7, r6, #31
 1330 075c 060000E0 		and	r0, r0, r6
 1331 0760 026090E0 		adds	r6, r0, r2
 1332 0764 071001E0 		and	r1, r1, r7
 1333 0768 266AA0E1 		lsr	r6, r6, #20
 1334 076c 0370A1E0 		adc	r7, r1, r3
 1335 0770 20309DE5 		ldr	r3, [sp, #32]
 1336 0774 076686E1 		orr	r6, r6, r7, lsl #12
 1337 0778 040053E3 		cmp	r3, #4
 1338 077c 7660AFE6 		sxtb	r6, r6
 1339 0780 7C00001A 		bne	.L300
 1340 0784 30309DE5 		ldr	r3, [sp, #48]
 1341 0788 03005CE1 		cmp	ip, r3
 1342 078c 480000AA 		bge	.L484
 1343 0790 14309DE5 		ldr	r3, [sp, #20]
 1344 0794 01C08CE2 		add	ip, ip, #1
 1345 0798 0160C3E4 		strb	r6, [r3], #1
 1346 079c 14308DE5 		str	r3, [sp, #20]
 1347 07a0 24309DE5 		ldr	r3, [sp, #36]
 1348 07a4 03005CE1 		cmp	ip, r3
 1349 07a8 B0FFFFBA 		blt	.L441
 1350              	.L311:
 1351 07ac 48209DE5 		ldr	r2, [sp, #72]
 1352 07b0 5C109DE5 		ldr	r1, [sp, #92]
 1353 07b4 44309DE5 		ldr	r3, [sp, #68]
 1354 07b8 012082E0 		add	r2, r2, r1
 1355 07bc 48208DE5 		str	r2, [sp, #72]
 1356 07c0 013083E2 		add	r3, r3, #1
 1357 07c4 58209DE5 		ldr	r2, [sp, #88]
 1358 07c8 44308DE5 		str	r3, [sp, #68]
 1359 07cc 030052E1 		cmp	r2, r3
 1360 07d0 40309DE5 		ldr	r3, [sp, #64]
 1361 07d4 30209DE5 		ldr	r2, [sp, #48]
 1362 07d8 023083E0 		add	r3, r3, r2
 1363 07dc 40308DE5 		str	r3, [sp, #64]
 1364 07e0 3800000A 		beq	.L285
 1365 07e4 54309DE5 		ldr	r3, [sp, #84]
 1366 07e8 0130D3E5 		ldrb	r3, [r3, #1]	@ zero_extendqisi2
 1367 07ec 44FFFFEA 		b	.L313
 1368              	.L479:
 1369 07f0 010058E3 		cmp	r8, #1
 1370 07f4 040000DA 		ble	.L270
 1371 07f8 011048E2 		sub	r1, r8, #1
 1372 07fc 010B46E2 		sub	r0, r6, #1024
 1373 0800 C10080E0 		add	r0, r0, r1, asr #1
 1374 0804 FEFFFFEB 		bl	__aeabi_idiv
 1375 0808 A0008DE5 		str	r0, [sp, #160]
 1376              	.L270:
 1377 080c 58309DE5 		ldr	r3, [sp, #88]
 1378 0810 010053E3 		cmp	r3, #1
 1379 0814 CAFEFFDA 		ble	.L269
 1380 0818 011043E2 		sub	r1, r3, #1
 1381 081c 010B45E2 		sub	r0, r5, #1024
 1382 0820 C10080E0 		add	r0, r0, r1, asr #1
 1383 0824 FEFFFFEB 		bl	__aeabi_idiv
 1384 0828 5C008DE5 		str	r0, [sp, #92]
 1385 082c C4FEFFEA 		b	.L269
 1386              	.L461:
 1387 0830 CC309DE5 		ldr	r3, [sp, #204]
 1388 0834 042093E5 		ldr	r2, [r3, #4]
 1389 0838 94208DE5 		str	r2, [sp, #148]
 1390 083c 082093E5 		ldr	r2, [r3, #8]
 1391 0840 0C3093E5 		ldr	r3, [r3, #12]
 1392 0844 98208DE5 		str	r2, [sp, #152]
 1393 0848 24308DE5 		str	r3, [sp, #36]
 1394 084c 6AFEFFEA 		b	.L241
 1395              	.L328:
 1396              	.L320:
 1397 0850 E0309DE5 		ldr	r3, [sp, #224]
 1398 0854 050053E3 		cmp	r3, #5
 1399 0858 030000DA 		ble	.L322
 1400 085c E4009DE5 		ldr	r0, [sp, #228]
 1401 0860 000050E3 		cmp	r0, #0
 1402 0864 0000000A 		beq	.L322
 1403 0868 FEFFFFEB 		bl	_ZdaPv
 1404              	.L322:
 1405 086c C8309DE5 		ldr	r3, [sp, #200]
 1406 0870 050053E3 		cmp	r3, #5
 1407 0874 030000DA 		ble	.L323
 1408 0878 CC009DE5 		ldr	r0, [sp, #204]
 1409 087c 000050E3 		cmp	r0, #0
 1410 0880 0000000A 		beq	.L323
 1411 0884 FEFFFFEB 		bl	_ZdaPv
 1412              	.L323:
 1413              	.LEHB13:
 1414 0888 FEFFFFEB 		bl	__cxa_end_cleanup
 1415              	.LEHE13:
 1416              	.L327:
 1417 088c F6FFFFEA 		b	.L322
 1418              	.L298:
 1419              	.LEHB14:
 1420 0890 FEFFFFEB 		bl	abort
 1421              	.L329:
 1422 0894 20309DE5 		ldr	r3, [sp, #32]
 1423              	.L316:
 1424 0898 050053E3 		cmp	r3, #5
 1425 089c EBFFFFDA 		ble	.L320
 1426 08a0 FC009DE5 		ldr	r0, [sp, #252]
 1427 08a4 000050E3 		cmp	r0, #0
 1428 08a8 E8FFFF0A 		beq	.L320
 1429 08ac FEFFFFEB 		bl	_ZdaPv
 1430 08b0 E6FFFFEA 		b	.L320
 1431              	.L484:
 1432 08b4 FEFFFFEB 		bl	abort
 1433              	.L292:
 1434 08b8 FEFFFFEB 		bl	abort
 1435              	.L290:
 1436 08bc FEFFFFEB 		bl	abort
 1437              	.L289:
 1438 08c0 FEFFFFEB 		bl	abort
 1439              	.L288:
 1440 08c4 FEFFFFEB 		bl	abort
 1441              	.L285:
 1442 08c8 A4209DE5 		ldr	r2, [sp, #164]
 1443 08cc A0109DE5 		ldr	r1, [sp, #160]
 1444 08d0 60309DE5 		ldr	r3, [sp, #96]
 1445 08d4 012082E0 		add	r2, r2, r1
 1446 08d8 A4208DE5 		str	r2, [sp, #164]
 1447 08dc 013083E2 		add	r3, r3, #1
 1448 08e0 90209DE5 		ldr	r2, [sp, #144]
 1449 08e4 60308DE5 		str	r3, [sp, #96]
 1450 08e8 030052E1 		cmp	r2, r3
 1451 08ec AC309DE5 		ldr	r3, [sp, #172]
 1452 08f0 C4209DE5 		ldr	r2, [sp, #196]
 1453 08f4 023083E0 		add	r3, r3, r2
 1454 08f8 AC308DE5 		str	r3, [sp, #172]
 1455 08fc C6FEFF1A 		bne	.L281
 1456              	.L280:
 1457 0900 B0209DE5 		ldr	r2, [sp, #176]
 1458 0904 4C109DE5 		ldr	r1, [sp, #76]
 1459 0908 3C309DE5 		ldr	r3, [sp, #60]
 1460 090c 012082E0 		add	r2, r2, r1
 1461 0910 B0208DE5 		str	r2, [sp, #176]
 1462 0914 013083E2 		add	r3, r3, #1
 1463 0918 7C209DE5 		ldr	r2, [sp, #124]
 1464 091c 3C308DE5 		str	r3, [sp, #60]
 1465 0920 020053E1 		cmp	r3, r2
 1466 0924 A8309DE5 		ldr	r3, [sp, #168]
 1467 0928 C0209DE5 		ldr	r2, [sp, #192]
 1468 092c 023083E0 		add	r3, r3, r2
 1469 0930 A8308DE5 		str	r3, [sp, #168]
 1470 0934 ABFEFF1A 		bne	.L276
 1471              	.L275:
 1472 0938 20309DE5 		ldr	r3, [sp, #32]
 1473 093c 050053E3 		cmp	r3, #5
 1474 0940 030000DA 		ble	.L273
 1475 0944 FC009DE5 		ldr	r0, [sp, #252]
 1476 0948 000050E3 		cmp	r0, #0
 1477 094c 0000000A 		beq	.L273
 1478 0950 FEFFFFEB 		bl	_ZdaPv
 1479              	.L273:
 1480 0954 34309DE5 		ldr	r3, [sp, #52]
 1481 0958 050053E3 		cmp	r3, #5
 1482 095c 070000DA 		ble	.L220
 1483 0960 CC009DE5 		ldr	r0, [sp, #204]
 1484 0964 000050E3 		cmp	r0, #0
 1485 0968 0400000A 		beq	.L220
 1486 096c 45DF8DE2 		add	sp, sp, #276
 1487              		@ sp needed
 1488 0970 F04FBDE8 		pop	{r4, r5, r6, r7, r8, r9, r10, fp, lr}
 1489 0974 FEFFFFEA 		b	_ZdaPv
 1490              	.L300:
 1491 0978 FEFFFFEB 		bl	abort
 1492              	.L287:
 1493 097c FEFFFFEB 		bl	abort
 1494              	.L220:
 1495 0980 45DF8DE2 		add	sp, sp, #276
 1496              		@ sp needed
 1497 0984 F08FBDE8 		pop	{r4, r5, r6, r7, r8, r9, r10, fp, pc}
 1498              	.L481:
 1499 0988 60309DE5 		ldr	r3, [sp, #96]
 1500 098c 6C209DE5 		ldr	r2, [sp, #108]
 1501 0990 020053E1 		cmp	r3, r2
 1502 0994 3C309DE5 		ldr	r3, [sp, #60]
 1503 0998 64209DE5 		ldr	r2, [sp, #100]
 1504 099c 120000AA 		bge	.L455
 1505 09a0 020053E1 		cmp	r3, r2
 1506 09a4 2C309DE5 		ldr	r3, [sp, #44]
 1507 09a8 070000AA 		bge	.L451
 1508 09ac 000053E3 		cmp	r3, #0
 1509 09b0 B6FFFF0A 		beq	.L298
 1510 09b4 20309DE5 		ldr	r3, [sp, #32]
 1511 09b8 040053E3 		cmp	r3, #4
 1512 09bc EDFFFF1A 		bne	.L300
 1513 09c0 FEFFFFEB 		bl	abort
 1514              	.L480:
 1515 09c4 FEFFFFEB 		bl	abort
 1516              	.L483:
 1517 09c8 2C309DE5 		ldr	r3, [sp, #44]
 1518              	.L451:
 1519 09cc 000053E3 		cmp	r3, #0
 1520 09d0 AEFFFF0A 		beq	.L298
 1521 09d4 20309DE5 		ldr	r3, [sp, #32]
 1522 09d8 040053E3 		cmp	r3, #4
 1523 09dc E5FFFF1A 		bne	.L300
 1524 09e0 FEFFFFEB 		bl	abort
 1525              	.L482:
 1526 09e4 3C309DE5 		ldr	r3, [sp, #60]
 1527 09e8 64209DE5 		ldr	r2, [sp, #100]
 1528              	.L455:
 1529 09ec 020053E1 		cmp	r3, r2
 1530 09f0 2C309DE5 		ldr	r3, [sp, #44]
 1531 09f4 F4FFFFAA 		bge	.L451
 1532 09f8 000053E3 		cmp	r3, #0
 1533 09fc A3FFFF0A 		beq	.L298
 1534 0a00 20309DE5 		ldr	r3, [sp, #32]
 1535 0a04 040053E3 		cmp	r3, #4
 1536 0a08 DAFFFF1A 		bne	.L300
 1537 0a0c FEFFFFEB 		bl	abort
 1538              	.L475:
 1539 0a10 FEFFFFEB 		bl	abort
 1540              	.L474:
 1541 0a14 FEFFFFEB 		bl	abort
 1542              	.L473:
 1543 0a18 FEFFFFEB 		bl	abort
 1544              	.L472:
 1545 0a1c FEFFFFEB 		bl	abort
 1546              	.L467:
 1547 0a20 FEFFFFEB 		bl	abort
 1548              	.L466:
 1549 0a24 FEFFFFEB 		bl	abort
 1550              	.L465:
 1551 0a28 FEFFFFEB 		bl	abort
 1552              	.L464:
 1553 0a2c FEFFFFEB 		bl	abort
 1554              	.L478:
 1555 0a30 FEFFFFEB 		bl	abort
 1556              	.L462:
 1557 0a34 FEFFFFEB 		bl	abort
 1558              	.LEHE14:
 1559              	.L463:
 1560              	.LEHB15:
 1561 0a38 FEFFFFEB 		bl	abort
 1562              	.LEHE15:
 1563              	.L325:
 1564              	.LEHB16:
 1565 0a3c FEFFFFEB 		bl	abort
 1566              	.L331:
 1567 0a40 82FFFFEA 		b	.L320
 1568              	.L460:
 1569 0a44 FEFFFFEB 		bl	abort
 1570              	.L459:
 1571 0a48 FEFFFFEB 		bl	abort
 1572              	.LEHE16:
 1573              	.L458:
 1574              	.LEHB17:
 1575 0a4c FEFFFFEB 		bl	abort
 1576              	.LEHE17:
 1577              	.L457:
 1578              	.LEHB18:
 1579 0a50 FEFFFFEB 		bl	abort
 1580              	.LEHE18:
 1581              	.L471:
 1582              	.LEHB19:
 1583 0a54 FEFFFFEB 		bl	abort
 1584              	.L469:
 1585 0a58 FEFFFFEB 		bl	abort
 1586              	.L468:
 1587 0a5c FEFFFFEB 		bl	abort
 1588              	.L477:
 1589 0a60 FEFFFFEB 		bl	abort
 1590              	.L476:
 1591 0a64 FEFFFFEB 		bl	abort
 1592              	.L470:
 1593 0a68 FEFFFFEB 		bl	abort
 1594              	.LEHE19:
 1595              	.L330:
 1596 0a6c F8309DE5 		ldr	r3, [sp, #248]
 1597 0a70 20308DE5 		str	r3, [sp, #32]
 1598 0a74 87FFFFEA 		b	.L316
 1599              		.personality	__gxx_personality_v0
 1600              		.handlerdata
 1601              	.LLSDA1181:
 1602 0008 FF       		.byte	0xff
 1603 0009 FF       		.byte	0xff
 1604 000a 01       		.byte	0x1
 1605 000b 3B       		.uleb128 .LLSDACSE1181-.LLSDACSB1181
 1606              	.LLSDACSB1181:
 1607 000c A401     		.uleb128 .LEHB10-.LFB1181
 1608 000e 04       		.uleb128 .LEHE10-.LEHB10
 1609 000f 00       		.uleb128 0
 1610 0010 00       		.uleb128 0
 1611 0011 8002     		.uleb128 .LEHB11-.LFB1181
 1612 0013 04       		.uleb128 .LEHE11-.LEHB11
 1613 0014 8C11     		.uleb128 .L327-.LFB1181
 1614 0016 00       		.uleb128 0
 1615 0017 DC02     		.uleb128 .LEHB12-.LFB1181
 1616 0019 04       		.uleb128 .LEHE12-.LEHB12
 1617 001a D010     		.uleb128 .L328-.LFB1181
 1618 001c 00       		.uleb128 0
 1619 001d 8811     		.uleb128 .LEHB13-.LFB1181
 1620 001f 04       		.uleb128 .LEHE13-.LEHB13
 1621 0020 00       		.uleb128 0
 1622 0021 00       		.uleb128 0
 1623 0022 9011     		.uleb128 .LEHB14-.LFB1181
 1624 0024 A803     		.uleb128 .LEHE14-.LEHB14
 1625 0026 9411     		.uleb128 .L329-.LFB1181
 1626 0028 00       		.uleb128 0
 1627 0029 B814     		.uleb128 .LEHB15-.LFB1181
 1628 002b 04       		.uleb128 .LEHE15-.LEHB15
 1629 002c C014     		.uleb128 .L331-.LFB1181
 1630 002e 00       		.uleb128 0
 1631 002f BC14     		.uleb128 .LEHB16-.LFB1181
 1632 0031 10       		.uleb128 .LEHE16-.LEHB16
 1633 0032 9411     		.uleb128 .L329-.LFB1181
 1634 0034 00       		.uleb128 0
 1635 0035 CC14     		.uleb128 .LEHB17-.LFB1181
 1636 0037 04       		.uleb128 .LEHE17-.LEHB17
 1637 0038 C014     		.uleb128 .L331-.LFB1181
 1638 003a 00       		.uleb128 0
 1639 003b D014     		.uleb128 .LEHB18-.LFB1181
 1640 003d 04       		.uleb128 .LEHE18-.LEHB18
 1641 003e EC14     		.uleb128 .L330-.LFB1181
 1642 0040 00       		.uleb128 0
 1643 0041 D414     		.uleb128 .LEHB19-.LFB1181
 1644 0043 18       		.uleb128 .LEHE19-.LEHB19
 1645 0044 9411     		.uleb128 .L329-.LFB1181
 1646 0046 00       		.uleb128 0
 1647              	.LLSDACSE1181:
 1648              		.section	.text._ZN6tflite13reference_ops21ResizeBilinearIntegerIaEEvRKNS_20ResizeBilinearParamsERK
 1649              		.fnend
 1651              		.section	.text._ZN6tflite12_GLOBAL__N_14EvalEP13TfLiteContextP10TfLiteNode,"ax",%progbits
 1652              		.align	2
 1653              		.syntax unified
 1654              		.arm
 1655              		.fpu neon
 1657              	_ZN6tflite12_GLOBAL__N_14EvalEP13TfLiteContextP10TfLiteNode:
 1658              		.fnstart
 1659              	.LFB1168:
 1660              		@ args = 0, pretend = 0, frame = 80
 1661              		@ frame_needed = 0, uses_anonymous_args = 0
 1662 0000 F0432DE9 		push	{r4, r5, r6, r7, r8, r9, lr}
 1663              		.save {r4, r5, r6, r7, r8, r9, lr}
 1664 0004 004050E2 		subs	r4, r0, #0
 1665              		.pad #100
 1666 0008 64D04DE2 		sub	sp, sp, #100
 1667 000c 148091E5 		ldr	r8, [r1, #20]
 1668 0010 7000000A 		beq	.L582
 1669 0014 002091E5 		ldr	r2, [r1]
 1670 0018 0150A0E1 		mov	r5, r1
 1671 001c 543094E5 		ldr	r3, [r4, #84]
 1672 0020 041092E5 		ldr	r1, [r2, #4]
 1673              	.LEHB20:
 1674 0024 33FF2FE1 		blx	r3
 1675 0028 002095E5 		ldr	r2, [r5]
 1676 002c 0070A0E1 		mov	r7, r0
 1677 0030 543094E5 		ldr	r3, [r4, #84]
 1678 0034 0400A0E1 		mov	r0, r4
 1679 0038 081092E5 		ldr	r1, [r2, #8]
 1680 003c 33FF2FE1 		blx	r3
 1681 0040 042095E5 		ldr	r2, [r5, #4]
 1682 0044 0060A0E1 		mov	r6, r0
 1683 0048 543094E5 		ldr	r3, [r4, #84]
 1684 004c 0400A0E1 		mov	r0, r4
 1685 0050 041092E5 		ldr	r1, [r2, #4]
 1686 0054 33FF2FE1 		blx	r3
 1687 0058 0830D0E5 		ldrb	r3, [r0, #8]	@ zero_extendqisi2
 1688 005c 0040A0E1 		mov	r4, r0
 1689 0060 010053E3 		cmp	r3, #1
 1690 0064 3B00000A 		beq	.L583
 1691 0068 090053E3 		cmp	r3, #9
 1692 006c 0100A013 		movne	r0, #1
 1693 0070 0100000A 		beq	.L584
 1694 0074 64D08DE2 		add	sp, sp, #100
 1695              		@ sp needed
 1696 0078 F083BDE8 		pop	{r4, r5, r6, r7, r8, r9, pc}
 1697              	.L584:
 1698 007c 0020D8E5 		ldrb	r2, [r8]	@ zero_extendqisi2
 1699 0080 18508DE2 		add	r5, sp, #24
 1700 0084 0130D8E5 		ldrb	r3, [r8, #1]	@ zero_extendqisi2
 1701 0088 0500A0E1 		mov	r0, r5
 1702 008c 0710A0E1 		mov	r1, r7
 1703 0090 1420CDE5 		strb	r2, [sp, #20]
 1704 0094 1530CDE5 		strb	r3, [sp, #21]
 1705 0098 FEFFFFEB 		bl	_ZN6tflite5micro14GetTensorShapeEPK16TfLiteEvalTensor
 1706              	.LEHE20:
 1707 009c 000057E3 		cmp	r7, #0
 1708 00a0 6100000A 		beq	.L585
 1709 00a4 30808DE2 		add	r8, sp, #48
 1710 00a8 0610A0E1 		mov	r1, r6
 1711 00ac 0800A0E1 		mov	r0, r8
 1712 00b0 009097E5 		ldr	r9, [r7]
 1713              	.LEHB21:
 1714 00b4 FEFFFFEB 		bl	_ZN6tflite5micro14GetTensorShapeEPK16TfLiteEvalTensor
 1715              	.LEHE21:
 1716 00b8 000056E3 		cmp	r6, #0
 1717 00bc 5800000A 		beq	.L586
 1718 00c0 48708DE2 		add	r7, sp, #72
 1719 00c4 0410A0E1 		mov	r1, r4
 1720 00c8 0700A0E1 		mov	r0, r7
 1721 00cc 006096E5 		ldr	r6, [r6]
 1722              	.LEHB22:
 1723 00d0 FEFFFFEB 		bl	_ZN6tflite5micro14GetTensorShapeEPK16TfLiteEvalTensor
 1724              	.LEHE22:
 1725 00d4 000094E5 		ldr	r0, [r4]
 1726 00d8 0830A0E1 		mov	r3, r8
 1727 00dc 04708DE5 		str	r7, [sp, #4]
 1728 00e0 0920A0E1 		mov	r2, r9
 1729 00e4 00608DE5 		str	r6, [sp]
 1730 00e8 0510A0E1 		mov	r1, r5
 1731 00ec 08008DE5 		str	r0, [sp, #8]
 1732 00f0 14008DE2 		add	r0, sp, #20
 1733              	.LEHB23:
 1734 00f4 FEFFFFEB 		bl	_ZN6tflite13reference_ops21ResizeBilinearIntegerIaEEvRKNS_20ResizeBilinearParamsERKNS_12Runtime
 1735              	.LEHE23:
 1736              	.L579:
 1737 00f8 48309DE5 		ldr	r3, [sp, #72]
 1738 00fc 050053E3 		cmp	r3, #5
 1739 0100 030000DA 		ble	.L496
 1740 0104 4C009DE5 		ldr	r0, [sp, #76]
 1741 0108 000050E3 		cmp	r0, #0
 1742 010c 0000000A 		beq	.L496
 1743 0110 FEFFFFEB 		bl	_ZdaPv
 1744              	.L496:
 1745 0114 30309DE5 		ldr	r3, [sp, #48]
 1746 0118 050053E3 		cmp	r3, #5
 1747 011c 030000DA 		ble	.L497
 1748 0120 34009DE5 		ldr	r0, [sp, #52]
 1749 0124 000050E3 		cmp	r0, #0
 1750 0128 0000000A 		beq	.L497
 1751 012c FEFFFFEB 		bl	_ZdaPv
 1752              	.L497:
 1753 0130 18309DE5 		ldr	r3, [sp, #24]
 1754 0134 050053E3 		cmp	r3, #5
 1755 0138 030000DA 		ble	.L498
 1756 013c 1C009DE5 		ldr	r0, [sp, #28]
 1757 0140 000050E3 		cmp	r0, #0
 1758 0144 0000000A 		beq	.L498
 1759 0148 FEFFFFEB 		bl	_ZdaPv
 1760              	.L498:
 1761 014c 0000A0E3 		mov	r0, #0
 1762 0150 64D08DE2 		add	sp, sp, #100
 1763              		@ sp needed
 1764 0154 F083BDE8 		pop	{r4, r5, r6, r7, r8, r9, pc}
 1765              	.L583:
 1766 0158 0020D8E5 		ldrb	r2, [r8]	@ zero_extendqisi2
 1767 015c 18508DE2 		add	r5, sp, #24
 1768 0160 0130D8E5 		ldrb	r3, [r8, #1]	@ zero_extendqisi2
 1769 0164 0500A0E1 		mov	r0, r5
 1770 0168 0710A0E1 		mov	r1, r7
 1771 016c 1420CDE5 		strb	r2, [sp, #20]
 1772 0170 1530CDE5 		strb	r3, [sp, #21]
 1773              	.LEHB24:
 1774 0174 FEFFFFEB 		bl	_ZN6tflite5micro14GetTensorShapeEPK16TfLiteEvalTensor
 1775              	.LEHE24:
 1776 0178 000057E3 		cmp	r7, #0
 1777 017c 2600000A 		beq	.L587
 1778 0180 30808DE2 		add	r8, sp, #48
 1779 0184 0610A0E1 		mov	r1, r6
 1780 0188 0800A0E1 		mov	r0, r8
 1781 018c 009097E5 		ldr	r9, [r7]
 1782              	.LEHB25:
 1783 0190 FEFFFFEB 		bl	_ZN6tflite5micro14GetTensorShapeEPK16TfLiteEvalTensor
 1784              	.LEHE25:
 1785 0194 000056E3 		cmp	r6, #0
 1786 0198 0F00000A 		beq	.L588
 1787 019c 48708DE2 		add	r7, sp, #72
 1788 01a0 0410A0E1 		mov	r1, r4
 1789 01a4 0700A0E1 		mov	r0, r7
 1790 01a8 006096E5 		ldr	r6, [r6]
 1791              	.LEHB26:
 1792 01ac FEFFFFEB 		bl	_ZN6tflite5micro14GetTensorShapeEPK16TfLiteEvalTensor
 1793              	.LEHE26:
 1794 01b0 000094E5 		ldr	r0, [r4]
 1795 01b4 0830A0E1 		mov	r3, r8
 1796 01b8 04708DE5 		str	r7, [sp, #4]
 1797 01bc 0920A0E1 		mov	r2, r9
 1798 01c0 00608DE5 		str	r6, [sp]
 1799 01c4 0510A0E1 		mov	r1, r5
 1800 01c8 08008DE5 		str	r0, [sp, #8]
 1801 01cc 14008DE2 		add	r0, sp, #20
 1802              	.LEHB27:
 1803 01d0 FEFFFFEB 		bl	_ZN6tflite13reference_ops14ResizeBilinearIfEEvRKNS_20ResizeBilinearParamsERKNS_12RuntimeShapeEP
 1804              	.LEHE27:
 1805 01d4 C7FFFFEA 		b	.L579
 1806              	.L582:
 1807              	.LEHB28:
 1808 01d8 FEFFFFEB 		bl	abort
 1809              	.LEHE28:
 1810              	.L588:
 1811              	.LEHB29:
 1812 01dc FEFFFFEB 		bl	abort
 1813              	.LEHE29:
 1814              	.L513:
 1815              	.L507:
 1816 01e0 30309DE5 		ldr	r3, [sp, #48]
 1817 01e4 050053E3 		cmp	r3, #5
 1818 01e8 030000DA 		ble	.L509
 1819 01ec 34009DE5 		ldr	r0, [sp, #52]
 1820 01f0 000050E3 		cmp	r0, #0
 1821 01f4 0000000A 		beq	.L509
 1822 01f8 FEFFFFEB 		bl	_ZdaPv
 1823              	.L509:
 1824 01fc 18309DE5 		ldr	r3, [sp, #24]
 1825 0200 050053E3 		cmp	r3, #5
 1826 0204 030000DA 		ble	.L510
 1827 0208 1C009DE5 		ldr	r0, [sp, #28]
 1828 020c 000050E3 		cmp	r0, #0
 1829 0210 0000000A 		beq	.L510
 1830 0214 FEFFFFEB 		bl	_ZdaPv
 1831              	.L510:
 1832              	.LEHB30:
 1833 0218 FEFFFFEB 		bl	__cxa_end_cleanup
 1834              	.LEHE30:
 1835              	.L587:
 1836              	.LEHB31:
 1837 021c FEFFFFEB 		bl	abort
 1838              	.LEHE31:
 1839              	.L512:
 1840 0220 F5FFFFEA 		b	.L509
 1841              	.L586:
 1842              	.LEHB32:
 1843 0224 FEFFFFEB 		bl	abort
 1844              	.LEHE32:
 1845              	.L516:
 1846 0228 ECFFFFEA 		b	.L507
 1847              	.L585:
 1848              	.LEHB33:
 1849 022c FEFFFFEB 		bl	abort
 1850              	.LEHE33:
 1851              	.L515:
 1852 0230 F1FFFFEA 		b	.L509
 1853              	.L514:
 1854              	.L581:
 1855 0234 48309DE5 		ldr	r3, [sp, #72]
 1856 0238 050053E3 		cmp	r3, #5
 1857 023c E7FFFFDA 		ble	.L507
 1858 0240 4C009DE5 		ldr	r0, [sp, #76]
 1859 0244 000050E3 		cmp	r0, #0
 1860 0248 E4FFFF0A 		beq	.L507
 1861 024c FEFFFFEB 		bl	_ZdaPv
 1862 0250 E2FFFFEA 		b	.L507
 1863              	.L517:
 1864 0254 F6FFFFEA 		b	.L581
 1865              		.personality	__gxx_personality_v0
 1866              		.handlerdata
 1867              	.LLSDA1168:
 1868 0008 FF       		.byte	0xff
 1869 0009 FF       		.byte	0xff
 1870 000a 01       		.byte	0x1
 1871 000b 4F       		.uleb128 .LLSDACSE1168-.LLSDACSB1168
 1872              	.LLSDACSB1168:
 1873 000c 24       		.uleb128 .LEHB20-.LFB1168
 1874 000d 78       		.uleb128 .LEHE20-.LEHB20
 1875 000e 00       		.uleb128 0
 1876 000f 00       		.uleb128 0
 1877 0010 B401     		.uleb128 .LEHB21-.LFB1168
 1878 0012 04       		.uleb128 .LEHE21-.LEHB21
 1879 0013 B004     		.uleb128 .L515-.LFB1168
 1880 0015 00       		.uleb128 0
 1881 0016 D001     		.uleb128 .LEHB22-.LFB1168
 1882 0018 04       		.uleb128 .LEHE22-.LEHB22
 1883 0019 A804     		.uleb128 .L516-.LFB1168
 1884 001b 00       		.uleb128 0
 1885 001c F401     		.uleb128 .LEHB23-.LFB1168
 1886 001e 04       		.uleb128 .LEHE23-.LEHB23
 1887 001f D404     		.uleb128 .L517-.LFB1168
 1888 0021 00       		.uleb128 0
 1889 0022 F402     		.uleb128 .LEHB24-.LFB1168
 1890 0024 04       		.uleb128 .LEHE24-.LEHB24
 1891 0025 00       		.uleb128 0
 1892 0026 00       		.uleb128 0
 1893 0027 9003     		.uleb128 .LEHB25-.LFB1168
 1894 0029 04       		.uleb128 .LEHE25-.LEHB25
 1895 002a A004     		.uleb128 .L512-.LFB1168
 1896 002c 00       		.uleb128 0
 1897 002d AC03     		.uleb128 .LEHB26-.LFB1168
 1898 002f 04       		.uleb128 .LEHE26-.LEHB26
 1899 0030 E003     		.uleb128 .L513-.LFB1168
 1900 0032 00       		.uleb128 0
 1901 0033 D003     		.uleb128 .LEHB27-.LFB1168
 1902 0035 04       		.uleb128 .LEHE27-.LEHB27
 1903 0036 B404     		.uleb128 .L514-.LFB1168
 1904 0038 00       		.uleb128 0
 1905 0039 D803     		.uleb128 .LEHB28-.LFB1168
 1906 003b 04       		.uleb128 .LEHE28-.LEHB28
 1907 003c 00       		.uleb128 0
 1908 003d 00       		.uleb128 0
 1909 003e DC03     		.uleb128 .LEHB29-.LFB1168
 1910 0040 04       		.uleb128 .LEHE29-.LEHB29
 1911 0041 E003     		.uleb128 .L513-.LFB1168
 1912 0043 00       		.uleb128 0
 1913 0044 9804     		.uleb128 .LEHB30-.LFB1168
 1914 0046 04       		.uleb128 .LEHE30-.LEHB30
 1915 0047 00       		.uleb128 0
 1916 0048 00       		.uleb128 0
 1917 0049 9C04     		.uleb128 .LEHB31-.LFB1168
 1918 004b 04       		.uleb128 .LEHE31-.LEHB31
 1919 004c A004     		.uleb128 .L512-.LFB1168
 1920 004e 00       		.uleb128 0
 1921 004f A404     		.uleb128 .LEHB32-.LFB1168
 1922 0051 04       		.uleb128 .LEHE32-.LEHB32
 1923 0052 A804     		.uleb128 .L516-.LFB1168
 1924 0054 00       		.uleb128 0
 1925 0055 AC04     		.uleb128 .LEHB33-.LFB1168
 1926 0057 04       		.uleb128 .LEHE33-.LEHB33
 1927 0058 B004     		.uleb128 .L515-.LFB1168
 1928 005a 00       		.uleb128 0
 1929              	.LLSDACSE1168:
 1930              		.section	.text._ZN6tflite12_GLOBAL__N_14EvalEP13TfLiteContextP10TfLiteNode
 1931              		.fnend
 1933              		.section	.rodata
 1934              		.align	2
 1935              		.set	.LANCHOR0,. + 0
 1936              	.LC0:
 1937 0000 00000000 		.word	0
 1938 0004 00000000 		.word	0
 1939 0008 00000000 		.word	_ZN6tflite12_GLOBAL__N_17PrepareEP13TfLiteContextP10TfLiteNode
 1940 000c 00000000 		.word	_ZN6tflite12_GLOBAL__N_14EvalEP13TfLiteContextP10TfLiteNode
 1941 0010 00000000 		.word	0
 1942 0014 00000000 		.word	0
 1943 0018 00000000 		.word	0
 1944 001c 00000000 		.word	0
 1945              		.ident	"GCC: (GNU Tools for ARM Embedded Processors 6-2017-q2-update) 6.3.1 20170620 (release) [AR