   1              		.cpu cortex-a9
   2              		.eabi_attribute 28, 1
   3              		.eabi_attribute 20, 1
   4              		.eabi_attribute 21, 1
   5              		.eabi_attribute 23, 3
   6              		.eabi_attribute 24, 1
   7              		.eabi_attribute 25, 1
   8              		.eabi_attribute 26, 1
   9              		.eabi_attribute 30, 2
  10              		.eabi_attribute 34, 0
  11              		.eabi_attribute 18, 4
  12              		.file	"round.cc"
  13              		.section	.text._ZN6tflite3ops5micro5round7PrepareEP13TfLiteContextP10TfLiteNode,"ax",%progbits
  14              		.align	2
  15              		.global	_ZN6tflite3ops5micro5round7PrepareEP13TfLiteContextP10TfLiteNode
  16              		.syntax unified
  17              		.arm
  18              		.fpu neon
  20              	_ZN6tflite3ops5micro5round7PrepareEP13TfLiteContextP10TfLiteNode:
  21              		.fnstart
  22              	.LFB1155:
  23              		@ args = 0, pretend = 0, frame = 0
  24              		@ frame_needed = 0, uses_anonymous_args = 0
  25 0000 70402DE9 		push	{r4, r5, r6, lr}
  26              		.save {r4, r5, r6, lr}
  27 0004 0020A0E3 		mov	r2, #0
  28 0008 0050A0E1 		mov	r5, r0
  29 000c 0140A0E1 		mov	r4, r1
  30 0010 FEFFFFEB 		bl	_ZN6tflite8GetInputEPK13TfLiteContextPK10TfLiteNodei
  31 0014 006050E2 		subs	r6, r0, #0
  32 0018 0900000A 		beq	.L4
  33 001c 0500A0E1 		mov	r0, r5
  34 0020 0020A0E3 		mov	r2, #0
  35 0024 0410A0E1 		mov	r1, r4
  36 0028 FEFFFFEB 		bl	_ZN6tflite9GetOutputEP13TfLiteContextPK10TfLiteNodei
  37 002c 000050E3 		cmp	r0, #0
  38 0030 0300000A 		beq	.L4
  39 0034 003094E5 		ldr	r3, [r4]
  40 0038 003093E5 		ldr	r3, [r3]
  41 003c 010053E3 		cmp	r3, #1
  42 0040 0100000A 		beq	.L13
  43              	.L4:
  44 0044 0100A0E3 		mov	r0, #1
  45 0048 7080BDE8 		pop	{r4, r5, r6, pc}
  46              	.L13:
  47 004c 043094E5 		ldr	r3, [r4, #4]
  48 0050 003093E5 		ldr	r3, [r3]
  49 0054 010053E3 		cmp	r3, #1
  50 0058 F9FFFF1A 		bne	.L4
  51 005c 0030D6E5 		ldrb	r3, [r6]	@ zero_extendqisi2
  52 0060 010053E3 		cmp	r3, #1
  53 0064 F6FFFF1A 		bne	.L4
  54 0068 0030D0E5 		ldrb	r3, [r0]	@ zero_extendqisi2
  55 006c 010053E3 		cmp	r3, #1
  56 0070 F3FFFF1A 		bne	.L4
  57 0074 182090E5 		ldr	r2, [r0, #24]
  58 0078 183096E5 		ldr	r3, [r6, #24]
  59 007c 030052E1 		cmp	r2, r3
  60 0080 EFFFFF1A 		bne	.L4
  61 0084 081090E5 		ldr	r1, [r0, #8]
  62 0088 082096E5 		ldr	r2, [r6, #8]
  63 008c 00E091E5 		ldr	lr, [r1]
  64 0090 003092E5 		ldr	r3, [r2]
  65 0094 03005EE1 		cmp	lr, r3
  66 0098 E9FFFF1A 		bne	.L4
  67 009c 00005EE3 		cmp	lr, #0
  68 00a0 0E0000DA 		ble	.L7
  69 00a4 040091E5 		ldr	r0, [r1, #4]
  70 00a8 043092E5 		ldr	r3, [r2, #4]
  71 00ac 030050E1 		cmp	r0, r3
  72 00b0 E3FFFF1A 		bne	.L4
  73 00b4 081081E2 		add	r1, r1, #8
  74 00b8 082082E2 		add	r2, r2, #8
  75 00bc 0030A0E3 		mov	r3, #0
  76 00c0 030000EA 		b	.L5
  77              	.L6:
  78 00c4 04C091E4 		ldr	ip, [r1], #4
  79 00c8 040092E4 		ldr	r0, [r2], #4
  80 00cc 00005CE1 		cmp	ip, r0
  81 00d0 DBFFFF1A 		bne	.L4
  82              	.L5:
  83 00d4 013083E2 		add	r3, r3, #1
  84 00d8 03005EE1 		cmp	lr, r3
  85 00dc F8FFFF1A 		bne	.L6
  86              	.L7:
  87 00e0 0000A0E3 		mov	r0, #0
  88 00e4 7080BDE8 		pop	{r4, r5, r6, pc}
  89              		.fnend
  91              		.section	.text._ZN6tflite3ops5micro5round4EvalEP13TfLiteContextP10TfLiteNode,"ax",%progbits
  92              		.align	2
  93              		.global	_ZN6tflite3ops5micro5round4EvalEP13TfLiteContextP10TfLiteNode
  94              		.syntax unified
  95              		.arm
  96              		.fpu neon
  98              	_ZN6tflite3ops5micro5round4EvalEP13TfLiteContextP10TfLiteNode:
  99              		.fnstart
 100              	.LFB1156:
 101              		@ args = 0, pretend = 0, frame = 48
 102              		@ frame_needed = 0, uses_anonymous_args = 0
 103 0000 F0432DE9 		push	{r4, r5, r6, r7, r8, r9, lr}
 104              		.save {r4, r5, r6, r7, r8, r9, lr}
 105 0004 004050E2 		subs	r4, r0, #0
 106 0008 048B2DED 		vpush.64	{d8, d9}
 107              		.vsave {d8, d9}
 108              		.pad #52
 109 000c 34D04DE2 		sub	sp, sp, #52
 110 0010 E500000A 		beq	.L16
 111 0014 000051E3 		cmp	r1, #0
 112 0018 0150A0E1 		mov	r5, r1
 113 001c E200000A 		beq	.L16
 114 0020 002091E5 		ldr	r2, [r1]
 115 0024 543094E5 		ldr	r3, [r4, #84]
 116 0028 041092E5 		ldr	r1, [r2, #4]
 117              	.LEHB0:
 118 002c 33FF2FE1 		blx	r3
 119 0030 042095E5 		ldr	r2, [r5, #4]
 120 0034 0070A0E1 		mov	r7, r0
 121 0038 543094E5 		ldr	r3, [r4, #84]
 122 003c 0400A0E1 		mov	r0, r4
 123 0040 041092E5 		ldr	r1, [r2, #4]
 124 0044 33FF2FE1 		blx	r3
 125 0048 0710A0E1 		mov	r1, r7
 126 004c 0060A0E1 		mov	r6, r0
 127 0050 0D00A0E1 		mov	r0, sp
 128 0054 FEFFFFEB 		bl	_ZN6tflite5micro14GetTensorShapeEPK16TfLiteEvalTensor
 129              	.LEHE0:
 130 0058 000057E3 		cmp	r7, #0
 131 005c D400000A 		beq	.L100
 132 0060 0610A0E1 		mov	r1, r6
 133 0064 18008DE2 		add	r0, sp, #24
 134 0068 007097E5 		ldr	r7, [r7]
 135              	.LEHB1:
 136 006c FEFFFFEB 		bl	_ZN6tflite5micro14GetTensorShapeEPK16TfLiteEvalTensor
 137              	.LEHE1:
 138 0070 00209DE5 		ldr	r2, [sp]
 139 0074 000056E3 		cmp	r6, #0
 140 0078 18809DE5 		ldr	r8, [sp, #24]
 141 007c 00609615 		ldrne	r6, [r6]
 142 0080 080052E1 		cmp	r2, r8
 143 0084 C700001A 		bne	.L19
 144 0088 000052E3 		cmp	r2, #0
 145 008c AF0000DA 		ble	.L59
 146 0090 050052E3 		cmp	r2, #5
 147 0094 04409DE5 		ldr	r4, [sp, #4]
 148 0098 1C109DE5 		ldr	r1, [sp, #28]
 149 009c 9C0000CA 		bgt	.L22
 150 00a0 000052E3 		cmp	r2, #0
 151 00a4 AE0000DA 		ble	.L23
 152 00a8 010054E1 		cmp	r4, r1
 153 00ac BC00001A 		bne	.L24
 154 00b0 010052E3 		cmp	r2, #1
 155 00b4 1900000A 		beq	.L58
 156 00b8 08109DE5 		ldr	r1, [sp, #8]
 157 00bc 20309DE5 		ldr	r3, [sp, #32]
 158 00c0 030051E1 		cmp	r1, r3
 159 00c4 B600001A 		bne	.L24
 160 00c8 020052E3 		cmp	r2, #2
 161 00cc 1300000A 		beq	.L58
 162 00d0 0C109DE5 		ldr	r1, [sp, #12]
 163 00d4 24309DE5 		ldr	r3, [sp, #36]
 164 00d8 030051E1 		cmp	r1, r3
 165 00dc B000001A 		bne	.L24
 166 00e0 030052E3 		cmp	r2, #3
 167 00e4 0D00000A 		beq	.L58
 168 00e8 030058E3 		cmp	r8, #3
 169 00ec 10109DE5 		ldr	r1, [sp, #16]
 170 00f0 9B00000A 		beq	.L23
 171 00f4 28309DE5 		ldr	r3, [sp, #40]
 172 00f8 030051E1 		cmp	r1, r3
 173 00fc A800001A 		bne	.L24
 174 0100 040052E3 		cmp	r2, #4
 175 0104 0500000A 		beq	.L58
 176 0108 040058E3 		cmp	r8, #4
 177 010c 14309DE5 		ldr	r3, [sp, #20]
 178 0110 9300000A 		beq	.L23
 179 0114 2C109DE5 		ldr	r1, [sp, #44]
 180 0118 030051E1 		cmp	r1, r3
 181 011c A000001A 		bne	.L24
 182              	.L58:
 183 0120 04C08DE2 		add	ip, sp, #4
 184              	.L25:
 185 0124 5C31A0E7 		sbfx	r3, ip, #2, #1
 186 0128 033003E2 		and	r3, r3, #3
 187 012c 020053E1 		cmp	r3, r2
 188 0130 0230A021 		movcs	r3, r2
 189 0134 080052E3 		cmp	r2, #8
 190 0138 0230A091 		movls	r3, r2
 191 013c 000053E3 		cmp	r3, #0
 192 0140 8400000A 		beq	.L60
 193 0144 010053E3 		cmp	r3, #1
 194 0148 00509CE5 		ldr	r5, [ip]
 195 014c 6E00000A 		beq	.L67
 196 0150 04109CE5 		ldr	r1, [ip, #4]
 197 0154 020053E3 		cmp	r3, #2
 198 0158 910505E0 		mul	r5, r1, r5
 199 015c 6A00000A 		beq	.L67
 200 0160 08109CE5 		ldr	r1, [ip, #8]
 201 0164 030053E3 		cmp	r3, #3
 202 0168 910505E0 		mul	r5, r1, r5
 203 016c 6600000A 		beq	.L67
 204 0170 0C109CE5 		ldr	r1, [ip, #12]
 205 0174 040053E3 		cmp	r3, #4
 206 0178 910505E0 		mul	r5, r1, r5
 207 017c 6200000A 		beq	.L67
 208 0180 10109CE5 		ldr	r1, [ip, #16]
 209 0184 050053E3 		cmp	r3, #5
 210 0188 910505E0 		mul	r5, r1, r5
 211 018c 5E00000A 		beq	.L67
 212 0190 14109CE5 		ldr	r1, [ip, #20]
 213 0194 060053E3 		cmp	r3, #6
 214 0198 910505E0 		mul	r5, r1, r5
 215 019c 5A00000A 		beq	.L67
 216 01a0 18109CE5 		ldr	r1, [ip, #24]
 217 01a4 070053E3 		cmp	r3, #7
 218 01a8 910505E0 		mul	r5, r1, r5
 219 01ac 5600000A 		beq	.L67
 220 01b0 1C109CE5 		ldr	r1, [ip, #28]
 221 01b4 08E0A0E3 		mov	lr, #8
 222 01b8 910505E0 		mul	r5, r1, r5
 223              	.L33:
 224 01bc 020053E1 		cmp	r3, r2
 225 01c0 2800000A 		beq	.L34
 226              	.L32:
 227 01c4 034042E0 		sub	r4, r2, r3
 228 01c8 011042E2 		sub	r1, r2, #1
 229 01cc 040044E2 		sub	r0, r4, #4
 230 01d0 031041E0 		sub	r1, r1, r3
 231 01d4 2001A0E1 		lsr	r0, r0, #2
 232 01d8 020051E3 		cmp	r1, #2
 233 01dc 010080E2 		add	r0, r0, #1
 234 01e0 0091A0E1 		lsl	r9, r0, #2
 235 01e4 1200009A 		bls	.L35
 236 01e8 03318CE0 		add	r3, ip, r3, lsl #2
 237 01ec 5100C0F2 		vmov.i32	q8, #1  @ v4si
 238 01f0 0010A0E3 		mov	r1, #0
 239              	.L37:
 240 01f4 011081E2 		add	r1, r1, #1
 241 01f8 DF2A63F4 		vld1.64	{d18-d19}, [r3:64]
 242 01fc 010050E1 		cmp	r0, r1
 243 0200 103083E2 		add	r3, r3, #16
 244 0204 F20960F2 		vmul.i32	q8, q8, q9
 245 0208 F9FFFF8A 		bhi	.L37
 246 020c 040059E1 		cmp	r9, r4
 247 0210 09E08EE0 		add	lr, lr, r9
 248 0214 5020C0F2 		vmov.i32	q9, #0  @ v4si
 249 0218 E248F0F2 		vext.32	q10, q8, q9, #2
 250 021c F40960F2 		vmul.i32	q8, q8, q10
 251 0220 E224F0F2 		vext.32	q9, q8, q9, #1
 252 0224 F20960F2 		vmul.i32	q8, q8, q9
 253 0228 901B10EE 		vmov.32	r1, d16[0]
 254 022c 910505E0 		mul	r5, r1, r5
 255 0230 0C00000A 		beq	.L34
 256              	.L35:
 257 0234 0E119CE7 		ldr	r1, [ip, lr, lsl #2]
 258 0238 01308EE2 		add	r3, lr, #1
 259 023c 030052E1 		cmp	r2, r3
 260 0240 0E31A0E1 		lsl	r3, lr, #2
 261 0244 910505E0 		mul	r5, r1, r5
 262 0248 060000DA 		ble	.L34
 263 024c 03308CE0 		add	r3, ip, r3
 264 0250 02108EE2 		add	r1, lr, #2
 265 0254 040093E5 		ldr	r0, [r3, #4]
 266 0258 010052E1 		cmp	r2, r1
 267 025c 900505E0 		mul	r5, r0, r5
 268 0260 083093C5 		ldrgt	r3, [r3, #8]
 269 0264 930505C0 		mulgt	r5, r3, r5
 270              	.L34:
 271 0268 000055E3 		cmp	r5, #0
 272 026c 150000DA 		ble	.L43
 273              	.L20:
 274 0270 0040A0E3 		mov	r4, #0
 275 0274 008AF6EE 		vmov.f32	s17, #5.0e-1
 276 0278 009AB7EE 		vmov.f32	s18, #1.0e+0
 277              	.L44:
 278 027c 018AB7EC 		vldmia.32	r7!, {s16}
 279 0280 480AB0EE 		vmov.f32	s0, s16
 280 0284 FEFFFFEB 		bl	floorf
 281 0288 408A38EE 		vsub.f32	s16, s16, s0
 282 028c E88AB4EE 		vcmpe.f32	s16, s17
 283 0290 10FAF1EE 		vmrs	APSR_nzcv, FPSCR
 284 0294 0700004A 		bmi	.L41
 285 0298 688AB4EE 		vcmp.f32	s16, s17
 286 029c 10FAF1EE 		vmrs	APSR_nzcv, FPSCR
 287 02a0 0300001A 		bne	.L42
 288 02a4 C07AFDEE 		vcvt.s32.f32	s15, s0
 289 02a8 903A17EE 		vmov	r3, s15	@ int
 290 02ac 010013E3 		tst	r3, #1
 291 02b0 0000000A 		beq	.L41
 292              	.L42:
 293 02b4 090A30EE 		vadd.f32	s0, s0, s18
 294              	.L41:
 295 02b8 014084E2 		add	r4, r4, #1
 296 02bc 010AA6EC 		vstmia.32	r6!, {s0}
 297 02c0 050054E1 		cmp	r4, r5
 298 02c4 ECFFFFBA 		blt	.L44
 299              	.L43:
 300 02c8 050058E3 		cmp	r8, #5
 301 02cc 0A0000DA 		ble	.L86
 302 02d0 1C009DE5 		ldr	r0, [sp, #28]
 303 02d4 000050E3 		cmp	r0, #0
 304 02d8 0300000A 		beq	.L51
 305 02dc FEFFFFEB 		bl	_ZdaPv
 306 02e0 00309DE5 		ldr	r3, [sp]
 307 02e4 050053E3 		cmp	r3, #5
 308 02e8 030000DA 		ble	.L86
 309              	.L51:
 310 02ec 04009DE5 		ldr	r0, [sp, #4]
 311 02f0 000050E3 		cmp	r0, #0
 312 02f4 0000000A 		beq	.L86
 313 02f8 FEFFFFEB 		bl	_ZdaPv
 314              	.L86:
 315 02fc 0000A0E3 		mov	r0, #0
 316 0300 34D08DE2 		add	sp, sp, #52
 317              		@ sp needed
 318 0304 048BBDEC 		vldm	sp!, {d8-d9}
 319 0308 F083BDE8 		pop	{r4, r5, r6, r7, r8, r9, pc}
 320              	.L67:
 321 030c 03E0A0E1 		mov	lr, r3
 322 0310 A9FFFFEA 		b	.L33
 323              	.L22:
 324 0314 041041E2 		sub	r1, r1, #4
 325 0318 040044E2 		sub	r0, r4, #4
 326 031c 0030A0E3 		mov	r3, #0
 327              	.L28:
 328 0320 030058E1 		cmp	r8, r3
 329 0324 04C0B0E5 		ldr	ip, [r0, #4]!
 330 0328 0D0000DA 		ble	.L23
 331 032c 04E0B1E5 		ldr	lr, [r1, #4]!
 332 0330 0E005CE1 		cmp	ip, lr
 333 0334 1A00001A 		bne	.L24
 334 0338 013083E2 		add	r3, r3, #1
 335 033c 030052E1 		cmp	r2, r3
 336 0340 F6FFFF1A 		bne	.L28
 337 0344 000052E3 		cmp	r2, #0
 338 0348 04C0A0E1 		mov	ip, r4
 339 034c 74FFFFCA 		bgt	.L25
 340              	.L59:
 341 0350 0150A0E3 		mov	r5, #1
 342 0354 C5FFFFEA 		b	.L20
 343              	.L60:
 344 0358 0150A0E3 		mov	r5, #1
 345 035c 03E0A0E1 		mov	lr, r3
 346 0360 97FFFFEA 		b	.L32
 347              	.L23:
 348              	.LEHB2:
 349 0364 FEFFFFEB 		bl	abort
 350              	.LEHE2:
 351              	.L69:
 352 0368 18309DE5 		ldr	r3, [sp, #24]
 353 036c 050053E3 		cmp	r3, #5
 354 0370 030000DA 		ble	.L49
 355 0374 1C009DE5 		ldr	r0, [sp, #28]
 356 0378 000050E3 		cmp	r0, #0
 357 037c 0000000A 		beq	.L49
 358 0380 FEFFFFEB 		bl	_ZdaPv
 359              	.L49:
 360 0384 00309DE5 		ldr	r3, [sp]
 361 0388 050053E3 		cmp	r3, #5
 362 038c 030000DA 		ble	.L50
 363 0390 04009DE5 		ldr	r0, [sp, #4]
 364 0394 000050E3 		cmp	r0, #0
 365 0398 0000000A 		beq	.L50
 366 039c FEFFFFEB 		bl	_ZdaPv
 367              	.L50:
 368              	.LEHB3:
 369 03a0 FEFFFFEB 		bl	__cxa_end_cleanup
 370              	.LEHE3:
 371              	.L24:
 372              	.LEHB4:
 373 03a4 FEFFFFEB 		bl	abort
 374              	.L19:
 375 03a8 FEFFFFEB 		bl	abort
 376              	.LEHE4:
 377              	.L16:
 378              	.LEHB5:
 379 03ac FEFFFFEB 		bl	abort
 380              	.LEHE5:
 381              	.L68:
 382 03b0 F3FFFFEA 		b	.L49
 383              	.L100:
 384              	.LEHB6:
 385 03b4 FEFFFFEB 		bl	abort
 386              	.LEHE6:
 387              		.global	__gxx_personality_v0
 388              		.personality	__gxx_personality_v0
 389              		.handlerdata
 390              	.LLSDA1156:
 391 000c FF       		.byte	0xff
 392 000d FF       		.byte	0xff
 393 000e 01       		.byte	0x1
 394 000f 25       		.uleb128 .LLSDACSE1156-.LLSDACSB1156
 395              	.LLSDACSB1156:
 396 0010 2C       		.uleb128 .LEHB0-.LFB1156
 397 0011 2C       		.uleb128 .LEHE0-.LEHB0
 398 0012 00       		.uleb128 0
 399 0013 00       		.uleb128 0
 400 0014 6C       		.uleb128 .LEHB1-.LFB1156
 401 0015 04       		.uleb128 .LEHE1-.LEHB1
 402 0016 B007     		.uleb128 .L68-.LFB1156
 403 0018 00       		.uleb128 0
 404 0019 E406     		.uleb128 .LEHB2-.LFB1156
 405 001b 04       		.uleb128 .LEHE2-.LEHB2
 406 001c E806     		.uleb128 .L69-.LFB1156
 407 001e 00       		.uleb128 0
 408 001f A007     		.uleb128 .LEHB3-.LFB1156
 409 0021 04       		.uleb128 .LEHE3-.LEHB3
 410 0022 00       		.uleb128 0
 411 0023 00       		.uleb128 0
 412 0024 A407     		.uleb128 .LEHB4-.LFB1156
 413 0026 08       		.uleb128 .LEHE4-.LEHB4
 414 0027 E806     		.uleb128 .L69-.LFB1156
 415 0029 00       		.uleb128 0
 416 002a AC07     		.uleb128 .LEHB5-.LFB1156
 417 002c 04       		.uleb128 .LEHE5-.LEHB5
 418 002d 00       		.uleb128 0
 419 002e 00       		.uleb128 0
 420 002f B407     		.uleb128 .LEHB6-.LFB1156
 421 0031 04       		.uleb128 .LEHE6-.LEHB6
 422 0032 B007     		.uleb128 .L68-.LFB1156
 423 0034 00       		.uleb128 0
 424              	.LLSDACSE1156:
 425              		.section	.text._ZN6tflite3ops5micro5round4EvalEP13TfLiteContextP10TfLiteNode
 426              		.fnend
 428              		.section	.text._ZN6tflite3ops5micro14Register_ROUNDEv,"ax",%progbits
 429              		.align	2
 430              		.global	_ZN6tflite3ops5micro14Register_ROUNDEv
 431              		.syntax unified
 432              		.arm
 433              		.fpu neon
 435              	_ZN6tflite3ops5micro14Register_ROUNDEv:
 436              		.fnstart
 437              	.LFB1157:
 438              		@ args = 0, pretend = 0, frame = 0
 439              		@ frame_needed = 0, uses_anonymous_args = 0
 440 0000 00C000E3 		movw	ip, #:lower16:.LANCHOR0
 441 0004 10402DE9 		push	{r4, lr}
 442 0008 00C040E3 		movt	ip, #:upper16:.LANCHOR0
 443 000c 0040A0E1 		mov	r4, r0
 444 0010 00E0A0E1 		mov	lr, r0
 445 0014 0F00BCE8 		ldmia	ip!, {r0, r1, r2, r3}
 446 0018 0F00AEE8 		stmia	lr!, {r0, r1, r2, r3}
 447 001c 0F009CE8 		ldm	ip, {r0, r1, r2, r3}
 448 0020 0F008EE8 		stm	lr, {r0, r1, r2, r3}
 449 0024 0400A0E1 		mov	r0, r4
 450 0028 1080BDE8 		pop	{r4, pc}
 451              		.cantunwind
 452              		.fnend
 454              		.section	.rodata
 455              		.align	2
 456              		.set	.LANCHOR0,. + 0
 457              	.LC0:
 458 0000 00000000 		.word	0
 459 0004 00000000 		.word	0
 460 0008 00000000 		.word	_ZN6tflite3ops5micro5round7PrepareEP13TfLiteContextP10TfLiteNode
 461 000c 00000000 		.word	_ZN6tflite3ops5micro5round4EvalEP13TfLiteContextP10TfLiteNode
 462 0010 00000000 		.word	0
 463 0014 00000000 		.word	0
 464 0018 00000000 		.word	0
 465 001c 00000000 		.word	0
 466              		.ident	"GCC: (GNU Tools for ARM Embedded Processors 6-2017-q2-update) 6.3.1 20170620 (release) [AR