   1              		.cpu cortex-a9
   2              		.eabi_attribute 28, 1
   3              		.eabi_attribute 20, 1
   4              		.eabi_attribute 21, 1
   5              		.eabi_attribute 23, 3
   6              		.eabi_attribute 24, 1
   7              		.eabi_attribute 25, 1
   8              		.eabi_attribute 26, 1
   9              		.eabi_attribute 30, 2
  10              		.eabi_attribute 34, 0
  11              		.eabi_attribute 18, 4
  12              		.file	"squeeze.cc"
  13              		.section	.text._ZN6tflite12_GLOBAL__N_17PrepareEP13TfLiteContextP10TfLiteNode,"ax",%progbits
  14              		.align	2
  15              		.syntax unified
  16              		.arm
  17              		.fpu neon
  19              	_ZN6tflite12_GLOBAL__N_17PrepareEP13TfLiteContextP10TfLiteNode:
  20              		.fnstart
  21              	.LFB6928:
  22              		@ args = 0, pretend = 0, frame = 8
  23              		@ frame_needed = 0, uses_anonymous_args = 0
  24 0000 003091E5 		ldr	r3, [r1]
  25 0004 003093E5 		ldr	r3, [r3]
  26 0008 010053E3 		cmp	r3, #1
  27 000c 0100000A 		beq	.L80
  28 0010 0100A0E3 		mov	r0, #1
  29 0014 1EFF2FE1 		bx	lr
  30              	.L80:
  31 0018 F0412DE9 		push	{r4, r5, r6, r7, r8, lr}
  32              		.save {r4, r5, r6, r7, r8, lr}
  33 001c 0140A0E1 		mov	r4, r1
  34 0020 04E091E5 		ldr	lr, [r1, #4]
  35              		.pad #8
  36 0024 08D04DE2 		sub	sp, sp, #8
  37 0028 00609EE5 		ldr	r6, [lr]
  38 002c 010056E3 		cmp	r6, #1
  39 0030 0200000A 		beq	.L81
  40              	.L22:
  41 0034 0100A0E3 		mov	r0, #1
  42              	.L72:
  43 0038 08D08DE2 		add	sp, sp, #8
  44              		@ sp needed
  45 003c F081BDE8 		pop	{r4, r5, r6, r7, r8, pc}
  46              	.L81:
  47 0040 0050A0E1 		mov	r5, r0
  48 0044 0020A0E3 		mov	r2, #0
  49 0048 147091E5 		ldr	r7, [r1, #20]
  50 004c FEFFFFEB 		bl	_ZN6tflite8GetInputEPK13TfLiteContextPK10TfLiteNodei
  51 0050 0410A0E1 		mov	r1, r4
  52 0054 0080A0E1 		mov	r8, r0
  53 0058 0020A0E3 		mov	r2, #0
  54 005c 0500A0E1 		mov	r0, r5
  55 0060 FEFFFFEB 		bl	_ZN6tflite9GetOutputEP13TfLiteContextPK10TfLiteNodei
  56 0064 08E098E5 		ldr	lr, [r8, #8]
  57 0068 00109EE5 		ldr	r1, [lr]
  58 006c 080051E3 		cmp	r1, #8
  59 0070 EFFFFFCA 		bgt	.L22
  60 0074 204097E5 		ldr	r4, [r7, #32]
  61 0078 0020A0E3 		mov	r2, #0
  62 007c 085090E5 		ldr	r5, [r0, #8]
  63 0080 04208DE5 		str	r2, [sp, #4]
  64 0084 020054E1 		cmp	r4, r2
  65 0088 00208DE5 		str	r2, [sp]
  66 008c 6A00000A 		beq	.L5
  67 0090 04C047C2 		subgt	ip, r7, #4
  68 0094 110000DA 		ble	.L6
  69              	.L23:
  70 0098 0430BCE5 		ldr	r3, [ip, #4]!
  71 009c 000053E3 		cmp	r3, #0
  72 00a0 013083B0 		addlt	r3, r3, r1
  73 00a4 030051E1 		cmp	r1, r3
  74 00a8 0000A0C3 		movgt	r0, #0
  75 00ac 0100A0D3 		movle	r0, #1
  76 00b0 A30F90E1 		orrs	r0, r0, r3, lsr #31
  77 00b4 DEFFFF1A 		bne	.L22
  78 00b8 03018EE0 		add	r0, lr, r3, lsl #2
  79 00bc 040090E5 		ldr	r0, [r0, #4]
  80 00c0 010050E3 		cmp	r0, #1
  81 00c4 DAFFFF1A 		bne	.L22
  82 00c8 012082E2 		add	r2, r2, #1
  83 00cc 08708DE2 		add	r7, sp, #8
  84 00d0 020054E1 		cmp	r4, r2
  85 00d4 033087E0 		add	r3, r7, r3
  86 00d8 080043E5 		strb	r0, [r3, #-8]
  87 00dc EDFFFF1A 		bne	.L23
  88              	.L6:
  89 00e0 000051E3 		cmp	r1, #0
  90 00e4 520000DA 		ble	.L19
  91 00e8 0030DDE5 		ldrb	r3, [sp]	@ zero_extendqisi2
  92 00ec 000053E3 		cmp	r3, #0
  93 00f0 8300001A 		bne	.L36
  94 00f4 04209EE5 		ldr	r2, [lr, #4]
  95              	.L32:
  96 00f8 043095E5 		ldr	r3, [r5, #4]
  97 00fc 030052E1 		cmp	r2, r3
  98 0100 7E0000CA 		bgt	.L25
  99              	.L24:
 100 0104 010051E3 		cmp	r1, #1
 101 0108 490000DA 		ble	.L19
 102              	.L33:
 103 010c 0130DDE5 		ldrb	r3, [sp, #1]	@ zero_extendqisi2
 104 0110 000053E3 		cmp	r3, #0
 105 0114 0500001A 		bne	.L26
 106 0118 063185E0 		add	r3, r5, r6, lsl #2
 107 011c 08209EE5 		ldr	r2, [lr, #8]
 108 0120 016086E2 		add	r6, r6, #1
 109 0124 043093E5 		ldr	r3, [r3, #4]
 110 0128 030052E1 		cmp	r2, r3
 111 012c 730000CA 		bgt	.L25
 112              	.L26:
 113 0130 020051E3 		cmp	r1, #2
 114 0134 3E0000DA 		ble	.L19
 115 0138 0230DDE5 		ldrb	r3, [sp, #2]	@ zero_extendqisi2
 116 013c 000053E3 		cmp	r3, #0
 117 0140 0500001A 		bne	.L27
 118 0144 063185E0 		add	r3, r5, r6, lsl #2
 119 0148 0C209EE5 		ldr	r2, [lr, #12]
 120 014c 016086E2 		add	r6, r6, #1
 121 0150 043093E5 		ldr	r3, [r3, #4]
 122 0154 030052E1 		cmp	r2, r3
 123 0158 680000CA 		bgt	.L25
 124              	.L27:
 125 015c 030051E3 		cmp	r1, #3
 126 0160 3300000A 		beq	.L19
 127 0164 0330DDE5 		ldrb	r3, [sp, #3]	@ zero_extendqisi2
 128 0168 000053E3 		cmp	r3, #0
 129 016c 0500001A 		bne	.L28
 130 0170 062185E0 		add	r2, r5, r6, lsl #2
 131 0174 10309EE5 		ldr	r3, [lr, #16]
 132 0178 016086E2 		add	r6, r6, #1
 133 017c 042092E5 		ldr	r2, [r2, #4]
 134 0180 030052E1 		cmp	r2, r3
 135 0184 5D0000BA 		blt	.L25
 136              	.L28:
 137 0188 040051E3 		cmp	r1, #4
 138 018c 2800000A 		beq	.L19
 139 0190 0430DDE5 		ldrb	r3, [sp, #4]	@ zero_extendqisi2
 140 0194 000053E3 		cmp	r3, #0
 141 0198 0500001A 		bne	.L29
 142 019c 062185E0 		add	r2, r5, r6, lsl #2
 143 01a0 14309EE5 		ldr	r3, [lr, #20]
 144 01a4 016086E2 		add	r6, r6, #1
 145 01a8 042092E5 		ldr	r2, [r2, #4]
 146 01ac 030052E1 		cmp	r2, r3
 147 01b0 520000BA 		blt	.L25
 148              	.L29:
 149 01b4 050051E3 		cmp	r1, #5
 150 01b8 1D00000A 		beq	.L19
 151 01bc 0530DDE5 		ldrb	r3, [sp, #5]	@ zero_extendqisi2
 152 01c0 000053E3 		cmp	r3, #0
 153 01c4 0500001A 		bne	.L30
 154 01c8 062185E0 		add	r2, r5, r6, lsl #2
 155 01cc 18309EE5 		ldr	r3, [lr, #24]
 156 01d0 016086E2 		add	r6, r6, #1
 157 01d4 042092E5 		ldr	r2, [r2, #4]
 158 01d8 030052E1 		cmp	r2, r3
 159 01dc 470000BA 		blt	.L25
 160              	.L30:
 161 01e0 060051E3 		cmp	r1, #6
 162 01e4 1200000A 		beq	.L19
 163 01e8 0630DDE5 		ldrb	r3, [sp, #6]	@ zero_extendqisi2
 164 01ec 000053E3 		cmp	r3, #0
 165 01f0 0500001A 		bne	.L31
 166 01f4 062185E0 		add	r2, r5, r6, lsl #2
 167 01f8 1C309EE5 		ldr	r3, [lr, #28]
 168 01fc 016086E2 		add	r6, r6, #1
 169 0200 042092E5 		ldr	r2, [r2, #4]
 170 0204 030052E1 		cmp	r2, r3
 171 0208 3C0000BA 		blt	.L25
 172              	.L31:
 173 020c 070051E3 		cmp	r1, #7
 174 0210 0700000A 		beq	.L19
 175 0214 0730DDE5 		ldrb	r3, [sp, #7]	@ zero_extendqisi2
 176 0218 000053E3 		cmp	r3, #0
 177 021c 0400001A 		bne	.L19
 178 0220 065185E0 		add	r5, r5, r6, lsl #2
 179 0224 20309EE5 		ldr	r3, [lr, #32]
 180 0228 042095E5 		ldr	r2, [r5, #4]
 181 022c 030052E1 		cmp	r2, r3
 182 0230 320000BA 		blt	.L25
 183              	.L19:
 184 0234 0000A0E3 		mov	r0, #0
 185 0238 7EFFFFEA 		b	.L72
 186              	.L5:
 187 023c 000051E3 		cmp	r1, #0
 188 0240 FBFFFFDA 		ble	.L19
 189 0244 04209EE5 		ldr	r2, [lr, #4]
 190 0248 010052E3 		cmp	r2, #1
 191 024c 0020CD05 		strbeq	r2, [sp]
 192 0250 010051E3 		cmp	r1, #1
 193 0254 2500000A 		beq	.L10
 194 0258 08309EE5 		ldr	r3, [lr, #8]
 195 025c 010053E3 		cmp	r3, #1
 196 0260 0130CD05 		strbeq	r3, [sp, #1]
 197 0264 020051E3 		cmp	r1, #2
 198 0268 1B00000A 		beq	.L12
 199 026c 0C309EE5 		ldr	r3, [lr, #12]
 200 0270 010053E3 		cmp	r3, #1
 201 0274 0230CD05 		strbeq	r3, [sp, #2]
 202 0278 030051E3 		cmp	r1, #3
 203 027c 1600000A 		beq	.L12
 204 0280 10309EE5 		ldr	r3, [lr, #16]
 205 0284 010053E3 		cmp	r3, #1
 206 0288 0330CD05 		strbeq	r3, [sp, #3]
 207 028c 040051E3 		cmp	r1, #4
 208 0290 1100000A 		beq	.L12
 209 0294 14309EE5 		ldr	r3, [lr, #20]
 210 0298 010053E3 		cmp	r3, #1
 211 029c 0430CD05 		strbeq	r3, [sp, #4]
 212 02a0 050051E3 		cmp	r1, #5
 213 02a4 0C00000A 		beq	.L12
 214 02a8 18309EE5 		ldr	r3, [lr, #24]
 215 02ac 010053E3 		cmp	r3, #1
 216 02b0 0530CD05 		strbeq	r3, [sp, #5]
 217 02b4 060051E3 		cmp	r1, #6
 218 02b8 0700000A 		beq	.L12
 219 02bc 1C309EE5 		ldr	r3, [lr, #28]
 220 02c0 010053E3 		cmp	r3, #1
 221 02c4 0630CD05 		strbeq	r3, [sp, #6]
 222 02c8 070051E3 		cmp	r1, #7
 223 02cc 0200000A 		beq	.L12
 224 02d0 20309EE5 		ldr	r3, [lr, #32]
 225 02d4 010053E3 		cmp	r3, #1
 226 02d8 0730CD05 		strbeq	r3, [sp, #7]
 227              	.L12:
 228 02dc 0030DDE5 		ldrb	r3, [sp]	@ zero_extendqisi2
 229 02e0 000053E3 		cmp	r3, #0
 230 02e4 83FFFF0A 		beq	.L32
 231 02e8 0060A0E3 		mov	r6, #0
 232 02ec 86FFFFEA 		b	.L33
 233              	.L10:
 234 02f0 0030DDE5 		ldrb	r3, [sp]	@ zero_extendqisi2
 235 02f4 000053E3 		cmp	r3, #0
 236 02f8 CDFFFF1A 		bne	.L19
 237 02fc 7DFFFFEA 		b	.L32
 238              	.L25:
 239 0300 FEFFFFEB 		bl	abort
 240              	.L36:
 241 0304 0060A0E3 		mov	r6, #0
 242 0308 7DFFFFEA 		b	.L24
 243              		.fnend
 245              		.section	.text._ZN6tflite12_GLOBAL__N_14EvalEP13TfLiteContextP10TfLiteNode,"ax",%progbits
 246              		.align	2
 247              		.syntax unified
 248              		.arm
 249              		.fpu neon
 251              	_ZN6tflite12_GLOBAL__N_14EvalEP13TfLiteContextP10TfLiteNode:
 252              		.fnstart
 253              	.LFB6929:
 254              		@ args = 0, pretend = 0, frame = 0
 255              		@ frame_needed = 0, uses_anonymous_args = 0
 256 0000 70402DE9 		push	{r4, r5, r6, lr}
 257              		.save {r4, r5, r6, lr}
 258 0004 0020A0E3 		mov	r2, #0
 259 0008 0060A0E1 		mov	r6, r0
 260 000c 0150A0E1 		mov	r5, r1
 261 0010 FEFFFFEB 		bl	_ZN6tflite8GetInputEPK13TfLiteContextPK10TfLiteNodei
 262 0014 0510A0E1 		mov	r1, r5
 263 0018 0040A0E1 		mov	r4, r0
 264 001c 0020A0E3 		mov	r2, #0
 265 0020 0600A0E1 		mov	r0, r6
 266 0024 FEFFFFEB 		bl	_ZN6tflite9GetOutputEP13TfLiteContextPK10TfLiteNodei
 267 0028 0030D4E5 		ldrb	r3, [r4]	@ zero_extendqisi2
 268 002c 050053E3 		cmp	r3, #5
 269 0030 0300000A 		beq	.L85
 270 0034 182094E5 		ldr	r2, [r4, #24]
 271 0038 183090E5 		ldr	r3, [r0, #24]
 272 003c 030052E1 		cmp	r2, r3
 273 0040 0100000A 		beq	.L87
 274              	.L85:
 275 0044 0100A0E3 		mov	r0, #1
 276 0048 7080BDE8 		pop	{r4, r5, r6, pc}
 277              	.L87:
 278 004c 041094E5 		ldr	r1, [r4, #4]
 279 0050 040090E5 		ldr	r0, [r0, #4]
 280 0054 FEFFFFEB 		bl	memcpy
 281 0058 0000A0E3 		mov	r0, #0
 282 005c 7080BDE8 		pop	{r4, r5, r6, pc}
 283              		.fnend
 285              		.section	.text._ZN6tflite16Register_SQUEEZEEv,"ax",%progbits
 286              		.align	2
 287              		.global	_ZN6tflite16Register_SQUEEZEEv
 288              		.syntax unified
 289              		.arm
 290              		.fpu neon
 292              	_ZN6tflite16Register_SQUEEZEEv:
 293              		.fnstart
 294              	.LFB6930:
 295              		@ args = 0, pretend = 0, frame = 0
 296              		@ frame_needed = 0, uses_anonymous_args = 0
 297 0000 00C000E3 		movw	ip, #:lower16:.LANCHOR0
 298 0004 10402DE9 		push	{r4, lr}
 299 0008 00C040E3 		movt	ip, #:upper16:.LANCHOR0
 300 000c 0040A0E1 		mov	r4, r0
 301 0010 00E0A0E1 		mov	lr, r0
 302 0014 0F00BCE8 		ldmia	ip!, {r0, r1, r2, r3}
 303 0018 0F00AEE8 		stmia	lr!, {r0, r1, r2, r3}
 304 001c 0F009CE8 		ldm	ip, {r0, r1, r2, r3}
 305 0020 0F008EE8 		stm	lr, {r0, r1, r2, r3}
 306 0024 0400A0E1 		mov	r0, r4
 307 0028 1080BDE8 		pop	{r4, pc}
 308              		.cantunwind
 309              		.fnend
 311              		.weak	_ZN11flatbuffers25flatbuffer_version_stringE
 312              		.section	.rodata
 313              		.align	2
 314              		.set	.LANCHOR0,. + 0
 315              	.LC0:
 316 0000 00000000 		.word	0
 317 0004 00000000 		.word	0
 318 0008 00000000 		.word	_ZN6tflite12_GLOBAL__N_17PrepareEP13TfLiteContextP10TfLiteNode
 319 000c 00000000 		.word	_ZN6tflite12_GLOBAL__N_14EvalEP13TfLiteContextP10TfLiteNode
 320 0010 00000000 		.word	0
 321 0014 00000000 		.word	0
 322 0018 00000000 		.word	0
 323 001c 00000000 		.word	0
 324              		.section	.data._ZN11flatbuffers25flatbuffer_version_stringE,"aw",%progbits
 325              		.align	2
 328              	_ZN11flatbuffers25flatbuffer_version_stringE:
 329 0000 00000000 		.word	.LC1
 330              		.section	.rodata.str1.4,"aMS",%progbits,1
 331              		.align	2
 332              	.LC1:
 333 0000 466C6174 		.ascii	"FlatBuffers 1.12.0\000"
 333      42756666 
 333      65727320 
 333      312E3132 
 333      2E3000
 334              		.ident	"GCC: (GNU Tools for ARM Embedded Processors 6-2017-q2-update) 6.3.1 20170620 (release) [AR