   1              		.cpu cortex-a9
   2              		.eabi_attribute 28, 1
   3              		.eabi_attribute 20, 1
   4              		.eabi_attribute 21, 1
   5              		.eabi_attribute 23, 3
   6              		.eabi_attribute 24, 1
   7              		.eabi_attribute 25, 1
   8              		.eabi_attribute 26, 1
   9              		.eabi_attribute 30, 2
  10              		.eabi_attribute 34, 0
  11              		.eabi_attribute 18, 4
  12              		.file	"sub.cc"
  13              		.section	.text._ZN6tflite3ops5micro3sub4InitEP13TfLiteContextPKcj,"ax",%progbits
  14              		.align	2
  15              		.global	_ZN6tflite3ops5micro3sub4InitEP13TfLiteContextPKcj
  16              		.syntax unified
  17              		.arm
  18              		.fpu neon
  20              	_ZN6tflite3ops5micro3sub4InitEP13TfLiteContextPKcj:
  21              		.fnstart
  22              	.LFB4266:
  23              		@ args = 0, pretend = 0, frame = 0
  24              		@ frame_needed = 0, uses_anonymous_args = 0
  25 0000 383090E5 		ldr	r3, [r0, #56]
  26 0004 000053E3 		cmp	r3, #0
  27 0008 0100000A 		beq	.L7
  28 000c 3410A0E3 		mov	r1, #52
  29 0010 13FF2FE1 		bx	r3
  30              	.L7:
  31 0014 10402DE9 		push	{r4, lr}
  32              		.save {r4, lr}
  33 0018 FEFFFFEB 		bl	abort
  34              		.fnend
  36              		.section	.text._ZN6tflite13reference_ops22ProcessBroadcastShapesERKNS_12RuntimeShapeES3_PNS_16Arit
  37              		.align	2
  38              		.weak	_ZN6tflite13reference_ops22ProcessBroadcastShapesERKNS_12RuntimeShapeES3_PNS_16ArithmeticPar
  39              		.syntax unified
  40              		.arm
  41              		.fpu neon
  43              	_ZN6tflite13reference_ops22ProcessBroadcastShapesERKNS_12RuntimeShapeES3_PNS_16ArithmeticParamsE:
  44              		.fnstart
  45              	.LFB4243:
  46              		@ args = 0, pretend = 0, frame = 80
  47              		@ frame_needed = 0, uses_anonymous_args = 0
  48 0000 F04F2DE9 		push	{r4, r5, r6, r7, r8, r9, r10, fp, lr}
  49              		.save {r4, r5, r6, r7, r8, r9, r10, fp, lr}
  50 0004 0240A0E1 		mov	r4, r2
  51 0008 005091E5 		ldr	r5, [r1]
  52 000c 0420A0E3 		mov	r2, #4
  53              		.pad #84
  54 0010 54D04DE2 		sub	sp, sp, #84
  55 0014 0070A0E1 		mov	r7, r0
  56 0018 003090E5 		ldr	r3, [r0]
  57 001c 0160A0E1 		mov	r6, r1
  58 0020 0020C4E5 		strb	r2, [r4]
  59 0024 050053E1 		cmp	r3, r5
  60 0028 0350A0A1 		movge	r5, r3
  61 002c 050055E3 		cmp	r5, #5
  62 0030 CD0000DA 		ble	.L9
  63 0034 2E0275E3 		cmn	r5, #-536870910
  64 0038 C50300CA 		bgt	.L10
  65 003c 0501A0E1 		lsl	r0, r5, #2
  66              	.LEHB0:
  67 0040 FEFFFFEB 		bl	_Znaj
  68              	.LEHE0:
  69 0044 080055E3 		cmp	r5, #8
  70 0048 0C008DE5 		str	r0, [sp, #12]
  71 004c 0020A0D3 		movle	r2, #0
  72 0050 120000DA 		ble	.L12
  73 0054 091045E2 		sub	r1, r5, #9
  74 0058 883080E2 		add	r3, r0, #136
  75 005c 0710C1E3 		bic	r1, r1, #7
  76 0060 0020A0E3 		mov	r2, #0
  77 0064 081081E2 		add	r1, r1, #8
  78 0068 01C0A0E3 		mov	ip, #1
  79              	.L16:
  80 006c 082082E2 		add	r2, r2, #8
  81 0070 00F0D3F5 		pld	[r3]
  82 0074 010052E1 		cmp	r2, r1
  83 0078 88C003E5 		str	ip, [r3, #-136]
  84 007c 84C003E5 		str	ip, [r3, #-132]
  85 0080 203083E2 		add	r3, r3, #32
  86 0084 A0C003E5 		str	ip, [r3, #-160]
  87 0088 9CC003E5 		str	ip, [r3, #-156]
  88 008c 98C003E5 		str	ip, [r3, #-152]
  89 0090 94C003E5 		str	ip, [r3, #-148]
  90 0094 90C003E5 		str	ip, [r3, #-144]
  91 0098 8CC003E5 		str	ip, [r3, #-140]
  92 009c F2FFFF1A 		bne	.L16
  93              	.L12:
  94 00a0 020180E0 		add	r0, r0, r2, lsl #2
  95 00a4 0130A0E3 		mov	r3, #1
  96              	.L18:
  97 00a8 012082E2 		add	r2, r2, #1
  98 00ac 043080E4 		str	r3, [r0], #4
  99 00b0 020055E1 		cmp	r5, r2
 100 00b4 FBFFFFCA 		bgt	.L18
 101 00b8 003097E5 		ldr	r3, [r7]
 102 00bc 0020A0E3 		mov	r2, #0
 103 00c0 20208DE5 		str	r2, [sp, #32]
 104 00c4 050053E1 		cmp	r3, r5
 105 00c8 20508DD5 		strle	r5, [sp, #32]
 106 00cc AF0000CA 		bgt	.L14
 107              	.L172:
 108 00d0 2E0275E3 		cmn	r5, #-536870910
 109 00d4 8E0300CA 		bgt	.L20
 110 00d8 0501A0E1 		lsl	r0, r5, #2
 111              	.LEHB1:
 112 00dc FEFFFFEB 		bl	_Znaj
 113              	.LEHE1:
 114 00e0 002097E5 		ldr	r2, [r7]
 115 00e4 24008DE5 		str	r0, [sp, #36]
 116 00e8 023045E0 		sub	r3, r5, r2
 117 00ec 000053E3 		cmp	r3, #0
 118 00f0 0D0000DA 		ble	.L166
 119 00f4 000055E3 		cmp	r5, #0
 120 00f8 040040C2 		subgt	r0, r0, #4
 121 00fc 0020A0C3 		movgt	r2, #0
 122 0100 0110A0C3 		movgt	r1, #1
 123 0104 020000CA 		bgt	.L23
 124 0108 BF0000EA 		b	.L24
 125              	.L401:
 126 010c 050052E1 		cmp	r2, r5
 127 0110 BD00000A 		beq	.L24
 128              	.L23:
 129 0114 012082E2 		add	r2, r2, #1
 130 0118 0410A0E5 		str	r1, [r0, #4]!
 131 011c 030052E1 		cmp	r2, r3
 132 0120 F9FFFFBA 		blt	.L401
 133 0124 24009DE5 		ldr	r0, [sp, #36]
 134 0128 002097E5 		ldr	r2, [r7]
 135              	.L166:
 136 012c 050052E3 		cmp	r2, #5
 137 0130 030180E0 		add	r0, r0, r3, lsl #2
 138 0134 041097C5 		ldrgt	r1, [r7, #4]
 139 0138 041087D2 		addle	r1, r7, #4
 140 013c 0221A0E1 		lsl	r2, r2, #2
 141 0140 FEFFFFEB 		bl	memcpy
 142 0144 002096E5 		ldr	r2, [r6]
 143 0148 0030A0E3 		mov	r3, #0
 144 014c 38308DE5 		str	r3, [sp, #56]
 145 0150 050052E1 		cmp	r2, r5
 146 0154 710300CA 		bgt	.L475
 147 0158 050055E3 		cmp	r5, #5
 148 015c 38508DE5 		str	r5, [sp, #56]
 149 0160 AD0000DA 		ble	.L31
 150 0164 2E0275E3 		cmn	r5, #-536870910
 151 0168 760300CA 		bgt	.L32
 152 016c 0501A0E1 		lsl	r0, r5, #2
 153              	.LEHB2:
 154 0170 FEFFFFEB 		bl	_Znaj
 155              	.LEHE2:
 156 0174 002096E5 		ldr	r2, [r6]
 157 0178 3C008DE5 		str	r0, [sp, #60]
 158 017c 021045E0 		sub	r1, r5, r2
 159 0180 000051E3 		cmp	r1, #0
 160 0184 042040C2 		subgt	r2, r0, #4
 161 0188 0030A0C3 		movgt	r3, #0
 162 018c 0100A0C3 		movgt	r0, #1
 163 0190 020000CA 		bgt	.L35
 164 0194 070000EA 		b	.L168
 165              	.L403:
 166 0198 050053E1 		cmp	r3, r5
 167 019c BB00000A 		beq	.L36
 168              	.L35:
 169 01a0 013083E2 		add	r3, r3, #1
 170 01a4 0400A2E5 		str	r0, [r2, #4]!
 171 01a8 010053E1 		cmp	r3, r1
 172 01ac F9FFFFBA 		blt	.L403
 173 01b0 3C009DE5 		ldr	r0, [sp, #60]
 174 01b4 002096E5 		ldr	r2, [r6]
 175              	.L168:
 176 01b8 050052E3 		cmp	r2, #5
 177 01bc 010180E0 		add	r0, r0, r1, lsl #2
 178 01c0 0221A0E1 		lsl	r2, r2, #2
 179 01c4 041096C5 		ldrgt	r1, [r6, #4]
 180 01c8 041086D2 		addle	r1, r6, #4
 181 01cc FEFFFFEB 		bl	memcpy
 182 01d0 20709DE5 		ldr	r7, [sp, #32]
 183 01d4 38609DE5 		ldr	r6, [sp, #56]
 184 01d8 060057E1 		cmp	r7, r6
 185 01dc AC00000A 		beq	.L476
 186              	.L42:
 187 01e0 013055E2 		subs	r3, r5, #1
 188 01e4 3900004A 		bmi	.L54
 189 01e8 070053E1 		cmp	r3, r7
 190 01ec 7E0100AA 		bge	.L48
 191 01f0 050057E3 		cmp	r7, #5
 192 01f4 24809DE5 		ldr	r8, [sp, #36]
 193 01f8 3C009DE5 		ldr	r0, [sp, #60]
 194 01fc B60000CA 		bgt	.L50
 195 0200 050056E3 		cmp	r6, #5
 196 0204 430100CA 		bgt	.L51
 197 0208 50208DE2 		add	r2, sp, #80
 198 020c 060053E1 		cmp	r3, r6
 199 0210 032182E0 		add	r2, r2, r3, lsl #2
 200 0214 2CC012E5 		ldr	ip, [r2, #-44]
 201 0218 370300AA 		bge	.L52
 202 021c 14E012E5 		ldr	lr, [r2, #-20]
 203 0220 0C005EE1 		cmp	lr, ip
 204 0224 DD00001A 		bne	.L53
 205 0228 022055E2 		subs	r2, r5, #2
 206 022c 2700004A 		bmi	.L54
 207 0230 070052E1 		cmp	r2, r7
 208 0234 6C0100AA 		bge	.L48
 209 0238 50108DE2 		add	r1, sp, #80
 210 023c 060052E1 		cmp	r2, r6
 211 0240 022181E0 		add	r2, r1, r2, lsl #2
 212 0244 2CC012E5 		ldr	ip, [r2, #-44]
 213 0248 2B0300AA 		bge	.L52
 214 024c 14E012E5 		ldr	lr, [r2, #-20]
 215 0250 0E005CE1 		cmp	ip, lr
 216 0254 D100001A 		bne	.L53
 217 0258 032045E2 		sub	r2, r5, #3
 218 025c 010072E3 		cmn	r2, #1
 219 0260 1A00000A 		beq	.L54
 220 0264 020057E1 		cmp	r7, r2
 221 0268 5F0100DA 		ble	.L48
 222 026c 020056E1 		cmp	r6, r2
 223 0270 022181E0 		add	r2, r1, r2, lsl #2
 224 0274 2CC012E5 		ldr	ip, [r2, #-44]
 225 0278 1F0300DA 		ble	.L52
 226 027c 14E012E5 		ldr	lr, [r2, #-20]
 227 0280 0C005EE1 		cmp	lr, ip
 228 0284 C500001A 		bne	.L53
 229 0288 042045E2 		sub	r2, r5, #4
 230 028c 010072E3 		cmn	r2, #1
 231 0290 0E00000A 		beq	.L54
 232 0294 020057E1 		cmp	r7, r2
 233 0298 530100DA 		ble	.L48
 234 029c 020056E1 		cmp	r6, r2
 235 02a0 022181E0 		add	r2, r1, r2, lsl #2
 236 02a4 2CC012E5 		ldr	ip, [r2, #-44]
 237 02a8 130300DA 		ble	.L52
 238 02ac 14E012E5 		ldr	lr, [r2, #-20]
 239 02b0 0E005CE1 		cmp	ip, lr
 240 02b4 B900001A 		bne	.L53
 241 02b8 040055E3 		cmp	r5, #4
 242 02bc 0300000A 		beq	.L54
 243 02c0 000058E1 		cmp	r8, r0
 244 02c4 08C0A0E1 		mov	ip, r8
 245 02c8 00E0A0E1 		mov	lr, r0
 246 02cc B300001A 		bne	.L53
 247              	.L54:
 248 02d0 0020D4E5 		ldrb	r2, [r4]	@ zero_extendqisi2
 249 02d4 021042E2 		sub	r1, r2, #2
 250 02d8 010051E3 		cmp	r1, #1
 251 02dc 0E03008A 		bhi	.L477
 252 02e0 030052E3 		cmp	r2, #3
 253 02e4 01E0A0E3 		mov	lr, #1
 254 02e8 0620A001 		moveq	r2, r6
 255 02ec 0710A001 		moveq	r1, r7
 256 02f0 38008D02 		addeq	r0, sp, #56
 257 02f4 20C08D02 		addeq	ip, sp, #32
 258 02f8 0720A011 		movne	r2, r7
 259 02fc 0610A011 		movne	r1, r6
 260 0300 20008D12 		addne	r0, sp, #32
 261 0304 38C08D12 		addne	ip, sp, #56
 262 0308 000053E3 		cmp	r3, #0
 263 030c 50E084E5 		str	lr, [r4, #80]
 264 0310 54E084E5 		str	lr, [r4, #84]
 265 0314 58E084E5 		str	lr, [r4, #88]
 266 0318 5CE084E5 		str	lr, [r4, #92]
 267 031c 60E084E5 		str	lr, [r4, #96]
 268 0320 570100AA 		bge	.L61
 269              	.L68:
 270 0324 050056E3 		cmp	r6, #5
 271 0328 0180A0E3 		mov	r8, #1
 272 032c 650000CA 		bgt	.L478
 273              	.L151:
 274 0330 050057E3 		cmp	r7, #5
 275 0334 030000DA 		ble	.L152
 276 0338 24009DE5 		ldr	r0, [sp, #36]
 277 033c 000050E3 		cmp	r0, #0
 278 0340 0000000A 		beq	.L152
 279 0344 FEFFFFEB 		bl	_ZdaPv
 280              	.L152:
 281 0348 050055E3 		cmp	r5, #5
 282 034c 030000DA 		ble	.L209
 283 0350 0C009DE5 		ldr	r0, [sp, #12]
 284 0354 000050E3 		cmp	r0, #0
 285 0358 0000000A 		beq	.L209
 286 035c FEFFFFEB 		bl	_ZdaPv
 287              	.L209:
 288 0360 0800A0E1 		mov	r0, r8
 289 0364 54D08DE2 		add	sp, sp, #84
 290              		@ sp needed
 291 0368 F08FBDE8 		pop	{r4, r5, r6, r7, r8, r9, r10, fp, pc}
 292              	.L9:
 293 036c 000055E3 		cmp	r5, #0
 294 0370 EB0200DA 		ble	.L479
 295 0374 030055E1 		cmp	r5, r3
 296 0378 0020A0E3 		mov	r2, #0
 297 037c 0110A0E3 		mov	r1, #1
 298 0380 20208DE5 		str	r2, [sp, #32]
 299 0384 0C108DE5 		str	r1, [sp, #12]
 300 0388 0320A0E1 		mov	r2, r3
 301 038c 000000AA 		bge	.L480
 302              	.L14:
 303              	.LEHB3:
 304 0390 FEFFFFEB 		bl	abort
 305              	.L480:
 306 0394 20508DE5 		str	r5, [sp, #32]
 307              	.L19:
 308 0398 033045E0 		sub	r3, r5, r3
 309 039c 000053E3 		cmp	r3, #0
 310 03a0 E90200DA 		ble	.L481
 311 03a4 000055E3 		cmp	r5, #0
 312 03a8 170000DA 		ble	.L24
 313 03ac 010053E3 		cmp	r3, #1
 314 03b0 0120A0E3 		mov	r2, #1
 315 03b4 24208DE5 		str	r2, [sp, #36]
 316 03b8 1400000A 		beq	.L25
 317 03bc 020055E1 		cmp	r5, r2
 318 03c0 1100000A 		beq	.L24
 319 03c4 020053E3 		cmp	r3, #2
 320 03c8 28208DE5 		str	r2, [sp, #40]
 321 03cc 0F00000A 		beq	.L25
 322 03d0 020055E3 		cmp	r5, #2
 323 03d4 0C00000A 		beq	.L24
 324 03d8 030053E3 		cmp	r3, #3
 325 03dc 2C208DE5 		str	r2, [sp, #44]
 326 03e0 0A00000A 		beq	.L25
 327 03e4 030055E3 		cmp	r5, #3
 328 03e8 0700000A 		beq	.L24
 329 03ec 040053E3 		cmp	r3, #4
 330 03f0 30208DE5 		str	r2, [sp, #48]
 331 03f4 0500000A 		beq	.L25
 332 03f8 040055E3 		cmp	r5, #4
 333 03fc 0200000A 		beq	.L24
 334 0400 050053E3 		cmp	r3, #5
 335 0404 34208DE5 		str	r2, [sp, #52]
 336 0408 0000000A 		beq	.L25
 337              	.L24:
 338 040c FEFFFFEB 		bl	abort
 339              	.LEHE3:
 340              	.L25:
 341 0410 002097E5 		ldr	r2, [r7]
 342 0414 24008DE2 		add	r0, sp, #36
 343 0418 43FFFFEA 		b	.L166
 344              	.L31:
 345 041c 021045E0 		sub	r1, r5, r2
 346 0420 000051E3 		cmp	r1, #0
 347 0424 010100DA 		ble	.L482
 348 0428 000055E3 		cmp	r5, #0
 349 042c 170000DA 		ble	.L36
 350 0430 010051E3 		cmp	r1, #1
 351 0434 0130A0E3 		mov	r3, #1
 352 0438 3C308DE5 		str	r3, [sp, #60]
 353 043c FD00000A 		beq	.L37
 354 0440 030055E1 		cmp	r5, r3
 355 0444 1100000A 		beq	.L36
 356 0448 020051E3 		cmp	r1, #2
 357 044c 40308DE5 		str	r3, [sp, #64]
 358 0450 F800000A 		beq	.L37
 359 0454 020055E3 		cmp	r5, #2
 360 0458 0C00000A 		beq	.L36
 361 045c 030051E3 		cmp	r1, #3
 362 0460 44308DE5 		str	r3, [sp, #68]
 363 0464 F300000A 		beq	.L37
 364 0468 030055E3 		cmp	r5, #3
 365 046c 0700000A 		beq	.L36
 366 0470 040051E3 		cmp	r1, #4
 367 0474 48308DE5 		str	r3, [sp, #72]
 368 0478 EE00000A 		beq	.L37
 369 047c 050055E3 		cmp	r5, #5
 370 0480 0200001A 		bne	.L36
 371 0484 050051E3 		cmp	r1, #5
 372 0488 4C308DE5 		str	r3, [sp, #76]
 373 048c E900000A 		beq	.L37
 374              	.L36:
 375              	.LEHB4:
 376 0490 FEFFFFEB 		bl	abort
 377              	.LEHE4:
 378              	.L476:
 379 0494 050057E3 		cmp	r7, #5
 380 0498 0721A0E1 		lsl	r2, r7, #2
 381 049c 24009DC5 		ldrgt	r0, [sp, #36]
 382 04a0 24008DD2 		addle	r0, sp, #36
 383 04a4 3C109DC5 		ldrgt	r1, [sp, #60]
 384 04a8 3C108DD2 		addle	r1, sp, #60
 385 04ac FEFFFFEB 		bl	memcmp
 386 04b0 008050E2 		subs	r8, r0, #0
 387 04b4 49FFFF1A 		bne	.L42
 388 04b8 0130A0E3 		mov	r3, #1
 389 04bc 0030C4E5 		strb	r3, [r4]
 390              	.L62:
 391 04c0 050056E3 		cmp	r6, #5
 392 04c4 99FFFFDA 		ble	.L151
 393              	.L478:
 394 04c8 3C009DE5 		ldr	r0, [sp, #60]
 395 04cc 000050E3 		cmp	r0, #0
 396 04d0 96FFFF0A 		beq	.L151
 397 04d4 FEFFFFEB 		bl	_ZdaPv
 398 04d8 94FFFFEA 		b	.L151
 399              	.L50:
 400 04dc 050056E3 		cmp	r6, #5
 401 04e0 C20000CA 		bgt	.L55
 402 04e4 060053E1 		cmp	r3, r6
 403 04e8 0321A0E1 		lsl	r2, r3, #2
 404 04ec 03C198E7 		ldr	ip, [r8, r3, lsl #2]
 405 04f0 810200AA 		bge	.L52
 406 04f4 50108DE2 		add	r1, sp, #80
 407 04f8 021081E0 		add	r1, r1, r2
 408 04fc 14E011E5 		ldr	lr, [r1, #-20]
 409 0500 0E005CE1 		cmp	ip, lr
 410 0504 2500001A 		bne	.L53
 411 0508 021055E2 		subs	r1, r5, #2
 412 050c 6FFFFF4A 		bmi	.L54
 413 0510 010056E1 		cmp	r6, r1
 414 0514 028088E0 		add	r8, r8, r2
 415 0518 04C018E5 		ldr	ip, [r8, #-4]
 416 051c 760200DA 		ble	.L52
 417 0520 50208DE2 		add	r2, sp, #80
 418 0524 011182E0 		add	r1, r2, r1, lsl #2
 419 0528 14E011E5 		ldr	lr, [r1, #-20]
 420 052c 0C005EE1 		cmp	lr, ip
 421 0530 1A00001A 		bne	.L53
 422 0534 032045E2 		sub	r2, r5, #3
 423 0538 010072E3 		cmn	r2, #1
 424 053c 63FFFF0A 		beq	.L54
 425 0540 020056E1 		cmp	r6, r2
 426 0544 08C018E5 		ldr	ip, [r8, #-8]
 427 0548 6B0200DA 		ble	.L52
 428 054c 50108DE2 		add	r1, sp, #80
 429 0550 022181E0 		add	r2, r1, r2, lsl #2
 430 0554 14E012E5 		ldr	lr, [r2, #-20]
 431 0558 0E005CE1 		cmp	ip, lr
 432 055c 0F00001A 		bne	.L53
 433 0560 042045E2 		sub	r2, r5, #4
 434 0564 010072E3 		cmn	r2, #1
 435 0568 58FFFF0A 		beq	.L54
 436 056c 020056E1 		cmp	r6, r2
 437 0570 0CC018E5 		ldr	ip, [r8, #-12]
 438 0574 600200DA 		ble	.L52
 439 0578 022181E0 		add	r2, r1, r2, lsl #2
 440 057c 14E012E5 		ldr	lr, [r2, #-20]
 441 0580 0C005EE1 		cmp	lr, ip
 442 0584 0500001A 		bne	.L53
 443 0588 040055E3 		cmp	r5, #4
 444 058c 4FFFFF0A 		beq	.L54
 445 0590 10C018E5 		ldr	ip, [r8, #-16]
 446 0594 3CE09DE5 		ldr	lr, [sp, #60]
 447 0598 0E005CE1 		cmp	ip, lr
 448 059c 4BFFFF0A 		beq	.L54
 449              	.L53:
 450 05a0 01005CE3 		cmp	ip, #1
 451 05a4 A600001A 		bne	.L58
 452 05a8 50C084E5 		str	ip, [r4, #80]
 453 05ac 0610A0E1 		mov	r1, r6
 454 05b0 54C084E5 		str	ip, [r4, #84]
 455 05b4 0720A0E1 		mov	r2, r7
 456 05b8 58C084E5 		str	ip, [r4, #88]
 457 05bc 20008DE2 		add	r0, sp, #32
 458 05c0 5CC084E5 		str	ip, [r4, #92]
 459 05c4 02E0A0E3 		mov	lr, #2
 460 05c8 60C084E5 		str	ip, [r4, #96]
 461 05cc 38C08DE2 		add	ip, sp, #56
 462 05d0 00E0C4E5 		strb	lr, [r4]
 463              	.L59:
 464 05d4 050052E3 		cmp	r2, #5
 465 05d8 AC0000CA 		bgt	.L71
 466 05dc 050051E3 		cmp	r1, #5
 467 05e0 C00000CA 		bgt	.L72
 468 05e4 0591A0E1 		lsl	r9, r5, #2
 469 05e8 01E0A0E3 		mov	lr, #1
 470 05ec 09A080E0 		add	r10, r0, r9
 471 05f0 09908CE0 		add	r9, ip, r9
 472              	.L77:
 473 05f4 010053E1 		cmp	r3, r1
 474 05f8 04801AE4 		ldr	r8, [r10], #-4
 475 05fc 430200AA 		bge	.L73
 476 0600 04B019E4 		ldr	fp, [r9], #-4
 477 0604 0B0058E1 		cmp	r8, fp
 478 0608 EF00000A 		beq	.L483
 479              	.L74:
 480 060c 000053E3 		cmp	r3, #0
 481 0610 43FFFFBA 		blt	.L68
 482 0614 020053E1 		cmp	r3, r2
 483 0618 160100AA 		bge	.L88
 484 061c 050052E3 		cmp	r2, #5
 485 0620 2B0100CA 		bgt	.L89
 486 0624 050051E3 		cmp	r1, #5
 487 0628 820100CA 		bgt	.L90
 488 062c 03E1A0E1 		lsl	lr, r3, #2
 489 0630 0180A0E3 		mov	r8, #1
 490 0634 08E08EE2 		add	lr, lr, #8
 491 0638 0EA080E0 		add	r10, r0, lr
 492 063c 0EE08CE0 		add	lr, ip, lr
 493              	.L95:
 494 0640 04903AE5 		ldr	r9, [r10, #-4]!
 495 0644 010059E3 		cmp	r9, #1
 496 0648 FE00000A 		beq	.L484
 497              	.L91:
 498 064c 000053E3 		cmp	r3, #0
 499 0650 33FFFFBA 		blt	.L68
 500 0654 020053E1 		cmp	r3, r2
 501 0658 EE0000AA 		bge	.L104
 502 065c 050052E3 		cmp	r2, #5
 503 0660 320100CA 		bgt	.L105
 504 0664 050051E3 		cmp	r1, #5
 505 0668 870100CA 		bgt	.L106
 506 066c 0391A0E1 		lsl	r9, r3, #2
 507 0670 01E0A0E3 		mov	lr, #1
 508 0674 089089E2 		add	r9, r9, #8
 509 0678 09A080E0 		add	r10, r0, r9
 510 067c 09908CE0 		add	r9, ip, r9
 511              	.L111:
 512 0680 010053E1 		cmp	r3, r1
 513 0684 04B03AE5 		ldr	fp, [r10, #-4]!
 514 0688 1C0200AA 		bge	.L107
 515 068c 048039E5 		ldr	r8, [r9, #-4]!
 516 0690 0B0058E1 		cmp	r8, fp
 517 0694 D600000A 		beq	.L485
 518 0698 000053E3 		cmp	r3, #0
 519 069c 0391A0A1 		lslge	r9, r3, #2
 520 06a0 089089A2 		addge	r9, r9, #8
 521 06a4 09A08CA0 		addge	r10, ip, r9
 522 06a8 099080A0 		addge	r9, r0, r9
 523 06ac 1CFFFFBA 		blt	.L68
 524              	.L127:
 525 06b0 04E03AE5 		ldr	lr, [r10, #-4]!
 526 06b4 01005EE3 		cmp	lr, #1
 527 06b8 EF00000A 		beq	.L486
 528              	.L124:
 529 06bc 030052E1 		cmp	r2, r3
 530 06c0 DF0000DA 		ble	.L135
 531 06c4 050052E3 		cmp	r2, #5
 532 06c8 00809CE5 		ldr	r8, [ip]
 533 06cc 400100CA 		bgt	.L136
 534 06d0 050058E3 		cmp	r8, #5
 535 06d4 960100CA 		bgt	.L137
 536 06d8 0311A0E1 		lsl	r1, r3, #2
 537 06dc 081081E2 		add	r1, r1, #8
 538 06e0 010080E0 		add	r0, r0, r1
 539 06e4 01C08CE0 		add	ip, ip, r1
 540              	.L142:
 541 06e8 080053E1 		cmp	r3, r8
 542 06ec 04E030E5 		ldr	lr, [r0, #-4]!
 543 06f0 040200AA 		bge	.L138
 544 06f4 04103CE5 		ldr	r1, [ip, #-4]!
 545 06f8 0E0051E1 		cmp	r1, lr
 546 06fc C600000A 		beq	.L487
 547              	.L139:
 548 0700 000053E3 		cmp	r3, #0
 549 0704 0430A0A3 		movge	r3, #4
 550 0708 0180A0A3 		movge	r8, #1
 551 070c 0030C4A5 		strbge	r3, [r4]
 552 0710 6AFFFFAA 		bge	.L62
 553 0714 02FFFFEA 		b	.L68
 554              	.L51:
 555 0718 0311A0E1 		lsl	r1, r3, #2
 556 071c 50208DE2 		add	r2, sp, #80
 557 0720 060053E1 		cmp	r3, r6
 558 0724 012082E0 		add	r2, r2, r1
 559 0728 2CC012E5 		ldr	ip, [r2, #-44]
 560 072c F20100AA 		bge	.L52
 561 0730 03E190E7 		ldr	lr, [r0, r3, lsl #2]
 562 0734 0C005EE1 		cmp	lr, ip
 563 0738 98FFFF1A 		bne	.L53
 564 073c 022055E2 		subs	r2, r5, #2
 565 0740 E2FEFF4A 		bmi	.L54
 566 0744 020057E1 		cmp	r7, r2
 567 0748 270000DA 		ble	.L48
 568 074c 50C08DE2 		add	ip, sp, #80
 569 0750 011080E0 		add	r1, r0, r1
 570 0754 02218CE0 		add	r2, ip, r2, lsl #2
 571 0758 04E011E5 		ldr	lr, [r1, #-4]
 572 075c 2CC012E5 		ldr	ip, [r2, #-44]
 573 0760 0C005EE1 		cmp	lr, ip
 574 0764 8DFFFF1A 		bne	.L53
 575 0768 032045E2 		sub	r2, r5, #3
 576 076c 010072E3 		cmn	r2, #1
 577 0770 D6FEFF0A 		beq	.L54
 578 0774 020057E1 		cmp	r7, r2
 579 0778 1B0000DA 		ble	.L48
 580 077c 50008DE2 		add	r0, sp, #80
 581 0780 08E011E5 		ldr	lr, [r1, #-8]
 582 0784 022180E0 		add	r2, r0, r2, lsl #2
 583 0788 2CC012E5 		ldr	ip, [r2, #-44]
 584 078c 0E005CE1 		cmp	ip, lr
 585 0790 82FFFF1A 		bne	.L53
 586 0794 042045E2 		sub	r2, r5, #4
 587 0798 010072E3 		cmn	r2, #1
 588 079c CBFEFF0A 		beq	.L54
 589 07a0 020057E1 		cmp	r7, r2
 590 07a4 100000DA 		ble	.L48
 591 07a8 022180E0 		add	r2, r0, r2, lsl #2
 592 07ac 0CE011E5 		ldr	lr, [r1, #-12]
 593 07b0 2CC012E5 		ldr	ip, [r2, #-44]
 594 07b4 0E005CE1 		cmp	ip, lr
 595 07b8 78FFFF1A 		bne	.L53
 596 07bc 052045E2 		sub	r2, r5, #5
 597 07c0 010072E3 		cmn	r2, #1
 598 07c4 C1FEFF0A 		beq	.L54
 599 07c8 020057E1 		cmp	r7, r2
 600 07cc 060000DA 		ble	.L48
 601 07d0 022180E0 		add	r2, r0, r2, lsl #2
 602 07d4 10E011E5 		ldr	lr, [r1, #-16]
 603 07d8 2CC012E5 		ldr	ip, [r2, #-44]
 604 07dc 0E005CE1 		cmp	ip, lr
 605 07e0 6EFFFF1A 		bne	.L53
 606 07e4 050055E3 		cmp	r5, #5
 607 07e8 B8FEFF0A 		beq	.L54
 608              	.L48:
 609              	.LEHB5:
 610 07ec FEFFFFEB 		bl	abort
 611              	.L55:
 612 07f0 0511A0E1 		lsl	r1, r5, #2
 613 07f4 0320A0E1 		mov	r2, r3
 614 07f8 018088E0 		add	r8, r8, r1
 615 07fc 011080E0 		add	r1, r0, r1
 616 0800 030000EA 		b	.L49
 617              	.L57:
 618 0804 012052E2 		subs	r2, r2, #1
 619 0808 B0FEFF3A 		bcc	.L54
 620 080c 070052E1 		cmp	r2, r7
 621 0810 F5FFFFAA 		bge	.L48
 622              	.L49:
 623 0814 020056E1 		cmp	r6, r2
 624 0818 04C038E5 		ldr	ip, [r8, #-4]!
 625 081c B60100DA 		ble	.L52
 626 0820 04E031E5 		ldr	lr, [r1, #-4]!
 627 0824 0E005CE1 		cmp	ip, lr
 628 0828 F5FFFF0A 		beq	.L57
 629 082c 5BFFFFEA 		b	.L53
 630              	.L482:
 631 0830 3C008DE2 		add	r0, sp, #60
 632 0834 5FFEFFEA 		b	.L168
 633              	.L37:
 634 0838 002096E5 		ldr	r2, [r6]
 635 083c 3C008DE2 		add	r0, sp, #60
 636 0840 5CFEFFEA 		b	.L168
 637              	.L58:
 638 0844 01005EE3 		cmp	lr, #1
 639 0848 0430A013 		movne	r3, #4
 640 084c 0180A013 		movne	r8, #1
 641 0850 0030C415 		strbne	r3, [r4]
 642 0854 19FFFF1A 		bne	.L62
 643 0858 0710A0E1 		mov	r1, r7
 644 085c 0620A0E1 		mov	r2, r6
 645 0860 38008DE2 		add	r0, sp, #56
 646 0864 20C08DE2 		add	ip, sp, #32
 647 0868 0380A0E3 		mov	r8, #3
 648 086c 50E084E5 		str	lr, [r4, #80]
 649 0870 54E084E5 		str	lr, [r4, #84]
 650 0874 58E084E5 		str	lr, [r4, #88]
 651 0878 5CE084E5 		str	lr, [r4, #92]
 652 087c 60E084E5 		str	lr, [r4, #96]
 653 0880 0080C4E5 		strb	r8, [r4]
 654              	.L61:
 655 0884 020053E1 		cmp	r3, r2
 656 0888 51FFFFBA 		blt	.L59
 657 088c 570000EA 		b	.L70
 658              	.L71:
 659 0890 050051E3 		cmp	r1, #5
 660 0894 280000CA 		bgt	.L79
 661 0898 049090E5 		ldr	r9, [r0, #4]
 662 089c 0581A0E1 		lsl	r8, r5, #2
 663 08a0 01E0A0E3 		mov	lr, #1
 664 08a4 08A08CE0 		add	r10, ip, r8
 665 08a8 089089E0 		add	r9, r9, r8
 666 08ac 040000EA 		b	.L80
 667              	.L488:
 668 08b0 980E0EE0 		mul	lr, r8, lr
 669 08b4 013043E2 		sub	r3, r3, #1
 670 08b8 010073E3 		cmn	r3, #1
 671 08bc 60E084E5 		str	lr, [r4, #96]
 672 08c0 97FEFF0A 		beq	.L68
 673              	.L80:
 674 08c4 010053E1 		cmp	r3, r1
 675 08c8 048039E5 		ldr	r8, [r9, #-4]!
 676 08cc 8F0100AA 		bge	.L73
 677 08d0 04B01AE4 		ldr	fp, [r10], #-4
 678 08d4 0B0058E1 		cmp	r8, fp
 679 08d8 4BFFFF1A 		bne	.L74
 680 08dc 010073E3 		cmn	r3, #1
 681 08e0 F2FFFF1A 		bne	.L488
 682              	.L75:
 683 08e4 FEFFFFEB 		bl	abort
 684              	.LEHE5:
 685              	.L72:
 686 08e8 059180E0 		add	r9, r0, r5, lsl #2
 687 08ec 01E0A0E3 		mov	lr, #1
 688 08f0 060000EA 		b	.L78
 689              	.L489:
 690 08f4 980E0EE0 		mul	lr, r8, lr
 691 08f8 013043E2 		sub	r3, r3, #1
 692 08fc 010073E3 		cmn	r3, #1
 693 0900 60E084E5 		str	lr, [r4, #96]
 694 0904 86FEFF0A 		beq	.L68
 695 0908 020053E1 		cmp	r3, r2
 696 090c 370000AA 		bge	.L70
 697              	.L78:
 698 0910 010053E1 		cmp	r3, r1
 699 0914 048019E4 		ldr	r8, [r9], #-4
 700 0918 7C0100AA 		bge	.L73
 701 091c 04B09CE5 		ldr	fp, [ip, #4]
 702 0920 00A049E0 		sub	r10, r9, r0
 703 0924 0AA09BE7 		ldr	r10, [fp, r10]
 704 0928 0A0058E1 		cmp	r8, r10
 705 092c 36FFFF1A 		bne	.L74
 706 0930 010073E3 		cmn	r3, #1
 707 0934 EEFFFF1A 		bne	.L489
 708 0938 E9FFFFEA 		b	.L75
 709              	.L79:
 710 093c 04B090E5 		ldr	fp, [r0, #4]
 711 0940 0180A0E3 		mov	r8, #1
 712 0944 00008DE5 		str	r0, [sp]
 713 0948 05918BE0 		add	r9, fp, r5, lsl #2
 714              	.L69:
 715 094c 010053E1 		cmp	r3, r1
 716 0950 04E039E5 		ldr	lr, [r9, #-4]!
 717 0954 6D0100AA 		bge	.L73
 718 0958 04009CE5 		ldr	r0, [ip, #4]
 719 095c 0BA049E0 		sub	r10, r9, fp
 720 0960 0AA090E7 		ldr	r10, [r0, r10]
 721 0964 0A005EE1 		cmp	lr, r10
 722 0968 4F00000A 		beq	.L490
 723 096c 00009DE5 		ldr	r0, [sp]
 724 0970 25FFFFEA 		b	.L74
 725              	.L205:
 726              	.L119:
 727 0974 050056E3 		cmp	r6, #5
 728 0978 030000DA 		ble	.L155
 729 097c 3C009DE5 		ldr	r0, [sp, #60]
 730 0980 000050E3 		cmp	r0, #0
 731 0984 0000000A 		beq	.L155
 732 0988 FEFFFFEB 		bl	_ZdaPv
 733              	.L155:
 734 098c 20309DE5 		ldr	r3, [sp, #32]
 735 0990 050053E3 		cmp	r3, #5
 736 0994 030000DA 		ble	.L157
 737 0998 24009DE5 		ldr	r0, [sp, #36]
 738 099c 000050E3 		cmp	r0, #0
 739 09a0 0000000A 		beq	.L157
 740 09a4 FEFFFFEB 		bl	_ZdaPv
 741              	.L157:
 742 09a8 050055E3 		cmp	r5, #5
 743 09ac 030000DA 		ble	.L158
 744              	.L159:
 745 09b0 0C009DE5 		ldr	r0, [sp, #12]
 746 09b4 000050E3 		cmp	r0, #0
 747 09b8 0000000A 		beq	.L158
 748 09bc FEFFFFEB 		bl	_ZdaPv
 749              	.L158:
 750              	.LEHB6:
 751 09c0 FEFFFFEB 		bl	__cxa_end_cleanup
 752              	.LEHE6:
 753              	.L201:
 754 09c4 F7FFFFEA 		b	.L157
 755              	.L202:
 756 09c8 EFFFFFEA 		b	.L155
 757              	.L483:
 758 09cc 010073E3 		cmn	r3, #1
 759 09d0 C3FFFF0A 		beq	.L75
 760 09d4 980E0EE0 		mul	lr, r8, lr
 761 09d8 013043E2 		sub	r3, r3, #1
 762 09dc 010073E3 		cmn	r3, #1
 763 09e0 60E084E5 		str	lr, [r4, #96]
 764 09e4 4EFEFF0A 		beq	.L68
 765 09e8 020053E1 		cmp	r3, r2
 766 09ec 00FFFFBA 		blt	.L77
 767              	.L70:
 768              	.LEHB7:
 769 09f0 FEFFFFEB 		bl	abort
 770              	.L485:
 771 09f4 010073E3 		cmn	r3, #1
 772 09f8 3D01000A 		beq	.L109
 773 09fc 980E0EE0 		mul	lr, r8, lr
 774 0a00 013043E2 		sub	r3, r3, #1
 775 0a04 010073E3 		cmn	r3, #1
 776 0a08 58E084E5 		str	lr, [r4, #88]
 777 0a0c 44FEFF0A 		beq	.L68
 778 0a10 020053E1 		cmp	r3, r2
 779 0a14 19FFFFBA 		blt	.L111
 780              	.L104:
 781 0a18 FEFFFFEB 		bl	abort
 782              	.L487:
 783 0a1c 010073E3 		cmn	r3, #1
 784 0a20 8100000A 		beq	.L140
 785 0a24 50E094E5 		ldr	lr, [r4, #80]
 786 0a28 013043E2 		sub	r3, r3, #1
 787 0a2c 010073E3 		cmn	r3, #1
 788 0a30 910E01E0 		mul	r1, r1, lr
 789 0a34 501084E5 		str	r1, [r4, #80]
 790 0a38 39FEFF0A 		beq	.L68
 791 0a3c 020053E1 		cmp	r3, r2
 792 0a40 28FFFFBA 		blt	.L142
 793              	.L135:
 794 0a44 FEFFFFEB 		bl	abort
 795              	.L484:
 796 0a48 010073E3 		cmn	r3, #1
 797 0a4c 3600000A 		beq	.L92
 798 0a50 010053E1 		cmp	r3, r1
 799 0a54 270100AA 		bge	.L93
 800 0a58 04903EE5 		ldr	r9, [lr, #-4]!
 801 0a5c 013043E2 		sub	r3, r3, #1
 802 0a60 010073E3 		cmn	r3, #1
 803 0a64 990808E0 		mul	r8, r9, r8
 804 0a68 5C8084E5 		str	r8, [r4, #92]
 805 0a6c 2CFEFF0A 		beq	.L68
 806 0a70 020053E1 		cmp	r3, r2
 807 0a74 F1FEFFBA 		blt	.L95
 808              	.L88:
 809 0a78 FEFFFFEB 		bl	abort
 810              	.L486:
 811 0a7c 020053E1 		cmp	r3, r2
 812 0a80 9F0000AA 		bge	.L125
 813 0a84 548094E5 		ldr	r8, [r4, #84]
 814 0a88 013043E2 		sub	r3, r3, #1
 815 0a8c 04E039E5 		ldr	lr, [r9, #-4]!
 816 0a90 010073E3 		cmn	r3, #1
 817 0a94 9E080EE0 		mul	lr, lr, r8
 818 0a98 54E084E5 		str	lr, [r4, #84]
 819 0a9c 20FEFF0A 		beq	.L68
 820 0aa0 010053E1 		cmp	r3, r1
 821 0aa4 01FFFFBA 		blt	.L127
 822              	.L128:
 823 0aa8 FEFFFFEB 		bl	abort
 824              	.L490:
 825 0aac 010073E3 		cmn	r3, #1
 826 0ab0 8BFFFF0A 		beq	.L75
 827 0ab4 980E08E0 		mul	r8, r8, lr
 828 0ab8 013043E2 		sub	r3, r3, #1
 829 0abc 010073E3 		cmn	r3, #1
 830 0ac0 608084E5 		str	r8, [r4, #96]
 831 0ac4 16FEFF0A 		beq	.L68
 832 0ac8 020053E1 		cmp	r3, r2
 833 0acc 9EFFFFBA 		blt	.L69
 834 0ad0 C6FFFFEA 		b	.L70
 835              	.L89:
 836 0ad4 050051E3 		cmp	r1, #5
 837 0ad8 AA0000CA 		bgt	.L97
 838 0adc 0381A0E1 		lsl	r8, r3, #2
 839 0ae0 04A090E5 		ldr	r10, [r0, #4]
 840 0ae4 01E0A0E3 		mov	lr, #1
 841 0ae8 089088E2 		add	r9, r8, #8
 842 0aec 09908CE0 		add	r9, ip, r9
 843 0af0 08A08AE0 		add	r10, r10, r8
 844 0af4 070000EA 		b	.L98
 845              	.L491:
 846 0af8 010053E1 		cmp	r3, r1
 847 0afc FD0000AA 		bge	.L93
 848 0b00 048039E5 		ldr	r8, [r9, #-4]!
 849 0b04 013043E2 		sub	r3, r3, #1
 850 0b08 010073E3 		cmn	r3, #1
 851 0b0c 980E0EE0 		mul	lr, r8, lr
 852 0b10 5CE084E5 		str	lr, [r4, #92]
 853 0b14 02FEFF0A 		beq	.L68
 854              	.L98:
 855 0b18 04801AE4 		ldr	r8, [r10], #-4
 856 0b1c 010058E3 		cmp	r8, #1
 857 0b20 C9FEFF1A 		bne	.L91
 858 0b24 010073E3 		cmn	r3, #1
 859 0b28 F2FFFF1A 		bne	.L491
 860              	.L92:
 861 0b2c FEFFFFEB 		bl	abort
 862              	.LEHE7:
 863              	.L105:
 864 0b30 050051E3 		cmp	r1, #5
 865 0b34 A90000CA 		bgt	.L114
 866 0b38 0381A0E1 		lsl	r8, r3, #2
 867 0b3c 04A090E5 		ldr	r10, [r0, #4]
 868 0b40 01E0A0E3 		mov	lr, #1
 869 0b44 089088E2 		add	r9, r8, #8
 870 0b48 09908CE0 		add	r9, ip, r9
 871 0b4c 08A08AE0 		add	r10, r10, r8
 872              	.L116:
 873 0b50 010053E1 		cmp	r3, r1
 874 0b54 04801AE4 		ldr	r8, [r10], #-4
 875 0b58 E80000AA 		bge	.L107
 876 0b5c 04B039E5 		ldr	fp, [r9, #-4]!
 877 0b60 0B0058E1 		cmp	r8, fp
 878 0b64 1200000A 		beq	.L492
 879 0b68 000053E3 		cmp	r3, #0
 880 0b6c 019083A2 		addge	r9, r3, #1
 881 0b70 09918CA0 		addge	r9, ip, r9, lsl #2
 882 0b74 EAFDFFBA 		blt	.L68
 883              	.L129:
 884 0b78 04E019E4 		ldr	lr, [r9], #-4
 885 0b7c 01005EE3 		cmp	lr, #1
 886 0b80 CDFEFF1A 		bne	.L124
 887 0b84 04E090E5 		ldr	lr, [r0, #4]
 888 0b88 0C8049E0 		sub	r8, r9, ip
 889 0b8c 54A094E5 		ldr	r10, [r4, #84]
 890 0b90 013043E2 		sub	r3, r3, #1
 891 0b94 010073E3 		cmn	r3, #1
 892 0b98 08E09EE7 		ldr	lr, [lr, r8]
 893 0b9c 9E0A0EE0 		mul	lr, lr, r10
 894 0ba0 54E084E5 		str	lr, [r4, #84]
 895 0ba4 DEFDFF0A 		beq	.L68
 896 0ba8 010053E1 		cmp	r3, r1
 897 0bac F1FFFFBA 		blt	.L129
 898 0bb0 BCFFFFEA 		b	.L128
 899              	.L492:
 900 0bb4 010073E3 		cmn	r3, #1
 901 0bb8 CD00000A 		beq	.L109
 902 0bbc 9E080EE0 		mul	lr, lr, r8
 903 0bc0 013043E2 		sub	r3, r3, #1
 904 0bc4 010073E3 		cmn	r3, #1
 905 0bc8 58E084E5 		str	lr, [r4, #88]
 906 0bcc DFFFFF1A 		bne	.L116
 907 0bd0 D3FDFFEA 		b	.L68
 908              	.L136:
 909 0bd4 050058E3 		cmp	r8, #5
 910 0bd8 AF0000CA 		bgt	.L144
 911 0bdc 0311A0E1 		lsl	r1, r3, #2
 912 0be0 040090E5 		ldr	r0, [r0, #4]
 913 0be4 082081E2 		add	r2, r1, #8
 914 0be8 010080E0 		add	r0, r0, r1
 915 0bec 02C08CE0 		add	ip, ip, r2
 916 0bf0 050000EA 		b	.L145
 917              	.L493:
 918 0bf4 501094E5 		ldr	r1, [r4, #80]
 919 0bf8 013043E2 		sub	r3, r3, #1
 920 0bfc 010073E3 		cmn	r3, #1
 921 0c00 920102E0 		mul	r2, r2, r1
 922 0c04 502084E5 		str	r2, [r4, #80]
 923 0c08 C5FDFF0A 		beq	.L68
 924              	.L145:
 925 0c0c 080053E1 		cmp	r3, r8
 926 0c10 041010E4 		ldr	r1, [r0], #-4
 927 0c14 BB0000AA 		bge	.L138
 928 0c18 04203CE5 		ldr	r2, [ip, #-4]!
 929 0c1c 010052E1 		cmp	r2, r1
 930 0c20 B6FEFF1A 		bne	.L139
 931 0c24 010073E3 		cmn	r3, #1
 932 0c28 F1FFFF1A 		bne	.L493
 933              	.L140:
 934              	.LEHB8:
 935 0c2c FEFFFFEB 		bl	abort
 936              	.LEHE8:
 937              	.L203:
 938              	.L462:
 939 0c30 38609DE5 		ldr	r6, [sp, #56]
 940 0c34 4EFFFFEA 		b	.L119
 941              	.L90:
 942 0c38 019083E2 		add	r9, r3, #1
 943 0c3c 01E0A0E3 		mov	lr, #1
 944 0c40 099180E0 		add	r9, r0, r9, lsl #2
 945              	.L96:
 946 0c44 048019E4 		ldr	r8, [r9], #-4
 947 0c48 010058E3 		cmp	r8, #1
 948 0c4c 7EFEFF1A 		bne	.L91
 949 0c50 010073E3 		cmn	r3, #1
 950 0c54 B4FFFF0A 		beq	.L92
 951 0c58 010053E1 		cmp	r3, r1
 952 0c5c A50000AA 		bge	.L93
 953 0c60 04A09CE5 		ldr	r10, [ip, #4]
 954 0c64 008049E0 		sub	r8, r9, r0
 955 0c68 013043E2 		sub	r3, r3, #1
 956 0c6c 010073E3 		cmn	r3, #1
 957 0c70 08809AE7 		ldr	r8, [r10, r8]
 958 0c74 980E0EE0 		mul	lr, r8, lr
 959 0c78 5CE084E5 		str	lr, [r4, #92]
 960 0c7c A8FDFF0A 		beq	.L68
 961 0c80 020053E1 		cmp	r3, r2
 962 0c84 EEFFFFBA 		blt	.L96
 963 0c88 7AFFFFEA 		b	.L88
 964              	.L106:
 965 0c8c 019083E2 		add	r9, r3, #1
 966 0c90 01E0A0E3 		mov	lr, #1
 967 0c94 099180E0 		add	r9, r0, r9, lsl #2
 968              	.L113:
 969 0c98 010053E1 		cmp	r3, r1
 970 0c9c 04B019E4 		ldr	fp, [r9], #-4
 971 0ca0 960000AA 		bge	.L107
 972 0ca4 04A09CE5 		ldr	r10, [ip, #4]
 973 0ca8 008049E0 		sub	r8, r9, r0
 974 0cac 08809AE7 		ldr	r8, [r10, r8]
 975 0cb0 0B0058E1 		cmp	r8, fp
 976 0cb4 1400000A 		beq	.L494
 977 0cb8 000053E3 		cmp	r3, #0
 978 0cbc 0391A0A1 		lslge	r9, r3, #2
 979 0cc0 088089A2 		addge	r8, r9, #8
 980 0cc4 09908AA0 		addge	r9, r10, r9
 981 0cc8 088080A0 		addge	r8, r0, r8
 982 0ccc 070000AA 		bge	.L130
 983 0cd0 93FDFFEA 		b	.L68
 984              	.L495:
 985 0cd4 54E094E5 		ldr	lr, [r4, #84]
 986 0cd8 013043E2 		sub	r3, r3, #1
 987 0cdc 041038E5 		ldr	r1, [r8, #-4]!
 988 0ce0 010073E3 		cmn	r3, #1
 989 0ce4 910E01E0 		mul	r1, r1, lr
 990 0ce8 541084E5 		str	r1, [r4, #84]
 991 0cec 8CFDFF0A 		beq	.L68
 992              	.L130:
 993 0cf0 041019E4 		ldr	r1, [r9], #-4
 994 0cf4 010051E3 		cmp	r1, #1
 995 0cf8 6FFEFF1A 		bne	.L124
 996 0cfc 020053E1 		cmp	r3, r2
 997 0d00 F3FFFFBA 		blt	.L495
 998              	.L125:
 999              	.LEHB9:
 1000 0d04 FEFFFFEB 		bl	abort
 1001              	.LEHE9:
 1002              	.L207:
 1003 0d08 C8FFFFEA 		b	.L462
 1004              	.L494:
 1005 0d0c 010073E3 		cmn	r3, #1
 1006 0d10 7700000A 		beq	.L109
 1007 0d14 9E080EE0 		mul	lr, lr, r8
 1008 0d18 013043E2 		sub	r3, r3, #1
 1009 0d1c 010073E3 		cmn	r3, #1
 1010 0d20 58E084E5 		str	lr, [r4, #88]
 1011 0d24 7EFDFF0A 		beq	.L68
 1012 0d28 020053E1 		cmp	r3, r2
 1013 0d2c D9FFFFBA 		blt	.L113
 1014 0d30 38FFFFEA 		b	.L104
 1015              	.L137:
 1016 0d34 019083E2 		add	r9, r3, #1
 1017 0d38 099180E0 		add	r9, r0, r9, lsl #2
 1018              	.L143:
 1019 0d3c 080053E1 		cmp	r3, r8
 1020 0d40 04E019E4 		ldr	lr, [r9], #-4
 1021 0d44 6F0000AA 		bge	.L138
 1022 0d48 04A09CE5 		ldr	r10, [ip, #4]
 1023 0d4c 001049E0 		sub	r1, r9, r0
 1024 0d50 01109AE7 		ldr	r1, [r10, r1]
 1025 0d54 0E0051E1 		cmp	r1, lr
 1026 0d58 68FEFF1A 		bne	.L139
 1027 0d5c 010073E3 		cmn	r3, #1
 1028 0d60 B1FFFF0A 		beq	.L140
 1029 0d64 50E094E5 		ldr	lr, [r4, #80]
 1030 0d68 013043E2 		sub	r3, r3, #1
 1031 0d6c 010073E3 		cmn	r3, #1
 1032 0d70 910E01E0 		mul	r1, r1, lr
 1033 0d74 501084E5 		str	r1, [r4, #80]
 1034 0d78 69FDFF0A 		beq	.L68
 1035 0d7c 020053E1 		cmp	r3, r2
 1036 0d80 EDFFFFBA 		blt	.L143
 1037 0d84 2EFFFFEA 		b	.L135
 1038              	.L97:
 1039 0d88 049090E5 		ldr	r9, [r0, #4]
 1040 0d8c 01E0A0E3 		mov	lr, #1
 1041 0d90 04A069E2 		rsb	r10, r9, #4
 1042 0d94 039189E0 		add	r9, r9, r3, lsl #2
 1043              	.L87:
 1044 0d98 048019E4 		ldr	r8, [r9], #-4
 1045 0d9c 010058E3 		cmp	r8, #1
 1046 0da0 29FEFF1A 		bne	.L91
 1047 0da4 010073E3 		cmn	r3, #1
 1048 0da8 5FFFFF0A 		beq	.L92
 1049 0dac 010053E1 		cmp	r3, r1
 1050 0db0 500000AA 		bge	.L93
 1051 0db4 04809CE5 		ldr	r8, [ip, #4]
 1052 0db8 013043E2 		sub	r3, r3, #1
 1053 0dbc 010073E3 		cmn	r3, #1
 1054 0dc0 098088E0 		add	r8, r8, r9
 1055 0dc4 0A8098E7 		ldr	r8, [r8, r10]
 1056 0dc8 980E0EE0 		mul	lr, r8, lr
 1057 0dcc 5CE084E5 		str	lr, [r4, #92]
 1058 0dd0 53FDFF0A 		beq	.L68
 1059 0dd4 020053E1 		cmp	r3, r2
 1060 0dd8 EEFFFFBA 		blt	.L87
 1061 0ddc 25FFFFEA 		b	.L88
 1062              	.L114:
 1063 0de0 049090E5 		ldr	r9, [r0, #4]
 1064 0de4 0180A0E3 		mov	r8, #1
 1065 0de8 04008DE5 		str	r0, [sp, #4]
 1066 0dec 04E069E2 		rsb	lr, r9, #4
 1067 0df0 039189E0 		add	r9, r9, r3, lsl #2
 1068 0df4 00E08DE5 		str	lr, [sp]
 1069              	.L103:
 1070 0df8 010053E1 		cmp	r3, r1
 1071 0dfc 04E019E4 		ldr	lr, [r9], #-4
 1072 0e00 3E0000AA 		bge	.L107
 1073 0e04 04A09CE5 		ldr	r10, [ip, #4]
 1074 0e08 00009DE5 		ldr	r0, [sp]
 1075 0e0c 09B08AE0 		add	fp, r10, r9
 1076 0e10 00B09BE7 		ldr	fp, [fp, r0]
 1077 0e14 0B005EE1 		cmp	lr, fp
 1078 0e18 1500000A 		beq	.L496
 1079 0e1c 000053E3 		cmp	r3, #0
 1080 0e20 04009DE5 		ldr	r0, [sp, #4]
 1081 0e24 03918AA0 		addge	r9, r10, r3, lsl #2
 1082 0e28 04A06AA2 		rsbge	r10, r10, #4
 1083 0e2c 3CFDFFBA 		blt	.L68
 1084              	.L123:
 1085 0e30 04E019E4 		ldr	lr, [r9], #-4
 1086 0e34 01005EE3 		cmp	lr, #1
 1087 0e38 1FFEFF1A 		bne	.L124
 1088 0e3c 020053E1 		cmp	r3, r2
 1089 0e40 AFFFFFAA 		bge	.L125
 1090 0e44 048090E5 		ldr	r8, [r0, #4]
 1091 0e48 013043E2 		sub	r3, r3, #1
 1092 0e4c 54B094E5 		ldr	fp, [r4, #84]
 1093 0e50 010073E3 		cmn	r3, #1
 1094 0e54 098088E0 		add	r8, r8, r9
 1095 0e58 0AE098E7 		ldr	lr, [r8, r10]
 1096 0e5c 9E0B0EE0 		mul	lr, lr, fp
 1097 0e60 54E084E5 		str	lr, [r4, #84]
 1098 0e64 2EFDFF0A 		beq	.L68
 1099 0e68 010053E1 		cmp	r3, r1
 1100 0e6c EFFFFFBA 		blt	.L123
 1101 0e70 0CFFFFEA 		b	.L128
 1102              	.L496:
 1103 0e74 010073E3 		cmn	r3, #1
 1104 0e78 1D00000A 		beq	.L109
 1105 0e7c 980E08E0 		mul	r8, r8, lr
 1106 0e80 013043E2 		sub	r3, r3, #1
 1107 0e84 010073E3 		cmn	r3, #1
 1108 0e88 588084E5 		str	r8, [r4, #88]
 1109 0e8c 24FDFF0A 		beq	.L68
 1110 0e90 020053E1 		cmp	r3, r2
 1111 0e94 D7FFFFBA 		blt	.L103
 1112 0e98 DEFEFFEA 		b	.L104
 1113              	.L144:
 1114 0e9c 04E090E5 		ldr	lr, [r0, #4]
 1115 0ea0 04906EE2 		rsb	r9, lr, #4
 1116 0ea4 03E18EE0 		add	lr, lr, r3, lsl #2
 1117              	.L134:
 1118 0ea8 080053E1 		cmp	r3, r8
 1119 0eac 04A01EE4 		ldr	r10, [lr], #-4
 1120 0eb0 140000AA 		bge	.L138
 1121 0eb4 04009CE5 		ldr	r0, [ip, #4]
 1122 0eb8 0E0080E0 		add	r0, r0, lr
 1123 0ebc 091090E7 		ldr	r1, [r0, r9]
 1124 0ec0 01005AE1 		cmp	r10, r1
 1125 0ec4 0DFEFF1A 		bne	.L139
 1126 0ec8 010073E3 		cmn	r3, #1
 1127 0ecc 56FFFF0A 		beq	.L140
 1128 0ed0 501094E5 		ldr	r1, [r4, #80]
 1129 0ed4 013043E2 		sub	r3, r3, #1
 1130 0ed8 010073E3 		cmn	r3, #1
 1131 0edc 9A0101E0 		mul	r1, r10, r1
 1132 0ee0 501084E5 		str	r1, [r4, #80]
 1133 0ee4 0EFDFF0A 		beq	.L68
 1134 0ee8 020053E1 		cmp	r3, r2
 1135 0eec EDFFFFBA 		blt	.L134
 1136 0ef0 D3FEFFEA 		b	.L135
 1137              	.L109:
 1138              	.LEHB10:
 1139 0ef4 FEFFFFEB 		bl	abort
 1140              	.L93:
 1141 0ef8 FEFFFFEB 		bl	abort
 1142              	.L52:
 1143 0efc FEFFFFEB 		bl	abort
 1144              	.LEHE10:
 1145              	.L107:
 1146              	.LEHB11:
 1147 0f00 FEFFFFEB 		bl	abort
 1148              	.LEHE11:
 1149              	.L206:
 1150 0f04 49FFFFEA 		b	.L462
 1151              	.L138:
 1152              	.LEHB12:
 1153 0f08 FEFFFFEB 		bl	abort
 1154              	.LEHE12:
 1155              	.L208:
 1156 0f0c 47FFFFEA 		b	.L462
 1157              	.L73:
 1158              	.LEHB13:
 1159 0f10 FEFFFFEB 		bl	abort
 1160              	.LEHE13:
 1161              	.L20:
 1162              	.LEHB14:
 1163 0f14 FEFFFFEB 		bl	__cxa_throw_bad_array_new_length
 1164              	.LEHE14:
 1165              	.L204:
 1166 0f18 A4FEFFEA 		b	.L159
 1167              	.L477:
 1168              	.LEHB15:
 1169 0f1c FEFFFFEB 		bl	abort
 1170              	.LEHE15:
 1171              	.L475:
 1172              	.LEHB16:
 1173 0f20 FEFFFFEB 		bl	abort
 1174              	.L479:
 1175 0f24 050053E1 		cmp	r3, r5
 1176 0f28 0020A0E3 		mov	r2, #0
 1177 0f2c 20208DE5 		str	r2, [sp, #32]
 1178 0f30 0320A0E1 		mov	r2, r3
 1179 0f34 15FDFFCA 		bgt	.L14
 1180 0f38 050055E3 		cmp	r5, #5
 1181 0f3c 20508DE5 		str	r5, [sp, #32]
 1182 0f40 62FCFFCA 		bgt	.L172
 1183 0f44 13FDFFEA 		b	.L19
 1184              	.L32:
 1185 0f48 FEFFFFEB 		bl	__cxa_throw_bad_array_new_length
 1186              	.LEHE16:
 1187              	.L481:
 1188 0f4c 24008DE2 		add	r0, sp, #36
 1189 0f50 75FCFFEA 		b	.L166
 1190              	.L10:
 1191              	.LEHB17:
 1192 0f54 FEFFFFEB 		bl	__cxa_throw_bad_array_new_length
 1193              	.LEHE17:
 1194              		.global	__gxx_personality_v0
 1195              		.personality	__gxx_personality_v0
 1196              		.handlerdata
 1197              	.LLSDA4243:
 1198 0008 FF       		.byte	0xff
 1199 0009 FF       		.byte	0xff
 1200 000a 01       		.byte	0x1
 1201 000b 6B       		.uleb128 .LLSDACSE4243-.LLSDACSB4243
 1202              	.LLSDACSB4243:
 1203 000c 40       		.uleb128 .LEHB0-.LFB4243
 1204 000d 04       		.uleb128 .LEHE0-.LEHB0
 1205 000e 00       		.uleb128 0
 1206 000f 00       		.uleb128 0
 1207 0010 DC01     		.uleb128 .LEHB1-.LFB4243
 1208 0012 04       		.uleb128 .LEHE1-.LEHB1
 1209 0013 981E     		.uleb128 .L204-.LFB4243
 1210 0015 00       		.uleb128 0
 1211 0016 F002     		.uleb128 .LEHB2-.LFB4243
 1212 0018 04       		.uleb128 .LEHE2-.LEHB2
 1213 0019 C813     		.uleb128 .L202-.LFB4243
 1214 001b 00       		.uleb128 0
 1215 001c 9007     		.uleb128 .LEHB3-.LFB4243
 1216 001e 8001     		.uleb128 .LEHE3-.LEHB3
 1217 0020 C413     		.uleb128 .L201-.LFB4243
 1218 0022 00       		.uleb128 0
 1219 0023 9009     		.uleb128 .LEHB4-.LFB4243
 1220 0025 04       		.uleb128 .LEHE4-.LEHB4
 1221 0026 C813     		.uleb128 .L202-.LFB4243
 1222 0028 00       		.uleb128 0
 1223 0029 EC0F     		.uleb128 .LEHB5-.LFB4243
 1224 002b FC01     		.uleb128 .LEHE5-.LEHB5
 1225 002d F412     		.uleb128 .L205-.LFB4243
 1226 002f 00       		.uleb128 0
 1227 0030 C013     		.uleb128 .LEHB6-.LFB4243
 1228 0032 04       		.uleb128 .LEHE6-.LEHB6
 1229 0033 00       		.uleb128 0
 1230 0034 00       		.uleb128 0
 1231 0035 F013     		.uleb128 .LEHB7-.LFB4243
 1232 0037 C002     		.uleb128 .LEHE7-.LEHB7
 1233 0039 F412     		.uleb128 .L205-.LFB4243
 1234 003b 00       		.uleb128 0
 1235 003c AC18     		.uleb128 .LEHB8-.LFB4243
 1236 003e 04       		.uleb128 .LEHE8-.LEHB8
 1237 003f B018     		.uleb128 .L203-.LFB4243
 1238 0041 00       		.uleb128 0
 1239 0042 841A     		.uleb128 .LEHB9-.LFB4243
 1240 0044 04       		.uleb128 .LEHE9-.LEHB9
 1241 0045 881A     		.uleb128 .L207-.LFB4243
 1242 0047 00       		.uleb128 0
 1243 0048 F41D     		.uleb128 .LEHB10-.LFB4243
 1244 004a 0C       		.uleb128 .LEHE10-.LEHB10
 1245 004b F412     		.uleb128 .L205-.LFB4243
 1246 004d 00       		.uleb128 0
 1247 004e 801E     		.uleb128 .LEHB11-.LFB4243
 1248 0050 04       		.uleb128 .LEHE11-.LEHB11
 1249 0051 841E     		.uleb128 .L206-.LFB4243
 1250 0053 00       		.uleb128 0
 1251 0054 881E     		.uleb128 .LEHB12-.LFB4243
 1252 0056 04       		.uleb128 .LEHE12-.LEHB12
 1253 0057 8C1E     		.uleb128 .L208-.LFB4243
 1254 0059 00       		.uleb128 0
 1255 005a 901E     		.uleb128 .LEHB13-.LFB4243
 1256 005c 04       		.uleb128 .LEHE13-.LEHB13
 1257 005d F412     		.uleb128 .L205-.LFB4243
 1258 005f 00       		.uleb128 0
 1259 0060 941E     		.uleb128 .LEHB14-.LFB4243
 1260 0062 04       		.uleb128 .LEHE14-.LEHB14
 1261 0063 981E     		.uleb128 .L204-.LFB4243
 1262 0065 00       		.uleb128 0
 1263 0066 9C1E     		.uleb128 .LEHB15-.LFB4243
 1264 0068 04       		.uleb128 .LEHE15-.LEHB15
 1265 0069 F412     		.uleb128 .L205-.LFB4243
 1266 006b 00       		.uleb128 0
 1267 006c A01E     		.uleb128 .LEHB16-.LFB4243
 1268 006e 2C       		.uleb128 .LEHE16-.LEHB16
 1269 006f C813     		.uleb128 .L202-.LFB4243
 1270 0071 00       		.uleb128 0
 1271 0072 D41E     		.uleb128 .LEHB17-.LFB4243
 1272 0074 04       		.uleb128 .LEHE17-.LEHB17
 1273 0075 00       		.uleb128 0
 1274 0076 00       		.uleb128 0
 1275              	.LLSDACSE4243:
 1276              		.section	.text._ZN6tflite13reference_ops22ProcessBroadcastShapesERKNS_12RuntimeShapeES3_PNS_16Arit
 1277              		.fnend
 1279              		.section	.text._ZN6tflite3ops5micro3sub15CalculateOpDataEP13TfLiteContextP15TfLiteSubParamsPK12TfL
 1280              		.align	2
 1281              		.global	_ZN6tflite3ops5micro3sub15CalculateOpDataEP13TfLiteContextP15TfLiteSubParamsPK12TfLiteTens
 1282              		.syntax unified
 1283              		.arm
 1284              		.fpu neon
 1286              	_ZN6tflite3ops5micro3sub15CalculateOpDataEP13TfLiteContextP15TfLiteSubParamsPK12TfLiteTensorS9_PS7_
 1287              		.fnstart
 1288              	.LFB4265:
 1289              		@ args = 8, pretend = 0, frame = 0
 1290              		@ frame_needed = 0, uses_anonymous_args = 0
 1291 0000 F0472DE9 		push	{r4, r5, r6, r7, r8, r9, r10, lr}
 1292              		.save {r4, r5, r6, r7, r8, r9, r10, lr}
 1293 0004 0080A0E1 		mov	r8, r0
 1294 0008 048B2DED 		vpush.64	{d8, d9}
 1295              		.vsave {d8, d9}
 1296 000c 0190A0E1 		mov	r9, r1
 1297 0010 0200A0E1 		mov	r0, r2
 1298 0014 0310A0E1 		mov	r1, r3
 1299 0018 30509DE5 		ldr	r5, [sp, #48]
 1300 001c 0270A0E1 		mov	r7, r2
 1301 0020 34409DE5 		ldr	r4, [sp, #52]
 1302 0024 0360A0E1 		mov	r6, r3
 1303 0028 FEFFFFEB 		bl	_ZN6tflite14HaveSameShapesEPK12TfLiteTensorS2_
 1304 002c 0010D5E5 		ldrb	r1, [r5]	@ zero_extendqisi2
 1305 0030 010020E2 		eor	r0, r0, #1
 1306 0034 0000C4E5 		strb	r0, [r4]
 1307 0038 090051E3 		cmp	r1, #9
 1308 003c 03005113 		cmpne	r1, #3
 1309 0040 0100A003 		moveq	r0, #1
 1310 0044 0000A013 		movne	r0, #0
 1311 0048 2C00001A 		bne	.L498
 1312 004c 037A97ED 		vldr.32	s14, [r7, #12]
 1313 0050 14C0A0E3 		mov	ip, #20
 1314 0054 038AD6ED 		vldr.32	s17, [r6, #12]
 1315 0058 0C0084E0 		add	r0, r4, ip
 1316 005c 037AD5ED 		vldr.32	s15, [r5, #12]
 1317 0060 041084E2 		add	r1, r4, #4
 1318 0064 102097E5 		ldr	r2, [r7, #16]
 1319 0068 266ADFED 		vldr.32	s13, .L504
 1320 006c E87AB4EE 		vcmpe.f32	s14, s17
 1321 0070 10FAF1EE 		vmrs	APSR_nzcv, FPSCR
 1322 0074 002062E2 		rsb	r2, r2, #0
 1323 0078 478AB05E 		vmovpl.f32	s16, s14
 1324 007c 688AB04E 		vmovmi.f32	s16, s17
 1325 0080 103096E5 		ldr	r3, [r6, #16]
 1326 0084 088A38EE 		vadd.f32	s16, s16, s16
 1327 0088 A67A67EE 		vmul.f32	s15, s15, s13
 1328 008c 282084E5 		str	r2, [r4, #40]
 1329 0090 003063E2 		rsb	r3, r3, #0
 1330 0094 102095E5 		ldr	r2, [r5, #16]
 1331 0098 080A87EE 		vdiv.f32	s0, s14, s16
 1332 009c 2C3084E5 		str	r3, [r4, #44]
 1333 00a0 302084E5 		str	r2, [r4, #48]
 1334 00a4 24C084E5 		str	ip, [r4, #36]
 1335 00a8 279A88EE 		vdiv.f32	s18, s16, s15
 1336 00ac C00AB7EE 		vcvt.f64.f32	d0, s0
 1337 00b0 FEFFFFEB 		bl	_ZN6tflite35QuantizeMultiplierSmallerThanOneExpEdPlPi
 1338 00b4 081084E2 		add	r1, r4, #8
 1339 00b8 180084E2 		add	r0, r4, #24
 1340 00bc C99AB7EE 		vcvt.f64.f32	d9, s18
 1341 00c0 880A88EE 		vdiv.f32	s0, s17, s16
 1342 00c4 C00AB7EE 		vcvt.f64.f32	d0, s0
 1343 00c8 FEFFFFEB 		bl	_ZN6tflite35QuantizeMultiplierSmallerThanOneExpEdPlPi
 1344 00cc 201084E2 		add	r1, r4, #32
 1345 00d0 1C0084E2 		add	r0, r4, #28
 1346 00d4 490BB0EE 		vmov.f64	d0, d9
 1347 00d8 FEFFFFEB 		bl	_ZN6tflite35QuantizeMultiplierSmallerThanOneExpEdPlPi
 1348 00dc 103084E2 		add	r3, r4, #16
 1349 00e0 0010D9E5 		ldrb	r1, [r9]	@ zero_extendqisi2
 1350 00e4 30308DE5 		str	r3, [sp, #48]
 1351 00e8 0520A0E1 		mov	r2, r5
 1352 00ec 048BBDEC 		vldm	sp!, {d8-d9}
 1353 00f0 0800A0E1 		mov	r0, r8
 1354 00f4 0C3084E2 		add	r3, r4, #12
 1355 00f8 F047BDE8 		pop	{r4, r5, r6, r7, r8, r9, r10, lr}
 1356 00fc FEFFFFEA 		b	_ZN6tflite33CalculateActivationRangeQuantizedEP13TfLiteContext21TfLiteFusedActivationP12TfLiteTe
 1357              	.L498:
 1358 0100 048BBDEC 		vldm	sp!, {d8-d9}
 1359 0104 F087BDE8 		pop	{r4, r5, r6, r7, r8, r9, r10, pc}
 1360              	.L505:
 1361              		.align	2
 1362              	.L504:
 1363 0108 00008049 		.word	1233125376
 1364              		.fnend
 1366              		.section	.text._ZN6tflite3ops5micro3sub7PrepareEP13TfLiteContextP10TfLiteNode,"ax",%progbits
 1367              		.align	2
 1368              		.global	_ZN6tflite3ops5micro3sub7PrepareEP13TfLiteContextP10TfLiteNode
 1369              		.syntax unified
 1370              		.arm
 1371              		.fpu neon
 1373              	_ZN6tflite3ops5micro3sub7PrepareEP13TfLiteContextP10TfLiteNode:
 1374              		.fnstart
 1375              	.LFB4267:
 1376              		@ args = 0, pretend = 0, frame = 0
 1377              		@ frame_needed = 0, uses_anonymous_args = 0
 1378 0000 F0432DE9 		push	{r4, r5, r6, r7, r8, r9, lr}
 1379              		.save {r4, r5, r6, r7, r8, r9, lr}
 1380              		.pad #12
 1381 0004 0CD04DE2 		sub	sp, sp, #12
 1382 0008 106091E5 		ldr	r6, [r1, #16]
 1383 000c 000056E3 		cmp	r6, #0
 1384 0010 2000000A 		beq	.L508
 1385 0014 147091E5 		ldr	r7, [r1, #20]
 1386 0018 0140A0E1 		mov	r4, r1
 1387 001c 000057E3 		cmp	r7, #0
 1388 0020 1C00000A 		beq	.L508
 1389 0024 0020A0E3 		mov	r2, #0
 1390 0028 0050A0E1 		mov	r5, r0
 1391 002c FEFFFFEB 		bl	_ZN6tflite8GetInputEPK13TfLiteContextPK10TfLiteNodei
 1392 0030 008050E2 		subs	r8, r0, #0
 1393 0034 1400000A 		beq	.L511
 1394 0038 0120A0E3 		mov	r2, #1
 1395 003c 0410A0E1 		mov	r1, r4
 1396 0040 0500A0E1 		mov	r0, r5
 1397 0044 FEFFFFEB 		bl	_ZN6tflite8GetInputEPK13TfLiteContextPK10TfLiteNodei
 1398 0048 009050E2 		subs	r9, r0, #0
 1399 004c 0E00000A 		beq	.L511
 1400 0050 0410A0E1 		mov	r1, r4
 1401 0054 0020A0E3 		mov	r2, #0
 1402 0058 0500A0E1 		mov	r0, r5
 1403 005c FEFFFFEB 		bl	_ZN6tflite9GetOutputEP13TfLiteContextPK10TfLiteNodei
 1404 0060 000050E3 		cmp	r0, #0
 1405 0064 0800000A 		beq	.L511
 1406 0068 00008DE5 		str	r0, [sp]
 1407 006c 0930A0E1 		mov	r3, r9
 1408 0070 04608DE5 		str	r6, [sp, #4]
 1409 0074 0820A0E1 		mov	r2, r8
 1410 0078 0710A0E1 		mov	r1, r7
 1411 007c 0500A0E1 		mov	r0, r5
 1412 0080 FEFFFFEB 		bl	_ZN6tflite3ops5micro3sub15CalculateOpDataEP13TfLiteContextP15TfLiteSubParamsPK12TfLiteTensorS9_
 1413 0084 0CD08DE2 		add	sp, sp, #12
 1414              		@ sp needed
 1415 0088 F083BDE8 		pop	{r4, r5, r6, r7, r8, r9, pc}
 1416              	.L511:
 1417 008c 0100A0E3 		mov	r0, #1
 1418 0090 0CD08DE2 		add	sp, sp, #12
 1419              		@ sp needed
 1420 0094 F083BDE8 		pop	{r4, r5, r6, r7, r8, r9, pc}
 1421              	.L508:
 1422 0098 FEFFFFEB 		bl	abort
 1423              		.fnend
 1425              		.section	.text._ZN6tflite3ops5micro3sub7EvalSubEP13TfLiteContextP10TfLiteNodeP15TfLiteSubParamsPKN
 1426              		.align	2
 1427              		.global	_ZN6tflite3ops5micro3sub7EvalSubEP13TfLiteContextP10TfLiteNodeP15TfLiteSubParamsPKNS2_6OpD
 1428              		.syntax unified
 1429              		.arm
 1430              		.fpu neon
 1432              	_ZN6tflite3ops5micro3sub7EvalSubEP13TfLiteContextP10TfLiteNodeP15TfLiteSubParamsPKNS2_6OpDataEPK16T
 1433              		.fnstart
 1434              	.LFB4268:
 1435              		@ args = 12, pretend = 0, frame = 352
 1436              		@ frame_needed = 0, uses_anonymous_args = 0
 1437 0000 0020D2E5 		ldrb	r2, [r2]	@ zero_extendqisi2
 1438 0004 F04F2DE9 		push	{r4, r5, r6, r7, r8, r9, r10, fp, lr}
 1439              		.save {r4, r5, r6, r7, r8, r9, r10, fp, lr}
 1440 0008 028B2DED 		vpush.64	{d8}
 1441              		.vsave {d8}
 1442              		.pad #356
 1443 000c 59DF4DE2 		sub	sp, sp, #356
 1444 0010 010052E3 		cmp	r2, #1
 1445 0014 90519DE5 		ldr	r5, [sp, #400]
 1446 0018 94619DE5 		ldr	r6, [sp, #404]
 1447 001c 98419DE5 		ldr	r4, [sp, #408]
 1448 0020 3C00000A 		beq	.L715
 1449 0024 030052E3 		cmp	r2, #3
 1450 0028 EA03000A 		beq	.L716
 1451 002c F78ADFED 		vldr.32	s17, .L907
 1452 0030 020052E3 		cmp	r2, #2
 1453 0034 F68A9FED 		vldr.32	s16, .L907+4
 1454 0038 007AB7EE 		vmov.f32	s14, #1.0e+0
 1455 003c 007AFFEE 		vmov.f32	s15, #-1.0e+0
 1456 0040 478AF00E 		vmoveq.f32	s17, s14
 1457 0044 678AB00E 		vmoveq.f32	s16, s15
 1458              	.L523:
 1459 0048 0030D3E5 		ldrb	r3, [r3]	@ zero_extendqisi2
 1460 004c 0510A0E1 		mov	r1, r5
 1461 0050 000053E3 		cmp	r3, #0
 1462 0054 4402000A 		beq	.L524
 1463 0058 70008DE2 		add	r0, sp, #112
 1464              	.LEHB18:
 1465 005c FEFFFFEB 		bl	_ZN6tflite5micro14GetTensorShapeEPK16TfLiteEvalTensor
 1466              	.LEHE18:
 1467 0060 000055E3 		cmp	r5, #0
 1468 0064 3F02000A 		beq	.L889
 1469 0068 003095E5 		ldr	r3, [r5]
 1470 006c 0610A0E1 		mov	r1, r6
 1471 0070 88008DE2 		add	r0, sp, #136
 1472 0074 10308DE5 		str	r3, [sp, #16]
 1473              	.LEHB19:
 1474 0078 FEFFFFEB 		bl	_ZN6tflite5micro14GetTensorShapeEPK16TfLiteEvalTensor
 1475              	.LEHE19:
 1476 007c 000056E3 		cmp	r6, #0
 1477 0080 3602000A 		beq	.L890
 1478 0084 003096E5 		ldr	r3, [r6]
 1479 0088 0410A0E1 		mov	r1, r4
 1480 008c A0008DE2 		add	r0, sp, #160
 1481 0090 0C308DE5 		str	r3, [sp, #12]
 1482              	.LEHB20:
 1483 0094 FEFFFFEB 		bl	_ZN6tflite5micro14GetTensorShapeEPK16TfLiteEvalTensor
 1484              	.LEHE20:
 1485 0098 70209DE5 		ldr	r2, [sp, #112]
 1486 009c 000054E3 		cmp	r4, #0
 1487 00a0 00409415 		ldrne	r4, [r4]
 1488 00a4 050052E3 		cmp	r2, #5
 1489 00a8 2A0200CA 		bgt	.L891
 1490 00ac 88509DE5 		ldr	r5, [sp, #136]
 1491 00b0 050055E3 		cmp	r5, #5
 1492 00b4 260200CA 		bgt	.L892
 1493 00b8 A0309DE5 		ldr	r3, [sp, #160]
 1494 00bc 050053E3 		cmp	r3, #5
 1495 00c0 470000CA 		bgt	.L893
 1496 00c4 050072E2 		rsbs	r0, r2, #5
 1497 00c8 0530A0E3 		mov	r3, #5
 1498 00cc D0308DE5 		str	r3, [sp, #208]
 1499 00d0 2900000A 		beq	.L534
 1500 00d4 010050E3 		cmp	r0, #1
 1501 00d8 0130A0E3 		mov	r3, #1
 1502 00dc D4308DE5 		str	r3, [sp, #212]
 1503 00e0 2500000A 		beq	.L534
 1504 00e4 020050E3 		cmp	r0, #2
 1505 00e8 D8308DE5 		str	r3, [sp, #216]
 1506 00ec 2200000A 		beq	.L534
 1507 00f0 030050E3 		cmp	r0, #3
 1508 00f4 DC308DE5 		str	r3, [sp, #220]
 1509 00f8 1F00000A 		beq	.L534
 1510 00fc 040050E3 		cmp	r0, #4
 1511 0100 E0308DE5 		str	r3, [sp, #224]
 1512 0104 1C00000A 		beq	.L534
 1513 0108 050050E3 		cmp	r0, #5
 1514 010c E4308DE5 		str	r3, [sp, #228]
 1515 0110 1900000A 		beq	.L534
 1516              	.LEHB21:
 1517 0114 FEFFFFEB 		bl	abort
 1518              	.LEHE21:
 1519              	.L715:
 1520 0118 BC8ADFED 		vldr.32	s17, .L907
 1521 011c BD8A9FED 		vldr.32	s16, .L907+8
 1522 0120 C8FFFFEA 		b	.L523
 1523              	.L756:
 1524              	.L601:
 1525 0124 A0309DE5 		ldr	r3, [sp, #160]
 1526 0128 050053E3 		cmp	r3, #5
 1527 012c 030000DA 		ble	.L686
 1528 0130 A4009DE5 		ldr	r0, [sp, #164]
 1529 0134 000050E3 		cmp	r0, #0
 1530 0138 0000000A 		beq	.L686
 1531 013c FEFFFFEB 		bl	_ZdaPv
 1532              	.L686:
 1533 0140 88309DE5 		ldr	r3, [sp, #136]
 1534 0144 050053E3 		cmp	r3, #5
 1535 0148 030000DA 		ble	.L688
 1536 014c 8C009DE5 		ldr	r0, [sp, #140]
 1537 0150 000050E3 		cmp	r0, #0
 1538 0154 0000000A 		beq	.L688
 1539 0158 FEFFFFEB 		bl	_ZdaPv
 1540              	.L688:
 1541 015c 70309DE5 		ldr	r3, [sp, #112]
 1542 0160 050053E3 		cmp	r3, #5
 1543 0164 030000DA 		ble	.L695
 1544 0168 74009DE5 		ldr	r0, [sp, #116]
 1545 016c 000050E3 		cmp	r0, #0
 1546 0170 0000000A 		beq	.L695
 1547              	.L876:
 1548 0174 FEFFFFEB 		bl	_ZdaPv
 1549              	.L695:
 1550              	.LEHB22:
 1551 0178 FEFFFFEB 		bl	__cxa_end_cleanup
 1552              	.LEHE22:
 1553              	.L534:
 1554 017c D4308DE2 		add	r3, sp, #212
 1555 0180 0221A0E1 		lsl	r2, r2, #2
 1556 0184 000183E0 		add	r0, r3, r0, lsl #2
 1557 0188 74108DE2 		add	r1, sp, #116
 1558 018c FEFFFFEB 		bl	memcpy
 1559 0190 050075E2 		rsbs	r0, r5, #5
 1560 0194 0530A0E3 		mov	r3, #5
 1561 0198 38318DE5 		str	r3, [sp, #312]
 1562 019c 1900000A 		beq	.L532
 1563 01a0 010050E3 		cmp	r0, #1
 1564 01a4 0130A0E3 		mov	r3, #1
 1565 01a8 3C318DE5 		str	r3, [sp, #316]
 1566 01ac 1500000A 		beq	.L532
 1567 01b0 020050E3 		cmp	r0, #2
 1568 01b4 40318DE5 		str	r3, [sp, #320]
 1569 01b8 1200000A 		beq	.L532
 1570 01bc 030050E3 		cmp	r0, #3
 1571 01c0 44318DE5 		str	r3, [sp, #324]
 1572 01c4 0F00000A 		beq	.L532
 1573 01c8 040050E3 		cmp	r0, #4
 1574 01cc 48318DE5 		str	r3, [sp, #328]
 1575 01d0 0C00000A 		beq	.L532
 1576 01d4 050050E3 		cmp	r0, #5
 1577 01d8 4C318DE5 		str	r3, [sp, #332]
 1578 01dc 0900000A 		beq	.L532
 1579              	.LEHB23:
 1580 01e0 FEFFFFEB 		bl	abort
 1581              	.LEHE23:
 1582              	.L893:
 1583              	.LEHB24:
 1584 01e4 FEFFFFEB 		bl	abort
 1585              	.L759:
 1586 01e8 D0509DE5 		ldr	r5, [sp, #208]
 1587              	.L540:
 1588 01ec 050055E3 		cmp	r5, #5
 1589 01f0 CBFFFFDA 		ble	.L601
 1590 01f4 D4009DE5 		ldr	r0, [sp, #212]
 1591 01f8 000050E3 		cmp	r0, #0
 1592 01fc C8FFFF0A 		beq	.L601
 1593              	.L873:
 1594 0200 FEFFFFEB 		bl	_ZdaPv
 1595 0204 C6FFFFEA 		b	.L601
 1596              	.L532:
 1597 0208 4F3F8DE2 		add	r3, sp, #316
 1598 020c 0521A0E1 		lsl	r2, r5, #2
 1599 0210 000183E0 		add	r0, r3, r0, lsl #2
 1600 0214 8C108DE2 		add	r1, sp, #140
 1601 0218 FEFFFFEB 		bl	memcpy
 1602 021c D0509DE5 		ldr	r5, [sp, #208]
 1603 0220 D4309DE5 		ldr	r3, [sp, #212]
 1604 0224 050055E3 		cmp	r5, #5
 1605 0228 AF0300CA 		bgt	.L894
 1606 022c AD03001A 		bne	.L538
 1607 0230 E4009DE5 		ldr	r0, [sp, #228]
 1608 0234 01C0A0E3 		mov	ip, #1
 1609 0238 E0109DE5 		ldr	r1, [sp, #224]
 1610 023c DC209DE5 		ldr	r2, [sp, #220]
 1611 0240 08018DE5 		str	r0, [sp, #264]
 1612 0244 0CC18DE5 		str	ip, [sp, #268]
 1613 0248 910001E0 		mul	r1, r1, r0
 1614 024c D8009DE5 		ldr	r0, [sp, #216]
 1615              	.L872:
 1616 0250 38619DE5 		ldr	r6, [sp, #312]
 1617 0254 920102E0 		mul	r2, r2, r1
 1618 0258 04118DE5 		str	r1, [sp, #260]
 1619 025c 050056E3 		cmp	r6, #5
 1620 0260 900201E0 		mul	r1, r0, r2
 1621 0264 00218DE5 		str	r2, [sp, #256]
 1622 0268 3C019DE5 		ldr	r0, [sp, #316]
 1623 026c FC108DE5 		str	r1, [sp, #252]
 1624 0270 E30300CA 		bgt	.L895
 1625 0274 E103001A 		bne	.L543
 1626 0278 4C219DE5 		ldr	r2, [sp, #332]
 1627 027c 0170A0E3 		mov	r7, #1
 1628 0280 48119DE5 		ldr	r1, [sp, #328]
 1629 0284 050055E3 		cmp	r5, #5
 1630 0288 44C19DE5 		ldr	ip, [sp, #324]
 1631 028c 40E19DE5 		ldr	lr, [sp, #320]
 1632 0290 34718DE5 		str	r7, [sp, #308]
 1633 0294 910208E0 		mul	r8, r1, r2
 1634 0298 30218DE5 		str	r2, [sp, #304]
 1635 029c 9C0807E0 		mul	r7, ip, r8
 1636 02a0 2C818DE5 		str	r8, [sp, #300]
 1637 02a4 9E0708E0 		mul	r8, lr, r7
 1638 02a8 28718DE5 		str	r7, [sp, #296]
 1639 02ac 24818DE5 		str	r8, [sp, #292]
 1640 02b0 6B0100CA 		bgt	.L896
 1641 02b4 000055E3 		cmp	r5, #0
 1642 02b8 680100DA 		ble	.L548
 1643 02bc 000053E1 		cmp	r3, r0
 1644 02c0 0500000A 		beq	.L549
 1645 02c4 010053E3 		cmp	r3, #1
 1646 02c8 C903000A 		beq	.L550
 1647 02cc 010050E3 		cmp	r0, #1
 1648 02d0 C603001A 		bne	.L551
 1649 02d4 0030A0E3 		mov	r3, #0
 1650 02d8 24318DE5 		str	r3, [sp, #292]
 1651              	.L549:
 1652 02dc 010055E3 		cmp	r5, #1
 1653 02e0 5E01000A 		beq	.L548
 1654 02e4 D8309DE5 		ldr	r3, [sp, #216]
 1655 02e8 03005EE1 		cmp	lr, r3
 1656 02ec 0500000A 		beq	.L553
 1657 02f0 010053E3 		cmp	r3, #1
 1658 02f4 4801000A 		beq	.L552
 1659 02f8 01005EE3 		cmp	lr, #1
 1660 02fc BB03001A 		bne	.L551
 1661 0300 0030A0E3 		mov	r3, #0
 1662 0304 28318DE5 		str	r3, [sp, #296]
 1663              	.L553:
 1664 0308 020055E3 		cmp	r5, #2
 1665 030c 5301000A 		beq	.L548
 1666 0310 DC309DE5 		ldr	r3, [sp, #220]
 1667 0314 03005CE1 		cmp	ip, r3
 1668 0318 0500000A 		beq	.L555
 1669 031c 010053E3 		cmp	r3, #1
 1670 0320 4701000A 		beq	.L554
 1671 0324 01005CE3 		cmp	ip, #1
 1672 0328 B003001A 		bne	.L551
 1673 032c 0030A0E3 		mov	r3, #0
 1674 0330 2C318DE5 		str	r3, [sp, #300]
 1675              	.L555:
 1676 0334 030055E3 		cmp	r5, #3
 1677 0338 4801000A 		beq	.L548
 1678 033c E0309DE5 		ldr	r3, [sp, #224]
 1679 0340 030051E1 		cmp	r1, r3
 1680 0344 0500000A 		beq	.L557
 1681 0348 010053E3 		cmp	r3, #1
 1682 034c 2C00000A 		beq	.L556
 1683 0350 010051E3 		cmp	r1, #1
 1684 0354 A503001A 		bne	.L551
 1685 0358 0030A0E3 		mov	r3, #0
 1686 035c 30318DE5 		str	r3, [sp, #304]
 1687              	.L557:
 1688 0360 050055E3 		cmp	r5, #5
 1689 0364 3D01001A 		bne	.L548
 1690 0368 E4309DE5 		ldr	r3, [sp, #228]
 1691 036c 030052E1 		cmp	r2, r3
 1692 0370 0700000A 		beq	.L594
 1693 0374 010053E3 		cmp	r3, #1
 1694 0378 0030A003 		moveq	r3, #0
 1695 037c 0C318D05 		streq	r3, [sp, #268]
 1696 0380 0300000A 		beq	.L594
 1697 0384 010052E3 		cmp	r2, #1
 1698 0388 9803001A 		bne	.L551
 1699 038c 0030A0E3 		mov	r3, #0
 1700 0390 34318DE5 		str	r3, [sp, #308]
 1701              	.L594:
 1702 0394 A0309DE5 		ldr	r3, [sp, #160]
 1703 0398 0320A0E1 		mov	r2, r3
 1704 039c 2C308DE5 		str	r3, [sp, #44]
 1705 03a0 050052E3 		cmp	r2, #5
 1706 03a4 0030A0E3 		mov	r3, #0
 1707 03a8 B8308DE5 		str	r3, [sp, #184]
 1708 03ac 1D0100CA 		bgt	.L897
 1709 03b0 050072E2 		rsbs	r0, r2, #5
 1710 03b4 0530A0E3 		mov	r3, #5
 1711 03b8 B8308DE5 		str	r3, [sp, #184]
 1712 03bc 1600000A 		beq	.L609
 1713 03c0 010050E3 		cmp	r0, #1
 1714 03c4 0130A0E3 		mov	r3, #1
 1715 03c8 BC308DE5 		str	r3, [sp, #188]
 1716 03cc 1200000A 		beq	.L609
 1717 03d0 020050E3 		cmp	r0, #2
 1718 03d4 C0308DE5 		str	r3, [sp, #192]
 1719 03d8 0F00000A 		beq	.L609
 1720 03dc 030050E3 		cmp	r0, #3
 1721 03e0 C4308DE5 		str	r3, [sp, #196]
 1722 03e4 0C00000A 		beq	.L609
 1723 03e8 040050E3 		cmp	r0, #4
 1724 03ec C8308DE5 		str	r3, [sp, #200]
 1725 03f0 0900000A 		beq	.L609
 1726 03f4 050050E3 		cmp	r0, #5
 1727 03f8 CC308DE5 		str	r3, [sp, #204]
 1728 03fc 0600000A 		beq	.L609
 1729 0400 FEFFFFEB 		bl	abort
 1730              	.LEHE24:
 1731              	.L556:
 1732 0404 0030A0E3 		mov	r3, #0
 1733 0408 08318DE5 		str	r3, [sp, #264]
 1734 040c D3FFFFEA 		b	.L557
 1735              	.L908:
 1736              		.align	2
 1737              	.L907:
 1738 0410 FFFF7F7F 		.word	2139095039
 1739 0414 FFFF7FFF 		.word	-8388609
 1740 0418 00000000 		.word	0
 1741              	.L609:
 1742 041c 2C309DE5 		ldr	r3, [sp, #44]
 1743 0420 A4108DE2 		add	r1, sp, #164
 1744 0424 0321A0E1 		lsl	r2, r3, #2
 1745 0428 BC308DE2 		add	r3, sp, #188
 1746 042c 000183E0 		add	r0, r3, r0, lsl #2
 1747 0430 FEFFFFEB 		bl	memcpy
 1748 0434 B8509DE5 		ldr	r5, [sp, #184]
 1749 0438 BC009DE5 		ldr	r0, [sp, #188]
 1750 043c 050055E3 		cmp	r5, #5
 1751 0440 D90000CA 		bgt	.L898
 1752 0444 D700001A 		bne	.L606
 1753 0448 CC109DE5 		ldr	r1, [sp, #204]
 1754 044c 003050E2 		subs	r3, r0, #0
 1755 0450 C8C09DE5 		ldr	ip, [sp, #200]
 1756 0454 01E0A0E3 		mov	lr, #1
 1757 0458 30308DE5 		str	r3, [sp, #48]
 1758 045c 38018DE5 		str	r0, [sp, #312]
 1759 0460 C4309DE5 		ldr	r3, [sp, #196]
 1760 0464 9C0100E0 		mul	r0, ip, r1
 1761 0468 C0209DE5 		ldr	r2, [sp, #192]
 1762 046c 48118DE5 		str	r1, [sp, #328]
 1763 0470 40318DE5 		str	r3, [sp, #320]
 1764 0474 3C218DE5 		str	r2, [sp, #316]
 1765 0478 930003E0 		mul	r3, r3, r0
 1766 047c 58118DE5 		str	r1, [sp, #344]
 1767 0480 44C18DE5 		str	ip, [sp, #324]
 1768 0484 54018DE5 		str	r0, [sp, #340]
 1769 0488 5CE18DE5 		str	lr, [sp, #348]
 1770 048c 920302E0 		mul	r2, r2, r3
 1771 0490 50318DE5 		str	r3, [sp, #336]
 1772 0494 4C218DE5 		str	r2, [sp, #332]
 1773 0498 B10000DA 		ble	.L612
 1774              	.L608:
 1775 049c 40219DE5 		ldr	r2, [sp, #320]
 1776 04a0 3C319DE5 		ldr	r3, [sp, #316]
 1777 04a4 08119DE5 		ldr	r1, [sp, #264]
 1778 04a8 1C208DE5 		str	r2, [sp, #28]
 1779 04ac 44219DE5 		ldr	r2, [sp, #324]
 1780 04b0 000053E3 		cmp	r3, #0
 1781 04b4 24E19DE5 		ldr	lr, [sp, #292]
 1782 04b8 54308DE5 		str	r3, [sp, #84]
 1783 04bc 4C319DE5 		ldr	r3, [sp, #332]
 1784 04c0 04208DE5 		str	r2, [sp, #4]
 1785 04c4 152E8DE2 		add	r2, sp, #336
 1786 04c8 14108DE5 		str	r1, [sp, #20]
 1787 04cc 4A1F8DE2 		add	r1, sp, #296
 1788 04d0 18308DE5 		str	r3, [sp, #24]
 1789 04d4 08E08DE5 		str	lr, [sp, #8]
 1790 04d8 48819DE5 		ldr	r8, [sp, #328]
 1791 04dc 841492E8 		ldm	r2, {r2, r7, r10, ip}
 1792 04e0 FC509DE5 		ldr	r5, [sp, #252]
 1793 04e4 00019DE5 		ldr	r0, [sp, #256]
 1794 04e8 04319DE5 		ldr	r3, [sp, #260]
 1795 04ec 0CB19DE5 		ldr	fp, [sp, #268]
 1796 04f0 424291E8 		ldm	r1, {r1, r6, r9, lr}
 1797 04f4 930000DA 		ble	.L613
 1798 04f8 0001A0E1 		lsl	r0, r0, #2
 1799 04fc 0331A0E1 		lsl	r3, r3, #2
 1800 0500 0551A0E1 		lsl	r5, r5, #2
 1801 0504 0AA1A0E1 		lsl	r10, r10, #2
 1802 0508 58008DE5 		str	r0, [sp, #88]
 1803 050c 0101A0E1 		lsl	r0, r1, #2
 1804 0510 20308DE5 		str	r3, [sp, #32]
 1805 0514 0631A0E1 		lsl	r3, r6, #2
 1806 0518 14109DE5 		ldr	r1, [sp, #20]
 1807 051c 0BB1A0E1 		lsl	fp, fp, #2
 1808 0520 64508DE5 		str	r5, [sp, #100]
 1809 0524 0CC1A0E1 		lsl	ip, ip, #2
 1810 0528 08509DE5 		ldr	r5, [sp, #8]
 1811 052c 0991A0E1 		lsl	r9, r9, #2
 1812 0530 24308DE5 		str	r3, [sp, #36]
 1813 0534 0731A0E1 		lsl	r3, r7, #2
 1814 0538 0EE1A0E1 		lsl	lr, lr, #2
 1815 053c 0221A0E1 		lsl	r2, r2, #2
 1816 0540 28308DE5 		str	r3, [sp, #40]
 1817 0544 0131A0E1 		lsl	r3, r1, #2
 1818 0548 0551A0E1 		lsl	r5, r5, #2
 1819 054c 0B70A0E1 		mov	r7, fp
 1820 0550 08308DE5 		str	r3, [sp, #8]
 1821 0554 0AB0A0E1 		mov	fp, r10
 1822 0558 10309DE5 		ldr	r3, [sp, #16]
 1823 055c 0CA0A0E1 		mov	r10, ip
 1824 0560 68508DE5 		str	r5, [sp, #104]
 1825 0564 18509DE5 		ldr	r5, [sp, #24]
 1826 0568 40308DE5 		str	r3, [sp, #64]
 1827 056c 0C309DE5 		ldr	r3, [sp, #12]
 1828 0570 5C008DE5 		str	r0, [sp, #92]
 1829 0574 0551A0E1 		lsl	r5, r5, #2
 1830 0578 60208DE5 		str	r2, [sp, #96]
 1831 057c 44308DE5 		str	r3, [sp, #68]
 1832 0580 0030A0E3 		mov	r3, #0
 1833 0584 6C508DE5 		str	r5, [sp, #108]
 1834 0588 48408DE5 		str	r4, [sp, #72]
 1835 058c 50308DE5 		str	r3, [sp, #80]
 1836              	.L615:
 1837 0590 1C309DE5 		ldr	r3, [sp, #28]
 1838 0594 000053E3 		cmp	r3, #0
 1839 0598 580000DA 		ble	.L617
 1840 059c 48309DE5 		ldr	r3, [sp, #72]
 1841 05a0 3C308DE5 		str	r3, [sp, #60]
 1842 05a4 44309DE5 		ldr	r3, [sp, #68]
 1843 05a8 38308DE5 		str	r3, [sp, #56]
 1844 05ac 40309DE5 		ldr	r3, [sp, #64]
 1845 05b0 34308DE5 		str	r3, [sp, #52]
 1846 05b4 0030A0E3 		mov	r3, #0
 1847 05b8 4C308DE5 		str	r3, [sp, #76]
 1848              	.L618:
 1849 05bc 04309DE5 		ldr	r3, [sp, #4]
 1850 05c0 000053E3 		cmp	r3, #0
 1851 05c4 3B0000DA 		ble	.L620
 1852 05c8 3C309DE5 		ldr	r3, [sp, #60]
 1853 05cc 0C308DE5 		str	r3, [sp, #12]
 1854 05d0 38309DE5 		ldr	r3, [sp, #56]
 1855 05d4 10308DE5 		str	r3, [sp, #16]
 1856 05d8 34309DE5 		ldr	r3, [sp, #52]
 1857 05dc 14308DE5 		str	r3, [sp, #20]
 1858 05e0 0030A0E3 		mov	r3, #0
 1859 05e4 18308DE5 		str	r3, [sp, #24]
 1860              	.L621:
 1861 05e8 000058E3 		cmp	r8, #0
 1862 05ec 1F0000DA 		ble	.L623
 1863 05f0 0C609DE5 		ldr	r6, [sp, #12]
 1864 05f4 00C0A0E3 		mov	ip, #0
 1865 05f8 10509DE5 		ldr	r5, [sp, #16]
 1866 05fc 14409DE5 		ldr	r4, [sp, #20]
 1867              	.L624:
 1868 0600 0600A0E1 		mov	r0, r6
 1869 0604 0510A0E1 		mov	r1, r5
 1870 0608 0420A0E1 		mov	r2, r4
 1871 060c 0030A0E3 		mov	r3, #0
 1872              	.L622:
 1873 0610 007A92ED 		vldr.32	s14, [r2]
 1874 0614 013083E2 		add	r3, r3, #1
 1875 0618 007AD1ED 		vldr.32	s15, [r1]
 1876 061c 072082E0 		add	r2, r2, r7
 1877 0620 0E1081E0 		add	r1, r1, lr
 1878 0624 677A77EE 		vsub.f32	s15, s14, s15
 1879 0628 E78AB4EE 		vcmpe.f32	s16, s15
 1880 062c 10FAF1EE 		vmrs	APSR_nzcv, FPSCR
 1881 0630 487AF0CE 		vmovgt.f32	s15, s16
 1882 0634 E78AF4EE 		vcmpe.f32	s17, s15
 1883 0638 10FAF1EE 		vmrs	APSR_nzcv, FPSCR
 1884 063c 687AF04E 		vmovmi.f32	s15, s17
 1885 0640 080053E1 		cmp	r3, r8
 1886 0644 007AC0ED 		vstr.32	s15, [r0]
 1887 0648 0A0080E0 		add	r0, r0, r10
 1888 064c EFFFFF1A 		bne	.L622
 1889 0650 08309DE5 		ldr	r3, [sp, #8]
 1890 0654 01C08CE2 		add	ip, ip, #1
 1891 0658 095085E0 		add	r5, r5, r9
 1892 065c 0B6086E0 		add	r6, r6, fp
 1893 0660 034084E0 		add	r4, r4, r3
 1894 0664 04309DE5 		ldr	r3, [sp, #4]
 1895 0668 03005CE1 		cmp	ip, r3
 1896 066c E3FFFF1A 		bne	.L624
 1897              	.L623:
 1898 0670 14209DE5 		ldr	r2, [sp, #20]
 1899 0674 20109DE5 		ldr	r1, [sp, #32]
 1900 0678 18309DE5 		ldr	r3, [sp, #24]
 1901 067c 012082E0 		add	r2, r2, r1
 1902 0680 14208DE5 		str	r2, [sp, #20]
 1903 0684 013083E2 		add	r3, r3, #1
 1904 0688 1C209DE5 		ldr	r2, [sp, #28]
 1905 068c 18308DE5 		str	r3, [sp, #24]
 1906 0690 020053E1 		cmp	r3, r2
 1907 0694 10309DE5 		ldr	r3, [sp, #16]
 1908 0698 24209DE5 		ldr	r2, [sp, #36]
 1909 069c 023083E0 		add	r3, r3, r2
 1910 06a0 28209DE5 		ldr	r2, [sp, #40]
 1911 06a4 10308DE5 		str	r3, [sp, #16]
 1912 06a8 0C309DE5 		ldr	r3, [sp, #12]
 1913 06ac 023083E0 		add	r3, r3, r2
 1914 06b0 0C308DE5 		str	r3, [sp, #12]
 1915 06b4 CBFFFF1A 		bne	.L621
 1916              	.L620:
 1917 06b8 34209DE5 		ldr	r2, [sp, #52]
 1918 06bc 58109DE5 		ldr	r1, [sp, #88]
 1919 06c0 4C309DE5 		ldr	r3, [sp, #76]
 1920 06c4 012082E0 		add	r2, r2, r1
 1921 06c8 34208DE5 		str	r2, [sp, #52]
 1922 06cc 013083E2 		add	r3, r3, #1
 1923 06d0 54209DE5 		ldr	r2, [sp, #84]
 1924 06d4 4C308DE5 		str	r3, [sp, #76]
 1925 06d8 020053E1 		cmp	r3, r2
 1926 06dc 38309DE5 		ldr	r3, [sp, #56]
 1927 06e0 5C209DE5 		ldr	r2, [sp, #92]
 1928 06e4 023083E0 		add	r3, r3, r2
 1929 06e8 60209DE5 		ldr	r2, [sp, #96]
 1930 06ec 38308DE5 		str	r3, [sp, #56]
 1931 06f0 3C309DE5 		ldr	r3, [sp, #60]
 1932 06f4 023083E0 		add	r3, r3, r2
 1933 06f8 3C308DE5 		str	r3, [sp, #60]
 1934 06fc AEFFFF1A 		bne	.L618
 1935              	.L617:
 1936 0700 40209DE5 		ldr	r2, [sp, #64]
 1937 0704 64109DE5 		ldr	r1, [sp, #100]
 1938 0708 50309DE5 		ldr	r3, [sp, #80]
 1939 070c 012082E0 		add	r2, r2, r1
 1940 0710 40208DE5 		str	r2, [sp, #64]
 1941 0714 013083E2 		add	r3, r3, #1
 1942 0718 30209DE5 		ldr	r2, [sp, #48]
 1943 071c 50308DE5 		str	r3, [sp, #80]
 1944 0720 020053E1 		cmp	r3, r2
 1945 0724 44309DE5 		ldr	r3, [sp, #68]
 1946 0728 68209DE5 		ldr	r2, [sp, #104]
 1947 072c 023083E0 		add	r3, r3, r2
 1948 0730 6C209DE5 		ldr	r2, [sp, #108]
 1949 0734 44308DE5 		str	r3, [sp, #68]
 1950 0738 48309DE5 		ldr	r3, [sp, #72]
 1951 073c 023083E0 		add	r3, r3, r2
 1952 0740 48308DE5 		str	r3, [sp, #72]
 1953 0744 91FFFF1A 		bne	.L615
 1954              	.L613:
 1955 0748 2C309DE5 		ldr	r3, [sp, #44]
 1956 074c 050053E3 		cmp	r3, #5
 1957 0750 030000DA 		ble	.L612
 1958 0754 A4009DE5 		ldr	r0, [sp, #164]
 1959 0758 000050E3 		cmp	r0, #0
 1960 075c 0000000A 		beq	.L612
 1961 0760 FEFFFFEB 		bl	_ZdaPv
 1962              	.L612:
 1963 0764 88309DE5 		ldr	r3, [sp, #136]
 1964 0768 050053E3 		cmp	r3, #5
 1965 076c 030000DA 		ble	.L630
 1966 0770 8C009DE5 		ldr	r0, [sp, #140]
 1967 0774 000050E3 		cmp	r0, #0
 1968 0778 0000000A 		beq	.L630
 1969 077c FEFFFFEB 		bl	_ZdaPv
 1970              	.L630:
 1971 0780 70309DE5 		ldr	r3, [sp, #112]
 1972 0784 050053E3 		cmp	r3, #5
 1973 0788 030000DA 		ble	.L522
 1974 078c 74009DE5 		ldr	r0, [sp, #116]
 1975 0790 000050E3 		cmp	r0, #0
 1976 0794 0000000A 		beq	.L522
 1977              	.L875:
 1978 0798 FEFFFFEB 		bl	_ZdaPv
 1979              	.L522:
 1980 079c 59DF8DE2 		add	sp, sp, #356
 1981              		@ sp needed
 1982 07a0 028BBDEC 		vldm	sp!, {d8}
 1983 07a4 F08FBDE8 		pop	{r4, r5, r6, r7, r8, r9, r10, fp, pc}
 1984              	.L606:
 1985              	.LEHB25:
 1986 07a8 FEFFFFEB 		bl	abort
 1987              	.LEHE25:
 1988              	.L898:
 1989 07ac 103090E5 		ldr	r3, [r0, #16]
 1990 07b0 000050E3 		cmp	r0, #0
 1991 07b4 0CE090E5 		ldr	lr, [r0, #12]
 1992 07b8 0150A0E3 		mov	r5, #1
 1993 07bc 060090E9 		ldmib	r0, {r1, r2}
 1994 07c0 48318DE5 		str	r3, [sp, #328]
 1995 07c4 58318DE5 		str	r3, [sp, #344]
 1996 07c8 9E030CE0 		mul	ip, lr, r3
 1997 07cc 40218DE5 		str	r2, [sp, #320]
 1998 07d0 3C118DE5 		str	r1, [sp, #316]
 1999 07d4 003090E5 		ldr	r3, [r0]
 2000 07d8 44E18DE5 		str	lr, [sp, #324]
 2001 07dc 920C02E0 		mul	r2, r2, ip
 2002 07e0 54C18DE5 		str	ip, [sp, #340]
 2003 07e4 5C518DE5 		str	r5, [sp, #348]
 2004 07e8 38318DE5 		str	r3, [sp, #312]
 2005 07ec 910201E0 		mul	r1, r1, r2
 2006 07f0 50218DE5 		str	r2, [sp, #336]
 2007 07f4 4C118DE5 		str	r1, [sp, #332]
 2008 07f8 1400000A 		beq	.L899
 2009 07fc FEFFFFEB 		bl	_ZdaPv
 2010 0800 38319DE5 		ldr	r3, [sp, #312]
 2011 0804 A0209DE5 		ldr	r2, [sp, #160]
 2012 0808 000053E3 		cmp	r3, #0
 2013 080c 30308DE5 		str	r3, [sp, #48]
 2014 0810 2C208DE5 		str	r2, [sp, #44]
 2015 0814 20FFFFCA 		bgt	.L608
 2016 0818 CAFFFFEA 		b	.L613
 2017              	.L552:
 2018 081c 0030A0E3 		mov	r3, #0
 2019 0820 00318DE5 		str	r3, [sp, #256]
 2020 0824 B7FEFFEA 		b	.L553
 2021              	.L897:
 2022              	.LEHB26:
 2023 0828 FEFFFFEB 		bl	abort
 2024              	.LEHE26:
 2025              	.L757:
 2026 082c 050055E3 		cmp	r5, #5
 2027 0830 3BFEFFDA 		ble	.L601
 2028 0834 BC009DE5 		ldr	r0, [sp, #188]
 2029 0838 000050E3 		cmp	r0, #0
 2030 083c 6FFEFF1A 		bne	.L873
 2031 0840 37FEFFEA 		b	.L601
 2032              	.L554:
 2033 0844 0030A0E3 		mov	r3, #0
 2034 0848 04318DE5 		str	r3, [sp, #260]
 2035 084c B8FEFFEA 		b	.L555
 2036              	.L899:
 2037 0850 000053E3 		cmp	r3, #0
 2038 0854 30308DE5 		str	r3, [sp, #48]
 2039 0858 0FFFFFCA 		bgt	.L608
 2040 085c C0FFFFEA 		b	.L612
 2041              	.L548:
 2042              	.LEHB27:
 2043 0860 FEFFFFEB 		bl	abort
 2044              	.LEHE27:
 2045              	.L896:
 2046 0864 007093E5 		ldr	r7, [r3]
 2047 0868 000057E1 		cmp	r7, r0
 2048 086c 0700000A 		beq	.L561
 2049 0870 010057E3 		cmp	r7, #1
 2050 0874 0000A003 		moveq	r0, #0
 2051 0878 FC008D05 		streq	r0, [sp, #252]
 2052 087c 0300000A 		beq	.L561
 2053 0880 010050E3 		cmp	r0, #1
 2054 0884 5902001A 		bne	.L551
 2055 0888 0000A0E3 		mov	r0, #0
 2056 088c 24018DE5 		str	r0, [sp, #292]
 2057              	.L561:
 2058 0890 040093E5 		ldr	r0, [r3, #4]
 2059 0894 0E0050E1 		cmp	r0, lr
 2060 0898 0700000A 		beq	.L563
 2061 089c 010050E3 		cmp	r0, #1
 2062 08a0 0000A003 		moveq	r0, #0
 2063 08a4 00018D05 		streq	r0, [sp, #256]
 2064 08a8 0300000A 		beq	.L563
 2065 08ac 01005EE3 		cmp	lr, #1
 2066 08b0 4E02001A 		bne	.L551
 2067 08b4 0000A0E3 		mov	r0, #0
 2068 08b8 28018DE5 		str	r0, [sp, #296]
 2069              	.L563:
 2070 08bc 080093E5 		ldr	r0, [r3, #8]
 2071 08c0 0C0050E1 		cmp	r0, ip
 2072 08c4 0700000A 		beq	.L565
 2073 08c8 010050E3 		cmp	r0, #1
 2074 08cc 0000A003 		moveq	r0, #0
 2075 08d0 04018D05 		streq	r0, [sp, #260]
 2076 08d4 0300000A 		beq	.L565
 2077 08d8 01005CE3 		cmp	ip, #1
 2078 08dc 4302001A 		bne	.L551
 2079 08e0 0000A0E3 		mov	r0, #0
 2080 08e4 2C018DE5 		str	r0, [sp, #300]
 2081              	.L565:
 2082 08e8 0C0093E5 		ldr	r0, [r3, #12]
 2083 08ec 010050E1 		cmp	r0, r1
 2084 08f0 0700000A 		beq	.L567
 2085 08f4 010050E3 		cmp	r0, #1
 2086 08f8 0010A003 		moveq	r1, #0
 2087 08fc 08118D05 		streq	r1, [sp, #264]
 2088 0900 0300000A 		beq	.L567
 2089 0904 010051E3 		cmp	r1, #1
 2090 0908 3802001A 		bne	.L551
 2091 090c 0010A0E3 		mov	r1, #0
 2092 0910 30118DE5 		str	r1, [sp, #304]
 2093              	.L567:
 2094 0914 103093E5 		ldr	r3, [r3, #16]
 2095 0918 020053E1 		cmp	r3, r2
 2096 091c 0500000A 		beq	.L697
 2097 0920 010053E3 		cmp	r3, #1
 2098 0924 8D02000A 		beq	.L570
 2099 0928 010052E3 		cmp	r2, #1
 2100 092c 2F02001A 		bne	.L551
 2101 0930 0030A0E3 		mov	r3, #0
 2102 0934 34318DE5 		str	r3, [sp, #308]
 2103              	.L697:
 2104 0938 050055E3 		cmp	r5, #5
 2105 093c 94FEFFDA 		ble	.L594
 2106 0940 D4009DE5 		ldr	r0, [sp, #212]
 2107 0944 000050E3 		cmp	r0, #0
 2108 0948 91FEFF0A 		beq	.L594
 2109 094c FEFFFFEB 		bl	_ZdaPv
 2110 0950 8FFEFFEA 		b	.L594
 2111              	.L892:
 2112              	.LEHB28:
 2113 0954 FEFFFFEB 		bl	abort
 2114              	.L891:
 2115 0958 FEFFFFEB 		bl	abort
 2116              	.LEHE28:
 2117              	.L752:
 2118 095c F7FDFFEA 		b	.L686
 2119              	.L890:
 2120              	.LEHB29:
 2121 0960 FEFFFFEB 		bl	abort
 2122              	.LEHE29:
 2123              	.L751:
 2124 0964 FCFDFFEA 		b	.L688
 2125              	.L889:
 2126              	.LEHB30:
 2127 0968 FEFFFFEB 		bl	abort
 2128              	.LEHE30:
 2129              	.L524:
 2130 096c E8008DE2 		add	r0, sp, #232
 2131              	.LEHB31:
 2132 0970 FEFFFFEB 		bl	_ZN6tflite5micro14GetTensorShapeEPK16TfLiteEvalTensor
 2133              	.LEHE31:
 2134 0974 000055E3 		cmp	r5, #0
 2135 0978 D901000A 		beq	.L900
 2136 097c 0610A0E1 		mov	r1, r6
 2137 0980 110E8DE2 		add	r0, sp, #272
 2138 0984 005095E5 		ldr	r5, [r5]
 2139              	.LEHB32:
 2140 0988 FEFFFFEB 		bl	_ZN6tflite5micro14GetTensorShapeEPK16TfLiteEvalTensor
 2141              	.LEHE32:
 2142 098c 000056E3 		cmp	r6, #0
 2143 0990 D101000A 		beq	.L901
 2144 0994 003096E5 		ldr	r3, [r6]
 2145 0998 0410A0E1 		mov	r1, r4
 2146 099c 4E0F8DE2 		add	r0, sp, #312
 2147 09a0 04308DE5 		str	r3, [sp, #4]
 2148              	.LEHB33:
 2149 09a4 FEFFFFEB 		bl	_ZN6tflite5micro14GetTensorShapeEPK16TfLiteEvalTensor
 2150              	.LEHE33:
 2151 09a8 E8C09DE5 		ldr	ip, [sp, #232]
 2152 09ac 000054E3 		cmp	r4, #0
 2153 09b0 00409415 		ldrne	r4, [r4]
 2154 09b4 05005CE3 		cmp	ip, #5
 2155 09b8 C10100DA 		ble	.L636
 2156 09bc EC009DE5 		ldr	r0, [sp, #236]
 2157              	.L637:
 2158 09c0 5021A0E7 		sbfx	r2, r0, #2, #1
 2159 09c4 032002E2 		and	r2, r2, #3
 2160 09c8 0C0052E1 		cmp	r2, ip
 2161 09cc 0C20A021 		movcs	r2, ip
 2162 09d0 08005CE3 		cmp	ip, #8
 2163 09d4 0C20A0D1 		movle	r2, ip
 2164 09d8 B40100CA 		bgt	.L902
 2165              	.L639:
 2166 09dc 010052E3 		cmp	r2, #1
 2167 09e0 003090E5 		ldr	r3, [r0]
 2168 09e4 7E01000A 		beq	.L729
 2169 09e8 041090E5 		ldr	r1, [r0, #4]
 2170 09ec 020052E3 		cmp	r2, #2
 2171 09f0 910303E0 		mul	r3, r1, r3
 2172 09f4 7A01000A 		beq	.L729
 2173 09f8 081090E5 		ldr	r1, [r0, #8]
 2174 09fc 030052E3 		cmp	r2, #3
 2175 0a00 910303E0 		mul	r3, r1, r3
 2176 0a04 7601000A 		beq	.L729
 2177 0a08 0C1090E5 		ldr	r1, [r0, #12]
 2178 0a0c 040052E3 		cmp	r2, #4
 2179 0a10 910303E0 		mul	r3, r1, r3
 2180 0a14 7201000A 		beq	.L729
 2181 0a18 101090E5 		ldr	r1, [r0, #16]
 2182 0a1c 050052E3 		cmp	r2, #5
 2183 0a20 910303E0 		mul	r3, r1, r3
 2184 0a24 6E01000A 		beq	.L729
 2185 0a28 141090E5 		ldr	r1, [r0, #20]
 2186 0a2c 060052E3 		cmp	r2, #6
 2187 0a30 910303E0 		mul	r3, r1, r3
 2188 0a34 6A01000A 		beq	.L729
 2189 0a38 181090E5 		ldr	r1, [r0, #24]
 2190 0a3c 070052E3 		cmp	r2, #7
 2191 0a40 910303E0 		mul	r3, r1, r3
 2192 0a44 6601000A 		beq	.L729
 2193 0a48 1CE090E5 		ldr	lr, [r0, #28]
 2194 0a4c 0810A0E3 		mov	r1, #8
 2195 0a50 9E0303E0 		mul	r3, lr, r3
 2196              	.L641:
 2197 0a54 02005CE1 		cmp	ip, r2
 2198 0a58 2800000A 		beq	.L638
 2199              	.L640:
 2200 0a5c 02704CE0 		sub	r7, ip, r2
 2201 0a60 01604CE2 		sub	r6, ip, #1
 2202 0a64 04E047E2 		sub	lr, r7, #4
 2203 0a68 026046E0 		sub	r6, r6, r2
 2204 0a6c 2EE1A0E1 		lsr	lr, lr, #2
 2205 0a70 020056E3 		cmp	r6, #2
 2206 0a74 01E08EE2 		add	lr, lr, #1
 2207 0a78 0E81A0E1 		lsl	r8, lr, #2
 2208 0a7c 1200009A 		bls	.L643
 2209 0a80 022180E0 		add	r2, r0, r2, lsl #2
 2210 0a84 5100C0F2 		vmov.i32	q8, #1  @ v4si
 2211 0a88 0060A0E3 		mov	r6, #0
 2212              	.L645:
 2213 0a8c 016086E2 		add	r6, r6, #1
 2214 0a90 DF2A62F4 		vld1.64	{d18-d19}, [r2:64]
 2215 0a94 06005EE1 		cmp	lr, r6
 2216 0a98 102082E2 		add	r2, r2, #16
 2217 0a9c F20960F2 		vmul.i32	q8, q8, q9
 2218 0aa0 F9FFFF8A 		bhi	.L645
 2219 0aa4 5020C0F2 		vmov.i32	q9, #0  @ v4si
 2220 0aa8 080057E1 		cmp	r7, r8
 2221 0aac 081081E0 		add	r1, r1, r8
 2222 0ab0 E248F0F2 		vext.32	q10, q8, q9, #2
 2223 0ab4 F40960F2 		vmul.i32	q8, q8, q10
 2224 0ab8 E224F0F2 		vext.32	q9, q8, q9, #1
 2225 0abc F20960F2 		vmul.i32	q8, q8, q9
 2226 0ac0 902B10EE 		vmov.32	r2, d16[0]
 2227 0ac4 920303E0 		mul	r3, r2, r3
 2228 0ac8 0C00000A 		beq	.L638
 2229              	.L643:
 2230 0acc 01E190E7 		ldr	lr, [r0, r1, lsl #2]
 2231 0ad0 012081E2 		add	r2, r1, #1
 2232 0ad4 02005CE1 		cmp	ip, r2
 2233 0ad8 0121A0E1 		lsl	r2, r1, #2
 2234 0adc 9E0303E0 		mul	r3, lr, r3
 2235 0ae0 060000DA 		ble	.L638
 2236 0ae4 020080E0 		add	r0, r0, r2
 2237 0ae8 021081E2 		add	r1, r1, #2
 2238 0aec 042090E5 		ldr	r2, [r0, #4]
 2239 0af0 01005CE1 		cmp	ip, r1
 2240 0af4 920303E0 		mul	r3, r2, r3
 2241 0af8 082090C5 		ldrgt	r2, [r0, #8]
 2242 0afc 920303C0 		mulgt	r3, r2, r3
 2243              	.L638:
 2244 0b00 10619DE5 		ldr	r6, [sp, #272]
 2245 0b04 050056E3 		cmp	r6, #5
 2246 0b08 630100DA 		ble	.L649
 2247 0b0c 14C19DE5 		ldr	ip, [sp, #276]
 2248              	.L650:
 2249 0b10 5C21A0E7 		sbfx	r2, ip, #2, #1
 2250 0b14 032002E2 		and	r2, r2, #3
 2251 0b18 060052E1 		cmp	r2, r6
 2252 0b1c 0620A021 		movcs	r2, r6
 2253 0b20 080056E3 		cmp	r6, #8
 2254 0b24 0620A0D1 		movle	r2, r6
 2255 0b28 560100CA 		bgt	.L903
 2256              	.L652:
 2257 0b2c 010052E3 		cmp	r2, #1
 2258 0b30 00009CE5 		ldr	r0, [ip]
 2259 0b34 2C01000A 		beq	.L739
 2260 0b38 04109CE5 		ldr	r1, [ip, #4]
 2261 0b3c 020052E3 		cmp	r2, #2
 2262 0b40 910000E0 		mul	r0, r1, r0
 2263 0b44 2801000A 		beq	.L739
 2264 0b48 08109CE5 		ldr	r1, [ip, #8]
 2265 0b4c 030052E3 		cmp	r2, #3
 2266 0b50 910000E0 		mul	r0, r1, r0
 2267 0b54 2401000A 		beq	.L739
 2268 0b58 0C109CE5 		ldr	r1, [ip, #12]
 2269 0b5c 040052E3 		cmp	r2, #4
 2270 0b60 910000E0 		mul	r0, r1, r0
 2271 0b64 2001000A 		beq	.L739
 2272 0b68 10109CE5 		ldr	r1, [ip, #16]
 2273 0b6c 050052E3 		cmp	r2, #5
 2274 0b70 910000E0 		mul	r0, r1, r0
 2275 0b74 1C01000A 		beq	.L739
 2276 0b78 14109CE5 		ldr	r1, [ip, #20]
 2277 0b7c 060052E3 		cmp	r2, #6
 2278 0b80 910000E0 		mul	r0, r1, r0
 2279 0b84 1801000A 		beq	.L739
 2280 0b88 18109CE5 		ldr	r1, [ip, #24]
 2281 0b8c 070052E3 		cmp	r2, #7
 2282 0b90 910000E0 		mul	r0, r1, r0
 2283 0b94 1401000A 		beq	.L739
 2284 0b98 1CE09CE5 		ldr	lr, [ip, #28]
 2285 0b9c 0810A0E3 		mov	r1, #8
 2286 0ba0 9E0000E0 		mul	r0, lr, r0
 2287              	.L654:
 2288 0ba4 020056E1 		cmp	r6, r2
 2289 0ba8 2800000A 		beq	.L651
 2290              	.L653:
 2291 0bac 027046E0 		sub	r7, r6, r2
 2292 0bb0 018046E2 		sub	r8, r6, #1
 2293 0bb4 04E047E2 		sub	lr, r7, #4
 2294 0bb8 028048E0 		sub	r8, r8, r2
 2295 0bbc 2EE1A0E1 		lsr	lr, lr, #2
 2296 0bc0 020058E3 		cmp	r8, #2
 2297 0bc4 01E08EE2 		add	lr, lr, #1
 2298 0bc8 0E91A0E1 		lsl	r9, lr, #2
 2299 0bcc 1200009A 		bls	.L656
 2300 0bd0 02218CE0 		add	r2, ip, r2, lsl #2
 2301 0bd4 5100C0F2 		vmov.i32	q8, #1  @ v4si
 2302 0bd8 0080A0E3 		mov	r8, #0
 2303              	.L658:
 2304 0bdc 018088E2 		add	r8, r8, #1
 2305 0be0 DF2A62F4 		vld1.64	{d18-d19}, [r2:64]
 2306 0be4 08005EE1 		cmp	lr, r8
 2307 0be8 102082E2 		add	r2, r2, #16
 2308 0bec F20960F2 		vmul.i32	q8, q8, q9
 2309 0bf0 F9FFFF8A 		bhi	.L658
 2310 0bf4 5020C0F2 		vmov.i32	q9, #0  @ v4si
 2311 0bf8 090057E1 		cmp	r7, r9
 2312 0bfc 091081E0 		add	r1, r1, r9
 2313 0c00 E248F0F2 		vext.32	q10, q8, q9, #2
 2314 0c04 F40960F2 		vmul.i32	q8, q8, q10
 2315 0c08 E224F0F2 		vext.32	q9, q8, q9, #1
 2316 0c0c F20960F2 		vmul.i32	q8, q8, q9
 2317 0c10 902B10EE 		vmov.32	r2, d16[0]
 2318 0c14 920000E0 		mul	r0, r2, r0
 2319 0c18 0C00000A 		beq	.L651
 2320              	.L656:
 2321 0c1c 01E19CE7 		ldr	lr, [ip, r1, lsl #2]
 2322 0c20 012081E2 		add	r2, r1, #1
 2323 0c24 020056E1 		cmp	r6, r2
 2324 0c28 0121A0E1 		lsl	r2, r1, #2
 2325 0c2c 9E0000E0 		mul	r0, lr, r0
 2326 0c30 060000DA 		ble	.L651
 2327 0c34 02C08CE0 		add	ip, ip, r2
 2328 0c38 021081E2 		add	r1, r1, #2
 2329 0c3c 04209CE5 		ldr	r2, [ip, #4]
 2330 0c40 010056E1 		cmp	r6, r1
 2331 0c44 920000E0 		mul	r0, r2, r0
 2332 0c48 08209CC5 		ldrgt	r2, [ip, #8]
 2333 0c4c 920000C0 		mulgt	r0, r2, r0
 2334              	.L651:
 2335 0c50 38719DE5 		ldr	r7, [sp, #312]
 2336 0c54 050057E3 		cmp	r7, #5
 2337 0c58 050100DA 		ble	.L662
 2338 0c5c 3CE19DE5 		ldr	lr, [sp, #316]
 2339              	.L663:
 2340 0c60 5E21A0E7 		sbfx	r2, lr, #2, #1
 2341 0c64 032002E2 		and	r2, r2, #3
 2342 0c68 070052E1 		cmp	r2, r7
 2343 0c6c 0720A021 		movcs	r2, r7
 2344 0c70 080057E3 		cmp	r7, #8
 2345 0c74 0720A0D1 		movle	r2, r7
 2346 0c78 F80000CA 		bgt	.L904
 2347              	.L665:
 2348 0c7c 010052E3 		cmp	r2, #1
 2349 0c80 00109EE5 		ldr	r1, [lr]
 2350 0c84 DA00000A 		beq	.L749
 2351 0c88 04C09EE5 		ldr	ip, [lr, #4]
 2352 0c8c 020052E3 		cmp	r2, #2
 2353 0c90 9C0101E0 		mul	r1, ip, r1
 2354 0c94 D600000A 		beq	.L749
 2355 0c98 08C09EE5 		ldr	ip, [lr, #8]
 2356 0c9c 030052E3 		cmp	r2, #3
 2357 0ca0 9C0101E0 		mul	r1, ip, r1
 2358 0ca4 D200000A 		beq	.L749
 2359 0ca8 0CC09EE5 		ldr	ip, [lr, #12]
 2360 0cac 040052E3 		cmp	r2, #4
 2361 0cb0 9C0101E0 		mul	r1, ip, r1
 2362 0cb4 CE00000A 		beq	.L749
 2363 0cb8 10C09EE5 		ldr	ip, [lr, #16]
 2364 0cbc 050052E3 		cmp	r2, #5
 2365 0cc0 9C0101E0 		mul	r1, ip, r1
 2366 0cc4 CA00000A 		beq	.L749
 2367 0cc8 14C09EE5 		ldr	ip, [lr, #20]
 2368 0ccc 060052E3 		cmp	r2, #6
 2369 0cd0 9C0101E0 		mul	r1, ip, r1
 2370 0cd4 C600000A 		beq	.L749
 2371 0cd8 18C09EE5 		ldr	ip, [lr, #24]
 2372 0cdc 070052E3 		cmp	r2, #7
 2373 0ce0 9C0101E0 		mul	r1, ip, r1
 2374 0ce4 C200000A 		beq	.L749
 2375 0ce8 1C809EE5 		ldr	r8, [lr, #28]
 2376 0cec 08C0A0E3 		mov	ip, #8
 2377 0cf0 980101E0 		mul	r1, r8, r1
 2378              	.L667:
 2379 0cf4 020057E1 		cmp	r7, r2
 2380 0cf8 2800000A 		beq	.L664
 2381              	.L666:
 2382 0cfc 02B047E0 		sub	fp, r7, r2
 2383 0d00 019047E2 		sub	r9, r7, #1
 2384 0d04 04804BE2 		sub	r8, fp, #4
 2385 0d08 029049E0 		sub	r9, r9, r2
 2386 0d0c 2881A0E1 		lsr	r8, r8, #2
 2387 0d10 020059E3 		cmp	r9, #2
 2388 0d14 018088E2 		add	r8, r8, #1
 2389 0d18 08A1A0E1 		lsl	r10, r8, #2
 2390 0d1c 1200009A 		bls	.L669
 2391 0d20 02218EE0 		add	r2, lr, r2, lsl #2
 2392 0d24 5140C0F2 		vmov.i32	q10, #1  @ v4si
 2393 0d28 0090A0E3 		mov	r9, #0
 2394              	.L671:
 2395 0d2c 019089E2 		add	r9, r9, #1
 2396 0d30 DF0A62F4 		vld1.64	{d16-d17}, [r2:64]
 2397 0d34 090058E1 		cmp	r8, r9
 2398 0d38 102082E2 		add	r2, r2, #16
 2399 0d3c F04964F2 		vmul.i32	q10, q10, q8
 2400 0d40 F9FFFF8A 		bhi	.L671
 2401 0d44 5020C0F2 		vmov.i32	q9, #0  @ v4si
 2402 0d48 0B005AE1 		cmp	r10, fp
 2403 0d4c 0AC08CE0 		add	ip, ip, r10
 2404 0d50 E208F4F2 		vext.32	q8, q10, q9, #2
 2405 0d54 F40960F2 		vmul.i32	q8, q8, q10
 2406 0d58 E224F0F2 		vext.32	q9, q8, q9, #1
 2407 0d5c F20960F2 		vmul.i32	q8, q8, q9
 2408 0d60 902B10EE 		vmov.32	r2, d16[0]
 2409 0d64 920101E0 		mul	r1, r2, r1
 2410 0d68 0C00000A 		beq	.L664
 2411              	.L669:
 2412 0d6c 0C819EE7 		ldr	r8, [lr, ip, lsl #2]
 2413 0d70 01208CE2 		add	r2, ip, #1
 2414 0d74 020057E1 		cmp	r7, r2
 2415 0d78 0C21A0E1 		lsl	r2, ip, #2
 2416 0d7c 980101E0 		mul	r1, r8, r1
 2417 0d80 060000DA 		ble	.L664
 2418 0d84 02E08EE0 		add	lr, lr, r2
 2419 0d88 02C08CE2 		add	ip, ip, #2
 2420 0d8c 04209EE5 		ldr	r2, [lr, #4]
 2421 0d90 0C0057E1 		cmp	r7, ip
 2422 0d94 920101E0 		mul	r1, r2, r1
 2423 0d98 08209EC5 		ldrgt	r2, [lr, #8]
 2424 0d9c 920101C0 		mulgt	r1, r2, r1
 2425              	.L664:
 2426 0da0 000053E1 		cmp	r3, r0
 2427 0da4 9700001A 		bne	.L905
 2428 0da8 010053E1 		cmp	r3, r1
 2429 0dac 9400001A 		bne	.L676
 2430 0db0 000053E3 		cmp	r3, #0
 2431 0db4 730000DA 		ble	.L682
 2432 0db8 080053E3 		cmp	r3, #8
 2433 0dbc 8E0000DA 		ble	.L750
 2434 0dc0 04209DE5 		ldr	r2, [sp, #4]
 2435 0dc4 09E043E2 		sub	lr, r3, #9
 2436 0dc8 07E0CEE3 		bic	lr, lr, #7
 2437 0dcc 401085E2 		add	r1, r5, #64
 2438 0dd0 08E08EE2 		add	lr, lr, #8
 2439 0dd4 0400A0E1 		mov	r0, r4
 2440 0dd8 402082E2 		add	r2, r2, #64
 2441 0ddc 00C0A0E3 		mov	ip, #0
 2442              	.L681:
 2443 0de0 107A11ED 		vldr.32	s14, [r1, #-64]
 2444 0de4 08C08CE2 		add	ip, ip, #8
 2445 0de8 107A52ED 		vldr.32	s15, [r2, #-64]
 2446 0dec 200080E2 		add	r0, r0, #32
 2447 0df0 00F0D1F5 		pld	[r1]
 2448 0df4 201081E2 		add	r1, r1, #32
 2449 0df8 00F0D2F5 		pld	[r2]
 2450 0dfc 202082E2 		add	r2, r2, #32
 2451 0e00 677A77EE 		vsub.f32	s15, s14, s15
 2452 0e04 E78AB4EE 		vcmpe.f32	s16, s15
 2453 0e08 10FAF1EE 		vmrs	APSR_nzcv, FPSCR
 2454 0e0c 487AF0CE 		vmovgt.f32	s15, s16
 2455 0e10 E78AF4EE 		vcmpe.f32	s17, s15
 2456 0e14 10FAF1EE 		vmrs	APSR_nzcv, FPSCR
 2457 0e18 687AF04E 		vmovmi.f32	s15, s17
 2458 0e1c 087A40ED 		vstr.32	s15, [r0, #-32]
 2459 0e20 177A11ED 		vldr.32	s14, [r1, #-92]
 2460 0e24 177A52ED 		vldr.32	s15, [r2, #-92]
 2461 0e28 677A77EE 		vsub.f32	s15, s14, s15
 2462 0e2c E78AB4EE 		vcmpe.f32	s16, s15
 2463 0e30 10FAF1EE 		vmrs	APSR_nzcv, FPSCR
 2464 0e34 487AF0CE 		vmovgt.f32	s15, s16
 2465 0e38 E78AF4EE 		vcmpe.f32	s17, s15
 2466 0e3c 10FAF1EE 		vmrs	APSR_nzcv, FPSCR
 2467 0e40 687AF04E 		vmovmi.f32	s15, s17
 2468 0e44 077A40ED 		vstr.32	s15, [r0, #-28]
 2469 0e48 167A11ED 		vldr.32	s14, [r1, #-88]
 2470 0e4c 167A52ED 		vldr.32	s15, [r2, #-88]
 2471 0e50 677A77EE 		vsub.f32	s15, s14, s15
 2472 0e54 E78AB4EE 		vcmpe.f32	s16, s15
 2473 0e58 10FAF1EE 		vmrs	APSR_nzcv, FPSCR
 2474 0e5c 487AF0CE 		vmovgt.f32	s15, s16
 2475 0e60 E78AF4EE 		vcmpe.f32	s17, s15
 2476 0e64 10FAF1EE 		vmrs	APSR_nzcv, FPSCR
 2477 0e68 687AF04E 		vmovmi.f32	s15, s17
 2478 0e6c 067A40ED 		vstr.32	s15, [r0, #-24]
 2479 0e70 157A11ED 		vldr.32	s14, [r1, #-84]
 2480 0e74 157A52ED 		vldr.32	s15, [r2, #-84]
 2481 0e78 677A77EE 		vsub.f32	s15, s14, s15
 2482 0e7c E78AB4EE 		vcmpe.f32	s16, s15
 2483 0e80 10FAF1EE 		vmrs	APSR_nzcv, FPSCR
 2484 0e84 487AF0CE 		vmovgt.f32	s15, s16
 2485 0e88 E78AF4EE 		vcmpe.f32	s17, s15
 2486 0e8c 10FAF1EE 		vmrs	APSR_nzcv, FPSCR
 2487 0e90 687AF04E 		vmovmi.f32	s15, s17
 2488 0e94 057A40ED 		vstr.32	s15, [r0, #-20]
 2489 0e98 147A11ED 		vldr.32	s14, [r1, #-80]
 2490 0e9c 147A52ED 		vldr.32	s15, [r2, #-80]
 2491 0ea0 677A77EE 		vsub.f32	s15, s14, s15
 2492 0ea4 E78AB4EE 		vcmpe.f32	s16, s15
 2493 0ea8 10FAF1EE 		vmrs	APSR_nzcv, FPSCR
 2494 0eac 487AF0CE 		vmovgt.f32	s15, s16
 2495 0eb0 E78AF4EE 		vcmpe.f32	s17, s15
 2496 0eb4 10FAF1EE 		vmrs	APSR_nzcv, FPSCR
 2497 0eb8 687AF04E 		vmovmi.f32	s15, s17
 2498 0ebc 047A40ED 		vstr.32	s15, [r0, #-16]
 2499 0ec0 137A11ED 		vldr.32	s14, [r1, #-76]
 2500 0ec4 137A52ED 		vldr.32	s15, [r2, #-76]
 2501 0ec8 677A77EE 		vsub.f32	s15, s14, s15
 2502 0ecc E78AB4EE 		vcmpe.f32	s16, s15
 2503 0ed0 10FAF1EE 		vmrs	APSR_nzcv, FPSCR
 2504 0ed4 487AF0CE 		vmovgt.f32	s15, s16
 2505 0ed8 E78AF4EE 		vcmpe.f32	s17, s15
 2506 0edc 10FAF1EE 		vmrs	APSR_nzcv, FPSCR
 2507 0ee0 687AF04E 		vmovmi.f32	s15, s17
 2508 0ee4 037A40ED 		vstr.32	s15, [r0, #-12]
 2509 0ee8 127A11ED 		vldr.32	s14, [r1, #-72]
 2510 0eec 127A52ED 		vldr.32	s15, [r2, #-72]
 2511 0ef0 677A77EE 		vsub.f32	s15, s14, s15
 2512 0ef4 E78AB4EE 		vcmpe.f32	s16, s15
 2513 0ef8 10FAF1EE 		vmrs	APSR_nzcv, FPSCR
 2514 0efc 487AF0CE 		vmovgt.f32	s15, s16
 2515 0f00 E78AF4EE 		vcmpe.f32	s17, s15
 2516 0f04 10FAF1EE 		vmrs	APSR_nzcv, FPSCR
 2517 0f08 687AF04E 		vmovmi.f32	s15, s17
 2518 0f0c 027A40ED 		vstr.32	s15, [r0, #-8]
 2519 0f10 117A11ED 		vldr.32	s14, [r1, #-68]
 2520 0f14 117A52ED 		vldr.32	s15, [r2, #-68]
 2521 0f18 677A77EE 		vsub.f32	s15, s14, s15
 2522 0f1c E78AB4EE 		vcmpe.f32	s16, s15
 2523 0f20 10FAF1EE 		vmrs	APSR_nzcv, FPSCR
 2524 0f24 487AF0CE 		vmovgt.f32	s15, s16
 2525 0f28 E78AF4EE 		vcmpe.f32	s17, s15
 2526 0f2c 10FAF1EE 		vmrs	APSR_nzcv, FPSCR
 2527 0f30 687AF04E 		vmovmi.f32	s15, s17
 2528 0f34 0E005CE1 		cmp	ip, lr
 2529 0f38 017A40ED 		vstr.32	s15, [r0, #-4]
 2530 0f3c A7FFFF1A 		bne	.L681
 2531              	.L680:
 2532 0f40 04209DE5 		ldr	r2, [sp, #4]
 2533 0f44 0C11A0E1 		lsl	r1, ip, #2
 2534 0f48 015085E0 		add	r5, r5, r1
 2535 0f4c 014084E0 		add	r4, r4, r1
 2536 0f50 012082E0 		add	r2, r2, r1
 2537              	.L683:
 2538 0f54 017AB5EC 		vldmia.32	r5!, {s14}
 2539 0f58 01C08CE2 		add	ip, ip, #1
 2540 0f5c 017AF2EC 		vldmia.32	r2!, {s15}
 2541 0f60 677A77EE 		vsub.f32	s15, s14, s15
 2542 0f64 E78AB4EE 		vcmpe.f32	s16, s15
 2543 0f68 10FAF1EE 		vmrs	APSR_nzcv, FPSCR
 2544 0f6c 487AF0CE 		vmovgt.f32	s15, s16
 2545 0f70 E78AF4EE 		vcmpe.f32	s17, s15
 2546 0f74 10FAF1EE 		vmrs	APSR_nzcv, FPSCR
 2547 0f78 687AF04E 		vmovmi.f32	s15, s17
 2548 0f7c 0C0053E1 		cmp	r3, ip
 2549 0f80 017AE4EC 		vstmia.32	r4!, {s15}
 2550 0f84 F2FFFFCA 		bgt	.L683
 2551              	.L682:
 2552 0f88 050057E3 		cmp	r7, #5
 2553 0f8c 040000DA 		ble	.L679
 2554 0f90 3C019DE5 		ldr	r0, [sp, #316]
 2555 0f94 000050E3 		cmp	r0, #0
 2556 0f98 0100000A 		beq	.L679
 2557 0f9c FEFFFFEB 		bl	_ZdaPv
 2558 0fa0 10619DE5 		ldr	r6, [sp, #272]
 2559              	.L679:
 2560 0fa4 050056E3 		cmp	r6, #5
 2561 0fa8 030000DA 		ble	.L684
 2562 0fac 14019DE5 		ldr	r0, [sp, #276]
 2563 0fb0 000050E3 		cmp	r0, #0
 2564 0fb4 0000000A 		beq	.L684
 2565 0fb8 FEFFFFEB 		bl	_ZdaPv
 2566              	.L684:
 2567 0fbc E8309DE5 		ldr	r3, [sp, #232]
 2568 0fc0 050053E3 		cmp	r3, #5
 2569 0fc4 F4FDFFDA 		ble	.L522
 2570 0fc8 EC009DE5 		ldr	r0, [sp, #236]
 2571 0fcc 000050E3 		cmp	r0, #0
 2572 0fd0 F0FDFF1A 		bne	.L875
 2573 0fd4 F0FDFFEA 		b	.L522
 2574              	.L716:
 2575 0fd8 F28A9FED 		vldr.32	s16, .L909
 2576 0fdc 088AF1EE 		vmov.f32	s17, #6.0e+0
 2577 0fe0 18FCFFEA 		b	.L523
 2578              	.L729:
 2579 0fe4 0210A0E1 		mov	r1, r2
 2580 0fe8 99FEFFEA 		b	.L641
 2581              	.L739:
 2582 0fec 0210A0E1 		mov	r1, r2
 2583 0ff0 EBFEFFEA 		b	.L654
 2584              	.L749:
 2585 0ff4 02C0A0E1 		mov	ip, r2
 2586 0ff8 3DFFFFEA 		b	.L667
 2587              	.L750:
 2588 0ffc 00C0A0E3 		mov	ip, #0
 2589 1000 CEFFFFEA 		b	.L680
 2590              	.L676:
 2591              	.LEHB34:
 2592 1004 FEFFFFEB 		bl	abort
 2593              	.L905:
 2594 1008 FEFFFFEB 		bl	abort
 2595              	.LEHE34:
 2596              	.L755:
 2597 100c 38319DE5 		ldr	r3, [sp, #312]
 2598 1010 050053E3 		cmp	r3, #5
 2599 1014 030000DA 		ble	.L692
 2600 1018 3C019DE5 		ldr	r0, [sp, #316]
 2601 101c 000050E3 		cmp	r0, #0
 2602 1020 0000000A 		beq	.L692
 2603 1024 FEFFFFEB 		bl	_ZdaPv
 2604              	.L692:
 2605 1028 10319DE5 		ldr	r3, [sp, #272]
 2606 102c 050053E3 		cmp	r3, #5
 2607 1030 030000DA 		ble	.L694
 2608 1034 14019DE5 		ldr	r0, [sp, #276]
 2609 1038 000050E3 		cmp	r0, #0
 2610 103c 0000000A 		beq	.L694
 2611 1040 FEFFFFEB 		bl	_ZdaPv
 2612              	.L694:
 2613 1044 E8309DE5 		ldr	r3, [sp, #232]
 2614 1048 050053E3 		cmp	r3, #5
 2615 104c 49FCFFDA 		ble	.L695
 2616 1050 EC009DE5 		ldr	r0, [sp, #236]
 2617 1054 000050E3 		cmp	r0, #0
 2618 1058 45FCFF1A 		bne	.L876
 2619 105c 45FCFFEA 		b	.L695
 2620              	.L904:
 2621 1060 000052E3 		cmp	r2, #0
 2622 1064 04FFFF1A 		bne	.L665
 2623 1068 0110A0E3 		mov	r1, #1
 2624 106c 02C0A0E1 		mov	ip, r2
 2625 1070 21FFFFEA 		b	.L666
 2626              	.L662:
 2627 1074 000057E3 		cmp	r7, #0
 2628 1078 4FEF8DC2 		addgt	lr, sp, #316
 2629 107c F7FEFFCA 		bgt	.L663
 2630              	.L740:
 2631 1080 0110A0E3 		mov	r1, #1
 2632 1084 45FFFFEA 		b	.L664
 2633              	.L903:
 2634 1088 000052E3 		cmp	r2, #0
 2635 108c A6FEFF1A 		bne	.L652
 2636 1090 0100A0E3 		mov	r0, #1
 2637 1094 0210A0E1 		mov	r1, r2
 2638 1098 C3FEFFEA 		b	.L653
 2639              	.L649:
 2640 109c 000056E3 		cmp	r6, #0
 2641 10a0 45CF8DC2 		addgt	ip, sp, #276
 2642 10a4 99FEFFCA 		bgt	.L650
 2643              	.L730:
 2644 10a8 0100A0E3 		mov	r0, #1
 2645 10ac E7FEFFEA 		b	.L651
 2646              	.L902:
 2647 10b0 000052E3 		cmp	r2, #0
 2648 10b4 48FEFF1A 		bne	.L639
 2649 10b8 0130A0E3 		mov	r3, #1
 2650 10bc 0210A0E1 		mov	r1, r2
 2651 10c0 65FEFFEA 		b	.L640
 2652              	.L636:
 2653 10c4 00005CE3 		cmp	ip, #0
 2654 10c8 EC008DC2 		addgt	r0, sp, #236
 2655 10cc 3BFEFFCA 		bgt	.L637
 2656              	.L720:
 2657 10d0 0130A0E3 		mov	r3, #1
 2658 10d4 89FEFFEA 		b	.L638
 2659              	.L754:
 2660 10d8 D2FFFFEA 		b	.L692
 2661              	.L901:
 2662              	.LEHB35:
 2663 10dc FEFFFFEB 		bl	abort
 2664              	.LEHE35:
 2665              	.L753:
 2666 10e0 D7FFFFEA 		b	.L694
 2667              	.L900:
 2668              	.LEHB36:
 2669 10e4 FEFFFFEB 		bl	abort
 2670              	.LEHE36:
 2671              	.L538:
 2672              	.LEHB37:
 2673 10e8 FEFFFFEB 		bl	abort
 2674              	.LEHE37:
 2675              	.L894:
 2676 10ec 100093E5 		ldr	r0, [r3, #16]
 2677 10f0 01C0A0E3 		mov	ip, #1
 2678 10f4 0C1093E5 		ldr	r1, [r3, #12]
 2679 10f8 082093E5 		ldr	r2, [r3, #8]
 2680 10fc 08018DE5 		str	r0, [sp, #264]
 2681 1100 0CC18DE5 		str	ip, [sp, #268]
 2682 1104 910001E0 		mul	r1, r1, r0
 2683 1108 040093E5 		ldr	r0, [r3, #4]
 2684 110c 4FFCFFEA 		b	.L872
 2685              	.L760:
 2686 1110 38619DE5 		ldr	r6, [sp, #312]
 2687              	.L598:
 2688 1114 050056E3 		cmp	r6, #5
 2689 1118 33FCFFDA 		ble	.L540
 2690 111c 3C019DE5 		ldr	r0, [sp, #316]
 2691 1120 000050E3 		cmp	r0, #0
 2692 1124 30FCFF0A 		beq	.L540
 2693 1128 FEFFFFEB 		bl	_ZdaPv
 2694 112c 2EFCFFEA 		b	.L540
 2695              	.L906:
 2696 1130 001093E5 		ldr	r1, [r3]
 2697 1134 002090E5 		ldr	r2, [r0]
 2698 1138 020051E1 		cmp	r1, r2
 2699 113c 0500000A 		beq	.L582
 2700 1140 010051E3 		cmp	r1, #1
 2701 1144 8E00000A 		beq	.L583
 2702 1148 010052E3 		cmp	r2, #1
 2703 114c 2700001A 		bne	.L551
 2704 1150 0020A0E3 		mov	r2, #0
 2705 1154 24218DE5 		str	r2, [sp, #292]
 2706              	.L582:
 2707 1158 041093E5 		ldr	r1, [r3, #4]
 2708 115c 042090E5 		ldr	r2, [r0, #4]
 2709 1160 020051E1 		cmp	r1, r2
 2710 1164 0500000A 		beq	.L584
 2711 1168 010051E3 		cmp	r1, #1
 2712 116c 8700000A 		beq	.L585
 2713 1170 010052E3 		cmp	r2, #1
 2714 1174 1D00001A 		bne	.L551
 2715 1178 0020A0E3 		mov	r2, #0
 2716 117c 28218DE5 		str	r2, [sp, #296]
 2717              	.L584:
 2718 1180 081093E5 		ldr	r1, [r3, #8]
 2719 1184 082090E5 		ldr	r2, [r0, #8]
 2720 1188 020051E1 		cmp	r1, r2
 2721 118c 0500000A 		beq	.L586
 2722 1190 010051E3 		cmp	r1, #1
 2723 1194 8000000A 		beq	.L587
 2724 1198 010052E3 		cmp	r2, #1
 2725 119c 1300001A 		bne	.L551
 2726 11a0 0020A0E3 		mov	r2, #0
 2727 11a4 2C218DE5 		str	r2, [sp, #300]
 2728              	.L586:
 2729 11a8 0C1093E5 		ldr	r1, [r3, #12]
 2730 11ac 0C2090E5 		ldr	r2, [r0, #12]
 2731 11b0 020051E1 		cmp	r1, r2
 2732 11b4 0500000A 		beq	.L588
 2733 11b8 010051E3 		cmp	r1, #1
 2734 11bc 6A00000A 		beq	.L589
 2735 11c0 010052E3 		cmp	r2, #1
 2736 11c4 0900001A 		bne	.L551
 2737 11c8 0020A0E3 		mov	r2, #0
 2738 11cc 30218DE5 		str	r2, [sp, #304]
 2739              	.L588:
 2740 11d0 102093E5 		ldr	r2, [r3, #16]
 2741 11d4 103090E5 		ldr	r3, [r0, #16]
 2742 11d8 030052E1 		cmp	r2, r3
 2743 11dc 5A00000A 		beq	.L581
 2744 11e0 010052E3 		cmp	r2, #1
 2745 11e4 6300000A 		beq	.L874
 2746 11e8 010053E3 		cmp	r3, #1
 2747 11ec 5400000A 		beq	.L593
 2748              	.L551:
 2749              	.LEHB38:
 2750 11f0 FEFFFFEB 		bl	abort
 2751              	.L550:
 2752 11f4 0030A0E3 		mov	r3, #0
 2753 11f8 FC308DE5 		str	r3, [sp, #252]
 2754 11fc 36FCFFEA 		b	.L549
 2755              	.L543:
 2756 1200 FEFFFFEB 		bl	abort
 2757              	.LEHE38:
 2758              	.L895:
 2759 1204 10C090E5 		ldr	ip, [r0, #16]
 2760 1208 050055E3 		cmp	r5, #5
 2761 120c 0C1090E5 		ldr	r1, [r0, #12]
 2762 1210 01E0A0E3 		mov	lr, #1
 2763 1214 082090E5 		ldr	r2, [r0, #8]
 2764 1218 30C18DE5 		str	ip, [sp, #304]
 2765 121c 34E18DE5 		str	lr, [sp, #308]
 2766 1220 910C01E0 		mul	r1, r1, ip
 2767 1224 04C090E5 		ldr	ip, [r0, #4]
 2768 1228 920102E0 		mul	r2, r2, r1
 2769 122c 2C118DE5 		str	r1, [sp, #300]
 2770 1230 9C0201E0 		mul	r1, ip, r2
 2771 1234 28218DE5 		str	r2, [sp, #296]
 2772 1238 24118DE5 		str	r1, [sp, #292]
 2773 123c BBFFFFCA 		bgt	.L906
 2774 1240 000055E3 		cmp	r5, #0
 2775 1244 85FDFFDA 		ble	.L548
 2776 1248 002090E5 		ldr	r2, [r0]
 2777 124c 020053E1 		cmp	r3, r2
 2778 1250 0700000A 		beq	.L571
 2779 1254 010053E3 		cmp	r3, #1
 2780 1258 0030A003 		moveq	r3, #0
 2781 125c FC308D05 		streq	r3, [sp, #252]
 2782 1260 0300000A 		beq	.L571
 2783 1264 010052E3 		cmp	r2, #1
 2784 1268 E0FFFF1A 		bne	.L551
 2785 126c 0030A0E3 		mov	r3, #0
 2786 1270 24318DE5 		str	r3, [sp, #292]
 2787              	.L571:
 2788 1274 010055E3 		cmp	r5, #1
 2789 1278 78FDFF0A 		beq	.L548
 2790 127c D8309DE5 		ldr	r3, [sp, #216]
 2791 1280 042090E5 		ldr	r2, [r0, #4]
 2792 1284 030052E1 		cmp	r2, r3
 2793 1288 0700000A 		beq	.L574
 2794 128c 010053E3 		cmp	r3, #1
 2795 1290 0030A003 		moveq	r3, #0
 2796 1294 00318D05 		streq	r3, [sp, #256]
 2797 1298 0300000A 		beq	.L574
 2798 129c 010052E3 		cmp	r2, #1
 2799 12a0 D2FFFF1A 		bne	.L551
 2800 12a4 0030A0E3 		mov	r3, #0
 2801 12a8 28318DE5 		str	r3, [sp, #296]
 2802              	.L574:
 2803 12ac 020055E3 		cmp	r5, #2
 2804 12b0 6AFDFF0A 		beq	.L548
 2805 12b4 DC309DE5 		ldr	r3, [sp, #220]
 2806 12b8 082090E5 		ldr	r2, [r0, #8]
 2807 12bc 030052E1 		cmp	r2, r3
 2808 12c0 0700000A 		beq	.L576
 2809 12c4 010053E3 		cmp	r3, #1
 2810 12c8 0030A003 		moveq	r3, #0
 2811 12cc 04318D05 		streq	r3, [sp, #260]
 2812 12d0 0300000A 		beq	.L576
 2813 12d4 010052E3 		cmp	r2, #1
 2814 12d8 C4FFFF1A 		bne	.L551
 2815 12dc 0030A0E3 		mov	r3, #0
 2816 12e0 2C318DE5 		str	r3, [sp, #300]
 2817              	.L576:
 2818 12e4 030055E3 		cmp	r5, #3
 2819 12e8 5CFDFF0A 		beq	.L548
 2820 12ec E0309DE5 		ldr	r3, [sp, #224]
 2821 12f0 0C2090E5 		ldr	r2, [r0, #12]
 2822 12f4 030052E1 		cmp	r2, r3
 2823 12f8 0700000A 		beq	.L578
 2824 12fc 010053E3 		cmp	r3, #1
 2825 1300 0030A003 		moveq	r3, #0
 2826 1304 08318D05 		streq	r3, [sp, #264]
 2827 1308 0300000A 		beq	.L578
 2828 130c 010052E3 		cmp	r2, #1
 2829 1310 B6FFFF1A 		bne	.L551
 2830 1314 0030A0E3 		mov	r3, #0
 2831 1318 30318DE5 		str	r3, [sp, #304]
 2832              	.L578:
 2833 131c 050055E3 		cmp	r5, #5
 2834 1320 4EFDFF1A 		bne	.L548
 2835 1324 E4309DE5 		ldr	r3, [sp, #228]
 2836 1328 102090E5 		ldr	r2, [r0, #16]
 2837 132c 030052E1 		cmp	r2, r3
 2838 1330 0500000A 		beq	.L581
 2839 1334 010053E3 		cmp	r3, #1
 2840 1338 0E00000A 		beq	.L874
 2841 133c 010052E3 		cmp	r2, #1
 2842 1340 AAFFFF1A 		bne	.L551
 2843              	.L593:
 2844 1344 0030A0E3 		mov	r3, #0
 2845 1348 34318DE5 		str	r3, [sp, #308]
 2846              	.L581:
 2847 134c 000050E3 		cmp	r0, #0
 2848 1350 78FDFF0A 		beq	.L697
 2849 1354 FEFFFFEB 		bl	_ZdaPv
 2850 1358 76FDFFEA 		b	.L697
 2851              	.L758:
 2852 135c 6CFFFFEA 		b	.L598
 2853              	.L570:
 2854 1360 0030A0E3 		mov	r3, #0
 2855 1364 0C318DE5 		str	r3, [sp, #268]
 2856 1368 72FDFFEA 		b	.L697
 2857              	.L589:
 2858 136c 0020A0E3 		mov	r2, #0
 2859 1370 08218DE5 		str	r2, [sp, #264]
 2860 1374 95FFFFEA 		b	.L588
 2861              	.L874:
 2862 1378 0030A0E3 		mov	r3, #0
 2863 137c 0C318DE5 		str	r3, [sp, #268]
 2864 1380 F1FFFFEA 		b	.L581
 2865              	.L583:
 2866 1384 0020A0E3 		mov	r2, #0
 2867 1388 FC208DE5 		str	r2, [sp, #252]
 2868 138c 71FFFFEA 		b	.L582
 2869              	.L585:
 2870 1390 0020A0E3 		mov	r2, #0
 2871 1394 00218DE5 		str	r2, [sp, #256]
 2872 1398 78FFFFEA 		b	.L584
 2873              	.L587:
 2874 139c 0020A0E3 		mov	r2, #0
 2875 13a0 04218DE5 		str	r2, [sp, #260]
 2876 13a4 7FFFFFEA 		b	.L586
 2877              	.L910:
 2878              		.align	2
 2879              	.L909:
 2880 13a8 00000000 		.word	0
 2881              		.personality	__gxx_personality_v0
 2882              		.handlerdata
 2883              	.LLSDA4268:
 2884 000c FF       		.byte	0xff
 2885 000d FF       		.byte	0xff
 2886 000e 01       		.byte	0x1
 2887 000f 7A       		.uleb128 .LLSDACSE4268-.LLSDACSB4268
 2888              	.LLSDACSB4268:
 2889 0010 5C       		.uleb128 .LEHB18-.LFB4268
 2890 0011 04       		.uleb128 .LEHE18-.LEHB18
 2891 0012 00       		.uleb128 0
 2892 0013 00       		.uleb128 0
 2893 0014 78       		.uleb128 .LEHB19-.LFB4268
 2894 0015 04       		.uleb128 .LEHE19-.LEHB19
 2895 0016 E412     		.uleb128 .L751-.LFB4268
 2896 0018 00       		.uleb128 0
 2897 0019 9401     		.uleb128 .LEHB20-.LFB4268
 2898 001b 04       		.uleb128 .LEHE20-.LEHB20
 2899 001c DC12     		.uleb128 .L752-.LFB4268
 2900 001e 00       		.uleb128 0
 2901 001f 9402     		.uleb128 .LEHB21-.LFB4268
 2902 0021 04       		.uleb128 .LEHE21-.LEHB21
 2903 0022 A402     		.uleb128 .L756-.LFB4268
 2904 0024 00       		.uleb128 0
 2905 0025 F802     		.uleb128 .LEHB22-.LFB4268
 2906 0027 04       		.uleb128 .LEHE22-.LEHB22
 2907 0028 00       		.uleb128 0
 2908 0029 00       		.uleb128 0
 2909 002a E003     		.uleb128 .LEHB23-.LFB4268
 2910 002c 04       		.uleb128 .LEHE23-.LEHB23
 2911 002d E803     		.uleb128 .L759-.LFB4268
 2912 002f 00       		.uleb128 0
 2913 0030 E403     		.uleb128 .LEHB24-.LFB4268
 2914 0032 A004     		.uleb128 .LEHE24-.LEHB24
 2915 0034 A402     		.uleb128 .L756-.LFB4268
 2916 0036 00       		.uleb128 0
 2917 0037 A80F     		.uleb128 .LEHB25-.LFB4268
 2918 0039 04       		.uleb128 .LEHE25-.LEHB25
 2919 003a AC10     		.uleb128 .L757-.LFB4268
 2920 003c 00       		.uleb128 0
 2921 003d A810     		.uleb128 .LEHB26-.LFB4268
 2922 003f 04       		.uleb128 .LEHE26-.LEHB26
 2923 0040 A402     		.uleb128 .L756-.LFB4268
 2924 0042 00       		.uleb128 0
 2925 0043 E010     		.uleb128 .LEHB27-.LFB4268
 2926 0045 04       		.uleb128 .LEHE27-.LEHB27
 2927 0046 DC26     		.uleb128 .L758-.LFB4268
 2928 0048 00       		.uleb128 0
 2929 0049 D412     		.uleb128 .LEHB28-.LFB4268
 2930 004b 08       		.uleb128 .LEHE28-.LEHB28
 2931 004c A402     		.uleb128 .L756-.LFB4268
 2932 004e 00       		.uleb128 0
 2933 004f E012     		.uleb128 .LEHB29-.LFB4268
 2934 0051 04       		.uleb128 .LEHE29-.LEHB29
 2935 0052 DC12     		.uleb128 .L752-.LFB4268
 2936 0054 00       		.uleb128 0
 2937 0055 E812     		.uleb128 .LEHB30-.LFB4268
 2938 0057 04       		.uleb128 .LEHE30-.LEHB30
 2939 0058 E412     		.uleb128 .L751-.LFB4268
 2940 005a 00       		.uleb128 0
 2941 005b F012     		.uleb128 .LEHB31-.LFB4268
 2942 005d 04       		.uleb128 .LEHE31-.LEHB31
 2943 005e 00       		.uleb128 0
 2944 005f 00       		.uleb128 0
 2945 0060 8813     		.uleb128 .LEHB32-.LFB4268
 2946 0062 04       		.uleb128 .LEHE32-.LEHB32
 2947 0063 E021     		.uleb128 .L753-.LFB4268
 2948 0065 00       		.uleb128 0
 2949 0066 A413     		.uleb128 .LEHB33-.LFB4268
 2950 0068 04       		.uleb128 .LEHE33-.LEHB33
 2951 0069 D821     		.uleb128 .L754-.LFB4268
 2952 006b 00       		.uleb128 0
 2953 006c 8420     		.uleb128 .LEHB34-.LFB4268
 2954 006e 08       		.uleb128 .LEHE34-.LEHB34
 2955 006f 8C20     		.uleb128 .L755-.LFB4268
 2956 0071 00       		.uleb128 0
 2957 0072 DC21     		.uleb128 .LEHB35-.LFB4268
 2958 0074 04       		.uleb128 .LEHE35-.LEHB35
 2959 0075 D821     		.uleb128 .L754-.LFB4268
 2960 0077 00       		.uleb128 0
 2961 0078 E421     		.uleb128 .LEHB36-.LFB4268
 2962 007a 04       		.uleb128 .LEHE36-.LEHB36
 2963 007b E021     		.uleb128 .L753-.LFB4268
 2964 007d 00       		.uleb128 0
 2965 007e E821     		.uleb128 .LEHB37-.LFB4268
 2966 0080 04       		.uleb128 .LEHE37-.LEHB37
 2967 0081 9022     		.uleb128 .L760-.LFB4268
 2968 0083 00       		.uleb128 0
 2969 0084 F023     		.uleb128 .LEHB38-.LFB4268
 2970 0086 14       		.uleb128 .LEHE38-.LEHB38
 2971 0087 DC26     		.uleb128 .L758-.LFB4268
 2972 0089 00       		.uleb128 0
 2973              	.LLSDACSE4268:
 2974              		.section	.text._ZN6tflite3ops5micro3sub7EvalSubEP13TfLiteContextP10TfLiteNodeP15TfLiteSubParamsPKN
 2975              		.fnend
 2977              		.section	.text._ZN6tflite3ops5micro3sub16EvalSubQuantizedEP13TfLiteContextP10TfLiteNodeP15TfLiteSu
 2978              		.align	2
 2979              		.global	_ZN6tflite3ops5micro3sub16EvalSubQuantizedEP13TfLiteContextP10TfLiteNodeP15TfLiteSubParams
 2980              		.syntax unified
 2981              		.arm
 2982              		.fpu neon
 2984              	_ZN6tflite3ops5micro3sub16EvalSubQuantizedEP13TfLiteContextP10TfLiteNodeP15TfLiteSubParamsPKNS2_6Op
 2985              		.fnstart
 2986              	.LFB4269:
 2987              		@ args = 12, pretend = 0, frame = 496
 2988              		@ frame_needed = 0, uses_anonymous_args = 0
 2989 0000 F04F2DE9 		push	{r4, r5, r6, r7, r8, r9, r10, fp, lr}
 2990              		.save {r4, r5, r6, r7, r8, r9, r10, fp, lr}
 2991              		.pad #500
 2992 0004 7DDF4DE2 		sub	sp, sp, #500
 2993 0008 20729DE5 		ldr	r7, [sp, #544]
 2994 000c 0820D7E5 		ldrb	r2, [r7, #8]	@ zero_extendqisi2
 2995 0010 090052E3 		cmp	r2, #9
 2996 0014 03005213 		cmpne	r2, #3
 2997 0018 0200000A 		beq	.L1748
 2998              	.L1591:
 2999 001c 0000A0E3 		mov	r0, #0
 3000 0020 7DDF8DE2 		add	sp, sp, #500
 3001              		@ sp needed
 3002 0024 F08FBDE8 		pop	{r4, r5, r6, r7, r8, r9, r10, fp, pc}
 3003              	.L1748:
 3004 0028 282093E5 		ldr	r2, [r3, #40]
 3005 002c 4E0F8DE2 		add	r0, sp, #312
 3006 0030 14E093E5 		ldr	lr, [r3, #20]
 3007 0034 04C093E5 		ldr	ip, [r3, #4]
 3008 0038 8C218DE5 		str	r2, [sp, #396]
 3009 003c 2C2093E5 		ldr	r2, [r3, #44]
 3010 0040 A4E18DE5 		str	lr, [sp, #420]
 3011 0044 A8C18DE5 		str	ip, [sp, #424]
 3012 0048 18E093E5 		ldr	lr, [r3, #24]
 3013 004c 08C093E5 		ldr	ip, [r3, #8]
 3014 0050 90218DE5 		str	r2, [sp, #400]
 3015 0054 302093E5 		ldr	r2, [r3, #48]
 3016 0058 244093E5 		ldr	r4, [r3, #36]
 3017 005c ACE18DE5 		str	lr, [sp, #428]
 3018 0060 B0C18DE5 		str	ip, [sp, #432]
 3019 0064 1CE093E5 		ldr	lr, [r3, #28]
 3020 0068 20C093E5 		ldr	ip, [r3, #32]
 3021 006c 94218DE5 		str	r2, [sp, #404]
 3022 0070 102093E5 		ldr	r2, [r3, #16]
 3023 0074 0C3093E5 		ldr	r3, [r3, #12]
 3024 0078 18129DE5 		ldr	r1, [sp, #536]
 3025 007c A0418DE5 		str	r4, [sp, #416]
 3026 0080 98E18DE5 		str	lr, [sp, #408]
 3027 0084 9CC18DE5 		str	ip, [sp, #412]
 3028 0088 B8218DE5 		str	r2, [sp, #440]
 3029 008c B4318DE5 		str	r3, [sp, #436]
 3030              	.LEHB39:
 3031 0090 FEFFFFEB 		bl	_ZN6tflite5micro14GetTensorShapeEPK16TfLiteEvalTensor
 3032              	.LEHE39:
 3033 0094 160E8DE2 		add	r0, sp, #352
 3034 0098 1C129DE5 		ldr	r1, [sp, #540]
 3035              	.LEHB40:
 3036 009c FEFFFFEB 		bl	_ZN6tflite5micro14GetTensorShapeEPK16TfLiteEvalTensor
 3037              	.LEHE40:
 3038 00a0 622F8DE2 		add	r2, sp, #392
 3039 00a4 161E8DE2 		add	r1, sp, #352
 3040 00a8 4E0F8DE2 		add	r0, sp, #312
 3041              	.LEHB41:
 3042 00ac FEFFFFEB 		bl	_ZN6tflite13reference_ops22ProcessBroadcastShapesERKNS_12RuntimeShapeES3_PNS_16ArithmeticParams
 3043              	.LEHE41:
 3044 00b0 60319DE5 		ldr	r3, [sp, #352]
 3045 00b4 0040A0E1 		mov	r4, r0
 3046 00b8 050053E3 		cmp	r3, #5
 3047 00bc 030000DA 		ble	.L913
 3048 00c0 64019DE5 		ldr	r0, [sp, #356]
 3049 00c4 000050E3 		cmp	r0, #0
 3050 00c8 0000000A 		beq	.L913
 3051 00cc FEFFFFEB 		bl	_ZdaPv
 3052              	.L913:
 3053 00d0 38319DE5 		ldr	r3, [sp, #312]
 3054 00d4 050053E3 		cmp	r3, #5
 3055 00d8 030000DA 		ble	.L914
 3056 00dc 3C019DE5 		ldr	r0, [sp, #316]
 3057 00e0 000050E3 		cmp	r0, #0
 3058 00e4 0000000A 		beq	.L914
 3059 00e8 FEFFFFEB 		bl	_ZdaPv
 3060              	.L914:
 3061 00ec 0830D7E5 		ldrb	r3, [r7, #8]	@ zero_extendqisi2
 3062 00f0 18129DE5 		ldr	r1, [sp, #536]
 3063 00f4 090053E3 		cmp	r3, #9
 3064 00f8 0B04000A 		beq	.L1749
 3065 00fc 000054E3 		cmp	r4, #0
 3066 0100 CB01001A 		bne	.L1750
 3067 0104 110E8DE2 		add	r0, sp, #272
 3068              	.LEHB42:
 3069 0108 FEFFFFEB 		bl	_ZN6tflite5micro14GetTensorShapeEPK16TfLiteEvalTensor
 3070              	.LEHE42:
 3071 010c 18329DE5 		ldr	r3, [sp, #536]
 3072 0110 000053E3 		cmp	r3, #0
 3073 0114 740B000A 		beq	.L1751
 3074 0118 4E0F8DE2 		add	r0, sp, #312
 3075 011c 1C129DE5 		ldr	r1, [sp, #540]
 3076 0120 004093E5 		ldr	r4, [r3]
 3077              	.LEHB43:
 3078 0124 FEFFFFEB 		bl	_ZN6tflite5micro14GetTensorShapeEPK16TfLiteEvalTensor
 3079              	.LEHE43:
 3080 0128 1C329DE5 		ldr	r3, [sp, #540]
 3081 012c 000053E3 		cmp	r3, #0
 3082 0130 6B0B000A 		beq	.L1752
 3083 0134 160E8DE2 		add	r0, sp, #352
 3084 0138 0710A0E1 		mov	r1, r7
 3085 013c 006093E5 		ldr	r6, [r3]
 3086              	.LEHB44:
 3087 0140 FEFFFFEB 		bl	_ZN6tflite5micro14GetTensorShapeEPK16TfLiteEvalTensor
 3088              	.LEHE44:
 3089 0144 B4219DE5 		ldr	r2, [sp, #436]
 3090 0148 B8319DE5 		ldr	r3, [sp, #440]
 3091 014c 00E097E5 		ldr	lr, [r7]
 3092 0150 030052E1 		cmp	r2, r3
 3093 0154 5D0B00CA 		bgt	.L1753
 3094 0158 10C19DE5 		ldr	ip, [sp, #272]
 3095 015c 05005CE3 		cmp	ip, #5
 3096 0160 C00400DA 		ble	.L1225
 3097 0164 14019DE5 		ldr	r0, [sp, #276]
 3098              	.L1226:
 3099 0168 5031A0E7 		sbfx	r3, r0, #2, #1
 3100 016c 033003E2 		and	r3, r3, #3
 3101 0170 0C0053E1 		cmp	r3, ip
 3102 0174 0C30A021 		movcs	r3, ip
 3103 0178 08005CE3 		cmp	ip, #8
 3104 017c 0C30A0D1 		movle	r3, ip
 3105 0180 C00800CA 		bgt	.L1754
 3106              	.L1228:
 3107 0184 010053E3 		cmp	r3, #1
 3108 0188 002090E5 		ldr	r2, [r0]
 3109 018c B304000A 		beq	.L1405
 3110 0190 041090E5 		ldr	r1, [r0, #4]
 3111 0194 020053E3 		cmp	r3, #2
 3112 0198 910202E0 		mul	r2, r1, r2
 3113 019c AF04000A 		beq	.L1405
 3114 01a0 081090E5 		ldr	r1, [r0, #8]
 3115 01a4 030053E3 		cmp	r3, #3
 3116 01a8 910202E0 		mul	r2, r1, r2
 3117 01ac AB04000A 		beq	.L1405
 3118 01b0 0C1090E5 		ldr	r1, [r0, #12]
 3119 01b4 040053E3 		cmp	r3, #4
 3120 01b8 910202E0 		mul	r2, r1, r2
 3121 01bc A704000A 		beq	.L1405
 3122 01c0 101090E5 		ldr	r1, [r0, #16]
 3123 01c4 050053E3 		cmp	r3, #5
 3124 01c8 910202E0 		mul	r2, r1, r2
 3125 01cc A304000A 		beq	.L1405
 3126 01d0 141090E5 		ldr	r1, [r0, #20]
 3127 01d4 060053E3 		cmp	r3, #6
 3128 01d8 910202E0 		mul	r2, r1, r2
 3129 01dc 9F04000A 		beq	.L1405
 3130 01e0 181090E5 		ldr	r1, [r0, #24]
 3131 01e4 070053E3 		cmp	r3, #7
 3132 01e8 910202E0 		mul	r2, r1, r2
 3133 01ec 9B04000A 		beq	.L1405
 3134 01f0 1C5090E5 		ldr	r5, [r0, #28]
 3135 01f4 0810A0E3 		mov	r1, #8
 3136 01f8 950202E0 		mul	r2, r5, r2
 3137              	.L1230:
 3138 01fc 03005CE1 		cmp	ip, r3
 3139 0200 2800000A 		beq	.L1227
 3140              	.L1229:
 3141 0204 03804CE0 		sub	r8, ip, r3
 3142 0208 01704CE2 		sub	r7, ip, #1
 3143 020c 045048E2 		sub	r5, r8, #4
 3144 0210 037047E0 		sub	r7, r7, r3
 3145 0214 2551A0E1 		lsr	r5, r5, #2
 3146 0218 020057E3 		cmp	r7, #2
 3147 021c 015085E2 		add	r5, r5, #1
 3148 0220 0591A0E1 		lsl	r9, r5, #2
 3149 0224 1200009A 		bls	.L1232
 3150 0228 033180E0 		add	r3, r0, r3, lsl #2
 3151 022c 5120C0F2 		vmov.i32	q9, #1  @ v4si
 3152 0230 0070A0E3 		mov	r7, #0
 3153              	.L1234:
 3154 0234 017087E2 		add	r7, r7, #1
 3155 0238 DF0A63F4 		vld1.64	{d16-d17}, [r3:64]
 3156 023c 070055E1 		cmp	r5, r7
 3157 0240 103083E2 		add	r3, r3, #16
 3158 0244 F02962F2 		vmul.i32	q9, q9, q8
 3159 0248 F9FFFF8A 		bhi	.L1234
 3160 024c 080059E1 		cmp	r9, r8
 3161 0250 091081E0 		add	r1, r1, r9
 3162 0254 5000C0F2 		vmov.i32	q8, #0  @ v4si
 3163 0258 E048F2F2 		vext.32	q10, q9, q8, #2
 3164 025c F22964F2 		vmul.i32	q9, q10, q9
 3165 0260 E004F2F2 		vext.32	q8, q9, q8, #1
 3166 0264 F20960F2 		vmul.i32	q8, q8, q9
 3167 0268 903B10EE 		vmov.32	r3, d16[0]
 3168 026c 930202E0 		mul	r2, r3, r2
 3169 0270 0C00000A 		beq	.L1227
 3170              	.L1232:
 3171 0274 015190E7 		ldr	r5, [r0, r1, lsl #2]
 3172 0278 013081E2 		add	r3, r1, #1
 3173 027c 03005CE1 		cmp	ip, r3
 3174 0280 0131A0E1 		lsl	r3, r1, #2
 3175 0284 950202E0 		mul	r2, r5, r2
 3176 0288 060000DA 		ble	.L1227
 3177 028c 033080E0 		add	r3, r0, r3
 3178 0290 021081E2 		add	r1, r1, #2
 3179 0294 040093E5 		ldr	r0, [r3, #4]
 3180 0298 01005CE1 		cmp	ip, r1
 3181 029c 900202E0 		mul	r2, r0, r2
 3182 02a0 083093C5 		ldrgt	r3, [r3, #8]
 3183 02a4 930202C0 		mulgt	r2, r3, r2
 3184              	.L1227:
 3185 02a8 38519DE5 		ldr	r5, [sp, #312]
 3186 02ac 050055E3 		cmp	r5, #5
 3187 02b0 760400DA 		ble	.L1238
 3188 02b4 3CC19DE5 		ldr	ip, [sp, #316]
 3189              	.L1239:
 3190 02b8 5C31A0E7 		sbfx	r3, ip, #2, #1
 3191 02bc 033003E2 		and	r3, r3, #3
 3192 02c0 050053E1 		cmp	r3, r5
 3193 02c4 0530A021 		movcs	r3, r5
 3194 02c8 080055E3 		cmp	r5, #8
 3195 02cc 0530A0D1 		movle	r3, r5
 3196 02d0 760800CA 		bgt	.L1755
 3197              	.L1241:
 3198 02d4 010053E3 		cmp	r3, #1
 3199 02d8 00009CE5 		ldr	r0, [ip]
 3200 02dc 5D04000A 		beq	.L1415
 3201 02e0 04109CE5 		ldr	r1, [ip, #4]
 3202 02e4 020053E3 		cmp	r3, #2
 3203 02e8 910000E0 		mul	r0, r1, r0
 3204 02ec 5904000A 		beq	.L1415
 3205 02f0 08109CE5 		ldr	r1, [ip, #8]
 3206 02f4 030053E3 		cmp	r3, #3
 3207 02f8 910000E0 		mul	r0, r1, r0
 3208 02fc 5504000A 		beq	.L1415
 3209 0300 0C109CE5 		ldr	r1, [ip, #12]
 3210 0304 040053E3 		cmp	r3, #4
 3211 0308 910000E0 		mul	r0, r1, r0
 3212 030c 5104000A 		beq	.L1415
 3213 0310 10109CE5 		ldr	r1, [ip, #16]
 3214 0314 050053E3 		cmp	r3, #5
 3215 0318 910000E0 		mul	r0, r1, r0
 3216 031c 4D04000A 		beq	.L1415
 3217 0320 14109CE5 		ldr	r1, [ip, #20]
 3218 0324 060053E3 		cmp	r3, #6
 3219 0328 910000E0 		mul	r0, r1, r0
 3220 032c 4904000A 		beq	.L1415
 3221 0330 18109CE5 		ldr	r1, [ip, #24]
 3222 0334 070053E3 		cmp	r3, #7
 3223 0338 910000E0 		mul	r0, r1, r0
 3224 033c 4504000A 		beq	.L1415
 3225 0340 1C709CE5 		ldr	r7, [ip, #28]
 3226 0344 0810A0E3 		mov	r1, #8
 3227 0348 970000E0 		mul	r0, r7, r0
 3228              	.L1243:
 3229 034c 030055E1 		cmp	r5, r3
 3230 0350 2800000A 		beq	.L1240
 3231              	.L1242:
 3232 0354 038045E0 		sub	r8, r5, r3
 3233 0358 019045E2 		sub	r9, r5, #1
 3234 035c 047048E2 		sub	r7, r8, #4
 3235 0360 039049E0 		sub	r9, r9, r3
 3236 0364 2771A0E1 		lsr	r7, r7, #2
 3237 0368 020059E3 		cmp	r9, #2
 3238 036c 017087E2 		add	r7, r7, #1
 3239 0370 07A1A0E1 		lsl	r10, r7, #2
 3240 0374 1200009A 		bls	.L1245
 3241 0378 03318CE0 		add	r3, ip, r3, lsl #2
 3242 037c 5120C0F2 		vmov.i32	q9, #1  @ v4si
 3243 0380 0090A0E3 		mov	r9, #0
 3244              	.L1247:
 3245 0384 019089E2 		add	r9, r9, #1
 3246 0388 DF0A63F4 		vld1.64	{d16-d17}, [r3:64]
 3247 038c 090057E1 		cmp	r7, r9
 3248 0390 103083E2 		add	r3, r3, #16
 3249 0394 F02962F2 		vmul.i32	q9, q9, q8
 3250 0398 F9FFFF8A 		bhi	.L1247
 3251 039c 08005AE1 		cmp	r10, r8
 3252 03a0 0A1081E0 		add	r1, r1, r10
 3253 03a4 5000C0F2 		vmov.i32	q8, #0  @ v4si
 3254 03a8 E048F2F2 		vext.32	q10, q9, q8, #2
 3255 03ac F22964F2 		vmul.i32	q9, q10, q9
 3256 03b0 E004F2F2 		vext.32	q8, q9, q8, #1
 3257 03b4 F20960F2 		vmul.i32	q8, q8, q9
 3258 03b8 903B10EE 		vmov.32	r3, d16[0]
 3259 03bc 930000E0 		mul	r0, r3, r0
 3260 03c0 0C00000A 		beq	.L1240
 3261              	.L1245:
 3262 03c4 01719CE7 		ldr	r7, [ip, r1, lsl #2]
 3263 03c8 013081E2 		add	r3, r1, #1
 3264 03cc 030055E1 		cmp	r5, r3
 3265 03d0 0131A0E1 		lsl	r3, r1, #2
 3266 03d4 970000E0 		mul	r0, r7, r0
 3267 03d8 060000DA 		ble	.L1240
 3268 03dc 03308CE0 		add	r3, ip, r3
 3269 03e0 021081E2 		add	r1, r1, #2
 3270 03e4 04C093E5 		ldr	ip, [r3, #4]
 3271 03e8 010055E1 		cmp	r5, r1
 3272 03ec 9C0000E0 		mul	r0, ip, r0
 3273 03f0 083093C5 		ldrgt	r3, [r3, #8]
 3274 03f4 930000C0 		mulgt	r0, r3, r0
 3275              	.L1240:
 3276 03f8 60C19DE5 		ldr	ip, [sp, #352]
 3277 03fc 05005CE3 		cmp	ip, #5
 3278 0400 1D0400DA 		ble	.L1251
 3279 0404 64519DE5 		ldr	r5, [sp, #356]
 3280              	.L1252:
 3281 0408 5531A0E7 		sbfx	r3, r5, #2, #1
 3282 040c 033003E2 		and	r3, r3, #3
 3283 0410 0C0053E1 		cmp	r3, ip
 3284 0414 0C30A021 		movcs	r3, ip
 3285 0418 08005CE3 		cmp	ip, #8
 3286 041c 0C30A0D1 		movle	r3, ip
 3287 0420 1D0800CA 		bgt	.L1756
 3288              	.L1254:
 3289 0424 010053E3 		cmp	r3, #1
 3290 0428 00A095E5 		ldr	r10, [r5]
 3291 042c 0704000A 		beq	.L1425
 3292 0430 041095E5 		ldr	r1, [r5, #4]
 3293 0434 020053E3 		cmp	r3, #2
 3294 0438 910A0AE0 		mul	r10, r1, r10
 3295 043c 0304000A 		beq	.L1425
 3296 0440 081095E5 		ldr	r1, [r5, #8]
 3297 0444 030053E3 		cmp	r3, #3
 3298 0448 910A0AE0 		mul	r10, r1, r10
 3299 044c FF03000A 		beq	.L1425
 3300 0450 0C1095E5 		ldr	r1, [r5, #12]
 3301 0454 040053E3 		cmp	r3, #4
 3302 0458 910A0AE0 		mul	r10, r1, r10
 3303 045c FB03000A 		beq	.L1425
 3304 0460 101095E5 		ldr	r1, [r5, #16]
 3305 0464 050053E3 		cmp	r3, #5
 3306 0468 910A0AE0 		mul	r10, r1, r10
 3307 046c F703000A 		beq	.L1425
 3308 0470 141095E5 		ldr	r1, [r5, #20]
 3309 0474 060053E3 		cmp	r3, #6
 3310 0478 910A0AE0 		mul	r10, r1, r10
 3311 047c F303000A 		beq	.L1425
 3312 0480 181095E5 		ldr	r1, [r5, #24]
 3313 0484 070053E3 		cmp	r3, #7
 3314 0488 910A0AE0 		mul	r10, r1, r10
 3315 048c EF03000A 		beq	.L1425
 3316 0490 1C7095E5 		ldr	r7, [r5, #28]
 3317 0494 0810A0E3 		mov	r1, #8
 3318 0498 970A0AE0 		mul	r10, r7, r10
 3319              	.L1256:
 3320 049c 03005CE1 		cmp	ip, r3
 3321 04a0 2800000A 		beq	.L1253
 3322              	.L1255:
 3323 04a4 03904CE0 		sub	r9, ip, r3
 3324 04a8 01804CE2 		sub	r8, ip, #1
 3325 04ac 047049E2 		sub	r7, r9, #4
 3326 04b0 038048E0 		sub	r8, r8, r3
 3327 04b4 2771A0E1 		lsr	r7, r7, #2
 3328 04b8 020058E3 		cmp	r8, #2
 3329 04bc 017087E2 		add	r7, r7, #1
 3330 04c0 0781A0E1 		lsl	r8, r7, #2
 3331 04c4 1200009A 		bls	.L1258
 3332 04c8 033185E0 		add	r3, r5, r3, lsl #2
 3333 04cc 5120C0F2 		vmov.i32	q9, #1  @ v4si
 3334 04d0 00B0A0E3 		mov	fp, #0
 3335              	.L1260:
 3336 04d4 01B08BE2 		add	fp, fp, #1
 3337 04d8 DF0A63F4 		vld1.64	{d16-d17}, [r3:64]
 3338 04dc 0B0057E1 		cmp	r7, fp
 3339 04e0 103083E2 		add	r3, r3, #16
 3340 04e4 F02962F2 		vmul.i32	q9, q9, q8
 3341 04e8 F9FFFF8A 		bhi	.L1260
 3342 04ec 090058E1 		cmp	r8, r9
 3343 04f0 081081E0 		add	r1, r1, r8
 3344 04f4 5000C0F2 		vmov.i32	q8, #0  @ v4si
 3345 04f8 E048F2F2 		vext.32	q10, q9, q8, #2
 3346 04fc F22964F2 		vmul.i32	q9, q10, q9
 3347 0500 E004F2F2 		vext.32	q8, q9, q8, #1
 3348 0504 F20960F2 		vmul.i32	q8, q8, q9
 3349 0508 903B10EE 		vmov.32	r3, d16[0]
 3350 050c 930A0AE0 		mul	r10, r3, r10
 3351 0510 0C00000A 		beq	.L1253
 3352              	.L1258:
 3353 0514 017195E7 		ldr	r7, [r5, r1, lsl #2]
 3354 0518 013081E2 		add	r3, r1, #1
 3355 051c 03005CE1 		cmp	ip, r3
 3356 0520 0131A0E1 		lsl	r3, r1, #2
 3357 0524 970A0AE0 		mul	r10, r7, r10
 3358 0528 060000DA 		ble	.L1253
 3359 052c 033085E0 		add	r3, r5, r3
 3360 0530 021081E2 		add	r1, r1, #2
 3361 0534 045093E5 		ldr	r5, [r3, #4]
 3362 0538 01005CE1 		cmp	ip, r1
 3363 053c 950A0AE0 		mul	r10, r5, r10
 3364 0540 083093C5 		ldrgt	r3, [r3, #8]
 3365 0544 930A0AC0 		mulgt	r10, r3, r10
 3366              	.L1253:
 3367 0548 000052E1 		cmp	r2, r0
 3368 054c FC09001A 		bne	.L1757
 3369 0550 02005AE1 		cmp	r10, r2
 3370 0554 F909001A 		bne	.L1758
 3371 0558 8C319DE5 		ldr	r3, [sp, #396]
 3372 055c FF0073E3 		cmn	r3, #255
 3373 0560 F10900BA 		blt	.L1759
 3374 0564 90219DE5 		ldr	r2, [sp, #400]
 3375 0568 FF0072E3 		cmn	r2, #255
 3376 056c ED0900BA 		blt	.L1760
 3377 0570 FF0053E3 		cmp	r3, #255
 3378 0574 E90900CA 		bgt	.L1761
 3379 0578 FF0052E3 		cmp	r2, #255
 3380 057c E60900CA 		bgt	.L1269
 3381 0580 00005AE3 		cmp	r10, #0
 3382 0584 950000DA 		ble	.L1270
 3383 0588 04C0A0E1 		mov	ip, r4
 3384 058c 016046E2 		sub	r6, r6, #1
 3385 0590 0AA084E0 		add	r10, r4, r10
 3386 0594 01E04EE2 		sub	lr, lr, #1
 3387 0598 EE0BDFED 		vldr.64	d16, .L1821	@ int
 3388 059c 010000EA 		b	.L1271
 3389              	.L1768:
 3390 05a0 8C319DE5 		ldr	r3, [sp, #396]
 3391 05a4 90219DE5 		ldr	r2, [sp, #400]
 3392              	.L1271:
 3393 05a8 A0719DE5 		ldr	r7, [sp, #416]
 3394 05ac 0150DCE4 		ldrb	r5, [ip], #1	@ zero_extendqisi2
 3395 05b0 A4819DE5 		ldr	r8, [sp, #420]
 3396 05b4 A8419DE5 		ldr	r4, [sp, #424]
 3397 05b8 035085E0 		add	r5, r5, r3
 3398 05bc 0130F6E5 		ldrb	r3, [r6, #1]!	@ zero_extendqisi2
 3399 05c0 1557A0E1 		lsl	r5, r5, r7
 3400 05c4 9508C1E0 		smull	r0, r1, r5, r8
 3401 05c8 080055E1 		cmp	r5, r8
 3402 05cc 02015503 		cmpeq	r5, #-2147483648
 3403 05d0 0150A003 		moveq	r5, #1
 3404 05d4 0050A013 		movne	r5, #0
 3405 05d8 023083E0 		add	r3, r3, r2
 3406 05dc 1337A0E1 		lsl	r3, r3, r7
 3407 05e0 000050E3 		cmp	r0, #0
 3408 05e4 0020D1E2 		sbcs	r2, r1, #0
 3409 05e8 0181A0A3 		movge	r8, #1073741824
 3410 05ec 0090A0A3 		movge	r9, #0
 3411 05f0 0781A0B3 		movlt	r8, #-1073741823
 3412 05f4 0090E0B3 		mvnlt	r9, #0
 3413 05f8 000055E3 		cmp	r5, #0
 3414 05fc 0201E013 		mvnne	r0, #-2147483648
 3415 0600 0800001A 		bne	.L1273
 3416 0604 008098E0 		adds	r8, r8, r0
 3417 0608 0190A9E0 		adc	r9, r9, r1
 3418 060c 0010A0E3 		mov	r1, #0
 3419 0610 C90FA0E1 		asr	r0, r9, #31
 3420 0614 0201C0E3 		bic	r0, r0, #-2147483648
 3421 0618 080090E0 		adds	r0, r0, r8
 3422 061c A00FA0E1 		lsr	r0, r0, #31
 3423 0620 0910A1E0 		adc	r1, r1, r9
 3424 0624 810080E1 		orr	r0, r0, r1, lsl #1
 3425              	.L1273:
 3426 0628 000054E3 		cmp	r4, #0
 3427 062c 002064E2 		rsb	r2, r4, #0
 3428 0630 DE0900CA 		bgt	.L1762
 3429 0634 1F0074E3 		cmn	r4, #31
 3430 0638 D40900BA 		blt	.L1763
 3431 063c 902B02EE 		vmov.32	d18[0], r2
 3432 0640 AC719DE5 		ldr	r7, [sp, #428]
 3433 0644 A01472F3 		vshl.u64	d17, d16, d18
 3434 0648 070053E1 		cmp	r3, r7
 3435 064c 02015303 		cmpeq	r3, #-2147483648
 3436 0650 314B55EC 		vmov	r4, r5, d17	@ int
 3437 0654 5052A0E1 		asr	r5, r0, r2
 3438 0658 014044E2 		sub	r4, r4, #1
 3439 065c C420A0E1 		asr	r2, r4, #1
 3440 0660 004004E0 		and	r4, r4, r0
 3441 0664 A02F82E0 		add	r2, r2, r0, lsr #31
 3442 0668 9307C1E0 		smull	r0, r1, r3, r7
 3443 066c 0130A003 		moveq	r3, #1
 3444 0670 B0719DE5 		ldr	r7, [sp, #432]
 3445 0674 0030A013 		movne	r3, #0
 3446 0678 020054E1 		cmp	r4, r2
 3447 067c 0520A0D1 		movle	r2, r5
 3448 0680 012085C2 		addgt	r2, r5, #1
 3449 0684 000050E3 		cmp	r0, #0
 3450 0688 0040D1E2 		sbcs	r4, r1, #0
 3451 068c 0141A0A3 		movge	r4, #1073741824
 3452 0690 0050A0A3 		movge	r5, #0
 3453 0694 0741A0B3 		movlt	r4, #-1073741823
 3454 0698 0050E0B3 		mvnlt	r5, #0
 3455 069c 000053E3 		cmp	r3, #0
 3456 06a0 0201E013 		mvnne	r0, #-2147483648
 3457 06a4 0800001A 		bne	.L1277
 3458 06a8 004094E0 		adds	r4, r4, r0
 3459 06ac 0150A5E0 		adc	r5, r5, r1
 3460 06b0 0010A0E3 		mov	r1, #0
 3461 06b4 C50FA0E1 		asr	r0, r5, #31
 3462 06b8 0201C0E3 		bic	r0, r0, #-2147483648
 3463 06bc 040090E0 		adds	r0, r0, r4
 3464 06c0 A00FA0E1 		lsr	r0, r0, #31
 3465 06c4 0510A1E0 		adc	r1, r1, r5
 3466 06c8 810080E1 		orr	r0, r0, r1, lsl #1
 3467              	.L1277:
 3468 06cc 000057E3 		cmp	r7, #0
 3469 06d0 003067E2 		rsb	r3, r7, #0
 3470 06d4 A50900CA 		bgt	.L1764
 3471 06d8 1F0077E3 		cmn	r7, #31
 3472 06dc 9B0900BA 		blt	.L1765
 3473 06e0 903B02EE 		vmov.32	d18[0], r3
 3474 06e4 5033A0E1 		asr	r3, r0, r3
 3475 06e8 A01472F3 		vshl.u64	d17, d16, d18
 3476 06ec 314B55EC 		vmov	r4, r5, d17	@ int
 3477 06f0 014044E2 		sub	r4, r4, #1
 3478 06f4 98519DE5 		ldr	r5, [sp, #408]
 3479 06f8 C470A0E1 		asr	r7, r4, #1
 3480 06fc 041000E0 		and	r1, r0, r4
 3481 0700 9C419DE5 		ldr	r4, [sp, #412]
 3482 0704 A00F87E0 		add	r0, r7, r0, lsr #31
 3483 0708 000051E1 		cmp	r1, r0
 3484 070c 013083C2 		addgt	r3, r3, #1
 3485 0710 032042E0 		sub	r2, r2, r3
 3486 0714 9205C1E0 		smull	r0, r1, r2, r5
 3487 0718 050052E1 		cmp	r2, r5
 3488 071c 02015203 		cmpeq	r2, #-2147483648
 3489 0720 0120A003 		moveq	r2, #1
 3490 0724 0020A013 		movne	r2, #0
 3491 0728 000050E3 		cmp	r0, #0
 3492 072c 0030D1E2 		sbcs	r3, r1, #0
 3493 0730 0181A0A3 		movge	r8, #1073741824
 3494 0734 0090A0A3 		movge	r9, #0
 3495 0738 0781A0B3 		movlt	r8, #-1073741823
 3496 073c 0090E0B3 		mvnlt	r9, #0
 3497 0740 000052E3 		cmp	r2, #0
 3498 0744 0251E013 		mvnne	r5, #-2147483648
 3499 0748 0900001A 		bne	.L1281
 3500 074c 080090E0 		adds	r0, r0, r8
 3501 0750 0030A0E3 		mov	r3, #0
 3502 0754 0910A1E0 		adc	r1, r1, r9
 3503 0758 C12FA0E1 		asr	r2, r1, #31
 3504 075c 0221C2E3 		bic	r2, r2, #-2147483648
 3505 0760 002092E0 		adds	r2, r2, r0
 3506 0764 A22FA0E1 		lsr	r2, r2, #31
 3507 0768 0130A3E0 		adc	r3, r3, r1
 3508 076c 832082E1 		orr	r2, r2, r3, lsl #1
 3509 0770 0250A0E1 		mov	r5, r2
 3510              	.L1281:
 3511 0774 000054E3 		cmp	r4, #0
 3512 0778 003064E2 		rsb	r3, r4, #0
 3513 077c BB0900CA 		bgt	.L1766
 3514 0780 1F0074E3 		cmn	r4, #31
 3515 0784 B10900BA 		blt	.L1767
 3516 0788 903B02EE 		vmov.32	d18[0], r3
 3517 078c 5533A0E1 		asr	r3, r5, r3
 3518 0790 94719DE5 		ldr	r7, [sp, #404]
 3519 0794 A01472F3 		vshl.u64	d17, d16, d18
 3520 0798 B4419DE5 		ldr	r4, [sp, #436]
 3521 079c 310B51EC 		vmov	r0, r1, d17	@ int
 3522 07a0 010040E2 		sub	r0, r0, #1
 3523 07a4 B8119DE5 		ldr	r1, [sp, #440]
 3524 07a8 C020A0E1 		asr	r2, r0, #1
 3525 07ac 050000E0 		and	r0, r0, r5
 3526 07b0 A52F82E0 		add	r2, r2, r5, lsr #31
 3527 07b4 020050E1 		cmp	r0, r2
 3528 07b8 013083C2 		addgt	r3, r3, #1
 3529 07bc 073083E0 		add	r3, r3, r7
 3530 07c0 040053E1 		cmp	r3, r4
 3531 07c4 0430A0B1 		movlt	r3, r4
 3532 07c8 010053E1 		cmp	r3, r1
 3533 07cc 0130A0A1 		movge	r3, r1
 3534 07d0 0A005CE1 		cmp	ip, r10
 3535 07d4 0130EEE5 		strb	r3, [lr, #1]!
 3536 07d8 70FFFF1A 		bne	.L1768
 3537              	.L1284:
 3538 07dc 60C19DE5 		ldr	ip, [sp, #352]
 3539              	.L1270:
 3540 07e0 05005CE3 		cmp	ip, #5
 3541 07e4 030000DA 		ble	.L1285
 3542 07e8 64019DE5 		ldr	r0, [sp, #356]
 3543 07ec 000050E3 		cmp	r0, #0
 3544 07f0 0000000A 		beq	.L1285
 3545 07f4 FEFFFFEB 		bl	_ZdaPv
 3546              	.L1285:
 3547 07f8 38319DE5 		ldr	r3, [sp, #312]
 3548 07fc 050053E3 		cmp	r3, #5
 3549 0800 030000DA 		ble	.L1286
 3550 0804 3C019DE5 		ldr	r0, [sp, #316]
 3551 0808 000050E3 		cmp	r0, #0
 3552 080c 0000000A 		beq	.L1286
 3553 0810 FEFFFFEB 		bl	_ZdaPv
 3554              	.L1286:
 3555 0814 10319DE5 		ldr	r3, [sp, #272]
 3556 0818 050053E3 		cmp	r3, #5
 3557 081c FEFDFFDA 		ble	.L1591
 3558 0820 14019DE5 		ldr	r0, [sp, #276]
 3559 0824 000050E3 		cmp	r0, #0
 3560 0828 FBFDFF0A 		beq	.L1591
 3561              	.L1692:
 3562 082c FEFFFFEB 		bl	_ZdaPv
 3563 0830 F9FDFFEA 		b	.L1591
 3564              	.L1750:
 3565 0834 98008DE2 		add	r0, sp, #152
 3566              	.LEHB45:
 3567 0838 FEFFFFEB 		bl	_ZN6tflite5micro14GetTensorShapeEPK16TfLiteEvalTensor
 3568              	.LEHE45:
 3569 083c 18329DE5 		ldr	r3, [sp, #536]
 3570 0840 000053E3 		cmp	r3, #0
 3571 0844 9609000A 		beq	.L1769
 3572 0848 1C129DE5 		ldr	r1, [sp, #540]
 3573 084c B0008DE2 		add	r0, sp, #176
 3574 0850 005093E5 		ldr	r5, [r3]
 3575              	.LEHB46:
 3576 0854 FEFFFFEB 		bl	_ZN6tflite5micro14GetTensorShapeEPK16TfLiteEvalTensor
 3577              	.LEHE46:
 3578 0858 1C329DE5 		ldr	r3, [sp, #540]
 3579 085c 000053E3 		cmp	r3, #0
 3580 0860 8D09000A 		beq	.L1770
 3581 0864 0710A0E1 		mov	r1, r7
 3582 0868 C8008DE2 		add	r0, sp, #200
 3583 086c 004093E5 		ldr	r4, [r3]
 3584              	.LEHB47:
 3585 0870 FEFFFFEB 		bl	_ZN6tflite5micro14GetTensorShapeEPK16TfLiteEvalTensor
 3586              	.LEHE47:
 3587 0874 98209DE5 		ldr	r2, [sp, #152]
 3588 0878 006097E5 		ldr	r6, [r7]
 3589 087c 050052E3 		cmp	r2, #5
 3590 0880 830900CA 		bgt	.L1771
 3591 0884 B0709DE5 		ldr	r7, [sp, #176]
 3592 0888 050057E3 		cmp	r7, #5
 3593 088c 7F0900CA 		bgt	.L1772
 3594 0890 C8309DE5 		ldr	r3, [sp, #200]
 3595 0894 050053E3 		cmp	r3, #5
 3596 0898 860900CA 		bgt	.L1773
 3597 089c 050072E2 		rsbs	r0, r2, #5
 3598 08a0 0530A0E3 		mov	r3, #5
 3599 08a4 F8308DE5 		str	r3, [sp, #248]
 3600 08a8 1000000A 		beq	.L1112
 3601 08ac 010050E3 		cmp	r0, #1
 3602 08b0 0130A0E3 		mov	r3, #1
 3603 08b4 FC308DE5 		str	r3, [sp, #252]
 3604 08b8 0C00000A 		beq	.L1112
 3605 08bc 020050E3 		cmp	r0, #2
 3606 08c0 00318DE5 		str	r3, [sp, #256]
 3607 08c4 0900000A 		beq	.L1112
 3608 08c8 030050E3 		cmp	r0, #3
 3609 08cc 04318DE5 		str	r3, [sp, #260]
 3610 08d0 0600000A 		beq	.L1112
 3611 08d4 040050E3 		cmp	r0, #4
 3612 08d8 08318DE5 		str	r3, [sp, #264]
 3613 08dc 0300000A 		beq	.L1112
 3614 08e0 050050E3 		cmp	r0, #5
 3615 08e4 0C318DE5 		str	r3, [sp, #268]
 3616 08e8 0000000A 		beq	.L1112
 3617              	.LEHB48:
 3618 08ec FEFFFFEB 		bl	abort
 3619              	.LEHE48:
 3620              	.L1112:
 3621 08f0 FC308DE2 		add	r3, sp, #252
 3622 08f4 0221A0E1 		lsl	r2, r2, #2
 3623 08f8 000183E0 		add	r0, r3, r0, lsl #2
 3624 08fc 9C108DE2 		add	r1, sp, #156
 3625 0900 FEFFFFEB 		bl	memcpy
 3626 0904 050077E2 		rsbs	r0, r7, #5
 3627 0908 0530A0E3 		mov	r3, #5
 3628 090c 60318DE5 		str	r3, [sp, #352]
 3629 0910 1200000A 		beq	.L1110
 3630 0914 010050E3 		cmp	r0, #1
 3631 0918 0130A0E3 		mov	r3, #1
 3632 091c 64318DE5 		str	r3, [sp, #356]
 3633 0920 0E00000A 		beq	.L1110
 3634 0924 020050E3 		cmp	r0, #2
 3635 0928 68318DE5 		str	r3, [sp, #360]
 3636 092c 0B00000A 		beq	.L1110
 3637 0930 030050E3 		cmp	r0, #3
 3638 0934 6C318DE5 		str	r3, [sp, #364]
 3639 0938 0800000A 		beq	.L1110
 3640 093c 040050E3 		cmp	r0, #4
 3641 0940 70318DE5 		str	r3, [sp, #368]
 3642 0944 0500000A 		beq	.L1110
 3643 0948 050050E3 		cmp	r0, #5
 3644 094c 74318DE5 		str	r3, [sp, #372]
 3645 0950 0200000A 		beq	.L1110
 3646              	.LEHB49:
 3647 0954 FEFFFFEB 		bl	abort
 3648              	.LEHE49:
 3649              	.L1822:
 3650              		.align	3
 3651              	.L1821:
 3652 0958 01000000 		.word	1
 3653 095c 00000000 		.word	0
 3654              	.L1110:
 3655 0960 593F8DE2 		add	r3, sp, #356
 3656 0964 0721A0E1 		lsl	r2, r7, #2
 3657 0968 000183E0 		add	r0, r3, r0, lsl #2
 3658 096c B4108DE2 		add	r1, sp, #180
 3659 0970 FEFFFFEB 		bl	memcpy
 3660 0974 F8709DE5 		ldr	r7, [sp, #248]
 3661 0978 FC309DE5 		ldr	r3, [sp, #252]
 3662 097c 050057E3 		cmp	r7, #5
 3663 0980 F30400CA 		bgt	.L1774
 3664 0984 A808001A 		bne	.L1116
 3665 0988 0C019DE5 		ldr	r0, [sp, #268]
 3666 098c 01C0A0E3 		mov	ip, #1
 3667 0990 08119DE5 		ldr	r1, [sp, #264]
 3668 0994 04219DE5 		ldr	r2, [sp, #260]
 3669 0998 30018DE5 		str	r0, [sp, #304]
 3670 099c 34C18DE5 		str	ip, [sp, #308]
 3671 09a0 910001E0 		mul	r1, r1, r0
 3672 09a4 00019DE5 		ldr	r0, [sp, #256]
 3673              	.L1688:
 3674 09a8 60819DE5 		ldr	r8, [sp, #352]
 3675 09ac 920102E0 		mul	r2, r2, r1
 3676 09b0 2C118DE5 		str	r1, [sp, #300]
 3677 09b4 050058E3 		cmp	r8, #5
 3678 09b8 900201E0 		mul	r1, r0, r2
 3679 09bc 28218DE5 		str	r2, [sp, #296]
 3680 09c0 64019DE5 		ldr	r0, [sp, #356]
 3681 09c4 24118DE5 		str	r1, [sp, #292]
 3682 09c8 CD0200CA 		bgt	.L1775
 3683 09cc 9508001A 		bne	.L1121
 3684 09d0 74219DE5 		ldr	r2, [sp, #372]
 3685 09d4 0190A0E3 		mov	r9, #1
 3686 09d8 70119DE5 		ldr	r1, [sp, #368]
 3687 09dc 050057E3 		cmp	r7, #5
 3688 09e0 6CC19DE5 		ldr	ip, [sp, #364]
 3689 09e4 68E19DE5 		ldr	lr, [sp, #360]
 3690 09e8 5C918DE5 		str	r9, [sp, #348]
 3691 09ec 91020AE0 		mul	r10, r1, r2
 3692 09f0 58218DE5 		str	r2, [sp, #344]
 3693 09f4 9C0A09E0 		mul	r9, ip, r10
 3694 09f8 54A18DE5 		str	r10, [sp, #340]
 3695 09fc 9E090AE0 		mul	r10, lr, r9
 3696 0a00 50918DE5 		str	r9, [sp, #336]
 3697 0a04 4CA18DE5 		str	r10, [sp, #332]
 3698 0a08 B30600CA 		bgt	.L1776
 3699 0a0c 000057E3 		cmp	r7, #0
 3700 0a10 CC0800DA 		ble	.L1126
 3701 0a14 000053E1 		cmp	r3, r0
 3702 0a18 0500000A 		beq	.L1127
 3703 0a1c 010053E3 		cmp	r3, #1
 3704 0a20 0D08000A 		beq	.L1128
 3705 0a24 010050E3 		cmp	r0, #1
 3706 0a28 3005001A 		bne	.L1129
 3707 0a2c 0030A0E3 		mov	r3, #0
 3708 0a30 4C318DE5 		str	r3, [sp, #332]
 3709              	.L1127:
 3710 0a34 010057E3 		cmp	r7, #1
 3711 0a38 C208000A 		beq	.L1126
 3712 0a3c 00319DE5 		ldr	r3, [sp, #256]
 3713 0a40 03005EE1 		cmp	lr, r3
 3714 0a44 0500000A 		beq	.L1131
 3715 0a48 010053E3 		cmp	r3, #1
 3716 0a4c C607000A 		beq	.L1130
 3717 0a50 01005EE3 		cmp	lr, #1
 3718 0a54 2505001A 		bne	.L1129
 3719 0a58 0030A0E3 		mov	r3, #0
 3720 0a5c 50318DE5 		str	r3, [sp, #336]
 3721              	.L1131:
 3722 0a60 020057E3 		cmp	r7, #2
 3723 0a64 B708000A 		beq	.L1126
 3724 0a68 04319DE5 		ldr	r3, [sp, #260]
 3725 0a6c 03005CE1 		cmp	ip, r3
 3726 0a70 0500000A 		beq	.L1133
 3727 0a74 010053E3 		cmp	r3, #1
 3728 0a78 FA07000A 		beq	.L1132
 3729 0a7c 01005CE3 		cmp	ip, #1
 3730 0a80 1A05001A 		bne	.L1129
 3731 0a84 0030A0E3 		mov	r3, #0
 3732 0a88 54318DE5 		str	r3, [sp, #340]
 3733              	.L1133:
 3734 0a8c 030057E3 		cmp	r7, #3
 3735 0a90 AC08000A 		beq	.L1126
 3736 0a94 08319DE5 		ldr	r3, [sp, #264]
 3737 0a98 030051E1 		cmp	r1, r3
 3738 0a9c 0500000A 		beq	.L1135
 3739 0aa0 010053E3 		cmp	r3, #1
 3740 0aa4 E907000A 		beq	.L1134
 3741 0aa8 010051E3 		cmp	r1, #1
 3742 0aac 0F05001A 		bne	.L1129
 3743 0ab0 0030A0E3 		mov	r3, #0
 3744 0ab4 58318DE5 		str	r3, [sp, #344]
 3745              	.L1135:
 3746 0ab8 050057E3 		cmp	r7, #5
 3747 0abc A108001A 		bne	.L1126
 3748 0ac0 0C319DE5 		ldr	r3, [sp, #268]
 3749 0ac4 030052E1 		cmp	r2, r3
 3750 0ac8 0700000A 		beq	.L1172
 3751 0acc 010053E3 		cmp	r3, #1
 3752 0ad0 0030A003 		moveq	r3, #0
 3753 0ad4 34318D05 		streq	r3, [sp, #308]
 3754 0ad8 0300000A 		beq	.L1172
 3755 0adc 010052E3 		cmp	r2, #1
 3756 0ae0 0205001A 		bne	.L1129
 3757 0ae4 0030A0E3 		mov	r3, #0
 3758 0ae8 5C318DE5 		str	r3, [sp, #348]
 3759              	.L1172:
 3760 0aec C8209DE5 		ldr	r2, [sp, #200]
 3761 0af0 0030A0E3 		mov	r3, #0
 3762 0af4 E0308DE5 		str	r3, [sp, #224]
 3763 0af8 050052E3 		cmp	r2, #5
 3764 0afc EA0800CA 		bgt	.L1777
 3765 0b00 050072E2 		rsbs	r0, r2, #5
 3766 0b04 0530A0E3 		mov	r3, #5
 3767 0b08 E0308DE5 		str	r3, [sp, #224]
 3768 0b0c 1000000A 		beq	.L1185
 3769 0b10 010050E3 		cmp	r0, #1
 3770 0b14 0130A0E3 		mov	r3, #1
 3771 0b18 E4308DE5 		str	r3, [sp, #228]
 3772 0b1c 0C00000A 		beq	.L1185
 3773 0b20 020050E3 		cmp	r0, #2
 3774 0b24 E8308DE5 		str	r3, [sp, #232]
 3775 0b28 0900000A 		beq	.L1185
 3776 0b2c 030050E3 		cmp	r0, #3
 3777 0b30 EC308DE5 		str	r3, [sp, #236]
 3778 0b34 0600000A 		beq	.L1185
 3779 0b38 040050E3 		cmp	r0, #4
 3780 0b3c F0308DE5 		str	r3, [sp, #240]
 3781 0b40 0300000A 		beq	.L1185
 3782 0b44 050050E3 		cmp	r0, #5
 3783 0b48 F4308DE5 		str	r3, [sp, #244]
 3784 0b4c 0000000A 		beq	.L1185
 3785              	.LEHB50:
 3786 0b50 FEFFFFEB 		bl	abort
 3787              	.LEHE50:
 3788              	.L1185:
 3789 0b54 E4308DE2 		add	r3, sp, #228
 3790 0b58 0221A0E1 		lsl	r2, r2, #2
 3791 0b5c 000183E0 		add	r0, r3, r0, lsl #2
 3792 0b60 CC108DE2 		add	r1, sp, #204
 3793 0b64 FEFFFFEB 		bl	memcpy
 3794 0b68 E0709DE5 		ldr	r7, [sp, #224]
 3795 0b6c E4009DE5 		ldr	r0, [sp, #228]
 3796 0b70 050057E3 		cmp	r7, #5
 3797 0b74 4A0200CA 		bgt	.L1778
 3798 0b78 2208001A 		bne	.L1184
 3799 0b7c E8208DE2 		add	r2, sp, #232
 3800 0b80 F4109DE5 		ldr	r1, [sp, #244]
 3801 0b84 0C1092E8 		ldm	r2, {r2, r3, ip}
 3802 0b88 01E0A0E3 		mov	lr, #1
 3803 0b8c 60018DE5 		str	r0, [sp, #352]
 3804 0b90 70118DE5 		str	r1, [sp, #368]
 3805 0b94 68318DE5 		str	r3, [sp, #360]
 3806 0b98 9C0100E0 		mul	r0, ip, r1
 3807 0b9c 64218DE5 		str	r2, [sp, #356]
 3808 0ba0 80118DE5 		str	r1, [sp, #384]
 3809 0ba4 6CC18DE5 		str	ip, [sp, #364]
 3810 0ba8 84E18DE5 		str	lr, [sp, #388]
 3811 0bac 930003E0 		mul	r3, r3, r0
 3812 0bb0 7C018DE5 		str	r0, [sp, #380]
 3813 0bb4 920302E0 		mul	r2, r2, r3
 3814 0bb8 78318DE5 		str	r3, [sp, #376]
 3815 0bbc 60319DE5 		ldr	r3, [sp, #352]
 3816 0bc0 74218DE5 		str	r2, [sp, #372]
 3817              	.L1183:
 3818 0bc4 000053E3 		cmp	r3, #0
 3819 0bc8 84308DE5 		str	r3, [sp, #132]
 3820 0bcc 410100DA 		ble	.L1191
 3821 0bd0 5C219DE5 		ldr	r2, [sp, #348]
 3822 0bd4 34319DE5 		ldr	r3, [sp, #308]
 3823 0bd8 70919DE5 		ldr	r9, [sp, #368]
 3824 0bdc 0210A0E1 		mov	r1, r2
 3825 0be0 08208DE5 		str	r2, [sp, #8]
 3826 0be4 0020A0E3 		mov	r2, #0
 3827 0be8 0C308DE5 		str	r3, [sp, #12]
 3828 0bec 74208DE5 		str	r2, [sp, #116]
 3829 0bf0 64219DE5 		ldr	r2, [sp, #356]
 3830 0bf4 64608DE5 		str	r6, [sp, #100]
 3831 0bf8 AA0B5FED 		vldr.64	d16, .L1821	@ int
 3832 0bfc 70208DE5 		str	r2, [sp, #112]
 3833 0c00 68219DE5 		ldr	r2, [sp, #360]
 3834 0c04 48208DE5 		str	r2, [sp, #72]
 3835 0c08 8320A0E1 		lsl	r2, r3, #1
 3836 0c0c 6C319DE5 		ldr	r3, [sp, #364]
 3837 0c10 20308DE5 		str	r3, [sp, #32]
 3838 0c14 8130A0E1 		lsl	r3, r1, #1
 3839 0c18 28119DE5 		ldr	r1, [sp, #296]
 3840 0c1c 00B063E2 		rsb	fp, r3, #0
 3841 0c20 8C108DE5 		str	r1, [sp, #140]
 3842 0c24 021085E0 		add	r1, r5, r2
 3843 0c28 002062E2 		rsb	r2, r2, #0
 3844 0c2c 6C108DE5 		str	r1, [sp, #108]
 3845 0c30 34208DE5 		str	r2, [sp, #52]
 3846 0c34 30219DE5 		ldr	r2, [sp, #304]
 3847 0c38 2C119DE5 		ldr	r1, [sp, #300]
 3848 0c3c 28208DE5 		str	r2, [sp, #40]
 3849 0c40 032084E0 		add	r2, r4, r3
 3850 0c44 54319DE5 		ldr	r3, [sp, #340]
 3851 0c48 68208DE5 		str	r2, [sp, #104]
 3852 0c4c 50219DE5 		ldr	r2, [sp, #336]
 3853 0c50 54308DE5 		str	r3, [sp, #84]
 3854 0c54 58319DE5 		ldr	r3, [sp, #344]
 3855 0c58 50108DE5 		str	r1, [sp, #80]
 3856 0c5c 94208DE5 		str	r2, [sp, #148]
 3857 0c60 2C308DE5 		str	r3, [sp, #44]
 3858 0c64 78319DE5 		ldr	r3, [sp, #376]
 3859 0c68 80308DE5 		str	r3, [sp, #128]
 3860 0c6c 7C319DE5 		ldr	r3, [sp, #380]
 3861 0c70 4C308DE5 		str	r3, [sp, #76]
 3862 0c74 80319DE5 		ldr	r3, [sp, #384]
 3863 0c78 84A19DE5 		ldr	r10, [sp, #388]
 3864 0c7c 04908DE5 		str	r9, [sp, #4]
 3865 0c80 24308DE5 		str	r3, [sp, #36]
 3866 0c84 24319DE5 		ldr	r3, [sp, #292]
 3867 0c88 0A90A0E1 		mov	r9, r10
 3868 0c8c 88308DE5 		str	r3, [sp, #136]
 3869 0c90 4C319DE5 		ldr	r3, [sp, #332]
 3870 0c94 7C308DE5 		str	r3, [sp, #124]
 3871 0c98 74319DE5 		ldr	r3, [sp, #372]
 3872 0c9c 90308DE5 		str	r3, [sp, #144]
 3873              	.L1192:
 3874 0ca0 70309DE5 		ldr	r3, [sp, #112]
 3875 0ca4 000053E3 		cmp	r3, #0
 3876 0ca8 F80000DA 		ble	.L1194
 3877 0cac 64309DE5 		ldr	r3, [sp, #100]
 3878 0cb0 30B08DE5 		str	fp, [sp, #48]
 3879 0cb4 5C308DE5 		str	r3, [sp, #92]
 3880 0cb8 68309DE5 		ldr	r3, [sp, #104]
 3881 0cbc 58308DE5 		str	r3, [sp, #88]
 3882 0cc0 6C309DE5 		ldr	r3, [sp, #108]
 3883 0cc4 60308DE5 		str	r3, [sp, #96]
 3884 0cc8 0030A0E3 		mov	r3, #0
 3885 0ccc 78308DE5 		str	r3, [sp, #120]
 3886              	.L1195:
 3887 0cd0 48309DE5 		ldr	r3, [sp, #72]
 3888 0cd4 000053E3 		cmp	r3, #0
 3889 0cd8 D90000DA 		ble	.L1197
 3890 0cdc 5C309DE5 		ldr	r3, [sp, #92]
 3891 0ce0 38308DE5 		str	r3, [sp, #56]
 3892 0ce4 58309DE5 		ldr	r3, [sp, #88]
 3893 0ce8 40308DE5 		str	r3, [sp, #64]
 3894 0cec 60309DE5 		ldr	r3, [sp, #96]
 3895 0cf0 3C308DE5 		str	r3, [sp, #60]
 3896 0cf4 0030A0E3 		mov	r3, #0
 3897 0cf8 44308DE5 		str	r3, [sp, #68]
 3898              	.L1198:
 3899 0cfc 20309DE5 		ldr	r3, [sp, #32]
 3900 0d00 000053E3 		cmp	r3, #0
 3901 0d04 BC0000DA 		ble	.L1200
 3902 0d08 38309DE5 		ldr	r3, [sp, #56]
 3903 0d0c 09B0A0E1 		mov	fp, r9
 3904 0d10 14308DE5 		str	r3, [sp, #20]
 3905 0d14 40309DE5 		ldr	r3, [sp, #64]
 3906 0d18 10308DE5 		str	r3, [sp, #16]
 3907 0d1c 3C309DE5 		ldr	r3, [sp, #60]
 3908 0d20 18308DE5 		str	r3, [sp, #24]
 3909 0d24 0030A0E3 		mov	r3, #0
 3910 0d28 1C308DE5 		str	r3, [sp, #28]
 3911              	.L1201:
 3912 0d2c 04309DE5 		ldr	r3, [sp, #4]
 3913 0d30 000053E3 		cmp	r3, #0
 3914 0d34 9D0000DA 		ble	.L1214
 3915 0d38 14A09DE5 		ldr	r10, [sp, #20]
 3916 0d3c 0070A0E3 		mov	r7, #0
 3917 0d40 10E09DE5 		ldr	lr, [sp, #16]
 3918 0d44 18C09DE5 		ldr	ip, [sp, #24]
 3919 0d48 30809DE5 		ldr	r8, [sp, #48]
 3920 0d4c 34609DE5 		ldr	r6, [sp, #52]
 3921              	.L1215:
 3922 0d50 A0319DE5 		ldr	r3, [sp, #416]
 3923 0d54 8C119DE5 		ldr	r1, [sp, #396]
 3924 0d58 0690DCE7 		ldrb	r9, [ip, r6]	@ zero_extendqisi2
 3925 0d5c A4219DE5 		ldr	r2, [sp, #420]
 3926 0d60 90019DE5 		ldr	r0, [sp, #400]
 3927 0d64 019089E0 		add	r9, r9, r1
 3928 0d68 0810DEE7 		ldrb	r1, [lr, r8]	@ zero_extendqisi2
 3929 0d6c 1993A0E1 		lsl	r9, r9, r3
 3930 0d70 00F0DCF5 		pld	[ip]
 3931 0d74 00F0DEF5 		pld	[lr]
 3932 0d78 9942C5E0 		smull	r4, r5, r9, r2
 3933 0d7c 020059E1 		cmp	r9, r2
 3934 0d80 02015903 		cmpeq	r9, #-2147483648
 3935 0d84 0190A003 		moveq	r9, #1
 3936 0d88 0090A013 		movne	r9, #0
 3937 0d8c 001081E0 		add	r1, r1, r0
 3938 0d90 A8019DE5 		ldr	r0, [sp, #424]
 3939 0d94 1113A0E1 		lsl	r1, r1, r3
 3940 0d98 000054E3 		cmp	r4, #0
 3941 0d9c 0030D5E2 		sbcs	r3, r5, #0
 3942 0da0 0121A0A3 		movge	r2, #1073741824
 3943 0da4 0721A0B3 		movlt	r2, #-1073741823
 3944 0da8 0030A0A3 		movge	r3, #0
 3945 0dac 0030E0B3 		mvnlt	r3, #0
 3946 0db0 000059E3 		cmp	r9, #0
 3947 0db4 0221E013 		mvnne	r2, #-2147483648
 3948 0db8 0800001A 		bne	.L1203
 3949 0dbc 024094E0 		adds	r4, r4, r2
 3950 0dc0 0350A5E0 		adc	r5, r5, r3
 3951 0dc4 0030A0E3 		mov	r3, #0
 3952 0dc8 C52FA0E1 		asr	r2, r5, #31
 3953 0dcc 0221C2E3 		bic	r2, r2, #-2147483648
 3954 0dd0 042092E0 		adds	r2, r2, r4
 3955 0dd4 A22FA0E1 		lsr	r2, r2, #31
 3956 0dd8 0530A3E0 		adc	r3, r3, r5
 3957 0ddc 832082E1 		orr	r2, r2, r3, lsl #1
 3958              	.L1203:
 3959 0de0 000050E3 		cmp	r0, #0
 3960 0de4 005060E2 		rsb	r5, r0, #0
 3961 0de8 8F0600CA 		bgt	.L1779
 3962 0dec 1F0070E3 		cmn	r0, #31
 3963 0df0 950600BA 		blt	.L1780
 3964 0df4 905B01EE 		vmov.32	d17[0], r5
 3965 0df8 5255A0E1 		asr	r5, r2, r5
 3966 0dfc AC919DE5 		ldr	r9, [sp, #428]
 3967 0e00 A07431F3 		vshl.u64	d7, d16, d17
 3968 0e04 090051E1 		cmp	r1, r9
 3969 0e08 02015103 		cmpeq	r1, #-2147483648
 3970 0e0c 103A17EE 		vmov	r3, s14	@ int
 3971 0e10 010043E2 		sub	r0, r3, #1
 3972 0e14 C040A0E1 		asr	r4, r0, #1
 3973 0e18 020000E0 		and	r0, r0, r2
 3974 0e1c A24F84E0 		add	r4, r4, r2, lsr #31
 3975 0e20 9129C3E0 		smull	r2, r3, r1, r9
 3976 0e24 0190A003 		moveq	r9, #1
 3977 0e28 0090A013 		movne	r9, #0
 3978 0e2c 040050E1 		cmp	r0, r4
 3979 0e30 0540A0D1 		movle	r4, r5
 3980 0e34 014085C2 		addgt	r4, r5, #1
 3981 0e38 B0519DE5 		ldr	r5, [sp, #432]
 3982 0e3c 000052E3 		cmp	r2, #0
 3983 0e40 0010D3E2 		sbcs	r1, r3, #0
 3984 0e44 0101A0A3 		movge	r0, #1073741824
 3985 0e48 0010A0A3 		movge	r1, #0
 3986 0e4c 0701A0B3 		movlt	r0, #-1073741823
 3987 0e50 0010E0B3 		mvnlt	r1, #0
 3988 0e54 000059E3 		cmp	r9, #0
 3989 0e58 0221E013 		mvnne	r2, #-2147483648
 3990 0e5c 0800001A 		bne	.L1207
 3991 0e60 020090E0 		adds	r0, r0, r2
 3992 0e64 0310A1E0 		adc	r1, r1, r3
 3993 0e68 0030A0E3 		mov	r3, #0
 3994 0e6c C12FA0E1 		asr	r2, r1, #31
 3995 0e70 0221C2E3 		bic	r2, r2, #-2147483648
 3996 0e74 002092E0 		adds	r2, r2, r0
 3997 0e78 A22FA0E1 		lsr	r2, r2, #31
 3998 0e7c 0130A3E0 		adc	r3, r3, r1
 3999 0e80 832082E1 		orr	r2, r2, r3, lsl #1
 4000              	.L1207:
 4001 0e84 000055E3 		cmp	r5, #0
 4002 0e88 000065E2 		rsb	r0, r5, #0
 4003 0e8c 5E0600CA 		bgt	.L1781
 4004 0e90 1F0075E3 		cmn	r5, #31
 4005 0e94 4C0600BA 		blt	.L1782
 4006 0e98 900B01EE 		vmov.32	d17[0], r0
 4007 0e9c 5230A0E1 		asr	r3, r2, r0
 4008 0ea0 98919DE5 		ldr	r9, [sp, #408]
 4009 0ea4 A07431F3 		vshl.u64	d7, d16, d17
 4010 0ea8 9C519DE5 		ldr	r5, [sp, #412]
 4011 0eac 101A17EE 		vmov	r1, s14	@ int
 4012 0eb0 011041E2 		sub	r1, r1, #1
 4013 0eb4 C100A0E1 		asr	r0, r1, #1
 4014 0eb8 021001E0 		and	r1, r1, r2
 4015 0ebc A22F80E0 		add	r2, r0, r2, lsr #31
 4016 0ec0 020051E1 		cmp	r1, r2
 4017 0ec4 0320A0D1 		movle	r2, r3
 4018 0ec8 012083C2 		addgt	r2, r3, #1
 4019 0ecc 024044E0 		sub	r4, r4, r2
 4020 0ed0 9409C1E0 		smull	r0, r1, r4, r9
 4021 0ed4 090054E1 		cmp	r4, r9
 4022 0ed8 02015403 		cmpeq	r4, #-2147483648
 4023 0edc 0140A003 		moveq	r4, #1
 4024 0ee0 0040A013 		movne	r4, #0
 4025 0ee4 000050E3 		cmp	r0, #0
 4026 0ee8 0030D1E2 		sbcs	r3, r1, #0
 4027 0eec 0121A0A3 		movge	r2, #1073741824
 4028 0ef0 0721A0B3 		movlt	r2, #-1073741823
 4029 0ef4 0030A0A3 		movge	r3, #0
 4030 0ef8 0030E0B3 		mvnlt	r3, #0
 4031 0efc 000054E3 		cmp	r4, #0
 4032 0f00 0221E013 		mvnne	r2, #-2147483648
 4033 0f04 0800001A 		bne	.L1211
 4034 0f08 020090E0 		adds	r0, r0, r2
 4035 0f0c 0310A1E0 		adc	r1, r1, r3
 4036 0f10 0030A0E3 		mov	r3, #0
 4037 0f14 C12FA0E1 		asr	r2, r1, #31
 4038 0f18 0221C2E3 		bic	r2, r2, #-2147483648
 4039 0f1c 002092E0 		adds	r2, r2, r0
 4040 0f20 A22FA0E1 		lsr	r2, r2, #31
 4041 0f24 0130A3E0 		adc	r3, r3, r1
 4042 0f28 832082E1 		orr	r2, r2, r3, lsl #1
 4043              	.L1211:
 4044 0f2c 000055E3 		cmp	r5, #0
 4045 0f30 000065E2 		rsb	r0, r5, #0
 4046 0f34 1C0600CA 		bgt	.L1783
 4047 0f38 1F0075E3 		cmn	r5, #31
 4048 0f3c 2A0600BA 		blt	.L1784
 4049 0f40 900B02EE 		vmov.32	d18[0], r0
 4050 0f44 5230A0E1 		asr	r3, r2, r0
 4051 0f48 B8919DE5 		ldr	r9, [sp, #440]
 4052 0f4c 017087E2 		add	r7, r7, #1
 4053 0f50 A01472F3 		vshl.u64	d17, d16, d18
 4054 0f54 314B55EC 		vmov	r4, r5, d17	@ int
 4055 0f58 011044E2 		sub	r1, r4, #1
 4056 0f5c 94519DE5 		ldr	r5, [sp, #404]
 4057 0f60 C100A0E1 		asr	r0, r1, #1
 4058 0f64 021001E0 		and	r1, r1, r2
 4059 0f68 B4419DE5 		ldr	r4, [sp, #436]
 4060 0f6c A22F80E0 		add	r2, r0, r2, lsr #31
 4061 0f70 0C009DE5 		ldr	r0, [sp, #12]
 4062 0f74 020051E1 		cmp	r1, r2
 4063 0f78 0320A0D1 		movle	r2, r3
 4064 0f7c 012083C2 		addgt	r2, r3, #1
 4065 0f80 08309DE5 		ldr	r3, [sp, #8]
 4066 0f84 055082E0 		add	r5, r2, r5
 4067 0f88 00C08CE0 		add	ip, ip, r0
 4068 0f8c 040055E1 		cmp	r5, r4
 4069 0f90 03E08EE0 		add	lr, lr, r3
 4070 0f94 04309DE5 		ldr	r3, [sp, #4]
 4071 0f98 0540A0A1 		movge	r4, r5
 4072 0f9c 090054E1 		cmp	r4, r9
 4073 0fa0 0940A0A1 		movge	r4, r9
 4074 0fa4 070053E1 		cmp	r3, r7
 4075 0fa8 0B40CAE6 		strb	r4, [r10], fp
 4076 0fac 67FFFF1A 		bne	.L1215
 4077              	.L1214:
 4078 0fb0 18209DE5 		ldr	r2, [sp, #24]
 4079 0fb4 28109DE5 		ldr	r1, [sp, #40]
 4080 0fb8 1C309DE5 		ldr	r3, [sp, #28]
 4081 0fbc 012082E0 		add	r2, r2, r1
 4082 0fc0 18208DE5 		str	r2, [sp, #24]
 4083 0fc4 013083E2 		add	r3, r3, #1
 4084 0fc8 20209DE5 		ldr	r2, [sp, #32]
 4085 0fcc 1C308DE5 		str	r3, [sp, #28]
 4086 0fd0 030052E1 		cmp	r2, r3
 4087 0fd4 10309DE5 		ldr	r3, [sp, #16]
 4088 0fd8 2C209DE5 		ldr	r2, [sp, #44]
 4089 0fdc 023083E0 		add	r3, r3, r2
 4090 0fe0 24209DE5 		ldr	r2, [sp, #36]
 4091 0fe4 10308DE5 		str	r3, [sp, #16]
 4092 0fe8 14309DE5 		ldr	r3, [sp, #20]
 4093 0fec 023083E0 		add	r3, r3, r2
 4094 0ff0 14308DE5 		str	r3, [sp, #20]
 4095 0ff4 4CFFFF1A 		bne	.L1201
 4096 0ff8 0B90A0E1 		mov	r9, fp
 4097              	.L1200:
 4098 0ffc 3C209DE5 		ldr	r2, [sp, #60]
 4099 1000 50109DE5 		ldr	r1, [sp, #80]
 4100 1004 44309DE5 		ldr	r3, [sp, #68]
 4101 1008 012082E0 		add	r2, r2, r1
 4102 100c 3C208DE5 		str	r2, [sp, #60]
 4103 1010 013083E2 		add	r3, r3, #1
 4104 1014 48209DE5 		ldr	r2, [sp, #72]
 4105 1018 44308DE5 		str	r3, [sp, #68]
 4106 101c 030052E1 		cmp	r2, r3
 4107 1020 40309DE5 		ldr	r3, [sp, #64]
 4108 1024 54209DE5 		ldr	r2, [sp, #84]
 4109 1028 023083E0 		add	r3, r3, r2
 4110 102c 4C209DE5 		ldr	r2, [sp, #76]
 4111 1030 40308DE5 		str	r3, [sp, #64]
 4112 1034 38309DE5 		ldr	r3, [sp, #56]
 4113 1038 023083E0 		add	r3, r3, r2
 4114 103c 38308DE5 		str	r3, [sp, #56]
 4115 1040 2DFFFF1A 		bne	.L1198
 4116              	.L1197:
 4117 1044 60209DE5 		ldr	r2, [sp, #96]
 4118 1048 8C109DE5 		ldr	r1, [sp, #140]
 4119 104c 78309DE5 		ldr	r3, [sp, #120]
 4120 1050 012082E0 		add	r2, r2, r1
 4121 1054 60208DE5 		str	r2, [sp, #96]
 4122 1058 013083E2 		add	r3, r3, #1
 4123 105c 70209DE5 		ldr	r2, [sp, #112]
 4124 1060 78308DE5 		str	r3, [sp, #120]
 4125 1064 030052E1 		cmp	r2, r3
 4126 1068 58309DE5 		ldr	r3, [sp, #88]
 4127 106c 94209DE5 		ldr	r2, [sp, #148]
 4128 1070 023083E0 		add	r3, r3, r2
 4129 1074 80209DE5 		ldr	r2, [sp, #128]
 4130 1078 58308DE5 		str	r3, [sp, #88]
 4131 107c 5C309DE5 		ldr	r3, [sp, #92]
 4132 1080 023083E0 		add	r3, r3, r2
 4133 1084 5C308DE5 		str	r3, [sp, #92]
 4134 1088 10FFFF1A 		bne	.L1195
 4135 108c 30B09DE5 		ldr	fp, [sp, #48]
 4136              	.L1194:
 4137 1090 6C209DE5 		ldr	r2, [sp, #108]
 4138 1094 88109DE5 		ldr	r1, [sp, #136]
 4139 1098 74309DE5 		ldr	r3, [sp, #116]
 4140 109c 012082E0 		add	r2, r2, r1
 4141 10a0 6C208DE5 		str	r2, [sp, #108]
 4142 10a4 013083E2 		add	r3, r3, #1
 4143 10a8 84209DE5 		ldr	r2, [sp, #132]
 4144 10ac 74308DE5 		str	r3, [sp, #116]
 4145 10b0 030052E1 		cmp	r2, r3
 4146 10b4 68309DE5 		ldr	r3, [sp, #104]
 4147 10b8 7C209DE5 		ldr	r2, [sp, #124]
 4148 10bc 023083E0 		add	r3, r3, r2
 4149 10c0 90209DE5 		ldr	r2, [sp, #144]
 4150 10c4 68308DE5 		str	r3, [sp, #104]
 4151 10c8 64309DE5 		ldr	r3, [sp, #100]
 4152 10cc 023083E0 		add	r3, r3, r2
 4153 10d0 64308DE5 		str	r3, [sp, #100]
 4154 10d4 F1FEFF1A 		bne	.L1192
 4155              	.L1191:
 4156 10d8 C8309DE5 		ldr	r3, [sp, #200]
 4157 10dc 050053E3 		cmp	r3, #5
 4158 10e0 030000DA 		ble	.L1189
 4159 10e4 CC009DE5 		ldr	r0, [sp, #204]
 4160 10e8 000050E3 		cmp	r0, #0
 4161 10ec 0000000A 		beq	.L1189
 4162 10f0 FEFFFFEB 		bl	_ZdaPv
 4163              	.L1189:
 4164 10f4 B0309DE5 		ldr	r3, [sp, #176]
 4165 10f8 050053E3 		cmp	r3, #5
 4166 10fc 030000DA 		ble	.L1220
 4167 1100 B4009DE5 		ldr	r0, [sp, #180]
 4168 1104 000050E3 		cmp	r0, #0
 4169 1108 0000000A 		beq	.L1220
 4170 110c FEFFFFEB 		bl	_ZdaPv
 4171              	.L1220:
 4172 1110 98309DE5 		ldr	r3, [sp, #152]
 4173 1114 050053E3 		cmp	r3, #5
 4174 1118 BFFBFFDA 		ble	.L1591
 4175 111c 9C009DE5 		ldr	r0, [sp, #156]
 4176 1120 000050E3 		cmp	r0, #0
 4177 1124 C0FDFF1A 		bne	.L1692
 4178 1128 BBFBFFEA 		b	.L1591
 4179              	.L1749:
 4180 112c 000054E3 		cmp	r4, #0
 4181 1130 4F01000A 		beq	.L916
 4182 1134 98008DE2 		add	r0, sp, #152
 4183              	.LEHB51:
 4184 1138 FEFFFFEB 		bl	_ZN6tflite5micro14GetTensorShapeEPK16TfLiteEvalTensor
 4185              	.LEHE51:
 4186 113c 18329DE5 		ldr	r3, [sp, #536]
 4187 1140 000053E3 		cmp	r3, #0
 4188 1144 FC06000A 		beq	.L1785
 4189 1148 1C129DE5 		ldr	r1, [sp, #540]
 4190 114c B0008DE2 		add	r0, sp, #176
 4191 1150 005093E5 		ldr	r5, [r3]
 4192              	.LEHB52:
 4193 1154 FEFFFFEB 		bl	_ZN6tflite5micro14GetTensorShapeEPK16TfLiteEvalTensor
 4194              	.LEHE52:
 4195 1158 1C329DE5 		ldr	r3, [sp, #540]
 4196 115c 000053E3 		cmp	r3, #0
 4197 1160 F306000A 		beq	.L1786
 4198 1164 0710A0E1 		mov	r1, r7
 4199 1168 C8008DE2 		add	r0, sp, #200
 4200 116c 004093E5 		ldr	r4, [r3]
 4201              	.LEHB53:
 4202 1170 FEFFFFEB 		bl	_ZN6tflite5micro14GetTensorShapeEPK16TfLiteEvalTensor
 4203              	.LEHE53:
 4204 1174 98209DE5 		ldr	r2, [sp, #152]
 4205 1178 0030A0E3 		mov	r3, #0
 4206 117c 007097E5 		ldr	r7, [r7]
 4207 1180 F8308DE5 		str	r3, [sp, #248]
 4208 1184 050052E3 		cmp	r2, #5
 4209 1188 110700CA 		bgt	.L1787
 4210 118c 050072E2 		rsbs	r0, r2, #5
 4211 1190 0530A0E3 		mov	r3, #5
 4212 1194 F8308DE5 		str	r3, [sp, #248]
 4213 1198 1000000A 		beq	.L923
 4214 119c 010050E3 		cmp	r0, #1
 4215 11a0 0130A0E3 		mov	r3, #1
 4216 11a4 FC308DE5 		str	r3, [sp, #252]
 4217 11a8 0C00000A 		beq	.L923
 4218 11ac 020050E3 		cmp	r0, #2
 4219 11b0 00318DE5 		str	r3, [sp, #256]
 4220 11b4 0900000A 		beq	.L923
 4221 11b8 030050E3 		cmp	r0, #3
 4222 11bc 04318DE5 		str	r3, [sp, #260]
 4223 11c0 0600000A 		beq	.L923
 4224 11c4 040050E3 		cmp	r0, #4
 4225 11c8 08318DE5 		str	r3, [sp, #264]
 4226 11cc 0300000A 		beq	.L923
 4227 11d0 050050E3 		cmp	r0, #5
 4228 11d4 0C318DE5 		str	r3, [sp, #268]
 4229 11d8 0000000A 		beq	.L923
 4230              	.LEHB54:
 4231 11dc FEFFFFEB 		bl	abort
 4232              	.LEHE54:
 4233              	.L923:
 4234 11e0 FC308DE2 		add	r3, sp, #252
 4235 11e4 0221A0E1 		lsl	r2, r2, #2
 4236 11e8 000183E0 		add	r0, r3, r0, lsl #2
 4237 11ec 9C108DE2 		add	r1, sp, #156
 4238 11f0 FEFFFFEB 		bl	memcpy
 4239 11f4 B0209DE5 		ldr	r2, [sp, #176]
 4240 11f8 0030A0E3 		mov	r3, #0
 4241 11fc 60318DE5 		str	r3, [sp, #352]
 4242 1200 050052E3 		cmp	r2, #5
 4243 1204 2C0700CA 		bgt	.L1788
 4244 1208 050072E2 		rsbs	r0, r2, #5
 4245 120c 0530A0E3 		mov	r3, #5
 4246 1210 60318DE5 		str	r3, [sp, #352]
 4247 1214 1000000A 		beq	.L931
 4248 1218 010050E3 		cmp	r0, #1
 4249 121c 0130A0E3 		mov	r3, #1
 4250 1220 64318DE5 		str	r3, [sp, #356]
 4251 1224 0C00000A 		beq	.L931
 4252 1228 020050E3 		cmp	r0, #2
 4253 122c 68318DE5 		str	r3, [sp, #360]
 4254 1230 0900000A 		beq	.L931
 4255 1234 030050E3 		cmp	r0, #3
 4256 1238 6C318DE5 		str	r3, [sp, #364]
 4257 123c 0600000A 		beq	.L931
 4258 1240 040050E3 		cmp	r0, #4
 4259 1244 70318DE5 		str	r3, [sp, #368]
 4260 1248 0300000A 		beq	.L931
 4261 124c 050050E3 		cmp	r0, #5
 4262 1250 74318DE5 		str	r3, [sp, #372]
 4263 1254 0000000A 		beq	.L931
 4264              	.LEHB55:
 4265 1258 FEFFFFEB 		bl	abort
 4266              	.LEHE55:
 4267              	.L931:
 4268 125c 593F8DE2 		add	r3, sp, #356
 4269 1260 0221A0E1 		lsl	r2, r2, #2
 4270 1264 000183E0 		add	r0, r3, r0, lsl #2
 4271 1268 B4108DE2 		add	r1, sp, #180
 4272 126c FEFFFFEB 		bl	memcpy
 4273 1270 F8609DE5 		ldr	r6, [sp, #248]
 4274 1274 FC309DE5 		ldr	r3, [sp, #252]
 4275 1278 050056E3 		cmp	r6, #5
 4276 127c E20200CA 		bgt	.L1789
 4277 1280 D406001A 		bne	.L928
 4278 1284 0C019DE5 		ldr	r0, [sp, #268]
 4279 1288 01C0A0E3 		mov	ip, #1
 4280 128c 08119DE5 		ldr	r1, [sp, #264]
 4281 1290 04219DE5 		ldr	r2, [sp, #260]
 4282 1294 30018DE5 		str	r0, [sp, #304]
 4283 1298 34C18DE5 		str	ip, [sp, #308]
 4284 129c 910001E0 		mul	r1, r1, r0
 4285 12a0 00019DE5 		ldr	r0, [sp, #256]
 4286              	.L1685:
 4287 12a4 60819DE5 		ldr	r8, [sp, #352]
 4288 12a8 920102E0 		mul	r2, r2, r1
 4289 12ac 2C118DE5 		str	r1, [sp, #300]
 4290 12b0 050058E3 		cmp	r8, #5
 4291 12b4 900201E0 		mul	r1, r0, r2
 4292 12b8 28218DE5 		str	r2, [sp, #296]
 4293 12bc 64019DE5 		ldr	r0, [sp, #356]
 4294 12c0 24118DE5 		str	r1, [sp, #292]
 4295 12c4 DC0400CA 		bgt	.L1790
 4296 12c8 9F06001A 		bne	.L934
 4297 12cc 74219DE5 		ldr	r2, [sp, #372]
 4298 12d0 0190A0E3 		mov	r9, #1
 4299 12d4 70119DE5 		ldr	r1, [sp, #368]
 4300 12d8 050056E3 		cmp	r6, #5
 4301 12dc 6CC19DE5 		ldr	ip, [sp, #364]
 4302 12e0 68E19DE5 		ldr	lr, [sp, #360]
 4303 12e4 5C918DE5 		str	r9, [sp, #348]
 4304 12e8 91020AE0 		mul	r10, r1, r2
 4305 12ec 58218DE5 		str	r2, [sp, #344]
 4306 12f0 9C0A09E0 		mul	r9, ip, r10
 4307 12f4 54A18DE5 		str	r10, [sp, #340]
 4308 12f8 9E090AE0 		mul	r10, lr, r9
 4309 12fc 50918DE5 		str	r9, [sp, #336]
 4310 1300 4CA18DE5 		str	r10, [sp, #332]
 4311 1304 9B0500CA 		bgt	.L1791
 4312 1308 000056E3 		cmp	r6, #0
 4313 130c AF0600DA 		ble	.L939
 4314 1310 030050E1 		cmp	r0, r3
 4315 1314 0500000A 		beq	.L940
 4316 1318 010053E3 		cmp	r3, #1
 4317 131c 0306000A 		beq	.L941
 4318 1320 010050E3 		cmp	r0, #1
 4319 1324 8F05001A 		bne	.L942
 4320 1328 0030A0E3 		mov	r3, #0
 4321 132c 4C318DE5 		str	r3, [sp, #332]
 4322              	.L940:
 4323 1330 010056E3 		cmp	r6, #1
 4324 1334 A506000A 		beq	.L939
 4325 1338 00319DE5 		ldr	r3, [sp, #256]
 4326 133c 03005EE1 		cmp	lr, r3
 4327 1340 0500000A 		beq	.L944
 4328 1344 010053E3 		cmp	r3, #1
 4329 1348 D205000A 		beq	.L943
 4330 134c 01005EE3 		cmp	lr, #1
 4331 1350 8405001A 		bne	.L942
 4332 1354 0030A0E3 		mov	r3, #0
 4333 1358 50318DE5 		str	r3, [sp, #336]
 4334              	.L944:
 4335 135c 020056E3 		cmp	r6, #2
 4336 1360 9A06000A 		beq	.L939
 4337 1364 04319DE5 		ldr	r3, [sp, #260]
 4338 1368 03005CE1 		cmp	ip, r3
 4339 136c 0500000A 		beq	.L946
 4340 1370 010053E3 		cmp	r3, #1
 4341 1374 CA05000A 		beq	.L945
 4342 1378 01005CE3 		cmp	ip, #1
 4343 137c 7905001A 		bne	.L942
 4344 1380 0030A0E3 		mov	r3, #0
 4345 1384 54318DE5 		str	r3, [sp, #340]
 4346              	.L946:
 4347 1388 030056E3 		cmp	r6, #3
 4348 138c 8F06000A 		beq	.L939
 4349 1390 08319DE5 		ldr	r3, [sp, #264]
 4350 1394 030051E1 		cmp	r1, r3
 4351 1398 0500000A 		beq	.L948
 4352 139c 010053E3 		cmp	r3, #1
 4353 13a0 E505000A 		beq	.L947
 4354 13a4 010051E3 		cmp	r1, #1
 4355 13a8 6E05001A 		bne	.L942
 4356 13ac 0030A0E3 		mov	r3, #0
 4357 13b0 58318DE5 		str	r3, [sp, #344]
 4358              	.L948:
 4359 13b4 050056E3 		cmp	r6, #5
 4360 13b8 8406001A 		bne	.L939
 4361 13bc 0C319DE5 		ldr	r3, [sp, #268]
 4362 13c0 030052E1 		cmp	r2, r3
 4363 13c4 0700000A 		beq	.L985
 4364 13c8 010053E3 		cmp	r3, #1
 4365 13cc 0030A003 		moveq	r3, #0
 4366 13d0 34318D05 		streq	r3, [sp, #308]
 4367 13d4 0300000A 		beq	.L985
 4368 13d8 010052E3 		cmp	r2, #1
 4369 13dc 6105001A 		bne	.L942
 4370 13e0 0030A0E3 		mov	r3, #0
 4371 13e4 5C318DE5 		str	r3, [sp, #348]
 4372              	.L985:
 4373 13e8 C8209DE5 		ldr	r2, [sp, #200]
 4374 13ec 0030A0E3 		mov	r3, #0
 4375 13f0 E0308DE5 		str	r3, [sp, #224]
 4376 13f4 050052E3 		cmp	r2, #5
 4377 13f8 030600CA 		bgt	.L1792
 4378 13fc 050072E2 		rsbs	r0, r2, #5
 4379 1400 0530A0E3 		mov	r3, #5
 4380 1404 E0308DE5 		str	r3, [sp, #224]
 4381 1408 BC02000A 		beq	.L999
 4382 140c 010050E3 		cmp	r0, #1
 4383 1410 0130A0E3 		mov	r3, #1
 4384 1414 E4308DE5 		str	r3, [sp, #228]
 4385 1418 B802000A 		beq	.L999
 4386 141c 020050E3 		cmp	r0, #2
 4387 1420 E8308DE5 		str	r3, [sp, #232]
 4388 1424 B502000A 		beq	.L999
 4389 1428 030050E3 		cmp	r0, #3
 4390 142c EC308DE5 		str	r3, [sp, #236]
 4391 1430 B202000A 		beq	.L999
 4392 1434 040050E3 		cmp	r0, #4
 4393 1438 F0308DE5 		str	r3, [sp, #240]
 4394 143c AF02000A 		beq	.L999
 4395 1440 050050E3 		cmp	r0, #5
 4396 1444 F4308DE5 		str	r3, [sp, #244]
 4397 1448 AC02000A 		beq	.L999
 4398              	.LEHB56:
 4399 144c FEFFFFEB 		bl	abort
 4400              	.LEHE56:
 4401              	.L1425:
 4402 1450 0310A0E1 		mov	r1, r3
 4403 1454 10FCFFEA 		b	.L1256
 4404              	.L1415:
 4405 1458 0310A0E1 		mov	r1, r3
 4406 145c BAFBFFEA 		b	.L1243
 4407              	.L1405:
 4408 1460 0310A0E1 		mov	r1, r3
 4409 1464 64FBFFEA 		b	.L1230
 4410              	.L1225:
 4411 1468 00005CE3 		cmp	ip, #0
 4412 146c 0120A0D3 		movle	r2, #1
 4413 1470 8CFBFFDA 		ble	.L1227
 4414 1474 450F8DE2 		add	r0, sp, #276
 4415 1478 3AFBFFEA 		b	.L1226
 4416              	.L1251:
 4417 147c 00005CE3 		cmp	ip, #0
 4418 1480 01A0A0D3 		movle	r10, #1
 4419 1484 2FFCFFDA 		ble	.L1253
 4420 1488 595F8DE2 		add	r5, sp, #356
 4421 148c DDFBFFEA 		b	.L1252
 4422              	.L1238:
 4423 1490 000055E3 		cmp	r5, #0
 4424 1494 0100A0D3 		movle	r0, #1
 4425 1498 D6FBFFDA 		ble	.L1240
 4426 149c 4FCF8DE2 		add	ip, sp, #316
 4427 14a0 84FBFFEA 		b	.L1239
 4428              	.L1778:
 4429 14a4 101090E5 		ldr	r1, [r0, #16]
 4430 14a8 000050E3 		cmp	r0, #0
 4431 14ac 0CE090E5 		ldr	lr, [r0, #12]
 4432 14b0 0170A0E3 		mov	r7, #1
 4433 14b4 0C0090E9 		ldmib	r0, {r2, r3}
 4434 14b8 70118DE5 		str	r1, [sp, #368]
 4435 14bc 80118DE5 		str	r1, [sp, #384]
 4436 14c0 9E010CE0 		mul	ip, lr, r1
 4437 14c4 001090E5 		ldr	r1, [r0]
 4438 14c8 68318DE5 		str	r3, [sp, #360]
 4439 14cc 64218DE5 		str	r2, [sp, #356]
 4440 14d0 6CE18DE5 		str	lr, [sp, #364]
 4441 14d4 930C03E0 		mul	r3, r3, ip
 4442 14d8 7CC18DE5 		str	ip, [sp, #380]
 4443 14dc 60118DE5 		str	r1, [sp, #352]
 4444 14e0 84718DE5 		str	r7, [sp, #388]
 4445 14e4 920302E0 		mul	r2, r2, r3
 4446 14e8 78318DE5 		str	r3, [sp, #376]
 4447 14ec 0130A001 		moveq	r3, r1
 4448 14f0 74218DE5 		str	r2, [sp, #372]
 4449 14f4 B2FDFF0A 		beq	.L1183
 4450 14f8 FEFFFFEB 		bl	_ZdaPv
 4451 14fc 60319DE5 		ldr	r3, [sp, #352]
 4452 1500 AFFDFFEA 		b	.L1183
 4453              	.L1775:
 4454 1504 10C090E5 		ldr	ip, [r0, #16]
 4455 1508 050057E3 		cmp	r7, #5
 4456 150c 0C1090E5 		ldr	r1, [r0, #12]
 4457 1510 01E0A0E3 		mov	lr, #1
 4458 1514 082090E5 		ldr	r2, [r0, #8]
 4459 1518 58C18DE5 		str	ip, [sp, #344]
 4460 151c 5CE18DE5 		str	lr, [sp, #348]
 4461 1520 910C01E0 		mul	r1, r1, ip
 4462 1524 04C090E5 		ldr	ip, [r0, #4]
 4463 1528 920102E0 		mul	r2, r2, r1
 4464 152c 54118DE5 		str	r1, [sp, #340]
 4465 1530 9C0201E0 		mul	r1, ip, r2
 4466 1534 50218DE5 		str	r2, [sp, #336]
 4467 1538 4C118DE5 		str	r1, [sp, #332]
 4468 153c 3B0200CA 		bgt	.L1793
 4469 1540 000057E3 		cmp	r7, #0
 4470 1544 FF0500DA 		ble	.L1126
 4471 1548 002090E5 		ldr	r2, [r0]
 4472 154c 020053E1 		cmp	r3, r2
 4473 1550 0700000A 		beq	.L1149
 4474 1554 010053E3 		cmp	r3, #1
 4475 1558 0030A003 		moveq	r3, #0
 4476 155c 24318D05 		streq	r3, [sp, #292]
 4477 1560 0300000A 		beq	.L1149
 4478 1564 010052E3 		cmp	r2, #1
 4479 1568 6002001A 		bne	.L1129
 4480 156c 0030A0E3 		mov	r3, #0
 4481 1570 4C318DE5 		str	r3, [sp, #332]
 4482              	.L1149:
 4483 1574 010057E3 		cmp	r7, #1
 4484 1578 F205000A 		beq	.L1126
 4485 157c 00319DE5 		ldr	r3, [sp, #256]
 4486 1580 042090E5 		ldr	r2, [r0, #4]
 4487 1584 030052E1 		cmp	r2, r3
 4488 1588 0700000A 		beq	.L1152
 4489 158c 010053E3 		cmp	r3, #1
 4490 1590 0030A003 		moveq	r3, #0
 4491 1594 28318D05 		streq	r3, [sp, #296]
 4492 1598 0300000A 		beq	.L1152
 4493 159c 010052E3 		cmp	r2, #1
 4494 15a0 5202001A 		bne	.L1129
 4495 15a4 0030A0E3 		mov	r3, #0
 4496 15a8 50318DE5 		str	r3, [sp, #336]
 4497              	.L1152:
 4498 15ac 020057E3 		cmp	r7, #2
 4499 15b0 E405000A 		beq	.L1126
 4500 15b4 04319DE5 		ldr	r3, [sp, #260]
 4501 15b8 082090E5 		ldr	r2, [r0, #8]
 4502 15bc 030052E1 		cmp	r2, r3
 4503 15c0 0700000A 		beq	.L1154
 4504 15c4 010053E3 		cmp	r3, #1
 4505 15c8 0030A003 		moveq	r3, #0
 4506 15cc 2C318D05 		streq	r3, [sp, #300]
 4507 15d0 0300000A 		beq	.L1154
 4508 15d4 010052E3 		cmp	r2, #1
 4509 15d8 4402001A 		bne	.L1129
 4510 15dc 0030A0E3 		mov	r3, #0
 4511 15e0 54318DE5 		str	r3, [sp, #340]
 4512              	.L1154:
 4513 15e4 030057E3 		cmp	r7, #3
 4514 15e8 D605000A 		beq	.L1126
 4515 15ec 08319DE5 		ldr	r3, [sp, #264]
 4516 15f0 0C2090E5 		ldr	r2, [r0, #12]
 4517 15f4 030052E1 		cmp	r2, r3
 4518 15f8 0700000A 		beq	.L1156
 4519 15fc 010053E3 		cmp	r3, #1
 4520 1600 0030A003 		moveq	r3, #0
 4521 1604 30318D05 		streq	r3, [sp, #304]
 4522 1608 0300000A 		beq	.L1156
 4523 160c 010052E3 		cmp	r2, #1
 4524 1610 3602001A 		bne	.L1129
 4525 1614 0030A0E3 		mov	r3, #0
 4526 1618 58318DE5 		str	r3, [sp, #344]
 4527              	.L1156:
 4528 161c 050057E3 		cmp	r7, #5
 4529 1620 C805001A 		bne	.L1126
 4530 1624 0C319DE5 		ldr	r3, [sp, #268]
 4531 1628 102090E5 		ldr	r2, [r0, #16]
 4532 162c 030052E1 		cmp	r2, r3
 4533 1630 0500000A 		beq	.L1159
 4534 1634 010053E3 		cmp	r3, #1
 4535 1638 0D05000A 		beq	.L1691
 4536 163c 010052E3 		cmp	r2, #1
 4537 1640 2A02001A 		bne	.L1129
 4538              	.L1171:
 4539 1644 0030A0E3 		mov	r3, #0
 4540 1648 5C318DE5 		str	r3, [sp, #348]
 4541              	.L1159:
 4542 164c 000050E3 		cmp	r0, #0
 4543 1650 0000000A 		beq	.L1315
 4544 1654 FEFFFFEB 		bl	_ZdaPv
 4545              	.L1315:
 4546 1658 050057E3 		cmp	r7, #5
 4547 165c 22FDFFDA 		ble	.L1172
 4548 1660 FC009DE5 		ldr	r0, [sp, #252]
 4549 1664 000050E3 		cmp	r0, #0
 4550 1668 1FFDFF0A 		beq	.L1172
 4551 166c FEFFFFEB 		bl	_ZdaPv
 4552 1670 1DFDFFEA 		b	.L1172
 4553              	.L916:
 4554 1674 110E8DE2 		add	r0, sp, #272
 4555              	.LEHB57:
 4556 1678 FEFFFFEB 		bl	_ZN6tflite5micro14GetTensorShapeEPK16TfLiteEvalTensor
 4557              	.LEHE57:
 4558 167c 18329DE5 		ldr	r3, [sp, #536]
 4559 1680 000053E3 		cmp	r3, #0
 4560 1684 5E05000A 		beq	.L1794
 4561 1688 4E0F8DE2 		add	r0, sp, #312
 4562 168c 1C129DE5 		ldr	r1, [sp, #540]
 4563 1690 004093E5 		ldr	r4, [r3]
 4564              	.LEHB58:
 4565 1694 FEFFFFEB 		bl	_ZN6tflite5micro14GetTensorShapeEPK16TfLiteEvalTensor
 4566              	.LEHE58:
 4567 1698 1C329DE5 		ldr	r3, [sp, #540]
 4568 169c 000053E3 		cmp	r3, #0
 4569 16a0 0606000A 		beq	.L1795
 4570 16a4 160E8DE2 		add	r0, sp, #352
 4571 16a8 0710A0E1 		mov	r1, r7
 4572 16ac 006093E5 		ldr	r6, [r3]
 4573              	.LEHB59:
 4574 16b0 FEFFFFEB 		bl	_ZN6tflite5micro14GetTensorShapeEPK16TfLiteEvalTensor
 4575              	.LEHE59:
 4576 16b4 B4219DE5 		ldr	r2, [sp, #436]
 4577 16b8 B8319DE5 		ldr	r3, [sp, #440]
 4578 16bc 00E097E5 		ldr	lr, [r7]
 4579 16c0 030052E1 		cmp	r2, r3
 4580 16c4 F90500CA 		bgt	.L1796
 4581 16c8 10C19DE5 		ldr	ip, [sp, #272]
 4582 16cc 05005CE3 		cmp	ip, #5
 4583 16d0 C70100CA 		bgt	.L1797
 4584 16d4 00005CE3 		cmp	ip, #0
 4585 16d8 0120A0D3 		movle	r2, #1
 4586 16dc 500000DA 		ble	.L1042
 4587 16e0 450F8DE2 		add	r0, sp, #276
 4588              	.L1041:
 4589 16e4 5031A0E7 		sbfx	r3, r0, #2, #1
 4590 16e8 033003E2 		and	r3, r3, #3
 4591 16ec 0C0053E1 		cmp	r3, ip
 4592 16f0 0C30A021 		movcs	r3, ip
 4593 16f4 08005CE3 		cmp	ip, #8
 4594 16f8 0C30A0D1 		movle	r3, ip
 4595 16fc 5A0400CA 		bgt	.L1798
 4596              	.L1043:
 4597 1700 010053E3 		cmp	r3, #1
 4598 1704 002090E5 		ldr	r2, [r0]
 4599 1708 7103000A 		beq	.L1363
 4600 170c 041090E5 		ldr	r1, [r0, #4]
 4601 1710 020053E3 		cmp	r3, #2
 4602 1714 910202E0 		mul	r2, r1, r2
 4603 1718 6D03000A 		beq	.L1363
 4604 171c 081090E5 		ldr	r1, [r0, #8]
 4605 1720 030053E3 		cmp	r3, #3
 4606 1724 910202E0 		mul	r2, r1, r2
 4607 1728 6903000A 		beq	.L1363
 4608 172c 0C1090E5 		ldr	r1, [r0, #12]
 4609 1730 040053E3 		cmp	r3, #4
 4610 1734 910202E0 		mul	r2, r1, r2
 4611 1738 6503000A 		beq	.L1363
 4612 173c 101090E5 		ldr	r1, [r0, #16]
 4613 1740 050053E3 		cmp	r3, #5
 4614 1744 910202E0 		mul	r2, r1, r2
 4615 1748 6103000A 		beq	.L1363
 4616 174c 141090E5 		ldr	r1, [r0, #20]
 4617 1750 060053E3 		cmp	r3, #6
 4618 1754 910202E0 		mul	r2, r1, r2
 4619 1758 5D03000A 		beq	.L1363
 4620 175c 181090E5 		ldr	r1, [r0, #24]
 4621 1760 070053E3 		cmp	r3, #7
 4622 1764 910202E0 		mul	r2, r1, r2
 4623 1768 5903000A 		beq	.L1363
 4624 176c 1C5090E5 		ldr	r5, [r0, #28]
 4625 1770 0810A0E3 		mov	r1, #8
 4626 1774 950202E0 		mul	r2, r5, r2
 4627              	.L1045:
 4628 1778 03005CE1 		cmp	ip, r3
 4629 177c 2800000A 		beq	.L1042
 4630              	.L1044:
 4631 1780 03804CE0 		sub	r8, ip, r3
 4632 1784 01704CE2 		sub	r7, ip, #1
 4633 1788 045048E2 		sub	r5, r8, #4
 4634 178c 037047E0 		sub	r7, r7, r3
 4635 1790 2551A0E1 		lsr	r5, r5, #2
 4636 1794 020057E3 		cmp	r7, #2
 4637 1798 015085E2 		add	r5, r5, #1
 4638 179c 0591A0E1 		lsl	r9, r5, #2
 4639 17a0 1200009A 		bls	.L1047
 4640 17a4 033180E0 		add	r3, r0, r3, lsl #2
 4641 17a8 5140C0F2 		vmov.i32	q10, #1  @ v4si
 4642 17ac 0070A0E3 		mov	r7, #0
 4643              	.L1049:
 4644 17b0 017087E2 		add	r7, r7, #1
 4645 17b4 DF0A63F4 		vld1.64	{d16-d17}, [r3:64]
 4646 17b8 070055E1 		cmp	r5, r7
 4647 17bc 103083E2 		add	r3, r3, #16
 4648 17c0 F04964F2 		vmul.i32	q10, q10, q8
 4649 17c4 F9FFFF8A 		bhi	.L1049
 4650 17c8 080059E1 		cmp	r9, r8
 4651 17cc 091081E0 		add	r1, r1, r9
 4652 17d0 5000C0F2 		vmov.i32	q8, #0  @ v4si
 4653 17d4 E028F4F2 		vext.32	q9, q10, q8, #2
 4654 17d8 F42962F2 		vmul.i32	q9, q9, q10
 4655 17dc E004F2F2 		vext.32	q8, q9, q8, #1
 4656 17e0 F20960F2 		vmul.i32	q8, q8, q9
 4657 17e4 903B10EE 		vmov.32	r3, d16[0]
 4658 17e8 930202E0 		mul	r2, r3, r2
 4659 17ec 0C00000A 		beq	.L1042
 4660              	.L1047:
 4661 17f0 015190E7 		ldr	r5, [r0, r1, lsl #2]
 4662 17f4 013081E2 		add	r3, r1, #1
 4663 17f8 03005CE1 		cmp	ip, r3
 4664 17fc 0131A0E1 		lsl	r3, r1, #2
 4665 1800 950202E0 		mul	r2, r5, r2
 4666 1804 060000DA 		ble	.L1042
 4667 1808 030080E0 		add	r0, r0, r3
 4668 180c 021081E2 		add	r1, r1, #2
 4669 1810 043090E5 		ldr	r3, [r0, #4]
 4670 1814 01005CE1 		cmp	ip, r1
 4671 1818 930202E0 		mul	r2, r3, r2
 4672 181c 083090C5 		ldrgt	r3, [r0, #8]
 4673 1820 930202C0 		mulgt	r2, r3, r2
 4674              	.L1042:
 4675 1824 38519DE5 		ldr	r5, [sp, #312]
 4676 1828 050055E3 		cmp	r5, #5
 4677 182c 7D0300DA 		ble	.L1053
 4678 1830 3C019DE5 		ldr	r0, [sp, #316]
 4679              	.L1054:
 4680 1834 5031A0E7 		sbfx	r3, r0, #2, #1
 4681 1838 033003E2 		and	r3, r3, #3
 4682 183c 050053E1 		cmp	r3, r5
 4683 1840 0530A021 		movcs	r3, r5
 4684 1844 080055E3 		cmp	r5, #8
 4685 1848 0530A0D1 		movle	r3, r5
 4686 184c 100400CA 		bgt	.L1799
 4687              	.L1056:
 4688 1850 010053E3 		cmp	r3, #1
 4689 1854 001090E5 		ldr	r1, [r0]
 4690 1858 1B03000A 		beq	.L1373
 4691 185c 04C090E5 		ldr	ip, [r0, #4]
 4692 1860 020053E3 		cmp	r3, #2
 4693 1864 9C0101E0 		mul	r1, ip, r1
 4694 1868 1703000A 		beq	.L1373
 4695 186c 08C090E5 		ldr	ip, [r0, #8]
 4696 1870 030053E3 		cmp	r3, #3
 4697 1874 9C0101E0 		mul	r1, ip, r1
 4698 1878 1303000A 		beq	.L1373
 4699 187c 0CC090E5 		ldr	ip, [r0, #12]
 4700 1880 040053E3 		cmp	r3, #4
 4701 1884 9C0101E0 		mul	r1, ip, r1
 4702 1888 0F03000A 		beq	.L1373
 4703 188c 10C090E5 		ldr	ip, [r0, #16]
 4704 1890 050053E3 		cmp	r3, #5
 4705 1894 9C0101E0 		mul	r1, ip, r1
 4706 1898 0B03000A 		beq	.L1373
 4707 189c 14C090E5 		ldr	ip, [r0, #20]
 4708 18a0 060053E3 		cmp	r3, #6
 4709 18a4 9C0101E0 		mul	r1, ip, r1
 4710 18a8 0703000A 		beq	.L1373
 4711 18ac 18C090E5 		ldr	ip, [r0, #24]
 4712 18b0 070053E3 		cmp	r3, #7
 4713 18b4 9C0101E0 		mul	r1, ip, r1
 4714 18b8 0303000A 		beq	.L1373
 4715 18bc 1C7090E5 		ldr	r7, [r0, #28]
 4716 18c0 08C0A0E3 		mov	ip, #8
 4717 18c4 970101E0 		mul	r1, r7, r1
 4718              	.L1058:
 4719 18c8 030055E1 		cmp	r5, r3
 4720 18cc 2800000A 		beq	.L1055
 4721              	.L1057:
 4722 18d0 038045E0 		sub	r8, r5, r3
 4723 18d4 019045E2 		sub	r9, r5, #1
 4724 18d8 047048E2 		sub	r7, r8, #4
 4725 18dc 039049E0 		sub	r9, r9, r3
 4726 18e0 2771A0E1 		lsr	r7, r7, #2
 4727 18e4 020059E3 		cmp	r9, #2
 4728 18e8 017087E2 		add	r7, r7, #1
 4729 18ec 07A1A0E1 		lsl	r10, r7, #2
 4730 18f0 1200009A 		bls	.L1060
 4731 18f4 033180E0 		add	r3, r0, r3, lsl #2
 4732 18f8 5140C0F2 		vmov.i32	q10, #1  @ v4si
 4733 18fc 0090A0E3 		mov	r9, #0
 4734              	.L1062:
 4735 1900 019089E2 		add	r9, r9, #1
 4736 1904 DF0A63F4 		vld1.64	{d16-d17}, [r3:64]
 4737 1908 090057E1 		cmp	r7, r9
 4738 190c 103083E2 		add	r3, r3, #16
 4739 1910 F04964F2 		vmul.i32	q10, q10, q8
 4740 1914 F9FFFF8A 		bhi	.L1062
 4741 1918 08005AE1 		cmp	r10, r8
 4742 191c 0AC08CE0 		add	ip, ip, r10
 4743 1920 5000C0F2 		vmov.i32	q8, #0  @ v4si
 4744 1924 E028F4F2 		vext.32	q9, q10, q8, #2
 4745 1928 F42962F2 		vmul.i32	q9, q9, q10
 4746 192c E004F2F2 		vext.32	q8, q9, q8, #1
 4747 1930 F20960F2 		vmul.i32	q8, q8, q9
 4748 1934 903B10EE 		vmov.32	r3, d16[0]
 4749 1938 930101E0 		mul	r1, r3, r1
 4750 193c 0C00000A 		beq	.L1055
 4751              	.L1060:
 4752 1940 0C7190E7 		ldr	r7, [r0, ip, lsl #2]
 4753 1944 01308CE2 		add	r3, ip, #1
 4754 1948 030055E1 		cmp	r5, r3
 4755 194c 0C31A0E1 		lsl	r3, ip, #2
 4756 1950 970101E0 		mul	r1, r7, r1
 4757 1954 060000DA 		ble	.L1055
 4758 1958 030080E0 		add	r0, r0, r3
 4759 195c 02308CE2 		add	r3, ip, #2
 4760 1960 04C090E5 		ldr	ip, [r0, #4]
 4761 1964 030055E1 		cmp	r5, r3
 4762 1968 9C0101E0 		mul	r1, ip, r1
 4763 196c 083090C5 		ldrgt	r3, [r0, #8]
 4764 1970 930101C0 		mulgt	r1, r3, r1
 4765              	.L1055:
 4766 1974 60C19DE5 		ldr	ip, [sp, #352]
 4767 1978 05005CE3 		cmp	ip, #5
 4768 197c 240300DA 		ble	.L1066
 4769 1980 64019DE5 		ldr	r0, [sp, #356]
 4770              	.L1067:
 4771 1984 5031A0E7 		sbfx	r3, r0, #2, #1
 4772 1988 033003E2 		and	r3, r3, #3
 4773 198c 0C0053E1 		cmp	r3, ip
 4774 1990 0C30A021 		movcs	r3, ip
 4775 1994 08005CE3 		cmp	ip, #8
 4776 1998 0C30A0D1 		movle	r3, ip
 4777 199c B70300CA 		bgt	.L1800
 4778              	.L1069:
 4779 19a0 010053E3 		cmp	r3, #1
 4780 19a4 007090E5 		ldr	r7, [r0]
 4781 19a8 C502000A 		beq	.L1383
 4782 19ac 045090E5 		ldr	r5, [r0, #4]
 4783 19b0 020053E3 		cmp	r3, #2
 4784 19b4 950707E0 		mul	r7, r5, r7
 4785 19b8 C102000A 		beq	.L1383
 4786 19bc 085090E5 		ldr	r5, [r0, #8]
 4787 19c0 030053E3 		cmp	r3, #3
 4788 19c4 950707E0 		mul	r7, r5, r7
 4789 19c8 BD02000A 		beq	.L1383
 4790 19cc 0C5090E5 		ldr	r5, [r0, #12]
 4791 19d0 040053E3 		cmp	r3, #4
 4792 19d4 950707E0 		mul	r7, r5, r7
 4793 19d8 B902000A 		beq	.L1383
 4794 19dc 105090E5 		ldr	r5, [r0, #16]
 4795 19e0 050053E3 		cmp	r3, #5
 4796 19e4 950707E0 		mul	r7, r5, r7
 4797 19e8 B502000A 		beq	.L1383
 4798 19ec 145090E5 		ldr	r5, [r0, #20]
 4799 19f0 060053E3 		cmp	r3, #6
 4800 19f4 950707E0 		mul	r7, r5, r7
 4801 19f8 B102000A 		beq	.L1383
 4802 19fc 185090E5 		ldr	r5, [r0, #24]
 4803 1a00 070053E3 		cmp	r3, #7
 4804 1a04 950707E0 		mul	r7, r5, r7
 4805 1a08 AD02000A 		beq	.L1383
 4806 1a0c 1C8090E5 		ldr	r8, [r0, #28]
 4807 1a10 0850A0E3 		mov	r5, #8
 4808 1a14 980707E0 		mul	r7, r8, r7
 4809              	.L1071:
 4810 1a18 03005CE1 		cmp	ip, r3
 4811 1a1c 2800000A 		beq	.L1068
 4812              	.L1070:
 4813 1a20 03904CE0 		sub	r9, ip, r3
 4814 1a24 01A04CE2 		sub	r10, ip, #1
 4815 1a28 048049E2 		sub	r8, r9, #4
 4816 1a2c 03A04AE0 		sub	r10, r10, r3
 4817 1a30 2881A0E1 		lsr	r8, r8, #2
 4818 1a34 02005AE3 		cmp	r10, #2
 4819 1a38 018088E2 		add	r8, r8, #1
 4820 1a3c 08A1A0E1 		lsl	r10, r8, #2
 4821 1a40 1200009A 		bls	.L1073
 4822 1a44 033180E0 		add	r3, r0, r3, lsl #2
 4823 1a48 5140C0F2 		vmov.i32	q10, #1  @ v4si
 4824 1a4c 00B0A0E3 		mov	fp, #0
 4825              	.L1075:
 4826 1a50 01B08BE2 		add	fp, fp, #1
 4827 1a54 DF0A63F4 		vld1.64	{d16-d17}, [r3:64]
 4828 1a58 0B0058E1 		cmp	r8, fp
 4829 1a5c 103083E2 		add	r3, r3, #16
 4830 1a60 F04964F2 		vmul.i32	q10, q10, q8
 4831 1a64 F9FFFF8A 		bhi	.L1075
 4832 1a68 09005AE1 		cmp	r10, r9
 4833 1a6c 0A5085E0 		add	r5, r5, r10
 4834 1a70 5000C0F2 		vmov.i32	q8, #0  @ v4si
 4835 1a74 E028F4F2 		vext.32	q9, q10, q8, #2
 4836 1a78 F42962F2 		vmul.i32	q9, q9, q10
 4837 1a7c E004F2F2 		vext.32	q8, q9, q8, #1
 4838 1a80 F20960F2 		vmul.i32	q8, q8, q9
 4839 1a84 903B10EE 		vmov.32	r3, d16[0]
 4840 1a88 930707E0 		mul	r7, r3, r7
 4841 1a8c 0C00000A 		beq	.L1068
 4842              	.L1073:
 4843 1a90 058190E7 		ldr	r8, [r0, r5, lsl #2]
 4844 1a94 013085E2 		add	r3, r5, #1
 4845 1a98 03005CE1 		cmp	ip, r3
 4846 1a9c 0531A0E1 		lsl	r3, r5, #2
 4847 1aa0 980707E0 		mul	r7, r8, r7
 4848 1aa4 060000DA 		ble	.L1068
 4849 1aa8 030080E0 		add	r0, r0, r3
 4850 1aac 023085E2 		add	r3, r5, #2
 4851 1ab0 045090E5 		ldr	r5, [r0, #4]
 4852 1ab4 03005CE1 		cmp	ip, r3
 4853 1ab8 950707E0 		mul	r7, r5, r7
 4854 1abc 083090C5 		ldrgt	r3, [r0, #8]
 4855 1ac0 930707C0 		mulgt	r7, r3, r7
 4856              	.L1068:
 4857 1ac4 010052E1 		cmp	r2, r1
 4858 1ac8 CF04001A 		bne	.L1801
 4859 1acc 020057E1 		cmp	r7, r2
 4860 1ad0 CC04001A 		bne	.L1802
 4861 1ad4 8C219DE5 		ldr	r2, [sp, #396]
 4862 1ad8 7F0072E3 		cmn	r2, #127
 4863 1adc 770400BA 		blt	.L1803
 4864 1ae0 90019DE5 		ldr	r0, [sp, #400]
 4865 1ae4 7F0070E3 		cmn	r0, #127
 4866 1ae8 730400BA 		blt	.L1804
 4867 1aec 7F0052E3 		cmp	r2, #127
 4868 1af0 730400CA 		bgt	.L1805
 4869 1af4 7F0050E3 		cmp	r0, #127
 4870 1af8 540400CA 		bgt	.L1084
 4871 1afc 000057E3 		cmp	r7, #0
 4872 1b00 36FBFFDA 		ble	.L1270
 4873 1b04 04C0A0E1 		mov	ip, r4
 4874 1b08 016046E2 		sub	r6, r6, #1
 4875 1b0c 077084E0 		add	r7, r4, r7
 4876 1b10 01E04EE2 		sub	lr, lr, #1
 4877 1b14 F70BDFED 		vldr.64	d16, .L1823	@ int
 4878 1b18 010000EA 		b	.L1086
 4879              	.L1812:
 4880 1b1c 8C219DE5 		ldr	r2, [sp, #396]
 4881 1b20 90019DE5 		ldr	r0, [sp, #400]
 4882              	.L1086:
 4883 1b24 A0819DE5 		ldr	r8, [sp, #416]
 4884 1b28 D150DCE0 		ldrsb	r5, [ip], #1
 4885 1b2c A4919DE5 		ldr	r9, [sp, #420]
 4886 1b30 D110F6E1 		ldrsb	r1, [r6, #1]!
 4887 1b34 025085E0 		add	r5, r5, r2
 4888 1b38 A8419DE5 		ldr	r4, [sp, #424]
 4889 1b3c 1558A0E1 		lsl	r5, r5, r8
 4890 1b40 001081E0 		add	r1, r1, r0
 4891 1b44 9529C3E0 		smull	r2, r3, r5, r9
 4892 1b48 090055E1 		cmp	r5, r9
 4893 1b4c 02015503 		cmpeq	r5, #-2147483648
 4894 1b50 0150A003 		moveq	r5, #1
 4895 1b54 0050A013 		movne	r5, #0
 4896 1b58 1118A0E1 		lsl	r1, r1, r8
 4897 1b5c 000052E3 		cmp	r2, #0
 4898 1b60 0000D3E2 		sbcs	r0, r3, #0
 4899 1b64 0181A0A3 		movge	r8, #1073741824
 4900 1b68 0090A0A3 		movge	r9, #0
 4901 1b6c 0781A0B3 		movlt	r8, #-1073741823
 4902 1b70 0090E0B3 		mvnlt	r9, #0
 4903 1b74 000055E3 		cmp	r5, #0
 4904 1b78 0221E013 		mvnne	r2, #-2147483648
 4905 1b7c 0800001A 		bne	.L1088
 4906 1b80 028098E0 		adds	r8, r8, r2
 4907 1b84 0390A9E0 		adc	r9, r9, r3
 4908 1b88 0030A0E3 		mov	r3, #0
 4909 1b8c C92FA0E1 		asr	r2, r9, #31
 4910 1b90 0221C2E3 		bic	r2, r2, #-2147483648
 4911 1b94 082092E0 		adds	r2, r2, r8
 4912 1b98 A22FA0E1 		lsr	r2, r2, #31
 4913 1b9c 0930A3E0 		adc	r3, r3, r9
 4914 1ba0 832082E1 		orr	r2, r2, r3, lsl #1
 4915              	.L1088:
 4916 1ba4 000054E3 		cmp	r4, #0
 4917 1ba8 003064E2 		rsb	r3, r4, #0
 4918 1bac 300400CA 		bgt	.L1806
 4919 1bb0 1F0074E3 		cmn	r4, #31
 4920 1bb4 260400BA 		blt	.L1807
 4921 1bb8 903B02EE 		vmov.32	d18[0], r3
 4922 1bbc AC819DE5 		ldr	r8, [sp, #428]
 4923 1bc0 A01472F3 		vshl.u64	d17, d16, d18
 4924 1bc4 080051E1 		cmp	r1, r8
 4925 1bc8 02015103 		cmpeq	r1, #-2147483648
 4926 1bcc 314B55EC 		vmov	r4, r5, d17	@ int
 4927 1bd0 5253A0E1 		asr	r5, r2, r3
 4928 1bd4 014044E2 		sub	r4, r4, #1
 4929 1bd8 C400A0E1 		asr	r0, r4, #1
 4930 1bdc 024004E0 		and	r4, r4, r2
 4931 1be0 A20F80E0 		add	r0, r0, r2, lsr #31
 4932 1be4 9128C3E0 		smull	r2, r3, r1, r8
 4933 1be8 0180A003 		moveq	r8, #1
 4934 1bec 0080A013 		movne	r8, #0
 4935 1bf0 000054E1 		cmp	r4, r0
 4936 1bf4 015085C2 		addgt	r5, r5, #1
 4937 1bf8 B0419DE5 		ldr	r4, [sp, #432]
 4938 1bfc 000052E3 		cmp	r2, #0
 4939 1c00 0010D3E2 		sbcs	r1, r3, #0
 4940 1c04 0101A0A3 		movge	r0, #1073741824
 4941 1c08 0010A0A3 		movge	r1, #0
 4942 1c0c 0701A0B3 		movlt	r0, #-1073741823
 4943 1c10 0010E0B3 		mvnlt	r1, #0
 4944 1c14 000058E3 		cmp	r8, #0
 4945 1c18 0221E013 		mvnne	r2, #-2147483648
 4946 1c1c 0800001A 		bne	.L1092
 4947 1c20 020090E0 		adds	r0, r0, r2
 4948 1c24 0310A1E0 		adc	r1, r1, r3
 4949 1c28 0030A0E3 		mov	r3, #0
 4950 1c2c C12FA0E1 		asr	r2, r1, #31
 4951 1c30 0221C2E3 		bic	r2, r2, #-2147483648
 4952 1c34 002092E0 		adds	r2, r2, r0
 4953 1c38 A22FA0E1 		lsr	r2, r2, #31
 4954 1c3c 0130A3E0 		adc	r3, r3, r1
 4955 1c40 832082E1 		orr	r2, r2, r3, lsl #1
 4956              	.L1092:
 4957 1c44 000054E3 		cmp	r4, #0
 4958 1c48 003064E2 		rsb	r3, r4, #0
 4959 1c4c 100400CA 		bgt	.L1808
 4960 1c50 1F0074E3 		cmn	r4, #31
 4961 1c54 F50300BA 		blt	.L1809
 4962 1c58 903B02EE 		vmov.32	d18[0], r3
 4963 1c5c 5233A0E1 		asr	r3, r2, r3
 4964 1c60 98819DE5 		ldr	r8, [sp, #408]
 4965 1c64 A01472F3 		vshl.u64	d17, d16, d18
 4966 1c68 9C419DE5 		ldr	r4, [sp, #412]
 4967 1c6c 310B51EC 		vmov	r0, r1, d17	@ int
 4968 1c70 010040E2 		sub	r0, r0, #1
 4969 1c74 C010A0E1 		asr	r1, r0, #1
 4970 1c78 020000E0 		and	r0, r0, r2
 4971 1c7c A22F81E0 		add	r2, r1, r2, lsr #31
 4972 1c80 020050E1 		cmp	r0, r2
 4973 1c84 013083C2 		addgt	r3, r3, #1
 4974 1c88 035045E0 		sub	r5, r5, r3
 4975 1c8c 9508C1E0 		smull	r0, r1, r5, r8
 4976 1c90 080055E1 		cmp	r5, r8
 4977 1c94 02015503 		cmpeq	r5, #-2147483648
 4978 1c98 0150A003 		moveq	r5, #1
 4979 1c9c 0050A013 		movne	r5, #0
 4980 1ca0 000050E3 		cmp	r0, #0
 4981 1ca4 0030D1E2 		sbcs	r3, r1, #0
 4982 1ca8 0121A0A3 		movge	r2, #1073741824
 4983 1cac 0721A0B3 		movlt	r2, #-1073741823
 4984 1cb0 0030A0A3 		movge	r3, #0
 4985 1cb4 0030E0B3 		mvnlt	r3, #0
 4986 1cb8 000055E3 		cmp	r5, #0
 4987 1cbc 0221E013 		mvnne	r2, #-2147483648
 4988 1cc0 0800001A 		bne	.L1096
 4989 1cc4 020090E0 		adds	r0, r0, r2
 4990 1cc8 0310A1E0 		adc	r1, r1, r3
 4991 1ccc 0030A0E3 		mov	r3, #0
 4992 1cd0 C12FA0E1 		asr	r2, r1, #31
 4993 1cd4 0221C2E3 		bic	r2, r2, #-2147483648
 4994 1cd8 002092E0 		adds	r2, r2, r0
 4995 1cdc A22FA0E1 		lsr	r2, r2, #31
 4996 1ce0 0130A3E0 		adc	r3, r3, r1
 4997 1ce4 832082E1 		orr	r2, r2, r3, lsl #1
 4998              	.L1096:
 4999 1ce8 000054E3 		cmp	r4, #0
 5000 1cec 003064E2 		rsb	r3, r4, #0
 5001 1cf0 4E0400CA 		bgt	.L1810
 5002 1cf4 1F0074E3 		cmn	r4, #31
 5003 1cf8 440400BA 		blt	.L1811
 5004 1cfc 903B02EE 		vmov.32	d18[0], r3
 5005 1d00 5233A0E1 		asr	r3, r2, r3
 5006 1d04 94419DE5 		ldr	r4, [sp, #404]
 5007 1d08 A01472F3 		vshl.u64	d17, d16, d18
 5008 1d0c 310B51EC 		vmov	r0, r1, d17	@ int
 5009 1d10 010040E2 		sub	r0, r0, #1
 5010 1d14 C010A0E1 		asr	r1, r0, #1
 5011 1d18 020000E0 		and	r0, r0, r2
 5012 1d1c A22F81E0 		add	r2, r1, r2, lsr #31
 5013 1d20 B4119DE5 		ldr	r1, [sp, #436]
 5014 1d24 020050E1 		cmp	r0, r2
 5015 1d28 013083C2 		addgt	r3, r3, #1
 5016 1d2c B8219DE5 		ldr	r2, [sp, #440]
 5017 1d30 043083E0 		add	r3, r3, r4
 5018 1d34 010053E1 		cmp	r3, r1
 5019 1d38 0130A0B1 		movlt	r3, r1
 5020 1d3c 020053E1 		cmp	r3, r2
 5021 1d40 0230A0A1 		movge	r3, r2
 5022 1d44 0C0057E1 		cmp	r7, ip
 5023 1d48 0130EEE5 		strb	r3, [lr, #1]!
 5024 1d4c 72FFFF1A 		bne	.L1812
 5025 1d50 A1FAFFEA 		b	.L1284
 5026              	.L1774:
 5027 1d54 100093E5 		ldr	r0, [r3, #16]
 5028 1d58 01C0A0E3 		mov	ip, #1
 5029 1d5c 0C1093E5 		ldr	r1, [r3, #12]
 5030 1d60 082093E5 		ldr	r2, [r3, #8]
 5031 1d64 30018DE5 		str	r0, [sp, #304]
 5032 1d68 34C18DE5 		str	ip, [sp, #308]
 5033 1d6c 910001E0 		mul	r1, r1, r0
 5034 1d70 040093E5 		ldr	r0, [r3, #4]
 5035 1d74 0BFBFFEA 		b	.L1688
 5036              	.L1453:
 5037 1d78 F8709DE5 		ldr	r7, [sp, #248]
 5038              	.L1118:
 5039 1d7c 050057E3 		cmp	r7, #5
 5040 1d80 030000DA 		ble	.L1179
 5041              	.L1738:
 5042 1d84 FC009DE5 		ldr	r0, [sp, #252]
 5043 1d88 000050E3 		cmp	r0, #0
 5044 1d8c 0000000A 		beq	.L1179
 5045              	.L1689:
 5046 1d90 FEFFFFEB 		bl	_ZdaPv
 5047              	.L1179:
 5048 1d94 C8309DE5 		ldr	r3, [sp, #200]
 5049 1d98 050053E3 		cmp	r3, #5
 5050 1d9c 030000DA 		ble	.L1302
 5051 1da0 CC009DE5 		ldr	r0, [sp, #204]
 5052 1da4 000050E3 		cmp	r0, #0
 5053 1da8 0000000A 		beq	.L1302
 5054 1dac FEFFFFEB 		bl	_ZdaPv
 5055              	.L1302:
 5056 1db0 B0309DE5 		ldr	r3, [sp, #176]
 5057 1db4 050053E3 		cmp	r3, #5
 5058 1db8 030000DA 		ble	.L1304
 5059 1dbc B4009DE5 		ldr	r0, [sp, #180]
 5060 1dc0 000050E3 		cmp	r0, #0
 5061 1dc4 0000000A 		beq	.L1304
 5062 1dc8 FEFFFFEB 		bl	_ZdaPv
 5063              	.L1304:
 5064 1dcc 98309DE5 		ldr	r3, [sp, #152]
 5065 1dd0 050053E3 		cmp	r3, #5
 5066 1dd4 030000DA 		ble	.L1311
 5067 1dd8 9C009DE5 		ldr	r0, [sp, #156]
 5068 1ddc 000050E3 		cmp	r0, #0
 5069 1de0 0000000A 		beq	.L1311
 5070              	.L1697:
 5071 1de4 FEFFFFEB 		bl	_ZdaPv
 5072              	.L1311:
 5073              	.LEHB60:
 5074 1de8 FEFFFFEB 		bl	__cxa_end_cleanup
 5075              	.LEHE60:
 5076              	.L1447:
 5077 1dec E8FFFFEA 		b	.L1179
 5078              	.L1444:
 5079 1df0 E7FFFFEA 		b	.L1179
 5080              	.L1797:
 5081 1df4 14019DE5 		ldr	r0, [sp, #276]
 5082 1df8 39FEFFEA 		b	.L1041
 5083              	.L1451:
 5084              	.L1686:
 5085 1dfc F8609DE5 		ldr	r6, [sp, #248]
 5086              	.L930:
 5087 1e00 050056E3 		cmp	r6, #5
 5088 1e04 E2FFFFDA 		ble	.L1179
 5089 1e08 DDFFFFEA 		b	.L1738
 5090              	.L1789:
 5091 1e0c 100093E5 		ldr	r0, [r3, #16]
 5092 1e10 01C0A0E3 		mov	ip, #1
 5093 1e14 0C1093E5 		ldr	r1, [r3, #12]
 5094 1e18 082093E5 		ldr	r2, [r3, #8]
 5095 1e1c 30018DE5 		str	r0, [sp, #304]
 5096 1e20 34C18DE5 		str	ip, [sp, #308]
 5097 1e24 910001E0 		mul	r1, r1, r0
 5098 1e28 040093E5 		ldr	r0, [r3, #4]
 5099 1e2c 1CFDFFEA 		b	.L1685
 5100              	.L1793:
 5101 1e30 001093E5 		ldr	r1, [r3]
 5102 1e34 002090E5 		ldr	r2, [r0]
 5103 1e38 020051E1 		cmp	r1, r2
 5104 1e3c 0500000A 		beq	.L1160
 5105 1e40 010051E3 		cmp	r1, #1
 5106 1e44 5E03000A 		beq	.L1161
 5107 1e48 010052E3 		cmp	r2, #1
 5108 1e4c 2700001A 		bne	.L1129
 5109 1e50 0020A0E3 		mov	r2, #0
 5110 1e54 4C218DE5 		str	r2, [sp, #332]
 5111              	.L1160:
 5112 1e58 041093E5 		ldr	r1, [r3, #4]
 5113 1e5c 042090E5 		ldr	r2, [r0, #4]
 5114 1e60 020051E1 		cmp	r1, r2
 5115 1e64 0500000A 		beq	.L1162
 5116 1e68 010051E3 		cmp	r1, #1
 5117 1e6c 5703000A 		beq	.L1163
 5118 1e70 010052E3 		cmp	r2, #1
 5119 1e74 1D00001A 		bne	.L1129
 5120 1e78 0020A0E3 		mov	r2, #0
 5121 1e7c 50218DE5 		str	r2, [sp, #336]
 5122              	.L1162:
 5123 1e80 081093E5 		ldr	r1, [r3, #8]
 5124 1e84 082090E5 		ldr	r2, [r0, #8]
 5125 1e88 020051E1 		cmp	r1, r2
 5126 1e8c 0500000A 		beq	.L1164
 5127 1e90 010051E3 		cmp	r1, #1
 5128 1e94 5003000A 		beq	.L1165
 5129 1e98 010052E3 		cmp	r2, #1
 5130 1e9c 1300001A 		bne	.L1129
 5131 1ea0 0020A0E3 		mov	r2, #0
 5132 1ea4 54218DE5 		str	r2, [sp, #340]
 5133              	.L1164:
 5134 1ea8 0C1093E5 		ldr	r1, [r3, #12]
 5135 1eac 0C2090E5 		ldr	r2, [r0, #12]
 5136 1eb0 020051E1 		cmp	r1, r2
 5137 1eb4 0500000A 		beq	.L1166
 5138 1eb8 010051E3 		cmp	r1, #1
 5139 1ebc 3703000A 		beq	.L1167
 5140 1ec0 010052E3 		cmp	r2, #1
 5141 1ec4 0900001A 		bne	.L1129
 5142 1ec8 0020A0E3 		mov	r2, #0
 5143 1ecc 58218DE5 		str	r2, [sp, #344]
 5144              	.L1166:
 5145 1ed0 102093E5 		ldr	r2, [r3, #16]
 5146 1ed4 103090E5 		ldr	r3, [r0, #16]
 5147 1ed8 030052E1 		cmp	r2, r3
 5148 1edc DAFDFF0A 		beq	.L1159
 5149 1ee0 010052E3 		cmp	r2, #1
 5150 1ee4 E202000A 		beq	.L1691
 5151 1ee8 010053E3 		cmp	r3, #1
 5152 1eec D4FDFF0A 		beq	.L1171
 5153              	.L1129:
 5154              	.LEHB61:
 5155 1ef0 FEFFFFEB 		bl	abort
 5156              	.LEHE61:
 5157              	.L1824:
 5158 1ef4 00F020E3 		.align	3
 5159              	.L1823:
 5160 1ef8 01000000 		.word	1
 5161 1efc 00000000 		.word	0
 5162              	.L999:
 5163 1f00 E4308DE2 		add	r3, sp, #228
 5164 1f04 0221A0E1 		lsl	r2, r2, #2
 5165 1f08 000183E0 		add	r0, r3, r0, lsl #2
 5166 1f0c CC108DE2 		add	r1, sp, #204
 5167 1f10 FEFFFFEB 		bl	memcpy
 5168 1f14 E0609DE5 		ldr	r6, [sp, #224]
 5169 1f18 E4009DE5 		ldr	r0, [sp, #228]
 5170 1f1c 050056E3 		cmp	r6, #5
 5171 1f20 A30100CA 		bgt	.L1813
 5172 1f24 E803001A 		bne	.L998
 5173 1f28 E8208DE2 		add	r2, sp, #232
 5174 1f2c F4109DE5 		ldr	r1, [sp, #244]
 5175 1f30 0C1092E8 		ldm	r2, {r2, r3, ip}
 5176 1f34 01E0A0E3 		mov	lr, #1
 5177 1f38 60018DE5 		str	r0, [sp, #352]
 5178 1f3c 70118DE5 		str	r1, [sp, #368]
 5179 1f40 68318DE5 		str	r3, [sp, #360]
 5180 1f44 9C0100E0 		mul	r0, ip, r1
 5181 1f48 64218DE5 		str	r2, [sp, #356]
 5182 1f4c 80118DE5 		str	r1, [sp, #384]
 5183 1f50 6CC18DE5 		str	ip, [sp, #364]
 5184 1f54 84E18DE5 		str	lr, [sp, #388]
 5185 1f58 900303E0 		mul	r3, r0, r3
 5186 1f5c 7C018DE5 		str	r0, [sp, #380]
 5187 1f60 930202E0 		mul	r2, r3, r2
 5188 1f64 78318DE5 		str	r3, [sp, #376]
 5189 1f68 60319DE5 		ldr	r3, [sp, #352]
 5190 1f6c 74218DE5 		str	r2, [sp, #372]
 5191              	.L997:
 5192 1f70 000053E3 		cmp	r3, #0
 5193 1f74 7C308DE5 		str	r3, [sp, #124]
 5194 1f78 56FCFFDA 		ble	.L1191
 5195 1f7c 5C219DE5 		ldr	r2, [sp, #348]
 5196 1f80 34319DE5 		ldr	r3, [sp, #308]
 5197 1f84 50708DE5 		str	r7, [sp, #80]
 5198 1f88 0210A0E1 		mov	r1, r2
 5199 1f8c 08208DE5 		str	r2, [sp, #8]
 5200 1f90 0020A0E3 		mov	r2, #0
 5201 1f94 0C308DE5 		str	r3, [sp, #12]
 5202 1f98 74208DE5 		str	r2, [sp, #116]
 5203 1f9c 64219DE5 		ldr	r2, [sp, #356]
 5204 1fa0 70919DE5 		ldr	r9, [sp, #368]
 5205 1fa4 2D0B5FED 		vldr.64	d16, .L1823	@ int
 5206 1fa8 70208DE5 		str	r2, [sp, #112]
 5207 1fac 68219DE5 		ldr	r2, [sp, #360]
 5208 1fb0 48208DE5 		str	r2, [sp, #72]
 5209 1fb4 8320A0E1 		lsl	r2, r3, #1
 5210 1fb8 6C319DE5 		ldr	r3, [sp, #364]
 5211 1fbc 20308DE5 		str	r3, [sp, #32]
 5212 1fc0 8130A0E1 		lsl	r3, r1, #1
 5213 1fc4 28119DE5 		ldr	r1, [sp, #296]
 5214 1fc8 00B063E2 		rsb	fp, r3, #0
 5215 1fcc 84108DE5 		str	r1, [sp, #132]
 5216 1fd0 021085E0 		add	r1, r5, r2
 5217 1fd4 002062E2 		rsb	r2, r2, #0
 5218 1fd8 64108DE5 		str	r1, [sp, #100]
 5219 1fdc 34208DE5 		str	r2, [sp, #52]
 5220 1fe0 30219DE5 		ldr	r2, [sp, #304]
 5221 1fe4 2C119DE5 		ldr	r1, [sp, #300]
 5222 1fe8 28208DE5 		str	r2, [sp, #40]
 5223 1fec 032084E0 		add	r2, r4, r3
 5224 1ff0 54319DE5 		ldr	r3, [sp, #340]
 5225 1ff4 58208DE5 		str	r2, [sp, #88]
 5226 1ff8 50219DE5 		ldr	r2, [sp, #336]
 5227 1ffc 60308DE5 		str	r3, [sp, #96]
 5228 2000 58319DE5 		ldr	r3, [sp, #344]
 5229 2004 5C108DE5 		str	r1, [sp, #92]
 5230 2008 88208DE5 		str	r2, [sp, #136]
 5231 200c 2C308DE5 		str	r3, [sp, #44]
 5232 2010 78319DE5 		ldr	r3, [sp, #376]
 5233 2014 80308DE5 		str	r3, [sp, #128]
 5234 2018 7C319DE5 		ldr	r3, [sp, #380]
 5235 201c 4C308DE5 		str	r3, [sp, #76]
 5236 2020 80319DE5 		ldr	r3, [sp, #384]
 5237 2024 84A19DE5 		ldr	r10, [sp, #388]
 5238 2028 24308DE5 		str	r3, [sp, #36]
 5239 202c 24319DE5 		ldr	r3, [sp, #292]
 5240 2030 94308DE5 		str	r3, [sp, #148]
 5241 2034 4C319DE5 		ldr	r3, [sp, #332]
 5242 2038 90308DE5 		str	r3, [sp, #144]
 5243 203c 74319DE5 		ldr	r3, [sp, #372]
 5244 2040 8C308DE5 		str	r3, [sp, #140]
 5245              	.L1006:
 5246 2044 70309DE5 		ldr	r3, [sp, #112]
 5247 2048 000053E3 		cmp	r3, #0
 5248 204c FA0000DA 		ble	.L1008
 5249 2050 50309DE5 		ldr	r3, [sp, #80]
 5250 2054 54308DE5 		str	r3, [sp, #84]
 5251 2058 58309DE5 		ldr	r3, [sp, #88]
 5252 205c 68308DE5 		str	r3, [sp, #104]
 5253 2060 64309DE5 		ldr	r3, [sp, #100]
 5254 2064 6C308DE5 		str	r3, [sp, #108]
 5255 2068 0030A0E3 		mov	r3, #0
 5256 206c 78308DE5 		str	r3, [sp, #120]
 5257              	.L1009:
 5258 2070 48309DE5 		ldr	r3, [sp, #72]
 5259 2074 000053E3 		cmp	r3, #0
 5260 2078 DD0000DA 		ble	.L1011
 5261 207c 54309DE5 		ldr	r3, [sp, #84]
 5262 2080 30B08DE5 		str	fp, [sp, #48]
 5263 2084 04908DE5 		str	r9, [sp, #4]
 5264 2088 3C308DE5 		str	r3, [sp, #60]
 5265 208c 68309DE5 		ldr	r3, [sp, #104]
 5266 2090 40308DE5 		str	r3, [sp, #64]
 5267 2094 6C309DE5 		ldr	r3, [sp, #108]
 5268 2098 38308DE5 		str	r3, [sp, #56]
 5269 209c 0030A0E3 		mov	r3, #0
 5270 20a0 44308DE5 		str	r3, [sp, #68]
 5271              	.L1012:
 5272 20a4 20309DE5 		ldr	r3, [sp, #32]
 5273 20a8 000053E3 		cmp	r3, #0
 5274 20ac BC0000DA 		ble	.L1014
 5275 20b0 3C309DE5 		ldr	r3, [sp, #60]
 5276 20b4 0AB0A0E1 		mov	fp, r10
 5277 20b8 14308DE5 		str	r3, [sp, #20]
 5278 20bc 40309DE5 		ldr	r3, [sp, #64]
 5279 20c0 10308DE5 		str	r3, [sp, #16]
 5280 20c4 38309DE5 		ldr	r3, [sp, #56]
 5281 20c8 18308DE5 		str	r3, [sp, #24]
 5282 20cc 0030A0E3 		mov	r3, #0
 5283 20d0 1C308DE5 		str	r3, [sp, #28]
 5284              	.L1015:
 5285 20d4 04309DE5 		ldr	r3, [sp, #4]
 5286 20d8 000053E3 		cmp	r3, #0
 5287 20dc 9D0000DA 		ble	.L1028
 5288 20e0 14A09DE5 		ldr	r10, [sp, #20]
 5289 20e4 0070A0E3 		mov	r7, #0
 5290 20e8 10E09DE5 		ldr	lr, [sp, #16]
 5291 20ec 18C09DE5 		ldr	ip, [sp, #24]
 5292 20f0 30809DE5 		ldr	r8, [sp, #48]
 5293 20f4 34609DE5 		ldr	r6, [sp, #52]
 5294              	.L1029:
 5295 20f8 A0319DE5 		ldr	r3, [sp, #416]
 5296 20fc 8C119DE5 		ldr	r1, [sp, #396]
 5297 2100 D6909CE1 		ldrsb	r9, [ip, r6]
 5298 2104 A4219DE5 		ldr	r2, [sp, #420]
 5299 2108 90019DE5 		ldr	r0, [sp, #400]
 5300 210c 019089E0 		add	r9, r9, r1
 5301 2110 D8109EE1 		ldrsb	r1, [lr, r8]
 5302 2114 1993A0E1 		lsl	r9, r9, r3
 5303 2118 00F0DCF5 		pld	[ip]
 5304 211c 00F0DEF5 		pld	[lr]
 5305 2120 9942C5E0 		smull	r4, r5, r9, r2
 5306 2124 020059E1 		cmp	r9, r2
 5307 2128 02015903 		cmpeq	r9, #-2147483648
 5308 212c 0190A003 		moveq	r9, #1
 5309 2130 0090A013 		movne	r9, #0
 5310 2134 001081E0 		add	r1, r1, r0
 5311 2138 A8019DE5 		ldr	r0, [sp, #424]
 5312 213c 1113A0E1 		lsl	r1, r1, r3
 5313 2140 000054E3 		cmp	r4, #0
 5314 2144 0030D5E2 		sbcs	r3, r5, #0
 5315 2148 0121A0A3 		movge	r2, #1073741824
 5316 214c 0721A0B3 		movlt	r2, #-1073741823
 5317 2150 0030A0A3 		movge	r3, #0
 5318 2154 0030E0B3 		mvnlt	r3, #0
 5319 2158 000059E3 		cmp	r9, #0
 5320 215c 0221E013 		mvnne	r2, #-2147483648
 5321 2160 0800001A 		bne	.L1017
 5322 2164 024094E0 		adds	r4, r4, r2
 5323 2168 0350A5E0 		adc	r5, r5, r3
 5324 216c 0030A0E3 		mov	r3, #0
 5325 2170 C52FA0E1 		asr	r2, r5, #31
 5326 2174 0221C2E3 		bic	r2, r2, #-2147483648
 5327 2178 042092E0 		adds	r2, r2, r4
 5328 217c A22FA0E1 		lsr	r2, r2, #31
 5329 2180 0530A3E0 		adc	r3, r3, r5
 5330 2184 832082E1 		orr	r2, r2, r3, lsl #1
 5331              	.L1017:
 5332 2188 000050E3 		cmp	r0, #0
 5333 218c 005060E2 		rsb	r5, r0, #0
 5334 2190 740200CA 		bgt	.L1814
 5335 2194 1F0070E3 		cmn	r0, #31
 5336 2198 4C0200BA 		blt	.L1815
 5337 219c 905B01EE 		vmov.32	d17[0], r5
 5338 21a0 5255A0E1 		asr	r5, r2, r5
 5339 21a4 AC919DE5 		ldr	r9, [sp, #428]
 5340 21a8 A07431F3 		vshl.u64	d7, d16, d17
 5341 21ac 090051E1 		cmp	r1, r9
 5342 21b0 02015103 		cmpeq	r1, #-2147483648
 5343 21b4 103A17EE 		vmov	r3, s14	@ int
 5344 21b8 010043E2 		sub	r0, r3, #1
 5345 21bc C040A0E1 		asr	r4, r0, #1
 5346 21c0 020000E0 		and	r0, r0, r2
 5347 21c4 A24F84E0 		add	r4, r4, r2, lsr #31
 5348 21c8 9129C3E0 		smull	r2, r3, r1, r9
 5349 21cc 0190A003 		moveq	r9, #1
 5350 21d0 0090A013 		movne	r9, #0
 5351 21d4 040050E1 		cmp	r0, r4
 5352 21d8 0540A0D1 		movle	r4, r5
 5353 21dc 014085C2 		addgt	r4, r5, #1
 5354 21e0 B0519DE5 		ldr	r5, [sp, #432]
 5355 21e4 000052E3 		cmp	r2, #0
 5356 21e8 0010D3E2 		sbcs	r1, r3, #0
 5357 21ec 0101A0A3 		movge	r0, #1073741824
 5358 21f0 0010A0A3 		movge	r1, #0
 5359 21f4 0701A0B3 		movlt	r0, #-1073741823
 5360 21f8 0010E0B3 		mvnlt	r1, #0
 5361 21fc 000059E3 		cmp	r9, #0
 5362 2200 0221E013 		mvnne	r2, #-2147483648
 5363 2204 0800001A 		bne	.L1021
 5364 2208 020090E0 		adds	r0, r0, r2
 5365 220c 0310A1E0 		adc	r1, r1, r3
 5366 2210 0030A0E3 		mov	r3, #0
 5367 2214 C12FA0E1 		asr	r2, r1, #31
 5368 2218 0221C2E3 		bic	r2, r2, #-2147483648
 5369 221c 002092E0 		adds	r2, r2, r0
 5370 2220 A22FA0E1 		lsr	r2, r2, #31
 5371 2224 0130A3E0 		adc	r3, r3, r1
 5372 2228 832082E1 		orr	r2, r2, r3, lsl #1
 5373              	.L1021:
 5374 222c 000055E3 		cmp	r5, #0
 5375 2230 000065E2 		rsb	r0, r5, #0
 5376 2234 1D0200CA 		bgt	.L1816
 5377 2238 1F0075E3 		cmn	r5, #31
 5378 223c 410200BA 		blt	.L1817
 5379 2240 900B01EE 		vmov.32	d17[0], r0
 5380 2244 5230A0E1 		asr	r3, r2, r0
 5381 2248 98919DE5 		ldr	r9, [sp, #408]
 5382 224c A07431F3 		vshl.u64	d7, d16, d17
 5383 2250 9C519DE5 		ldr	r5, [sp, #412]
 5384 2254 101A17EE 		vmov	r1, s14	@ int
 5385 2258 011041E2 		sub	r1, r1, #1
 5386 225c C100A0E1 		asr	r0, r1, #1
 5387 2260 021001E0 		and	r1, r1, r2
 5388 2264 A22F80E0 		add	r2, r0, r2, lsr #31
 5389 2268 020051E1 		cmp	r1, r2
 5390 226c 0320A0D1 		movle	r2, r3
 5391 2270 012083C2 		addgt	r2, r3, #1
 5392 2274 024044E0 		sub	r4, r4, r2
 5393 2278 9409C1E0 		smull	r0, r1, r4, r9
 5394 227c 090054E1 		cmp	r4, r9
 5395 2280 02015403 		cmpeq	r4, #-2147483648
 5396 2284 0140A003 		moveq	r4, #1
 5397 2288 0040A013 		movne	r4, #0
 5398 228c 000050E3 		cmp	r0, #0
 5399 2290 0030D1E2 		sbcs	r3, r1, #0
 5400 2294 0121A0A3 		movge	r2, #1073741824
 5401 2298 0721A0B3 		movlt	r2, #-1073741823
 5402 229c 0030A0A3 		movge	r3, #0
 5403 22a0 0030E0B3 		mvnlt	r3, #0
 5404 22a4 000054E3 		cmp	r4, #0
 5405 22a8 0221E013 		mvnne	r2, #-2147483648
 5406 22ac 0800001A 		bne	.L1025
 5407 22b0 020090E0 		adds	r0, r0, r2
 5408 22b4 0310A1E0 		adc	r1, r1, r3
 5409 22b8 0030A0E3 		mov	r3, #0
 5410 22bc C12FA0E1 		asr	r2, r1, #31
 5411 22c0 0221C2E3 		bic	r2, r2, #-2147483648
 5412 22c4 002092E0 		adds	r2, r2, r0
 5413 22c8 A22FA0E1 		lsr	r2, r2, #31
 5414 22cc 0130A3E0 		adc	r3, r3, r1
 5415 22d0 832082E1 		orr	r2, r2, r3, lsl #1
 5416              	.L1025:
 5417 22d4 000055E3 		cmp	r5, #0
 5418 22d8 000065E2 		rsb	r0, r5, #0
 5419 22dc 0B0200CA 		bgt	.L1818
 5420 22e0 1F0075E3 		cmn	r5, #31
 5421 22e4 010200BA 		blt	.L1819
 5422 22e8 900B02EE 		vmov.32	d18[0], r0
 5423 22ec 5230A0E1 		asr	r3, r2, r0
 5424 22f0 B8919DE5 		ldr	r9, [sp, #440]
 5425 22f4 017087E2 		add	r7, r7, #1
 5426 22f8 A01472F3 		vshl.u64	d17, d16, d18
 5427 22fc 314B55EC 		vmov	r4, r5, d17	@ int
 5428 2300 011044E2 		sub	r1, r4, #1
 5429 2304 94519DE5 		ldr	r5, [sp, #404]
 5430 2308 C100A0E1 		asr	r0, r1, #1
 5431 230c 021001E0 		and	r1, r1, r2
 5432 2310 B4419DE5 		ldr	r4, [sp, #436]
 5433 2314 A22F80E0 		add	r2, r0, r2, lsr #31
 5434 2318 0C009DE5 		ldr	r0, [sp, #12]
 5435 231c 020051E1 		cmp	r1, r2
 5436 2320 0320A0D1 		movle	r2, r3
 5437 2324 012083C2 		addgt	r2, r3, #1
 5438 2328 08309DE5 		ldr	r3, [sp, #8]
 5439 232c 055082E0 		add	r5, r2, r5
 5440 2330 00C08CE0 		add	ip, ip, r0
 5441 2334 040055E1 		cmp	r5, r4
 5442 2338 03E08EE0 		add	lr, lr, r3
 5443 233c 04309DE5 		ldr	r3, [sp, #4]
 5444 2340 0540A0A1 		movge	r4, r5
 5445 2344 090054E1 		cmp	r4, r9
 5446 2348 0940A0A1 		movge	r4, r9
 5447 234c 030057E1 		cmp	r7, r3
 5448 2350 0B40CAE6 		strb	r4, [r10], fp
 5449 2354 67FFFF1A 		bne	.L1029
 5450              	.L1028:
 5451 2358 18209DE5 		ldr	r2, [sp, #24]
 5452 235c 28109DE5 		ldr	r1, [sp, #40]
 5453 2360 1C309DE5 		ldr	r3, [sp, #28]
 5454 2364 012082E0 		add	r2, r2, r1
 5455 2368 18208DE5 		str	r2, [sp, #24]
 5456 236c 013083E2 		add	r3, r3, #1
 5457 2370 20209DE5 		ldr	r2, [sp, #32]
 5458 2374 1C308DE5 		str	r3, [sp, #28]
 5459 2378 030052E1 		cmp	r2, r3
 5460 237c 10309DE5 		ldr	r3, [sp, #16]
 5461 2380 2C209DE5 		ldr	r2, [sp, #44]
 5462 2384 023083E0 		add	r3, r3, r2
 5463 2388 24209DE5 		ldr	r2, [sp, #36]
 5464 238c 10308DE5 		str	r3, [sp, #16]
 5465 2390 14309DE5 		ldr	r3, [sp, #20]
 5466 2394 023083E0 		add	r3, r3, r2
 5467 2398 14308DE5 		str	r3, [sp, #20]
 5468 239c 4CFFFF1A 		bne	.L1015
 5469 23a0 0BA0A0E1 		mov	r10, fp
 5470              	.L1014:
 5471 23a4 38209DE5 		ldr	r2, [sp, #56]
 5472 23a8 5C109DE5 		ldr	r1, [sp, #92]
 5473 23ac 44309DE5 		ldr	r3, [sp, #68]
 5474 23b0 012082E0 		add	r2, r2, r1
 5475 23b4 38208DE5 		str	r2, [sp, #56]
 5476 23b8 013083E2 		add	r3, r3, #1
 5477 23bc 48209DE5 		ldr	r2, [sp, #72]
 5478 23c0 44308DE5 		str	r3, [sp, #68]
 5479 23c4 030052E1 		cmp	r2, r3
 5480 23c8 40309DE5 		ldr	r3, [sp, #64]
 5481 23cc 60209DE5 		ldr	r2, [sp, #96]
 5482 23d0 023083E0 		add	r3, r3, r2
 5483 23d4 4C209DE5 		ldr	r2, [sp, #76]
 5484 23d8 40308DE5 		str	r3, [sp, #64]
 5485 23dc 3C309DE5 		ldr	r3, [sp, #60]
 5486 23e0 023083E0 		add	r3, r3, r2
 5487 23e4 3C308DE5 		str	r3, [sp, #60]
 5488 23e8 2DFFFF1A 		bne	.L1012
 5489 23ec 30B09DE5 		ldr	fp, [sp, #48]
 5490 23f0 04909DE5 		ldr	r9, [sp, #4]
 5491              	.L1011:
 5492 23f4 6C209DE5 		ldr	r2, [sp, #108]
 5493 23f8 84109DE5 		ldr	r1, [sp, #132]
 5494 23fc 78309DE5 		ldr	r3, [sp, #120]
 5495 2400 012082E0 		add	r2, r2, r1
 5496 2404 6C208DE5 		str	r2, [sp, #108]
 5497 2408 013083E2 		add	r3, r3, #1
 5498 240c 70209DE5 		ldr	r2, [sp, #112]
 5499 2410 78308DE5 		str	r3, [sp, #120]
 5500 2414 030052E1 		cmp	r2, r3
 5501 2418 68309DE5 		ldr	r3, [sp, #104]
 5502 241c 88209DE5 		ldr	r2, [sp, #136]
 5503 2420 023083E0 		add	r3, r3, r2
 5504 2424 80209DE5 		ldr	r2, [sp, #128]
 5505 2428 68308DE5 		str	r3, [sp, #104]
 5506 242c 54309DE5 		ldr	r3, [sp, #84]
 5507 2430 023083E0 		add	r3, r3, r2
 5508 2434 54308DE5 		str	r3, [sp, #84]
 5509 2438 0CFFFF1A 		bne	.L1009
 5510              	.L1008:
 5511 243c 64209DE5 		ldr	r2, [sp, #100]
 5512 2440 94109DE5 		ldr	r1, [sp, #148]
 5513 2444 74309DE5 		ldr	r3, [sp, #116]
 5514 2448 012082E0 		add	r2, r2, r1
 5515 244c 64208DE5 		str	r2, [sp, #100]
 5516 2450 013083E2 		add	r3, r3, #1
 5517 2454 7C209DE5 		ldr	r2, [sp, #124]
 5518 2458 74308DE5 		str	r3, [sp, #116]
 5519 245c 030052E1 		cmp	r2, r3
 5520 2460 58309DE5 		ldr	r3, [sp, #88]
 5521 2464 90209DE5 		ldr	r2, [sp, #144]
 5522 2468 023083E0 		add	r3, r3, r2
 5523 246c 8C209DE5 		ldr	r2, [sp, #140]
 5524 2470 58308DE5 		str	r3, [sp, #88]
 5525 2474 50309DE5 		ldr	r3, [sp, #80]
 5526 2478 023083E0 		add	r3, r3, r2
 5527 247c 50308DE5 		str	r3, [sp, #80]
 5528 2480 EFFEFF1A 		bne	.L1006
 5529 2484 13FBFFEA 		b	.L1191
 5530              	.L1754:
 5531 2488 000053E3 		cmp	r3, #0
 5532 248c 0120A003 		moveq	r2, #1
 5533 2490 0310A001 		moveq	r1, r3
 5534 2494 5AF7FF0A 		beq	.L1229
 5535 2498 39F7FFEA 		b	.L1228
 5536              	.L1756:
 5537 249c 000053E3 		cmp	r3, #0
 5538 24a0 01A0A003 		moveq	r10, #1
 5539 24a4 0310A001 		moveq	r1, r3
 5540 24a8 FDF7FF0A 		beq	.L1255
 5541 24ac DCF7FFEA 		b	.L1254
 5542              	.L1755:
 5543 24b0 000053E3 		cmp	r3, #0
 5544 24b4 0100A003 		moveq	r0, #1
 5545 24b8 0310A001 		moveq	r1, r3
 5546 24bc A4F7FF0A 		beq	.L1242
 5547 24c0 83F7FFEA 		b	.L1241
 5548              	.L1383:
 5549 24c4 0350A0E1 		mov	r5, r3
 5550 24c8 52FDFFEA 		b	.L1071
 5551              	.L1373:
 5552 24cc 03C0A0E1 		mov	ip, r3
 5553 24d0 FCFCFFEA 		b	.L1058
 5554              	.L1363:
 5555 24d4 0310A0E1 		mov	r1, r3
 5556 24d8 A6FCFFEA 		b	.L1045
 5557              	.L1776:
 5558 24dc 009093E5 		ldr	r9, [r3]
 5559 24e0 000059E1 		cmp	r9, r0
 5560 24e4 0700000A 		beq	.L1139
 5561 24e8 010059E3 		cmp	r9, #1
 5562 24ec 0000A003 		moveq	r0, #0
 5563 24f0 24018D05 		streq	r0, [sp, #292]
 5564 24f4 0300000A 		beq	.L1139
 5565 24f8 010050E3 		cmp	r0, #1
 5566 24fc 7BFEFF1A 		bne	.L1129
 5567 2500 0000A0E3 		mov	r0, #0
 5568 2504 4C018DE5 		str	r0, [sp, #332]
 5569              	.L1139:
 5570 2508 040093E5 		ldr	r0, [r3, #4]
 5571 250c 0E0050E1 		cmp	r0, lr
 5572 2510 0700000A 		beq	.L1141
 5573 2514 010050E3 		cmp	r0, #1
 5574 2518 0000A003 		moveq	r0, #0
 5575 251c 28018D05 		streq	r0, [sp, #296]
 5576 2520 0300000A 		beq	.L1141
 5577 2524 01005EE3 		cmp	lr, #1
 5578 2528 70FEFF1A 		bne	.L1129
 5579 252c 0000A0E3 		mov	r0, #0
 5580 2530 50018DE5 		str	r0, [sp, #336]
 5581              	.L1141:
 5582 2534 080093E5 		ldr	r0, [r3, #8]
 5583 2538 0C0050E1 		cmp	r0, ip
 5584 253c 0700000A 		beq	.L1143
 5585 2540 010050E3 		cmp	r0, #1
 5586 2544 0000A003 		moveq	r0, #0
 5587 2548 2C018D05 		streq	r0, [sp, #300]
 5588 254c 0300000A 		beq	.L1143
 5589 2550 01005CE3 		cmp	ip, #1
 5590 2554 65FEFF1A 		bne	.L1129
 5591 2558 0000A0E3 		mov	r0, #0
 5592 255c 54018DE5 		str	r0, [sp, #340]
 5593              	.L1143:
 5594 2560 0C0093E5 		ldr	r0, [r3, #12]
 5595 2564 010050E1 		cmp	r0, r1
 5596 2568 0700000A 		beq	.L1145
 5597 256c 010050E3 		cmp	r0, #1
 5598 2570 0010A003 		moveq	r1, #0
 5599 2574 30118D05 		streq	r1, [sp, #304]
 5600 2578 0300000A 		beq	.L1145
 5601 257c 010051E3 		cmp	r1, #1
 5602 2580 5AFEFF1A 		bne	.L1129
 5603 2584 0010A0E3 		mov	r1, #0
 5604 2588 58118DE5 		str	r1, [sp, #344]
 5605              	.L1145:
 5606 258c 103093E5 		ldr	r3, [r3, #16]
 5607 2590 030052E1 		cmp	r2, r3
 5608 2594 2FFCFF0A 		beq	.L1315
 5609 2598 010053E3 		cmp	r3, #1
 5610 259c 8201000A 		beq	.L1148
 5611 25a0 010052E3 		cmp	r2, #1
 5612 25a4 51FEFF1A 		bne	.L1129
 5613 25a8 0030A0E3 		mov	r3, #0
 5614 25ac 5C318DE5 		str	r3, [sp, #348]
 5615 25b0 28FCFFEA 		b	.L1315
 5616              	.L1813:
 5617 25b4 101090E5 		ldr	r1, [r0, #16]
 5618 25b8 000050E3 		cmp	r0, #0
 5619 25bc 0CE090E5 		ldr	lr, [r0, #12]
 5620 25c0 0160A0E3 		mov	r6, #1
 5621 25c4 0C0090E9 		ldmib	r0, {r2, r3}
 5622 25c8 70118DE5 		str	r1, [sp, #368]
 5623 25cc 80118DE5 		str	r1, [sp, #384]
 5624 25d0 910E0CE0 		mul	ip, r1, lr
 5625 25d4 001090E5 		ldr	r1, [r0]
 5626 25d8 68318DE5 		str	r3, [sp, #360]
 5627 25dc 64218DE5 		str	r2, [sp, #356]
 5628 25e0 6CE18DE5 		str	lr, [sp, #364]
 5629 25e4 9C0303E0 		mul	r3, ip, r3
 5630 25e8 7CC18DE5 		str	ip, [sp, #380]
 5631 25ec 60118DE5 		str	r1, [sp, #352]
 5632 25f0 84618DE5 		str	r6, [sp, #388]
 5633 25f4 930202E0 		mul	r2, r3, r2
 5634 25f8 78318DE5 		str	r3, [sp, #376]
 5635 25fc 0130A001 		moveq	r3, r1
 5636 2600 74218DE5 		str	r2, [sp, #372]
 5637 2604 59FEFF0A 		beq	.L997
 5638 2608 FEFFFFEB 		bl	_ZdaPv
 5639 260c 60319DE5 		ldr	r3, [sp, #352]
 5640 2610 56FEFFEA 		b	.L997
 5641              	.L1066:
 5642 2614 00005CE3 		cmp	ip, #0
 5643 2618 0170A0D3 		movle	r7, #1
 5644 261c 28FDFFDA 		ble	.L1068
 5645 2620 590F8DE2 		add	r0, sp, #356
 5646 2624 D6FCFFEA 		b	.L1067
 5647              	.L1053:
 5648 2628 000055E3 		cmp	r5, #0
 5649 262c 0110A0D3 		movle	r1, #1
 5650 2630 CFFCFFDA 		ble	.L1055
 5651 2634 4F0F8DE2 		add	r0, sp, #316
 5652 2638 7DFCFFEA 		b	.L1054
 5653              	.L1790:
 5654 263c 10C090E5 		ldr	ip, [r0, #16]
 5655 2640 050056E3 		cmp	r6, #5
 5656 2644 0C1090E5 		ldr	r1, [r0, #12]
 5657 2648 01E0A0E3 		mov	lr, #1
 5658 264c 082090E5 		ldr	r2, [r0, #8]
 5659 2650 58C18DE5 		str	ip, [sp, #344]
 5660 2654 5CE18DE5 		str	lr, [sp, #348]
 5661 2658 910C01E0 		mul	r1, r1, ip
 5662 265c 04C090E5 		ldr	ip, [r0, #4]
 5663 2660 920102E0 		mul	r2, r2, r1
 5664 2664 54118DE5 		str	r1, [sp, #340]
 5665 2668 9C0201E0 		mul	r1, ip, r2
 5666 266c 50218DE5 		str	r2, [sp, #336]
 5667 2670 4C118DE5 		str	r1, [sp, #332]
 5668 2674 8B0000CA 		bgt	.L1820
 5669 2678 000056E3 		cmp	r6, #0
 5670 267c D30100DA 		ble	.L939
 5671 2680 002090E5 		ldr	r2, [r0]
 5672 2684 020053E1 		cmp	r3, r2
 5673 2688 0700000A 		beq	.L962
 5674 268c 010053E3 		cmp	r3, #1
 5675 2690 0030A003 		moveq	r3, #0
 5676 2694 24318D05 		streq	r3, [sp, #292]
 5677 2698 0300000A 		beq	.L962
 5678 269c 010052E3 		cmp	r2, #1
 5679 26a0 B000001A 		bne	.L942
 5680 26a4 0030A0E3 		mov	r3, #0
 5681 26a8 4C318DE5 		str	r3, [sp, #332]
 5682              	.L962:
 5683 26ac 010056E3 		cmp	r6, #1
 5684 26b0 C601000A 		beq	.L939
 5685 26b4 00319DE5 		ldr	r3, [sp, #256]
 5686 26b8 042090E5 		ldr	r2, [r0, #4]
 5687 26bc 030052E1 		cmp	r2, r3
 5688 26c0 0700000A 		beq	.L965
 5689 26c4 010053E3 		cmp	r3, #1
 5690 26c8 0030A003 		moveq	r3, #0
 5691 26cc 28318D05 		streq	r3, [sp, #296]
 5692 26d0 0300000A 		beq	.L965
 5693 26d4 010052E3 		cmp	r2, #1
 5694 26d8 A200001A 		bne	.L942
 5695 26dc 0030A0E3 		mov	r3, #0
 5696 26e0 50318DE5 		str	r3, [sp, #336]
 5697              	.L965:
 5698 26e4 020056E3 		cmp	r6, #2
 5699 26e8 B801000A 		beq	.L939
 5700 26ec 04319DE5 		ldr	r3, [sp, #260]
 5701 26f0 082090E5 		ldr	r2, [r0, #8]
 5702 26f4 030052E1 		cmp	r2, r3
 5703 26f8 0700000A 		beq	.L967
 5704 26fc 010053E3 		cmp	r3, #1
 5705 2700 0030A003 		moveq	r3, #0
 5706 2704 2C318D05 		streq	r3, [sp, #300]
 5707 2708 0300000A 		beq	.L967
 5708 270c 010052E3 		cmp	r2, #1
 5709 2710 9400001A 		bne	.L942
 5710 2714 0030A0E3 		mov	r3, #0
 5711 2718 54318DE5 		str	r3, [sp, #340]
 5712              	.L967:
 5713 271c 030056E3 		cmp	r6, #3
 5714 2720 AA01000A 		beq	.L939
 5715 2724 08319DE5 		ldr	r3, [sp, #264]
 5716 2728 0C2090E5 		ldr	r2, [r0, #12]
 5717 272c 030052E1 		cmp	r2, r3
 5718 2730 0700000A 		beq	.L969
 5719 2734 010053E3 		cmp	r3, #1
 5720 2738 0030A003 		moveq	r3, #0
 5721 273c 30318D05 		streq	r3, [sp, #304]
 5722 2740 0300000A 		beq	.L969
 5723 2744 010052E3 		cmp	r2, #1
 5724 2748 8600001A 		bne	.L942
 5725 274c 0030A0E3 		mov	r3, #0
 5726 2750 58318DE5 		str	r3, [sp, #344]
 5727              	.L969:
 5728 2754 050056E3 		cmp	r6, #5
 5729 2758 9C01001A 		bne	.L939
 5730 275c 0C319DE5 		ldr	r3, [sp, #268]
 5731 2760 102090E5 		ldr	r2, [r0, #16]
 5732 2764 030052E1 		cmp	r2, r3
 5733 2768 0500000A 		beq	.L972
 5734 276c 010053E3 		cmp	r3, #1
 5735 2770 1001000A 		beq	.L1690
 5736 2774 010052E3 		cmp	r2, #1
 5737 2778 7A00001A 		bne	.L942
 5738              	.L984:
 5739 277c 0030A0E3 		mov	r3, #0
 5740 2780 5C318DE5 		str	r3, [sp, #348]
 5741              	.L972:
 5742 2784 000050E3 		cmp	r0, #0
 5743 2788 0000000A 		beq	.L1313
 5744 278c FEFFFFEB 		bl	_ZdaPv
 5745              	.L1313:
 5746 2790 050056E3 		cmp	r6, #5
 5747 2794 13FBFFDA 		ble	.L985
 5748 2798 FC009DE5 		ldr	r0, [sp, #252]
 5749 279c 000050E3 		cmp	r0, #0
 5750 27a0 10FBFF0A 		beq	.L985
 5751 27a4 FEFFFFEB 		bl	_ZdaPv
 5752 27a8 0EFBFFEA 		b	.L985
 5753              	.L1783:
 5754 27ac 003000E3 		movw	r3, #:lower16:.LC1
 5755 27b0 002000E3 		movw	r2, #:lower16:.LANCHOR0
 5756 27b4 000000E3 		movw	r0, #:lower16:.LC2
 5757 27b8 003040E3 		movt	r3, #:upper16:.LC1
 5758 27bc 002040E3 		movt	r2, #:upper16:.LANCHOR0
 5759 27c0 000040E3 		movt	r0, #:upper16:.LC2
 5760 27c4 661100E3 		movw	r1, #358
 5761              	.LEHB62:
 5762 27c8 FEFFFFEB 		bl	__assert_func
 5763              	.L1782:
 5764 27cc 003000E3 		movw	r3, #:lower16:.LC3
 5765 27d0 002000E3 		movw	r2, #:lower16:.LANCHOR0
 5766 27d4 000000E3 		movw	r0, #:lower16:.LC2
 5767 27d8 003040E3 		movt	r3, #:upper16:.LC3
 5768 27dc 002040E3 		movt	r2, #:upper16:.LANCHOR0
 5769 27e0 000040E3 		movt	r0, #:upper16:.LC2
 5770 27e4 671100E3 		movw	r1, #359
 5771 27e8 FEFFFFEB 		bl	__assert_func
 5772              	.L1784:
 5773 27ec 003000E3 		movw	r3, #:lower16:.LC3
 5774 27f0 002000E3 		movw	r2, #:lower16:.LANCHOR0
 5775 27f4 000000E3 		movw	r0, #:lower16:.LC2
 5776 27f8 003040E3 		movt	r3, #:upper16:.LC3
 5777 27fc 002040E3 		movt	r2, #:upper16:.LANCHOR0
 5778 2800 000040E3 		movt	r0, #:upper16:.LC2
 5779 2804 671100E3 		movw	r1, #359
 5780 2808 FEFFFFEB 		bl	__assert_func
 5781              	.L1781:
 5782 280c 003000E3 		movw	r3, #:lower16:.LC1
 5783 2810 002000E3 		movw	r2, #:lower16:.LANCHOR0
 5784 2814 000000E3 		movw	r0, #:lower16:.LC2
 5785 2818 003040E3 		movt	r3, #:upper16:.LC1
 5786 281c 002040E3 		movt	r2, #:upper16:.LANCHOR0
 5787 2820 000040E3 		movt	r0, #:upper16:.LC2
 5788 2824 661100E3 		movw	r1, #358
 5789 2828 FEFFFFEB 		bl	__assert_func
 5790              	.L1779:
 5791 282c 003000E3 		movw	r3, #:lower16:.LC1
 5792 2830 002000E3 		movw	r2, #:lower16:.LANCHOR0
 5793 2834 000000E3 		movw	r0, #:lower16:.LC2
 5794 2838 003040E3 		movt	r3, #:upper16:.LC1
 5795 283c 002040E3 		movt	r2, #:upper16:.LANCHOR0
 5796 2840 000040E3 		movt	r0, #:upper16:.LC2
 5797 2844 661100E3 		movw	r1, #358
 5798 2848 FEFFFFEB 		bl	__assert_func
 5799              	.L1780:
 5800 284c 003000E3 		movw	r3, #:lower16:.LC3
 5801 2850 002000E3 		movw	r2, #:lower16:.LANCHOR0
 5802 2854 000000E3 		movw	r0, #:lower16:.LC2
 5803 2858 003040E3 		movt	r3, #:upper16:.LC3
 5804 285c 002040E3 		movt	r2, #:upper16:.LANCHOR0
 5805 2860 000040E3 		movt	r0, #:upper16:.LC2
 5806 2864 671100E3 		movw	r1, #359
 5807 2868 FEFFFFEB 		bl	__assert_func
 5808              	.LEHE62:
 5809              	.L1798:
 5810 286c 000053E3 		cmp	r3, #0
 5811 2870 0120A003 		moveq	r2, #1
 5812 2874 0310A001 		moveq	r1, r3
 5813 2878 C0FBFF0A 		beq	.L1044
 5814 287c 9FFBFFEA 		b	.L1043
 5815              	.L1800:
 5816 2880 000053E3 		cmp	r3, #0
 5817 2884 0170A003 		moveq	r7, #1
 5818 2888 0350A001 		moveq	r5, r3
 5819 288c 63FCFF0A 		beq	.L1070
 5820 2890 42FCFFEA 		b	.L1069
 5821              	.L1799:
 5822 2894 000053E3 		cmp	r3, #0
 5823 2898 0110A003 		moveq	r1, #1
 5824 289c 03C0A001 		moveq	ip, r3
 5825 28a0 0AFCFF0A 		beq	.L1057
 5826 28a4 E9FBFFEA 		b	.L1056
 5827              	.L1820:
 5828 28a8 001093E5 		ldr	r1, [r3]
 5829 28ac 002090E5 		ldr	r2, [r0]
 5830 28b0 020051E1 		cmp	r1, r2
 5831 28b4 0500000A 		beq	.L973
 5832 28b8 010051E3 		cmp	r1, #1
 5833 28bc B100000A 		beq	.L974
 5834 28c0 010052E3 		cmp	r2, #1
 5835 28c4 2700001A 		bne	.L942
 5836 28c8 0020A0E3 		mov	r2, #0
 5837 28cc 4C218DE5 		str	r2, [sp, #332]
 5838              	.L973:
 5839 28d0 041093E5 		ldr	r1, [r3, #4]
 5840 28d4 042090E5 		ldr	r2, [r0, #4]
 5841 28d8 010052E1 		cmp	r2, r1
 5842 28dc 0500000A 		beq	.L975
 5843 28e0 010051E3 		cmp	r1, #1
 5844 28e4 AA00000A 		beq	.L976
 5845 28e8 010052E3 		cmp	r2, #1
 5846 28ec 1D00001A 		bne	.L942
 5847 28f0 0020A0E3 		mov	r2, #0
 5848 28f4 50218DE5 		str	r2, [sp, #336]
 5849              	.L975:
 5850 28f8 081093E5 		ldr	r1, [r3, #8]
 5851 28fc 082090E5 		ldr	r2, [r0, #8]
 5852 2900 020051E1 		cmp	r1, r2
 5853 2904 0500000A 		beq	.L977
 5854 2908 010051E3 		cmp	r1, #1
 5855 290c 5B00000A 		beq	.L978
 5856 2910 010052E3 		cmp	r2, #1
 5857 2914 1300001A 		bne	.L942
 5858 2918 0020A0E3 		mov	r2, #0
 5859 291c 54218DE5 		str	r2, [sp, #340]
 5860              	.L977:
 5861 2920 0C1093E5 		ldr	r1, [r3, #12]
 5862 2924 0C2090E5 		ldr	r2, [r0, #12]
 5863 2928 020051E1 		cmp	r1, r2
 5864 292c 0500000A 		beq	.L979
 5865 2930 010051E3 		cmp	r1, #1
 5866 2934 5400000A 		beq	.L980
 5867 2938 010052E3 		cmp	r2, #1
 5868 293c 0900001A 		bne	.L942
 5869 2940 0020A0E3 		mov	r2, #0
 5870 2944 58218DE5 		str	r2, [sp, #344]
 5871              	.L979:
 5872 2948 102093E5 		ldr	r2, [r3, #16]
 5873 294c 103090E5 		ldr	r3, [r0, #16]
 5874 2950 030052E1 		cmp	r2, r3
 5875 2954 8AFFFF0A 		beq	.L972
 5876 2958 010052E3 		cmp	r2, #1
 5877 295c 9500000A 		beq	.L1690
 5878 2960 010053E3 		cmp	r3, #1
 5879 2964 84FFFF0A 		beq	.L984
 5880              	.L942:
 5881              	.LEHB63:
 5882 2968 FEFFFFEB 		bl	abort
 5883              	.LEHE63:
 5884              	.L1130:
 5885 296c 0030A0E3 		mov	r3, #0
 5886 2970 28318DE5 		str	r3, [sp, #296]
 5887 2974 39F8FFEA 		b	.L1131
 5888              	.L1791:
 5889 2978 009093E5 		ldr	r9, [r3]
 5890 297c 090050E1 		cmp	r0, r9
 5891 2980 0700000A 		beq	.L952
 5892 2984 010059E3 		cmp	r9, #1
 5893 2988 0000A003 		moveq	r0, #0
 5894 298c 24018D05 		streq	r0, [sp, #292]
 5895 2990 0300000A 		beq	.L952
 5896 2994 010050E3 		cmp	r0, #1
 5897 2998 F2FFFF1A 		bne	.L942
 5898 299c 0000A0E3 		mov	r0, #0
 5899 29a0 4C018DE5 		str	r0, [sp, #332]
 5900              	.L952:
 5901 29a4 040093E5 		ldr	r0, [r3, #4]
 5902 29a8 00005EE1 		cmp	lr, r0
 5903 29ac 0700000A 		beq	.L954
 5904 29b0 010050E3 		cmp	r0, #1
 5905 29b4 0000A003 		moveq	r0, #0
 5906 29b8 28018D05 		streq	r0, [sp, #296]
 5907 29bc 0300000A 		beq	.L954
 5908 29c0 01005EE3 		cmp	lr, #1
 5909 29c4 E7FFFF1A 		bne	.L942
 5910 29c8 0000A0E3 		mov	r0, #0
 5911 29cc 50018DE5 		str	r0, [sp, #336]
 5912              	.L954:
 5913 29d0 080093E5 		ldr	r0, [r3, #8]
 5914 29d4 0C0050E1 		cmp	r0, ip
 5915 29d8 0700000A 		beq	.L956
 5916 29dc 010050E3 		cmp	r0, #1
 5917 29e0 0000A003 		moveq	r0, #0
 5918 29e4 2C018D05 		streq	r0, [sp, #300]
 5919 29e8 0300000A 		beq	.L956
 5920 29ec 01005CE3 		cmp	ip, #1
 5921 29f0 DCFFFF1A 		bne	.L942
 5922 29f4 0000A0E3 		mov	r0, #0
 5923 29f8 54018DE5 		str	r0, [sp, #340]
 5924              	.L956:
 5925 29fc 0C0093E5 		ldr	r0, [r3, #12]
 5926 2a00 010050E1 		cmp	r0, r1
 5927 2a04 0700000A 		beq	.L958
 5928 2a08 010050E3 		cmp	r0, #1
 5929 2a0c 0010A003 		moveq	r1, #0
 5930 2a10 30118D05 		streq	r1, [sp, #304]
 5931 2a14 0300000A 		beq	.L958
 5932 2a18 010051E3 		cmp	r1, #1
 5933 2a1c D1FFFF1A 		bne	.L942
 5934 2a20 0010A0E3 		mov	r1, #0
 5935 2a24 58118DE5 		str	r1, [sp, #344]
 5936              	.L958:
 5937 2a28 103093E5 		ldr	r3, [r3, #16]
 5938 2a2c 020053E1 		cmp	r3, r2
 5939 2a30 56FFFF0A 		beq	.L1313
 5940 2a34 010053E3 		cmp	r3, #1
 5941 2a38 E700000A 		beq	.L961
 5942 2a3c 010052E3 		cmp	r2, #1
 5943 2a40 C8FFFF1A 		bne	.L942
 5944 2a44 0030A0E3 		mov	r3, #0
 5945 2a48 5C318DE5 		str	r3, [sp, #348]
 5946 2a4c 4FFFFFEA 		b	.L1313
 5947              	.L1134:
 5948 2a50 0030A0E3 		mov	r3, #0
 5949 2a54 30318DE5 		str	r3, [sp, #304]
 5950 2a58 16F8FFEA 		b	.L1135
 5951              	.L1128:
 5952 2a5c 0030A0E3 		mov	r3, #0
 5953 2a60 24318DE5 		str	r3, [sp, #292]
 5954 2a64 F2F7FFEA 		b	.L1127
 5955              	.L1132:
 5956 2a68 0030A0E3 		mov	r3, #0
 5957 2a6c 2C318DE5 		str	r3, [sp, #300]
 5958 2a70 05F8FFEA 		b	.L1133
 5959              	.L1691:
 5960 2a74 0030A0E3 		mov	r3, #0
 5961 2a78 34318DE5 		str	r3, [sp, #308]
 5962 2a7c F2FAFFEA 		b	.L1159
 5963              	.L978:
 5964 2a80 0020A0E3 		mov	r2, #0
 5965 2a84 2C218DE5 		str	r2, [sp, #300]
 5966 2a88 A4FFFFEA 		b	.L977
 5967              	.L980:
 5968 2a8c 0020A0E3 		mov	r2, #0
 5969 2a90 30218DE5 		str	r2, [sp, #304]
 5970 2a94 ABFFFFEA 		b	.L979
 5971              	.L943:
 5972 2a98 0030A0E3 		mov	r3, #0
 5973 2a9c 28318DE5 		str	r3, [sp, #296]
 5974 2aa0 2DFAFFEA 		b	.L944
 5975              	.L945:
 5976 2aa4 0030A0E3 		mov	r3, #0
 5977 2aa8 2C318DE5 		str	r3, [sp, #300]
 5978 2aac 35FAFFEA 		b	.L946
 5979              	.L1816:
 5980 2ab0 003000E3 		movw	r3, #:lower16:.LC1
 5981 2ab4 002000E3 		movw	r2, #:lower16:.LANCHOR0
 5982 2ab8 000000E3 		movw	r0, #:lower16:.LC2
 5983 2abc 003040E3 		movt	r3, #:upper16:.LC1
 5984 2ac0 002040E3 		movt	r2, #:upper16:.LANCHOR0
 5985 2ac4 000040E3 		movt	r0, #:upper16:.LC2
 5986 2ac8 661100E3 		movw	r1, #358
 5987              	.LEHB64:
 5988 2acc FEFFFFEB 		bl	__assert_func
 5989              	.L1815:
 5990 2ad0 003000E3 		movw	r3, #:lower16:.LC3
 5991 2ad4 002000E3 		movw	r2, #:lower16:.LANCHOR0
 5992 2ad8 000000E3 		movw	r0, #:lower16:.LC2
 5993 2adc 003040E3 		movt	r3, #:upper16:.LC3
 5994 2ae0 002040E3 		movt	r2, #:upper16:.LANCHOR0
 5995 2ae4 000040E3 		movt	r0, #:upper16:.LC2
 5996 2ae8 671100E3 		movw	r1, #359
 5997 2aec FEFFFFEB 		bl	__assert_func
 5998              	.L1819:
 5999 2af0 003000E3 		movw	r3, #:lower16:.LC3
 6000 2af4 002000E3 		movw	r2, #:lower16:.LANCHOR0
 6001 2af8 000000E3 		movw	r0, #:lower16:.LC2
 6002 2afc 003040E3 		movt	r3, #:upper16:.LC3
 6003 2b00 002040E3 		movt	r2, #:upper16:.LANCHOR0
 6004 2b04 000040E3 		movt	r0, #:upper16:.LC2
 6005 2b08 671100E3 		movw	r1, #359
 6006 2b0c FEFFFFEB 		bl	__assert_func
 6007              	.L1818:
 6008 2b10 003000E3 		movw	r3, #:lower16:.LC1
 6009 2b14 002000E3 		movw	r2, #:lower16:.LANCHOR0
 6010 2b18 000000E3 		movw	r0, #:lower16:.LC2
 6011 2b1c 003040E3 		movt	r3, #:upper16:.LC1
 6012 2b20 002040E3 		movt	r2, #:upper16:.LANCHOR0
 6013 2b24 000040E3 		movt	r0, #:upper16:.LC2
 6014 2b28 661100E3 		movw	r1, #358
 6015 2b2c FEFFFFEB 		bl	__assert_func
 6016              	.L941:
 6017 2b30 0030A0E3 		mov	r3, #0
 6018 2b34 24318DE5 		str	r3, [sp, #292]
 6019 2b38 FCF9FFEA 		b	.L940
 6020              	.L947:
 6021 2b3c 0030A0E3 		mov	r3, #0
 6022 2b40 30318DE5 		str	r3, [sp, #304]
 6023 2b44 1AFAFFEA 		b	.L948
 6024              	.L1817:
 6025 2b48 003000E3 		movw	r3, #:lower16:.LC3
 6026 2b4c 002000E3 		movw	r2, #:lower16:.LANCHOR0
 6027 2b50 000000E3 		movw	r0, #:lower16:.LC2
 6028 2b54 003040E3 		movt	r3, #:upper16:.LC3
 6029 2b58 002040E3 		movt	r2, #:upper16:.LANCHOR0
 6030 2b5c 000040E3 		movt	r0, #:upper16:.LC2
 6031 2b60 671100E3 		movw	r1, #359
 6032 2b64 FEFFFFEB 		bl	__assert_func
 6033              	.L1814:
 6034 2b68 003000E3 		movw	r3, #:lower16:.LC1
 6035 2b6c 002000E3 		movw	r2, #:lower16:.LANCHOR0
 6036 2b70 000000E3 		movw	r0, #:lower16:.LC2
 6037 2b74 003040E3 		movt	r3, #:upper16:.LC1
 6038 2b78 002040E3 		movt	r2, #:upper16:.LANCHOR0
 6039 2b7c 000040E3 		movt	r0, #:upper16:.LC2
 6040 2b80 661100E3 		movw	r1, #358
 6041 2b84 FEFFFFEB 		bl	__assert_func
 6042              	.LEHE64:
 6043              	.L974:
 6044 2b88 0020A0E3 		mov	r2, #0
 6045 2b8c 24218DE5 		str	r2, [sp, #292]
 6046 2b90 4EFFFFEA 		b	.L973
 6047              	.L976:
 6048 2b94 0020A0E3 		mov	r2, #0
 6049 2b98 28218DE5 		str	r2, [sp, #296]
 6050 2b9c 55FFFFEA 		b	.L975
 6051              	.L1167:
 6052 2ba0 0020A0E3 		mov	r2, #0
 6053 2ba4 30218DE5 		str	r2, [sp, #304]
 6054 2ba8 C8FCFFEA 		b	.L1166
 6055              	.L1148:
 6056 2bac 0030A0E3 		mov	r3, #0
 6057 2bb0 34318DE5 		str	r3, [sp, #308]
 6058 2bb4 A7FAFFEA 		b	.L1315
 6059              	.L1690:
 6060 2bb8 0030A0E3 		mov	r3, #0
 6061 2bbc 34318DE5 		str	r3, [sp, #308]
 6062 2bc0 EFFEFFEA 		b	.L972
 6063              	.L1161:
 6064 2bc4 0020A0E3 		mov	r2, #0
 6065 2bc8 24218DE5 		str	r2, [sp, #292]
 6066 2bcc A1FCFFEA 		b	.L1160
 6067              	.L1163:
 6068 2bd0 0020A0E3 		mov	r2, #0
 6069 2bd4 28218DE5 		str	r2, [sp, #296]
 6070 2bd8 A8FCFFEA 		b	.L1162
 6071              	.L1165:
 6072 2bdc 0020A0E3 		mov	r2, #0
 6073 2be0 2C218DE5 		str	r2, [sp, #300]
 6074 2be4 AFFCFFEA 		b	.L1164
 6075              	.L1449:
 6076              	.L1176:
 6077 2be8 050058E3 		cmp	r8, #5
 6078 2bec 62FCFFDA 		ble	.L1118
 6079 2bf0 64019DE5 		ldr	r0, [sp, #356]
 6080 2bf4 000050E3 		cmp	r0, #0
 6081 2bf8 5FFCFF0A 		beq	.L1118
 6082 2bfc FEFFFFEB 		bl	_ZdaPv
 6083 2c00 5DFCFFEA 		b	.L1118
 6084              	.L1794:
 6085              	.LEHB65:
 6086 2c04 FEFFFFEB 		bl	abort
 6087              	.LEHE65:
 6088              	.L1184:
 6089              	.LEHB66:
 6090 2c08 FEFFFFEB 		bl	abort
 6091              	.LEHE66:
 6092              	.L1792:
 6093              	.LEHB67:
 6094 2c0c FEFFFFEB 		bl	abort
 6095              	.LEHE67:
 6096              	.L1448:
 6097 2c10 050057E3 		cmp	r7, #5
 6098 2c14 5EFCFFDA 		ble	.L1179
 6099              	.L1736:
 6100 2c18 E4009DE5 		ldr	r0, [sp, #228]
 6101 2c1c 000050E3 		cmp	r0, #0
 6102 2c20 5AFCFF1A 		bne	.L1689
 6103 2c24 5AFCFFEA 		b	.L1179
 6104              	.L1121:
 6105              	.LEHB68:
 6106 2c28 FEFFFFEB 		bl	abort
 6107              	.LEHE68:
 6108              	.L1116:
 6109              	.LEHB69:
 6110 2c2c FEFFFFEB 		bl	abort
 6111              	.LEHE69:
 6112              	.L1809:
 6113 2c30 003000E3 		movw	r3, #:lower16:.LC3
 6114 2c34 002000E3 		movw	r2, #:lower16:.LANCHOR0
 6115 2c38 000000E3 		movw	r0, #:lower16:.LC2
 6116 2c3c 003040E3 		movt	r3, #:upper16:.LC3
 6117 2c40 002040E3 		movt	r2, #:upper16:.LANCHOR0
 6118 2c44 000040E3 		movt	r0, #:upper16:.LC2
 6119 2c48 671100E3 		movw	r1, #359
 6120              	.LEHB70:
 6121 2c4c FEFFFFEB 		bl	__assert_func
 6122              	.L1084:
 6123 2c50 FEFFFFEB 		bl	abort
 6124              	.L1807:
 6125 2c54 003000E3 		movw	r3, #:lower16:.LC3
 6126 2c58 002000E3 		movw	r2, #:lower16:.LANCHOR0
 6127 2c5c 000000E3 		movw	r0, #:lower16:.LC2
 6128 2c60 003040E3 		movt	r3, #:upper16:.LC3
 6129 2c64 002040E3 		movt	r2, #:upper16:.LANCHOR0
 6130 2c68 000040E3 		movt	r0, #:upper16:.LC2
 6131 2c6c 671100E3 		movw	r1, #359
 6132 2c70 FEFFFFEB 		bl	__assert_func
 6133              	.L1806:
 6134 2c74 003000E3 		movw	r3, #:lower16:.LC1
 6135 2c78 002000E3 		movw	r2, #:lower16:.LANCHOR0
 6136 2c7c 000000E3 		movw	r0, #:lower16:.LC2
 6137 2c80 003040E3 		movt	r3, #:upper16:.LC1
 6138 2c84 002040E3 		movt	r2, #:upper16:.LANCHOR0
 6139 2c88 000040E3 		movt	r0, #:upper16:.LC2
 6140 2c8c 661100E3 		movw	r1, #358
 6141 2c90 FEFFFFEB 		bl	__assert_func
 6142              	.L1808:
 6143 2c94 003000E3 		movw	r3, #:lower16:.LC1
 6144 2c98 002000E3 		movw	r2, #:lower16:.LANCHOR0
 6145 2c9c 000000E3 		movw	r0, #:lower16:.LC2
 6146 2ca0 003040E3 		movt	r3, #:upper16:.LC1
 6147 2ca4 002040E3 		movt	r2, #:upper16:.LANCHOR0
 6148 2ca8 000040E3 		movt	r0, #:upper16:.LC2
 6149 2cac 661100E3 		movw	r1, #358
 6150 2cb0 FEFFFFEB 		bl	__assert_func
 6151              	.L1454:
 6152 2cb4 60819DE5 		ldr	r8, [sp, #352]
 6153 2cb8 CAFFFFEA 		b	.L1176
 6154              	.L1804:
 6155 2cbc FEFFFFEB 		bl	abort
 6156              	.L1803:
 6157 2cc0 FEFFFFEB 		bl	abort
 6158              	.L1805:
 6159 2cc4 FEFFFFEB 		bl	abort
 6160              	.LEHE70:
 6161              	.L1438:
 6162              	.L1734:
 6163 2cc8 60319DE5 		ldr	r3, [sp, #352]
 6164 2ccc 050053E3 		cmp	r3, #5
 6165 2cd0 030000DA 		ble	.L1308
 6166 2cd4 64019DE5 		ldr	r0, [sp, #356]
 6167 2cd8 000050E3 		cmp	r0, #0
 6168 2cdc 0000000A 		beq	.L1308
 6169 2ce0 FEFFFFEB 		bl	_ZdaPv
 6170              	.L1308:
 6171 2ce4 38319DE5 		ldr	r3, [sp, #312]
 6172 2ce8 050053E3 		cmp	r3, #5
 6173 2cec 030000DA 		ble	.L1310
 6174 2cf0 3C019DE5 		ldr	r0, [sp, #316]
 6175 2cf4 000050E3 		cmp	r0, #0
 6176 2cf8 0000000A 		beq	.L1310
 6177 2cfc FEFFFFEB 		bl	_ZdaPv
 6178              	.L1310:
 6179 2d00 10319DE5 		ldr	r3, [sp, #272]
 6180 2d04 050053E3 		cmp	r3, #5
 6181 2d08 36FCFFDA 		ble	.L1311
 6182 2d0c 14019DE5 		ldr	r0, [sp, #276]
 6183 2d10 000050E3 		cmp	r0, #0
 6184 2d14 32FCFF1A 		bne	.L1697
 6185 2d18 32FCFFEA 		b	.L1311
 6186              	.L1269:
 6187              	.LEHB71:
 6188 2d1c FEFFFFEB 		bl	abort
 6189              	.L1761:
 6190 2d20 FEFFFFEB 		bl	abort
 6191              	.L1443:
 6192 2d24 E7FFFFEA 		b	.L1734
 6193              	.L1760:
 6194 2d28 FEFFFFEB 		bl	abort
 6195              	.L1759:
 6196 2d2c FEFFFFEB 		bl	abort
 6197              	.LEHE71:
 6198              	.L1435:
 6199 2d30 1EFCFFEA 		b	.L1302
 6200              	.L1786:
 6201              	.LEHB72:
 6202 2d34 FEFFFFEB 		bl	abort
 6203              	.LEHE72:
 6204              	.L1434:
 6205 2d38 23FCFFEA 		b	.L1304
 6206              	.L1785:
 6207              	.LEHB73:
 6208 2d3c FEFFFFEB 		bl	abort
 6209              	.LEHE73:
 6210              	.L1758:
 6211              	.LEHB74:
 6212 2d40 FEFFFFEB 		bl	abort
 6213              	.L1757:
 6214 2d44 FEFFFFEB 		bl	abort
 6215              	.LEHE74:
 6216              	.L1126:
 6217              	.LEHB75:
 6218 2d48 FEFFFFEB 		bl	abort
 6219              	.LEHE75:
 6220              	.L934:
 6221              	.LEHB76:
 6222 2d4c FEFFFFEB 		bl	abort
 6223              	.LEHE76:
 6224              	.L1765:
 6225 2d50 003000E3 		movw	r3, #:lower16:.LC3
 6226 2d54 002000E3 		movw	r2, #:lower16:.LANCHOR0
 6227 2d58 000000E3 		movw	r0, #:lower16:.LC2
 6228 2d5c 003040E3 		movt	r3, #:upper16:.LC3
 6229 2d60 002040E3 		movt	r2, #:upper16:.LANCHOR0
 6230 2d64 000040E3 		movt	r0, #:upper16:.LC2
 6231 2d68 671100E3 		movw	r1, #359
 6232              	.LEHB77:
 6233 2d6c FEFFFFEB 		bl	__assert_func
 6234              	.L1764:
 6235 2d70 003000E3 		movw	r3, #:lower16:.LC1
 6236 2d74 002000E3 		movw	r2, #:lower16:.LANCHOR0
 6237 2d78 000000E3 		movw	r0, #:lower16:.LC2
 6238 2d7c 003040E3 		movt	r3, #:upper16:.LC1
 6239 2d80 002040E3 		movt	r2, #:upper16:.LANCHOR0
 6240 2d84 000040E3 		movt	r0, #:upper16:.LC2
 6241 2d88 661100E3 		movw	r1, #358
 6242 2d8c FEFFFFEB 		bl	__assert_func
 6243              	.L1763:
 6244 2d90 003000E3 		movw	r3, #:lower16:.LC3
 6245 2d94 002000E3 		movw	r2, #:lower16:.LANCHOR0
 6246 2d98 000000E3 		movw	r0, #:lower16:.LC2
 6247 2d9c 003040E3 		movt	r3, #:upper16:.LC3
 6248 2da0 002040E3 		movt	r2, #:upper16:.LANCHOR0
 6249 2da4 000040E3 		movt	r0, #:upper16:.LC2
 6250 2da8 671100E3 		movw	r1, #359
 6251 2dac FEFFFFEB 		bl	__assert_func
 6252              	.L1762:
 6253 2db0 003000E3 		movw	r3, #:lower16:.LC1
 6254 2db4 002000E3 		movw	r2, #:lower16:.LANCHOR0
 6255 2db8 000000E3 		movw	r0, #:lower16:.LC2
 6256 2dbc 003040E3 		movt	r3, #:upper16:.LC1
 6257 2dc0 002040E3 		movt	r2, #:upper16:.LANCHOR0
 6258 2dc4 000040E3 		movt	r0, #:upper16:.LC2
 6259 2dc8 661100E3 		movw	r1, #358
 6260 2dcc FEFFFFEB 		bl	__assert_func
 6261              	.LEHE77:
 6262              	.L939:
 6263              	.LEHB78:
 6264 2dd0 FEFFFFEB 		bl	abort
 6265              	.LEHE78:
 6266              	.L1787:
 6267              	.LEHB79:
 6268 2dd4 FEFFFFEB 		bl	abort
 6269              	.LEHE79:
 6270              	.L928:
 6271              	.LEHB80:
 6272 2dd8 FEFFFFEB 		bl	abort
 6273              	.LEHE80:
 6274              	.L961:
 6275 2ddc 0030A0E3 		mov	r3, #0
 6276 2de0 34318DE5 		str	r3, [sp, #308]
 6277 2de4 69FEFFEA 		b	.L1313
 6278              	.L1452:
 6279 2de8 60819DE5 		ldr	r8, [sp, #352]
 6280              	.L989:
 6281 2dec 050058E3 		cmp	r8, #5
 6282 2df0 02FCFFDA 		ble	.L930
 6283 2df4 64019DE5 		ldr	r0, [sp, #356]
 6284 2df8 000050E3 		cmp	r0, #0
 6285 2dfc FFFBFF0A 		beq	.L930
 6286 2e00 FEFFFFEB 		bl	_ZdaPv
 6287 2e04 FDFBFFEA 		b	.L930
 6288              	.L1802:
 6289              	.LEHB81:
 6290 2e08 FEFFFFEB 		bl	abort
 6291              	.L1801:
 6292 2e0c FEFFFFEB 		bl	abort
 6293              	.L1811:
 6294 2e10 003000E3 		movw	r3, #:lower16:.LC3
 6295 2e14 002000E3 		movw	r2, #:lower16:.LANCHOR0
 6296 2e18 000000E3 		movw	r0, #:lower16:.LC2
 6297 2e1c 003040E3 		movt	r3, #:upper16:.LC3
 6298 2e20 002040E3 		movt	r2, #:upper16:.LANCHOR0
 6299 2e24 000040E3 		movt	r0, #:upper16:.LC2
 6300 2e28 671100E3 		movw	r1, #359
 6301 2e2c FEFFFFEB 		bl	__assert_func
 6302              	.L1810:
 6303 2e30 003000E3 		movw	r3, #:lower16:.LC1
 6304 2e34 002000E3 		movw	r2, #:lower16:.LANCHOR0
 6305 2e38 000000E3 		movw	r0, #:lower16:.LC2
 6306 2e3c 003040E3 		movt	r3, #:upper16:.LC1
 6307 2e40 002040E3 		movt	r2, #:upper16:.LANCHOR0
 6308 2e44 000040E3 		movt	r0, #:upper16:.LC2
 6309 2e48 661100E3 		movw	r1, #358
 6310 2e4c FEFFFFEB 		bl	__assert_func
 6311              	.LEHE81:
 6312              	.L1767:
 6313 2e50 003000E3 		movw	r3, #:lower16:.LC3
 6314 2e54 002000E3 		movw	r2, #:lower16:.LANCHOR0
 6315 2e58 000000E3 		movw	r0, #:lower16:.LC2
 6316 2e5c 003040E3 		movt	r3, #:upper16:.LC3
 6317 2e60 002040E3 		movt	r2, #:upper16:.LANCHOR0
 6318 2e64 000040E3 		movt	r0, #:upper16:.LC2
 6319 2e68 671100E3 		movw	r1, #359
 6320              	.LEHB82:
 6321 2e6c FEFFFFEB 		bl	__assert_func
 6322              	.L1766:
 6323 2e70 003000E3 		movw	r3, #:lower16:.LC1
 6324 2e74 002000E3 		movw	r2, #:lower16:.LANCHOR0
 6325 2e78 000000E3 		movw	r0, #:lower16:.LC2
 6326 2e7c 003040E3 		movt	r3, #:upper16:.LC1
 6327 2e80 002040E3 		movt	r2, #:upper16:.LANCHOR0
 6328 2e84 000040E3 		movt	r0, #:upper16:.LC2
 6329 2e88 661100E3 		movw	r1, #358
 6330 2e8c FEFFFFEB 		bl	__assert_func
 6331              	.LEHE82:
 6332              	.L1772:
 6333              	.LEHB83:
 6334 2e90 FEFFFFEB 		bl	abort
 6335              	.L1771:
 6336 2e94 FEFFFFEB 		bl	abort
 6337              	.LEHE83:
 6338              	.L1440:
 6339 2e98 C4FBFFEA 		b	.L1302
 6340              	.L1770:
 6341              	.LEHB84:
 6342 2e9c FEFFFFEB 		bl	abort
 6343              	.LEHE84:
 6344              	.L1439:
 6345 2ea0 C9FBFFEA 		b	.L1304
 6346              	.L1769:
 6347              	.LEHB85:
 6348 2ea4 FEFFFFEB 		bl	abort
 6349              	.LEHE85:
 6350              	.L1446:
 6351 2ea8 CFFFFFEA 		b	.L989
 6352              	.L1777:
 6353              	.LEHB86:
 6354 2eac FEFFFFEB 		bl	abort
 6355              	.LEHE86:
 6356              	.L1796:
 6357              	.LEHB87:
 6358 2eb0 FEFFFFEB 		bl	abort
 6359              	.LEHE87:
 6360              	.L1437:
 6361 2eb4 8AFFFFEA 		b	.L1308
 6362              	.L1773:
 6363              	.LEHB88:
 6364 2eb8 FEFFFFEB 		bl	abort
 6365              	.LEHE88:
 6366              	.L1788:
 6367              	.LEHB89:
 6368 2ebc FEFFFFEB 		bl	abort
 6369              	.LEHE89:
 6370              	.L1795:
 6371              	.LEHB90:
 6372 2ec0 FEFFFFEB 		bl	abort
 6373              	.LEHE90:
 6374              	.L1436:
 6375 2ec4 8DFFFFEA 		b	.L1310
 6376              	.L1450:
 6377 2ec8 CBFBFFEA 		b	.L1686
 6378              	.L998:
 6379              	.LEHB91:
 6380 2ecc FEFFFFEB 		bl	abort
 6381              	.LEHE91:
 6382              	.L1753:
 6383              	.LEHB92:
 6384 2ed0 FEFFFFEB 		bl	abort
 6385              	.LEHE92:
 6386              	.L1445:
 6387 2ed4 050056E3 		cmp	r6, #5
 6388 2ed8 ADFBFFDA 		ble	.L1179
 6389 2edc 4DFFFFEA 		b	.L1736
 6390              	.L1442:
 6391 2ee0 7FFFFFEA 		b	.L1308
 6392              	.L1752:
 6393              	.LEHB93:
 6394 2ee4 FEFFFFEB 		bl	abort
 6395              	.LEHE93:
 6396              	.L1441:
 6397 2ee8 84FFFFEA 		b	.L1310
 6398              	.L1751:
 6399              	.LEHB94:
 6400 2eec FEFFFFEB 		bl	abort
 6401              	.LEHE94:
 6402              	.L1432:
 6403              	.L1290:
 6404 2ef0 38319DE5 		ldr	r3, [sp, #312]
 6405 2ef4 050053E3 		cmp	r3, #5
 6406 2ef8 BAFBFFDA 		ble	.L1311
 6407 2efc 3C019DE5 		ldr	r0, [sp, #316]
 6408 2f00 000050E3 		cmp	r0, #0
 6409 2f04 B6FBFF1A 		bne	.L1697
 6410 2f08 B6FBFFEA 		b	.L1311
 6411              	.L1433:
 6412 2f0c 60319DE5 		ldr	r3, [sp, #352]
 6413 2f10 050053E3 		cmp	r3, #5
 6414 2f14 F5FFFFDA 		ble	.L1290
 6415 2f18 64019DE5 		ldr	r0, [sp, #356]
 6416 2f1c 000050E3 		cmp	r0, #0
 6417 2f20 F2FFFF0A 		beq	.L1290
 6418 2f24 FEFFFFEB 		bl	_ZdaPv
 6419 2f28 F0FFFFEA 		b	.L1290
 6420              		.personality	__gxx_personality_v0
 6421              		.handlerdata
 6422              	.LLSDA4269:
 6423 0008 FF       		.byte	0xff
 6424 0009 FF       		.byte	0xff
 6425 000a 01       		.byte	0x1
 6426 000b CC02     		.uleb128 .LLSDACSE4269-.LLSDACSB4269
 6427              	.LLSDACSB4269:
 6428 000d 9001     		.uleb128 .LEHB39-.LFB4269
 6429 000f 04       		.uleb128 .LEHE39-.LEHB39
 6430 0010 00       		.uleb128 0
 6431 0011 00       		.uleb128 0
 6432 0012 9C01     		.uleb128 .LEHB40-.LFB4269
 6433 0014 04       		.uleb128 .LEHE40-.LEHB40
 6434 0015 F05D     		.uleb128 .L1432-.LFB4269
 6435 0017 00       		.uleb128 0
 6436 0018 AC01     		.uleb128 .LEHB41-.LFB4269
 6437 001a 04       		.uleb128 .LEHE41-.LEHB41
 6438 001b 8C5E     		.uleb128 .L1433-.LFB4269
 6439 001d 00       		.uleb128 0
 6440 001e 8802     		.uleb128 .LEHB42-.LFB4269
 6441 0020 04       		.uleb128 .LEHE42-.LEHB42
 6442 0021 00       		.uleb128 0
 6443 0022 00       		.uleb128 0
 6444 0023 A402     		.uleb128 .LEHB43-.LFB4269
 6445 0025 04       		.uleb128 .LEHE43-.LEHB43
 6446 0026 E85D     		.uleb128 .L1441-.LFB4269
 6447 0028 00       		.uleb128 0
 6448 0029 C002     		.uleb128 .LEHB44-.LFB4269
 6449 002b 04       		.uleb128 .LEHE44-.LEHB44
 6450 002c E05D     		.uleb128 .L1442-.LFB4269
 6451 002e 00       		.uleb128 0
 6452 002f B810     		.uleb128 .LEHB45-.LFB4269
 6453 0031 04       		.uleb128 .LEHE45-.LEHB45
 6454 0032 00       		.uleb128 0
 6455 0033 00       		.uleb128 0
 6456 0034 D410     		.uleb128 .LEHB46-.LFB4269
 6457 0036 04       		.uleb128 .LEHE46-.LEHB46
 6458 0037 A05D     		.uleb128 .L1439-.LFB4269
 6459 0039 00       		.uleb128 0
 6460 003a F010     		.uleb128 .LEHB47-.LFB4269
 6461 003c 04       		.uleb128 .LEHE47-.LEHB47
 6462 003d 985D     		.uleb128 .L1440-.LFB4269
 6463 003f 00       		.uleb128 0
 6464 0040 EC11     		.uleb128 .LEHB48-.LFB4269
 6465 0042 04       		.uleb128 .LEHE48-.LEHB48
 6466 0043 EC3B     		.uleb128 .L1447-.LFB4269
 6467 0045 00       		.uleb128 0
 6468 0046 D412     		.uleb128 .LEHB49-.LFB4269
 6469 0048 04       		.uleb128 .LEHE49-.LEHB49
 6470 0049 F83A     		.uleb128 .L1453-.LFB4269
 6471 004b 00       		.uleb128 0
 6472 004c D016     		.uleb128 .LEHB50-.LFB4269
 6473 004e 04       		.uleb128 .LEHE50-.LEHB50
 6474 004f EC3B     		.uleb128 .L1447-.LFB4269
 6475 0051 00       		.uleb128 0
 6476 0052 B822     		.uleb128 .LEHB51-.LFB4269
 6477 0054 04       		.uleb128 .LEHE51-.LEHB51
 6478 0055 00       		.uleb128 0
 6479 0056 00       		.uleb128 0
 6480 0057 D422     		.uleb128 .LEHB52-.LFB4269
 6481 0059 04       		.uleb128 .LEHE52-.LEHB52
 6482 005a B85A     		.uleb128 .L1434-.LFB4269
 6483 005c 00       		.uleb128 0
 6484 005d F022     		.uleb128 .LEHB53-.LFB4269
 6485 005f 04       		.uleb128 .LEHE53-.LEHB53
 6486 0060 B05A     		.uleb128 .L1435-.LFB4269
 6487 0062 00       		.uleb128 0
 6488 0063 DC23     		.uleb128 .LEHB54-.LFB4269
 6489 0065 04       		.uleb128 .LEHE54-.LEHB54
 6490 0066 F03B     		.uleb128 .L1444-.LFB4269
 6491 0068 00       		.uleb128 0
 6492 0069 D824     		.uleb128 .LEHB55-.LFB4269
 6493 006b 04       		.uleb128 .LEHE55-.LEHB55
 6494 006c FC3B     		.uleb128 .L1451-.LFB4269
 6495 006e 00       		.uleb128 0
 6496 006f CC28     		.uleb128 .LEHB56-.LFB4269
 6497 0071 04       		.uleb128 .LEHE56-.LEHB56
 6498 0072 F03B     		.uleb128 .L1444-.LFB4269
 6499 0074 00       		.uleb128 0
 6500 0075 F82C     		.uleb128 .LEHB57-.LFB4269
 6501 0077 04       		.uleb128 .LEHE57-.LEHB57
 6502 0078 00       		.uleb128 0
 6503 0079 00       		.uleb128 0
 6504 007a 942D     		.uleb128 .LEHB58-.LFB4269
 6505 007c 04       		.uleb128 .LEHE58-.LEHB58
 6506 007d C45D     		.uleb128 .L1436-.LFB4269
 6507 007f 00       		.uleb128 0
 6508 0080 B02D     		.uleb128 .LEHB59-.LFB4269
 6509 0082 04       		.uleb128 .LEHE59-.LEHB59
 6510 0083 B45D     		.uleb128 .L1437-.LFB4269
 6511 0085 00       		.uleb128 0
 6512 0086 E83B     		.uleb128 .LEHB60-.LFB4269
 6513 0088 04       		.uleb128 .LEHE60-.LEHB60
 6514 0089 00       		.uleb128 0
 6515 008a 00       		.uleb128 0
 6516 008b F03D     		.uleb128 .LEHB61-.LFB4269
 6517 008d 04       		.uleb128 .LEHE61-.LEHB61
 6518 008e E857     		.uleb128 .L1449-.LFB4269
 6519 0090 00       		.uleb128 0
 6520 0091 C84F     		.uleb128 .LEHB62-.LFB4269
 6521 0093 A401     		.uleb128 .LEHE62-.LEHB62
 6522 0095 EC3B     		.uleb128 .L1447-.LFB4269
 6523 0097 00       		.uleb128 0
 6524 0098 E852     		.uleb128 .LEHB63-.LFB4269
 6525 009a 04       		.uleb128 .LEHE63-.LEHB63
 6526 009b A85D     		.uleb128 .L1446-.LFB4269
 6527 009d 00       		.uleb128 0
 6528 009e CC55     		.uleb128 .LEHB64-.LFB4269
 6529 00a0 BC01     		.uleb128 .LEHE64-.LEHB64
 6530 00a2 F03B     		.uleb128 .L1444-.LFB4269
 6531 00a4 00       		.uleb128 0
 6532 00a5 8458     		.uleb128 .LEHB65-.LFB4269
 6533 00a7 04       		.uleb128 .LEHE65-.LEHB65
 6534 00a8 C45D     		.uleb128 .L1436-.LFB4269
 6535 00aa 00       		.uleb128 0
 6536 00ab 8858     		.uleb128 .LEHB66-.LFB4269
 6537 00ad 04       		.uleb128 .LEHE66-.LEHB66
 6538 00ae 9058     		.uleb128 .L1448-.LFB4269
 6539 00b0 00       		.uleb128 0
 6540 00b1 8C58     		.uleb128 .LEHB67-.LFB4269
 6541 00b3 04       		.uleb128 .LEHE67-.LEHB67
 6542 00b4 F03B     		.uleb128 .L1444-.LFB4269
 6543 00b6 00       		.uleb128 0
 6544 00b7 A858     		.uleb128 .LEHB68-.LFB4269
 6545 00b9 04       		.uleb128 .LEHE68-.LEHB68
 6546 00ba E857     		.uleb128 .L1449-.LFB4269
 6547 00bc 00       		.uleb128 0
 6548 00bd AC58     		.uleb128 .LEHB69-.LFB4269
 6549 00bf 04       		.uleb128 .LEHE69-.LEHB69
 6550 00c0 B459     		.uleb128 .L1454-.LFB4269
 6551 00c2 00       		.uleb128 0
 6552 00c3 CC58     		.uleb128 .LEHB70-.LFB4269
 6553 00c5 7C       		.uleb128 .LEHE70-.LEHB70
 6554 00c6 C859     		.uleb128 .L1438-.LFB4269
 6555 00c8 00       		.uleb128 0
 6556 00c9 9C5A     		.uleb128 .LEHB71-.LFB4269
 6557 00cb 14       		.uleb128 .LEHE71-.LEHB71
 6558 00cc A45A     		.uleb128 .L1443-.LFB4269
 6559 00ce 00       		.uleb128 0
 6560 00cf B45A     		.uleb128 .LEHB72-.LFB4269
 6561 00d1 04       		.uleb128 .LEHE72-.LEHB72
 6562 00d2 B05A     		.uleb128 .L1435-.LFB4269
 6563 00d4 00       		.uleb128 0
 6564 00d5 BC5A     		.uleb128 .LEHB73-.LFB4269
 6565 00d7 04       		.uleb128 .LEHE73-.LEHB73
 6566 00d8 B85A     		.uleb128 .L1434-.LFB4269
 6567 00da 00       		.uleb128 0
 6568 00db C05A     		.uleb128 .LEHB74-.LFB4269
 6569 00dd 08       		.uleb128 .LEHE74-.LEHB74
 6570 00de A45A     		.uleb128 .L1443-.LFB4269
 6571 00e0 00       		.uleb128 0
 6572 00e1 C85A     		.uleb128 .LEHB75-.LFB4269
 6573 00e3 04       		.uleb128 .LEHE75-.LEHB75
 6574 00e4 E857     		.uleb128 .L1449-.LFB4269
 6575 00e6 00       		.uleb128 0
 6576 00e7 CC5A     		.uleb128 .LEHB76-.LFB4269
 6577 00e9 04       		.uleb128 .LEHE76-.LEHB76
 6578 00ea A85D     		.uleb128 .L1446-.LFB4269
 6579 00ec 00       		.uleb128 0
 6580 00ed EC5A     		.uleb128 .LEHB77-.LFB4269
 6581 00ef 64       		.uleb128 .LEHE77-.LEHB77
 6582 00f0 A45A     		.uleb128 .L1443-.LFB4269
 6583 00f2 00       		.uleb128 0
 6584 00f3 D05B     		.uleb128 .LEHB78-.LFB4269
 6585 00f5 04       		.uleb128 .LEHE78-.LEHB78
 6586 00f6 A85D     		.uleb128 .L1446-.LFB4269
 6587 00f8 00       		.uleb128 0
 6588 00f9 D45B     		.uleb128 .LEHB79-.LFB4269
 6589 00fb 04       		.uleb128 .LEHE79-.LEHB79
 6590 00fc F03B     		.uleb128 .L1444-.LFB4269
 6591 00fe 00       		.uleb128 0
 6592 00ff D85B     		.uleb128 .LEHB80-.LFB4269
 6593 0101 04       		.uleb128 .LEHE80-.LEHB80
 6594 0102 E85B     		.uleb128 .L1452-.LFB4269
 6595 0104 00       		.uleb128 0
 6596 0105 885C     		.uleb128 .LEHB81-.LFB4269
 6597 0107 48       		.uleb128 .LEHE81-.LEHB81
 6598 0108 C859     		.uleb128 .L1438-.LFB4269
 6599 010a 00       		.uleb128 0
 6600 010b EC5C     		.uleb128 .LEHB82-.LFB4269
 6601 010d 24       		.uleb128 .LEHE82-.LEHB82
 6602 010e A45A     		.uleb128 .L1443-.LFB4269
 6603 0110 00       		.uleb128 0
 6604 0111 905D     		.uleb128 .LEHB83-.LFB4269
 6605 0113 08       		.uleb128 .LEHE83-.LEHB83
 6606 0114 EC3B     		.uleb128 .L1447-.LFB4269
 6607 0116 00       		.uleb128 0
 6608 0117 9C5D     		.uleb128 .LEHB84-.LFB4269
 6609 0119 04       		.uleb128 .LEHE84-.LEHB84
 6610 011a 985D     		.uleb128 .L1440-.LFB4269
 6611 011c 00       		.uleb128 0
 6612 011d A45D     		.uleb128 .LEHB85-.LFB4269
 6613 011f 04       		.uleb128 .LEHE85-.LEHB85
 6614 0120 A05D     		.uleb128 .L1439-.LFB4269
 6615 0122 00       		.uleb128 0
 6616 0123 AC5D     		.uleb128 .LEHB86-.LFB4269
 6617 0125 04       		.uleb128 .LEHE86-.LEHB86
 6618 0126 EC3B     		.uleb128 .L1447-.LFB4269
 6619 0128 00       		.uleb128 0
 6620 0129 B05D     		.uleb128 .LEHB87-.LFB4269
 6621 012b 04       		.uleb128 .LEHE87-.LEHB87
 6622 012c C859     		.uleb128 .L1438-.LFB4269
 6623 012e 00       		.uleb128 0
 6624 012f B85D     		.uleb128 .LEHB88-.LFB4269
 6625 0131 04       		.uleb128 .LEHE88-.LEHB88
 6626 0132 EC3B     		.uleb128 .L1447-.LFB4269
 6627 0134 00       		.uleb128 0
 6628 0135 BC5D     		.uleb128 .LEHB89-.LFB4269
 6629 0137 04       		.uleb128 .LEHE89-.LEHB89
 6630 0138 C85D     		.uleb128 .L1450-.LFB4269
 6631 013a 00       		.uleb128 0
 6632 013b C05D     		.uleb128 .LEHB90-.LFB4269
 6633 013d 04       		.uleb128 .LEHE90-.LEHB90
 6634 013e B45D     		.uleb128 .L1437-.LFB4269
 6635 0140 00       		.uleb128 0
 6636 0141 CC5D     		.uleb128 .LEHB91-.LFB4269
 6637 0143 04       		.uleb128 .LEHE91-.LEHB91
 6638 0144 D45D     		.uleb128 .L1445-.LFB4269
 6639 0146 00       		.uleb128 0
 6640 0147 D05D     		.uleb128 .LEHB92-.LFB4269
 6641 0149 04       		.uleb128 .LEHE92-.LEHB92
 6642 014a A45A     		.uleb128 .L1443-.LFB4269
 6643 014c 00       		.uleb128 0
 6644 014d E45D     		.uleb128 .LEHB93-.LFB4269
 6645 014f 04       		.uleb128 .LEHE93-.LEHB93
 6646 0150 E05D     		.uleb128 .L1442-.LFB4269
 6647 0152 00       		.uleb128 0
 6648 0153 EC5D     		.uleb128 .LEHB94-.LFB4269
 6649 0155 04       		.uleb128 .LEHE94-.LEHB94
 6650 0156 E85D     		.uleb128 .L1441-.LFB4269
 6651 0158 00       		.uleb128 0
 6652              	.LLSDACSE4269:
 6653              		.section	.text._ZN6tflite3ops5micro3sub16EvalSubQuantizedEP13TfLiteContextP10TfLiteNodeP15TfLiteSu
 6654              		.fnend
 6656              		.section	.text._ZN6tflite3ops5micro3sub4EvalEP13TfLiteContextP10TfLiteNode,"ax",%progbits
 6657              		.align	2
 6658              		.global	_ZN6tflite3ops5micro3sub4EvalEP13TfLiteContextP10TfLiteNode
 6659              		.syntax unified
 6660              		.arm
 6661              		.fpu neon
 6663              	_ZN6tflite3ops5micro3sub4EvalEP13TfLiteContextP10TfLiteNode:
 6664              		.fnstart
 6665              	.LFB4270:
 6666              		@ args = 0, pretend = 0, frame = 0
 6667              		@ frame_needed = 0, uses_anonymous_args = 0
 6668 0000 F0412DE9 		push	{r4, r5, r6, r7, r8, lr}
 6669              		.save {r4, r5, r6, r7, r8, lr}
 6670 0004 005050E2 		subs	r5, r0, #0
 6671              		.pad #16
 6672 0008 10D04DE2 		sub	sp, sp, #16
 6673 000c 146091E5 		ldr	r6, [r1, #20]
 6674 0010 2C00000A 		beq	.L1827
 6675 0014 002091E5 		ldr	r2, [r1]
 6676 0018 0140A0E1 		mov	r4, r1
 6677 001c 543095E5 		ldr	r3, [r5, #84]
 6678 0020 041092E5 		ldr	r1, [r2, #4]
 6679 0024 33FF2FE1 		blx	r3
 6680 0028 002094E5 		ldr	r2, [r4]
 6681 002c 0070A0E1 		mov	r7, r0
 6682 0030 543095E5 		ldr	r3, [r5, #84]
