   1              		.cpu cortex-a9
   2              		.eabi_attribute 28, 1
   3              		.eabi_attribute 20, 1
   4              		.eabi_attribute 21, 1
   5              		.eabi_attribute 23, 3
   6              		.eabi_attribute 24, 1
   7              		.eabi_attribute 25, 1
   8              		.eabi_attribute 26, 1
   9              		.eabi_attribute 30, 1
  10              		.eabi_attribute 34, 0
  11              		.eabi_attribute 18, 4
  12              		.file	"hwsetup_userdef.c"
  13              		.text
  14              	.Ltext0:
  15              		.cfi_sections	.debug_frame
  16              		.section	.text.Userdef_PreHardwareSetup,"ax",%progbits
  17              		.align	2
  18              		.weak	Userdef_PreHardwareSetup
  19              		.syntax unified
  20              		.arm
  21              		.fpu neon
  23              	Userdef_PreHardwareSetup:
  24              	.LFB4:
  25              		.file 1 "../src/renesas/hwsetup/hwsetup_userdef.c"
   1:../src/renesas/hwsetup/hwsetup_userdef.c **** /**************************************************************************************************
   2:../src/renesas/hwsetup/hwsetup_userdef.c ****  * DISCLAIMER
   3:../src/renesas/hwsetup/hwsetup_userdef.c ****  * This software is supplied by Renesas Electronics Corporation and is only intended for use with R
   4:../src/renesas/hwsetup/hwsetup_userdef.c ****  * other uses are authorized. This software is owned by Renesas Electronics Corporation and is prot
   5:../src/renesas/hwsetup/hwsetup_userdef.c ****  * applicable laws, including copyright laws.
   6:../src/renesas/hwsetup/hwsetup_userdef.c ****  * THIS SOFTWARE IS PROVIDED "AS IS" AND RENESAS MAKES NO WARRANTIES REGARDING
   7:../src/renesas/hwsetup/hwsetup_userdef.c ****  * THIS SOFTWARE, WHETHER EXPRESS, IMPLIED OR STATUTORY, INCLUDING BUT NOT LIMITED TO WARRANTIES OF
   8:../src/renesas/hwsetup/hwsetup_userdef.c ****  * FITNESS FOR A PARTICULAR PURPOSE AND NON-INFRINGEMENT. ALL SUCH WARRANTIES ARE EXPRESSLY DISCLAI
   9:../src/renesas/hwsetup/hwsetup_userdef.c ****  * EXTENT PERMITTED NOT PROHIBITED BY LAW, NEITHER RENESAS ELECTRONICS CORPORATION NOR ANY OF ITS A
  10:../src/renesas/hwsetup/hwsetup_userdef.c ****  * SHALL BE LIABLE FOR ANY DIRECT, INDIRECT, SPECIAL, INCIDENTAL OR CONSEQUENTIAL DAMAGES FOR ANY R
  11:../src/renesas/hwsetup/hwsetup_userdef.c ****  * THIS SOFTWARE, EVEN IF RENESAS OR ITS AFFILIATES HAVE BEEN ADVISED OF THE POSSIBILITY OF SUCH DA
  12:../src/renesas/hwsetup/hwsetup_userdef.c ****  * Renesas reserves the right, without notice, to make changes to this software and to discontinue 
  13:../src/renesas/hwsetup/hwsetup_userdef.c ****  * this software. By using this software, you agree to the additional terms and conditions found by
  14:../src/renesas/hwsetup/hwsetup_userdef.c ****  * following link:
  15:../src/renesas/hwsetup/hwsetup_userdef.c ****  * http://www.renesas.com/disclaimer
  16:../src/renesas/hwsetup/hwsetup_userdef.c ****  *
  17:../src/renesas/hwsetup/hwsetup_userdef.c ****  * Copyright (C) 2019 Renesas Electronics Corporation. All rights reserved.
  18:../src/renesas/hwsetup/hwsetup_userdef.c ****  **************************************************************************************************
  19:../src/renesas/hwsetup/hwsetup_userdef.c **** /**************************************************************************************************
  20:../src/renesas/hwsetup/hwsetup_userdef.c ****  * File Name    : hwsetup_userdef.c
  21:../src/renesas/hwsetup/hwsetup_userdef.c ****  * Version      : 1.0
  22:../src/renesas/hwsetup/hwsetup_userdef.c ****  * Description  : .
  23:../src/renesas/hwsetup/hwsetup_userdef.c ****  **************************************************************************************************
  24:../src/renesas/hwsetup/hwsetup_userdef.c **** /**************************************************************************************************
  25:../src/renesas/hwsetup/hwsetup_userdef.c ****  * History : DD.MM.YYYY Version  Description
  26:../src/renesas/hwsetup/hwsetup_userdef.c ****  *         : 29.08.2019 1.00     First Release
  27:../src/renesas/hwsetup/hwsetup_userdef.c ****  **************************************************************************************************
  28:../src/renesas/hwsetup/hwsetup_userdef.c **** 
  29:../src/renesas/hwsetup/hwsetup_userdef.c **** /**************************************************************************************************
  30:../src/renesas/hwsetup/hwsetup_userdef.c ****  Includes   <System Includes> , "Project Includes"
  31:../src/renesas/hwsetup/hwsetup_userdef.c ****  **************************************************************************************************
  32:../src/renesas/hwsetup/hwsetup_userdef.c **** #include "r_typedefs.h"
  33:../src/renesas/hwsetup/hwsetup_userdef.c **** #include "iodefine.h"
  34:../src/renesas/hwsetup/hwsetup_userdef.c **** #include "iobitmask.h"
  35:../src/renesas/hwsetup/hwsetup_userdef.c **** #include "rza_io_regrw.h"
  36:../src/renesas/hwsetup/hwsetup_userdef.c **** #include "r_cpg_drv_api.h"
  37:../src/renesas/hwsetup/hwsetup_userdef.c **** #include "hwsetup.h"
  38:../src/renesas/hwsetup/hwsetup_userdef.c **** 
  39:../src/renesas/hwsetup/hwsetup_userdef.c **** /**************************************************************************************************
  40:../src/renesas/hwsetup/hwsetup_userdef.c ****  Macro definitions
  41:../src/renesas/hwsetup/hwsetup_userdef.c ****  **************************************************************************************************
  42:../src/renesas/hwsetup/hwsetup_userdef.c **** /* Comment it if you does not need to use pre hardware setup function */
  43:../src/renesas/hwsetup/hwsetup_userdef.c **** #define R_PRV_USE_PRE_HWSETUP
  44:../src/renesas/hwsetup/hwsetup_userdef.c **** 
  45:../src/renesas/hwsetup/hwsetup_userdef.c **** /* Comment it if you does not need to use post hardware setup function */
  46:../src/renesas/hwsetup/hwsetup_userdef.c **** #define R_PRV_USE_POST_HWSETUP
  47:../src/renesas/hwsetup/hwsetup_userdef.c **** 
  48:../src/renesas/hwsetup/hwsetup_userdef.c **** /**************************************************************************************************
  49:../src/renesas/hwsetup/hwsetup_userdef.c ****  Local Typedef definitions
  50:../src/renesas/hwsetup/hwsetup_userdef.c ****  **************************************************************************************************
  51:../src/renesas/hwsetup/hwsetup_userdef.c **** 
  52:../src/renesas/hwsetup/hwsetup_userdef.c **** /**************************************************************************************************
  53:../src/renesas/hwsetup/hwsetup_userdef.c ****  Exported global variables
  54:../src/renesas/hwsetup/hwsetup_userdef.c ****  **************************************************************************************************
  55:../src/renesas/hwsetup/hwsetup_userdef.c **** 
  56:../src/renesas/hwsetup/hwsetup_userdef.c **** /**************************************************************************************************
  57:../src/renesas/hwsetup/hwsetup_userdef.c ****  Private (static) variables and functions
  58:../src/renesas/hwsetup/hwsetup_userdef.c ****  **************************************************************************************************
  59:../src/renesas/hwsetup/hwsetup_userdef.c **** 
  60:../src/renesas/hwsetup/hwsetup_userdef.c **** /**************************************************************************************************
  61:../src/renesas/hwsetup/hwsetup_userdef.c ****  * Function Name: Userdef_PreHardwareSetup
  62:../src/renesas/hwsetup/hwsetup_userdef.c ****  * Description  : User defined hardware setup called earlier of R_SC_HardwareSetup.
  63:../src/renesas/hwsetup/hwsetup_userdef.c ****  * Arguments    : None.
  64:../src/renesas/hwsetup/hwsetup_userdef.c ****  * Return Value : None.
  65:../src/renesas/hwsetup/hwsetup_userdef.c ****  **************************************************************************************************
  66:../src/renesas/hwsetup/hwsetup_userdef.c **** #if defined(R_PRV_USE_PRE_HWSETUP)
  67:../src/renesas/hwsetup/hwsetup_userdef.c **** void Userdef_PreHardwareSetup(void)
  68:../src/renesas/hwsetup/hwsetup_userdef.c **** {
  26              		.loc 1 68 0
  27              		.cfi_startproc
  28              		@ args = 0, pretend = 0, frame = 0
  29              		@ frame_needed = 0, uses_anonymous_args = 0
  30 0000 10402DE9 		push	{r4, lr}
  31              		.cfi_def_cfa_offset 8
  32              		.cfi_offset 4, -8
  33              		.cfi_offset 14, -4
  69:../src/renesas/hwsetup/hwsetup_userdef.c ****     /* If the IOKEEP is 1, then clear to 0. */
  70:../src/renesas/hwsetup/hwsetup_userdef.c ****     if(1 == RZA_IO_RegRead_16(&PMG.DSFR.WORD, PMG_DSFR_IOKEEP_SHIFT, PMG_DSFR_IOKEEP))
  34              		.loc 1 70 0
  35 0004 0229A0E3 		mov	r2, #32768
  36 0008 0F10A0E3 		mov	r1, #15
  37 000c 08000CE3 		movw	r0, #49160
  38 0010 FF0C4FE3 		movt	r0, 64767
  39 0014 FEFFFFEB 		bl	RZA_IO_RegRead_16
  40              	.LVL0:
  41 0018 010050E3 		cmp	r0, #1
  42 001c 1080BD18 		popne	{r4, pc}
  71:../src/renesas/hwsetup/hwsetup_userdef.c ****     {
  72:../src/renesas/hwsetup/hwsetup_userdef.c ****         /* Clear IOKEEP bit */
  73:../src/renesas/hwsetup/hwsetup_userdef.c ****         RZA_IO_RegWrite_16(&PMG.DSFR.WORD, 0, PMG_DSFR_IOKEEP_SHIFT, PMG_DSFR_IOKEEP);
  43              		.loc 1 73 0
  44 0020 08400CE3 		movw	r4, #49160
  45 0024 FF4C4FE3 		movt	r4, 64767
  46 0028 0239A0E3 		mov	r3, #32768
  47 002c 0F20A0E3 		mov	r2, #15
  48 0030 0010A0E3 		mov	r1, #0
  49 0034 0400A0E1 		mov	r0, r4
  50 0038 FEFFFFEB 		bl	RZA_IO_RegWrite_16
  51              	.LVL1:
  74:../src/renesas/hwsetup/hwsetup_userdef.c **** 
  75:../src/renesas/hwsetup/hwsetup_userdef.c ****         /* dummy read*/
  76:../src/renesas/hwsetup/hwsetup_userdef.c ****         RZA_IO_RegRead_16(&PMG.DSFR.WORD, IOREG_NONSHIFT_ACCESS, IOREG_NONMASK_ACCESS);
  52              		.loc 1 76 0
  53 003c 0020E0E3 		mvn	r2, #0
  54 0040 0010A0E3 		mov	r1, #0
  55 0044 0400A0E1 		mov	r0, r4
  56 0048 FEFFFFEB 		bl	RZA_IO_RegRead_16
  57              	.LVL2:
  58 004c 1080BDE8 		pop	{r4, pc}
  59              		.cfi_endproc
  60              	.LFE4:
  62              		.section	.text.Userdef_PostHardwareSetup,"ax",%progbits
  63              		.align	2
  64              		.weak	Userdef_PostHardwareSetup
  65              		.syntax unified
  66              		.arm
  67              		.fpu neon
  69              	Userdef_PostHardwareSetup:
  70              	.LFB5:
  77:../src/renesas/hwsetup/hwsetup_userdef.c ****     }
  78:../src/renesas/hwsetup/hwsetup_userdef.c **** }
  79:../src/renesas/hwsetup/hwsetup_userdef.c **** #endif
  80:../src/renesas/hwsetup/hwsetup_userdef.c **** /**************************************************************************************************
  81:../src/renesas/hwsetup/hwsetup_userdef.c ****  * End of function Userdef_PreHardwareSetup
  82:../src/renesas/hwsetup/hwsetup_userdef.c ****  **************************************************************************************************
  83:../src/renesas/hwsetup/hwsetup_userdef.c **** 
  84:../src/renesas/hwsetup/hwsetup_userdef.c **** /**************************************************************************************************
  85:../src/renesas/hwsetup/hwsetup_userdef.c ****  * Function Name: Userdef_PostHardwareSetup
  86:../src/renesas/hwsetup/hwsetup_userdef.c ****  * Description  : User defined hardware setup called later of R_SC_HardwareSetup.
  87:../src/renesas/hwsetup/hwsetup_userdef.c ****  * Arguments    : None.
  88:../src/renesas/hwsetup/hwsetup_userdef.c ****  * Return Value : None.
  89:../src/renesas/hwsetup/hwsetup_userdef.c ****  **************************************************************************************************
  90:../src/renesas/hwsetup/hwsetup_userdef.c **** #if defined(R_PRV_USE_POST_HWSETUP)
  91:../src/renesas/hwsetup/hwsetup_userdef.c **** void Userdef_PostHardwareSetup(void)
  92:../src/renesas/hwsetup/hwsetup_userdef.c **** {
  71              		.loc 1 92 0
  72              		.cfi_startproc
  73              		@ args = 0, pretend = 0, frame = 0
  74              		@ frame_needed = 0, uses_anonymous_args = 0
  75 0000 10402DE9 		push	{r4, lr}
  76              		.cfi_def_cfa_offset 8
  77              		.cfi_offset 4, -8
  78              		.cfi_offset 14, -4
  93:../src/renesas/hwsetup/hwsetup_userdef.c ****     /* Enable write access for the retention RAM (0x8000_0000 ~ 0x8001_FFFF) */
  94:../src/renesas/hwsetup/hwsetup_userdef.c ****     RZA_IO_RegWrite_8(&CPG.SYSCR3.BYTE, 0xf, IOREG_NONSHIFT_ACCESS, IOREG_NONMASK_ACCESS);
  79              		.loc 1 94 0
  80 0004 084400E3 		movw	r4, #1032
  81 0008 FE4C4FE3 		movt	r4, 64766
  82 000c 0030E0E3 		mvn	r3, #0
  83 0010 0020A0E3 		mov	r2, #0
  84 0014 0F10A0E3 		mov	r1, #15
  85 0018 0400A0E1 		mov	r0, r4
  86 001c FEFFFFEB 		bl	RZA_IO_RegWrite_8
  87              	.LVL3:
  95:../src/renesas/hwsetup/hwsetup_userdef.c **** 
  96:../src/renesas/hwsetup/hwsetup_userdef.c ****     /* dummy read*/
  97:../src/renesas/hwsetup/hwsetup_userdef.c ****     RZA_IO_RegRead_8(&CPG.SYSCR3.BYTE, IOREG_NONSHIFT_ACCESS, IOREG_NONMASK_ACCESS);
  88              		.loc 1 97 0
  89 0020 0020E0E3 		mvn	r2, #0
  90 0024 0010A0E3 		mov	r1, #0
  91 0028 0400A0E1 		mov	r0, r4
  92 002c FEFFFFEB 		bl	RZA_IO_RegRead_8
  93              	.LVL4:
  94 0030 1080BDE8 		pop	{r4, pc}
  95              		.cfi_endproc
  96              	.LFE5:
  98              		.text
  99              	.Letext0:
 100              		.file 2 "c:\\program files (x86)\\gnu tools arm embedded\\6 2017-q2-update\\arm-none-eabi\\include
 101              		.file 3 "c:\\program files (x86)\\gnu tools arm embedded\\6 2017-q2-update\\arm-none-eabi\\include
 102              		.file 4 "c:\\program files (x86)\\gnu tools arm embedded\\6 2017-q2-update\\arm-none-eabi\\include
 103              		.file 5 "c:\\program files (x86)\\gnu tools arm embedded\\6 2017-q2-update\\arm-none-eabi\\include
 104              		.file 6 "c:\\program files (x86)\\gnu tools arm embedded\\6 2017-q2-update\\lib\\gcc\\arm-none-eab
 105              		.file 7 "c:\\program files (x86)\\gnu tools arm embedded\\6 2017-q2-update\\arm-none-eabi\\include
 106              		.file 8 "c:\\program files (x86)\\gnu tools arm embedded\\6 2017-q2-update\\arm-none-eabi\\include
 107              		.file 9 "C:/Renesas/e2studio_2021_01_workspace_RZA2M_ANPR/ANPR_RZA2M_GR_MANGO/generate/system/inc/
 108              		.file 10 "C:/Renesas/e2studio_2021_01_workspace_RZA2M_ANPR/ANPR_RZA2M_GR_MANGO/generate/system/iod
 109              		.file 11 "C:/Renesas/e2studio_2021_01_workspace_RZA2M_ANPR/ANPR_RZA2M_GR_MANGO/generate/system/iod
 110              		.file 12 "c:\\program files (x86)\\gnu tools arm embedded\\6 2017-q2-update\\arm-none-eabi\\includ
 111              		.file 13 "c:\\program files (x86)\\gnu tools arm embedded\\6 2017-q2-update\\arm-none-eabi\\includ
 112              		.file 14 "C:/Renesas/e2studio_2021_01_workspace_RZA2M_ANPR/ANPR_RZA2M_GR_MANGO/generate/system/inc
 113              		.file 15 "C:/Renesas/e2studio_2021_01_workspace_RZA2M_ANPR/ANPR_RZA2M_GR_MANGO/generate/drivers/r_
 114              		.file 16 "C:/Renesas/e2studio_2021_01_workspace_RZA2M_ANPR/ANPR_RZA2M_GR_MANGO/generate/system/inc