   1              		.cpu cortex-a9
   2              		.eabi_attribute 28, 1
   3              		.eabi_attribute 20, 1
   4              		.eabi_attribute 21, 1
   5              		.eabi_attribute 23, 3
   6              		.eabi_attribute 24, 1
   7              		.eabi_attribute 25, 1
   8              		.eabi_attribute 26, 1
   9              		.eabi_attribute 30, 2
  10              		.eabi_attribute 34, 0
  11              		.eabi_attribute 18, 4
  12              		.file	"arm_relu_q15.c"
  13              		.section	.text.arm_relu_q15,"ax",%progbits
  14              		.align	2
  15              		.global	arm_relu_q15
  16              		.syntax unified
  17              		.arm
  18              		.fpu neon
  20              	arm_relu_q15:
  21              		@ args = 0, pretend = 0, frame = 16
  22              		@ frame_needed = 0, uses_anonymous_args = 0
  23 0000 F04F2DE9 		push	{r4, r5, r6, r7, r8, r9, r10, fp, lr}
  24 0004 A180B0E1 		lsrs	r8, r1, #1
  25 0008 14D04DE2 		sub	sp, sp, #20
  26 000c 01B0A0E1 		mov	fp, r1
  27 0010 00A0A0E1 		mov	r10, r0
  28 0014 8D00000A 		beq	.L2
  29 0018 019048E2 		sub	r9, r8, #1
  30 001c 7930FFE6 		uxth	r3, r9
  31 0020 070053E3 		cmp	r3, #7
  32 0024 04308DE5 		str	r3, [sp, #4]
  33 0028 9000009A 		bls	.L8
  34 002c 0269A0E3 		mov	r6, #32768
  35 0030 0040A0E1 		mov	r4, r0
  36 0034 006048E3 		movt	r6, 32768
  37 0038 0C508DE2 		add	r5, sp, #12
  38 003c 0070A0E3 		mov	r7, #0
  39              	.L4:
  40 0040 B2C0D4E1 		ldrh	ip, [r4, #2]
  41 0044 0420A0E3 		mov	r2, #4
  42 0048 B030D4E1 		ldrh	r3, [r4]
  43 004c 0510A0E1 		mov	r1, r5
  44 0050 0400A0E1 		mov	r0, r4
  45 0054 24F0D4F5 		pld	[r4, #36]
  46 0058 1C9084E2 		add	r9, r4, #28
  47 005c 0C3883E1 		orr	r3, r3, ip, lsl #16
  48 0060 06C003E0 		and	ip, r3, r6
  49 0064 ECC7A0E1 		ror	ip, ip, #15
  50              		.syntax divided
  51              	@ 1799 "C:/Renesas/e2studio_2021_01_workspace_RZA2M_ANPR/ANPR_RZA2M_GR_MANGO/src/tensorflow_lite/th
  52 0068 7CCF27E6 		qsub16 ip, r7, ip
  53              	@ 0 "" 2
  54              		.arm
  55              		.syntax unified
  56 006c 0C30C3E1 		bic	r3, r3, ip
  57 0070 0C308DE5 		str	r3, [sp, #12]
  58 0074 FEFFFFEB 		bl	memcpy
  59 0078 B6C0D4E1 		ldrh	ip, [r4, #6]
  60 007c 0420A0E3 		mov	r2, #4
  61 0080 B430D4E1 		ldrh	r3, [r4, #4]
  62 0084 020084E0 		add	r0, r4, r2
  63 0088 0510A0E1 		mov	r1, r5
  64 008c 0C3883E1 		orr	r3, r3, ip, lsl #16
  65 0090 06C003E0 		and	ip, r3, r6
  66 0094 ECC7A0E1 		ror	ip, ip, #15
  67              		.syntax divided
  68              	@ 1799 "C:/Renesas/e2studio_2021_01_workspace_RZA2M_ANPR/ANPR_RZA2M_GR_MANGO/src/tensorflow_lite/th
  69 0098 7CCF27E6 		qsub16 ip, r7, ip
  70              	@ 0 "" 2
  71              		.arm
  72              		.syntax unified
  73 009c 0C30C3E1 		bic	r3, r3, ip
  74 00a0 0C308DE5 		str	r3, [sp, #12]
  75 00a4 FEFFFFEB 		bl	memcpy
  76 00a8 BAC0D4E1 		ldrh	ip, [r4, #10]
  77 00ac 0420A0E3 		mov	r2, #4
  78 00b0 B830D4E1 		ldrh	r3, [r4, #8]
  79 00b4 0510A0E1 		mov	r1, r5
  80 00b8 080084E2 		add	r0, r4, #8
  81 00bc 0C3883E1 		orr	r3, r3, ip, lsl #16
  82 00c0 06C003E0 		and	ip, r3, r6
  83 00c4 ECC7A0E1 		ror	ip, ip, #15
  84              		.syntax divided
  85              	@ 1799 "C:/Renesas/e2studio_2021_01_workspace_RZA2M_ANPR/ANPR_RZA2M_GR_MANGO/src/tensorflow_lite/th
  86 00c8 7CCF27E6 		qsub16 ip, r7, ip
  87              	@ 0 "" 2
  88              		.arm
  89              		.syntax unified
  90 00cc 0C30C3E1 		bic	r3, r3, ip
  91 00d0 0C308DE5 		str	r3, [sp, #12]
  92 00d4 FEFFFFEB 		bl	memcpy
  93 00d8 BEC0D4E1 		ldrh	ip, [r4, #14]
  94 00dc 0420A0E3 		mov	r2, #4
  95 00e0 BC30D4E1 		ldrh	r3, [r4, #12]
  96 00e4 0510A0E1 		mov	r1, r5
  97 00e8 0C0084E2 		add	r0, r4, #12
  98 00ec 0C3883E1 		orr	r3, r3, ip, lsl #16
  99 00f0 06C003E0 		and	ip, r3, r6
 100 00f4 ECC7A0E1 		ror	ip, ip, #15
 101              		.syntax divided
 102              	@ 1799 "C:/Renesas/e2studio_2021_01_workspace_RZA2M_ANPR/ANPR_RZA2M_GR_MANGO/src/tensorflow_lite/th
 103 00f8 7CCF27E6 		qsub16 ip, r7, ip
 104              	@ 0 "" 2
 105              		.arm
 106              		.syntax unified
 107 00fc 0C30C3E1 		bic	r3, r3, ip
 108 0100 0C308DE5 		str	r3, [sp, #12]
 109 0104 FEFFFFEB 		bl	memcpy
 110 0108 B2C1D4E1 		ldrh	ip, [r4, #18]
 111 010c 0420A0E3 		mov	r2, #4
 112 0110 B031D4E1 		ldrh	r3, [r4, #16]
 113 0114 0510A0E1 		mov	r1, r5
 114 0118 100084E2 		add	r0, r4, #16
 115 011c 0C3883E1 		orr	r3, r3, ip, lsl #16
 116 0120 06C003E0 		and	ip, r3, r6
 117 0124 ECC7A0E1 		ror	ip, ip, #15
 118              		.syntax divided
 119              	@ 1799 "C:/Renesas/e2studio_2021_01_workspace_RZA2M_ANPR/ANPR_RZA2M_GR_MANGO/src/tensorflow_lite/th
 120 0128 7CCF27E6 		qsub16 ip, r7, ip
 121              	@ 0 "" 2
 122              		.arm
 123              		.syntax unified
 124 012c 0C30C3E1 		bic	r3, r3, ip
 125 0130 0C308DE5 		str	r3, [sp, #12]
 126 0134 FEFFFFEB 		bl	memcpy
 127 0138 B6C1D4E1 		ldrh	ip, [r4, #22]
 128 013c 0420A0E3 		mov	r2, #4
 129 0140 B431D4E1 		ldrh	r3, [r4, #20]
 130 0144 0510A0E1 		mov	r1, r5
 131 0148 140084E2 		add	r0, r4, #20
 132 014c 0C3883E1 		orr	r3, r3, ip, lsl #16
 133 0150 06C003E0 		and	ip, r3, r6
 134 0154 ECC7A0E1 		ror	ip, ip, #15
 135              		.syntax divided
 136              	@ 1799 "C:/Renesas/e2studio_2021_01_workspace_RZA2M_ANPR/ANPR_RZA2M_GR_MANGO/src/tensorflow_lite/th
 137 0158 7CCF27E6 		qsub16 ip, r7, ip
 138              	@ 0 "" 2
 139              		.arm
 140              		.syntax unified
 141 015c 0C30C3E1 		bic	r3, r3, ip
 142 0160 0C308DE5 		str	r3, [sp, #12]
 143 0164 FEFFFFEB 		bl	memcpy
 144 0168 BAC1D4E1 		ldrh	ip, [r4, #26]
 145 016c 0420A0E3 		mov	r2, #4
 146 0170 B831D4E1 		ldrh	r3, [r4, #24]
 147 0174 0510A0E1 		mov	r1, r5
 148 0178 180084E2 		add	r0, r4, #24
 149 017c 204084E2 		add	r4, r4, #32
 150 0180 0C3883E1 		orr	r3, r3, ip, lsl #16
 151 0184 06C003E0 		and	ip, r3, r6
 152 0188 ECC7A0E1 		ror	ip, ip, #15
 153              		.syntax divided
 154              	@ 1799 "C:/Renesas/e2studio_2021_01_workspace_RZA2M_ANPR/ANPR_RZA2M_GR_MANGO/src/tensorflow_lite/th
 155 018c 7CCF27E6 		qsub16 ip, r7, ip
 156              	@ 0 "" 2
 157              		.arm
 158              		.syntax unified
 159 0190 0C30C3E1 		bic	r3, r3, ip
 160 0194 0C308DE5 		str	r3, [sp, #12]
 161 0198 FEFFFFEB 		bl	memcpy
 162 019c B2C054E1 		ldrh	ip, [r4, #-2]
 163 01a0 0420A0E3 		mov	r2, #4
 164 01a4 B43054E1 		ldrh	r3, [r4, #-4]
 165 01a8 0900A0E1 		mov	r0, r9
 166 01ac 0510A0E1 		mov	r1, r5
 167 01b0 0C3883E1 		orr	r3, r3, ip, lsl #16
 168 01b4 06C003E0 		and	ip, r3, r6
 169 01b8 ECC7A0E1 		ror	ip, ip, #15
 170              		.syntax divided
 171              	@ 1799 "C:/Renesas/e2studio_2021_01_workspace_RZA2M_ANPR/ANPR_RZA2M_GR_MANGO/src/tensorflow_lite/th
 172 01bc 7CCF27E6 		qsub16 ip, r7, ip
 173              	@ 0 "" 2
 174              		.arm
 175              		.syntax unified
 176 01c0 0C30C3E1 		bic	r3, r3, ip
 177 01c4 0C308DE5 		str	r3, [sp, #12]
 178 01c8 FEFFFFEB 		bl	memcpy
 179 01cc 092048E2 		sub	r2, r8, #9
 180 01d0 088048E2 		sub	r8, r8, #8
 181 01d4 7220FFE6 		uxth	r2, r2
 182 01d8 7830FFE6 		uxth	r3, r8
 183 01dc 070052E3 		cmp	r2, #7
 184 01e0 0380A0E1 		mov	r8, r3
 185 01e4 95FFFF8A 		bhi	.L4
 186              	.L3:
 187 01e8 016043E2 		sub	r6, r3, #1
 188 01ec 0279A0E3 		mov	r7, #32768
 189 01f0 7660FFE6 		uxth	r6, r6
 190 01f4 007048E3 		movt	r7, 32768
 191 01f8 0080A0E3 		mov	r8, #0
 192 01fc 016086E2 		add	r6, r6, #1
 193 0200 066184E0 		add	r6, r4, r6, lsl #2
 194              	.L5:
 195 0204 B2C0D4E1 		ldrh	ip, [r4, #2]
 196 0208 041084E2 		add	r1, r4, #4
 197 020c B030D4E1 		ldrh	r3, [r4]
 198 0210 0400A0E1 		mov	r0, r4
 199 0214 0420A0E3 		mov	r2, #4
 200 0218 0140A0E1 		mov	r4, r1
 201 021c 0510A0E1 		mov	r1, r5
 202 0220 0C3883E1 		orr	r3, r3, ip, lsl #16
 203 0224 07C003E0 		and	ip, r3, r7
 204 0228 ECC7A0E1 		ror	ip, ip, #15
 205              		.syntax divided
 206              	@ 1799 "C:/Renesas/e2studio_2021_01_workspace_RZA2M_ANPR/ANPR_RZA2M_GR_MANGO/src/tensorflow_lite/th
 207 022c 7CCF28E6 		qsub16 ip, r8, ip
 208              	@ 0 "" 2
 209              		.arm
 210              		.syntax unified
 211 0230 0C30C3E1 		bic	r3, r3, ip
 212 0234 0C308DE5 		str	r3, [sp, #12]
 213 0238 FEFFFFEB 		bl	memcpy
 214 023c 060054E1 		cmp	r4, r6
 215 0240 EFFFFF1A 		bne	.L5
 216 0244 04309DE5 		ldr	r3, [sp, #4]
 217 0248 019083E2 		add	r9, r3, #1
 218 024c 09A18AE0 		add	r10, r10, r9, lsl #2
 219              	.L2:
 220 0250 01001BE3 		tst	fp, #1
 221 0254 0300000A 		beq	.L1
 222 0258 F030DAE1 		ldrsh	r3, [r10]
 223 025c 000053E3 		cmp	r3, #0
 224 0260 0030A0B3 		movlt	r3, #0
 225 0264 B030CAB1 		strhlt	r3, [r10]	@ movhi
 226              	.L1:
 227 0268 14D08DE2 		add	sp, sp, #20
 228              		@ sp needed
 229 026c F08FBDE8 		pop	{r4, r5, r6, r7, r8, r9, r10, fp, pc}
 230              	.L8:
 231 0270 0830A0E1 		mov	r3, r8
 232 0274 0040A0E1 		mov	r4, r0
 233 0278 0C508DE2 		add	r5, sp, #12
 234 027c D9FFFFEA 		b	.L3
 236              		.ident	"GCC: (GNU Tools for ARM Embedded Processors 6-2017-q2-update) 6.3.1 20170620 (release) [AR
DEFINED SYMBOLS
                            *ABS*:00000000 arm_relu_q15.c
C:\Users\a5050395\AppData\Local\Temp\ccz69aQN.s:14     .text.arm_relu_q15:00000000 $a
C:\Users\a5050395\AppData\Local\Temp\ccz69aQN.s:20     .text.arm_relu_q15:00000000 arm_relu_q15

UNDEFINED SYMBOLS
memcpy
