   1              		.cpu cortex-a9
   2              		.eabi_attribute 28, 1
   3              		.eabi_attribute 20, 1
   4              		.eabi_attribute 21, 1
   5              		.eabi_attribute 23, 3
   6              		.eabi_attribute 24, 1
   7              		.eabi_attribute 25, 1
   8              		.eabi_attribute 26, 1
   9              		.eabi_attribute 30, 2
  10              		.eabi_attribute 34, 0
  11              		.eabi_attribute 18, 4
  12              		.file	"all_ops_resolver.cc"
  13              		.section	.text._ZNK6tflite10OpResolver12GetDelegatesEi,"axG",%progbits,_ZNK6tflite10OpResolver12Ge
  14              		.align	2
  15              		.weak	_ZNK6tflite10OpResolver12GetDelegatesEi
  16              		.syntax unified
  17              		.arm
  18              		.fpu neon
  20              	_ZNK6tflite10OpResolver12GetDelegatesEi:
  21              		.fnstart
  22              	.LFB6684:
  23              		@ args = 0, pretend = 0, frame = 0
  24              		@ frame_needed = 0, uses_anonymous_args = 0
  25              		@ link register save eliminated.
  26 0000 0020A0E3 		mov	r2, #0
  27 0004 002080E5 		str	r2, [r0]
  28 0008 042080E5 		str	r2, [r0, #4]
  29 000c 082080E5 		str	r2, [r0, #8]
  30 0010 1EFF2FE1 		bx	lr
  31              		.cantunwind
  32              		.fnend
  34              		.section	.text._ZNK6tflite10OpResolver24MayContainUserDefinedOpsEv,"axG",%progbits,_ZNK6tflite10Op
  35              		.align	2
  36              		.weak	_ZNK6tflite10OpResolver24MayContainUserDefinedOpsEv
  37              		.syntax unified
  38              		.arm
  39              		.fpu neon
  41              	_ZNK6tflite10OpResolver24MayContainUserDefinedOpsEv:
  42              		.fnstart
  43              	.LFB6689:
  44              		@ args = 0, pretend = 0, frame = 0
  45              		@ frame_needed = 0, uses_anonymous_args = 0
  46              		@ link register save eliminated.
  47 0000 0100A0E3 		mov	r0, #1
  48 0004 1EFF2FE1 		bx	lr
  49              		.cantunwind
  50              		.fnend
  52              		.section	.text._ZNK6tflite22MicroMutableOpResolverILj128EE6FindOpENS_15BuiltinOperatorE,"axG",%pro
  53              		.align	2
  54              		.weak	_ZNK6tflite22MicroMutableOpResolverILj128EE6FindOpENS_15BuiltinOperatorE
  55              		.syntax unified
  56              		.arm
  57              		.fpu neon
  59              	_ZNK6tflite22MicroMutableOpResolverILj128EE6FindOpENS_15BuiltinOperatorE:
  60              		.fnstart
  61              	.LFB9961:
  62              		@ args = 0, pretend = 0, frame = 0
  63              		@ frame_needed = 0, uses_anonymous_args = 0
  64 0000 200051E3 		cmp	r1, #32
  65 0004 1600000A 		beq	.L8
  66 0008 013A80E2 		add	r3, r0, #4096
  67 000c 04E02DE5 		str	lr, [sp, #-4]!
  68 0010 04E093E5 		ldr	lr, [r3, #4]
  69 0014 00005EE3 		cmp	lr, #0
  70 0018 0C00000A 		beq	.L15
  71 001c 183090E5 		ldr	r3, [r0, #24]
  72 0020 010053E1 		cmp	r3, r1
  73 0024 0C00000A 		beq	.L16
  74 0028 0020A0E1 		mov	r2, r0
  75 002c 0030A0E3 		mov	r3, #0
  76 0030 020000EA 		b	.L6
  77              	.L7:
  78 0034 18C092E5 		ldr	ip, [r2, #24]
  79 0038 01005CE1 		cmp	ip, r1
  80 003c 0500000A 		beq	.L18
  81              	.L6:
  82 0040 013083E2 		add	r3, r3, #1
  83 0044 202082E2 		add	r2, r2, #32
  84 0048 0E0053E1 		cmp	r3, lr
  85 004c F8FFFF1A 		bne	.L7
  86              	.L15:
  87 0050 0000A0E3 		mov	r0, #0
  88 0054 04F09DE4 		ldr	pc, [sp], #4
  89              	.L18:
  90 0058 830280E0 		add	r0, r0, r3, lsl #5
  91              	.L16:
  92 005c 040080E2 		add	r0, r0, #4
  93 0060 04F09DE4 		ldr	pc, [sp], #4
  94              	.L8:
  95 0064 0000A0E3 		mov	r0, #0
  96 0068 1EFF2FE1 		bx	lr
  97              		.cantunwind
  98              		.fnend
 100              		.section	.text._ZN6tflite14AllOpsResolverD2Ev,"axG",%progbits,_ZN6tflite14AllOpsResolverD5Ev,comda
 101              		.align	2
 102              		.weak	_ZN6tflite14AllOpsResolverD2Ev
 103              		.syntax unified
 104              		.arm
 105              		.fpu neon
 107              	_ZN6tflite14AllOpsResolverD2Ev:
 108              		.fnstart
 109              	.LFB11324:
 110              		@ args = 0, pretend = 0, frame = 0
 111              		@ frame_needed = 0, uses_anonymous_args = 0
 112              		@ link register save eliminated.
 113 0000 1EFF2FE1 		bx	lr
 114              		.cantunwind
 115              		.fnend
 117              		.weak	_ZN6tflite14AllOpsResolverD1Ev
 118              		.set	_ZN6tflite14AllOpsResolverD1Ev,_ZN6tflite14AllOpsResolverD2Ev
 119              		.section	.text._ZNK6tflite22MicroMutableOpResolverILj128EE15GetOpDataParserENS_15BuiltinOperatorE,
 120              		.align	2
 121              		.weak	_ZNK6tflite22MicroMutableOpResolverILj128EE15GetOpDataParserENS_15BuiltinOperatorE
 122              		.syntax unified
 123              		.arm
 124              		.fpu neon
 126              	_ZNK6tflite22MicroMutableOpResolverILj128EE15GetOpDataParserENS_15BuiltinOperatorE:
 127              		.fnstart
 128              	.LFB11339:
 129              		@ args = 0, pretend = 0, frame = 0
 130              		@ frame_needed = 0, uses_anonymous_args = 0
 131 0000 013A80E2 		add	r3, r0, #4096
 132 0004 10402DE9 		push	{r4, lr}
 133              		.save {r4, lr}
 134 0008 88E293E5 		ldr	lr, [r3, #648]
 135 000c 80005EE3 		cmp	lr, #128
 136 0010 1500008A 		bhi	.L21
 137 0014 00005EE3 		cmp	lr, #0
 138 0018 0C00000A 		beq	.L34
 139 001c 0830D3E5 		ldrb	r3, [r3, #8]	@ zero_extendqisi2
 140 0020 010053E1 		cmp	r3, r1
 141 0024 012A8012 		addne	r2, r0, #4096
 142 0028 0030A013 		movne	r3, #0
 143 002c 08208212 		addne	r2, r2, #8
 144 0030 0300001A 		bne	.L26
 145 0034 070000EA 		b	.L36
 146              	.L27:
 147 0038 01C0F2E5 		ldrb	ip, [r2, #1]!	@ zero_extendqisi2
 148 003c 01005CE1 		cmp	ip, r1
 149 0040 0500000A 		beq	.L24
 150              	.L26:
 151 0044 013083E2 		add	r3, r3, #1
 152 0048 03005EE1 		cmp	lr, r3
 153 004c F9FFFF1A 		bne	.L27
 154              	.L34:
 155 0050 0000A0E3 		mov	r0, #0
 156 0054 1080BDE8 		pop	{r4, pc}
 157              	.L36:
 158 0058 0030A0E3 		mov	r3, #0
 159              	.L24:
 160 005c 423E83E2 		add	r3, r3, #1056
 161 0060 023083E2 		add	r3, r3, #2
 162 0064 030190E7 		ldr	r0, [r0, r3, lsl #2]
 163 0068 1080BDE8 		pop	{r4, pc}
 164              	.L21:
 165 006c FEFFFFEB 		bl	abort
 166              		.fnend
 168              		.section	.text._ZNK6tflite22MicroMutableOpResolverILj128EE6FindOpEPKc,"axG",%progbits,_ZNK6tflite2
 169              		.align	2
 170              		.weak	_ZNK6tflite22MicroMutableOpResolverILj128EE6FindOpEPKc
 171              		.syntax unified
 172              		.arm
 173              		.fpu neon
 175              	_ZNK6tflite22MicroMutableOpResolverILj128EE6FindOpEPKc:
 176              		.fnstart
 177              	.LFB9962:
 178              		@ args = 0, pretend = 0, frame = 0
 179              		@ frame_needed = 0, uses_anonymous_args = 0
 180 0000 013A80E2 		add	r3, r0, #4096
 181 0004 F0412DE9 		push	{r4, r5, r6, r7, r8, lr}
 182 0008 046093E5 		ldr	r6, [r3, #4]
 183 000c 000056E3 		cmp	r6, #0
 184 0010 1300000A 		beq	.L44
 185 0014 0170A0E1 		mov	r7, r1
 186 0018 0080A0E1 		mov	r8, r0
 187 001c 0040A0E1 		mov	r4, r0
 188 0020 0050A0E3 		mov	r5, #0
 189 0024 030000EA 		b	.L40
 190              	.L39:
 191 0028 015085E2 		add	r5, r5, #1
 192 002c 204084E2 		add	r4, r4, #32
 193 0030 060055E1 		cmp	r5, r6
 194 0034 0A00000A 		beq	.L44
 195              	.L40:
 196 0038 183094E5 		ldr	r3, [r4, #24]
 197 003c 200053E3 		cmp	r3, #32
 198 0040 F8FFFF1A 		bne	.L39
 199 0044 0710A0E1 		mov	r1, r7
 200 0048 1C0094E5 		ldr	r0, [r4, #28]
 201 004c FEFFFFEB 		bl	strcmp
 202 0050 000050E3 		cmp	r0, #0
 203 0054 F3FFFF1A 		bne	.L39
 204 0058 850288E0 		add	r0, r8, r5, lsl #5
 205 005c 040080E2 		add	r0, r0, #4
 206 0060 F081BDE8 		pop	{r4, r5, r6, r7, r8, pc}
 207              	.L44:
 208 0064 0000A0E3 		mov	r0, #0
 209 0068 F081BDE8 		pop	{r4, r5, r6, r7, r8, pc}
 210              		.cantunwind
 211              		.fnend
 213              		.section	.text._ZN6tflite14AllOpsResolverD0Ev,"axG",%progbits,_ZN6tflite14AllOpsResolverD5Ev,comda
 214              		.align	2
 215              		.weak	_ZN6tflite14AllOpsResolverD0Ev
 216              		.syntax unified
 217              		.arm
 218              		.fpu neon
 220              	_ZN6tflite14AllOpsResolverD0Ev:
 221              		.fnstart
 222              	.LFB11326:
 223              		@ args = 0, pretend = 0, frame = 0
 224              		@ frame_needed = 0, uses_anonymous_args = 0
 225 0000 10402DE9 		push	{r4, lr}
 226 0004 901201E3 		movw	r1, #4752
 227 0008 0040A0E1 		mov	r4, r0
 228 000c FEFFFFEB 		bl	_ZdlPvj
 229 0010 0400A0E1 		mov	r0, r4
 230 0014 1080BDE8 		pop	{r4, pc}
 231              		.cantunwind
 232              		.fnend
 234              		.section	.text._ZNK6tflite15MicroOpResolver6FindOpENS_15BuiltinOperatorEi,"axG",%progbits,_ZNK6tfl
 235              		.align	2
 236              		.weak	_ZNK6tflite15MicroOpResolver6FindOpENS_15BuiltinOperatorEi
 237              		.syntax unified
 238              		.arm
 239              		.fpu neon
 241              	_ZNK6tflite15MicroOpResolver6FindOpENS_15BuiltinOperatorEi:
 242              		.fnstart
 243              	.LFB6690:
 244              		@ args = 0, pretend = 0, frame = 0
 245              		@ frame_needed = 0, uses_anonymous_args = 0
 246 0000 002090E5 		ldr	r2, [r0]
 247 0004 003000E3 		movw	r3, #:lower16:_ZNK6tflite22MicroMutableOpResolverILj128EE6FindOpENS_15BuiltinOperatorE
 248 0008 003040E3 		movt	r3, #:upper16:_ZNK6tflite22MicroMutableOpResolverILj128EE6FindOpENS_15BuiltinOperatorE
 249 000c 182092E5 		ldr	r2, [r2, #24]
 250 0010 030052E1 		cmp	r2, r3
 251 0014 1A00001A 		bne	.L48
 252 0018 200051E3 		cmp	r1, #32
 253 001c 01C0A0E1 		mov	ip, r1
 254 0020 1A00000A 		beq	.L53
 255 0024 013A80E2 		add	r3, r0, #4096
 256 0028 04E02DE5 		str	lr, [sp, #-4]!
 257 002c 00E0A0E1 		mov	lr, r0
 258 0030 040093E5 		ldr	r0, [r3, #4]
 259 0034 000050E3 		cmp	r0, #0
 260 0038 04F09D04 		ldreq	pc, [sp], #4
 261 003c 18309EE5 		ldr	r3, [lr, #24]
 262 0040 030051E1 		cmp	r1, r3
 263 0044 0F00000A 		beq	.L50
 264 0048 0E20A0E1 		mov	r2, lr
 265 004c 0030A0E3 		mov	r3, #0
 266 0050 020000EA 		b	.L51
 267              	.L58:
 268 0054 181092E5 		ldr	r1, [r2, #24]
 269 0058 01005CE1 		cmp	ip, r1
 270 005c 0500000A 		beq	.L64
 271              	.L51:
 272 0060 013083E2 		add	r3, r3, #1
 273 0064 202082E2 		add	r2, r2, #32
 274 0068 000053E1 		cmp	r3, r0
 275 006c F8FFFF1A 		bne	.L58
 276 0070 0000A0E3 		mov	r0, #0
 277 0074 04F09DE4 		ldr	pc, [sp], #4
 278              	.L64:
 279 0078 83028EE0 		add	r0, lr, r3, lsl #5
 280 007c 040080E2 		add	r0, r0, #4
 281 0080 04F09DE4 		ldr	pc, [sp], #4
 282              	.L48:
 283 0084 12FF2FE1 		bx	r2
 284              	.L50:
 285 0088 04008EE2 		add	r0, lr, #4
 286 008c 04F09DE4 		ldr	pc, [sp], #4
 287              	.L53:
 288 0090 0000A0E3 		mov	r0, #0
 289 0094 1EFF2FE1 		bx	lr
 290              		.cantunwind
 291              		.fnend
 293              		.section	.text._ZNK6tflite15MicroOpResolver6FindOpEPKci,"axG",%progbits,_ZNK6tflite15MicroOpResolv
 294              		.align	2
 295              		.weak	_ZNK6tflite15MicroOpResolver6FindOpEPKci
 296              		.syntax unified
 297              		.arm
 298              		.fpu neon
 300              	_ZNK6tflite15MicroOpResolver6FindOpEPKci:
 301              		.fnstart
 302              	.LFB6691:
 303              		@ args = 0, pretend = 0, frame = 0
 304              		@ frame_needed = 0, uses_anonymous_args = 0
 305 0000 00C090E5 		ldr	ip, [r0]
 306 0004 002000E3 		movw	r2, #:lower16:_ZNK6tflite22MicroMutableOpResolverILj128EE6FindOpEPKc
 307 0008 F0412DE9 		push	{r4, r5, r6, r7, r8, lr}
 308 000c 002040E3 		movt	r2, #:upper16:_ZNK6tflite22MicroMutableOpResolverILj128EE6FindOpEPKc
 309 0010 1CE09CE5 		ldr	lr, [ip, #28]
 310 0014 02005EE1 		cmp	lr, r2
 311 0018 1900001A 		bne	.L66
 312 001c 012A80E2 		add	r2, r0, #4096
 313 0020 0080A0E1 		mov	r8, r0
 314 0024 046092E5 		ldr	r6, [r2, #4]
 315 0028 000056E3 		cmp	r6, #0
 316 002c 1200000A 		beq	.L71
 317 0030 0170A0E1 		mov	r7, r1
 318 0034 0040A0E1 		mov	r4, r0
 319 0038 0050A0E3 		mov	r5, #0
 320 003c 030000EA 		b	.L69
 321              	.L68:
 322 0040 015085E2 		add	r5, r5, #1
 323 0044 204084E2 		add	r4, r4, #32
 324 0048 050056E1 		cmp	r6, r5
 325 004c 0A00000A 		beq	.L71
 326              	.L69:
 327 0050 183094E5 		ldr	r3, [r4, #24]
 328 0054 200053E3 		cmp	r3, #32
 329 0058 F8FFFF1A 		bne	.L68
 330 005c 0710A0E1 		mov	r1, r7
 331 0060 1C0094E5 		ldr	r0, [r4, #28]
 332 0064 FEFFFFEB 		bl	strcmp
 333 0068 000050E3 		cmp	r0, #0
 334 006c F3FFFF1A 		bne	.L68
 335 0070 853288E0 		add	r3, r8, r5, lsl #5
 336 0074 040083E2 		add	r0, r3, #4
 337 0078 F081BDE8 		pop	{r4, r5, r6, r7, r8, pc}
 338              	.L71:
 339 007c 0000A0E3 		mov	r0, #0
 340 0080 F081BDE8 		pop	{r4, r5, r6, r7, r8, pc}
 341              	.L66:
 342 0084 0E30A0E1 		mov	r3, lr
 343 0088 F041BDE8 		pop	{r4, r5, r6, r7, r8, lr}
 344 008c 13FF2FE1 		bx	r3
 345              		.cantunwind
 346              		.fnend
 348              		.section	.text._ZN6tflite14AllOpsResolverC2Ev,"ax",%progbits
 349              		.align	2
 350              		.global	_ZN6tflite14AllOpsResolverC2Ev
 351              		.syntax unified
 352              		.arm
 353              		.fpu neon
 355              	_ZN6tflite14AllOpsResolverC2Ev:
 356              		.fnstart
 357              	.LFB6789:
 358              		@ args = 0, pretend = 0, frame = 32
 359              		@ frame_needed = 0, uses_anonymous_args = 0
 360 0000 4C3F9FE5 		ldr	r3, .L1502
 361 0004 F04F2DE9 		push	{r4, r5, r6, r7, r8, r9, r10, fp, lr}
 362              		.save {r4, r5, r6, r7, r8, r9, r10, fp, lr}
 363 0008 015A80E2 		add	r5, r0, #4096
 364 000c 0060A0E3 		mov	r6, #0
 365              		.pad #36
 366 0010 24D04DE2 		sub	sp, sp, #36
 367 0014 0040A0E1 		mov	r4, r0
 368 0018 0D00A0E1 		mov	r0, sp
 369 001c 046085E5 		str	r6, [r5, #4]
 370 0020 886285E5 		str	r6, [r5, #648]
 371 0024 8C6285E5 		str	r6, [r5, #652]
 372 0028 003084E5 		str	r3, [r4]
 373 002c FEFFFFEB 		bl	_ZN6tflite3ops5micro12Register_ABSEv
 374 0030 04C095E5 		ldr	ip, [r5, #4]
 375 0034 06005CE1 		cmp	ip, r6
 376 0038 650C000A 		beq	.L503
 377 003c 183094E5 		ldr	r3, [r4, #24]
 378 0040 650053E3 		cmp	r3, #101
 379 0044 0610A011 		movne	r1, r6
 380 0048 0430A011 		movne	r3, r4
 381 004c 0400001A 		bne	.L77
 382 0050 1F0000EA 		b	.L75
 383              	.L1288:
 384 0054 180093E5 		ldr	r0, [r3, #24]
 385 0058 0210A0E1 		mov	r1, r2
 386 005c 650050E3 		cmp	r0, #101
 387 0060 1B00000A 		beq	.L75
 388              	.L77:
 389 0064 012081E2 		add	r2, r1, #1
 390 0068 203083E2 		add	r3, r3, #32
 391 006c 0C0052E1 		cmp	r2, ip
 392 0070 F7FFFF1A 		bne	.L1288
 393 0074 80005CE3 		cmp	ip, #128
 394 0078 02E08112 		addne	lr, r1, #2
 395 007c 1400000A 		beq	.L75
 396              	.L74:
 397 0080 0D70A0E1 		mov	r7, sp
 398 0084 82C284E0 		add	ip, r4, r2, lsl #5
 399 0088 0F00B7E8 		ldmia	r7!, {r0, r1, r2, r3}
 400 008c 009000E3 		movw	r9, #:lower16:_ZN6tflite8ParseAbsEPKNS_8OperatorEPNS_13ErrorReporterEPNS_20BuiltinDataAllocat
 401 0090 04608CE2 		add	r6, ip, #4
 402 0094 65A0A0E3 		mov	r10, #101
 403 0098 888295E5 		ldr	r8, [r5, #648]
 404 009c 009040E3 		movt	r9, #:upper16:_ZN6tflite8ParseAbsEPKNS_8OperatorEPNS_13ErrorReporterEPNS_20BuiltinDataAllocat
 405 00a0 0F00A6E8 		stmia	r6!, {r0, r1, r2, r3}
 406 00a4 0F0097E8 		ldm	r7, {r0, r1, r2, r3}
 407 00a8 427E88E2 		add	r7, r8, #1056
 408 00ac 027087E2 		add	r7, r7, #2
 409 00b0 0F0086E8 		stm	r6, {r0, r1, r2, r3}
 410 00b4 082084E0 		add	r2, r4, r8
 411 00b8 083001E3 		movw	r3, #4104
 412 00bc 018088E2 		add	r8, r8, #1
 413 00c0 18A08CE5 		str	r10, [ip, #24]
 414 00c4 04E085E5 		str	lr, [r5, #4]
 415 00c8 03A0C2E7 		strb	r10, [r2, r3]
 416 00cc 079184E7 		str	r9, [r4, r7, lsl #2]
 417 00d0 888285E5 		str	r8, [r5, #648]
 418              	.L75:
 419 00d4 0D00A0E1 		mov	r0, sp
 420 00d8 FEFFFFEB 		bl	_ZN6tflite3ops5micro12Register_ADDEv
 421 00dc 04C095E5 		ldr	ip, [r5, #4]
 422 00e0 00005CE3 		cmp	ip, #0
 423 00e4 430C000A 		beq	.L504
 424 00e8 183094E5 		ldr	r3, [r4, #24]
 425 00ec 000053E3 		cmp	r3, #0
 426 00f0 0430A011 		movne	r3, r4
 427 00f4 0010A013 		movne	r1, #0
 428 00f8 0400001A 		bne	.L83
 429 00fc 1F0000EA 		b	.L81
 430              	.L1290:
 431 0100 180093E5 		ldr	r0, [r3, #24]
 432 0104 0210A0E1 		mov	r1, r2
 433 0108 000050E3 		cmp	r0, #0
 434 010c 1B00000A 		beq	.L81
 435              	.L83:
 436 0110 012081E2 		add	r2, r1, #1
 437 0114 203083E2 		add	r3, r3, #32
 438 0118 02005CE1 		cmp	ip, r2
 439 011c F7FFFF1A 		bne	.L1290
 440 0120 800052E3 		cmp	r2, #128
 441 0124 02E08112 		addne	lr, r1, #2
 442 0128 1400000A 		beq	.L81
 443              	.L80:
 444 012c 0D70A0E1 		mov	r7, sp
 445 0130 82C284E0 		add	ip, r4, r2, lsl #5
 446 0134 0F00B7E8 		ldmia	r7!, {r0, r1, r2, r3}
 447 0138 009000E3 		movw	r9, #:lower16:_ZN6tflite8ParseAddEPKNS_8OperatorEPNS_13ErrorReporterEPNS_20BuiltinDataAllocat
 448 013c 04608CE2 		add	r6, ip, #4
 449 0140 00A0A0E3 		mov	r10, #0
 450 0144 888295E5 		ldr	r8, [r5, #648]
 451 0148 009040E3 		movt	r9, #:upper16:_ZN6tflite8ParseAddEPKNS_8OperatorEPNS_13ErrorReporterEPNS_20BuiltinDataAllocat
 452 014c 0F00A6E8 		stmia	r6!, {r0, r1, r2, r3}
 453 0150 0F0097E8 		ldm	r7, {r0, r1, r2, r3}
 454 0154 427E88E2 		add	r7, r8, #1056
 455 0158 027087E2 		add	r7, r7, #2
 456 015c 0F0086E8 		stm	r6, {r0, r1, r2, r3}
 457 0160 082084E0 		add	r2, r4, r8
 458 0164 083001E3 		movw	r3, #4104
 459 0168 018088E2 		add	r8, r8, #1
 460 016c 18A08CE5 		str	r10, [ip, #24]
 461 0170 04E085E5 		str	lr, [r5, #4]
 462 0174 03A0C2E7 		strb	r10, [r2, r3]
 463 0178 079184E7 		str	r9, [r4, r7, lsl #2]
 464 017c 888285E5 		str	r8, [r5, #648]
 465              	.L81:
 466 0180 0D00A0E1 		mov	r0, sp
 467 0184 FEFFFFEB 		bl	_ZN6tflite14Register_ADD_NEv
 468 0188 04C095E5 		ldr	ip, [r5, #4]
 469 018c 00005CE3 		cmp	ip, #0
 470 0190 150C000A 		beq	.L505
 471 0194 183094E5 		ldr	r3, [r4, #24]
 472 0198 6A0053E3 		cmp	r3, #106
 473 019c 0430A011 		movne	r3, r4
 474 01a0 0010A013 		movne	r1, #0
 475 01a4 0400001A 		bne	.L89
 476 01a8 1F0000EA 		b	.L87
 477              	.L1292:
 478 01ac 180093E5 		ldr	r0, [r3, #24]
 479 01b0 0210A0E1 		mov	r1, r2
 480 01b4 6A0050E3 		cmp	r0, #106
 481 01b8 1B00000A 		beq	.L87
 482              	.L89:
 483 01bc 012081E2 		add	r2, r1, #1
 484 01c0 203083E2 		add	r3, r3, #32
 485 01c4 0C0052E1 		cmp	r2, ip
 486 01c8 F7FFFF1A 		bne	.L1292
 487 01cc 80005CE3 		cmp	ip, #128
 488 01d0 02E08112 		addne	lr, r1, #2
 489 01d4 1400000A 		beq	.L87
 490              	.L86:
 491 01d8 0D70A0E1 		mov	r7, sp
 492 01dc 82C284E0 		add	ip, r4, r2, lsl #5
 493 01e0 0F00B7E8 		ldmia	r7!, {r0, r1, r2, r3}
 494 01e4 009000E3 		movw	r9, #:lower16:_ZN6tflite9ParseAddNEPKNS_8OperatorEPNS_13ErrorReporterEPNS_20BuiltinDataAlloca
 495 01e8 04608CE2 		add	r6, ip, #4
 496 01ec 6AA0A0E3 		mov	r10, #106
 497 01f0 888295E5 		ldr	r8, [r5, #648]
 498 01f4 009040E3 		movt	r9, #:upper16:_ZN6tflite9ParseAddNEPKNS_8OperatorEPNS_13ErrorReporterEPNS_20BuiltinDataAlloca
 499 01f8 0F00A6E8 		stmia	r6!, {r0, r1, r2, r3}
 500 01fc 0F0097E8 		ldm	r7, {r0, r1, r2, r3}
 501 0200 427E88E2 		add	r7, r8, #1056
 502 0204 027087E2 		add	r7, r7, #2
 503 0208 0F0086E8 		stm	r6, {r0, r1, r2, r3}
 504 020c 082084E0 		add	r2, r4, r8
 505 0210 083001E3 		movw	r3, #4104
 506 0214 018088E2 		add	r8, r8, #1
 507 0218 18A08CE5 		str	r10, [ip, #24]
 508 021c 04E085E5 		str	lr, [r5, #4]
 509 0220 03A0C2E7 		strb	r10, [r2, r3]
 510 0224 079184E7 		str	r9, [r4, r7, lsl #2]
 511 0228 888285E5 		str	r8, [r5, #648]
 512              	.L87:
 513 022c 0D00A0E1 		mov	r0, sp
 514 0230 FEFFFFEB 		bl	_ZN6tflite3ops5micro16Register_ARG_MAXEv
 515 0234 04C095E5 		ldr	ip, [r5, #4]
 516 0238 00005CE3 		cmp	ip, #0
 517 023c F30B000A 		beq	.L506
 518 0240 183094E5 		ldr	r3, [r4, #24]
 519 0244 380053E3 		cmp	r3, #56
 520 0248 0430A011 		movne	r3, r4
 521 024c 0010A013 		movne	r1, #0
 522 0250 0400001A 		bne	.L95
 523 0254 1F0000EA 		b	.L93
 524              	.L1294:
 525 0258 180093E5 		ldr	r0, [r3, #24]
 526 025c 0210A0E1 		mov	r1, r2
 527 0260 380050E3 		cmp	r0, #56
 528 0264 1B00000A 		beq	.L93
 529              	.L95:
 530 0268 012081E2 		add	r2, r1, #1
 531 026c 203083E2 		add	r3, r3, #32
 532 0270 0C0052E1 		cmp	r2, ip
 533 0274 F7FFFF1A 		bne	.L1294
 534 0278 80005CE3 		cmp	ip, #128
 535 027c 02E08112 		addne	lr, r1, #2
 536 0280 1400000A 		beq	.L93
 537              	.L92:
 538 0284 0D70A0E1 		mov	r7, sp
 539 0288 82C284E0 		add	ip, r4, r2, lsl #5
 540 028c 0F00B7E8 		ldmia	r7!, {r0, r1, r2, r3}
 541 0290 009000E3 		movw	r9, #:lower16:_ZN6tflite11ParseArgMaxEPKNS_8OperatorEPNS_13ErrorReporterEPNS_20BuiltinDataAll
 542 0294 04608CE2 		add	r6, ip, #4
 543 0298 38A0A0E3 		mov	r10, #56
 544 029c 888295E5 		ldr	r8, [r5, #648]
 545 02a0 009040E3 		movt	r9, #:upper16:_ZN6tflite11ParseArgMaxEPKNS_8OperatorEPNS_13ErrorReporterEPNS_20BuiltinDataAll
 546 02a4 0F00A6E8 		stmia	r6!, {r0, r1, r2, r3}
 547 02a8 0F0097E8 		ldm	r7, {r0, r1, r2, r3}
 548 02ac 427E88E2 		add	r7, r8, #1056
 549 02b0 027087E2 		add	r7, r7, #2
 550 02b4 0F0086E8 		stm	r6, {r0, r1, r2, r3}
 551 02b8 082084E0 		add	r2, r4, r8
 552 02bc 083001E3 		movw	r3, #4104
 553 02c0 018088E2 		add	r8, r8, #1
 554 02c4 18A08CE5 		str	r10, [ip, #24]
 555 02c8 04E085E5 		str	lr, [r5, #4]
 556 02cc 03A0C2E7 		strb	r10, [r2, r3]
 557 02d0 079184E7 		str	r9, [r4, r7, lsl #2]
 558 02d4 888285E5 		str	r8, [r5, #648]
 559              	.L93:
 560 02d8 0D00A0E1 		mov	r0, sp
 561 02dc FEFFFFEB 		bl	_ZN6tflite3ops5micro16Register_ARG_MINEv
 562 02e0 04C095E5 		ldr	ip, [r5, #4]
 563 02e4 00005CE3 		cmp	ip, #0
 564 02e8 C50B000A 		beq	.L507
 565 02ec 183094E5 		ldr	r3, [r4, #24]
 566 02f0 4F0053E3 		cmp	r3, #79
 567 02f4 0430A011 		movne	r3, r4
 568 02f8 0010A013 		movne	r1, #0
 569 02fc 0400001A 		bne	.L101
 570 0300 1F0000EA 		b	.L99
 571              	.L1296:
 572 0304 180093E5 		ldr	r0, [r3, #24]
 573 0308 0210A0E1 		mov	r1, r2
 574 030c 4F0050E3 		cmp	r0, #79
 575 0310 1B00000A 		beq	.L99
 576              	.L101:
 577 0314 012081E2 		add	r2, r1, #1
 578 0318 203083E2 		add	r3, r3, #32
 579 031c 0C0052E1 		cmp	r2, ip
 580 0320 F7FFFF1A 		bne	.L1296
 581 0324 80005CE3 		cmp	ip, #128
 582 0328 02E08112 		addne	lr, r1, #2
 583 032c 1400000A 		beq	.L99
 584              	.L98:
 585 0330 0D70A0E1 		mov	r7, sp
 586 0334 82C284E0 		add	ip, r4, r2, lsl #5
 587 0338 0F00B7E8 		ldmia	r7!, {r0, r1, r2, r3}
 588 033c 009000E3 		movw	r9, #:lower16:_ZN6tflite11ParseArgMinEPKNS_8OperatorEPNS_13ErrorReporterEPNS_20BuiltinDataAll
 589 0340 04608CE2 		add	r6, ip, #4
 590 0344 4FA0A0E3 		mov	r10, #79
 591 0348 888295E5 		ldr	r8, [r5, #648]
 592 034c 009040E3 		movt	r9, #:upper16:_ZN6tflite11ParseArgMinEPKNS_8OperatorEPNS_13ErrorReporterEPNS_20BuiltinDataAll
 593 0350 0F00A6E8 		stmia	r6!, {r0, r1, r2, r3}
 594 0354 0F0097E8 		ldm	r7, {r0, r1, r2, r3}
 595 0358 427E88E2 		add	r7, r8, #1056
 596 035c 027087E2 		add	r7, r7, #2
 597 0360 0F0086E8 		stm	r6, {r0, r1, r2, r3}
 598 0364 082084E0 		add	r2, r4, r8
 599 0368 083001E3 		movw	r3, #4104
 600 036c 018088E2 		add	r8, r8, #1
 601 0370 18A08CE5 		str	r10, [ip, #24]
 602 0374 04E085E5 		str	lr, [r5, #4]
 603 0378 03A0C2E7 		strb	r10, [r2, r3]
 604 037c 079184E7 		str	r9, [r4, r7, lsl #2]
 605 0380 888285E5 		str	r8, [r5, #648]
 606              	.L99:
 607 0384 0D00A0E1 		mov	r0, sp
 608 0388 FEFFFFEB 		bl	_ZN6tflite3ops5micro24Register_AVERAGE_POOL_2DEv
 609 038c 04C095E5 		ldr	ip, [r5, #4]
 610 0390 00005CE3 		cmp	ip, #0
 611 0394 A30B000A 		beq	.L508
 612 0398 183094E5 		ldr	r3, [r4, #24]
 613 039c 010053E3 		cmp	r3, #1
 614 03a0 0430A011 		movne	r3, r4
 615 03a4 0010A013 		movne	r1, #0
 616 03a8 0400001A 		bne	.L107
 617 03ac 1F0000EA 		b	.L105
 618              	.L1298:
 619 03b0 180093E5 		ldr	r0, [r3, #24]
 620 03b4 0210A0E1 		mov	r1, r2
 621 03b8 010050E3 		cmp	r0, #1
 622 03bc 1B00000A 		beq	.L105
 623              	.L107:
 624 03c0 012081E2 		add	r2, r1, #1
 625 03c4 203083E2 		add	r3, r3, #32
 626 03c8 0C0052E1 		cmp	r2, ip
 627 03cc F7FFFF1A 		bne	.L1298
 628 03d0 80005CE3 		cmp	ip, #128
 629 03d4 02E08112 		addne	lr, r1, #2
 630 03d8 1400000A 		beq	.L105
 631              	.L104:
 632 03dc 0D70A0E1 		mov	r7, sp
 633 03e0 82C284E0 		add	ip, r4, r2, lsl #5
 634 03e4 0F00B7E8 		ldmia	r7!, {r0, r1, r2, r3}
 635 03e8 01A0A0E3 		mov	r10, #1
 636 03ec 04608CE2 		add	r6, ip, #4
 637 03f0 009000E3 		movw	r9, #:lower16:_ZN6tflite9ParsePoolEPKNS_8OperatorEPNS_13ErrorReporterEPNS_20BuiltinDataAlloca
 638 03f4 888295E5 		ldr	r8, [r5, #648]
 639 03f8 009040E3 		movt	r9, #:upper16:_ZN6tflite9ParsePoolEPKNS_8OperatorEPNS_13ErrorReporterEPNS_20BuiltinDataAlloca
 640 03fc 0F00A6E8 		stmia	r6!, {r0, r1, r2, r3}
 641 0400 0F0097E8 		ldm	r7, {r0, r1, r2, r3}
 642 0404 427E88E2 		add	r7, r8, #1056
 643 0408 027087E2 		add	r7, r7, #2
 644 040c 0F0086E8 		stm	r6, {r0, r1, r2, r3}
 645 0410 082084E0 		add	r2, r4, r8
 646 0414 083001E3 		movw	r3, #4104
 647 0418 0A8088E0 		add	r8, r8, r10
 648 041c 18A08CE5 		str	r10, [ip, #24]
 649 0420 04E085E5 		str	lr, [r5, #4]
 650 0424 03A0C2E7 		strb	r10, [r2, r3]
 651 0428 079184E7 		str	r9, [r4, r7, lsl #2]
 652 042c 888285E5 		str	r8, [r5, #648]
 653              	.L105:
 654 0430 0D00A0E1 		mov	r0, sp
 655 0434 FEFFFFEB 		bl	_ZN6tflite26Register_BATCH_TO_SPACE_NDEv
 656 0438 04C095E5 		ldr	ip, [r5, #4]
 657 043c 00005CE3 		cmp	ip, #0
 658 0440 750B000A 		beq	.L509
 659 0444 183094E5 		ldr	r3, [r4, #24]
 660 0448 250053E3 		cmp	r3, #37
 661 044c 0430A011 		movne	r3, r4
 662 0450 0010A013 		movne	r1, #0
 663 0454 0400001A 		bne	.L113
 664 0458 1F0000EA 		b	.L111
 665              	.L1300:
 666 045c 180093E5 		ldr	r0, [r3, #24]
 667 0460 0210A0E1 		mov	r1, r2
 668 0464 250050E3 		cmp	r0, #37
 669 0468 1B00000A 		beq	.L111
 670              	.L113:
 671 046c 012081E2 		add	r2, r1, #1
 672 0470 203083E2 		add	r3, r3, #32
 673 0474 0C0052E1 		cmp	r2, ip
 674 0478 F7FFFF1A 		bne	.L1300
 675 047c 80005CE3 		cmp	ip, #128
 676 0480 02E08112 		addne	lr, r1, #2
 677 0484 1400000A 		beq	.L111
 678              	.L110:
 679 0488 0D70A0E1 		mov	r7, sp
 680 048c 82C284E0 		add	ip, r4, r2, lsl #5
 681 0490 0F00B7E8 		ldmia	r7!, {r0, r1, r2, r3}
 682 0494 009000E3 		movw	r9, #:lower16:_ZN6tflite19ParseBatchToSpaceNdEPKNS_8OperatorEPNS_13ErrorReporterEPNS_20Builti
 683 0498 04608CE2 		add	r6, ip, #4
 684 049c 25A0A0E3 		mov	r10, #37
 685 04a0 888295E5 		ldr	r8, [r5, #648]
 686 04a4 009040E3 		movt	r9, #:upper16:_ZN6tflite19ParseBatchToSpaceNdEPKNS_8OperatorEPNS_13ErrorReporterEPNS_20Builti
 687 04a8 0F00A6E8 		stmia	r6!, {r0, r1, r2, r3}
 688 04ac 0F0097E8 		ldm	r7, {r0, r1, r2, r3}
 689 04b0 427E88E2 		add	r7, r8, #1056
 690 04b4 027087E2 		add	r7, r7, #2
 691 04b8 0F0086E8 		stm	r6, {r0, r1, r2, r3}
 692 04bc 082084E0 		add	r2, r4, r8
 693 04c0 083001E3 		movw	r3, #4104
 694 04c4 018088E2 		add	r8, r8, #1
 695 04c8 18A08CE5 		str	r10, [ip, #24]
 696 04cc 04E085E5 		str	lr, [r5, #4]
 697 04d0 03A0C2E7 		strb	r10, [r2, r3]
 698 04d4 079184E7 		str	r9, [r4, r7, lsl #2]
 699 04d8 888285E5 		str	r8, [r5, #648]
 700              	.L111:
 701 04dc 0D00A0E1 		mov	r0, sp
 702 04e0 FEFFFFEB 		bl	_ZN6tflite3ops5micro13Register_CEILEv
 703 04e4 04C095E5 		ldr	ip, [r5, #4]
 704 04e8 00005CE3 		cmp	ip, #0
 705 04ec 530B000A 		beq	.L510
 706 04f0 183094E5 		ldr	r3, [r4, #24]
 707 04f4 680053E3 		cmp	r3, #104
 708 04f8 0430A011 		movne	r3, r4
 709 04fc 0010A013 		movne	r1, #0
 710 0500 0400001A 		bne	.L119
 711 0504 1F0000EA 		b	.L117
 712              	.L1302:
 713 0508 180093E5 		ldr	r0, [r3, #24]
 714 050c 0210A0E1 		mov	r1, r2
 715 0510 680050E3 		cmp	r0, #104
 716 0514 1B00000A 		beq	.L117
 717              	.L119:
 718 0518 012081E2 		add	r2, r1, #1
 719 051c 203083E2 		add	r3, r3, #32
 720 0520 0C0052E1 		cmp	r2, ip
 721 0524 F7FFFF1A 		bne	.L1302
 722 0528 80005CE3 		cmp	ip, #128
 723 052c 02E08112 		addne	lr, r1, #2
 724 0530 1400000A 		beq	.L117
 725              	.L116:
 726 0534 0D70A0E1 		mov	r7, sp
 727 0538 82C284E0 		add	ip, r4, r2, lsl #5
 728 053c 0F00B7E8 		ldmia	r7!, {r0, r1, r2, r3}
 729 0540 009000E3 		movw	r9, #:lower16:_ZN6tflite9ParseCeilEPKNS_8OperatorEPNS_13ErrorReporterEPNS_20BuiltinDataAlloca
 730 0544 04608CE2 		add	r6, ip, #4
 731 0548 68A0A0E3 		mov	r10, #104
 732 054c 888295E5 		ldr	r8, [r5, #648]
 733 0550 009040E3 		movt	r9, #:upper16:_ZN6tflite9ParseCeilEPKNS_8OperatorEPNS_13ErrorReporterEPNS_20BuiltinDataAlloca
 734 0554 0F00A6E8 		stmia	r6!, {r0, r1, r2, r3}
 735 0558 0F0097E8 		ldm	r7, {r0, r1, r2, r3}
 736 055c 427E88E2 		add	r7, r8, #1056
 737 0560 027087E2 		add	r7, r7, #2
 738 0564 0F0086E8 		stm	r6, {r0, r1, r2, r3}
 739 0568 082084E0 		add	r2, r4, r8
 740 056c 083001E3 		movw	r3, #4104
 741 0570 018088E2 		add	r8, r8, #1
 742 0574 18A08CE5 		str	r10, [ip, #24]
 743 0578 04E085E5 		str	lr, [r5, #4]
 744 057c 03A0C2E7 		strb	r10, [r2, r3]
 745 0580 079184E7 		str	r9, [r4, r7, lsl #2]
 746 0584 888285E5 		str	r8, [r5, #648]
 747              	.L117:
 748 0588 0D00A0E1 		mov	r0, sp
 749 058c FEFFFFEB 		bl	_ZN6tflite3ops5micro22Register_CONCATENATIONEv
 750 0590 04C095E5 		ldr	ip, [r5, #4]
 751 0594 00005CE3 		cmp	ip, #0
 752 0598 250B000A 		beq	.L511
 753 059c 183094E5 		ldr	r3, [r4, #24]
 754 05a0 020053E3 		cmp	r3, #2
 755 05a4 0430A011 		movne	r3, r4
 756 05a8 0010A013 		movne	r1, #0
 757 05ac 0400001A 		bne	.L125
 758 05b0 1F0000EA 		b	.L123
 759              	.L1304:
 760 05b4 180093E5 		ldr	r0, [r3, #24]
 761 05b8 0210A0E1 		mov	r1, r2
 762 05bc 020050E3 		cmp	r0, #2
 763 05c0 1B00000A 		beq	.L123
 764              	.L125:
 765 05c4 012081E2 		add	r2, r1, #1
 766 05c8 203083E2 		add	r3, r3, #32
 767 05cc 02005CE1 		cmp	ip, r2
 768 05d0 F7FFFF1A 		bne	.L1304
 769 05d4 800052E3 		cmp	r2, #128
 770 05d8 02E08112 		addne	lr, r1, #2
 771 05dc 1400000A 		beq	.L123
 772              	.L122:
 773 05e0 0D70A0E1 		mov	r7, sp
 774 05e4 82C284E0 		add	ip, r4, r2, lsl #5
 775 05e8 0F00B7E8 		ldmia	r7!, {r0, r1, r2, r3}
 776 05ec 009000E3 		movw	r9, #:lower16:_ZN6tflite18ParseConcatenationEPKNS_8OperatorEPNS_13ErrorReporterEPNS_20Builtin
 777 05f0 04608CE2 		add	r6, ip, #4
 778 05f4 02A0A0E3 		mov	r10, #2
 779 05f8 888295E5 		ldr	r8, [r5, #648]
 780 05fc 009040E3 		movt	r9, #:upper16:_ZN6tflite18ParseConcatenationEPKNS_8OperatorEPNS_13ErrorReporterEPNS_20Builtin
 781 0600 0F00A6E8 		stmia	r6!, {r0, r1, r2, r3}
 782 0604 0F0097E8 		ldm	r7, {r0, r1, r2, r3}
 783 0608 427E88E2 		add	r7, r8, #1056
 784 060c 027087E2 		add	r7, r7, #2
 785 0610 0F0086E8 		stm	r6, {r0, r1, r2, r3}
 786 0614 082084E0 		add	r2, r4, r8
 787 0618 083001E3 		movw	r3, #4104
 788 061c 018088E2 		add	r8, r8, #1
 789 0620 18A08CE5 		str	r10, [ip, #24]
 790 0624 04E085E5 		str	lr, [r5, #4]
 791 0628 03A0C2E7 		strb	r10, [r2, r3]
 792 062c 079184E7 		str	r9, [r4, r7, lsl #2]
 793 0630 888285E5 		str	r8, [r5, #648]
 794              	.L123:
 795 0634 0D00A0E1 		mov	r0, sp
 796 0638 FEFFFFEB 		bl	_ZN6tflite16Register_CONV_2DEv
 797 063c 04C095E5 		ldr	ip, [r5, #4]
 798 0640 00005CE3 		cmp	ip, #0
 799 0644 030B000A 		beq	.L512
 800 0648 183094E5 		ldr	r3, [r4, #24]
 801 064c 030053E3 		cmp	r3, #3
 802 0650 0430A011 		movne	r3, r4
 803 0654 0010A013 		movne	r1, #0
 804 0658 0400001A 		bne	.L131
 805 065c 1F0000EA 		b	.L129
 806              	.L1306:
 807 0660 180093E5 		ldr	r0, [r3, #24]
 808 0664 0210A0E1 		mov	r1, r2
 809 0668 030050E3 		cmp	r0, #3
 810 066c 1B00000A 		beq	.L129
 811              	.L131:
 812 0670 012081E2 		add	r2, r1, #1
 813 0674 203083E2 		add	r3, r3, #32
 814 0678 0C0052E1 		cmp	r2, ip
 815 067c F7FFFF1A 		bne	.L1306
 816 0680 80005CE3 		cmp	ip, #128
 817 0684 02E08112 		addne	lr, r1, #2
 818 0688 1400000A 		beq	.L129
 819              	.L128:
 820 068c 0D70A0E1 		mov	r7, sp
 821 0690 82C284E0 		add	ip, r4, r2, lsl #5
 822 0694 0F00B7E8 		ldmia	r7!, {r0, r1, r2, r3}
 823 0698 009000E3 		movw	r9, #:lower16:_ZN6tflite11ParseConv2DEPKNS_8OperatorEPNS_13ErrorReporterEPNS_20BuiltinDataAll
 824 069c 04608CE2 		add	r6, ip, #4
 825 06a0 03A0A0E3 		mov	r10, #3
 826 06a4 888295E5 		ldr	r8, [r5, #648]
 827 06a8 009040E3 		movt	r9, #:upper16:_ZN6tflite11ParseConv2DEPKNS_8OperatorEPNS_13ErrorReporterEPNS_20BuiltinDataAll
 828 06ac 0F00A6E8 		stmia	r6!, {r0, r1, r2, r3}
 829 06b0 0F0097E8 		ldm	r7, {r0, r1, r2, r3}
 830 06b4 427E88E2 		add	r7, r8, #1056
 831 06b8 027087E2 		add	r7, r7, #2
 832 06bc 0F0086E8 		stm	r6, {r0, r1, r2, r3}
 833 06c0 082084E0 		add	r2, r4, r8
 834 06c4 083001E3 		movw	r3, #4104
 835 06c8 018088E2 		add	r8, r8, #1
 836 06cc 18A08CE5 		str	r10, [ip, #24]
 837 06d0 04E085E5 		str	lr, [r5, #4]
 838 06d4 03A0C2E7 		strb	r10, [r2, r3]
 839 06d8 079184E7 		str	r9, [r4, r7, lsl #2]
 840 06dc 888285E5 		str	r8, [r5, #648]
 841              	.L129:
 842 06e0 0D00A0E1 		mov	r0, sp
 843 06e4 FEFFFFEB 		bl	_ZN6tflite3ops5micro12Register_COSEv
 844 06e8 04C095E5 		ldr	ip, [r5, #4]
 845 06ec 00005CE3 		cmp	ip, #0
 846 06f0 D50A000A 		beq	.L513
 847 06f4 183094E5 		ldr	r3, [r4, #24]
 848 06f8 6C0053E3 		cmp	r3, #108
 849 06fc 0430A011 		movne	r3, r4
 850 0700 0010A013 		movne	r1, #0
 851 0704 0400001A 		bne	.L137
 852 0708 1F0000EA 		b	.L135
 853              	.L1308:
 854 070c 180093E5 		ldr	r0, [r3, #24]
 855 0710 0210A0E1 		mov	r1, r2
 856 0714 6C0050E3 		cmp	r0, #108
 857 0718 1B00000A 		beq	.L135
 858              	.L137:
 859 071c 012081E2 		add	r2, r1, #1
 860 0720 203083E2 		add	r3, r3, #32
 861 0724 0C0052E1 		cmp	r2, ip
 862 0728 F7FFFF1A 		bne	.L1308
 863 072c 80005CE3 		cmp	ip, #128
 864 0730 02E08112 		addne	lr, r1, #2
 865 0734 1400000A 		beq	.L135
 866              	.L134:
 867 0738 0D70A0E1 		mov	r7, sp
 868 073c 82C284E0 		add	ip, r4, r2, lsl #5
 869 0740 0F00B7E8 		ldmia	r7!, {r0, r1, r2, r3}
 870 0744 009000E3 		movw	r9, #:lower16:_ZN6tflite8ParseCosEPKNS_8OperatorEPNS_13ErrorReporterEPNS_20BuiltinDataAllocat
 871 0748 04608CE2 		add	r6, ip, #4
 872 074c 6CA0A0E3 		mov	r10, #108
 873 0750 888295E5 		ldr	r8, [r5, #648]
 874 0754 009040E3 		movt	r9, #:upper16:_ZN6tflite8ParseCosEPKNS_8OperatorEPNS_13ErrorReporterEPNS_20BuiltinDataAllocat
 875 0758 0F00A6E8 		stmia	r6!, {r0, r1, r2, r3}
 876 075c 0F0097E8 		ldm	r7, {r0, r1, r2, r3}
 877 0760 427E88E2 		add	r7, r8, #1056
 878 0764 027087E2 		add	r7, r7, #2
 879 0768 0F0086E8 		stm	r6, {r0, r1, r2, r3}
 880 076c 082084E0 		add	r2, r4, r8
 881 0770 083001E3 		movw	r3, #4104
 882 0774 018088E2 		add	r8, r8, #1
 883 0778 18A08CE5 		str	r10, [ip, #24]
 884 077c 04E085E5 		str	lr, [r5, #4]
 885 0780 03A0C2E7 		strb	r10, [r2, r3]
 886 0784 079184E7 		str	r9, [r4, r7, lsl #2]
 887 0788 888285E5 		str	r8, [r5, #648]
 888              	.L135:
 889 078c 0D00A0E1 		mov	r0, sp
 890 0790 FEFFFFEB 		bl	_ZN6tflite15Register_CUMSUMEv
 891 0794 04C095E5 		ldr	ip, [r5, #4]
 892 0798 00005CE3 		cmp	ip, #0
 893 079c 6B0A000A 		beq	.L514
 894 07a0 183094E5 		ldr	r3, [r4, #24]
 895 07a4 800053E3 		cmp	r3, #128
 896 07a8 0430A011 		movne	r3, r4
 897 07ac 0010A013 		movne	r1, #0
 898 07b0 0400001A 		bne	.L143
 899 07b4 200000EA 		b	.L141
 900              	.L1310:
 901 07b8 180093E5 		ldr	r0, [r3, #24]
 902 07bc 0210A0E1 		mov	r1, r2
 903 07c0 800050E3 		cmp	r0, #128
 904 07c4 1C00000A 		beq	.L141
 905              	.L143:
 906 07c8 012081E2 		add	r2, r1, #1
 907 07cc 203083E2 		add	r3, r3, #32
 908 07d0 0C0052E1 		cmp	r2, ip
 909 07d4 F7FFFF1A 		bne	.L1310
 910 07d8 80005CE3 		cmp	ip, #128
 911 07dc 02E08112 		addne	lr, r1, #2
 912 07e0 1500000A 		beq	.L141
 913              	.L140:
 914 07e4 0D70A0E1 		mov	r7, sp
 915 07e8 82C284E0 		add	ip, r4, r2, lsl #5
 916 07ec 0F00B7E8 		ldmia	r7!, {r0, r1, r2, r3}
 917 07f0 009000E3 		movw	r9, #:lower16:_ZN6tflite11ParseCumsumEPKNS_8OperatorEPNS_13ErrorReporterEPNS_20BuiltinDataAll
 918 07f4 04608CE2 		add	r6, ip, #4
 919 07f8 009040E3 		movt	r9, #:upper16:_ZN6tflite11ParseCumsumEPKNS_8OperatorEPNS_13ErrorReporterEPNS_20BuiltinDataAll
 920 07fc 888295E5 		ldr	r8, [r5, #648]
 921 0800 80A0A0E3 		mov	r10, #128
 922 0804 0F00A6E8 		stmia	r6!, {r0, r1, r2, r3}
 923 0808 0F0097E8 		ldm	r7, {r0, r1, r2, r3}
 924 080c 427E88E2 		add	r7, r8, #1056
 925 0810 027087E2 		add	r7, r7, #2
 926 0814 0F0086E8 		stm	r6, {r0, r1, r2, r3}
 927 0818 082084E0 		add	r2, r4, r8
 928 081c 083001E3 		movw	r3, #4104
 929 0820 018088E2 		add	r8, r8, #1
 930 0824 7F10E0E3 		mvn	r1, #127
 931 0828 18A08CE5 		str	r10, [ip, #24]
 932 082c 04E085E5 		str	lr, [r5, #4]
 933 0830 0310C2E7 		strb	r1, [r2, r3]
 934 0834 079184E7 		str	r9, [r4, r7, lsl #2]
 935 0838 888285E5 		str	r8, [r5, #648]
 936              	.L141:
 937 083c 0D00A0E1 		mov	r0, sp
 938 0840 FEFFFFEB 		bl	_ZN6tflite23Register_DEPTH_TO_SPACEEv
 939 0844 04C095E5 		ldr	ip, [r5, #4]
 940 0848 00005CE3 		cmp	ip, #0
 941 084c 3C0A000A 		beq	.L515
 942 0850 183094E5 		ldr	r3, [r4, #24]
 943 0854 050053E3 		cmp	r3, #5
 944 0858 0430A011 		movne	r3, r4
 945 085c 0010A013 		movne	r1, #0
 946 0860 0400001A 		bne	.L149
 947 0864 1F0000EA 		b	.L147
 948              	.L1312:
 949 0868 180093E5 		ldr	r0, [r3, #24]
 950 086c 0210A0E1 		mov	r1, r2
 951 0870 050050E3 		cmp	r0, #5
 952 0874 1B00000A 		beq	.L147
 953              	.L149:
 954 0878 012081E2 		add	r2, r1, #1
 955 087c 203083E2 		add	r3, r3, #32
 956 0880 0C0052E1 		cmp	r2, ip
 957 0884 F7FFFF1A 		bne	.L1312
 958 0888 80005CE3 		cmp	ip, #128
 959 088c 02E08112 		addne	lr, r1, #2
 960 0890 1400000A 		beq	.L147
 961              	.L146:
 962 0894 0D70A0E1 		mov	r7, sp
 963 0898 82C284E0 		add	ip, r4, r2, lsl #5
 964 089c 0F00B7E8 		ldmia	r7!, {r0, r1, r2, r3}
 965 08a0 009000E3 		movw	r9, #:lower16:_ZN6tflite17ParseDepthToSpaceEPKNS_8OperatorEPNS_13ErrorReporterEPNS_20BuiltinD
 966 08a4 04608CE2 		add	r6, ip, #4
 967 08a8 05A0A0E3 		mov	r10, #5
 968 08ac 888295E5 		ldr	r8, [r5, #648]
 969 08b0 009040E3 		movt	r9, #:upper16:_ZN6tflite17ParseDepthToSpaceEPKNS_8OperatorEPNS_13ErrorReporterEPNS_20BuiltinD
 970 08b4 0F00A6E8 		stmia	r6!, {r0, r1, r2, r3}
 971 08b8 0F0097E8 		ldm	r7, {r0, r1, r2, r3}
 972 08bc 427E88E2 		add	r7, r8, #1056
 973 08c0 027087E2 		add	r7, r7, #2
 974 08c4 0F0086E8 		stm	r6, {r0, r1, r2, r3}
 975 08c8 082084E0 		add	r2, r4, r8
 976 08cc 083001E3 		movw	r3, #4104
 977 08d0 018088E2 		add	r8, r8, #1
 978 08d4 18A08CE5 		str	r10, [ip, #24]
 979 08d8 04E085E5 		str	lr, [r5, #4]
 980 08dc 03A0C2E7 		strb	r10, [r2, r3]
 981 08e0 079184E7 		str	r9, [r4, r7, lsl #2]
 982 08e4 888285E5 		str	r8, [r5, #648]
 983              	.L147:
 984 08e8 0D00A0E1 		mov	r0, sp
 985 08ec FEFFFFEB 		bl	_ZN6tflite26Register_DEPTHWISE_CONV_2DEv
 986 08f0 04C095E5 		ldr	ip, [r5, #4]
 987 08f4 00005CE3 		cmp	ip, #0
 988 08f8 1A0A000A 		beq	.L516
 989 08fc 183094E5 		ldr	r3, [r4, #24]
 990 0900 040053E3 		cmp	r3, #4
 991 0904 0430A011 		movne	r3, r4
 992 0908 0010A013 		movne	r1, #0
 993 090c 0400001A 		bne	.L155
 994 0910 1F0000EA 		b	.L153
 995              	.L1314:
 996 0914 180093E5 		ldr	r0, [r3, #24]
 997 0918 0210A0E1 		mov	r1, r2
 998 091c 040050E3 		cmp	r0, #4
 999 0920 1B00000A 		beq	.L153
 1000              	.L155:
 1001 0924 012081E2 		add	r2, r1, #1
 1002 0928 203083E2 		add	r3, r3, #32
 1003 092c 02005CE1 		cmp	ip, r2
 1004 0930 F7FFFF1A 		bne	.L1314
 1005 0934 800052E3 		cmp	r2, #128
 1006 0938 02E08112 		addne	lr, r1, #2
 1007 093c 1400000A 		beq	.L153
 1008              	.L152:
 1009 0940 0D70A0E1 		mov	r7, sp
 1010 0944 82C284E0 		add	ip, r4, r2, lsl #5
 1011 0948 0F00B7E8 		ldmia	r7!, {r0, r1, r2, r3}
 1012 094c 009000E3 		movw	r9, #:lower16:_ZN6tflite20ParseDepthwiseConv2DEPKNS_8OperatorEPNS_13ErrorReporterEPNS_20Built
 1013 0950 04608CE2 		add	r6, ip, #4
 1014 0954 04A0A0E3 		mov	r10, #4
 1015 0958 888295E5 		ldr	r8, [r5, #648]
 1016 095c 009040E3 		movt	r9, #:upper16:_ZN6tflite20ParseDepthwiseConv2DEPKNS_8OperatorEPNS_13ErrorReporterEPNS_20Built
 1017 0960 0F00A6E8 		stmia	r6!, {r0, r1, r2, r3}
 1018 0964 0F0097E8 		ldm	r7, {r0, r1, r2, r3}
 1019 0968 427E88E2 		add	r7, r8, #1056
 1020 096c 027087E2 		add	r7, r7, #2
 1021 0970 0F0086E8 		stm	r6, {r0, r1, r2, r3}
 1022 0974 082084E0 		add	r2, r4, r8
 1023 0978 083001E3 		movw	r3, #4104
 1024 097c 018088E2 		add	r8, r8, #1
 1025 0980 18A08CE5 		str	r10, [ip, #24]
 1026 0984 04E085E5 		str	lr, [r5, #4]
 1027 0988 03A0C2E7 		strb	r10, [r2, r3]
 1028 098c 079184E7 		str	r9, [r4, r7, lsl #2]
 1029 0990 888285E5 		str	r8, [r5, #648]
 1030              	.L153:
 1031 0994 0D00A0E1 		mov	r0, sp
 1032 0998 FEFFFFEB 		bl	_ZN6tflite3ops5micro19Register_DEQUANTIZEEv
 1033 099c 04C095E5 		ldr	ip, [r5, #4]
 1034 09a0 00005CE3 		cmp	ip, #0
 1035 09a4 EC09000A 		beq	.L517
 1036 09a8 183094E5 		ldr	r3, [r4, #24]
 1037 09ac 060053E3 		cmp	r3, #6
 1038 09b0 0430A011 		movne	r3, r4
 1039 09b4 0010A013 		movne	r1, #0
 1040 09b8 0400001A 		bne	.L161
 1041 09bc 1F0000EA 		b	.L159
 1042              	.L1316:
 1043 09c0 180093E5 		ldr	r0, [r3, #24]
 1044 09c4 0210A0E1 		mov	r1, r2
 1045 09c8 060050E3 		cmp	r0, #6
 1046 09cc 1B00000A 		beq	.L159
 1047              	.L161:
 1048 09d0 012081E2 		add	r2, r1, #1
 1049 09d4 203083E2 		add	r3, r3, #32
 1050 09d8 02005CE1 		cmp	ip, r2
 1051 09dc F7FFFF1A 		bne	.L1316
 1052 09e0 800052E3 		cmp	r2, #128
 1053 09e4 02E08112 		addne	lr, r1, #2
 1054 09e8 1400000A 		beq	.L159
 1055              	.L158:
 1056 09ec 0D70A0E1 		mov	r7, sp
 1057 09f0 82C284E0 		add	ip, r4, r2, lsl #5
 1058 09f4 0F00B7E8 		ldmia	r7!, {r0, r1, r2, r3}
 1059 09f8 009000E3 		movw	r9, #:lower16:_ZN6tflite15ParseDequantizeEPKNS_8OperatorEPNS_13ErrorReporterEPNS_20BuiltinDat
 1060 09fc 04608CE2 		add	r6, ip, #4
 1061 0a00 06A0A0E3 		mov	r10, #6
 1062 0a04 888295E5 		ldr	r8, [r5, #648]
 1063 0a08 009040E3 		movt	r9, #:upper16:_ZN6tflite15ParseDequantizeEPKNS_8OperatorEPNS_13ErrorReporterEPNS_20BuiltinDat
 1064 0a0c 0F00A6E8 		stmia	r6!, {r0, r1, r2, r3}
 1065 0a10 0F0097E8 		ldm	r7, {r0, r1, r2, r3}
 1066 0a14 427E88E2 		add	r7, r8, #1056
 1067 0a18 027087E2 		add	r7, r7, #2
 1068 0a1c 0F0086E8 		stm	r6, {r0, r1, r2, r3}
 1069 0a20 082084E0 		add	r2, r4, r8
 1070 0a24 083001E3 		movw	r3, #4104
 1071 0a28 018088E2 		add	r8, r8, #1
 1072 0a2c 18A08CE5 		str	r10, [ip, #24]
 1073 0a30 04E085E5 		str	lr, [r5, #4]
 1074 0a34 03A0C2E7 		strb	r10, [r2, r3]
 1075 0a38 079184E7 		str	r9, [r4, r7, lsl #2]
 1076 0a3c 888285E5 		str	r8, [r5, #648]
 1077              	.L159:
 1078 0a40 FEFFFFEB 		bl	_ZN6tflite30Register_DETECTION_POSTPROCESSEv
 1079 0a44 048095E5 		ldr	r8, [r5, #4]
 1080 0a48 0070A0E1 		mov	r7, r0
 1081 0a4c 7F0058E3 		cmp	r8, #127
 1082 0a50 6909009A 		bls	.L1500
 1083              	.L164:
 1084 0a54 0D00A0E1 		mov	r0, sp
 1085 0a58 FEFFFFEB 		bl	_ZN6tflite12Register_ELUEv
 1086 0a5c 04C095E5 		ldr	ip, [r5, #4]
 1087 0a60 00005CE3 		cmp	ip, #0
 1088 0a64 8F09000A 		beq	.L518
 1089 0a68 183094E5 		ldr	r3, [r4, #24]
 1090 0a6c 6F0053E3 		cmp	r3, #111
 1091 0a70 0430A011 		movne	r3, r4
 1092 0a74 0010A013 		movne	r1, #0
 1093 0a78 0400001A 		bne	.L171
 1094 0a7c 1F0000EA 		b	.L169
 1095              	.L1319:
 1096 0a80 180093E5 		ldr	r0, [r3, #24]
 1097 0a84 0210A0E1 		mov	r1, r2
 1098 0a88 6F0050E3 		cmp	r0, #111
 1099 0a8c 1B00000A 		beq	.L169
 1100              	.L171:
 1101 0a90 012081E2 		add	r2, r1, #1
 1102 0a94 203083E2 		add	r3, r3, #32
 1103 0a98 0C0052E1 		cmp	r2, ip
 1104 0a9c F7FFFF1A 		bne	.L1319
 1105 0aa0 80005CE3 		cmp	ip, #128
 1106 0aa4 02E08112 		addne	lr, r1, #2
 1107 0aa8 1400000A 		beq	.L169
 1108              	.L168:
 1109 0aac 0D70A0E1 		mov	r7, sp
 1110 0ab0 82C284E0 		add	ip, r4, r2, lsl #5
 1111 0ab4 0F00B7E8 		ldmia	r7!, {r0, r1, r2, r3}
 1112 0ab8 009000E3 		movw	r9, #:lower16:_ZN6tflite8ParseEluEPKNS_8OperatorEPNS_13ErrorReporterEPNS_20BuiltinDataAllocat
 1113 0abc 04608CE2 		add	r6, ip, #4
 1114 0ac0 6FA0A0E3 		mov	r10, #111
 1115 0ac4 888295E5 		ldr	r8, [r5, #648]
 1116 0ac8 009040E3 		movt	r9, #:upper16:_ZN6tflite8ParseEluEPKNS_8OperatorEPNS_13ErrorReporterEPNS_20BuiltinDataAllocat
 1117 0acc 0F00A6E8 		stmia	r6!, {r0, r1, r2, r3}
 1118 0ad0 0F0097E8 		ldm	r7, {r0, r1, r2, r3}
 1119 0ad4 427E88E2 		add	r7, r8, #1056
 1120 0ad8 027087E2 		add	r7, r7, #2
 1121 0adc 0F0086E8 		stm	r6, {r0, r1, r2, r3}
 1122 0ae0 082084E0 		add	r2, r4, r8
 1123 0ae4 083001E3 		movw	r3, #4104
 1124 0ae8 018088E2 		add	r8, r8, #1
 1125 0aec 18A08CE5 		str	r10, [ip, #24]
 1126 0af0 04E085E5 		str	lr, [r5, #4]
 1127 0af4 03A0C2E7 		strb	r10, [r2, r3]
 1128 0af8 079184E7 		str	r9, [r4, r7, lsl #2]
 1129 0afc 888285E5 		str	r8, [r5, #648]
 1130              	.L169:
 1131 0b00 0D00A0E1 		mov	r0, sp
 1132 0b04 FEFFFFEB 		bl	_ZN6tflite3ops5micro14Register_EQUALEv
 1133 0b08 04C095E5 		ldr	ip, [r5, #4]
 1134 0b0c 00005CE3 		cmp	ip, #0
 1135 0b10 6109000A 		beq	.L519
 1136 0b14 183094E5 		ldr	r3, [r4, #24]
 1137 0b18 470053E3 		cmp	r3, #71
 1138 0b1c 0430A011 		movne	r3, r4
 1139 0b20 0010A013 		movne	r1, #0
 1140 0b24 0400001A 		bne	.L177
 1141 0b28 1F0000EA 		b	.L175
 1142              	.L1321:
 1143 0b2c 180093E5 		ldr	r0, [r3, #24]
 1144 0b30 0210A0E1 		mov	r1, r2
 1145 0b34 470050E3 		cmp	r0, #71
 1146 0b38 1B00000A 		beq	.L175
 1147              	.L177:
 1148 0b3c 012081E2 		add	r2, r1, #1
 1149 0b40 203083E2 		add	r3, r3, #32
 1150 0b44 02005CE1 		cmp	ip, r2
 1151 0b48 F7FFFF1A 		bne	.L1321
 1152 0b4c 800052E3 		cmp	r2, #128
 1153 0b50 02E08112 		addne	lr, r1, #2
 1154 0b54 1400000A 		beq	.L175
 1155              	.L174:
 1156 0b58 0D70A0E1 		mov	r7, sp
 1157 0b5c 82C284E0 		add	ip, r4, r2, lsl #5
 1158 0b60 0F00B7E8 		ldmia	r7!, {r0, r1, r2, r3}
 1159 0b64 009000E3 		movw	r9, #:lower16:_ZN6tflite10ParseEqualEPKNS_8OperatorEPNS_13ErrorReporterEPNS_20BuiltinDataAllo
 1160 0b68 04608CE2 		add	r6, ip, #4
 1161 0b6c 47A0A0E3 		mov	r10, #71
 1162 0b70 888295E5 		ldr	r8, [r5, #648]
 1163 0b74 009040E3 		movt	r9, #:upper16:_ZN6tflite10ParseEqualEPKNS_8OperatorEPNS_13ErrorReporterEPNS_20BuiltinDataAllo
 1164 0b78 0F00A6E8 		stmia	r6!, {r0, r1, r2, r3}
 1165 0b7c 0F0097E8 		ldm	r7, {r0, r1, r2, r3}
 1166 0b80 427E88E2 		add	r7, r8, #1056
 1167 0b84 027087E2 		add	r7, r7, #2
 1168 0b88 0F0086E8 		stm	r6, {r0, r1, r2, r3}
 1169 0b8c 082084E0 		add	r2, r4, r8
 1170 0b90 083001E3 		movw	r3, #4104
 1171 0b94 018088E2 		add	r8, r8, #1
 1172 0b98 18A08CE5 		str	r10, [ip, #24]
 1173 0b9c 04E085E5 		str	lr, [r5, #4]
 1174 0ba0 03A0C2E7 		strb	r10, [r2, r3]
 1175 0ba4 079184E7 		str	r9, [r4, r7, lsl #2]
 1176 0ba8 888285E5 		str	r8, [r5, #648]
 1177              	.L175:
 1178 0bac FEFFFFEB 		bl	_ZN6tflite15Register_ETHOSUEv
 1179 0bb0 007050E2 		subs	r7, r0, #0
 1180 0bb4 0400000A 		beq	.L502
 1181 0bb8 FEFFFFEB 		bl	_ZN6tflite16GetString_ETHOSUEv
 1182 0bbc 048095E5 		ldr	r8, [r5, #4]
 1183 0bc0 0090A0E1 		mov	r9, r0
 1184 0bc4 7F0058E3 		cmp	r8, #127
 1185 0bc8 EA08009A 		bls	.L1501
 1186              	.L502:
 1187 0bcc 0D00A0E1 		mov	r0, sp
 1188 0bd0 FEFFFFEB 		bl	_ZN6tflite3ops5micro14Register_FLOOREv
 1189 0bd4 04C095E5 		ldr	ip, [r5, #4]
 1190 0bd8 00005CE3 		cmp	ip, #0
 1191 0bdc 3D09000A 		beq	.L520
 1192 0be0 183094E5 		ldr	r3, [r4, #24]
 1193 0be4 080053E3 		cmp	r3, #8
 1194 0be8 0430A011 		movne	r3, r4
 1195 0bec 0010A013 		movne	r1, #0
 1196 0bf0 0400001A 		bne	.L187
 1197 0bf4 1F0000EA 		b	.L185
 1198              	.L1324:
 1199 0bf8 180093E5 		ldr	r0, [r3, #24]
 1200 0bfc 0210A0E1 		mov	r1, r2
 1201 0c00 080050E3 		cmp	r0, #8
 1202 0c04 1B00000A 		beq	.L185
 1203              	.L187:
 1204 0c08 012081E2 		add	r2, r1, #1
 1205 0c0c 203083E2 		add	r3, r3, #32
 1206 0c10 0C0052E1 		cmp	r2, ip
 1207 0c14 F7FFFF1A 		bne	.L1324
 1208 0c18 80005CE3 		cmp	ip, #128
 1209 0c1c 02E08112 		addne	lr, r1, #2
 1210 0c20 1400000A 		beq	.L185
 1211              	.L184:
 1212 0c24 0D70A0E1 		mov	r7, sp
 1213 0c28 82C284E0 		add	ip, r4, r2, lsl #5
 1214 0c2c 0F00B7E8 		ldmia	r7!, {r0, r1, r2, r3}
 1215 0c30 009000E3 		movw	r9, #:lower16:_ZN6tflite10ParseFloorEPKNS_8OperatorEPNS_13ErrorReporterEPNS_20BuiltinDataAllo
 1216 0c34 04608CE2 		add	r6, ip, #4
 1217 0c38 08A0A0E3 		mov	r10, #8
 1218 0c3c 888295E5 		ldr	r8, [r5, #648]
 1219 0c40 009040E3 		movt	r9, #:upper16:_ZN6tflite10ParseFloorEPKNS_8OperatorEPNS_13ErrorReporterEPNS_20BuiltinDataAllo
 1220 0c44 0F00A6E8 		stmia	r6!, {r0, r1, r2, r3}
 1221 0c48 0F0097E8 		ldm	r7, {r0, r1, r2, r3}
 1222 0c4c 427E88E2 		add	r7, r8, #1056
 1223 0c50 027087E2 		add	r7, r7, #2
 1224 0c54 0F0086E8 		stm	r6, {r0, r1, r2, r3}
 1225 0c58 082084E0 		add	r2, r4, r8
 1226 0c5c 083001E3 		movw	r3, #4104
 1227 0c60 018088E2 		add	r8, r8, #1
 1228 0c64 18A08CE5 		str	r10, [ip, #24]
 1229 0c68 04E085E5 		str	lr, [r5, #4]
 1230 0c6c 03A0C2E7 		strb	r10, [r2, r3]
 1231 0c70 079184E7 		str	r9, [r4, r7, lsl #2]
 1232 0c74 888285E5 		str	r8, [r5, #648]
 1233              	.L185:
 1234 0c78 0D00A0E1 		mov	r0, sp
 1235 0c7c FEFFFFEB 		bl	_ZN6tflite18Register_FLOOR_DIVEv
 1236 0c80 04C095E5 		ldr	ip, [r5, #4]
 1237 0c84 00005CE3 		cmp	ip, #0
 1238 0c88 C309000A 		beq	.L521
 1239 0c8c 183094E5 		ldr	r3, [r4, #24]
 1240 0c90 5A0053E3 		cmp	r3, #90
 1241 0c94 0430A011 		movne	r3, r4
 1242 0c98 0010A013 		movne	r1, #0
 1243 0c9c 0400001A 		bne	.L193
 1244 0ca0 1F0000EA 		b	.L191
 1245              	.L1326:
 1246 0ca4 180093E5 		ldr	r0, [r3, #24]
 1247 0ca8 0210A0E1 		mov	r1, r2
 1248 0cac 5A0050E3 		cmp	r0, #90
 1249 0cb0 1B00000A 		beq	.L191
 1250              	.L193:
 1251 0cb4 012081E2 		add	r2, r1, #1
 1252 0cb8 203083E2 		add	r3, r3, #32
 1253 0cbc 0C0052E1 		cmp	r2, ip
 1254 0cc0 F7FFFF1A 		bne	.L1326
 1255 0cc4 80005CE3 		cmp	ip, #128
 1256 0cc8 02E08112 		addne	lr, r1, #2
 1257 0ccc 1400000A 		beq	.L191
 1258              	.L190:
 1259 0cd0 0D70A0E1 		mov	r7, sp
 1260 0cd4 82C284E0 		add	ip, r4, r2, lsl #5
 1261 0cd8 0F00B7E8 		ldmia	r7!, {r0, r1, r2, r3}
 1262 0cdc 009000E3 		movw	r9, #:lower16:_ZN6tflite13ParseFloorDivEPKNS_8OperatorEPNS_13ErrorReporterEPNS_20BuiltinDataA
 1263 0ce0 04608CE2 		add	r6, ip, #4
 1264 0ce4 5AA0A0E3 		mov	r10, #90
 1265 0ce8 888295E5 		ldr	r8, [r5, #648]
 1266 0cec 009040E3 		movt	r9, #:upper16:_ZN6tflite13ParseFloorDivEPKNS_8OperatorEPNS_13ErrorReporterEPNS_20BuiltinDataA
 1267 0cf0 0F00A6E8 		stmia	r6!, {r0, r1, r2, r3}
 1268 0cf4 0F0097E8 		ldm	r7, {r0, r1, r2, r3}
 1269 0cf8 427E88E2 		add	r7, r8, #1056
 1270 0cfc 027087E2 		add	r7, r7, #2
 1271 0d00 0F0086E8 		stm	r6, {r0, r1, r2, r3}
 1272 0d04 082084E0 		add	r2, r4, r8
 1273 0d08 083001E3 		movw	r3, #4104
 1274 0d0c 018088E2 		add	r8, r8, #1
 1275 0d10 18A08CE5 		str	r10, [ip, #24]
 1276 0d14 04E085E5 		str	lr, [r5, #4]
 1277 0d18 03A0C2E7 		strb	r10, [r2, r3]
 1278 0d1c 079184E7 		str	r9, [r4, r7, lsl #2]
 1279 0d20 888285E5 		str	r8, [r5, #648]
 1280              	.L191:
 1281 0d24 0D00A0E1 		mov	r0, sp
 1282 0d28 FEFFFFEB 		bl	_ZN6tflite18Register_FLOOR_MODEv
 1283 0d2c 04C095E5 		ldr	ip, [r5, #4]
 1284 0d30 00005CE3 		cmp	ip, #0
 1285 0d34 9509000A 		beq	.L522
 1286 0d38 183094E5 		ldr	r3, [r4, #24]
 1287 0d3c 5F0053E3 		cmp	r3, #95
 1288 0d40 0430A011 		movne	r3, r4
 1289 0d44 0010A013 		movne	r1, #0
 1290 0d48 0400001A 		bne	.L199
 1291 0d4c 1F0000EA 		b	.L197
 1292              	.L1328:
 1293 0d50 180093E5 		ldr	r0, [r3, #24]
 1294 0d54 0210A0E1 		mov	r1, r2
 1295 0d58 5F0050E3 		cmp	r0, #95
 1296 0d5c 1B00000A 		beq	.L197
 1297              	.L199:
 1298 0d60 012081E2 		add	r2, r1, #1
 1299 0d64 203083E2 		add	r3, r3, #32
 1300 0d68 0C0052E1 		cmp	r2, ip
 1301 0d6c F7FFFF1A 		bne	.L1328
 1302 0d70 80005CE3 		cmp	ip, #128
 1303 0d74 02E08112 		addne	lr, r1, #2
 1304 0d78 1400000A 		beq	.L197
 1305              	.L196:
 1306 0d7c 0D70A0E1 		mov	r7, sp
 1307 0d80 82C284E0 		add	ip, r4, r2, lsl #5
 1308 0d84 0F00B7E8 		ldmia	r7!, {r0, r1, r2, r3}
 1309 0d88 009000E3 		movw	r9, #:lower16:_ZN6tflite13ParseFloorModEPKNS_8OperatorEPNS_13ErrorReporterEPNS_20BuiltinDataA
 1310 0d8c 04608CE2 		add	r6, ip, #4
 1311 0d90 5FA0A0E3 		mov	r10, #95
 1312 0d94 888295E5 		ldr	r8, [r5, #648]
 1313 0d98 009040E3 		movt	r9, #:upper16:_ZN6tflite13ParseFloorModEPKNS_8OperatorEPNS_13ErrorReporterEPNS_20BuiltinDataA
 1314 0d9c 0F00A6E8 		stmia	r6!, {r0, r1, r2, r3}
 1315 0da0 0F0097E8 		ldm	r7, {r0, r1, r2, r3}
 1316 0da4 427E88E2 		add	r7, r8, #1056
 1317 0da8 027087E2 		add	r7, r7, #2
 1318 0dac 0F0086E8 		stm	r6, {r0, r1, r2, r3}
 1319 0db0 082084E0 		add	r2, r4, r8
 1320 0db4 083001E3 		movw	r3, #4104
 1321 0db8 018088E2 		add	r8, r8, #1
 1322 0dbc 18A08CE5 		str	r10, [ip, #24]
 1323 0dc0 04E085E5 		str	lr, [r5, #4]
 1324 0dc4 03A0C2E7 		strb	r10, [r2, r3]
 1325 0dc8 079184E7 		str	r9, [r4, r7, lsl #2]
 1326 0dcc 888285E5 		str	r8, [r5, #648]
 1327              	.L197:
 1328 0dd0 0D00A0E1 		mov	r0, sp
 1329 0dd4 FEFFFFEB 		bl	_ZN6tflite24Register_FULLY_CONNECTEDEv
 1330 0dd8 04C095E5 		ldr	ip, [r5, #4]
 1331 0ddc 00005CE3 		cmp	ip, #0
 1332 0de0 6409000A 		beq	.L523
 1333 0de4 183094E5 		ldr	r3, [r4, #24]
 1334 0de8 090053E3 		cmp	r3, #9
 1335 0dec 0430A011 		movne	r3, r4
 1336 0df0 0010A013 		movne	r1, #0
 1337 0df4 0400001A 		bne	.L205
 1338 0df8 1F0000EA 		b	.L203
 1339              	.L1330:
 1340 0dfc 180093E5 		ldr	r0, [r3, #24]
 1341 0e00 0210A0E1 		mov	r1, r2
 1342 0e04 090050E3 		cmp	r0, #9
 1343 0e08 1B00000A 		beq	.L203
 1344              	.L205:
 1345 0e0c 012081E2 		add	r2, r1, #1
 1346 0e10 203083E2 		add	r3, r3, #32
 1347 0e14 0C0052E1 		cmp	r2, ip
 1348 0e18 F7FFFF1A 		bne	.L1330
 1349 0e1c 80005CE3 		cmp	ip, #128
 1350 0e20 02E08112 		addne	lr, r1, #2
 1351 0e24 1400000A 		beq	.L203
 1352              	.L202:
 1353 0e28 0D70A0E1 		mov	r7, sp
 1354 0e2c 82C284E0 		add	ip, r4, r2, lsl #5
 1355 0e30 0F00B7E8 		ldmia	r7!, {r0, r1, r2, r3}
 1356 0e34 009000E3 		movw	r9, #:lower16:_ZN6tflite19ParseFullyConnectedEPKNS_8OperatorEPNS_13ErrorReporterEPNS_20Builti
 1357 0e38 04608CE2 		add	r6, ip, #4
 1358 0e3c 09A0A0E3 		mov	r10, #9
 1359 0e40 888295E5 		ldr	r8, [r5, #648]
 1360 0e44 009040E3 		movt	r9, #:upper16:_ZN6tflite19ParseFullyConnectedEPKNS_8OperatorEPNS_13ErrorReporterEPNS_20Builti
 1361 0e48 0F00A6E8 		stmia	r6!, {r0, r1, r2, r3}
 1362 0e4c 0F0097E8 		ldm	r7, {r0, r1, r2, r3}
 1363 0e50 427E88E2 		add	r7, r8, #1056
 1364 0e54 027087E2 		add	r7, r7, #2
 1365 0e58 0F0086E8 		stm	r6, {r0, r1, r2, r3}
 1366 0e5c 082084E0 		add	r2, r4, r8
 1367 0e60 083001E3 		movw	r3, #4104
 1368 0e64 018088E2 		add	r8, r8, #1
 1369 0e68 18A08CE5 		str	r10, [ip, #24]
 1370 0e6c 04E085E5 		str	lr, [r5, #4]
 1371 0e70 03A0C2E7 		strb	r10, [r2, r3]
 1372 0e74 079184E7 		str	r9, [r4, r7, lsl #2]
 1373 0e78 888285E5 		str	r8, [r5, #648]
 1374              	.L203:
 1375 0e7c 0D00A0E1 		mov	r0, sp
 1376 0e80 FEFFFFEB 		bl	_ZN6tflite3ops5micro16Register_GREATEREv
 1377 0e84 04C095E5 		ldr	ip, [r5, #4]
 1378 0e88 00005CE3 		cmp	ip, #0
 1379 0e8c 3C09000A 		beq	.L524
 1380 0e90 183094E5 		ldr	r3, [r4, #24]
 1381 0e94 3D0053E3 		cmp	r3, #61
 1382 0e98 0430A011 		movne	r3, r4
 1383 0e9c 0010A013 		movne	r1, #0
 1384 0ea0 0400001A 		bne	.L211
 1385 0ea4 1F0000EA 		b	.L209
 1386              	.L1332:
 1387 0ea8 180093E5 		ldr	r0, [r3, #24]
 1388 0eac 0210A0E1 		mov	r1, r2
 1389 0eb0 3D0050E3 		cmp	r0, #61
 1390 0eb4 1B00000A 		beq	.L209
 1391              	.L211:
 1392 0eb8 012081E2 		add	r2, r1, #1
 1393 0ebc 203083E2 		add	r3, r3, #32
 1394 0ec0 0C0052E1 		cmp	r2, ip
 1395 0ec4 F7FFFF1A 		bne	.L1332
 1396 0ec8 80005CE3 		cmp	ip, #128
 1397 0ecc 02E08112 		addne	lr, r1, #2
 1398 0ed0 1400000A 		beq	.L209
 1399              	.L208:
 1400 0ed4 0D70A0E1 		mov	r7, sp
 1401 0ed8 82C284E0 		add	ip, r4, r2, lsl #5
 1402 0edc 0F00B7E8 		ldmia	r7!, {r0, r1, r2, r3}
 1403 0ee0 009000E3 		movw	r9, #:lower16:_ZN6tflite12ParseGreaterEPKNS_8OperatorEPNS_13ErrorReporterEPNS_20BuiltinDataAl
 1404 0ee4 04608CE2 		add	r6, ip, #4
 1405 0ee8 3DA0A0E3 		mov	r10, #61
 1406 0eec 888295E5 		ldr	r8, [r5, #648]
 1407 0ef0 009040E3 		movt	r9, #:upper16:_ZN6tflite12ParseGreaterEPKNS_8OperatorEPNS_13ErrorReporterEPNS_20BuiltinDataAl
 1408 0ef4 0F00A6E8 		stmia	r6!, {r0, r1, r2, r3}
 1409 0ef8 0F0097E8 		ldm	r7, {r0, r1, r2, r3}
 1410 0efc 427E88E2 		add	r7, r8, #1056
 1411 0f00 027087E2 		add	r7, r7, #2
 1412 0f04 0F0086E8 		stm	r6, {r0, r1, r2, r3}
 1413 0f08 082084E0 		add	r2, r4, r8
 1414 0f0c 083001E3 		movw	r3, #4104
 1415 0f10 018088E2 		add	r8, r8, #1
 1416 0f14 18A08CE5 		str	r10, [ip, #24]
 1417 0f18 04E085E5 		str	lr, [r5, #4]
 1418 0f1c 03A0C2E7 		strb	r10, [r2, r3]
 1419 0f20 079184E7 		str	r9, [r4, r7, lsl #2]
 1420 0f24 888285E5 		str	r8, [r5, #648]
 1421              	.L209:
 1422 0f28 0D00A0E1 		mov	r0, sp
 1423 0f2c FEFFFFEB 		bl	_ZN6tflite3ops5micro22Register_GREATER_EQUALEv
 1424 0f30 04C095E5 		ldr	ip, [r5, #4]
 1425 0f34 00005CE3 		cmp	ip, #0
 1426 0f38 2309000A 		beq	.L525
 1427 0f3c 183094E5 		ldr	r3, [r4, #24]
 1428 0f40 3E0053E3 		cmp	r3, #62
 1429 0f44 0430A011 		movne	r3, r4
 1430 0f48 0010A013 		movne	r1, #0
 1431 0f4c 0500001A 		bne	.L217
 1432 0f50 200000EA 		b	.L215
 1433              	.L1503:
 1434              		.align	2
 1435              	.L1502:
 1436 0f54 08000000 		.word	_ZTVN6tflite14AllOpsResolverE+8
 1437              	.L1334:
 1438 0f58 180093E5 		ldr	r0, [r3, #24]
 1439 0f5c 0210A0E1 		mov	r1, r2
 1440 0f60 3E0050E3 		cmp	r0, #62
 1441 0f64 1B00000A 		beq	.L215
 1442              	.L217:
 1443 0f68 012081E2 		add	r2, r1, #1
 1444 0f6c 203083E2 		add	r3, r3, #32
 1445 0f70 0C0052E1 		cmp	r2, ip
 1446 0f74 F7FFFF1A 		bne	.L1334
 1447 0f78 80005CE3 		cmp	ip, #128
 1448 0f7c 02E08112 		addne	lr, r1, #2
 1449 0f80 1400000A 		beq	.L215
 1450              	.L214:
 1451 0f84 0D70A0E1 		mov	r7, sp
 1452 0f88 82C284E0 		add	ip, r4, r2, lsl #5
 1453 0f8c 0F00B7E8 		ldmia	r7!, {r0, r1, r2, r3}
 1454 0f90 009000E3 		movw	r9, #:lower16:_ZN6tflite17ParseGreaterEqualEPKNS_8OperatorEPNS_13ErrorReporterEPNS_20BuiltinD
 1455 0f94 04608CE2 		add	r6, ip, #4
 1456 0f98 3EA0A0E3 		mov	r10, #62
 1457 0f9c 888295E5 		ldr	r8, [r5, #648]
 1458 0fa0 009040E3 		movt	r9, #:upper16:_ZN6tflite17ParseGreaterEqualEPKNS_8OperatorEPNS_13ErrorReporterEPNS_20BuiltinD
 1459 0fa4 0F00A6E8 		stmia	r6!, {r0, r1, r2, r3}
 1460 0fa8 0F0097E8 		ldm	r7, {r0, r1, r2, r3}
 1461 0fac 427E88E2 		add	r7, r8, #1056
 1462 0fb0 027087E2 		add	r7, r7, #2
 1463 0fb4 0F0086E8 		stm	r6, {r0, r1, r2, r3}
 1464 0fb8 082084E0 		add	r2, r4, r8
 1465 0fbc 083001E3 		movw	r3, #4104
 1466 0fc0 018088E2 		add	r8, r8, #1
 1467 0fc4 18A08CE5 		str	r10, [ip, #24]
 1468 0fc8 04E085E5 		str	lr, [r5, #4]
 1469 0fcc 03A0C2E7 		strb	r10, [r2, r3]
 1470 0fd0 079184E7 		str	r9, [r4, r7, lsl #2]
 1471 0fd4 888285E5 		str	r8, [r5, #648]
 1472              	.L215:
 1473 0fd8 0D00A0E1 		mov	r0, sp
 1474 0fdc FEFFFFEB 		bl	_ZN6tflite3ops5micro19Register_HARD_SWISHEv
 1475 0fe0 04C095E5 		ldr	ip, [r5, #4]
 1476 0fe4 00005CE3 		cmp	ip, #0
 1477 0fe8 F408000A 		beq	.L526
 1478 0fec 183094E5 		ldr	r3, [r4, #24]
 1479 0ff0 750053E3 		cmp	r3, #117
 1480 0ff4 0430A011 		movne	r3, r4
 1481 0ff8 0010A013 		movne	r1, #0
 1482 0ffc 0400001A 		bne	.L223
 1483 1000 1F0000EA 		b	.L221
 1484              	.L1336:
 1485 1004 180093E5 		ldr	r0, [r3, #24]
 1486 1008 0210A0E1 		mov	r1, r2
 1487 100c 750050E3 		cmp	r0, #117
 1488 1010 1B00000A 		beq	.L221
 1489              	.L223:
 1490 1014 012081E2 		add	r2, r1, #1
 1491 1018 203083E2 		add	r3, r3, #32
 1492 101c 0C0052E1 		cmp	r2, ip
 1493 1020 F7FFFF1A 		bne	.L1336
 1494 1024 80005CE3 		cmp	ip, #128
 1495 1028 02E08112 		addne	lr, r1, #2
 1496 102c 1400000A 		beq	.L221
 1497              	.L220:
 1498 1030 0D70A0E1 		mov	r7, sp
 1499 1034 82C284E0 		add	ip, r4, r2, lsl #5
 1500 1038 0F00B7E8 		ldmia	r7!, {r0, r1, r2, r3}
 1501 103c 009000E3 		movw	r9, #:lower16:_ZN6tflite14ParseHardSwishEPKNS_8OperatorEPNS_13ErrorReporterEPNS_20BuiltinData
 1502 1040 04608CE2 		add	r6, ip, #4
 1503 1044 75A0A0E3 		mov	r10, #117
 1504 1048 888295E5 		ldr	r8, [r5, #648]
 1505 104c 009040E3 		movt	r9, #:upper16:_ZN6tflite14ParseHardSwishEPKNS_8OperatorEPNS_13ErrorReporterEPNS_20BuiltinData
 1506 1050 0F00A6E8 		stmia	r6!, {r0, r1, r2, r3}
 1507 1054 0F0097E8 		ldm	r7, {r0, r1, r2, r3}
 1508 1058 427E88E2 		add	r7, r8, #1056
 1509 105c 027087E2 		add	r7, r7, #2
 1510 1060 0F0086E8 		stm	r6, {r0, r1, r2, r3}
 1511 1064 082084E0 		add	r2, r4, r8
 1512 1068 083001E3 		movw	r3, #4104
 1513 106c 018088E2 		add	r8, r8, #1
 1514 1070 18A08CE5 		str	r10, [ip, #24]
 1515 1074 04E085E5 		str	lr, [r5, #4]
 1516 1078 03A0C2E7 		strb	r10, [r2, r3]
 1517 107c 079184E7 		str	r9, [r4, r7, lsl #2]
 1518 1080 888285E5 		str	r8, [r5, #648]
 1519              	.L221:
 1520 1084 0D00A0E1 		mov	r0, sp
 1521 1088 FEFFFFEB 		bl	_ZN6tflite3ops5micro25Register_L2_NORMALIZATIONEv
 1522 108c 04C095E5 		ldr	ip, [r5, #4]
 1523 1090 00005CE3 		cmp	ip, #0
 1524 1094 C608000A 		beq	.L527
 1525 1098 183094E5 		ldr	r3, [r4, #24]
 1526 109c 0B0053E3 		cmp	r3, #11
 1527 10a0 0430A011 		movne	r3, r4
 1528 10a4 0010A013 		movne	r1, #0
 1529 10a8 0400001A 		bne	.L229
 1530 10ac 1F0000EA 		b	.L227
 1531              	.L1338:
 1532 10b0 180093E5 		ldr	r0, [r3, #24]
 1533 10b4 0210A0E1 		mov	r1, r2
 1534 10b8 0B0050E3 		cmp	r0, #11
 1535 10bc 1B00000A 		beq	.L227
 1536              	.L229:
 1537 10c0 012081E2 		add	r2, r1, #1
 1538 10c4 203083E2 		add	r3, r3, #32
 1539 10c8 0C0052E1 		cmp	r2, ip
 1540 10cc F7FFFF1A 		bne	.L1338
 1541 10d0 80005CE3 		cmp	ip, #128
 1542 10d4 02E08112 		addne	lr, r1, #2
 1543 10d8 1400000A 		beq	.L227
 1544              	.L226:
 1545 10dc 0D70A0E1 		mov	r7, sp
 1546 10e0 82C284E0 		add	ip, r4, r2, lsl #5
 1547 10e4 0F00B7E8 		ldmia	r7!, {r0, r1, r2, r3}
 1548 10e8 009000E3 		movw	r9, #:lower16:_ZN6tflite20ParseL2NormalizationEPKNS_8OperatorEPNS_13ErrorReporterEPNS_20Built
 1549 10ec 04608CE2 		add	r6, ip, #4
 1550 10f0 0BA0A0E3 		mov	r10, #11
 1551 10f4 888295E5 		ldr	r8, [r5, #648]
 1552 10f8 009040E3 		movt	r9, #:upper16:_ZN6tflite20ParseL2NormalizationEPKNS_8OperatorEPNS_13ErrorReporterEPNS_20Built
 1553 10fc 0F00A6E8 		stmia	r6!, {r0, r1, r2, r3}
 1554 1100 0F0097E8 		ldm	r7, {r0, r1, r2, r3}
 1555 1104 427E88E2 		add	r7, r8, #1056
 1556 1108 027087E2 		add	r7, r7, #2
 1557 110c 0F0086E8 		stm	r6, {r0, r1, r2, r3}
 1558 1110 082084E0 		add	r2, r4, r8
 1559 1114 083001E3 		movw	r3, #4104
 1560 1118 018088E2 		add	r8, r8, #1
 1561 111c 18A08CE5 		str	r10, [ip, #24]
 1562 1120 04E085E5 		str	lr, [r5, #4]
 1563 1124 03A0C2E7 		strb	r10, [r2, r3]
 1564 1128 079184E7 		str	r9, [r4, r7, lsl #2]
 1565 112c 888285E5 		str	r8, [r5, #648]
 1566              	.L227:
 1567 1130 0D00A0E1 		mov	r0, sp
 1568 1134 FEFFFFEB 		bl	_ZN6tflite19Register_L2_POOL_2DEv
 1569 1138 04C095E5 		ldr	ip, [r5, #4]
 1570 113c 00005CE3 		cmp	ip, #0
 1571 1140 9808000A 		beq	.L528
 1572 1144 183094E5 		ldr	r3, [r4, #24]
 1573 1148 0C0053E3 		cmp	r3, #12
 1574 114c 0430A011 		movne	r3, r4
 1575 1150 0010A013 		movne	r1, #0
 1576 1154 0400001A 		bne	.L235
 1577 1158 1F0000EA 		b	.L233
 1578              	.L1340:
 1579 115c 180093E5 		ldr	r0, [r3, #24]
 1580 1160 0210A0E1 		mov	r1, r2
 1581 1164 0C0050E3 		cmp	r0, #12
 1582 1168 1B00000A 		beq	.L233
 1583              	.L235:
 1584 116c 012081E2 		add	r2, r1, #1
 1585 1170 203083E2 		add	r3, r3, #32
 1586 1174 0C0052E1 		cmp	r2, ip
 1587 1178 F7FFFF1A 		bne	.L1340
 1588 117c 80005CE3 		cmp	ip, #128
 1589 1180 02E08112 		addne	lr, r1, #2
 1590 1184 1400000A 		beq	.L233
 1591              	.L232:
 1592 1188 0D70A0E1 		mov	r7, sp
 1593 118c 82C284E0 		add	ip, r4, r2, lsl #5
 1594 1190 0F00B7E8 		ldmia	r7!, {r0, r1, r2, r3}
 1595 1194 009000E3 		movw	r9, #:lower16:_ZN6tflite9ParsePoolEPKNS_8OperatorEPNS_13ErrorReporterEPNS_20BuiltinDataAlloca
 1596 1198 04608CE2 		add	r6, ip, #4
 1597 119c 0CA0A0E3 		mov	r10, #12
 1598 11a0 888295E5 		ldr	r8, [r5, #648]
 1599 11a4 009040E3 		movt	r9, #:upper16:_ZN6tflite9ParsePoolEPKNS_8OperatorEPNS_13ErrorReporterEPNS_20BuiltinDataAlloca
 1600 11a8 0F00A6E8 		stmia	r6!, {r0, r1, r2, r3}
 1601 11ac 0F0097E8 		ldm	r7, {r0, r1, r2, r3}
 1602 11b0 427E88E2 		add	r7, r8, #1056
 1603 11b4 027087E2 		add	r7, r7, #2
 1604 11b8 0F0086E8 		stm	r6, {r0, r1, r2, r3}
 1605 11bc 082084E0 		add	r2, r4, r8
 1606 11c0 083001E3 		movw	r3, #4104
 1607 11c4 018088E2 		add	r8, r8, #1
 1608 11c8 18A08CE5 		str	r10, [ip, #24]
 1609 11cc 04E085E5 		str	lr, [r5, #4]
 1610 11d0 03A0C2E7 		strb	r10, [r2, r3]
 1611 11d4 079184E7 		str	r9, [r4, r7, lsl #2]
 1612 11d8 888285E5 		str	r8, [r5, #648]
 1613              	.L233:
 1614 11dc 0D00A0E1 		mov	r0, sp
 1615 11e0 FEFFFFEB 		bl	_ZN6tflite19Register_LEAKY_RELUEv
 1616 11e4 04C095E5 		ldr	ip, [r5, #4]
 1617 11e8 00005CE3 		cmp	ip, #0
 1618 11ec 2E08000A 		beq	.L529
 1619 11f0 183094E5 		ldr	r3, [r4, #24]
 1620 11f4 620053E3 		cmp	r3, #98
 1621 11f8 0430A011 		movne	r3, r4
 1622 11fc 0010A013 		movne	r1, #0
 1623 1200 0400001A 		bne	.L241
 1624 1204 1F0000EA 		b	.L239
 1625              	.L1342:
 1626 1208 180093E5 		ldr	r0, [r3, #24]
 1627 120c 0210A0E1 		mov	r1, r2
 1628 1210 620050E3 		cmp	r0, #98
 1629 1214 1B00000A 		beq	.L239
 1630              	.L241:
 1631 1218 012081E2 		add	r2, r1, #1
 1632 121c 203083E2 		add	r3, r3, #32
 1633 1220 0C0052E1 		cmp	r2, ip
 1634 1224 F7FFFF1A 		bne	.L1342
 1635 1228 80005CE3 		cmp	ip, #128
 1636 122c 02E08112 		addne	lr, r1, #2
 1637 1230 1400000A 		beq	.L239
 1638              	.L238:
 1639 1234 0D70A0E1 		mov	r7, sp
 1640 1238 82C284E0 		add	ip, r4, r2, lsl #5
 1641 123c 0F00B7E8 		ldmia	r7!, {r0, r1, r2, r3}
 1642 1240 009000E3 		movw	r9, #:lower16:_ZN6tflite14ParseLeakyReluEPKNS_8OperatorEPNS_13ErrorReporterEPNS_20BuiltinData
 1643 1244 04608CE2 		add	r6, ip, #4
 1644 1248 62A0A0E3 		mov	r10, #98
 1645 124c 888295E5 		ldr	r8, [r5, #648]
 1646 1250 009040E3 		movt	r9, #:upper16:_ZN6tflite14ParseLeakyReluEPKNS_8OperatorEPNS_13ErrorReporterEPNS_20BuiltinData
 1647 1254 0F00A6E8 		stmia	r6!, {r0, r1, r2, r3}
 1648 1258 0F0097E8 		ldm	r7, {r0, r1, r2, r3}
 1649 125c 427E88E2 		add	r7, r8, #1056
 1650 1260 027087E2 		add	r7, r7, #2
 1651 1264 0F0086E8 		stm	r6, {r0, r1, r2, r3}
 1652 1268 082084E0 		add	r2, r4, r8
 1653 126c 083001E3 		movw	r3, #4104
 1654 1270 018088E2 		add	r8, r8, #1
 1655 1274 18A08CE5 		str	r10, [ip, #24]
 1656 1278 04E085E5 		str	lr, [r5, #4]
 1657 127c 03A0C2E7 		strb	r10, [r2, r3]
 1658 1280 079184E7 		str	r9, [r4, r7, lsl #2]
 1659 1284 888285E5 		str	r8, [r5, #648]
 1660              	.L239:
 1661 1288 0D00A0E1 		mov	r0, sp
 1662 128c FEFFFFEB 		bl	_ZN6tflite3ops5micro13Register_LESSEv
 1663 1290 04C095E5 		ldr	ip, [r5, #4]
 1664 1294 00005CE3 		cmp	ip, #0
 1665 1298 0008000A 		beq	.L530
 1666 129c 183094E5 		ldr	r3, [r4, #24]
 1667 12a0 3A0053E3 		cmp	r3, #58
 1668 12a4 0430A011 		movne	r3, r4
 1669 12a8 0010A013 		movne	r1, #0
 1670 12ac 0400001A 		bne	.L247
 1671 12b0 1F0000EA 		b	.L245
 1672              	.L1344:
 1673 12b4 180093E5 		ldr	r0, [r3, #24]
 1674 12b8 0210A0E1 		mov	r1, r2
 1675 12bc 3A0050E3 		cmp	r0, #58
 1676 12c0 1B00000A 		beq	.L245
 1677              	.L247:
 1678 12c4 012081E2 		add	r2, r1, #1
 1679 12c8 203083E2 		add	r3, r3, #32
 1680 12cc 0C0052E1 		cmp	r2, ip
 1681 12d0 F7FFFF1A 		bne	.L1344
 1682 12d4 80005CE3 		cmp	ip, #128
 1683 12d8 02E08112 		addne	lr, r1, #2
 1684 12dc 1400000A 		beq	.L245
 1685              	.L244:
 1686 12e0 0D70A0E1 		mov	r7, sp
 1687 12e4 82C284E0 		add	ip, r4, r2, lsl #5
 1688 12e8 0F00B7E8 		ldmia	r7!, {r0, r1, r2, r3}
 1689 12ec 009000E3 		movw	r9, #:lower16:_ZN6tflite9ParseLessEPKNS_8OperatorEPNS_13ErrorReporterEPNS_20BuiltinDataAlloca
 1690 12f0 04608CE2 		add	r6, ip, #4
 1691 12f4 3AA0A0E3 		mov	r10, #58
 1692 12f8 888295E5 		ldr	r8, [r5, #648]
 1693 12fc 009040E3 		movt	r9, #:upper16:_ZN6tflite9ParseLessEPKNS_8OperatorEPNS_13ErrorReporterEPNS_20BuiltinDataAlloca
 1694 1300 0F00A6E8 		stmia	r6!, {r0, r1, r2, r3}
 1695 1304 0F0097E8 		ldm	r7, {r0, r1, r2, r3}
 1696 1308 427E88E2 		add	r7, r8, #1056
 1697 130c 027087E2 		add	r7, r7, #2
 1698 1310 0F0086E8 		stm	r6, {r0, r1, r2, r3}
 1699 1314 082084E0 		add	r2, r4, r8
 1700 1318 083001E3 		movw	r3, #4104
 1701 131c 018088E2 		add	r8, r8, #1
 1702 1320 18A08CE5 		str	r10, [ip, #24]
 1703 1324 04E085E5 		str	lr, [r5, #4]
 1704 1328 03A0C2E7 		strb	r10, [r2, r3]
 1705 132c 079184E7 		str	r9, [r4, r7, lsl #2]
 1706 1330 888285E5 		str	r8, [r5, #648]
 1707              	.L245:
 1708 1334 0D00A0E1 		mov	r0, sp
 1709 1338 FEFFFFEB 		bl	_ZN6tflite3ops5micro19Register_LESS_EQUALEv
 1710 133c 04C095E5 		ldr	ip, [r5, #4]
 1711 1340 00005CE3 		cmp	ip, #0
 1712 1344 D207000A 		beq	.L531
 1713 1348 183094E5 		ldr	r3, [r4, #24]
 1714 134c 3F0053E3 		cmp	r3, #63
 1715 1350 0430A011 		movne	r3, r4
 1716 1354 0010A013 		movne	r1, #0
 1717 1358 0400001A 		bne	.L253
 1718 135c 1F0000EA 		b	.L251
 1719              	.L1346:
 1720 1360 180093E5 		ldr	r0, [r3, #24]
 1721 1364 0210A0E1 		mov	r1, r2
 1722 1368 3F0050E3 		cmp	r0, #63
 1723 136c 1B00000A 		beq	.L251
 1724              	.L253:
 1725 1370 012081E2 		add	r2, r1, #1
 1726 1374 203083E2 		add	r3, r3, #32
 1727 1378 0C0052E1 		cmp	r2, ip
 1728 137c F7FFFF1A 		bne	.L1346
 1729 1380 80005CE3 		cmp	ip, #128
 1730 1384 02E08112 		addne	lr, r1, #2
 1731 1388 1400000A 		beq	.L251
 1732              	.L250:
 1733 138c 0D70A0E1 		mov	r7, sp
 1734 1390 82C284E0 		add	ip, r4, r2, lsl #5
 1735 1394 0F00B7E8 		ldmia	r7!, {r0, r1, r2, r3}
 1736 1398 009000E3 		movw	r9, #:lower16:_ZN6tflite14ParseLessEqualEPKNS_8OperatorEPNS_13ErrorReporterEPNS_20BuiltinData
 1737 139c 04608CE2 		add	r6, ip, #4
 1738 13a0 3FA0A0E3 		mov	r10, #63
 1739 13a4 888295E5 		ldr	r8, [r5, #648]
 1740 13a8 009040E3 		movt	r9, #:upper16:_ZN6tflite14ParseLessEqualEPKNS_8OperatorEPNS_13ErrorReporterEPNS_20BuiltinData
 1741 13ac 0F00A6E8 		stmia	r6!, {r0, r1, r2, r3}
 1742 13b0 0F0097E8 		ldm	r7, {r0, r1, r2, r3}
 1743 13b4 427E88E2 		add	r7, r8, #1056
 1744 13b8 027087E2 		add	r7, r7, #2
 1745 13bc 0F0086E8 		stm	r6, {r0, r1, r2, r3}
 1746 13c0 082084E0 		add	r2, r4, r8
 1747 13c4 083001E3 		movw	r3, #4104
 1748 13c8 018088E2 		add	r8, r8, #1
 1749 13cc 18A08CE5 		str	r10, [ip, #24]
 1750 13d0 04E085E5 		str	lr, [r5, #4]
 1751 13d4 03A0C2E7 		strb	r10, [r2, r3]
 1752 13d8 079184E7 		str	r9, [r4, r7, lsl #2]
 1753 13dc 888285E5 		str	r8, [r5, #648]
 1754              	.L251:
 1755 13e0 0D00A0E1 		mov	r0, sp
 1756 13e4 FEFFFFEB 		bl	_ZN6tflite3ops5micro12Register_LOGEv
 1757 13e8 04C095E5 		ldr	ip, [r5, #4]
 1758 13ec 00005CE3 		cmp	ip, #0
 1759 13f0 A407000A 		beq	.L532
 1760 13f4 183094E5 		ldr	r3, [r4, #24]
 1761 13f8 490053E3 		cmp	r3, #73
 1762 13fc 0430A011 		movne	r3, r4
 1763 1400 0010A013 		movne	r1, #0
 1764 1404 0400001A 		bne	.L259
 1765 1408 1F0000EA 		b	.L257
 1766              	.L1348:
 1767 140c 180093E5 		ldr	r0, [r3, #24]
 1768 1410 0210A0E1 		mov	r1, r2
 1769 1414 490050E3 		cmp	r0, #73
 1770 1418 1B00000A 		beq	.L257
 1771              	.L259:
 1772 141c 012081E2 		add	r2, r1, #1
 1773 1420 203083E2 		add	r3, r3, #32
 1774 1424 02005CE1 		cmp	ip, r2
 1775 1428 F7FFFF1A 		bne	.L1348
 1776 142c 800052E3 		cmp	r2, #128
 1777 1430 02E08112 		addne	lr, r1, #2
 1778 1434 1400000A 		beq	.L257
 1779              	.L256:
 1780 1438 0D70A0E1 		mov	r7, sp
 1781 143c 82C284E0 		add	ip, r4, r2, lsl #5
 1782 1440 0F00B7E8 		ldmia	r7!, {r0, r1, r2, r3}
 1783 1444 009000E3 		movw	r9, #:lower16:_ZN6tflite8ParseLogEPKNS_8OperatorEPNS_13ErrorReporterEPNS_20BuiltinDataAllocat
 1784 1448 04608CE2 		add	r6, ip, #4
 1785 144c 49A0A0E3 		mov	r10, #73
 1786 1450 888295E5 		ldr	r8, [r5, #648]
 1787 1454 009040E3 		movt	r9, #:upper16:_ZN6tflite8ParseLogEPKNS_8OperatorEPNS_13ErrorReporterEPNS_20BuiltinDataAllocat
 1788 1458 0F00A6E8 		stmia	r6!, {r0, r1, r2, r3}
 1789 145c 0F0097E8 		ldm	r7, {r0, r1, r2, r3}
 1790 1460 427E88E2 		add	r7, r8, #1056
 1791 1464 027087E2 		add	r7, r7, #2
 1792 1468 0F0086E8 		stm	r6, {r0, r1, r2, r3}
 1793 146c 082084E0 		add	r2, r4, r8
 1794 1470 083001E3 		movw	r3, #4104
 1795 1474 018088E2 		add	r8, r8, #1
 1796 1478 18A08CE5 		str	r10, [ip, #24]
 1797 147c 04E085E5 		str	lr, [r5, #4]
 1798 1480 03A0C2E7 		strb	r10, [r2, r3]
 1799 1484 079184E7 		str	r9, [r4, r7, lsl #2]
 1800 1488 888285E5 		str	r8, [r5, #648]
 1801              	.L257:
 1802 148c 0D00A0E1 		mov	r0, sp
 1803 1490 FEFFFFEB 		bl	_ZN6tflite3ops5micro20Register_LOGICAL_ANDEv
 1804 1494 04C095E5 		ldr	ip, [r5, #4]
 1805 1498 00005CE3 		cmp	ip, #0
 1806 149c 7607000A 		beq	.L533
 1807 14a0 183094E5 		ldr	r3, [r4, #24]
 1808 14a4 560053E3 		cmp	r3, #86
 1809 14a8 0430A011 		movne	r3, r4
 1810 14ac 0010A013 		movne	r1, #0
 1811 14b0 0400001A 		bne	.L265
 1812 14b4 1F0000EA 		b	.L263
 1813              	.L1350:
 1814 14b8 180093E5 		ldr	r0, [r3, #24]
 1815 14bc 0210A0E1 		mov	r1, r2
 1816 14c0 560050E3 		cmp	r0, #86
 1817 14c4 1B00000A 		beq	.L263
 1818              	.L265:
 1819 14c8 012081E2 		add	r2, r1, #1
 1820 14cc 203083E2 		add	r3, r3, #32
 1821 14d0 02005CE1 		cmp	ip, r2
 1822 14d4 F7FFFF1A 		bne	.L1350
 1823 14d8 800052E3 		cmp	r2, #128
 1824 14dc 02E08112 		addne	lr, r1, #2
 1825 14e0 1400000A 		beq	.L263
 1826              	.L262:
 1827 14e4 0D70A0E1 		mov	r7, sp
 1828 14e8 82C284E0 		add	ip, r4, r2, lsl #5
 1829 14ec 0F00B7E8 		ldmia	r7!, {r0, r1, r2, r3}
 1830 14f0 009000E3 		movw	r9, #:lower16:_ZN6tflite15ParseLogicalAndEPKNS_8OperatorEPNS_13ErrorReporterEPNS_20BuiltinDat
 1831 14f4 04608CE2 		add	r6, ip, #4
 1832 14f8 56A0A0E3 		mov	r10, #86
 1833 14fc 888295E5 		ldr	r8, [r5, #648]
 1834 1500 009040E3 		movt	r9, #:upper16:_ZN6tflite15ParseLogicalAndEPKNS_8OperatorEPNS_13ErrorReporterEPNS_20BuiltinDat
 1835 1504 0F00A6E8 		stmia	r6!, {r0, r1, r2, r3}
 1836 1508 0F0097E8 		ldm	r7, {r0, r1, r2, r3}
 1837 150c 427E88E2 		add	r7, r8, #1056
 1838 1510 027087E2 		add	r7, r7, #2
 1839 1514 0F0086E8 		stm	r6, {r0, r1, r2, r3}
 1840 1518 082084E0 		add	r2, r4, r8
 1841 151c 083001E3 		movw	r3, #4104
 1842 1520 018088E2 		add	r8, r8, #1
 1843 1524 18A08CE5 		str	r10, [ip, #24]
 1844 1528 04E085E5 		str	lr, [r5, #4]
 1845 152c 03A0C2E7 		strb	r10, [r2, r3]
 1846 1530 079184E7 		str	r9, [r4, r7, lsl #2]
 1847 1534 888285E5 		str	r8, [r5, #648]
 1848              	.L263:
 1849 1538 0D00A0E1 		mov	r0, sp
 1850 153c FEFFFFEB 		bl	_ZN6tflite3ops5micro20Register_LOGICAL_NOTEv
 1851 1540 04C095E5 		ldr	ip, [r5, #4]
 1852 1544 00005CE3 		cmp	ip, #0
 1853 1548 4807000A 		beq	.L534
 1854 154c 183094E5 		ldr	r3, [r4, #24]
 1855 1550 570053E3 		cmp	r3, #87
 1856 1554 0430A011 		movne	r3, r4
 1857 1558 0010A013 		movne	r1, #0
 1858 155c 0400001A 		bne	.L271
 1859 1560 1F0000EA 		b	.L269
 1860              	.L1352:
 1861 1564 180093E5 		ldr	r0, [r3, #24]
 1862 1568 0210A0E1 		mov	r1, r2
 1863 156c 570050E3 		cmp	r0, #87
 1864 1570 1B00000A 		beq	.L269
 1865              	.L271:
 1866 1574 012081E2 		add	r2, r1, #1
 1867 1578 203083E2 		add	r3, r3, #32
 1868 157c 02005CE1 		cmp	ip, r2
 1869 1580 F7FFFF1A 		bne	.L1352
 1870 1584 800052E3 		cmp	r2, #128
 1871 1588 02E08112 		addne	lr, r1, #2
 1872 158c 1400000A 		beq	.L269
 1873              	.L268:
 1874 1590 0D70A0E1 		mov	r7, sp
 1875 1594 82C284E0 		add	ip, r4, r2, lsl #5
 1876 1598 0F00B7E8 		ldmia	r7!, {r0, r1, r2, r3}
 1877 159c 009000E3 		movw	r9, #:lower16:_ZN6tflite15ParseLogicalNotEPKNS_8OperatorEPNS_13ErrorReporterEPNS_20BuiltinDat
 1878 15a0 04608CE2 		add	r6, ip, #4
 1879 15a4 57A0A0E3 		mov	r10, #87
 1880 15a8 888295E5 		ldr	r8, [r5, #648]
 1881 15ac 009040E3 		movt	r9, #:upper16:_ZN6tflite15ParseLogicalNotEPKNS_8OperatorEPNS_13ErrorReporterEPNS_20BuiltinDat
 1882 15b0 0F00A6E8 		stmia	r6!, {r0, r1, r2, r3}
 1883 15b4 0F0097E8 		ldm	r7, {r0, r1, r2, r3}
 1884 15b8 427E88E2 		add	r7, r8, #1056
 1885 15bc 027087E2 		add	r7, r7, #2
 1886 15c0 0F0086E8 		stm	r6, {r0, r1, r2, r3}
 1887 15c4 082084E0 		add	r2, r4, r8
 1888 15c8 083001E3 		movw	r3, #4104
 1889 15cc 018088E2 		add	r8, r8, #1
 1890 15d0 18A08CE5 		str	r10, [ip, #24]
 1891 15d4 04E085E5 		str	lr, [r5, #4]
 1892 15d8 03A0C2E7 		strb	r10, [r2, r3]
 1893 15dc 079184E7 		str	r9, [r4, r7, lsl #2]
 1894 15e0 888285E5 		str	r8, [r5, #648]
 1895              	.L269:
 1896 15e4 0D00A0E1 		mov	r0, sp
 1897 15e8 FEFFFFEB 		bl	_ZN6tflite3ops5micro19Register_LOGICAL_OREv
 1898 15ec 04C095E5 		ldr	ip, [r5, #4]
 1899 15f0 00005CE3 		cmp	ip, #0
 1900 15f4 1A07000A 		beq	.L535
 1901 15f8 183094E5 		ldr	r3, [r4, #24]
 1902 15fc 540053E3 		cmp	r3, #84
 1903 1600 0430A011 		movne	r3, r4
 1904 1604 0010A013 		movne	r1, #0
 1905 1608 0400001A 		bne	.L277
 1906 160c 1F0000EA 		b	.L275
 1907              	.L1354:
 1908 1610 180093E5 		ldr	r0, [r3, #24]
 1909 1614 0210A0E1 		mov	r1, r2
 1910 1618 540050E3 		cmp	r0, #84
 1911 161c 1B00000A 		beq	.L275
 1912              	.L277:
 1913 1620 012081E2 		add	r2, r1, #1
 1914 1624 203083E2 		add	r3, r3, #32
 1915 1628 02005CE1 		cmp	ip, r2
 1916 162c F7FFFF1A 		bne	.L1354
 1917 1630 800052E3 		cmp	r2, #128
 1918 1634 02E08112 		addne	lr, r1, #2
 1919 1638 1400000A 		beq	.L275
 1920              	.L274:
 1921 163c 0D70A0E1 		mov	r7, sp
 1922 1640 82C284E0 		add	ip, r4, r2, lsl #5
 1923 1644 0F00B7E8 		ldmia	r7!, {r0, r1, r2, r3}
 1924 1648 009000E3 		movw	r9, #:lower16:_ZN6tflite14ParseLogicalOrEPKNS_8OperatorEPNS_13ErrorReporterEPNS_20BuiltinData
 1925 164c 04608CE2 		add	r6, ip, #4
 1926 1650 54A0A0E3 		mov	r10, #84
 1927 1654 888295E5 		ldr	r8, [r5, #648]
 1928 1658 009040E3 		movt	r9, #:upper16:_ZN6tflite14ParseLogicalOrEPKNS_8OperatorEPNS_13ErrorReporterEPNS_20BuiltinData
 1929 165c 0F00A6E8 		stmia	r6!, {r0, r1, r2, r3}
 1930 1660 0F0097E8 		ldm	r7, {r0, r1, r2, r3}
 1931 1664 427E88E2 		add	r7, r8, #1056
 1932 1668 027087E2 		add	r7, r7, #2
 1933 166c 0F0086E8 		stm	r6, {r0, r1, r2, r3}
 1934 1670 082084E0 		add	r2, r4, r8
 1935 1674 083001E3 		movw	r3, #4104
 1936 1678 018088E2 		add	r8, r8, #1
 1937 167c 18A08CE5 		str	r10, [ip, #24]
 1938 1680 04E085E5 		str	lr, [r5, #4]
 1939 1684 03A0C2E7 		strb	r10, [r2, r3]
 1940 1688 079184E7 		str	r9, [r4, r7, lsl #2]
 1941 168c 888285E5 		str	r8, [r5, #648]
 1942              	.L275:
 1943 1690 0D00A0E1 		mov	r0, sp
 1944 1694 FEFFFFEB 		bl	_ZN6tflite3ops5micro17Register_LOGISTICEv
 1945 1698 04C095E5 		ldr	ip, [r5, #4]
 1946 169c 00005CE3 		cmp	ip, #0
 1947 16a0 7A06000A 		beq	.L536
 1948 16a4 183094E5 		ldr	r3, [r4, #24]
 1949 16a8 0E0053E3 		cmp	r3, #14
 1950 16ac 0430A011 		movne	r3, r4
 1951 16b0 0010A013 		movne	r1, #0
 1952 16b4 0400001A 		bne	.L283
 1953 16b8 1F0000EA 		b	.L281
 1954              	.L1356:
 1955 16bc 180093E5 		ldr	r0, [r3, #24]
 1956 16c0 0210A0E1 		mov	r1, r2
 1957 16c4 0E0050E3 		cmp	r0, #14
 1958 16c8 1B00000A 		beq	.L281
 1959              	.L283:
 1960 16cc 012081E2 		add	r2, r1, #1
 1961 16d0 203083E2 		add	r3, r3, #32
 1962 16d4 02005CE1 		cmp	ip, r2
 1963 16d8 F7FFFF1A 		bne	.L1356
 1964 16dc 800052E3 		cmp	r2, #128
 1965 16e0 02E08112 		addne	lr, r1, #2
 1966 16e4 1400000A 		beq	.L281
 1967              	.L280:
 1968 16e8 0D70A0E1 		mov	r7, sp
 1969 16ec 82C284E0 		add	ip, r4, r2, lsl #5
 1970 16f0 0F00B7E8 		ldmia	r7!, {r0, r1, r2, r3}
 1971 16f4 009000E3 		movw	r9, #:lower16:_ZN6tflite13ParseLogisticEPKNS_8OperatorEPNS_13ErrorReporterEPNS_20BuiltinDataA
 1972 16f8 04608CE2 		add	r6, ip, #4
 1973 16fc 0EA0A0E3 		mov	r10, #14
 1974 1700 888295E5 		ldr	r8, [r5, #648]
 1975 1704 009040E3 		movt	r9, #:upper16:_ZN6tflite13ParseLogisticEPKNS_8OperatorEPNS_13ErrorReporterEPNS_20BuiltinDataA
 1976 1708 0F00A6E8 		stmia	r6!, {r0, r1, r2, r3}
 1977 170c 0F0097E8 		ldm	r7, {r0, r1, r2, r3}
 1978 1710 427E88E2 		add	r7, r8, #1056
 1979 1714 027087E2 		add	r7, r7, #2
 1980 1718 0F0086E8 		stm	r6, {r0, r1, r2, r3}
 1981 171c 082084E0 		add	r2, r4, r8
 1982 1720 083001E3 		movw	r3, #4104
 1983 1724 018088E2 		add	r8, r8, #1
 1984 1728 18A08CE5 		str	r10, [ip, #24]
 1985 172c 04E085E5 		str	lr, [r5, #4]
 1986 1730 03A0C2E7 		strb	r10, [r2, r3]
 1987 1734 079184E7 		str	r9, [r4, r7, lsl #2]
 1988 1738 888285E5 		str	r8, [r5, #648]
 1989              	.L281:
 1990 173c 0D00A0E1 		mov	r0, sp
 1991 1740 FEFFFFEB 		bl	_ZN6tflite3ops5micro20Register_MAX_POOL_2DEv
 1992 1744 04C095E5 		ldr	ip, [r5, #4]
 1993 1748 00005CE3 		cmp	ip, #0
 1994 174c 5E06000A 		beq	.L537
 1995 1750 183094E5 		ldr	r3, [r4, #24]
 1996 1754 110053E3 		cmp	r3, #17
 1997 1758 0430A011 		movne	r3, r4
 1998 175c 0010A013 		movne	r1, #0
 1999 1760 0400001A 		bne	.L289
 2000 1764 1F0000EA 		b	.L287
 2001              	.L1358:
 2002 1768 180093E5 		ldr	r0, [r3, #24]
 2003 176c 0210A0E1 		mov	r1, r2
 2004 1770 110050E3 		cmp	r0, #17
 2005 1774 1B00000A 		beq	.L287
 2006              	.L289:
 2007 1778 012081E2 		add	r2, r1, #1
 2008 177c 203083E2 		add	r3, r3, #32
 2009 1780 02005CE1 		cmp	ip, r2
 2010 1784 F7FFFF1A 		bne	.L1358
 2011 1788 800052E3 		cmp	r2, #128
 2012 178c 02E08112 		addne	lr, r1, #2
 2013 1790 1400000A 		beq	.L287
 2014              	.L286:
 2015 1794 0D70A0E1 		mov	r7, sp
 2016 1798 82C284E0 		add	ip, r4, r2, lsl #5
 2017 179c 0F00B7E8 		ldmia	r7!, {r0, r1, r2, r3}
 2018 17a0 009000E3 		movw	r9, #:lower16:_ZN6tflite9ParsePoolEPKNS_8OperatorEPNS_13ErrorReporterEPNS_20BuiltinDataAlloca
 2019 17a4 04608CE2 		add	r6, ip, #4
 2020 17a8 11A0A0E3 		mov	r10, #17
 2021 17ac 888295E5 		ldr	r8, [r5, #648]
 2022 17b0 009040E3 		movt	r9, #:upper16:_ZN6tflite9ParsePoolEPKNS_8OperatorEPNS_13ErrorReporterEPNS_20BuiltinDataAlloca
 2023 17b4 0F00A6E8 		stmia	r6!, {r0, r1, r2, r3}
 2024 17b8 0F0097E8 		ldm	r7, {r0, r1, r2, r3}
 2025 17bc 427E88E2 		add	r7, r8, #1056
 2026 17c0 027087E2 		add	r7, r7, #2
 2027 17c4 0F0086E8 		stm	r6, {r0, r1, r2, r3}
 2028 17c8 082084E0 		add	r2, r4, r8
 2029 17cc 083001E3 		movw	r3, #4104
 2030 17d0 018088E2 		add	r8, r8, #1
 2031 17d4 18A08CE5 		str	r10, [ip, #24]
 2032 17d8 04E085E5 		str	lr, [r5, #4]
 2033 17dc 03A0C2E7 		strb	r10, [r2, r3]
 2034 17e0 079184E7 		str	r9, [r4, r7, lsl #2]
 2035 17e4 888285E5 		str	r8, [r5, #648]
 2036              	.L287:
 2037 17e8 0D00A0E1 		mov	r0, sp
 2038 17ec FEFFFFEB 		bl	_ZN6tflite3ops5micro16Register_MAXIMUMEv
 2039 17f0 04C095E5 		ldr	ip, [r5, #4]
 2040 17f4 00005CE3 		cmp	ip, #0
 2041 17f8 3006000A 		beq	.L538
 2042 17fc 183094E5 		ldr	r3, [r4, #24]
 2043 1800 370053E3 		cmp	r3, #55
 2044 1804 0430A011 		movne	r3, r4
 2045 1808 0010A013 		movne	r1, #0
 2046 180c 0400001A 		bne	.L295
 2047 1810 1F0000EA 		b	.L293
 2048              	.L1360:
 2049 1814 180093E5 		ldr	r0, [r3, #24]
 2050 1818 0210A0E1 		mov	r1, r2
 2051 181c 370050E3 		cmp	r0, #55
 2052 1820 1B00000A 		beq	.L293
 2053              	.L295:
 2054 1824 012081E2 		add	r2, r1, #1
 2055 1828 203083E2 		add	r3, r3, #32
 2056 182c 02005CE1 		cmp	ip, r2
 2057 1830 F7FFFF1A 		bne	.L1360
 2058 1834 800052E3 		cmp	r2, #128
 2059 1838 02E08112 		addne	lr, r1, #2
 2060 183c 1400000A 		beq	.L293
 2061              	.L292:
 2062 1840 0D70A0E1 		mov	r7, sp
 2063 1844 82C284E0 		add	ip, r4, r2, lsl #5
 2064 1848 0F00B7E8 		ldmia	r7!, {r0, r1, r2, r3}
 2065 184c 009000E3 		movw	r9, #:lower16:_ZN6tflite12ParseMaximumEPKNS_8OperatorEPNS_13ErrorReporterEPNS_20BuiltinDataAl
 2066 1850 04608CE2 		add	r6, ip, #4
 2067 1854 37A0A0E3 		mov	r10, #55
 2068 1858 888295E5 		ldr	r8, [r5, #648]
 2069 185c 009040E3 		movt	r9, #:upper16:_ZN6tflite12ParseMaximumEPKNS_8OperatorEPNS_13ErrorReporterEPNS_20BuiltinDataAl
 2070 1860 0F00A6E8 		stmia	r6!, {r0, r1, r2, r3}
 2071 1864 0F0097E8 		ldm	r7, {r0, r1, r2, r3}
 2072 1868 427E88E2 		add	r7, r8, #1056
 2073 186c 027087E2 		add	r7, r7, #2
 2074 1870 0F0086E8 		stm	r6, {r0, r1, r2, r3}
 2075 1874 082084E0 		add	r2, r4, r8
 2076 1878 083001E3 		movw	r3, #4104
 2077 187c 018088E2 		add	r8, r8, #1
 2078 1880 18A08CE5 		str	r10, [ip, #24]
 2079 1884 04E085E5 		str	lr, [r5, #4]
 2080 1888 03A0C2E7 		strb	r10, [r2, r3]
 2081 188c 079184E7 		str	r9, [r4, r7, lsl #2]
 2082 1890 888285E5 		str	r8, [r5, #648]
 2083              	.L293:
 2084 1894 0D00A0E1 		mov	r0, sp
 2085 1898 FEFFFFEB 		bl	_ZN6tflite3ops5micro13Register_MEANEv
 2086 189c 04C095E5 		ldr	ip, [r5, #4]
 2087 18a0 00005CE3 		cmp	ip, #0
 2088 18a4 0206000A 		beq	.L539
 2089 18a8 183094E5 		ldr	r3, [r4, #24]
 2090 18ac 280053E3 		cmp	r3, #40
 2091 18b0 0430A011 		movne	r3, r4
 2092 18b4 0010A013 		movne	r1, #0
 2093 18b8 0400001A 		bne	.L301
 2094 18bc 1F0000EA 		b	.L299
 2095              	.L1362:
 2096 18c0 180093E5 		ldr	r0, [r3, #24]
 2097 18c4 0210A0E1 		mov	r1, r2
 2098 18c8 280050E3 		cmp	r0, #40
 2099 18cc 1B00000A 		beq	.L299
 2100              	.L301:
 2101 18d0 012081E2 		add	r2, r1, #1
 2102 18d4 203083E2 		add	r3, r3, #32
 2103 18d8 02005CE1 		cmp	ip, r2
 2104 18dc F7FFFF1A 		bne	.L1362
 2105 18e0 800052E3 		cmp	r2, #128
 2106 18e4 02E08112 		addne	lr, r1, #2
 2107 18e8 1400000A 		beq	.L299
 2108              	.L298:
 2109 18ec 0D70A0E1 		mov	r7, sp
 2110 18f0 82C284E0 		add	ip, r4, r2, lsl #5
 2111 18f4 0F00B7E8 		ldmia	r7!, {r0, r1, r2, r3}
 2112 18f8 009000E3 		movw	r9, #:lower16:_ZN6tflite12ParseReducerEPKNS_8OperatorEPNS_13ErrorReporterEPNS_20BuiltinDataAl
 2113 18fc 04608CE2 		add	r6, ip, #4
 2114 1900 28A0A0E3 		mov	r10, #40
 2115 1904 888295E5 		ldr	r8, [r5, #648]
 2116 1908 009040E3 		movt	r9, #:upper16:_ZN6tflite12ParseReducerEPKNS_8OperatorEPNS_13ErrorReporterEPNS_20BuiltinDataAl
 2117 190c 0F00A6E8 		stmia	r6!, {r0, r1, r2, r3}
 2118 1910 0F0097E8 		ldm	r7, {r0, r1, r2, r3}
 2119 1914 427E88E2 		add	r7, r8, #1056
 2120 1918 027087E2 		add	r7, r7, #2
 2121 191c 0F0086E8 		stm	r6, {r0, r1, r2, r3}
 2122 1920 082084E0 		add	r2, r4, r8
 2123 1924 083001E3 		movw	r3, #4104
 2124 1928 018088E2 		add	r8, r8, #1
 2125 192c 18A08CE5 		str	r10, [ip, #24]
 2126 1930 04E085E5 		str	lr, [r5, #4]
 2127 1934 03A0C2E7 		strb	r10, [r2, r3]
 2128 1938 079184E7 		str	r9, [r4, r7, lsl #2]
 2129 193c 888285E5 		str	r8, [r5, #648]
 2130              	.L299:
 2131 1940 0D00A0E1 		mov	r0, sp
 2132 1944 FEFFFFEB 		bl	_ZN6tflite3ops5micro16Register_MINIMUMEv
 2133 1948 04C095E5 		ldr	ip, [r5, #4]
 2134 194c 00005CE3 		cmp	ip, #0
 2135 1950 1006000A 		beq	.L540
 2136 1954 183094E5 		ldr	r3, [r4, #24]
 2137 1958 390053E3 		cmp	r3, #57
 2138 195c 0430A011 		movne	r3, r4
 2139 1960 0010A013 		movne	r1, #0
 2140 1964 0400001A 		bne	.L307
 2141 1968 1F0000EA 		b	.L305
 2142              	.L1364:
 2143 196c 180093E5 		ldr	r0, [r3, #24]
 2144 1970 0210A0E1 		mov	r1, r2
 2145 1974 390050E3 		cmp	r0, #57
 2146 1978 1B00000A 		beq	.L305
 2147              	.L307:
 2148 197c 012081E2 		add	r2, r1, #1
 2149 1980 203083E2 		add	r3, r3, #32
 2150 1984 02005CE1 		cmp	ip, r2
 2151 1988 F7FFFF1A 		bne	.L1364
 2152 198c 800052E3 		cmp	r2, #128
 2153 1990 02E08112 		addne	lr, r1, #2
 2154 1994 1400000A 		beq	.L305
 2155              	.L304:
 2156 1998 0D70A0E1 		mov	r7, sp
 2157 199c 82C284E0 		add	ip, r4, r2, lsl #5
 2158 19a0 0F00B7E8 		ldmia	r7!, {r0, r1, r2, r3}
 2159 19a4 009000E3 		movw	r9, #:lower16:_ZN6tflite12ParseMinimumEPKNS_8OperatorEPNS_13ErrorReporterEPNS_20BuiltinDataAl
 2160 19a8 04608CE2 		add	r6, ip, #4
 2161 19ac 39A0A0E3 		mov	r10, #57
 2162 19b0 888295E5 		ldr	r8, [r5, #648]
 2163 19b4 009040E3 		movt	r9, #:upper16:_ZN6tflite12ParseMinimumEPKNS_8OperatorEPNS_13ErrorReporterEPNS_20BuiltinDataAl
 2164 19b8 0F00A6E8 		stmia	r6!, {r0, r1, r2, r3}
 2165 19bc 0F0097E8 		ldm	r7, {r0, r1, r2, r3}
 2166 19c0 427E88E2 		add	r7, r8, #1056
 2167 19c4 027087E2 		add	r7, r7, #2
 2168 19c8 0F0086E8 		stm	r6, {r0, r1, r2, r3}
 2169 19cc 082084E0 		add	r2, r4, r8
 2170 19d0 083001E3 		movw	r3, #4104
 2171 19d4 018088E2 		add	r8, r8, #1
 2172 19d8 18A08CE5 		str	r10, [ip, #24]
 2173 19dc 04E085E5 		str	lr, [r5, #4]
 2174 19e0 03A0C2E7 		strb	r10, [r2, r3]
 2175 19e4 079184E7 		str	r9, [r4, r7, lsl #2]
 2176 19e8 888285E5 		str	r8, [r5, #648]
 2177              	.L305:
 2178 19ec 0D00A0E1 		mov	r0, sp
 2179 19f0 FEFFFFEB 		bl	_ZN6tflite3ops5micro12Register_MULEv
 2180 19f4 04C095E5 		ldr	ip, [r5, #4]
 2181 19f8 00005CE3 		cmp	ip, #0
 2182 19fc E205000A 		beq	.L541
 2183 1a00 183094E5 		ldr	r3, [r4, #24]
 2184 1a04 120053E3 		cmp	r3, #18
 2185 1a08 0430A011 		movne	r3, r4
 2186 1a0c 0010A013 		movne	r1, #0
 2187 1a10 0400001A 		bne	.L313
 2188 1a14 1F0000EA 		b	.L311
 2189              	.L1366:
 2190 1a18 180093E5 		ldr	r0, [r3, #24]
 2191 1a1c 0210A0E1 		mov	r1, r2
 2192 1a20 120050E3 		cmp	r0, #18
 2193 1a24 1B00000A 		beq	.L311
 2194              	.L313:
 2195 1a28 012081E2 		add	r2, r1, #1
 2196 1a2c 203083E2 		add	r3, r3, #32
 2197 1a30 02005CE1 		cmp	ip, r2
 2198 1a34 F7FFFF1A 		bne	.L1366
 2199 1a38 800052E3 		cmp	r2, #128
 2200 1a3c 02E08112 		addne	lr, r1, #2
 2201 1a40 1400000A 		beq	.L311
 2202              	.L310:
 2203 1a44 0D70A0E1 		mov	r7, sp
 2204 1a48 82C284E0 		add	ip, r4, r2, lsl #5
 2205 1a4c 0F00B7E8 		ldmia	r7!, {r0, r1, r2, r3}
 2206 1a50 009000E3 		movw	r9, #:lower16:_ZN6tflite8ParseMulEPKNS_8OperatorEPNS_13ErrorReporterEPNS_20BuiltinDataAllocat
 2207 1a54 04608CE2 		add	r6, ip, #4
 2208 1a58 12A0A0E3 		mov	r10, #18
 2209 1a5c 888295E5 		ldr	r8, [r5, #648]
 2210 1a60 009040E3 		movt	r9, #:upper16:_ZN6tflite8ParseMulEPKNS_8OperatorEPNS_13ErrorReporterEPNS_20BuiltinDataAllocat
 2211 1a64 0F00A6E8 		stmia	r6!, {r0, r1, r2, r3}
 2212 1a68 0F0097E8 		ldm	r7, {r0, r1, r2, r3}
 2213 1a6c 427E88E2 		add	r7, r8, #1056
 2214 1a70 027087E2 		add	r7, r7, #2
 2215 1a74 0F0086E8 		stm	r6, {r0, r1, r2, r3}
 2216 1a78 082084E0 		add	r2, r4, r8
 2217 1a7c 083001E3 		movw	r3, #4104
 2218 1a80 018088E2 		add	r8, r8, #1
 2219 1a84 18A08CE5 		str	r10, [ip, #24]
 2220 1a88 04E085E5 		str	lr, [r5, #4]
 2221 1a8c 03A0C2E7 		strb	r10, [r2, r3]
 2222 1a90 079184E7 		str	r9, [r4, r7, lsl #2]
 2223 1a94 888285E5 		str	r8, [r5, #648]
 2224              	.L311:
 2225 1a98 0D00A0E1 		mov	r0, sp
 2226 1a9c FEFFFFEB 		bl	_ZN6tflite3ops5micro12Register_NEGEv
 2227 1aa0 04C095E5 		ldr	ip, [r5, #4]
 2228 1aa4 00005CE3 		cmp	ip, #0
 2229 1aa8 B405000A 		beq	.L542
 2230 1aac 183094E5 		ldr	r3, [r4, #24]
 2231 1ab0 3B0053E3 		cmp	r3, #59
 2232 1ab4 0430A011 		movne	r3, r4
 2233 1ab8 0010A013 		movne	r1, #0
 2234 1abc 0400001A 		bne	.L319
 2235 1ac0 1F0000EA 		b	.L317
 2236              	.L1368:
 2237 1ac4 180093E5 		ldr	r0, [r3, #24]
 2238 1ac8 0210A0E1 		mov	r1, r2
 2239 1acc 3B0050E3 		cmp	r0, #59
 2240 1ad0 1B00000A 		beq	.L317
 2241              	.L319:
 2242 1ad4 012081E2 		add	r2, r1, #1
 2243 1ad8 203083E2 		add	r3, r3, #32
 2244 1adc 02005CE1 		cmp	ip, r2
 2245 1ae0 F7FFFF1A 		bne	.L1368
 2246 1ae4 800052E3 		cmp	r2, #128
 2247 1ae8 02E08112 		addne	lr, r1, #2
 2248 1aec 1400000A 		beq	.L317
 2249              	.L316:
 2250 1af0 0D70A0E1 		mov	r7, sp
 2251 1af4 82C284E0 		add	ip, r4, r2, lsl #5
 2252 1af8 0F00B7E8 		ldmia	r7!, {r0, r1, r2, r3}
 2253 1afc 009000E3 		movw	r9, #:lower16:_ZN6tflite8ParseNegEPKNS_8OperatorEPNS_13ErrorReporterEPNS_20BuiltinDataAllocat
 2254 1b00 04608CE2 		add	r6, ip, #4
 2255 1b04 3BA0A0E3 		mov	r10, #59
 2256 1b08 888295E5 		ldr	r8, [r5, #648]
 2257 1b0c 009040E3 		movt	r9, #:upper16:_ZN6tflite8ParseNegEPKNS_8OperatorEPNS_13ErrorReporterEPNS_20BuiltinDataAllocat
 2258 1b10 0F00A6E8 		stmia	r6!, {r0, r1, r2, r3}
 2259 1b14 0F0097E8 		ldm	r7, {r0, r1, r2, r3}
 2260 1b18 427E88E2 		add	r7, r8, #1056
 2261 1b1c 027087E2 		add	r7, r7, #2
 2262 1b20 0F0086E8 		stm	r6, {r0, r1, r2, r3}
 2263 1b24 082084E0 		add	r2, r4, r8
 2264 1b28 083001E3 		movw	r3, #4104
 2265 1b2c 018088E2 		add	r8, r8, #1
 2266 1b30 18A08CE5 		str	r10, [ip, #24]
 2267 1b34 04E085E5 		str	lr, [r5, #4]
 2268 1b38 03A0C2E7 		strb	r10, [r2, r3]
 2269 1b3c 079184E7 		str	r9, [r4, r7, lsl #2]
 2270 1b40 888285E5 		str	r8, [r5, #648]
 2271              	.L317:
 2272 1b44 0D00A0E1 		mov	r0, sp
 2273 1b48 FEFFFFEB 		bl	_ZN6tflite3ops5micro18Register_NOT_EQUALEv
 2274 1b4c 04C095E5 		ldr	ip, [r5, #4]
 2275 1b50 00005CE3 		cmp	ip, #0
 2276 1b54 8605000A 		beq	.L543
 2277 1b58 183094E5 		ldr	r3, [r4, #24]
 2278 1b5c 480053E3 		cmp	r3, #72
 2279 1b60 0430A011 		movne	r3, r4
 2280 1b64 0010A013 		movne	r1, #0
 2281 1b68 0400001A 		bne	.L325
 2282 1b6c 1F0000EA 		b	.L323
 2283              	.L1370:
 2284 1b70 180093E5 		ldr	r0, [r3, #24]
 2285 1b74 0210A0E1 		mov	r1, r2
 2286 1b78 480050E3 		cmp	r0, #72
 2287 1b7c 1B00000A 		beq	.L323
 2288              	.L325:
 2289 1b80 012081E2 		add	r2, r1, #1
 2290 1b84 203083E2 		add	r3, r3, #32
 2291 1b88 02005CE1 		cmp	ip, r2
 2292 1b8c F7FFFF1A 		bne	.L1370
 2293 1b90 800052E3 		cmp	r2, #128
 2294 1b94 02E08112 		addne	lr, r1, #2
 2295 1b98 1400000A 		beq	.L323
 2296              	.L322:
 2297 1b9c 0D70A0E1 		mov	r7, sp
 2298 1ba0 82C284E0 		add	ip, r4, r2, lsl #5
 2299 1ba4 0F00B7E8 		ldmia	r7!, {r0, r1, r2, r3}
 2300 1ba8 009000E3 		movw	r9, #:lower16:_ZN6tflite13ParseNotEqualEPKNS_8OperatorEPNS_13ErrorReporterEPNS_20BuiltinDataA
 2301 1bac 04608CE2 		add	r6, ip, #4
 2302 1bb0 48A0A0E3 		mov	r10, #72
 2303 1bb4 888295E5 		ldr	r8, [r5, #648]
 2304 1bb8 009040E3 		movt	r9, #:upper16:_ZN6tflite13ParseNotEqualEPKNS_8OperatorEPNS_13ErrorReporterEPNS_20BuiltinDataA
 2305 1bbc 0F00A6E8 		stmia	r6!, {r0, r1, r2, r3}
 2306 1bc0 0F0097E8 		ldm	r7, {r0, r1, r2, r3}
 2307 1bc4 427E88E2 		add	r7, r8, #1056
 2308 1bc8 027087E2 		add	r7, r7, #2
 2309 1bcc 0F0086E8 		stm	r6, {r0, r1, r2, r3}
 2310 1bd0 082084E0 		add	r2, r4, r8
 2311 1bd4 083001E3 		movw	r3, #4104
 2312 1bd8 018088E2 		add	r8, r8, #1
 2313 1bdc 18A08CE5 		str	r10, [ip, #24]
 2314 1be0 04E085E5 		str	lr, [r5, #4]
 2315 1be4 03A0C2E7 		strb	r10, [r2, r3]
 2316 1be8 079184E7 		str	r9, [r4, r7, lsl #2]
 2317 1bec 888285E5 		str	r8, [r5, #648]
 2318              	.L323:
 2319 1bf0 0D00A0E1 		mov	r0, sp
 2320 1bf4 FEFFFFEB 		bl	_ZN6tflite3ops5micro13Register_PACKEv
 2321 1bf8 04C095E5 		ldr	ip, [r5, #4]
 2322 1bfc 00005CE3 		cmp	ip, #0
 2323 1c00 C405000A 		beq	.L544
 2324 1c04 183094E5 		ldr	r3, [r4, #24]
 2325 1c08 530053E3 		cmp	r3, #83
 2326 1c0c 0430A011 		movne	r3, r4
 2327 1c10 0010A013 		movne	r1, #0
 2328 1c14 0400001A 		bne	.L331
 2329 1c18 1F0000EA 		b	.L329
 2330              	.L1372:
 2331 1c1c 180093E5 		ldr	r0, [r3, #24]
 2332 1c20 0210A0E1 		mov	r1, r2
 2333 1c24 530050E3 		cmp	r0, #83
 2334 1c28 1B00000A 		beq	.L329
 2335              	.L331:
 2336 1c2c 012081E2 		add	r2, r1, #1
 2337 1c30 203083E2 		add	r3, r3, #32
 2338 1c34 02005CE1 		cmp	ip, r2
 2339 1c38 F7FFFF1A 		bne	.L1372
 2340 1c3c 800052E3 		cmp	r2, #128
 2341 1c40 02E08112 		addne	lr, r1, #2
 2342 1c44 1400000A 		beq	.L329
 2343              	.L328:
 2344 1c48 0D70A0E1 		mov	r7, sp
 2345 1c4c 82C284E0 		add	ip, r4, r2, lsl #5
 2346 1c50 0F00B7E8 		ldmia	r7!, {r0, r1, r2, r3}
 2347 1c54 009000E3 		movw	r9, #:lower16:_ZN6tflite9ParsePackEPKNS_8OperatorEPNS_13ErrorReporterEPNS_20BuiltinDataAlloca
 2348 1c58 04608CE2 		add	r6, ip, #4
 2349 1c5c 53A0A0E3 		mov	r10, #83
 2350 1c60 888295E5 		ldr	r8, [r5, #648]
 2351 1c64 009040E3 		movt	r9, #:upper16:_ZN6tflite9ParsePackEPKNS_8OperatorEPNS_13ErrorReporterEPNS_20BuiltinDataAlloca
 2352 1c68 0F00A6E8 		stmia	r6!, {r0, r1, r2, r3}
 2353 1c6c 0F0097E8 		ldm	r7, {r0, r1, r2, r3}
 2354 1c70 427E88E2 		add	r7, r8, #1056
 2355 1c74 027087E2 		add	r7, r7, #2
 2356 1c78 0F0086E8 		stm	r6, {r0, r1, r2, r3}
 2357 1c7c 082084E0 		add	r2, r4, r8
 2358 1c80 083001E3 		movw	r3, #4104
 2359 1c84 018088E2 		add	r8, r8, #1
 2360 1c88 18A08CE5 		str	r10, [ip, #24]
 2361 1c8c 04E085E5 		str	lr, [r5, #4]
 2362 1c90 03A0C2E7 		strb	r10, [r2, r3]
 2363 1c94 079184E7 		str	r9, [r4, r7, lsl #2]
 2364 1c98 888285E5 		str	r8, [r5, #648]
 2365              	.L329:
 2366 1c9c 0D00A0E1 		mov	r0, sp
 2367 1ca0 FEFFFFEB 		bl	_ZN6tflite3ops5micro12Register_PADEv
 2368 1ca4 04C095E5 		ldr	ip, [r5, #4]
 2369 1ca8 00005CE3 		cmp	ip, #0
 2370 1cac 9605000A 		beq	.L545
 2371 1cb0 183094E5 		ldr	r3, [r4, #24]
 2372 1cb4 220053E3 		cmp	r3, #34
 2373 1cb8 0430A011 		movne	r3, r4
 2374 1cbc 0010A013 		movne	r1, #0
 2375 1cc0 0400001A 		bne	.L337
 2376 1cc4 1F0000EA 		b	.L335
 2377              	.L1374:
 2378 1cc8 180093E5 		ldr	r0, [r3, #24]
 2379 1ccc 0210A0E1 		mov	r1, r2
 2380 1cd0 220050E3 		cmp	r0, #34
 2381 1cd4 1B00000A 		beq	.L335
 2382              	.L337:
 2383 1cd8 012081E2 		add	r2, r1, #1
 2384 1cdc 203083E2 		add	r3, r3, #32
 2385 1ce0 02005CE1 		cmp	ip, r2
 2386 1ce4 F7FFFF1A 		bne	.L1374
 2387 1ce8 800052E3 		cmp	r2, #128
 2388 1cec 02E08112 		addne	lr, r1, #2
 2389 1cf0 1400000A 		beq	.L335
 2390              	.L334:
 2391 1cf4 0D70A0E1 		mov	r7, sp
 2392 1cf8 82C284E0 		add	ip, r4, r2, lsl #5
 2393 1cfc 0F00B7E8 		ldmia	r7!, {r0, r1, r2, r3}
 2394 1d00 009000E3 		movw	r9, #:lower16:_ZN6tflite8ParsePadEPKNS_8OperatorEPNS_13ErrorReporterEPNS_20BuiltinDataAllocat
 2395 1d04 04608CE2 		add	r6, ip, #4
 2396 1d08 22A0A0E3 		mov	r10, #34
 2397 1d0c 888295E5 		ldr	r8, [r5, #648]
 2398 1d10 009040E3 		movt	r9, #:upper16:_ZN6tflite8ParsePadEPKNS_8OperatorEPNS_13ErrorReporterEPNS_20BuiltinDataAllocat
 2399 1d14 0F00A6E8 		stmia	r6!, {r0, r1, r2, r3}
 2400 1d18 0F0097E8 		ldm	r7, {r0, r1, r2, r3}
 2401 1d1c 427E88E2 		add	r7, r8, #1056
 2402 1d20 027087E2 		add	r7, r7, #2
 2403 1d24 0F0086E8 		stm	r6, {r0, r1, r2, r3}
 2404 1d28 082084E0 		add	r2, r4, r8
 2405 1d2c 083001E3 		movw	r3, #4104
 2406 1d30 018088E2 		add	r8, r8, #1
 2407 1d34 18A08CE5 		str	r10, [ip, #24]
 2408 1d38 04E085E5 		str	lr, [r5, #4]
 2409 1d3c 03A0C2E7 		strb	r10, [r2, r3]
 2410 1d40 079184E7 		str	r9, [r4, r7, lsl #2]
 2411 1d44 888285E5 		str	r8, [r5, #648]
 2412              	.L335:
 2413 1d48 0D00A0E1 		mov	r0, sp
 2414 1d4c FEFFFFEB 		bl	_ZN6tflite3ops5micro14Register_PADV2Ev
 2415 1d50 04C095E5 		ldr	ip, [r5, #4]
 2416 1d54 00005CE3 		cmp	ip, #0
 2417 1d58 6805000A 		beq	.L546
 2418 1d5c 183094E5 		ldr	r3, [r4, #24]
 2419 1d60 3C0053E3 		cmp	r3, #60
 2420 1d64 0430A011 		movne	r3, r4
 2421 1d68 0010A013 		movne	r1, #0
 2422 1d6c 0400001A 		bne	.L343
 2423 1d70 1F0000EA 		b	.L341
 2424              	.L1376:
 2425 1d74 180093E5 		ldr	r0, [r3, #24]
 2426 1d78 0210A0E1 		mov	r1, r2
 2427 1d7c 3C0050E3 		cmp	r0, #60
 2428 1d80 1B00000A 		beq	.L341
 2429              	.L343:
 2430 1d84 012081E2 		add	r2, r1, #1
 2431 1d88 203083E2 		add	r3, r3, #32
 2432 1d8c 02005CE1 		cmp	ip, r2
 2433 1d90 F7FFFF1A 		bne	.L1376
 2434 1d94 800052E3 		cmp	r2, #128
 2435 1d98 02E08112 		addne	lr, r1, #2
 2436 1d9c 1400000A 		beq	.L341
 2437              	.L340:
 2438 1da0 0D70A0E1 		mov	r7, sp
 2439 1da4 82C284E0 		add	ip, r4, r2, lsl #5
 2440 1da8 0F00B7E8 		ldmia	r7!, {r0, r1, r2, r3}
 2441 1dac 009000E3 		movw	r9, #:lower16:_ZN6tflite10ParsePadV2EPKNS_8OperatorEPNS_13ErrorReporterEPNS_20BuiltinDataAllo
 2442 1db0 04608CE2 		add	r6, ip, #4
 2443 1db4 3CA0A0E3 		mov	r10, #60
 2444 1db8 888295E5 		ldr	r8, [r5, #648]
 2445 1dbc 009040E3 		movt	r9, #:upper16:_ZN6tflite10ParsePadV2EPKNS_8OperatorEPNS_13ErrorReporterEPNS_20BuiltinDataAllo
 2446 1dc0 0F00A6E8 		stmia	r6!, {r0, r1, r2, r3}
 2447 1dc4 0F0097E8 		ldm	r7, {r0, r1, r2, r3}
 2448 1dc8 427E88E2 		add	r7, r8, #1056
 2449 1dcc 027087E2 		add	r7, r7, #2
 2450 1dd0 0F0086E8 		stm	r6, {r0, r1, r2, r3}
 2451 1dd4 082084E0 		add	r2, r4, r8
 2452 1dd8 083001E3 		movw	r3, #4104
 2453 1ddc 018088E2 		add	r8, r8, #1
 2454 1de0 18A08CE5 		str	r10, [ip, #24]
 2455 1de4 04E085E5 		str	lr, [r5, #4]
 2456 1de8 03A0C2E7 		strb	r10, [r2, r3]
 2457 1dec 079184E7 		str	r9, [r4, r7, lsl #2]
 2458 1df0 888285E5 		str	r8, [r5, #648]
 2459              	.L341:
 2460 1df4 0D00A0E1 		mov	r0, sp
 2461 1df8 FEFFFFEB 		bl	_ZN6tflite3ops5micro14Register_PRELUEv
 2462 1dfc 04C095E5 		ldr	ip, [r5, #4]
 2463 1e00 00005CE3 		cmp	ip, #0
 2464 1e04 3A05000A 		beq	.L547
 2465 1e08 183094E5 		ldr	r3, [r4, #24]
 2466 1e0c 360053E3 		cmp	r3, #54
 2467 1e10 0430A011 		movne	r3, r4
 2468 1e14 0010A013 		movne	r1, #0
 2469 1e18 0400001A 		bne	.L349
 2470 1e1c 1F0000EA 		b	.L347
 2471              	.L1378:
 2472 1e20 180093E5 		ldr	r0, [r3, #24]
 2473 1e24 0210A0E1 		mov	r1, r2
 2474 1e28 360050E3 		cmp	r0, #54
 2475 1e2c 1B00000A 		beq	.L347
 2476              	.L349:
 2477 1e30 012081E2 		add	r2, r1, #1
 2478 1e34 203083E2 		add	r3, r3, #32
 2479 1e38 02005CE1 		cmp	ip, r2
 2480 1e3c F7FFFF1A 		bne	.L1378
 2481 1e40 800052E3 		cmp	r2, #128
 2482 1e44 02E08112 		addne	lr, r1, #2
 2483 1e48 1400000A 		beq	.L347
 2484              	.L346:
 2485 1e4c 0D70A0E1 		mov	r7, sp
 2486 1e50 82C284E0 		add	ip, r4, r2, lsl #5
 2487 1e54 0F00B7E8 		ldmia	r7!, {r0, r1, r2, r3}
 2488 1e58 009000E3 		movw	r9, #:lower16:_ZN6tflite10ParsePreluEPKNS_8OperatorEPNS_13ErrorReporterEPNS_20BuiltinDataAllo
 2489 1e5c 04608CE2 		add	r6, ip, #4
 2490 1e60 36A0A0E3 		mov	r10, #54
 2491 1e64 888295E5 		ldr	r8, [r5, #648]
 2492 1e68 009040E3 		movt	r9, #:upper16:_ZN6tflite10ParsePreluEPKNS_8OperatorEPNS_13ErrorReporterEPNS_20BuiltinDataAllo
 2493 1e6c 0F00A6E8 		stmia	r6!, {r0, r1, r2, r3}
 2494 1e70 0F0097E8 		ldm	r7, {r0, r1, r2, r3}
 2495 1e74 427E88E2 		add	r7, r8, #1056
 2496 1e78 027087E2 		add	r7, r7, #2
 2497 1e7c 0F0086E8 		stm	r6, {r0, r1, r2, r3}
 2498 1e80 082084E0 		add	r2, r4, r8
 2499 1e84 083001E3 		movw	r3, #4104
 2500 1e88 018088E2 		add	r8, r8, #1
 2501 1e8c 18A08CE5 		str	r10, [ip, #24]
 2502 1e90 04E085E5 		str	lr, [r5, #4]
 2503 1e94 03A0C2E7 		strb	r10, [r2, r3]
 2504 1e98 079184E7 		str	r9, [r4, r7, lsl #2]
 2505 1e9c 888285E5 		str	r8, [r5, #648]
 2506              	.L347:
 2507 1ea0 0D00A0E1 		mov	r0, sp
 2508 1ea4 FEFFFFEB 		bl	_ZN6tflite17Register_QUANTIZEEv
 2509 1ea8 04C095E5 		ldr	ip, [r5, #4]
 2510 1eac 00005CE3 		cmp	ip, #0
 2511 1eb0 0C05000A 		beq	.L548
 2512 1eb4 183094E5 		ldr	r3, [r4, #24]
 2513 1eb8 720053E3 		cmp	r3, #114
 2514 1ebc 0430A011 		movne	r3, r4
 2515 1ec0 0010A013 		movne	r1, #0
 2516 1ec4 0400001A 		bne	.L355
 2517 1ec8 1F0000EA 		b	.L353
 2518              	.L1380:
 2519 1ecc 180093E5 		ldr	r0, [r3, #24]
 2520 1ed0 0210A0E1 		mov	r1, r2
 2521 1ed4 720050E3 		cmp	r0, #114
 2522 1ed8 1B00000A 		beq	.L353
 2523              	.L355:
 2524 1edc 012081E2 		add	r2, r1, #1
 2525 1ee0 203083E2 		add	r3, r3, #32
 2526 1ee4 0C0052E1 		cmp	r2, ip
 2527 1ee8 F7FFFF1A 		bne	.L1380
 2528 1eec 80005CE3 		cmp	ip, #128
 2529 1ef0 02E08112 		addne	lr, r1, #2
 2530 1ef4 1400000A 		beq	.L353
 2531              	.L352:
 2532 1ef8 0D70A0E1 		mov	r7, sp
 2533 1efc 82C284E0 		add	ip, r4, r2, lsl #5
 2534 1f00 0F00B7E8 		ldmia	r7!, {r0, r1, r2, r3}
 2535 1f04 009000E3 		movw	r9, #:lower16:_ZN6tflite13ParseQuantizeEPKNS_8OperatorEPNS_13ErrorReporterEPNS_20BuiltinDataA
 2536 1f08 04608CE2 		add	r6, ip, #4
 2537 1f0c 72A0A0E3 		mov	r10, #114
 2538 1f10 888295E5 		ldr	r8, [r5, #648]
 2539 1f14 009040E3 		movt	r9, #:upper16:_ZN6tflite13ParseQuantizeEPKNS_8OperatorEPNS_13ErrorReporterEPNS_20BuiltinDataA
 2540 1f18 0F00A6E8 		stmia	r6!, {r0, r1, r2, r3}
 2541 1f1c 0F0097E8 		ldm	r7, {r0, r1, r2, r3}
 2542 1f20 427E88E2 		add	r7, r8, #1056
 2543 1f24 027087E2 		add	r7, r7, #2
 2544 1f28 0F0086E8 		stm	r6, {r0, r1, r2, r3}
 2545 1f2c 082084E0 		add	r2, r4, r8
 2546 1f30 083001E3 		movw	r3, #4104
 2547 1f34 018088E2 		add	r8, r8, #1
 2548 1f38 18A08CE5 		str	r10, [ip, #24]
 2549 1f3c 04E085E5 		str	lr, [r5, #4]
 2550 1f40 03A0C2E7 		strb	r10, [r2, r3]
 2551 1f44 079184E7 		str	r9, [r4, r7, lsl #2]
 2552 1f48 888285E5 		str	r8, [r5, #648]
 2553              	.L353:
 2554 1f4c 0D00A0E1 		mov	r0, sp
 2555 1f50 FEFFFFEB 		bl	_ZN6tflite3ops5micro19Register_REDUCE_MAXEv
 2556 1f54 04C095E5 		ldr	ip, [r5, #4]
 2557 1f58 00005CE3 		cmp	ip, #0
 2558 1f5c DE04000A 		beq	.L549
 2559 1f60 183094E5 		ldr	r3, [r4, #24]
 2560 1f64 520053E3 		cmp	r3, #82
 2561 1f68 0430A011 		movne	r3, r4
 2562 1f6c 0010A013 		movne	r1, #0
 2563 1f70 0400001A 		bne	.L361
 2564 1f74 1F0000EA 		b	.L359
 2565              	.L1382:
 2566 1f78 180093E5 		ldr	r0, [r3, #24]
 2567 1f7c 0210A0E1 		mov	r1, r2
 2568 1f80 520050E3 		cmp	r0, #82
 2569 1f84 1B00000A 		beq	.L359
 2570              	.L361:
 2571 1f88 012081E2 		add	r2, r1, #1
 2572 1f8c 203083E2 		add	r3, r3, #32
 2573 1f90 0C0052E1 		cmp	r2, ip
 2574 1f94 F7FFFF1A 		bne	.L1382
 2575 1f98 80005CE3 		cmp	ip, #128
 2576 1f9c 02E08112 		addne	lr, r1, #2
 2577 1fa0 1400000A 		beq	.L359
 2578              	.L358:
 2579 1fa4 0D70A0E1 		mov	r7, sp
 2580 1fa8 82C284E0 		add	ip, r4, r2, lsl #5
 2581 1fac 0F00B7E8 		ldmia	r7!, {r0, r1, r2, r3}
 2582 1fb0 009000E3 		movw	r9, #:lower16:_ZN6tflite12ParseReducerEPKNS_8OperatorEPNS_13ErrorReporterEPNS_20BuiltinDataAl
 2583 1fb4 04608CE2 		add	r6, ip, #4
 2584 1fb8 52A0A0E3 		mov	r10, #82
 2585 1fbc 888295E5 		ldr	r8, [r5, #648]
 2586 1fc0 009040E3 		movt	r9, #:upper16:_ZN6tflite12ParseReducerEPKNS_8OperatorEPNS_13ErrorReporterEPNS_20BuiltinDataAl
 2587 1fc4 0F00A6E8 		stmia	r6!, {r0, r1, r2, r3}
 2588 1fc8 0F0097E8 		ldm	r7, {r0, r1, r2, r3}
 2589 1fcc 427E88E2 		add	r7, r8, #1056
 2590 1fd0 027087E2 		add	r7, r7, #2
 2591 1fd4 0F0086E8 		stm	r6, {r0, r1, r2, r3}
 2592 1fd8 082084E0 		add	r2, r4, r8
 2593 1fdc 083001E3 		movw	r3, #4104
 2594 1fe0 018088E2 		add	r8, r8, #1
 2595 1fe4 18A08CE5 		str	r10, [ip, #24]
 2596 1fe8 04E085E5 		str	lr, [r5, #4]
 2597 1fec 03A0C2E7 		strb	r10, [r2, r3]
 2598 1ff0 079184E7 		str	r9, [r4, r7, lsl #2]
 2599 1ff4 888285E5 		str	r8, [r5, #648]
 2600              	.L359:
 2601 1ff8 0D00A0E1 		mov	r0, sp
 2602 1ffc FEFFFFEB 		bl	_ZN6tflite3ops5micro13Register_RELUEv
 2603 2000 04C095E5 		ldr	ip, [r5, #4]
 2604 2004 00005CE3 		cmp	ip, #0
 2605 2008 B004000A 		beq	.L550
 2606 200c 183094E5 		ldr	r3, [r4, #24]
 2607 2010 130053E3 		cmp	r3, #19
 2608 2014 0430A011 		movne	r3, r4
 2609 2018 0010A013 		movne	r1, #0
 2610 201c 0400001A 		bne	.L367
 2611 2020 1F0000EA 		b	.L365
 2612              	.L1384:
 2613 2024 180093E5 		ldr	r0, [r3, #24]
 2614 2028 0210A0E1 		mov	r1, r2
 2615 202c 130050E3 		cmp	r0, #19
 2616 2030 1B00000A 		beq	.L365
 2617              	.L367:
 2618 2034 012081E2 		add	r2, r1, #1
 2619 2038 203083E2 		add	r3, r3, #32
 2620 203c 0C0052E1 		cmp	r2, ip
 2621 2040 F7FFFF1A 		bne	.L1384
 2622 2044 80005CE3 		cmp	ip, #128
 2623 2048 02E08112 		addne	lr, r1, #2
 2624 204c 1400000A 		beq	.L365
 2625              	.L364:
 2626 2050 0D70A0E1 		mov	r7, sp
 2627 2054 82C284E0 		add	ip, r4, r2, lsl #5
 2628 2058 0F00B7E8 		ldmia	r7!, {r0, r1, r2, r3}
 2629 205c 009000E3 		movw	r9, #:lower16:_ZN6tflite9ParseReluEPKNS_8OperatorEPNS_13ErrorReporterEPNS_20BuiltinDataAlloca
 2630 2060 04608CE2 		add	r6, ip, #4
 2631 2064 13A0A0E3 		mov	r10, #19
 2632 2068 888295E5 		ldr	r8, [r5, #648]
 2633 206c 009040E3 		movt	r9, #:upper16:_ZN6tflite9ParseReluEPKNS_8OperatorEPNS_13ErrorReporterEPNS_20BuiltinDataAlloca
 2634 2070 0F00A6E8 		stmia	r6!, {r0, r1, r2, r3}
 2635 2074 0F0097E8 		ldm	r7, {r0, r1, r2, r3}
 2636 2078 427E88E2 		add	r7, r8, #1056
 2637 207c 027087E2 		add	r7, r7, #2
 2638 2080 0F0086E8 		stm	r6, {r0, r1, r2, r3}
 2639 2084 082084E0 		add	r2, r4, r8
 2640 2088 083001E3 		movw	r3, #4104
 2641 208c 018088E2 		add	r8, r8, #1
 2642 2090 18A08CE5 		str	r10, [ip, #24]
 2643 2094 04E085E5 		str	lr, [r5, #4]
 2644 2098 03A0C2E7 		strb	r10, [r2, r3]
 2645 209c 079184E7 		str	r9, [r4, r7, lsl #2]
 2646 20a0 888285E5 		str	r8, [r5, #648]
 2647              	.L365:
 2648 20a4 0D00A0E1 		mov	r0, sp
 2649 20a8 FEFFFFEB 		bl	_ZN6tflite3ops5micro14Register_RELU6Ev
 2650 20ac 04C095E5 		ldr	ip, [r5, #4]
 2651 20b0 00005CE3 		cmp	ip, #0
 2652 20b4 8204000A 		beq	.L551
 2653 20b8 183094E5 		ldr	r3, [r4, #24]
 2654 20bc 150053E3 		cmp	r3, #21
 2655 20c0 0430A011 		movne	r3, r4
 2656 20c4 0010A013 		movne	r1, #0
 2657 20c8 0400001A 		bne	.L373
 2658 20cc 1F0000EA 		b	.L371
 2659              	.L1386:
 2660 20d0 180093E5 		ldr	r0, [r3, #24]
 2661 20d4 0210A0E1 		mov	r1, r2
 2662 20d8 150050E3 		cmp	r0, #21
 2663 20dc 1B00000A 		beq	.L371
 2664              	.L373:
 2665 20e0 012081E2 		add	r2, r1, #1
 2666 20e4 203083E2 		add	r3, r3, #32
 2667 20e8 02005CE1 		cmp	ip, r2
 2668 20ec F7FFFF1A 		bne	.L1386
 2669 20f0 800052E3 		cmp	r2, #128
 2670 20f4 02E08112 		addne	lr, r1, #2
 2671 20f8 1400000A 		beq	.L371
 2672              	.L370:
 2673 20fc 0D70A0E1 		mov	r7, sp
 2674 2100 82C284E0 		add	ip, r4, r2, lsl #5
 2675 2104 0F00B7E8 		ldmia	r7!, {r0, r1, r2, r3}
 2676 2108 009000E3 		movw	r9, #:lower16:_ZN6tflite10ParseRelu6EPKNS_8OperatorEPNS_13ErrorReporterEPNS_20BuiltinDataAllo
 2677 210c 04608CE2 		add	r6, ip, #4
 2678 2110 15A0A0E3 		mov	r10, #21
 2679 2114 888295E5 		ldr	r8, [r5, #648]
 2680 2118 009040E3 		movt	r9, #:upper16:_ZN6tflite10ParseRelu6EPKNS_8OperatorEPNS_13ErrorReporterEPNS_20BuiltinDataAllo
 2681 211c 0F00A6E8 		stmia	r6!, {r0, r1, r2, r3}
 2682 2120 0F0097E8 		ldm	r7, {r0, r1, r2, r3}
 2683 2124 427E88E2 		add	r7, r8, #1056
 2684 2128 027087E2 		add	r7, r7, #2
 2685 212c 0F0086E8 		stm	r6, {r0, r1, r2, r3}
 2686 2130 082084E0 		add	r2, r4, r8
 2687 2134 083001E3 		movw	r3, #4104
 2688 2138 018088E2 		add	r8, r8, #1
 2689 213c 18A08CE5 		str	r10, [ip, #24]
 2690 2140 04E085E5 		str	lr, [r5, #4]
 2691 2144 03A0C2E7 		strb	r10, [r2, r3]
 2692 2148 079184E7 		str	r9, [r4, r7, lsl #2]
 2693 214c 888285E5 		str	r8, [r5, #648]
 2694              	.L371:
 2695 2150 0D00A0E1 		mov	r0, sp
 2696 2154 FEFFFFEB 		bl	_ZN6tflite3ops5micro16Register_RESHAPEEv
 2697 2158 04C095E5 		ldr	ip, [r5, #4]
 2698 215c 00005CE3 		cmp	ip, #0
 2699 2160 5404000A 		beq	.L552
 2700 2164 183094E5 		ldr	r3, [r4, #24]
 2701 2168 160053E3 		cmp	r3, #22
 2702 216c 0430A011 		movne	r3, r4
 2703 2170 0010A013 		movne	r1, #0
 2704 2174 0400001A 		bne	.L379
 2705 2178 1F0000EA 		b	.L377
 2706              	.L1388:
 2707 217c 180093E5 		ldr	r0, [r3, #24]
 2708 2180 0210A0E1 		mov	r1, r2
 2709 2184 160050E3 		cmp	r0, #22
 2710 2188 1B00000A 		beq	.L377
 2711              	.L379:
 2712 218c 012081E2 		add	r2, r1, #1
 2713 2190 203083E2 		add	r3, r3, #32
 2714 2194 0C0052E1 		cmp	r2, ip
 2715 2198 F7FFFF1A 		bne	.L1388
 2716 219c 80005CE3 		cmp	ip, #128
 2717 21a0 02E08112 		addne	lr, r1, #2
 2718 21a4 1400000A 		beq	.L377
 2719              	.L376:
 2720 21a8 0D70A0E1 		mov	r7, sp
 2721 21ac 82C284E0 		add	ip, r4, r2, lsl #5
 2722 21b0 0F00B7E8 		ldmia	r7!, {r0, r1, r2, r3}
 2723 21b4 009000E3 		movw	r9, #:lower16:_ZN6tflite12ParseReshapeEPKNS_8OperatorEPNS_13ErrorReporterEPNS_20BuiltinDataAl
 2724 21b8 04608CE2 		add	r6, ip, #4
 2725 21bc 16A0A0E3 		mov	r10, #22
 2726 21c0 888295E5 		ldr	r8, [r5, #648]
 2727 21c4 009040E3 		movt	r9, #:upper16:_ZN6tflite12ParseReshapeEPKNS_8OperatorEPNS_13ErrorReporterEPNS_20BuiltinDataAl
 2728 21c8 0F00A6E8 		stmia	r6!, {r0, r1, r2, r3}
 2729 21cc 0F0097E8 		ldm	r7, {r0, r1, r2, r3}
 2730 21d0 427E88E2 		add	r7, r8, #1056
 2731 21d4 027087E2 		add	r7, r7, #2
 2732 21d8 0F0086E8 		stm	r6, {r0, r1, r2, r3}
 2733 21dc 082084E0 		add	r2, r4, r8
 2734 21e0 083001E3 		movw	r3, #4104
 2735 21e4 018088E2 		add	r8, r8, #1
 2736 21e8 18A08CE5 		str	r10, [ip, #24]
 2737 21ec 04E085E5 		str	lr, [r5, #4]
 2738 21f0 03A0C2E7 		strb	r10, [r2, r3]
 2739 21f4 079184E7 		str	r9, [r4, r7, lsl #2]
 2740 21f8 888285E5 		str	r8, [r5, #648]
 2741              	.L377:
 2742 21fc 0D00A0E1 		mov	r0, sp
 2743 2200 FEFFFFEB 		bl	_ZN6tflite24Register_RESIZE_BILINEAREv
 2744 2204 04C095E5 		ldr	ip, [r5, #4]
 2745 2208 00005CE3 		cmp	ip, #0
 2746 220c 5304000A 		beq	.L553
 2747 2210 183094E5 		ldr	r3, [r4, #24]
 2748 2214 170053E3 		cmp	r3, #23
 2749 2218 0430A011 		movne	r3, r4
 2750 221c 0010A013 		movne	r1, #0
 2751 2220 0400001A 		bne	.L385
 2752 2224 1F0000EA 		b	.L383
 2753              	.L1390:
 2754 2228 180093E5 		ldr	r0, [r3, #24]
 2755 222c 0210A0E1 		mov	r1, r2
 2756 2230 170050E3 		cmp	r0, #23
 2757 2234 1B00000A 		beq	.L383
 2758              	.L385:
 2759 2238 012081E2 		add	r2, r1, #1
 2760 223c 203083E2 		add	r3, r3, #32
 2761 2240 02005CE1 		cmp	ip, r2
 2762 2244 F7FFFF1A 		bne	.L1390
 2763 2248 800052E3 		cmp	r2, #128
 2764 224c 02E08112 		addne	lr, r1, #2
 2765 2250 1400000A 		beq	.L383
 2766              	.L382:
 2767 2254 0D70A0E1 		mov	r7, sp
 2768 2258 82C284E0 		add	ip, r4, r2, lsl #5
 2769 225c 0F00B7E8 		ldmia	r7!, {r0, r1, r2, r3}
 2770 2260 009000E3 		movw	r9, #:lower16:_ZN6tflite19ParseResizeBilinearEPKNS_8OperatorEPNS_13ErrorReporterEPNS_20Builti
 2771 2264 04608CE2 		add	r6, ip, #4
 2772 2268 17A0A0E3 		mov	r10, #23
 2773 226c 888295E5 		ldr	r8, [r5, #648]
 2774 2270 009040E3 		movt	r9, #:upper16:_ZN6tflite19ParseResizeBilinearEPKNS_8OperatorEPNS_13ErrorReporterEPNS_20Builti
 2775 2274 0F00A6E8 		stmia	r6!, {r0, r1, r2, r3}
 2776 2278 0F0097E8 		ldm	r7, {r0, r1, r2, r3}
 2777 227c 427E88E2 		add	r7, r8, #1056
 2778 2280 027087E2 		add	r7, r7, #2
 2779 2284 0F0086E8 		stm	r6, {r0, r1, r2, r3}
 2780 2288 082084E0 		add	r2, r4, r8
 2781 228c 083001E3 		movw	r3, #4104
 2782 2290 018088E2 		add	r8, r8, #1
 2783 2294 18A08CE5 		str	r10, [ip, #24]
 2784 2298 04E085E5 		str	lr, [r5, #4]
 2785 229c 03A0C2E7 		strb	r10, [r2, r3]
 2786 22a0 079184E7 		str	r9, [r4, r7, lsl #2]
 2787 22a4 888285E5 		str	r8, [r5, #648]
 2788              	.L383:
 2789 22a8 0D00A0E1 		mov	r0, sp
 2790 22ac FEFFFFEB 		bl	_ZN6tflite3ops5micro32Register_RESIZE_NEAREST_NEIGHBOREv
 2791 22b0 04C095E5 		ldr	ip, [r5, #4]
 2792 22b4 00005CE3 		cmp	ip, #0
 2793 22b8 2504000A 		beq	.L554
 2794 22bc 183094E5 		ldr	r3, [r4, #24]
 2795 22c0 610053E3 		cmp	r3, #97
 2796 22c4 0430A011 		movne	r3, r4
 2797 22c8 0010A013 		movne	r1, #0
 2798 22cc 0400001A 		bne	.L391
 2799 22d0 1F0000EA 		b	.L389
 2800              	.L1392:
 2801 22d4 180093E5 		ldr	r0, [r3, #24]
 2802 22d8 0210A0E1 		mov	r1, r2
 2803 22dc 610050E3 		cmp	r0, #97
 2804 22e0 1B00000A 		beq	.L389
 2805              	.L391:
 2806 22e4 012081E2 		add	r2, r1, #1
 2807 22e8 203083E2 		add	r3, r3, #32
 2808 22ec 0C0052E1 		cmp	r2, ip
 2809 22f0 F7FFFF1A 		bne	.L1392
 2810 22f4 80005CE3 		cmp	ip, #128
 2811 22f8 02E08112 		addne	lr, r1, #2
 2812 22fc 1400000A 		beq	.L389
 2813              	.L388:
 2814 2300 0D70A0E1 		mov	r7, sp
 2815 2304 82C284E0 		add	ip, r4, r2, lsl #5
 2816 2308 0F00B7E8 		ldmia	r7!, {r0, r1, r2, r3}
 2817 230c 009000E3 		movw	r9, #:lower16:_ZN6tflite26ParseResizeNearestNeighborEPKNS_8OperatorEPNS_13ErrorReporterEPNS_2
 2818 2310 04608CE2 		add	r6, ip, #4
 2819 2314 61A0A0E3 		mov	r10, #97
 2820 2318 888295E5 		ldr	r8, [r5, #648]
 2821 231c 009040E3 		movt	r9, #:upper16:_ZN6tflite26ParseResizeNearestNeighborEPKNS_8OperatorEPNS_13ErrorReporterEPNS_2
 2822 2320 0F00A6E8 		stmia	r6!, {r0, r1, r2, r3}
 2823 2324 0F0097E8 		ldm	r7, {r0, r1, r2, r3}
 2824 2328 427E88E2 		add	r7, r8, #1056
 2825 232c 027087E2 		add	r7, r7, #2
 2826 2330 0F0086E8 		stm	r6, {r0, r1, r2, r3}
 2827 2334 082084E0 		add	r2, r4, r8
 2828 2338 083001E3 		movw	r3, #4104
 2829 233c 018088E2 		add	r8, r8, #1
 2830 2340 18A08CE5 		str	r10, [ip, #24]
 2831 2344 04E085E5 		str	lr, [r5, #4]
 2832 2348 03A0C2E7 		strb	r10, [r2, r3]
 2833 234c 079184E7 		str	r9, [r4, r7, lsl #2]
 2834 2350 888285E5 		str	r8, [r5, #648]
 2835              	.L389:
 2836 2354 0D00A0E1 		mov	r0, sp
 2837 2358 FEFFFFEB 		bl	_ZN6tflite3ops5micro14Register_ROUNDEv
 2838 235c 04C095E5 		ldr	ip, [r5, #4]
 2839 2360 00005CE3 		cmp	ip, #0
 2840 2364 F103000A 		beq	.L555
 2841 2368 183094E5 		ldr	r3, [r4, #24]
 2842 236c 740053E3 		cmp	r3, #116
 2843 2370 0430A011 		movne	r3, r4
 2844 2374 0010A013 		movne	r1, #0
 2845 2378 0400001A 		bne	.L397
 2846 237c 1F0000EA 		b	.L395
 2847              	.L1394:
 2848 2380 180093E5 		ldr	r0, [r3, #24]
 2849 2384 0210A0E1 		mov	r1, r2
 2850 2388 740050E3 		cmp	r0, #116
 2851 238c 1B00000A 		beq	.L395
 2852              	.L397:
 2853 2390 012081E2 		add	r2, r1, #1
 2854 2394 203083E2 		add	r3, r3, #32
 2855 2398 0C0052E1 		cmp	r2, ip
 2856 239c F7FFFF1A 		bne	.L1394
 2857 23a0 80005CE3 		cmp	ip, #128
 2858 23a4 02E08112 		addne	lr, r1, #2
 2859 23a8 1400000A 		beq	.L395
 2860              	.L394:
 2861 23ac 0D70A0E1 		mov	r7, sp
 2862 23b0 82C284E0 		add	ip, r4, r2, lsl #5
 2863 23b4 0F00B7E8 		ldmia	r7!, {r0, r1, r2, r3}
 2864 23b8 009000E3 		movw	r9, #:lower16:_ZN6tflite10ParseRoundEPKNS_8OperatorEPNS_13ErrorReporterEPNS_20BuiltinDataAllo
 2865 23bc 04608CE2 		add	r6, ip, #4
 2866 23c0 74A0A0E3 		mov	r10, #116
 2867 23c4 888295E5 		ldr	r8, [r5, #648]
 2868 23c8 009040E3 		movt	r9, #:upper16:_ZN6tflite10ParseRoundEPKNS_8OperatorEPNS_13ErrorReporterEPNS_20BuiltinDataAllo
 2869 23cc 0F00A6E8 		stmia	r6!, {r0, r1, r2, r3}
 2870 23d0 0F0097E8 		ldm	r7, {r0, r1, r2, r3}
 2871 23d4 427E88E2 		add	r7, r8, #1056
 2872 23d8 027087E2 		add	r7, r7, #2
 2873 23dc 0F0086E8 		stm	r6, {r0, r1, r2, r3}
 2874 23e0 082084E0 		add	r2, r4, r8
 2875 23e4 083001E3 		movw	r3, #4104
 2876 23e8 018088E2 		add	r8, r8, #1
 2877 23ec 18A08CE5 		str	r10, [ip, #24]
 2878 23f0 04E085E5 		str	lr, [r5, #4]
 2879 23f4 03A0C2E7 		strb	r10, [r2, r3]
 2880 23f8 079184E7 		str	r9, [r4, r7, lsl #2]
 2881 23fc 888285E5 		str	r8, [r5, #648]
 2882              	.L395:
 2883 2400 0D00A0E1 		mov	r0, sp
 2884 2404 FEFFFFEB 		bl	_ZN6tflite3ops5micro14Register_RSQRTEv
 2885 2408 04C095E5 		ldr	ip, [r5, #4]
 2886 240c 00005CE3 		cmp	ip, #0
 2887 2410 C303000A 		beq	.L556
 2888 2414 183094E5 		ldr	r3, [r4, #24]
 2889 2418 4C0053E3 		cmp	r3, #76
 2890 241c 0430A011 		movne	r3, r4
 2891 2420 0010A013 		movne	r1, #0
 2892 2424 0400001A 		bne	.L403
 2893 2428 1F0000EA 		b	.L401
 2894              	.L1396:
 2895 242c 180093E5 		ldr	r0, [r3, #24]
 2896 2430 0210A0E1 		mov	r1, r2
 2897 2434 4C0050E3 		cmp	r0, #76
 2898 2438 1B00000A 		beq	.L401
 2899              	.L403:
 2900 243c 012081E2 		add	r2, r1, #1
 2901 2440 203083E2 		add	r3, r3, #32
 2902 2444 02005CE1 		cmp	ip, r2
 2903 2448 F7FFFF1A 		bne	.L1396
 2904 244c 800052E3 		cmp	r2, #128
 2905 2450 02E08112 		addne	lr, r1, #2
 2906 2454 1400000A 		beq	.L401
 2907              	.L400:
 2908 2458 0D70A0E1 		mov	r7, sp
 2909 245c 82C284E0 		add	ip, r4, r2, lsl #5
 2910 2460 0F00B7E8 		ldmia	r7!, {r0, r1, r2, r3}
 2911 2464 009000E3 		movw	r9, #:lower16:_ZN6tflite10ParseRsqrtEPKNS_8OperatorEPNS_13ErrorReporterEPNS_20BuiltinDataAllo
 2912 2468 04608CE2 		add	r6, ip, #4
 2913 246c 4CA0A0E3 		mov	r10, #76
 2914 2470 888295E5 		ldr	r8, [r5, #648]
 2915 2474 009040E3 		movt	r9, #:upper16:_ZN6tflite10ParseRsqrtEPKNS_8OperatorEPNS_13ErrorReporterEPNS_20BuiltinDataAllo
 2916 2478 0F00A6E8 		stmia	r6!, {r0, r1, r2, r3}
 2917 247c 0F0097E8 		ldm	r7, {r0, r1, r2, r3}
 2918 2480 427E88E2 		add	r7, r8, #1056
 2919 2484 027087E2 		add	r7, r7, #2
 2920 2488 0F0086E8 		stm	r6, {r0, r1, r2, r3}
 2921 248c 082084E0 		add	r2, r4, r8
 2922 2490 083001E3 		movw	r3, #4104
 2923 2494 018088E2 		add	r8, r8, #1
 2924 2498 18A08CE5 		str	r10, [ip, #24]
 2925 249c 04E085E5 		str	lr, [r5, #4]
 2926 24a0 03A0C2E7 		strb	r10, [r2, r3]
 2927 24a4 079184E7 		str	r9, [r4, r7, lsl #2]
 2928 24a8 888285E5 		str	r8, [r5, #648]
 2929              	.L401:
 2930 24ac 0D00A0E1 		mov	r0, sp
 2931 24b0 FEFFFFEB 		bl	_ZN6tflite14Register_SHAPEEv
 2932 24b4 04C095E5 		ldr	ip, [r5, #4]
 2933 24b8 00005CE3 		cmp	ip, #0
 2934 24bc A103000A 		beq	.L557
 2935 24c0 183094E5 		ldr	r3, [r4, #24]
 2936 24c4 4D0053E3 		cmp	r3, #77
 2937 24c8 0430A011 		movne	r3, r4
 2938 24cc 0010A013 		movne	r1, #0
 2939 24d0 0400001A 		bne	.L409
 2940 24d4 1F0000EA 		b	.L407
 2941              	.L1398:
 2942 24d8 180093E5 		ldr	r0, [r3, #24]
 2943 24dc 0210A0E1 		mov	r1, r2
 2944 24e0 4D0050E3 		cmp	r0, #77
 2945 24e4 1B00000A 		beq	.L407
 2946              	.L409:
 2947 24e8 012081E2 		add	r2, r1, #1
 2948 24ec 203083E2 		add	r3, r3, #32
 2949 24f0 0C0052E1 		cmp	r2, ip
 2950 24f4 F7FFFF1A 		bne	.L1398
 2951 24f8 80005CE3 		cmp	ip, #128
 2952 24fc 02E08112 		addne	lr, r1, #2
 2953 2500 1400000A 		beq	.L407
 2954              	.L406:
 2955 2504 0D70A0E1 		mov	r7, sp
 2956 2508 82C284E0 		add	ip, r4, r2, lsl #5
 2957 250c 0F00B7E8 		ldmia	r7!, {r0, r1, r2, r3}
 2958 2510 009000E3 		movw	r9, #:lower16:_ZN6tflite10ParseShapeEPKNS_8OperatorEPNS_13ErrorReporterEPNS_20BuiltinDataAllo
 2959 2514 04608CE2 		add	r6, ip, #4
 2960 2518 4DA0A0E3 		mov	r10, #77
 2961 251c 888295E5 		ldr	r8, [r5, #648]
 2962 2520 009040E3 		movt	r9, #:upper16:_ZN6tflite10ParseShapeEPKNS_8OperatorEPNS_13ErrorReporterEPNS_20BuiltinDataAllo
 2963 2524 0F00A6E8 		stmia	r6!, {r0, r1, r2, r3}
 2964 2528 0F0097E8 		ldm	r7, {r0, r1, r2, r3}
 2965 252c 427E88E2 		add	r7, r8, #1056
 2966 2530 027087E2 		add	r7, r7, #2
 2967 2534 0F0086E8 		stm	r6, {r0, r1, r2, r3}
 2968 2538 082084E0 		add	r2, r4, r8
 2969 253c 083001E3 		movw	r3, #4104
 2970 2540 018088E2 		add	r8, r8, #1
 2971 2544 18A08CE5 		str	r10, [ip, #24]
 2972 2548 04E085E5 		str	lr, [r5, #4]
 2973 254c 03A0C2E7 		strb	r10, [r2, r3]
 2974 2550 079184E7 		str	r9, [r4, r7, lsl #2]
 2975 2554 888285E5 		str	r8, [r5, #648]
 2976              	.L407:
 2977 2558 0D00A0E1 		mov	r0, sp
 2978 255c FEFFFFEB 		bl	_ZN6tflite3ops5micro12Register_SINEv
 2979 2560 04C095E5 		ldr	ip, [r5, #4]
 2980 2564 00005CE3 		cmp	ip, #0
 2981 2568 7303000A 		beq	.L558
 2982 256c 183094E5 		ldr	r3, [r4, #24]
 2983 2570 420053E3 		cmp	r3, #66
 2984 2574 0430A011 		movne	r3, r4
 2985 2578 0010A013 		movne	r1, #0
 2986 257c 0400001A 		bne	.L415
 2987 2580 1F0000EA 		b	.L413
 2988              	.L1400:
 2989 2584 180093E5 		ldr	r0, [r3, #24]
 2990 2588 0210A0E1 		mov	r1, r2
 2991 258c 420050E3 		cmp	r0, #66
 2992 2590 1B00000A 		beq	.L413
 2993              	.L415:
 2994 2594 012081E2 		add	r2, r1, #1
 2995 2598 203083E2 		add	r3, r3, #32
 2996 259c 02005CE1 		cmp	ip, r2
 2997 25a0 F7FFFF1A 		bne	.L1400
 2998 25a4 800052E3 		cmp	r2, #128
 2999 25a8 02E08112 		addne	lr, r1, #2
 3000 25ac 1400000A 		beq	.L413
 3001              	.L412:
 3002 25b0 0D70A0E1 		mov	r7, sp
 3003 25b4 82C284E0 		add	ip, r4, r2, lsl #5
 3004 25b8 0F00B7E8 		ldmia	r7!, {r0, r1, r2, r3}
 3005 25bc 009000E3 		movw	r9, #:lower16:_ZN6tflite8ParseSinEPKNS_8OperatorEPNS_13ErrorReporterEPNS_20BuiltinDataAllocat
 3006 25c0 04608CE2 		add	r6, ip, #4
 3007 25c4 42A0A0E3 		mov	r10, #66
 3008 25c8 888295E5 		ldr	r8, [r5, #648]
 3009 25cc 009040E3 		movt	r9, #:upper16:_ZN6tflite8ParseSinEPKNS_8OperatorEPNS_13ErrorReporterEPNS_20BuiltinDataAllocat
 3010 25d0 0F00A6E8 		stmia	r6!, {r0, r1, r2, r3}
 3011 25d4 0F0097E8 		ldm	r7, {r0, r1, r2, r3}
 3012 25d8 427E88E2 		add	r7, r8, #1056
 3013 25dc 027087E2 		add	r7, r7, #2
 3014 25e0 0F0086E8 		stm	r6, {r0, r1, r2, r3}
 3015 25e4 082084E0 		add	r2, r4, r8
 3016 25e8 083001E3 		movw	r3, #4104
 3017 25ec 018088E2 		add	r8, r8, #1
 3018 25f0 18A08CE5 		str	r10, [ip, #24]
 3019 25f4 04E085E5 		str	lr, [r5, #4]
 3020 25f8 03A0C2E7 		strb	r10, [r2, r3]
 3021 25fc 079184E7 		str	r9, [r4, r7, lsl #2]
 3022 2600 888285E5 		str	r8, [r5, #648]
 3023              	.L413:
 3024 2604 0D00A0E1 		mov	r0, sp
 3025 2608 FEFFFFEB 		bl	_ZN6tflite16Register_SOFTMAXEv
 3026 260c 04C095E5 		ldr	ip, [r5, #4]
 3027 2610 00005CE3 		cmp	ip, #0
 3028 2614 5403000A 		beq	.L559
 3029 2618 183094E5 		ldr	r3, [r4, #24]
 3030 261c 190053E3 		cmp	r3, #25
 3031 2620 0430A011 		movne	r3, r4
 3032 2624 0010A013 		movne	r1, #0
 3033 2628 0400001A 		bne	.L421
 3034 262c 1F0000EA 		b	.L419
 3035              	.L1402:
 3036 2630 180093E5 		ldr	r0, [r3, #24]
 3037 2634 0210A0E1 		mov	r1, r2
 3038 2638 190050E3 		cmp	r0, #25
 3039 263c 1B00000A 		beq	.L419
 3040              	.L421:
 3041 2640 012081E2 		add	r2, r1, #1
 3042 2644 203083E2 		add	r3, r3, #32
 3043 2648 0C0052E1 		cmp	r2, ip
 3044 264c F7FFFF1A 		bne	.L1402
 3045 2650 80005CE3 		cmp	ip, #128
 3046 2654 02E08112 		addne	lr, r1, #2
 3047 2658 1400000A 		beq	.L419
 3048              	.L418:
 3049 265c 0D70A0E1 		mov	r7, sp
 3050 2660 82C284E0 		add	ip, r4, r2, lsl #5
 3051 2664 0F00B7E8 		ldmia	r7!, {r0, r1, r2, r3}
 3052 2668 009000E3 		movw	r9, #:lower16:_ZN6tflite12ParseSoftmaxEPKNS_8OperatorEPNS_13ErrorReporterEPNS_20BuiltinDataAl
 3053 266c 04608CE2 		add	r6, ip, #4
 3054 2670 19A0A0E3 		mov	r10, #25
 3055 2674 888295E5 		ldr	r8, [r5, #648]
 3056 2678 009040E3 		movt	r9, #:upper16:_ZN6tflite12ParseSoftmaxEPKNS_8OperatorEPNS_13ErrorReporterEPNS_20BuiltinDataAl
 3057 267c 0F00A6E8 		stmia	r6!, {r0, r1, r2, r3}
 3058 2680 0F0097E8 		ldm	r7, {r0, r1, r2, r3}
 3059 2684 427E88E2 		add	r7, r8, #1056
 3060 2688 027087E2 		add	r7, r7, #2
 3061 268c 0F0086E8 		stm	r6, {r0, r1, r2, r3}
 3062 2690 082084E0 		add	r2, r4, r8
 3063 2694 083001E3 		movw	r3, #4104
 3064 2698 018088E2 		add	r8, r8, #1
 3065 269c 18A08CE5 		str	r10, [ip, #24]
 3066 26a0 04E085E5 		str	lr, [r5, #4]
 3067 26a4 03A0C2E7 		strb	r10, [r2, r3]
 3068 26a8 079184E7 		str	r9, [r4, r7, lsl #2]
 3069 26ac 888285E5 		str	r8, [r5, #648]
 3070              	.L419:
 3071 26b0 0D00A0E1 		mov	r0, sp
 3072 26b4 FEFFFFEB 		bl	_ZN6tflite26Register_SPACE_TO_BATCH_NDEv
 3073 26b8 04C095E5 		ldr	ip, [r5, #4]
 3074 26bc 00005CE3 		cmp	ip, #0
 3075 26c0 8A02000A 		beq	.L560
 3076 26c4 183094E5 		ldr	r3, [r4, #24]
 3077 26c8 260053E3 		cmp	r3, #38
 3078 26cc 0430A011 		movne	r3, r4
 3079 26d0 0010A013 		movne	r1, #0
 3080 26d4 0400001A 		bne	.L427
 3081 26d8 1F0000EA 		b	.L425
 3082              	.L1404:
 3083 26dc 180093E5 		ldr	r0, [r3, #24]
 3084 26e0 0210A0E1 		mov	r1, r2
 3085 26e4 260050E3 		cmp	r0, #38
 3086 26e8 1B00000A 		beq	.L425
 3087              	.L427:
 3088 26ec 012081E2 		add	r2, r1, #1
 3089 26f0 203083E2 		add	r3, r3, #32
 3090 26f4 02005CE1 		cmp	ip, r2
 3091 26f8 F7FFFF1A 		bne	.L1404
 3092 26fc 800052E3 		cmp	r2, #128
 3093 2700 02E08112 		addne	lr, r1, #2
 3094 2704 1400000A 		beq	.L425
 3095              	.L424:
 3096 2708 0D70A0E1 		mov	r7, sp
 3097 270c 82C284E0 		add	ip, r4, r2, lsl #5
 3098 2710 0F00B7E8 		ldmia	r7!, {r0, r1, r2, r3}
 3099 2714 009000E3 		movw	r9, #:lower16:_ZN6tflite19ParseSpaceToBatchNdEPKNS_8OperatorEPNS_13ErrorReporterEPNS_20Builti
 3100 2718 04608CE2 		add	r6, ip, #4
 3101 271c 26A0A0E3 		mov	r10, #38
 3102 2720 888295E5 		ldr	r8, [r5, #648]
 3103 2724 009040E3 		movt	r9, #:upper16:_ZN6tflite19ParseSpaceToBatchNdEPKNS_8OperatorEPNS_13ErrorReporterEPNS_20Builti
 3104 2728 0F00A6E8 		stmia	r6!, {r0, r1, r2, r3}
 3105 272c 0F0097E8 		ldm	r7, {r0, r1, r2, r3}
 3106 2730 427E88E2 		add	r7, r8, #1056
 3107 2734 027087E2 		add	r7, r7, #2
 3108 2738 0F0086E8 		stm	r6, {r0, r1, r2, r3}
 3109 273c 082084E0 		add	r2, r4, r8
 3110 2740 083001E3 		movw	r3, #4104
 3111 2744 018088E2 		add	r8, r8, #1
 3112 2748 18A08CE5 		str	r10, [ip, #24]
 3113 274c 04E085E5 		str	lr, [r5, #4]
 3114 2750 03A0C2E7 		strb	r10, [r2, r3]
 3115 2754 079184E7 		str	r9, [r4, r7, lsl #2]
 3116 2758 888285E5 		str	r8, [r5, #648]
 3117              	.L425:
 3118 275c 0D00A0E1 		mov	r0, sp
 3119 2760 FEFFFFEB 		bl	_ZN6tflite3ops5micro14Register_SPLITEv
 3120 2764 04C095E5 		ldr	ip, [r5, #4]
 3121 2768 00005CE3 		cmp	ip, #0
 3122 276c 5C02000A 		beq	.L561
 3123 2770 183094E5 		ldr	r3, [r4, #24]
 3124 2774 310053E3 		cmp	r3, #49
 3125 2778 0430A011 		movne	r3, r4
 3126 277c 0010A013 		movne	r1, #0
 3127 2780 0400001A 		bne	.L433
 3128 2784 1F0000EA 		b	.L431
 3129              	.L1406:
 3130 2788 180093E5 		ldr	r0, [r3, #24]
 3131 278c 0210A0E1 		mov	r1, r2
 3132 2790 310050E3 		cmp	r0, #49
 3133 2794 1B00000A 		beq	.L431
 3134              	.L433:
 3135 2798 012081E2 		add	r2, r1, #1
 3136 279c 203083E2 		add	r3, r3, #32
 3137 27a0 0C0052E1 		cmp	r2, ip
 3138 27a4 F7FFFF1A 		bne	.L1406
 3139 27a8 80005CE3 		cmp	ip, #128
 3140 27ac 02E08112 		addne	lr, r1, #2
 3141 27b0 1400000A 		beq	.L431
 3142              	.L430:
 3143 27b4 0D70A0E1 		mov	r7, sp
 3144 27b8 82C284E0 		add	ip, r4, r2, lsl #5
 3145 27bc 0F00B7E8 		ldmia	r7!, {r0, r1, r2, r3}
 3146 27c0 009000E3 		movw	r9, #:lower16:_ZN6tflite10ParseSplitEPKNS_8OperatorEPNS_13ErrorReporterEPNS_20BuiltinDataAllo
 3147 27c4 04608CE2 		add	r6, ip, #4
 3148 27c8 31A0A0E3 		mov	r10, #49
 3149 27cc 888295E5 		ldr	r8, [r5, #648]
 3150 27d0 009040E3 		movt	r9, #:upper16:_ZN6tflite10ParseSplitEPKNS_8OperatorEPNS_13ErrorReporterEPNS_20BuiltinDataAllo
 3151 27d4 0F00A6E8 		stmia	r6!, {r0, r1, r2, r3}
 3152 27d8 0F0097E8 		ldm	r7, {r0, r1, r2, r3}
 3153 27dc 427E88E2 		add	r7, r8, #1056
 3154 27e0 027087E2 		add	r7, r7, #2
 3155 27e4 0F0086E8 		stm	r6, {r0, r1, r2, r3}
 3156 27e8 082084E0 		add	r2, r4, r8
 3157 27ec 083001E3 		movw	r3, #4104
 3158 27f0 018088E2 		add	r8, r8, #1
 3159 27f4 18A08CE5 		str	r10, [ip, #24]
 3160 27f8 04E085E5 		str	lr, [r5, #4]
 3161 27fc 03A0C2E7 		strb	r10, [r2, r3]
 3162 2800 079184E7 		str	r9, [r4, r7, lsl #2]
 3163 2804 888285E5 		str	r8, [r5, #648]
 3164              	.L431:
 3165 2808 0D00A0E1 		mov	r0, sp
 3166 280c FEFFFFEB 		bl	_ZN6tflite3ops5micro16Register_SPLIT_VEv
 3167 2810 04C095E5 		ldr	ip, [r5, #4]
 3168 2814 00005CE3 		cmp	ip, #0
 3169 2818 3A02000A 		beq	.L562
 3170 281c 183094E5 		ldr	r3, [r4, #24]
 3171 2820 660053E3 		cmp	r3, #102
 3172 2824 0430A011 		movne	r3, r4
 3173 2828 0010A013 		movne	r1, #0
 3174 282c 0400001A 		bne	.L439
 3175 2830 1F0000EA 		b	.L437
 3176              	.L1408:
 3177 2834 180093E5 		ldr	r0, [r3, #24]
 3178 2838 0210A0E1 		mov	r1, r2
 3179 283c 660050E3 		cmp	r0, #102
 3180 2840 1B00000A 		beq	.L437
 3181              	.L439:
 3182 2844 012081E2 		add	r2, r1, #1
 3183 2848 203083E2 		add	r3, r3, #32
 3184 284c 0C0052E1 		cmp	r2, ip
 3185 2850 F7FFFF1A 		bne	.L1408
 3186 2854 80005CE3 		cmp	ip, #128
 3187 2858 02E08112 		addne	lr, r1, #2
 3188 285c 1400000A 		beq	.L437
 3189              	.L436:
 3190 2860 0D70A0E1 		mov	r7, sp
 3191 2864 82C284E0 		add	ip, r4, r2, lsl #5
 3192 2868 0F00B7E8 		ldmia	r7!, {r0, r1, r2, r3}
 3193 286c 009000E3 		movw	r9, #:lower16:_ZN6tflite11ParseSplitVEPKNS_8OperatorEPNS_13ErrorReporterEPNS_20BuiltinDataAll
 3194 2870 04608CE2 		add	r6, ip, #4
 3195 2874 66A0A0E3 		mov	r10, #102
 3196 2878 888295E5 		ldr	r8, [r5, #648]
 3197 287c 009040E3 		movt	r9, #:upper16:_ZN6tflite11ParseSplitVEPKNS_8OperatorEPNS_13ErrorReporterEPNS_20BuiltinDataAll
 3198 2880 0F00A6E8 		stmia	r6!, {r0, r1, r2, r3}
 3199 2884 0F0097E8 		ldm	r7, {r0, r1, r2, r3}
 3200 2888 427E88E2 		add	r7, r8, #1056
 3201 288c 027087E2 		add	r7, r7, #2
 3202 2890 0F0086E8 		stm	r6, {r0, r1, r2, r3}
 3203 2894 082084E0 		add	r2, r4, r8
 3204 2898 083001E3 		movw	r3, #4104
 3205 289c 018088E2 		add	r8, r8, #1
 3206 28a0 18A08CE5 		str	r10, [ip, #24]
 3207 28a4 04E085E5 		str	lr, [r5, #4]
 3208 28a8 03A0C2E7 		strb	r10, [r2, r3]
 3209 28ac 079184E7 		str	r9, [r4, r7, lsl #2]
 3210 28b0 888285E5 		str	r8, [r5, #648]
 3211              	.L437:
 3212 28b4 0D00A0E1 		mov	r0, sp
 3213 28b8 FEFFFFEB 		bl	_ZN6tflite3ops5micro13Register_SQRTEv
 3214 28bc 04C095E5 		ldr	ip, [r5, #4]
 3215 28c0 00005CE3 		cmp	ip, #0
 3216 28c4 0C02000A 		beq	.L563
 3217 28c8 183094E5 		ldr	r3, [r4, #24]
 3218 28cc 4B0053E3 		cmp	r3, #75
 3219 28d0 0430A011 		movne	r3, r4
 3220 28d4 0010A013 		movne	r1, #0
 3221 28d8 0400001A 		bne	.L445
 3222 28dc 1F0000EA 		b	.L443
 3223              	.L1410:
 3224 28e0 180093E5 		ldr	r0, [r3, #24]
 3225 28e4 0210A0E1 		mov	r1, r2
 3226 28e8 4B0050E3 		cmp	r0, #75
 3227 28ec 1B00000A 		beq	.L443
 3228              	.L445:
 3229 28f0 012081E2 		add	r2, r1, #1
 3230 28f4 203083E2 		add	r3, r3, #32
 3231 28f8 0C0052E1 		cmp	r2, ip
 3232 28fc F7FFFF1A 		bne	.L1410
 3233 2900 80005CE3 		cmp	ip, #128
 3234 2904 02E08112 		addne	lr, r1, #2
 3235 2908 1400000A 		beq	.L443
 3236              	.L442:
 3237 290c 0D70A0E1 		mov	r7, sp
 3238 2910 82C284E0 		add	ip, r4, r2, lsl #5
 3239 2914 0F00B7E8 		ldmia	r7!, {r0, r1, r2, r3}
 3240 2918 009000E3 		movw	r9, #:lower16:_ZN6tflite9ParseSqrtEPKNS_8OperatorEPNS_13ErrorReporterEPNS_20BuiltinDataAlloca
 3241 291c 04608CE2 		add	r6, ip, #4
 3242 2920 4BA0A0E3 		mov	r10, #75
 3243 2924 888295E5 		ldr	r8, [r5, #648]
 3244 2928 009040E3 		movt	r9, #:upper16:_ZN6tflite9ParseSqrtEPKNS_8OperatorEPNS_13ErrorReporterEPNS_20BuiltinDataAlloca
 3245 292c 0F00A6E8 		stmia	r6!, {r0, r1, r2, r3}
 3246 2930 0F0097E8 		ldm	r7, {r0, r1, r2, r3}
 3247 2934 427E88E2 		add	r7, r8, #1056
 3248 2938 027087E2 		add	r7, r7, #2
 3249 293c 0F0086E8 		stm	r6, {r0, r1, r2, r3}
 3250 2940 082084E0 		add	r2, r4, r8
 3251 2944 083001E3 		movw	r3, #4104
 3252 2948 018088E2 		add	r8, r8, #1
 3253 294c 18A08CE5 		str	r10, [ip, #24]
 3254 2950 04E085E5 		str	lr, [r5, #4]
 3255 2954 03A0C2E7 		strb	r10, [r2, r3]
 3256 2958 079184E7 		str	r9, [r4, r7, lsl #2]
 3257 295c 888285E5 		str	r8, [r5, #648]
 3258              	.L443:
 3259 2960 0D00A0E1 		mov	r0, sp
 3260 2964 FEFFFFEB 		bl	_ZN6tflite3ops5micro15Register_SQUAREEv
 3261 2968 04C095E5 		ldr	ip, [r5, #4]
 3262 296c 00005CE3 		cmp	ip, #0
 3263 2970 EA01000A 		beq	.L564
 3264 2974 183094E5 		ldr	r3, [r4, #24]
 3265 2978 5C0053E3 		cmp	r3, #92
 3266 297c 0430A011 		movne	r3, r4
 3267 2980 0010A013 		movne	r1, #0
 3268 2984 0400001A 		bne	.L451
 3269 2988 1F0000EA 		b	.L449
 3270              	.L1412:
 3271 298c 180093E5 		ldr	r0, [r3, #24]
 3272 2990 0210A0E1 		mov	r1, r2
 3273 2994 5C0050E3 		cmp	r0, #92
 3274 2998 1B00000A 		beq	.L449
 3275              	.L451:
 3276 299c 012081E2 		add	r2, r1, #1
 3277 29a0 203083E2 		add	r3, r3, #32
 3278 29a4 0C0052E1 		cmp	r2, ip
 3279 29a8 F7FFFF1A 		bne	.L1412
 3280 29ac 80005CE3 		cmp	ip, #128
 3281 29b0 02E08112 		addne	lr, r1, #2
 3282 29b4 1400000A 		beq	.L449
 3283              	.L448:
 3284 29b8 0D70A0E1 		mov	r7, sp
 3285 29bc 82C284E0 		add	ip, r4, r2, lsl #5
 3286 29c0 0F00B7E8 		ldmia	r7!, {r0, r1, r2, r3}
 3287 29c4 009000E3 		movw	r9, #:lower16:_ZN6tflite11ParseSquareEPKNS_8OperatorEPNS_13ErrorReporterEPNS_20BuiltinDataAll
 3288 29c8 04608CE2 		add	r6, ip, #4
 3289 29cc 5CA0A0E3 		mov	r10, #92
 3290 29d0 888295E5 		ldr	r8, [r5, #648]
 3291 29d4 009040E3 		movt	r9, #:upper16:_ZN6tflite11ParseSquareEPKNS_8OperatorEPNS_13ErrorReporterEPNS_20BuiltinDataAll
 3292 29d8 0F00A6E8 		stmia	r6!, {r0, r1, r2, r3}
 3293 29dc 0F0097E8 		ldm	r7, {r0, r1, r2, r3}
 3294 29e0 427E88E2 		add	r7, r8, #1056
 3295 29e4 027087E2 		add	r7, r7, #2
 3296 29e8 0F0086E8 		stm	r6, {r0, r1, r2, r3}
 3297 29ec 082084E0 		add	r2, r4, r8
 3298 29f0 083001E3 		movw	r3, #4104
 3299 29f4 018088E2 		add	r8, r8, #1
 3300 29f8 18A08CE5 		str	r10, [ip, #24]
 3301 29fc 04E085E5 		str	lr, [r5, #4]
 3302 2a00 03A0C2E7 		strb	r10, [r2, r3]
 3303 2a04 079184E7 		str	r9, [r4, r7, lsl #2]
 3304 2a08 888285E5 		str	r8, [r5, #648]
 3305              	.L449:
 3306 2a0c 0D00A0E1 		mov	r0, sp
 3307 2a10 FEFFFFEB 		bl	_ZN6tflite16Register_SQUEEZEEv
 3308 2a14 04C095E5 		ldr	ip, [r5, #4]
 3309 2a18 00005CE3 		cmp	ip, #0
 3310 2a1c BC01000A 		beq	.L565
 3311 2a20 183094E5 		ldr	r3, [r4, #24]
 3312 2a24 2B0053E3 		cmp	r3, #43
 3313 2a28 0430A011 		movne	r3, r4
 3314 2a2c 0010A013 		movne	r1, #0
 3315 2a30 0400001A 		bne	.L457
 3316 2a34 1F0000EA 		b	.L455
 3317              	.L1414:
 3318 2a38 180093E5 		ldr	r0, [r3, #24]
 3319 2a3c 0210A0E1 		mov	r1, r2
 3320 2a40 2B0050E3 		cmp	r0, #43
 3321 2a44 1B00000A 		beq	.L455
 3322              	.L457:
 3323 2a48 012081E2 		add	r2, r1, #1
 3324 2a4c 203083E2 		add	r3, r3, #32
 3325 2a50 0C0052E1 		cmp	r2, ip
 3326 2a54 F7FFFF1A 		bne	.L1414
 3327 2a58 80005CE3 		cmp	ip, #128
 3328 2a5c 02E08112 		addne	lr, r1, #2
 3329 2a60 1400000A 		beq	.L455
 3330              	.L454:
 3331 2a64 0D70A0E1 		mov	r7, sp
 3332 2a68 82C284E0 		add	ip, r4, r2, lsl #5
 3333 2a6c 0F00B7E8 		ldmia	r7!, {r0, r1, r2, r3}
 3334 2a70 009000E3 		movw	r9, #:lower16:_ZN6tflite12ParseSqueezeEPKNS_8OperatorEPNS_13ErrorReporterEPNS_20BuiltinDataAl
 3335 2a74 04608CE2 		add	r6, ip, #4
 3336 2a78 2BA0A0E3 		mov	r10, #43
 3337 2a7c 888295E5 		ldr	r8, [r5, #648]
 3338 2a80 009040E3 		movt	r9, #:upper16:_ZN6tflite12ParseSqueezeEPKNS_8OperatorEPNS_13ErrorReporterEPNS_20BuiltinDataAl
 3339 2a84 0F00A6E8 		stmia	r6!, {r0, r1, r2, r3}
 3340 2a88 0F0097E8 		ldm	r7, {r0, r1, r2, r3}
 3341 2a8c 427E88E2 		add	r7, r8, #1056
 3342 2a90 027087E2 		add	r7, r7, #2
 3343 2a94 0F0086E8 		stm	r6, {r0, r1, r2, r3}
 3344 2a98 082084E0 		add	r2, r4, r8
 3345 2a9c 083001E3 		movw	r3, #4104
 3346 2aa0 018088E2 		add	r8, r8, #1
 3347 2aa4 18A08CE5 		str	r10, [ip, #24]
 3348 2aa8 04E085E5 		str	lr, [r5, #4]
 3349 2aac 03A0C2E7 		strb	r10, [r2, r3]
 3350 2ab0 079184E7 		str	r9, [r4, r7, lsl #2]
 3351 2ab4 888285E5 		str	r8, [r5, #648]
 3352              	.L455:
 3353 2ab8 0D00A0E1 		mov	r0, sp
 3354 2abc FEFFFFEB 		bl	_ZN6tflite3ops5micro22Register_STRIDED_SLICEEv
 3355 2ac0 04C095E5 		ldr	ip, [r5, #4]
 3356 2ac4 00005CE3 		cmp	ip, #0
 3357 2ac8 9A01000A 		beq	.L566
 3358 2acc 183094E5 		ldr	r3, [r4, #24]
 3359 2ad0 2D0053E3 		cmp	r3, #45
 3360 2ad4 0430A011 		movne	r3, r4
 3361 2ad8 0010A013 		movne	r1, #0
 3362 2adc 0400001A 		bne	.L463
 3363 2ae0 1F0000EA 		b	.L461
 3364              	.L1416:
 3365 2ae4 180093E5 		ldr	r0, [r3, #24]
 3366 2ae8 0210A0E1 		mov	r1, r2
 3367 2aec 2D0050E3 		cmp	r0, #45
 3368 2af0 1B00000A 		beq	.L461
 3369              	.L463:
 3370 2af4 012081E2 		add	r2, r1, #1
 3371 2af8 203083E2 		add	r3, r3, #32
 3372 2afc 02005CE1 		cmp	ip, r2
 3373 2b00 F7FFFF1A 		bne	.L1416
 3374 2b04 800052E3 		cmp	r2, #128
 3375 2b08 02E08112 		addne	lr, r1, #2
 3376 2b0c 1400000A 		beq	.L461
 3377              	.L460:
 3378 2b10 0D70A0E1 		mov	r7, sp
 3379 2b14 82C284E0 		add	ip, r4, r2, lsl #5
 3380 2b18 0F00B7E8 		ldmia	r7!, {r0, r1, r2, r3}
 3381 2b1c 009000E3 		movw	r9, #:lower16:_ZN6tflite17ParseStridedSliceEPKNS_8OperatorEPNS_13ErrorReporterEPNS_20BuiltinD
 3382 2b20 04608CE2 		add	r6, ip, #4
 3383 2b24 2DA0A0E3 		mov	r10, #45
 3384 2b28 888295E5 		ldr	r8, [r5, #648]
 3385 2b2c 009040E3 		movt	r9, #:upper16:_ZN6tflite17ParseStridedSliceEPKNS_8OperatorEPNS_13ErrorReporterEPNS_20BuiltinD
 3386 2b30 0F00A6E8 		stmia	r6!, {r0, r1, r2, r3}
 3387 2b34 0F0097E8 		ldm	r7, {r0, r1, r2, r3}
 3388 2b38 427E88E2 		add	r7, r8, #1056
 3389 2b3c 027087E2 		add	r7, r7, #2
 3390 2b40 0F0086E8 		stm	r6, {r0, r1, r2, r3}
 3391 2b44 082084E0 		add	r2, r4, r8
 3392 2b48 083001E3 		movw	r3, #4104
 3393 2b4c 018088E2 		add	r8, r8, #1
 3394 2b50 18A08CE5 		str	r10, [ip, #24]
 3395 2b54 04E085E5 		str	lr, [r5, #4]
 3396 2b58 03A0C2E7 		strb	r10, [r2, r3]
 3397 2b5c 079184E7 		str	r9, [r4, r7, lsl #2]
 3398 2b60 888285E5 		str	r8, [r5, #648]
 3399              	.L461:
 3400 2b64 0D00A0E1 		mov	r0, sp
 3401 2b68 FEFFFFEB 		bl	_ZN6tflite3ops5micro12Register_SUBEv
 3402 2b6c 04C095E5 		ldr	ip, [r5, #4]
 3403 2b70 00005CE3 		cmp	ip, #0
 3404 2b74 6C01000A 		beq	.L567
 3405 2b78 183094E5 		ldr	r3, [r4, #24]
 3406 2b7c 290053E3 		cmp	r3, #41
 3407 2b80 0430A011 		movne	r3, r4
 3408 2b84 0010A013 		movne	r1, #0
 3409 2b88 0400001A 		bne	.L469
 3410 2b8c 1F0000EA 		b	.L467
 3411              	.L1418:
 3412 2b90 180093E5 		ldr	r0, [r3, #24]
 3413 2b94 0210A0E1 		mov	r1, r2
 3414 2b98 290050E3 		cmp	r0, #41
 3415 2b9c 1B00000A 		beq	.L467
 3416              	.L469:
 3417 2ba0 012081E2 		add	r2, r1, #1
 3418 2ba4 203083E2 		add	r3, r3, #32
 3419 2ba8 02005CE1 		cmp	ip, r2
 3420 2bac F7FFFF1A 		bne	.L1418
 3421 2bb0 800052E3 		cmp	r2, #128
 3422 2bb4 02E08112 		addne	lr, r1, #2
 3423 2bb8 1400000A 		beq	.L467
 3424              	.L466:
 3425 2bbc 0D70A0E1 		mov	r7, sp
 3426 2bc0 82C284E0 		add	ip, r4, r2, lsl #5
 3427 2bc4 0F00B7E8 		ldmia	r7!, {r0, r1, r2, r3}
 3428 2bc8 009000E3 		movw	r9, #:lower16:_ZN6tflite8ParseSubEPKNS_8OperatorEPNS_13ErrorReporterEPNS_20BuiltinDataAllocat
 3429 2bcc 04608CE2 		add	r6, ip, #4
 3430 2bd0 29A0A0E3 		mov	r10, #41
 3431 2bd4 888295E5 		ldr	r8, [r5, #648]
 3432 2bd8 009040E3 		movt	r9, #:upper16:_ZN6tflite8ParseSubEPKNS_8OperatorEPNS_13ErrorReporterEPNS_20BuiltinDataAllocat
 3433 2bdc 0F00A6E8 		stmia	r6!, {r0, r1, r2, r3}
 3434 2be0 0F0097E8 		ldm	r7, {r0, r1, r2, r3}
 3435 2be4 427E88E2 		add	r7, r8, #1056
 3436 2be8 027087E2 		add	r7, r7, #2
 3437 2bec 0F0086E8 		stm	r6, {r0, r1, r2, r3}
 3438 2bf0 082084E0 		add	r2, r4, r8
 3439 2bf4 083001E3 		movw	r3, #4104
 3440 2bf8 018088E2 		add	r8, r8, #1
 3441 2bfc 18A08CE5 		str	r10, [ip, #24]
 3442 2c00 04E085E5 		str	lr, [r5, #4]
 3443 2c04 03A0C2E7 		strb	r10, [r2, r3]
 3444 2c08 079184E7 		str	r9, [r4, r7, lsl #2]
 3445 2c0c 888285E5 		str	r8, [r5, #648]
 3446              	.L467:
 3447 2c10 0D00A0E1 		mov	r0, sp
 3448 2c14 FEFFFFEB 		bl	_ZN6tflite13Register_SVDFEv
 3449 2c18 04C095E5 		ldr	ip, [r5, #4]
 3450 2c1c 00005CE3 		cmp	ip, #0
 3451 2c20 6201000A 		beq	.L568
 3452 2c24 183094E5 		ldr	r3, [r4, #24]
 3453 2c28 1B0053E3 		cmp	r3, #27
 3454 2c2c 0430A011 		movne	r3, r4
 3455 2c30 0010A013 		movne	r1, #0
 3456 2c34 0400001A 		bne	.L475
 3457 2c38 1F0000EA 		b	.L473
 3458              	.L1420:
 3459 2c3c 180093E5 		ldr	r0, [r3, #24]
 3460 2c40 0210A0E1 		mov	r1, r2
 3461 2c44 1B0050E3 		cmp	r0, #27
 3462 2c48 1B00000A 		beq	.L473
 3463              	.L475:
 3464 2c4c 012081E2 		add	r2, r1, #1
 3465 2c50 203083E2 		add	r3, r3, #32
 3466 2c54 02005CE1 		cmp	ip, r2
 3467 2c58 F7FFFF1A 		bne	.L1420
 3468 2c5c 800052E3 		cmp	r2, #128
 3469 2c60 02E08112 		addne	lr, r1, #2
 3470 2c64 1400000A 		beq	.L473
 3471              	.L472:
 3472 2c68 0D70A0E1 		mov	r7, sp
 3473 2c6c 82C284E0 		add	ip, r4, r2, lsl #5
 3474 2c70 0F00B7E8 		ldmia	r7!, {r0, r1, r2, r3}
 3475 2c74 009000E3 		movw	r9, #:lower16:_ZN6tflite9ParseSvdfEPKNS_8OperatorEPNS_13ErrorReporterEPNS_20BuiltinDataAlloca
 3476 2c78 04608CE2 		add	r6, ip, #4
 3477 2c7c 1BA0A0E3 		mov	r10, #27
 3478 2c80 888295E5 		ldr	r8, [r5, #648]
 3479 2c84 009040E3 		movt	r9, #:upper16:_ZN6tflite9ParseSvdfEPKNS_8OperatorEPNS_13ErrorReporterEPNS_20BuiltinDataAlloca
 3480 2c88 0F00A6E8 		stmia	r6!, {r0, r1, r2, r3}
 3481 2c8c 0F0097E8 		ldm	r7, {r0, r1, r2, r3}
 3482 2c90 427E88E2 		add	r7, r8, #1056
 3483 2c94 027087E2 		add	r7, r7, #2
 3484 2c98 0F0086E8 		stm	r6, {r0, r1, r2, r3}
 3485 2c9c 082084E0 		add	r2, r4, r8
 3486 2ca0 083001E3 		movw	r3, #4104
 3487 2ca4 018088E2 		add	r8, r8, #1
 3488 2ca8 18A08CE5 		str	r10, [ip, #24]
 3489 2cac 04E085E5 		str	lr, [r5, #4]
 3490 2cb0 03A0C2E7 		strb	r10, [r2, r3]
 3491 2cb4 079184E7 		str	r9, [r4, r7, lsl #2]
 3492 2cb8 888285E5 		str	r8, [r5, #648]
 3493              	.L473:
 3494 2cbc 0D00A0E1 		mov	r0, sp
 3495 2cc0 FEFFFFEB 		bl	_ZN6tflite3ops5micro13Register_TANHEv
 3496 2cc4 04C095E5 		ldr	ip, [r5, #4]
 3497 2cc8 00005CE3 		cmp	ip, #0
 3498 2ccc 3401000A 		beq	.L569
 3499 2cd0 183094E5 		ldr	r3, [r4, #24]
 3500 2cd4 1C0053E3 		cmp	r3, #28
 3501 2cd8 0430A011 		movne	r3, r4
 3502 2cdc 0010A013 		movne	r1, #0
 3503 2ce0 0400001A 		bne	.L481
 3504 2ce4 1F0000EA 		b	.L479
 3505              	.L1422:
 3506 2ce8 180093E5 		ldr	r0, [r3, #24]
 3507 2cec 0210A0E1 		mov	r1, r2
 3508 2cf0 1C0050E3 		cmp	r0, #28
 3509 2cf4 1B00000A 		beq	.L479
 3510              	.L481:
 3511 2cf8 012081E2 		add	r2, r1, #1
 3512 2cfc 203083E2 		add	r3, r3, #32
 3513 2d00 02005CE1 		cmp	ip, r2
 3514 2d04 F7FFFF1A 		bne	.L1422
 3515 2d08 800052E3 		cmp	r2, #128
 3516 2d0c 02E08112 		addne	lr, r1, #2
 3517 2d10 1400000A 		beq	.L479
 3518              	.L478:
 3519 2d14 0D70A0E1 		mov	r7, sp
 3520 2d18 82C284E0 		add	ip, r4, r2, lsl #5
 3521 2d1c 0F00B7E8 		ldmia	r7!, {r0, r1, r2, r3}
 3522 2d20 009000E3 		movw	r9, #:lower16:_ZN6tflite9ParseTanhEPKNS_8OperatorEPNS_13ErrorReporterEPNS_20BuiltinDataAlloca
 3523 2d24 04608CE2 		add	r6, ip, #4
 3524 2d28 1CA0A0E3 		mov	r10, #28
 3525 2d2c 888295E5 		ldr	r8, [r5, #648]
 3526 2d30 009040E3 		movt	r9, #:upper16:_ZN6tflite9ParseTanhEPKNS_8OperatorEPNS_13ErrorReporterEPNS_20BuiltinDataAlloca
 3527 2d34 0F00A6E8 		stmia	r6!, {r0, r1, r2, r3}
 3528 2d38 0F0097E8 		ldm	r7, {r0, r1, r2, r3}
 3529 2d3c 427E88E2 		add	r7, r8, #1056
 3530 2d40 027087E2 		add	r7, r7, #2
 3531 2d44 0F0086E8 		stm	r6, {r0, r1, r2, r3}
 3532 2d48 082084E0 		add	r2, r4, r8
 3533 2d4c 083001E3 		movw	r3, #4104
 3534 2d50 018088E2 		add	r8, r8, #1
 3535 2d54 18A08CE5 		str	r10, [ip, #24]
 3536 2d58 04E085E5 		str	lr, [r5, #4]
 3537 2d5c 03A0C2E7 		strb	r10, [r2, r3]
 3538 2d60 079184E7 		str	r9, [r4, r7, lsl #2]
 3539 2d64 888285E5 		str	r8, [r5, #648]
 3540              	.L479:
 3541 2d68 0D00A0E1 		mov	r0, sp
 3542 2d6c FEFFFFEB 		bl	_ZN6tflite23Register_TRANSPOSE_CONVEv
 3543 2d70 04C095E5 		ldr	ip, [r5, #4]
 3544 2d74 00005CE3 		cmp	ip, #0
 3545 2d78 1201000A 		beq	.L570
 3546 2d7c 183094E5 		ldr	r3, [r4, #24]
 3547 2d80 430053E3 		cmp	r3, #67
 3548 2d84 0430A011 		movne	r3, r4
 3549 2d88 0010A013 		movne	r1, #0
 3550 2d8c 0400001A 		bne	.L487
 3551 2d90 1F0000EA 		b	.L485
 3552              	.L1424:
 3553 2d94 180093E5 		ldr	r0, [r3, #24]
 3554 2d98 0210A0E1 		mov	r1, r2
 3555 2d9c 430050E3 		cmp	r0, #67
 3556 2da0 1B00000A 		beq	.L485
 3557              	.L487:
 3558 2da4 012081E2 		add	r2, r1, #1
 3559 2da8 203083E2 		add	r3, r3, #32
 3560 2dac 02005CE1 		cmp	ip, r2
 3561 2db0 F7FFFF1A 		bne	.L1424
 3562 2db4 800052E3 		cmp	r2, #128
 3563 2db8 02E08112 		addne	lr, r1, #2
 3564 2dbc 1400000A 		beq	.L485
 3565              	.L484:
 3566 2dc0 0D70A0E1 		mov	r7, sp
 3567 2dc4 82C284E0 		add	ip, r4, r2, lsl #5
 3568 2dc8 0F00B7E8 		ldmia	r7!, {r0, r1, r2, r3}
 3569 2dcc 009000E3 		movw	r9, #:lower16:_ZN6tflite18ParseTransposeConvEPKNS_8OperatorEPNS_13ErrorReporterEPNS_20Builtin
 3570 2dd0 04608CE2 		add	r6, ip, #4
 3571 2dd4 43A0A0E3 		mov	r10, #67
 3572 2dd8 888295E5 		ldr	r8, [r5, #648]
 3573 2ddc 009040E3 		movt	r9, #:upper16:_ZN6tflite18ParseTransposeConvEPKNS_8OperatorEPNS_13ErrorReporterEPNS_20Builtin
 3574 2de0 0F00A6E8 		stmia	r6!, {r0, r1, r2, r3}
 3575 2de4 0F0097E8 		ldm	r7, {r0, r1, r2, r3}
 3576 2de8 427E88E2 		add	r7, r8, #1056
 3577 2dec 027087E2 		add	r7, r7, #2
 3578 2df0 0F0086E8 		stm	r6, {r0, r1, r2, r3}
 3579 2df4 082084E0 		add	r2, r4, r8
 3580 2df8 083001E3 		movw	r3, #4104
 3581 2dfc 018088E2 		add	r8, r8, #1
 3582 2e00 18A08CE5 		str	r10, [ip, #24]
 3583 2e04 04E085E5 		str	lr, [r5, #4]
 3584 2e08 03A0C2E7 		strb	r10, [r2, r3]
 3585 2e0c 079184E7 		str	r9, [r4, r7, lsl #2]
 3586 2e10 888285E5 		str	r8, [r5, #648]
 3587              	.L485:
 3588 2e14 0D00A0E1 		mov	r0, sp
 3589 2e18 FEFFFFEB 		bl	_ZN6tflite18Register_TRANSPOSEEv
 3590 2e1c 04C095E5 		ldr	ip, [r5, #4]
 3591 2e20 00005CE3 		cmp	ip, #0
 3592 2e24 E400000A 		beq	.L571
 3593 2e28 183094E5 		ldr	r3, [r4, #24]
 3594 2e2c 270053E3 		cmp	r3, #39
 3595 2e30 0430A011 		movne	r3, r4
 3596 2e34 0010A013 		movne	r1, #0
 3597 2e38 0400001A 		bne	.L493
 3598 2e3c 1F0000EA 		b	.L491
 3599              	.L1426:
 3600 2e40 180093E5 		ldr	r0, [r3, #24]
 3601 2e44 0210A0E1 		mov	r1, r2
 3602 2e48 270050E3 		cmp	r0, #39
 3603 2e4c 1B00000A 		beq	.L491
 3604              	.L493:
 3605 2e50 012081E2 		add	r2, r1, #1
 3606 2e54 203083E2 		add	r3, r3, #32
 3607 2e58 0C0052E1 		cmp	r2, ip
 3608 2e5c F7FFFF1A 		bne	.L1426
 3609 2e60 80005CE3 		cmp	ip, #128
 3610 2e64 02E08112 		addne	lr, r1, #2
 3611 2e68 1400000A 		beq	.L491
 3612              	.L490:
 3613 2e6c 0D70A0E1 		mov	r7, sp
 3614 2e70 82C284E0 		add	ip, r4, r2, lsl #5
 3615 2e74 0F00B7E8 		ldmia	r7!, {r0, r1, r2, r3}
 3616 2e78 009000E3 		movw	r9, #:lower16:_ZN6tflite14ParseTransposeEPKNS_8OperatorEPNS_13ErrorReporterEPNS_20BuiltinData
 3617 2e7c 04608CE2 		add	r6, ip, #4
 3618 2e80 27A0A0E3 		mov	r10, #39
 3619 2e84 888295E5 		ldr	r8, [r5, #648]
 3620 2e88 009040E3 		movt	r9, #:upper16:_ZN6tflite14ParseTransposeEPKNS_8OperatorEPNS_13ErrorReporterEPNS_20BuiltinData
 3621 2e8c 0F00A6E8 		stmia	r6!, {r0, r1, r2, r3}
 3622 2e90 0F0097E8 		ldm	r7, {r0, r1, r2, r3}
 3623 2e94 427E88E2 		add	r7, r8, #1056
 3624 2e98 027087E2 		add	r7, r7, #2
 3625 2e9c 0F0086E8 		stm	r6, {r0, r1, r2, r3}
 3626 2ea0 082084E0 		add	r2, r4, r8
 3627 2ea4 083001E3 		movw	r3, #4104
 3628 2ea8 018088E2 		add	r8, r8, #1
 3629 2eac 18A08CE5 		str	r10, [ip, #24]
 3630 2eb0 04E085E5 		str	lr, [r5, #4]
 3631 2eb4 03A0C2E7 		strb	r10, [r2, r3]
 3632 2eb8 079184E7 		str	r9, [r4, r7, lsl #2]
 3633 2ebc 888285E5 		str	r8, [r5, #648]
 3634              	.L491:
 3635 2ec0 0D00A0E1 		mov	r0, sp
 3636 2ec4 FEFFFFEB 		bl	_ZN6tflite3ops5micro15Register_UNPACKEv
 3637 2ec8 04C095E5 		ldr	ip, [r5, #4]
 3638 2ecc 00005CE3 		cmp	ip, #0
 3639 2ed0 C200000A 		beq	.L572
 3640 2ed4 183094E5 		ldr	r3, [r4, #24]
 3641 2ed8 580053E3 		cmp	r3, #88
 3642 2edc 0430A011 		movne	r3, r4
 3643 2ee0 0010A013 		movne	r1, #0
 3644 2ee4 0400001A 		bne	.L499
 3645 2ee8 1F0000EA 		b	.L788
 3646              	.L1428:
 3647 2eec 180093E5 		ldr	r0, [r3, #24]
 3648 2ef0 0210A0E1 		mov	r1, r2
 3649 2ef4 580050E3 		cmp	r0, #88
 3650 2ef8 1B00000A 		beq	.L788
 3651              	.L499:
 3652 2efc 012081E2 		add	r2, r1, #1
 3653 2f00 203083E2 		add	r3, r3, #32
 3654 2f04 0C0052E1 		cmp	r2, ip
 3655 2f08 F7FFFF1A 		bne	.L1428
 3656 2f0c 80005CE3 		cmp	ip, #128
 3657 2f10 02E08112 		addne	lr, r1, #2
 3658 2f14 1400000A 		beq	.L788
 3659              	.L496:
 3660 2f18 0D70A0E1 		mov	r7, sp
 3661 2f1c 82C284E0 		add	ip, r4, r2, lsl #5
 3662 2f20 0F00B7E8 		ldmia	r7!, {r0, r1, r2, r3}
 3663 2f24 009000E3 		movw	r9, #:lower16:_ZN6tflite11ParseUnpackEPKNS_8OperatorEPNS_13ErrorReporterEPNS_20BuiltinDataAll
 3664 2f28 04608CE2 		add	r6, ip, #4
 3665 2f2c 58A0A0E3 		mov	r10, #88
 3666 2f30 888295E5 		ldr	r8, [r5, #648]
 3667 2f34 009040E3 		movt	r9, #:upper16:_ZN6tflite11ParseUnpackEPKNS_8OperatorEPNS_13ErrorReporterEPNS_20BuiltinDataAll
 3668 2f38 0F00A6E8 		stmia	r6!, {r0, r1, r2, r3}
 3669 2f3c 0F0097E8 		ldm	r7, {r0, r1, r2, r3}
 3670 2f40 427E88E2 		add	r7, r8, #1056
 3671 2f44 027087E2 		add	r7, r7, #2
 3672 2f48 0F0086E8 		stm	r6, {r0, r1, r2, r3}
 3673 2f4c 082084E0 		add	r2, r4, r8
 3674 2f50 083001E3 		movw	r3, #4104
 3675 2f54 018088E2 		add	r8, r8, #1
 3676 2f58 18A08CE5 		str	r10, [ip, #24]
 3677 2f5c 04E085E5 		str	lr, [r5, #4]
 3678 2f60 03A0C2E7 		strb	r10, [r2, r3]
 3679 2f64 079184E7 		str	r9, [r4, r7, lsl #2]
 3680 2f68 888285E5 		str	r8, [r5, #648]
 3681              	.L788:
 3682 2f6c 0400A0E1 		mov	r0, r4
 3683 2f70 24D08DE2 		add	sp, sp, #36
 3684              		@ sp needed
 3685 2f74 F08FBDE8 		pop	{r4, r5, r6, r7, r8, r9, r10, fp, pc}
 3686              	.L1501:
 3687 2f78 000058E3 		cmp	r8, #0
 3688 2f7c 08A0A001 		moveq	r10, r8
 3689 2f80 1100000A 		beq	.L181
 3690 2f84 88A2A0E1 		lsl	r10, r8, #5
 3691 2f88 0460A0E1 		mov	r6, r4
 3692 2f8c 0AB084E0 		add	fp, r4, r10
 3693 2f90 020000EA 		b	.L183
 3694              	.L182:
 3695 2f94 206086E2 		add	r6, r6, #32
 3696 2f98 0B0056E1 		cmp	r6, fp
 3697 2f9c 0A00000A 		beq	.L181
 3698              	.L183:
 3699 2fa0 183096E5 		ldr	r3, [r6, #24]
 3700 2fa4 200053E3 		cmp	r3, #32
 3701 2fa8 F9FFFF1A 		bne	.L182
 3702 2fac 0910A0E1 		mov	r1, r9
 3703 2fb0 1C0096E5 		ldr	r0, [r6, #28]
 3704 2fb4 FEFFFFEB 		bl	strcmp
 3705 2fb8 000050E3 		cmp	r0, #0
 3706 2fbc 02F7FF0A 		beq	.L502
 3707 2fc0 206086E2 		add	r6, r6, #32
 3708 2fc4 0B0056E1 		cmp	r6, fp
 3709 2fc8 F4FFFF1A 		bne	.L183
 3710              	.L181:
 3711 2fcc 0F00B7E8 		ldmia	r7!, {r0, r1, r2, r3}
 3712 2fd0 0AA084E0 		add	r10, r4, r10
 3713 2fd4 018088E2 		add	r8, r8, #1
 3714 2fd8 04C08AE2 		add	ip, r10, #4
 3715 2fdc 048085E5 		str	r8, [r5, #4]
 3716 2fe0 20E0A0E3 		mov	lr, #32
 3717 2fe4 0F00ACE8 		stmia	ip!, {r0, r1, r2, r3}
 3718 2fe8 0F0097E8 		ldm	r7, {r0, r1, r2, r3}
 3719 2fec 0F008CE8 		stm	ip, {r0, r1, r2, r3}
 3720 2ff0 1C908AE5 		str	r9, [r10, #28]
 3721 2ff4 18E08AE5 		str	lr, [r10, #24]
 3722 2ff8 F3F6FFEA 		b	.L502
 3723              	.L1500:
 3724 2ffc 000058E3 		cmp	r8, #0
 3725 3000 08A0A001 		moveq	r10, r8
 3726 3004 1300000A 		beq	.L165
 3727 3008 88A2A0E1 		lsl	r10, r8, #5
 3728 300c 009000E3 		movw	r9, #:lower16:.LC0
 3729 3010 009040E3 		movt	r9, #:upper16:.LC0
 3730 3014 0AB084E0 		add	fp, r4, r10
 3731 3018 0460A0E1 		mov	r6, r4
 3732 301c 020000EA 		b	.L167
 3733              	.L166:
 3734 3020 206086E2 		add	r6, r6, #32
 3735 3024 0B0056E1 		cmp	r6, fp
 3736 3028 0A00000A 		beq	.L165
 3737              	.L167:
 3738 302c 183096E5 		ldr	r3, [r6, #24]
 3739 3030 200053E3 		cmp	r3, #32
 3740 3034 F9FFFF1A 		bne	.L166
 3741 3038 0910A0E1 		mov	r1, r9
 3742 303c 1C0096E5 		ldr	r0, [r6, #28]
 3743 3040 FEFFFFEB 		bl	strcmp
 3744 3044 000050E3 		cmp	r0, #0
 3745 3048 81F6FF0A 		beq	.L164
 3746 304c 206086E2 		add	r6, r6, #32
 3747 3050 0B0056E1 		cmp	r6, fp
 3748 3054 F4FFFF1A 		bne	.L167
 3749              	.L165:
 3750 3058 0F00B7E8 		ldmia	r7!, {r0, r1, r2, r3}
 3751 305c 0AA084E0 		add	r10, r4, r10
 3752 3060 018088E2 		add	r8, r8, #1
 3753 3064 04C08AE2 		add	ip, r10, #4
 3754 3068 048085E5 		str	r8, [r5, #4]
 3755 306c 00E000E3 		movw	lr, #:lower16:.LC0
 3756 3070 00E040E3 		movt	lr, #:upper16:.LC0
 3757 3074 2060A0E3 		mov	r6, #32
 3758 3078 0F00ACE8 		stmia	ip!, {r0, r1, r2, r3}
 3759 307c 0F0097E8 		ldm	r7, {r0, r1, r2, r3}
 3760 3080 0F008CE8 		stm	ip, {r0, r1, r2, r3}
 3761 3084 18608AE5 		str	r6, [r10, #24]
 3762 3088 1CE08AE5 		str	lr, [r10, #28]
 3763 308c 70F6FFEA 		b	.L164
 3764              	.L536:
 3765 3090 0C20A0E1 		mov	r2, ip
 3766 3094 01E0A0E3 		mov	lr, #1
 3767 3098 92F9FFEA 		b	.L280
 3768              	.L519:
 3769 309c 0C20A0E1 		mov	r2, ip
 3770 30a0 01E0A0E3 		mov	lr, #1
 3771 30a4 ABF6FFEA 		b	.L174
 3772              	.L518:
 3773 30a8 0C20A0E1 		mov	r2, ip
 3774 30ac 01E0A0E3 		mov	lr, #1
 3775 30b0 7DF6FFEA 		b	.L168
 3776              	.L539:
 3777 30b4 0C20A0E1 		mov	r2, ip
 3778 30b8 01E0A0E3 		mov	lr, #1
 3779 30bc 0AFAFFEA 		b	.L298
 3780              	.L538:
 3781 30c0 0C20A0E1 		mov	r2, ip
 3782 30c4 01E0A0E3 		mov	lr, #1
 3783 30c8 DCF9FFEA 		b	.L292
 3784              	.L537:
 3785 30cc 0C20A0E1 		mov	r2, ip
 3786 30d0 01E0A0E3 		mov	lr, #1
 3787 30d4 AEF9FFEA 		b	.L286
 3788              	.L520:
 3789 30d8 0C20A0E1 		mov	r2, ip
 3790 30dc 01E0A0E3 		mov	lr, #1
 3791 30e0 CFF6FFEA 		b	.L184
 3792              	.L561:
 3793 30e4 0C20A0E1 		mov	r2, ip
 3794 30e8 01E0A0E3 		mov	lr, #1
 3795 30ec B0FDFFEA 		b	.L430
 3796              	.L560:
 3797 30f0 0C20A0E1 		mov	r2, ip
 3798 30f4 01E0A0E3 		mov	lr, #1
 3799 30f8 82FDFFEA 		b	.L424
 3800              	.L563:
 3801 30fc 0C20A0E1 		mov	r2, ip
 3802 3100 01E0A0E3 		mov	lr, #1
 3803 3104 00FEFFEA 		b	.L442
 3804              	.L562:
 3805 3108 0C20A0E1 		mov	r2, ip
 3806 310c 01E0A0E3 		mov	lr, #1
 3807 3110 D2FDFFEA 		b	.L436
 3808              	.L565:
 3809 3114 0C20A0E1 		mov	r2, ip
 3810 3118 01E0A0E3 		mov	lr, #1
 3811 311c 50FEFFEA 		b	.L454
 3812              	.L564:
 3813 3120 0C20A0E1 		mov	r2, ip
 3814 3124 01E0A0E3 		mov	lr, #1
 3815 3128 22FEFFEA 		b	.L448
 3816              	.L567:
 3817 312c 0C20A0E1 		mov	r2, ip
 3818 3130 01E0A0E3 		mov	lr, #1
 3819 3134 A0FEFFEA 		b	.L466
 3820              	.L566:
 3821 3138 0C20A0E1 		mov	r2, ip
 3822 313c 01E0A0E3 		mov	lr, #1
 3823 3140 72FEFFEA 		b	.L460
 3824              	.L515:
 3825 3144 0C20A0E1 		mov	r2, ip
 3826 3148 01E0A0E3 		mov	lr, #1
 3827 314c D0F5FFEA 		b	.L146
 3828              	.L514:
 3829 3150 0C20A0E1 		mov	r2, ip
 3830 3154 01E0A0E3 		mov	lr, #1
 3831 3158 A1F5FFEA 		b	.L140
 3832              	.L517:
 3833 315c 0C20A0E1 		mov	r2, ip
 3834 3160 01E0A0E3 		mov	lr, #1
 3835 3164 20F6FFEA 		b	.L158
 3836              	.L516:
 3837 3168 0C20A0E1 		mov	r2, ip
 3838 316c 01E0A0E3 		mov	lr, #1
 3839 3170 F2F5FFEA 		b	.L152
 3840              	.L543:
 3841 3174 0C20A0E1 		mov	r2, ip
 3842 3178 01E0A0E3 		mov	lr, #1
 3843 317c 86FAFFEA 		b	.L322
 3844              	.L542:
 3845 3180 0C20A0E1 		mov	r2, ip
 3846 3184 01E0A0E3 		mov	lr, #1
 3847 3188 58FAFFEA 		b	.L316
 3848              	.L541:
 3849 318c 0C20A0E1 		mov	r2, ip
 3850 3190 01E0A0E3 		mov	lr, #1
 3851 3194 2AFAFFEA 		b	.L310
 3852              	.L540:
 3853 3198 0C20A0E1 		mov	r2, ip
 3854 319c 01E0A0E3 		mov	lr, #1
 3855 31a0 FCF9FFEA 		b	.L304
 3856              	.L569:
 3857 31a4 0C20A0E1 		mov	r2, ip
 3858 31a8 01E0A0E3 		mov	lr, #1
 3859 31ac D8FEFFEA 		b	.L478
 3860              	.L568:
 3861 31b0 0C20A0E1 		mov	r2, ip
 3862 31b4 01E0A0E3 		mov	lr, #1
 3863 31b8 AAFEFFEA 		b	.L472
 3864              	.L571:
 3865 31bc 0C20A0E1 		mov	r2, ip
 3866 31c0 01E0A0E3 		mov	lr, #1
 3867 31c4 28FFFFEA 		b	.L490
 3868              	.L570:
 3869 31c8 0C20A0E1 		mov	r2, ip
 3870 31cc 01E0A0E3 		mov	lr, #1
 3871 31d0 FAFEFFEA 		b	.L484
 3872              	.L503:
 3873 31d4 0C20A0E1 		mov	r2, ip
 3874 31d8 01E0A0E3 		mov	lr, #1
 3875 31dc A7F3FFEA 		b	.L74
 3876              	.L572:
 3877 31e0 0C20A0E1 		mov	r2, ip
 3878 31e4 01E0A0E3 		mov	lr, #1
 3879 31e8 4AFFFFEA 		b	.L496
 3880              	.L505:
 3881 31ec 0C20A0E1 		mov	r2, ip
 3882 31f0 01E0A0E3 		mov	lr, #1
 3883 31f4 F7F3FFEA 		b	.L86
 3884              	.L504:
 3885 31f8 0C20A0E1 		mov	r2, ip
 3886 31fc 01E0A0E3 		mov	lr, #1
 3887 3200 C9F3FFEA 		b	.L80
 3888              	.L507:
 3889 3204 0C20A0E1 		mov	r2, ip
 3890 3208 01E0A0E3 		mov	lr, #1
 3891 320c 47F4FFEA 		b	.L98
 3892              	.L506:
 3893 3210 0C20A0E1 		mov	r2, ip
 3894 3214 01E0A0E3 		mov	lr, #1
 3895 3218 19F4FFEA 		b	.L92
 3896              	.L509:
 3897 321c 0C20A0E1 		mov	r2, ip
 3898 3220 01E0A0E3 		mov	lr, #1
 3899 3224 97F4FFEA 		b	.L110
 3900              	.L508:
 3901 3228 0C20A0E1 		mov	r2, ip
 3902 322c 01E0A0E3 		mov	lr, #1
 3903 3230 69F4FFEA 		b	.L104
 3904              	.L511:
 3905 3234 0C20A0E1 		mov	r2, ip
 3906 3238 01E0A0E3 		mov	lr, #1
 3907 323c E7F4FFEA 		b	.L122
 3908              	.L510:
 3909 3240 0C20A0E1 		mov	r2, ip
 3910 3244 01E0A0E3 		mov	lr, #1
 3911 3248 B9F4FFEA 		b	.L116
 3912              	.L513:
 3913 324c 0C20A0E1 		mov	r2, ip
 3914 3250 01E0A0E3 		mov	lr, #1
 3915 3254 37F5FFEA 		b	.L134
 3916              	.L512:
 3917 3258 0C20A0E1 		mov	r2, ip
 3918 325c 01E0A0E3 		mov	lr, #1
 3919 3260 09F5FFEA 		b	.L128
 3920              	.L535:
 3921 3264 0C20A0E1 		mov	r2, ip
 3922 3268 01E0A0E3 		mov	lr, #1
 3923 326c F2F8FFEA 		b	.L274
 3924              	.L534:
 3925 3270 0C20A0E1 		mov	r2, ip
 3926 3274 01E0A0E3 		mov	lr, #1
 3927 3278 C4F8FFEA 		b	.L268
 3928              	.L533:
 3929 327c 0C20A0E1 		mov	r2, ip
 3930 3280 01E0A0E3 		mov	lr, #1
 3931 3284 96F8FFEA 		b	.L262
 3932              	.L532:
 3933 3288 0C20A0E1 		mov	r2, ip
 3934 328c 01E0A0E3 		mov	lr, #1
 3935 3290 68F8FFEA 		b	.L256
 3936              	.L531:
 3937 3294 0C20A0E1 		mov	r2, ip
 3938 3298 01E0A0E3 		mov	lr, #1
 3939 329c 3AF8FFEA 		b	.L250
 3940              	.L530:
 3941 32a0 0C20A0E1 		mov	r2, ip
 3942 32a4 01E0A0E3 		mov	lr, #1
 3943 32a8 0CF8FFEA 		b	.L244
 3944              	.L529:
 3945 32ac 0C20A0E1 		mov	r2, ip
 3946 32b0 01E0A0E3 		mov	lr, #1
 3947 32b4 DEF7FFEA 		b	.L238
 3948              	.L552:
 3949 32b8 0C20A0E1 		mov	r2, ip
 3950 32bc 01E0A0E3 		mov	lr, #1
 3951 32c0 B8FBFFEA 		b	.L376
 3952              	.L551:
 3953 32c4 0C20A0E1 		mov	r2, ip
 3954 32c8 01E0A0E3 		mov	lr, #1
 3955 32cc 8AFBFFEA 		b	.L370
 3956              	.L550:
 3957 32d0 0C20A0E1 		mov	r2, ip
 3958 32d4 01E0A0E3 		mov	lr, #1
 3959 32d8 5CFBFFEA 		b	.L364
 3960              	.L549:
 3961 32dc 0C20A0E1 		mov	r2, ip
 3962 32e0 01E0A0E3 		mov	lr, #1
 3963 32e4 2EFBFFEA 		b	.L358
 3964              	.L548:
 3965 32e8 0C20A0E1 		mov	r2, ip
 3966 32ec 01E0A0E3 		mov	lr, #1
 3967 32f0 00FBFFEA 		b	.L352
 3968              	.L547:
 3969 32f4 0C20A0E1 		mov	r2, ip
 3970 32f8 01E0A0E3 		mov	lr, #1
 3971 32fc D2FAFFEA 		b	.L346
 3972              	.L546:
 3973 3300 0C20A0E1 		mov	r2, ip
 3974 3304 01E0A0E3 		mov	lr, #1
 3975 3308 A4FAFFEA 		b	.L340
 3976              	.L545:
 3977 330c 0C20A0E1 		mov	r2, ip
 3978 3310 01E0A0E3 		mov	lr, #1
 3979 3314 76FAFFEA 		b	.L334
 3980              	.L544:
 3981 3318 0C20A0E1 		mov	r2, ip
 3982 331c 01E0A0E3 		mov	lr, #1
 3983 3320 48FAFFEA 		b	.L328
 3984              	.L556:
 3985 3324 0C20A0E1 		mov	r2, ip
 3986 3328 01E0A0E3 		mov	lr, #1
 3987 332c 49FCFFEA 		b	.L400
 3988              	.L555:
 3989 3330 0C20A0E1 		mov	r2, ip
 3990 3334 01E0A0E3 		mov	lr, #1
 3991 3338 1BFCFFEA 		b	.L394
 3992              	.L558:
 3993 333c 0C20A0E1 		mov	r2, ip
 3994 3340 01E0A0E3 		mov	lr, #1
 3995 3344 99FCFFEA 		b	.L412
 3996              	.L557:
 3997 3348 0C20A0E1 		mov	r2, ip
 3998 334c 01E0A0E3 		mov	lr, #1
 3999 3350 6BFCFFEA 		b	.L406
 4000              	.L554:
 4001 3354 0C20A0E1 		mov	r2, ip
 4002 3358 01E0A0E3 		mov	lr, #1
 4003 335c E7FBFFEA 		b	.L388
 4004              	.L553:
 4005 3360 0C20A0E1 		mov	r2, ip
 4006 3364 01E0A0E3 		mov	lr, #1
 4007 3368 B9FBFFEA 		b	.L382
 4008              	.L559:
 4009 336c 0C20A0E1 		mov	r2, ip
 4010 3370 01E0A0E3 		mov	lr, #1
 4011 3374 B8FCFFEA 		b	.L418
 4012              	.L523:
 4013 3378 0C20A0E1 		mov	r2, ip
 4014 337c 01E0A0E3 		mov	lr, #1
 4015 3380 A8F6FFEA 		b	.L202
 4016              	.L524:
 4017 3384 0C20A0E1 		mov	r2, ip
 4018 3388 01E0A0E3 		mov	lr, #1
 4019 338c D0F6FFEA 		b	.L208
 4020              	.L522:
 4021 3390 0C20A0E1 		mov	r2, ip
 4022 3394 01E0A0E3 		mov	lr, #1
 4023 3398 77F6FFEA 		b	.L196
 4024              	.L521:
 4025 339c 0C20A0E1 		mov	r2, ip
 4026 33a0 01E0A0E3 		mov	lr, #1
 4027 33a4 49F6FFEA 		b	.L190
 4028              	.L528:
 4029 33a8 0C20A0E1 		mov	r2, ip
 4030 33ac 01E0A0E3 		mov	lr, #1
 4031 33b0 74F7FFEA 		b	.L232
 4032              	.L527:
 4033 33b4 0C20A0E1 		mov	r2, ip
 4034 33b8 01E0A0E3 		mov	lr, #1
 4035 33bc 46F7FFEA 		b	.L226
 4036              	.L526:
 4037 33c0 0C20A0E1 		mov	r2, ip
 4038 33c4 01E0A0E3 		mov	lr, #1
 4039 33c8 18F7FFEA 		b	.L220
 4040              	.L525:
 4041 33cc 0C20A0E1 		mov	r2, ip
 4042 33d0 01E0A0E3 		mov	lr, #1
 4043 33d4 EAF6FFEA 		b	.L214
 4044              		.fnend
 4046              		.global	_ZN6tflite14AllOpsResolverC1Ev
 4047              		.set	_ZN6tflite14AllOpsResolverC1Ev,_ZN6tflite14AllOpsResolverC2Ev
 4048              		.weak	_ZTSN6tflite10OpResolverE
 4049              		.section	.rodata._ZTSN6tflite10OpResolverE,"aG",%progbits,_ZTSN6tflite10OpResolverE,comdat
 4050              		.align	2
 4053              	_ZTSN6tflite10OpResolverE:
 4054 0000 4E367466 		.ascii	"N6tflite10OpResolverE\000"
 4054      6C697465 
 4054      31304F70 
 4054      5265736F 
 4054      6C766572 
 4055              		.weak	_ZTIN6tflite10OpResolverE
 4056              		.section	.rodata._ZTIN6tflite10OpResolverE,"aG",%progbits,_ZTIN6tflite10OpResolverE,comdat
 4057              		.align	2
 4060              	_ZTIN6tflite10OpResolverE:
 4061 0000 08000000 		.word	_ZTVN10__cxxabiv117__class_type_infoE+8
 4062 0004 00000000 		.word	_ZTSN6tflite10OpResolverE
 4063              		.weak	_ZTSN6tflite15MicroOpResolverE
 4064              		.section	.rodata._ZTSN6tflite15MicroOpResolverE,"aG",%progbits,_ZTSN6tflite15MicroOpResolverE,comd
 4065              		.align	2
 4068              	_ZTSN6tflite15MicroOpResolverE:
 4069 0000 4E367466 		.ascii	"N6tflite15MicroOpResolverE\000"
 4069      6C697465 
 4069      31354D69 
 4069      63726F4F 
 4069      70526573 
 4070              		.weak	_ZTIN6tflite15MicroOpResolverE
 4071              		.section	.rodata._ZTIN6tflite15MicroOpResolverE,"aG",%progbits,_ZTIN6tflite15MicroOpResolverE,comd
 4072              		.align	2
 4075              	_ZTIN6tflite15MicroOpResolverE:
 4076 0000 08000000 		.word	_ZTVN10__cxxabiv120__si_class_type_infoE+8
 4077 0004 00000000 		.word	_ZTSN6tflite15MicroOpResolverE
 4078 0008 00000000 		.word	_ZTIN6tflite10OpResolverE
 4079              		.weak	_ZTSN6tflite22MicroMutableOpResolverILj128EEE
 4080              		.section	.rodata._ZTSN6tflite22MicroMutableOpResolverILj128EEE,"aG",%progbits,_ZTSN6tflite22MicroM
 4081              		.align	2
 4084              	_ZTSN6tflite22MicroMutableOpResolverILj128EEE:
 4085 0000 4E367466 		.ascii	"N6tflite22MicroMutableOpResolverILj128EEE\000"
 4085      6C697465 
 4085      32324D69 
 4085      63726F4D 
 4085      75746162 
 4086              		.weak	_ZTIN6tflite22MicroMutableOpResolverILj128EEE
 4087              		.section	.rodata._ZTIN6tflite22MicroMutableOpResolverILj128EEE,"aG",%progbits,_ZTIN6tflite22MicroM
 4088              		.align	2
 4091              	_ZTIN6tflite22MicroMutableOpResolverILj128EEE:
 4092 0000 08000000 		.word	_ZTVN10__cxxabiv120__si_class_type_infoE+8
 4093 0004 00000000 		.word	_ZTSN6tflite22MicroMutableOpResolverILj128EEE
 4094 0008 00000000 		.word	_ZTIN6tflite15MicroOpResolverE
 4095              		.weak	_ZTSN6tflite14AllOpsResolverE
 4096              		.section	.rodata._ZTSN6tflite14AllOpsResolverE,"aG",%progbits,_ZTSN6tflite14AllOpsResolverE,comdat
 4097              		.align	2
 4100              	_ZTSN6tflite14AllOpsResolverE:
 4101 0000 4E367466 		.ascii	"N6tflite14AllOpsResolverE\000"
 4101      6C697465 
 4101      3134416C 
 4101      6C4F7073 
 4101      5265736F 
 4102              		.weak	_ZTIN6tflite14AllOpsResolverE
 4103              		.section	.rodata._ZTIN6tflite14AllOpsResolverE,"aG",%progbits,_ZTIN6tflite14AllOpsResolverE,comdat
 4104              		.align	2
 4107              	_ZTIN6tflite14AllOpsResolverE:
 4108 0000 08000000 		.word	_ZTVN10__cxxabiv120__si_class_type_infoE+8
 4109 0004 00000000 		.word	_ZTSN6tflite14AllOpsResolverE
 4110 0008 00000000 		.word	_ZTIN6tflite22MicroMutableOpResolverILj128EEE
 4111              		.weak	_ZTVN6tflite14AllOpsResolverE
 4112              		.section	.rodata._ZTVN6tflite14AllOpsResolverE,"aG",%progbits,_ZTVN6tflite14AllOpsResolverE,comdat
 4113              		.align	2
 4116              	_ZTVN6tflite14AllOpsResolverE:
 4117 0000 00000000 		.word	0
 4118 0004 00000000 		.word	_ZTIN6tflite14AllOpsResolverE
 4119 0008 00000000 		.word	_ZNK6tflite15MicroOpResolver6FindOpENS_15BuiltinOperatorEi
 4120 000c 00000000 		.word	_ZNK6tflite15MicroOpResolver6FindOpEPKci
 4121 0010 00000000 		.word	_ZNK6tflite10OpResolver12GetDelegatesEi
 4122 0014 00000000 		.word	_ZN6tflite14AllOpsResolverD1Ev
 4123 0018 00000000 		.word	_ZN6tflite14AllOpsResolverD0Ev
 4124 001c 00000000 		.word	_ZNK6tflite10OpResolver24MayContainUserDefinedOpsEv
 4125 0020 00000000 		.word	_ZNK6tflite22MicroMutableOpResolverILj128EE6FindOpENS_15BuiltinOperatorE
 4126 0024 00000000 		.word	_ZNK6tflite22MicroMutableOpResolverILj128EE6FindOpEPKc
 4127 0028 00000000 		.word	_ZNK6tflite22MicroMutableOpResolverILj128EE15GetOpDataParserENS_15BuiltinOperatorE
 4128              		.weak	_ZN11flatbuffers25flatbuffer_version_stringE
 4129              		.section	.data._ZN11flatbuffers25flatbuffer_version_stringE,"aw",%progbits
 4130              		.align	2
 4133              	_ZN11flatbuffers25flatbuffer_version_stringE:
 4134 0000 00000000 		.word	.LC1
 4135              		.section	.rodata._ZN6tflite14AllOpsResolverC2Ev.str1.4,"aMS",%progbits,1
 4136              		.align	2
 4137              	.LC0:
 4138 0000 54464C69 		.ascii	"TFLite_Detection_PostProcess\000"
 4138      74655F44 
 4138      65746563 
 4138      74696F6E 
 4138      5F506F73 
 4139              		.section	.rodata.str1.4,"aMS",%progbits,1
 4140              		.align	2
 4141              	.LC1:
 4142 0000 466C6174 		.ascii	"FlatBuffers 1.12.0\000"
 4142      42756666 
 4142      65727320 
 4142      312E3132 
 4142      2E3000
 4143              		.ident	"GCC: (GNU Tools for ARM Embedded Processors 6-2017-q2-update) 6.3.1 20170620 (release) [AR