   1              		.cpu cortex-a9
   2              		.eabi_attribute 28, 1
   3              		.eabi_attribute 20, 1
   4              		.eabi_attribute 21, 1
   5              		.eabi_attribute 23, 3
   6              		.eabi_attribute 24, 1
   7              		.eabi_attribute 25, 1
   8              		.eabi_attribute 26, 1
   9              		.eabi_attribute 30, 2
  10              		.eabi_attribute 34, 0
  11              		.eabi_attribute 18, 4
  12              		.file	"micro_graph.cc"
  13              		.section	.text._ZN6tflite10MicroGraphD2Ev,"ax",%progbits
  14              		.align	2
  15              		.global	_ZN6tflite10MicroGraphD2Ev
  16              		.syntax unified
  17              		.arm
  18              		.fpu neon
  20              	_ZN6tflite10MicroGraphD2Ev:
  21              		.fnstart
  22              	.LFB6613:
  23              		@ args = 0, pretend = 0, frame = 0
  24              		@ frame_needed = 0, uses_anonymous_args = 0
  25              		@ link register save eliminated.
  26 0000 1EFF2FE1 		bx	lr
  27              		.cantunwind
  28              		.fnend
  30              		.global	_ZN6tflite10MicroGraphD1Ev
  31              		.set	_ZN6tflite10MicroGraphD1Ev,_ZN6tflite10MicroGraphD2Ev
  32              		.section	.text._ZN6tflite10MicroGraph12NumSubgraphsEv,"ax",%progbits
  33              		.align	2
  34              		.global	_ZN6tflite10MicroGraph12NumSubgraphsEv
  35              		.syntax unified
  36              		.arm
  37              		.fpu neon
  39              	_ZN6tflite10MicroGraph12NumSubgraphsEv:
  40              		.fnstart
  41              	.LFB6621:
  42              		@ args = 0, pretend = 0, frame = 0
  43              		@ frame_needed = 0, uses_anonymous_args = 0
  44              		@ link register save eliminated.
  45 0000 083090E5 		ldr	r3, [r0, #8]
  46 0004 002093E5 		ldr	r2, [r3]
  47 0008 022043E0 		sub	r2, r3, r2
  48 000c B010D2E1 		ldrh	r1, [r2]
  49 0010 080051E3 		cmp	r1, #8
  50 0014 060000DA 		ble	.L3
  51 0018 B820D2E1 		ldrh	r2, [r2, #8]
  52 001c 000052E3 		cmp	r2, #0
  53 0020 021083E0 		add	r1, r3, r2
  54 0024 0200000A 		beq	.L3
  55 0028 023093E7 		ldr	r3, [r3, r2]
  56 002c 030091E7 		ldr	r0, [r1, r3]
  57 0030 1EFF2FE1 		bx	lr
  58              	.L3:
  59 0034 0030A0E3 		mov	r3, #0
  60 0038 003093E5 		ldr	r3, [r3]
  61 003c F000F0E7 		.inst	0xe7f000f0
  62              		.cantunwind
  63              		.fnend
  65              		.section	.text._ZN6tflite10MicroGraphD0Ev,"ax",%progbits
  66              		.align	2
  67              		.global	_ZN6tflite10MicroGraphD0Ev
  68              		.syntax unified
  69              		.arm
  70              		.fpu neon
  72              	_ZN6tflite10MicroGraphD0Ev:
  73              		.fnstart
  74              	.LFB6615:
  75              		@ args = 0, pretend = 0, frame = 0
  76              		@ frame_needed = 0, uses_anonymous_args = 0
  77 0000 10402DE9 		push	{r4, lr}
  78 0004 1C10A0E3 		mov	r1, #28
  79 0008 0040A0E1 		mov	r4, r0
  80 000c FEFFFFEB 		bl	_ZdlPvj
  81 0010 0400A0E1 		mov	r0, r4
  82 0014 1080BDE8 		pop	{r4, pc}
  83              		.cantunwind
  84              		.fnend
  86              		.section	.text._ZN6tflite10MicroGraph14InvokeSubgraphEi,"ax",%progbits
  87              		.align	2
  88              		.global	_ZN6tflite10MicroGraph14InvokeSubgraphEi
  89              		.syntax unified
  90              		.arm
  91              		.fpu neon
  93              	_ZN6tflite10MicroGraph14InvokeSubgraphEi:
  94              		.fnstart
  95              	.LFB6619:
  96              		@ args = 0, pretend = 0, frame = 0
  97              		@ frame_needed = 0, uses_anonymous_args = 0
  98 0000 F84F2DE9 		push	{r3, r4, r5, r6, r7, r8, r9, r10, fp, lr}
  99              		.save {r3, r4, r5, r6, r7, r8, r9, r10, fp, lr}
 100 0004 184090E5 		ldr	r4, [r0, #24]
 101 0008 147090E5 		ldr	r7, [r0, #20]
 102 000c 003094E5 		ldr	r3, [r4]
 103 0010 141080E5 		str	r1, [r0, #20]
 104 0014 030051E1 		cmp	r1, r3
 105 0018 0200003A 		bcc	.L13
 106              	.L18:
 107 001c 01B0A0E3 		mov	fp, #1
 108              	.L20:
 109 0020 0B00A0E1 		mov	r0, fp
 110 0024 F88FBDE8 		pop	{r3, r4, r5, r6, r7, r8, r9, r10, fp, pc}
 111              	.L13:
 112 0028 044084E2 		add	r4, r4, #4
 113 002c 0080A0E3 		mov	r8, #0
 114 0030 013194E7 		ldr	r3, [r4, r1, lsl #2]
 115 0034 014184E0 		add	r4, r4, r1, lsl #2
 116 0038 0050A0E1 		mov	r5, r0
 117 003c 8161A0E1 		lsl	r6, r1, #3
 118 0040 0890A0E1 		mov	r9, r8
 119 0044 034084E0 		add	r4, r4, r3
 120 0048 1C0000EA 		b	.L19
 121              	.L29:
 122 004c BA30D3E1 		ldrh	r3, [r3, #10]
 123 0050 000053E3 		cmp	r3, #0
 124 0054 032084E0 		add	r2, r4, r3
 125 0058 1D00000A 		beq	.L15
 126 005c 033094E7 		ldr	r3, [r4, r3]
 127 0060 033092E7 		ldr	r3, [r2, r3]
 128 0064 030059E1 		cmp	r9, r3
 129 0068 1C00002A 		bcs	.L16
 130 006c 103095E5 		ldr	r3, [r5, #16]
 131 0070 061093E7 		ldr	r1, [r3, r6]
 132 0074 081081E0 		add	r1, r1, r8
 133 0078 283091E5 		ldr	r3, [r1, #40]
 134 007c 0C3093E5 		ldr	r3, [r3, #12]
 135 0080 000053E3 		cmp	r3, #0
 136 0084 1900000A 		beq	.L28
 137 0088 040095E5 		ldr	r0, [r5, #4]
 138 008c 33FF2FE1 		blx	r3
 139 0090 00A0A0E1 		mov	r10, r0
 140 0094 0C0095E5 		ldr	r0, [r5, #12]
 141 0098 0AB0A0E1 		mov	fp, r10
 142 009c 003090E5 		ldr	r3, [r0]
 143 00a0 083093E5 		ldr	r3, [r3, #8]
 144 00a4 33FF2FE1 		blx	r3
 145 00a8 01005AE3 		cmp	r10, #1
 146 00ac DAFFFF0A 		beq	.L18
 147 00b0 00005AE3 		cmp	r10, #0
 148 00b4 2C8088E2 		add	r8, r8, #44
 149 00b8 D8FFFF1A 		bne	.L20
 150 00bc 019089E2 		add	r9, r9, #1
 151              	.L19:
 152 00c0 003094E5 		ldr	r3, [r4]
 153 00c4 033044E0 		sub	r3, r4, r3
 154 00c8 B020D3E1 		ldrh	r2, [r3]
 155 00cc 0A0052E3 		cmp	r2, #10
 156 00d0 DDFFFFCA 		bgt	.L29
 157              	.L15:
 158 00d4 0030A0E3 		mov	r3, #0
 159 00d8 003093E5 		ldr	r3, [r3]
 160 00dc F000F0E7 		.inst	0xe7f000f0
 161              	.L16:
 162 00e0 00B0A0E3 		mov	fp, #0
 163 00e4 147085E5 		str	r7, [r5, #20]
 164 00e8 0B00A0E1 		mov	r0, fp
 165 00ec F88FBDE8 		pop	{r3, r4, r5, r6, r7, r8, r9, r10, fp, pc}
 166              	.L28:
 167 00f0 FEFFFFEB 		bl	abort
 168              		.fnend
 170              		.section	.text._ZN6tflite10MicroGraph13FreeSubgraphsEv,"ax",%progbits
 171              		.align	2
 172              		.global	_ZN6tflite10MicroGraph13FreeSubgraphsEv
 173              		.syntax unified
 174              		.arm
 175              		.fpu neon
 177              	_ZN6tflite10MicroGraph13FreeSubgraphsEv:
 178              		.fnstart
 179              	.LFB6618:
 180              		@ args = 0, pretend = 0, frame = 0
 181              		@ frame_needed = 0, uses_anonymous_args = 0
 182 0000 F84F2DE9 		push	{r3, r4, r5, r6, r7, r8, r9, r10, fp, lr}
 183              		.save {r3, r4, r5, r6, r7, r8, r9, r10, fp, lr}
 184 0004 00A0A0E1 		mov	r10, r0
 185 0008 185090E5 		ldr	r5, [r0, #24]
 186 000c 149090E5 		ldr	r9, [r0, #20]
 187 0010 003095E5 		ldr	r3, [r5]
 188 0014 000053E3 		cmp	r3, #0
 189 0018 2E00000A 		beq	.L37
 190 001c 0080A0E3 		mov	r8, #0
 191 0020 2C70A0E3 		mov	r7, #44
 192              	.L36:
 193 0024 045085E2 		add	r5, r5, #4
 194 0028 8861A0E1 		lsl	r6, r8, #3
 195 002c 083195E7 		ldr	r3, [r5, r8, lsl #2]
 196 0030 085185E0 		add	r5, r5, r8, lsl #2
 197 0034 0040A0E3 		mov	r4, #0
 198 0038 14808AE5 		str	r8, [r10, #20]
 199 003c 032095E7 		ldr	r2, [r5, r3]
 200 0040 035085E0 		add	r5, r5, r3
 201 0044 022045E0 		sub	r2, r5, r2
 202 0048 B000D2E1 		ldrh	r0, [r2]
 203 004c 170000EA 		b	.L35
 204              	.L50:
 205 0050 BA30D2E1 		ldrh	r3, [r2, #10]
 206 0054 000053E3 		cmp	r3, #0
 207 0058 031085E0 		add	r1, r5, r3
 208 005c 1500000A 		beq	.L32
 209 0060 033095E7 		ldr	r3, [r5, r3]
 210 0064 033091E7 		ldr	r3, [r1, r3]
 211 0068 030054E1 		cmp	r4, r3
 212 006c 1400002A 		bcs	.L33
 213 0070 10309AE5 		ldr	r3, [r10, #16]
 214 0074 063093E7 		ldr	r3, [r3, r6]
 215 0078 973423E0 		mla	r3, r7, r4, r3
 216 007c 281093E5 		ldr	r1, [r3, #40]
 217 0080 000051E3 		cmp	r1, #0
 218 0084 0800000A 		beq	.L34
 219 0088 04B091E5 		ldr	fp, [r1, #4]
 220 008c 00005BE3 		cmp	fp, #0
 221 0090 0500000A 		beq	.L34
 222 0094 04009AE5 		ldr	r0, [r10, #4]
 223 0098 101093E5 		ldr	r1, [r3, #16]
 224 009c 3BFF2FE1 		blx	fp
 225 00a0 002095E5 		ldr	r2, [r5]
 226 00a4 022045E0 		sub	r2, r5, r2
 227 00a8 B000D2E1 		ldrh	r0, [r2]
 228              	.L34:
 229 00ac 014084E2 		add	r4, r4, #1
 230              	.L35:
 231 00b0 0A0050E3 		cmp	r0, #10
 232 00b4 E5FFFFCA 		bgt	.L50
 233              	.L32:
 234 00b8 0030A0E3 		mov	r3, #0
 235 00bc 003093E5 		ldr	r3, [r3]
 236 00c0 F000F0E7 		.inst	0xe7f000f0
 237              	.L33:
 238 00c4 18509AE5 		ldr	r5, [r10, #24]
 239 00c8 018088E2 		add	r8, r8, #1
 240 00cc 003095E5 		ldr	r3, [r5]
 241 00d0 080053E1 		cmp	r3, r8
 242 00d4 D2FFFF8A 		bhi	.L36
 243              	.L37:
 244 00d8 14908AE5 		str	r9, [r10, #20]
 245 00dc 0000A0E3 		mov	r0, #0
 246 00e0 F88FBDE8 		pop	{r3, r4, r5, r6, r7, r8, r9, r10, fp, pc}
 247              		.fnend
 249              		.section	.text._ZN6tflite10MicroGraph13InitSubgraphsEv,"ax",%progbits
 250              		.align	2
 251              		.global	_ZN6tflite10MicroGraph13InitSubgraphsEv
 252              		.syntax unified
 253              		.arm
 254              		.fpu neon
 256              	_ZN6tflite10MicroGraph13InitSubgraphsEv:
 257              		.fnstart
 258              	.LFB6616:
 259              		@ args = 0, pretend = 0, frame = 0
 260              		@ frame_needed = 0, uses_anonymous_args = 0
 261 0000 F84F2DE9 		push	{r3, r4, r5, r6, r7, r8, r9, r10, fp, lr}
 262              		.save {r3, r4, r5, r6, r7, r8, r9, r10, fp, lr}
 263 0004 00B0A0E1 		mov	fp, r0
 264 0008 186090E5 		ldr	r6, [r0, #24]
 265 000c 14A090E5 		ldr	r10, [r0, #20]
 266 0010 003096E5 		ldr	r3, [r6]
 267 0014 000053E3 		cmp	r3, #0
 268 0018 3200000A 		beq	.L59
 269 001c 0090A0E3 		mov	r9, #0
 270 0020 2C80A0E3 		mov	r8, #44
 271              	.L58:
 272 0024 046086E2 		add	r6, r6, #4
 273 0028 8971A0E1 		lsl	r7, r9, #3
 274 002c 092196E7 		ldr	r2, [r6, r9, lsl #2]
 275 0030 096186E0 		add	r6, r6, r9, lsl #2
 276 0034 0050A0E3 		mov	r5, #0
 277 0038 14908BE5 		str	r9, [fp, #20]
 278 003c 023096E7 		ldr	r3, [r6, r2]
 279 0040 026086E0 		add	r6, r6, r2
 280 0044 030046E0 		sub	r0, r6, r3
 281 0048 B0C0D0E1 		ldrh	ip, [r0]
 282 004c 1B0000EA 		b	.L57
 283              	.L70:
 284 0050 BA30D0E1 		ldrh	r3, [r0, #10]
 285 0054 000053E3 		cmp	r3, #0
 286 0058 032086E0 		add	r2, r6, r3
 287 005c 1900000A 		beq	.L53
 288 0060 033096E7 		ldr	r3, [r6, r3]
 289 0064 033092E7 		ldr	r3, [r2, r3]
 290 0068 030055E1 		cmp	r5, r3
 291 006c 1800002A 		bcs	.L54
 292 0070 10309BE5 		ldr	r3, [fp, #16]
 293 0074 074093E7 		ldr	r4, [r3, r7]
 294 0078 984524E0 		mla	r4, r8, r5, r4
 295 007c 283094E5 		ldr	r3, [r4, #40]
 296 0080 141094E5 		ldr	r1, [r4, #20]
 297 0084 142093E5 		ldr	r2, [r3, #20]
 298 0088 003093E5 		ldr	r3, [r3]
 299 008c 200052E3 		cmp	r2, #32
 300 0090 18109405 		ldreq	r1, [r4, #24]
 301 0094 0020A013 		movne	r2, #0
 302 0098 1C209405 		ldreq	r2, [r4, #28]
 303 009c 000053E3 		cmp	r3, #0
 304 00a0 0500000A 		beq	.L56
 305 00a4 04009BE5 		ldr	r0, [fp, #4]
 306 00a8 33FF2FE1 		blx	r3
 307 00ac 003096E5 		ldr	r3, [r6]
 308 00b0 100084E5 		str	r0, [r4, #16]
 309 00b4 030046E0 		sub	r0, r6, r3
 310 00b8 B0C0D0E1 		ldrh	ip, [r0]
 311              	.L56:
 312 00bc 015085E2 		add	r5, r5, #1
 313              	.L57:
 314 00c0 0A005CE3 		cmp	ip, #10
 315 00c4 E1FFFFCA 		bgt	.L70
 316              	.L53:
 317 00c8 0030A0E3 		mov	r3, #0
 318 00cc 003093E5 		ldr	r3, [r3]
 319 00d0 F000F0E7 		.inst	0xe7f000f0
 320              	.L54:
 321 00d4 18609BE5 		ldr	r6, [fp, #24]
 322 00d8 019089E2 		add	r9, r9, #1
 323 00dc 003096E5 		ldr	r3, [r6]
 324 00e0 090053E1 		cmp	r3, r9
 325 00e4 CEFFFF8A 		bhi	.L58
 326              	.L59:
 327 00e8 14A08BE5 		str	r10, [fp, #20]
 328 00ec 0000A0E3 		mov	r0, #0
 329 00f0 F88FBDE8 		pop	{r3, r4, r5, r6, r7, r8, r9, r10, fp, pc}
 330              		.fnend
 332              		.section	.text._ZN6tflite10MicroGraph16PrepareSubgraphsEv,"ax",%progbits
 333              		.align	2
 334              		.global	_ZN6tflite10MicroGraph16PrepareSubgraphsEv
 335              		.syntax unified
 336              		.arm
 337              		.fpu neon
 339              	_ZN6tflite10MicroGraph16PrepareSubgraphsEv:
 340              		.fnstart
 341              	.LFB6617:
 342              		@ args = 0, pretend = 0, frame = 0
 343              		@ frame_needed = 0, uses_anonymous_args = 0
 344 0000 F0472DE9 		push	{r4, r5, r6, r7, r8, r9, r10, lr}
 345              		.save {r4, r5, r6, r7, r8, r9, r10, lr}
 346 0004 00A0A0E1 		mov	r10, r0
 347 0008 184090E5 		ldr	r4, [r0, #24]
 348 000c 148090E5 		ldr	r8, [r0, #20]
 349 0010 003094E5 		ldr	r3, [r4]
 350 0014 000053E3 		cmp	r3, #0
 351 0018 0070A013 		movne	r7, #0
 352 001c 2D00000A 		beq	.L80
 353              	.L79:
 354 0020 044084E2 		add	r4, r4, #4
 355 0024 0050A0E3 		mov	r5, #0
 356 0028 073194E7 		ldr	r3, [r4, r7, lsl #2]
 357 002c 074184E0 		add	r4, r4, r7, lsl #2
 358 0030 8761A0E1 		lsl	r6, r7, #3
 359 0034 0590A0E1 		mov	r9, r5
 360 0038 14708AE5 		str	r7, [r10, #20]
 361 003c 034084E0 		add	r4, r4, r3
 362 0040 170000EA 		b	.L77
 363              	.L90:
 364 0044 BA30D3E1 		ldrh	r3, [r3, #10]
 365 0048 000053E3 		cmp	r3, #0
 366 004c 032084E0 		add	r2, r4, r3
 367 0050 1800000A 		beq	.L74
 368 0054 033094E7 		ldr	r3, [r4, r3]
 369 0058 033092E7 		ldr	r3, [r2, r3]
 370 005c 030059E1 		cmp	r9, r3
 371 0060 1700002A 		bcs	.L75
 372 0064 10309AE5 		ldr	r3, [r10, #16]
 373 0068 061093E7 		ldr	r1, [r3, r6]
 374 006c 051081E0 		add	r1, r1, r5
 375 0070 283091E5 		ldr	r3, [r1, #40]
 376 0074 083093E5 		ldr	r3, [r3, #8]
 377 0078 000053E3 		cmp	r3, #0
 378 007c 0300000A 		beq	.L78
 379 0080 04009AE5 		ldr	r0, [r10, #4]
 380 0084 33FF2FE1 		blx	r3
 381 0088 000050E3 		cmp	r0, #0
 382 008c 1400001A 		bne	.L89
 383              	.L78:
 384 0090 0910A0E1 		mov	r1, r9
 385 0094 0C009AE5 		ldr	r0, [r10, #12]
 386 0098 2C5085E2 		add	r5, r5, #44
 387 009c 019089E2 		add	r9, r9, #1
 388 00a0 FEFFFFEB 		bl	_ZN6tflite14MicroAllocator28FinishPrepareNodeAllocationsEi
 389              	.L77:
 390 00a4 003094E5 		ldr	r3, [r4]
 391 00a8 033044E0 		sub	r3, r4, r3
 392 00ac B020D3E1 		ldrh	r2, [r3]
 393 00b0 0A0052E3 		cmp	r2, #10
 394 00b4 E2FFFFCA 		bgt	.L90
 395              	.L74:
 396 00b8 0030A0E3 		mov	r3, #0
 397 00bc 003093E5 		ldr	r3, [r3]
 398 00c0 F000F0E7 		.inst	0xe7f000f0
 399              	.L75:
 400 00c4 18409AE5 		ldr	r4, [r10, #24]
 401 00c8 017087E2 		add	r7, r7, #1
 402 00cc 003094E5 		ldr	r3, [r4]
 403 00d0 070053E1 		cmp	r3, r7
 404 00d4 D1FFFF8A 		bhi	.L79
 405              	.L80:
 406 00d8 14808AE5 		str	r8, [r10, #20]
 407 00dc 0000A0E3 		mov	r0, #0
 408 00e0 F087BDE8 		pop	{r4, r5, r6, r7, r8, r9, r10, pc}
 409              	.L89:
 410 00e4 0100A0E3 		mov	r0, #1
 411 00e8 F087BDE8 		pop	{r4, r5, r6, r7, r8, r9, r10, pc}
 412              		.fnend
 414              		.section	.text._ZN6tflite10MicroGraph20ResetVariableTensorsEv,"ax",%progbits
 415              		.align	2
 416              		.global	_ZN6tflite10MicroGraph20ResetVariableTensorsEv
 417              		.syntax unified
 418              		.arm
 419              		.fpu neon
 421              	_ZN6tflite10MicroGraph20ResetVariableTensorsEv:
 422              		.fnstart
 423              	.LFB6620:
 424              		@ args = 0, pretend = 0, frame = 16
 425              		@ frame_needed = 0, uses_anonymous_args = 0
 426 0000 183090E5 		ldr	r3, [r0, #24]
 427 0004 002093E5 		ldr	r2, [r3]
 428 0008 000052E3 		cmp	r2, #0
 429 000c 8200000A 		beq	.L129
 430 0010 F04F2DE9 		push	{r4, r5, r6, r7, r8, r9, r10, fp, lr}
 431              		.save {r4, r5, r6, r7, r8, r9, r10, fp, lr}
 432 0014 0090A0E1 		mov	r9, r0
 433              		.pad #20
 434 0018 14D04DE2 		sub	sp, sp, #20
 435 001c 0020A0E3 		mov	r2, #0
 436 0020 04208DE5 		str	r2, [sp, #4]
 437              	.L105:
 438 0024 04209DE5 		ldr	r2, [sp, #4]
 439 0028 046083E2 		add	r6, r3, #4
 440 002c 0050A0E3 		mov	r5, #0
 441 0030 023196E7 		ldr	r3, [r6, r2, lsl #2]
 442 0034 026186E0 		add	r6, r6, r2, lsl #2
 443 0038 8271A0E1 		lsl	r7, r2, #3
 444 003c 032096E7 		ldr	r2, [r6, r3]
 445 0040 036086E0 		add	r6, r6, r3
 446 0044 022046E0 		sub	r2, r6, r2
 447 0048 B010D2E1 		ldrh	r1, [r2]
 448 004c 180000EA 		b	.L104
 449              	.L131:
 450 0050 B430D2E1 		ldrh	r3, [r2, #4]
 451 0054 000053E3 		cmp	r3, #0
 452 0058 034086E0 		add	r4, r6, r3
 453 005c 1600000A 		beq	.L94
 454 0060 033096E7 		ldr	r3, [r6, r3]
 455 0064 030094E7 		ldr	r0, [r4, r3]
 456 0068 034084E0 		add	r4, r4, r3
 457 006c 000055E1 		cmp	r5, r0
 458 0070 5300002A 		bcs	.L95
 459 0074 044084E2 		add	r4, r4, #4
 460 0078 05A194E7 		ldr	r10, [r4, r5, lsl #2]
 461 007c 054184E0 		add	r4, r4, r5, lsl #2
 462 0080 0A3094E7 		ldr	r3, [r4, r10]
 463 0084 0AB084E0 		add	fp, r4, r10
 464 0088 03304BE0 		sub	r3, fp, r3
 465 008c B000D3E1 		ldrh	r0, [r3]
 466 0090 0E0050E3 		cmp	r0, #14
 467 0094 050000DA 		ble	.L96
 468 0098 BE30D3E1 		ldrh	r3, [r3, #14]
 469 009c 000053E3 		cmp	r3, #0
 470 00a0 0200000A 		beq	.L96
 471 00a4 0330DBE7 		ldrb	r3, [fp, r3]	@ zero_extendqisi2
 472 00a8 000053E3 		cmp	r3, #0
 473 00ac 0500001A 		bne	.L130
 474              	.L96:
 475 00b0 015085E2 		add	r5, r5, #1
 476              	.L104:
 477 00b4 040051E3 		cmp	r1, #4
 478 00b8 E4FFFFCA 		bgt	.L131
 479              	.L94:
 480 00bc 0030A0E3 		mov	r3, #0
 481 00c0 003093E5 		ldr	r3, [r3]
 482 00c4 F000F0E7 		.inst	0xe7f000f0
 483              	.L130:
 484 00c8 102099E5 		ldr	r2, [r9, #16]
 485 00cc 858085E0 		add	r8, r5, r5, lsl #1
 486 00d0 0C108DE2 		add	r1, sp, #12
 487 00d4 072082E0 		add	r2, r2, r7
 488 00d8 040092E5 		ldr	r0, [r2, #4]
 489 00dc 080180E0 		add	r0, r0, r8, lsl #2
 490 00e0 FEFFFFEB 		bl	_ZN6tflite26TfLiteEvalTensorByteLengthEPK16TfLiteEvalTensorPj
 491 00e4 001050E2 		subs	r1, r0, #0
 492 00e8 4000001A 		bne	.L132
 493 00ec 0A2094E7 		ldr	r2, [r4, r10]
 494 00f0 02204BE0 		sub	r2, fp, r2
 495 00f4 B000D2E1 		ldrh	r0, [r2]
 496 00f8 060050E3 		cmp	r0, #6
 497 00fc 1F0000DA 		ble	.L98
 498 0100 B610D2E1 		ldrh	r1, [r2, #6]
 499 0104 000051E3 		cmp	r1, #0
 500 0108 1C00000A 		beq	.L98
 501 010c D1109BE1 		ldrsb	r1, [fp, r1]
 502 0110 090051E3 		cmp	r1, #9
 503 0114 2800001A 		bne	.L109
 504 0118 0C0050E3 		cmp	r0, #12
 505 011c 020000CA 		bgt	.L133
 506 0120 0030A0E3 		mov	r3, #0
 507 0124 003093E5 		ldr	r3, [r3]
 508 0128 F000F0E7 		.inst	0xe7f000f0
 509              	.L133:
 510 012c BC10D2E1 		ldrh	r1, [r2, #12]
 511 0130 000051E3 		cmp	r1, #0
 512 0134 01208BE0 		add	r2, fp, r1
 513 0138 1D00000A 		beq	.L100
 514 013c 01009BE7 		ldr	r0, [fp, r1]
 515 0140 001092E7 		ldr	r1, [r2, r0]
 516 0144 002082E0 		add	r2, r2, r0
 517 0148 011042E0 		sub	r1, r2, r1
 518 014c B000D1E1 		ldrh	r0, [r1]
 519 0150 0A0050E3 		cmp	r0, #10
 520 0154 130000DA 		ble	.L102
 521 0158 BA00D1E1 		ldrh	r0, [r1, #10]
 522 015c 000050E3 		cmp	r0, #0
 523 0160 001082E0 		add	r1, r2, r0
 524 0164 0F00000A 		beq	.L102
 525 0168 002092E7 		ldr	r2, [r2, r0]
 526 016c 020091E7 		ldr	r0, [r1, r2]
 527 0170 021081E0 		add	r1, r1, r2
 528 0174 000050E3 		cmp	r0, #0
 529 0178 1F00000A 		beq	.L134
 530 017c 041091E5 		ldr	r1, [r1, #4]
 531              	.L98:
 532 0180 100099E5 		ldr	r0, [r9, #16]
 533 0184 0C209DE5 		ldr	r2, [sp, #12]
 534 0188 070080E0 		add	r0, r0, r7
 535 018c 040090E5 		ldr	r0, [r0, #4]
 536 0190 080190E7 		ldr	r0, [r0, r8, lsl #2]
 537 0194 FEFFFFEB 		bl	memset
 538 0198 002096E5 		ldr	r2, [r6]
 539 019c 022046E0 		sub	r2, r6, r2
 540 01a0 B010D2E1 		ldrh	r1, [r2]
 541 01a4 C1FFFFEA 		b	.L96
 542              	.L102:
 543 01a8 0030A0E3 		mov	r3, #0
 544 01ac 003093E5 		ldr	r3, [r3]
 545 01b0 F000F0E7 		.inst	0xe7f000f0
 546              	.L100:
 547 01b4 003091E5 		ldr	r3, [r1]
 548 01b8 F000F0E7 		.inst	0xe7f000f0
 549              	.L109:
 550 01bc 0010A0E3 		mov	r1, #0
 551 01c0 EEFFFFEA 		b	.L98
 552              	.L95:
 553 01c4 04209DE5 		ldr	r2, [sp, #4]
 554 01c8 183099E5 		ldr	r3, [r9, #24]
 555 01cc 012082E2 		add	r2, r2, #1
 556 01d0 0210A0E1 		mov	r1, r2
 557 01d4 04208DE5 		str	r2, [sp, #4]
 558 01d8 002093E5 		ldr	r2, [r3]
 559 01dc 020051E1 		cmp	r1, r2
 560 01e0 8FFFFF3A 		bcc	.L105
 561 01e4 0000A0E3 		mov	r0, #0
 562 01e8 14D08DE2 		add	sp, sp, #20
 563              		@ sp needed
 564 01ec F08FBDE8 		pop	{r4, r5, r6, r7, r8, r9, r10, fp, pc}
 565              	.L132:
 566 01f0 0100A0E1 		mov	r0, r1
 567 01f4 14D08DE2 		add	sp, sp, #20
 568              		@ sp needed
 569 01f8 F08FBDE8 		pop	{r4, r5, r6, r7, r8, r9, r10, fp, pc}
 570              	.L134:
 571 01fc 003000E3 		movw	r3, #:lower16:.LC0
 572 0200 002000E3 		movw	r2, #:lower16:.LANCHOR0
 573 0204 000000E3 		movw	r0, #:lower16:.LC1
 574 0208 003040E3 		movt	r3, #:upper16:.LC0
 575 020c 002040E3 		movt	r2, #:upper16:.LANCHOR0
 576 0210 000040E3 		movt	r0, #:upper16:.LC1
 577 0214 061100E3 		movw	r1, #262
 578 0218 FEFFFFEB 		bl	__assert_func
 579              	.L129:
 580 021c 0000A0E3 		mov	r0, #0
 581 0220 1EFF2FE1 		bx	lr
 582              		.fnend
 584              		.section	.text._ZN6tflite10MicroGraph18NumSubgraphOutputsEi,"ax",%progbits
 585              		.align	2
 586              		.global	_ZN6tflite10MicroGraph18NumSubgraphOutputsEi
 587              		.syntax unified
 588              		.arm
 589              		.fpu neon
 591              	_ZN6tflite10MicroGraph18NumSubgraphOutputsEi:
 592              		.fnstart
 593              	.LFB6625:
 594              		@ args = 0, pretend = 0, frame = 0
 595              		@ frame_needed = 0, uses_anonymous_args = 0
 596 0000 082090E5 		ldr	r2, [r0, #8]
 597 0004 003092E5 		ldr	r3, [r2]
 598 0008 033042E0 		sub	r3, r2, r3
 599 000c B000D3E1 		ldrh	r0, [r3]
 600 0010 080050E3 		cmp	r0, #8
 601 0014 1B0000DA 		ble	.L136
 602 0018 B800D3E1 		ldrh	r0, [r3, #8]
 603 001c 000050E3 		cmp	r0, #0
 604 0020 003082E0 		add	r3, r2, r0
 605 0024 1700000A 		beq	.L136
 606 0028 002092E7 		ldr	r2, [r2, r0]
 607 002c 020093E7 		ldr	r0, [r3, r2]
 608 0030 023083E0 		add	r3, r3, r2
 609 0034 000051E1 		cmp	r1, r0
 610 0038 1500002A 		bcs	.L151
 611 003c 043083E2 		add	r3, r3, #4
 612 0040 012193E7 		ldr	r2, [r3, r1, lsl #2]
 613 0044 011183E0 		add	r1, r3, r1, lsl #2
 614 0048 023091E7 		ldr	r3, [r1, r2]
 615 004c 021081E0 		add	r1, r1, r2
 616 0050 033041E0 		sub	r3, r1, r3
 617 0054 B020D3E1 		ldrh	r2, [r3]
 618 0058 080052E3 		cmp	r2, #8
 619 005c 060000DA 		ble	.L138
 620 0060 B830D3E1 		ldrh	r3, [r3, #8]
 621 0064 000053E3 		cmp	r3, #0
 622 0068 032081E0 		add	r2, r1, r3
 623 006c 0200000A 		beq	.L138
 624 0070 033091E7 		ldr	r3, [r1, r3]
 625 0074 030092E7 		ldr	r0, [r2, r3]
 626 0078 1EFF2FE1 		bx	lr
 627              	.L138:
 628 007c 0030A0E3 		mov	r3, #0
 629 0080 003093E5 		ldr	r3, [r3]
 630 0084 F000F0E7 		.inst	0xe7f000f0
 631              	.L136:
 632 0088 0030A0E3 		mov	r3, #0
 633 008c 003093E5 		ldr	r3, [r3]
 634 0090 F000F0E7 		.inst	0xe7f000f0
 635              	.L151:
 636 0094 003000E3 		movw	r3, #:lower16:.LC0
 637 0098 002000E3 		movw	r2, #:lower16:.LANCHOR1
 638 009c 000000E3 		movw	r0, #:lower16:.LC1
 639 00a0 10402DE9 		push	{r4, lr}
 640              		.save {r4, lr}
 641 00a4 003040E3 		movt	r3, #:upper16:.LC0
 642 00a8 002040E3 		movt	r2, #:upper16:.LANCHOR1
 643 00ac 000040E3 		movt	r0, #:upper16:.LC1
 644 00b0 061100E3 		movw	r1, #262
 645 00b4 FEFFFFEB 		bl	__assert_func
 646              		.fnend
 648              		.section	.text._ZN6tflite10MicroGraph17NumSubgraphInputsEi,"ax",%progbits
 649              		.align	2
 650              		.global	_ZN6tflite10MicroGraph17NumSubgraphInputsEi
 651              		.syntax unified
 652              		.arm
 653              		.fpu neon
 655              	_ZN6tflite10MicroGraph17NumSubgraphInputsEi:
 656              		.fnstart
 657              	.LFB6623:
 658              		@ args = 0, pretend = 0, frame = 0
 659              		@ frame_needed = 0, uses_anonymous_args = 0
 660 0000 082090E5 		ldr	r2, [r0, #8]
 661 0004 003092E5 		ldr	r3, [r2]
 662 0008 033042E0 		sub	r3, r2, r3
 663 000c B000D3E1 		ldrh	r0, [r3]
 664 0010 080050E3 		cmp	r0, #8
 665 0014 1B0000DA 		ble	.L153
 666 0018 B800D3E1 		ldrh	r0, [r3, #8]
 667 001c 000050E3 		cmp	r0, #0
 668 0020 003082E0 		add	r3, r2, r0
 669 0024 1700000A 		beq	.L153
 670 0028 002092E7 		ldr	r2, [r2, r0]
 671 002c 020093E7 		ldr	r0, [r3, r2]
 672 0030 023083E0 		add	r3, r3, r2
 673 0034 000051E1 		cmp	r1, r0
 674 0038 1500002A 		bcs	.L168
 675 003c 043083E2 		add	r3, r3, #4
 676 0040 012193E7 		ldr	r2, [r3, r1, lsl #2]
 677 0044 011183E0 		add	r1, r3, r1, lsl #2
 678 0048 023091E7 		ldr	r3, [r1, r2]
 679 004c 021081E0 		add	r1, r1, r2
 680 0050 033041E0 		sub	r3, r1, r3
 681 0054 B020D3E1 		ldrh	r2, [r3]
 682 0058 060052E3 		cmp	r2, #6
 683 005c 060000DA 		ble	.L155
 684 0060 B630D3E1 		ldrh	r3, [r3, #6]
 685 0064 000053E3 		cmp	r3, #0
 686 0068 032081E0 		add	r2, r1, r3
 687 006c 0200000A 		beq	.L155
 688 0070 033091E7 		ldr	r3, [r1, r3]
 689 0074 030092E7 		ldr	r0, [r2, r3]
 690 0078 1EFF2FE1 		bx	lr
 691              	.L155:
 692 007c 0030A0E3 		mov	r3, #0
 693 0080 003093E5 		ldr	r3, [r3]
 694 0084 F000F0E7 		.inst	0xe7f000f0
 695              	.L153:
 696 0088 0030A0E3 		mov	r3, #0
 697 008c 003093E5 		ldr	r3, [r3]
 698 0090 F000F0E7 		.inst	0xe7f000f0
 699              	.L168:
 700 0094 003000E3 		movw	r3, #:lower16:.LC0
 701 0098 002000E3 		movw	r2, #:lower16:.LANCHOR1
 702 009c 000000E3 		movw	r0, #:lower16:.LC1
 703 00a0 10402DE9 		push	{r4, lr}
 704              		.save {r4, lr}
 705 00a4 003040E3 		movt	r3, #:upper16:.LC0
 706 00a8 002040E3 		movt	r2, #:upper16:.LANCHOR1
 707 00ac 000040E3 		movt	r0, #:upper16:.LC1
 708 00b0 061100E3 		movw	r1, #262
 709 00b4 FEFFFFEB 		bl	__assert_func
 710              		.fnend
 712              		.section	.text._ZN6tflite10MicroGraph17GetSubgraphOutputEii,"ax",%progbits
 713              		.align	2
 714              		.global	_ZN6tflite10MicroGraph17GetSubgraphOutputEii
 715              		.syntax unified
 716              		.arm
 717              		.fpu neon
 719              	_ZN6tflite10MicroGraph17GetSubgraphOutputEii:
 720              		.fnstart
 721              	.LFB6626:
 722              		@ args = 0, pretend = 0, frame = 0
 723              		@ frame_needed = 0, uses_anonymous_args = 0
 724 0000 10402DE9 		push	{r4, lr}
 725              		.save {r4, lr}
 726 0004 08E090E5 		ldr	lr, [r0, #8]
 727 0008 00309EE5 		ldr	r3, [lr]
 728 000c 03304EE0 		sub	r3, lr, r3
 729 0010 B0C0D3E1 		ldrh	ip, [r3]
 730 0014 08005CE3 		cmp	ip, #8
 731 0018 220000DA 		ble	.L172
 732 001c B840D3E1 		ldrh	r4, [r3, #8]
 733 0020 000054E3 		cmp	r4, #0
 734 0024 04308EE0 		add	r3, lr, r4
 735 0028 1E00000A 		beq	.L172
 736 002c 04C09EE7 		ldr	ip, [lr, r4]
 737 0030 0CE093E7 		ldr	lr, [r3, ip]
 738 0034 0C3083E0 		add	r3, r3, ip
 739 0038 0E0051E1 		cmp	r1, lr
 740 003c 2400002A 		bcs	.L182
 741 0040 043083E2 		add	r3, r3, #4
 742 0044 01E193E7 		ldr	lr, [r3, r1, lsl #2]
 743 0048 013183E0 		add	r3, r3, r1, lsl #2
 744 004c 0EC093E7 		ldr	ip, [r3, lr]
 745 0050 0E3083E0 		add	r3, r3, lr
 746 0054 0CC043E0 		sub	ip, r3, ip
 747 0058 B0E0DCE1 		ldrh	lr, [ip]
 748 005c 08005EE3 		cmp	lr, #8
 749 0060 100000DA 		ble	.L172
 750 0064 B8E0DCE1 		ldrh	lr, [ip, #8]
 751 0068 00005EE3 		cmp	lr, #0
 752 006c 0EC083E0 		add	ip, r3, lr
 753 0070 0C00000A 		beq	.L172
 754 0074 0E3093E7 		ldr	r3, [r3, lr]
 755 0078 03E09CE7 		ldr	lr, [ip, r3]
 756 007c 03C08CE0 		add	ip, ip, r3
 757 0080 02005EE1 		cmp	lr, r2
 758 0084 0A00009A 		bls	.L183
 759 0088 100090E5 		ldr	r0, [r0, #16]
 760 008c 02218CE0 		add	r2, ip, r2, lsl #2
 761 0090 043092E5 		ldr	r3, [r2, #4]
 762 0094 811180E0 		add	r1, r0, r1, lsl #3
 763 0098 040091E5 		ldr	r0, [r1, #4]
 764 009c 833083E0 		add	r3, r3, r3, lsl #1
 765 00a0 030180E0 		add	r0, r0, r3, lsl #2
 766 00a4 1080BDE8 		pop	{r4, pc}
 767              	.L172:
 768 00a8 0030A0E3 		mov	r3, #0
 769 00ac 003093E5 		ldr	r3, [r3]
 770 00b0 F000F0E7 		.inst	0xe7f000f0
 771              	.L183:
 772 00b4 003000E3 		movw	r3, #:lower16:.LC0
 773 00b8 002000E3 		movw	r2, #:lower16:.LANCHOR2
 774 00bc 000000E3 		movw	r0, #:lower16:.LC1
 775 00c0 003040E3 		movt	r3, #:upper16:.LC0
 776 00c4 002040E3 		movt	r2, #:upper16:.LANCHOR2
 777 00c8 000040E3 		movt	r0, #:upper16:.LC1
 778 00cc 061100E3 		movw	r1, #262
 779 00d0 FEFFFFEB 		bl	__assert_func
 780              	.L182:
 781 00d4 003000E3 		movw	r3, #:lower16:.LC0
 782 00d8 002000E3 		movw	r2, #:lower16:.LANCHOR1
 783 00dc 000000E3 		movw	r0, #:lower16:.LC1
 784 00e0 003040E3 		movt	r3, #:upper16:.LC0
 785 00e4 002040E3 		movt	r2, #:upper16:.LANCHOR1
 786 00e8 000040E3 		movt	r0, #:upper16:.LC1
 787 00ec 061100E3 		movw	r1, #262
 788 00f0 FEFFFFEB 		bl	__assert_func
 789              		.fnend
 791              		.section	.text._ZN6tflite10MicroGraph16GetSubgraphInputEii,"ax",%progbits
 792              		.align	2
 793              		.global	_ZN6tflite10MicroGraph16GetSubgraphInputEii
 794              		.syntax unified
 795              		.arm
 796              		.fpu neon
 798              	_ZN6tflite10MicroGraph16GetSubgraphInputEii:
 799              		.fnstart
 800              	.LFB6624:
 801              		@ args = 0, pretend = 0, frame = 0
 802              		@ frame_needed = 0, uses_anonymous_args = 0
 803 0000 10402DE9 		push	{r4, lr}
 804              		.save {r4, lr}
 805 0004 08E090E5 		ldr	lr, [r0, #8]
 806 0008 00309EE5 		ldr	r3, [lr]
 807 000c 03304EE0 		sub	r3, lr, r3
 808 0010 B0C0D3E1 		ldrh	ip, [r3]
 809 0014 08005CE3 		cmp	ip, #8
 810 0018 220000DA 		ble	.L187
 811 001c B840D3E1 		ldrh	r4, [r3, #8]
 812 0020 000054E3 		cmp	r4, #0
 813 0024 04308EE0 		add	r3, lr, r4
 814 0028 1E00000A 		beq	.L187
 815 002c 04C09EE7 		ldr	ip, [lr, r4]
 816 0030 0CE093E7 		ldr	lr, [r3, ip]
 817 0034 0C3083E0 		add	r3, r3, ip
 818 0038 0E0051E1 		cmp	r1, lr
 819 003c 2400002A 		bcs	.L197
 820 0040 043083E2 		add	r3, r3, #4
 821 0044 01E193E7 		ldr	lr, [r3, r1, lsl #2]
 822 0048 013183E0 		add	r3, r3, r1, lsl #2
 823 004c 0EC093E7 		ldr	ip, [r3, lr]
 824 0050 0E3083E0 		add	r3, r3, lr
 825 0054 0CC043E0 		sub	ip, r3, ip
 826 0058 B0E0DCE1 		ldrh	lr, [ip]
 827 005c 06005EE3 		cmp	lr, #6
 828 0060 100000DA 		ble	.L187
 829 0064 B6E0DCE1 		ldrh	lr, [ip, #6]
 830 0068 00005EE3 		cmp	lr, #0
 831 006c 0EC083E0 		add	ip, r3, lr
 832 0070 0C00000A 		beq	.L187
 833 0074 0E3093E7 		ldr	r3, [r3, lr]
 834 0078 03E09CE7 		ldr	lr, [ip, r3]
 835 007c 03C08CE0 		add	ip, ip, r3
 836 0080 02005EE1 		cmp	lr, r2
 837 0084 0A00009A 		bls	.L198
 838 0088 100090E5 		ldr	r0, [r0, #16]
 839 008c 02218CE0 		add	r2, ip, r2, lsl #2
 840 0090 043092E5 		ldr	r3, [r2, #4]
 841 0094 811180E0 		add	r1, r0, r1, lsl #3
 842 0098 040091E5 		ldr	r0, [r1, #4]
 843 009c 833083E0 		add	r3, r3, r3, lsl #1
 844 00a0 030180E0 		add	r0, r0, r3, lsl #2
 845 00a4 1080BDE8 		pop	{r4, pc}
 846              	.L187:
 847 00a8 0030A0E3 		mov	r3, #0
 848 00ac 003093E5 		ldr	r3, [r3]
 849 00b0 F000F0E7 		.inst	0xe7f000f0
 850              	.L198:
 851 00b4 003000E3 		movw	r3, #:lower16:.LC0
 852 00b8 002000E3 		movw	r2, #:lower16:.LANCHOR2
 853 00bc 000000E3 		movw	r0, #:lower16:.LC1
 854 00c0 003040E3 		movt	r3, #:upper16:.LC0
 855 00c4 002040E3 		movt	r2, #:upper16:.LANCHOR2
 856 00c8 000040E3 		movt	r0, #:upper16:.LC1
 857 00cc 061100E3 		movw	r1, #262
 858 00d0 FEFFFFEB 		bl	__assert_func
 859              	.L197:
 860 00d4 003000E3 		movw	r3, #:lower16:.LC0
 861 00d8 002000E3 		movw	r2, #:lower16:.LANCHOR1
 862 00dc 000000E3 		movw	r0, #:lower16:.LC1
 863 00e0 003040E3 		movt	r3, #:upper16:.LC0
 864 00e4 002040E3 		movt	r2, #:upper16:.LANCHOR1
 865 00e8 000040E3 		movt	r0, #:upper16:.LC1
 866 00ec 061100E3 		movw	r1, #262
 867 00f0 FEFFFFEB 		bl	__assert_func
 868              		.fnend
 870              		.section	.text._ZN6tflite10MicroGraphC2EP13TfLiteContextPKNS_5ModelEPNS_14MicroAllocatorE,"ax",%pr
 871              		.align	2
 872              		.global	_ZN6tflite10MicroGraphC2EP13TfLiteContextPKNS_5ModelEPNS_14MicroAllocatorE
 873              		.syntax unified
 874              		.arm
 875              		.fpu neon
 877              	_ZN6tflite10MicroGraphC2EP13TfLiteContextPKNS_5ModelEPNS_14MicroAllocatorE:
 878              		.fnstart
 879              	.LFB6610:
 880              		@ args = 0, pretend = 0, frame = 0
 881              		@ frame_needed = 0, uses_anonymous_args = 0
 882 0000 04E02DE5 		str	lr, [sp, #-4]!
 883 0004 00C0A0E3 		mov	ip, #0
 884 0008 48E09FE5 		ldr	lr, .L208
 885 000c 000052E3 		cmp	r2, #0
 886 0010 0E0080E9 		stmib	r0, {r1, r2, r3}
 887 0014 00E080E5 		str	lr, [r0]
 888 0018 10C080E5 		str	ip, [r0, #16]
 889 001c 14C080E5 		str	ip, [r0, #20]
 890 0020 04F09D04 		ldreq	pc, [sp], #4
 891 0024 003092E5 		ldr	r3, [r2]
 892 0028 033042E0 		sub	r3, r2, r3
 893 002c B010D3E1 		ldrh	r1, [r3]
 894 0030 080051E3 		cmp	r1, #8
 895 0034 050000DA 		ble	.L201
 896 0038 B830D3E1 		ldrh	r3, [r3, #8]
 897 003c 0C0053E1 		cmp	r3, ip
 898 0040 03C082E0 		add	ip, r2, r3
 899 0044 03309217 		ldrne	r3, [r2, r3]
 900 0048 03C0A001 		moveq	ip, r3
 901 004c 03C08C10 		addne	ip, ip, r3
 902              	.L201:
 903 0050 18C080E5 		str	ip, [r0, #24]
 904 0054 04F09DE4 		ldr	pc, [sp], #4
 905              	.L209:
 906              		.align	2
 907              	.L208:
 908 0058 08000000 		.word	.LANCHOR3+8
 909              		.cantunwind
 910              		.fnend
 912              		.global	_ZN6tflite10MicroGraphC1EP13TfLiteContextPKNS_5ModelEPNS_14MicroAllocatorE
 913              		.set	_ZN6tflite10MicroGraphC1EP13TfLiteContextPKNS_5ModelEPNS_14MicroAllocatorE,_ZN6tflite10MicroG
 914              		.section	.text._ZN6tflite10MicroGraph22SetSubgraphAllocationsEPNS_19SubgraphAllocationsE,"ax",%pro
 915              		.align	2
 916              		.global	_ZN6tflite10MicroGraph22SetSubgraphAllocationsEPNS_19SubgraphAllocationsE
 917              		.syntax unified
 918              		.arm
 919              		.fpu neon
 921              	_ZN6tflite10MicroGraph22SetSubgraphAllocationsEPNS_19SubgraphAllocationsE:
 922              		.fnstart
 923              	.LFB6622:
 924              		@ args = 0, pretend = 0, frame = 0
 925              		@ frame_needed = 0, uses_anonymous_args = 0
 926              		@ link register save eliminated.
 927 0000 101080E5 		str	r1, [r0, #16]
 928 0004 1EFF2FE1 		bx	lr
 929              		.cantunwind
 930              		.fnend
 932              		.global	_ZTSN6tflite10MicroGraphE
 933              		.global	_ZTIN6tflite10MicroGraphE
 934              		.global	_ZTVN6tflite10MicroGraphE
 935              		.weak	_ZN11flatbuffers25flatbuffer_version_stringE
 936              		.section	.data._ZN11flatbuffers25flatbuffer_version_stringE,"aw",%progbits
 937              		.align	2
 940              	_ZN11flatbuffers25flatbuffer_version_stringE:
 941 0000 00000000 		.word	.LC2
 942              		.section	.rodata._ZN6tflite10MicroGraph20ResetVariableTensorsEv.str1.4,"aMS",%progbits,1
 943              		.align	2
 944              	.LC0:
 945 0000 69203C20 		.ascii	"i < size()\000"
 945      73697A65 
 945      282900
 946 000b 00       		.space	1
 947              	.LC1:
 948 000c 433A2F52 		.ascii	"C:/Renesas/e2studio_2021_01_workspace_RZA2M_ANPR/AN"
 948      656E6573 
 948      61732F65 
 948      32737475 
 948      64696F5F 
 949 003f 50525F52 		.ascii	"PR_RZA2M_GR_MANGO/src/tensorflow_lite/third_party/f"
 949      5A41324D 
 949      5F47525F 
 949      4D414E47 
 949      4F2F7372 
 950 0072 6C617462 		.ascii	"latbuffers/include/flatbuffers/flatbuffers.h\000"
 950      75666665 
 950      72732F69 
 950      6E636C75 
 950      64652F66 
 951              		.section	.rodata._ZTIN6tflite10MicroGraphE,"a",%progbits
 952              		.align	2
 955              	_ZTIN6tflite10MicroGraphE:
 956 0000 08000000 		.word	_ZTVN10__cxxabiv117__class_type_infoE+8
 957 0004 00000000 		.word	_ZTSN6tflite10MicroGraphE
 958              		.section	.rodata._ZTSN6tflite10MicroGraphE,"a",%progbits
 959              		.align	3
 962              	_ZTSN6tflite10MicroGraphE:
 963 0000 4E367466 		.ascii	"N6tflite10MicroGraphE\000"
 963      6C697465 
 963      31304D69 
 963      63726F47 
 963      72617068 
 964              		.section	.rodata._ZTVN6tflite10MicroGraphE,"a",%progbits
 965              		.align	3
 966              		.set	.LANCHOR3,. + 0
 969              	_ZTVN6tflite10MicroGraphE:
 970 0000 00000000 		.word	0
 971 0004 00000000 		.word	_ZTIN6tflite10MicroGraphE
 972 0008 00000000 		.word	_ZN6tflite10MicroGraphD1Ev
 973 000c 00000000 		.word	_ZN6tflite10MicroGraphD0Ev
 974 0010 00000000 		.word	_ZN6tflite10MicroGraph13InitSubgraphsEv
 975 0014 00000000 		.word	_ZN6tflite10MicroGraph16PrepareSubgraphsEv
 976 0018 00000000 		.word	_ZN6tflite10MicroGraph13FreeSubgraphsEv
 977 001c 00000000 		.word	_ZN6tflite10MicroGraph14InvokeSubgraphEi
 978 0020 00000000 		.word	_ZN6tflite10MicroGraph20ResetVariableTensorsEv
 979 0024 00000000 		.word	_ZN6tflite10MicroGraph17NumSubgraphInputsEi
 980 0028 00000000 		.word	_ZN6tflite10MicroGraph16GetSubgraphInputEii
 981 002c 00000000 		.word	_ZN6tflite10MicroGraph18NumSubgraphOutputsEi
 982 0030 00000000 		.word	_ZN6tflite10MicroGraph17GetSubgraphOutputEii
 983 0034 00000000 		.word	_ZN6tflite10MicroGraph12NumSubgraphsEv
 984              		.section	.rodata._ZZNK11flatbuffers6VectorINS_6OffsetIN6tflite8SubGraphEEEE3GetEmE19__PRETTY_FUNCT
 985              		.align	3
 986              		.set	.LANCHOR1,. + 0
 989              	_ZZNK11flatbuffers6VectorINS_6OffsetIN6tflite8SubGraphEEEE3GetEmE19__PRETTY_FUNCTION__:
 990 0000 666C6174 		.ascii	"flatbuffers::Vector<T>::return_type flatbuffers::Ve"
 990      62756666 
 990      6572733A 
 990      3A566563 
 990      746F723C 
 991 0033 63746F72 		.ascii	"ctor<T>::Get(flatbuffers::uoffset_t) const [with T "
 991      3C543E3A 
 991      3A476574 
 991      28666C61 
 991      74627566 
 992 0066 3D20666C 		.ascii	"= flatbuffers::Offset<tflite::SubGraph>; flatbuffer"
 992      61746275 
 992      66666572 
 992      733A3A4F 
 992      66667365 
 993 0099 733A3A56 		.ascii	"s::Vector<T>::return_type = const tflite::SubGraph*"
 993      6563746F 
 993      723C543E 
 993      3A3A7265 
 993      7475726E 
 994 00cc 3B20666C 		.ascii	"; flatbuffers::uoffset_t = long unsigned int]\000"
 994      61746275 
 994      66666572 
 994      733A3A75 
 994      6F666673 
 995              		.section	.rodata._ZZNK11flatbuffers6VectorIlE3GetEmE19__PRETTY_FUNCTION__,"a",%progbits
 996              		.align	3
 997              		.set	.LANCHOR2,. + 0
 1000              	_ZZNK11flatbuffers6VectorIlE3GetEmE19__PRETTY_FUNCTION__:
 1001 0000 666C6174 		.ascii	"flatbuffers::Vector<T>::return_type flatbuffers::Ve"
 1001      62756666 
 1001      6572733A 
 1001      3A566563 
 1001      746F723C 
 1002 0033 63746F72 		.ascii	"ctor<T>::Get(flatbuffers::uoffset_t) const [with T "
 1002      3C543E3A 
 1002      3A476574 
 1002      28666C61 
 1002      74627566 
 1003 0066 3D206C6F 		.ascii	"= long int; flatbuffers::Vector<T>::return_type = l"
 1003      6E672069 
 1003      6E743B20 
 1003      666C6174 
 1003      62756666 
 1004 0099 6F6E6720 		.ascii	"ong int; flatbuffers::uoffset_t = long unsigned int"
 1004      696E743B 
 1004      20666C61 
 1004      74627566 
 1004      66657273 
 1005 00cc 5D00     		.ascii	"]\000"
 1006              		.section	.rodata._ZZNK11flatbuffers6VectorIxE3GetEmE19__PRETTY_FUNCTION__,"a",%progbits
 1007              		.align	3
 1008              		.set	.LANCHOR0,. + 0
 1011              	_ZZNK11flatbuffers6VectorIxE3GetEmE19__PRETTY_FUNCTION__:
 1012 0000 666C6174 		.ascii	"flatbuffers::Vector<T>::return_type flatbuffers::Ve"
 1012      62756666 
 1012      6572733A 
 1012      3A566563 
 1012      746F723C 
 1013 0033 63746F72 		.ascii	"ctor<T>::Get(flatbuffers::uoffset_t) const [with T "
 1013      3C543E3A 
 1013      3A476574 
 1013      28666C61 
 1013      74627566 
 1014 0066 3D206C6F 		.ascii	"= long long int; flatbuffers::Vector<T>::return_typ"
 1014      6E67206C 
 1014      6F6E6720 
 1014      696E743B 
 1014      20666C61 
 1015 0099 65203D20 		.ascii	"e = long long int; flatbuffers::uoffset_t = long un"
 1015      6C6F6E67 
 1015      206C6F6E 
 1015      6720696E 
 1015      743B2066 
 1016 00cc 7369676E 		.ascii	"signed int]\000"
 1016      65642069 
 1016      6E745D00 
 1017              		.section	.rodata.str1.4,"aMS",%progbits,1
 1018              		.align	2
 1019              	.LC2:
 1020 0000 466C6174 		.ascii	"FlatBuffers 1.12.0\000"
 1020      42756666 
 1020      65727320 
 1020      312E3132 
 1020      2E3000
 1021              		.ident	"GCC: (GNU Tools for ARM Embedded Processors 6-2017-q2-update) 6.3.1 20170620 (release) [AR