   1              		.cpu cortex-a9
   2              		.eabi_attribute 28, 1
   3              		.eabi_attribute 20, 1
   4              		.eabi_attribute 21, 1
   5              		.eabi_attribute 23, 3
   6              		.eabi_attribute 24, 1
   7              		.eabi_attribute 25, 1
   8              		.eabi_attribute 26, 1
   9              		.eabi_attribute 30, 2
  10              		.eabi_attribute 34, 0
  11              		.eabi_attribute 18, 4
  12              		.file	"test_helpers.cc"
  13              		.section	.text._ZN6tflite7testing12_GLOBAL__N_114StackAllocator10deallocateEPhj,"ax",%progbits
  14              		.align	2
  15              		.syntax unified
  16              		.arm
  17              		.fpu neon
  19              	_ZN6tflite7testing12_GLOBAL__N_114StackAllocator10deallocateEPhj:
  20              		.fnstart
  21              	.LFB7047:
  22              		@ args = 0, pretend = 0, frame = 0
  23              		@ frame_needed = 0, uses_anonymous_args = 0
  24              		@ link register save eliminated.
  25 0000 1EFF2FE1 		bx	lr
  26              		.cantunwind
  27              		.fnend
  29              		.section	.text._ZN6tflite7testing10MockCustom4FreeEP13TfLiteContextPv,"ax",%progbits
  30              		.align	2
  31              		.global	_ZN6tflite7testing10MockCustom4FreeEP13TfLiteContextPv
  32              		.syntax unified
  33              		.arm
  34              		.fpu neon
  36              	_ZN6tflite7testing10MockCustom4FreeEP13TfLiteContextPv:
  37              		.fnstart
  38              	.LFB7078:
  39              		@ args = 0, pretend = 0, frame = 0
  40              		@ frame_needed = 0, uses_anonymous_args = 0
  41              		@ link register save eliminated.
  42 0000 003000E3 		movw	r3, #:lower16:.LANCHOR0
  43 0004 0120A0E3 		mov	r2, #1
  44 0008 003040E3 		movt	r3, #:upper16:.LANCHOR0
  45 000c 0020C3E5 		strb	r2, [r3]
  46 0010 1EFF2FE1 		bx	lr
  47              		.cantunwind
  48              		.fnend
  50              		.section	.text._ZN6tflite7testing14MultipleInputs4FreeEP13TfLiteContextPv,"ax",%progbits
  51              		.align	2
  52              		.global	_ZN6tflite7testing14MultipleInputs4FreeEP13TfLiteContextPv
  53              		.syntax unified
  54              		.arm
  55              		.fpu neon
  57              	_ZN6tflite7testing14MultipleInputs4FreeEP13TfLiteContextPv:
  58              		.fnstart
  59              	.LFB7084:
  60              		@ args = 0, pretend = 0, frame = 0
  61              		@ frame_needed = 0, uses_anonymous_args = 0
  62              		@ link register save eliminated.
  63 0000 003000E3 		movw	r3, #:lower16:.LANCHOR1
  64 0004 0120A0E3 		mov	r2, #1
  65 0008 003040E3 		movt	r3, #:upper16:.LANCHOR1
  66 000c 0020C3E5 		strb	r2, [r3]
  67 0010 1EFF2FE1 		bx	lr
  68              		.cantunwind
  69              		.fnend
  71              		.section	.text._ZN6tflite7testing14MultipleInputs7PrepareEP13TfLiteContextP10TfLiteNode,"ax",%prog
  72              		.align	2
  73              		.global	_ZN6tflite7testing14MultipleInputs7PrepareEP13TfLiteContextP10TfLiteNode
  74              		.syntax unified
  75              		.arm
  76              		.fpu neon
  78              	_ZN6tflite7testing14MultipleInputs7PrepareEP13TfLiteContextP10TfLiteNode:
  79              		.fnstart
  80              	.LFB7085:
  81              		@ args = 0, pretend = 0, frame = 0
  82              		@ frame_needed = 0, uses_anonymous_args = 0
  83              		@ link register save eliminated.
  84 0000 0000A0E3 		mov	r0, #0
  85 0004 1EFF2FE1 		bx	lr
  86              		.cantunwind
  87              		.fnend
  89              		.section	.text._ZN6tflite7testing12_GLOBAL__N_114StackAllocatorD2Ev,"ax",%progbits
  90              		.align	2
  91              		.syntax unified
  92              		.arm
  93              		.fpu neon
  95              	_ZN6tflite7testing12_GLOBAL__N_114StackAllocatorD2Ev:
  96              		.fnstart
  97              	.LFB11658:
  98              		@ args = 0, pretend = 0, frame = 0
  99              		@ frame_needed = 0, uses_anonymous_args = 0
 100              		@ link register save eliminated.
 101 0000 1EFF2FE1 		bx	lr
 102              		.cantunwind
 103              		.fnend
 105              		.set	_ZN6tflite7testing12_GLOBAL__N_114StackAllocatorD1Ev,_ZN6tflite7testing12_GLOBAL__N_114StackA
 106              		.section	.text._ZN11flatbuffers16DefaultAllocatorD2Ev,"axG",%progbits,_ZN11flatbuffers16DefaultAll
 107              		.align	2
 108              		.weak	_ZN11flatbuffers16DefaultAllocatorD2Ev
 109              		.syntax unified
 110              		.arm
 111              		.fpu neon
 113              	_ZN11flatbuffers16DefaultAllocatorD2Ev:
 114              		.fnstart
 115              	.LFB11666:
 116              		@ args = 0, pretend = 0, frame = 0
 117              		@ frame_needed = 0, uses_anonymous_args = 0
 118              		@ link register save eliminated.
 119 0000 1EFF2FE1 		bx	lr
 120              		.cantunwind
 121              		.fnend
 123              		.weak	_ZN11flatbuffers16DefaultAllocatorD1Ev
 124              		.set	_ZN11flatbuffers16DefaultAllocatorD1Ev,_ZN11flatbuffers16DefaultAllocatorD2Ev
 125              		.section	.text._ZN6tflite7testing16SimpleStatefulOp4InitEP13TfLiteContextPKcj,"ax",%progbits
 126              		.align	2
 127              		.global	_ZN6tflite7testing16SimpleStatefulOp4InitEP13TfLiteContextPKcj
 128              		.syntax unified
 129              		.arm
 130              		.fpu neon
 132              	_ZN6tflite7testing16SimpleStatefulOp4InitEP13TfLiteContextPKcj:
 133              		.fnstart
 134              	.LFB7072:
 135              		@ args = 0, pretend = 0, frame = 0
 136              		@ frame_needed = 0, uses_anonymous_args = 0
 137 0000 3C2090E5 		ldr	r2, [r0, #60]
 138 0004 10402DE9 		push	{r4, lr}
 139              		.save {r4, lr}
 140 0008 000052E3 		cmp	r2, #0
 141 000c 0B00001A 		bne	.L9
 142 0010 442090E5 		ldr	r2, [r0, #68]
 143 0014 000052E3 		cmp	r2, #0
 144 0018 0800001A 		bne	.L9
 145 001c 404090E5 		ldr	r4, [r0, #64]
 146 0020 000054E3 		cmp	r4, #0
 147 0024 0500001A 		bne	.L9
 148 0028 383090E5 		ldr	r3, [r0, #56]
 149 002c 0810A0E3 		mov	r1, #8
 150 0030 33FF2FE1 		blx	r3
 151 0034 004080E5 		str	r4, [r0]
 152 0038 044080E5 		str	r4, [r0, #4]
 153 003c 1080BDE8 		pop	{r4, pc}
 154              	.L9:
 155 0040 FEFFFFEB 		bl	abort
 156              		.fnend
 158              		.section	.text._ZN6tflite7testing10MockCustom4InitEP13TfLiteContextPKcj,"ax",%progbits
 159              		.align	2
 160              		.global	_ZN6tflite7testing10MockCustom4InitEP13TfLiteContextPKcj
 161              		.syntax unified
 162              		.arm
 163              		.fpu neon
 165              	_ZN6tflite7testing10MockCustom4InitEP13TfLiteContextPKcj:
 166              		.fnstart
 167              	.LFB7077:
 168              		@ args = 0, pretend = 0, frame = 0
 169              		@ frame_needed = 0, uses_anonymous_args = 0
 170 0000 203090E5 		ldr	r3, [r0, #32]
 171 0004 000053E3 		cmp	r3, #0
 172 0008 0400001A 		bne	.L17
 173 000c 002000E3 		movw	r2, #:lower16:.LANCHOR0
 174 0010 0300A0E1 		mov	r0, r3
 175 0014 002040E3 		movt	r2, #:upper16:.LANCHOR0
 176 0018 0030C2E5 		strb	r3, [r2]
 177 001c 1EFF2FE1 		bx	lr
 178              	.L17:
 179 0020 10402DE9 		push	{r4, lr}
 180              		.save {r4, lr}
 181 0024 FEFFFFEB 		bl	abort
 182              		.fnend
 184              		.section	.text._ZN6tflite7testing14MultipleInputs4InitEP13TfLiteContextPKcj,"ax",%progbits
 185              		.align	2
 186              		.global	_ZN6tflite7testing14MultipleInputs4InitEP13TfLiteContextPKcj
 187              		.syntax unified
 188              		.arm
 189              		.fpu neon
 191              	_ZN6tflite7testing14MultipleInputs4InitEP13TfLiteContextPKcj:
 192              		.fnstart
 193              	.LFB7083:
 194              		@ args = 0, pretend = 0, frame = 0
 195              		@ frame_needed = 0, uses_anonymous_args = 0
 196 0000 203090E5 		ldr	r3, [r0, #32]
 197 0004 000053E3 		cmp	r3, #0
 198 0008 0400001A 		bne	.L23
 199 000c 002000E3 		movw	r2, #:lower16:.LANCHOR1
 200 0010 0300A0E1 		mov	r0, r3
 201 0014 002040E3 		movt	r2, #:upper16:.LANCHOR1
 202 0018 0030C2E5 		strb	r3, [r2]
 203 001c 1EFF2FE1 		bx	lr
 204              	.L23:
 205 0020 10402DE9 		push	{r4, lr}
 206              		.save {r4, lr}
 207 0024 FEFFFFEB 		bl	abort
 208              		.fnend
 210              		.section	.text._ZN6tflite7testing12_GLOBAL__N_114StackAllocator8allocateEj,"ax",%progbits
 211              		.align	2
 212              		.syntax unified
 213              		.arm
 214              		.fpu neon
 216              	_ZN6tflite7testing12_GLOBAL__N_114StackAllocator8allocateEj:
 217              		.fnstart
 218              	.LFB7046:
 219              		@ args = 0, pretend = 0, frame = 0
 220              		@ frame_needed = 0, uses_anonymous_args = 0
 221 0000 022A80E2 		add	r2, r0, #8192
 222 0004 083092E5 		ldr	r3, [r2, #8]
 223 0008 033081E0 		add	r3, r1, r3
 224 000c 020A53E3 		cmp	r3, #8192
 225 0010 0400008A 		bhi	.L29
 226 0014 040092E5 		ldr	r0, [r2, #4]
 227 0018 083082E5 		str	r3, [r2, #8]
 228 001c 011080E0 		add	r1, r0, r1
 229 0020 041082E5 		str	r1, [r2, #4]
 230 0024 1EFF2FE1 		bx	lr
 231              	.L29:
 232 0028 10402DE9 		push	{r4, lr}
 233              		.save {r4, lr}
 234 002c FEFFFFEB 		bl	abort
 235              		.fnend
 237              		.section	.text._ZN6tflite7testing16SimpleStatefulOp7PrepareEP13TfLiteContextP10TfLiteNode,"ax",%pr
 238              		.align	2
 239              		.global	_ZN6tflite7testing16SimpleStatefulOp7PrepareEP13TfLiteContextP10TfLiteNode
 240              		.syntax unified
 241              		.arm
 242              		.fpu neon
 244              	_ZN6tflite7testing16SimpleStatefulOp7PrepareEP13TfLiteContextP10TfLiteNode:
 245              		.fnstart
 246              	.LFB7073:
 247              		@ args = 0, pretend = 0, frame = 32
 248              		@ frame_needed = 0, uses_anonymous_args = 0
 249 0000 10C091E5 		ldr	ip, [r1, #16]
 250 0004 0020A0E3 		mov	r2, #0
 251 0008 F04F2DE9 		push	{r4, r5, r6, r7, r8, r9, r10, fp, lr}
 252              		.save {r4, r5, r6, r7, r8, r9, r10, fp, lr}
 253              		.pad #36
 254 000c 24D04DE2 		sub	sp, sp, #36
 255 0010 1C308DE2 		add	r3, sp, #28
 256 0014 04008DE5 		str	r0, [sp, #4]
 257 0018 08C08DE5 		str	ip, [sp, #8]
 258 001c FEFFFFEB 		bl	_ZN6tflite12GetInputSafeEPK13TfLiteContextPK10TfLiteNodeiPPK12TfLiteTensor
 259 0020 000050E3 		cmp	r0, #0
 260 0024 0400001A 		bne	.L48
 261 0028 1C309DE5 		ldr	r3, [sp, #28]
 262 002c 0020D3E5 		ldrb	r2, [r3]	@ zero_extendqisi2
 263 0030 030052E3 		cmp	r2, #3
 264 0034 0200000A 		beq	.L55
 265              	.L47:
 266 0038 0100A0E3 		mov	r0, #1
 267              	.L48:
 268 003c 24D08DE2 		add	sp, sp, #36
 269              		@ sp needed
 270 0040 F08FBDE8 		pop	{r4, r5, r6, r7, r8, r9, r10, fp, pc}
 271              	.L55:
 272 0044 083093E5 		ldr	r3, [r3, #8]
 273 0048 00B093E5 		ldr	fp, [r3]
 274 004c 0320A0E1 		mov	r2, r3
 275 0050 0C308DE5 		str	r3, [sp, #12]
 276 0054 00005BE3 		cmp	fp, #0
 277 0058 BA0000DA 		ble	.L32
 278 005c 08005BE3 		cmp	fp, #8
 279 0060 B40000DA 		ble	.L45
 280 0064 09304BE2 		sub	r3, fp, #9
 281 0068 0080A0E1 		mov	r8, r0
 282 006c 0730C3E3 		bic	r3, r3, #7
 283 0070 A4E082E2 		add	lr, r2, #164
 284 0074 083083E2 		add	r3, r3, #8
 285 0078 0140A0E3 		mov	r4, #1
 286 007c 0050A0E3 		mov	r5, #0
 287 0080 0390A0E1 		mov	r9, r3
 288 0084 10B08DE5 		str	fp, [sp, #16]
 289              	.L34:
 290 0088 A0201EE5 		ldr	r2, [lr, #-160]
 291 008c 088088E2 		add	r8, r8, #8
 292 0090 9CC01EE5 		ldr	ip, [lr, #-156]
 293 0094 090058E1 		cmp	r8, r9
 294 0098 98601EE5 		ldr	r6, [lr, #-152]
 295 009c 94001EE5 		ldr	r0, [lr, #-148]
 296 00a0 920501E0 		mul	r1, r2, r5
 297 00a4 C2BFA0E1 		asr	fp, r2, #31
 298 00a8 00F0DEF5 		pld	[lr]
 299 00ac 20E08EE2 		add	lr, lr, #32
 300 00b0 922483E0 		umull	r2, r3, r2, r4
 301 00b4 941B21E0 		mla	r1, r4, fp, r1
 302 00b8 CCBFA0E1 		asr	fp, ip, #31
 303 00bc 9C4285E0 		umull	r4, r5, ip, r2
 304 00c0 033081E0 		add	r3, r1, r3
 305 00c4 B0101EE5 		ldr	r1, [lr, #-176]
 306 00c8 9C0307E0 		mul	r7, ip, r3
 307 00cc C63FA0E1 		asr	r3, r6, #31
 308 00d0 927B27E0 		mla	r7, r2, fp, r7
 309 00d4 AC201EE5 		ldr	r2, [lr, #-172]
 310 00d8 C0BFA0E1 		asr	fp, r0, #31
 311 00dc 055087E0 		add	r5, r7, r5
 312 00e0 96050CE0 		mul	ip, r6, r5
 313 00e4 C15FA0E1 		asr	r5, r1, #31
 314 00e8 966487E0 		umull	r6, r7, r6, r4
 315 00ec 94C32CE0 		mla	ip, r4, r3, ip
 316 00f0 A8301EE5 		ldr	r3, [lr, #-168]
 317 00f4 A4401EE5 		ldr	r4, [lr, #-164]
 318 00f8 03A0A0E1 		mov	r10, r3
 319 00fc 07708CE0 		add	r7, ip, r7
 320 0100 90070CE0 		mul	ip, r0, r7
 321 0104 96CB2CE0 		mla	ip, r6, fp, ip
 322 0108 906687E0 		umull	r6, r7, r0, r6
 323 010c C3BFA0E1 		asr	fp, r3, #31
 324 0110 07708CE0 		add	r7, ip, r7
 325 0114 91070CE0 		mul	ip, r1, r7
 326 0118 C27FA0E1 		asr	r7, r2, #31
 327 011c 910681E0 		umull	r0, r1, r1, r6
 328 0120 96C52CE0 		mla	ip, r6, r5, ip
 329 0124 01108CE0 		add	r1, ip, r1
 330 0128 92010CE0 		mul	ip, r2, r1
 331 012c 90C72CE0 		mla	ip, r0, r7, ip
 332 0130 920081E0 		umull	r0, r1, r2, r0
 333 0134 C47FA0E1 		asr	r7, r4, #31
 334 0138 01108CE0 		add	r1, ip, r1
 335 013c 930102E0 		mul	r2, r3, r1
 336 0140 902B22E0 		mla	r2, r0, fp, r2
 337 0144 930081E0 		umull	r0, r1, r3, r0
 338 0148 011082E0 		add	r1, r2, r1
 339 014c 940103E0 		mul	r3, r4, r1
 340 0150 944085E0 		umull	r4, r5, r4, r0
 341 0154 903720E0 		mla	r0, r0, r7, r3
 342 0158 055080E0 		add	r5, r0, r5
 343 015c C9FFFF1A 		bne	.L34
 344 0160 10B09DE5 		ldr	fp, [sp, #16]
 345 0164 0C309DE5 		ldr	r3, [sp, #12]
 346              	.L33:
 347 0168 018088E2 		add	r8, r8, #1
 348 016c 080183E0 		add	r0, r3, r8, lsl #2
 349              	.L36:
 350 0170 042090E4 		ldr	r2, [r0], #4
 351 0174 08005BE1 		cmp	fp, r8
 352 0178 018088E2 		add	r8, r8, #1
 353 017c C27FA0E1 		asr	r7, r2, #31
 354 0180 940703E0 		mul	r3, r4, r7
 355 0184 923523E0 		mla	r3, r2, r5, r3
 356 0188 944285E0 		umull	r4, r5, r4, r2
 357 018c 055083E0 		add	r5, r3, r5
 358 0190 F6FFFFCA 		bgt	.L36
 359 0194 053094E1 		orrs	r3, r4, r5
 360 0198 A6FFFF0A 		beq	.L47
 361 019c 04309DE5 		ldr	r3, [sp, #4]
 362 01a0 08005BE3 		cmp	fp, #8
 363 01a4 0180A0D3 		movle	r8, #1
 364 01a8 0090A0D3 		movle	r9, #0
 365 01ac 00A0A0D3 		movle	r10, #0
 366 01b0 403093E5 		ldr	r3, [r3, #64]
 367 01b4 10308DE5 		str	r3, [sp, #16]
 368 01b8 3F0000DA 		ble	.L40
 369 01bc 09304BE2 		sub	r3, fp, #9
 370 01c0 0C209DE5 		ldr	r2, [sp, #12]
 371 01c4 0730C3E3 		bic	r3, r3, #7
 372 01c8 14B08DE5 		str	fp, [sp, #20]
 373 01cc 083083E2 		add	r3, r3, #8
 374 01d0 0180A0E3 		mov	r8, #1
 375 01d4 A4E082E2 		add	lr, r2, #164
 376 01d8 0090A0E3 		mov	r9, #0
 377 01dc 00A0A0E3 		mov	r10, #0
 378 01e0 03B0A0E1 		mov	fp, r3
 379              	.L39:
 380 01e4 A0601EE5 		ldr	r6, [lr, #-160]
 381 01e8 08A08AE2 		add	r10, r10, #8
 382 01ec 9CC01EE5 		ldr	ip, [lr, #-156]
 383 01f0 0B005AE1 		cmp	r10, fp
 384 01f4 98401EE5 		ldr	r4, [lr, #-152]
 385 01f8 94001EE5 		ldr	r0, [lr, #-148]
 386 01fc 960905E0 		mul	r5, r6, r9
 387 0200 C61FA0E1 		asr	r1, r6, #31
 388 0204 CC7FA0E1 		asr	r7, ip, #31
 389 0208 00F0DEF5 		pld	[lr]
 390 020c 962883E0 		umull	r2, r3, r6, r8
 391 0210 20E08EE2 		add	lr, lr, #32
 392 0214 985125E0 		mla	r5, r8, r1, r5
 393 0218 B0101EE5 		ldr	r1, [lr, #-176]
 394 021c A4801EE5 		ldr	r8, [lr, #-164]
 395 0220 033085E0 		add	r3, r5, r3
 396 0224 9C0305E0 		mul	r5, ip, r3
 397 0228 C43FA0E1 		asr	r3, r4, #31
 398 022c 925725E0 		mla	r5, r2, r7, r5
 399 0230 9C6287E0 		umull	r6, r7, ip, r2
 400 0234 AC201EE5 		ldr	r2, [lr, #-172]
 401 0238 077085E0 		add	r7, r5, r7
 402 023c 94070CE0 		mul	ip, r4, r7
 403 0240 C07FA0E1 		asr	r7, r0, #31
 404 0244 944685E0 		umull	r4, r5, r4, r6
 405 0248 96C32CE0 		mla	ip, r6, r3, ip
 406 024c A8301EE5 		ldr	r3, [lr, #-168]
 407 0250 05508CE0 		add	r5, ip, r5
 408 0254 90050CE0 		mul	ip, r0, r5
 409 0258 94C72CE0 		mla	ip, r4, r7, ip
 410 025c 904485E0 		umull	r4, r5, r0, r4
 411 0260 C17FA0E1 		asr	r7, r1, #31
 412 0264 05508CE0 		add	r5, ip, r5
 413 0268 91050CE0 		mul	ip, r1, r5
 414 026c C25FA0E1 		asr	r5, r2, #31
 415 0270 910481E0 		umull	r0, r1, r1, r4
 416 0274 94C72CE0 		mla	ip, r4, r7, ip
 417 0278 C37FA0E1 		asr	r7, r3, #31
 418 027c 01108CE0 		add	r1, ip, r1
 419 0280 92010CE0 		mul	ip, r2, r1
 420 0284 90C52CE0 		mla	ip, r0, r5, ip
 421 0288 920081E0 		umull	r0, r1, r2, r0
 422 028c C85FA0E1 		asr	r5, r8, #31
 423 0290 01108CE0 		add	r1, ip, r1
 424 0294 930102E0 		mul	r2, r3, r1
 425 0298 902722E0 		mla	r2, r0, r7, r2
 426 029c 930081E0 		umull	r0, r1, r3, r0
 427 02a0 011082E0 		add	r1, r2, r1
 428 02a4 980103E0 		mul	r3, r8, r1
 429 02a8 988089E0 		umull	r8, r9, r8, r0
 430 02ac 903520E0 		mla	r0, r0, r5, r3
 431 02b0 099080E0 		add	r9, r0, r9
 432 02b4 CAFFFF1A 		bne	.L39
 433 02b8 14B09DE5 		ldr	fp, [sp, #20]
 434              	.L40:
 435 02bc 0C309DE5 		ldr	r3, [sp, #12]
 436 02c0 01A08AE2 		add	r10, r10, #1
 437 02c4 0A0183E0 		add	r0, r3, r10, lsl #2
 438              	.L38:
 439 02c8 042090E4 		ldr	r2, [r0], #4
 440 02cc 0B005AE1 		cmp	r10, fp
 441 02d0 01A08AE2 		add	r10, r10, #1
 442 02d4 C25FA0E1 		asr	r5, r2, #31
 443 02d8 980503E0 		mul	r3, r8, r5
 444 02dc 923923E0 		mla	r3, r2, r9, r3
 445 02e0 988289E0 		umull	r8, r9, r8, r2
 446 02e4 099083E0 		add	r9, r3, r9
 447 02e8 F6FFFFBA 		blt	.L38
 448 02ec 0810A0E1 		mov	r1, r8
 449              	.L41:
 450 02f0 08309DE5 		ldr	r3, [sp, #8]
 451 02f4 04009DE5 		ldr	r0, [sp, #4]
 452 02f8 042083E2 		add	r2, r3, #4
 453 02fc 10309DE5 		ldr	r3, [sp, #16]
 454 0300 33FF2FE1 		blx	r3
 455 0304 004050E2 		subs	r4, r0, #0
 456 0308 0400A011 		movne	r0, r4
 457 030c 4AFFFF1A 		bne	.L48
 458 0310 04009DE5 		ldr	r0, [sp, #4]
 459 0314 0410A0E3 		mov	r1, #4
 460 0318 383090E5 		ldr	r3, [r0, #56]
 461 031c 33FF2FE1 		blx	r3
 462 0320 08209DE5 		ldr	r2, [sp, #8]
 463 0324 0030A0E1 		mov	r3, r0
 464 0328 000082E5 		str	r0, [r2]
 465 032c 0400A0E1 		mov	r0, r4
 466 0330 004083E5 		str	r4, [r3]
 467 0334 40FFFFEA 		b	.L48
 468              	.L45:
 469 0338 0080A0E1 		mov	r8, r0
 470 033c 0140A0E3 		mov	r4, #1
 471 0340 0050A0E3 		mov	r5, #0
 472 0344 87FFFFEA 		b	.L33
 473              	.L32:
 474 0348 04309DE5 		ldr	r3, [sp, #4]
 475 034c 0110A0E3 		mov	r1, #1
 476 0350 403093E5 		ldr	r3, [r3, #64]
 477 0354 10308DE5 		str	r3, [sp, #16]
 478 0358 E4FFFFEA 		b	.L41
 479              		.fnend
 481              		.section	.text._ZN6tflite7testing10MockCustom6InvokeEP13TfLiteContextP10TfLiteNode,"ax",%progbits
 482              		.align	2
 483              		.global	_ZN6tflite7testing10MockCustom6InvokeEP13TfLiteContextP10TfLiteNode
 484              		.syntax unified
 485              		.arm
 486              		.fpu neon
 488              	_ZN6tflite7testing10MockCustom6InvokeEP13TfLiteContextP10TfLiteNode:
 489              		.fnstart
 490              	.LFB7080:
 491              		@ args = 0, pretend = 0, frame = 16
 492              		@ frame_needed = 0, uses_anonymous_args = 0
 493 0000 70402DE9 		push	{r4, r5, r6, lr}
 494              		.save {r4, r5, r6, lr}
 495              		.pad #16
 496 0004 10D04DE2 		sub	sp, sp, #16
 497 0008 04308DE2 		add	r3, sp, #4
 498 000c 0020A0E3 		mov	r2, #0
 499 0010 0040A0E1 		mov	r4, r0
 500 0014 0150A0E1 		mov	r5, r1
 501 0018 FEFFFFEB 		bl	_ZN6tflite12GetInputSafeEPK13TfLiteContextPK10TfLiteNodeiPPK12TfLiteTensor
 502 001c 000050E3 		cmp	r0, #0
 503 0020 0100000A 		beq	.L59
 504              	.L57:
 505 0024 10D08DE2 		add	sp, sp, #16
 506              		@ sp needed
 507 0028 7080BDE8 		pop	{r4, r5, r6, pc}
 508              	.L59:
 509 002c 04C09DE5 		ldr	ip, [sp, #4]
 510 0030 08308DE2 		add	r3, sp, #8
 511 0034 0120A0E3 		mov	r2, #1
 512 0038 0510A0E1 		mov	r1, r5
 513 003c 0400A0E1 		mov	r0, r4
 514 0040 04609CE5 		ldr	r6, [ip, #4]
 515 0044 FEFFFFEB 		bl	_ZN6tflite12GetInputSafeEPK13TfLiteContextPK10TfLiteNodeiPPK12TfLiteTensor
 516 0048 000050E3 		cmp	r0, #0
 517 004c F4FFFF1A 		bne	.L57
 518 0050 08C09DE5 		ldr	ip, [sp, #8]
 519 0054 0020A0E1 		mov	r2, r0
 520 0058 0510A0E1 		mov	r1, r5
 521 005c 0400A0E1 		mov	r0, r4
 522 0060 0C308DE2 		add	r3, sp, #12
 523 0064 04409CE5 		ldr	r4, [ip, #4]
 524 0068 FEFFFFEB 		bl	_ZN6tflite13GetOutputSafeEPK13TfLiteContextPK10TfLiteNodeiPP12TfLiteTensor
 525 006c 000050E3 		cmp	r0, #0
 526 0070 EBFFFF1A 		bne	.L57
 527 0074 0C309DE5 		ldr	r3, [sp, #12]
 528 0078 042093E5 		ldr	r2, [r3, #4]
 529 007c 000082E5 		str	r0, [r2]
 530 0080 0010D4E5 		ldrb	r1, [r4]	@ zero_extendqisi2
 531 0084 003096E5 		ldr	r3, [r6]
 532 0088 013083E0 		add	r3, r3, r1
 533 008c 003082E5 		str	r3, [r2]
 534 0090 E3FFFFEA 		b	.L57
 535              		.fnend
 537              		.section	.text._ZN6tflite7testing14MultipleInputs6InvokeEP13TfLiteContextP10TfLiteNode,"ax",%progb
 538              		.align	2
 539              		.global	_ZN6tflite7testing14MultipleInputs6InvokeEP13TfLiteContextP10TfLiteNode
 540              		.syntax unified
 541              		.arm
 542              		.fpu neon
 544              	_ZN6tflite7testing14MultipleInputs6InvokeEP13TfLiteContextP10TfLiteNode:
 545              		.fnstart
 546              	.LFB7086:
 547              		@ args = 0, pretend = 0, frame = 16
 548              		@ frame_needed = 0, uses_anonymous_args = 0
 549 0000 F0402DE9 		push	{r4, r5, r6, r7, lr}
 550              		.save {r4, r5, r6, r7, lr}
 551              		.pad #20
 552 0004 14D04DE2 		sub	sp, sp, #20
 553 0008 0D30A0E1 		mov	r3, sp
 554 000c 0020A0E3 		mov	r2, #0
 555 0010 0040A0E1 		mov	r4, r0
 556 0014 0150A0E1 		mov	r5, r1
 557 0018 FEFFFFEB 		bl	_ZN6tflite12GetInputSafeEPK13TfLiteContextPK10TfLiteNodeiPPK12TfLiteTensor
 558 001c 000050E3 		cmp	r0, #0
 559 0020 0100000A 		beq	.L63
 560              	.L61:
 561 0024 14D08DE2 		add	sp, sp, #20
 562              		@ sp needed
 563 0028 F080BDE8 		pop	{r4, r5, r6, r7, pc}
 564              	.L63:
 565 002c 00C09DE5 		ldr	ip, [sp]
 566 0030 04308DE2 		add	r3, sp, #4
 567 0034 0120A0E3 		mov	r2, #1
 568 0038 0510A0E1 		mov	r1, r5
 569 003c 0400A0E1 		mov	r0, r4
 570 0040 04609CE5 		ldr	r6, [ip, #4]
 571 0044 FEFFFFEB 		bl	_ZN6tflite12GetInputSafeEPK13TfLiteContextPK10TfLiteNodeiPPK12TfLiteTensor
 572 0048 000050E3 		cmp	r0, #0
 573 004c F4FFFF1A 		bne	.L61
 574 0050 04C09DE5 		ldr	ip, [sp, #4]
 575 0054 08308DE2 		add	r3, sp, #8
 576 0058 0220A0E3 		mov	r2, #2
 577 005c 0510A0E1 		mov	r1, r5
 578 0060 0400A0E1 		mov	r0, r4
 579 0064 04709CE5 		ldr	r7, [ip, #4]
 580 0068 FEFFFFEB 		bl	_ZN6tflite12GetInputSafeEPK13TfLiteContextPK10TfLiteNodeiPPK12TfLiteTensor
 581 006c 000050E3 		cmp	r0, #0
 582 0070 EBFFFF1A 		bne	.L61
 583 0074 08C09DE5 		ldr	ip, [sp, #8]
 584 0078 0020A0E1 		mov	r2, r0
 585 007c 0510A0E1 		mov	r1, r5
 586 0080 0400A0E1 		mov	r0, r4
 587 0084 0C308DE2 		add	r3, sp, #12
 588 0088 04409CE5 		ldr	r4, [ip, #4]
 589 008c FEFFFFEB 		bl	_ZN6tflite13GetOutputSafeEPK13TfLiteContextPK10TfLiteNodeiPP12TfLiteTensor
 590 0090 000050E3 		cmp	r0, #0
 591 0094 E2FFFF1A 		bne	.L61
 592 0098 0C309DE5 		ldr	r3, [sp, #12]
 593 009c 042093E5 		ldr	r2, [r3, #4]
 594 00a0 000082E5 		str	r0, [r2]
 595 00a4 003096E5 		ldr	r3, [r6]
 596 00a8 00C097E5 		ldr	ip, [r7]
 597 00ac 001094E5 		ldr	r1, [r4]
 598 00b0 0C3083E0 		add	r3, r3, ip
 599 00b4 013083E0 		add	r3, r3, r1
 600 00b8 003082E5 		str	r3, [r2]
 601 00bc D8FFFFEA 		b	.L61
 602              		.fnend
 604              		.section	.text._ZN6tflite7testing16SimpleStatefulOp6InvokeEP13TfLiteContextP10TfLiteNode,"ax",%pro
 605              		.align	2
 606              		.global	_ZN6tflite7testing16SimpleStatefulOp6InvokeEP13TfLiteContextP10TfLiteNode
 607              		.syntax unified
 608              		.arm
 609              		.fpu neon
 611              	_ZN6tflite7testing16SimpleStatefulOp6InvokeEP13TfLiteContextP10TfLiteNode:
 612              		.fnstart
 613              	.LFB7074:
 614              		@ args = 0, pretend = 0, frame = 48
 615              		@ frame_needed = 0, uses_anonymous_args = 0
 616 0000 102091E5 		ldr	r2, [r1, #16]
 617 0004 F04F2DE9 		push	{r4, r5, r6, r7, r8, r9, r10, fp, lr}
 618              		.save {r4, r5, r6, r7, r8, r9, r10, fp, lr}
 619              		.pad #52
 620 0008 34D04DE2 		sub	sp, sp, #52
 621 000c 24308DE2 		add	r3, sp, #36
 622 0010 0C108DE5 		str	r1, [sp, #12]
 623 0014 02C0A0E1 		mov	ip, r2
 624 0018 00E09CE5 		ldr	lr, [ip]
 625 001c 10208DE5 		str	r2, [sp, #16]
 626 0020 0020A0E3 		mov	r2, #0
 627 0024 08008DE5 		str	r0, [sp, #8]
 628 0028 00C09EE5 		ldr	ip, [lr]
 629 002c 01C08CE2 		add	ip, ip, #1
 630 0030 00C08EE5 		str	ip, [lr]
 631 0034 FEFFFFEB 		bl	_ZN6tflite12GetInputSafeEPK13TfLiteContextPK10TfLiteNodeiPPK12TfLiteTensor
 632 0038 000050E3 		cmp	r0, #0
 633 003c F800001A 		bne	.L93
 634 0040 24309DE5 		ldr	r3, [sp, #36]
 635 0044 000053E3 		cmp	r3, #0
 636 0048 04209315 		ldrne	r2, [r3, #4]
 637 004c 14308D05 		streq	r3, [sp, #20]
 638 0050 083093E5 		ldr	r3, [r3, #8]
 639 0054 14208D15 		strne	r2, [sp, #20]
 640 0058 18308DE5 		str	r3, [sp, #24]
 641 005c 0320A0E1 		mov	r2, r3
 642 0060 003093E5 		ldr	r3, [r3]
 643 0064 000053E3 		cmp	r3, #0
 644 0068 1C308DE5 		str	r3, [sp, #28]
 645 006c FC0000DA 		ble	.L67
 646 0070 080053E3 		cmp	r3, #8
 647 0074 020100DA 		ble	.L90
 648 0078 093043E2 		sub	r3, r3, #9
 649 007c A4E082E2 		add	lr, r2, #164
 650 0080 0730C3E3 		bic	r3, r3, #7
 651 0084 01A0A0E3 		mov	r10, #1
 652 0088 00B0A0E3 		mov	fp, #0
 653 008c 0080A0E3 		mov	r8, #0
 654 0090 083083E2 		add	r3, r3, #8
 655 0094 04308DE5 		str	r3, [sp, #4]
 656              	.L69:
 657 0098 A0201EE5 		ldr	r2, [lr, #-160]
 658 009c 088088E2 		add	r8, r8, #8
 659 00a0 04309DE5 		ldr	r3, [sp, #4]
 660 00a4 9C401EE5 		ldr	r4, [lr, #-156]
 661 00a8 94001EE5 		ldr	r0, [lr, #-148]
 662 00ac 920B01E0 		mul	r1, r2, fp
 663 00b0 C27FA0E1 		asr	r7, r2, #31
 664 00b4 030058E1 		cmp	r8, r3
 665 00b8 00F0DEF5 		pld	[lr]
 666 00bc 922A83E0 		umull	r2, r3, r2, r10
 667 00c0 20E08EE2 		add	lr, lr, #32
 668 00c4 9A172AE0 		mla	r10, r10, r7, r1
 669 00c8 B8101EE5 		ldr	r1, [lr, #-184]
 670 00cc C47FA0E1 		asr	r7, r4, #31
 671 00d0 03308AE0 		add	r3, r10, r3
 672 00d4 A4A01EE5 		ldr	r10, [lr, #-164]
 673 00d8 94030CE0 		mul	ip, r4, r3
 674 00dc B0301EE5 		ldr	r3, [lr, #-176]
 675 00e0 944285E0 		umull	r4, r5, r4, r2
 676 00e4 92C72CE0 		mla	ip, r2, r7, ip
 677 00e8 AC201EE5 		ldr	r2, [lr, #-172]
 678 00ec C17FA0E1 		asr	r7, r1, #31
 679 00f0 05508CE0 		add	r5, ip, r5
 680 00f4 A8C01EE5 		ldr	ip, [lr, #-168]
 681 00f8 910509E0 		mul	r9, r1, r5
 682 00fc 949729E0 		mla	r9, r4, r7, r9
 683 0100 914485E0 		umull	r4, r5, r1, r4
 684 0104 C07FA0E1 		asr	r7, r0, #31
 685 0108 055089E0 		add	r5, r9, r5
 686 010c 900506E0 		mul	r6, r0, r5
 687 0110 C35FA0E1 		asr	r5, r3, #31
 688 0114 900481E0 		umull	r0, r1, r0, r4
 689 0118 946726E0 		mla	r6, r4, r7, r6
 690 011c C27FA0E1 		asr	r7, r2, #31
 691 0120 011086E0 		add	r1, r6, r1
 692 0124 930109E0 		mul	r9, r3, r1
 693 0128 909529E0 		mla	r9, r0, r5, r9
 694 012c 930081E0 		umull	r0, r1, r3, r0
 695 0130 CC5FA0E1 		asr	r5, ip, #31
 696 0134 011089E0 		add	r1, r9, r1
 697 0138 920104E0 		mul	r4, r2, r1
 698 013c CA1FA0E1 		asr	r1, r10, #31
 699 0140 922083E0 		umull	r2, r3, r2, r0
 700 0144 904724E0 		mla	r4, r0, r7, r4
 701 0148 033084E0 		add	r3, r4, r3
 702 014c 9C0300E0 		mul	r0, ip, r3
 703 0150 920520E0 		mla	r0, r2, r5, r0
 704 0154 9C2283E0 		umull	r2, r3, ip, r2
 705 0158 033080E0 		add	r3, r0, r3
 706 015c 9A030CE0 		mul	ip, r10, r3
 707 0160 9AA28BE0 		umull	r10, fp, r10, r2
 708 0164 92C122E0 		mla	r2, r2, r1, ip
 709 0168 0BB082E0 		add	fp, r2, fp
 710 016c C9FFFF1A 		bne	.L69
 711 0170 18309DE5 		ldr	r3, [sp, #24]
 712              	.L68:
 713 0174 018088E2 		add	r8, r8, #1
 714 0178 1C109DE5 		ldr	r1, [sp, #28]
 715 017c 080183E0 		add	r0, r3, r8, lsl #2
 716 0180 000000EA 		b	.L70
 717              	.L104:
 718 0184 018088E2 		add	r8, r8, #1
 719              	.L70:
 720 0188 042090E4 		ldr	r2, [r0], #4
 721 018c 080051E1 		cmp	r1, r8
 722 0190 C25FA0E1 		asr	r5, r2, #31
 723 0194 9A0503E0 		mul	r3, r10, r5
 724 0198 923B23E0 		mla	r3, r2, fp, r3
 725 019c 9AA28BE0 		umull	r10, fp, r10, r2
 726 01a0 0BB083E0 		add	fp, r3, fp
 727 01a4 F6FFFFCA 		bgt	.L104
 728 01a8 08009DE5 		ldr	r0, [sp, #8]
 729 01ac 0A50A0E1 		mov	r5, r10
 730 01b0 10209DE5 		ldr	r2, [sp, #16]
 731 01b4 443090E5 		ldr	r3, [r0, #68]
 732 01b8 041092E5 		ldr	r1, [r2, #4]
 733 01bc 33FF2FE1 		blx	r3
 734 01c0 00005AE3 		cmp	r10, #0
 735 01c4 0040A0E1 		mov	r4, r0
 736 01c8 790000DA 		ble	.L79
 737              	.L71:
 738 01cc 14109DE5 		ldr	r1, [sp, #20]
 739 01d0 103084E2 		add	r3, r4, #16
 740 01d4 102081E2 		add	r2, r1, #16
 741 01d8 020054E1 		cmp	r4, r2
 742 01dc 03005131 		cmpcc	r1, r3
 743 01e0 012084E1 		orr	r2, r4, r1
 744 01e4 0130A023 		movcs	r3, #1
 745 01e8 0030A033 		movcc	r3, #0
 746 01ec 0F0055E3 		cmp	r5, #15
 747 01f0 0030A093 		movls	r3, #0
 748 01f4 01300382 		andhi	r3, r3, #1
 749 01f8 0F0012E3 		tst	r2, #15
 750 01fc 0030A013 		movne	r3, #0
 751 0200 01300302 		andeq	r3, r3, #1
 752 0204 000053E3 		cmp	r3, #0
 753 0208 8B00000A 		beq	.L73
 754 020c 102045E2 		sub	r2, r5, #16
 755 0210 0F0055E3 		cmp	r5, #15
 756 0214 2222A0E1 		lsr	r2, r2, #4
 757 0218 012082E2 		add	r2, r2, #1
 758 021c 0232A0E1 		lsl	r3, r2, #4
 759 0220 8D0000DA 		ble	.L91
 760 0224 01C0A0E1 		mov	ip, r1
 761 0228 0400A0E1 		mov	r0, r4
 762 022c 0010A0E3 		mov	r1, #0
 763              	.L76:
 764 0230 011081E2 		add	r1, r1, #1
 765 0234 DF0A6CF4 		vld1.64	{d16-d17}, [ip:64]
 766 0238 010052E1 		cmp	r2, r1
 767 023c 10C08CE2 		add	ip, ip, #16
 768 0240 DF0A40F4 		vst1.64	{d16-d17}, [r0:64]
 769 0244 100080E2 		add	r0, r0, #16
 770 0248 F8FFFF8A 		bhi	.L76
 771 024c 050053E1 		cmp	r3, r5
 772 0250 4700000A 		beq	.L81
 773              	.L74:
 774 0254 14C09DE5 		ldr	ip, [sp, #20]
 775 0258 012083E2 		add	r2, r3, #1
 776 025c 050052E1 		cmp	r2, r5
 777 0260 0310DCE7 		ldrb	r1, [ip, r3]	@ zero_extendqisi2
 778 0264 0310C4E7 		strb	r1, [r4, r3]
 779 0268 410000AA 		bge	.L81
 780 026c 0200DCE7 		ldrb	r0, [ip, r2]	@ zero_extendqisi2
 781 0270 021083E2 		add	r1, r3, #2
 782 0274 010055E1 		cmp	r5, r1
 783 0278 0200C4E7 		strb	r0, [r4, r2]
 784 027c 3C0000DA 		ble	.L81
 785 0280 0100DCE7 		ldrb	r0, [ip, r1]	@ zero_extendqisi2
 786 0284 032083E2 		add	r2, r3, #3
 787 0288 020055E1 		cmp	r5, r2
 788 028c 0100C4E7 		strb	r0, [r4, r1]
 789 0290 370000DA 		ble	.L81
 790 0294 0200DCE7 		ldrb	r0, [ip, r2]	@ zero_extendqisi2
 791 0298 041083E2 		add	r1, r3, #4
 792 029c 010055E1 		cmp	r5, r1
 793 02a0 0200C4E7 		strb	r0, [r4, r2]
 794 02a4 320000DA 		ble	.L81
 795 02a8 0100DCE7 		ldrb	r0, [ip, r1]	@ zero_extendqisi2
 796 02ac 052083E2 		add	r2, r3, #5
 797 02b0 020055E1 		cmp	r5, r2
 798 02b4 0100C4E7 		strb	r0, [r4, r1]
 799 02b8 2D0000DA 		ble	.L81
 800 02bc 0200DCE7 		ldrb	r0, [ip, r2]	@ zero_extendqisi2
 801 02c0 061083E2 		add	r1, r3, #6
 802 02c4 010055E1 		cmp	r5, r1
 803 02c8 0200C4E7 		strb	r0, [r4, r2]
 804 02cc 280000DA 		ble	.L81
 805 02d0 0100DCE7 		ldrb	r0, [ip, r1]	@ zero_extendqisi2
 806 02d4 072083E2 		add	r2, r3, #7
 807 02d8 020055E1 		cmp	r5, r2
 808 02dc 0100C4E7 		strb	r0, [r4, r1]
 809 02e0 230000DA 		ble	.L81
 810 02e4 0200DCE7 		ldrb	r0, [ip, r2]	@ zero_extendqisi2
 811 02e8 081083E2 		add	r1, r3, #8
 812 02ec 010055E1 		cmp	r5, r1
 813 02f0 0200C4E7 		strb	r0, [r4, r2]
 814 02f4 1E0000DA 		ble	.L81
 815 02f8 0100DCE7 		ldrb	r0, [ip, r1]	@ zero_extendqisi2
 816 02fc 092083E2 		add	r2, r3, #9
 817 0300 020055E1 		cmp	r5, r2
 818 0304 0100C4E7 		strb	r0, [r4, r1]
 819 0308 190000DA 		ble	.L81
 820 030c 0200DCE7 		ldrb	r0, [ip, r2]	@ zero_extendqisi2
 821 0310 0A1083E2 		add	r1, r3, #10
 822 0314 010055E1 		cmp	r5, r1
 823 0318 0200C4E7 		strb	r0, [r4, r2]
 824 031c 140000DA 		ble	.L81
 825 0320 0100DCE7 		ldrb	r0, [ip, r1]	@ zero_extendqisi2
 826 0324 0B2083E2 		add	r2, r3, #11
 827 0328 020055E1 		cmp	r5, r2
 828 032c 0100C4E7 		strb	r0, [r4, r1]
 829 0330 0F0000DA 		ble	.L81
 830 0334 0200DCE7 		ldrb	r0, [ip, r2]	@ zero_extendqisi2
 831 0338 0C1083E2 		add	r1, r3, #12
 832 033c 010055E1 		cmp	r5, r1
 833 0340 0200C4E7 		strb	r0, [r4, r2]
 834 0344 0A0000DA 		ble	.L81
 835 0348 0100DCE7 		ldrb	r0, [ip, r1]	@ zero_extendqisi2
 836 034c 0D2083E2 		add	r2, r3, #13
 837 0350 020055E1 		cmp	r5, r2
 838 0354 0100C4E7 		strb	r0, [r4, r1]
 839 0358 050000DA 		ble	.L81
 840 035c 0E3083E2 		add	r3, r3, #14
 841 0360 0210DCE7 		ldrb	r1, [ip, r2]	@ zero_extendqisi2
 842 0364 030055E1 		cmp	r5, r3
 843 0368 0210C4E7 		strb	r1, [r4, r2]
 844 036c 0320DCC7 		ldrbgt	r2, [ip, r3]	@ zero_extendqisi2
 845 0370 0320C4C7 		strbgt	r2, [r4, r3]
 846              	.L81:
 847 0374 010055E3 		cmp	r5, #1
 848 0378 010084C2 		addgt	r0, r4, #1
 849 037c 05C084C0 		addgt	ip, r4, r5
 850 0380 0B0000DA 		ble	.L79
 851              	.L84:
 852 0384 0030A0E1 		mov	r3, r0
 853              	.L86:
 854 0388 0020D3E5 		ldrb	r2, [r3]	@ zero_extendqisi2
 855 038c 011053E5 		ldrb	r1, [r3, #-1]	@ zero_extendqisi2
 856 0390 010052E1 		cmp	r2, r1
 857 0394 030000AA 		bge	.L85
 858 0398 0010C3E5 		strb	r1, [r3]
 859 039c 012063E5 		strb	r2, [r3, #-1]!
 860 03a0 030054E1 		cmp	r4, r3
 861 03a4 F7FFFF1A 		bne	.L86
 862              	.L85:
 863 03a8 010080E2 		add	r0, r0, #1
 864 03ac 0C0050E1 		cmp	r0, ip
 865 03b0 F3FFFF1A 		bne	.L84
 866              	.L79:
 867 03b4 28308DE2 		add	r3, sp, #40
 868 03b8 0020A0E3 		mov	r2, #0
 869 03bc 0C109DE5 		ldr	r1, [sp, #12]
 870 03c0 08009DE5 		ldr	r0, [sp, #8]
 871 03c4 FEFFFFEB 		bl	_ZN6tflite13GetOutputSafeEPK13TfLiteContextPK10TfLiteNodeiPP12TfLiteTensor
 872 03c8 000050E3 		cmp	r0, #0
 873 03cc 1400001A 		bne	.L93
 874 03d0 28609DE5 		ldr	r6, [sp, #40]
 875 03d4 2C308DE2 		add	r3, sp, #44
 876 03d8 0C109DE5 		ldr	r1, [sp, #12]
 877 03dc 0120A0E3 		mov	r2, #1
 878 03e0 08009DE5 		ldr	r0, [sp, #8]
 879 03e4 000056E3 		cmp	r6, #0
 880 03e8 04609615 		ldrne	r6, [r6, #4]
 881 03ec FEFFFFEB 		bl	_ZN6tflite13GetOutputSafeEPK13TfLiteContextPK10TfLiteNodeiPP12TfLiteTensor
 882 03f0 000050E3 		cmp	r0, #0
 883 03f4 0A00001A 		bne	.L93
 884 03f8 2C309DE5 		ldr	r3, [sp, #44]
 885 03fc A55F85E0 		add	r5, r5, r5, lsr #31
 886 0400 000053E3 		cmp	r3, #0
 887 0404 0800000A 		beq	.L88
 888 0408 C520D4E7 		ldrb	r2, [r4, r5, asr #1]	@ zero_extendqisi2
 889 040c 043093E5 		ldr	r3, [r3, #4]
 890 0410 0020C6E5 		strb	r2, [r6]
 891 0414 10209DE5 		ldr	r2, [sp, #16]
 892 0418 002092E5 		ldr	r2, [r2]
 893 041c 002092E5 		ldr	r2, [r2]
 894 0420 002083E5 		str	r2, [r3]
 895              	.L93:
 896 0424 34D08DE2 		add	sp, sp, #52
 897              		@ sp needed
 898 0428 F08FBDE8 		pop	{r4, r5, r6, r7, r8, r9, r10, fp, pc}
 899              	.L88:
 900 042c C520D4E7 		ldrb	r2, [r4, r5, asr #1]	@ zero_extendqisi2
 901 0430 0020C6E5 		strb	r2, [r6]
 902 0434 003083E5 		str	r3, [r3]
 903 0438 F000F0E7 		.inst	0xe7f000f0
 904              	.L73:
 905 043c 011041E2 		sub	r1, r1, #1
 906 0440 012044E2 		sub	r2, r4, #1
 907              	.L82:
 908 0444 013083E2 		add	r3, r3, #1
 909 0448 0100F1E5 		ldrb	r0, [r1, #1]!	@ zero_extendqisi2
 910 044c 030055E1 		cmp	r5, r3
 911 0450 0100E2E5 		strb	r0, [r2, #1]!
 912 0454 FAFFFFCA 		bgt	.L82
 913 0458 C5FFFFEA 		b	.L81
 914              	.L91:
 915 045c 0030A0E3 		mov	r3, #0
 916 0460 7BFFFFEA 		b	.L74
 917              	.L67:
 918 0464 08009DE5 		ldr	r0, [sp, #8]
 919 0468 0150A0E3 		mov	r5, #1
 920 046c 10209DE5 		ldr	r2, [sp, #16]
 921 0470 443090E5 		ldr	r3, [r0, #68]
 922 0474 041092E5 		ldr	r1, [r2, #4]
 923 0478 33FF2FE1 		blx	r3
 924 047c 0040A0E1 		mov	r4, r0
 925 0480 51FFFFEA 		b	.L71
 926              	.L90:
 927 0484 01A0A0E3 		mov	r10, #1
 928 0488 00B0A0E3 		mov	fp, #0
 929 048c 0080A0E3 		mov	r8, #0
 930 0490 0230A0E1 		mov	r3, r2
 931 0494 36FFFFEA 		b	.L68
 932              		.fnend
 934              		.section	.text._ZNK6tflite22MicroMutableOpResolverILj128EE6FindOpEPKc,"axG",%progbits,_ZNK6tflite2
 935              		.align	2
 936              		.weak	_ZNK6tflite22MicroMutableOpResolverILj128EE6FindOpEPKc
 937              		.syntax unified
 938              		.arm
 939              		.fpu neon
 941              	_ZNK6tflite22MicroMutableOpResolverILj128EE6FindOpEPKc:
 942              		.fnstart
 943              	.LFB9706:
 944              		@ args = 0, pretend = 0, frame = 0
 945              		@ frame_needed = 0, uses_anonymous_args = 0
 946 0000 013A80E2 		add	r3, r0, #4096
 947 0004 F0412DE9 		push	{r4, r5, r6, r7, r8, lr}
 948 0008 046093E5 		ldr	r6, [r3, #4]
 949 000c 000056E3 		cmp	r6, #0
 950 0010 1300000A 		beq	.L112
 951 0014 0170A0E1 		mov	r7, r1
 952 0018 0080A0E1 		mov	r8, r0
 953 001c 0040A0E1 		mov	r4, r0
 954 0020 0050A0E3 		mov	r5, #0
 955 0024 030000EA 		b	.L108
 956              	.L107:
 957 0028 015085E2 		add	r5, r5, #1
 958 002c 204084E2 		add	r4, r4, #32
 959 0030 060055E1 		cmp	r5, r6
 960 0034 0A00000A 		beq	.L112
 961              	.L108:
 962 0038 183094E5 		ldr	r3, [r4, #24]
 963 003c 200053E3 		cmp	r3, #32
 964 0040 F8FFFF1A 		bne	.L107
 965 0044 0710A0E1 		mov	r1, r7
 966 0048 1C0094E5 		ldr	r0, [r4, #28]
 967 004c FEFFFFEB 		bl	strcmp
 968 0050 000050E3 		cmp	r0, #0
 969 0054 F3FFFF1A 		bne	.L107
 970 0058 850288E0 		add	r0, r8, r5, lsl #5
 971 005c 040080E2 		add	r0, r0, #4
 972 0060 F081BDE8 		pop	{r4, r5, r6, r7, r8, pc}
 973              	.L112:
 974 0064 0000A0E3 		mov	r0, #0
 975 0068 F081BDE8 		pop	{r4, r5, r6, r7, r8, pc}
 976              		.cantunwind
 977              		.fnend
 979              		.section	.text._ZN6tflite7testing12_GLOBAL__N_114StackAllocatorD0Ev,"ax",%progbits
 980              		.align	2
 981              		.syntax unified
 982              		.arm
 983              		.fpu neon
 985              	_ZN6tflite7testing12_GLOBAL__N_114StackAllocatorD0Ev:
 986              		.fnstart
 987              	.LFB11660:
 988              		@ args = 0, pretend = 0, frame = 0
 989              		@ frame_needed = 0, uses_anonymous_args = 0
 990 0000 10402DE9 		push	{r4, lr}
 991 0004 0C1002E3 		movw	r1, #8204
 992 0008 0040A0E1 		mov	r4, r0
 993 000c FEFFFFEB 		bl	_ZdlPvj
 994 0010 0400A0E1 		mov	r0, r4
 995 0014 1080BDE8 		pop	{r4, pc}
 996              		.cantunwind
 997              		.fnend
 999              		.section	.text._ZN11flatbuffers16DefaultAllocatorD0Ev,"axG",%progbits,_ZN11flatbuffers16DefaultAll
 1000              		.align	2
 1001              		.weak	_ZN11flatbuffers16DefaultAllocatorD0Ev
 1002              		.syntax unified
 1003              		.arm
 1004              		.fpu neon
 1006              	_ZN11flatbuffers16DefaultAllocatorD0Ev:
 1007              		.fnstart
 1008              	.LFB11668:
 1009              		@ args = 0, pretend = 0, frame = 0
 1010              		@ frame_needed = 0, uses_anonymous_args = 0
 1011 0000 10402DE9 		push	{r4, lr}
 1012 0004 0410A0E3 		mov	r1, #4
 1013 0008 0040A0E1 		mov	r4, r0
 1014 000c FEFFFFEB 		bl	_ZdlPvj
 1015 0010 0400A0E1 		mov	r0, r4
 1016 0014 1080BDE8 		pop	{r4, pc}
 1017              		.cantunwind
 1018              		.fnend
 1020              		.section	.text._ZN6tflite7testing12_GLOBAL__N_115BuilderInstanceEv,"ax",%progbits
 1021              		.align	2
 1022              		.syntax unified
 1023              		.arm
 1024              		.fpu neon
 1026              	_ZN6tflite7testing12_GLOBAL__N_115BuilderInstanceEv:
 1027              		.fnstart
 1028              	.LFB7049:
 1029              		@ args = 0, pretend = 0, frame = 0
 1030              		@ frame_needed = 0, uses_anonymous_args = 0
 1031 0000 000000E3 		movw	r0, #:lower16:.LANCHOR4
 1032 0004 000040E3 		movt	r0, #:upper16:.LANCHOR4
 1033 0008 0030D0E5 		ldrb	r3, [r0]	@ zero_extendqisi2
 1034 000c 5BF07FF5 		dmb	ish
 1035 0010 010013E3 		tst	r3, #1
 1036 0014 0300000A 		beq	.L118
 1037 0018 003000E3 		movw	r3, #:lower16:.LANCHOR5
 1038 001c 003040E3 		movt	r3, #:upper16:.LANCHOR5
 1039 0020 000093E5 		ldr	r0, [r3]
 1040 0024 1EFF2FE1 		bx	lr
 1041              	.L118:
 1042 0028 70402DE9 		push	{r4, r5, r6, lr}
 1043 002c FEFFFFEB 		bl	__cxa_guard_acquire
 1044 0030 000050E3 		cmp	r0, #0
 1045 0034 0300001A 		bne	.L120
 1046 0038 003000E3 		movw	r3, #:lower16:.LANCHOR5
 1047 003c 003040E3 		movt	r3, #:upper16:.LANCHOR5
 1048 0040 000093E5 		ldr	r0, [r3]
 1049 0044 7080BDE8 		pop	{r4, r5, r6, pc}
 1050              	.L120:
 1051 0048 004000E3 		movw	r4, #:lower16:.LANCHOR6
 1052 004c 004040E3 		movt	r4, #:upper16:.LANCHOR6
 1053 0050 0030D4E5 		ldrb	r3, [r4]	@ zero_extendqisi2
 1054 0054 5BF07FF5 		dmb	ish
 1055 0058 015013E2 		ands	r5, r3, #1
 1056 005c 2000000A 		beq	.L128
 1057              	.L127:
 1058 0060 003000E3 		movw	r3, #:lower16:.LANCHOR7
 1059 0064 003040E3 		movt	r3, #:upper16:.LANCHOR7
 1060 0068 001093E5 		ldr	r1, [r3]
 1061              	.L122:
 1062 006c 004000E3 		movw	r4, #:lower16:.LANCHOR3
 1063 0070 0030A0E3 		mov	r3, #0
 1064 0074 004040E3 		movt	r4, #:upper16:.LANCHOR3
 1065 0078 01C0A0E3 		mov	ip, #1
 1066 007c 08E0A0E3 		mov	lr, #8
 1067 0080 025AA0E3 		mov	r5, #8192
 1068 0084 002000E3 		movw	r2, #:lower16:.LANCHOR5
 1069 0088 000000E3 		movw	r0, #:lower16:.LANCHOR4
 1070 008c 002040E3 		movt	r2, #:upper16:.LANCHOR5
 1071 0090 000040E3 		movt	r0, #:upper16:.LANCHOR4
 1072 0094 001084E5 		str	r1, [r4]
 1073 0098 085084E5 		str	r5, [r4, #8]
 1074 009c 0CE084E5 		str	lr, [r4, #12]
 1075 00a0 0430C4E5 		strb	r3, [r4, #4]
 1076 00a4 103084E5 		str	r3, [r4, #16]
 1077 00a8 143084E5 		str	r3, [r4, #20]
 1078 00ac 183084E5 		str	r3, [r4, #24]
 1079 00b0 1C3084E5 		str	r3, [r4, #28]
 1080 00b4 203084E5 		str	r3, [r4, #32]
 1081 00b8 B432C4E1 		strh	r3, [r4, #36]	@ movhi
 1082 00bc 2630C4E5 		strb	r3, [r4, #38]
 1083 00c0 2730C4E5 		strb	r3, [r4, #39]
 1084 00c4 2C30C4E5 		strb	r3, [r4, #44]
 1085 00c8 303084E5 		str	r3, [r4, #48]
 1086 00cc 28C084E5 		str	ip, [r4, #40]
 1087 00d0 2DC0C4E5 		strb	ip, [r4, #45]
 1088 00d4 004082E5 		str	r4, [r2]
 1089 00d8 FEFFFFEB 		bl	__cxa_guard_release
 1090 00dc 0400A0E1 		mov	r0, r4
 1091 00e0 7080BDE8 		pop	{r4, r5, r6, pc}
 1092              	.L128:
 1093 00e4 0400A0E1 		mov	r0, r4
 1094 00e8 FEFFFFEB 		bl	__cxa_guard_acquire
 1095 00ec 000050E3 		cmp	r0, #0
 1096 00f0 DAFFFF0A 		beq	.L127
 1097 00f4 006000E3 		movw	r6, #:lower16:.LANCHOR2
 1098 00f8 2CC09FE5 		ldr	ip, .L129
 1099 00fc 006040E3 		movt	r6, #:upper16:.LANCHOR2
 1100 0100 003000E3 		movw	r3, #:lower16:.LANCHOR7
 1101 0104 041086E2 		add	r1, r6, #4
 1102 0108 022A86E2 		add	r2, r6, #8192
 1103 010c 003040E3 		movt	r3, #:upper16:.LANCHOR7
 1104 0110 220082E9 		stmib	r2, {r1, r5}
 1105 0114 0400A0E1 		mov	r0, r4
 1106 0118 00C086E5 		str	ip, [r6]
 1107 011c 006083E5 		str	r6, [r3]
 1108 0120 FEFFFFEB 		bl	__cxa_guard_release
 1109 0124 0610A0E1 		mov	r1, r6
 1110 0128 CFFFFFEA 		b	.L122
 1111              	.L130:
 1112              		.align	2
 1113              	.L129:
 1114 012c 08000000 		.word	.LANCHOR8+8
 1115              		.cantunwind
 1116              		.fnend
 1118              		.section	.text._ZN11flatbuffers16DefaultAllocator8allocateEj,"axG",%progbits,_ZN11flatbuffers16Def
 1119              		.align	2
 1120              		.weak	_ZN11flatbuffers16DefaultAllocator8allocateEj
 1121              		.syntax unified
 1122              		.arm
 1123              		.fpu neon
 1125              	_ZN11flatbuffers16DefaultAllocator8allocateEj:
 1126              		.fnstart
 1127              	.LFB3521:
 1128              		@ args = 0, pretend = 0, frame = 0
 1129              		@ frame_needed = 0, uses_anonymous_args = 0
 1130              		@ link register save eliminated.
 1131 0000 0100A0E1 		mov	r0, r1
 1132 0004 FEFFFFEA 		b	_Znaj
 1133              		.cantunwind
 1134              		.fnend
 1136              		.section	.text._ZN11flatbuffers16DefaultAllocator10deallocateEPhj,"axG",%progbits,_ZN11flatbuffers
 1137              		.align	2
 1138              		.weak	_ZN11flatbuffers16DefaultAllocator10deallocateEPhj
 1139              		.syntax unified
 1140              		.arm
 1141              		.fpu neon
 1143              	_ZN11flatbuffers16DefaultAllocator10deallocateEPhj:
 1144              		.fnstart
 1145              	.LFB3522:
 1146              		@ args = 0, pretend = 0, frame = 0
 1147              		@ frame_needed = 0, uses_anonymous_args = 0
 1148              		@ link register save eliminated.
 1149 0000 000051E2 		subs	r0, r1, #0
 1150 0004 1EFF2F01 		bxeq	lr
 1151 0008 FEFFFFEA 		b	_ZdaPv
 1152              		.cantunwind
 1153              		.fnend
 1155              		.section	.text._ZN11flatbuffers9Allocator19reallocate_downwardEPhjjjj,"axG",%progbits,_ZN11flatbuf
 1156              		.align	2
 1157              		.weak	_ZN11flatbuffers9Allocator19reallocate_downwardEPhjjjj
 1158              		.syntax unified
 1159              		.arm
 1160              		.fpu neon
 1162              	_ZN11flatbuffers9Allocator19reallocate_downwardEPhjjjj:
 1163              		.fnstart
 1164              	.LFB3519:
 1165              		@ args = 8, pretend = 0, frame = 0
 1166              		@ frame_needed = 0, uses_anonymous_args = 0
 1167 0000 020053E1 		cmp	r3, r2
 1168 0004 F0472DE9 		push	{r4, r5, r6, r7, r8, r9, r10, lr}
 1169              		.save {r4, r5, r6, r7, r8, r9, r10, lr}
 1170 0008 20809DE5 		ldr	r8, [sp, #32]
 1171 000c 1A00009A 		bls	.L137
 1172 0010 0340A0E1 		mov	r4, r3
 1173 0014 003090E5 		ldr	r3, [r0]
 1174 0018 0250A0E1 		mov	r5, r2
 1175 001c 0170A0E1 		mov	r7, r1
 1176 0020 0410A0E1 		mov	r1, r4
 1177 0024 0060A0E1 		mov	r6, r0
 1178 0028 083093E5 		ldr	r3, [r3, #8]
 1179 002c 33FF2FE1 		blx	r3
 1180 0030 081045E0 		sub	r1, r5, r8
 1181 0034 0090A0E1 		mov	r9, r0
 1182 0038 080044E0 		sub	r0, r4, r8
 1183 003c 011087E0 		add	r1, r7, r1
 1184 0040 0820A0E1 		mov	r2, r8
 1185 0044 000089E0 		add	r0, r9, r0
 1186 0048 FEFFFFEB 		bl	memcpy
 1187 004c 24209DE5 		ldr	r2, [sp, #36]
 1188 0050 0710A0E1 		mov	r1, r7
 1189 0054 0900A0E1 		mov	r0, r9
 1190 0058 FEFFFFEB 		bl	memcpy
 1191 005c 003096E5 		ldr	r3, [r6]
 1192 0060 0600A0E1 		mov	r0, r6
 1193 0064 0520A0E1 		mov	r2, r5
 1194 0068 0710A0E1 		mov	r1, r7
 1195 006c 0C3093E5 		ldr	r3, [r3, #12]
 1196 0070 33FF2FE1 		blx	r3
 1197 0074 0900A0E1 		mov	r0, r9
 1198 0078 F087BDE8 		pop	{r4, r5, r6, r7, r8, r9, r10, pc}
 1199              	.L137:
 1200 007c 003000E3 		movw	r3, #:lower16:.LC18
 1201 0080 002000E3 		movw	r2, #:lower16:.LANCHOR9
 1202 0084 000000E3 		movw	r0, #:lower16:.LC19
 1203 0088 003040E3 		movt	r3, #:upper16:.LC18
 1204 008c 002040E3 		movt	r2, #:upper16:.LANCHOR9
 1205 0090 000040E3 		movt	r0, #:upper16:.LC19
 1206 0094 691200E3 		movw	r1, #617
 1207 0098 FEFFFFEB 		bl	__assert_func
 1208              		.fnend
 1210              		.section	.text.unlikely._ZNK11flatbuffers15vector_downward4dataEv.isra.9.part.10,"ax",%progbits
 1211              		.align	2
 1212              		.syntax unified
 1213              		.arm
 1214              		.fpu neon
 1216              	_ZNK11flatbuffers15vector_downward4dataEv.isra.9.part.10:
 1217              		.fnstart
 1218              	.LFB11689:
 1219              		@ args = 0, pretend = 0, frame = 0
 1220              		@ frame_needed = 0, uses_anonymous_args = 0
 1221 0000 003000E3 		movw	r3, #:lower16:.LC20
 1222 0004 002000E3 		movw	r2, #:lower16:.LANCHOR10
 1223 0008 000000E3 		movw	r0, #:lower16:.LC19
 1224 000c 10402DE9 		push	{r4, lr}
 1225              		.save {r4, lr}
 1226 0010 003040E3 		movt	r3, #:upper16:.LC20
 1227 0014 002040E3 		movt	r2, #:upper16:.LANCHOR10
 1228 0018 000040E3 		movt	r0, #:upper16:.LC19
 1229 001c B21300E3 		movw	r1, #946
 1230 0020 FEFFFFEB 		bl	__assert_func
 1231              		.fnend
 1233              		.section	.text.unlikely._ZN11flatbuffers17FlatBufferBuilder9NotNestedEv.isra.20.part.21,"ax",%prog
 1234              		.align	2
 1235              		.syntax unified
 1236              		.arm
 1237              		.fpu neon
 1239              	_ZN11flatbuffers17FlatBufferBuilder9NotNestedEv.isra.20.part.21:
 1240              		.fnstart
 1241              	.LFB11700:
 1242              		@ args = 0, pretend = 0, frame = 0
 1243              		@ frame_needed = 0, uses_anonymous_args = 0
 1244 0000 003000E3 		movw	r3, #:lower16:.LC21
 1245 0004 002000E3 		movw	r2, #:lower16:.LANCHOR11
 1246 0008 000000E3 		movw	r0, #:lower16:.LC19
 1247 000c 10402DE9 		push	{r4, lr}
 1248              		.save {r4, lr}
 1249 0010 003040E3 		movt	r3, #:upper16:.LC21
 1250 0014 002040E3 		movt	r2, #:upper16:.LANCHOR11
 1251 0018 000040E3 		movt	r0, #:upper16:.LC19
 1252 001c 4A1500E3 		movw	r1, #1354
 1253 0020 FEFFFFEB 		bl	__assert_func
 1254              		.fnend
 1256              		.section	.text._ZN6tflite7testing10MockCustom7PrepareEP13TfLiteContextP10TfLiteNode,"ax",%progbits
 1257              		.align	2
 1258              		.global	_ZN6tflite7testing10MockCustom7PrepareEP13TfLiteContextP10TfLiteNode
 1259              		.syntax unified
 1260              		.arm
 1261              		.fpu neon
 1263              	_ZN6tflite7testing10MockCustom7PrepareEP13TfLiteContextP10TfLiteNode:
 1264              		.fnstart
 1265              	.LFB11806:
 1266              		@ args = 0, pretend = 0, frame = 0
 1267              		@ frame_needed = 0, uses_anonymous_args = 0
 1268              		@ link register save eliminated.
 1269 0000 0000A0E3 		mov	r0, #0
 1270 0004 1EFF2FE1 		bx	lr
 1271              		.cantunwind
 1272              		.fnend
 1274              		.section	.text._ZN11flatbuffers15vector_downward12ensure_spaceEj,"axG",%progbits,_ZN11flatbuffers1
 1275              		.align	2
 1276              		.weak	_ZN11flatbuffers15vector_downward12ensure_spaceEj
 1277              		.syntax unified
 1278              		.arm
 1279              		.fpu neon
 1281              	_ZN11flatbuffers15vector_downward12ensure_spaceEj:
 1282              		.fnstart
 1283              	.LFB3569:
 1284              		@ args = 0, pretend = 0, frame = 8
 1285              		@ frame_needed = 0, uses_anonymous_args = 0
 1286 0000 F04F2DE9 		push	{r4, r5, r6, r7, r8, r9, r10, fp, lr}
 1287              		.save {r4, r5, r6, r7, r8, r9, r10, fp, lr}
 1288              		.pad #20
 1289 0004 14D04DE2 		sub	sp, sp, #20
 1290 0008 182090E5 		ldr	r2, [r0, #24]
 1291 000c 1C5090E5 		ldr	r5, [r0, #28]
 1292 0010 050052E1 		cmp	r2, r5
 1293 0014 7A00003A 		bcc	.L144
 1294 0018 146090E5 		ldr	r6, [r0, #20]
 1295 001c 0040A0E1 		mov	r4, r0
 1296 0020 060055E1 		cmp	r5, r6
 1297 0024 7600003A 		bcc	.L144
 1298 0028 0180A0E1 		mov	r8, r1
 1299 002c 051042E0 		sub	r1, r2, r5
 1300 0030 080051E1 		cmp	r1, r8
 1301 0034 0230A0E1 		mov	r3, r2
 1302 0038 0700003A 		bcc	.L146
 1303 003c 102090E5 		ldr	r2, [r0, #16]
 1304              	.L147:
 1305 0040 066043E0 		sub	r6, r3, r6
 1306 0044 066042E0 		sub	r6, r2, r6
 1307 0048 0A0176E3 		cmn	r6, #-2147483646
 1308 004c 7400008A 		bhi	.L161
 1309 0050 0800A0E1 		mov	r0, r8
 1310 0054 14D08DE2 		add	sp, sp, #20
 1311              		@ sp needed
 1312 0058 F08FBDE8 		pop	{r4, r5, r6, r7, r8, r9, r10, fp, pc}
 1313              	.L146:
 1314 005c 109090E5 		ldr	r9, [r0, #16]
 1315 0060 067042E0 		sub	r7, r2, r6
 1316 0064 065045E0 		sub	r5, r5, r6
 1317 0068 000059E3 		cmp	r9, #0
 1318 006c 077049E0 		sub	r7, r9, r7
 1319 0070 08109005 		ldreq	r1, [r0, #8]
 1320 0074 A910A011 		lsrne	r1, r9, #1
 1321 0078 0C0090E5 		ldr	r0, [r0, #12]
 1322 007c 003089E0 		add	r3, r9, r0
 1323 0080 000060E2 		rsb	r0, r0, #0
 1324 0084 013043E2 		sub	r3, r3, #1
 1325 0088 010058E1 		cmp	r8, r1
 1326 008c 08308320 		addcs	r3, r3, r8
 1327 0090 01308330 		addcc	r3, r3, r1
 1328 0094 000056E3 		cmp	r6, #0
 1329 0098 003003E0 		and	r3, r3, r0
 1330 009c 103084E5 		str	r3, [r4, #16]
 1331 00a0 2C00000A 		beq	.L150
 1332 00a4 00A094E5 		ldr	r10, [r4]
 1333 00a8 00005AE3 		cmp	r10, #0
 1334 00ac 3200000A 		beq	.L151
 1335 00b0 00009AE5 		ldr	r0, [r10]
 1336 00b4 001000E3 		movw	r1, #:lower16:_ZN11flatbuffers9Allocator19reallocate_downwardEPhjjjj
 1337 00b8 001040E3 		movt	r1, #:upper16:_ZN11flatbuffers9Allocator19reallocate_downwardEPhjjjj
 1338 00bc 10B090E5 		ldr	fp, [r0, #16]
 1339 00c0 01005BE1 		cmp	fp, r1
 1340 00c4 4600001A 		bne	.L152
 1341 00c8 030059E1 		cmp	r9, r3
 1342 00cc 5C00002A 		bcs	.L155
 1343 00d0 08B090E5 		ldr	fp, [r0, #8]
 1344 00d4 0310A0E1 		mov	r1, r3
 1345 00d8 0C208DE5 		str	r2, [sp, #12]
 1346 00dc 0A00A0E1 		mov	r0, r10
 1347 00e0 08308DE5 		str	r3, [sp, #8]
 1348 00e4 3BFF2FE1 		blx	fp
 1349 00e8 08309DE5 		ldr	r3, [sp, #8]
 1350 00ec 00B0A0E1 		mov	fp, r0
 1351 00f0 0C209DE5 		ldr	r2, [sp, #12]
 1352 00f4 070043E0 		sub	r0, r3, r7
 1353 00f8 0210A0E1 		mov	r1, r2
 1354 00fc 00008BE0 		add	r0, fp, r0
 1355 0100 0720A0E1 		mov	r2, r7
 1356 0104 FEFFFFEB 		bl	memcpy
 1357 0108 0610A0E1 		mov	r1, r6
 1358 010c 0520A0E1 		mov	r2, r5
 1359 0110 0B00A0E1 		mov	r0, fp
 1360 0114 FEFFFFEB 		bl	memcpy
 1361 0118 00309AE5 		ldr	r3, [r10]
 1362 011c 0610A0E1 		mov	r1, r6
 1363 0120 0920A0E1 		mov	r2, r9
 1364 0124 0A00A0E1 		mov	r0, r10
 1365 0128 0B60A0E1 		mov	r6, fp
 1366 012c 0C3093E5 		ldr	r3, [r3, #12]
 1367 0130 33FF2FE1 		blx	r3
 1368              	.L158:
 1369 0134 102094E5 		ldr	r2, [r4, #16]
 1370 0138 055086E0 		add	r5, r6, r5
 1371 013c 146084E5 		str	r6, [r4, #20]
 1372 0140 1C5084E5 		str	r5, [r4, #28]
 1373 0144 077042E0 		sub	r7, r2, r7
 1374 0148 077086E0 		add	r7, r6, r7
 1375 014c 0730A0E1 		mov	r3, r7
 1376 0150 187084E5 		str	r7, [r4, #24]
 1377 0154 B9FFFFEA 		b	.L147
 1378              	.L150:
 1379 0158 000094E5 		ldr	r0, [r4]
 1380 015c 000050E3 		cmp	r0, #0
 1381 0160 1B00000A 		beq	.L157
 1382 0164 002090E5 		ldr	r2, [r0]
 1383 0168 0310A0E1 		mov	r1, r3
 1384 016c 083092E5 		ldr	r3, [r2, #8]
 1385 0170 33FF2FE1 		blx	r3
 1386 0174 0060A0E1 		mov	r6, r0
 1387 0178 EDFFFFEA 		b	.L158
 1388              	.L151:
 1389 017c 030059E1 		cmp	r9, r3
 1390 0180 0C208DE5 		str	r2, [sp, #12]
 1391 0184 2E00002A 		bcs	.L155
 1392 0188 0300A0E1 		mov	r0, r3
 1393 018c 08308DE5 		str	r3, [sp, #8]
 1394 0190 FEFFFFEB 		bl	_Znaj
 1395 0194 08309DE5 		ldr	r3, [sp, #8]
 1396 0198 0090A0E1 		mov	r9, r0
 1397 019c 0C209DE5 		ldr	r2, [sp, #12]
 1398 01a0 070043E0 		sub	r0, r3, r7
 1399 01a4 0210A0E1 		mov	r1, r2
 1400 01a8 000089E0 		add	r0, r9, r0
 1401 01ac 0720A0E1 		mov	r2, r7
 1402 01b0 FEFFFFEB 		bl	memcpy
 1403 01b4 0610A0E1 		mov	r1, r6
 1404 01b8 0520A0E1 		mov	r2, r5
 1405 01bc 0900A0E1 		mov	r0, r9
 1406 01c0 FEFFFFEB 		bl	memcpy
 1407 01c4 0600A0E1 		mov	r0, r6
 1408 01c8 0960A0E1 		mov	r6, r9
 1409 01cc FEFFFFEB 		bl	_ZdaPv
 1410 01d0 D7FFFFEA 		b	.L158
 1411              	.L157:
 1412 01d4 0300A0E1 		mov	r0, r3
 1413 01d8 FEFFFFEB 		bl	_Znaj
 1414 01dc 0060A0E1 		mov	r6, r0
 1415 01e0 D3FFFFEA 		b	.L158
 1416              	.L152:
 1417 01e4 0610A0E1 		mov	r1, r6
 1418 01e8 04508DE5 		str	r5, [sp, #4]
 1419 01ec 00708DE5 		str	r7, [sp]
 1420 01f0 0920A0E1 		mov	r2, r9
 1421 01f4 0A00A0E1 		mov	r0, r10
 1422 01f8 3BFF2FE1 		blx	fp
 1423 01fc 0060A0E1 		mov	r6, r0
 1424 0200 CBFFFFEA 		b	.L158
 1425              	.L144:
 1426 0204 003000E3 		movw	r3, #:lower16:.LC22
 1427 0208 002000E3 		movw	r2, #:lower16:.LANCHOR12
 1428 020c 000000E3 		movw	r0, #:lower16:.LC19
 1429 0210 003040E3 		movt	r3, #:upper16:.LC22
 1430 0214 002040E3 		movt	r2, #:upper16:.LANCHOR12
 1431 0218 000040E3 		movt	r0, #:upper16:.LC19
 1432 021c 961300E3 		movw	r1, #918
 1433 0220 FEFFFFEB 		bl	__assert_func
 1434              	.L161:
 1435 0224 003000E3 		movw	r3, #:lower16:.LC23
 1436 0228 002000E3 		movw	r2, #:lower16:.LANCHOR12
 1437 022c 000000E3 		movw	r0, #:lower16:.LC19
 1438 0230 003040E3 		movt	r3, #:upper16:.LC23
 1439 0234 002040E3 		movt	r2, #:upper16:.LANCHOR12
 1440 0238 000040E3 		movt	r0, #:upper16:.LC19
 1441 023c 9A1300E3 		movw	r1, #922
 1442 0240 FEFFFFEB 		bl	__assert_func
 1443              	.L155:
 1444 0244 003000E3 		movw	r3, #:lower16:.LC18
 1445 0248 002000E3 		movw	r2, #:lower16:.LANCHOR9
 1446 024c 000000E3 		movw	r0, #:lower16:.LC19
 1447 0250 003040E3 		movt	r3, #:upper16:.LC18
 1448 0254 002040E3 		movt	r2, #:upper16:.LANCHOR9
 1449 0258 000040E3 		movt	r0, #:upper16:.LC19
 1450 025c 691200E3 		movw	r1, #617
 1451 0260 FEFFFFEB 		bl	__assert_func
 1452              		.fnend
 1454              		.section	.text._ZN11flatbuffers17FlatBufferBuilder11StartVectorEjj.constprop.148,"ax",%progbits
 1455              		.align	2
 1456              		.syntax unified
 1457              		.arm
 1458              		.fpu neon
 1460              	_ZN11flatbuffers17FlatBufferBuilder11StartVectorEjj.constprop.148:
 1461              		.fnstart
 1462              	.LFB11809:
 1463              		@ args = 0, pretend = 0, frame = 0
 1464              		@ frame_needed = 0, uses_anonymous_args = 0
 1465 0000 2620D0E5 		ldrb	r2, [r0, #38]	@ zero_extendqisi2
 1466 0004 70402DE9 		push	{r4, r5, r6, lr}
 1467              		.save {r4, r5, r6, lr}
 1468 0008 203090E5 		ldr	r3, [r0, #32]
 1469 000c 000052E3 		cmp	r2, #0
 1470 0010 3A00001A 		bne	.L189
 1471 0014 000053E3 		cmp	r3, #0
 1472 0018 4000001A 		bne	.L190
 1473 001c 283090E5 		ldr	r3, [r0, #40]
 1474 0020 0120A0E3 		mov	r2, #1
 1475 0024 2620C0E5 		strb	r2, [r0, #38]
 1476 0028 0040A0E1 		mov	r4, r0
 1477 002c 185090E5 		ldr	r5, [r0, #24]
 1478 0030 030053E3 		cmp	r3, #3
 1479 0034 142090E5 		ldr	r2, [r0, #20]
 1480 0038 0430A093 		movls	r3, #4
 1481 003c 28308095 		strls	r3, [r0, #40]
 1482 0040 103090E5 		ldr	r3, [r0, #16]
 1483 0044 025045E0 		sub	r5, r5, r2
 1484 0048 035045E0 		sub	r5, r5, r3
 1485 004c 035005E2 		and	r5, r5, #3
 1486 0050 0510A0E1 		mov	r1, r5
 1487 0054 FEFFFFEB 		bl	_ZN11flatbuffers15vector_downward12ensure_spaceEj
 1488 0058 183094E5 		ldr	r3, [r4, #24]
 1489 005c 000055E3 		cmp	r5, #0
 1490 0060 003043E0 		sub	r3, r3, r0
 1491 0064 183084E5 		str	r3, [r4, #24]
 1492 0068 0900000A 		beq	.L166
 1493 006c 010055E3 		cmp	r5, #1
 1494 0070 0020A0E3 		mov	r2, #0
 1495 0074 0020C3E5 		strb	r2, [r3]
 1496 0078 0400000A 		beq	.L167
 1497 007c 183094E5 		ldr	r3, [r4, #24]
 1498 0080 020055E3 		cmp	r5, #2
 1499 0084 0120C3E5 		strb	r2, [r3, #1]
 1500 0088 18309415 		ldrne	r3, [r4, #24]
 1501 008c 0220C315 		strbne	r2, [r3, #2]
 1502              	.L167:
 1503 0090 183094E5 		ldr	r3, [r4, #24]
 1504              	.L166:
 1505 0094 282094E5 		ldr	r2, [r4, #40]
 1506 0098 0400A0E1 		mov	r0, r4
 1507 009c 145094E5 		ldr	r5, [r4, #20]
 1508 00a0 030052E3 		cmp	r2, #3
 1509 00a4 0420A093 		movls	r2, #4
 1510 00a8 055043E0 		sub	r5, r3, r5
 1511 00ac 28208495 		strls	r2, [r4, #40]
 1512 00b0 102094E5 		ldr	r2, [r4, #16]
 1513 00b4 025045E0 		sub	r5, r5, r2
 1514 00b8 035005E2 		and	r5, r5, #3
 1515 00bc 0510A0E1 		mov	r1, r5
 1516 00c0 FEFFFFEB 		bl	_ZN11flatbuffers15vector_downward12ensure_spaceEj
 1517 00c4 183094E5 		ldr	r3, [r4, #24]
 1518 00c8 000055E3 		cmp	r5, #0
 1519 00cc 000043E0 		sub	r0, r3, r0
 1520 00d0 180084E5 		str	r0, [r4, #24]
 1521 00d4 7080BD08 		popeq	{r4, r5, r6, pc}
 1522 00d8 0030A0E3 		mov	r3, #0
 1523 00dc 010055E3 		cmp	r5, #1
 1524 00e0 0030C0E5 		strb	r3, [r0]
 1525 00e4 7080BD08 		popeq	{r4, r5, r6, pc}
 1526 00e8 182094E5 		ldr	r2, [r4, #24]
 1527 00ec 020055E3 		cmp	r5, #2
 1528 00f0 0130C2E5 		strb	r3, [r2, #1]
 1529 00f4 18209415 		ldrne	r2, [r4, #24]
 1530 00f8 0230C215 		strbne	r3, [r2, #2]
 1531 00fc 7080BDE8 		pop	{r4, r5, r6, pc}
 1532              	.L189:
 1533 0100 003000E3 		movw	r3, #:lower16:.LC24
 1534 0104 002000E3 		movw	r2, #:lower16:.LANCHOR11
 1535 0108 000000E3 		movw	r0, #:lower16:.LC19
 1536 010c 003040E3 		movt	r3, #:upper16:.LC24
 1537 0110 002040E3 		movt	r2, #:upper16:.LANCHOR11
 1538 0114 000040E3 		movt	r0, #:upper16:.LC19
 1539 0118 481500E3 		movw	r1, #1352
 1540 011c FEFFFFEB 		bl	__assert_func
 1541              	.L190:
 1542 0120 FEFFFFEB 		bl	_ZN11flatbuffers17FlatBufferBuilder9NotNestedEv.isra.20.part.21
 1543              		.fnend
 1545              		.section	.text._ZN11flatbuffers17FlatBufferBuilder10AddElementImEEvtT_S2_.part.45,"ax",%progbits
 1546              		.align	2
 1547              		.syntax unified
 1548              		.arm
 1549              		.fpu neon
 1551              	_ZN11flatbuffers17FlatBufferBuilder10AddElementImEEvtT_S2_.part.45:
 1552              		.fnstart
 1553              	.LFB11724:
 1554              		@ args = 0, pretend = 0, frame = 0
 1555              		@ frame_needed = 0, uses_anonymous_args = 0
 1556 0000 283090E5 		ldr	r3, [r0, #40]
 1557 0004 F0412DE9 		push	{r4, r5, r6, r7, r8, lr}
 1558              		.save {r4, r5, r6, r7, r8, lr}
 1559 0008 0270A0E1 		mov	r7, r2
 1560 000c 185090E5 		ldr	r5, [r0, #24]
 1561 0010 0040A0E1 		mov	r4, r0
 1562 0014 030053E3 		cmp	r3, #3
 1563 0018 0160A0E1 		mov	r6, r1
 1564 001c 0430A093 		movls	r3, #4
 1565 0020 142090E5 		ldr	r2, [r0, #20]
 1566 0024 28308095 		strls	r3, [r0, #40]
 1567 0028 103090E5 		ldr	r3, [r0, #16]
 1568 002c 025045E0 		sub	r5, r5, r2
 1569 0030 035045E0 		sub	r5, r5, r3
 1570 0034 035005E2 		and	r5, r5, #3
 1571 0038 0510A0E1 		mov	r1, r5
 1572 003c FEFFFFEB 		bl	_ZN11flatbuffers15vector_downward12ensure_spaceEj
 1573 0040 183094E5 		ldr	r3, [r4, #24]
 1574 0044 000055E3 		cmp	r5, #0
 1575 0048 000043E0 		sub	r0, r3, r0
 1576 004c 180084E5 		str	r0, [r4, #24]
 1577 0050 0800000A 		beq	.L193
 1578 0054 010055E3 		cmp	r5, #1
 1579 0058 0030A0E3 		mov	r3, #0
 1580 005c 0030C0E5 		strb	r3, [r0]
 1581 0060 0400000A 		beq	.L193
 1582 0064 182094E5 		ldr	r2, [r4, #24]
 1583 0068 020055E3 		cmp	r5, #2
 1584 006c 0130C2E5 		strb	r3, [r2, #1]
 1585 0070 18209415 		ldrne	r2, [r4, #24]
 1586 0074 0230C215 		strbne	r3, [r2, #2]
 1587              	.L193:
 1588 0078 0410A0E3 		mov	r1, #4
 1589 007c 0400A0E1 		mov	r0, r4
 1590 0080 FEFFFFEB 		bl	_ZN11flatbuffers15vector_downward12ensure_spaceEj
 1591 0084 183094E5 		ldr	r3, [r4, #24]
 1592 0088 0810A0E3 		mov	r1, #8
 1593 008c 142094E5 		ldr	r2, [r4, #20]
 1594 0090 105094E5 		ldr	r5, [r4, #16]
 1595 0094 003043E0 		sub	r3, r3, r0
 1596 0098 0400A0E1 		mov	r0, r4
 1597 009c 022043E0 		sub	r2, r3, r2
 1598 00a0 183084E5 		str	r3, [r4, #24]
 1599 00a4 007083E5 		str	r7, [r3]
 1600 00a8 025045E0 		sub	r5, r5, r2
 1601 00ac FEFFFFEB 		bl	_ZN11flatbuffers15vector_downward12ensure_spaceEj
 1602 00b0 1C2094E5 		ldr	r2, [r4, #28]
 1603 00b4 203094E5 		ldr	r3, [r4, #32]
 1604 00b8 081082E2 		add	r1, r2, #8
 1605 00bc B460C2E1 		strh	r6, [r2, #4]	@ movhi
 1606 00c0 005082E5 		str	r5, [r2]
 1607 00c4 013083E2 		add	r3, r3, #1
 1608 00c8 B422D4E1 		ldrh	r2, [r4, #36]
 1609 00cc 1C1084E5 		str	r1, [r4, #28]
 1610 00d0 203084E5 		str	r3, [r4, #32]
 1611 00d4 020056E1 		cmp	r6, r2
 1612 00d8 0260A0B1 		movlt	r6, r2
 1613 00dc B462C4E1 		strh	r6, [r4, #36]	@ movhi
 1614 00e0 F081BDE8 		pop	{r4, r5, r6, r7, r8, pc}
 1615              		.fnend
 1617              		.section	.text._ZN11flatbuffers17FlatBufferBuilder12CreateVectorIN6tflite6BufferEEENS_6OffsetINS_6
 1618              		.align	2
 1619              		.syntax unified
 1620              		.arm
 1621              		.fpu neon
 1623              	_ZN11flatbuffers17FlatBufferBuilder12CreateVectorIN6tflite6BufferEEENS_6OffsetINS_6VectorINS4_IT_EE
 1624              		.fnstart
 1625              	.LFB11821:
 1626              		@ args = 0, pretend = 0, frame = 0
 1627              		@ frame_needed = 0, uses_anonymous_args = 0
 1628 0000 70402DE9 		push	{r4, r5, r6, lr}
 1629              		.save {r4, r5, r6, lr}
 1630 0004 0040A0E1 		mov	r4, r0
 1631 0008 0150A0E1 		mov	r5, r1
 1632 000c 0110A0E3 		mov	r1, #1
 1633 0010 FEFFFFEB 		bl	_ZN11flatbuffers17FlatBufferBuilder11StartVectorEjj.constprop.148
 1634 0014 283094E5 		ldr	r3, [r4, #40]
 1635 0018 0400A0E1 		mov	r0, r4
 1636 001c 006095E5 		ldr	r6, [r5]
 1637 0020 142094E5 		ldr	r2, [r4, #20]
 1638 0024 030053E3 		cmp	r3, #3
 1639 0028 185094E5 		ldr	r5, [r4, #24]
 1640 002c 0430A093 		movls	r3, #4
 1641 0030 28308495 		strls	r3, [r4, #40]
 1642 0034 103094E5 		ldr	r3, [r4, #16]
 1643 0038 025045E0 		sub	r5, r5, r2
 1644 003c 035045E0 		sub	r5, r5, r3
 1645 0040 035005E2 		and	r5, r5, #3
 1646 0044 0510A0E1 		mov	r1, r5
 1647 0048 FEFFFFEB 		bl	_ZN11flatbuffers15vector_downward12ensure_spaceEj
 1648 004c 183094E5 		ldr	r3, [r4, #24]
 1649 0050 000055E3 		cmp	r5, #0
 1650 0054 000043E0 		sub	r0, r3, r0
 1651 0058 180084E5 		str	r0, [r4, #24]
 1652 005c 0800000A 		beq	.L207
 1653 0060 010055E3 		cmp	r5, #1
 1654 0064 0030A0E3 		mov	r3, #0
 1655 0068 0030C0E5 		strb	r3, [r0]
 1656 006c 0400000A 		beq	.L207
 1657 0070 182094E5 		ldr	r2, [r4, #24]
 1658 0074 020055E3 		cmp	r5, #2
 1659 0078 0130C2E5 		strb	r3, [r2, #1]
 1660 007c 18209415 		ldrne	r2, [r4, #24]
 1661 0080 0230C215 		strbne	r3, [r2, #2]
 1662              	.L207:
 1663 0084 000056E3 		cmp	r6, #0
 1664 0088 5300000A 		beq	.L208
 1665 008c 182094E5 		ldr	r2, [r4, #24]
 1666 0090 141094E5 		ldr	r1, [r4, #20]
 1667 0094 103094E5 		ldr	r3, [r4, #16]
 1668 0098 012042E0 		sub	r2, r2, r1
 1669 009c 023043E0 		sub	r3, r3, r2
 1670 00a0 030056E1 		cmp	r6, r3
 1671 00a4 4C00008A 		bhi	.L208
 1672 00a8 282094E5 		ldr	r2, [r4, #40]
 1673 00ac 046066E2 		rsb	r6, r6, #4
 1674 00b0 036086E0 		add	r6, r6, r3
 1675 00b4 003063E2 		rsb	r3, r3, #0
 1676 00b8 035003E2 		and	r5, r3, #3
 1677 00bc 0400A0E1 		mov	r0, r4
 1678 00c0 030052E3 		cmp	r2, #3
 1679 00c4 0510A0E1 		mov	r1, r5
 1680 00c8 0420A093 		movls	r2, #4
 1681 00cc 28208495 		strls	r2, [r4, #40]
 1682 00d0 FEFFFFEB 		bl	_ZN11flatbuffers15vector_downward12ensure_spaceEj
 1683 00d4 183094E5 		ldr	r3, [r4, #24]
 1684 00d8 000055E3 		cmp	r5, #0
 1685 00dc 000043E0 		sub	r0, r3, r0
 1686 00e0 180084E5 		str	r0, [r4, #24]
 1687 00e4 0800000A 		beq	.L210
 1688 00e8 010055E3 		cmp	r5, #1
 1689 00ec 0030A0E3 		mov	r3, #0
 1690 00f0 0030C0E5 		strb	r3, [r0]
 1691 00f4 0400000A 		beq	.L210
 1692 00f8 182094E5 		ldr	r2, [r4, #24]
 1693 00fc 020055E3 		cmp	r5, #2
 1694 0100 0130C2E5 		strb	r3, [r2, #1]
 1695 0104 18209415 		ldrne	r2, [r4, #24]
 1696 0108 0230C215 		strbne	r3, [r2, #2]
 1697              	.L210:
 1698 010c 0410A0E3 		mov	r1, #4
 1699 0110 0400A0E1 		mov	r0, r4
 1700 0114 FEFFFFEB 		bl	_ZN11flatbuffers15vector_downward12ensure_spaceEj
 1701 0118 182094E5 		ldr	r2, [r4, #24]
 1702 011c 26C0D4E5 		ldrb	ip, [r4, #38]	@ zero_extendqisi2
 1703 0120 141094E5 		ldr	r1, [r4, #20]
 1704 0124 103094E5 		ldr	r3, [r4, #16]
 1705 0128 000042E0 		sub	r0, r2, r0
 1706 012c 00005CE3 		cmp	ip, #0
 1707 0130 180084E5 		str	r0, [r4, #24]
 1708 0134 011040E0 		sub	r1, r0, r1
 1709 0138 006080E5 		str	r6, [r0]
 1710 013c 013043E0 		sub	r3, r3, r1
 1711 0140 2D00000A 		beq	.L248
 1712 0144 282094E5 		ldr	r2, [r4, #40]
 1713 0148 003063E2 		rsb	r3, r3, #0
 1714 014c 035003E2 		and	r5, r3, #3
 1715 0150 0010A0E3 		mov	r1, #0
 1716 0154 2610C4E5 		strb	r1, [r4, #38]
 1717 0158 0400A0E1 		mov	r0, r4
 1718 015c 030052E3 		cmp	r2, #3
 1719 0160 0510A0E1 		mov	r1, r5
 1720 0164 0420A093 		movls	r2, #4
 1721 0168 28208495 		strls	r2, [r4, #40]
 1722 016c FEFFFFEB 		bl	_ZN11flatbuffers15vector_downward12ensure_spaceEj
 1723 0170 183094E5 		ldr	r3, [r4, #24]
 1724 0174 000055E3 		cmp	r5, #0
 1725 0178 000043E0 		sub	r0, r3, r0
 1726 017c 180084E5 		str	r0, [r4, #24]
 1727 0180 0800000A 		beq	.L214
 1728 0184 010055E3 		cmp	r5, #1
 1729 0188 0030A0E3 		mov	r3, #0
 1730 018c 0030C0E5 		strb	r3, [r0]
 1731 0190 0400000A 		beq	.L214
 1732 0194 182094E5 		ldr	r2, [r4, #24]
 1733 0198 020055E3 		cmp	r5, #2
 1734 019c 0130C2E5 		strb	r3, [r2, #1]
 1735 01a0 18209415 		ldrne	r2, [r4, #24]
 1736 01a4 0230C215 		strbne	r3, [r2, #2]
 1737              	.L214:
 1738 01a8 0410A0E3 		mov	r1, #4
 1739 01ac 0400A0E1 		mov	r0, r4
 1740 01b0 FEFFFFEB 		bl	_ZN11flatbuffers15vector_downward12ensure_spaceEj
 1741 01b4 183094E5 		ldr	r3, [r4, #24]
 1742 01b8 0110A0E3 		mov	r1, #1
 1743 01bc 142094E5 		ldr	r2, [r4, #20]
 1744 01c0 10C094E5 		ldr	ip, [r4, #16]
 1745 01c4 003043E0 		sub	r3, r3, r0
 1746 01c8 022043E0 		sub	r2, r3, r2
 1747 01cc 183084E5 		str	r3, [r4, #24]
 1748 01d0 02004CE0 		sub	r0, ip, r2
 1749 01d4 001083E5 		str	r1, [r3]
 1750 01d8 7080BDE8 		pop	{r4, r5, r6, pc}
 1751              	.L208:
 1752 01dc 003000E3 		movw	r3, #:lower16:.LC25
 1753 01e0 002000E3 		movw	r2, #:lower16:.LANCHOR13
 1754 01e4 000000E3 		movw	r0, #:lower16:.LC19
 1755 01e8 003040E3 		movt	r3, #:upper16:.LC25
 1756 01ec 002040E3 		movt	r2, #:upper16:.LANCHOR13
 1757 01f0 000040E3 		movt	r0, #:upper16:.LC19
 1758 01f4 3B1500E3 		movw	r1, #1339
 1759 01f8 FEFFFFEB 		bl	__assert_func
 1760              	.L248:
 1761 01fc 003000E3 		movw	r3, #:lower16:.LC26
 1762 0200 002000E3 		movw	r2, #:lower16:.LANCHOR14
 1763 0204 000000E3 		movw	r0, #:lower16:.LC19
 1764 0208 003040E3 		movt	r3, #:upper16:.LC26
 1765 020c 002040E3 		movt	r2, #:upper16:.LANCHOR14
 1766 0210 000040E3 		movt	r0, #:upper16:.LC19
 1767 0214 2C1600E3 		movw	r1, #1580
 1768 0218 FEFFFFEB 		bl	__assert_func
 1769              		.fnend
 1771              		.section	.text._ZN11flatbuffers17FlatBufferBuilder12CreateVectorIN6tflite6TensorEEENS_6OffsetINS_6
 1772              		.align	2
 1773              		.syntax unified
 1774              		.arm
 1775              		.fpu neon
 1777              	_ZN11flatbuffers17FlatBufferBuilder12CreateVectorIN6tflite6TensorEEENS_6OffsetINS_6VectorINS4_IT_EE
 1778              		.fnstart
 1779              	.LFB11832:
 1780              		@ args = 0, pretend = 0, frame = 0
 1781              		@ frame_needed = 0, uses_anonymous_args = 0
 1782 0000 F0472DE9 		push	{r4, r5, r6, r7, r8, r9, r10, lr}
 1783              		.save {r4, r5, r6, r7, r8, r9, r10, lr}
 1784 0004 0190A0E1 		mov	r9, r1
 1785 0008 0040A0E1 		mov	r4, r0
 1786 000c 0410A0E3 		mov	r1, #4
 1787 0010 107089E2 		add	r7, r9, #16
 1788 0014 0480A0E3 		mov	r8, #4
 1789 0018 FEFFFFEB 		bl	_ZN11flatbuffers17FlatBufferBuilder11StartVectorEjj.constprop.148
 1790 001c 185094E5 		ldr	r5, [r4, #24]
 1791 0020 0060A0E3 		mov	r6, #0
 1792              	.L256:
 1793 0024 282094E5 		ldr	r2, [r4, #40]
 1794 0028 0400A0E1 		mov	r0, r4
 1795 002c 143094E5 		ldr	r3, [r4, #20]
 1796 0030 04A037E5 		ldr	r10, [r7, #-4]!
 1797 0034 030052E3 		cmp	r2, #3
 1798 0038 102094E5 		ldr	r2, [r4, #16]
 1799 003c 035045E0 		sub	r5, r5, r3
 1800 0040 28808495 		strls	r8, [r4, #40]
 1801 0044 025045E0 		sub	r5, r5, r2
 1802 0048 035005E2 		and	r5, r5, #3
 1803 004c 0510A0E1 		mov	r1, r5
 1804 0050 FEFFFFEB 		bl	_ZN11flatbuffers15vector_downward12ensure_spaceEj
 1805 0054 183094E5 		ldr	r3, [r4, #24]
 1806 0058 000055E3 		cmp	r5, #0
 1807 005c 000043E0 		sub	r0, r3, r0
 1808 0060 180084E5 		str	r0, [r4, #24]
 1809 0064 0700000A 		beq	.L251
 1810 0068 010055E3 		cmp	r5, #1
 1811 006c 0060C0E5 		strb	r6, [r0]
 1812 0070 0400000A 		beq	.L251
 1813 0074 183094E5 		ldr	r3, [r4, #24]
 1814 0078 020055E3 		cmp	r5, #2
 1815 007c 0160C3E5 		strb	r6, [r3, #1]
 1816 0080 18309415 		ldrne	r3, [r4, #24]
 1817 0084 0260C315 		strbne	r6, [r3, #2]
 1818              	.L251:
 1819 0088 00005AE3 		cmp	r10, #0
 1820 008c 5200000A 		beq	.L252
 1821 0090 183094E5 		ldr	r3, [r4, #24]
 1822 0094 142094E5 		ldr	r2, [r4, #20]
 1823 0098 105094E5 		ldr	r5, [r4, #16]
 1824 009c 023043E0 		sub	r3, r3, r2
 1825 00a0 035045E0 		sub	r5, r5, r3
 1826 00a4 0A0055E1 		cmp	r5, r10
 1827 00a8 4B00003A 		bcc	.L252
 1828 00ac 283094E5 		ldr	r3, [r4, #40]
 1829 00b0 04A06AE2 		rsb	r10, r10, #4
 1830 00b4 05A08AE0 		add	r10, r10, r5
 1831 00b8 005065E2 		rsb	r5, r5, #0
 1832 00bc 035005E2 		and	r5, r5, #3
 1833 00c0 0400A0E1 		mov	r0, r4
 1834 00c4 030053E3 		cmp	r3, #3
 1835 00c8 0510A0E1 		mov	r1, r5
 1836 00cc 28808495 		strls	r8, [r4, #40]
 1837 00d0 FEFFFFEB 		bl	_ZN11flatbuffers15vector_downward12ensure_spaceEj
 1838 00d4 183094E5 		ldr	r3, [r4, #24]
 1839 00d8 000055E3 		cmp	r5, #0
 1840 00dc 000043E0 		sub	r0, r3, r0
 1841 00e0 180084E5 		str	r0, [r4, #24]
 1842 00e4 0700000A 		beq	.L255
 1843 00e8 010055E3 		cmp	r5, #1
 1844 00ec 0060C0E5 		strb	r6, [r0]
 1845 00f0 0400000A 		beq	.L255
 1846 00f4 183094E5 		ldr	r3, [r4, #24]
 1847 00f8 020055E3 		cmp	r5, #2
 1848 00fc 0160C3E5 		strb	r6, [r3, #1]
 1849 0100 18309415 		ldrne	r3, [r4, #24]
 1850 0104 0260C315 		strbne	r6, [r3, #2]
 1851              	.L255:
 1852 0108 0410A0E3 		mov	r1, #4
 1853 010c 0400A0E1 		mov	r0, r4
 1854 0110 FEFFFFEB 		bl	_ZN11flatbuffers15vector_downward12ensure_spaceEj
 1855 0114 185094E5 		ldr	r5, [r4, #24]
 1856 0118 090057E1 		cmp	r7, r9
 1857 011c 005045E0 		sub	r5, r5, r0
 1858 0120 185084E5 		str	r5, [r4, #24]
 1859 0124 00A085E5 		str	r10, [r5]
 1860 0128 BDFFFF1A 		bne	.L256
 1861 012c 2620D4E5 		ldrb	r2, [r4, #38]	@ zero_extendqisi2
 1862 0130 000052E3 		cmp	r2, #0
 1863 0134 3000000A 		beq	.L292
 1864 0138 282094E5 		ldr	r2, [r4, #40]
 1865 013c 0010A0E3 		mov	r1, #0
 1866 0140 143094E5 		ldr	r3, [r4, #20]
 1867 0144 0400A0E1 		mov	r0, r4
 1868 0148 2610C4E5 		strb	r1, [r4, #38]
 1869 014c 030052E3 		cmp	r2, #3
 1870 0150 0420A093 		movls	r2, #4
 1871 0154 035045E0 		sub	r5, r5, r3
 1872 0158 28208495 		strls	r2, [r4, #40]
 1873 015c 102094E5 		ldr	r2, [r4, #16]
 1874 0160 025045E0 		sub	r5, r5, r2
 1875 0164 035005E2 		and	r5, r5, #3
 1876 0168 0510A0E1 		mov	r1, r5
 1877 016c FEFFFFEB 		bl	_ZN11flatbuffers15vector_downward12ensure_spaceEj
 1878 0170 183094E5 		ldr	r3, [r4, #24]
 1879 0174 000055E3 		cmp	r5, #0
 1880 0178 000043E0 		sub	r0, r3, r0
 1881 017c 180084E5 		str	r0, [r4, #24]
 1882 0180 0800000A 		beq	.L259
 1883 0184 010055E3 		cmp	r5, #1
 1884 0188 0030A0E3 		mov	r3, #0
 1885 018c 0030C0E5 		strb	r3, [r0]
 1886 0190 0400000A 		beq	.L259
 1887 0194 182094E5 		ldr	r2, [r4, #24]
 1888 0198 020055E3 		cmp	r5, #2
 1889 019c 0130C2E5 		strb	r3, [r2, #1]
 1890 01a0 18209415 		ldrne	r2, [r4, #24]
 1891 01a4 0230C215 		strbne	r3, [r2, #2]
 1892              	.L259:
 1893 01a8 0410A0E3 		mov	r1, #4
 1894 01ac 0400A0E1 		mov	r0, r4
 1895 01b0 FEFFFFEB 		bl	_ZN11flatbuffers15vector_downward12ensure_spaceEj
 1896 01b4 183094E5 		ldr	r3, [r4, #24]
 1897 01b8 0410A0E3 		mov	r1, #4
 1898 01bc 142094E5 		ldr	r2, [r4, #20]
 1899 01c0 10C094E5 		ldr	ip, [r4, #16]
 1900 01c4 003043E0 		sub	r3, r3, r0
 1901 01c8 022043E0 		sub	r2, r3, r2
 1902 01cc 183084E5 		str	r3, [r4, #24]
 1903 01d0 02004CE0 		sub	r0, ip, r2
 1904 01d4 001083E5 		str	r1, [r3]
 1905 01d8 F087BDE8 		pop	{r4, r5, r6, r7, r8, r9, r10, pc}
 1906              	.L252:
 1907 01dc 003000E3 		movw	r3, #:lower16:.LC25
 1908 01e0 002000E3 		movw	r2, #:lower16:.LANCHOR13
 1909 01e4 000000E3 		movw	r0, #:lower16:.LC19
 1910 01e8 003040E3 		movt	r3, #:upper16:.LC25
 1911 01ec 002040E3 		movt	r2, #:upper16:.LANCHOR13
 1912 01f0 000040E3 		movt	r0, #:upper16:.LC19
 1913 01f4 3B1500E3 		movw	r1, #1339
 1914 01f8 FEFFFFEB 		bl	__assert_func
 1915              	.L292:
 1916 01fc 003000E3 		movw	r3, #:lower16:.LC26
 1917 0200 002000E3 		movw	r2, #:lower16:.LANCHOR14
 1918 0204 000000E3 		movw	r0, #:lower16:.LC19
 1919 0208 003040E3 		movt	r3, #:upper16:.LC26
 1920 020c 002040E3 		movt	r2, #:upper16:.LANCHOR14
 1921 0210 000040E3 		movt	r0, #:upper16:.LC19
 1922 0214 2C1600E3 		movw	r1, #1580
 1923 0218 FEFFFFEB 		bl	__assert_func
 1924              		.fnend
 1926              		.section	.text._ZN11flatbuffers17FlatBufferBuilder12CreateVectorIN6tflite8OperatorEEENS_6OffsetINS
 1927              		.align	2
 1928              		.syntax unified
 1929              		.arm
 1930              		.fpu neon
 1932              	_ZN11flatbuffers17FlatBufferBuilder12CreateVectorIN6tflite8OperatorEEENS_6OffsetINS_6VectorINS4_IT_
 1933              		.fnstart
 1934              	.LFB11828:
 1935              		@ args = 0, pretend = 0, frame = 0
 1936              		@ frame_needed = 0, uses_anonymous_args = 0
 1937 0000 70402DE9 		push	{r4, r5, r6, lr}
 1938              		.save {r4, r5, r6, lr}
 1939 0004 0040A0E1 		mov	r4, r0
 1940 0008 0150A0E1 		mov	r5, r1
 1941 000c 0110A0E3 		mov	r1, #1
 1942 0010 FEFFFFEB 		bl	_ZN11flatbuffers17FlatBufferBuilder11StartVectorEjj.constprop.148
 1943 0014 283094E5 		ldr	r3, [r4, #40]
 1944 0018 0400A0E1 		mov	r0, r4
 1945 001c 006095E5 		ldr	r6, [r5]
 1946 0020 142094E5 		ldr	r2, [r4, #20]
 1947 0024 030053E3 		cmp	r3, #3
 1948 0028 185094E5 		ldr	r5, [r4, #24]
 1949 002c 0430A093 		movls	r3, #4
 1950 0030 28308495 		strls	r3, [r4, #40]
 1951 0034 103094E5 		ldr	r3, [r4, #16]
 1952 0038 025045E0 		sub	r5, r5, r2
 1953 003c 035045E0 		sub	r5, r5, r3
 1954 0040 035005E2 		and	r5, r5, #3
 1955 0044 0510A0E1 		mov	r1, r5
 1956 0048 FEFFFFEB 		bl	_ZN11flatbuffers15vector_downward12ensure_spaceEj
 1957 004c 183094E5 		ldr	r3, [r4, #24]
 1958 0050 000055E3 		cmp	r5, #0
 1959 0054 000043E0 		sub	r0, r3, r0
 1960 0058 180084E5 		str	r0, [r4, #24]
 1961 005c 0800000A 		beq	.L295
 1962 0060 010055E3 		cmp	r5, #1
 1963 0064 0030A0E3 		mov	r3, #0
 1964 0068 0030C0E5 		strb	r3, [r0]
 1965 006c 0400000A 		beq	.L295
 1966 0070 182094E5 		ldr	r2, [r4, #24]
 1967 0074 020055E3 		cmp	r5, #2
 1968 0078 0130C2E5 		strb	r3, [r2, #1]
 1969 007c 18209415 		ldrne	r2, [r4, #24]
 1970 0080 0230C215 		strbne	r3, [r2, #2]
 1971              	.L295:
 1972 0084 000056E3 		cmp	r6, #0
 1973 0088 5300000A 		beq	.L296
 1974 008c 182094E5 		ldr	r2, [r4, #24]
 1975 0090 141094E5 		ldr	r1, [r4, #20]
 1976 0094 103094E5 		ldr	r3, [r4, #16]
 1977 0098 012042E0 		sub	r2, r2, r1
 1978 009c 023043E0 		sub	r3, r3, r2
 1979 00a0 030056E1 		cmp	r6, r3
 1980 00a4 4C00008A 		bhi	.L296
 1981 00a8 282094E5 		ldr	r2, [r4, #40]
 1982 00ac 046066E2 		rsb	r6, r6, #4
 1983 00b0 036086E0 		add	r6, r6, r3
 1984 00b4 003063E2 		rsb	r3, r3, #0
 1985 00b8 035003E2 		and	r5, r3, #3
 1986 00bc 0400A0E1 		mov	r0, r4
 1987 00c0 030052E3 		cmp	r2, #3
 1988 00c4 0510A0E1 		mov	r1, r5
 1989 00c8 0420A093 		movls	r2, #4
 1990 00cc 28208495 		strls	r2, [r4, #40]
 1991 00d0 FEFFFFEB 		bl	_ZN11flatbuffers15vector_downward12ensure_spaceEj
 1992 00d4 183094E5 		ldr	r3, [r4, #24]
 1993 00d8 000055E3 		cmp	r5, #0
 1994 00dc 000043E0 		sub	r0, r3, r0
 1995 00e0 180084E5 		str	r0, [r4, #24]
 1996 00e4 0800000A 		beq	.L298
 1997 00e8 010055E3 		cmp	r5, #1
 1998 00ec 0030A0E3 		mov	r3, #0
 1999 00f0 0030C0E5 		strb	r3, [r0]
 2000 00f4 0400000A 		beq	.L298
 2001 00f8 182094E5 		ldr	r2, [r4, #24]
 2002 00fc 020055E3 		cmp	r5, #2
 2003 0100 0130C2E5 		strb	r3, [r2, #1]
 2004 0104 18209415 		ldrne	r2, [r4, #24]
 2005 0108 0230C215 		strbne	r3, [r2, #2]
 2006              	.L298:
 2007 010c 0410A0E3 		mov	r1, #4
 2008 0110 0400A0E1 		mov	r0, r4
 2009 0114 FEFFFFEB 		bl	_ZN11flatbuffers15vector_downward12ensure_spaceEj
 2010 0118 182094E5 		ldr	r2, [r4, #24]
 2011 011c 26C0D4E5 		ldrb	ip, [r4, #38]	@ zero_extendqisi2
 2012 0120 141094E5 		ldr	r1, [r4, #20]
 2013 0124 103094E5 		ldr	r3, [r4, #16]
 2014 0128 000042E0 		sub	r0, r2, r0
 2015 012c 00005CE3 		cmp	ip, #0
 2016 0130 180084E5 		str	r0, [r4, #24]
 2017 0134 011040E0 		sub	r1, r0, r1
 2018 0138 006080E5 		str	r6, [r0]
 2019 013c 013043E0 		sub	r3, r3, r1
 2020 0140 2D00000A 		beq	.L336
 2021 0144 282094E5 		ldr	r2, [r4, #40]
 2022 0148 003063E2 		rsb	r3, r3, #0
 2023 014c 035003E2 		and	r5, r3, #3
 2024 0150 0010A0E3 		mov	r1, #0
 2025 0154 2610C4E5 		strb	r1, [r4, #38]
 2026 0158 0400A0E1 		mov	r0, r4
 2027 015c 030052E3 		cmp	r2, #3
 2028 0160 0510A0E1 		mov	r1, r5
 2029 0164 0420A093 		movls	r2, #4
 2030 0168 28208495 		strls	r2, [r4, #40]
 2031 016c FEFFFFEB 		bl	_ZN11flatbuffers15vector_downward12ensure_spaceEj
 2032 0170 183094E5 		ldr	r3, [r4, #24]
 2033 0174 000055E3 		cmp	r5, #0
 2034 0178 000043E0 		sub	r0, r3, r0
 2035 017c 180084E5 		str	r0, [r4, #24]
 2036 0180 0800000A 		beq	.L302
 2037 0184 010055E3 		cmp	r5, #1
 2038 0188 0030A0E3 		mov	r3, #0
 2039 018c 0030C0E5 		strb	r3, [r0]
 2040 0190 0400000A 		beq	.L302
 2041 0194 182094E5 		ldr	r2, [r4, #24]
 2042 0198 020055E3 		cmp	r5, #2
 2043 019c 0130C2E5 		strb	r3, [r2, #1]
 2044 01a0 18209415 		ldrne	r2, [r4, #24]
 2045 01a4 0230C215 		strbne	r3, [r2, #2]
 2046              	.L302:
 2047 01a8 0410A0E3 		mov	r1, #4
 2048 01ac 0400A0E1 		mov	r0, r4
 2049 01b0 FEFFFFEB 		bl	_ZN11flatbuffers15vector_downward12ensure_spaceEj
 2050 01b4 183094E5 		ldr	r3, [r4, #24]
 2051 01b8 0110A0E3 		mov	r1, #1
 2052 01bc 142094E5 		ldr	r2, [r4, #20]
 2053 01c0 10C094E5 		ldr	ip, [r4, #16]
 2054 01c4 003043E0 		sub	r3, r3, r0
 2055 01c8 022043E0 		sub	r2, r3, r2
 2056 01cc 183084E5 		str	r3, [r4, #24]
 2057 01d0 02004CE0 		sub	r0, ip, r2
 2058 01d4 001083E5 		str	r1, [r3]
 2059 01d8 7080BDE8 		pop	{r4, r5, r6, pc}
 2060              	.L296:
 2061 01dc 003000E3 		movw	r3, #:lower16:.LC25
 2062 01e0 002000E3 		movw	r2, #:lower16:.LANCHOR13
 2063 01e4 000000E3 		movw	r0, #:lower16:.LC19
 2064 01e8 003040E3 		movt	r3, #:upper16:.LC25
 2065 01ec 002040E3 		movt	r2, #:upper16:.LANCHOR13
 2066 01f0 000040E3 		movt	r0, #:upper16:.LC19
 2067 01f4 3B1500E3 		movw	r1, #1339
 2068 01f8 FEFFFFEB 		bl	__assert_func
 2069              	.L336:
 2070 01fc 003000E3 		movw	r3, #:lower16:.LC26
 2071 0200 002000E3 		movw	r2, #:lower16:.LANCHOR14
 2072 0204 000000E3 		movw	r0, #:lower16:.LC19
 2073 0208 003040E3 		movt	r3, #:upper16:.LC26
 2074 020c 002040E3 		movt	r2, #:upper16:.LANCHOR14
 2075 0210 000040E3 		movt	r0, #:upper16:.LC19
 2076 0214 2C1600E3 		movw	r1, #1580
 2077 0218 FEFFFFEB 		bl	__assert_func
 2078              		.fnend
 2080              		.section	.text._ZN11flatbuffers17FlatBufferBuilder12CreateVectorIN6tflite12OperatorCodeEEENS_6Offs
 2081              		.align	2
 2082              		.syntax unified
 2083              		.arm
 2084              		.fpu neon
 2086              	_ZN11flatbuffers17FlatBufferBuilder12CreateVectorIN6tflite12OperatorCodeEEENS_6OffsetINS_6VectorINS
 2087              		.fnstart
 2088              	.LFB11827:
 2089              		@ args = 0, pretend = 0, frame = 0
 2090              		@ frame_needed = 0, uses_anonymous_args = 0
 2091 0000 70402DE9 		push	{r4, r5, r6, lr}
 2092              		.save {r4, r5, r6, lr}
 2093 0004 0040A0E1 		mov	r4, r0
 2094 0008 0150A0E1 		mov	r5, r1
 2095 000c 0110A0E3 		mov	r1, #1
 2096 0010 FEFFFFEB 		bl	_ZN11flatbuffers17FlatBufferBuilder11StartVectorEjj.constprop.148
 2097 0014 283094E5 		ldr	r3, [r4, #40]
 2098 0018 0400A0E1 		mov	r0, r4
 2099 001c 006095E5 		ldr	r6, [r5]
 2100 0020 142094E5 		ldr	r2, [r4, #20]
 2101 0024 030053E3 		cmp	r3, #3
 2102 0028 185094E5 		ldr	r5, [r4, #24]
 2103 002c 0430A093 		movls	r3, #4
 2104 0030 28308495 		strls	r3, [r4, #40]
 2105 0034 103094E5 		ldr	r3, [r4, #16]
 2106 0038 025045E0 		sub	r5, r5, r2
 2107 003c 035045E0 		sub	r5, r5, r3
 2108 0040 035005E2 		and	r5, r5, #3
 2109 0044 0510A0E1 		mov	r1, r5
 2110 0048 FEFFFFEB 		bl	_ZN11flatbuffers15vector_downward12ensure_spaceEj
 2111 004c 183094E5 		ldr	r3, [r4, #24]
 2112 0050 000055E3 		cmp	r5, #0
 2113 0054 000043E0 		sub	r0, r3, r0
 2114 0058 180084E5 		str	r0, [r4, #24]
 2115 005c 0800000A 		beq	.L339
 2116 0060 010055E3 		cmp	r5, #1
 2117 0064 0030A0E3 		mov	r3, #0
 2118 0068 0030C0E5 		strb	r3, [r0]
 2119 006c 0400000A 		beq	.L339
 2120 0070 182094E5 		ldr	r2, [r4, #24]
 2121 0074 020055E3 		cmp	r5, #2
 2122 0078 0130C2E5 		strb	r3, [r2, #1]
 2123 007c 18209415 		ldrne	r2, [r4, #24]
 2124 0080 0230C215 		strbne	r3, [r2, #2]
 2125              	.L339:
 2126 0084 000056E3 		cmp	r6, #0
 2127 0088 5300000A 		beq	.L340
 2128 008c 182094E5 		ldr	r2, [r4, #24]
 2129 0090 141094E5 		ldr	r1, [r4, #20]
 2130 0094 103094E5 		ldr	r3, [r4, #16]
 2131 0098 012042E0 		sub	r2, r2, r1
 2132 009c 023043E0 		sub	r3, r3, r2
 2133 00a0 030056E1 		cmp	r6, r3
 2134 00a4 4C00008A 		bhi	.L340
 2135 00a8 282094E5 		ldr	r2, [r4, #40]
 2136 00ac 046066E2 		rsb	r6, r6, #4
 2137 00b0 036086E0 		add	r6, r6, r3
 2138 00b4 003063E2 		rsb	r3, r3, #0
 2139 00b8 035003E2 		and	r5, r3, #3
 2140 00bc 0400A0E1 		mov	r0, r4
 2141 00c0 030052E3 		cmp	r2, #3
 2142 00c4 0510A0E1 		mov	r1, r5
 2143 00c8 0420A093 		movls	r2, #4
 2144 00cc 28208495 		strls	r2, [r4, #40]
 2145 00d0 FEFFFFEB 		bl	_ZN11flatbuffers15vector_downward12ensure_spaceEj
 2146 00d4 183094E5 		ldr	r3, [r4, #24]
 2147 00d8 000055E3 		cmp	r5, #0
 2148 00dc 000043E0 		sub	r0, r3, r0
 2149 00e0 180084E5 		str	r0, [r4, #24]
 2150 00e4 0800000A 		beq	.L342
 2151 00e8 010055E3 		cmp	r5, #1
 2152 00ec 0030A0E3 		mov	r3, #0
 2153 00f0 0030C0E5 		strb	r3, [r0]
 2154 00f4 0400000A 		beq	.L342
 2155 00f8 182094E5 		ldr	r2, [r4, #24]
 2156 00fc 020055E3 		cmp	r5, #2
 2157 0100 0130C2E5 		strb	r3, [r2, #1]
 2158 0104 18209415 		ldrne	r2, [r4, #24]
 2159 0108 0230C215 		strbne	r3, [r2, #2]
 2160              	.L342:
 2161 010c 0410A0E3 		mov	r1, #4
 2162 0110 0400A0E1 		mov	r0, r4
 2163 0114 FEFFFFEB 		bl	_ZN11flatbuffers15vector_downward12ensure_spaceEj
 2164 0118 182094E5 		ldr	r2, [r4, #24]
 2165 011c 26C0D4E5 		ldrb	ip, [r4, #38]	@ zero_extendqisi2
 2166 0120 141094E5 		ldr	r1, [r4, #20]
 2167 0124 103094E5 		ldr	r3, [r4, #16]
 2168 0128 000042E0 		sub	r0, r2, r0
 2169 012c 00005CE3 		cmp	ip, #0
 2170 0130 180084E5 		str	r0, [r4, #24]
 2171 0134 011040E0 		sub	r1, r0, r1
 2172 0138 006080E5 		str	r6, [r0]
 2173 013c 013043E0 		sub	r3, r3, r1
 2174 0140 2D00000A 		beq	.L380
 2175 0144 282094E5 		ldr	r2, [r4, #40]
 2176 0148 003063E2 		rsb	r3, r3, #0
 2177 014c 035003E2 		and	r5, r3, #3
 2178 0150 0010A0E3 		mov	r1, #0
 2179 0154 2610C4E5 		strb	r1, [r4, #38]
 2180 0158 0400A0E1 		mov	r0, r4
 2181 015c 030052E3 		cmp	r2, #3
 2182 0160 0510A0E1 		mov	r1, r5
 2183 0164 0420A093 		movls	r2, #4
 2184 0168 28208495 		strls	r2, [r4, #40]
 2185 016c FEFFFFEB 		bl	_ZN11flatbuffers15vector_downward12ensure_spaceEj
 2186 0170 183094E5 		ldr	r3, [r4, #24]
 2187 0174 000055E3 		cmp	r5, #0
 2188 0178 000043E0 		sub	r0, r3, r0
 2189 017c 180084E5 		str	r0, [r4, #24]
 2190 0180 0800000A 		beq	.L346
 2191 0184 010055E3 		cmp	r5, #1
 2192 0188 0030A0E3 		mov	r3, #0
 2193 018c 0030C0E5 		strb	r3, [r0]
 2194 0190 0400000A 		beq	.L346
 2195 0194 182094E5 		ldr	r2, [r4, #24]
 2196 0198 020055E3 		cmp	r5, #2
 2197 019c 0130C2E5 		strb	r3, [r2, #1]
 2198 01a0 18209415 		ldrne	r2, [r4, #24]
 2199 01a4 0230C215 		strbne	r3, [r2, #2]
 2200              	.L346:
 2201 01a8 0410A0E3 		mov	r1, #4
 2202 01ac 0400A0E1 		mov	r0, r4
 2203 01b0 FEFFFFEB 		bl	_ZN11flatbuffers15vector_downward12ensure_spaceEj
 2204 01b4 183094E5 		ldr	r3, [r4, #24]
 2205 01b8 0110A0E3 		mov	r1, #1
 2206 01bc 142094E5 		ldr	r2, [r4, #20]
 2207 01c0 10C094E5 		ldr	ip, [r4, #16]
 2208 01c4 003043E0 		sub	r3, r3, r0
 2209 01c8 022043E0 		sub	r2, r3, r2
 2210 01cc 183084E5 		str	r3, [r4, #24]
 2211 01d0 02004CE0 		sub	r0, ip, r2
 2212 01d4 001083E5 		str	r1, [r3]
 2213 01d8 7080BDE8 		pop	{r4, r5, r6, pc}
 2214              	.L340:
 2215 01dc 003000E3 		movw	r3, #:lower16:.LC25
 2216 01e0 002000E3 		movw	r2, #:lower16:.LANCHOR13
 2217 01e4 000000E3 		movw	r0, #:lower16:.LC19
 2218 01e8 003040E3 		movt	r3, #:upper16:.LC25
 2219 01ec 002040E3 		movt	r2, #:upper16:.LANCHOR13
 2220 01f0 000040E3 		movt	r0, #:upper16:.LC19
 2221 01f4 3B1500E3 		movw	r1, #1339
 2222 01f8 FEFFFFEB 		bl	__assert_func
 2223              	.L380:
 2224 01fc 003000E3 		movw	r3, #:lower16:.LC26
 2225 0200 002000E3 		movw	r2, #:lower16:.LANCHOR14
 2226 0204 000000E3 		movw	r0, #:lower16:.LC19
 2227 0208 003040E3 		movt	r3, #:upper16:.LC26
 2228 020c 002040E3 		movt	r2, #:upper16:.LANCHOR14
 2229 0210 000040E3 		movt	r0, #:upper16:.LC19
 2230 0214 2C1600E3 		movw	r1, #1580
 2231 0218 FEFFFFEB 		bl	__assert_func
 2232              		.fnend
 2234              		.section	.text._ZN11flatbuffers17FlatBufferBuilder12CreateVectorIN6tflite8SubGraphEEENS_6OffsetINS
 2235              		.align	2
 2236              		.syntax unified
 2237              		.arm
 2238              		.fpu neon
 2240              	_ZN11flatbuffers17FlatBufferBuilder12CreateVectorIN6tflite8SubGraphEEENS_6OffsetINS_6VectorINS4_IT_
 2241              		.fnstart
 2242              	.LFB11825:
 2243              		@ args = 0, pretend = 0, frame = 0
 2244              		@ frame_needed = 0, uses_anonymous_args = 0
 2245 0000 70402DE9 		push	{r4, r5, r6, lr}
 2246              		.save {r4, r5, r6, lr}
 2247 0004 0040A0E1 		mov	r4, r0
 2248 0008 0150A0E1 		mov	r5, r1
 2249 000c 0110A0E3 		mov	r1, #1
 2250 0010 FEFFFFEB 		bl	_ZN11flatbuffers17FlatBufferBuilder11StartVectorEjj.constprop.148
 2251 0014 283094E5 		ldr	r3, [r4, #40]
 2252 0018 0400A0E1 		mov	r0, r4
 2253 001c 006095E5 		ldr	r6, [r5]
 2254 0020 142094E5 		ldr	r2, [r4, #20]
 2255 0024 030053E3 		cmp	r3, #3
 2256 0028 185094E5 		ldr	r5, [r4, #24]
 2257 002c 0430A093 		movls	r3, #4
 2258 0030 28308495 		strls	r3, [r4, #40]
 2259 0034 103094E5 		ldr	r3, [r4, #16]
 2260 0038 025045E0 		sub	r5, r5, r2
 2261 003c 035045E0 		sub	r5, r5, r3
 2262 0040 035005E2 		and	r5, r5, #3
 2263 0044 0510A0E1 		mov	r1, r5
 2264 0048 FEFFFFEB 		bl	_ZN11flatbuffers15vector_downward12ensure_spaceEj
 2265 004c 183094E5 		ldr	r3, [r4, #24]
 2266 0050 000055E3 		cmp	r5, #0
 2267 0054 000043E0 		sub	r0, r3, r0
 2268 0058 180084E5 		str	r0, [r4, #24]
 2269 005c 0800000A 		beq	.L383
 2270 0060 010055E3 		cmp	r5, #1
 2271 0064 0030A0E3 		mov	r3, #0
 2272 0068 0030C0E5 		strb	r3, [r0]
 2273 006c 0400000A 		beq	.L383
 2274 0070 182094E5 		ldr	r2, [r4, #24]
 2275 0074 020055E3 		cmp	r5, #2
 2276 0078 0130C2E5 		strb	r3, [r2, #1]
 2277 007c 18209415 		ldrne	r2, [r4, #24]
 2278 0080 0230C215 		strbne	r3, [r2, #2]
 2279              	.L383:
 2280 0084 000056E3 		cmp	r6, #0
 2281 0088 5300000A 		beq	.L384
 2282 008c 182094E5 		ldr	r2, [r4, #24]
 2283 0090 141094E5 		ldr	r1, [r4, #20]
 2284 0094 103094E5 		ldr	r3, [r4, #16]
 2285 0098 012042E0 		sub	r2, r2, r1
 2286 009c 023043E0 		sub	r3, r3, r2
 2287 00a0 030056E1 		cmp	r6, r3
 2288 00a4 4C00008A 		bhi	.L384
 2289 00a8 282094E5 		ldr	r2, [r4, #40]
 2290 00ac 046066E2 		rsb	r6, r6, #4
 2291 00b0 036086E0 		add	r6, r6, r3
 2292 00b4 003063E2 		rsb	r3, r3, #0
 2293 00b8 035003E2 		and	r5, r3, #3
 2294 00bc 0400A0E1 		mov	r0, r4
 2295 00c0 030052E3 		cmp	r2, #3
 2296 00c4 0510A0E1 		mov	r1, r5
 2297 00c8 0420A093 		movls	r2, #4
 2298 00cc 28208495 		strls	r2, [r4, #40]
 2299 00d0 FEFFFFEB 		bl	_ZN11flatbuffers15vector_downward12ensure_spaceEj
 2300 00d4 183094E5 		ldr	r3, [r4, #24]
 2301 00d8 000055E3 		cmp	r5, #0
 2302 00dc 000043E0 		sub	r0, r3, r0
 2303 00e0 180084E5 		str	r0, [r4, #24]
 2304 00e4 0800000A 		beq	.L386
 2305 00e8 010055E3 		cmp	r5, #1
 2306 00ec 0030A0E3 		mov	r3, #0
 2307 00f0 0030C0E5 		strb	r3, [r0]
 2308 00f4 0400000A 		beq	.L386
 2309 00f8 182094E5 		ldr	r2, [r4, #24]
 2310 00fc 020055E3 		cmp	r5, #2
 2311 0100 0130C2E5 		strb	r3, [r2, #1]
 2312 0104 18209415 		ldrne	r2, [r4, #24]
 2313 0108 0230C215 		strbne	r3, [r2, #2]
 2314              	.L386:
 2315 010c 0410A0E3 		mov	r1, #4
 2316 0110 0400A0E1 		mov	r0, r4
 2317 0114 FEFFFFEB 		bl	_ZN11flatbuffers15vector_downward12ensure_spaceEj
 2318 0118 182094E5 		ldr	r2, [r4, #24]
 2319 011c 26C0D4E5 		ldrb	ip, [r4, #38]	@ zero_extendqisi2
 2320 0120 141094E5 		ldr	r1, [r4, #20]
 2321 0124 103094E5 		ldr	r3, [r4, #16]
 2322 0128 000042E0 		sub	r0, r2, r0
 2323 012c 00005CE3 		cmp	ip, #0
 2324 0130 180084E5 		str	r0, [r4, #24]
 2325 0134 011040E0 		sub	r1, r0, r1
 2326 0138 006080E5 		str	r6, [r0]
 2327 013c 013043E0 		sub	r3, r3, r1
 2328 0140 2D00000A 		beq	.L424
 2329 0144 282094E5 		ldr	r2, [r4, #40]
 2330 0148 003063E2 		rsb	r3, r3, #0
 2331 014c 035003E2 		and	r5, r3, #3
 2332 0150 0010A0E3 		mov	r1, #0
 2333 0154 2610C4E5 		strb	r1, [r4, #38]
 2334 0158 0400A0E1 		mov	r0, r4
 2335 015c 030052E3 		cmp	r2, #3
 2336 0160 0510A0E1 		mov	r1, r5
 2337 0164 0420A093 		movls	r2, #4
 2338 0168 28208495 		strls	r2, [r4, #40]
 2339 016c FEFFFFEB 		bl	_ZN11flatbuffers15vector_downward12ensure_spaceEj
 2340 0170 183094E5 		ldr	r3, [r4, #24]
 2341 0174 000055E3 		cmp	r5, #0
 2342 0178 000043E0 		sub	r0, r3, r0
 2343 017c 180084E5 		str	r0, [r4, #24]
 2344 0180 0800000A 		beq	.L390
 2345 0184 010055E3 		cmp	r5, #1
 2346 0188 0030A0E3 		mov	r3, #0
 2347 018c 0030C0E5 		strb	r3, [r0]
 2348 0190 0400000A 		beq	.L390
 2349 0194 182094E5 		ldr	r2, [r4, #24]
 2350 0198 020055E3 		cmp	r5, #2
 2351 019c 0130C2E5 		strb	r3, [r2, #1]
 2352 01a0 18209415 		ldrne	r2, [r4, #24]
 2353 01a4 0230C215 		strbne	r3, [r2, #2]
 2354              	.L390:
 2355 01a8 0410A0E3 		mov	r1, #4
 2356 01ac 0400A0E1 		mov	r0, r4
 2357 01b0 FEFFFFEB 		bl	_ZN11flatbuffers15vector_downward12ensure_spaceEj
 2358 01b4 183094E5 		ldr	r3, [r4, #24]
 2359 01b8 0110A0E3 		mov	r1, #1
 2360 01bc 142094E5 		ldr	r2, [r4, #20]
 2361 01c0 10C094E5 		ldr	ip, [r4, #16]
 2362 01c4 003043E0 		sub	r3, r3, r0
 2363 01c8 022043E0 		sub	r2, r3, r2
 2364 01cc 183084E5 		str	r3, [r4, #24]
 2365 01d0 02004CE0 		sub	r0, ip, r2
 2366 01d4 001083E5 		str	r1, [r3]
 2367 01d8 7080BDE8 		pop	{r4, r5, r6, pc}
 2368              	.L384:
 2369 01dc 003000E3 		movw	r3, #:lower16:.LC25
 2370 01e0 002000E3 		movw	r2, #:lower16:.LANCHOR13
 2371 01e4 000000E3 		movw	r0, #:lower16:.LC19
 2372 01e8 003040E3 		movt	r3, #:upper16:.LC25
 2373 01ec 002040E3 		movt	r2, #:upper16:.LANCHOR13
 2374 01f0 000040E3 		movt	r0, #:upper16:.LC19
 2375 01f4 3B1500E3 		movw	r1, #1339
 2376 01f8 FEFFFFEB 		bl	__assert_func
 2377              	.L424:
 2378 01fc 003000E3 		movw	r3, #:lower16:.LC26
 2379 0200 002000E3 		movw	r2, #:lower16:.LANCHOR14
 2380 0204 000000E3 		movw	r0, #:lower16:.LC19
 2381 0208 003040E3 		movt	r3, #:upper16:.LC26
 2382 020c 002040E3 		movt	r2, #:upper16:.LANCHOR14
 2383 0210 000040E3 		movt	r0, #:upper16:.LC19
 2384 0214 2C1600E3 		movw	r1, #1580
 2385 0218 FEFFFFEB 		bl	__assert_func
 2386              		.fnend
 2388              		.section	.text._ZN11flatbuffers17FlatBufferBuilder7ReferToEm,"axG",%progbits,_ZN11flatbuffers17Fla
 2389              		.align	2
 2390              		.weak	_ZN11flatbuffers17FlatBufferBuilder7ReferToEm
 2391              		.syntax unified
 2392              		.arm
 2393              		.fpu neon
 2395              	_ZN11flatbuffers17FlatBufferBuilder7ReferToEm:
 2396              		.fnstart
 2397              	.LFB3637:
 2398              		@ args = 0, pretend = 0, frame = 0
 2399              		@ frame_needed = 0, uses_anonymous_args = 0
 2400 0000 283090E5 		ldr	r3, [r0, #40]
 2401 0004 70402DE9 		push	{r4, r5, r6, lr}
 2402              		.save {r4, r5, r6, lr}
 2403 0008 0040A0E1 		mov	r4, r0
 2404 000c 185090E5 		ldr	r5, [r0, #24]
 2405 0010 0160A0E1 		mov	r6, r1
 2406 0014 030053E3 		cmp	r3, #3
 2407 0018 0430A093 		movls	r3, #4
 2408 001c 142090E5 		ldr	r2, [r0, #20]
 2409 0020 28308095 		strls	r3, [r0, #40]
 2410 0024 103090E5 		ldr	r3, [r0, #16]
 2411 0028 025045E0 		sub	r5, r5, r2
 2412 002c 035045E0 		sub	r5, r5, r3
 2413 0030 035005E2 		and	r5, r5, #3
 2414 0034 0510A0E1 		mov	r1, r5
 2415 0038 FEFFFFEB 		bl	_ZN11flatbuffers15vector_downward12ensure_spaceEj
 2416 003c 183094E5 		ldr	r3, [r4, #24]
 2417 0040 000055E3 		cmp	r5, #0
 2418 0044 000043E0 		sub	r0, r3, r0
 2419 0048 180084E5 		str	r0, [r4, #24]
 2420 004c 0800000A 		beq	.L427
 2421 0050 010055E3 		cmp	r5, #1
 2422 0054 0030A0E3 		mov	r3, #0
 2423 0058 0030C0E5 		strb	r3, [r0]
 2424 005c 0400000A 		beq	.L427
 2425 0060 182094E5 		ldr	r2, [r4, #24]
 2426 0064 020055E3 		cmp	r5, #2
 2427 0068 0130C2E5 		strb	r3, [r2, #1]
 2428 006c 18209415 		ldrne	r2, [r4, #24]
 2429 0070 0230C215 		strbne	r3, [r2, #2]
 2430              	.L427:
 2431 0074 000056E3 		cmp	r6, #0
 2432 0078 0800000A 		beq	.L428
 2433 007c 100084E2 		add	r0, r4, #16
 2434 0080 0D0090E8 		ldm	r0, {r0, r2, r3}
 2435 0084 023043E0 		sub	r3, r3, r2
 2436 0088 030040E0 		sub	r0, r0, r3
 2437 008c 000056E1 		cmp	r6, r0
 2438 0090 0200008A 		bhi	.L428
 2439 0094 046066E2 		rsb	r6, r6, #4
 2440 0098 000086E0 		add	r0, r6, r0
 2441 009c 7080BDE8 		pop	{r4, r5, r6, pc}
 2442              	.L428:
 2443 00a0 003000E3 		movw	r3, #:lower16:.LC25
 2444 00a4 002000E3 		movw	r2, #:lower16:.LANCHOR13
 2445 00a8 000000E3 		movw	r0, #:lower16:.LC19
 2446 00ac 003040E3 		movt	r3, #:upper16:.LC25
 2447 00b0 002040E3 		movt	r2, #:upper16:.LANCHOR13
 2448 00b4 000040E3 		movt	r0, #:upper16:.LC19
 2449 00b8 3B1500E3 		movw	r1, #1339
 2450 00bc FEFFFFEB 		bl	__assert_func
 2451              		.fnend
 2453              		.section	.text._ZN11flatbuffers17FlatBufferBuilder6FinishEmPKcb.constprop.146,"ax",%progbits
 2454              		.align	2
 2455              		.syntax unified
 2456              		.arm
 2457              		.fpu neon
 2459              	_ZN11flatbuffers17FlatBufferBuilder6FinishEmPKcb.constprop.146:
 2460              		.fnstart
 2461              	.LFB11811:
 2462              		@ args = 0, pretend = 0, frame = 0
 2463              		@ frame_needed = 0, uses_anonymous_args = 0
 2464 0000 2630D0E5 		ldrb	r3, [r0, #38]	@ zero_extendqisi2
 2465 0004 F0412DE9 		push	{r4, r5, r6, r7, r8, lr}
 2466              		.save {r4, r5, r6, r7, r8, lr}
 2467 0008 204090E5 		ldr	r4, [r0, #32]
 2468 000c 000053E3 		cmp	r3, #0
 2469 0010 4E00001A 		bne	.L465
 2470 0014 000054E3 		cmp	r4, #0
 2471 0018 5400001A 		bne	.L466
 2472 001c 0170A0E1 		mov	r7, r1
 2473 0020 101080E2 		add	r1, r0, #16
 2474 0024 460091E8 		ldm	r1, {r1, r2, r6}
 2475 0028 0050A0E1 		mov	r5, r0
 2476 002c 283090E5 		ldr	r3, [r0, #40]
 2477 0030 026046E0 		sub	r6, r6, r2
 2478 0034 1C2080E5 		str	r2, [r0, #28]
 2479 0038 016046E0 		sub	r6, r6, r1
 2480 003c 013043E2 		sub	r3, r3, #1
 2481 0040 086046E2 		sub	r6, r6, #8
 2482 0044 036006E0 		and	r6, r6, r3
 2483 0048 0610A0E1 		mov	r1, r6
 2484 004c FEFFFFEB 		bl	_ZN11flatbuffers15vector_downward12ensure_spaceEj
 2485 0050 183095E5 		ldr	r3, [r5, #24]
 2486 0054 000056E3 		cmp	r6, #0
 2487 0058 000043E0 		sub	r0, r3, r0
 2488 005c 180085E5 		str	r0, [r5, #24]
 2489 0060 0700000A 		beq	.L446
 2490 0064 0430A0E1 		mov	r3, r4
 2491 0068 0420A0E1 		mov	r2, r4
 2492 006c 000000EA 		b	.L447
 2493              	.L467:
 2494 0070 180095E5 		ldr	r0, [r5, #24]
 2495              	.L447:
 2496 0074 0320C0E7 		strb	r2, [r0, r3]
 2497 0078 013083E2 		add	r3, r3, #1
 2498 007c 030056E1 		cmp	r6, r3
 2499 0080 FAFFFF1A 		bne	.L467
 2500              	.L446:
 2501 0084 0410A0E3 		mov	r1, #4
 2502 0088 0500A0E1 		mov	r0, r5
 2503 008c FEFFFFEB 		bl	_ZN11flatbuffers15vector_downward12ensure_spaceEj
 2504 0090 183095E5 		ldr	r3, [r5, #24]
 2505 0094 0440A0E3 		mov	r4, #4
 2506 0098 001000E3 		movw	r1, #:lower16:.LC27
 2507 009c 0420A0E1 		mov	r2, r4
 2508 00a0 001040E3 		movt	r1, #:upper16:.LC27
 2509 00a4 000043E0 		sub	r0, r3, r0
 2510 00a8 180085E5 		str	r0, [r5, #24]
 2511 00ac FEFFFFEB 		bl	memcpy
 2512 00b0 0710A0E1 		mov	r1, r7
 2513 00b4 0500A0E1 		mov	r0, r5
 2514 00b8 FEFFFFEB 		bl	_ZN11flatbuffers17FlatBufferBuilder7ReferToEm
 2515 00bc 283095E5 		ldr	r3, [r5, #40]
 2516 00c0 0060A0E1 		mov	r6, r0
 2517 00c4 142095E5 		ldr	r2, [r5, #20]
 2518 00c8 0500A0E1 		mov	r0, r5
 2519 00cc 030053E3 		cmp	r3, #3
 2520 00d0 103095E5 		ldr	r3, [r5, #16]
 2521 00d4 28408595 		strls	r4, [r5, #40]
 2522 00d8 184095E5 		ldr	r4, [r5, #24]
 2523 00dc 024044E0 		sub	r4, r4, r2
 2524 00e0 034044E0 		sub	r4, r4, r3
 2525 00e4 034004E2 		and	r4, r4, #3
 2526 00e8 0410A0E1 		mov	r1, r4
 2527 00ec FEFFFFEB 		bl	_ZN11flatbuffers15vector_downward12ensure_spaceEj
 2528 00f0 183095E5 		ldr	r3, [r5, #24]
 2529 00f4 000054E3 		cmp	r4, #0
 2530 00f8 000043E0 		sub	r0, r3, r0
 2531 00fc 180085E5 		str	r0, [r5, #24]
 2532 0100 0800000A 		beq	.L450
 2533 0104 010054E3 		cmp	r4, #1
 2534 0108 0030A0E3 		mov	r3, #0
 2535 010c 0030C0E5 		strb	r3, [r0]
 2536 0110 0400000A 		beq	.L450
 2537 0114 182095E5 		ldr	r2, [r5, #24]
 2538 0118 020054E3 		cmp	r4, #2
 2539 011c 0130C2E5 		strb	r3, [r2, #1]
 2540 0120 18209515 		ldrne	r2, [r5, #24]
 2541 0124 0230C215 		strbne	r3, [r2, #2]
 2542              	.L450:
 2543 0128 0410A0E3 		mov	r1, #4
 2544 012c 0500A0E1 		mov	r0, r5
 2545 0130 FEFFFFEB 		bl	_ZN11flatbuffers15vector_downward12ensure_spaceEj
 2546 0134 183095E5 		ldr	r3, [r5, #24]
 2547 0138 0120A0E3 		mov	r2, #1
 2548 013c 000043E0 		sub	r0, r3, r0
 2549 0140 180085E5 		str	r0, [r5, #24]
 2550 0144 006080E5 		str	r6, [r0]
 2551 0148 2720C5E5 		strb	r2, [r5, #39]
 2552 014c F081BDE8 		pop	{r4, r5, r6, r7, r8, pc}
 2553              	.L465:
 2554 0150 003000E3 		movw	r3, #:lower16:.LC24
 2555 0154 002000E3 		movw	r2, #:lower16:.LANCHOR11
 2556 0158 000000E3 		movw	r0, #:lower16:.LC19
 2557 015c 003040E3 		movt	r3, #:upper16:.LC24
 2558 0160 002040E3 		movt	r2, #:upper16:.LANCHOR11
 2559 0164 000040E3 		movt	r0, #:upper16:.LC19
 2560 0168 481500E3 		movw	r1, #1352
 2561 016c FEFFFFEB 		bl	__assert_func
 2562              	.L466:
 2563 0170 FEFFFFEB 		bl	_ZN11flatbuffers17FlatBufferBuilder9NotNestedEv.isra.20.part.21
 2564              		.fnend
 2566              		.section	.text._ZN11flatbuffers17FlatBufferBuilder8EndTableEm,"axG",%progbits,_ZN11flatbuffers17Fl
 2567              		.align	2
 2568              		.weak	_ZN11flatbuffers17FlatBufferBuilder8EndTableEm
 2569              		.syntax unified
 2570              		.arm
 2571              		.fpu neon
 2573              	_ZN11flatbuffers17FlatBufferBuilder8EndTableEm:
 2574              		.fnstart
 2575              	.LFB3640:
 2576              		@ args = 0, pretend = 0, frame = 8
 2577              		@ frame_needed = 0, uses_anonymous_args = 0
 2578 0000 2630D0E5 		ldrb	r3, [r0, #38]	@ zero_extendqisi2
 2579 0004 F04F2DE9 		push	{r4, r5, r6, r7, r8, r9, r10, fp, lr}
 2580              		.save {r4, r5, r6, r7, r8, r9, r10, fp, lr}
 2581              		.pad #12
 2582 0008 0CD04DE2 		sub	sp, sp, #12
 2583 000c 000053E3 		cmp	r3, #0
 2584 0010 B400000A 		beq	.L504
 2585 0014 283090E5 		ldr	r3, [r0, #40]
 2586 0018 0060A0E1 		mov	r6, r0
 2587 001c 184090E5 		ldr	r4, [r0, #24]
 2588 0020 0150A0E1 		mov	r5, r1
 2589 0024 142090E5 		ldr	r2, [r0, #20]
 2590 0028 030053E3 		cmp	r3, #3
 2591 002c 0430A093 		movls	r3, #4
 2592 0030 28308095 		strls	r3, [r0, #40]
 2593 0034 024044E0 		sub	r4, r4, r2
 2594 0038 103090E5 		ldr	r3, [r0, #16]
 2595 003c 034044E0 		sub	r4, r4, r3
 2596 0040 034004E2 		and	r4, r4, #3
 2597 0044 0410A0E1 		mov	r1, r4
 2598 0048 FEFFFFEB 		bl	_ZN11flatbuffers15vector_downward12ensure_spaceEj
 2599 004c 183096E5 		ldr	r3, [r6, #24]
 2600 0050 000054E3 		cmp	r4, #0
 2601 0054 000043E0 		sub	r0, r3, r0
 2602 0058 180086E5 		str	r0, [r6, #24]
 2603 005c 0800000A 		beq	.L471
 2604 0060 010054E3 		cmp	r4, #1
 2605 0064 0030A0E3 		mov	r3, #0
 2606 0068 0030C0E5 		strb	r3, [r0]
 2607 006c 0400000A 		beq	.L471
 2608 0070 182096E5 		ldr	r2, [r6, #24]
 2609 0074 020054E3 		cmp	r4, #2
 2610 0078 0130C2E5 		strb	r3, [r2, #1]
 2611 007c 18209615 		ldrne	r2, [r6, #24]
 2612 0080 0230C215 		strbne	r3, [r2, #2]
 2613              	.L471:
 2614 0084 0410A0E3 		mov	r1, #4
 2615 0088 0600A0E1 		mov	r0, r6
 2616 008c FEFFFFEB 		bl	_ZN11flatbuffers15vector_downward12ensure_spaceEj
 2617 0090 B442D6E1 		ldrh	r4, [r6, #36]
 2618 0094 0070A0E3 		mov	r7, #0
 2619 0098 183096E5 		ldr	r3, [r6, #24]
 2620 009c 14B096E5 		ldr	fp, [r6, #20]
 2621 00a0 024084E2 		add	r4, r4, #2
 2622 00a4 102096E5 		ldr	r2, [r6, #16]
 2623 00a8 7440FFE6 		uxth	r4, r4
 2624 00ac 000043E0 		sub	r0, r3, r0
 2625 00b0 0B3040E0 		sub	r3, r0, fp
 2626 00b4 180086E5 		str	r0, [r6, #24]
 2627 00b8 040054E3 		cmp	r4, #4
 2628 00bc 033042E0 		sub	r3, r2, r3
 2629 00c0 0440A033 		movcc	r4, #4
 2630 00c4 007080E5 		str	r7, [r0]
 2631 00c8 0410A0E1 		mov	r1, r4
 2632 00cc 0600A0E1 		mov	r0, r6
 2633 00d0 B442C6E1 		strh	r4, [r6, #36]	@ movhi
 2634 00d4 0380A0E1 		mov	r8, r3
 2635 00d8 00308DE5 		str	r3, [sp]
 2636 00dc 055048E0 		sub	r5, r8, r5
 2637 00e0 FEFFFFEB 		bl	_ZN11flatbuffers15vector_downward12ensure_spaceEj
 2638 00e4 183096E5 		ldr	r3, [r6, #24]
 2639 00e8 0420A0E1 		mov	r2, r4
 2640 00ec 0710A0E1 		mov	r1, r7
 2641 00f0 000043E0 		sub	r0, r3, r0
 2642 00f4 180086E5 		str	r0, [r6, #24]
 2643 00f8 FEFFFFEB 		bl	memset
 2644 00fc 010855E3 		cmp	r5, #65536
 2645 0100 8100002A 		bcs	.L505
 2646 0104 184096E5 		ldr	r4, [r6, #24]
 2647 0108 000054E3 		cmp	r4, #0
 2648 010c 7D00000A 		beq	.L506
 2649 0110 1C0096E5 		ldr	r0, [r6, #28]
 2650 0114 B250C4E1 		strh	r5, [r4, #2]	@ movhi
 2651 0118 B432D6E1 		ldrh	r3, [r6, #36]
 2652 011c 000050E3 		cmp	r0, #0
 2653 0120 B030C4E1 		strh	r3, [r4]	@ movhi
 2654 0124 5F00000A 		beq	.L485
 2655 0128 209096E5 		ldr	r9, [r6, #32]
 2656 012c 899140E0 		sub	r9, r0, r9, lsl #3
 2657 0130 000059E1 		cmp	r9, r0
 2658 0134 1600002A 		bcs	.L482
 2659 0138 B410D9E1 		ldrh	r1, [r9, #4]
 2660 013c B0C0DDE1 		ldrh	ip, [sp]
 2661 0140 003099E5 		ldr	r3, [r9]
 2662 0144 B12094E1 		ldrh	r2, [r4, r1]
 2663 0148 011084E0 		add	r1, r4, r1
 2664 014c 03304CE0 		sub	r3, ip, r3
 2665 0150 000052E3 		cmp	r2, #0
 2666 0154 7330FFE6 		uxth	r3, r3
 2667 0158 0920A001 		moveq	r2, r9
 2668 015c 0800000A 		beq	.L479
 2669 0160 480000EA 		b	.L480
 2670              	.L481:
 2671 0164 B410D2E1 		ldrh	r1, [r2, #4]
 2672 0168 003092E5 		ldr	r3, [r2]
 2673 016c B1E094E1 		ldrh	lr, [r4, r1]
 2674 0170 011084E0 		add	r1, r4, r1
 2675 0174 03304CE0 		sub	r3, ip, r3
 2676 0178 7330FFE6 		uxth	r3, r3
 2677 017c 00005EE3 		cmp	lr, #0
 2678 0180 4000001A 		bne	.L480
 2679              	.L479:
 2680 0184 082082E2 		add	r2, r2, #8
 2681 0188 B030C1E1 		strh	r3, [r1]	@ movhi
 2682 018c 000052E1 		cmp	r2, r0
 2683 0190 F3FFFF3A 		bcc	.L481
 2684              	.L482:
 2685 0194 2D20D6E5 		ldrb	r2, [r6, #45]	@ zero_extendqisi2
 2686 0198 0030A0E3 		mov	r3, #0
 2687 019c 147096E5 		ldr	r7, [r6, #20]
 2688 01a0 10A096E5 		ldr	r10, [r6, #16]
 2689 01a4 030052E1 		cmp	r2, r3
 2690 01a8 1C9086E5 		str	r9, [r6, #28]
 2691 01ac 072044E0 		sub	r2, r4, r7
 2692 01b0 203086E5 		str	r3, [r6, #32]
 2693 01b4 02204AE0 		sub	r2, r10, r2
 2694 01b8 B432C6E1 		strh	r3, [r6, #36]	@ movhi
 2695 01bc 04208DE5 		str	r2, [sp, #4]
 2696 01c0 1E00000A 		beq	.L477
 2697 01c4 000057E3 		cmp	r7, #0
 2698 01c8 3E00000A 		beq	.L483
 2699 01cc 000059E3 		cmp	r9, #0
 2700 01d0 3400000A 		beq	.L485
 2701 01d4 070059E1 		cmp	r9, r7
 2702 01d8 1800009A 		bls	.L477
 2703 01dc B0B0D4E1 		ldrh	fp, [r4]
 2704 01e0 0750A0E1 		mov	r5, r7
 2705 01e4 010000EA 		b	.L488
 2706              	.L486:
 2707 01e8 050059E1 		cmp	r9, r5
 2708 01ec 1300009A 		bls	.L477
 2709              	.L488:
 2710 01f0 048095E4 		ldr	r8, [r5], #4
 2711 01f4 08004AE0 		sub	r0, r10, r8
 2712 01f8 B03097E1 		ldrh	r3, [r7, r0]
 2713 01fc 000087E0 		add	r0, r7, r0
 2714 0200 0B0053E1 		cmp	r3, fp
 2715 0204 F7FFFF1A 		bne	.L486
 2716 0208 0B20A0E1 		mov	r2, fp
 2717 020c 0410A0E1 		mov	r1, r4
 2718 0210 FEFFFFEB 		bl	memcmp
 2719 0214 000050E3 		cmp	r0, #0
 2720 0218 F2FFFF1A 		bne	.L486
 2721 021c 0C009DE8 		ldm	sp, {r2, r3}
 2722 0220 023043E0 		sub	r3, r3, r2
 2723 0224 034084E0 		add	r4, r4, r3
 2724 0228 073044E0 		sub	r3, r4, r7
 2725 022c 184086E5 		str	r4, [r6, #24]
 2726 0230 03304AE0 		sub	r3, r10, r3
 2727 0234 030058E1 		cmp	r8, r3
 2728 0238 0A00001A 		bne	.L487
 2729 023c 04808DE5 		str	r8, [sp, #4]
 2730              	.L477:
 2731 0240 0410A0E3 		mov	r1, #4
 2732 0244 0600A0E1 		mov	r0, r6
 2733 0248 FEFFFFEB 		bl	_ZN11flatbuffers15vector_downward12ensure_spaceEj
 2734 024c 04209DE5 		ldr	r2, [sp, #4]
 2735 0250 1C3096E5 		ldr	r3, [r6, #28]
 2736 0254 10A096E5 		ldr	r10, [r6, #16]
 2737 0258 0280A0E1 		mov	r8, r2
 2738 025c 147096E5 		ldr	r7, [r6, #20]
 2739 0260 042083E4 		str	r2, [r3], #4
 2740 0264 1C3086E5 		str	r3, [r6, #28]
 2741              	.L487:
 2742 0268 00009DE5 		ldr	r0, [sp]
 2743 026c 0030A0E3 		mov	r3, #0
 2744 0270 00A04AE0 		sub	r10, r10, r0
 2745 0274 008048E0 		sub	r8, r8, r0
 2746 0278 0A8087E7 		str	r8, [r7, r10]
 2747 027c 2630C6E5 		strb	r3, [r6, #38]
 2748 0280 0CD08DE2 		add	sp, sp, #12
 2749              		@ sp needed
 2750 0284 F08FBDE8 		pop	{r4, r5, r6, r7, r8, r9, r10, fp, pc}
 2751              	.L480:
 2752 0288 003000E3 		movw	r3, #:lower16:.LC30
 2753 028c 002000E3 		movw	r2, #:lower16:.LANCHOR15
 2754 0290 000000E3 		movw	r0, #:lower16:.LC19
 2755 0294 003040E3 		movt	r3, #:upper16:.LC30
 2756 0298 002040E3 		movt	r2, #:upper16:.LANCHOR15
 2757 029c 000040E3 		movt	r0, #:upper16:.LC19
 2758 02a0 731500E3 		movw	r1, #1395
 2759 02a4 FEFFFFEB 		bl	__assert_func
 2760              	.L485:
 2761 02a8 003000E3 		movw	r3, #:lower16:.LC29
 2762 02ac 002000E3 		movw	r2, #:lower16:.LANCHOR16
 2763 02b0 000000E3 		movw	r0, #:lower16:.LC19
 2764 02b4 003040E3 		movt	r3, #:upper16:.LC29
 2765 02b8 002040E3 		movt	r2, #:upper16:.LANCHOR16
 2766 02bc 000040E3 		movt	r0, #:upper16:.LC19
 2767 02c0 EF1FA0E3 		mov	r1, #956
 2768 02c4 FEFFFFEB 		bl	__assert_func
 2769              	.L483:
 2770 02c8 003000E3 		movw	r3, #:lower16:.LC31
 2771 02cc 002000E3 		movw	r2, #:lower16:.LANCHOR17
 2772 02d0 000000E3 		movw	r0, #:lower16:.LC19
 2773 02d4 003040E3 		movt	r3, #:upper16:.LC31
 2774 02d8 002040E3 		movt	r2, #:upper16:.LANCHOR17
 2775 02dc 000040E3 		movt	r0, #:upper16:.LC19
 2776 02e0 B71300E3 		movw	r1, #951
 2777 02e4 FEFFFFEB 		bl	__assert_func
 2778              	.L504:
 2779 02e8 003000E3 		movw	r3, #:lower16:.LC26
 2780 02ec 002000E3 		movw	r2, #:lower16:.LANCHOR15
 2781 02f0 000000E3 		movw	r0, #:lower16:.LC19
 2782 02f4 003040E3 		movt	r3, #:upper16:.LC26
 2783 02f8 002040E3 		movt	r2, #:upper16:.LANCHOR15
 2784 02fc 000040E3 		movt	r0, #:upper16:.LC19
 2785 0300 5A1500E3 		movw	r1, #1370
 2786 0304 FEFFFFEB 		bl	__assert_func
 2787              	.L506:
 2788 0308 FEFFFFEB 		bl	_ZNK11flatbuffers15vector_downward4dataEv.isra.9.part.10
 2789              	.L505:
 2790 030c 003000E3 		movw	r3, #:lower16:.LC28
 2791 0310 002000E3 		movw	r2, #:lower16:.LANCHOR15
 2792 0314 000000E3 		movw	r0, #:lower16:.LC19
 2793 0318 003040E3 		movt	r3, #:upper16:.LC28
 2794 031c 002040E3 		movt	r2, #:upper16:.LANCHOR15
 2795 0320 000040E3 		movt	r0, #:upper16:.LC19
 2796 0324 691500E3 		movw	r1, #1385
 2797 0328 FEFFFFEB 		bl	__assert_func
 2798              		.fnend
 2800              		.section	.text._ZN6tflite12CreateTensorERN11flatbuffers17FlatBufferBuilderENS0_6OffsetINS0_6Vector
 2801              		.align	2
 2802              		.syntax unified
 2803              		.arm
 2804              		.fpu neon
 2806              	_ZN6tflite12CreateTensorERN11flatbuffers17FlatBufferBuilderENS0_6OffsetINS0_6VectorIlEEEENS_10Tenso
 2807              		.fnstart
 2808              	.LFB11813:
 2809              		@ args = 16, pretend = 0, frame = 0
 2810              		@ frame_needed = 0, uses_anonymous_args = 0
 2811 0000 F84F2DE9 		push	{r3, r4, r5, r6, r7, r8, r9, r10, fp, lr}
 2812              		.save {r3, r4, r5, r6, r7, r8, r9, r10, fp, lr}
 2813 0004 0180A0E1 		mov	r8, r1
 2814 0008 2610D0E5 		ldrb	r1, [r0, #38]	@ zero_extendqisi2
 2815 000c 0350A0E1 		mov	r5, r3
 2816 0010 28A09DE5 		ldr	r10, [sp, #40]
 2817 0014 000051E3 		cmp	r1, #0
 2818 0018 203090E5 		ldr	r3, [r0, #32]
 2819 001c 2C70DDE5 		ldrb	r7, [sp, #44]	@ zero_extendqisi2
 2820 0020 30B09DE5 		ldr	fp, [sp, #48]
 2821 0024 34109DE5 		ldr	r1, [sp, #52]
 2822 0028 E700001A 		bne	.L573
 2823 002c 000053E3 		cmp	r3, #0
 2824 0030 ED00001A 		bne	.L574
 2825 0034 0290A0E1 		mov	r9, r2
 2826 0038 183090E5 		ldr	r3, [r0, #24]
 2827 003c 142090E5 		ldr	r2, [r0, #20]
 2828 0040 000051E3 		cmp	r1, #0
 2829 0044 106090E5 		ldr	r6, [r0, #16]
 2830 0048 01C0A0E3 		mov	ip, #1
 2831 004c 0040A0E1 		mov	r4, r0
 2832 0050 26C0C0E5 		strb	ip, [r0, #38]
 2833 0054 023043E0 		sub	r3, r3, r2
 2834 0058 036046E0 		sub	r6, r6, r3
 2835 005c D000001A 		bne	.L575
 2836              	.L511:
 2837 0060 00005BE3 		cmp	fp, #0
 2838 0064 C200001A 		bne	.L576
 2839              	.L515:
 2840 0068 00005AE3 		cmp	r10, #0
 2841 006c B400001A 		bne	.L577
 2842              	.L519:
 2843 0070 000055E3 		cmp	r5, #0
 2844 0074 5C00001A 		bne	.L578
 2845              	.L522:
 2846 0078 000059E3 		cmp	r9, #0
 2847 007c 6400001A 		bne	.L525
 2848 0080 2C30D4E5 		ldrb	r3, [r4, #44]	@ zero_extendqisi2
 2849 0084 000053E3 		cmp	r3, #0
 2850 0088 6100001A 		bne	.L525
 2851              	.L526:
 2852 008c 000058E3 		cmp	r8, #0
 2853 0090 9700001A 		bne	.L579
 2854              	.L529:
 2855 0094 000057E3 		cmp	r7, #0
 2856 0098 9F00001A 		bne	.L548
 2857 009c 2C30D4E5 		ldrb	r3, [r4, #44]	@ zero_extendqisi2
 2858 00a0 000053E3 		cmp	r3, #0
 2859 00a4 2500000A 		beq	.L533
 2860              	.L532:
 2861 00a8 283094E5 		ldr	r3, [r4, #40]
 2862 00ac 0010A0E3 		mov	r1, #0
 2863 00b0 0400A0E1 		mov	r0, r4
 2864 00b4 000053E3 		cmp	r3, #0
 2865 00b8 0130A003 		moveq	r3, #1
 2866 00bc 28308405 		streq	r3, [r4, #40]
 2867 00c0 FEFFFFEB 		bl	_ZN11flatbuffers15vector_downward12ensure_spaceEj
 2868 00c4 183094E5 		ldr	r3, [r4, #24]
 2869 00c8 0110A0E3 		mov	r1, #1
 2870 00cc 003043E0 		sub	r3, r3, r0
 2871 00d0 0400A0E1 		mov	r0, r4
 2872 00d4 183084E5 		str	r3, [r4, #24]
 2873 00d8 FEFFFFEB 		bl	_ZN11flatbuffers15vector_downward12ensure_spaceEj
 2874 00dc 183094E5 		ldr	r3, [r4, #24]
 2875 00e0 0810A0E3 		mov	r1, #8
 2876 00e4 003043E0 		sub	r3, r3, r0
 2877 00e8 0400A0E1 		mov	r0, r4
 2878 00ec 183084E5 		str	r3, [r4, #24]
 2879 00f0 0070C3E5 		strb	r7, [r3]
 2880 00f4 142094E5 		ldr	r2, [r4, #20]
 2881 00f8 183094E5 		ldr	r3, [r4, #24]
 2882 00fc 105094E5 		ldr	r5, [r4, #16]
 2883 0100 023043E0 		sub	r3, r3, r2
 2884 0104 035045E0 		sub	r5, r5, r3
 2885 0108 FEFFFFEB 		bl	_ZN11flatbuffers15vector_downward12ensure_spaceEj
 2886 010c 1C3094E5 		ldr	r3, [r4, #28]
 2887 0110 0E00A0E3 		mov	r0, #14
 2888 0114 202094E5 		ldr	r2, [r4, #32]
 2889 0118 081083E2 		add	r1, r3, #8
 2890 011c 005083E5 		str	r5, [r3]
 2891 0120 B400C3E1 		strh	r0, [r3, #4]	@ movhi
 2892 0124 012082E2 		add	r2, r2, #1
 2893 0128 B432D4E1 		ldrh	r3, [r4, #36]
 2894 012c 1C1084E5 		str	r1, [r4, #28]
 2895 0130 202084E5 		str	r2, [r4, #32]
 2896 0134 000053E1 		cmp	r3, r0
 2897 0138 0030A0B1 		movlt	r3, r0
 2898 013c B432C4E1 		strh	r3, [r4, #36]	@ movhi
 2899              	.L533:
 2900 0140 283094E5 		ldr	r3, [r4, #40]
 2901 0144 0010A0E3 		mov	r1, #0
 2902 0148 0400A0E1 		mov	r0, r4
 2903 014c 000053E3 		cmp	r3, #0
 2904 0150 0130A003 		moveq	r3, #1
 2905 0154 28308405 		streq	r3, [r4, #40]
 2906 0158 FEFFFFEB 		bl	_ZN11flatbuffers15vector_downward12ensure_spaceEj
 2907 015c 183094E5 		ldr	r3, [r4, #24]
 2908 0160 0110A0E3 		mov	r1, #1
 2909 0164 003043E0 		sub	r3, r3, r0
 2910 0168 0400A0E1 		mov	r0, r4
 2911 016c 183084E5 		str	r3, [r4, #24]
 2912 0170 FEFFFFEB 		bl	_ZN11flatbuffers15vector_downward12ensure_spaceEj
 2913 0174 183094E5 		ldr	r3, [r4, #24]
 2914 0178 0220A0E3 		mov	r2, #2
 2915 017c 0810A0E3 		mov	r1, #8
 2916 0180 003043E0 		sub	r3, r3, r0
 2917 0184 0400A0E1 		mov	r0, r4
 2918 0188 183084E5 		str	r3, [r4, #24]
 2919 018c 0020C3E5 		strb	r2, [r3]
 2920 0190 142094E5 		ldr	r2, [r4, #20]
 2921 0194 183094E5 		ldr	r3, [r4, #24]
 2922 0198 105094E5 		ldr	r5, [r4, #16]
 2923 019c 023043E0 		sub	r3, r3, r2
 2924 01a0 035045E0 		sub	r5, r5, r3
 2925 01a4 FEFFFFEB 		bl	_ZN11flatbuffers15vector_downward12ensure_spaceEj
 2926 01a8 1C3094E5 		ldr	r3, [r4, #28]
 2927 01ac 06E0A0E3 		mov	lr, #6
 2928 01b0 202094E5 		ldr	r2, [r4, #32]
 2929 01b4 0610A0E1 		mov	r1, r6
 2930 01b8 0400A0E1 		mov	r0, r4
 2931 01bc 005083E5 		str	r5, [r3]
 2932 01c0 08C083E2 		add	ip, r3, #8
 2933 01c4 B4E0C3E1 		strh	lr, [r3, #4]	@ movhi
 2934 01c8 012082E2 		add	r2, r2, #1
 2935 01cc B432D4E1 		ldrh	r3, [r4, #36]
 2936 01d0 1CC084E5 		str	ip, [r4, #28]
 2937 01d4 202084E5 		str	r2, [r4, #32]
 2938 01d8 0E0053E1 		cmp	r3, lr
 2939 01dc 0E30A0B1 		movlt	r3, lr
 2940 01e0 B432C4E1 		strh	r3, [r4, #36]	@ movhi
 2941 01e4 FEFFFFEB 		bl	_ZN11flatbuffers17FlatBufferBuilder8EndTableEm
 2942 01e8 F88FBDE8 		pop	{r3, r4, r5, r6, r7, r8, r9, r10, fp, pc}
 2943              	.L578:
 2944 01ec 0510A0E1 		mov	r1, r5
 2945 01f0 0400A0E1 		mov	r0, r4
 2946 01f4 FEFFFFEB 		bl	_ZN11flatbuffers17FlatBufferBuilder7ReferToEm
 2947 01f8 002050E2 		subs	r2, r0, #0
 2948 01fc 4C00001A 		bne	.L523
 2949 0200 2C30D4E5 		ldrb	r3, [r4, #44]	@ zero_extendqisi2
 2950 0204 000053E3 		cmp	r3, #0
 2951 0208 4900001A 		bne	.L523
 2952 020c 000059E3 		cmp	r9, #0
 2953 0210 9DFFFF0A 		beq	.L526
 2954              	.L525:
 2955 0214 283094E5 		ldr	r3, [r4, #40]
 2956 0218 0400A0E1 		mov	r0, r4
 2957 021c 185094E5 		ldr	r5, [r4, #24]
 2958 0220 142094E5 		ldr	r2, [r4, #20]
 2959 0224 030053E3 		cmp	r3, #3
 2960 0228 0430A093 		movls	r3, #4
 2961 022c 28308495 		strls	r3, [r4, #40]
 2962 0230 025045E0 		sub	r5, r5, r2
 2963 0234 103094E5 		ldr	r3, [r4, #16]
 2964 0238 035045E0 		sub	r5, r5, r3
 2965 023c 035005E2 		and	r5, r5, #3
 2966 0240 0510A0E1 		mov	r1, r5
 2967 0244 FEFFFFEB 		bl	_ZN11flatbuffers15vector_downward12ensure_spaceEj
 2968 0248 183094E5 		ldr	r3, [r4, #24]
 2969 024c 000055E3 		cmp	r5, #0
 2970 0250 000043E0 		sub	r0, r3, r0
 2971 0254 180084E5 		str	r0, [r4, #24]
 2972 0258 0800000A 		beq	.L527
 2973 025c 010055E3 		cmp	r5, #1
 2974 0260 0030A0E3 		mov	r3, #0
 2975 0264 0030C0E5 		strb	r3, [r0]
 2976 0268 0400000A 		beq	.L527
 2977 026c 182094E5 		ldr	r2, [r4, #24]
 2978 0270 020055E3 		cmp	r5, #2
 2979 0274 0130C2E5 		strb	r3, [r2, #1]
 2980 0278 18209415 		ldrne	r2, [r4, #24]
 2981 027c 0230C215 		strbne	r3, [r2, #2]
 2982              	.L527:
 2983 0280 0410A0E3 		mov	r1, #4
 2984 0284 0400A0E1 		mov	r0, r4
 2985 0288 FEFFFFEB 		bl	_ZN11flatbuffers15vector_downward12ensure_spaceEj
 2986 028c 183094E5 		ldr	r3, [r4, #24]
 2987 0290 0810A0E3 		mov	r1, #8
 2988 0294 142094E5 		ldr	r2, [r4, #20]
 2989 0298 105094E5 		ldr	r5, [r4, #16]
 2990 029c 000043E0 		sub	r0, r3, r0
 2991 02a0 023040E0 		sub	r3, r0, r2
 2992 02a4 180084E5 		str	r0, [r4, #24]
 2993 02a8 009080E5 		str	r9, [r0]
 2994 02ac 0400A0E1 		mov	r0, r4
 2995 02b0 035045E0 		sub	r5, r5, r3
 2996 02b4 FEFFFFEB 		bl	_ZN11flatbuffers15vector_downward12ensure_spaceEj
 2997 02b8 1C3094E5 		ldr	r3, [r4, #28]
 2998 02bc 0800A0E3 		mov	r0, #8
 2999 02c0 202094E5 		ldr	r2, [r4, #32]
 3000 02c4 001083E0 		add	r1, r3, r0
 3001 02c8 005083E5 		str	r5, [r3]
 3002 02cc B400C3E1 		strh	r0, [r3, #4]	@ movhi
 3003 02d0 012082E2 		add	r2, r2, #1
 3004 02d4 B432D4E1 		ldrh	r3, [r4, #36]
 3005 02d8 1C1084E5 		str	r1, [r4, #28]
 3006 02dc 202084E5 		str	r2, [r4, #32]
 3007 02e0 000053E1 		cmp	r3, r0
 3008 02e4 0030A0B1 		movlt	r3, r0
 3009 02e8 000058E3 		cmp	r8, #0
 3010 02ec B432C4E1 		strh	r3, [r4, #36]	@ movhi
 3011 02f0 67FFFF0A 		beq	.L529
 3012              	.L579:
 3013 02f4 0810A0E1 		mov	r1, r8
 3014 02f8 0400A0E1 		mov	r0, r4
 3015 02fc FEFFFFEB 		bl	_ZN11flatbuffers17FlatBufferBuilder7ReferToEm
 3016 0300 002050E2 		subs	r2, r0, #0
 3017 0304 0600001A 		bne	.L530
 3018 0308 2C30D4E5 		ldrb	r3, [r4, #44]	@ zero_extendqisi2
 3019 030c 000053E3 		cmp	r3, #0
 3020 0310 0300001A 		bne	.L530
 3021 0314 000057E3 		cmp	r7, #0
 3022 0318 88FFFF0A 		beq	.L533
 3023              	.L548:
 3024 031c 0170A0E3 		mov	r7, #1
 3025 0320 60FFFFEA 		b	.L532
 3026              	.L530:
 3027 0324 0410A0E3 		mov	r1, #4
 3028 0328 0400A0E1 		mov	r0, r4
 3029 032c FEFFFFEB 		bl	_ZN11flatbuffers17FlatBufferBuilder10AddElementImEEvtT_S2_.part.45
 3030 0330 57FFFFEA 		b	.L529
 3031              	.L523:
 3032 0334 0A10A0E3 		mov	r1, #10
 3033 0338 0400A0E1 		mov	r0, r4
 3034 033c FEFFFFEB 		bl	_ZN11flatbuffers17FlatBufferBuilder10AddElementImEEvtT_S2_.part.45
 3035 0340 4CFFFFEA 		b	.L522
 3036              	.L577:
 3037 0344 0A10A0E1 		mov	r1, r10
 3038 0348 0400A0E1 		mov	r0, r4
 3039 034c FEFFFFEB 		bl	_ZN11flatbuffers17FlatBufferBuilder7ReferToEm
 3040 0350 002050E2 		subs	r2, r0, #0
 3041 0354 0200001A 		bne	.L520
 3042 0358 2C30D4E5 		ldrb	r3, [r4, #44]	@ zero_extendqisi2
 3043 035c 000053E3 		cmp	r3, #0
 3044 0360 42FFFF0A 		beq	.L519
 3045              	.L520:
 3046 0364 0C10A0E3 		mov	r1, #12
 3047 0368 0400A0E1 		mov	r0, r4
 3048 036c FEFFFFEB 		bl	_ZN11flatbuffers17FlatBufferBuilder10AddElementImEEvtT_S2_.part.45
 3049 0370 3EFFFFEA 		b	.L519
 3050              	.L576:
 3051 0374 0B10A0E1 		mov	r1, fp
 3052 0378 0400A0E1 		mov	r0, r4
 3053 037c FEFFFFEB 		bl	_ZN11flatbuffers17FlatBufferBuilder7ReferToEm
 3054 0380 002050E2 		subs	r2, r0, #0
 3055 0384 0200001A 		bne	.L516
 3056 0388 2C30D4E5 		ldrb	r3, [r4, #44]	@ zero_extendqisi2
 3057 038c 000053E3 		cmp	r3, #0
 3058 0390 34FFFF0A 		beq	.L515
 3059              	.L516:
 3060 0394 1010A0E3 		mov	r1, #16
 3061 0398 0400A0E1 		mov	r0, r4
 3062 039c FEFFFFEB 		bl	_ZN11flatbuffers17FlatBufferBuilder10AddElementImEEvtT_S2_.part.45
 3063 03a0 30FFFFEA 		b	.L515
 3064              	.L575:
 3065 03a4 FEFFFFEB 		bl	_ZN11flatbuffers17FlatBufferBuilder7ReferToEm
 3066 03a8 002050E2 		subs	r2, r0, #0
 3067 03ac 0200001A 		bne	.L512
 3068 03b0 2C30D4E5 		ldrb	r3, [r4, #44]	@ zero_extendqisi2
 3069 03b4 000053E3 		cmp	r3, #0
 3070 03b8 28FFFF0A 		beq	.L511
 3071              	.L512:
 3072 03bc 1210A0E3 		mov	r1, #18
 3073 03c0 0400A0E1 		mov	r0, r4
 3074 03c4 FEFFFFEB 		bl	_ZN11flatbuffers17FlatBufferBuilder10AddElementImEEvtT_S2_.part.45
 3075 03c8 24FFFFEA 		b	.L511
 3076              	.L573:
 3077 03cc 003000E3 		movw	r3, #:lower16:.LC24
 3078 03d0 002000E3 		movw	r2, #:lower16:.LANCHOR11
 3079 03d4 000000E3 		movw	r0, #:lower16:.LC19
 3080 03d8 003040E3 		movt	r3, #:upper16:.LC24
 3081 03dc 002040E3 		movt	r2, #:upper16:.LANCHOR11
 3082 03e0 000040E3 		movt	r0, #:upper16:.LC19
 3083 03e4 481500E3 		movw	r1, #1352
 3084 03e8 FEFFFFEB 		bl	__assert_func
 3085              	.L574:
 3086 03ec FEFFFFEB 		bl	_ZN11flatbuffers17FlatBufferBuilder9NotNestedEv.isra.20.part.21
 3087              		.fnend
 3089              		.section	.text._ZN6tflite12CreateTensorERN11flatbuffers17FlatBufferBuilderENS0_6OffsetINS0_6Vector
 3090              		.align	2
 3091              		.syntax unified
 3092              		.arm
 3093              		.fpu neon
 3095              	_ZN6tflite12CreateTensorERN11flatbuffers17FlatBufferBuilderENS0_6OffsetINS0_6VectorIlEEEENS_10Tenso
 3096              		.fnstart
 3097              	.LFB11812:
 3098              		@ args = 12, pretend = 0, frame = 0
 3099              		@ frame_needed = 0, uses_anonymous_args = 0
 3100 0000 F0472DE9 		push	{r4, r5, r6, r7, r8, r9, r10, lr}
 3101              		.save {r4, r5, r6, r7, r8, r9, r10, lr}
 3102 0004 0180A0E1 		mov	r8, r1
 3103 0008 2610D0E5 		ldrb	r1, [r0, #38]	@ zero_extendqisi2
 3104 000c 0350A0E1 		mov	r5, r3
 3105 0010 20909DE5 		ldr	r9, [sp, #32]
 3106 0014 000051E3 		cmp	r1, #0
 3107 0018 203090E5 		ldr	r3, [r0, #32]
 3108 001c 24A09DE5 		ldr	r10, [sp, #36]
 3109 0020 28109DE5 		ldr	r1, [sp, #40]
 3110 0024 E700001A 		bne	.L646
 3111 0028 000053E3 		cmp	r3, #0
 3112 002c E400001A 		bne	.L647
 3113 0030 0260A0E1 		mov	r6, r2
 3114 0034 183090E5 		ldr	r3, [r0, #24]
 3115 0038 142090E5 		ldr	r2, [r0, #20]
 3116 003c 000051E3 		cmp	r1, #0
 3117 0040 107090E5 		ldr	r7, [r0, #16]
 3118 0044 01C0A0E3 		mov	ip, #1
 3119 0048 0040A0E1 		mov	r4, r0
 3120 004c 26C0C0E5 		strb	ip, [r0, #38]
 3121 0050 023043E0 		sub	r3, r3, r2
 3122 0054 037047E0 		sub	r7, r7, r3
 3123 0058 CF00001A 		bne	.L648
 3124              	.L584:
 3125 005c 00005AE3 		cmp	r10, #0
 3126 0060 C100001A 		bne	.L649
 3127              	.L588:
 3128 0064 000059E3 		cmp	r9, #0
 3129 0068 B300001A 		bne	.L650
 3130              	.L592:
 3131 006c 000055E3 		cmp	r5, #0
 3132 0070 A500001A 		bne	.L651
 3133              	.L595:
 3134 0074 2C30D4E5 		ldrb	r3, [r4, #44]	@ zero_extendqisi2
 3135 0078 000053E3 		cmp	r3, #0
 3136 007c 3600000A 		beq	.L597
 3137 0080 283094E5 		ldr	r3, [r4, #40]
 3138 0084 0400A0E1 		mov	r0, r4
 3139 0088 185094E5 		ldr	r5, [r4, #24]
 3140 008c 142094E5 		ldr	r2, [r4, #20]
 3141 0090 030053E3 		cmp	r3, #3
 3142 0094 0430A093 		movls	r3, #4
 3143 0098 28308495 		strls	r3, [r4, #40]
 3144 009c 025045E0 		sub	r5, r5, r2
 3145 00a0 103094E5 		ldr	r3, [r4, #16]
 3146 00a4 035045E0 		sub	r5, r5, r3
 3147 00a8 035005E2 		and	r5, r5, #3
 3148 00ac 0510A0E1 		mov	r1, r5
 3149 00b0 FEFFFFEB 		bl	_ZN11flatbuffers15vector_downward12ensure_spaceEj
 3150 00b4 183094E5 		ldr	r3, [r4, #24]
 3151 00b8 000055E3 		cmp	r5, #0
 3152 00bc 000043E0 		sub	r0, r3, r0
 3153 00c0 180084E5 		str	r0, [r4, #24]
 3154 00c4 0800000A 		beq	.L600
 3155 00c8 010055E3 		cmp	r5, #1
 3156 00cc 0030A0E3 		mov	r3, #0
 3157 00d0 0030C0E5 		strb	r3, [r0]
 3158 00d4 0400000A 		beq	.L600
 3159 00d8 182094E5 		ldr	r2, [r4, #24]
 3160 00dc 020055E3 		cmp	r5, #2
 3161 00e0 0130C2E5 		strb	r3, [r2, #1]
 3162 00e4 18209415 		ldrne	r2, [r4, #24]
 3163 00e8 0230C215 		strbne	r3, [r2, #2]
 3164              	.L600:
 3165 00ec 0410A0E3 		mov	r1, #4
 3166 00f0 0400A0E1 		mov	r0, r4
 3167 00f4 FEFFFFEB 		bl	_ZN11flatbuffers15vector_downward12ensure_spaceEj
 3168 00f8 183094E5 		ldr	r3, [r4, #24]
 3169 00fc 00C0A0E3 		mov	ip, #0
 3170 0100 142094E5 		ldr	r2, [r4, #20]
 3171 0104 0810A0E3 		mov	r1, #8
 3172 0108 105094E5 		ldr	r5, [r4, #16]
 3173 010c 000043E0 		sub	r0, r3, r0
 3174 0110 023040E0 		sub	r3, r0, r2
 3175 0114 180084E5 		str	r0, [r4, #24]
 3176 0118 00C080E5 		str	ip, [r0]
 3177 011c 0400A0E1 		mov	r0, r4
 3178 0120 035045E0 		sub	r5, r5, r3
 3179 0124 FEFFFFEB 		bl	_ZN11flatbuffers15vector_downward12ensure_spaceEj
 3180 0128 1C3094E5 		ldr	r3, [r4, #28]
 3181 012c 0800A0E3 		mov	r0, #8
 3182 0130 202094E5 		ldr	r2, [r4, #32]
 3183 0134 001083E0 		add	r1, r3, r0
 3184 0138 005083E5 		str	r5, [r3]
 3185 013c B400C3E1 		strh	r0, [r3, #4]	@ movhi
 3186 0140 012082E2 		add	r2, r2, #1
 3187 0144 B432D4E1 		ldrh	r3, [r4, #36]
 3188 0148 1C1084E5 		str	r1, [r4, #28]
 3189 014c 202084E5 		str	r2, [r4, #32]
 3190 0150 000053E1 		cmp	r3, r0
 3191 0154 0030A0B1 		movlt	r3, r0
 3192 0158 B432C4E1 		strh	r3, [r4, #36]	@ movhi
 3193              	.L597:
 3194 015c 000058E3 		cmp	r8, #0
 3195 0160 5900001A 		bne	.L652
 3196              	.L602:
 3197 0164 2C30D4E5 		ldrb	r3, [r4, #44]	@ zero_extendqisi2
 3198 0168 000053E3 		cmp	r3, #0
 3199 016c 5E00000A 		beq	.L642
 3200 0170 283094E5 		ldr	r3, [r4, #40]
 3201 0174 0010A0E3 		mov	r1, #0
 3202 0178 0400A0E1 		mov	r0, r4
 3203 017c 7660AFE6 		sxtb	r6, r6
 3204 0180 000053E3 		cmp	r3, #0
 3205 0184 0130A003 		moveq	r3, #1
 3206 0188 28308405 		streq	r3, [r4, #40]
 3207 018c FEFFFFEB 		bl	_ZN11flatbuffers15vector_downward12ensure_spaceEj
 3208 0190 183094E5 		ldr	r3, [r4, #24]
 3209 0194 0110A0E3 		mov	r1, #1
 3210 0198 003043E0 		sub	r3, r3, r0
 3211 019c 0400A0E1 		mov	r0, r4
 3212 01a0 183084E5 		str	r3, [r4, #24]
 3213 01a4 FEFFFFEB 		bl	_ZN11flatbuffers15vector_downward12ensure_spaceEj
 3214 01a8 183094E5 		ldr	r3, [r4, #24]
 3215 01ac 0020A0E3 		mov	r2, #0
 3216 01b0 0810A0E3 		mov	r1, #8
 3217 01b4 003043E0 		sub	r3, r3, r0
 3218 01b8 0400A0E1 		mov	r0, r4
 3219 01bc 183084E5 		str	r3, [r4, #24]
 3220 01c0 0020C3E5 		strb	r2, [r3]
 3221 01c4 142094E5 		ldr	r2, [r4, #20]
 3222 01c8 183094E5 		ldr	r3, [r4, #24]
 3223 01cc 105094E5 		ldr	r5, [r4, #16]
 3224 01d0 023043E0 		sub	r3, r3, r2
 3225 01d4 035045E0 		sub	r5, r5, r3
 3226 01d8 FEFFFFEB 		bl	_ZN11flatbuffers15vector_downward12ensure_spaceEj
 3227 01dc 1C3094E5 		ldr	r3, [r4, #28]
 3228 01e0 0E00A0E3 		mov	r0, #14
 3229 01e4 202094E5 		ldr	r2, [r4, #32]
 3230 01e8 081083E2 		add	r1, r3, #8
 3231 01ec 005083E5 		str	r5, [r3]
 3232 01f0 B400C3E1 		strh	r0, [r3, #4]	@ movhi
 3233 01f4 012082E2 		add	r2, r2, #1
 3234 01f8 B432D4E1 		ldrh	r3, [r4, #36]
 3235 01fc 1C1084E5 		str	r1, [r4, #28]
 3236 0200 202084E5 		str	r2, [r4, #32]
 3237 0204 000053E1 		cmp	r3, r0
 3238 0208 0030A0B1 		movlt	r3, r0
 3239 020c 000056E3 		cmp	r6, #0
 3240 0210 B432C4E1 		strh	r3, [r4, #36]	@ movhi
 3241 0214 0200001A 		bne	.L608
 3242 0218 2C30D4E5 		ldrb	r3, [r4, #44]	@ zero_extendqisi2
 3243 021c 000053E3 		cmp	r3, #0
 3244 0220 2500000A 		beq	.L609
 3245              	.L608:
 3246 0224 283094E5 		ldr	r3, [r4, #40]
 3247 0228 0010A0E3 		mov	r1, #0
 3248 022c 0400A0E1 		mov	r0, r4
 3249 0230 000053E3 		cmp	r3, #0
 3250 0234 0130A003 		moveq	r3, #1
 3251 0238 28308405 		streq	r3, [r4, #40]
 3252 023c FEFFFFEB 		bl	_ZN11flatbuffers15vector_downward12ensure_spaceEj
 3253 0240 183094E5 		ldr	r3, [r4, #24]
 3254 0244 0110A0E3 		mov	r1, #1
 3255 0248 003043E0 		sub	r3, r3, r0
 3256 024c 0400A0E1 		mov	r0, r4
 3257 0250 183084E5 		str	r3, [r4, #24]
 3258 0254 FEFFFFEB 		bl	_ZN11flatbuffers15vector_downward12ensure_spaceEj
 3259 0258 183094E5 		ldr	r3, [r4, #24]
 3260 025c 0810A0E3 		mov	r1, #8
 3261 0260 003043E0 		sub	r3, r3, r0
 3262 0264 0400A0E1 		mov	r0, r4
 3263 0268 183084E5 		str	r3, [r4, #24]
 3264 026c 0060C3E5 		strb	r6, [r3]
 3265 0270 142094E5 		ldr	r2, [r4, #20]
 3266 0274 183094E5 		ldr	r3, [r4, #24]
 3267 0278 105094E5 		ldr	r5, [r4, #16]
 3268 027c 023043E0 		sub	r3, r3, r2
 3269 0280 035045E0 		sub	r5, r5, r3
 3270 0284 FEFFFFEB 		bl	_ZN11flatbuffers15vector_downward12ensure_spaceEj
 3271 0288 1C3094E5 		ldr	r3, [r4, #28]
 3272 028c 0600A0E3 		mov	r0, #6
 3273 0290 202094E5 		ldr	r2, [r4, #32]
 3274 0294 081083E2 		add	r1, r3, #8
 3275 0298 005083E5 		str	r5, [r3]
 3276 029c B400C3E1 		strh	r0, [r3, #4]	@ movhi
 3277 02a0 012082E2 		add	r2, r2, #1
 3278 02a4 B432D4E1 		ldrh	r3, [r4, #36]
 3279 02a8 1C1084E5 		str	r1, [r4, #28]
 3280 02ac 202084E5 		str	r2, [r4, #32]
 3281 02b0 000053E1 		cmp	r3, r0
 3282 02b4 0030A0B1 		movlt	r3, r0
 3283 02b8 B432C4E1 		strh	r3, [r4, #36]	@ movhi
 3284              	.L609:
 3285 02bc 0710A0E1 		mov	r1, r7
 3286 02c0 0400A0E1 		mov	r0, r4
 3287 02c4 FEFFFFEB 		bl	_ZN11flatbuffers17FlatBufferBuilder8EndTableEm
 3288 02c8 F087BDE8 		pop	{r4, r5, r6, r7, r8, r9, r10, pc}
 3289              	.L652:
 3290 02cc 0810A0E1 		mov	r1, r8
 3291 02d0 0400A0E1 		mov	r0, r4
 3292 02d4 FEFFFFEB 		bl	_ZN11flatbuffers17FlatBufferBuilder7ReferToEm
 3293 02d8 002050E2 		subs	r2, r0, #0
 3294 02dc 0600001A 		bne	.L603
 3295 02e0 2C30D4E5 		ldrb	r3, [r4, #44]	@ zero_extendqisi2
 3296 02e4 000053E3 		cmp	r3, #0
 3297 02e8 0300001A 		bne	.L603
 3298              	.L642:
 3299 02ec 7660AFE6 		sxtb	r6, r6
 3300 02f0 000056E3 		cmp	r6, #0
 3301 02f4 CAFFFF1A 		bne	.L608
 3302 02f8 EFFFFFEA 		b	.L609
 3303              	.L603:
 3304 02fc 0410A0E3 		mov	r1, #4
 3305 0300 0400A0E1 		mov	r0, r4
 3306 0304 FEFFFFEB 		bl	_ZN11flatbuffers17FlatBufferBuilder10AddElementImEEvtT_S2_.part.45
 3307 0308 95FFFFEA 		b	.L602
 3308              	.L651:
 3309 030c 0510A0E1 		mov	r1, r5
 3310 0310 0400A0E1 		mov	r0, r4
 3311 0314 FEFFFFEB 		bl	_ZN11flatbuffers17FlatBufferBuilder7ReferToEm
 3312 0318 002050E2 		subs	r2, r0, #0
 3313 031c 0200001A 		bne	.L596
 3314 0320 2C30D4E5 		ldrb	r3, [r4, #44]	@ zero_extendqisi2
 3315 0324 000053E3 		cmp	r3, #0
 3316 0328 8BFFFF0A 		beq	.L597
 3317              	.L596:
 3318 032c 0A10A0E3 		mov	r1, #10
 3319 0330 0400A0E1 		mov	r0, r4
 3320 0334 FEFFFFEB 		bl	_ZN11flatbuffers17FlatBufferBuilder10AddElementImEEvtT_S2_.part.45
 3321 0338 4DFFFFEA 		b	.L595
 3322              	.L650:
 3323 033c 0910A0E1 		mov	r1, r9
 3324 0340 0400A0E1 		mov	r0, r4
 3325 0344 FEFFFFEB 		bl	_ZN11flatbuffers17FlatBufferBuilder7ReferToEm
 3326 0348 002050E2 		subs	r2, r0, #0
 3327 034c 0200001A 		bne	.L593
 3328 0350 2C30D4E5 		ldrb	r3, [r4, #44]	@ zero_extendqisi2
 3329 0354 000053E3 		cmp	r3, #0
 3330 0358 43FFFF0A 		beq	.L592
 3331              	.L593:
 3332 035c 0C10A0E3 		mov	r1, #12
 3333 0360 0400A0E1 		mov	r0, r4
 3334 0364 FEFFFFEB 		bl	_ZN11flatbuffers17FlatBufferBuilder10AddElementImEEvtT_S2_.part.45
 3335 0368 3FFFFFEA 		b	.L592
 3336              	.L649:
 3337 036c 0A10A0E1 		mov	r1, r10
 3338 0370 0400A0E1 		mov	r0, r4
 3339 0374 FEFFFFEB 		bl	_ZN11flatbuffers17FlatBufferBuilder7ReferToEm
 3340 0378 002050E2 		subs	r2, r0, #0
 3341 037c 0200001A 		bne	.L589
 3342 0380 2C30D4E5 		ldrb	r3, [r4, #44]	@ zero_extendqisi2
 3343 0384 000053E3 		cmp	r3, #0
 3344 0388 35FFFF0A 		beq	.L588
 3345              	.L589:
 3346 038c 1010A0E3 		mov	r1, #16
 3347 0390 0400A0E1 		mov	r0, r4
 3348 0394 FEFFFFEB 		bl	_ZN11flatbuffers17FlatBufferBuilder10AddElementImEEvtT_S2_.part.45
 3349 0398 31FFFFEA 		b	.L588
 3350              	.L648:
 3351 039c FEFFFFEB 		bl	_ZN11flatbuffers17FlatBufferBuilder7ReferToEm
 3352 03a0 002050E2 		subs	r2, r0, #0
 3353 03a4 0200001A 		bne	.L585
 3354 03a8 2C30D4E5 		ldrb	r3, [r4, #44]	@ zero_extendqisi2
 3355 03ac 000053E3 		cmp	r3, #0
 3356 03b0 29FFFF0A 		beq	.L584
 3357              	.L585:
 3358 03b4 1210A0E3 		mov	r1, #18
 3359 03b8 0400A0E1 		mov	r0, r4
 3360 03bc FEFFFFEB 		bl	_ZN11flatbuffers17FlatBufferBuilder10AddElementImEEvtT_S2_.part.45
 3361 03c0 25FFFFEA 		b	.L584
 3362              	.L647:
 3363 03c4 FEFFFFEB 		bl	_ZN11flatbuffers17FlatBufferBuilder9NotNestedEv.isra.20.part.21
 3364              	.L646:
 3365 03c8 003000E3 		movw	r3, #:lower16:.LC24
 3366 03cc 002000E3 		movw	r2, #:lower16:.LANCHOR11
 3367 03d0 000000E3 		movw	r0, #:lower16:.LC19
 3368 03d4 003040E3 		movt	r3, #:upper16:.LC24
 3369 03d8 002040E3 		movt	r2, #:upper16:.LANCHOR11
 3370 03dc 000040E3 		movt	r0, #:upper16:.LC19
 3371 03e0 481500E3 		movw	r1, #1352
 3372 03e4 FEFFFFEB 		bl	__assert_func
 3373              		.fnend
 3375              		.section	.text._ZN11flatbuffers17FlatBufferBuilder12CreateStringEPKcj,"axG",%progbits,_ZN11flatbuf
 3376              		.align	2
 3377              		.weak	_ZN11flatbuffers17FlatBufferBuilder12CreateStringEPKcj
 3378              		.syntax unified
 3379              		.arm
 3380              		.fpu neon
 3382              	_ZN11flatbuffers17FlatBufferBuilder12CreateStringEPKcj:
 3383              		.fnstart
 3384              	.LFB3647:
 3385              		@ args = 0, pretend = 0, frame = 0
 3386              		@ frame_needed = 0, uses_anonymous_args = 0
 3387 0000 F0412DE9 		push	{r4, r5, r6, r7, r8, lr}
 3388              		.save {r4, r5, r6, r7, r8, lr}
 3389 0004 0170A0E1 		mov	r7, r1
 3390 0008 2610D0E5 		ldrb	r1, [r0, #38]	@ zero_extendqisi2
 3391 000c 203090E5 		ldr	r3, [r0, #32]
 3392 0010 000051E3 		cmp	r1, #0
 3393 0014 5A00001A 		bne	.L683
 3394 0018 000053E3 		cmp	r3, #0
 3395 001c 5700001A 		bne	.L684
 3396 0020 0250A0E1 		mov	r5, r2
 3397 0024 282090E5 		ldr	r2, [r0, #40]
 3398 0028 101090E5 		ldr	r1, [r0, #16]
 3399 002c 013085E2 		add	r3, r5, #1
 3400 0030 186090E5 		ldr	r6, [r0, #24]
 3401 0034 0040A0E1 		mov	r4, r0
 3402 0038 030052E3 		cmp	r2, #3
 3403 003c 0420A093 		movls	r2, #4
 3404 0040 013083E0 		add	r3, r3, r1
 3405 0044 28208095 		strls	r2, [r0, #40]
 3406 0048 142090E5 		ldr	r2, [r0, #20]
 3407 004c 026046E0 		sub	r6, r6, r2
 3408 0050 036046E0 		sub	r6, r6, r3
 3409 0054 036006E2 		and	r6, r6, #3
 3410 0058 0610A0E1 		mov	r1, r6
 3411 005c FEFFFFEB 		bl	_ZN11flatbuffers15vector_downward12ensure_spaceEj
 3412 0060 183094E5 		ldr	r3, [r4, #24]
 3413 0064 000056E3 		cmp	r6, #0
 3414 0068 000043E0 		sub	r0, r3, r0
 3415 006c 180084E5 		str	r0, [r4, #24]
 3416 0070 0800000A 		beq	.L657
 3417 0074 010056E3 		cmp	r6, #1
 3418 0078 0030A0E3 		mov	r3, #0
 3419 007c 0030C0E5 		strb	r3, [r0]
 3420 0080 0400000A 		beq	.L657
 3421 0084 182094E5 		ldr	r2, [r4, #24]
 3422 0088 020056E3 		cmp	r6, #2
 3423 008c 0130C2E5 		strb	r3, [r2, #1]
 3424 0090 18209415 		ldrne	r2, [r4, #24]
 3425 0094 0230C215 		strbne	r3, [r2, #2]
 3426              	.L657:
 3427 0098 0110A0E3 		mov	r1, #1
 3428 009c 0400A0E1 		mov	r0, r4
 3429 00a0 FEFFFFEB 		bl	_ZN11flatbuffers15vector_downward12ensure_spaceEj
 3430 00a4 183094E5 		ldr	r3, [r4, #24]
 3431 00a8 000055E3 		cmp	r5, #0
 3432 00ac 0020A0E3 		mov	r2, #0
 3433 00b0 000043E0 		sub	r0, r3, r0
 3434 00b4 180084E5 		str	r0, [r4, #24]
 3435 00b8 0020C0E5 		strb	r2, [r0]
 3436 00bc 2500001A 		bne	.L685
 3437              	.L658:
 3438 00c0 283094E5 		ldr	r3, [r4, #40]
 3439 00c4 0400A0E1 		mov	r0, r4
 3440 00c8 186094E5 		ldr	r6, [r4, #24]
 3441 00cc 142094E5 		ldr	r2, [r4, #20]
 3442 00d0 030053E3 		cmp	r3, #3
 3443 00d4 0430A093 		movls	r3, #4
 3444 00d8 28308495 		strls	r3, [r4, #40]
 3445 00dc 026046E0 		sub	r6, r6, r2
 3446 00e0 103094E5 		ldr	r3, [r4, #16]
 3447 00e4 036046E0 		sub	r6, r6, r3
 3448 00e8 036006E2 		and	r6, r6, #3
 3449 00ec 0610A0E1 		mov	r1, r6
 3450 00f0 FEFFFFEB 		bl	_ZN11flatbuffers15vector_downward12ensure_spaceEj
 3451 00f4 183094E5 		ldr	r3, [r4, #24]
 3452 00f8 000056E3 		cmp	r6, #0
 3453 00fc 000043E0 		sub	r0, r3, r0
 3454 0100 180084E5 		str	r0, [r4, #24]
 3455 0104 0800000A 		beq	.L660
 3456 0108 010056E3 		cmp	r6, #1
 3457 010c 0030A0E3 		mov	r3, #0
 3458 0110 0030C0E5 		strb	r3, [r0]
 3459 0114 0400000A 		beq	.L660
 3460 0118 182094E5 		ldr	r2, [r4, #24]
 3461 011c 020056E3 		cmp	r6, #2
 3462 0120 0130C2E5 		strb	r3, [r2, #1]
 3463 0124 18209415 		ldrne	r2, [r4, #24]
 3464 0128 0230C215 		strbne	r3, [r2, #2]
 3465              	.L660:
 3466 012c 0410A0E3 		mov	r1, #4
 3467 0130 0400A0E1 		mov	r0, r4
 3468 0134 FEFFFFEB 		bl	_ZN11flatbuffers15vector_downward12ensure_spaceEj
 3469 0138 101084E2 		add	r1, r4, #16
 3470 013c 0E0091E8 		ldm	r1, {r1, r2, r3}
 3471 0140 003043E0 		sub	r3, r3, r0
 3472 0144 020043E0 		sub	r0, r3, r2
 3473 0148 183084E5 		str	r3, [r4, #24]
 3474 014c 000041E0 		sub	r0, r1, r0
 3475 0150 005083E5 		str	r5, [r3]
 3476 0154 F081BDE8 		pop	{r4, r5, r6, r7, r8, pc}
 3477              	.L685:
 3478 0158 0510A0E1 		mov	r1, r5
 3479 015c 0400A0E1 		mov	r0, r4
 3480 0160 FEFFFFEB 		bl	_ZN11flatbuffers15vector_downward12ensure_spaceEj
 3481 0164 183094E5 		ldr	r3, [r4, #24]
 3482 0168 0710A0E1 		mov	r1, r7
 3483 016c 0520A0E1 		mov	r2, r5
 3484 0170 000043E0 		sub	r0, r3, r0
 3485 0174 180084E5 		str	r0, [r4, #24]
 3486 0178 FEFFFFEB 		bl	memcpy
 3487 017c CFFFFFEA 		b	.L658
 3488              	.L684:
 3489 0180 FEFFFFEB 		bl	_ZN11flatbuffers17FlatBufferBuilder9NotNestedEv.isra.20.part.21
 3490              	.L683:
 3491 0184 003000E3 		movw	r3, #:lower16:.LC24
 3492 0188 002000E3 		movw	r2, #:lower16:.LANCHOR11
 3493 018c 000000E3 		movw	r0, #:lower16:.LC19
 3494 0190 003040E3 		movt	r3, #:upper16:.LC24
 3495 0194 002040E3 		movt	r2, #:upper16:.LANCHOR11
 3496 0198 000040E3 		movt	r0, #:upper16:.LC19
 3497 019c 481500E3 		movw	r1, #1352
 3498 01a0 FEFFFFEB 		bl	__assert_func
 3499              		.fnend
 3501              		.section	.text._ZN6tflite24CreateOperatorCodeDirectERN11flatbuffers17FlatBufferBuilderEaPKclNS_15B
 3502              		.align	2
 3503              		.syntax unified
 3504              		.arm
 3505              		.fpu neon
 3507              	_ZN6tflite24CreateOperatorCodeDirectERN11flatbuffers17FlatBufferBuilderEaPKclNS_15BuiltinOperatorE.
 3508              		.fnstart
 3509              	.LFB11814:
 3510              		@ args = 0, pretend = 0, frame = 0
 3511              		@ frame_needed = 0, uses_anonymous_args = 0
 3512 0000 F0412DE9 		push	{r4, r5, r6, r7, r8, lr}
 3513              		.save {r4, r5, r6, r7, r8, lr}
 3514 0004 006051E2 		subs	r6, r1, #0
 3515 0008 0040A0E1 		mov	r4, r0
 3516 000c 0280A0E1 		mov	r8, r2
 3517 0010 0600000A 		beq	.L687
 3518 0014 0600A0E1 		mov	r0, r6
 3519 0018 FEFFFFEB 		bl	strlen
 3520 001c 0610A0E1 		mov	r1, r6
 3521 0020 0020A0E1 		mov	r2, r0
 3522 0024 0400A0E1 		mov	r0, r4
 3523 0028 FEFFFFEB 		bl	_ZN11flatbuffers17FlatBufferBuilder12CreateStringEPKcj
 3524 002c 0060A0E1 		mov	r6, r0
 3525              	.L687:
 3526 0030 2620D4E5 		ldrb	r2, [r4, #38]	@ zero_extendqisi2
 3527 0034 203094E5 		ldr	r3, [r4, #32]
 3528 0038 000052E3 		cmp	r2, #0
 3529 003c E900001A 		bne	.L748
 3530 0040 000053E3 		cmp	r3, #0
 3531 0044 EF00001A 		bne	.L749
 3532 0048 183094E5 		ldr	r3, [r4, #24]
 3533 004c 000058E3 		cmp	r8, #0
 3534 0050 142094E5 		ldr	r2, [r4, #20]
 3535 0054 0110A0E3 		mov	r1, #1
 3536 0058 107094E5 		ldr	r7, [r4, #16]
 3537 005c 2610C4E5 		strb	r1, [r4, #38]
 3538 0060 023043E0 		sub	r3, r3, r2
 3539 0064 037047E0 		sub	r7, r7, r3
 3540 0068 6600001A 		bne	.L690
 3541 006c 2C30D4E5 		ldrb	r3, [r4, #44]	@ zero_extendqisi2
 3542 0070 000053E3 		cmp	r3, #0
 3543 0074 0750A001 		moveq	r5, r7
 3544 0078 6200001A 		bne	.L690
 3545              	.L691:
 3546 007c 283094E5 		ldr	r3, [r4, #40]
 3547 0080 005065E2 		rsb	r5, r5, #0
 3548 0084 035005E2 		and	r5, r5, #3
 3549 0088 0400A0E1 		mov	r0, r4
 3550 008c 0510A0E1 		mov	r1, r5
 3551 0090 030053E3 		cmp	r3, #3
 3552 0094 0430A093 		movls	r3, #4
 3553 0098 28308495 		strls	r3, [r4, #40]
 3554 009c FEFFFFEB 		bl	_ZN11flatbuffers15vector_downward12ensure_spaceEj
 3555 00a0 183094E5 		ldr	r3, [r4, #24]
 3556 00a4 000055E3 		cmp	r5, #0
 3557 00a8 000043E0 		sub	r0, r3, r0
 3558 00ac 180084E5 		str	r0, [r4, #24]
 3559 00b0 0800000A 		beq	.L695
 3560 00b4 010055E3 		cmp	r5, #1
 3561 00b8 0030A0E3 		mov	r3, #0
 3562 00bc 0030C0E5 		strb	r3, [r0]
 3563 00c0 0400000A 		beq	.L695
 3564 00c4 182094E5 		ldr	r2, [r4, #24]
 3565 00c8 020055E3 		cmp	r5, #2
 3566 00cc 0130C2E5 		strb	r3, [r2, #1]
 3567 00d0 18209415 		ldrne	r2, [r4, #24]
 3568 00d4 0230C215 		strbne	r3, [r2, #2]
 3569              	.L695:
 3570 00d8 0410A0E3 		mov	r1, #4
 3571 00dc 0400A0E1 		mov	r0, r4
 3572 00e0 FEFFFFEB 		bl	_ZN11flatbuffers15vector_downward12ensure_spaceEj
 3573 00e4 183094E5 		ldr	r3, [r4, #24]
 3574 00e8 00C0A0E3 		mov	ip, #0
 3575 00ec 142094E5 		ldr	r2, [r4, #20]
 3576 00f0 0810A0E3 		mov	r1, #8
 3577 00f4 105094E5 		ldr	r5, [r4, #16]
 3578 00f8 003043E0 		sub	r3, r3, r0
 3579 00fc 0400A0E1 		mov	r0, r4
 3580 0100 022043E0 		sub	r2, r3, r2
 3581 0104 183084E5 		str	r3, [r4, #24]
 3582 0108 00C083E5 		str	ip, [r3]
 3583 010c 025045E0 		sub	r5, r5, r2
 3584 0110 FEFFFFEB 		bl	_ZN11flatbuffers15vector_downward12ensure_spaceEj
 3585 0114 1C3094E5 		ldr	r3, [r4, #28]
 3586 0118 0800A0E3 		mov	r0, #8
 3587 011c 202094E5 		ldr	r2, [r4, #32]
 3588 0120 001083E0 		add	r1, r3, r0
 3589 0124 005083E5 		str	r5, [r3]
 3590 0128 B400C3E1 		strh	r0, [r3, #4]	@ movhi
 3591 012c 012082E2 		add	r2, r2, #1
 3592 0130 B432D4E1 		ldrh	r3, [r4, #36]
 3593 0134 1C1084E5 		str	r1, [r4, #28]
 3594 0138 202084E5 		str	r2, [r4, #32]
 3595 013c 000053E1 		cmp	r3, r0
 3596 0140 0030A0B1 		movlt	r3, r0
 3597 0144 000056E3 		cmp	r6, #0
 3598 0148 B432C4E1 		strh	r3, [r4, #36]	@ movhi
 3599 014c 6500001A 		bne	.L750
 3600              	.L697:
 3601 0150 2C30D4E5 		ldrb	r3, [r4, #44]	@ zero_extendqisi2
 3602 0154 000053E3 		cmp	r3, #0
 3603 0158 2600000A 		beq	.L699
 3604 015c 283094E5 		ldr	r3, [r4, #40]
 3605 0160 0010A0E3 		mov	r1, #0
 3606 0164 0400A0E1 		mov	r0, r4
 3607 0168 000053E3 		cmp	r3, #0
 3608 016c 0130A003 		moveq	r3, #1
 3609 0170 28308405 		streq	r3, [r4, #40]
 3610 0174 FEFFFFEB 		bl	_ZN11flatbuffers15vector_downward12ensure_spaceEj
 3611 0178 183094E5 		ldr	r3, [r4, #24]
 3612 017c 0110A0E3 		mov	r1, #1
 3613 0180 003043E0 		sub	r3, r3, r0
 3614 0184 0400A0E1 		mov	r0, r4
 3615 0188 183084E5 		str	r3, [r4, #24]
 3616 018c FEFFFFEB 		bl	_ZN11flatbuffers15vector_downward12ensure_spaceEj
 3617 0190 183094E5 		ldr	r3, [r4, #24]
 3618 0194 0020A0E3 		mov	r2, #0
 3619 0198 0810A0E3 		mov	r1, #8
 3620 019c 003043E0 		sub	r3, r3, r0
 3621 01a0 0400A0E1 		mov	r0, r4
 3622 01a4 183084E5 		str	r3, [r4, #24]
 3623 01a8 0020C3E5 		strb	r2, [r3]
 3624 01ac 142094E5 		ldr	r2, [r4, #20]
 3625 01b0 183094E5 		ldr	r3, [r4, #24]
 3626 01b4 105094E5 		ldr	r5, [r4, #16]
 3627 01b8 023043E0 		sub	r3, r3, r2
 3628 01bc 035045E0 		sub	r5, r5, r3
 3629 01c0 FEFFFFEB 		bl	_ZN11flatbuffers15vector_downward12ensure_spaceEj
 3630 01c4 1C3094E5 		ldr	r3, [r4, #28]
 3631 01c8 0400A0E3 		mov	r0, #4
 3632 01cc 202094E5 		ldr	r2, [r4, #32]
 3633 01d0 081083E2 		add	r1, r3, #8
 3634 01d4 005083E5 		str	r5, [r3]
 3635 01d8 B400C3E1 		strh	r0, [r3, #4]	@ movhi
 3636 01dc 012082E2 		add	r2, r2, #1
 3637 01e0 B432D4E1 		ldrh	r3, [r4, #36]
 3638 01e4 1C1084E5 		str	r1, [r4, #28]
 3639 01e8 202084E5 		str	r2, [r4, #32]
 3640 01ec 000053E1 		cmp	r3, r0
 3641 01f0 0030A0B1 		movlt	r3, r0
 3642 01f4 B432C4E1 		strh	r3, [r4, #36]	@ movhi
 3643              	.L699:
 3644 01f8 0710A0E1 		mov	r1, r7
 3645 01fc 0400A0E1 		mov	r0, r4
 3646 0200 FEFFFFEB 		bl	_ZN11flatbuffers17FlatBufferBuilder8EndTableEm
 3647 0204 F081BDE8 		pop	{r4, r5, r6, r7, r8, pc}
 3648              	.L690:
 3649 0208 283094E5 		ldr	r3, [r4, #40]
 3650 020c 005067E2 		rsb	r5, r7, #0
 3651 0210 035005E2 		and	r5, r5, #3
 3652 0214 0400A0E1 		mov	r0, r4
 3653 0218 0510A0E1 		mov	r1, r5
 3654 021c 030053E3 		cmp	r3, #3
 3655 0220 0430A093 		movls	r3, #4
 3656 0224 28308495 		strls	r3, [r4, #40]
 3657 0228 FEFFFFEB 		bl	_ZN11flatbuffers15vector_downward12ensure_spaceEj
 3658 022c 183094E5 		ldr	r3, [r4, #24]
 3659 0230 000055E3 		cmp	r5, #0
 3660 0234 000043E0 		sub	r0, r3, r0
 3661 0238 180084E5 		str	r0, [r4, #24]
 3662 023c 0800000A 		beq	.L692
 3663 0240 010055E3 		cmp	r5, #1
 3664 0244 0030A0E3 		mov	r3, #0
 3665 0248 0030C0E5 		strb	r3, [r0]
 3666 024c 0400000A 		beq	.L692
 3667 0250 182094E5 		ldr	r2, [r4, #24]
 3668 0254 020055E3 		cmp	r5, #2
 3669 0258 0130C2E5 		strb	r3, [r2, #1]
 3670 025c 18209415 		ldrne	r2, [r4, #24]
 3671 0260 0230C215 		strbne	r3, [r2, #2]
 3672              	.L692:
 3673 0264 0410A0E3 		mov	r1, #4
 3674 0268 0400A0E1 		mov	r0, r4
 3675 026c FEFFFFEB 		bl	_ZN11flatbuffers15vector_downward12ensure_spaceEj
 3676 0270 183094E5 		ldr	r3, [r4, #24]
 3677 0274 0810A0E3 		mov	r1, #8
 3678 0278 14C094E5 		ldr	ip, [r4, #20]
 3679 027c 102094E5 		ldr	r2, [r4, #16]
 3680 0280 003043E0 		sub	r3, r3, r0
 3681 0284 0400A0E1 		mov	r0, r4
 3682 0288 0CC043E0 		sub	ip, r3, ip
 3683 028c 183084E5 		str	r3, [r4, #24]
 3684 0290 008083E5 		str	r8, [r3]
 3685 0294 0C8042E0 		sub	r8, r2, ip
 3686 0298 FEFFFFEB 		bl	_ZN11flatbuffers15vector_downward12ensure_spaceEj
 3687 029c 1C3094E5 		ldr	r3, [r4, #28]
 3688 02a0 0AC0A0E3 		mov	ip, #10
 3689 02a4 142094E5 		ldr	r2, [r4, #20]
 3690 02a8 181094E5 		ldr	r1, [r4, #24]
 3691 02ac 080083E2 		add	r0, r3, #8
 3692 02b0 008083E5 		str	r8, [r3]
 3693 02b4 B4C0C3E1 		strh	ip, [r3, #4]	@ movhi
 3694 02b8 B432D4E1 		ldrh	r3, [r4, #36]
 3695 02bc 021041E0 		sub	r1, r1, r2
 3696 02c0 202094E5 		ldr	r2, [r4, #32]
 3697 02c4 105094E5 		ldr	r5, [r4, #16]
 3698 02c8 0C0053E1 		cmp	r3, ip
 3699 02cc 1C0084E5 		str	r0, [r4, #28]
 3700 02d0 0C30A0B1 		movlt	r3, ip
 3701 02d4 012082E2 		add	r2, r2, #1
 3702 02d8 015045E0 		sub	r5, r5, r1
 3703 02dc B432C4E1 		strh	r3, [r4, #36]	@ movhi
 3704 02e0 202084E5 		str	r2, [r4, #32]
 3705 02e4 64FFFFEA 		b	.L691
 3706              	.L750:
 3707 02e8 0610A0E1 		mov	r1, r6
 3708 02ec 0400A0E1 		mov	r0, r4
 3709 02f0 FEFFFFEB 		bl	_ZN11flatbuffers17FlatBufferBuilder7ReferToEm
 3710 02f4 006050E2 		subs	r6, r0, #0
 3711 02f8 3600000A 		beq	.L751
 3712              	.L698:
 3713 02fc 283094E5 		ldr	r3, [r4, #40]
 3714 0300 0400A0E1 		mov	r0, r4
 3715 0304 185094E5 		ldr	r5, [r4, #24]
 3716 0308 142094E5 		ldr	r2, [r4, #20]
 3717 030c 030053E3 		cmp	r3, #3
 3718 0310 0430A093 		movls	r3, #4
 3719 0314 28308495 		strls	r3, [r4, #40]
 3720 0318 025045E0 		sub	r5, r5, r2
 3721 031c 103094E5 		ldr	r3, [r4, #16]
 3722 0320 035045E0 		sub	r5, r5, r3
 3723 0324 035005E2 		and	r5, r5, #3
 3724 0328 0510A0E1 		mov	r1, r5
 3725 032c FEFFFFEB 		bl	_ZN11flatbuffers15vector_downward12ensure_spaceEj
 3726 0330 183094E5 		ldr	r3, [r4, #24]
 3727 0334 000055E3 		cmp	r5, #0
 3728 0338 000043E0 		sub	r0, r3, r0
 3729 033c 180084E5 		str	r0, [r4, #24]
 3730 0340 0800000A 		beq	.L700
 3731 0344 010055E3 		cmp	r5, #1
 3732 0348 0030A0E3 		mov	r3, #0
 3733 034c 0030C0E5 		strb	r3, [r0]
 3734 0350 0400000A 		beq	.L700
 3735 0354 182094E5 		ldr	r2, [r4, #24]
 3736 0358 020055E3 		cmp	r5, #2
 3737 035c 0130C2E5 		strb	r3, [r2, #1]
 3738 0360 18209415 		ldrne	r2, [r4, #24]
 3739 0364 0230C215 		strbne	r3, [r2, #2]
 3740              	.L700:
 3741 0368 0410A0E3 		mov	r1, #4
 3742 036c 0400A0E1 		mov	r0, r4
 3743 0370 FEFFFFEB 		bl	_ZN11flatbuffers15vector_downward12ensure_spaceEj
 3744 0374 183094E5 		ldr	r3, [r4, #24]
 3745 0378 0810A0E3 		mov	r1, #8
 3746 037c 142094E5 		ldr	r2, [r4, #20]
 3747 0380 105094E5 		ldr	r5, [r4, #16]
 3748 0384 003043E0 		sub	r3, r3, r0
 3749 0388 0400A0E1 		mov	r0, r4
 3750 038c 022043E0 		sub	r2, r3, r2
 3751 0390 183084E5 		str	r3, [r4, #24]
 3752 0394 006083E5 		str	r6, [r3]
 3753 0398 025045E0 		sub	r5, r5, r2
 3754 039c FEFFFFEB 		bl	_ZN11flatbuffers15vector_downward12ensure_spaceEj
 3755 03a0 1C3094E5 		ldr	r3, [r4, #28]
 3756 03a4 0600A0E3 		mov	r0, #6
 3757 03a8 202094E5 		ldr	r2, [r4, #32]
 3758 03ac 081083E2 		add	r1, r3, #8
 3759 03b0 005083E5 		str	r5, [r3]
 3760 03b4 B400C3E1 		strh	r0, [r3, #4]	@ movhi
 3761 03b8 012082E2 		add	r2, r2, #1
 3762 03bc B432D4E1 		ldrh	r3, [r4, #36]
 3763 03c0 1C1084E5 		str	r1, [r4, #28]
 3764 03c4 202084E5 		str	r2, [r4, #32]
 3765 03c8 000053E1 		cmp	r3, r0
 3766 03cc 0030A0B1 		movlt	r3, r0
 3767 03d0 B432C4E1 		strh	r3, [r4, #36]	@ movhi
 3768 03d4 5DFFFFEA 		b	.L697
 3769              	.L751:
 3770 03d8 2C30D4E5 		ldrb	r3, [r4, #44]	@ zero_extendqisi2
 3771 03dc 000053E3 		cmp	r3, #0
 3772 03e0 C5FFFF1A 		bne	.L698
 3773 03e4 83FFFFEA 		b	.L699
 3774              	.L748:
 3775 03e8 003000E3 		movw	r3, #:lower16:.LC24
 3776 03ec 002000E3 		movw	r2, #:lower16:.LANCHOR11
 3777 03f0 000000E3 		movw	r0, #:lower16:.LC19
 3778 03f4 003040E3 		movt	r3, #:upper16:.LC24
 3779 03f8 002040E3 		movt	r2, #:upper16:.LANCHOR11
 3780 03fc 000040E3 		movt	r0, #:upper16:.LC19
 3781 0400 481500E3 		movw	r1, #1352
 3782 0404 FEFFFFEB 		bl	__assert_func
 3783              	.L749:
 3784 0408 FEFFFFEB 		bl	_ZN11flatbuffers17FlatBufferBuilder9NotNestedEv.isra.20.part.21
 3785              		.fnend
 3787              		.section	.text._ZN11flatbuffers17FlatBufferBuilder9EndVectorEj,"axG",%progbits,_ZN11flatbuffers17F
 3788              		.align	2
 3789              		.weak	_ZN11flatbuffers17FlatBufferBuilder9EndVectorEj
 3790              		.syntax unified
 3791              		.arm
 3792              		.fpu neon
 3794              	_ZN11flatbuffers17FlatBufferBuilder9EndVectorEj:
 3795              		.fnstart
 3796              	.LFB3657:
 3797              		@ args = 0, pretend = 0, frame = 0
 3798              		@ frame_needed = 0, uses_anonymous_args = 0
 3799 0000 2630D0E5 		ldrb	r3, [r0, #38]	@ zero_extendqisi2
 3800 0004 70402DE9 		push	{r4, r5, r6, lr}
 3801              		.save {r4, r5, r6, lr}
 3802 0008 000053E3 		cmp	r3, #0
 3803 000c 2800000A 		beq	.L766
 3804 0010 283090E5 		ldr	r3, [r0, #40]
 3805 0014 0020A0E3 		mov	r2, #0
 3806 0018 2620C0E5 		strb	r2, [r0, #38]
 3807 001c 0040A0E1 		mov	r4, r0
 3808 0020 185090E5 		ldr	r5, [r0, #24]
 3809 0024 0160A0E1 		mov	r6, r1
 3810 0028 030053E3 		cmp	r3, #3
 3811 002c 142090E5 		ldr	r2, [r0, #20]
 3812 0030 0430A093 		movls	r3, #4
 3813 0034 28308095 		strls	r3, [r0, #40]
 3814 0038 103090E5 		ldr	r3, [r0, #16]
 3815 003c 025045E0 		sub	r5, r5, r2
 3816 0040 035045E0 		sub	r5, r5, r3
 3817 0044 035005E2 		and	r5, r5, #3
 3818 0048 0510A0E1 		mov	r1, r5
 3819 004c FEFFFFEB 		bl	_ZN11flatbuffers15vector_downward12ensure_spaceEj
 3820 0050 183094E5 		ldr	r3, [r4, #24]
 3821 0054 000055E3 		cmp	r5, #0
 3822 0058 000043E0 		sub	r0, r3, r0
 3823 005c 180084E5 		str	r0, [r4, #24]
 3824 0060 0800000A 		beq	.L755
 3825 0064 010055E3 		cmp	r5, #1
 3826 0068 0030A0E3 		mov	r3, #0
 3827 006c 0030C0E5 		strb	r3, [r0]
 3828 0070 0400000A 		beq	.L755
 3829 0074 182094E5 		ldr	r2, [r4, #24]
 3830 0078 020055E3 		cmp	r5, #2
 3831 007c 0130C2E5 		strb	r3, [r2, #1]
 3832 0080 18209415 		ldrne	r2, [r4, #24]
 3833 0084 0230C215 		strbne	r3, [r2, #2]
 3834              	.L755:
 3835 0088 0410A0E3 		mov	r1, #4
 3836 008c 0400A0E1 		mov	r0, r4
 3837 0090 FEFFFFEB 		bl	_ZN11flatbuffers15vector_downward12ensure_spaceEj
 3838 0094 101084E2 		add	r1, r4, #16
 3839 0098 0E0091E8 		ldm	r1, {r1, r2, r3}
 3840 009c 003043E0 		sub	r3, r3, r0
 3841 00a0 020043E0 		sub	r0, r3, r2
 3842 00a4 183084E5 		str	r3, [r4, #24]
 3843 00a8 000041E0 		sub	r0, r1, r0
 3844 00ac 006083E5 		str	r6, [r3]
 3845 00b0 7080BDE8 		pop	{r4, r5, r6, pc}
 3846              	.L766:
 3847 00b4 003000E3 		movw	r3, #:lower16:.LC26
 3848 00b8 002000E3 		movw	r2, #:lower16:.LANCHOR14
 3849 00bc 000000E3 		movw	r0, #:lower16:.LC19
 3850 00c0 003040E3 		movt	r3, #:upper16:.LC26
 3851 00c4 002040E3 		movt	r2, #:upper16:.LANCHOR14
 3852 00c8 000040E3 		movt	r0, #:upper16:.LC19
 3853 00cc 2C1600E3 		movw	r1, #1580
 3854 00d0 FEFFFFEB 		bl	__assert_func
 3855              		.fnend
 3857              		.section	.text._ZN11flatbuffers17FlatBufferBuilder12CreateVectorIlEENS_6OffsetINS_6VectorIT_EEEEPK
 3858              		.align	2
 3859              		.syntax unified
 3860              		.arm
 3861              		.fpu neon
 3863              	_ZN11flatbuffers17FlatBufferBuilder12CreateVectorIlEENS_6OffsetINS_6VectorIT_EEEEPKS4_j.constprop.1
 3864              		.fnstart
 3865              	.LFB11817:
 3866              		@ args = 0, pretend = 0, frame = 0
 3867              		@ frame_needed = 0, uses_anonymous_args = 0
 3868 0000 70402DE9 		push	{r4, r5, r6, lr}
 3869              		.save {r4, r5, r6, lr}
 3870 0004 0040A0E1 		mov	r4, r0
 3871 0008 0150A0E1 		mov	r5, r1
 3872 000c 0210A0E3 		mov	r1, #2
 3873 0010 FEFFFFEB 		bl	_ZN11flatbuffers17FlatBufferBuilder11StartVectorEjj.constprop.148
 3874 0014 0400A0E1 		mov	r0, r4
 3875 0018 0810A0E3 		mov	r1, #8
 3876 001c FEFFFFEB 		bl	_ZN11flatbuffers15vector_downward12ensure_spaceEj
 3877 0020 183094E5 		ldr	r3, [r4, #24]
 3878 0024 0510A0E1 		mov	r1, r5
 3879 0028 0820A0E3 		mov	r2, #8
 3880 002c 000043E0 		sub	r0, r3, r0
 3881 0030 180084E5 		str	r0, [r4, #24]
 3882 0034 FEFFFFEB 		bl	memcpy
 3883 0038 0400A0E1 		mov	r0, r4
 3884 003c 0210A0E3 		mov	r1, #2
 3885 0040 FEFFFFEB 		bl	_ZN11flatbuffers17FlatBufferBuilder9EndVectorEj
 3886 0044 7080BDE8 		pop	{r4, r5, r6, pc}
 3887              		.fnend
 3889              		.section	.text._ZN11flatbuffers17FlatBufferBuilder12CreateVectorIlEENS_6OffsetINS_6VectorIT_EEEEPK
 3890              		.align	2
 3891              		.syntax unified
 3892              		.arm
 3893              		.fpu neon
 3895              	_ZN11flatbuffers17FlatBufferBuilder12CreateVectorIlEENS_6OffsetINS_6VectorIT_EEEEPKS4_j.constprop.1
 3896              		.fnstart
 3897              	.LFB11816:
 3898              		@ args = 0, pretend = 0, frame = 0
 3899              		@ frame_needed = 0, uses_anonymous_args = 0
 3900 0000 70402DE9 		push	{r4, r5, r6, lr}
 3901              		.save {r4, r5, r6, lr}
 3902 0004 0040A0E1 		mov	r4, r0
 3903 0008 0150A0E1 		mov	r5, r1
 3904 000c 0110A0E3 		mov	r1, #1
 3905 0010 FEFFFFEB 		bl	_ZN11flatbuffers17FlatBufferBuilder11StartVectorEjj.constprop.148
 3906 0014 0400A0E1 		mov	r0, r4
 3907 0018 0410A0E3 		mov	r1, #4
 3908 001c FEFFFFEB 		bl	_ZN11flatbuffers15vector_downward12ensure_spaceEj
 3909 0020 183094E5 		ldr	r3, [r4, #24]
 3910 0024 0510A0E1 		mov	r1, r5
 3911 0028 0420A0E3 		mov	r2, #4
 3912 002c 000043E0 		sub	r0, r3, r0
 3913 0030 180084E5 		str	r0, [r4, #24]
 3914 0034 FEFFFFEB 		bl	memcpy
 3915 0038 0400A0E1 		mov	r0, r4
 3916 003c 0110A0E3 		mov	r1, #1
 3917 0040 FEFFFFEB 		bl	_ZN11flatbuffers17FlatBufferBuilder9EndVectorEj
 3918 0044 7080BDE8 		pop	{r4, r5, r6, pc}
 3919              		.fnend
 3921              		.section	.text._ZN6tflite7testing12_GLOBAL__N_112ModelBuilder13AddTensorImplENS_10TensorTypeEbSt16
 3922              		.align	2
 3923              		.syntax unified
 3924              		.arm
 3925              		.fpu neon
 3927              	_ZN6tflite7testing12_GLOBAL__N_112ModelBuilder13AddTensorImplENS_10TensorTypeEbSt16initializer_list
 3928              		.fnstart
 3929              	.LFB11835:
 3930              		@ args = 0, pretend = 0, frame = 8
 3931              		@ frame_needed = 0, uses_anonymous_args = 0
 3932 0000 F0402DE9 		push	{r4, r5, r6, r7, lr}
 3933              		.save {r4, r5, r6, r7, lr}
 3934              		.pad #28
 3935 0004 1CD04DE2 		sub	sp, sp, #28
 3936 0008 184290E5 		ldr	r4, [r0, #536]
 3937 000c 18308DE2 		add	r3, sp, #24
 3938 0010 060003E9 		stmdb	r3, {r1, r2}
 3939 0014 320054E3 		cmp	r4, #50
 3940 0018 230000CA 		bgt	.L774
 3941 001c 005090E5 		ldr	r5, [r0]
 3942 0020 0060A0E1 		mov	r6, r0
 3943 0024 0310A0E3 		mov	r1, #3
 3944 0028 10709DE5 		ldr	r7, [sp, #16]
 3945 002c 3E4084E2 		add	r4, r4, #62
 3946 0030 0500A0E1 		mov	r0, r5
 3947 0034 044186E0 		add	r4, r6, r4, lsl #2
 3948 0038 FEFFFFEB 		bl	_ZN11flatbuffers17FlatBufferBuilder11StartVectorEjj.constprop.148
 3949 003c 0500A0E1 		mov	r0, r5
 3950 0040 0C10A0E3 		mov	r1, #12
 3951 0044 FEFFFFEB 		bl	_ZN11flatbuffers15vector_downward12ensure_spaceEj
 3952 0048 183095E5 		ldr	r3, [r5, #24]
 3953 004c 0710A0E1 		mov	r1, r7
 3954 0050 0C20A0E3 		mov	r2, #12
 3955 0054 000043E0 		sub	r0, r3, r0
 3956 0058 180085E5 		str	r0, [r5, #24]
 3957 005c FEFFFFEB 		bl	memcpy
 3958 0060 0500A0E1 		mov	r0, r5
 3959 0064 0310A0E3 		mov	r1, #3
 3960 0068 FEFFFFEB 		bl	_ZN11flatbuffers17FlatBufferBuilder9EndVectorEj
 3961 006c 00C0A0E3 		mov	ip, #0
 3962 0070 0010A0E1 		mov	r1, r0
 3963 0074 0C30A0E1 		mov	r3, ip
 3964 0078 0C20A0E1 		mov	r2, ip
 3965 007c 0500A0E1 		mov	r0, r5
 3966 0080 08C08DE5 		str	ip, [sp, #8]
 3967 0084 04C08DE5 		str	ip, [sp, #4]
 3968 0088 00C08DE5 		str	ip, [sp]
 3969 008c FEFFFFEB 		bl	_ZN6tflite12CreateTensorERN11flatbuffers17FlatBufferBuilderENS0_6OffsetINS0_6VectorIlEEEENS_10T
 3970 0090 183296E5 		ldr	r3, [r6, #536]
 3971 0094 040084E5 		str	r0, [r4, #4]
 3972 0098 012083E2 		add	r2, r3, #1
 3973 009c 0300A0E1 		mov	r0, r3
 3974 00a0 182286E5 		str	r2, [r6, #536]
 3975 00a4 1CD08DE2 		add	sp, sp, #28
 3976              		@ sp needed
 3977 00a8 F080BDE8 		pop	{r4, r5, r6, r7, pc}
 3978              	.L774:
 3979 00ac FEFFFFEB 		bl	abort
 3980              		.fnend
 3982              		.section	.text._ZN6tflite12CreateTensorERN11flatbuffers17FlatBufferBuilderENS0_6OffsetINS0_6Vector
 3983              		.align	2
 3984              		.weak	_ZN6tflite12CreateTensorERN11flatbuffers17FlatBufferBuilderENS0_6OffsetINS0_6VectorIlEEEENS_
 3985              		.syntax unified
 3986              		.arm
 3987              		.fpu neon
 3989              	_ZN6tflite12CreateTensorERN11flatbuffers17FlatBufferBuilderENS0_6OffsetINS0_6VectorIlEEEENS_10Tenso
 3990              		.fnstart
 3991              	.LFB4372:
 3992              		@ args = 20, pretend = 0, frame = 0
 3993              		@ frame_needed = 0, uses_anonymous_args = 0
 3994 0000 F84F2DE9 		push	{r3, r4, r5, r6, r7, r8, r9, r10, fp, lr}
 3995              		.save {r3, r4, r5, r6, r7, r8, r9, r10, fp, lr}
 3996 0004 0170A0E1 		mov	r7, r1
 3997 0008 2610D0E5 		ldrb	r1, [r0, #38]	@ zero_extendqisi2
 3998 000c 0390A0E1 		mov	r9, r3
 3999 0010 2CA09DE5 		ldr	r10, [sp, #44]
 4000 0014 000051E3 		cmp	r1, #0
 4001 0018 203090E5 		ldr	r3, [r0, #32]
 4002 001c 3080DDE5 		ldrb	r8, [sp, #48]	@ zero_extendqisi2
 4003 0020 34B09DE5 		ldr	fp, [sp, #52]
 4004 0024 38109DE5 		ldr	r1, [sp, #56]
 4005 0028 EE00001A 		bne	.L842
 4006 002c 000053E3 		cmp	r3, #0
 4007 0030 F400001A 		bne	.L843
 4008 0034 0260A0E1 		mov	r6, r2
 4009 0038 183090E5 		ldr	r3, [r0, #24]
 4010 003c 142090E5 		ldr	r2, [r0, #20]
 4011 0040 000051E3 		cmp	r1, #0
 4012 0044 105090E5 		ldr	r5, [r0, #16]
 4013 0048 01C0A0E3 		mov	ip, #1
 4014 004c 0040A0E1 		mov	r4, r0
 4015 0050 26C0C0E5 		strb	ip, [r0, #38]
 4016 0054 023043E0 		sub	r3, r3, r2
 4017 0058 035045E0 		sub	r5, r5, r3
 4018 005c D700001A 		bne	.L844
 4019              	.L779:
 4020 0060 00005BE3 		cmp	fp, #0
 4021 0064 C900001A 		bne	.L845
 4022              	.L783:
 4023 0068 00005AE3 		cmp	r10, #0
 4024 006c BB00001A 		bne	.L846
 4025              	.L787:
 4026 0070 28309DE5 		ldr	r3, [sp, #40]
 4027 0074 000053E3 		cmp	r3, #0
 4028 0078 1200001A 		bne	.L847
 4029              	.L790:
 4030 007c 000059E3 		cmp	r9, #0
 4031 0080 1A00001A 		bne	.L793
 4032 0084 2C30D4E5 		ldrb	r3, [r4, #44]	@ zero_extendqisi2
 4033 0088 000053E3 		cmp	r3, #0
 4034 008c 1700001A 		bne	.L793
 4035              	.L794:
 4036 0090 000057E3 		cmp	r7, #0
 4037 0094 4D00001A 		bne	.L848
 4038              	.L798:
 4039 0098 000058E3 		cmp	r8, #0
 4040 009c 5800001A 		bne	.L801
 4041              	.L849:
 4042 00a0 2C30D4E5 		ldrb	r3, [r4, #44]	@ zero_extendqisi2
 4043 00a4 000053E3 		cmp	r3, #0
 4044 00a8 5500001A 		bne	.L801
 4045 00ac 7660AFE6 		sxtb	r6, r6
 4046 00b0 000056E3 		cmp	r6, #0
 4047 00b4 7E00001A 		bne	.L804
 4048              	.L805:
 4049 00b8 0510A0E1 		mov	r1, r5
 4050 00bc 0400A0E1 		mov	r0, r4
 4051 00c0 FEFFFFEB 		bl	_ZN11flatbuffers17FlatBufferBuilder8EndTableEm
 4052 00c4 F88FBDE8 		pop	{r3, r4, r5, r6, r7, r8, r9, r10, fp, pc}
 4053              	.L847:
 4054 00c8 0310A0E1 		mov	r1, r3
 4055 00cc 0400A0E1 		mov	r0, r4
 4056 00d0 FEFFFFEB 		bl	_ZN11flatbuffers17FlatBufferBuilder7ReferToEm
 4057 00d4 002050E2 		subs	r2, r0, #0
 4058 00d8 9C00001A 		bne	.L791
 4059 00dc 2C30D4E5 		ldrb	r3, [r4, #44]	@ zero_extendqisi2
 4060 00e0 000053E3 		cmp	r3, #0
 4061 00e4 9900001A 		bne	.L791
 4062 00e8 000059E3 		cmp	r9, #0
 4063 00ec E7FFFF0A 		beq	.L794
 4064              	.L793:
 4065 00f0 283094E5 		ldr	r3, [r4, #40]
 4066 00f4 0400A0E1 		mov	r0, r4
 4067 00f8 18A094E5 		ldr	r10, [r4, #24]
 4068 00fc 142094E5 		ldr	r2, [r4, #20]
 4069 0100 030053E3 		cmp	r3, #3
 4070 0104 0430A093 		movls	r3, #4
 4071 0108 28308495 		strls	r3, [r4, #40]
 4072 010c 02A04AE0 		sub	r10, r10, r2
 4073 0110 103094E5 		ldr	r3, [r4, #16]
 4074 0114 03A04AE0 		sub	r10, r10, r3
 4075 0118 03A00AE2 		and	r10, r10, #3
 4076 011c 0A10A0E1 		mov	r1, r10
 4077 0120 FEFFFFEB 		bl	_ZN11flatbuffers15vector_downward12ensure_spaceEj
 4078 0124 183094E5 		ldr	r3, [r4, #24]
 4079 0128 00005AE3 		cmp	r10, #0
 4080 012c 000043E0 		sub	r0, r3, r0
 4081 0130 180084E5 		str	r0, [r4, #24]
 4082 0134 0800000A 		beq	.L795
 4083 0138 01005AE3 		cmp	r10, #1
 4084 013c 0030A0E3 		mov	r3, #0
 4085 0140 0030C0E5 		strb	r3, [r0]
 4086 0144 0400000A 		beq	.L795
 4087 0148 182094E5 		ldr	r2, [r4, #24]
 4088 014c 02005AE3 		cmp	r10, #2
 4089 0150 0130C2E5 		strb	r3, [r2, #1]
 4090 0154 18209415 		ldrne	r2, [r4, #24]
 4091 0158 0230C215 		strbne	r3, [r2, #2]
 4092              	.L795:
 4093 015c 0410A0E3 		mov	r1, #4
 4094 0160 0400A0E1 		mov	r0, r4
 4095 0164 FEFFFFEB 		bl	_ZN11flatbuffers15vector_downward12ensure_spaceEj
 4096 0168 183094E5 		ldr	r3, [r4, #24]
 4097 016c 0810A0E3 		mov	r1, #8
 4098 0170 142094E5 		ldr	r2, [r4, #20]
 4099 0174 000043E0 		sub	r0, r3, r0
 4100 0178 103094E5 		ldr	r3, [r4, #16]
 4101 017c 022040E0 		sub	r2, r0, r2
 4102 0180 180084E5 		str	r0, [r4, #24]
 4103 0184 009080E5 		str	r9, [r0]
 4104 0188 0400A0E1 		mov	r0, r4
 4105 018c 029043E0 		sub	r9, r3, r2
 4106 0190 FEFFFFEB 		bl	_ZN11flatbuffers15vector_downward12ensure_spaceEj
 4107 0194 1C3094E5 		ldr	r3, [r4, #28]
 4108 0198 0800A0E3 		mov	r0, #8
 4109 019c 202094E5 		ldr	r2, [r4, #32]
 4110 01a0 001083E0 		add	r1, r3, r0
 4111 01a4 009083E5 		str	r9, [r3]
 4112 01a8 B400C3E1 		strh	r0, [r3, #4]	@ movhi
 4113 01ac 012082E2 		add	r2, r2, #1
 4114 01b0 B432D4E1 		ldrh	r3, [r4, #36]
 4115 01b4 1C1084E5 		str	r1, [r4, #28]
 4116 01b8 202084E5 		str	r2, [r4, #32]
 4117 01bc 000053E1 		cmp	r3, r0
 4118 01c0 0030A0B1 		movlt	r3, r0
 4119 01c4 000057E3 		cmp	r7, #0
 4120 01c8 B432C4E1 		strh	r3, [r4, #36]	@ movhi
 4121 01cc B1FFFF0A 		beq	.L798
 4122              	.L848:
 4123 01d0 0710A0E1 		mov	r1, r7
 4124 01d4 0400A0E1 		mov	r0, r4
 4125 01d8 FEFFFFEB 		bl	_ZN11flatbuffers17FlatBufferBuilder7ReferToEm
 4126 01dc 002050E2 		subs	r2, r0, #0
 4127 01e0 0200001A 		bne	.L799
 4128 01e4 2C30D4E5 		ldrb	r3, [r4, #44]	@ zero_extendqisi2
 4129 01e8 000053E3 		cmp	r3, #0
 4130 01ec A9FFFF0A 		beq	.L798
 4131              	.L799:
 4132 01f0 0410A0E3 		mov	r1, #4
 4133 01f4 0400A0E1 		mov	r0, r4
 4134 01f8 FEFFFFEB 		bl	_ZN11flatbuffers17FlatBufferBuilder10AddElementImEEvtT_S2_.part.45
 4135 01fc 000058E3 		cmp	r8, #0
 4136 0200 A6FFFF0A 		beq	.L849
 4137              	.L801:
 4138 0204 283094E5 		ldr	r3, [r4, #40]
 4139 0208 0010A0E3 		mov	r1, #0
 4140 020c 0400A0E1 		mov	r0, r4
 4141 0210 7660AFE6 		sxtb	r6, r6
 4142 0214 000053E3 		cmp	r3, #0
 4143 0218 0130A003 		moveq	r3, #1
 4144 021c 28308405 		streq	r3, [r4, #40]
 4145 0220 FEFFFFEB 		bl	_ZN11flatbuffers15vector_downward12ensure_spaceEj
 4146 0224 183094E5 		ldr	r3, [r4, #24]
 4147 0228 0110A0E3 		mov	r1, #1
 4148 022c 003043E0 		sub	r3, r3, r0
 4149 0230 0400A0E1 		mov	r0, r4
 4150 0234 183084E5 		str	r3, [r4, #24]
 4151 0238 FEFFFFEB 		bl	_ZN11flatbuffers15vector_downward12ensure_spaceEj
 4152 023c 183094E5 		ldr	r3, [r4, #24]
 4153 0240 0810A0E3 		mov	r1, #8
 4154 0244 003043E0 		sub	r3, r3, r0
 4155 0248 0400A0E1 		mov	r0, r4
 4156 024c 183084E5 		str	r3, [r4, #24]
 4157 0250 0080C3E5 		strb	r8, [r3]
 4158 0254 142094E5 		ldr	r2, [r4, #20]
 4159 0258 183094E5 		ldr	r3, [r4, #24]
 4160 025c 107094E5 		ldr	r7, [r4, #16]
 4161 0260 023043E0 		sub	r3, r3, r2
 4162 0264 037047E0 		sub	r7, r7, r3
 4163 0268 FEFFFFEB 		bl	_ZN11flatbuffers15vector_downward12ensure_spaceEj
 4164 026c 1C3094E5 		ldr	r3, [r4, #28]
 4165 0270 0E00A0E3 		mov	r0, #14
 4166 0274 202094E5 		ldr	r2, [r4, #32]
 4167 0278 081083E2 		add	r1, r3, #8
 4168 027c 007083E5 		str	r7, [r3]
 4169 0280 B400C3E1 		strh	r0, [r3, #4]	@ movhi
 4170 0284 012082E2 		add	r2, r2, #1
 4171 0288 B432D4E1 		ldrh	r3, [r4, #36]
 4172 028c 1C1084E5 		str	r1, [r4, #28]
 4173 0290 202084E5 		str	r2, [r4, #32]
 4174 0294 000053E1 		cmp	r3, r0
 4175 0298 0030A0B1 		movlt	r3, r0
 4176 029c 000056E3 		cmp	r6, #0
 4177 02a0 B432C4E1 		strh	r3, [r4, #36]	@ movhi
 4178 02a4 0200001A 		bne	.L804
 4179 02a8 2C30D4E5 		ldrb	r3, [r4, #44]	@ zero_extendqisi2
 4180 02ac 000053E3 		cmp	r3, #0
 4181 02b0 80FFFF0A 		beq	.L805
 4182              	.L804:
 4183 02b4 283094E5 		ldr	r3, [r4, #40]
 4184 02b8 0010A0E3 		mov	r1, #0
 4185 02bc 0400A0E1 		mov	r0, r4
 4186 02c0 000053E3 		cmp	r3, #0
 4187 02c4 0130A003 		moveq	r3, #1
 4188 02c8 28308405 		streq	r3, [r4, #40]
 4189 02cc FEFFFFEB 		bl	_ZN11flatbuffers15vector_downward12ensure_spaceEj
 4190 02d0 183094E5 		ldr	r3, [r4, #24]
 4191 02d4 0110A0E3 		mov	r1, #1
 4192 02d8 003043E0 		sub	r3, r3, r0
 4193 02dc 0400A0E1 		mov	r0, r4
 4194 02e0 183084E5 		str	r3, [r4, #24]
 4195 02e4 FEFFFFEB 		bl	_ZN11flatbuffers15vector_downward12ensure_spaceEj
 4196 02e8 183094E5 		ldr	r3, [r4, #24]
 4197 02ec 0810A0E3 		mov	r1, #8
 4198 02f0 003043E0 		sub	r3, r3, r0
 4199 02f4 0400A0E1 		mov	r0, r4
 4200 02f8 183084E5 		str	r3, [r4, #24]
 4201 02fc 0060C3E5 		strb	r6, [r3]
 4202 0300 142094E5 		ldr	r2, [r4, #20]
 4203 0304 183094E5 		ldr	r3, [r4, #24]
 4204 0308 106094E5 		ldr	r6, [r4, #16]
 4205 030c 023043E0 		sub	r3, r3, r2
 4206 0310 036046E0 		sub	r6, r6, r3
 4207 0314 FEFFFFEB 		bl	_ZN11flatbuffers15vector_downward12ensure_spaceEj
 4208 0318 1C3094E5 		ldr	r3, [r4, #28]
 4209 031c 0600A0E3 		mov	r0, #6
 4210 0320 202094E5 		ldr	r2, [r4, #32]
 4211 0324 081083E2 		add	r1, r3, #8
 4212 0328 006083E5 		str	r6, [r3]
 4213 032c B400C3E1 		strh	r0, [r3, #4]	@ movhi
 4214 0330 012082E2 		add	r2, r2, #1
 4215 0334 B432D4E1 		ldrh	r3, [r4, #36]
 4216 0338 1C1084E5 		str	r1, [r4, #28]
 4217 033c 202084E5 		str	r2, [r4, #32]
 4218 0340 000053E1 		cmp	r3, r0
 4219 0344 0030A0B1 		movlt	r3, r0
 4220 0348 B432C4E1 		strh	r3, [r4, #36]	@ movhi
 4221 034c 59FFFFEA 		b	.L805
 4222              	.L791:
 4223 0350 0A10A0E3 		mov	r1, #10
 4224 0354 0400A0E1 		mov	r0, r4
 4225 0358 FEFFFFEB 		bl	_ZN11flatbuffers17FlatBufferBuilder10AddElementImEEvtT_S2_.part.45
 4226 035c 46FFFFEA 		b	.L790
 4227              	.L846:
 4228 0360 0A10A0E1 		mov	r1, r10
 4229 0364 0400A0E1 		mov	r0, r4
 4230 0368 FEFFFFEB 		bl	_ZN11flatbuffers17FlatBufferBuilder7ReferToEm
 4231 036c 002050E2 		subs	r2, r0, #0
 4232 0370 0200001A 		bne	.L788
 4233 0374 2C30D4E5 		ldrb	r3, [r4, #44]	@ zero_extendqisi2
 4234 0378 000053E3 		cmp	r3, #0
 4235 037c 3BFFFF0A 		beq	.L787
 4236              	.L788:
 4237 0380 0C10A0E3 		mov	r1, #12
 4238 0384 0400A0E1 		mov	r0, r4
 4239 0388 FEFFFFEB 		bl	_ZN11flatbuffers17FlatBufferBuilder10AddElementImEEvtT_S2_.part.45
 4240 038c 37FFFFEA 		b	.L787
 4241              	.L845:
 4242 0390 0B10A0E1 		mov	r1, fp
 4243 0394 0400A0E1 		mov	r0, r4
 4244 0398 FEFFFFEB 		bl	_ZN11flatbuffers17FlatBufferBuilder7ReferToEm
 4245 039c 002050E2 		subs	r2, r0, #0
 4246 03a0 0200001A 		bne	.L784
 4247 03a4 2C30D4E5 		ldrb	r3, [r4, #44]	@ zero_extendqisi2
 4248 03a8 000053E3 		cmp	r3, #0
 4249 03ac 2DFFFF0A 		beq	.L783
 4250              	.L784:
 4251 03b0 1010A0E3 		mov	r1, #16
 4252 03b4 0400A0E1 		mov	r0, r4
 4253 03b8 FEFFFFEB 		bl	_ZN11flatbuffers17FlatBufferBuilder10AddElementImEEvtT_S2_.part.45
 4254 03bc 29FFFFEA 		b	.L783
 4255              	.L844:
 4256 03c0 FEFFFFEB 		bl	_ZN11flatbuffers17FlatBufferBuilder7ReferToEm
 4257 03c4 002050E2 		subs	r2, r0, #0
 4258 03c8 0200001A 		bne	.L780
 4259 03cc 2C30D4E5 		ldrb	r3, [r4, #44]	@ zero_extendqisi2
 4260 03d0 000053E3 		cmp	r3, #0
 4261 03d4 21FFFF0A 		beq	.L779
 4262              	.L780:
 4263 03d8 1210A0E3 		mov	r1, #18
 4264 03dc 0400A0E1 		mov	r0, r4
 4265 03e0 FEFFFFEB 		bl	_ZN11flatbuffers17FlatBufferBuilder10AddElementImEEvtT_S2_.part.45
 4266 03e4 1DFFFFEA 		b	.L779
 4267              	.L842:
 4268 03e8 003000E3 		movw	r3, #:lower16:.LC24
 4269 03ec 002000E3 		movw	r2, #:lower16:.LANCHOR11
 4270 03f0 000000E3 		movw	r0, #:lower16:.LC19
 4271 03f4 003040E3 		movt	r3, #:upper16:.LC24
 4272 03f8 002040E3 		movt	r2, #:upper16:.LANCHOR11
 4273 03fc 000040E3 		movt	r0, #:upper16:.LC19
 4274 0400 481500E3 		movw	r1, #1352
 4275 0404 FEFFFFEB 		bl	__assert_func
 4276              	.L843:
 4277 0408 FEFFFFEB 		bl	_ZN11flatbuffers17FlatBufferBuilder9NotNestedEv.isra.20.part.21
 4278              		.fnend
 4280              		.section	.text._ZN6tflite14CreateOperatorERN11flatbuffers17FlatBufferBuilderEmNS0_6OffsetINS0_6Vec
 4281              		.align	2
 4282              		.weak	_ZN6tflite14CreateOperatorERN11flatbuffers17FlatBufferBuilderEmNS0_6OffsetINS0_6VectorIlEEEE
 4283              		.syntax unified
 4284              		.arm
 4285              		.fpu neon
 4287              	_ZN6tflite14CreateOperatorERN11flatbuffers17FlatBufferBuilderEmNS0_6OffsetINS0_6VectorIlEEEES6_NS_1
 4288              		.fnstart
 4289              	.LFB5941:
 4290              		@ args = 24, pretend = 0, frame = 0
 4291              		@ frame_needed = 0, uses_anonymous_args = 0
 4292 0000 F84F2DE9 		push	{r3, r4, r5, r6, r7, r8, r9, r10, fp, lr}
 4293              		.save {r3, r4, r5, r6, r7, r8, r9, r10, fp, lr}
 4294 0004 0170A0E1 		mov	r7, r1
 4295 0008 2610D0E5 		ldrb	r1, [r0, #38]	@ zero_extendqisi2
 4296 000c 0390A0E1 		mov	r9, r3
 4297 0010 28B0DDE5 		ldrb	fp, [sp, #40]	@ zero_extendqisi2
 4298 0014 000051E3 		cmp	r1, #0
 4299 0018 203090E5 		ldr	r3, [r0, #32]
 4300 001c 3460DDE5 		ldrb	r6, [sp, #52]	@ zero_extendqisi2
 4301 0020 38A09DE5 		ldr	r10, [sp, #56]
 4302 0024 3C109DE5 		ldr	r1, [sp, #60]
 4303 0028 FD00001A 		bne	.L916
 4304 002c 000053E3 		cmp	r3, #0
 4305 0030 0301001A 		bne	.L917
 4306 0034 0280A0E1 		mov	r8, r2
 4307 0038 183090E5 		ldr	r3, [r0, #24]
 4308 003c 142090E5 		ldr	r2, [r0, #20]
 4309 0040 000051E3 		cmp	r1, #0
 4310 0044 105090E5 		ldr	r5, [r0, #16]
 4311 0048 01C0A0E3 		mov	ip, #1
 4312 004c 0040A0E1 		mov	r4, r0
 4313 0050 26C0C0E5 		strb	ip, [r0, #38]
 4314 0054 023043E0 		sub	r3, r3, r2
 4315 0058 035045E0 		sub	r5, r5, r3
 4316 005c E600001A 		bne	.L918
 4317              	.L854:
 4318 0060 00005AE3 		cmp	r10, #0
 4319 0064 D800001A 		bne	.L919
 4320              	.L858:
 4321 0068 30309DE5 		ldr	r3, [sp, #48]
 4322 006c 000053E3 		cmp	r3, #0
 4323 0070 C900001A 		bne	.L920
 4324              	.L862:
 4325 0074 2C309DE5 		ldr	r3, [sp, #44]
 4326 0078 000053E3 		cmp	r3, #0
 4327 007c BA00001A 		bne	.L921
 4328              	.L866:
 4329 0080 000059E3 		cmp	r9, #0
 4330 0084 AC00001A 		bne	.L922
 4331              	.L870:
 4332 0088 000058E3 		cmp	r8, #0
 4333 008c 9E00001A 		bne	.L923
 4334              	.L874:
 4335 0090 000057E3 		cmp	r7, #0
 4336 0094 0200001A 		bne	.L877
 4337 0098 2C30D4E5 		ldrb	r3, [r4, #44]	@ zero_extendqisi2
 4338 009c 000053E3 		cmp	r3, #0
 4339 00a0 8D00000A 		beq	.L924
 4340              	.L877:
 4341 00a4 283094E5 		ldr	r3, [r4, #40]
 4342 00a8 0400A0E1 		mov	r0, r4
 4343 00ac 188094E5 		ldr	r8, [r4, #24]
 4344 00b0 142094E5 		ldr	r2, [r4, #20]
 4345 00b4 030053E3 		cmp	r3, #3
 4346 00b8 0430A093 		movls	r3, #4
 4347 00bc 28308495 		strls	r3, [r4, #40]
 4348 00c0 028048E0 		sub	r8, r8, r2
 4349 00c4 103094E5 		ldr	r3, [r4, #16]
 4350 00c8 038048E0 		sub	r8, r8, r3
 4351 00cc 038008E2 		and	r8, r8, #3
 4352 00d0 0810A0E1 		mov	r1, r8
 4353 00d4 FEFFFFEB 		bl	_ZN11flatbuffers15vector_downward12ensure_spaceEj
 4354 00d8 183094E5 		ldr	r3, [r4, #24]
 4355 00dc 000058E3 		cmp	r8, #0
 4356 00e0 000043E0 		sub	r0, r3, r0
 4357 00e4 180084E5 		str	r0, [r4, #24]
 4358 00e8 0800000A 		beq	.L879
 4359 00ec 010058E3 		cmp	r8, #1
 4360 00f0 0030A0E3 		mov	r3, #0
 4361 00f4 0030C0E5 		strb	r3, [r0]
 4362 00f8 0400000A 		beq	.L879
 4363 00fc 182094E5 		ldr	r2, [r4, #24]
 4364 0100 020058E3 		cmp	r8, #2
 4365 0104 0130C2E5 		strb	r3, [r2, #1]
 4366 0108 18209415 		ldrne	r2, [r4, #24]
 4367 010c 0230C215 		strbne	r3, [r2, #2]
 4368              	.L879:
 4369 0110 0410A0E3 		mov	r1, #4
 4370 0114 0400A0E1 		mov	r0, r4
 4371 0118 FEFFFFEB 		bl	_ZN11flatbuffers15vector_downward12ensure_spaceEj
 4372 011c 183094E5 		ldr	r3, [r4, #24]
 4373 0120 0810A0E3 		mov	r1, #8
 4374 0124 142094E5 		ldr	r2, [r4, #20]
 4375 0128 7660AFE6 		sxtb	r6, r6
 4376 012c 000043E0 		sub	r0, r3, r0
 4377 0130 103094E5 		ldr	r3, [r4, #16]
 4378 0134 022040E0 		sub	r2, r0, r2
 4379 0138 180084E5 		str	r0, [r4, #24]
 4380 013c 007080E5 		str	r7, [r0]
 4381 0140 0400A0E1 		mov	r0, r4
 4382 0144 027043E0 		sub	r7, r3, r2
 4383 0148 FEFFFFEB 		bl	_ZN11flatbuffers15vector_downward12ensure_spaceEj
 4384 014c 1C3094E5 		ldr	r3, [r4, #28]
 4385 0150 0400A0E3 		mov	r0, #4
 4386 0154 202094E5 		ldr	r2, [r4, #32]
 4387 0158 081083E2 		add	r1, r3, #8
 4388 015c 007083E5 		str	r7, [r3]
 4389 0160 B400C3E1 		strh	r0, [r3, #4]	@ movhi
 4390 0164 012082E2 		add	r2, r2, #1
 4391 0168 B432D4E1 		ldrh	r3, [r4, #36]
 4392 016c 1C1084E5 		str	r1, [r4, #28]
 4393 0170 202084E5 		str	r2, [r4, #32]
 4394 0174 000053E1 		cmp	r3, r0
 4395 0178 0030A0B1 		movlt	r3, r0
 4396 017c 000056E3 		cmp	r6, #0
 4397 0180 B432C4E1 		strh	r3, [r4, #36]	@ movhi
 4398 0184 5A00000A 		beq	.L925
 4399              	.L881:
 4400 0188 283094E5 		ldr	r3, [r4, #40]
 4401 018c 0010A0E3 		mov	r1, #0
 4402 0190 0400A0E1 		mov	r0, r4
 4403 0194 000053E3 		cmp	r3, #0
 4404 0198 0130A003 		moveq	r3, #1
 4405 019c 28308405 		streq	r3, [r4, #40]
 4406 01a0 FEFFFFEB 		bl	_ZN11flatbuffers15vector_downward12ensure_spaceEj
 4407 01a4 183094E5 		ldr	r3, [r4, #24]
 4408 01a8 0110A0E3 		mov	r1, #1
 4409 01ac 003043E0 		sub	r3, r3, r0
 4410 01b0 0400A0E1 		mov	r0, r4
 4411 01b4 183084E5 		str	r3, [r4, #24]
 4412 01b8 FEFFFFEB 		bl	_ZN11flatbuffers15vector_downward12ensure_spaceEj
 4413 01bc 183094E5 		ldr	r3, [r4, #24]
 4414 01c0 0810A0E3 		mov	r1, #8
 4415 01c4 003043E0 		sub	r3, r3, r0
 4416 01c8 0400A0E1 		mov	r0, r4
 4417 01cc 183084E5 		str	r3, [r4, #24]
 4418 01d0 0060C3E5 		strb	r6, [r3]
 4419 01d4 142094E5 		ldr	r2, [r4, #20]
 4420 01d8 183094E5 		ldr	r3, [r4, #24]
 4421 01dc 106094E5 		ldr	r6, [r4, #16]
 4422 01e0 023043E0 		sub	r3, r3, r2
 4423 01e4 036046E0 		sub	r6, r6, r3
 4424 01e8 FEFFFFEB 		bl	_ZN11flatbuffers15vector_downward12ensure_spaceEj
 4425 01ec 1C3094E5 		ldr	r3, [r4, #28]
 4426 01f0 1000A0E3 		mov	r0, #16
 4427 01f4 202094E5 		ldr	r2, [r4, #32]
 4428 01f8 081083E2 		add	r1, r3, #8
 4429 01fc 006083E5 		str	r6, [r3]
 4430 0200 B400C3E1 		strh	r0, [r3, #4]	@ movhi
 4431 0204 012082E2 		add	r2, r2, #1
 4432 0208 B432D4E1 		ldrh	r3, [r4, #36]
 4433 020c 1C1084E5 		str	r1, [r4, #28]
 4434 0210 202084E5 		str	r2, [r4, #32]
 4435 0214 000053E1 		cmp	r3, r0
 4436 0218 0030A0B1 		movlt	r3, r0
 4437 021c 00005BE3 		cmp	fp, #0
 4438 0220 B432C4E1 		strh	r3, [r4, #36]	@ movhi
 4439 0224 0200001A 		bne	.L884
 4440 0228 2C30D4E5 		ldrb	r3, [r4, #44]	@ zero_extendqisi2
 4441 022c 000053E3 		cmp	r3, #0
 4442 0230 2500000A 		beq	.L885
 4443              	.L884:
 4444 0234 283094E5 		ldr	r3, [r4, #40]
 4445 0238 0010A0E3 		mov	r1, #0
 4446 023c 0400A0E1 		mov	r0, r4
 4447 0240 000053E3 		cmp	r3, #0
 4448 0244 0130A003 		moveq	r3, #1
 4449 0248 28308405 		streq	r3, [r4, #40]
 4450 024c FEFFFFEB 		bl	_ZN11flatbuffers15vector_downward12ensure_spaceEj
 4451 0250 183094E5 		ldr	r3, [r4, #24]
 4452 0254 0110A0E3 		mov	r1, #1
 4453 0258 003043E0 		sub	r3, r3, r0
 4454 025c 0400A0E1 		mov	r0, r4
 4455 0260 183084E5 		str	r3, [r4, #24]
 4456 0264 FEFFFFEB 		bl	_ZN11flatbuffers15vector_downward12ensure_spaceEj
 4457 0268 183094E5 		ldr	r3, [r4, #24]
 4458 026c 0810A0E3 		mov	r1, #8
 4459 0270 003043E0 		sub	r3, r3, r0
 4460 0274 0400A0E1 		mov	r0, r4
 4461 0278 183084E5 		str	r3, [r4, #24]
 4462 027c 00B0C3E5 		strb	fp, [r3]
 4463 0280 142094E5 		ldr	r2, [r4, #20]
 4464 0284 183094E5 		ldr	r3, [r4, #24]
 4465 0288 106094E5 		ldr	r6, [r4, #16]
 4466 028c 023043E0 		sub	r3, r3, r2
 4467 0290 036046E0 		sub	r6, r6, r3
 4468 0294 FEFFFFEB 		bl	_ZN11flatbuffers15vector_downward12ensure_spaceEj
 4469 0298 1C3094E5 		ldr	r3, [r4, #28]
 4470 029c 0A00A0E3 		mov	r0, #10
 4471 02a0 202094E5 		ldr	r2, [r4, #32]
 4472 02a4 081083E2 		add	r1, r3, #8
 4473 02a8 006083E5 		str	r6, [r3]
 4474 02ac B400C3E1 		strh	r0, [r3, #4]	@ movhi
 4475 02b0 012082E2 		add	r2, r2, #1
 4476 02b4 B432D4E1 		ldrh	r3, [r4, #36]
 4477 02b8 1C1084E5 		str	r1, [r4, #28]
 4478 02bc 202084E5 		str	r2, [r4, #32]
 4479 02c0 000053E1 		cmp	r3, r0
 4480 02c4 0030A0B1 		movlt	r3, r0
 4481 02c8 B432C4E1 		strh	r3, [r4, #36]	@ movhi
 4482              	.L885:
 4483 02cc 0510A0E1 		mov	r1, r5
 4484 02d0 0400A0E1 		mov	r0, r4
 4485 02d4 FEFFFFEB 		bl	_ZN11flatbuffers17FlatBufferBuilder8EndTableEm
 4486 02d8 F88FBDE8 		pop	{r3, r4, r5, r6, r7, r8, r9, r10, fp, pc}
 4487              	.L924:
 4488 02dc 7660AFE6 		sxtb	r6, r6
 4489 02e0 000056E3 		cmp	r6, #0
 4490 02e4 A7FFFF1A 		bne	.L881
 4491 02e8 00005BE3 		cmp	fp, #0
 4492 02ec F6FFFF0A 		beq	.L885
 4493 02f0 CFFFFFEA 		b	.L884
 4494              	.L925:
 4495 02f4 2C30D4E5 		ldrb	r3, [r4, #44]	@ zero_extendqisi2
 4496 02f8 000053E3 		cmp	r3, #0
 4497 02fc A1FFFF1A 		bne	.L881
 4498 0300 00005BE3 		cmp	fp, #0
 4499 0304 F0FFFF0A 		beq	.L885
 4500 0308 C9FFFFEA 		b	.L884
 4501              	.L923:
 4502 030c 0810A0E1 		mov	r1, r8
 4503 0310 0400A0E1 		mov	r0, r4
 4504 0314 FEFFFFEB 		bl	_ZN11flatbuffers17FlatBufferBuilder7ReferToEm
 4505 0318 002050E2 		subs	r2, r0, #0
 4506 031c 0200001A 		bne	.L875
 4507 0320 2C30D4E5 		ldrb	r3, [r4, #44]	@ zero_extendqisi2
 4508 0324 000053E3 		cmp	r3, #0
 4509 0328 58FFFF0A 		beq	.L874
 4510              	.L875:
 4511 032c 0610A0E3 		mov	r1, #6
 4512 0330 0400A0E1 		mov	r0, r4
 4513 0334 FEFFFFEB 		bl	_ZN11flatbuffers17FlatBufferBuilder10AddElementImEEvtT_S2_.part.45
 4514 0338 54FFFFEA 		b	.L874
 4515              	.L922:
 4516 033c 0910A0E1 		mov	r1, r9
 4517 0340 0400A0E1 		mov	r0, r4
 4518 0344 FEFFFFEB 		bl	_ZN11flatbuffers17FlatBufferBuilder7ReferToEm
 4519 0348 002050E2 		subs	r2, r0, #0
 4520 034c 0200001A 		bne	.L871
 4521 0350 2C30D4E5 		ldrb	r3, [r4, #44]	@ zero_extendqisi2
 4522 0354 000053E3 		cmp	r3, #0
 4523 0358 4AFFFF0A 		beq	.L870
 4524              	.L871:
 4525 035c 0810A0E3 		mov	r1, #8
 4526 0360 0400A0E1 		mov	r0, r4
 4527 0364 FEFFFFEB 		bl	_ZN11flatbuffers17FlatBufferBuilder10AddElementImEEvtT_S2_.part.45
 4528 0368 46FFFFEA 		b	.L870
 4529              	.L921:
 4530 036c 0310A0E1 		mov	r1, r3
 4531 0370 0400A0E1 		mov	r0, r4
 4532 0374 FEFFFFEB 		bl	_ZN11flatbuffers17FlatBufferBuilder7ReferToEm
 4533 0378 002050E2 		subs	r2, r0, #0
 4534 037c 0200001A 		bne	.L867
 4535 0380 2C30D4E5 		ldrb	r3, [r4, #44]	@ zero_extendqisi2
 4536 0384 000053E3 		cmp	r3, #0
 4537 0388 3CFFFF0A 		beq	.L866
 4538              	.L867:
 4539 038c 0C10A0E3 		mov	r1, #12
 4540 0390 0400A0E1 		mov	r0, r4
 4541 0394 FEFFFFEB 		bl	_ZN11flatbuffers17FlatBufferBuilder10AddElementImEEvtT_S2_.part.45
 4542 0398 38FFFFEA 		b	.L866
 4543              	.L920:
 4544 039c 0310A0E1 		mov	r1, r3
 4545 03a0 0400A0E1 		mov	r0, r4
 4546 03a4 FEFFFFEB 		bl	_ZN11flatbuffers17FlatBufferBuilder7ReferToEm
 4547 03a8 002050E2 		subs	r2, r0, #0
 4548 03ac 0200001A 		bne	.L863
 4549 03b0 2C30D4E5 		ldrb	r3, [r4, #44]	@ zero_extendqisi2
 4550 03b4 000053E3 		cmp	r3, #0
 4551 03b8 2DFFFF0A 		beq	.L862
 4552              	.L863:
 4553 03bc 0E10A0E3 		mov	r1, #14
 4554 03c0 0400A0E1 		mov	r0, r4
 4555 03c4 FEFFFFEB 		bl	_ZN11flatbuffers17FlatBufferBuilder10AddElementImEEvtT_S2_.part.45
 4556 03c8 29FFFFEA 		b	.L862
 4557              	.L919:
 4558 03cc 0A10A0E1 		mov	r1, r10
 4559 03d0 0400A0E1 		mov	r0, r4
 4560 03d4 FEFFFFEB 		bl	_ZN11flatbuffers17FlatBufferBuilder7ReferToEm
 4561 03d8 002050E2 		subs	r2, r0, #0
 4562 03dc 0200001A 		bne	.L859
 4563 03e0 2C30D4E5 		ldrb	r3, [r4, #44]	@ zero_extendqisi2
 4564 03e4 000053E3 		cmp	r3, #0
 4565 03e8 1EFFFF0A 		beq	.L858
 4566              	.L859:
 4567 03ec 1210A0E3 		mov	r1, #18
 4568 03f0 0400A0E1 		mov	r0, r4
 4569 03f4 FEFFFFEB 		bl	_ZN11flatbuffers17FlatBufferBuilder10AddElementImEEvtT_S2_.part.45
 4570 03f8 1AFFFFEA 		b	.L858
 4571              	.L918:
 4572 03fc FEFFFFEB 		bl	_ZN11flatbuffers17FlatBufferBuilder7ReferToEm
 4573 0400 002050E2 		subs	r2, r0, #0
 4574 0404 0200001A 		bne	.L855
 4575 0408 2C30D4E5 		ldrb	r3, [r4, #44]	@ zero_extendqisi2
 4576 040c 000053E3 		cmp	r3, #0
 4577 0410 12FFFF0A 		beq	.L854
 4578              	.L855:
 4579 0414 1410A0E3 		mov	r1, #20
 4580 0418 0400A0E1 		mov	r0, r4
 4581 041c FEFFFFEB 		bl	_ZN11flatbuffers17FlatBufferBuilder10AddElementImEEvtT_S2_.part.45
 4582 0420 0EFFFFEA 		b	.L854
 4583              	.L916:
 4584 0424 003000E3 		movw	r3, #:lower16:.LC24
 4585 0428 002000E3 		movw	r2, #:lower16:.LANCHOR11
 4586 042c 000000E3 		movw	r0, #:lower16:.LC19
 4587 0430 003040E3 		movt	r3, #:upper16:.LC24
 4588 0434 002040E3 		movt	r2, #:upper16:.LANCHOR11
 4589 0438 000040E3 		movt	r0, #:upper16:.LC19
 4590 043c 481500E3 		movw	r1, #1352
 4591 0440 FEFFFFEB 		bl	__assert_func
 4592              	.L917:
 4593 0444 FEFFFFEB 		bl	_ZN11flatbuffers17FlatBufferBuilder9NotNestedEv.isra.20.part.21
 4594              		.fnend
 4596              		.section	.text._ZN6tflite7testing12_GLOBAL__N_112ModelBuilder7AddNodeEiSt16initializer_listIlES4_,
 4597              		.align	2
 4598              		.syntax unified
 4599              		.arm
 4600              		.fpu neon
 4602              	_ZN6tflite7testing12_GLOBAL__N_112ModelBuilder7AddNodeEiSt16initializer_listIlES4_:
 4603              		.fnstart
 4604              	.LFB7056:
 4605              		@ args = 8, pretend = 0, frame = 8
 4606              		@ frame_needed = 0, uses_anonymous_args = 0
 4607 0000 F04F2DE9 		push	{r4, r5, r6, r7, r8, r9, r10, fp, lr}
 4608              		.save {r4, r5, r6, r7, r8, r9, r10, fp, lr}
 4609              		.pad #36
 4610 0004 24D04DE2 		sub	sp, sp, #36
 4611 0008 F86090E5 		ldr	r6, [r0, #248]
 4612 000c 0180A0E1 		mov	r8, r1
 4613 0010 20108DE2 		add	r1, sp, #32
 4614 0014 0C0001E9 		stmdb	r1, {r2, r3}
 4615 0018 320056E3 		cmp	r6, #50
 4616 001c 430000CA 		bgt	.L941
 4617 0020 1C509DE5 		ldr	r5, [sp, #28]
 4618 0024 0040A0E1 		mov	r4, r0
 4619 0028 007090E5 		ldr	r7, [r0]
 4620 002c 18A09DE5 		ldr	r10, [sp, #24]
 4621 0030 0510A0E1 		mov	r1, r5
 4622 0034 0700A0E1 		mov	r0, r7
 4623 0038 FEFFFFEB 		bl	_ZN11flatbuffers17FlatBufferBuilder11StartVectorEjj.constprop.148
 4624 003c 000055E3 		cmp	r5, #0
 4625 0040 0100000A 		beq	.L930
 4626 0044 0591B0E1 		lsls	r9, r5, #2
 4627 0048 2400001A 		bne	.L942
 4628              	.L930:
 4629 004c 0510A0E1 		mov	r1, r5
 4630 0050 0700A0E1 		mov	r0, r7
 4631 0054 FEFFFFEB 		bl	_ZN11flatbuffers17FlatBufferBuilder9EndVectorEj
 4632 0058 4C509DE5 		ldr	r5, [sp, #76]
 4633 005c 0090A0E1 		mov	r9, r0
 4634 0060 007094E5 		ldr	r7, [r4]
 4635 0064 48B09DE5 		ldr	fp, [sp, #72]
 4636 0068 0510A0E1 		mov	r1, r5
 4637 006c 0700A0E1 		mov	r0, r7
 4638 0070 FEFFFFEB 		bl	_ZN11flatbuffers17FlatBufferBuilder11StartVectorEjj.constprop.148
 4639 0074 000055E3 		cmp	r5, #0
 4640 0078 0100000A 		beq	.L933
 4641 007c 05A1B0E1 		lsls	r10, r5, #2
 4642 0080 2000001A 		bne	.L943
 4643              	.L933:
 4644 0084 0510A0E1 		mov	r1, r5
 4645 0088 0700A0E1 		mov	r0, r7
 4646 008c FEFFFFEB 		bl	_ZN11flatbuffers17FlatBufferBuilder9EndVectorEj
 4647 0090 00C0A0E3 		mov	ip, #0
 4648 0094 0030A0E1 		mov	r3, r0
 4649 0098 0920A0E1 		mov	r2, r9
 4650 009c 0810A0E1 		mov	r1, r8
 4651 00a0 0700A0E1 		mov	r0, r7
 4652 00a4 14C08DE5 		str	ip, [sp, #20]
 4653 00a8 10C08DE5 		str	ip, [sp, #16]
 4654 00ac 0C6086E2 		add	r6, r6, #12
 4655 00b0 0CC08DE5 		str	ip, [sp, #12]
 4656 00b4 08C08DE5 		str	ip, [sp, #8]
 4657 00b8 04C08DE5 		str	ip, [sp, #4]
 4658 00bc 00C08DE5 		str	ip, [sp]
 4659 00c0 FEFFFFEB 		bl	_ZN6tflite14CreateOperatorERN11flatbuffers17FlatBufferBuilderEmNS0_6OffsetINS0_6VectorIlEEEES6_
 4660 00c4 F83094E5 		ldr	r3, [r4, #248]
 4661 00c8 060184E7 		str	r0, [r4, r6, lsl #2]
 4662 00cc 012083E2 		add	r2, r3, #1
 4663 00d0 0300A0E1 		mov	r0, r3
 4664 00d4 F82084E5 		str	r2, [r4, #248]
 4665 00d8 24D08DE2 		add	sp, sp, #36
 4666              		@ sp needed
 4667 00dc F08FBDE8 		pop	{r4, r5, r6, r7, r8, r9, r10, fp, pc}
 4668              	.L942:
 4669 00e0 0910A0E1 		mov	r1, r9
 4670 00e4 0700A0E1 		mov	r0, r7
 4671 00e8 FEFFFFEB 		bl	_ZN11flatbuffers15vector_downward12ensure_spaceEj
 4672 00ec 183097E5 		ldr	r3, [r7, #24]
 4673 00f0 0920A0E1 		mov	r2, r9
 4674 00f4 0A10A0E1 		mov	r1, r10
 4675 00f8 000043E0 		sub	r0, r3, r0
 4676 00fc 180087E5 		str	r0, [r7, #24]
 4677 0100 FEFFFFEB 		bl	memcpy
 4678 0104 D0FFFFEA 		b	.L930
 4679              	.L943:
 4680 0108 0A10A0E1 		mov	r1, r10
 4681 010c 0700A0E1 		mov	r0, r7
 4682 0110 FEFFFFEB 		bl	_ZN11flatbuffers15vector_downward12ensure_spaceEj
 4683 0114 183097E5 		ldr	r3, [r7, #24]
 4684 0118 0A20A0E1 		mov	r2, r10
 4685 011c 0B10A0E1 		mov	r1, fp
 4686 0120 000043E0 		sub	r0, r3, r0
 4687 0124 180087E5 		str	r0, [r7, #24]
 4688 0128 FEFFFFEB 		bl	memcpy
 4689 012c D4FFFFEA 		b	.L933
 4690              	.L941:
 4691 0130 FEFFFFEB 		bl	abort
 4692              		.fnend
 4694              		.section	.text._ZN6tflite14CreateSubGraphERN11flatbuffers17FlatBufferBuilderENS0_6OffsetINS0_6Vect
 4695              		.align	2
 4696              		.weak	_ZN6tflite14CreateSubGraphERN11flatbuffers17FlatBufferBuilderENS0_6OffsetINS0_6VectorINS3_IN
 4697              		.syntax unified
 4698              		.arm
 4699              		.fpu neon
 4701              	_ZN6tflite14CreateSubGraphERN11flatbuffers17FlatBufferBuilderENS0_6OffsetINS0_6VectorINS3_INS_6Tens
 4702              		.fnstart
 4703              	.LFB5961:
 4704              		@ args = 8, pretend = 0, frame = 0
 4705              		@ frame_needed = 0, uses_anonymous_args = 0
 4706 0000 F0472DE9 		push	{r4, r5, r6, r7, r8, r9, r10, lr}
 4707              		.save {r4, r5, r6, r7, r8, r9, r10, lr}
 4708 0004 0160A0E1 		mov	r6, r1
 4709 0008 2610D0E5 		ldrb	r1, [r0, #38]	@ zero_extendqisi2
 4710 000c 0380A0E1 		mov	r8, r3
 4711 0010 20909DE5 		ldr	r9, [sp, #32]
 4712 0014 000051E3 		cmp	r1, #0
 4713 0018 203090E5 		ldr	r3, [r0, #32]
 4714 001c 24109DE5 		ldr	r1, [sp, #36]
 4715 0020 5600001A 		bne	.L969
 4716 0024 000053E3 		cmp	r3, #0
 4717 0028 5C00001A 		bne	.L970
 4718 002c 0270A0E1 		mov	r7, r2
 4719 0030 143090E5 		ldr	r3, [r0, #20]
 4720 0034 182090E5 		ldr	r2, [r0, #24]
 4721 0038 000051E3 		cmp	r1, #0
 4722 003c 105090E5 		ldr	r5, [r0, #16]
 4723 0040 01C0A0E3 		mov	ip, #1
 4724 0044 0040A0E1 		mov	r4, r0
 4725 0048 26C0C0E5 		strb	ip, [r0, #38]
 4726 004c 032042E0 		sub	r2, r2, r3
 4727 0050 025045E0 		sub	r5, r5, r2
 4728 0054 0B00001A 		bne	.L971
 4729              	.L948:
 4730 0058 000059E3 		cmp	r9, #0
 4731 005c 1400001A 		bne	.L972
 4732              	.L952:
 4733 0060 000058E3 		cmp	r8, #0
 4734 0064 1F00001A 		bne	.L973
 4735              	.L956:
 4736 0068 000057E3 		cmp	r7, #0
 4737 006c 2A00001A 		bne	.L974
 4738              	.L960:
 4739 0070 000056E3 		cmp	r6, #0
 4740 0074 3500001A 		bne	.L975
 4741              	.L964:
 4742 0078 0510A0E1 		mov	r1, r5
 4743 007c 0400A0E1 		mov	r0, r4
 4744 0080 FEFFFFEB 		bl	_ZN11flatbuffers17FlatBufferBuilder8EndTableEm
 4745 0084 F087BDE8 		pop	{r4, r5, r6, r7, r8, r9, r10, pc}
 4746              	.L971:
 4747 0088 FEFFFFEB 		bl	_ZN11flatbuffers17FlatBufferBuilder7ReferToEm
 4748 008c 002050E2 		subs	r2, r0, #0
 4749 0090 0200001A 		bne	.L949
 4750 0094 2C30D4E5 		ldrb	r3, [r4, #44]	@ zero_extendqisi2
 4751 0098 000053E3 		cmp	r3, #0
 4752 009c EDFFFF0A 		beq	.L948
 4753              	.L949:
 4754 00a0 0C10A0E3 		mov	r1, #12
 4755 00a4 0400A0E1 		mov	r0, r4
 4756 00a8 FEFFFFEB 		bl	_ZN11flatbuffers17FlatBufferBuilder10AddElementImEEvtT_S2_.part.45
 4757 00ac 000059E3 		cmp	r9, #0
 4758 00b0 EAFFFF0A 		beq	.L952
 4759              	.L972:
 4760 00b4 0910A0E1 		mov	r1, r9
 4761 00b8 0400A0E1 		mov	r0, r4
 4762 00bc FEFFFFEB 		bl	_ZN11flatbuffers17FlatBufferBuilder7ReferToEm
 4763 00c0 002050E2 		subs	r2, r0, #0
 4764 00c4 0200001A 		bne	.L953
 4765 00c8 2C30D4E5 		ldrb	r3, [r4, #44]	@ zero_extendqisi2
 4766 00cc 000053E3 		cmp	r3, #0
 4767 00d0 E2FFFF0A 		beq	.L952
 4768              	.L953:
 4769 00d4 0A10A0E3 		mov	r1, #10
 4770 00d8 0400A0E1 		mov	r0, r4
 4771 00dc FEFFFFEB 		bl	_ZN11flatbuffers17FlatBufferBuilder10AddElementImEEvtT_S2_.part.45
 4772 00e0 000058E3 		cmp	r8, #0
 4773 00e4 DFFFFF0A 		beq	.L956
 4774              	.L973:
 4775 00e8 0810A0E1 		mov	r1, r8
 4776 00ec 0400A0E1 		mov	r0, r4
 4777 00f0 FEFFFFEB 		bl	_ZN11flatbuffers17FlatBufferBuilder7ReferToEm
 4778 00f4 002050E2 		subs	r2, r0, #0
 4779 00f8 0200001A 		bne	.L957
 4780 00fc 2C30D4E5 		ldrb	r3, [r4, #44]	@ zero_extendqisi2
 4781 0100 000053E3 		cmp	r3, #0
 4782 0104 D7FFFF0A 		beq	.L956
 4783              	.L957:
 4784 0108 0810A0E3 		mov	r1, #8
 4785 010c 0400A0E1 		mov	r0, r4
 4786 0110 FEFFFFEB 		bl	_ZN11flatbuffers17FlatBufferBuilder10AddElementImEEvtT_S2_.part.45
 4787 0114 000057E3 		cmp	r7, #0
 4788 0118 D4FFFF0A 		beq	.L960
 4789              	.L974:
 4790 011c 0710A0E1 		mov	r1, r7
 4791 0120 0400A0E1 		mov	r0, r4
 4792 0124 FEFFFFEB 		bl	_ZN11flatbuffers17FlatBufferBuilder7ReferToEm
 4793 0128 002050E2 		subs	r2, r0, #0
 4794 012c 0200001A 		bne	.L961
 4795 0130 2C30D4E5 		ldrb	r3, [r4, #44]	@ zero_extendqisi2
 4796 0134 000053E3 		cmp	r3, #0
 4797 0138 CCFFFF0A 		beq	.L960
 4798              	.L961:
 4799 013c 0610A0E3 		mov	r1, #6
 4800 0140 0400A0E1 		mov	r0, r4
 4801 0144 FEFFFFEB 		bl	_ZN11flatbuffers17FlatBufferBuilder10AddElementImEEvtT_S2_.part.45
 4802 0148 000056E3 		cmp	r6, #0
 4803 014c C9FFFF0A 		beq	.L964
 4804              	.L975:
 4805 0150 0610A0E1 		mov	r1, r6
 4806 0154 0400A0E1 		mov	r0, r4
 4807 0158 FEFFFFEB 		bl	_ZN11flatbuffers17FlatBufferBuilder7ReferToEm
 4808 015c 002050E2 		subs	r2, r0, #0
 4809 0160 0200001A 		bne	.L965
 4810 0164 2C30D4E5 		ldrb	r3, [r4, #44]	@ zero_extendqisi2
 4811 0168 000053E3 		cmp	r3, #0
 4812 016c C1FFFF0A 		beq	.L964
 4813              	.L965:
 4814 0170 0410A0E3 		mov	r1, #4
 4815 0174 0400A0E1 		mov	r0, r4
 4816 0178 FEFFFFEB 		bl	_ZN11flatbuffers17FlatBufferBuilder10AddElementImEEvtT_S2_.part.45
 4817 017c BDFFFFEA 		b	.L964
 4818              	.L969:
 4819 0180 003000E3 		movw	r3, #:lower16:.LC24
 4820 0184 002000E3 		movw	r2, #:lower16:.LANCHOR11
 4821 0188 000000E3 		movw	r0, #:lower16:.LC19
 4822 018c 003040E3 		movt	r3, #:upper16:.LC24
 4823 0190 002040E3 		movt	r2, #:upper16:.LANCHOR11
 4824 0194 000040E3 		movt	r0, #:upper16:.LC19
 4825 0198 481500E3 		movw	r1, #1352
 4826 019c FEFFFFEB 		bl	__assert_func
 4827              	.L970:
 4828 01a0 FEFFFFEB 		bl	_ZN11flatbuffers17FlatBufferBuilder9NotNestedEv.isra.20.part.21
 4829              		.fnend
 4831              		.section	.text._ZN6tflite12CreateBufferERN11flatbuffers17FlatBufferBuilderENS0_6OffsetINS0_6Vector
 4832              		.align	2
 4833              		.weak	_ZN6tflite12CreateBufferERN11flatbuffers17FlatBufferBuilderENS0_6OffsetINS0_6VectorIhEEEE
 4834              		.syntax unified
 4835              		.arm
 4836              		.fpu neon
 4838              	_ZN6tflite12CreateBufferERN11flatbuffers17FlatBufferBuilderENS0_6OffsetINS0_6VectorIhEEEE:
 4839              		.fnstart
 4840              	.LFB5973:
 4841              		@ args = 0, pretend = 0, frame = 0
 4842              		@ frame_needed = 0, uses_anonymous_args = 0
 4843 0000 26C0D0E5 		ldrb	ip, [r0, #38]	@ zero_extendqisi2
 4844 0004 F0412DE9 		push	{r4, r5, r6, r7, r8, lr}
 4845              		.save {r4, r5, r6, r7, r8, lr}
 4846 0008 203090E5 		ldr	r3, [r0, #32]
 4847 000c 00005CE3 		cmp	ip, #0
 4848 0010 4D00001A 		bne	.L999
 4849 0014 000053E3 		cmp	r3, #0
 4850 0018 5300001A 		bne	.L1000
 4851 001c 183090E5 		ldr	r3, [r0, #24]
 4852 0020 000051E3 		cmp	r1, #0
 4853 0024 142090E5 		ldr	r2, [r0, #20]
 4854 0028 01C0A0E3 		mov	ip, #1
 4855 002c 105090E5 		ldr	r5, [r0, #16]
 4856 0030 0040A0E1 		mov	r4, r0
 4857 0034 26C0C0E5 		strb	ip, [r0, #38]
 4858 0038 023043E0 		sub	r3, r3, r2
 4859 003c 035045E0 		sub	r5, r5, r3
 4860 0040 0300001A 		bne	.L1001
 4861              	.L980:
 4862 0044 0510A0E1 		mov	r1, r5
 4863 0048 0400A0E1 		mov	r0, r4
 4864 004c FEFFFFEB 		bl	_ZN11flatbuffers17FlatBufferBuilder8EndTableEm
 4865 0050 F081BDE8 		pop	{r4, r5, r6, r7, r8, pc}
 4866              	.L1001:
 4867 0054 FEFFFFEB 		bl	_ZN11flatbuffers17FlatBufferBuilder7ReferToEm
 4868 0058 007050E2 		subs	r7, r0, #0
 4869 005c 3600000A 		beq	.L1002
 4870              	.L981:
 4871 0060 283094E5 		ldr	r3, [r4, #40]
 4872 0064 0400A0E1 		mov	r0, r4
 4873 0068 186094E5 		ldr	r6, [r4, #24]
 4874 006c 142094E5 		ldr	r2, [r4, #20]
 4875 0070 030053E3 		cmp	r3, #3
 4876 0074 0430A093 		movls	r3, #4
 4877 0078 28308495 		strls	r3, [r4, #40]
 4878 007c 026046E0 		sub	r6, r6, r2
 4879 0080 103094E5 		ldr	r3, [r4, #16]
 4880 0084 036046E0 		sub	r6, r6, r3
 4881 0088 036006E2 		and	r6, r6, #3
 4882 008c 0610A0E1 		mov	r1, r6
 4883 0090 FEFFFFEB 		bl	_ZN11flatbuffers15vector_downward12ensure_spaceEj
 4884 0094 183094E5 		ldr	r3, [r4, #24]
 4885 0098 000056E3 		cmp	r6, #0
 4886 009c 000043E0 		sub	r0, r3, r0
 4887 00a0 180084E5 		str	r0, [r4, #24]
 4888 00a4 0800000A 		beq	.L983
 4889 00a8 010056E3 		cmp	r6, #1
 4890 00ac 0030A0E3 		mov	r3, #0
 4891 00b0 0030C0E5 		strb	r3, [r0]
 4892 00b4 0400000A 		beq	.L983
 4893 00b8 182094E5 		ldr	r2, [r4, #24]
 4894 00bc 020056E3 		cmp	r6, #2
 4895 00c0 0130C2E5 		strb	r3, [r2, #1]
 4896 00c4 18209415 		ldrne	r2, [r4, #24]
 4897 00c8 0230C215 		strbne	r3, [r2, #2]
 4898              	.L983:
 4899 00cc 0410A0E3 		mov	r1, #4
 4900 00d0 0400A0E1 		mov	r0, r4
 4901 00d4 FEFFFFEB 		bl	_ZN11flatbuffers15vector_downward12ensure_spaceEj
 4902 00d8 183094E5 		ldr	r3, [r4, #24]
 4903 00dc 0810A0E3 		mov	r1, #8
 4904 00e0 142094E5 		ldr	r2, [r4, #20]
 4905 00e4 106094E5 		ldr	r6, [r4, #16]
 4906 00e8 003043E0 		sub	r3, r3, r0
 4907 00ec 0400A0E1 		mov	r0, r4
 4908 00f0 022043E0 		sub	r2, r3, r2
 4909 00f4 183084E5 		str	r3, [r4, #24]
 4910 00f8 007083E5 		str	r7, [r3]
 4911 00fc 026046E0 		sub	r6, r6, r2
 4912 0100 FEFFFFEB 		bl	_ZN11flatbuffers15vector_downward12ensure_spaceEj
 4913 0104 1C3094E5 		ldr	r3, [r4, #28]
 4914 0108 0400A0E3 		mov	r0, #4
 4915 010c 202094E5 		ldr	r2, [r4, #32]
 4916 0110 081083E2 		add	r1, r3, #8
 4917 0114 006083E5 		str	r6, [r3]
 4918 0118 B400C3E1 		strh	r0, [r3, #4]	@ movhi
 4919 011c 012082E2 		add	r2, r2, #1
 4920 0120 B432D4E1 		ldrh	r3, [r4, #36]
 4921 0124 1C1084E5 		str	r1, [r4, #28]
 4922 0128 202084E5 		str	r2, [r4, #32]
 4923 012c 000053E1 		cmp	r3, r0
 4924 0130 0030A0B1 		movlt	r3, r0
 4925 0134 B432C4E1 		strh	r3, [r4, #36]	@ movhi
 4926 0138 C1FFFFEA 		b	.L980
 4927              	.L1002:
 4928 013c 2C30D4E5 		ldrb	r3, [r4, #44]	@ zero_extendqisi2
 4929 0140 000053E3 		cmp	r3, #0
 4930 0144 C5FFFF1A 		bne	.L981
 4931 0148 BDFFFFEA 		b	.L980
 4932              	.L999:
 4933 014c 003000E3 		movw	r3, #:lower16:.LC24
 4934 0150 002000E3 		movw	r2, #:lower16:.LANCHOR11
 4935 0154 000000E3 		movw	r0, #:lower16:.LC19
 4936 0158 003040E3 		movt	r3, #:upper16:.LC24
 4937 015c 002040E3 		movt	r2, #:upper16:.LANCHOR11
 4938 0160 000040E3 		movt	r0, #:upper16:.LC19
 4939 0164 481500E3 		movw	r1, #1352
 4940 0168 FEFFFFEB 		bl	__assert_func
 4941              	.L1000:
 4942 016c FEFFFFEB 		bl	_ZN11flatbuffers17FlatBufferBuilder9NotNestedEv.isra.20.part.21
 4943              		.fnend
 4945              		.section	.text._ZN6tflite11CreateModelERN11flatbuffers17FlatBufferBuilderEmNS0_6OffsetINS0_6Vector
 4946              		.align	2
 4947              		.weak	_ZN6tflite11CreateModelERN11flatbuffers17FlatBufferBuilderEmNS0_6OffsetINS0_6VectorINS3_INS_
 4948              		.syntax unified
 4949              		.arm
 4950              		.fpu neon
 4952              	_ZN6tflite11CreateModelERN11flatbuffers17FlatBufferBuilderEmNS0_6OffsetINS0_6VectorINS3_INS_12Opera
 4953              		.fnstart
 4954              	.LFB6047:
 4955              		@ args = 20, pretend = 0, frame = 0
 4956              		@ frame_needed = 0, uses_anonymous_args = 0
 4957 0000 F84F2DE9 		push	{r3, r4, r5, r6, r7, r8, r9, r10, fp, lr}
 4958              		.save {r3, r4, r5, r6, r7, r8, r9, r10, fp, lr}
 4959 0004 0160A0E1 		mov	r6, r1
 4960 0008 2610D0E5 		ldrb	r1, [r0, #38]	@ zero_extendqisi2
 4961 000c 2C908DE2 		add	r9, sp, #44
 4962 0010 0380A0E1 		mov	r8, r3
 4963 0014 000E99E8 		ldm	r9, {r9, r10, fp}
 4964 0018 000051E3 		cmp	r1, #0
 4965 001c 203090E5 		ldr	r3, [r0, #32]
 4966 0020 38109DE5 		ldr	r1, [sp, #56]
 4967 0024 AD00001A 		bne	.L1060
 4968 0028 000053E3 		cmp	r3, #0
 4969 002c B300001A 		bne	.L1061
 4970 0030 0270A0E1 		mov	r7, r2
 4971 0034 183090E5 		ldr	r3, [r0, #24]
 4972 0038 142090E5 		ldr	r2, [r0, #20]
 4973 003c 000051E3 		cmp	r1, #0
 4974 0040 105090E5 		ldr	r5, [r0, #16]
 4975 0044 01C0A0E3 		mov	ip, #1
 4976 0048 0040A0E1 		mov	r4, r0
 4977 004c 26C0C0E5 		strb	ip, [r0, #38]
 4978 0050 023043E0 		sub	r3, r3, r2
 4979 0054 035045E0 		sub	r5, r5, r3
 4980 0058 9600001A 		bne	.L1062
 4981              	.L1007:
 4982 005c 00005BE3 		cmp	fp, #0
 4983 0060 8800001A 		bne	.L1063
 4984              	.L1011:
 4985 0064 00005AE3 		cmp	r10, #0
 4986 0068 7A00001A 		bne	.L1064
 4987              	.L1015:
 4988 006c 000059E3 		cmp	r9, #0
 4989 0070 6C00001A 		bne	.L1065
 4990              	.L1019:
 4991 0074 28309DE5 		ldr	r3, [sp, #40]
 4992 0078 000053E3 		cmp	r3, #0
 4993 007c 5D00001A 		bne	.L1066
 4994              	.L1023:
 4995 0080 000058E3 		cmp	r8, #0
 4996 0084 4F00001A 		bne	.L1067
 4997              	.L1027:
 4998 0088 000057E3 		cmp	r7, #0
 4999 008c 0800001A 		bne	.L1068
 5000              	.L1030:
 5001 0090 000056E3 		cmp	r6, #0
 5002 0094 1000001A 		bne	.L1033
 5003 0098 2C30D4E5 		ldrb	r3, [r4, #44]	@ zero_extendqisi2
 5004 009c 000053E3 		cmp	r3, #0
 5005 00a0 0D00001A 		bne	.L1033
 5006              	.L1034:
 5007 00a4 0510A0E1 		mov	r1, r5
 5008 00a8 0400A0E1 		mov	r0, r4
 5009 00ac FEFFFFEB 		bl	_ZN11flatbuffers17FlatBufferBuilder8EndTableEm
 5010 00b0 F88FBDE8 		pop	{r3, r4, r5, r6, r7, r8, r9, r10, fp, pc}
 5011              	.L1068:
 5012 00b4 0710A0E1 		mov	r1, r7
 5013 00b8 0400A0E1 		mov	r0, r4
 5014 00bc FEFFFFEB 		bl	_ZN11flatbuffers17FlatBufferBuilder7ReferToEm
 5015 00c0 002050E2 		subs	r2, r0, #0
 5016 00c4 3B00001A 		bne	.L1031
 5017 00c8 2C30D4E5 		ldrb	r3, [r4, #44]	@ zero_extendqisi2
 5018 00cc 000053E3 		cmp	r3, #0
 5019 00d0 3800001A 		bne	.L1031
 5020 00d4 000056E3 		cmp	r6, #0
 5021 00d8 F1FFFF0A 		beq	.L1034
 5022              	.L1033:
 5023 00dc 283094E5 		ldr	r3, [r4, #40]
 5024 00e0 0400A0E1 		mov	r0, r4
 5025 00e4 187094E5 		ldr	r7, [r4, #24]
 5026 00e8 142094E5 		ldr	r2, [r4, #20]
 5027 00ec 030053E3 		cmp	r3, #3
 5028 00f0 0430A093 		movls	r3, #4
 5029 00f4 28308495 		strls	r3, [r4, #40]
 5030 00f8 027047E0 		sub	r7, r7, r2
 5031 00fc 103094E5 		ldr	r3, [r4, #16]
 5032 0100 037047E0 		sub	r7, r7, r3
 5033 0104 037007E2 		and	r7, r7, #3
 5034 0108 0710A0E1 		mov	r1, r7
 5035 010c FEFFFFEB 		bl	_ZN11flatbuffers15vector_downward12ensure_spaceEj
 5036 0110 183094E5 		ldr	r3, [r4, #24]
 5037 0114 000057E3 		cmp	r7, #0
 5038 0118 000043E0 		sub	r0, r3, r0
 5039 011c 180084E5 		str	r0, [r4, #24]
 5040 0120 0800000A 		beq	.L1035
 5041 0124 010057E3 		cmp	r7, #1
 5042 0128 0030A0E3 		mov	r3, #0
 5043 012c 0030C0E5 		strb	r3, [r0]
 5044 0130 0400000A 		beq	.L1035
 5045 0134 182094E5 		ldr	r2, [r4, #24]
 5046 0138 020057E3 		cmp	r7, #2
 5047 013c 0130C2E5 		strb	r3, [r2, #1]
 5048 0140 18209415 		ldrne	r2, [r4, #24]
 5049 0144 0230C215 		strbne	r3, [r2, #2]
 5050              	.L1035:
 5051 0148 0410A0E3 		mov	r1, #4
 5052 014c 0400A0E1 		mov	r0, r4
 5053 0150 FEFFFFEB 		bl	_ZN11flatbuffers15vector_downward12ensure_spaceEj
 5054 0154 183094E5 		ldr	r3, [r4, #24]
 5055 0158 0810A0E3 		mov	r1, #8
 5056 015c 14C094E5 		ldr	ip, [r4, #20]
 5057 0160 102094E5 		ldr	r2, [r4, #16]
 5058 0164 003043E0 		sub	r3, r3, r0
 5059 0168 0400A0E1 		mov	r0, r4
 5060 016c 183084E5 		str	r3, [r4, #24]
 5061 0170 0CC043E0 		sub	ip, r3, ip
 5062 0174 006083E5 		str	r6, [r3]
 5063 0178 0C6042E0 		sub	r6, r2, ip
 5064 017c FEFFFFEB 		bl	_ZN11flatbuffers15vector_downward12ensure_spaceEj
 5065 0180 1C3094E5 		ldr	r3, [r4, #28]
 5066 0184 0400A0E3 		mov	r0, #4
 5067 0188 202094E5 		ldr	r2, [r4, #32]
 5068 018c 081083E2 		add	r1, r3, #8
 5069 0190 006083E5 		str	r6, [r3]
 5070 0194 B400C3E1 		strh	r0, [r3, #4]	@ movhi
 5071 0198 012082E2 		add	r2, r2, #1
 5072 019c B432D4E1 		ldrh	r3, [r4, #36]
 5073 01a0 1C1084E5 		str	r1, [r4, #28]
 5074 01a4 202084E5 		str	r2, [r4, #32]
 5075 01a8 000053E1 		cmp	r3, r0
 5076 01ac 0030A0B1 		movlt	r3, r0
 5077 01b0 B432C4E1 		strh	r3, [r4, #36]	@ movhi
 5078 01b4 BAFFFFEA 		b	.L1034
 5079              	.L1031:
 5080 01b8 0610A0E3 		mov	r1, #6
 5081 01bc 0400A0E1 		mov	r0, r4
 5082 01c0 FEFFFFEB 		bl	_ZN11flatbuffers17FlatBufferBuilder10AddElementImEEvtT_S2_.part.45
 5083 01c4 B1FFFFEA 		b	.L1030
 5084              	.L1067:
 5085 01c8 0810A0E1 		mov	r1, r8
 5086 01cc 0400A0E1 		mov	r0, r4
 5087 01d0 FEFFFFEB 		bl	_ZN11flatbuffers17FlatBufferBuilder7ReferToEm
 5088 01d4 002050E2 		subs	r2, r0, #0
 5089 01d8 0200001A 		bne	.L1028
 5090 01dc 2C30D4E5 		ldrb	r3, [r4, #44]	@ zero_extendqisi2
 5091 01e0 000053E3 		cmp	r3, #0
 5092 01e4 A7FFFF0A 		beq	.L1027
 5093              	.L1028:
 5094 01e8 0810A0E3 		mov	r1, #8
 5095 01ec 0400A0E1 		mov	r0, r4
 5096 01f0 FEFFFFEB 		bl	_ZN11flatbuffers17FlatBufferBuilder10AddElementImEEvtT_S2_.part.45
 5097 01f4 A3FFFFEA 		b	.L1027
 5098              	.L1066:
 5099 01f8 0310A0E1 		mov	r1, r3
 5100 01fc 0400A0E1 		mov	r0, r4
 5101 0200 FEFFFFEB 		bl	_ZN11flatbuffers17FlatBufferBuilder7ReferToEm
 5102 0204 002050E2 		subs	r2, r0, #0
 5103 0208 0200001A 		bne	.L1024
 5104 020c 2C30D4E5 		ldrb	r3, [r4, #44]	@ zero_extendqisi2
 5105 0210 000053E3 		cmp	r3, #0
 5106 0214 99FFFF0A 		beq	.L1023
 5107              	.L1024:
 5108 0218 0A10A0E3 		mov	r1, #10
 5109 021c 0400A0E1 		mov	r0, r4
 5110 0220 FEFFFFEB 		bl	_ZN11flatbuffers17FlatBufferBuilder10AddElementImEEvtT_S2_.part.45
 5111 0224 95FFFFEA 		b	.L1023
 5112              	.L1065:
 5113 0228 0910A0E1 		mov	r1, r9
 5114 022c 0400A0E1 		mov	r0, r4
 5115 0230 FEFFFFEB 		bl	_ZN11flatbuffers17FlatBufferBuilder7ReferToEm
 5116 0234 002050E2 		subs	r2, r0, #0
 5117 0238 0200001A 		bne	.L1020
 5118 023c 2C30D4E5 		ldrb	r3, [r4, #44]	@ zero_extendqisi2
 5119 0240 000053E3 		cmp	r3, #0
 5120 0244 8AFFFF0A 		beq	.L1019
 5121              	.L1020:
 5122 0248 0C10A0E3 		mov	r1, #12
 5123 024c 0400A0E1 		mov	r0, r4
 5124 0250 FEFFFFEB 		bl	_ZN11flatbuffers17FlatBufferBuilder10AddElementImEEvtT_S2_.part.45
 5125 0254 86FFFFEA 		b	.L1019
 5126              	.L1064:
 5127 0258 0A10A0E1 		mov	r1, r10
 5128 025c 0400A0E1 		mov	r0, r4
 5129 0260 FEFFFFEB 		bl	_ZN11flatbuffers17FlatBufferBuilder7ReferToEm
 5130 0264 002050E2 		subs	r2, r0, #0
 5131 0268 0200001A 		bne	.L1016
 5132 026c 2C30D4E5 		ldrb	r3, [r4, #44]	@ zero_extendqisi2
 5133 0270 000053E3 		cmp	r3, #0
 5134 0274 7CFFFF0A 		beq	.L1015
 5135              	.L1016:
 5136 0278 0E10A0E3 		mov	r1, #14
 5137 027c 0400A0E1 		mov	r0, r4
 5138 0280 FEFFFFEB 		bl	_ZN11flatbuffers17FlatBufferBuilder10AddElementImEEvtT_S2_.part.45
 5139 0284 78FFFFEA 		b	.L1015
 5140              	.L1063:
 5141 0288 0B10A0E1 		mov	r1, fp
 5142 028c 0400A0E1 		mov	r0, r4
 5143 0290 FEFFFFEB 		bl	_ZN11flatbuffers17FlatBufferBuilder7ReferToEm
 5144 0294 002050E2 		subs	r2, r0, #0
 5145 0298 0200001A 		bne	.L1012
 5146 029c 2C30D4E5 		ldrb	r3, [r4, #44]	@ zero_extendqisi2
 5147 02a0 000053E3 		cmp	r3, #0
 5148 02a4 6EFFFF0A 		beq	.L1011
 5149              	.L1012:
 5150 02a8 1010A0E3 		mov	r1, #16
 5151 02ac 0400A0E1 		mov	r0, r4
 5152 02b0 FEFFFFEB 		bl	_ZN11flatbuffers17FlatBufferBuilder10AddElementImEEvtT_S2_.part.45
 5153 02b4 6AFFFFEA 		b	.L1011
 5154              	.L1062:
 5155 02b8 FEFFFFEB 		bl	_ZN11flatbuffers17FlatBufferBuilder7ReferToEm
 5156 02bc 002050E2 		subs	r2, r0, #0
 5157 02c0 0200001A 		bne	.L1008
 5158 02c4 2C30D4E5 		ldrb	r3, [r4, #44]	@ zero_extendqisi2
 5159 02c8 000053E3 		cmp	r3, #0
 5160 02cc 62FFFF0A 		beq	.L1007
 5161              	.L1008:
 5162 02d0 1210A0E3 		mov	r1, #18
 5163 02d4 0400A0E1 		mov	r0, r4
 5164 02d8 FEFFFFEB 		bl	_ZN11flatbuffers17FlatBufferBuilder10AddElementImEEvtT_S2_.part.45
 5165 02dc 5EFFFFEA 		b	.L1007
 5166              	.L1060:
 5167 02e0 003000E3 		movw	r3, #:lower16:.LC24
 5168 02e4 002000E3 		movw	r2, #:lower16:.LANCHOR11
 5169 02e8 000000E3 		movw	r0, #:lower16:.LC19
 5170 02ec 003040E3 		movt	r3, #:upper16:.LC24
 5171 02f0 002040E3 		movt	r2, #:upper16:.LANCHOR11
 5172 02f4 000040E3 		movt	r0, #:upper16:.LC19
 5173 02f8 481500E3 		movw	r1, #1352
 5174 02fc FEFFFFEB 		bl	__assert_func
 5175              	.L1061:
 5176 0300 FEFFFFEB 		bl	_ZN11flatbuffers17FlatBufferBuilder9NotNestedEv.isra.20.part.21
 5177              		.fnend
 5179              		.section	.text._ZN6tflite7testing12_GLOBAL__N_112ModelBuilder10BuildModelESt16initializer_listIlES
 5180              		.align	2
 5181              		.syntax unified
 5182              		.arm
 5183              		.fpu neon
 5185              	_ZN6tflite7testing12_GLOBAL__N_112ModelBuilder10BuildModelESt16initializer_listIlES4_j:
 5186              		.fnstart
 5187              	.LFB7060:
 5188              		@ args = 16, pretend = 8, frame = 80
 5189              		@ frame_needed = 0, uses_anonymous_args = 0
 5190              		.pad #8
 5191 0000 08D04DE2 		sub	sp, sp, #8
 5192 0004 5000C0F2 		vmov.i32	q8, #0  @ v4si
 5193 0008 F04F2DE9 		push	{r4, r5, r6, r7, r8, r9, r10, fp, lr}
 5194              		.save {r4, r5, r6, r7, r8, r9, r10, fp, lr}
 5195 000c 0050A0E1 		mov	r5, r0
 5196              		.pad #108
 5197 0010 6CD04DE2 		sub	sp, sp, #108
 5198 0014 00C0A0E3 		mov	ip, #0
 5199 0018 94308DE5 		str	r3, [sp, #148]
 5200 001c 143295E5 		ldr	r3, [r5, #532]
 5201 0020 18008DE5 		str	r0, [sp, #24]
 5202 0024 30008DE2 		add	r0, sp, #48
 5203 0028 060080E8 		stm	r0, {r1, r2}
 5204 002c 0C10A0E1 		mov	r1, ip
 5205 0030 24308DE5 		str	r3, [sp, #36]
 5206 0034 013083E2 		add	r3, r3, #1
 5207 0038 000095E5 		ldr	r0, [r5]
 5208 003c 34409DE5 		ldr	r4, [sp, #52]
 5209 0040 100BCDED 		vstr	d16, [sp, #64]
 5210 0044 121BCDED 		vstr	d17, [sp, #72]
 5211 0048 60C08DE5 		str	ip, [sp, #96]
 5212 004c 140BCDED 		vstr	d16, [sp, #80]
 5213 0050 161BCDED 		vstr	d17, [sp, #88]
 5214 0054 1C308DE5 		str	r3, [sp, #28]
 5215 0058 64C08DE5 		str	ip, [sp, #100]
 5216 005c FEFFFFEB 		bl	_ZN6tflite12CreateBufferERN11flatbuffers17FlatBufferBuilderENS0_6OffsetINS0_6VectorIhEEEE
 5217 0060 142295E5 		ldr	r2, [r5, #532]
 5218 0064 40008DE5 		str	r0, [sp, #64]
 5219 0068 000052E3 		cmp	r2, #0
 5220 006c 040000DA 		ble	.L1073
 5221 0070 18309DE5 		ldr	r3, [sp, #24]
 5222 0074 0221A0E1 		lsl	r2, r2, #2
 5223 0078 44008DE2 		add	r0, sp, #68
 5224 007c 7B1F83E2 		add	r1, r3, #492
 5225 0080 FEFFFFEB 		bl	memcpy
 5226              	.L1073:
 5227 0084 9C309DE5 		ldr	r3, [sp, #156]
 5228 0088 000053E3 		cmp	r3, #0
 5229 008c 8902000A 		beq	.L1299
 5230 0090 030054E1 		cmp	r4, r3
 5231 0094 C802003A 		bcc	.L1300
 5232 0098 18309DE5 		ldr	r3, [sp, #24]
 5233 009c 0370A0E1 		mov	r7, r3
 5234 00a0 18A293E5 		ldr	r10, [r3, #536]
 5235 00a4 FCB097E4 		ldr	fp, [r7], #252
 5236 00a8 0A10A0E1 		mov	r1, r10
 5237 00ac 0B00A0E1 		mov	r0, fp
 5238 00b0 FEFFFFEB 		bl	_ZN11flatbuffers17FlatBufferBuilder11StartVectorEjj.constprop.148
 5239 00b4 00005AE3 		cmp	r10, #0
 5240 00b8 A202000A 		beq	.L1301
 5241              	.L1133:
 5242 00bc 18209BE5 		ldr	r2, [fp, #24]
 5243 00c0 0A7187E0 		add	r7, r7, r10, lsl #2
 5244 00c4 0A60A0E1 		mov	r6, r10
 5245 00c8 0480A0E3 		mov	r8, #4
 5246 00cc 0050A0E3 		mov	r5, #0
 5247              	.L1082:
 5248 00d0 28309BE5 		ldr	r3, [fp, #40]
 5249 00d4 0B00A0E1 		mov	r0, fp
 5250 00d8 14409BE5 		ldr	r4, [fp, #20]
 5251 00dc 016046E2 		sub	r6, r6, #1
 5252 00e0 049037E5 		ldr	r9, [r7, #-4]!
 5253 00e4 030053E3 		cmp	r3, #3
 5254 00e8 10309BE5 		ldr	r3, [fp, #16]
 5255 00ec 044042E0 		sub	r4, r2, r4
 5256 00f0 28808B95 		strls	r8, [fp, #40]
 5257 00f4 034044E0 		sub	r4, r4, r3
 5258 00f8 034004E2 		and	r4, r4, #3
 5259 00fc 0410A0E1 		mov	r1, r4
 5260 0100 FEFFFFEB 		bl	_ZN11flatbuffers15vector_downward12ensure_spaceEj
 5261 0104 18309BE5 		ldr	r3, [fp, #24]
 5262 0108 000054E3 		cmp	r4, #0
 5263 010c 000043E0 		sub	r0, r3, r0
 5264 0110 18008BE5 		str	r0, [fp, #24]
 5265 0114 0700000A 		beq	.L1077
 5266 0118 010054E3 		cmp	r4, #1
 5267 011c 0050C0E5 		strb	r5, [r0]
 5268 0120 0400000A 		beq	.L1077
 5269 0124 18309BE5 		ldr	r3, [fp, #24]
 5270 0128 020054E3 		cmp	r4, #2
 5271 012c 0150C3E5 		strb	r5, [r3, #1]
 5272 0130 18309B15 		ldrne	r3, [fp, #24]
 5273 0134 0250C315 		strbne	r5, [r3, #2]
 5274              	.L1077:
 5275 0138 000059E3 		cmp	r9, #0
 5276 013c 8D02000A 		beq	.L1079
 5277 0140 18309BE5 		ldr	r3, [fp, #24]
 5278 0144 14209BE5 		ldr	r2, [fp, #20]
 5279 0148 10409BE5 		ldr	r4, [fp, #16]
 5280 014c 023043E0 		sub	r3, r3, r2
 5281 0150 034044E0 		sub	r4, r4, r3
 5282 0154 090054E1 		cmp	r4, r9
 5283 0158 8602003A 		bcc	.L1079
 5284 015c 28309BE5 		ldr	r3, [fp, #40]
 5285 0160 049069E2 		rsb	r9, r9, #4
 5286 0164 049089E0 		add	r9, r9, r4
 5287 0168 004064E2 		rsb	r4, r4, #0
 5288 016c 034004E2 		and	r4, r4, #3
 5289 0170 0B00A0E1 		mov	r0, fp
 5290 0174 030053E3 		cmp	r3, #3
 5291 0178 0410A0E1 		mov	r1, r4
 5292 017c 28808B95 		strls	r8, [fp, #40]
 5293 0180 FEFFFFEB 		bl	_ZN11flatbuffers15vector_downward12ensure_spaceEj
 5294 0184 18309BE5 		ldr	r3, [fp, #24]
 5295 0188 000054E3 		cmp	r4, #0
 5296 018c 000043E0 		sub	r0, r3, r0
 5297 0190 18008BE5 		str	r0, [fp, #24]
 5298 0194 0700000A 		beq	.L1081
 5299 0198 010054E3 		cmp	r4, #1
 5300 019c 0050C0E5 		strb	r5, [r0]
 5301 01a0 0400000A 		beq	.L1081
 5302 01a4 18309BE5 		ldr	r3, [fp, #24]
 5303 01a8 020054E3 		cmp	r4, #2
 5304 01ac 0150C3E5 		strb	r5, [r3, #1]
 5305 01b0 18309B15 		ldrne	r3, [fp, #24]
 5306 01b4 0250C315 		strbne	r5, [r3, #2]
 5307              	.L1081:
 5308 01b8 0410A0E3 		mov	r1, #4
 5309 01bc 0B00A0E1 		mov	r0, fp
 5310 01c0 FEFFFFEB 		bl	_ZN11flatbuffers15vector_downward12ensure_spaceEj
 5311 01c4 18209BE5 		ldr	r2, [fp, #24]
 5312 01c8 000056E3 		cmp	r6, #0
 5313 01cc 002042E0 		sub	r2, r2, r0
 5314 01d0 18208BE5 		str	r2, [fp, #24]
 5315 01d4 009082E5 		str	r9, [r2]
 5316 01d8 BCFFFF1A 		bne	.L1082
 5317              	.L1075:
 5318 01dc 0A10A0E1 		mov	r1, r10
 5319 01e0 0B00A0E1 		mov	r0, fp
 5320 01e4 FEFFFFEB 		bl	_ZN11flatbuffers17FlatBufferBuilder9EndVectorEj
 5321 01e8 18309DE5 		ldr	r3, [sp, #24]
 5322 01ec 20008DE5 		str	r0, [sp, #32]
 5323 01f0 9C109DE5 		ldr	r1, [sp, #156]
 5324 01f4 004093E5 		ldr	r4, [r3]
 5325 01f8 30509DE5 		ldr	r5, [sp, #48]
 5326 01fc 0400A0E1 		mov	r0, r4
 5327 0200 FEFFFFEB 		bl	_ZN11flatbuffers17FlatBufferBuilder11StartVectorEjj.constprop.148
 5328 0204 9C309DE5 		ldr	r3, [sp, #156]
 5329 0208 000053E3 		cmp	r3, #0
 5330 020c 4802000A 		beq	.L1302
 5331              	.L1083:
 5332 0210 0361B0E1 		lsls	r6, r3, #2
 5333 0214 3C02001A 		bne	.L1303
 5334              	.L1085:
 5335 0218 9C109DE5 		ldr	r1, [sp, #156]
 5336 021c 0400A0E1 		mov	r0, r4
 5337 0220 FEFFFFEB 		bl	_ZN11flatbuffers17FlatBufferBuilder9EndVectorEj
 5338 0224 2C008DE5 		str	r0, [sp, #44]
 5339              	.L1084:
 5340 0228 18309DE5 		ldr	r3, [sp, #24]
 5341 022c 98409DE5 		ldr	r4, [sp, #152]
 5342 0230 94609DE5 		ldr	r6, [sp, #148]
 5343 0234 005093E5 		ldr	r5, [r3]
 5344 0238 0410A0E1 		mov	r1, r4
 5345 023c 0500A0E1 		mov	r0, r5
 5346 0240 FEFFFFEB 		bl	_ZN11flatbuffers17FlatBufferBuilder11StartVectorEjj.constprop.148
 5347 0244 000054E3 		cmp	r4, #0
 5348 0248 0100000A 		beq	.L1088
 5349 024c 0471B0E1 		lsls	r7, r4, #2
 5350 0250 2302001A 		bne	.L1304
 5351              	.L1088:
 5352 0254 0410A0E1 		mov	r1, r4
 5353 0258 0500A0E1 		mov	r0, r5
 5354 025c FEFFFFEB 		bl	_ZN11flatbuffers17FlatBufferBuilder9EndVectorEj
 5355 0260 18309DE5 		ldr	r3, [sp, #24]
 5356 0264 28008DE5 		str	r0, [sp, #40]
 5357 0268 0370A0E1 		mov	r7, r3
 5358 026c F89093E5 		ldr	r9, [r3, #248]
 5359 0270 30A097E4 		ldr	r10, [r7], #48
 5360 0274 0910A0E1 		mov	r1, r9
 5361 0278 0A00A0E1 		mov	r0, r10
 5362 027c FEFFFFEB 		bl	_ZN11flatbuffers17FlatBufferBuilder11StartVectorEjj.constprop.148
 5363 0280 000059E3 		cmp	r9, #0
 5364 0284 4700000A 		beq	.L1096
 5365 0288 18309AE5 		ldr	r3, [r10, #24]
 5366 028c 097187E0 		add	r7, r7, r9, lsl #2
 5367 0290 0960A0E1 		mov	r6, r9
 5368 0294 0480A0E3 		mov	r8, #4
 5369 0298 0050A0E3 		mov	r5, #0
 5370              	.L1097:
 5371 029c 28209AE5 		ldr	r2, [r10, #40]
 5372 02a0 0A00A0E1 		mov	r0, r10
 5373 02a4 14409AE5 		ldr	r4, [r10, #20]
 5374 02a8 016046E2 		sub	r6, r6, #1
 5375 02ac 04B037E5 		ldr	fp, [r7, #-4]!
 5376 02b0 030052E3 		cmp	r2, #3
 5377 02b4 10209AE5 		ldr	r2, [r10, #16]
 5378 02b8 044043E0 		sub	r4, r3, r4
 5379 02bc 28808A95 		strls	r8, [r10, #40]
 5380 02c0 024044E0 		sub	r4, r4, r2
 5381 02c4 034004E2 		and	r4, r4, #3
 5382 02c8 0410A0E1 		mov	r1, r4
 5383 02cc FEFFFFEB 		bl	_ZN11flatbuffers15vector_downward12ensure_spaceEj
 5384 02d0 18309AE5 		ldr	r3, [r10, #24]
 5385 02d4 000054E3 		cmp	r4, #0
 5386 02d8 000043E0 		sub	r0, r3, r0
 5387 02dc 18008AE5 		str	r0, [r10, #24]
 5388 02e0 0700000A 		beq	.L1093
 5389 02e4 010054E3 		cmp	r4, #1
 5390 02e8 0050C0E5 		strb	r5, [r0]
 5391 02ec 0400000A 		beq	.L1093
 5392 02f0 18309AE5 		ldr	r3, [r10, #24]
 5393 02f4 020054E3 		cmp	r4, #2
 5394 02f8 0150C3E5 		strb	r5, [r3, #1]
 5395 02fc 18309A15 		ldrne	r3, [r10, #24]
 5396 0300 0250C315 		strbne	r5, [r3, #2]
 5397              	.L1093:
 5398 0304 00005BE3 		cmp	fp, #0
 5399 0308 1A02000A 		beq	.L1079
 5400 030c 18309AE5 		ldr	r3, [r10, #24]
 5401 0310 14209AE5 		ldr	r2, [r10, #20]
 5402 0314 10409AE5 		ldr	r4, [r10, #16]
 5403 0318 023043E0 		sub	r3, r3, r2
 5404 031c 034044E0 		sub	r4, r4, r3
 5405 0320 0B0054E1 		cmp	r4, fp
 5406 0324 1302003A 		bcc	.L1079
 5407 0328 28309AE5 		ldr	r3, [r10, #40]
 5408 032c 04B06BE2 		rsb	fp, fp, #4
 5409 0330 04B08BE0 		add	fp, fp, r4
 5410 0334 004064E2 		rsb	r4, r4, #0
 5411 0338 034004E2 		and	r4, r4, #3
 5412 033c 0A00A0E1 		mov	r0, r10
 5413 0340 030053E3 		cmp	r3, #3
 5414 0344 0410A0E1 		mov	r1, r4
 5415 0348 28808A95 		strls	r8, [r10, #40]
 5416 034c FEFFFFEB 		bl	_ZN11flatbuffers15vector_downward12ensure_spaceEj
 5417 0350 18309AE5 		ldr	r3, [r10, #24]
 5418 0354 000054E3 		cmp	r4, #0
 5419 0358 000043E0 		sub	r0, r3, r0
 5420 035c 18008AE5 		str	r0, [r10, #24]
 5421 0360 0700000A 		beq	.L1095
 5422 0364 010054E3 		cmp	r4, #1
 5423 0368 0050C0E5 		strb	r5, [r0]
 5424 036c 0400000A 		beq	.L1095
 5425 0370 18309AE5 		ldr	r3, [r10, #24]
 5426 0374 020054E3 		cmp	r4, #2
 5427 0378 0150C3E5 		strb	r5, [r3, #1]
 5428 037c 18309A15 		ldrne	r3, [r10, #24]
 5429 0380 0250C315 		strbne	r5, [r3, #2]
 5430              	.L1095:
 5431 0384 0410A0E3 		mov	r1, #4
 5432 0388 0A00A0E1 		mov	r0, r10
 5433 038c FEFFFFEB 		bl	_ZN11flatbuffers15vector_downward12ensure_spaceEj
 5434 0390 18309AE5 		ldr	r3, [r10, #24]
 5435 0394 000056E3 		cmp	r6, #0
 5436 0398 003043E0 		sub	r3, r3, r0
 5437 039c 18308AE5 		str	r3, [r10, #24]
 5438 03a0 00B083E5 		str	fp, [r3]
 5439 03a4 BCFFFF1A 		bne	.L1097
 5440              	.L1096:
 5441 03a8 0910A0E1 		mov	r1, r9
 5442 03ac 0A00A0E1 		mov	r0, r10
 5443 03b0 FEFFFFEB 		bl	_ZN11flatbuffers17FlatBufferBuilder9EndVectorEj
 5444 03b4 18609DE5 		ldr	r6, [sp, #24]
 5445 03b8 001000E3 		movw	r1, #:lower16:.LC32
 5446 03bc 0050A0E1 		mov	r5, r0
 5447 03c0 001040E3 		movt	r1, #:upper16:.LC32
 5448 03c4 0D20A0E3 		mov	r2, #13
 5449 03c8 004096E5 		ldr	r4, [r6]
 5450 03cc 0400A0E1 		mov	r0, r4
 5451 03d0 FEFFFFEB 		bl	_ZN11flatbuffers17FlatBufferBuilder12CreateStringEPKcj
 5452 03d4 28309DE5 		ldr	r3, [sp, #40]
 5453 03d8 04008DE5 		str	r0, [sp, #4]
 5454 03dc 0400A0E1 		mov	r0, r4
 5455 03e0 00508DE5 		str	r5, [sp]
 5456 03e4 2C209DE5 		ldr	r2, [sp, #44]
 5457 03e8 20109DE5 		ldr	r1, [sp, #32]
 5458 03ec FEFFFFEB 		bl	_ZN6tflite14CreateSubGraphERN11flatbuffers17FlatBufferBuilderENS0_6OffsetINS0_6VectorINS3_INS_6
 5459 03f0 143296E5 		ldr	r3, [r6, #532]
 5460 03f4 3C008DE5 		str	r0, [sp, #60]
 5461 03f8 000053E3 		cmp	r3, #0
 5462 03fc 250100DA 		ble	.L1305
 5463 0400 18309DE5 		ldr	r3, [sp, #24]
 5464 0404 0370A0E1 		mov	r7, r3
 5465 0408 2C9093E5 		ldr	r9, [r3, #44]
 5466 040c 04A097E4 		ldr	r10, [r7], #4
 5467 0410 0910A0E1 		mov	r1, r9
 5468 0414 0A00A0E1 		mov	r0, r10
 5469 0418 FEFFFFEB 		bl	_ZN11flatbuffers17FlatBufferBuilder11StartVectorEjj.constprop.148
 5470 041c 000059E3 		cmp	r9, #0
 5471 0420 4700000A 		beq	.L1105
 5472 0424 18309AE5 		ldr	r3, [r10, #24]
 5473 0428 097187E0 		add	r7, r7, r9, lsl #2
 5474 042c 0960A0E1 		mov	r6, r9
 5475 0430 0480A0E3 		mov	r8, #4
 5476 0434 0050A0E3 		mov	r5, #0
 5477              	.L1106:
 5478 0438 28209AE5 		ldr	r2, [r10, #40]
 5479 043c 0A00A0E1 		mov	r0, r10
 5480 0440 14409AE5 		ldr	r4, [r10, #20]
 5481 0444 016046E2 		sub	r6, r6, #1
 5482 0448 04B037E5 		ldr	fp, [r7, #-4]!
 5483 044c 030052E3 		cmp	r2, #3
 5484 0450 10209AE5 		ldr	r2, [r10, #16]
 5485 0454 044043E0 		sub	r4, r3, r4
 5486 0458 28808A95 		strls	r8, [r10, #40]
 5487 045c 024044E0 		sub	r4, r4, r2
 5488 0460 034004E2 		and	r4, r4, #3
 5489 0464 0410A0E1 		mov	r1, r4
 5490 0468 FEFFFFEB 		bl	_ZN11flatbuffers15vector_downward12ensure_spaceEj
 5491 046c 18309AE5 		ldr	r3, [r10, #24]
 5492 0470 000054E3 		cmp	r4, #0
 5493 0474 000043E0 		sub	r0, r3, r0
 5494 0478 18008AE5 		str	r0, [r10, #24]
 5495 047c 0700000A 		beq	.L1102
 5496 0480 010054E3 		cmp	r4, #1
 5497 0484 0050C0E5 		strb	r5, [r0]
 5498 0488 0400000A 		beq	.L1102
 5499 048c 18309AE5 		ldr	r3, [r10, #24]
 5500 0490 020054E3 		cmp	r4, #2
 5501 0494 0150C3E5 		strb	r5, [r3, #1]
 5502 0498 18309A15 		ldrne	r3, [r10, #24]
 5503 049c 0250C315 		strbne	r5, [r3, #2]
 5504              	.L1102:
 5505 04a0 00005BE3 		cmp	fp, #0
 5506 04a4 B301000A 		beq	.L1079
 5507 04a8 18209AE5 		ldr	r2, [r10, #24]
 5508 04ac 14109AE5 		ldr	r1, [r10, #20]
 5509 04b0 10309AE5 		ldr	r3, [r10, #16]
 5510 04b4 012042E0 		sub	r2, r2, r1
 5511 04b8 023043E0 		sub	r3, r3, r2
 5512 04bc 0B0053E1 		cmp	r3, fp
 5513 04c0 AC01003A 		bcc	.L1079
 5514 04c4 28209AE5 		ldr	r2, [r10, #40]
 5515 04c8 04406BE2 		rsb	r4, fp, #4
 5516 04cc 00B063E2 		rsb	fp, r3, #0
 5517 04d0 0A00A0E1 		mov	r0, r10
 5518 04d4 03B00BE2 		and	fp, fp, #3
 5519 04d8 034084E0 		add	r4, r4, r3
 5520 04dc 030052E3 		cmp	r2, #3
 5521 04e0 0B10A0E1 		mov	r1, fp
 5522 04e4 28808A95 		strls	r8, [r10, #40]
 5523 04e8 FEFFFFEB 		bl	_ZN11flatbuffers15vector_downward12ensure_spaceEj
 5524 04ec 18309AE5 		ldr	r3, [r10, #24]
 5525 04f0 00005BE3 		cmp	fp, #0
 5526 04f4 000043E0 		sub	r0, r3, r0
 5527 04f8 18008AE5 		str	r0, [r10, #24]
 5528 04fc 0700000A 		beq	.L1104
 5529 0500 01005BE3 		cmp	fp, #1
 5530 0504 0050C0E5 		strb	r5, [r0]
 5531 0508 0400000A 		beq	.L1104
 5532 050c 18309AE5 		ldr	r3, [r10, #24]
 5533 0510 02005BE3 		cmp	fp, #2
 5534 0514 0150C3E5 		strb	r5, [r3, #1]
 5535 0518 18309A15 		ldrne	r3, [r10, #24]
 5536 051c 0250C315 		strbne	r5, [r3, #2]
 5537              	.L1104:
 5538 0520 0410A0E3 		mov	r1, #4
 5539 0524 0A00A0E1 		mov	r0, r10
 5540 0528 FEFFFFEB 		bl	_ZN11flatbuffers15vector_downward12ensure_spaceEj
 5541 052c 18309AE5 		ldr	r3, [r10, #24]
 5542 0530 000056E3 		cmp	r6, #0
 5543 0534 003043E0 		sub	r3, r3, r0
 5544 0538 18308AE5 		str	r3, [r10, #24]
 5545 053c 004083E5 		str	r4, [r3]
 5546 0540 BCFFFF1A 		bne	.L1106
 5547              	.L1105:
 5548 0544 0910A0E1 		mov	r1, r9
 5549 0548 0A00A0E1 		mov	r0, r10
 5550 054c FEFFFFEB 		bl	_ZN11flatbuffers17FlatBufferBuilder9EndVectorEj
 5551 0550 18409DE5 		ldr	r4, [sp, #24]
 5552 0554 3C108DE2 		add	r1, sp, #60
 5553 0558 2C008DE5 		str	r0, [sp, #44]
 5554 055c 000094E5 		ldr	r0, [r4]
 5555 0560 FEFFFFEB 		bl	_ZN11flatbuffers17FlatBufferBuilder12CreateVectorIN6tflite8SubGraphEEENS_6OffsetINS_6VectorINS4
 5556 0564 001000E3 		movw	r1, #:lower16:.LC33
 5557 0568 28008DE5 		str	r0, [sp, #40]
 5558 056c 0B20A0E3 		mov	r2, #11
 5559 0570 000094E5 		ldr	r0, [r4]
 5560 0574 001040E3 		movt	r1, #:upper16:.LC33
 5561 0578 FEFFFFEB 		bl	_ZN11flatbuffers17FlatBufferBuilder12CreateStringEPKcj
 5562 057c 009094E5 		ldr	r9, [r4]
 5563 0580 1C409DE5 		ldr	r4, [sp, #28]
 5564 0584 20008DE5 		str	r0, [sp, #32]
 5565 0588 0900A0E1 		mov	r0, r9
 5566 058c 0410A0E1 		mov	r1, r4
 5567 0590 FEFFFFEB 		bl	_ZN11flatbuffers17FlatBufferBuilder11StartVectorEjj.constprop.148
 5568 0594 000054E3 		cmp	r4, #0
 5569 0598 4900000A 		beq	.L1099
 5570 059c 24109DE5 		ldr	r1, [sp, #36]
 5571 05a0 40208DE2 		add	r2, sp, #64
 5572 05a4 183099E5 		ldr	r3, [r9, #24]
 5573 05a8 0480A0E3 		mov	r8, #4
 5574 05ac 1C609DE5 		ldr	r6, [sp, #28]
 5575 05b0 0050A0E3 		mov	r5, #0
 5576 05b4 017182E0 		add	r7, r2, r1, lsl #2
 5577              	.L1113:
 5578 05b8 282099E5 		ldr	r2, [r9, #40]
 5579 05bc 0900A0E1 		mov	r0, r9
 5580 05c0 144099E5 		ldr	r4, [r9, #20]
 5581 05c4 016046E2 		sub	r6, r6, #1
 5582 05c8 04B017E4 		ldr	fp, [r7], #-4
 5583 05cc 030052E3 		cmp	r2, #3
 5584 05d0 102099E5 		ldr	r2, [r9, #16]
 5585 05d4 044043E0 		sub	r4, r3, r4
 5586 05d8 28808995 		strls	r8, [r9, #40]
 5587 05dc 024044E0 		sub	r4, r4, r2
 5588 05e0 034004E2 		and	r4, r4, #3
 5589 05e4 0410A0E1 		mov	r1, r4
 5590 05e8 FEFFFFEB 		bl	_ZN11flatbuffers15vector_downward12ensure_spaceEj
 5591 05ec 183099E5 		ldr	r3, [r9, #24]
 5592 05f0 000054E3 		cmp	r4, #0
 5593 05f4 000043E0 		sub	r0, r3, r0
 5594 05f8 180089E5 		str	r0, [r9, #24]
 5595 05fc 0700000A 		beq	.L1110
 5596 0600 010054E3 		cmp	r4, #1
 5597 0604 0050C0E5 		strb	r5, [r0]
 5598 0608 0400000A 		beq	.L1110
 5599 060c 183099E5 		ldr	r3, [r9, #24]
 5600 0610 020054E3 		cmp	r4, #2
 5601 0614 0150C3E5 		strb	r5, [r3, #1]
 5602 0618 18309915 		ldrne	r3, [r9, #24]
 5603 061c 0250C315 		strbne	r5, [r3, #2]
 5604              	.L1110:
 5605 0620 00005BE3 		cmp	fp, #0
 5606 0624 5301000A 		beq	.L1079
 5607 0628 183099E5 		ldr	r3, [r9, #24]
 5608 062c 142099E5 		ldr	r2, [r9, #20]
 5609 0630 10A099E5 		ldr	r10, [r9, #16]
 5610 0634 023043E0 		sub	r3, r3, r2
 5611 0638 03A04AE0 		sub	r10, r10, r3
 5612 063c 0B005AE1 		cmp	r10, fp
 5613 0640 4C01003A 		bcc	.L1079
 5614 0644 283099E5 		ldr	r3, [r9, #40]
 5615 0648 04408AE2 		add	r4, r10, #4
 5616 064c 00A06AE2 		rsb	r10, r10, #0
 5617 0650 0900A0E1 		mov	r0, r9
 5618 0654 03A00AE2 		and	r10, r10, #3
 5619 0658 0B4044E0 		sub	r4, r4, fp
 5620 065c 030053E3 		cmp	r3, #3
 5621 0660 0A10A0E1 		mov	r1, r10
 5622 0664 28808995 		strls	r8, [r9, #40]
 5623 0668 FEFFFFEB 		bl	_ZN11flatbuffers15vector_downward12ensure_spaceEj
 5624 066c 183099E5 		ldr	r3, [r9, #24]
 5625 0670 00005AE3 		cmp	r10, #0
 5626 0674 000043E0 		sub	r0, r3, r0
 5627 0678 180089E5 		str	r0, [r9, #24]
 5628 067c 0700000A 		beq	.L1112
 5629 0680 01005AE3 		cmp	r10, #1
 5630 0684 0050C0E5 		strb	r5, [r0]
 5631 0688 0400000A 		beq	.L1112
 5632 068c 183099E5 		ldr	r3, [r9, #24]
 5633 0690 02005AE3 		cmp	r10, #2
 5634 0694 0150C3E5 		strb	r5, [r3, #1]
 5635 0698 18309915 		ldrne	r3, [r9, #24]
 5636 069c 0250C315 		strbne	r5, [r3, #2]
 5637              	.L1112:
 5638 06a0 0410A0E3 		mov	r1, #4
 5639 06a4 0900A0E1 		mov	r0, r9
 5640 06a8 FEFFFFEB 		bl	_ZN11flatbuffers15vector_downward12ensure_spaceEj
 5641 06ac 183099E5 		ldr	r3, [r9, #24]
 5642 06b0 000056E3 		cmp	r6, #0
 5643 06b4 003043E0 		sub	r3, r3, r0
 5644 06b8 183089E5 		str	r3, [r9, #24]
 5645 06bc 004083E5 		str	r4, [r3]
 5646 06c0 BCFFFF1A 		bne	.L1113
 5647              	.L1099:
 5648 06c4 18509DE5 		ldr	r5, [sp, #24]
 5649 06c8 0900A0E1 		mov	r0, r9
 5650 06cc 1C109DE5 		ldr	r1, [sp, #28]
 5651 06d0 FEFFFFEB 		bl	_ZN11flatbuffers17FlatBufferBuilder9EndVectorEj
 5652 06d4 0580A0E1 		mov	r8, r5
 5653 06d8 14A295E5 		ldr	r10, [r5, #532]
 5654 06dc C44198E4 		ldr	r4, [r8], #452
 5655 06e0 1C008DE5 		str	r0, [sp, #28]
 5656 06e4 0A10A0E1 		mov	r1, r10
 5657 06e8 0400A0E1 		mov	r0, r4
 5658 06ec FEFFFFEB 		bl	_ZN11flatbuffers17FlatBufferBuilder11StartVectorEjj.constprop.148
 5659 06f0 00005AE3 		cmp	r10, #0
 5660 06f4 4700000A 		beq	.L1107
 5661 06f8 183094E5 		ldr	r3, [r4, #24]
 5662 06fc 0A8188E0 		add	r8, r8, r10, lsl #2
 5663 0700 0A70A0E1 		mov	r7, r10
 5664 0704 0490A0E3 		mov	r9, #4
 5665 0708 0060A0E3 		mov	r6, #0
 5666              	.L1119:
 5667 070c 282094E5 		ldr	r2, [r4, #40]
 5668 0710 0400A0E1 		mov	r0, r4
 5669 0714 145094E5 		ldr	r5, [r4, #20]
 5670 0718 017047E2 		sub	r7, r7, #1
 5671 071c 04B038E5 		ldr	fp, [r8, #-4]!
 5672 0720 030052E3 		cmp	r2, #3
 5673 0724 102094E5 		ldr	r2, [r4, #16]
 5674 0728 055043E0 		sub	r5, r3, r5
 5675 072c 28908495 		strls	r9, [r4, #40]
 5676 0730 025045E0 		sub	r5, r5, r2
 5677 0734 035005E2 		and	r5, r5, #3
 5678 0738 0510A0E1 		mov	r1, r5
 5679 073c FEFFFFEB 		bl	_ZN11flatbuffers15vector_downward12ensure_spaceEj
 5680 0740 183094E5 		ldr	r3, [r4, #24]
 5681 0744 000055E3 		cmp	r5, #0
 5682 0748 000043E0 		sub	r0, r3, r0
 5683 074c 180084E5 		str	r0, [r4, #24]
 5684 0750 0700000A 		beq	.L1116
 5685 0754 010055E3 		cmp	r5, #1
 5686 0758 0060C0E5 		strb	r6, [r0]
 5687 075c 0400000A 		beq	.L1116
 5688 0760 183094E5 		ldr	r3, [r4, #24]
 5689 0764 020055E3 		cmp	r5, #2
 5690 0768 0160C3E5 		strb	r6, [r3, #1]
 5691 076c 18309415 		ldrne	r3, [r4, #24]
 5692 0770 0260C315 		strbne	r6, [r3, #2]
 5693              	.L1116:
 5694 0774 00005BE3 		cmp	fp, #0
 5695 0778 FE00000A 		beq	.L1079
 5696 077c 182094E5 		ldr	r2, [r4, #24]
 5697 0780 141094E5 		ldr	r1, [r4, #20]
 5698 0784 103094E5 		ldr	r3, [r4, #16]
 5699 0788 012042E0 		sub	r2, r2, r1
 5700 078c 023043E0 		sub	r3, r3, r2
 5701 0790 0B0053E1 		cmp	r3, fp
 5702 0794 F700003A 		bcc	.L1079
 5703 0798 282094E5 		ldr	r2, [r4, #40]
 5704 079c 04506BE2 		rsb	r5, fp, #4
 5705 07a0 00B063E2 		rsb	fp, r3, #0
 5706 07a4 0400A0E1 		mov	r0, r4
 5707 07a8 03B00BE2 		and	fp, fp, #3
 5708 07ac 035085E0 		add	r5, r5, r3
 5709 07b0 030052E3 		cmp	r2, #3
 5710 07b4 0B10A0E1 		mov	r1, fp
 5711 07b8 28908495 		strls	r9, [r4, #40]
 5712 07bc FEFFFFEB 		bl	_ZN11flatbuffers15vector_downward12ensure_spaceEj
 5713 07c0 183094E5 		ldr	r3, [r4, #24]
 5714 07c4 00005BE3 		cmp	fp, #0
 5715 07c8 000043E0 		sub	r0, r3, r0
 5716 07cc 180084E5 		str	r0, [r4, #24]
 5717 07d0 0700000A 		beq	.L1118
 5718 07d4 01005BE3 		cmp	fp, #1
 5719 07d8 0060C0E5 		strb	r6, [r0]
 5720 07dc 0400000A 		beq	.L1118
 5721 07e0 183094E5 		ldr	r3, [r4, #24]
 5722 07e4 02005BE3 		cmp	fp, #2
 5723 07e8 0160C3E5 		strb	r6, [r3, #1]
 5724 07ec 18309415 		ldrne	r3, [r4, #24]
 5725 07f0 0260C315 		strbne	r6, [r3, #2]
 5726              	.L1118:
 5727 07f4 0410A0E3 		mov	r1, #4
 5728 07f8 0400A0E1 		mov	r0, r4
 5729 07fc FEFFFFEB 		bl	_ZN11flatbuffers15vector_downward12ensure_spaceEj
 5730 0800 183094E5 		ldr	r3, [r4, #24]
 5731 0804 000057E3 		cmp	r7, #0
 5732 0808 003043E0 		sub	r3, r3, r0
 5733 080c 183084E5 		str	r3, [r4, #24]
 5734 0810 005083E5 		str	r5, [r3]
 5735 0814 BCFFFF1A 		bne	.L1119
 5736              	.L1107:
 5737 0818 0A10A0E1 		mov	r1, r10
 5738 081c 0400A0E1 		mov	r0, r4
 5739 0820 FEFFFFEB 		bl	_ZN11flatbuffers17FlatBufferBuilder9EndVectorEj
 5740 0824 1C209DE5 		ldr	r2, [sp, #28]
 5741 0828 0010A0E3 		mov	r1, #0
 5742 082c 0C008DE5 		str	r0, [sp, #12]
 5743 0830 20009DE5 		ldr	r0, [sp, #32]
 5744 0834 08108DE5 		str	r1, [sp, #8]
 5745 0838 04208DE5 		str	r2, [sp, #4]
 5746 083c 00008DE5 		str	r0, [sp]
 5747 0840 0400A0E1 		mov	r0, r4
 5748 0844 10108DE5 		str	r1, [sp, #16]
 5749 0848 28309DE5 		ldr	r3, [sp, #40]
 5750 084c 2C209DE5 		ldr	r2, [sp, #44]
 5751 0850 FEFFFFEB 		bl	_ZN6tflite11CreateModelERN11flatbuffers17FlatBufferBuilderEmNS0_6OffsetINS0_6VectorINS3_INS_12O
 5752 0854 0010A0E1 		mov	r1, r0
 5753              	.L1114:
 5754 0858 18409DE5 		ldr	r4, [sp, #24]
 5755 085c 000094E5 		ldr	r0, [r4]
 5756 0860 FEFFFFEB 		bl	_ZN11flatbuffers17FlatBufferBuilder6FinishEmPKcb.constprop.146
 5757 0864 003094E5 		ldr	r3, [r4]
 5758 0868 2720D3E5 		ldrb	r2, [r3, #39]	@ zero_extendqisi2
 5759 086c 000052E3 		cmp	r2, #0
 5760 0870 C900000A 		beq	.L1306
 5761 0874 183093E5 		ldr	r3, [r3, #24]
 5762 0878 000053E3 		cmp	r3, #0
 5763 087c C500000A 		beq	.L1307
 5764 0880 000093E5 		ldr	r0, [r3]
 5765 0884 000083E0 		add	r0, r3, r0
 5766 0888 6CD08DE2 		add	sp, sp, #108
 5767              		@ sp needed
 5768 088c F04FBDE8 		pop	{r4, r5, r6, r7, r8, r9, r10, fp, lr}
 5769 0890 08D08DE2 		add	sp, sp, #8
 5770 0894 1EFF2FE1 		bx	lr
 5771              	.L1305:
 5772 0898 18309DE5 		ldr	r3, [sp, #24]
 5773 089c 0360A0E1 		mov	r6, r3
 5774 08a0 2C9093E5 		ldr	r9, [r3, #44]
 5775 08a4 04B096E4 		ldr	fp, [r6], #4
 5776 08a8 0910A0E1 		mov	r1, r9
 5777 08ac 0B00A0E1 		mov	r0, fp
 5778 08b0 FEFFFFEB 		bl	_ZN11flatbuffers17FlatBufferBuilder11StartVectorEjj.constprop.148
 5779 08b4 000059E3 		cmp	r9, #0
 5780 08b8 2A00000A 		beq	.L1125
 5781 08bc 096186E0 		add	r6, r6, r9, lsl #2
 5782 08c0 0940A0E1 		mov	r4, r9
 5783 08c4 0480A0E3 		mov	r8, #4
 5784 08c8 0050A0E3 		mov	r5, #0
 5785              	.L1126:
 5786 08cc 041036E5 		ldr	r1, [r6, #-4]!
 5787 08d0 0B00A0E1 		mov	r0, fp
 5788 08d4 FEFFFFEB 		bl	_ZN11flatbuffers17FlatBufferBuilder7ReferToEm
 5789 08d8 28309BE5 		ldr	r3, [fp, #40]
 5790 08dc 00A0A0E1 		mov	r10, r0
 5791 08e0 18709BE5 		ldr	r7, [fp, #24]
 5792 08e4 0B00A0E1 		mov	r0, fp
 5793 08e8 14209BE5 		ldr	r2, [fp, #20]
 5794 08ec 014044E2 		sub	r4, r4, #1
 5795 08f0 030053E3 		cmp	r3, #3
 5796 08f4 10309BE5 		ldr	r3, [fp, #16]
 5797 08f8 28808B95 		strls	r8, [fp, #40]
 5798 08fc 027047E0 		sub	r7, r7, r2
 5799 0900 037047E0 		sub	r7, r7, r3
 5800 0904 037007E2 		and	r7, r7, #3
 5801 0908 0710A0E1 		mov	r1, r7
 5802 090c FEFFFFEB 		bl	_ZN11flatbuffers15vector_downward12ensure_spaceEj
 5803 0910 18309BE5 		ldr	r3, [fp, #24]
 5804 0914 000057E3 		cmp	r7, #0
 5805 0918 000043E0 		sub	r0, r3, r0
 5806 091c 18008BE5 		str	r0, [fp, #24]
 5807 0920 0700000A 		beq	.L1124
 5808 0924 010057E3 		cmp	r7, #1
 5809 0928 0050C0E5 		strb	r5, [r0]
 5810 092c 0400000A 		beq	.L1124
 5811 0930 18309BE5 		ldr	r3, [fp, #24]
 5812 0934 020057E3 		cmp	r7, #2
 5813 0938 0150C3E5 		strb	r5, [r3, #1]
 5814 093c 18309B15 		ldrne	r3, [fp, #24]
 5815 0940 0250C315 		strbne	r5, [r3, #2]
 5816              	.L1124:
 5817 0944 0410A0E3 		mov	r1, #4
 5818 0948 0B00A0E1 		mov	r0, fp
 5819 094c FEFFFFEB 		bl	_ZN11flatbuffers15vector_downward12ensure_spaceEj
 5820 0950 18309BE5 		ldr	r3, [fp, #24]
 5821 0954 000054E3 		cmp	r4, #0
 5822 0958 000043E0 		sub	r0, r3, r0
 5823 095c 18008BE5 		str	r0, [fp, #24]
 5824 0960 00A080E5 		str	r10, [r0]
 5825 0964 D8FFFF1A 		bne	.L1126
 5826              	.L1125:
 5827 0968 0910A0E1 		mov	r1, r9
 5828 096c 0B00A0E1 		mov	r0, fp
 5829 0970 FEFFFFEB 		bl	_ZN11flatbuffers17FlatBufferBuilder9EndVectorEj
 5830 0974 18409DE5 		ldr	r4, [sp, #24]
 5831 0978 3C108DE2 		add	r1, sp, #60
 5832 097c 00B0A0E1 		mov	fp, r0
 5833 0980 000094E5 		ldr	r0, [r4]
 5834 0984 FEFFFFEB 		bl	_ZN11flatbuffers17FlatBufferBuilder12CreateVectorIN6tflite8SubGraphEEENS_6OffsetINS_6VectorINS4
 5835 0988 001000E3 		movw	r1, #:lower16:.LC33
 5836 098c 28008DE5 		str	r0, [sp, #40]
 5837 0990 0B20A0E3 		mov	r2, #11
 5838 0994 000094E5 		ldr	r0, [r4]
 5839 0998 001040E3 		movt	r1, #:upper16:.LC33
 5840 099c FEFFFFEB 		bl	_ZN11flatbuffers17FlatBufferBuilder12CreateStringEPKcj
 5841 09a0 1C509DE5 		ldr	r5, [sp, #28]
 5842 09a4 004094E5 		ldr	r4, [r4]
 5843 09a8 20008DE5 		str	r0, [sp, #32]
 5844 09ac 0510A0E1 		mov	r1, r5
 5845 09b0 0400A0E1 		mov	r0, r4
 5846 09b4 FEFFFFEB 		bl	_ZN11flatbuffers17FlatBufferBuilder11StartVectorEjj.constprop.148
 5847 09b8 000055E3 		cmp	r5, #0
 5848 09bc 2C00000A 		beq	.L1121
 5849 09c0 24209DE5 		ldr	r2, [sp, #36]
 5850 09c4 40308DE2 		add	r3, sp, #64
 5851 09c8 1C509DE5 		ldr	r5, [sp, #28]
 5852 09cc 0490A0E3 		mov	r9, #4
 5853 09d0 0060A0E3 		mov	r6, #0
 5854 09d4 027183E0 		add	r7, r3, r2, lsl #2
 5855              	.L1129:
 5856 09d8 041017E4 		ldr	r1, [r7], #-4
 5857 09dc 0400A0E1 		mov	r0, r4
 5858 09e0 FEFFFFEB 		bl	_ZN11flatbuffers17FlatBufferBuilder7ReferToEm
 5859 09e4 283094E5 		ldr	r3, [r4, #40]
 5860 09e8 00A0A0E1 		mov	r10, r0
 5861 09ec 188094E5 		ldr	r8, [r4, #24]
 5862 09f0 0400A0E1 		mov	r0, r4
 5863 09f4 142094E5 		ldr	r2, [r4, #20]
 5864 09f8 015045E2 		sub	r5, r5, #1
 5865 09fc 030053E3 		cmp	r3, #3
 5866 0a00 103094E5 		ldr	r3, [r4, #16]
 5867 0a04 28908495 		strls	r9, [r4, #40]
 5868 0a08 028048E0 		sub	r8, r8, r2
 5869 0a0c 038048E0 		sub	r8, r8, r3
 5870 0a10 038008E2 		and	r8, r8, #3
 5871 0a14 0810A0E1 		mov	r1, r8
 5872 0a18 FEFFFFEB 		bl	_ZN11flatbuffers15vector_downward12ensure_spaceEj
 5873 0a1c 183094E5 		ldr	r3, [r4, #24]
 5874 0a20 000058E3 		cmp	r8, #0
 5875 0a24 000043E0 		sub	r0, r3, r0
 5876 0a28 180084E5 		str	r0, [r4, #24]
 5877 0a2c 0700000A 		beq	.L1128
 5878 0a30 010058E3 		cmp	r8, #1
 5879 0a34 0060C0E5 		strb	r6, [r0]
 5880 0a38 0400000A 		beq	.L1128
 5881 0a3c 183094E5 		ldr	r3, [r4, #24]
 5882 0a40 020058E3 		cmp	r8, #2
 5883 0a44 0160C3E5 		strb	r6, [r3, #1]
 5884 0a48 18309415 		ldrne	r3, [r4, #24]
 5885 0a4c 0260C315 		strbne	r6, [r3, #2]
 5886              	.L1128:
 5887 0a50 0410A0E3 		mov	r1, #4
 5888 0a54 0400A0E1 		mov	r0, r4
 5889 0a58 FEFFFFEB 		bl	_ZN11flatbuffers15vector_downward12ensure_spaceEj
 5890 0a5c 183094E5 		ldr	r3, [r4, #24]
 5891 0a60 000055E3 		cmp	r5, #0
 5892 0a64 000043E0 		sub	r0, r3, r0
 5893 0a68 180084E5 		str	r0, [r4, #24]
 5894 0a6c 00A080E5 		str	r10, [r0]
 5895 0a70 D8FFFF1A 		bne	.L1129
 5896              	.L1121:
 5897 0a74 1C109DE5 		ldr	r1, [sp, #28]
 5898 0a78 0400A0E1 		mov	r0, r4
 5899 0a7c FEFFFFEB 		bl	_ZN11flatbuffers17FlatBufferBuilder9EndVectorEj
 5900 0a80 20309DE5 		ldr	r3, [sp, #32]
 5901 0a84 00C0A0E3 		mov	ip, #0
 5902 0a88 04008DE5 		str	r0, [sp, #4]
 5903 0a8c 0C10A0E1 		mov	r1, ip
 5904 0a90 0B20A0E1 		mov	r2, fp
 5905 0a94 0400A0E1 		mov	r0, r4
 5906 0a98 00308DE5 		str	r3, [sp]
 5907 0a9c 10C08DE5 		str	ip, [sp, #16]
 5908 0aa0 28309DE5 		ldr	r3, [sp, #40]
 5909 0aa4 0CC08DE5 		str	ip, [sp, #12]
 5910 0aa8 08C08DE5 		str	ip, [sp, #8]
 5911 0aac FEFFFFEB 		bl	_ZN6tflite11CreateModelERN11flatbuffers17FlatBufferBuilderEmNS0_6OffsetINS0_6VectorINS3_INS_12O
 5912 0ab0 0010A0E1 		mov	r1, r0
 5913 0ab4 67FFFFEA 		b	.L1114
 5914              	.L1299:
 5915 0ab8 18309DE5 		ldr	r3, [sp, #24]
 5916 0abc 0370A0E1 		mov	r7, r3
 5917 0ac0 18A293E5 		ldr	r10, [r3, #536]
 5918 0ac4 FCB097E4 		ldr	fp, [r7], #252
 5919 0ac8 0A10A0E1 		mov	r1, r10
 5920 0acc 0B00A0E1 		mov	r0, fp
 5921 0ad0 FEFFFFEB 		bl	_ZN11flatbuffers17FlatBufferBuilder11StartVectorEjj.constprop.148
 5922 0ad4 00005AE3 		cmp	r10, #0
 5923 0ad8 9C408DE5 		str	r4, [sp, #156]
 5924 0adc 76FDFF1A 		bne	.L1133
 5925 0ae0 BDFDFFEA 		b	.L1075
 5926              	.L1304:
 5927 0ae4 0710A0E1 		mov	r1, r7
 5928 0ae8 0500A0E1 		mov	r0, r5
 5929 0aec FEFFFFEB 		bl	_ZN11flatbuffers15vector_downward12ensure_spaceEj
 5930 0af0 183095E5 		ldr	r3, [r5, #24]
 5931 0af4 0720A0E1 		mov	r2, r7
 5932 0af8 0610A0E1 		mov	r1, r6
 5933 0afc 000043E0 		sub	r0, r3, r0
 5934 0b00 180085E5 		str	r0, [r5, #24]
 5935 0b04 FEFFFFEB 		bl	memcpy
 5936 0b08 D1FDFFEA 		b	.L1088
 5937              	.L1303:
 5938 0b0c 0610A0E1 		mov	r1, r6
 5939 0b10 0400A0E1 		mov	r0, r4
 5940 0b14 FEFFFFEB 		bl	_ZN11flatbuffers15vector_downward12ensure_spaceEj
 5941 0b18 183094E5 		ldr	r3, [r4, #24]
 5942 0b1c 0620A0E1 		mov	r2, r6
 5943 0b20 0510A0E1 		mov	r1, r5
 5944 0b24 000043E0 		sub	r0, r3, r0
 5945 0b28 180084E5 		str	r0, [r4, #24]
 5946 0b2c FEFFFFEB 		bl	memcpy
 5947 0b30 B8FDFFEA 		b	.L1085
 5948              	.L1302:
 5949 0b34 0310A0E1 		mov	r1, r3
 5950 0b38 0400A0E1 		mov	r0, r4
 5951 0b3c FEFFFFEB 		bl	_ZN11flatbuffers17FlatBufferBuilder9EndVectorEj
 5952 0b40 2C008DE5 		str	r0, [sp, #44]
 5953 0b44 B7FDFFEA 		b	.L1084
 5954              	.L1301:
 5955 0b48 0A10A0E1 		mov	r1, r10
 5956 0b4c 0B00A0E1 		mov	r0, fp
 5957 0b50 FEFFFFEB 		bl	_ZN11flatbuffers17FlatBufferBuilder9EndVectorEj
 5958 0b54 18309DE5 		ldr	r3, [sp, #24]
 5959 0b58 20008DE5 		str	r0, [sp, #32]
 5960 0b5c 9C109DE5 		ldr	r1, [sp, #156]
 5961 0b60 004093E5 		ldr	r4, [r3]
 5962 0b64 30509DE5 		ldr	r5, [sp, #48]
 5963 0b68 0400A0E1 		mov	r0, r4
 5964 0b6c FEFFFFEB 		bl	_ZN11flatbuffers17FlatBufferBuilder11StartVectorEjj.constprop.148
 5965 0b70 9C309DE5 		ldr	r3, [sp, #156]
 5966 0b74 A5FDFFEA 		b	.L1083
 5967              	.L1079:
 5968 0b78 003000E3 		movw	r3, #:lower16:.LC25
 5969 0b7c 002000E3 		movw	r2, #:lower16:.LANCHOR13
 5970 0b80 000000E3 		movw	r0, #:lower16:.LC19
 5971 0b84 003040E3 		movt	r3, #:upper16:.LC25
 5972 0b88 002040E3 		movt	r2, #:upper16:.LANCHOR13
 5973 0b8c 000040E3 		movt	r0, #:upper16:.LC19
 5974 0b90 3B1500E3 		movw	r1, #1339
 5975 0b94 FEFFFFEB 		bl	__assert_func
 5976              	.L1307:
 5977 0b98 FEFFFFEB 		bl	_ZNK11flatbuffers15vector_downward4dataEv.isra.9.part.10
 5978              	.L1306:
 5979 0b9c 003000E3 		movw	r3, #:lower16:.LC34
 5980 0ba0 002000E3 		movw	r2, #:lower16:.LANCHOR18
 5981 0ba4 000000E3 		movw	r0, #:lower16:.LC19
 5982 0ba8 003040E3 		movt	r3, #:upper16:.LC34
 5983 0bac 002040E3 		movt	r2, #:upper16:.LANCHOR18
 5984 0bb0 000040E3 		movt	r0, #:upper16:.LC19
 5985 0bb4 D71400E3 		movw	r1, #1239
 5986 0bb8 FEFFFFEB 		bl	__assert_func
 5987              	.L1300:
 5988 0bbc FEFFFFEB 		bl	abort
 5989              		.fnend
 5991              		.section	.text._ZN6tflite7testing12_GLOBAL__N_126BuildSimpleModelWithBranchEv,"ax",%progbits
 5992              		.align	2
 5993              		.syntax unified
 5994              		.arm
 5995              		.fpu neon
 5997              	_ZN6tflite7testing12_GLOBAL__N_126BuildSimpleModelWithBranchEv:
 5998              		.fnstart
 5999              	.LFB7063:
 6000              		@ args = 0, pretend = 0, frame = 656
 6001              		@ frame_needed = 0, uses_anonymous_args = 0
 6002 0000 F04F2DE9 		push	{r4, r5, r6, r7, r8, r9, r10, fp, lr}
 6003              		.save {r4, r5, r6, r7, r8, r9, r10, fp, lr}
 6004              		.pad #668
 6005 0004 A7DF4DE2 		sub	sp, sp, #668
 6006 0008 FEFFFFEB 		bl	_ZN6tflite7testing12_GLOBAL__N_115BuilderInstanceEv
 6007 000c 001000E3 		movw	r1, #:lower16:.LC35
 6008 0010 0040A0E3 		mov	r4, #0
 6009 0014 5000C0F2 		vmov.i32	q8, #0  @ v4si
 6010 0018 001040E3 		movt	r1, #:upper16:.LC35
 6011 001c 2020A0E3 		mov	r2, #32
 6012 0020 78008DE5 		str	r0, [sp, #120]
 6013 0024 7C408DE5 		str	r4, [sp, #124]
 6014 0028 0150A0E3 		mov	r5, #1
 6015 002c 220BCDED 		vstr	d16, [sp, #136]
 6016 0030 241BCDED 		vstr	d17, [sp, #144]
 6017 0034 0360A0E3 		mov	r6, #3
 6018 0038 80408DE5 		str	r4, [sp, #128]
 6019 003c A67F8DE2 		add	r7, sp, #664
 6020 0040 2A0BCDED 		vstr	d16, [sp, #168]
 6021 0044 2C1BCDED 		vstr	d17, [sp, #176]
 6022 0048 84408DE5 		str	r4, [sp, #132]
 6023 004c 2E0BCDED 		vstr	d16, [sp, #184]
 6024 0050 301BCDED 		vstr	d17, [sp, #192]
 6025 0054 98408DE5 		str	r4, [sp, #152]
 6026 0058 320BCDED 		vstr	d16, [sp, #200]
 6027 005c 341BCDED 		vstr	d17, [sp, #208]
 6028 0060 9C408DE5 		str	r4, [sp, #156]
 6029 0064 360BCDED 		vstr	d16, [sp, #216]
 6030 0068 381BCDED 		vstr	d17, [sp, #224]
 6031 006c A0408DE5 		str	r4, [sp, #160]
 6032 0070 3A0BCDED 		vstr	d16, [sp, #232]
 6033 0074 3C1BCDED 		vstr	d17, [sp, #240]
 6034 0078 A4408DE5 		str	r4, [sp, #164]
 6035 007c 3E0BCDED 		vstr	d16, [sp, #248]
 6036 0080 401BCDED 		vstr	d17, [sp, #256]
 6037 0084 68418DE5 		str	r4, [sp, #360]
 6038 0088 420BCDED 		vstr	d16, [sp, #264]
 6039 008c 441BCDED 		vstr	d17, [sp, #272]
 6040 0090 6C418DE5 		str	r4, [sp, #364]
 6041 0094 460BCDED 		vstr	d16, [sp, #280]
 6042 0098 481BCDED 		vstr	d17, [sp, #288]
 6043 009c 70418DE5 		str	r4, [sp, #368]
 6044 00a0 4A0BCDED 		vstr	d16, [sp, #296]
 6045 00a4 4C1BCDED 		vstr	d17, [sp, #304]
 6046 00a8 74418DE5 		str	r4, [sp, #372]
 6047 00ac 4E0BCDED 		vstr	d16, [sp, #312]
 6048 00b0 501BCDED 		vstr	d17, [sp, #320]
 6049 00b4 78418DE5 		str	r4, [sp, #376]
 6050 00b8 520BCDED 		vstr	d16, [sp, #328]
 6051 00bc 541BCDED 		vstr	d17, [sp, #336]
 6052 00c0 7C418DE5 		str	r4, [sp, #380]
 6053 00c4 560BCDED 		vstr	d16, [sp, #344]
 6054 00c8 581BCDED 		vstr	d17, [sp, #352]
 6055 00cc 600BCDED 		vstr	d16, [sp, #384]
 6056 00d0 621BCDED 		vstr	d17, [sp, #392]
 6057 00d4 640BCDED 		vstr	d16, [sp, #400]
 6058 00d8 661BCDED 		vstr	d17, [sp, #408]
 6059 00dc 680BCDED 		vstr	d16, [sp, #416]
 6060 00e0 6A1BCDED 		vstr	d17, [sp, #424]
 6061 00e4 6C0BCDED 		vstr	d16, [sp, #432]
 6062 00e8 6E1BCDED 		vstr	d17, [sp, #440]
 6063 00ec 700BCDED 		vstr	d16, [sp, #448]
 6064 00f0 721BCDED 		vstr	d17, [sp, #456]
 6065 00f4 740BCDED 		vstr	d16, [sp, #464]
 6066 00f8 761BCDED 		vstr	d17, [sp, #472]
 6067 00fc 30428DE5 		str	r4, [sp, #560]
 6068 0100 780BCDED 		vstr	d16, [sp, #480]
 6069 0104 7A1BCDED 		vstr	d17, [sp, #488]
 6070 0108 34428DE5 		str	r4, [sp, #564]
 6071 010c 7C0BCDED 		vstr	d16, [sp, #496]
 6072 0110 7E1BCDED 		vstr	d17, [sp, #504]
 6073 0114 38428DE5 		str	r4, [sp, #568]
 6074 0118 800BCDED 		vstr	d16, [sp, #512]
 6075 011c 821BCDED 		vstr	d17, [sp, #520]
 6076 0120 3C428DE5 		str	r4, [sp, #572]
 6077 0124 840BCDED 		vstr	d16, [sp, #528]
 6078 0128 861BCDED 		vstr	d17, [sp, #536]
 6079 012c 40428DE5 		str	r4, [sp, #576]
 6080 0130 880BCDED 		vstr	d16, [sp, #544]
 6081 0134 8A1BCDED 		vstr	d17, [sp, #552]
 6082 0138 44428DE5 		str	r4, [sp, #580]
 6083 013c 920BCDED 		vstr	d16, [sp, #584]
 6084 0140 941BCDED 		vstr	d17, [sp, #592]
 6085 0144 58428DE5 		str	r4, [sp, #600]
 6086 0148 9C0BCDED 		vstr	d16, [sp, #624]
 6087 014c 9E1BCDED 		vstr	d17, [sp, #632]
 6088 0150 5C428DE5 		str	r4, [sp, #604]
 6089 0154 60428DE5 		str	r4, [sp, #608]
 6090 0158 64428DE5 		str	r4, [sp, #612]
 6091 015c 68428DE5 		str	r4, [sp, #616]
 6092 0160 6C428DE5 		str	r4, [sp, #620]
 6093 0164 80428DE5 		str	r4, [sp, #640]
 6094 0168 84428DE5 		str	r4, [sp, #644]
 6095 016c 88428DE5 		str	r4, [sp, #648]
 6096 0170 8C428DE5 		str	r4, [sp, #652]
 6097 0174 90428DE5 		str	r4, [sp, #656]
 6098 0178 FEFFFFEB 		bl	_ZN6tflite24CreateOperatorCodeDirectERN11flatbuffers17FlatBufferBuilderEaPKclNS_15BuiltinOperat
 6099 017c A4809DE5 		ldr	r8, [sp, #164]
 6100 0180 003000E3 		movw	r3, #:lower16:.LANCHOR19
 6101 0184 003040E3 		movt	r3, #:upper16:.LANCHOR19
 6102 0188 58208DE2 		add	r2, sp, #88
 6103 018c 58308DE5 		str	r3, [sp, #88]
 6104 0190 5C608DE5 		str	r6, [sp, #92]
 6105 0194 053088E0 		add	r3, r8, r5
 6106 0198 7C008DE5 		str	r0, [sp, #124]
 6107 019c 78008DE2 		add	r0, sp, #120
 6108 01a0 060092E8 		ldm	r2, {r1, r2}
 6109 01a4 A4308DE5 		str	r3, [sp, #164]
 6110 01a8 FEFFFFEB 		bl	_ZN6tflite7testing12_GLOBAL__N_112ModelBuilder13AddTensorImplENS_10TensorTypeEbSt16initializer_
 6111 01ac 003000E3 		movw	r3, #:lower16:.LANCHOR20
 6112 01b0 60208DE2 		add	r2, sp, #96
 6113 01b4 003040E3 		movt	r3, #:upper16:.LANCHOR20
 6114 01b8 0090A0E1 		mov	r9, r0
 6115 01bc 64608DE5 		str	r6, [sp, #100]
 6116 01c0 78008DE2 		add	r0, sp, #120
 6117 01c4 60308DE5 		str	r3, [sp, #96]
 6118 01c8 060092E8 		ldm	r2, {r1, r2}
 6119 01cc FEFFFFEB 		bl	_ZN6tflite7testing12_GLOBAL__N_112ModelBuilder13AddTensorImplENS_10TensorTypeEbSt16initializer_
 6120 01d0 003000E3 		movw	r3, #:lower16:.LANCHOR21
 6121 01d4 68208DE2 		add	r2, sp, #104
