   1              		.cpu cortex-a9
   2              		.eabi_attribute 28, 1
   3              		.eabi_attribute 20, 1
   4              		.eabi_attribute 21, 1
   5              		.eabi_attribute 23, 3
   6              		.eabi_attribute 24, 1
   7              		.eabi_attribute 25, 1
   8              		.eabi_attribute 26, 1
   9              		.eabi_attribute 30, 2
  10              		.eabi_attribute 34, 0
  11              		.eabi_attribute 18, 4
  12              		.file	"test_helpers.cc"
  13              		.section	.text._ZN6tflite7testing12_GLOBAL__N_114StackAllocator10deallocateEPhj,"ax",%progbits
  14              		.align	2
  15              		.syntax unified
  16              		.arm
  17              		.fpu neon
  19              	_ZN6tflite7testing12_GLOBAL__N_114StackAllocator10deallocateEPhj:
  20              		.fnstart
  21              	.LFB7047:
  22              		@ args = 0, pretend = 0, frame = 0
  23              		@ frame_needed = 0, uses_anonymous_args = 0
  24              		@ link register save eliminated.
  25 0000 1EFF2FE1 		bx	lr
  26              		.cantunwind
  27              		.fnend
  29              		.section	.text._ZN6tflite7testing10MockCustom4FreeEP13TfLiteContextPv,"ax",%progbits
  30              		.align	2
  31              		.global	_ZN6tflite7testing10MockCustom4FreeEP13TfLiteContextPv
  32              		.syntax unified
  33              		.arm
  34              		.fpu neon
  36              	_ZN6tflite7testing10MockCustom4FreeEP13TfLiteContextPv:
  37              		.fnstart
  38              	.LFB7078:
  39              		@ args = 0, pretend = 0, frame = 0
  40              		@ frame_needed = 0, uses_anonymous_args = 0
  41              		@ link register save eliminated.
  42 0000 003000E3 		movw	r3, #:lower16:.LANCHOR0
  43 0004 0120A0E3 		mov	r2, #1
  44 0008 003040E3 		movt	r3, #:upper16:.LANCHOR0
  45 000c 0020C3E5 		strb	r2, [r3]
  46 0010 1EFF2FE1 		bx	lr
  47              		.cantunwind
  48              		.fnend
  50              		.section	.text._ZN6tflite7testing14MultipleInputs4FreeEP13TfLiteContextPv,"ax",%progbits
  51              		.align	2
  52              		.global	_ZN6tflite7testing14MultipleInputs4FreeEP13TfLiteContextPv
  53              		.syntax unified
  54              		.arm
  55              		.fpu neon
  57              	_ZN6tflite7testing14MultipleInputs4FreeEP13TfLiteContextPv:
  58              		.fnstart
  59              	.LFB7084:
  60              		@ args = 0, pretend = 0, frame = 0
  61              		@ frame_needed = 0, uses_anonymous_args = 0
  62              		@ link register save eliminated.
  63 0000 003000E3 		movw	r3, #:lower16:.LANCHOR1
  64 0004 0120A0E3 		mov	r2, #1
  65 0008 003040E3 		movt	r3, #:upper16:.LANCHOR1
  66 000c 0020C3E5 		strb	r2, [r3]
  67 0010 1EFF2FE1 		bx	lr
  68              		.cantunwind
  69              		.fnend
  71              		.section	.text._ZN6tflite7testing14MultipleInputs7PrepareEP13TfLiteContextP10TfLiteNode,"ax",%prog
  72              		.align	2
  73              		.global	_ZN6tflite7testing14MultipleInputs7PrepareEP13TfLiteContextP10TfLiteNode
  74              		.syntax unified
  75              		.arm
  76              		.fpu neon
  78              	_ZN6tflite7testing14MultipleInputs7PrepareEP13TfLiteContextP10TfLiteNode:
  79              		.fnstart
  80              	.LFB7085:
  81              		@ args = 0, pretend = 0, frame = 0
  82              		@ frame_needed = 0, uses_anonymous_args = 0
  83              		@ link register save eliminated.
  84 0000 0000A0E3 		mov	r0, #0
  85 0004 1EFF2FE1 		bx	lr
  86              		.cantunwind
  87              		.fnend
  89              		.section	.text._ZN6tflite7testing12_GLOBAL__N_114StackAllocatorD2Ev,"ax",%progbits
  90              		.align	2
  91              		.syntax unified
  92              		.arm
  93              		.fpu neon
  95              	_ZN6tflite7testing12_GLOBAL__N_114StackAllocatorD2Ev:
  96              		.fnstart
  97              	.LFB11658:
  98              		@ args = 0, pretend = 0, frame = 0
  99              		@ frame_needed = 0, uses_anonymous_args = 0
 100              		@ link register save eliminated.
 101 0000 1EFF2FE1 		bx	lr
 102              		.cantunwind
 103              		.fnend
 105              		.set	_ZN6tflite7testing12_GLOBAL__N_114StackAllocatorD1Ev,_ZN6tflite7testing12_GLOBAL__N_114StackA
 106              		.section	.text._ZN11flatbuffers16DefaultAllocatorD2Ev,"axG",%progbits,_ZN11flatbuffers16DefaultAll
 107              		.align	2
 108              		.weak	_ZN11flatbuffers16DefaultAllocatorD2Ev
 109              		.syntax unified
 110              		.arm
 111              		.fpu neon
 113              	_ZN11flatbuffers16DefaultAllocatorD2Ev:
 114              		.fnstart
 115              	.LFB11666:
 116              		@ args = 0, pretend = 0, frame = 0
 117              		@ frame_needed = 0, uses_anonymous_args = 0
 118              		@ link register save eliminated.
 119 0000 1EFF2FE1 		bx	lr
 120              		.cantunwind
 121              		.fnend
 123              		.weak	_ZN11flatbuffers16DefaultAllocatorD1Ev
 124              		.set	_ZN11flatbuffers16DefaultAllocatorD1Ev,_ZN11flatbuffers16DefaultAllocatorD2Ev
 125              		.section	.text._ZN6tflite7testing16SimpleStatefulOp4InitEP13TfLiteContextPKcj,"ax",%progbits
 126              		.align	2
 127              		.global	_ZN6tflite7testing16SimpleStatefulOp4InitEP13TfLiteContextPKcj
 128              		.syntax unified
 129              		.arm
 130              		.fpu neon
 132              	_ZN6tflite7testing16SimpleStatefulOp4InitEP13TfLiteContextPKcj:
 133              		.fnstart
 134              	.LFB7072:
 135              		@ args = 0, pretend = 0, frame = 0
 136              		@ frame_needed = 0, uses_anonymous_args = 0
 137 0000 3C2090E5 		ldr	r2, [r0, #60]
 138 0004 10402DE9 		push	{r4, lr}
 139              		.save {r4, lr}
 140 0008 000052E3 		cmp	r2, #0
 141 000c 0B00001A 		bne	.L9
 142 0010 442090E5 		ldr	r2, [r0, #68]
 143 0014 000052E3 		cmp	r2, #0
 144 0018 0800001A 		bne	.L9
 145 001c 404090E5 		ldr	r4, [r0, #64]
 146 0020 000054E3 		cmp	r4, #0
 147 0024 0500001A 		bne	.L9
 148 0028 383090E5 		ldr	r3, [r0, #56]
 149 002c 0810A0E3 		mov	r1, #8
 150 0030 33FF2FE1 		blx	r3
 151 0034 004080E5 		str	r4, [r0]
 152 0038 044080E5 		str	r4, [r0, #4]
 153 003c 1080BDE8 		pop	{r4, pc}
 154              	.L9:
 155 0040 FEFFFFEB 		bl	abort
 156              		.fnend
 158              		.section	.text._ZN6tflite7testing10MockCustom4InitEP13TfLiteContextPKcj,"ax",%progbits
 159              		.align	2
 160              		.global	_ZN6tflite7testing10MockCustom4InitEP13TfLiteContextPKcj
 161              		.syntax unified
 162              		.arm
 163              		.fpu neon
 165              	_ZN6tflite7testing10MockCustom4InitEP13TfLiteContextPKcj:
 166              		.fnstart
 167              	.LFB7077:
 168              		@ args = 0, pretend = 0, frame = 0
 169              		@ frame_needed = 0, uses_anonymous_args = 0
 170 0000 203090E5 		ldr	r3, [r0, #32]
 171 0004 000053E3 		cmp	r3, #0
 172 0008 0400001A 		bne	.L17
 173 000c 002000E3 		movw	r2, #:lower16:.LANCHOR0
 174 0010 0300A0E1 		mov	r0, r3
 175 0014 002040E3 		movt	r2, #:upper16:.LANCHOR0
 176 0018 0030C2E5 		strb	r3, [r2]
 177 001c 1EFF2FE1 		bx	lr
 178              	.L17:
 179 0020 10402DE9 		push	{r4, lr}
 180              		.save {r4, lr}
 181 0024 FEFFFFEB 		bl	abort
 182              		.fnend
 184              		.section	.text._ZN6tflite7testing14MultipleInputs4InitEP13TfLiteContextPKcj,"ax",%progbits
 185              		.align	2
 186              		.global	_ZN6tflite7testing14MultipleInputs4InitEP13TfLiteContextPKcj
 187              		.syntax unified
 188              		.arm
 189              		.fpu neon
 191              	_ZN6tflite7testing14MultipleInputs4InitEP13TfLiteContextPKcj:
 192              		.fnstart
 193              	.LFB7083:
 194              		@ args = 0, pretend = 0, frame = 0
 195              		@ frame_needed = 0, uses_anonymous_args = 0
 196 0000 203090E5 		ldr	r3, [r0, #32]
 197 0004 000053E3 		cmp	r3, #0
 198 0008 0400001A 		bne	.L23
 199 000c 002000E3 		movw	r2, #:lower16:.LANCHOR1
 200 0010 0300A0E1 		mov	r0, r3
 201 0014 002040E3 		movt	r2, #:upper16:.LANCHOR1
 202 0018 0030C2E5 		strb	r3, [r2]
 203 001c 1EFF2FE1 		bx	lr
 204              	.L23:
 205 0020 10402DE9 		push	{r4, lr}
 206              		.save {r4, lr}
 207 0024 FEFFFFEB 		bl	abort
 208              		.fnend
 210              		.section	.text._ZN6tflite7testing12_GLOBAL__N_114StackAllocator8allocateEj,"ax",%progbits
 211              		.align	2
 212              		.syntax unified
 213              		.arm
 214              		.fpu neon
 216              	_ZN6tflite7testing12_GLOBAL__N_114StackAllocator8allocateEj:
 217              		.fnstart
 218              	.LFB7046:
 219              		@ args = 0, pretend = 0, frame = 0
 220              		@ frame_needed = 0, uses_anonymous_args = 0
 221 0000 022A80E2 		add	r2, r0, #8192
 222 0004 083092E5 		ldr	r3, [r2, #8]
 223 0008 033081E0 		add	r3, r1, r3
 224 000c 020A53E3 		cmp	r3, #8192
 225 0010 0400008A 		bhi	.L29
 226 0014 040092E5 		ldr	r0, [r2, #4]
 227 0018 083082E5 		str	r3, [r2, #8]
 228 001c 011080E0 		add	r1, r0, r1
 229 0020 041082E5 		str	r1, [r2, #4]
 230 0024 1EFF2FE1 		bx	lr
 231              	.L29:
 232 0028 10402DE9 		push	{r4, lr}
 233              		.save {r4, lr}
 234 002c FEFFFFEB 		bl	abort
 235              		.fnend
 237              		.section	.text._ZN6tflite7testing16SimpleStatefulOp7PrepareEP13TfLiteContextP10TfLiteNode,"ax",%pr
 238              		.align	2
 239              		.global	_ZN6tflite7testing16SimpleStatefulOp7PrepareEP13TfLiteContextP10TfLiteNode
 240              		.syntax unified
 241              		.arm
 242              		.fpu neon
 244              	_ZN6tflite7testing16SimpleStatefulOp7PrepareEP13TfLiteContextP10TfLiteNode:
 245              		.fnstart
 246              	.LFB7073:
 247              		@ args = 0, pretend = 0, frame = 32
 248              		@ frame_needed = 0, uses_anonymous_args = 0
 249 0000 10C091E5 		ldr	ip, [r1, #16]
 250 0004 0020A0E3 		mov	r2, #0
 251 0008 F04F2DE9 		push	{r4, r5, r6, r7, r8, r9, r10, fp, lr}
 252              		.save {r4, r5, r6, r7, r8, r9, r10, fp, lr}
 253              		.pad #36
 254 000c 24D04DE2 		sub	sp, sp, #36
 255 0010 1C308DE2 		add	r3, sp, #28
 256 0014 04008DE5 		str	r0, [sp, #4]
 257 0018 08C08DE5 		str	ip, [sp, #8]
 258 001c FEFFFFEB 		bl	_ZN6tflite12GetInputSafeEPK13TfLiteContextPK10TfLiteNodeiPPK12TfLiteTensor
 259 0020 000050E3 		cmp	r0, #0
 260 0024 0400001A 		bne	.L48
 261 0028 1C309DE5 		ldr	r3, [sp, #28]
 262 002c 0020D3E5 		ldrb	r2, [r3]	@ zero_extendqisi2
 263 0030 030052E3 		cmp	r2, #3
 264 0034 0200000A 		beq	.L55
 265              	.L47:
 266 0038 0100A0E3 		mov	r0, #1
 267              	.L48:
 268 003c 24D08DE2 		add	sp, sp, #36
 269              		@ sp needed
 270 0040 F08FBDE8 		pop	{r4, r5, r6, r7, r8, r9, r10, fp, pc}
 271              	.L55:
 272 0044 083093E5 		ldr	r3, [r3, #8]
 273 0048 00B093E5 		ldr	fp, [r3]
 274 004c 0320A0E1 		mov	r2, r3
 275 0050 0C308DE5 		str	r3, [sp, #12]
 276 0054 00005BE3 		cmp	fp, #0
 277 0058 BA0000DA 		ble	.L32
 278 005c 08005BE3 		cmp	fp, #8
 279 0060 B40000DA 		ble	.L45
 280 0064 09304BE2 		sub	r3, fp, #9
 281 0068 0080A0E1 		mov	r8, r0
 282 006c 0730C3E3 		bic	r3, r3, #7
 283 0070 A4E082E2 		add	lr, r2, #164
 284 0074 083083E2 		add	r3, r3, #8
 285 0078 0140A0E3 		mov	r4, #1
 286 007c 0050A0E3 		mov	r5, #0
 287 0080 0390A0E1 		mov	r9, r3
 288 0084 10B08DE5 		str	fp, [sp, #16]
 289              	.L34:
 290 0088 A0201EE5 		ldr	r2, [lr, #-160]
 291 008c 088088E2 		add	r8, r8, #8
 292 0090 9CC01EE5 		ldr	ip, [lr, #-156]
 293 0094 090058E1 		cmp	r8, r9
 294 0098 98601EE5 		ldr	r6, [lr, #-152]
 295 009c 94001EE5 		ldr	r0, [lr, #-148]
 296 00a0 920501E0 		mul	r1, r2, r5
 297 00a4 C2BFA0E1 		asr	fp, r2, #31
 298 00a8 00F0DEF5 		pld	[lr]
 299 00ac 20E08EE2 		add	lr, lr, #32
 300 00b0 922483E0 		umull	r2, r3, r2, r4
 301 00b4 941B21E0 		mla	r1, r4, fp, r1
 302 00b8 CCBFA0E1 		asr	fp, ip, #31
 303 00bc 9C4285E0 		umull	r4, r5, ip, r2
 304 00c0 033081E0 		add	r3, r1, r3
 305 00c4 B0101EE5 		ldr	r1, [lr, #-176]
 306 00c8 9C0307E0 		mul	r7, ip, r3
 307 00cc C63FA0E1 		asr	r3, r6, #31
 308 00d0 927B27E0 		mla	r7, r2, fp, r7
 309 00d4 AC201EE5 		ldr	r2, [lr, #-172]
 310 00d8 C0BFA0E1 		asr	fp, r0, #31
 311 00dc 055087E0 		add	r5, r7, r5
 312 00e0 96050CE0 		mul	ip, r6, r5
 313 00e4 C15FA0E1 		asr	r5, r1, #31
 314 00e8 966487E0 		umull	r6, r7, r6, r4
 315 00ec 94C32CE0 		mla	ip, r4, r3, ip
 316 00f0 A8301EE5 		ldr	r3, [lr, #-168]
 317 00f4 A4401EE5 		ldr	r4, [lr, #-164]
 318 00f8 03A0A0E1 		mov	r10, r3
 319 00fc 07708CE0 		add	r7, ip, r7
 320 0100 90070CE0 		mul	ip, r0, r7
 321 0104 96CB2CE0 		mla	ip, r6, fp, ip
 322 0108 906687E0 		umull	r6, r7, r0, r6
 323 010c C3BFA0E1 		asr	fp, r3, #31
 324 0110 07708CE0 		add	r7, ip, r7
 325 0114 91070CE0 		mul	ip, r1, r7
 326 0118 C27FA0E1 		asr	r7, r2, #31
 327 011c 910681E0 		umull	r0, r1, r1, r6
 328 0120 96C52CE0 		mla	ip, r6, r5, ip
 329 0124 01108CE0 		add	r1, ip, r1
 330 0128 92010CE0 		mul	ip, r2, r1
 331 012c 90C72CE0 		mla	ip, r0, r7, ip
 332 0130 920081E0 		umull	r0, r1, r2, r0
 333 0134 C47FA0E1 		asr	r7, r4, #31
 334 0138 01108CE0 		add	r1, ip, r1
 335 013c 930102E0 		mul	r2, r3, r1
 336 0140 902B22E0 		mla	r2, r0, fp, r2
 337 0144 930081E0 		umull	r0, r1, r3, r0
 338 0148 011082E0 		add	r1, r2, r1
 339 014c 940103E0 		mul	r3, r4, r1
 340 0150 944085E0 		umull	r4, r5, r4, r0
 341 0154 903720E0 		mla	r0, r0, r7, r3
 342 0158 055080E0 		add	r5, r0, r5
 343 015c C9FFFF1A 		bne	.L34
 344 0160 10B09DE5 		ldr	fp, [sp, #16]
 345 0164 0C309DE5 		ldr	r3, [sp, #12]
 346              	.L33:
 347 0168 018088E2 		add	r8, r8, #1
 348 016c 080183E0 		add	r0, r3, r8, lsl #2
 349              	.L36:
 350 0170 042090E4 		ldr	r2, [r0], #4
 351 0174 08005BE1 		cmp	fp, r8
 352 0178 018088E2 		add	r8, r8, #1
 353 017c C27FA0E1 		asr	r7, r2, #31
 354 0180 940703E0 		mul	r3, r4, r7
 355 0184 923523E0 		mla	r3, r2, r5, r3
 356 0188 944285E0 		umull	r4, r5, r4, r2
 357 018c 055083E0 		add	r5, r3, r5
 358 0190 F6FFFFCA 		bgt	.L36
 359 0194 053094E1 		orrs	r3, r4, r5
 360 0198 A6FFFF0A 		beq	.L47
 361 019c 04309DE5 		ldr	r3, [sp, #4]
 362 01a0 08005BE3 		cmp	fp, #8
 363 01a4 0180A0D3 		movle	r8, #1
 364 01a8 0090A0D3 		movle	r9, #0
 365 01ac 00A0A0D3 		movle	r10, #0
 366 01b0 403093E5 		ldr	r3, [r3, #64]
 367 01b4 10308DE5 		str	r3, [sp, #16]
 368 01b8 3F0000DA 		ble	.L40
 369 01bc 09304BE2 		sub	r3, fp, #9
 370 01c0 0C209DE5 		ldr	r2, [sp, #12]
 371 01c4 0730C3E3 		bic	r3, r3, #7
 372 01c8 14B08DE5 		str	fp, [sp, #20]
 373 01cc 083083E2 		add	r3, r3, #8
 374 01d0 0180A0E3 		mov	r8, #1
 375 01d4 A4E082E2 		add	lr, r2, #164
 376 01d8 0090A0E3 		mov	r9, #0
 377 01dc 00A0A0E3 		mov	r10, #0
 378 01e0 03B0A0E1 		mov	fp, r3
 379              	.L39:
 380 01e4 A0601EE5 		ldr	r6, [lr, #-160]
 381 01e8 08A08AE2 		add	r10, r10, #8
 382 01ec 9CC01EE5 		ldr	ip, [lr, #-156]
 383 01f0 0B005AE1 		cmp	r10, fp
 384 01f4 98401EE5 		ldr	r4, [lr, #-152]
 385 01f8 94001EE5 		ldr	r0, [lr, #-148]
 386 01fc 960905E0 		mul	r5, r6, r9
 387 0200 C61FA0E1 		asr	r1, r6, #31
 388 0204 CC7FA0E1 		asr	r7, ip, #31
 389 0208 00F0DEF5 		pld	[lr]
 390 020c 962883E0 		umull	r2, r3, r6, r8
 391 0210 20E08EE2 		add	lr, lr, #32
 392 0214 985125E0 		mla	r5, r8, r1, r5
 393 0218 B0101EE5 		ldr	r1, [lr, #-176]
 394 021c A4801EE5 		ldr	r8, [lr, #-164]
 395 0220 033085E0 		add	r3, r5, r3
 396 0224 9C0305E0 		mul	r5, ip, r3
 397 0228 C43FA0E1 		asr	r3, r4, #31
 398 022c 925725E0 		mla	r5, r2, r7, r5
 399 0230 9C6287E0 		umull	r6, r7, ip, r2
 400 0234 AC201EE5 		ldr	r2, [lr, #-172]
 401 0238 077085E0 		add	r7, r5, r7
 402 023c 94070CE0 		mul	ip, r4, r7
 403 0240 C07FA0E1 		asr	r7, r0, #31
 404 0244 944685E0 		umull	r4, r5, r4, r6
 405 0248 96C32CE0 		mla	ip, r6, r3, ip
 406 024c A8301EE5 		ldr	r3, [lr, #-168]
 407 0250 05508CE0 		add	r5, ip, r5
 408 0254 90050CE0 		mul	ip, r0, r5
 409 0258 94C72CE0 		mla	ip, r4, r7, ip
 410 025c 904485E0 		umull	r4, r5, r0, r4
 411 0260 C17FA0E1 		asr	r7, r1, #31
 412 0264 05508CE0 		add	r5, ip, r5
 413 0268 91050CE0 		mul	ip, r1, r5
 414 026c C25FA0E1 		asr	r5, r2, #31
 415 0270 910481E0 		umull	r0, r1, r1, r4
 416 0274 94C72CE0 		mla	ip, r4, r7, ip
 417 0278 C37FA0E1 		asr	r7, r3, #31
 418 027c 01108CE0 		add	r1, ip, r1
 419 0280 92010CE0 		mul	ip, r2, r1
 420 0284 90C52CE0 		mla	ip, r0, r5, ip
 421 0288 920081E0 		umull	r0, r1, r2, r0
 422 028c C85FA0E1 		asr	r5, r8, #31
 423 0290 01108CE0 		add	r1, ip, r1
 424 0294 930102E0 		mul	r2, r3, r1
 425 0298 902722E0 		mla	r2, r0, r7, r2
 426 029c 930081E0 		umull	r0, r1, r3, r0
 427 02a0 011082E0 		add	r1, r2, r1
 428 02a4 980103E0 		mul	r3, r8, r1
 429 02a8 988089E0 		umull	r8, r9, r8, r0
 430 02ac 903520E0 		mla	r0, r0, r5, r3
 431 02b0 099080E0 		add	r9, r0, r9
 432 02b4 CAFFFF1A 		bne	.L39
 433 02b8 14B09DE5 		ldr	fp, [sp, #20]
 434              	.L40:
 435 02bc 0C309DE5 		ldr	r3, [sp, #12]
 436 02c0 01A08AE2 		add	r10, r10, #1
 437 02c4 0A0183E0 		add	r0, r3, r10, lsl #2
 438              	.L38:
 439 02c8 042090E4 		ldr	r2, [r0], #4
 440 02cc 0B005AE1 		cmp	r10, fp
 441 02d0 01A08AE2 		add	r10, r10, #1
 442 02d4 C25FA0E1 		asr	r5, r2, #31
 443 02d8 980503E0 		mul	r3, r8, r5
 444 02dc 923923E0 		mla	r3, r2, r9, r3
 445 02e0 988289E0 		umull	r8, r9, r8, r2
 446 02e4 099083E0 		add	r9, r3, r9
 447 02e8 F6FFFFBA 		blt	.L38
 448 02ec 0810A0E1 		mov	r1, r8
 449              	.L41:
 450 02f0 08309DE5 		ldr	r3, [sp, #8]
 451 02f4 04009DE5 		ldr	r0, [sp, #4]
 452 02f8 042083E2 		add	r2, r3, #4
 453 02fc 10309DE5 		ldr	r3, [sp, #16]
 454 0300 33FF2FE1 		blx	r3
 455 0304 004050E2 		subs	r4, r0, #0
 456 0308 0400A011 		movne	r0, r4
 457 030c 4AFFFF1A 		bne	.L48
 458 0310 04009DE5 		ldr	r0, [sp, #4]
 459 0314 0410A0E3 		mov	r1, #4
 460 0318 383090E5 		ldr	r3, [r0, #56]
 461 031c 33FF2FE1 		blx	r3
 462 0320 08209DE5 		ldr	r2, [sp, #8]
 463 0324 0030A0E1 		mov	r3, r0
 464 0328 000082E5 		str	r0, [r2]
 465 032c 0400A0E1 		mov	r0, r4
 466 0330 004083E5 		str	r4, [r3]
 467 0334 40FFFFEA 		b	.L48
 468              	.L45:
 469 0338 0080A0E1 		mov	r8, r0
 470 033c 0140A0E3 		mov	r4, #1
 471 0340 0050A0E3 		mov	r5, #0
 472 0344 87FFFFEA 		b	.L33
 473              	.L32:
 474 0348 04309DE5 		ldr	r3, [sp, #4]
 475 034c 0110A0E3 		mov	r1, #1
 476 0350 403093E5 		ldr	r3, [r3, #64]
 477 0354 10308DE5 		str	r3, [sp, #16]
 478 0358 E4FFFFEA 		b	.L41
 479              		.fnend
 481              		.section	.text._ZN6tflite7testing10MockCustom6InvokeEP13TfLiteContextP10TfLiteNode,"ax",%progbits
 482              		.align	2
 483              		.global	_ZN6tflite7testing10MockCustom6InvokeEP13TfLiteContextP10TfLiteNode
 484              		.syntax unified
 485              		.arm
 486              		.fpu neon
 488              	_ZN6tflite7testing10MockCustom6InvokeEP13TfLiteContextP10TfLiteNode:
 489              		.fnstart
 490              	.LFB7080:
 491              		@ args = 0, pretend = 0, frame = 16
 492              		@ frame_needed = 0, uses_anonymous_args = 0
 493 0000 70402DE9 		push	{r4, r5, r6, lr}
 494              		.save {r4, r5, r6, lr}
 495              		.pad #16
 496 0004 10D04DE2 		sub	sp, sp, #16
 497 0008 04308DE2 		add	r3, sp, #4
 498 000c 0020A0E3 		mov	r2, #0
 499 0010 0040A0E1 		mov	r4, r0
 500 0014 0150A0E1 		mov	r5, r1
 501 0018 FEFFFFEB 		bl	_ZN6tflite12GetInputSafeEPK13TfLiteContextPK10TfLiteNodeiPPK12TfLiteTensor
 502 001c 000050E3 		cmp	r0, #0
 503 0020 0100000A 		beq	.L59
 504              	.L57:
 505 0024 10D08DE2 		add	sp, sp, #16
 506              		@ sp needed
 507 0028 7080BDE8 		pop	{r4, r5, r6, pc}
 508              	.L59:
 509 002c 04C09DE5 		ldr	ip, [sp, #4]
 510 0030 08308DE2 		add	r3, sp, #8
 511 0034 0120A0E3 		mov	r2, #1
 512 0038 0510A0E1 		mov	r1, r5
 513 003c 0400A0E1 		mov	r0, r4
 514 0040 04609CE5 		ldr	r6, [ip, #4]
 515 0044 FEFFFFEB 		bl	_ZN6tflite12GetInputSafeEPK13TfLiteContextPK10TfLiteNodeiPPK12TfLiteTensor
 516 0048 000050E3 		cmp	r0, #0
 517 004c F4FFFF1A 		bne	.L57
 518 0050 08C09DE5 		ldr	ip, [sp, #8]
 519 0054 0020A0E1 		mov	r2, r0
 520 0058 0510A0E1 		mov	r1, r5
 521 005c 0400A0E1 		mov	r0, r4
 522 0060 0C308DE2 		add	r3, sp, #12
 523 0064 04409CE5 		ldr	r4, [ip, #4]
 524 0068 FEFFFFEB 		bl	_ZN6tflite13GetOutputSafeEPK13TfLiteContextPK10TfLiteNodeiPP12TfLiteTensor
 525 006c 000050E3 		cmp	r0, #0
 526 0070 EBFFFF1A 		bne	.L57
 527 0074 0C309DE5 		ldr	r3, [sp, #12]
 528 0078 042093E5 		ldr	r2, [r3, #4]
 529 007c 000082E5 		str	r0, [r2]
 530 0080 0010D4E5 		ldrb	r1, [r4]	@ zero_extendqisi2
 531 0084 003096E5 		ldr	r3, [r6]
 532 0088 013083E0 		add	r3, r3, r1
 533 008c 003082E5 		str	r3, [r2]
 534 0090 E3FFFFEA 		b	.L57
 535              		.fnend
 537              		.section	.text._ZN6tflite7testing14MultipleInputs6InvokeEP13TfLiteContextP10TfLiteNode,"ax",%progb
 538              		.align	2
 539              		.global	_ZN6tflite7testing14MultipleInputs6InvokeEP13TfLiteContextP10TfLiteNode
 540              		.syntax unified
 541              		.arm
 542              		.fpu neon
 544              	_ZN6tflite7testing14MultipleInputs6InvokeEP13TfLiteContextP10TfLiteNode:
 545              		.fnstart
 546              	.LFB7086:
 547              		@ args = 0, pretend = 0, frame = 16
 548              		@ frame_needed = 0, uses_anonymous_args = 0
 549 0000 F0402DE9 		push	{r4, r5, r6, r7, lr}
 550              		.save {r4, r5, r6, r7, lr}
 551              		.pad #20
 552 0004 14D04DE2 		sub	sp, sp, #20
 553 0008 0D30A0E1 		mov	r3, sp
 554 000c 0020A0E3 		mov	r2, #0
 555 0010 0040A0E1 		mov	r4, r0
 556 0014 0150A0E1 		mov	r5, r1
 557 0018 FEFFFFEB 		bl	_ZN6tflite12GetInputSafeEPK13TfLiteContextPK10TfLiteNodeiPPK12TfLiteTensor
 558 001c 000050E3 		cmp	r0, #0
 559 0020 0100000A 		beq	.L63
 560              	.L61:
 561 0024 14D08DE2 		add	sp, sp, #20
 562              		@ sp needed
 563 0028 F080BDE8 		pop	{r4, r5, r6, r7, pc}
 564              	.L63:
 565 002c 00C09DE5 		ldr	ip, [sp]
 566 0030 04308DE2 		add	r3, sp, #4
 567 0034 0120A0E3 		mov	r2, #1
 568 0038 0510A0E1 		mov	r1, r5
 569 003c 0400A0E1 		mov	r0, r4
 570 0040 04609CE5 		ldr	r6, [ip, #4]
 571 0044 FEFFFFEB 		bl	_ZN6tflite12GetInputSafeEPK13TfLiteContextPK10TfLiteNodeiPPK12TfLiteTensor
 572 0048 000050E3 		cmp	r0, #0
 573 004c F4FFFF1A 		bne	.L61
 574 0050 04C09DE5 		ldr	ip, [sp, #4]
 575 0054 08308DE2 		add	r3, sp, #8
 576 0058 0220A0E3 		mov	r2, #2
 577 005c 0510A0E1 		mov	r1, r5
 578 0060 0400A0E1 		mov	r0, r4
 579 0064 04709CE5 		ldr	r7, [ip, #4]
 580 0068 FEFFFFEB 		bl	_ZN6tflite12GetInputSafeEPK13TfLiteContextPK10TfLiteNodeiPPK12TfLiteTensor
 581 006c 000050E3 		cmp	r0, #0
 582 0070 EBFFFF1A 		bne	.L61
 583 0074 08C09DE5 		ldr	ip, [sp, #8]
 584 0078 0020A0E1 		mov	r2, r0
 585 007c 0510A0E1 		mov	r1, r5
 586 0080 0400A0E1 		mov	r0, r4
 587 0084 0C308DE2 		add	r3, sp, #12
 588 0088 04409CE5 		ldr	r4, [ip, #4]
 589 008c FEFFFFEB 		bl	_ZN6tflite13GetOutputSafeEPK13TfLiteContextPK10TfLiteNodeiPP12TfLiteTensor
 590 0090 000050E3 		cmp	r0, #0
 591 0094 E2FFFF1A 		bne	.L61
 592 0098 0C309DE5 		ldr	r3, [sp, #12]
 593 009c 042093E5 		ldr	r2, [r3, #4]
 594 00a0 000082E5 		str	r0, [r2]
 595 00a4 003096E5 		ldr	r3, [r6]
 596 00a8 00C097E5 		ldr	ip, [r7]
 597 00ac 001094E5 		ldr	r1, [r4]
 598 00b0 0C3083E0 		add	r3, r3, ip
 599 00b4 013083E0 		add	r3, r3, r1
 600 00b8 003082E5 		str	r3, [r2]
 601 00bc D8FFFFEA 		b	.L61
 602              		.fnend
 604              		.section	.text._ZN6tflite7testing16SimpleStatefulOp6InvokeEP13TfLiteContextP10TfLiteNode,"ax",%pro
 605              		.align	2
 606              		.global	_ZN6tflite7testing16SimpleStatefulOp6InvokeEP13TfLiteContextP10TfLiteNode
 607              		.syntax unified
 608              		.arm
 609              		.fpu neon
 611              	_ZN6tflite7testing16SimpleStatefulOp6InvokeEP13TfLiteContextP10TfLiteNode:
 612              		.fnstart
 613              	.LFB7074:
 614              		@ args = 0, pretend = 0, frame = 48
 615              		@ frame_needed = 0, uses_anonymous_args = 0
 616 0000 102091E5 		ldr	r2, [r1, #16]
 617 0004 F04F2DE9 		push	{r4, r5, r6, r7, r8, r9, r10, fp, lr}
 618              		.save {r4, r5, r6, r7, r8, r9, r10, fp, lr}
 619              		.pad #52
 620 0008 34D04DE2 		sub	sp, sp, #52
 621 000c 24308DE2 		add	r3, sp, #36
 622 0010 0C108DE5 		str	r1, [sp, #12]
 623 0014 02C0A0E1 		mov	ip, r2
 624 0018 00E09CE5 		ldr	lr, [ip]
 625 001c 10208DE5 		str	r2, [sp, #16]
 626 0020 0020A0E3 		mov	r2, #0
 627 0024 08008DE5 		str	r0, [sp, #8]
 628 0028 00C09EE5 		ldr	ip, [lr]
 629 002c 01C08CE2 		add	ip, ip, #1
 630 0030 00C08EE5 		str	ip, [lr]
 631 0034 FEFFFFEB 		bl	_ZN6tflite12GetInputSafeEPK13TfLiteContextPK10TfLiteNodeiPPK12TfLiteTensor
 632 0038 000050E3 		cmp	r0, #0
 633 003c F800001A 		bne	.L93
 634 0040 24309DE5 		ldr	r3, [sp, #36]
 635 0044 000053E3 		cmp	r3, #0
 636 0048 04209315 		ldrne	r2, [r3, #4]
 637 004c 14308D05 		streq	r3, [sp, #20]
 638 0050 083093E5 		ldr	r3, [r3, #8]
 639 0054 14208D15 		strne	r2, [sp, #20]
 640 0058 18308DE5 		str	r3, [sp, #24]
 641 005c 0320A0E1 		mov	r2, r3
 642 0060 003093E5 		ldr	r3, [r3]
 643 0064 000053E3 		cmp	r3, #0
 644 0068 1C308DE5 		str	r3, [sp, #28]
 645 006c FC0000DA 		ble	.L67
 646 0070 080053E3 		cmp	r3, #8
 647 0074 020100DA 		ble	.L90
 648 0078 093043E2 		sub	r3, r3, #9
 649 007c A4E082E2 		add	lr, r2, #164
 650 0080 0730C3E3 		bic	r3, r3, #7
 651 0084 01A0A0E3 		mov	r10, #1
 652 0088 00B0A0E3 		mov	fp, #0
 653 008c 0080A0E3 		mov	r8, #0
 654 0090 083083E2 		add	r3, r3, #8
 655 0094 04308DE5 		str	r3, [sp, #4]
 656              	.L69:
 657 0098 A0201EE5 		ldr	r2, [lr, #-160]
 658 009c 088088E2 		add	r8, r8, #8
 659 00a0 04309DE5 		ldr	r3, [sp, #4]
 660 00a4 9C401EE5 		ldr	r4, [lr, #-156]
 661 00a8 94001EE5 		ldr	r0, [lr, #-148]
 662 00ac 920B01E0 		mul	r1, r2, fp
 663 00b0 C27FA0E1 		asr	r7, r2, #31
 664 00b4 030058E1 		cmp	r8, r3
 665 00b8 00F0DEF5 		pld	[lr]
 666 00bc 922A83E0 		umull	r2, r3, r2, r10
 667 00c0 20E08EE2 		add	lr, lr, #32
 668 00c4 9A172AE0 		mla	r10, r10, r7, r1
 669 00c8 B8101EE5 		ldr	r1, [lr, #-184]
 670 00cc C47FA0E1 		asr	r7, r4, #31
 671 00d0 03308AE0 		add	r3, r10, r3
 672 00d4 A4A01EE5 		ldr	r10, [lr, #-164]
 673 00d8 94030CE0 		mul	ip, r4, r3
 674 00dc B0301EE5 		ldr	r3, [lr, #-176]
 675 00e0 944285E0 		umull	r4, r5, r4, r2
 676 00e4 92C72CE0 		mla	ip, r2, r7, ip
 677 00e8 AC201EE5 		ldr	r2, [lr, #-172]
 678 00ec C17FA0E1 		asr	r7, r1, #31
 679 00f0 05508CE0 		add	r5, ip, r5
 680 00f4 A8C01EE5 		ldr	ip, [lr, #-168]
 681 00f8 910509E0 		mul	r9, r1, r5
 682 00fc 949729E0 		mla	r9, r4, r7, r9
 683 0100 914485E0 		umull	r4, r5, r1, r4
 684 0104 C07FA0E1 		asr	r7, r0, #31
 685 0108 055089E0 		add	r5, r9, r5
 686 010c 900506E0 		mul	r6, r0, r5
 687 0110 C35FA0E1 		asr	r5, r3, #31
 688 0114 900481E0 		umull	r0, r1, r0, r4
 689 0118 946726E0 		mla	r6, r4, r7, r6
 690 011c C27FA0E1 		asr	r7, r2, #31
 691 0120 011086E0 		add	r1, r6, r1
 692 0124 930109E0 		mul	r9, r3, r1
 693 0128 909529E0 		mla	r9, r0, r5, r9
 694 012c 930081E0 		umull	r0, r1, r3, r0
 695 0130 CC5FA0E1 		asr	r5, ip, #31
 696 0134 011089E0 		add	r1, r9, r1
 697 0138 920104E0 		mul	r4, r2, r1
 698 013c CA1FA0E1 		asr	r1, r10, #31
 699 0140 922083E0 		umull	r2, r3, r2, r0
 700 0144 904724E0 		mla	r4, r0, r7, r4
 701 0148 033084E0 		add	r3, r4, r3
 702 014c 9C0300E0 		mul	r0, ip, r3
 703 0150 920520E0 		mla	r0, r2, r5, r0
 704 0154 9C2283E0 		umull	r2, r3, ip, r2
 705 0158 033080E0 		add	r3, r0, r3
 706 015c 9A030CE0 		mul	ip, r10, r3
 707 0160 9AA28BE0 		umull	r10, fp, r10, r2
 708 0164 92C122E0 		mla	r2, r2, r1, ip
 709 0168 0BB082E0 		add	fp, r2, fp
 710 016c C9FFFF1A 		bne	.L69
 711 0170 18309DE5 		ldr	r3, [sp, #24]
 712              	.L68:
 713 0174 018088E2 		add	r8, r8, #1
 714 0178 1C109DE5 		ldr	r1, [sp, #28]
 715 017c 080183E0 		add	r0, r3, r8, lsl #2
 716 0180 000000EA 		b	.L70
 717              	.L104:
 718 0184 018088E2 		add	r8, r8, #1
 719              	.L70:
 720 0188 042090E4 		ldr	r2, [r0], #4
 721 018c 080051E1 		cmp	r1, r8
 722 0190 C25FA0E1 		asr	r5, r2, #31
 723 0194 9A0503E0 		mul	r3, r10, r5
 724 0198 923B23E0 		mla	r3, r2, fp, r3
 725 019c 9AA28BE0 		umull	r10, fp, r10, r2
 726 01a0 0BB083E0 		add	fp, r3, fp
 727 01a4 F6FFFFCA 		bgt	.L104
 728 01a8 08009DE5 		ldr	r0, [sp, #8]
 729 01ac 0A50A0E1 		mov	r5, r10
 730 01b0 10209DE5 		ldr	r2, [sp, #16]
 731 01b4 443090E5 		ldr	r3, [r0, #68]
 732 01b8 041092E5 		ldr	r1, [r2, #4]
 733 01bc 33FF2FE1 		blx	r3
 734 01c0 00005AE3 		cmp	r10, #0
 735 01c4 0040A0E1 		mov	r4, r0
 736 01c8 790000DA 		ble	.L79
 737              	.L71:
 738 01cc 14109DE5 		ldr	r1, [sp, #20]
 739 01d0 103084E2 		add	r3, r4, #16
 740 01d4 102081E2 		add	r2, r1, #16
 741 01d8 020054E1 		cmp	r4, r2
 742 01dc 03005131 		cmpcc	r1, r3
 743 01e0 012084E1 		orr	r2, r4, r1
 744 01e4 0130A023 		movcs	r3, #1
 745 01e8 0030A033 		movcc	r3, #0
 746 01ec 0F0055E3 		cmp	r5, #15
 747 01f0 0030A093 		movls	r3, #0
 748 01f4 01300382 		andhi	r3, r3, #1
 749 01f8 0F0012E3 		tst	r2, #15
 750 01fc 0030A013 		movne	r3, #0
 751 0200 01300302 		andeq	r3, r3, #1
 752 0204 000053E3 		cmp	r3, #0
 753 0208 8B00000A 		beq	.L73
 754 020c 102045E2 		sub	r2, r5, #16
 755 0210 0F0055E3 		cmp	r5, #15
 756 0214 2222A0E1 		lsr	r2, r2, #4
 757 0218 012082E2 		add	r2, r2, #1
 758 021c 0232A0E1 		lsl	r3, r2, #4
 759 0220 8D0000DA 		ble	.L91
 760 0224 01C0A0E1 		mov	ip, r1
 761 0228 0400A0E1 		mov	r0, r4
 762 022c 0010A0E3 		mov	r1, #0
 763              	.L76:
 764 0230 011081E2 		add	r1, r1, #1
 765 0234 DF0A6CF4 		vld1.64	{d16-d17}, [ip:64]
 766 0238 010052E1 		cmp	r2, r1
 767 023c 10C08CE2 		add	ip, ip, #16
 768 0240 DF0A40F4 		vst1.64	{d16-d17}, [r0:64]
 769 0244 100080E2 		add	r0, r0, #16
 770 0248 F8FFFF8A 		bhi	.L76
 771 024c 050053E1 		cmp	r3, r5
 772 0250 4700000A 		beq	.L81
 773              	.L74:
 774 0254 14C09DE5 		ldr	ip, [sp, #20]
 775 0258 012083E2 		add	r2, r3, #1
 776 025c 050052E1 		cmp	r2, r5
 777 0260 0310DCE7 		ldrb	r1, [ip, r3]	@ zero_extendqisi2
 778 0264 0310C4E7 		strb	r1, [r4, r3]
 779 0268 410000AA 		bge	.L81
 780 026c 0200DCE7 		ldrb	r0, [ip, r2]	@ zero_extendqisi2
 781 0270 021083E2 		add	r1, r3, #2
 782 0274 010055E1 		cmp	r5, r1
 783 0278 0200C4E7 		strb	r0, [r4, r2]
 784 027c 3C0000DA 		ble	.L81
 785 0280 0100DCE7 		ldrb	r0, [ip, r1]	@ zero_extendqisi2
 786 0284 032083E2 		add	r2, r3, #3
 787 0288 020055E1 		cmp	r5, r2
 788 028c 0100C4E7 		strb	r0, [r4, r1]
 789 0290 370000DA 		ble	.L81
 790 0294 0200DCE7 		ldrb	r0, [ip, r2]	@ zero_extendqisi2
 791 0298 041083E2 		add	r1, r3, #4
 792 029c 010055E1 		cmp	r5, r1
 793 02a0 0200C4E7 		strb	r0, [r4, r2]
 794 02a4 320000DA 		ble	.L81
 795 02a8 0100DCE7 		ldrb	r0, [ip, r1]	@ zero_extendqisi2
 796 02ac 052083E2 		add	r2, r3, #5
 797 02b0 020055E1 		cmp	r5, r2
 798 02b4 0100C4E7 		strb	r0, [r4, r1]
 799 02b8 2D0000DA 		ble	.L81
 800 02bc 0200DCE7 		ldrb	r0, [ip, r2]	@ zero_extendqisi2
 801 02c0 061083E2 		add	r1, r3, #6
 802 02c4 010055E1 		cmp	r5, r1
 803 02c8 0200C4E7 		strb	r0, [r4, r2]
 804 02cc 280000DA 		ble	.L81
 805 02d0 0100DCE7 		ldrb	r0, [ip, r1]	@ zero_extendqisi2
 806 02d4 072083E2 		add	r2, r3, #7
 807 02d8 020055E1 		cmp	r5, r2
 808 02dc 0100C4E7 		strb	r0, [r4, r1]
 809 02e0 230000DA 		ble	.L81
 810 02e4 0200DCE7 		ldrb	r0, [ip, r2]	@ zero_extendqisi2
 811 02e8 081083E2 		add	r1, r3, #8
 812 02ec 010055E1 		cmp	r5, r1
 813 02f0 0200C4E7 		strb	r0, [r4, r2]
 814 02f4 1E0000DA 		ble	.L81
 815 02f8 0100DCE7 		ldrb	r0, [ip, r1]	@ zero_extendqisi2
 816 02fc 092083E2 		add	r2, r3, #9
 817 0300 020055E1 		cmp	r5, r2
 818 0304 0100C4E7 		strb	r0, [r4, r1]
 819 0308 190000DA 		ble	.L81
 820 030c 0200DCE7 		ldrb	r0, [ip, r2]	@ zero_extendqisi2
 821 0310 0A1083E2 		add	r1, r3, #10
 822 0314 010055E1 		cmp	r5, r1
 823 0318 0200C4E7 		strb	r0, [r4, r2]
 824 031c 140000DA 		ble	.L81
 825 0320 0100DCE7 		ldrb	r0, [ip, r1]	@ zero_extendqisi2
 826 0324 0B2083E2 		add	r2, r3, #11
 827 0328 020055E1 		cmp	r5, r2
 828 032c 0100C4E7 		strb	r0, [r4, r1]
 829 0330 0F0000DA 		ble	.L81
 830 0334 0200DCE7 		ldrb	r0, [ip, r2]	@ zero_extendqisi2
 831 0338 0C1083E2 		add	r1, r3, #12
 832 033c 010055E1 		cmp	r5, r1
 833 0340 0200C4E7 		strb	r0, [r4, r2]
 834 0344 0A0000DA 		ble	.L81
 835 0348 0100DCE7 		ldrb	r0, [ip, r1]	@ zero_extendqisi2
 836 034c 0D2083E2 		add	r2, r3, #13
 837 0350 020055E1 		cmp	r5, r2
 838 0354 0100C4E7 		strb	r0, [r4, r1]
 839 0358 050000DA 		ble	.L81
 840 035c 0E3083E2 		add	r3, r3, #14
 841 0360 0210DCE7 		ldrb	r1, [ip, r2]	@ zero_extendqisi2
 842 0364 030055E1 		cmp	r5, r3
 843 0368 0210C4E7 		strb	r1, [r4, r2]
 844 036c 0320DCC7 		ldrbgt	r2, [ip, r3]	@ zero_extendqisi2
 845 0370 0320C4C7 		strbgt	r2, [r4, r3]
 846              	.L81:
 847 0374 010055E3 		cmp	r5, #1
 848 0378 010084C2 		addgt	r0, r4, #1
 849 037c 05C084C0 		addgt	ip, r4, r5
 850 0380 0B0000DA 		ble	.L79
 851              	.L84:
 852 0384 0030A0E1 		mov	r3, r0
 853              	.L86:
 854 0388 0020D3E5 		ldrb	r2, [r3]	@ zero_extendqisi2
 855 038c 011053E5 		ldrb	r1, [r3, #-1]	@ zero_extendqisi2
 856 0390 010052E1 		cmp	r2, r1
 857 0394 030000AA 		bge	.L85
 858 0398 0010C3E5 		strb	r1, [r3]
 859 039c 012063E5 		strb	r2, [r3, #-1]!
 860 03a0 030054E1 		cmp	r4, r3
 861 03a4 F7FFFF1A 		bne	.L86
 862              	.L85:
 863 03a8 010080E2 		add	r0, r0, #1
 864 03ac 0C0050E1 		cmp	r0, ip
 865 03b0 F3FFFF1A 		bne	.L84
 866              	.L79:
 867 03b4 28308DE2 		add	r3, sp, #40
 868 03b8 0020A0E3 		mov	r2, #0
 869 03bc 0C109DE5 		ldr	r1, [sp, #12]
 870 03c0 08009DE5 		ldr	r0, [sp, #8]
 871 03c4 FEFFFFEB 		bl	_ZN6tflite13GetOutputSafeEPK13TfLiteContextPK10TfLiteNodeiPP12TfLiteTensor
 872 03c8 000050E3 		cmp	r0, #0
 873 03cc 1400001A 		bne	.L93
 874 03d0 28609DE5 		ldr	r6, [sp, #40]
 875 03d4 2C308DE2 		add	r3, sp, #44
 876 03d8 0C109DE5 		ldr	r1, [sp, #12]
 877 03dc 0120A0E3 		mov	r2, #1
 878 03e0 08009DE5 		ldr	r0, [sp, #8]
 879 03e4 000056E3 		cmp	r6, #0
 880 03e8 04609615 		ldrne	r6, [r6, #4]
 881 03ec FEFFFFEB 		bl	_ZN6tflite13GetOutputSafeEPK13TfLiteContextPK10TfLiteNodeiPP12TfLiteTensor
 882 03f0 000050E3 		cmp	r0, #0
 883 03f4 0A00001A 		bne	.L93
 884 03f8 2C309DE5 		ldr	r3, [sp, #44]
 885 03fc A55F85E0 		add	r5, r5, r5, lsr #31
 886 0400 000053E3 		cmp	r3, #0
 887 0404 0800000A 		beq	.L88
 888 0408 C520D4E7 		ldrb	r2, [r4, r5, asr #1]	@ zero_extendqisi2
 889 040c 043093E5 		ldr	r3, [r3, #4]
 890 0410 0020C6E5 		strb	r2, [r6]
 891 0414 10209DE5 		ldr	r2, [sp, #16]
 892 0418 002092E5 		ldr	r2, [r2]
 893 041c 002092E5 		ldr	r2, [r2]
 894 0420 002083E5 		str	r2, [r3]
 895              	.L93:
 896 0424 34D08DE2 		add	sp, sp, #52
 897              		@ sp needed
 898 0428 F08FBDE8 		pop	{r4, r5, r6, r7, r8, r9, r10, fp, pc}
 899              	.L88:
 900 042c C520D4E7 		ldrb	r2, [r4, r5, asr #1]	@ zero_extendqisi2
 901 0430 0020C6E5 		strb	r2, [r6]
 902 0434 003083E5 		str	r3, [r3]
 903 0438 F000F0E7 		.inst	0xe7f000f0
 904              	.L73:
 905 043c 011041E2 		sub	r1, r1, #1
 906 0440 012044E2 		sub	r2, r4, #1
 907              	.L82:
 908 0444 013083E2 		add	r3, r3, #1
 909 0448 0100F1E5 		ldrb	r0, [r1, #1]!	@ zero_extendqisi2
 910 044c 030055E1 		cmp	r5, r3
 911 0450 0100E2E5 		strb	r0, [r2, #1]!
 912 0454 FAFFFFCA 		bgt	.L82
 913 0458 C5FFFFEA 		b	.L81
 914              	.L91:
 915 045c 0030A0E3 		mov	r3, #0
 916 0460 7BFFFFEA 		b	.L74
 917              	.L67:
 918 0464 08009DE5 		ldr	r0, [sp, #8]
 919 0468 0150A0E3 		mov	r5, #1
 920 046c 10209DE5 		ldr	r2, [sp, #16]
 921 0470 443090E5 		ldr	r3, [r0, #68]
 922 0474 041092E5 		ldr	r1, [r2, #4]
 923 0478 33FF2FE1 		blx	r3
 924 047c 0040A0E1 		mov	r4, r0
 925 0480 51FFFFEA 		b	.L71
 926              	.L90:
 927 0484 01A0A0E3 		mov	r10, #1
 928 0488 00B0A0E3 		mov	fp, #0
 929 048c 0080A0E3 		mov	r8, #0
 930 0490 0230A0E1 		mov	r3, r2
 931 0494 36FFFFEA 		b	.L68
 932              		.fnend
 934              		.section	.text._ZNK6tflite22MicroMutableOpResolverILj128EE6FindOpEPKc,"axG",%progbits,_ZNK6tflite2
 935              		.align	2
 936              		.weak	_ZNK6tflite22MicroMutableOpResolverILj128EE6FindOpEPKc
 937              		.syntax unified
 938              		.arm
 939              		.fpu neon
 941              	_ZNK6tflite22MicroMutableOpResolverILj128EE6FindOpEPKc:
 942              		.fnstart
 943              	.LFB9706:
 944              		@ args = 0, pretend = 0, frame = 0
 945              		@ frame_needed = 0, uses_anonymous_args = 0
 946 0000 013A80E2 		add	r3, r0, #4096
 947 0004 F0412DE9 		push	{r4, r5, r6, r7, r8, lr}
 948 0008 046093E5 		ldr	r6, [r3, #4]
 949 000c 000056E3 		cmp	r6, #0
 950 0010 1300000A 		beq	.L112
 951 0014 0170A0E1 		mov	r7, r1
 952 0018 0080A0E1 		mov	r8, r0
 953 001c 0040A0E1 		mov	r4, r0
 954 0020 0050A0E3 		mov	r5, #0
 955 0024 030000EA 		b	.L108
 956              	.L107:
 957 0028 015085E2 		add	r5, r5, #1
 958 002c 204084E2 		add	r4, r4, #32
 959 0030 060055E1 		cmp	r5, r6
 960 0034 0A00000A 		beq	.L112
 961              	.L108:
 962 0038 183094E5 		ldr	r3, [r4, #24]
 963 003c 200053E3 		cmp	r3, #32
 964 0040 F8FFFF1A 		bne	.L107
 965 0044 0710A0E1 		mov	r1, r7
 966 0048 1C0094E5 		ldr	r0, [r4, #28]
 967 004c FEFFFFEB 		bl	strcmp
 968 0050 000050E3 		cmp	r0, #0
 969 0054 F3FFFF1A 		bne	.L107
 970 0058 850288E0 		add	r0, r8, r5, lsl #5
 971 005c 040080E2 		add	r0, r0, #4
 972 0060 F081BDE8 		pop	{r4, r5, r6, r7, r8, pc}
 973              	.L112:
 974 0064 0000A0E3 		mov	r0, #0
 975 0068 F081BDE8 		pop	{r4, r5, r6, r7, r8, pc}
 976              		.cantunwind
 977              		.fnend
 979              		.section	.text._ZN6tflite7testing12_GLOBAL__N_114StackAllocatorD0Ev,"ax",%progbits
 980              		.align	2
 981              		.syntax unified
 982              		.arm
 983              		.fpu neon
 985              	_ZN6tflite7testing12_GLOBAL__N_114StackAllocatorD0Ev:
 986              		.fnstart
 987              	.LFB11660:
 988              		@ args = 0, pretend = 0, frame = 0
 989              		@ frame_needed = 0, uses_anonymous_args = 0
 990 0000 10402DE9 		push	{r4, lr}
 991 0004 0C1002E3 		movw	r1, #8204
 992 0008 0040A0E1 		mov	r4, r0
 993 000c FEFFFFEB 		bl	_ZdlPvj
 994 0010 0400A0E1 		mov	r0, r4
 995 0014 1080BDE8 		pop	{r4, pc}
 996              		.cantunwind
 997              		.fnend
 999              		.section	.text._ZN11flatbuffers16DefaultAllocatorD0Ev,"axG",%progbits,_ZN11flatbuffers16DefaultAll
 1000              		.align	2
 1001              		.weak	_ZN11flatbuffers16DefaultAllocatorD0Ev
 1002              		.syntax unified
 1003              		.arm
 1004              		.fpu neon
 1006              	_ZN11flatbuffers16DefaultAllocatorD0Ev:
 1007              		.fnstart
 1008              	.LFB11668:
 1009              		@ args = 0, pretend = 0, frame = 0
 1010              		@ frame_needed = 0, uses_anonymous_args = 0
 1011 0000 10402DE9 		push	{r4, lr}
 1012 0004 0410A0E3 		mov	r1, #4
 1013 0008 0040A0E1 		mov	r4, r0
 1014 000c FEFFFFEB 		bl	_ZdlPvj
 1015 0010 0400A0E1 		mov	r0, r4
 1016 0014 1080BDE8 		pop	{r4, pc}
 1017              		.cantunwind
 1018              		.fnend
 1020              		.section	.text._ZN6tflite7testing12_GLOBAL__N_115BuilderInstanceEv,"ax",%progbits
 1021              		.align	2
 1022              		.syntax unified
 1023              		.arm
 1024              		.fpu neon
 1026              	_ZN6tflite7testing12_GLOBAL__N_115BuilderInstanceEv:
 1027              		.fnstart
 1028              	.LFB7049:
 1029              		@ args = 0, pretend = 0, frame = 0
 1030              		@ frame_needed = 0, uses_anonymous_args = 0
 1031 0000 000000E3 		movw	r0, #:lower16:.LANCHOR4
 1032 0004 000040E3 		movt	r0, #:upper16:.LANCHOR4
 1033 0008 0030D0E5 		ldrb	r3, [r0]	@ zero_extendqisi2
 1034 000c 5BF07FF5 		dmb	ish
 1035 0010 010013E3 		tst	r3, #1
 1036 0014 0300000A 		beq	.L118
 1037 0018 003000E3 		movw	r3, #:lower16:.LANCHOR5
 1038 001c 003040E3 		movt	r3, #:upper16:.LANCHOR5
 1039 0020 000093E5 		ldr	r0, [r3]
 1040 0024 1EFF2FE1 		bx	lr
 1041              	.L118:
 1042 0028 70402DE9 		push	{r4, r5, r6, lr}
 1043 002c FEFFFFEB 		bl	__cxa_guard_acquire
 1044 0030 000050E3 		cmp	r0, #0
 1045 0034 0300001A 		bne	.L120
 1046 0038 003000E3 		movw	r3, #:lower16:.LANCHOR5
 1047 003c 003040E3 		movt	r3, #:upper16:.LANCHOR5
 1048 0040 000093E5 		ldr	r0, [r3]
 1049 0044 7080BDE8 		pop	{r4, r5, r6, pc}
 1050              	.L120:
 1051 0048 004000E3 		movw	r4, #:lower16:.LANCHOR6
 1052 004c 004040E3 		movt	r4, #:upper16:.LANCHOR6
 1053 0050 0030D4E5 		ldrb	r3, [r4]	@ zero_extendqisi2
 1054 0054 5BF07FF5 		dmb	ish
 1055 0058 015013E2 		ands	r5, r3, #1
 1056 005c 2000000A 		beq	.L128
 1057              	.L127:
 1058 0060 003000E3 		movw	r3, #:lower16:.LANCHOR7
 1059 0064 003040E3 		movt	r3, #:upper16:.LANCHOR7
 1060 0068 001093E5 		ldr	r1, [r3]
 1061              	.L122:
 1062 006c 004000E3 		movw	r4, #:lower16:.LANCHOR3
 1063 0070 0030A0E3 		mov	r3, #0
 1064 0074 004040E3 		movt	r4, #:upper16:.LANCHOR3
 1065 0078 01C0A0E3 		mov	ip, #1
 1066 007c 08E0A0E3 		mov	lr, #8
 1067 0080 025AA0E3 		mov	r5, #8192
 1068 0084 002000E3 		movw	r2, #:lower16:.LANCHOR5
 1069 0088 000000E3 		movw	r0, #:lower16:.LANCHOR4
 1070 008c 002040E3 		movt	r2, #:upper16:.LANCHOR5
 1071 0090 000040E3 		movt	r0, #:upper16:.LANCHOR4
 1072 0094 001084E5 		str	r1, [r4]
 1073 0098 085084E5 		str	r5, [r4, #8]
 1074 009c 0CE084E5 		str	lr, [r4, #12]
 1075 00a0 0430C4E5 		strb	r3, [r4, #4]
 1076 00a4 103084E5 		str	r3, [r4, #16]
 1077 00a8 143084E5 		str	r3, [r4, #20]
 1078 00ac 183084E5 		str	r3, [r4, #24]
 1079 00b0 1C3084E5 		str	r3, [r4, #28]
 1080 00b4 203084E5 		str	r3, [r4, #32]
 1081 00b8 B432C4E1 		strh	r3, [r4, #36]	@ movhi
 1082 00bc 2630C4E5 		strb	r3, [r4, #38]
 1083 00c0 2730C4E5 		strb	r3, [r4, #39]
 1084 00c4 2C30C4E5 		strb	r3, [r4, #44]
 1085 00c8 303084E5 		str	r3, [r4, #48]
 1086 00cc 28C084E5 		str	ip, [r4, #40]
 1087 00d0 2DC0C4E5 		strb	ip, [r4, #45]
 1088 00d4 004082E5 		str	r4, [r2]
 1089 00d8 FEFFFFEB 		bl	__cxa_guard_release
 1090 00dc 0400A0E1 		mov	r0, r4
 1091 00e0 7080BDE8 		pop	{r4, r5, r6, pc}
 1092              	.L128:
 1093 00e4 0400A0E1 		mov	r0, r4
 1094 00e8 FEFFFFEB 		bl	__cxa_guard_acquire
 1095 00ec 000050E3 		cmp	r0, #0
 1096 00f0 DAFFFF0A 		beq	.L127
 1097 00f4 006000E3 		movw	r6, #:lower16:.LANCHOR2
 1098 00f8 2CC09FE5 		ldr	ip, .L129
 1099 00fc 006040E3 		movt	r6, #:upper16:.LANCHOR2
 1100 0100 003000E3 		movw	r3, #:lower16:.LANCHOR7
 1101 0104 041086E2 		add	r1, r6, #4
 1102 0108 022A86E2 		add	r2, r6, #8192
 1103 010c 003040E3 		movt	r3, #:upper16:.LANCHOR7
 1104 0110 220082E9 		stmib	r2, {r1, r5}
 1105 0114 0400A0E1 		mov	r0, r4
 1106 0118 00C086E5 		str	ip, [r6]
 1107 011c 006083E5 		str	r6, [r3]
 1108 0120 FEFFFFEB 		bl	__cxa_guard_release
 1109 0124 0610A0E1 		mov	r1, r6
 1110 0128 CFFFFFEA 		b	.L122
 1111              	.L130:
 1112              		.align	2
 1113              	.L129:
 1114 012c 08000000 		.word	.LANCHOR8+8
 1115              		.cantunwind
 1116              		.fnend
 1118              		.section	.text._ZN11flatbuffers16DefaultAllocator8allocateEj,"axG",%progbits,_ZN11flatbuffers16Def
 1119              		.align	2
 1120              		.weak	_ZN11flatbuffers16DefaultAllocator8allocateEj
 1121              		.syntax unified
 1122              		.arm
 1123              		.fpu neon
 1125              	_ZN11flatbuffers16DefaultAllocator8allocateEj:
 1126              		.fnstart
 1127              	.LFB3521:
 1128              		@ args = 0, pretend = 0, frame = 0
 1129              		@ frame_needed = 0, uses_anonymous_args = 0
 1130              		@ link register save eliminated.
 1131 0000 0100A0E1 		mov	r0, r1
 1132 0004 FEFFFFEA 		b	_Znaj
 1133              		.cantunwind
 1134              		.fnend
 1136              		.section	.text._ZN11flatbuffers16DefaultAllocator10deallocateEPhj,"axG",%progbits,_ZN11flatbuffers
 1137              		.align	2
 1138              		.weak	_ZN11flatbuffers16DefaultAllocator10deallocateEPhj
 1139              		.syntax unified
 1140              		.arm
 1141              		.fpu neon
 1143              	_ZN11flatbuffers16DefaultAllocator10deallocateEPhj:
 1144              		.fnstart
 1145              	.LFB3522:
 1146              		@ args = 0, pretend = 0, frame = 0
 1147              		@ frame_needed = 0, uses_anonymous_args = 0
 1148              		@ link register save eliminated.
 1149 0000 000051E2 		subs	r0, r1, #0
 1150 0004 1EFF2F01 		bxeq	lr
 1151 0008 FEFFFFEA 		b	_ZdaPv
 1152              		.cantunwind
 1153              		.fnend
 1155              		.section	.text._ZN11flatbuffers9Allocator19reallocate_downwardEPhjjjj,"axG",%progbits,_ZN11flatbuf
 1156              		.align	2
 1157              		.weak	_ZN11flatbuffers9Allocator19reallocate_downwardEPhjjjj
 1158              		.syntax unified
 1159              		.arm
 1160              		.fpu neon
 1162              	_ZN11flatbuffers9Allocator19reallocate_downwardEPhjjjj:
 1163              		.fnstart
 1164              	.LFB3519:
 1165              		@ args = 8, pretend = 0, frame = 0
 1166              		@ frame_needed = 0, uses_anonymous_args = 0
 1167 0000 020053E1 		cmp	r3, r2
 1168 0004 F0472DE9 		push	{r4, r5, r6, r7, r8, r9, r10, lr}
 1169              		.save {r4, r5, r6, r7, r8, r9, r10, lr}
 1170 0008 20809DE5 		ldr	r8, [sp, #32]
 1171 000c 1A00009A 		bls	.L137
 1172 0010 0340A0E1 		mov	r4, r3
 1173 0014 003090E5 		ldr	r3, [r0]
 1174 0018 0250A0E1 		mov	r5, r2
 1175 001c 0170A0E1 		mov	r7, r1
 1176 0020 0410A0E1 		mov	r1, r4
 1177 0024 0060A0E1 		mov	r6, r0
 1178 0028 083093E5 		ldr	r3, [r3, #8]
 1179 002c 33FF2FE1 		blx	r3
 1180 0030 081045E0 		sub	r1, r5, r8
 1181 0034 0090A0E1 		mov	r9, r0
 1182 0038 080044E0 		sub	r0, r4, r8
 1183 003c 011087E0 		add	r1, r7, r1
 1184 0040 0820A0E1 		mov	r2, r8
 1185 0044 000089E0 		add	r0, r9, r0
 1186 0048 FEFFFFEB 		bl	memcpy
 1187 004c 24209DE5 		ldr	r2, [sp, #36]
 1188 0050 0710A0E1 		mov	r1, r7
 1189 0054 0900A0E1 		mov	r0, r9
 1190 0058 FEFFFFEB 		bl	memcpy
 1191 005c 003096E5 		ldr	r3, [r6]
 1192 0060 0600A0E1 		mov	r0, r6
 1193 0064 0520A0E1 		mov	r2, r5
 1194 0068 0710A0E1 		mov	r1, r7
 1195 006c 0C3093E5 		ldr	r3, [r3, #12]
 1196 0070 33FF2FE1 		blx	r3
 1197 0074 0900A0E1 		mov	r0, r9
 1198 0078 F087BDE8 		pop	{r4, r5, r6, r7, r8, r9, r10, pc}
 1199              	.L137:
 1200 007c 003000E3 		movw	r3, #:lower16:.LC18
 1201 0080 002000E3 		movw	r2, #:lower16:.LANCHOR9
 1202 0084 000000E3 		movw	r0, #:lower16:.LC19
 1203 0088 003040E3 		movt	r3, #:upper16:.LC18
 1204 008c 002040E3 		movt	r2, #:upper16:.LANCHOR9
 1205 0090 000040E3 		movt	r0, #:upper16:.LC19
 1206 0094 691200E3 		movw	r1, #617
 1207 0098 FEFFFFEB 		bl	__assert_func
 1208              		.fnend
 1210              		.section	.text.unlikely._ZNK11flatbuffers15vector_downward4dataEv.isra.9.part.10,"ax",%progbits
 1211              		.align	2
 1212              		.syntax unified
 1213              		.arm
 1214              		.fpu neon
 1216              	_ZNK11flatbuffers15vector_downward4dataEv.isra.9.part.10:
 1217              		.fnstart
 1218              	.LFB11689:
 1219              		@ args = 0, pretend = 0, frame = 0
 1220              		@ frame_needed = 0, uses_anonymous_args = 0
 1221 0000 003000E3 		movw	r3, #:lower16:.LC20
 1222 0004 002000E3 		movw	r2, #:lower16:.LANCHOR10
 1223 0008 000000E3 		movw	r0, #:lower16:.LC19
 1224 000c 10402DE9 		push	{r4, lr}
 1225              		.save {r4, lr}
 1226 0010 003040E3 		movt	r3, #:upper16:.LC20
 1227 0014 002040E3 		movt	r2, #:upper16:.LANCHOR10
 1228 0018 000040E3 		movt	r0, #:upper16:.LC19
 1229 001c B21300E3 		movw	r1, #946
 1230 0020 FEFFFFEB 		bl	__assert_func
 1231              		.fnend
 1233              		.section	.text.unlikely._ZN11flatbuffers17FlatBufferBuilder9NotNestedEv.isra.20.part.21,"ax",%prog
 1234              		.align	2
 1235              		.syntax unified
 1236              		.arm
 1237              		.fpu neon
 1239              	_ZN11flatbuffers17FlatBufferBuilder9NotNestedEv.isra.20.part.21:
 1240              		.fnstart
 1241              	.LFB11700:
 1242              		@ args = 0, pretend = 0, frame = 0
 1243              		@ frame_needed = 0, uses_anonymous_args = 0
 1244 0000 003000E3 		movw	r3, #:lower16:.LC21
 1245 0004 002000E3 		movw	r2, #:lower16:.LANCHOR11
 1246 0008 000000E3 		movw	r0, #:lower16:.LC19
 1247 000c 10402DE9 		push	{r4, lr}
 1248              		.save {r4, lr}
 1249 0010 003040E3 		movt	r3, #:upper16:.LC21
 1250 0014 002040E3 		movt	r2, #:upper16:.LANCHOR11
 1251 0018 000040E3 		movt	r0, #:upper16:.LC19
 1252 001c 4A1500E3 		movw	r1, #1354
 1253 0020 FEFFFFEB 		bl	__assert_func
 1254              		.fnend
 1256              		.section	.text._ZN6tflite7testing10MockCustom7PrepareEP13TfLiteContextP10TfLiteNode,"ax",%progbits
 1257              		.align	2
 1258              		.global	_ZN6tflite7testing10MockCustom7PrepareEP13TfLiteContextP10TfLiteNode
 1259              		.syntax unified
 1260              		.arm
 1261              		.fpu neon
 1263              	_ZN6tflite7testing10MockCustom7PrepareEP13TfLiteContextP10TfLiteNode:
 1264              		.fnstart
 1265              	.LFB11806:
 1266              		@ args = 0, pretend = 0, frame = 0
 1267              		@ frame_needed = 0, uses_anonymous_args = 0
 1268              		@ link register save eliminated.
 1269 0000 0000A0E3 		mov	r0, #0
 1270 0004 1EFF2FE1 		bx	lr
 1271              		.cantunwind
 1272              		.fnend
 1274              		.section	.text._ZN11flatbuffers15vector_downward12ensure_spaceEj,"axG",%progbits,_ZN11flatbuffers1
 1275              		.align	2
 1276              		.weak	_ZN11flatbuffers15vector_downward12ensure_spaceEj
 1277              		.syntax unified
 1278              		.arm
 1279              		.fpu neon
 1281              	_ZN11flatbuffers15vector_downward12ensure_spaceEj:
 1282              		.fnstart
 1283              	.LFB3569:
 1284              		@ args = 0, pretend = 0, frame = 8
 1285              		@ frame_needed = 0, uses_anonymous_args = 0
 1286 0000 F04F2DE9 		push	{r4, r5, r6, r7, r8, r9, r10, fp, lr}
 1287              		.save {r4, r5, r6, r7, r8, r9, r10, fp, lr}
 1288              		.pad #20
 1289 0004 14D04DE2 		sub	sp, sp, #20
 1290 0008 182090E5 		ldr	r2, [r0, #24]
 1291 000c 1C5090E5 		ldr	r5, [r0, #28]
 1292 0010 050052E1 		cmp	r2, r5
 1293 0014 7A00003A 		bcc	.L144
 1294 0018 146090E5 		ldr	r6, [r0, #20]
 1295 001c 0040A0E1 		mov	r4, r0
 1296 0020 060055E1 		cmp	r5, r6
 1297 0024 7600003A 		bcc	.L144
 1298 0028 0180A0E1 		mov	r8, r1
 1299 002c 051042E0 		sub	r1, r2, r5
 1300 0030 080051E1 		cmp	r1, r8
 1301 0034 0230A0E1 		mov	r3, r2
 1302 0038 0700003A 		bcc	.L146
 1303 003c 102090E5 		ldr	r2, [r0, #16]
 1304              	.L147:
 1305 0040 066043E0 		sub	r6, r3, r6
 1306 0044 066042E0 		sub	r6, r2, r6
 1307 0048 0A0176E3 		cmn	r6, #-2147483646
 1308 004c 7400008A 		bhi	.L161
 1309 0050 0800A0E1 		mov	r0, r8
 1310 0054 14D08DE2 		add	sp, sp, #20
 1311              		@ sp needed
 1312 0058 F08FBDE8 		pop	{r4, r5, r6, r7, r8, r9, r10, fp, pc}
 1313              	.L146:
 1314 005c 109090E5 		ldr	r9, [r0, #16]
 1315 0060 067042E0 		sub	r7, r2, r6
 1316 0064 065045E0 		sub	r5, r5, r6
 1317 0068 000059E3 		cmp	r9, #0
 1318 006c 077049E0 		sub	r7, r9, r7
 1319 0070 08109005 		ldreq	r1, [r0, #8]
 1320 0074 A910A011 		lsrne	r1, r9, #1
 1321 0078 0C0090E5 		ldr	r0, [r0, #12]
 1322 007c 003089E0 		add	r3, r9, r0
 1323 0080 000060E2 		rsb	r0, r0, #0
 1324 0084 013043E2 		sub	r3, r3, #1
 1325 0088 010058E1 		cmp	r8, r1
 1326 008c 08308320 		addcs	r3, r3, r8
 1327 0090 01308330 		addcc	r3, r3, r1
 1328 0094 000056E3 		cmp	r6, #0
 1329 0098 003003E0 		and	r3, r3, r0
 1330 009c 103084E5 		str	r3, [r4, #16]
 1331 00a0 2C00000A 		beq	.L150
 1332 00a4 00A094E5 		ldr	r10, [r4]
 1333 00a8 00005AE3 		cmp	r10, #0
 1334 00ac 3200000A 		beq	.L151
 1335 00b0 00009AE5 		ldr	r0, [r10]
 1336 00b4 001000E3 		movw	r1, #:lower16:_ZN11flatbuffers9Allocator19reallocate_downwardEPhjjjj
 1337 00b8 001040E3 		movt	r1, #:upper16:_ZN11flatbuffers9Allocator19reallocate_downwardEPhjjjj
 1338 00bc 10B090E5 		ldr	fp, [r0, #16]
 1339 00c0 01005BE1 		cmp	fp, r1
 1340 00c4 4600001A 		bne	.L152
 1341 00c8 030059E1 		cmp	r9, r3
 1342 00cc 5C00002A 		bcs	.L155
 1343 00d0 08B090E5 		ldr	fp, [r0, #8]
 1344 00d4 0310A0E1 		mov	r1, r3
 1345 00d8 0C208DE5 		str	r2, [sp, #12]
 1346 00dc 0A00A0E1 		mov	r0, r10
 1347 00e0 08308DE5 		str	r3, [sp, #8]
 1348 00e4 3BFF2FE1 		blx	fp
 1349 00e8 08309DE5 		ldr	r3, [sp, #8]
 1350 00ec 00B0A0E1 		mov	fp, r0
 1351 00f0 0C209DE5 		ldr	r2, [sp, #12]
 1352 00f4 070043E0 		sub	r0, r3, r7
 1353 00f8 0210A0E1 		mov	r1, r2
 1354 00fc 00008BE0 		add	r0, fp, r0
 1355 0100 0720A0E1 		mov	r2, r7
 1356 0104 FEFFFFEB 		bl	memcpy
 1357 0108 0610A0E1 		mov	r1, r6
 1358 010c 0520A0E1 		mov	r2, r5
 1359 0110 0B00A0E1 		mov	r0, fp
 1360 0114 FEFFFFEB 		bl	memcpy
 1361 0118 00309AE5 		ldr	r3, [r10]
 1362 011c 0610A0E1 		mov	r1, r6
 1363 0120 0920A0E1 		mov	r2, r9
 1364 0124 0A00A0E1 		mov	r0, r10
 1365 0128 0B60A0E1 		mov	r6, fp
 1366 012c 0C3093E5 		ldr	r3, [r3, #12]
 1367 0130 33FF2FE1 		blx	r3
 1368              	.L158:
 1369 0134 102094E5 		ldr	r2, [r4, #16]
 1370 0138 055086E0 		add	r5, r6, r5
 1371 013c 146084E5 		str	r6, [r4, #20]
 1372 0140 1C5084E5 		str	r5, [r4, #28]
 1373 0144 077042E0 		sub	r7, r2, r7
 1374 0148 077086E0 		add	r7, r6, r7
 1375 014c 0730A0E1 		mov	r3, r7
 1376 0150 187084E5 		str	r7, [r4, #24]
 1377 0154 B9FFFFEA 		b	.L147
 1378              	.L150:
 1379 0158 000094E5 		ldr	r0, [r4]
 1380 015c 000050E3 		cmp	r0, #0
 1381 0160 1B00000A 		beq	.L157
 1382 0164 002090E5 		ldr	r2, [r0]
 1383 0168 0310A0E1 		mov	r1, r3
 1384 016c 083092E5 		ldr	r3, [r2, #8]
 1385 0170 33FF2FE1 		blx	r3
 1386 0174 0060A0E1 		mov	r6, r0
 1387 0178 EDFFFFEA 		b	.L158
 1388              	.L151:
 1389 017c 030059E1 		cmp	r9, r3
 1390 0180 0C208DE5 		str	r2, [sp, #12]
 1391 0184 2E00002A 		bcs	.L155
 1392 0188 0300A0E1 		mov	r0, r3
 1393 018c 08308DE5 		str	r3, [sp, #8]
 1394 0190 FEFFFFEB 		bl	_Znaj
 1395 0194 08309DE5 		ldr	r3, [sp, #8]
 1396 0198 0090A0E1 		mov	r9, r0
 1397 019c 0C209DE5 		ldr	r2, [sp, #12]
 1398 01a0 070043E0 		sub	r0, r3, r7
 1399 01a4 0210A0E1 		mov	r1, r2
 1400 01a8 000089E0 		add	r0, r9, r0
 1401 01ac 0720A0E1 		mov	r2, r7
 1402 01b0 FEFFFFEB 		bl	memcpy
 1403 01b4 0610A0E1 		mov	r1, r6
 1404 01b8 0520A0E1 		mov	r2, r5
 1405 01bc 0900A0E1 		mov	r0, r9
 1406 01c0 FEFFFFEB 		bl	memcpy
 1407 01c4 0600A0E1 		mov	r0, r6
 1408 01c8 0960A0E1 		mov	r6, r9
 1409 01cc FEFFFFEB 		bl	_ZdaPv
 1410 01d0 D7FFFFEA 		b	.L158
 1411              	.L157:
 1412 01d4 0300A0E1 		mov	r0, r3
 1413 01d8 FEFFFFEB 		bl	_Znaj
 1414 01dc 0060A0E1 		mov	r6, r0
 1415 01e0 D3FFFFEA 		b	.L158
 1416              	.L152:
 1417 01e4 0610A0E1 		mov	r1, r6
 1418 01e8 04508DE5 		str	r5, [sp, #4]
 1419 01ec 00708DE5 		str	r7, [sp]
 1420 01f0 0920A0E1 		mov	r2, r9
 1421 01f4 0A00A0E1 		mov	r0, r10
 1422 01f8 3BFF2FE1 		blx	fp
 1423 01fc 0060A0E1 		mov	r6, r0
 1424 0200 CBFFFFEA 		b	.L158
 1425              	.L144:
 1426 0204 003000E3 		movw	r3, #:lower16:.LC22
 1427 0208 002000E3 		movw	r2, #:lower16:.LANCHOR12
 1428 020c 000000E3 		movw	r0, #:lower16:.LC19
 1429 0210 003040E3 		movt	r3, #:upper16:.LC22
 1430 0214 002040E3 		movt	r2, #:upper16:.LANCHOR12
 1431 0218 000040E3 		movt	r0, #:upper16:.LC19
 1432 021c 961300E3 		movw	r1, #918
 1433 0220 FEFFFFEB 		bl	__assert_func
 1434              	.L161:
 1435 0224 003000E3 		movw	r3, #:lower16:.LC23
 1436 0228 002000E3 		movw	r2, #:lower16:.LANCHOR12
 1437 022c 000000E3 		movw	r0, #:lower16:.LC19
 1438 0230 003040E3 		movt	r3, #:upper16:.LC23
 1439 0234 002040E3 		movt	r2, #:upper16:.LANCHOR12
 1440 0238 000040E3 		movt	r0, #:upper16:.LC19
 1441 023c 9A1300E3 		movw	r1, #922
 1442 0240 FEFFFFEB 		bl	__assert_func
 1443              	.L155:
 1444 0244 003000E3 		movw	r3, #:lower16:.LC18
 1445 0248 002000E3 		movw	r2, #:lower16:.LANCHOR9
 1446 024c 000000E3 		movw	r0, #:lower16:.LC19
 1447 0250 003040E3 		movt	r3, #:upper16:.LC18
 1448 0254 002040E3 		movt	r2, #:upper16:.LANCHOR9
 1449 0258 000040E3 		movt	r0, #:upper16:.LC19
 1450 025c 691200E3 		movw	r1, #617
 1451 0260 FEFFFFEB 		bl	__assert_func
 1452              		.fnend
 1454              		.section	.text._ZN11flatbuffers17FlatBufferBuilder11StartVectorEjj.constprop.148,"ax",%progbits
 1455              		.align	2
 1456              		.syntax unified
 1457              		.arm
 1458              		.fpu neon
 1460              	_ZN11flatbuffers17FlatBufferBuilder11StartVectorEjj.constprop.148:
 1461              		.fnstart
 1462              	.LFB11809:
 1463              		@ args = 0, pretend = 0, frame = 0
 1464              		@ frame_needed = 0, uses_anonymous_args = 0
 1465 0000 2620D0E5 		ldrb	r2, [r0, #38]	@ zero_extendqisi2
 1466 0004 70402DE9 		push	{r4, r5, r6, lr}
 1467              		.save {r4, r5, r6, lr}
 1468 0008 203090E5 		ldr	r3, [r0, #32]
 1469 000c 000052E3 		cmp	r2, #0
 1470 0010 3A00001A 		bne	.L189
 1471 0014 000053E3 		cmp	r3, #0
 1472 0018 4000001A 		bne	.L190
 1473 001c 283090E5 		ldr	r3, [r0, #40]
 1474 0020 0120A0E3 		mov	r2, #1
 1475 0024 2620C0E5 		strb	r2, [r0, #38]
 1476 0028 0040A0E1 		mov	r4, r0
 1477 002c 185090E5 		ldr	r5, [r0, #24]
 1478 0030 030053E3 		cmp	r3, #3
 1479 0034 142090E5 		ldr	r2, [r0, #20]
 1480 0038 0430A093 		movls	r3, #4
 1481 003c 28308095 		strls	r3, [r0, #40]
 1482 0040 103090E5 		ldr	r3, [r0, #16]
 1483 0044 025045E0 		sub	r5, r5, r2
 1484 0048 035045E0 		sub	r5, r5, r3
 1485 004c 035005E2 		and	r5, r5, #3
 1486 0050 0510A0E1 		mov	r1, r5
 1487 0054 FEFFFFEB 		bl	_ZN11flatbuffers15vector_downward12ensure_spaceEj
 1488 0058 183094E5 		ldr	r3, [r4, #24]
 1489 005c 000055E3 		cmp	r5, #0
 1490 0060 003043E0 		sub	r3, r3, r0
 1491 0064 183084E5 		str	r3, [r4, #24]
 1492 0068 0900000A 		beq	.L166
 1493 006c 010055E3 		cmp	r5, #1
 1494 0070 0020A0E3 		mov	r2, #0
 1495 0074 0020C3E5 		strb	r2, [r3]
 1496 0078 0400000A 		beq	.L167
 1497 007c 183094E5 		ldr	r3, [r4, #24]
 1498 0080 020055E3 		cmp	r5, #2
 1499 0084 0120C3E5 		strb	r2, [r3, #1]
 1500 0088 18309415 		ldrne	r3, [r4, #24]
 1501 008c 0220C315 		strbne	r2, [r3, #2]
 1502              	.L167:
 1503 0090 183094E5 		ldr	r3, [r4, #24]
 1504              	.L166:
 1505 0094 282094E5 		ldr	r2, [r4, #40]
 1506 0098 0400A0E1 		mov	r0, r4
 1507 009c 145094E5 		ldr	r5, [r4, #20]
 1508 00a0 030052E3 		cmp	r2, #3
 1509 00a4 0420A093 		movls	r2, #4
 1510 00a8 055043E0 		sub	r5, r3, r5
 1511 00ac 28208495 		strls	r2, [r4, #40]
 1512 00b0 102094E5 		ldr	r2, [r4, #16]
 1513 00b4 025045E0 		sub	r5, r5, r2
 1514 00b8 035005E2 		and	r5, r5, #3
 1515 00bc 0510A0E1 		mov	r1, r5
 1516 00c0 FEFFFFEB 		bl	_ZN11flatbuffers15vector_downward12ensure_spaceEj
 1517 00c4 183094E5 		ldr	r3, [r4, #24]
 1518 00c8 000055E3 		cmp	r5, #0
 1519 00cc 000043E0 		sub	r0, r3, r0
 1520 00d0 180084E5 		str	r0, [r4, #24]
 1521 00d4 7080BD08 		popeq	{r4, r5, r6, pc}
 1522 00d8 0030A0E3 		mov	r3, #0
 1523 00dc 010055E3 		cmp	r5, #1
 1524 00e0 0030C0E5 		strb	r3, [r0]
 1525 00e4 7080BD08 		popeq	{r4, r5, r6, pc}
 1526 00e8 182094E5 		ldr	r2, [r4, #24]
 1527 00ec 020055E3 		cmp	r5, #2
 1528 00f0 0130C2E5 		strb	r3, [r2, #1]
 1529 00f4 18209415 		ldrne	r2, [r4, #24]
 1530 00f8 0230C215 		strbne	r3, [r2, #2]
 1531 00fc 7080BDE8 		pop	{r4, r5, r6, pc}
 1532              	.L189:
 1533 0100 003000E3 		movw	r3, #:lower16:.LC24
 1534 0104 002000E3 		movw	r2, #:lower16:.LANCHOR11
 1535 0108 000000E3 		movw	r0, #:lower16:.LC19
 1536 010c 003040E3 		movt	r3, #:upper16:.LC24
 1537 0110 002040E3 		movt	r2, #:upper16:.LANCHOR11
 1538 0114 000040E3 		movt	r0, #:upper16:.LC19
 1539 0118 481500E3 		movw	r1, #1352
 1540 011c FEFFFFEB 		bl	__assert_func
 1541              	.L190:
 1542 0120 FEFFFFEB 		bl	_ZN11flatbuffers17FlatBufferBuilder9NotNestedEv.isra.20.part.21
 1543              		.fnend
 1545              		.section	.text._ZN11flatbuffers17FlatBufferBuilder10AddElementImEEvtT_S2_.part.45,"ax",%progbits
 1546              		.align	2
 1547              		.syntax unified
 1548              		.arm
 1549              		.fpu neon
 1551              	_ZN11flatbuffers17FlatBufferBuilder10AddElementImEEvtT_S2_.part.45:
 1552              		.fnstart
 1553              	.LFB11724:
 1554              		@ args = 0, pretend = 0, frame = 0
 1555              		@ frame_needed = 0, uses_anonymous_args = 0
 1556 0000 283090E5 		ldr	r3, [r0, #40]
 1557 0004 F0412DE9 		push	{r4, r5, r6, r7, r8, lr}
 1558              		.save {r4, r5, r6, r7, r8, lr}
 1559 0008 0270A0E1 		mov	r7, r2
 1560 000c 185090E5 		ldr	r5, [r0, #24]
 1561 0010 0040A0E1 		mov	r4, r0
 1562 0014 030053E3 		cmp	r3, #3
 1563 0018 0160A0E1 		mov	r6, r1
 1564 001c 0430A093 		movls	r3, #4
 1565 0020 142090E5 		ldr	r2, [r0, #20]
 1566 0024 28308095 		strls	r3, [r0, #40]
 1567 0028 103090E5 		ldr	r3, [r0, #16]
 1568 002c 025045E0 		sub	r5, r5, r2
 1569 0030 035045E0 		sub	r5, r5, r3
 1570 0034 035005E2 		and	r5, r5, #3
 1571 0038 0510A0E1 		mov	r1, r5
 1572 003c FEFFFFEB 		bl	_ZN11flatbuffers15vector_downward12ensure_spaceEj
 1573 0040 183094E5 		ldr	r3, [r4, #24]
 1574 0044 000055E3 		cmp	r5, #0
 1575 0048 000043E0 		sub	r0, r3, r0
 1576 004c 180084E5 		str	r0, [r4, #24]
 1577 0050 0800000A 		beq	.L193
 1578 0054 010055E3 		cmp	r5, #1
 1579 0058 0030A0E3 		mov	r3, #0
 1580 005c 0030C0E5 		strb	r3, [r0]
 1581 0060 0400000A 		beq	.L193
 1582 0064 182094E5 		ldr	r2, [r4, #24]
 1583 0068 020055E3 		cmp	r5, #2
 1584 006c 0130C2E5 		strb	r3, [r2, #1]
 1585 0070 18209415 		ldrne	r2, [r4, #24]
 1586 0074 0230C215 		strbne	r3, [r2, #2]
 1587              	.L193:
 1588 0078 0410A0E3 		mov	r1, #4
 1589 007c 0400A0E1 		mov	r0, r4
 1590 0080 FEFFFFEB 		bl	_ZN11flatbuffers15vector_downward12ensure_spaceEj
 1591 0084 183094E5 		ldr	r3, [r4, #24]
 1592 0088 0810A0E3 		mov	r1, #8
 1593 008c 142094E5 		ldr	r2, [r4, #20]
 1594 0090 105094E5 		ldr	r5, [r4, #16]
 1595 0094 003043E0 		sub	r3, r3, r0
 1596 0098 0400A0E1 		mov	r0, r4
 1597 009c 022043E0 		sub	r2, r3, r2
 1598 00a0 183084E5 		str	r3, [r4, #24]
 1599 00a4 007083E5 		str	r7, [r3]
 1600 00a8 025045E0 		sub	r5, r5, r2
 1601 00ac FEFFFFEB 		bl	_ZN11flatbuffers15vector_downward12ensure_spaceEj
 1602 00b0 1C2094E5 		ldr	r2, [r4, #28]
 1603 00b4 203094E5 		ldr	r3, [r4, #32]
 1604 00b8 081082E2 		add	r1, r2, #8
 1605 00bc B460C2E1 		strh	r6, [r2, #4]	@ movhi
 1606 00c0 005082E5 		str	r5, [r2]
 1607 00c4 013083E2 		add	r3, r3, #1
 1608 00c8 B422D4E1 		ldrh	r2, [r4, #36]
 1609 00cc 1C1084E5 		str	r1, [r4, #28]
 1610 00d0 203084E5 		str	r3, [r4, #32]
 1611 00d4 020056E1 		cmp	r6, r2
 1612 00d8 0260A0B1 		movlt	r6, r2
 1613 00dc B462C4E1 		strh	r6, [r4, #36]	@ movhi
 1614 00e0 F081BDE8 		pop	{r4, r5, r6, r7, r8, pc}
 1615              		.fnend
 1617              		.section	.text._ZN11flatbuffers17FlatBufferBuilder12CreateVectorIN6tflite6BufferEEENS_6OffsetINS_6
 1618              		.align	2
 1619              		.syntax unified
 1620              		.arm
 1621              		.fpu neon
 1623              	_ZN11flatbuffers17FlatBufferBuilder12CreateVectorIN6tflite6BufferEEENS_6OffsetINS_6VectorINS4_IT_EE
 1624              		.fnstart
 1625              	.LFB11821:
 1626              		@ args = 0, pretend = 0, frame = 0
 1627              		@ frame_needed = 0, uses_anonymous_args = 0
 1628 0000 70402DE9 		push	{r4, r5, r6, lr}
 1629              		.save {r4, r5, r6, lr}
 1630 0004 0040A0E1 		mov	r4, r0
 1631 0008 0150A0E1 		mov	r5, r1
 1632 000c 0110A0E3 		mov	r1, #1
 1633 0010 FEFFFFEB 		bl	_ZN11flatbuffers17FlatBufferBuilder11StartVectorEjj.constprop.148
 1634 0014 283094E5 		ldr	r3, [r4, #40]
 1635 0018 0400A0E1 		mov	r0, r4
 1636 001c 006095E5 		ldr	r6, [r5]
 1637 0020 142094E5 		ldr	r2, [r4, #20]
 1638 0024 030053E3 		cmp	r3, #3
 1639 0028 185094E5 		ldr	r5, [r4, #24]
 1640 002c 0430A093 		movls	r3, #4
 1641 0030 28308495 		strls	r3, [r4, #40]
 1642 0034 103094E5 		ldr	r3, [r4, #16]
 1643 0038 025045E0 		sub	r5, r5, r2
 1644 003c 035045E0 		sub	r5, r5, r3
 1645 0040 035005E2 		and	r5, r5, #3
 1646 0044 0510A0E1 		mov	r1, r5
 1647 0048 FEFFFFEB 		bl	_ZN11flatbuffers15vector_downward12ensure_spaceEj
 1648 004c 183094E5 		ldr	r3, [r4, #24]
 1649 0050 000055E3 		cmp	r5, #0
 1650 0054 000043E0 		sub	r0, r3, r0
 1651 0058 180084E5 		str	r0, [r4, #24]
 1652 005c 0800000A 		beq	.L207
 1653 0060 010055E3 		cmp	r5, #1
 1654 0064 0030A0E3 		mov	r3, #0
 1655 0068 0030C0E5 		strb	r3, [r0]
 1656 006c 0400000A 		beq	.L207
 1657 0070 182094E5 		ldr	r2, [r4, #24]
 1658 0074 020055E3 		cmp	r5, #2
 1659 0078 0130C2E5 		strb	r3, [r2, #1]
 1660 007c 18209415 		ldrne	r2, [r4, #24]
 1661 0080 0230C215 		strbne	r3, [r2, #2]
 1662              	.L207:
 1663 0084 000056E3 		cmp	r6, #0
 1664 0088 5300000A 		beq	.L208
 1665 008c 182094E5 		ldr	r2, [r4, #24]
 1666 0090 141094E5 		ldr	r1, [r4, #20]
 1667 0094 103094E5 		ldr	r3, [r4, #16]
 1668 0098 012042E0 		sub	r2, r2, r1
 1669 009c 023043E0 		sub	r3, r3, r2
 1670 00a0 030056E1 		cmp	r6, r3
 1671 00a4 4C00008A 		bhi	.L208
 1672 00a8 282094E5 		ldr	r2, [r4, #40]
 1673 00ac 046066E2 		rsb	r6, r6, #4
 1674 00b0 036086E0 		add	r6, r6, r3
 1675 00b4 003063E2 		rsb	r3, r3, #0
 1676 00b8 035003E2 		and	r5, r3, #3
 1677 00bc 0400A0E1 		mov	r0, r4
 1678 00c0 030052E3 		cmp	r2, #3
 1679 00c4 0510A0E1 		mov	r1, r5
 1680 00c8 0420A093 		movls	r2, #4
 1681 00cc 28208495 		strls	r2, [r4, #40]
 1682 00d0 FEFFFFEB 		bl	_ZN11flatbuffers15vector_downward12ensure_spaceEj
 1683 00d4 183094E5 		ldr	r3, [r4, #24]
 1684 00d8 000055E3 		cmp	r5, #0
 1685 00dc 000043E0 		sub	r0, r3, r0
 1686 00e0 180084E5 		str	r0, [r4, #24]
 1687 00e4 0800000A 		beq	.L210
 1688 00e8 010055E3 		cmp	r5, #1
 1689 00ec 0030A0E3 		mov	r3, #0
 1690 00f0 0030C0E5 		strb	r3, [r0]
 1691 00f4 0400000A 		beq	.L210
 1692 00f8 182094E5 		ldr	r2, [r4, #24]
 1693 00fc 020055E3 		cmp	r5, #2
 1694 0100 0130C2E5 		strb	r3, [r2, #1]
 1695 0104 18209415 		ldrne	r2, [r4, #24]
 1696 0108 0230C215 		strbne	r3, [r2, #2]
 1697              	.L210:
 1698 010c 0410A0E3 		mov	r1, #4
 1699 0110 0400A0E1 		mov	r0, r4
 1700 0114 FEFFFFEB 		bl	_ZN11flatbuffers15vector_downward12ensure_spaceEj
 1701 0118 182094E5 		ldr	r2, [r4, #24]
 1702 011c 26C0D4E5 		ldrb	ip, [r4, #38]	@ zero_extendqisi2
 1703 0120 141094E5 		ldr	r1, [r4, #20]
 1704 0124 103094E5 		ldr	r3, [r4, #16]
 1705 0128 000042E0 		sub	r0, r2, r0
 1706 012c 00005CE3 		cmp	ip, #0
 1707 0130 180084E5 		str	r0, [r4, #24]
 1708 0134 011040E0 		sub	r1, r0, r1
 1709 0138 006080E5 		str	r6, [r0]
 1710 013c 013043E0 		sub	r3, r3, r1
 1711 0140 2D00000A 		beq	.L248
 1712 0144 282094E5 		ldr	r2, [r4, #40]
 1713 0148 003063E2 		rsb	r3, r3, #0
 1714 014c 035003E2 		and	r5, r3, #3
 1715 0150 0010A0E3 		mov	r1, #0
 1716 0154 2610C4E5 		strb	r1, [r4, #38]
 1717 0158 0400A0E1 		mov	r0, r4
 1718 015c 030052E3 		cmp	r2, #3
 1719 0160 0510A0E1 		mov	r1, r5
 1720 0164 0420A093 		movls	r2, #4
 1721 0168 28208495 		strls	r2, [r4, #40]
 1722 016c FEFFFFEB 		bl	_ZN11flatbuffers15vector_downward12ensure_spaceEj
 1723 0170 183094E5 		ldr	r3, [r4, #24]
 1724 0174 000055E3 		cmp	r5, #0
 1725 0178 000043E0 		sub	r0, r3, r0
 1726 017c 180084E5 		str	r0, [r4, #24]
 1727 0180 0800000A 		beq	.L214
 1728 0184 010055E3 		cmp	r5, #1
 1729 0188 0030A0E3 		mov	r3, #0
 1730 018c 0030C0E5 		strb	r3, [r0]
 1731 0190 0400000A 		beq	.L214
 1732 0194 182094E5 		ldr	r2, [r4, #24]
 1733 0198 020055E3 		cmp	r5, #2
 1734 019c 0130C2E5 		strb	r3, [r2, #1]
 1735 01a0 18209415 		ldrne	r2, [r4, #24]
 1736 01a4 0230C215 		strbne	r3, [r2, #2]
 1737              	.L214:
 1738 01a8 0410A0E3 		mov	r1, #4
 1739 01ac 0400A0E1 		mov	r0, r4
 1740 01b0 FEFFFFEB 		bl	_ZN11flatbuffers15vector_downward12ensure_spaceEj
 1741 01b4 183094E5 		ldr	r3, [r4, #24]
 1742 01b8 0110A0E3 		mov	r1, #1
 1743 01bc 142094E5 		ldr	r2, [r4, #20]
 1744 01c0 10C094E5 		ldr	ip, [r4, #16]
 1745 01c4 003043E0 		sub	r3, r3, r0
 1746 01c8 022043E0 		sub	r2, r3, r2
 1747 01cc 183084E5 		str	r3, [r4, #24]
 1748 01d0 02004CE0 		sub	r0, ip, r2
 1749 01d4 001083E5 		str	r1, [r3]
 1750 01d8 7080BDE8 		pop	{r4, r5, r6, pc}
 1751              	.L208:
 1752 01dc 003000E3 		movw	r3, #:lower16:.LC25
 1753 01e0 002000E3 		movw	r2, #:lower16:.LANCHOR13
 1754 01e4 000000E3 		movw	r0, #:lower16:.LC19
 1755 01e8 003040E3 		movt	r3, #:upper16:.LC25
 1756 01ec 002040E3 		movt	r2, #:upper16:.LANCHOR13
 1757 01f0 000040E3 		movt	r0, #:upper16:.LC19
 1758 01f4 3B1500E3 		movw	r1, #1339
 1759 01f8 FEFFFFEB 		bl	__assert_func
 1760              	.L248:
 1761 01fc 003000E3 		movw	r3, #:lower16:.LC26
 1762 0200 002000E3 		movw	r2, #:lower16:.LANCHOR14
 1763 0204 000000E3 		movw	r0, #:lower16:.LC19
 1764 0208 003040E3 		movt	r3, #:upper16:.LC26
 1765 020c 002040E3 		movt	r2, #:upper16:.LANCHOR14
 1766 0210 000040E3 		movt	r0, #:upper16:.LC19
 1767 0214 2C1600E3 		movw	r1, #1580
 1768 0218 FEFFFFEB 		bl	__assert_func
 1769              		.fnend
 1771              		.section	.text._ZN11flatbuffers17FlatBufferBuilder12CreateVectorIN6tflite6TensorEEENS_6OffsetINS_6
 1772              		.align	2
 1773              		.syntax unified
 1774              		.arm
 1775              		.fpu neon
 1777              	_ZN11flatbuffers17FlatBufferBuilder12CreateVectorIN6tflite6TensorEEENS_6OffsetINS_6VectorINS4_IT_EE
 1778              		.fnstart
 1779              	.LFB11832:
 1780              		@ args = 0, pretend = 0, frame = 0
 1781              		@ frame_needed = 0, uses_anonymous_args = 0
 1782 0000 F0472DE9 		push	{r4, r5, r6, r7, r8, r9, r10, lr}
 1783              		.save {r4, r5, r6, r7, r8, r9, r10, lr}
 1784 0004 0190A0E1 		mov	r9, r1
 1785 0008 0040A0E1 		mov	r4, r0
 1786 000c 0410A0E3 		mov	r1, #4
 1787 0010 107089E2 		add	r7, r9, #16
 1788 0014 0480A0E3 		mov	r8, #4
 1789 0018 FEFFFFEB 		bl	_ZN11flatbuffers17FlatBufferBuilder11StartVectorEjj.constprop.148
 1790 001c 185094E5 		ldr	r5, [r4, #24]
 1791 0020 0060A0E3 		mov	r6, #0
 1792              	.L256:
 1793 0024 282094E5 		ldr	r2, [r4, #40]
 1794 0028 0400A0E1 		mov	r0, r4
 1795 002c 143094E5 		ldr	r3, [r4, #20]
 1796 0030 04A037E5 		ldr	r10, [r7, #-4]!
 1797 0034 030052E3 		cmp	r2, #3
 1798 0038 102094E5 		ldr	r2, [r4, #16]
 1799 003c 035045E0 		sub	r5, r5, r3
 1800 0040 28808495 		strls	r8, [r4, #40]
 1801 0044 025045E0 		sub	r5, r5, r2
 1802 0048 035005E2 		and	r5, r5, #3
 1803 004c 0510A0E1 		mov	r1, r5
 1804 0050 FEFFFFEB 		bl	_ZN11flatbuffers15vector_downward12ensure_spaceEj
 1805 0054 183094E5 		ldr	r3, [r4, #24]
 1806 0058 000055E3 		cmp	r5, #0
 1807 005c 000043E0 		sub	r0, r3, r0
 1808 0060 180084E5 		str	r0, [r4, #24]
 1809 0064 0700000A 		beq	.L251
 1810 0068 010055E3 		cmp	r5, #1
 1811 006c 0060C0E5 		strb	r6, [r0]
 1812 0070 0400000A 		beq	.L251
 1813 0074 183094E5 		ldr	r3, [r4, #24]
 1814 0078 020055E3 		cmp	r5, #2
 1815 007c 0160C3E5 		strb	r6, [r3, #1]
 1816 0080 18309415 		ldrne	r3, [r4, #24]
 1817 0084 0260C315 		strbne	r6, [r3, #2]
 1818              	.L251:
 1819 0088 00005AE3 		cmp	r10, #0
 1820 008c 5200000A 		beq	.L252
 1821 0090 183094E5 		ldr	r3, [r4, #24]
 1822 0094 142094E5 		ldr	r2, [r4, #20]
 1823 0098 105094E5 		ldr	r5, [r4, #16]
 1824 009c 023043E0 		sub	r3, r3, r2
 1825 00a0 035045E0 		sub	r5, r5, r3
 1826 00a4 0A0055E1 		cmp	r5, r10
 1827 00a8 4B00003A 		bcc	.L252
 1828 00ac 283094E5 		ldr	r3, [r4, #40]
 1829 00b0 04A06AE2 		rsb	r10, r10, #4
 1830 00b4 05A08AE0 		add	r10, r10, r5
 1831 00b8 005065E2 		rsb	r5, r5, #0
 1832 00bc 035005E2 		and	r5, r5, #3
 1833 00c0 0400A0E1 		mov	r0, r4
 1834 00c4 030053E3 		cmp	r3, #3
 1835 00c8 0510A0E1 		mov	r1, r5
 1836 00cc 28808495 		strls	r8, [r4, #40]
 1837 00d0 FEFFFFEB 		bl	_ZN11flatbuffers15vector_downward12ensure_spaceEj
 1838 00d4 183094E5 		ldr	r3, [r4, #24]
 1839 00d8 000055E3 		cmp	r5, #0
 1840 00dc 000043E0 		sub	r0, r3, r0
 1841 00e0 180084E5 		str	r0, [r4, #24]
 1842 00e4 0700000A 		beq	.L255
 1843 00e8 010055E3 		cmp	r5, #1
 1844 00ec 0060C0E5 		strb	r6, [r0]
 1845 00f0 0400000A 		beq	.L255
 1846 00f4 183094E5 		ldr	r3, [r4, #24]
 1847 00f8 020055E3 		cmp	r5, #2
 1848 00fc 0160C3E5 		strb	r6, [r3, #1]
 1849 0100 18309415 		ldrne	r3, [r4, #24]
 1850 0104 0260C315 		strbne	r6, [r3, #2]
 1851              	.L255:
 1852 0108 0410A0E3 		mov	r1, #4
 1853 010c 0400A0E1 		mov	r0, r4
 1854 0110 FEFFFFEB 		bl	_ZN11flatbuffers15vector_downward12ensure_spaceEj
 1855 0114 185094E5 		ldr	r5, [r4, #24]
 1856 0118 090057E1 		cmp	r7, r9
 1857 011c 005045E0 		sub	r5, r5, r0
 1858 0120 185084E5 		str	r5, [r4, #24]
 1859 0124 00A085E5 		str	r10, [r5]
 1860 0128 BDFFFF1A 		bne	.L256
 1861 012c 2620D4E5 		ldrb	r2, [r4, #38]	@ zero_extendqisi2
 1862 0130 000052E3 		cmp	r2, #0
 1863 0134 3000000A 		beq	.L292
 1864 0138 282094E5 		ldr	r2, [r4, #40]
 1865 013c 0010A0E3 		mov	r1, #0
 1866 0140 143094E5 		ldr	r3, [r4, #20]
 1867 0144 0400A0E1 		mov	r0, r4
 1868 0148 2610C4E5 		strb	r1, [r4, #38]
 1869 014c 030052E3 		cmp	r2, #3
 1870 0150 0420A093 		movls	r2, #4
 1871 0154 035045E0 		sub	r5, r5, r3
 1872 0158 28208495 		strls	r2, [r4, #40]
 1873 015c 102094E5 		ldr	r2, [r4, #16]
 1874 0160 025045E0 		sub	r5, r5, r2
 1875 0164 035005E2 		and	r5, r5, #3
 1876 0168 0510A0E1 		mov	r1, r5
 1877 016c FEFFFFEB 		bl	_ZN11flatbuffers15vector_downward12ensure_spaceEj
 1878 0170 183094E5 		ldr	r3, [r4, #24]
 1879 0174 000055E3 		cmp	r5, #0
 1880 0178 000043E0 		sub	r0, r3, r0
 1881 017c 180084E5 		str	r0, [r4, #24]
 1882 0180 0800000A 		beq	.L259
 1883 0184 010055E3 		cmp	r5, #1
 1884 0188 0030A0E3 		mov	r3, #0
 1885 018c 0030C0E5 		strb	r3, [r0]
 1886 0190 0400000A 		beq	.L259
 1887 0194 182094E5 		ldr	r2, [r4, #24]
 1888 0198 020055E3 		cmp	r5, #2
 1889 019c 0130C2E5 		strb	r3, [r2, #1]
 1890 01a0 18209415 		ldrne	r2, [r4, #24]
 1891 01a4 0230C215 		strbne	r3, [r2, #2]
 1892              	.L259:
 1893 01a8 0410A0E3 		mov	r1, #4
 1894 01ac 0400A0E1 		mov	r0, r4
 1895 01b0 FEFFFFEB 		bl	_ZN11flatbuffers15vector_downward12ensure_spaceEj
 1896 01b4 183094E5 		ldr	r3, [r4, #24]
 1897 01b8 0410A0E3 		mov	r1, #4
 1898 01bc 142094E5 		ldr	r2, [r4, #20]
 1899 01c0 10C094E5 		ldr	ip, [r4, #16]
 1900 01c4 003043E0 		sub	r3, r3, r0
 1901 01c8 022043E0 		sub	r2, r3, r2
 1902 01cc 183084E5 		str	r3, [r4, #24]
 1903 01d0 02004CE0 		sub	r0, ip, r2
 1904 01d4 001083E5 		str	r1, [r3]
 1905 01d8 F087BDE8 		pop	{r4, r5, r6, r7, r8, r9, r10, pc}
 1906              	.L252:
 1907 01dc 003000E3 		movw	r3, #:lower16:.LC25
 1908 01e0 002000E3 		movw	r2, #:lower16:.LANCHOR13
 1909 01e4 000000E3 		movw	r0, #:lower16:.LC19
 1910 01e8 003040E3 		movt	r3, #:upper16:.LC25
 1911 01ec 002040E3 		movt	r2, #:upper16:.LANCHOR13
 1912 01f0 000040E3 		movt	r0, #:upper16:.LC19
 1913 01f4 3B1500E3 		movw	r1, #1339
 1914 01f8 FEFFFFEB 		bl	__assert_func
 1915              	.L292:
 1916 01fc 003000E3 		movw	r3, #:lower16:.LC26
 1917 0200 002000E3 		movw	r2, #:lower16:.LANCHOR14
 1918 0204 000000E3 		movw	r0, #:lower16:.LC19
 1919 0208 003040E3 		movt	r3, #:upper16:.LC26
 1920 020c 002040E3 		movt	r2, #:upper16:.LANCHOR14
 1921 0210 000040E3 		movt	r0, #:upper16:.LC19
 1922 0214 2C1600E3 		movw	r1, #1580
 1923 0218 FEFFFFEB 		bl	__assert_func
 1924              		.fnend
 1926              		.section	.text._ZN11flatbuffers17FlatBufferBuilder12CreateVectorIN6tflite8OperatorEEENS_6OffsetINS
 1927              		.align	2
 1928              		.syntax unified
 1929              		.arm
 1930              		.fpu neon
 1932              	_ZN11flatbuffers17FlatBufferBuilder12CreateVectorIN6tflite8OperatorEEENS_6OffsetINS_6VectorINS4_IT_
 1933              		.fnstart
 1934              	.LFB11828:
 1935              		@ args = 0, pretend = 0, frame = 0
 1936              		@ frame_needed = 0, uses_anonymous_args = 0
 1937 0000 70402DE9 		push	{r4, r5, r6, lr}
 1938              		.save {r4, r5, r6, lr}
 1939 0004 0040A0E1 		mov	r4, r0
 1940 0008 0150A0E1 		mov	r5, r1
 1941 000c 0110A0E3 		mov	r1, #1
 1942 0010 FEFFFFEB 		bl	_ZN11flatbuffers17FlatBufferBuilder11StartVectorEjj.constprop.148
 1943 0014 283094E5 		ldr	r3, [r4, #40]
 1944 0018 0400A0E1 		mov	r0, r4
 1945 001c 006095E5 		ldr	r6, [r5]
 1946 0020 142094E5 		ldr	r2, [r4, #20]
 1947 0024 030053E3 		cmp	r3, #3
 1948 0028 185094E5 		ldr	r5, [r4, #24]
 1949 002c 0430A093 		movls	r3, #4
 1950 0030 28308495 		strls	r3, [r4, #40]
 1951 0034 103094E5 		ldr	r3, [r4, #16]
 1952 0038 025045E0 		sub	r5, r5, r2
 1953 003c 035045E0 		sub	r5, r5, r3
 1954 0040 035005E2 		and	r5, r5, #3
 1955 0044 0510A0E1 		mov	r1, r5
 1956 0048 FEFFFFEB 		bl	_ZN11flatbuffers15vector_downward12ensure_spaceEj
 1957 004c 183094E5 		ldr	r3, [r4, #24]
 1958 0050 000055E3 		cmp	r5, #0
 1959 0054 000043E0 		sub	r0, r3, r0
 1960 0058 180084E5 		str	r0, [r4, #24]
 1961 005c 0800000A 		beq	.L295
 1962 0060 010055E3 		cmp	r5, #1
 1963 0064 0030A0E3 		mov	r3, #0
 1964 0068 0030C0E5 		strb	r3, [r0]
 1965 006c 0400000A 		beq	.L295
 1966 0070 182094E5 		ldr	r2, [r4, #24]
 1967 0074 020055E3 		cmp	r5, #2
 1968 0078 0130C2E5 		strb	r3, [r2, #1]
 1969 007c 18209415 		ldrne	r2, [r4, #24]
 1970 0080 0230C215 		strbne	r3, [r2, #2]
 1971              	.L295:
 1972 0084 000056E3 		cmp	r6, #0
 1973 0088 5300000A 		beq	.L296
 1974 008c 182094E5 		ldr	r2, [r4, #24]
 1975 0090 141094E5 		ldr	r1, [r4, #20]
 1976 0094 103094E5 		ldr	r3, [r4, #16]
 1977 0098 012042E0 		sub	r2, r2, r1
 1978 009c 023043E0 		sub	r3, r3, r2
 1979 00a0 030056E1 		cmp	r6, r3
 1980 00a4 4C00008A 		bhi	.L296
 1981 00a8 282094E5 		ldr	r2, [r4, #40]
 1982 00ac 046066E2 		rsb	r6, r6, #4
 1983 00b0 036086E0 		add	r6, r6, r3
 1984 00b4 003063E2 		rsb	r3, r3, #0
 1985 00b8 035003E2 		and	r5, r3, #3
 1986 00bc 0400A0E1 		mov	r0, r4
 1987 00c0 030052E3 		cmp	r2, #3
 1988 00c4 0510A0E1 		mov	r1, r5
 1989 00c8 0420A093 		movls	r2, #4
 1990 00cc 28208495 		strls	r2, [r4, #40]
 1991 00d0 FEFFFFEB 		bl	_ZN11flatbuffers15vector_downward12ensure_spaceEj
 1992 00d4 183094E5 		ldr	r3, [r4, #24]
 1993 00d8 000055E3 		cmp	r5, #0
 1994 00dc 000043E0 		sub	r0, r3, r0
 1995 00e0 180084E5 		str	r0, [r4, #24]
 1996 00e4 0800000A 		beq	.L298
 1997 00e8 010055E3 		cmp	r5, #1
 1998 00ec 0030A0E3 		mov	r3, #0
 1999 00f0 0030C0E5 		strb	r3, [r0]
 2000 00f4 0400000A 		beq	.L298
 2001 00f8 182094E5 		ldr	r2, [r4, #24]
 2002 00fc 020055E3 		cmp	r5, #2
 2003 0100 0130C2E5 		strb	r3, [r2, #1]
 2004 0104 18209415 		ldrne	r2, [r4, #24]
 2005 0108 0230C215 		strbne	r3, [r2, #2]
 2006              	.L298:
 2007 010c 0410A0E3 		mov	r1, #4
 2008 0110 0400A0E1 		mov	r0, r4
 2009 0114 FEFFFFEB 		bl	_ZN11flatbuffers15vector_downward12ensure_spaceEj
 2010 0118 182094E5 		ldr	r2, [r4, #24]
 2011 011c 26C0D4E5 		ldrb	ip, [r4, #38]	@ zero_extendqisi2
 2012 0120 141094E5 		ldr	r1, [r4, #20]
 2013 0124 103094E5 		ldr	r3, [r4, #16]
 2014 0128 000042E0 		sub	r0, r2, r0
 2015 012c 00005CE3 		cmp	ip, #0
 2016 0130 180084E5 		str	r0, [r4, #24]
 2017 0134 011040E0 		sub	r1, r0, r1
 2018 0138 006080E5 		str	r6, [r0]
 2019 013c 013043E0 		sub	r3, r3, r1
 2020 0140 2D00000A 		beq	.L336
 2021 0144 282094E5 		ldr	r2, [r4, #40]
 2022 0148 003063E2 		rsb	r3, r3, #0
 2023 014c 035003E2 		and	r5, r3, #3
 2024 0150 0010A0E3 		mov	r1, #0
 2025 0154 2610C4E5 		strb	r1, [r4, #38]
 2026 0158 0400A0E1 		mov	r0, r4
 2027 015c 030052E3 		cmp	r2, #3
 2028 0160 0510A0E1 		mov	r1, r5
 2029 0164 0420A093 		movls	r2, #4
 2030 0168 28208495 		strls	r2, [r4, #40]
 2031 016c FEFFFFEB 		bl	_ZN11flatbuffers15vector_downward12ensure_spaceEj
 2032 0170 183094E5 		ldr	r3, [r4, #24]
 2033 0174 000055E3 		cmp	r5, #0
 2034 0178 000043E0 		sub	r0, r3, r0
 2035 017c 180084E5 		str	r0, [r4, #24]
 2036 0180 0800000A 		beq	.L302
 2037 0184 010055E3 		cmp	r5, #1
 2038 0188 0030A0E3 		mov	r3, #0
 2039 018c 0030C0E5 		strb	r3, [r0]
 2040 0190 0400000A 		beq	.L302
 2041 0194 182094E5 		ldr	r2, [r4, #24]
 2042 0198 020055E3 		cmp	r5, #2
 2043 019c 0130C2E5 		strb	r3, [r2, #1]
 2044 01a0 18209415 		ldrne	r2, [r4, #24]
 2045 01a4 0230C215 		strbne	r3, [r2, #2]
 2046              	.L302:
 2047 01a8 0410A0E3 		mov	r1, #4
 2048 01ac 0400A0E1 		mov	r0, r4
 2049 01b0 FEFFFFEB 		bl	_ZN11flatbuffers15vector_downward12ensure_spaceEj
 2050 01b4 183094E5 		ldr	r3, [r4, #24]
 2051 01b8 0110A0E3 		mov	r1, #1
 2052 01bc 142094E5 		ldr	r2, [r4, #20]
 2053 01c0 10C094E5 		ldr	ip, [r4, #16]
 2054 01c4 003043E0 		sub	r3, r3, r0
 2055 01c8 022043E0 		sub	r2, r3, r2
 2056 01cc 183084E5 		str	r3, [r4, #24]
 2057 01d0 02004CE0 		sub	r0, ip, r2
 2058 01d4 001083E5 		str	r1, [r3]
 2059 01d8 7080BDE8 		pop	{r4, r5, r6, pc}
 2060              	.L296:
 2061 01dc 003000E3 		movw	r3, #:lower16:.LC25
 2062 01e0 002000E3 		movw	r2, #:lower16:.LANCHOR13
 2063 01e4 000000E3 		movw	r0, #:lower16:.LC19
 2064 01e8 003040E3 		movt	r3, #:upper16:.LC25
 2065 01ec 002040E3 		movt	r2, #:upper16:.LANCHOR13
 2066 01f0 000040E3 		movt	r0, #:upper16:.LC19
 2067 01f4 3B1500E3 		movw	r1, #1339
 2068 01f8 FEFFFFEB 		bl	__assert_func
 2069              	.L336:
 2070 01fc 003000E3 		movw	r3, #:lower16:.LC26
 2071 0200 002000E3 		movw	r2, #:lower16:.LANCHOR14
 2072 0204 000000E3 		movw	r0, #:lower16:.LC19
 2073 0208 003040E3 		movt	r3, #:upper16:.LC26
 2074 020c 002040E3 		movt	r2, #:upper16:.LANCHOR14
 2075 0210 000040E3 		movt	r0, #:upper16:.LC19
 2076 0214 2C1600E3 		movw	r1, #1580
 2077 0218 FEFFFFEB 		bl	__assert_func
 2078              		.fnend
 2080              		.section	.text._ZN11flatbuffers17FlatBufferBuilder12CreateVectorIN6tflite12OperatorCodeEEENS_6Offs
 2081              		.align	2
 2082              		.syntax unified
 2083              		.arm
 2084              		.fpu neon
 2086              	_ZN11flatbuffers17FlatBufferBuilder12CreateVectorIN6tflite12OperatorCodeEEENS_6OffsetINS_6VectorINS
 2087              		.fnstart
 2088              	.LFB11827:
 2089              		@ args = 0, pretend = 0, frame = 0
 2090              		@ frame_needed = 0, uses_anonymous_args = 0
 2091 0000 70402DE9 		push	{r4, r5, r6, lr}
 2092              		.save {r4, r5, r6, lr}
 2093 0004 0040A0E1 		mov	r4, r0
 2094 0008 0150A0E1 		mov	r5, r1
 2095 000c 0110A0E3 		mov	r1, #1
 2096 0010 FEFFFFEB 		bl	_ZN11flatbuffers17FlatBufferBuilder11StartVectorEjj.constprop.148
 2097 0014 283094E5 		ldr	r3, [r4, #40]
 2098 0018 0400A0E1 		mov	r0, r4
 2099 001c 006095E5 		ldr	r6, [r5]
 2100 0020 142094E5 		ldr	r2, [r4, #20]
 2101 0024 030053E3 		cmp	r3, #3
 2102 0028 185094E5 		ldr	r5, [r4, #24]
 2103 002c 0430A093 		movls	r3, #4
 2104 0030 28308495 		strls	r3, [r4, #40]
 2105 0034 103094E5 		ldr	r3, [r4, #16]
 2106 0038 025045E0 		sub	r5, r5, r2
 2107 003c 035045E0 		sub	r5, r5, r3
 2108 0040 035005E2 		and	r5, r5, #3
 2109 0044 0510A0E1 		mov	r1, r5
 2110 0048 FEFFFFEB 		bl	_ZN11flatbuffers15vector_downward12ensure_spaceEj
 2111 004c 183094E5 		ldr	r3, [r4, #24]
 2112 0050 000055E3 		cmp	r5, #0
 2113 0054 000043E0 		sub	r0, r3, r0
 2114 0058 180084E5 		str	r0, [r4, #24]
 2115 005c 0800000A 		beq	.L339
 2116 0060 010055E3 		cmp	r5, #1
 2117 0064 0030A0E3 		mov	r3, #0
 2118 0068 0030C0E5 		strb	r3, [r0]
 2119 006c 0400000A 		beq	.L339
 2120 0070 182094E5 		ldr	r2, [r4, #24]
 2121 0074 020055E3 		cmp	r5, #2
 2122 0078 0130C2E5 		strb	r3, [r2, #1]
 2123 007c 18209415 		ldrne	r2, [r4, #24]
 2124 0080 0230C215 		strbne	r3, [r2, #2]
 2125              	.L339:
 2126 0084 000056E3 		cmp	r6, #0
 2127 0088 5300000A 		beq	.L340
 2128 008c 182094E5 		ldr	r2, [r4, #24]
 2129 0090 141094E5 		ldr	r1, [r4, #20]
 2130 0094 103094E5 		ldr	r3, [r4, #16]
 2131 0098 012042E0 		sub	r2, r2, r1
 2132 009c 023043E0 		sub	r3, r3, r2
 2133 00a0 030056E1 		cmp	r6, r3
 2134 00a4 4C00008A 		bhi	.L340
 2135 00a8 282094E5 		ldr	r2, [r4, #40]
 2136 00ac 046066E2 		rsb	r6, r6, #4
 2137 00b0 036086E0 		add	r6, r6, r3
 2138 00b4 003063E2 		rsb	r3, r3, #0
 2139 00b8 035003E2 		and	r5, r3, #3
 2140 00bc 0400A0E1 		mov	r0, r4
 2141 00c0 030052E3 		cmp	r2, #3
 2142 00c4 0510A0E1 		mov	r1, r5
 2143 00c8 0420A093 		movls	r2, #4
 2144 00cc 28208495 		strls	r2, [r4, #40]
 2145 00d0 FEFFFFEB 		bl	_ZN11flatbuffers15vector_downward12ensure_spaceEj
 2146 00d4 183094E5 		ldr	r3, [r4, #24]
 2147 00d8 000055E3 		cmp	r5, #0
 2148 00dc 000043E0 		sub	r0, r3, r0
 2149 00e0 180084E5 		str	r0, [r4, #24]
 2150 00e4 0800000A 		beq	.L342
 2151 00e8 010055E3 		cmp	r5, #1
 2152 00ec 0030A0E3 		mov	r3, #0
 2153 00f0 0030C0E5 		strb	r3, [r0]
 2154 00f4 0400000A 		beq	.L342
 2155 00f8 182094E5 		ldr	r2, [r4, #24]
 2156 00fc 020055E3 		cmp	r5, #2
 2157 0100 0130C2E5 		strb	r3, [r2, #1]
 2158 0104 18209415 		ldrne	r2, [r4, #24]
 2159 0108 0230C215 		strbne	r3, [r2, #2]
 2160              	.L342:
 2161 010c 0410A0E3 		mov	r1, #4
 2162 0110 0400A0E1 		mov	r0, r4
 2163 0114 FEFFFFEB 		bl	_ZN11flatbuffers15vector_downward12ensure_spaceEj
 2164 0118 182094E5 		ldr	r2, [r4, #24]
 2165 011c 26C0D4E5 		ldrb	ip, [r4, #38]	@ zero_extendqisi2
 2166 0120 141094E5 		ldr	r1, [r4, #20]
 2167 0124 103094E5 		ldr	r3, [r4, #16]
 2168 0128 000042E0 		sub	r0, r2, r0
 2169 012c 00005CE3 		cmp	ip, #0
 2170 0130 180084E5 		str	r0, [r4, #24]
 2171 0134 011040E0 		sub	r1, r0, r1
 2172 0138 006080E5 		str	r6, [r0]
 2173 013c 013043E0 		sub	r3, r3, r1
 2174 0140 2D00000A 		beq	.L380
 2175 0144 282094E5 		ldr	r2, [r4, #40]
 2176 0148 003063E2 		rsb	r3, r3, #0
 2177 014c 035003E2 		and	r5, r3, #3
 2178 0150 0010A0E3 		mov	r1, #0
 2179 0154 2610C4E5 		strb	r1, [r4, #38]
 2180 0158 0400A0E1 		mov	r0, r4
 2181 015c 030052E3 		cmp	r2, #3
 2182 0160 0510A0E1 		mov	r1, r5
 2183 0164 0420A093 		movls	r2, #4
 2184 0168 28208495 		strls	r2, [r4, #40]
 2185 016c FEFFFFEB 		bl	_ZN11flatbuffers15vector_downward12ensure_spaceEj
 2186 0170 183094E5 		ldr	r3, [r4, #24]
 2187 0174 000055E3 		cmp	r5, #0
 2188 0178 000043E0 		sub	r0, r3, r0
 2189 017c 180084E5 		str	r0, [r4, #24]
 2190 0180 0800000A 		beq	.L346
 2191 0184 010055E3 		cmp	r5, #1
 2192 0188 0030A0E3 		mov	r3, #0
 2193 018c 0030C0E5 		strb	r3, [r0]
 2194 0190 0400000A 		beq	.L346
 2195 0194 182094E5 		ldr	r2, [r4, #24]
 2196 0198 020055E3 		cmp	r5, #2
 2197 019c 0130C2E5 		strb	r3, [r2, #1]
 2198 01a0 18209415 		ldrne	r2, [r4, #24]
 2199 01a4 0230C215 		strbne	r3, [r2, #2]
 2200              	.L346:
 2201 01a8 0410A0E3 		mov	r1, #4
 2202 01ac 0400A0E1 		mov	r0, r4
 2203 01b0 FEFFFFEB 		bl	_ZN11flatbuffers15vector_downward12ensure_spaceEj
 2204 01b4 183094E5 		ldr	r3, [r4, #24]
 2205 01b8 0110A0E3 		mov	r1, #1
 2206 01bc 142094E5 		ldr	r2, [r4, #20]
 2207 01c0 10C094E5 		ldr	ip, [r4, #16]
 2208 01c4 003043E0 		sub	r3, r3, r0
 2209 01c8 022043E0 		sub	r2, r3, r2
 2210 01cc 183084E5 		str	r3, [r4, #24]
 2211 01d0 02004CE0 		sub	r0, ip, r2
 2212 01d4 001083E5 		str	r1, [r3]
 2213 01d8 7080BDE8 		pop	{r4, r5, r6, pc}
 2214              	.L340:
 2215 01dc 003000E3 		movw	r3, #:lower16:.LC25
 2216 01e0 002000E3 		movw	r2, #:lower16:.LANCHOR13
 2217 01e4 000000E3 		movw	r0, #:lower16:.LC19
 2218 01e8 003040E3 		movt	r3, #:upper16:.LC25
 2219 01ec 002040E3 		movt	r2, #:upper16:.LANCHOR13
 2220 01f0 000040E3 		movt	r0, #:upper16:.LC19
 2221 01f4 3B1500E3 		movw	r1, #1339
 2222 01f8 FEFFFFEB 		bl	__assert_func
 2223              	.L380:
 2224 01fc 003000E3 		movw	r3, #:lower16:.LC26
 2225 0200 002000E3 		movw	r2, #:lower16:.LANCHOR14
 2226 0204 000000E3 		movw	r0, #:lower16:.LC19
 2227 0208 003040E3 		movt	r3, #:upper16:.LC26
 2228 020c 002040E3 		movt	r2, #:upper16:.LANCHOR14
 2229 0210 000040E3 		movt	r0, #:upper16:.LC19
 2230 0214 2C1600E3 		movw	r1, #1580
 2231 0218 FEFFFFEB 		bl	__assert_func
 2232              		.fnend
 2234              		.section	.text._ZN11flatbuffers17FlatBufferBuilder12CreateVectorIN6tflite8SubGraphEEENS_6OffsetINS
 2235              		.align	2
 2236              		.syntax unified
 2237              		.arm
 2238              		.fpu neon
 2240              	_ZN11flatbuffers17FlatBufferBuilder12CreateVectorIN6tflite8SubGraphEEENS_6OffsetINS_6VectorINS4_IT_
 2241              		.fnstart
 2242              	.LFB11825:
 2243              		@ args = 0, pretend = 0, frame = 0
 2244              		@ frame_needed = 0, uses_anonymous_args = 0
 2245 0000 70402DE9 		push	{r4, r5, r6, lr}
 2246              		.save {r4, r5, r6, lr}
 2247 0004 0040A0E1 		mov	r4, r0
 2248 0008 0150A0E1 		mov	r5, r1
 2249 000c 0110A0E3 		mov	r1, #1
 2250 0010 FEFFFFEB 		bl	_ZN11flatbuffers17FlatBufferBuilder11StartVectorEjj.constprop.148
 2251 0014 283094E5 		ldr	r3, [r4, #40]
 2252 0018 0400A0E1 		mov	r0, r4
 2253 001c 006095E5 		ldr	r6, [r5]
 2254 0020 142094E5 		ldr	r2, [r4, #20]
 2255 0024 030053E3 		cmp	r3, #3
 2256 0028 185094E5 		ldr	r5, [r4, #24]
 2257 002c 0430A093 		movls	r3, #4
 2258 0030 28308495 		strls	r3, [r4, #40]
 2259 0034 103094E5 		ldr	r3, [r4, #16]
 2260 0038 025045E0 		sub	r5, r5, r2
 2261 003c 035045E0 		sub	r5, r5, r3
 2262 0040 035005E2 		and	r5, r5, #3
 2263 0044 0510A0E1 		mov	r1, r5
 2264 0048 FEFFFFEB 		bl	_ZN11flatbuffers15vector_downward12ensure_spaceEj
 2265 004c 183094E5 		ldr	r3, [r4, #24]
 2266 0050 000055E3 		cmp	r5, #0
 2267 0054 000043E0 		sub	r0, r3, r0
 2268 0058 180084E5 		str	r0, [r4, #24]
 2269 005c 0800000A 		beq	.L383
 2270 0060 010055E3 		cmp	r5, #1
 2271 0064 0030A0E3 		mov	r3, #0
 2272 0068 0030C0E5 		strb	r3, [r0]
 2273 006c 0400000A 		beq	.L383
 2274 0070 182094E5 		ldr	r2, [r4, #24]
 2275 0074 020055E3 		cmp	r5, #2
 2276 0078 0130C2E5 		strb	r3, [r2, #1]
 2277 007c 18209415 		ldrne	r2, [r4, #24]
 2278 0080 0230C215 		strbne	r3, [r2, #2]
 2279              	.L383:
 2280 0084 000056E3 		cmp	r6, #0
 2281 0088 5300000A 		beq	.L384
 2282 008c 182094E5 		ldr	r2, [r4, #24]
 2283 0090 141094E5 		ldr	r1, [r4, #20]
 2284 0094 103094E5 		ldr	r3, [r4, #16]
 2285 0098 012042E0 		sub	r2, r2, r1
 2286 009c 023043E0 		sub	r3, r3, r2
 2287 00a0 030056E1 		cmp	r6, r3
 2288 00a4 4C00008A 		bhi	.L384
 2289 00a8 282094E5 		ldr	r2, [r4, #40]
 2290 00ac 046066E2 		rsb	r6, r6, #4
 2291 00b0 036086E0 		add	r6, r6, r3
 2292 00b4 003063E2 		rsb	r3, r3, #0
 2293 00b8 035003E2 		and	r5, r3, #3
 2294 00bc 0400A0E1 		mov	r0, r4
 2295 00c0 030052E3 		cmp	r2, #3
 2296 00c4 0510A0E1 		mov	r1, r5
 2297 00c8 0420A093 		movls	r2, #4
 2298 00cc 28208495 		strls	r2, [r4, #40]
 2299 00d0 FEFFFFEB 		bl	_ZN11flatbuffers15vector_downward12ensure_spaceEj
 2300 00d4 183094E5 		ldr	r3, [r4, #24]
 2301 00d8 000055E3 		cmp	r5, #0
 2302 00dc 000043E0 		sub	r0, r3, r0
 2303 00e0 180084E5 		str	r0, [r4, #24]
 2304 00e4 0800000A 		beq	.L386
 2305 00e8 010055E3 		cmp	r5, #1
 2306 00ec 0030A0E3 		mov	r3, #0
 2307 00f0 0030C0E5 		strb	r3, [r0]
 2308 00f4 0400000A 		beq	.L386
 2309 00f8 182094E5 		ldr	r2, [r4, #24]
 2310 00fc 020055E3 		cmp	r5, #2
 2311 0100 0130C2E5 		strb	r3, [r2, #1]
 2312 0104 18209415 		ldrne	r2, [r4, #24]
 2313 0108 0230C215 		strbne	r3, [r2, #2]
 2314              	.L386:
 2315 010c 0410A0E3 		mov	r1, #4
 2316 0110 0400A0E1 		mov	r0, r4
 2317 0114 FEFFFFEB 		bl	_ZN11flatbuffers15vector_downward12ensure_spaceEj
 2318 0118 182094E5 		ldr	r2, [r4, #24]
 2319 011c 26C0D4E5 		ldrb	ip, [r4, #38]	@ zero_extendqisi2
 2320 0120 141094E5 		ldr	r1, [r4, #20]
 2321 0124 103094E5 		ldr	r3, [r4, #16]
 2322 0128 000042E0 		sub	r0, r2, r0
 2323 012c 00005CE3 		cmp	ip, #0
 2324 0130 180084E5 		str	r0, [r4, #24]
 2325 0134 011040E0 		sub	r1, r0, r1
 2326 0138 006080E5 		str	r6, [r0]
 2327 013c 013043E0 		sub	r3, r3, r1
 2328 0140 2D00000A 		beq	.L424
 2329 0144 282094E5 		ldr	r2, [r4, #40]
 2330 0148 003063E2 		rsb	r3, r3, #0
 2331 014c 035003E2 		and	r5, r3, #3
 2332 0150 0010A0E3 		mov	r1, #0
 2333 0154 2610C4E5 		strb	r1, [r4, #38]
 2334 0158 0400A0E1 		mov	r0, r4
 2335 015c 030052E3 		cmp	r2, #3
 2336 0160 0510A0E1 		mov	r1, r5
 2337 0164 0420A093 		movls	r2, #4
 2338 0168 28208495 		strls	r2, [r4, #40]
 2339 016c FEFFFFEB 		bl	_ZN11flatbuffers15vector_downward12ensure_spaceEj
 2340 0170 183094E5 		ldr	r3, [r4, #24]
 2341 0174 000055E3 		cmp	r5, #0
 2342 0178 000043E0 		sub	r0, r3, r0
 2343 017c 180084E5 		str	r0, [r4, #24]
 2344 0180 0800000A 		beq	.L390
 2345 0184 010055E3 		cmp	r5, #1
 2346 0188 0030A0E3 		mov	r3, #0
 2347 018c 0030C0E5 		strb	r3, [r0]
 2348 0190 0400000A 		beq	.L390
 2349 0194 182094E5 		ldr	r2, [r4, #24]
 2350 0198 020055E3 		cmp	r5, #2
 2351 019c 0130C2E5 		strb	r3, [r2, #1]
 2352 01a0 18209415 		ldrne	r2, [r4, #24]
 2353 01a4 0230C215 		strbne	r3, [r2, #2]
 2354              	.L390:
 2355 01a8 0410A0E3 		mov	r1, #4
 2356 01ac 0400A0E1 		mov	r0, r4
 2357 01b0 FEFFFFEB 		bl	_ZN11flatbuffers15vector_downward12ensure_spaceEj
 2358 01b4 183094E5 		ldr	r3, [r4, #24]
 2359 01b8 0110A0E3 		mov	r1, #1
 2360 01bc 142094E5 		ldr	r2, [r4, #20]
 2361 01c0 10C094E5 		ldr	ip, [r4, #16]
 2362 01c4 003043E0 		sub	r3, r3, r0
 2363 01c8 022043E0 		sub	r2, r3, r2
 2364 01cc 183084E5 		str	r3, [r4, #24]
 2365 01d0 02004CE0 		sub	r0, ip, r2
 2366 01d4 001083E5 		str	r1, [r3]
 2367 01d8 7080BDE8 		pop	{r4, r5, r6, pc}
 2368              	.L384:
 2369 01dc 003000E3 		movw	r3, #:lower16:.LC25
 2370 01e0 002000E3 		movw	r2, #:lower16:.LANCHOR13
 2371 01e4 000000E3 		movw	r0, #:lower16:.LC19
 2372 01e8 003040E3 		movt	r3, #:upper16:.LC25
 2373 01ec 002040E3 		movt	r2, #:upper16:.LANCHOR13
 2374 01f0 000040E3 		movt	r0, #:upper16:.LC19
 2375 01f4 3B1500E3 		movw	r1, #1339
 2376 01f8 FEFFFFEB 		bl	__assert_func
 2377              	.L424:
 2378 01fc 003000E3 		movw	r3, #:lower16:.LC26
 2379 0200 002000E3 		movw	r2, #:lower16:.LANCHOR14
 2380 0204 000000E3 		movw	r0, #:lower16:.LC19
 2381 0208 003040E3 		movt	r3, #:upper16:.LC26
 2382 020c 002040E3 		movt	r2, #:upper16:.LANCHOR14
 2383 0210 000040E3 		movt	r0, #:upper16:.LC19
 2384 0214 2C1600E3 		movw	r1, #1580
 2385 0218 FEFFFFEB 		bl	__assert_func
 2386              		.fnend
 2388              		.section	.text._ZN11flatbuffers17FlatBufferBuilder7ReferToEm,"axG",%progbits,_ZN11flatbuffers17Fla
 2389              		.align	2
 2390              		.weak	_ZN11flatbuffers17FlatBufferBuilder7ReferToEm
 2391              		.syntax unified
 2392              		.arm
 2393              		.fpu neon
 2395              	_ZN11flatbuffers17FlatBufferBuilder7ReferToEm:
 2396              		.fnstart
 2397              	.LFB3637:
 2398              		@ args = 0, pretend = 0, frame = 0
 2399              		@ frame_needed = 0, uses_anonymous_args = 0
 2400 0000 283090E5 		ldr	r3, [r0, #40]
 2401 0004 70402DE9 		push	{r4, r5, r6, lr}
 2402              		.save {r4, r5, r6, lr}
 2403 0008 0040A0E1 		mov	r4, r0
 2404 000c 185090E5 		ldr	r5, [r0, #24]
 2405 0010 0160A0E1 		mov	r6, r1
 2406 0014 030053E3 		cmp	r3, #3
 2407 0018 0430A093 		movls	r3, #4
 2408 001c 142090E5 		ldr	r2, [r0, #20]
 2409 0020 28308095 		strls	r3, [r0, #40]
 2410 0024 103090E5 		ldr	r3, [r0, #16]
 2411 0028 025045E0 		sub	r5, r5, r2
 2412 002c 035045E0 		sub	r5, r5, r3
 2413 0030 035005E2 		and	r5, r5, #3
 2414 0034 0510A0E1 		mov	r1, r5
 2415 0038 FEFFFFEB 		bl	_ZN11flatbuffers15vector_downward12ensure_spaceEj
 2416 003c 183094E5 		ldr	r3, [r4, #24]
 2417 0040 000055E3 		cmp	r5, #0
 2418 0044 000043E0 		sub	r0, r3, r0
 2419 0048 180084E5 		str	r0, [r4, #24]
 2420 004c 0800000A 		beq	.L427
 2421 0050 010055E3 		cmp	r5, #1
 2422 0054 0030A0E3 		mov	r3, #0
 2423 0058 0030C0E5 		strb	r3, [r0]
 2424 005c 0400000A 		beq	.L427
 2425 0060 182094E5 		ldr	r2, [r4, #24]
 2426 0064 020055E3 		cmp	r5, #2
 2427 0068 0130C2E5 		strb	r3, [r2, #1]
 2428 006c 18209415 		ldrne	r2, [r4, #24]
 2429 0070 0230C215 		strbne	r3, [r2, #2]
 2430              	.L427:
 2431 0074 000056E3 		cmp	r6, #0
 2432 0078 0800000A 		beq	.L428
 2433 007c 100084E2 		add	r0, r4, #16
 2434 0080 0D0090E8 		ldm	r0, {r0, r2, r3}
 2435 0084 023043E0 		sub	r3, r3, r2
 2436 0088 030040E0 		sub	r0, r0, r3
 2437 008c 000056E1 		cmp	r6, r0
 2438 0090 0200008A 		bhi	.L428
 2439 0094 046066E2 		rsb	r6, r6, #4
 2440 0098 000086E0 		add	r0, r6, r0
 2441 009c 7080BDE8 		pop	{r4, r5, r6, pc}
 2442              	.L428:
 2443 00a0 003000E3 		movw	r3, #:lower16:.LC25
 2444 00a4 002000E3 		movw	r2, #:lower16:.LANCHOR13
 2445 00a8 000000E3 		movw	r0, #:lower16:.LC19
 2446 00ac 003040E3 		movt	r3, #:upper16:.LC25
 2447 00b0 002040E3 		movt	r2, #:upper16:.LANCHOR13
 2448 00b4 000040E3 		movt	r0, #:upper16:.LC19
 2449 00b8 3B1500E3 		movw	r1, #1339
 2450 00bc FEFFFFEB 		bl	__assert_func
 2451              		.fnend
 2453              		.section	.text._ZN11flatbuffers17FlatBufferBuilder6FinishEmPKcb.constprop.146,"ax",%progbits
 2454              		.align	2
 2455              		.syntax unified
 2456              		.arm
 2457              		.fpu neon
 2459              	_ZN11flatbuffers17FlatBufferBuilder6FinishEmPKcb.constprop.146:
 2460              		.fnstart
 2461              	.LFB11811:
 2462              		@ args = 0, pretend = 0, frame = 0
 2463              		@ frame_needed = 0, uses_anonymous_args = 0
 2464 0000 2630D0E5 		ldrb	r3, [r0, #38]	@ zero_extendqisi2
 2465 0004 F0412DE9 		push	{r4, r5, r6, r7, r8, lr}
 2466              		.save {r4, r5, r6, r7, r8, lr}
 2467 0008 204090E5 		ldr	r4, [r0, #32]
 2468 000c 000053E3 		cmp	r3, #0
 2469 0010 4E00001A 		bne	.L465
 2470 0014 000054E3 		cmp	r4, #0
 2471 0018 5400001A 		bne	.L466
 2472 001c 0170A0E1 		mov	r7, r1
 2473 0020 101080E2 		add	r1, r0, #16
 2474 0024 460091E8 		ldm	r1, {r1, r2, r6}
 2475 0028 0050A0E1 		mov	r5, r0
 2476 002c 283090E5 		ldr	r3, [r0, #40]
 2477 0030 026046E0 		sub	r6, r6, r2
 2478 0034 1C2080E5 		str	r2, [r0, #28]
 2479 0038 016046E0 		sub	r6, r6, r1
 2480 003c 013043E2 		sub	r3, r3, #1
 2481 0040 086046E2 		sub	r6, r6, #8
 2482 0044 036006E0 		and	r6, r6, r3
 2483 0048 0610A0E1 		mov	r1, r6
 2484 004c FEFFFFEB 		bl	_ZN11flatbuffers15vector_downward12ensure_spaceEj
 2485 0050 183095E5 		ldr	r3, [r5, #24]
 2486 0054 000056E3 		cmp	r6, #0
 2487 0058 000043E0 		sub	r0, r3, r0
 2488 005c 180085E5 		str	r0, [r5, #24]
 2489 0060 0700000A 		beq	.L446
 2490 0064 0430A0E1 		mov	r3, r4
 2491 0068 0420A0E1 		mov	r2, r4
 2492 006c 000000EA 		b	.L447
 2493              	.L467:
 2494 0070 180095E5 		ldr	r0, [r5, #24]
 2495              	.L447:
 2496 0074 0320C0E7 		strb	r2, [r0, r3]
 2497 0078 013083E2 		add	r3, r3, #1
 2498 007c 030056E1 		cmp	r6, r3
 2499 0080 FAFFFF1A 		bne	.L467
 2500              	.L446:
 2501 0084 0410A0E3 		mov	r1, #4
 2502 0088 0500A0E1 		mov	r0, r5
 2503 008c FEFFFFEB 		bl	_ZN11flatbuffers15vector_downward12ensure_spaceEj
 2504 0090 183095E5 		ldr	r3, [r5, #24]
 2505 0094 0440A0E3 		mov	r4, #4
 2506 0098 001000E3 		movw	r1, #:lower16:.LC27
 2507 009c 0420A0E1 		mov	r2, r4
 2508 00a0 001040E3 		movt	r1, #:upper16:.LC27
 2509 00a4 000043E0 		sub	r0, r3, r0
 2510 00a8 180085E5 		str	r0, [r5, #24]
 2511 00ac FEFFFFEB 		bl	memcpy
 2512 00b0 0710A0E1 		mov	r1, r7
 2513 00b4 0500A0E1 		mov	r0, r5
 2514 00b8 FEFFFFEB 		bl	_ZN11flatbuffers17FlatBufferBuilder7ReferToEm
 2515 00bc 283095E5 		ldr	r3, [r5, #40]
 2516 00c0 0060A0E1 		mov	r6, r0
 2517 00c4 142095E5 		ldr	r2, [r5, #20]
 2518 00c8 0500A0E1 		mov	r0, r5
 2519 00cc 030053E3 		cmp	r3, #3
 2520 00d0 103095E5 		ldr	r3, [r5, #16]
 2521 00d4 28408595 		strls	r4, [r5, #40]
 2522 00d8 184095E5 		ldr	r4, [r5, #24]
 2523 00dc 024044E0 		sub	r4, r4, r2
 2524 00e0 034044E0 		sub	r4, r4, r3
 2525 00e4 034004E2 		and	r4, r4, #3
 2526 00e8 0410A0E1 		mov	r1, r4
 2527 00ec FEFFFFEB 		bl	_ZN11flatbuffers15vector_downward12ensure_spaceEj
 2528 00f0 183095E5 		ldr	r3, [r5, #24]
 2529 00f4 000054E3 		cmp	r4, #0
 2530 00f8 000043E0 		sub	r0, r3, r0
 2531 00fc 180085E5 		str	r0, [r5, #24]
 2532 0100 0800000A 		beq	.L450
 2533 0104 010054E3 		cmp	r4, #1
 2534 0108 0030A0E3 		mov	r3, #0
 2535 010c 0030C0E5 		strb	r3, [r0]
 2536 0110 0400000A 		beq	.L450
 2537 0114 182095E5 		ldr	r2, [r5, #24]
 2538 0118 020054E3 		cmp	r4, #2
 2539 011c 0130C2E5 		strb	r3, [r2, #1]
 2540 0120 18209515 		ldrne	r2, [r5, #24]
 2541 0124 0230C215 		strbne	r3, [r2, #2]
 2542              	.L450:
 2543 0128 0410A0E3 		mov	r1, #4
 2544 012c 0500A0E1 		mov	r0, r5
 2545 0130 FEFFFFEB 		bl	_ZN11flatbuffers15vector_downward12ensure_spaceEj
 2546 0134 183095E5 		ldr	r3, [r5, #24]
 2547 0138 0120A0E3 		mov	r2, #1
 2548 013c 000043E0 		sub	r0, r3, r0
 2549 0140 180085E5 		str	r0, [r5, #24]
 2550 0144 006080E5 		str	r6, [r0]
 2551 0148 2720C5E5 		strb	r2, [r5, #39]
 2552 014c F081BDE8 		pop	{r4, r5, r6, r7, r8, pc}
 2553              	.L465:
 2554 0150 003000E3 		movw	r3, #:lower16:.LC24
 2555 0154 002000E3 		movw	r2, #:lower16:.LANCHOR11
 2556 0158 000000E3 		movw	r0, #:lower16:.LC19
 2557 015c 003040E3 		movt	r3, #:upper16:.LC24
 2558 0160 002040E3 		movt	r2, #:upper16:.LANCHOR11
 2559 0164 000040E3 		movt	r0, #:upper16:.LC19
 2560 0168 481500E3 		movw	r1, #1352
 2561 016c FEFFFFEB 		bl	__assert_func
 2562              	.L466:
 2563 0170 FEFFFFEB 		bl	_ZN11flatbuffers17FlatBufferBuilder9NotNestedEv.isra.20.part.21
 2564              		.fnend
 2566              		.section	.text._ZN11flatbuffers17FlatBufferBuilder8EndTableEm,"axG",%progbits,_ZN11flatbuffers17Fl
 2567              		.align	2
 2568              		.weak	_ZN11flatbuffers17FlatBufferBuilder8EndTableEm
 2569              		.syntax unified
 2570              		.arm
 2571              		.fpu neon
 2573              	_ZN11flatbuffers17FlatBufferBuilder8EndTableEm:
 2574              		.fnstart
 2575              	.LFB3640:
 2576              		@ args = 0, pretend = 0, frame = 8
 2577              		@ frame_needed = 0, uses_anonymous_args = 0
 2578 0000 2630D0E5 		ldrb	r3, [r0, #38]	@ zero_extendqisi2
 2579 0004 F04F2DE9 		push	{r4, r5, r6, r7, r8, r9, r10, fp, lr}
 2580              		.save {r4, r5, r6, r7, r8, r9, r10, fp, lr}
 2581              		.pad #12
 2582 0008 0CD04DE2 		sub	sp, sp, #12
 2583 000c 000053E3 		cmp	r3, #0
 2584 0010 B400000A 		beq	.L504
 2585 0014 283090E5 		ldr	r3, [r0, #40]
 2586 0018 0060A0E1 		mov	r6, r0
 2587 001c 184090E5 		ldr	r4, [r0, #24]
 2588 0020 0150A0E1 		mov	r5, r1
 2589 0024 142090E5 		ldr	r2, [r0, #20]
 2590 0028 030053E3 		cmp	r3, #3
 2591 002c 0430A093 		movls	r3, #4
 2592 0030 28308095 		strls	r3, [r0, #40]
 2593 0034 024044E0 		sub	r4, r4, r2
 2594 0038 103090E5 		ldr	r3, [r0, #16]
 2595 003c 034044E0 		sub	r4, r4, r3
 2596 0040 034004E2 		and	r4, r4, #3
 2597 0044 0410A0E1 		mov	r1, r4
 2598 0048 FEFFFFEB 		bl	_ZN11flatbuffers15vector_downward12ensure_spaceEj
 2599 004c 183096E5 		ldr	r3, [r6, #24]
 2600 0050 000054E3 		cmp	r4, #0
 2601 0054 000043E0 		sub	r0, r3, r0
 2602 0058 180086E5 		str	r0, [r6, #24]
 2603 005c 0800000A 		beq	.L471
 2604 0060 010054E3 		cmp	r4, #1
 2605 0064 0030A0E3 		mov	r3, #0
 2606 0068 0030C0E5 		strb	r3, [r0]
 2607 006c 0400000A 		beq	.L471
 2608 0070 182096E5 		ldr	r2, [r6, #24]
 2609 0074 020054E3 		cmp	r4, #2
 2610 0078 0130C2E5 		strb	r3, [r2, #1]
 2611 007c 18209615 		ldrne	r2, [r6, #24]
 2612 0080 0230C215 		strbne	r3, [r2, #2]
 2613              	.L471:
 2614 0084 0410A0E3 		mov	r1, #4
 2615 0088 0600A0E1 		mov	r0, r6
 2616 008c FEFFFFEB 		bl	_ZN11flatbuffers15vector_downward12ensure_spaceEj
 2617 0090 B442D6E1 		ldrh	r4, [r6, #36]
 2618 0094 0070A0E3 		mov	r7, #0
 2619 0098 183096E5 		ldr	r3, [r6, #24]
 2620 009c 14B096E5 		ldr	fp, [r6, #20]
 2621 00a0 024084E2 		add	r4, r4, #2
 2622 00a4 102096E5 		ldr	r2, [r6, #16]
 2623 00a8 7440FFE6 		uxth	r4, r4
 2624 00ac 000043E0 		sub	r0, r3, r0
 2625 00b0 0B3040E0 		sub	r3, r0, fp
 2626 00b4 180086E5 		str	r0, [r6, #24]
 2627 00b8 040054E3 		cmp	r4, #4
 2628 00bc 033042E0 		sub	r3, r2, r3
 2629 00c0 0440A033 		movcc	r4, #4
 2630 00c4 007080E5 		str	r7, [r0]
 2631 00c8 0410A0E1 		mov	r1, r4
 2632 00cc 0600A0E1 		mov	r0, r6
 2633 00d0 B442C6E1 		strh	r4, [r6, #36]	@ movhi
 2634 00d4 0380A0E1 		mov	r8, r3
 2635 00d8 00308DE5 		str	r3, [sp]
 2636 00dc 055048E0 		sub	r5, r8, r5
 2637 00e0 FEFFFFEB 		bl	_ZN11flatbuffers15vector_downward12ensure_spaceEj
 2638 00e4 183096E5 		ldr	r3, [r6, #24]
 2639 00e8 0420A0E1 		mov	r2, r4
 2640 00ec 0710A0E1 		mov	r1, r7
 2641 00f0 000043E0 		sub	r0, r3, r0
 2642 00f4 180086E5 		str	r0, [r6, #24]
 2643 00f8 FEFFFFEB 		bl	memset
 2644 00fc 010855E3 		cmp	r5, #65536
 2645 0100 8100002A 		bcs	.L505
 2646 0104 184096E5 		ldr	r4, [r6, #24]
 2647 0108 000054E3 		cmp	r4, #0
 2648 010c 7D00000A 		beq	.L506
 2649 0110 1C0096E5 		ldr	r0, [r6, #28]
 2650 0114 B250C4E1 		strh	r5, [r4, #2]	@ movhi
 2651 0118 B432D6E1 		ldrh	r3, [r6, #36]
 2652 011c 000050E3 		cmp	r0, #0
 2653 0120 B030C4E1 		strh	r3, [r4]	@ movhi
 2654 0124 5F00000A 		beq	.L485
 2655 0128 209096E5 		ldr	r9, [r6, #32]
 2656 012c 899140E0 		sub	r9, r0, r9, lsl #3
 2657 0130 000059E1 		cmp	r9, r0
 2658 0134 1600002A 		bcs	.L482
 2659 0138 B410D9E1 		ldrh	r1, [r9, #4]
 2660 013c B0C0DDE1 		ldrh	ip, [sp]
 2661 0140 003099E5 		ldr	r3, [r9]
 2662 0144 B12094E1 		ldrh	r2, [r4, r1]
 2663 0148 011084E0 		add	r1, r4, r1
 2664 014c 03304CE0 		sub	r3, ip, r3
 2665 0150 000052E3 		cmp	r2, #0
 2666 0154 7330FFE6 		uxth	r3, r3
 2667 0158 0920A001 		moveq	r2, r9
 2668 015c 0800000A 		beq	.L479
 2669 0160 480000EA 		b	.L480
 2670              	.L481:
 2671 0164 B410D2E1 		ldrh	r1, [r2, #4]
 2672 0168 003092E5 		ldr	r3, [r2]
 2673 016c B1E094E1 		ldrh	lr, [r4, r1]
 2674 0170 011084E0 		add	r1, r4, r1
 2675 0174 03304CE0 		sub	r3, ip, r3
 2676 0178 7330FFE6 		uxth	r3, r3
 2677 017c 00005EE3 		cmp	lr, #0
 2678 0180 4000001A 		bne	.L480
 2679              	.L479:
 2680 0184 082082E2 		add	r2, r2, #8
 2681 0188 B030C1E1 		strh	r3, [r1]	@ movhi
 2682 018c 000052E1 		cmp	r2, r0
 2683 0190 F3FFFF3A 		bcc	.L481
 2684              	.L482:
 2685 0194 2D20D6E5 		ldrb	r2, [r6, #45]	@ zero_extendqisi2
 2686 0198 0030A0E3 		mov	r3, #0
 2687 019c 147096E5 		ldr	r7, [r6, #20]
 2688 01a0 10A096E5 		ldr	r10, [r6, #16]
 2689 01a4 030052E1 		cmp	r2, r3
 2690 01a8 1C9086E5 		str	r9, [r6, #28]
 2691 01ac 072044E0 		sub	r2, r4, r7
 2692 01b0 203086E5 		str	r3, [r6, #32]
 2693 01b4 02204AE0 		sub	r2, r10, r2
 2694 01b8 B432C6E1 		strh	r3, [r6, #36]	@ movhi
 2695 01bc 04208DE5 		str	r2, [sp, #4]
 2696 01c0 1E00000A 		beq	.L477
 2697 01c4 000057E3 		cmp	r7, #0
 2698 01c8 3E00000A 		beq	.L483
 2699 01cc 000059E3 		cmp	r9, #0
 2700 01d0 3400000A 		beq	.L485
 2701 01d4 070059E1 		cmp	r9, r7
 2702 01d8 1800009A 		bls	.L477
 2703 01dc B0B0D4E1 		ldrh	fp, [r4]
 2704 01e0 0750A0E1 		mov	r5, r7
 2705 01e4 010000EA 		b	.L488
 2706              	.L486:
 2707 01e8 050059E1 		cmp	r9, r5
 2708 01ec 1300009A 		bls	.L477
 2709              	.L488:
 2710 01f0 048095E4 		ldr	r8, [r5], #4
 2711 01f4 08004AE0 		sub	r0, r10, r8
 2712 01f8 B03097E1 		ldrh	r3, [r7, r0]
 2713 01fc 000087E0 		add	r0, r7, r0
 2714 0200 0B0053E1 		cmp	r3, fp
 2715 0204 F7FFFF1A 		bne	.L486
 2716 0208 0B20A0E1 		mov	r2, fp
 2717 020c 0410A0E1 		mov	r1, r4
 2718 0210 FEFFFFEB 		bl	memcmp
 2719 0214 000050E3 		cmp	r0, #0
 2720 0218 F2FFFF1A 		bne	.L486
 2721 021c 0C009DE8 		ldm	sp, {r2, r3}
 2722 0220 023043E0 		sub	r3, r3, r2
 2723 0224 034084E0 		add	r4, r4, r3
 2724 0228 073044E0 		sub	r3, r4, r7
 2725 022c 184086E5 		str	r4, [r6, #24]
 2726 0230 03304AE0 		sub	r3, r10, r3
 2727 0234 030058E1 		cmp	r8, r3
 2728 0238 0A00001A 		bne	.L487
 2729 023c 04808DE5 		str	r8, [sp, #4]
 2730              	.L477:
 2731 0240 0410A0E3 		mov	r1, #4
 2732 0244 0600A0E1 		mov	r0, r6
 2733 0248 FEFFFFEB 		bl	_ZN11flatbuffers15vector_downward12ensure_spaceEj
 2734 024c 04209DE5 		ldr	r2, [sp, #4]
 2735 0250 1C3096E5 		ldr	r3, [r6, #28]
 2736 0254 10A096E5 		ldr	r10, [r6, #16]
 2737 0258 0280A0E1 		mov	r8, r2
 2738 025c 147096E5 		ldr	r7, [r6, #20]
 2739 0260 042083E4 		str	r2, [r3], #4
 2740 0264 1C3086E5 		str	r3, [r6, #28]
 2741              	.L487:
 2742 0268 00009DE5 		ldr	r0, [sp]
 2743 026c 0030A0E3 		mov	r3, #0
 2744 0270 00A04AE0 		sub	r10, r10, r0
 2745 0274 008048E0 		sub	r8, r8, r0
 2746 0278 0A8087E7 		str	r8, [r7, r10]
 2747 027c 2630C6E5 		strb	r3, [r6, #38]
 2748 0280 0CD08DE2 		add	sp, sp, #12
 2749              		@ sp needed
 2750 0284 F08FBDE8 		pop	{r4, r5, r6, r7, r8, r9, r10, fp, pc}
 2751              	.L480:
 2752 0288 003000E3 		movw	r3, #:lower16:.LC30
 2753 028c 002000E3 		movw	r2, #:lower16:.LANCHOR15
 2754 0290 000000E3 		movw	r0, #:lower16:.LC19
 2755 0294 003040E3 		movt	r3, #:upper16:.LC30
 2756 0298 002040E3 		movt	r2, #:upper16:.LANCHOR15
 2757 029c 000040E3 		movt	r0, #:upper16:.LC19
 2758 02a0 731500E3 		movw	r1, #1395
 2759 02a4 FEFFFFEB 		bl	__assert_func
 2760              	.L485:
 2761 02a8 003000E3 		movw	r3, #:lower16:.LC29
 2762 02ac 002000E3 		movw	r2, #:lower16:.LANCHOR16
 2763 02b0 000000E3 		movw	r0, #:lower16:.LC19
 2764 02b4 003040E3 		movt	r3, #:upper16:.LC29
 2765 02b8 002040E3 		movt	r2, #:upper16:.LANCHOR16
 2766 02bc 000040E3 		movt	r0, #:upper16:.LC19
 2767 02c0 EF1FA0E3 		mov	r1, #956
 2768 02c4 FEFFFFEB 		bl	__assert_func
 2769              	.L483:
 2770 02c8 003000E3 		movw	r3, #:lower16:.LC31
 2771 02cc 002000E3 		movw	r2, #:lower16:.LANCHOR17
 2772 02d0 000000E3 		movw	r0, #:lower16:.LC19
 2773 02d4 003040E3 		movt	r3, #:upper16:.LC31
 2774 02d8 002040E3 		movt	r2, #:upper16:.LANCHOR17
 2775 02dc 000040E3 		movt	r0, #:upper16:.LC19
 2776 02e0 B71300E3 		movw	r1, #951
 2777 02e4 FEFFFFEB 		bl	__assert_func
 2778              	.L504:
 2779 02e8 003000E3 		movw	r3, #:lower16:.LC26
 2780 02ec 002000E3 		movw	r2, #:lower16:.LANCHOR15
 2781 02f0 000000E3 		movw	r0, #:lower16:.LC19
 2782 02f4 003040E3 		movt	r3, #:upper16:.LC26
 2783 02f8 002040E3 		movt	r2, #:upper16:.LANCHOR15
 2784 02fc 000040E3 		movt	r0, #:upper16:.LC19
 2785 0300 5A1500E3 		movw	r1, #1370
 2786 0304 FEFFFFEB 		bl	__assert_func
 2787              	.L506:
 2788 0308 FEFFFFEB 		bl	_ZNK11flatbuffers15vector_downward4dataEv.isra.9.part.10
 2789              	.L505:
 2790 030c 003000E3 		movw	r3, #:lower16:.LC28
 2791 0310 002000E3 		movw	r2, #:lower16:.LANCHOR15
 2792 0314 000000E3 		movw	r0, #:lower16:.LC19
 2793 0318 003040E3 		movt	r3, #:upper16:.LC28
 2794 031c 002040E3 		movt	r2, #:upper16:.LANCHOR15
 2795 0320 000040E3 		movt	r0, #:upper16:.LC19
 2796 0324 691500E3 		movw	r1, #1385
 2797 0328 FEFFFFEB 		bl	__assert_func
 2798              		.fnend
 2800              		.section	.text._ZN6tflite12CreateTensorERN11flatbuffers17FlatBufferBuilderENS0_6OffsetINS0_6Vector
 2801              		.align	2
 2802              		.syntax unified
 2803              		.arm
 2804              		.fpu neon
 2806              	_ZN6tflite12CreateTensorERN11flatbuffers17FlatBufferBuilderENS0_6OffsetINS0_6VectorIlEEEENS_10Tenso
 2807              		.fnstart
 2808              	.LFB11813:
 2809              		@ args = 16, pretend = 0, frame = 0
 2810              		@ frame_needed = 0, uses_anonymous_args = 0
 2811 0000 F84F2DE9 		push	{r3, r4, r5, r6, r7, r8, r9, r10, fp, lr}
 2812              		.save {r3, r4, r5, r6, r7, r8, r9, r10, fp, lr}
 2813 0004 0180A0E1 		mov	r8, r1
 2814 0008 2610D0E5 		ldrb	r1, [r0, #38]	@ zero_extendqisi2
 2815 000c 0350A0E1 		mov	r5, r3
 2816 0010 28A09DE5 		ldr	r10, [sp, #40]
 2817 0014 000051E3 		cmp	r1, #0
 2818 0018 203090E5 		ldr	r3, [r0, #32]
 2819 001c 2C70DDE5 		ldrb	r7, [sp, #44]	@ zero_extendqisi2
 2820 0020 30B09DE5 		ldr	fp, [sp, #48]
 2821 0024 34109DE5 		ldr	r1, [sp, #52]
 2822 0028 E700001A 		bne	.L573
 2823 002c 000053E3 		cmp	r3, #0
 2824 0030 ED00001A 		bne	.L574
 2825 0034 0290A0E1 		mov	r9, r2
 2826 0038 183090E5 		ldr	r3, [r0, #24]
 2827 003c 142090E5 		ldr	r2, [r0, #20]
 2828 0040 000051E3 		cmp	r1, #0
 2829 0044 106090E5 		ldr	r6, [r0, #16]
 2830 0048 01C0A0E3 		mov	ip, #1
 2831 004c 0040A0E1 		mov	r4, r0
 2832 0050 26C0C0E5 		strb	ip, [r0, #38]
 2833 0054 023043E0 		sub	r3, r3, r2
 2834 0058 036046E0 		sub	r6, r6, r3
 2835 005c D000001A 		bne	.L575
 2836              	.L511:
 2837 0060 00005BE3 		cmp	fp, #0
 2838 0064 C200001A 		bne	.L576
 2839              	.L515:
 2840 0068 00005AE3 		cmp	r10, #0
 2841 006c B400001A 		bne	.L577
 2842              	.L519:
 2843 0070 000055E3 		cmp	r5, #0
 2844 0074 5C00001A 		bne	.L578
 2845              	.L522:
 2846 0078 000059E3 		cmp	r9, #0
 2847 007c 6400001A 		bne	.L525
 2848 0080 2C30D4E5 		ldrb	r3, [r4, #44]	@ zero_extendqisi2
 2849 0084 000053E3 		cmp	r3, #0
 2850 0088 6100001A 		bne	.L525
 2851              	.L526:
 2852 008c 000058E3 		cmp	r8, #0
 2853 0090 9700001A 		bne	.L579
 2854              	.L529:
 2855 0094 000057E3 		cmp	r7, #0
 2856 0098 9F00001A 		bne	.L548
 2857 009c 2C30D4E5 		ldrb	r3, [r4, #44]	@ zero_extendqisi2
 2858 00a0 000053E3 		cmp	r3, #0
 2859 00a4 2500000A 		beq	.L533
 2860              	.L532:
 2861 00a8 283094E5 		ldr	r3, [r4, #40]
 2862 00ac 0010A0E3 		mov	r1, #0
 2863 00b0 0400A0E1 		mov	r0, r4
 2864 00b4 000053E3 		cmp	r3, #0
 2865 00b8 0130A003 		moveq	r3, #1
 2866 00bc 28308405 		streq	r3, [r4, #40]
 2867 00c0 FEFFFFEB 		bl	_ZN11flatbuffers15vector_downward12ensure_spaceEj
 2868 00c4 183094E5 		ldr	r3, [r4, #24]
 2869 00c8 0110A0E3 		mov	r1, #1
 2870 00cc 003043E0 		sub	r3, r3, r0
 2871 00d0 0400A0E1 		mov	r0, r4
 2872 00d4 183084E5 		str	r3, [r4, #24]
 2873 00d8 FEFFFFEB 		bl	_ZN11flatbuffers15vector_downward12ensure_spaceEj
 2874 00dc 183094E5 		ldr	r3, [r4, #24]
 2875 00e0 0810A0E3 		mov	r1, #8
 2876 00e4 003043E0 		sub	r3, r3, r0
 2877 00e8 0400A0E1 		mov	r0, r4
 2878 00ec 183084E5 		str	r3, [r4, #24]
 2879 00f0 0070C3E5 		strb	r7, [r3]
 2880 00f4 142094E5 		ldr	r2, [r4, #20]
 2881 00f8 183094E5 		ldr	r3, [r4, #24]
 2882 00fc 105094E5 		ldr	r5, [r4, #16]
 2883 0100 023043E0 		sub	r3, r3, r2
 2884 0104 035045E0 		sub	r5, r5, r3
 2885 0108 FEFFFFEB 		bl	_ZN11flatbuffers15vector_downward12ensure_spaceEj
 2886 010c 1C3094E5 		ldr	r3, [r4, #28]
 2887 0110 0E00A0E3 		mov	r0, #14
 2888 0114 202094E5 		ldr	r2, [r4, #32]
 2889 0118 081083E2 		add	r1, r3, #8
 2890 011c 005083E5 		str	r5, [r3]
 2891 0120 B400C3E1 		strh	r0, [r3, #4]	@ movhi
 2892 0124 012082E2 		add	r2, r2, #1
 2893 0128 B432D4E1 		ldrh	r3, [r4, #36]
 2894 012c 1C1084E5 		str	r1, [r4, #28]
 2895 0130 202084E5 		str	r2, [r4, #32]
 2896 0134 000053E1 		cmp	r3, r0
 2897 0138 0030A0B1 		movlt	r3, r0
 2898 013c B432C4E1 		strh	r3, [r4, #36]	@ movhi
 2899              	.L533:
 2900 0140 283094E5 		ldr	r3, [r4, #40]
 2901 0144 0010A0E3 		mov	r1, #0
 2902 0148 0400A0E1 		mov	r0, r4
 2903 014c 000053E3 		cmp	r3, #0
 2904 0150 0130A003 		moveq	r3, #1
 2905 0154 28308405 		streq	r3, [r4, #40]
 2906 0158 FEFFFFEB 		bl	_ZN11flatbuffers15vector_downward12ensure_spaceEj
 2907 015c 183094E5 		ldr	r3, [r4, #24]
 2908 0160 0110A0E3 		mov	r1, #1
 2909 0164 003043E0 		sub	r3, r3, r0
 2910 0168 0400A0E1 		mov	r0, r4
 2911 016c 183084E5 		str	r3, [r4, #24]
 2912 0170 FEFFFFEB 		bl	_ZN11flatbuffers15vector_downward12ensure_spaceEj
 2913 0174 183094E5 		ldr	r3, [r4, #24]
 2914 0178 0220A0E3 		mov	r2, #2
 2915 017c 0810A0E3 		mov	r1, #8
 2916 0180 003043E0 		sub	r3, r3, r0
 2917 0184 0400A0E1 		mov	r0, r4
 2918 0188 183084E5 		str	r3, [r4, #24]
 2919 018c 0020C3E5 		strb	r2, [r3]
 2920 0190 142094E5 		ldr	r2, [r4, #20]
 2921 0194 183094E5 		ldr	r3, [r4, #24]
 2922 0198 105094E5 		ldr	r5, [r4, #16]
 2923 019c 023043E0 		sub	r3, r3, r2
 2924 01a0 035045E0 		sub	r5, r5, r3
 2925 01a4 FEFFFFEB 		bl	_ZN11flatbuffers15vector_downward12ensure_spaceEj
 2926 01a8 1C3094E5 		ldr	r3, [r4, #28]
 2927 01ac 06E0A0E3 		mov	lr, #6
 2928 01b0 202094E5 		ldr	r2, [r4, #32]
 2929 01b4 0610A0E1 		mov	r1, r6
 2930 01b8 0400A0E1 		mov	r0, r4
 2931 01bc 005083E5 		str	r5, [r3]
 2932 01c0 08C083E2 		add	ip, r3, #8
 2933 01c4 B4E0C3E1 		strh	lr, [r3, #4]	@ movhi
 2934 01c8 012082E2 		add	r2, r2, #1
 2935 01cc B432D4E1 		ldrh	r3, [r4, #36]
 2936 01d0 1CC084E5 		str	ip, [r4, #28]
 2937 01d4 202084E5 		str	r2, [r4, #32]
 2938 01d8 0E0053E1 		cmp	r3, lr
 2939 01dc 0E30A0B1 		movlt	r3, lr
 2940 01e0 B432C4E1 		strh	r3, [r4, #36]	@ movhi
 2941 01e4 FEFFFFEB 		bl	_ZN11flatbuffers17FlatBufferBuilder8EndTableEm
 2942 01e8 F88FBDE8 		pop	{r3, r4, r5, r6, r7, r8, r9, r10, fp, pc}
 2943              	.L578:
 2944 01ec 0510A0E1 		mov	r1, r5
 2945 01f0 0400A0E1 		mov	r0, r4
 2946 01f4 FEFFFFEB 		bl	_ZN11flatbuffers17FlatBufferBuilder7ReferToEm
 2947 01f8 002050E2 		subs	r2, r0, #0
 2948 01fc 4C00001A 		bne	.L523
 2949 0200 2C30D4E5 		ldrb	r3, [r4, #44]	@ zero_extendqisi2
 2950 0204 000053E3 		cmp	r3, #0
 2951 0208 4900001A 		bne	.L523
 2952 020c 000059E3 		cmp	r9, #0
 2953 0210 9DFFFF0A 		beq	.L526
 2954              	.L525:
 2955 0214 283094E5 		ldr	r3, [r4, #40]
 2956 0218 0400A0E1 		mov	r0, r4
 2957 021c 185094E5 		ldr	r5, [r4, #24]
 2958 0220 142094E5 		ldr	r2, [r4, #20]
 2959 0224 030053E3 		cmp	r3, #3
 2960 0228 0430A093 		movls	r3, #4
 2961 022c 28308495 		strls	r3, [r4, #40]
 2962 0230 025045E0 		sub	r5, r5, r2
 2963 0234 103094E5 		ldr	r3, [r4, #16]
 2964 0238 035045E0 		sub	r5, r5, r3
 2965 023c 035005E2 		and	r5, r5, #3
 2966 0240 0510A0E1 		mov	r1, r5
 2967 0244 FEFFFFEB 		bl	_ZN11flatbuffers15vector_downward12ensure_spaceEj
 2968 0248 183094E5 		ldr	r3, [r4, #24]
 2969 024c 000055E3 		cmp	r5, #0
 2970 0250 000043E0 		sub	r0, r3, r0
 2971 0254 180084E5 		str	r0, [r4, #24]
 2972 0258 0800000A 		beq	.L527
 2973 025c 010055E3 		cmp	r5, #1
 2974 0260 0030A0E3 		mov	r3, #0
 2975 0264 0030C0E5 		strb	r3, [r0]
 2976 0268 0400000A 		beq	.L527
 2977 026c 182094E5 		ldr	r2, [r4, #24]
 2978 0270 020055E3 		cmp	r5, #2
 2979 0274 0130C2E5 		strb	r3, [r2, #1]
 2980 0278 18209415 		ldrne	r2, [r4, #24]
 2981 027c 0230C215 		strbne	r3, [r2, #2]
 2982              	.L527:
 2983 0280 0410A0E3 		mov	r1, #4
 2984 0284 0400A0E1 		mov	r0, r4
 2985 0288 FEFFFFEB 		bl	_ZN11flatbuffers15vector_downward12ensure_spaceEj
 2986 028c 183094E5 		ldr	r3, [r4, #24]
 2987 0290 0810A0E3 		mov	r1, #8
 2988 0294 142094E5 		ldr	r2, [r4, #20]
 2989 0298 105094E5 		ldr	r5, [r4, #16]
 2990 029c 000043E0 		sub	r0, r3, r0
 2991 02a0 023040E0 		sub	r3, r0, r2
 2992 02a4 180084E5 		str	r0, [r4, #24]
 2993 02a8 009080E5 		str	r9, [r0]
 2994 02ac 0400A0E1 		mov	r0, r4
 2995 02b0 035045E0 		sub	r5, r5, r3
 2996 02b4 FEFFFFEB 		bl	_ZN11flatbuffers15vector_downward12ensure_spaceEj
 2997 02b8 1C3094E5 		ldr	r3, [r4, #28]
 2998 02bc 0800A0E3 		mov	r0, #8
 2999 02c0 202094E5 		ldr	r2, [r4, #32]
 3000 02c4 001083E0 		add	r1, r3, r0
 3001 02c8 005083E5 		str	r5, [r3]
 3002 02cc B400C3E1 		strh	r0, [r3, #4]	@ movhi
 3003 02d0 012082E2 		add	r2, r2, #1
 3004 02d4 B432D4E1 		ldrh	r3, [r4, #36]
 3005 02d8 1C1084E5 		str	r1, [r4, #28]
 3006 02dc 202084E5 		str	r2, [r4, #32]
 3007 02e0 000053E1 		cmp	r3, r0
 3008 02e4 0030A0B1 		movlt	r3, r0
 3009 02e8 000058E3 		cmp	r8, #0
 3010 02ec B432C4E1 		strh	r3, [r4, #36]	@ movhi
 3011 02f0 67FFFF0A 		beq	.L529
 3012              	.L579:
 3013 02f4 0810A0E1 		mov	r1, r8
 3014 02f8 0400A0E1 		mov	r0, r4
 3015 02fc FEFFFFEB 		bl	_ZN11flatbuffers17FlatBufferBuilder7ReferToEm
 3016 0300 002050E2 		subs	r2, r0, #0
 3017 0304 0600001A 		bne	.L530
 3018 0308 2C30D4E5 		ldrb	r3, [r4, #44]	@ zero_extendqisi2
 3019 030c 000053E3 		cmp	r3, #0
 3020 0310 0300001A 		bne	.L530
 3021 0314 000057E3 		cmp	r7, #0
 3022 0318 88FFFF0A 		beq	.L533
 3023              	.L548:
 3024 031c 0170A0E3 		mov	r7, #1
 3025 0320 60FFFFEA 		b	.L532
 3026              	.L530:
 3027 0324 0410A0E3 		mov	r1, #4
 3028 0328 0400A0E1 		mov	r0, r4
 3029 032c FEFFFFEB 		bl	_ZN11flatbuffers17FlatBufferBuilder10AddElementImEEvtT_S2_.part.45
 3030 0330 57FFFFEA 		b	.L529
 3031              	.L523:
 3032 0334 0A10A0E3 		mov	r1, #10
 3033 0338 0400A0E1 		mov	r0, r4
 3034 033c FEFFFFEB 		bl	_ZN11flatbuffers17FlatBufferBuilder10AddElementImEEvtT_S2_.part.45
 3035 0340 4CFFFFEA 		b	.L522
 3036              	.L577:
 3037 0344 0A10A0E1 		mov	r1, r10
 3038 0348 0400A0E1 		mov	r0, r4
 3039 034c FEFFFFEB 		bl	_ZN11flatbuffers17FlatBufferBuilder7ReferToEm
 3040 0350 002050E2 		subs	r2, r0, #0
 3041 0354 0200001A 		bne	.L520
 3042 0358 2C30D4E5 		ldrb	r3, [r4, #44]	@ zero_extendqisi2
 3043 035c 000053E3 		cmp	r3, #0
 3044 0360 42FFFF0A 		beq	.L519
 3045              	.L520:
 3046 0364 0C10A0E3 		mov	r1, #12
 3047 0368 0400A0E1 		mov	r0, r4
 3048 036c FEFFFFEB 		bl	_ZN11flatbuffers17FlatBufferBuilder10AddElementImEEvtT_S2_.part.45
 3049 0370 3EFFFFEA 		b	.L519
 3050              	.L576:
 3051 0374 0B10A0E1 		mov	r1, fp
 3052 0378 0400A0E1 		mov	r0, r4
 3053 037c FEFFFFEB 		bl	_ZN11flatbuffers17FlatBufferBuilder7ReferToEm
 3054 0380 002050E2 		subs	r2, r0, #0
 3055 0384 0200001A 		bne	.L516
 3056 0388 2C30D4E5 		ldrb	r3, [r4, #44]	@ zero_extendqisi2
 3057 038c 000053E3 		cmp	r3, #0
 3058 0390 34FFFF0A 		beq	.L515
 3059              	.L516:
 3060 0394 1010A0E3 		mov	r1, #16
 3061 0398 0400A0E1 		mov	r0, r4
 3062 039c FEFFFFEB 		bl	_ZN11flatbuffers17FlatBufferBuilder10AddElementImEEvtT_S2_.part.45
 3063 03a0 30FFFFEA 		b	.L515
 3064              	.L575:
 3065 03a4 FEFFFFEB 		bl	_ZN11flatbuffers17FlatBufferBuilder7ReferToEm
 3066 03a8 002050E2 		subs	r2, r0, #0
 3067 03ac 0200001A 		bne	.L512
 3068 03b0 2C30D4E5 		ldrb	r3, [r4, #44]	@ zero_extendqisi2
 3069 03b4 000053E3 		cmp	r3, #0
 3070 03b8 28FFFF0A 		beq	.L511
 3071              	.L512:
 3072 03bc 1210A0E3 		mov	r1, #18
 3073 03c0 0400A0E1 		mov	r0, r4
 3074 03c4 FEFFFFEB 		bl	_ZN11flatbuffers17FlatBufferBuilder10AddElementImEEvtT_S2_.part.45
 3075 03c8 24FFFFEA 		b	.L511
 3076              	.L573:
 3077 03cc 003000E3 		movw	r3, #:lower16:.LC24
 3078 03d0 002000E3 		movw	r2, #:lower16:.LANCHOR11
 3079 03d4 000000E3 		movw	r0, #:lower16:.LC19
 3080 03d8 003040E3 		movt	r3, #:upper16:.LC24
 3081 03dc 002040E3 		movt	r2, #:upper16:.LANCHOR11
 3082 03e0 000040E3 		movt	r0, #:upper16:.LC19
 3083 03e4 481500E3 		movw	r1, #1352
 3084 03e8 FEFFFFEB 		bl	__assert_func
 3085              	.L574:
 3086 03ec FEFFFFEB 		bl	_ZN11flatbuffers17FlatBufferBuilder9NotNestedEv.isra.20.part.21
 3087              		.fnend
 3089              		.section	.text._ZN6tflite12CreateTensorERN11flatbuffers17FlatBufferBuilderENS0_6OffsetINS0_6Vector
 3090              		.align	2
 3091              		.syntax unified
 3092              		.arm
 3093              		.fpu neon
 3095              	_ZN6tflite12CreateTensorERN11flatbuffers17FlatBufferBuilderENS0_6OffsetINS0_6VectorIlEEEENS_10Tenso
 3096              		.fnstart
 3097              	.LFB11812:
 3098              		@ args = 12, pretend = 0, frame = 0
 3099              		@ frame_needed = 0, uses_anonymous_args = 0
 3100 0000 F0472DE9 		push	{r4, r5, r6, r7, r8, r9, r10, lr}
 3101              		.save {r4, r5, r6, r7, r8, r9, r10, lr}
 3102 0004 0180A0E1 		mov	r8, r1
 3103 0008 2610D0E5 		ldrb	r1, [r0, #38]	@ zero_extendqisi2
 3104 000c 0350A0E1 		mov	r5, r3
 3105 0010 20909DE5 		ldr	r9, [sp, #32]
 3106 0014 000051E3 		cmp	r1, #0
 3107 0018 203090E5 		ldr	r3, [r0, #32]
 3108 001c 24A09DE5 		ldr	r10, [sp, #36]
 3109 0020 28109DE5 		ldr	r1, [sp, #40]
 3110 0024 E700001A 		bne	.L646
 3111 0028 000053E3 		cmp	r3, #0
 3112 002c E400001A 		bne	.L647
 3113 0030 0260A0E1 		mov	r6, r2
 3114 0034 183090E5 		ldr	r3, [r0, #24]
 3115 0038 142090E5 		ldr	r2, [r0, #20]
 3116 003c 000051E3 		cmp	r1, #0
 3117 0040 107090E5 		ldr	r7, [r0, #16]
 3118 0044 01C0A0E3 		mov	ip, #1
 3119 0048 0040A0E1 		mov	r4, r0
 3120 004c 26C0C0E5 		strb	ip, [r0, #38]
 3121 0050 023043E0 		sub	r3, r3, r2
 3122 0054 037047E0 		sub	r7, r7, r3
 3123 0058 CF00001A 		bne	.L648
 3124              	.L584:
 3125 005c 00005AE3 		cmp	r10, #0
 3126 0060 C100001A 		bne	.L649
 3127              	.L588:
 3128 0064 000059E3 		cmp	r9, #0
 3129 0068 B300001A 		bne	.L650
 3130              	.L592:
 3131 006c 000055E3 		cmp	r5, #0
 3132 0070 A500001A 		bne	.L651
 3133              	.L595:
 3134 0074 2C30D4E5 		ldrb	r3, [r4, #44]	@ zero_extendqisi2
 3135 0078 000053E3 		cmp	r3, #0
 3136 007c 3600000A 		beq	.L597
 3137 0080 283094E5 		ldr	r3, [r4, #40]
 3138 0084 0400A0E1 		mov	r0, r4
 3139 0088 185094E5 		ldr	r5, [r4, #24]
 3140 008c 142094E5 		ldr	r2, [r4, #20]
 3141 0090 030053E3 		cmp	r3, #3
 3142 0094 0430A093 		movls	r3, #4
 3143 0098 28308495 		strls	r3, [r4, #40]
 3144 009c 025045E0 		sub	r5, r5, r2
 3145 00a0 103094E5 		ldr	r3, [r4, #16]
 3146 00a4 035045E0 		sub	r5, r5, r3
 3147 00a8 035005E2 		and	r5, r5, #3
 3148 00ac 0510A0E1 		mov	r1, r5
 3149 00b0 FEFFFFEB 		bl	_ZN11flatbuffers15vector_downward12ensure_spaceEj
 3150 00b4 183094E5 		ldr	r3, [r4, #24]
 3151 00b8 000055E3 		cmp	r5, #0
 3152 00bc 000043E0 		sub	r0, r3, r0
 3153 00c0 180084E5 		str	r0, [r4, #24]
 3154 00c4 0800000A 		beq	.L600
 3155 00c8 010055E3 		cmp	r5, #1
 3156 00cc 0030A0E3 		mov	r3, #0
 3157 00d0 0030C0E5 		strb	r3, [r0]
 3158 00d4 0400000A 		beq	.L600
 3159 00d8 182094E5 		ldr	r2, [r4, #24]
 3160 00dc 020055E3 		cmp	r5, #2
 3161 00e0 0130C2E5 		strb	r3, [r2, #1]
 3162 00e4 18209415 		ldrne	r2, [r4, #24]
 3163 00e8 0230C215 		strbne	r3, [r2, #2]
 3164              	.L600:
 3165 00ec 0410A0E3 		mov	r1, #4
 3166 00f0 0400A0E1 		mov	r0, r4
 3167 00f4 FEFFFFEB 		bl	_ZN11flatbuffers15vector_downward12ensure_spaceEj
 3168 00f8 183094E5 		ldr	r3, [r4, #24]
 3169 00fc 00C0A0E3 		mov	ip, #0
 3170 0100 142094E5 		ldr	r2, [r4, #20]
 3171 0104 0810A0E3 		mov	r1, #8
 3172 0108 105094E5 		ldr	r5, [r4, #16]
 3173 010c 000043E0 		sub	r0, r3, r0
 3174 0110 023040E0 		sub	r3, r0, r2
 3175 0114 180084E5 		str	r0, [r4, #24]
 3176 0118 00C080E5 		str	ip, [r0]
 3177 011c 0400A0E1 		mov	r0, r4
 3178 0120 035045E0 		sub	r5, r5, r3
 3179 0124 FEFFFFEB 		bl	_ZN11flatbuffers15vector_downward12ensure_spaceEj
 3180 0128 1C3094E5 		ldr	r3, [r4, #28]
 3181 012c 0800A0E3 		mov	r0, #8
 3182 0130 202094E5 		ldr	r2, [r4, #32]
 3183 0134 001083E0 		add	r1, r3, r0
 3184 0138 005083E5 		str	r5, [r3]
 3185 013c B400C3E1 		strh	r0, [r3, #4]	@ movhi
 3186 0140 012082E2 		add	r2, r2, #1
 3187 0144 B432D4E1 		ldrh	r3, [r4, #36]
 3188 0148 1C1084E5 		str	r1, [r4, #28]
 3189 014c 202084E5 		str	r2, [r4, #32]
 3190 0150 000053E1 		cmp	r3, r0
 3191 0154 0030A0B1 		movlt	r3, r0
 3192 0158 B432C4E1 		strh	r3, [r4, #36]	@ movhi
 3193              	.L597:
 3194 015c 000058E3 		cmp	r8, #0
 3195 0160 5900001A 		bne	.L652
 3196              	.L602:
 3197 0164 2C30D4E5 		ldrb	r3, [r4, #44]	@ zero_extendqisi2
 3198 0168 000053E3 		cmp	r3, #0
 3199 016c 5E00000A 		beq	.L642
 3200 0170 283094E5 		ldr	r3, [r4, #40]
 3201 0174 0010A0E3 		mov	r1, #0
 3202 0178 0400A0E1 		mov	r0, r4
 3203 017c 7660AFE6 		sxtb	r6, r6
 3204 0180 000053E3 		cmp	r3, #0
 3205 0184 0130A003 		moveq	r3, #1
 3206 0188 28308405 		streq	r3, [r4, #40]
 3207 018c FEFFFFEB 		bl	_ZN11flatbuffers15vector_downward12ensure_spaceEj
 3208 0190 183094E5 		ldr	r3, [r4, #24]
 3209 0194 0110A0E3 		mov	r1, #1
 3210 0198 003043E0 		sub	r3, r3, r0
 3211 019c 0400A0E1 		mov	r0, r4
 3212 01a0 183084E5 		str	r3, [r4, #24]
 3213 01a4 FEFFFFEB 		bl	_ZN11flatbuffers15vector_downward12ensure_spaceEj
 3214 01a8 183094E5 		ldr	r3, [r4, #24]
 3215 01ac 0020A0E3 		mov	r2, #0
 3216 01b0 0810A0E3 		mov	r1, #8
 3217 01b4 003043E0 		sub	r3, r3, r0
 3218 01b8 0400A0E1 		mov	r0, r4
 3219 01bc 183084E5 		str	r3, [r4, #24]
 3220 01c0 0020C3E5 		strb	r2, [r3]
 3221 01c4 142094E5 		ldr	r2, [r4, #20]
 3222 01c8 183094E5 		ldr	r3, [r4, #24]
 3223 01cc 105094E5 		ldr	r5, [r4, #16]
 3224 01d0 023043E0 		sub	r3, r3, r2
 3225 01d4 035045E0 		sub	r5, r5, r3
 3226 01d8 FEFFFFEB 		bl	_ZN11flatbuffers15vector_downward12ensure_spaceEj
 3227 01dc 1C3094E5 		ldr	r3, [r4, #28]
 3228 01e0 0E00A0E3 		mov	r0, #14
 3229 01e4 202094E5 		ldr	r2, [r4, #32]
 3230 01e8 081083E2 		add	r1, r3, #8
 3231 01ec 005083E5 		str	r5, [r3]
 3232 01f0 B400C3E1 		strh	r0, [r3, #4]	@ movhi
 3233 01f4 012082E2 		add	r2, r2, #1
 3234 01f8 B432D4E1 		ldrh	r3, [r4, #36]
 3235 01fc 1C1084E5 		str	r1, [r4, #28]
 3236 0200 202084E5 		str	r2, [r4, #32]
 3237 0204 000053E1 		cmp	r3, r0
 3238 0208 0030A0B1 		movlt	r3, r0
 3239 020c 000056E3 		cmp	r6, #0
 3240 0210 B432C4E1 		strh	r3, [r4, #36]	@ movhi
 3241 0214 0200001A 		bne	.L608
 3242 0218 2C30D4E5 		ldrb	r3, [r4, #44]	@ zero_extendqisi2
 3243 021c 000053E3 		cmp	r3, #0
 3244 0220 2500000A 		beq	.L609
 3245              	.L608:
 3246 0224 283094E5 		ldr	r3, [r4, #40]
 3247 0228 0010A0E3 		mov	r1, #0
 3248 022c 0400A0E1 		mov	r0, r4
 3249 0230 000053E3 		cmp	r3, #0
 3250 0234 0130A003 		moveq	r3, #1
 3251 0238 28308405 		streq	r3, [r4, #40]
 3252 023c FEFFFFEB 		bl	_ZN11flatbuffers15vector_downward12ensure_spaceEj
 3253 0240 183094E5 		ldr	r3, [r4, #24]
 3254 0244 0110A0E3 		mov	r1, #1
 3255 0248 003043E0 		sub	r3, r3, r0
 3256 024c 0400A0E1 		mov	r0, r4
 3257 0250 183084E5 		str	r3, [r4, #24]
 3258 0254 FEFFFFEB 		bl	_ZN11flatbuffers15vector_downward12ensure_spaceEj
 3259 0258 183094E5 		ldr	r3, [r4, #24]
 3260 025c 0810A0E3 		mov	r1, #8
 3261 0260 003043E0 		sub	r3, r3, r0
 3262 0264 0400A0E1 		mov	r0, r4
 3263 0268 183084E5 		str	r3, [r4, #24]
 3264 026c 0060C3E5 		strb	r6, [r3]
 3265 0270 142094E5 		ldr	r2, [r4, #20]
 3266 0274 183094E5 		ldr	r3, [r4, #24]
 3267 0278 105094E5 		ldr	r5, [r4, #16]
 3268 027c 023043E0 		sub	r3, r3, r2
 3269 0280 035045E0 		sub	r5, r5, r3
 3270 0284 FEFFFFEB 		bl	_ZN11flatbuffers15vector_downward12ensure_spaceEj
 3271 0288 1C3094E5 		ldr	r3, [r4, #28]
 3272 028c 0600A0E3 		mov	r0, #6
 3273 0290 202094E5 		ldr	r2, [r4, #32]
 3274 0294 081083E2 		add	r1, r3, #8
 3275 0298 005083E5 		str	r5, [r3]
 3276 029c B400C3E1 		strh	r0, [r3, #4]	@ movhi
 3277 02a0 012082E2 		add	r2, r2, #1
 3278 02a4 B432D4E1 		ldrh	r3, [r4, #36]
 3279 02a8 1C1084E5 		str	r1, [r4, #28]
 3280 02ac 202084E5 		str	r2, [r4, #32]
 3281 02b0 000053E1 		cmp	r3, r0
 3282 02b4 0030A0B1 		movlt	r3, r0
 3283 02b8 B432C4E1 		strh	r3, [r4, #36]	@ movhi
 3284              	.L609:
 3285 02bc 0710A0E1 		mov	r1, r7
 3286 02c0 0400A0E1 		mov	r0, r4
 3287 02c4 FEFFFFEB 		bl	_ZN11flatbuffers17FlatBufferBuilder8EndTableEm
 3288 02c8 F087BDE8 		pop	{r4, r5, r6, r7, r8, r9, r10, pc}
 3289              	.L652:
 3290 02cc 0810A0E1 		mov	r1, r8
 3291 02d0 0400A0E1 		mov	r0, r4
 3292 02d4 FEFFFFEB 		bl	_ZN11flatbuffers17FlatBufferBuilder7ReferToEm
 3293 02d8 002050E2 		subs	r2, r0, #0
 3294 02dc 0600001A 		bne	.L603
 3295 02e0 2C30D4E5 		ldrb	r3, [r4, #44]	@ zero_extendqisi2
 3296 02e4 000053E3 		cmp	r3, #0
 3297 02e8 0300001A 		bne	.L603
 3298              	.L642:
 3299 02ec 7660AFE6 		sxtb	r6, r6
 3300 02f0 000056E3 		cmp	r6, #0
 3301 02f4 CAFFFF1A 		bne	.L608
 3302 02f8 EFFFFFEA 		b	.L609
 3303              	.L603:
 3304 02fc 0410A0E3 		mov	r1, #4
 3305 0300 0400A0E1 		mov	r0, r4
 3306 0304 FEFFFFEB 		bl	_ZN11flatbuffers17FlatBufferBuilder10AddElementImEEvtT_S2_.part.45
 3307 0308 95FFFFEA 		b	.L602
 3308              	.L651:
 3309 030c 0510A0E1 		mov	r1, r5
 3310 0310 0400A0E1 		mov	r0, r4
 3311 0314 FEFFFFEB 		bl	_ZN11flatbuffers17FlatBufferBuilder7ReferToEm
 3312 0318 002050E2 		subs	r2, r0, #0
 3313 031c 0200001A 		bne	.L596
 3314 0320 2C30D4E5 		ldrb	r3, [r4, #44]	@ zero_extendqisi2
 3315 0324 000053E3 		cmp	r3, #0
 3316 0328 8BFFFF0A 		beq	.L597
 3317              	.L596:
 3318 032c 0A10A0E3 		mov	r1, #10
 3319 0330 0400A0E1 		mov	r0, r4
 3320 0334 FEFFFFEB 		bl	_ZN11flatbuffers17FlatBufferBuilder10AddElementImEEvtT_S2_.part.45
 3321 0338 4DFFFFEA 		b	.L595
 3322              	.L650:
 3323 033c 0910A0E1 		mov	r1, r9
 3324 0340 0400A0E1 		mov	r0, r4
 3325 0344 FEFFFFEB 		bl	_ZN11flatbuffers17FlatBufferBuilder7ReferToEm
 3326 0348 002050E2 		subs	r2, r0, #0
 3327 034c 0200001A 		bne	.L593
 3328 0350 2C30D4E5 		ldrb	r3, [r4, #44]	@ zero_extendqisi2
 3329 0354 000053E3 		cmp	r3, #0
 3330 0358 43FFFF0A 		beq	.L592
 3331              	.L593:
 3332 035c 0C10A0E3 		mov	r1, #12
 3333 0360 0400A0E1 		mov	r0, r4
 3334 0364 FEFFFFEB 		bl	_ZN11flatbuffers17FlatBufferBuilder10AddElementImEEvtT_S2_.part.45
 3335 0368 3FFFFFEA 		b	.L592
 3336              	.L649:
 3337 036c 0A10A0E1 		mov	r1, r10
 3338 0370 0400A0E1 		mov	r0, r4
 3339 0374 FEFFFFEB 		bl	_ZN11flatbuffers17FlatBufferBuilder7ReferToEm
 3340 0378 002050E2 		subs	r2, r0, #0
 3341 037c 0200001A 		bne	.L589
 3342 0380 2C30D4E5 		ldrb	r3, [r4, #44]	@ zero_extendqisi2
 3343 0384 000053E3 		cmp	r3, #0
 3344 0388 35FFFF0A 		beq	.L588
 3345              	.L589:
 3346 038c 1010A0E3 		mov	r1, #16
 3347 0390 0400A0E1 		mov	r0, r4
 3348 0394 FEFFFFEB 		bl	_ZN11flatbuffers17FlatBufferBuilder10AddElementImEEvtT_S2_.part.45
 3349 0398 31FFFFEA 		b	.L588
 3350              	.L648:
 3351 039c FEFFFFEB 		bl	_ZN11flatbuffers17FlatBufferBuilder7ReferToEm
 3352 03a0 002050E2 		subs	r2, r0, #0
 3353 03a4 0200001A 		bne	.L585
 3354 03a8 2C30D4E5 		ldrb	r3, [r4, #44]	@ zero_extendqisi2
 3355 03ac 000053E3 		cmp	r3, #0
 3356 03b0 29FFFF0A 		beq	.L584
 3357              	.L585:
 3358 03b4 1210A0E3 		mov	r1, #18
 3359 03b8 0400A0E1 		mov	r0, r4
 3360 03bc FEFFFFEB 		bl	_ZN11flatbuffers17FlatBufferBuilder10AddElementImEEvtT_S2_.part.45
 3361 03c0 25FFFFEA 		b	.L584
 3362              	.L647:
 3363 03c4 FEFFFFEB 		bl	_ZN11flatbuffers17FlatBufferBuilder9NotNestedEv.isra.20.part.21
 3364              	.L646:
 3365 03c8 003000E3 		movw	r3, #:lower16:.LC24
 3366 03cc 002000E3 		movw	r2, #:lower16:.LANCHOR11
 3367 03d0 000000E3 		movw	r0, #:lower16:.LC19
 3368 03d4 003040E3 		movt	r3, #:upper16:.LC24
 3369 03d8 002040E3 		movt	r2, #:upper16:.LANCHOR11
 3370 03dc 000040E3 		movt	r0, #:upper16:.LC19
 3371 03e0 481500E3 		movw	r1, #1352
 3372 03e4 FEFFFFEB 		bl	__assert_func
 3373              		.fnend
 3375              		.section	.text._ZN11flatbuffers17FlatBufferBuilder12CreateStringEPKcj,"axG",%progbits,_ZN11flatbuf
 3376              		.align	2
 3377              		.weak	_ZN11flatbuffers17FlatBufferBuilder12CreateStringEPKcj
 3378              		.syntax unified
 3379              		.arm
 3380              		.fpu neon
 3382              	_ZN11flatbuffers17FlatBufferBuilder12CreateStringEPKcj:
 3383              		.fnstart
 3384              	.LFB3647:
 3385              		@ args = 0, pretend = 0, frame = 0
 3386              		@ frame_needed = 0, uses_anonymous_args = 0
 3387 0000 F0412DE9 		push	{r4, r5, r6, r7, r8, lr}
 3388              		.save {r4, r5, r6, r7, r8, lr}
 3389 0004 0170A0E1 		mov	r7, r1
 3390 0008 2610D0E5 		ldrb	r1, [r0, #38]	@ zero_extendqisi2
 3391 000c 203090E5 		ldr	r3, [r0, #32]
 3392 0010 000051E3 		cmp	r1, #0
 3393 0014 5A00001A 		bne	.L683
 3394 0018 000053E3 		cmp	r3, #0
 3395 001c 5700001A 		bne	.L684
 3396 0020 0250A0E1 		mov	r5, r2
 3397 0024 282090E5 		ldr	r2, [r0, #40]
 3398 0028 101090E5 		ldr	r1, [r0, #16]
 3399 002c 013085E2 		add	r3, r5, #1
 3400 0030 186090E5 		ldr	r6, [r0, #24]
 3401 0034 0040A0E1 		mov	r4, r0
 3402 0038 030052E3 		cmp	r2, #3
 3403 003c 0420A093 		movls	r2, #4
 3404 0040 013083E0 		add	r3, r3, r1
 3405 0044 28208095 		strls	r2, [r0, #40]
 3406 0048 142090E5 		ldr	r2, [r0, #20]
 3407 004c 026046E0 		sub	r6, r6, r2
 3408 0050 036046E0 		sub	r6, r6, r3
 3409 0054 036006E2 		and	r6, r6, #3
 3410 0058 0610A0E1 		mov	r1, r6
 3411 005c FEFFFFEB 		bl	_ZN11flatbuffers15vector_downward12ensure_spaceEj
 3412 0060 183094E5 		ldr	r3, [r4, #24]
 3413 0064 000056E3 		cmp	r6, #0
 3414 0068 000043E0 		sub	r0, r3, r0
 3415 006c 180084E5 		str	r0, [r4, #24]
 3416 0070 0800000A 		beq	.L657
 3417 0074 010056E3 		cmp	r6, #1
 3418 0078 0030A0E3 		mov	r3, #0
 3419 007c 0030C0E5 		strb	r3, [r0]
 3420 0080 0400000A 		beq	.L657
 3421 0084 182094E5 		ldr	r2, [r4, #24]
 3422 0088 020056E3 		cmp	r6, #2
 3423 008c 0130C2E5 		strb	r3, [r2, #1]
 3424 0090 18209415 		ldrne	r2, [r4, #24]
 3425 0094 0230C215 		strbne	r3, [r2, #2]
 3426              	.L657:
 3427 0098 0110A0E3 		mov	r1, #1
 3428 009c 0400A0E1 		mov	r0, r4
 3429 00a0 FEFFFFEB 		bl	_ZN11flatbuffers15vector_downward12ensure_spaceEj
 3430 00a4 183094E5 		ldr	r3, [r4, #24]
 3431 00a8 000055E3 		cmp	r5, #0
 3432 00ac 0020A0E3 		mov	r2, #0
 3433 00b0 000043E0 		sub	r0, r3, r0
 3434 00b4 180084E5 		str	r0, [r4, #24]
 3435 00b8 0020C0E5 		strb	r2, [r0]
 3436 00bc 2500001A 		bne	.L685
 3437              	.L658:
 3438 00c0 283094E5 		ldr	r3, [r4, #40]
 3439 00c4 0400A0E1 		mov	r0, r4
 3440 00c8 186094E5 		ldr	r6, [r4, #24]
 3441 00cc 142094E5 		ldr	r2, [r4, #20]
 3442 00d0 030053E3 		cmp	r3, #3
 3443 00d4 0430A093 		movls	r3, #4
 3444 00d8 28308495 		strls	r3, [r4, #40]
 3445 00dc 026046E0 		sub	r6, r6, r2
 3446 00e0 103094E5 		ldr	r3, [r4, #16]
 3447 00e4 036046E0 		sub	r6, r6, r3
 3448 00e8 036006E2 		and	r6, r6, #3
 3449 00ec 0610A0E1 		mov	r1, r6
 3450 00f0 FEFFFFEB 		bl	_ZN11flatbuffers15vector_downward12ensure_spaceEj
 3451 00f4 183094E5 		ldr	r3, [r4, #24]
 3452 00f8 000056E3 		cmp	r6, #0
 3453 00fc 000043E0 		sub	r0, r3, r0
 3454 0100 180084E5 		str	r0, [r4, #24]
 3455 0104 0800000A 		beq	.L660
 3456 0108 010056E3 		cmp	r6, #1
 3457 010c 0030A0E3 		mov	r3, #0
 3458 0110 0030C0E5 		strb	r3, [r0]
 3459 0114 0400000A 		beq	.L660
 3460 0118 182094E5 		ldr	r2, [r4, #24]
 3461 011c 020056E3 		cmp	r6, #2
 3462 0120 0130C2E5 		strb	r3, [r2, #1]
 3463 0124 18209415 		ldrne	r2, [r4, #24]
 3464 0128 0230C215 		strbne	r3, [r2, #2]
 3465              	.L660:
 3466 012c 0410A0E3 		mov	r1, #4
 3467 0130 0400A0E1 		mov	r0, r4
 3468 0134 FEFFFFEB 		bl	_ZN11flatbuffers15vector_downward12ensure_spaceEj
 3469 0138 101084E2 		add	r1, r4, #16
 3470 013c 0E0091E8 		ldm	r1, {r1, r2, r3}
 3471 0140 003043E0 		sub	r3, r3, r0
 3472 0144 020043E0 		sub	r0, r3, r2
 3473 0148 183084E5 		str	r3, [r4, #24]
 3474 014c 000041E0 		sub	r0, r1, r0
 3475 0150 005083E5 		str	r5, [r3]
 3476 0154 F081BDE8 		pop	{r4, r5, r6, r7, r8, pc}
 3477              	.L685:
 3478 0158 0510A0E1 		mov	r1, r5
 3479 015c 0400A0E1 		mov	r0, r4
 3480 0160 FEFFFFEB 		bl	_ZN11flatbuffers15vector_downward12ensure_spaceEj
 3481 0164 183094E5 		ldr	r3, [r4, #24]
 3482 0168 0710A0E1 		mov	r1, r7
 3483 016c 0520A0E1 		mov	r2, r5
 3484 0170 000043E0 		sub	r0, r3, r0
 3485 0174 180084E5 		str	r0, [r4, #24]
 3486 0178 FEFFFFEB 		bl	memcpy
 3487 017c CFFFFFEA 		b	.L658
 3488              	.L684:
 3489 0180 FEFFFFEB 		bl	_ZN11flatbuffers17FlatBufferBuilder9NotNestedEv.isra.20.part.21
 3490              	.L683:
 3491 0184 003000E3 		movw	r3, #:lower16:.LC24
 3492 0188 002000E3 		movw	r2, #:lower16:.LANCHOR11
 3493 018c 000000E3 		movw	r0, #:lower16:.LC19
 3494 0190 003040E3 		movt	r3, #:upper16:.LC24
 3495 0194 002040E3 		movt	r2, #:upper16:.LANCHOR11
 3496 0198 000040E3 		movt	r0, #:upper16:.LC19
 3497 019c 481500E3 		movw	r1, #1352
 3498 01a0 FEFFFFEB 		bl	__assert_func
 3499              		.fnend
 3501              		.section	.text._ZN6tflite24CreateOperatorCodeDirectERN11flatbuffers17FlatBufferBuilderEaPKclNS_15B
 3502              		.align	2
 3503              		.syntax unified
 3504              		.arm
 3505              		.fpu neon
 3507              	_ZN6tflite24CreateOperatorCodeDirectERN11flatbuffers17FlatBufferBuilderEaPKclNS_15BuiltinOperatorE.
 3508              		.fnstart
 3509              	.LFB11814:
 3510              		@ args = 0, pretend = 0, frame = 0
 3511              		@ frame_needed = 0, uses_anonymous_args = 0
 3512 0000 F0412DE9 		push	{r4, r5, r6, r7, r8, lr}
 3513              		.save {r4, r5, r6, r7, r8, lr}
 3514 0004 006051E2 		subs	r6, r1, #0
 3515 0008 0040A0E1 		mov	r4, r0
 3516 000c 0280A0E1 		mov	r8, r2
 3517 0010 0600000A 		beq	.L687
 3518 0014 0600A0E1 		mov	r0, r6
 3519 0018 FEFFFFEB 		bl	strlen
 3520 001c 0610A0E1 		mov	r1, r6
 3521 0020 0020A0E1 		mov	r2, r0
 3522 0024 0400A0E1 		mov	r0, r4
 3523 0028 FEFFFFEB 		bl	_ZN11flatbuffers17FlatBufferBuilder12CreateStringEPKcj
 3524 002c 0060A0E1 		mov	r6, r0
 3525              	.L687:
 3526 0030 2620D4E5 		ldrb	r2, [r4, #38]	@ zero_extendqisi2
 3527 0034 203094E5 		ldr	r3, [r4, #32]
 3528 0038 000052E3 		cmp	r2, #0
 3529 003c E900001A 		bne	.L748
 3530 0040 000053E3 		cmp	r3, #0
 3531 0044 EF00001A 		bne	.L749
 3532 0048 183094E5 		ldr	r3, [r4, #24]
 3533 004c 000058E3 		cmp	r8, #0
 3534 0050 142094E5 		ldr	r2, [r4, #20]
 3535 0054 0110A0E3 		mov	r1, #1
 3536 0058 107094E5 		ldr	r7, [r4, #16]
 3537 005c 2610C4E5 		strb	r1, [r4, #38]
 3538 0060 023043E0 		sub	r3, r3, r2
 3539 0064 037047E0 		sub	r7, r7, r3
 3540 0068 6600001A 		bne	.L690
 3541 006c 2C30D4E5 		ldrb	r3, [r4, #44]	@ zero_extendqisi2
 3542 0070 000053E3 		cmp	r3, #0
 3543 0074 0750A001 		moveq	r5, r7
 3544 0078 6200001A 		bne	.L690
 3545              	.L691:
 3546 007c 283094E5 		ldr	r3, [r4, #40]
 3547 0080 005065E2 		rsb	r5, r5, #0
 3548 0084 035005E2 		and	r5, r5, #3
 3549 0088 0400A0E1 		mov	r0, r4
 3550 008c 0510A0E1 		mov	r1, r5
 3551 0090 030053E3 		cmp	r3, #3
 3552 0094 0430A093 		movls	r3, #4
 3553 0098 28308495 		strls	r3, [r4, #40]
 3554 009c FEFFFFEB 		bl	_ZN11flatbuffers15vector_downward12ensure_spaceEj
 3555 00a0 183094E5 		ldr	r3, [r4, #24]
 3556 00a4 000055E3 		cmp	r5, #0
 3557 00a8 000043E0 		sub	r0, r3, r0
 3558 00ac 180084E5 		str	r0, [r4, #24]
 3559 00b0 0800000A 		beq	.L695
 3560 00b4 010055E3 		cmp	r5, #1
 3561 00b8 0030A0E3 		mov	r3, #0
 3562 00bc 0030C0E5 		strb	r3, [r0]
 3563 00c0 0400000A 		beq	.L695
 3564 00c4 182094E5 		ldr	r2, [r4, #24]
 3565 00c8 020055E3 		cmp	r5, #2
 3566 00cc 0130C2E5 		strb	r3, [r2, #1]
 3567 00d0 18209415 		ldrne	r2, [r4, #24]
 3568 00d4 0230C215 		strbne	r3, [r2, #2]
 3569              	.L695:
 3570 00d8 0410A0E3 		mov	r1, #4
 3571 00dc 0400A0E1 		mov	r0, r4
 3572 00e0 FEFFFFEB 		bl	_ZN11flatbuffers15vector_downward12ensure_spaceEj
 3573 00e4 183094E5 		ldr	r3, [r4, #24]
 3574 00e8 00C0A0E3 		mov	ip, #0
 3575 00ec 142094E5 		ldr	r2, [r4, #20]
 3576 00f0 0810A0E3 		mov	r1, #8
 3577 00f4 105094E5 		ldr	r5, [r4, #16]
 3578 00f8 003043E0 		sub	r3, r3, r0
 3579 00fc 0400A0E1 		mov	r0, r4
 3580 0100 022043E0 		sub	r2, r3, r2
 3581 0104 183084E5 		str	r3, [r4, #24]
 3582 0108 00C083E5 		str	ip, [r3]
 3583 010c 025045E0 		sub	r5, r5, r2
 3584 0110 FEFFFFEB 		bl	_ZN11flatbuffers15vector_downward12ensure_spaceEj
 3585 0114 1C3094E5 		ldr	r3, [r4, #28]
 3586 0118 0800A0E3 		mov	r0, #8
 3587 011c 202094E5 		ldr	r2, [r4, #32]
 3588 0120 001083E0 		add	r1, r3, r0
 3589 0124 005083E5 		str	r5, [r3]
 3590 0128 B400C3E1 		strh	r0, [r3, #4]	@ movhi
 3591 012c 012082E2 		add	r2, r2, #1
 3592 0130 B432D4E1 		ldrh	r3, [r4, #36]
 3593 0134 1C1084E5 		str	r1, [r4, #28]
 3594 0138 202084E5 		str	r2, [r4, #32]
 3595 013c 000053E1 		cmp	r3, r0
 3596 0140 0030A0B1 		movlt	r3, r0
 3597 0144 000056E3 		cmp	r6, #0
 3598 0148 B432C4E1 		strh	r3, [r4, #36]	@ movhi
 3599 014c 6500001A 		bne	.L750
 3600              	.L697:
 3601 0150 2C30D4E5 		ldrb	r3, [r4, #44]	@ zero_extendqisi2
 3602 0154 000053E3 		cmp	r3, #0
 3603 0158 2600000A 		beq	.L699
 3604 015c 283094E5 		ldr	r3, [r4, #40]
 3605 0160 0010A0E3 		mov	r1, #0
 3606 0164 0400A0E1 		mov	r0, r4
 3607 0168 000053E3 		cmp	r3, #0
 3608 016c 0130A003 		moveq	r3, #1
 3609 0170 28308405 		streq	r3, [r4, #40]
 3610 0174 FEFFFFEB 		bl	_ZN11flatbuffers15vector_downward12ensure_spaceEj
 3611 0178 183094E5 		ldr	r3, [r4, #24]
 3612 017c 0110A0E3 		mov	r1, #1
 3613 0180 003043E0 		sub	r3, r3, r0
 3614 0184 0400A0E1 		mov	r0, r4
 3615 0188 183084E5 		str	r3, [r4, #24]
 3616 018c FEFFFFEB 		bl	_ZN11flatbuffers15vector_downward12ensure_spaceEj
 3617 0190 183094E5 		ldr	r3, [r4, #24]
 3618 0194 0020A0E3 		mov	r2, #0
 3619 0198 0810A0E3 		mov	r1, #8
 3620 019c 003043E0 		sub	r3, r3, r0
 3621 01a0 0400A0E1 		mov	r0, r4
 3622 01a4 183084E5 		str	r3, [r4, #24]
 3623 01a8 0020C3E5 		strb	r2, [r3]
 3624 01ac 142094E5 		ldr	r2, [r4, #20]
 3625 01b0 183094E5 		ldr	r3, [r4, #24]
 3626 01b4 105094E5 		ldr	r5, [r4, #16]
 3627 01b8 023043E0 		sub	r3, r3, r2
 3628 01bc 035045E0 		sub	r5, r5, r3
 3629 01c0 FEFFFFEB 		bl	_ZN11flatbuffers15vector_downward12ensure_spaceEj
 3630 01c4 1C3094E5 		ldr	r3, [r4, #28]
 3631 01c8 0400A0E3 		mov	r0, #4
 3632 01cc 202094E5 		ldr	r2, [r4, #32]
 3633 01d0 081083E2 		add	r1, r3, #8
 3634 01d4 005083E5 		str	r5, [r3]
 3635 01d8 B400C3E1 		strh	r0, [r3, #4]	@ movhi
 3636 01dc 012082E2 		add	r2, r2, #1
 3637 01e0 B432D4E1 		ldrh	r3, [r4, #36]
 3638 01e4 1C1084E5 		str	r1, [r4, #28]
 3639 01e8 202084E5 		str	r2, [r4, #32]
 3640 01ec 000053E1 		cmp	r3, r0
 3641 01f0 0030A0B1 		movlt	r3, r0
 3642 01f4 B432C4E1 		strh	r3, [r4, #36]	@ movhi
 3643              	.L699:
 3644 01f8 0710A0E1 		mov	r1, r7
 3645 01fc 0400A0E1 		mov	r0, r4
 3646 0200 FEFFFFEB 		bl	_ZN11flatbuffers17FlatBufferBuilder8EndTableEm
 3647 0204 F081BDE8 		pop	{r4, r5, r6, r7, r8, pc}
 3648              	.L690:
 3649 0208 283094E5 		ldr	r3, [r4, #40]
 3650 020c 005067E2 		rsb	r5, r7, #0
 3651 0210 035005E2 		and	r5, r5, #3
 3652 0214 0400A0E1 		mov	r0, r4
 3653 0218 0510A0E1 		mov	r1, r5
 3654 021c 030053E3 		cmp	r3, #3
 3655 0220 0430A093 		movls	r3, #4
 3656 0224 28308495 		strls	r3, [r4, #40]
 3657 0228 FEFFFFEB 		bl	_ZN11flatbuffers15vector_downward12ensure_spaceEj
 3658 022c 183094E5 		ldr	r3, [r4, #24]
 3659 0230 000055E3 		cmp	r5, #0
 3660 0234 000043E0 		sub	r0, r3, r0
 3661 0238 180084E5 		str	r0, [r4, #24]
 3662 023c 0800000A 		beq	.L692
 3663 0240 010055E3 		cmp	r5, #1
 3664 0244 0030A0E3 		mov	r3, #0
 3665 0248 0030C0E5 		strb	r3, [r0]
 3666 024c 0400000A 		beq	.L692
 3667 0250 182094E5 		ldr	r2, [r4, #24]
 3668 0254 020055E3 		cmp	r5, #2
 3669 0258 0130C2E5 		strb	r3, [r2, #1]
 3670 025c 18209415 		ldrne	r2, [r4, #24]
 3671 0260 0230C215 		strbne	r3, [r2, #2]
 3672              	.L692:
 3673 0264 0410A0E3 		mov	r1, #4
 3674 0268 0400A0E1 		mov	r0, r4
 3675 026c FEFFFFEB 		bl	_ZN11flatbuffers15vector_downward12ensure_spaceEj
 3676 0270 183094E5 		ldr	r3, [r4, #24]
 3677 0274 0810A0E3 		mov	r1, #8
 3678 0278 14C094E5 		ldr	ip, [r4, #20]
 3679 027c 102094E5 		ldr	r2, [r4, #16]
 3680 0280 003043E0 		sub	r3, r3, r0
 3681 0284 0400A0E1 		mov	r0, r4
 3682 0288 0CC043E0 		sub	ip, r3, ip
 3683 028c 183084E5 		str	r3, [r4, #24]
 3684 0290 008083E5 		str	r8, [r3]
 3685 0294 0C8042E0 		sub	r8, r2, ip
 3686 0298 FEFFFFEB 		bl	_ZN11flatbuffers15vector_downward12ensure_spaceEj
 3687 029c 1C3094E5 		ldr	r3, [r4, #28]
 3688 02a0 0AC0A0E3 		mov	ip, #10
 3689 02a4 142094E5 		ldr	r2, [r4, #20]
 3690 02a8 181094E5 		ldr	r1, [r4, #24]
 3691 02ac 080083E2 		add	r0, r3, #8
 3692 02b0 008083E5 		str	r8, [r3]
 3693 02b4 B4C0C3E1 		strh	ip, [r3, #4]	@ movhi
 3694 02b8 B432D4E1 		ldrh	r3, [r4, #36]
 3695 02bc 021041E0 		sub	r1, r1, r2
 3696 02c0 202094E5 		ldr	r2, [r4, #32]
 3697 02c4 105094E5 		ldr	r5, [r4, #16]
 3698 02c8 0C0053E1 		cmp	r3, ip
 3699 02cc 1C0084E5 		str	r0, [r4, #28]
 3700 02d0 0C30A0B1 		movlt	r3, ip
 3701 02d4 012082E2 		add	r2, r2, #1
 3702 02d8 015045E0 		sub	r5, r5, r1
 3703 02dc B432C4E1 		strh	r3, [r4, #36]	@ movhi
 3704 02e0 202084E5 		str	r2, [r4, #32]
 3705 02e4 64FFFFEA 		b	.L691
 3706              	.L750:
 3707 02e8 0610A0E1 		mov	r1, r6
 3708 02ec 0400A0E1 		mov	r0, r4
 3709 02f0 FEFFFFEB 		bl	_ZN11flatbuffers17FlatBufferBuilder7ReferToEm
 3710 02f4 006050E2 		subs	r6, r0, #0
 3711 02f8 3600000A 		beq	.L751
 3712              	.L698:
 3713 02fc 283094E5 		ldr	r3, [r4, #40]
 3714 0300 0400A0E1 		mov	r0, r4
 3715 0304 185094E5 		ldr	r5, [r4, #24]
 3716 0308 142094E5 		ldr	r2, [r4, #20]
 3717 030c 030053E3 		cmp	r3, #3
 3718 0310 0430A093 		movls	r3, #4
 3719 0314 28308495 		strls	r3, [r4, #40]
 3720 0318 025045E0 		sub	r5, r5, r2
 3721 031c 103094E5 		ldr	r3, [r4, #16]
 3722 0320 035045E0 		sub	r5, r5, r3
 3723 0324 035005E2 		and	r5, r5, #3
 3724 0328 0510A0E1 		mov	r1, r5
 3725 032c FEFFFFEB 		bl	_ZN11flatbuffers15vector_downward12ensure_spaceEj
 3726 0330 183094E5 		ldr	r3, [r4, #24]
 3727 0334 000055E3 		cmp	r5, #0
 3728 0338 000043E0 		sub	r0, r3, r0
 3729 033c 180084E5 		str	r0, [r4, #24]
 3730 0340 0800000A 		beq	.L700
 3731 0344 010055E3 		cmp	r5, #1
 3732 0348 0030A0E3 		mov	r3, #0
 3733 034c 0030C0E5 		strb	r3, [r0]
 3734 0350 0400000A 		beq	.L700
 3735 0354 182094E5 		ldr	r2, [r4, #24]
 3736 0358 020055E3 		cmp	r5, #2
 3737 035c 0130C2E5 		strb	r3, [r2, #1]
 3738 0360 18209415 		ldrne	r2, [r4, #24]
 3739 0364 0230C215 		strbne	r3, [r2, #2]
 3740              	.L700:
 3741 0368 0410A0E3 		mov	r1, #4
 3742 036c 0400A0E1 		mov	r0, r4
 3743 0370 FEFFFFEB 		bl	_ZN11flatbuffers15vector_downward12ensure_spaceEj
 3744 0374 183094E5 		ldr	r3, [r4, #24]
 3745 0378 0810A0E3 		mov	r1, #8
 3746 037c 142094E5 		ldr	r2, [r4, #20]
 3747 0380 105094E5 		ldr	r5, [r4, #16]
 3748 0384 003043E0 		sub	r3, r3, r0
 3749 0388 0400A0E1 		mov	r0, r4
 3750 038c 022043E0 		sub	r2, r3, r2
 3751 0390 183084E5 		str	r3, [r4, #24]
 3752 0394 006083E5 		str	r6, [r3]
 3753 0398 025045E0 		sub	r5, r5, r2
 3754 039c FEFFFFEB 		bl	_ZN11flatbuffers15vector_downward12ensure_spaceEj
 3755 03a0 1C3094E5 		ldr	r3, [r4, #28]
 3756 03a4 0600A0E3 		mov	r0, #6
 3757 03a8 202094E5 		ldr	r2, [r4, #32]
 3758 03ac 081083E2 		add	r1, r3, #8
 3759 03b0 005083E5 		str	r5, [r3]
 3760 03b4 B400C3E1 		strh	r0, [r3, #4]	@ movhi
 3761 03b8 012082E2 		add	r2, r2, #1
 3762 03bc B432D4E1 		ldrh	r3, [r4, #36]
 3763 03c0 1C1084E5 		str	r1, [r4, #28]
 3764 03c4 202084E5 		str	r2, [r4, #32]
 3765 03c8 000053E1 		cmp	r3, r0
 3766 03cc 0030A0B1 		movlt	r3, r0
 3767 03d0 B432C4E1 		strh	r3, [r4, #36]	@ movhi
 3768 03d4 5DFFFFEA 		b	.L697
 3769              	.L751:
 3770 03d8 2C30D4E5 		ldrb	r3, [r4, #44]	@ zero_extendqisi2
 3771 03dc 000053E3 		cmp	r3, #0
 3772 03e0 C5FFFF1A 		bne	.L698
 3773 03e4 83FFFFEA 		b	.L699
 3774              	.L748:
 3775 03e8 003000E3 		movw	r3, #:lower16:.LC24
 3776 03ec 002000E3 		movw	r2, #:lower16:.LANCHOR11
 3777 03f0 000000E3 		movw	r0, #:lower16:.LC19
 3778 03f4 003040E3 		movt	r3, #:upper16:.LC24
 3779 03f8 002040E3 		movt	r2, #:upper16:.LANCHOR11
 3780 03fc 000040E3 		movt	r0, #:upper16:.LC19
 3781 0400 481500E3 		movw	r1, #1352
 3782 0404 FEFFFFEB 		bl	__assert_func
 3783              	.L749:
 3784 0408 FEFFFFEB 		bl	_ZN11flatbuffers17FlatBufferBuilder9NotNestedEv.isra.20.part.21
 3785              		.fnend
 3787              		.section	.text._ZN11flatbuffers17FlatBufferBuilder9EndVectorEj,"axG",%progbits,_ZN11flatbuffers17F
 3788              		.align	2
 3789              		.weak	_ZN11flatbuffers17FlatBufferBuilder9EndVectorEj
 3790              		.syntax unified
 3791              		.arm
 3792              		.fpu neon
 3794              	_ZN11flatbuffers17FlatBufferBuilder9EndVectorEj:
 3795              		.fnstart
 3796              	.LFB3657:
 3797              		@ args = 0, pretend = 0, frame = 0
 3798              		@ frame_needed = 0, uses_anonymous_args = 0
 3799 0000 2630D0E5 		ldrb	r3, [r0, #38]	@ zero_extendqisi2
 3800 0004 70402DE9 		push	{r4, r5, r6, lr}
 3801              		.save {r4, r5, r6, lr}
 3802 0008 000053E3 		cmp	r3, #0
 3803 000c 2800000A 		beq	.L766
 3804 0010 283090E5 		ldr	r3, [r0, #40]
 3805 0014 0020A0E3 		mov	r2, #0
 3806 0018 2620C0E5 		strb	r2, [r0, #38]
 3807 001c 0040A0E1 		mov	r4, r0
 3808 0020 185090E5 		ldr	r5, [r0, #24]
 3809 0024 0160A0E1 		mov	r6, r1
 3810 0028 030053E3 		cmp	r3, #3
 3811 002c 142090E5 		ldr	r2, [r0, #20]
 3812 0030 0430A093 		movls	r3, #4
 3813 0034 28308095 		strls	r3, [r0, #40]
 3814 0038 103090E5 		ldr	r3, [r0, #16]
 3815 003c 025045E0 		sub	r5, r5, r2
 3816 0040 035045E0 		sub	r5, r5, r3
 3817 0044 035005E2 		and	r5, r5, #3
 3818 0048 0510A0E1 		mov	r1, r5
 3819 004c FEFFFFEB 		bl	_ZN11flatbuffers15vector_downward12ensure_spaceEj
 3820 0050 183094E5 		ldr	r3, [r4, #24]
 3821 0054 000055E3 		cmp	r5, #0
 3822 0058 000043E0 		sub	r0, r3, r0
 3823 005c 180084E5 		str	r0, [r4, #24]
 3824 0060 0800000A 		beq	.L755
 3825 0064 010055E3 		cmp	r5, #1
 3826 0068 0030A0E3 		mov	r3, #0
 3827 006c 0030C0E5 		strb	r3, [r0]
 3828 0070 0400000A 		beq	.L755
 3829 0074 182094E5 		ldr	r2, [r4, #24]
 3830 0078 020055E3 		cmp	r5, #2
 3831 007c 0130C2E5 		strb	r3, [r2, #1]
 3832 0080 18209415 		ldrne	r2, [r4, #24]
 3833 0084 0230C215 		strbne	r3, [r2, #2]
 3834              	.L755:
 3835 0088 0410A0E3 		mov	r1, #4
 3836 008c 0400A0E1 		mov	r0, r4
 3837 0090 FEFFFFEB 		bl	_ZN11flatbuffers15vector_downward12ensure_spaceEj
 3838 0094 101084E2 		add	r1, r4, #16
 3839 0098 0E0091E8 		ldm	r1, {r1, r2, r3}
 3840 009c 003043E0 		sub	r3, r3, r0
 3841 00a0 020043E0 		sub	r0, r3, r2
 3842 00a4 183084E5 		str	r3, [r4, #24]
 3843 00a8 000041E0 		sub	r0, r1, r0
 3844 00ac 006083E5 		str	r6, [r3]
 3845 00b0 7080BDE8 		pop	{r4, r5, r6, pc}
 3846              	.L766:
 3847 00b4 003000E3 		movw	r3, #:lower16:.LC26
 3848 00b8 002000E3 		movw	r2, #:lower16:.LANCHOR14
 3849 00bc 000000E3 		movw	r0, #:lower16:.LC19
 3850 00c0 003040E3 		movt	r3, #:upper16:.LC26
 3851 00c4 002040E3 		movt	r2, #:upper16:.LANCHOR14
 3852 00c8 000040E3 		movt	r0, #:upper16:.LC19
 3853 00cc 2C1600E3 		movw	r1, #1580
 3854 00d0 FEFFFFEB 		bl	__assert_func
 3855              		.fnend
 3857              		.section	.text._ZN11flatbuffers17FlatBufferBuilder12CreateVectorIlEENS_6OffsetINS_6VectorIT_EEEEPK
 3858              		.align	2
 3859              		.syntax unified
 3860              		.arm
 3861              		.fpu neon
 3863              	_ZN11flatbuffers17FlatBufferBuilder12CreateVectorIlEENS_6OffsetINS_6VectorIT_EEEEPKS4_j.constprop.1
 3864              		.fnstart
 3865              	.LFB11817:
 3866              		@ args = 0, pretend = 0, frame = 0
 3867              		@ frame_needed = 0, uses_anonymous_args = 0
 3868 0000 70402DE9 		push	{r4, r5, r6, lr}
 3869              		.save {r4, r5, r6, lr}
 3870 0004 0040A0E1 		mov	r4, r0
 3871 0008 0150A0E1 		mov	r5, r1
 3872 000c 0210A0E3 		mov	r1, #2
 3873 0010 FEFFFFEB 		bl	_ZN11flatbuffers17FlatBufferBuilder11StartVectorEjj.constprop.148
 3874 0014 0400A0E1 		mov	r0, r4
 3875 0018 0810A0E3 		mov	r1, #8
 3876 001c FEFFFFEB 		bl	_ZN11flatbuffers15vector_downward12ensure_spaceEj
 3877 0020 183094E5 		ldr	r3, [r4, #24]
 3878 0024 0510A0E1 		mov	r1, r5
 3879 0028 0820A0E3 		mov	r2, #8
 3880 002c 000043E0 		sub	r0, r3, r0
 3881 0030 180084E5 		str	r0, [r4, #24]
 3882 0034 FEFFFFEB 		bl	memcpy
 3883 0038 0400A0E1 		mov	r0, r4
 3884 003c 0210A0E3 		mov	r1, #2
 3885 0040 FEFFFFEB 		bl	_ZN11flatbuffers17FlatBufferBuilder9EndVectorEj
 3886 0044 7080BDE8 		pop	{r4, r5, r6, pc}
 3887              		.fnend
 3889              		.section	.text._ZN11flatbuffers17FlatBufferBuilder12CreateVectorIlEENS_6OffsetINS_6VectorIT_EEEEPK
 3890              		.align	2
 3891              		.syntax unified
 3892              		.arm
 3893              		.fpu neon
 3895              	_ZN11flatbuffers17FlatBufferBuilder12CreateVectorIlEENS_6OffsetINS_6VectorIT_EEEEPKS4_j.constprop.1
 3896              		.fnstart
 3897              	.LFB11816:
 3898              		@ args = 0, pretend = 0, frame = 0
 3899              		@ frame_needed = 0, uses_anonymous_args = 0
 3900 0000 70402DE9 		push	{r4, r5, r6, lr}
 3901              		.save {r4, r5, r6, lr}
 3902 0004 0040A0E1 		mov	r4, r0
 3903 0008 0150A0E1 		mov	r5, r1
 3904 000c 0110A0E3 		mov	r1, #1
 3905 0010 FEFFFFEB 		bl	_ZN11flatbuffers17FlatBufferBuilder11StartVectorEjj.constprop.148
 3906 0014 0400A0E1 		mov	r0, r4
 3907 0018 0410A0E3 		mov	r1, #4
 3908 001c FEFFFFEB 		bl	_ZN11flatbuffers15vector_downward12ensure_spaceEj
 3909 0020 183094E5 		ldr	r3, [r4, #24]
 3910 0024 0510A0E1 		mov	r1, r5
 3911 0028 0420A0E3 		mov	r2, #4
 3912 002c 000043E0 		sub	r0, r3, r0
 3913 0030 180084E5 		str	r0, [r4, #24]
 3914 0034 FEFFFFEB 		bl	memcpy
 3915 0038 0400A0E1 		mov	r0, r4
 3916 003c 0110A0E3 		mov	r1, #1
 3917 0040 FEFFFFEB 		bl	_ZN11flatbuffers17FlatBufferBuilder9EndVectorEj
 3918 0044 7080BDE8 		pop	{r4, r5, r6, pc}
 3919              		.fnend
 3921              		.section	.text._ZN6tflite7testing12_GLOBAL__N_112ModelBuilder13AddTensorImplENS_10TensorTypeEbSt16
 3922              		.align	2
 3923              		.syntax unified
 3924              		.arm
 3925              		.fpu neon
 3927              	_ZN6tflite7testing12_GLOBAL__N_112ModelBuilder13AddTensorImplENS_10TensorTypeEbSt16initializer_list
 3928              		.fnstart
 3929              	.LFB11835:
 3930              		@ args = 0, pretend = 0, frame = 8
 3931              		@ frame_needed = 0, uses_anonymous_args = 0
 3932 0000 F0402DE9 		push	{r4, r5, r6, r7, lr}
 3933              		.save {r4, r5, r6, r7, lr}
 3934              		.pad #28
 3935 0004 1CD04DE2 		sub	sp, sp, #28
 3936 0008 184290E5 		ldr	r4, [r0, #536]
 3937 000c 18308DE2 		add	r3, sp, #24
 3938 0010 060003E9 		stmdb	r3, {r1, r2}
 3939 0014 320054E3 		cmp	r4, #50
 3940 0018 230000CA 		bgt	.L774
 3941 001c 005090E5 		ldr	r5, [r0]
 3942 0020 0060A0E1 		mov	r6, r0
 3943 0024 0310A0E3 		mov	r1, #3
 3944 0028 10709DE5 		ldr	r7, [sp, #16]
 3945 002c 3E4084E2 		add	r4, r4, #62
 3946 0030 0500A0E1 		mov	r0, r5
 3947 0034 044186E0 		add	r4, r6, r4, lsl #2
 3948 0038 FEFFFFEB 		bl	_ZN11flatbuffers17FlatBufferBuilder11StartVectorEjj.constprop.148
 3949 003c 0500A0E1 		mov	r0, r5
 3950 0040 0C10A0E3 		mov	r1, #12
 3951 0044 FEFFFFEB 		bl	_ZN11flatbuffers15vector_downward12ensure_spaceEj
 3952 0048 183095E5 		ldr	r3, [r5, #24]
 3953 004c 0710A0E1 		mov	r1, r7
 3954 0050 0C20A0E3 		mov	r2, #12
 3955 0054 000043E0 		sub	r0, r3, r0
 3956 0058 180085E5 		str	r0, [r5, #24]
 3957 005c FEFFFFEB 		bl	memcpy
 3958 0060 0500A0E1 		mov	r0, r5
 3959 0064 0310A0E3 		mov	r1, #3
 3960 0068 FEFFFFEB 		bl	_ZN11flatbuffers17FlatBufferBuilder9EndVectorEj
 3961 006c 00C0A0E3 		mov	ip, #0
 3962 0070 0010A0E1 		mov	r1, r0
 3963 0074 0C30A0E1 		mov	r3, ip
 3964 0078 0C20A0E1 		mov	r2, ip
 3965 007c 0500A0E1 		mov	r0, r5
 3966 0080 08C08DE5 		str	ip, [sp, #8]
 3967 0084 04C08DE5 		str	ip, [sp, #4]
 3968 0088 00C08DE5 		str	ip, [sp]
 3969 008c FEFFFFEB 		bl	_ZN6tflite12CreateTensorERN11flatbuffers17FlatBufferBuilderENS0_6OffsetINS0_6VectorIlEEEENS_10T
 3970 0090 183296E5 		ldr	r3, [r6, #536]
 3971 0094 040084E5 		str	r0, [r4, #4]
 3972 0098 012083E2 		add	r2, r3, #1
 3973 009c 0300A0E1 		mov	r0, r3
 3974 00a0 182286E5 		str	r2, [r6, #536]
 3975 00a4 1CD08DE2 		add	sp, sp, #28
 3976              		@ sp needed
 3977 00a8 F080BDE8 		pop	{r4, r5, r6, r7, pc}
 3978              	.L774:
 3979 00ac FEFFFFEB 		bl	abort
 3980              		.fnend
 3982              		.section	.text._ZN6tflite12CreateTensorERN11flatbuffers17FlatBufferBuilderENS0_6OffsetINS0_6Vector
 3983              		.align	2
 3984              		.weak	_ZN6tflite12CreateTensorERN11flatbuffers17FlatBufferBuilderENS0_6OffsetINS0_6VectorIlEEEENS_
 3985              		.syntax unified
 3986              		.arm
 3987              		.fpu neon
 3989              	_ZN6tflite12CreateTensorERN11flatbuffers17FlatBufferBuilderENS0_6OffsetINS0_6VectorIlEEEENS_10Tenso
 3990              		.fnstart
 3991              	.LFB4372:
 3992              		@ args = 20, pretend = 0, frame = 0
 3993              		@ frame_needed = 0, uses_anonymous_args = 0
 3994 0000 F84F2DE9 		push	{r3, r4, r5, r6, r7, r8, r9, r10, fp, lr}
 3995              		.save {r3, r4, r5, r6, r7, r8, r9, r10, fp, lr}
 3996 0004 0170A0E1 		mov	r7, r1
 3997 0008 2610D0E5 		ldrb	r1, [r0, #38]	@ zero_extendqisi2
 3998 000c 0390A0E1 		mov	r9, r3
 3999 0010 2CA09DE5 		ldr	r10, [sp, #44]
 4000 0014 000051E3 		cmp	r1, #0
 4001 0018 203090E5 		ldr	r3, [r0, #32]
 4002 001c 3080DDE5 		ldrb	r8, [sp, #48]	@ zero_extendqisi2
 4003 0020 34B09DE5 		ldr	fp, [sp, #52]
 4004 0024 38109DE5 		ldr	r1, [sp, #56]
 4005 0028 EE00001A 		bne	.L842
 4006 002c 000053E3 		cmp	r3, #0
 4007 0030 F400001A 		bne	.L843
 4008 0034 0260A0E1 		mov	r6, r2
 4009 0038 183090E5 		ldr	r3, [r0, #24]
 4010 003c 142090E5 		ldr	r2, [r0, #20]
 4011 0040 000051E3 		cmp	r1, #0
 4012 0044 105090E5 		ldr	r5, [r0, #16]
 4013 0048 01C0A0E3 		mov	ip, #1
 4014 004c 0040A0E1 		mov	r4, r0
 4015 0050 26C0C0E5 		strb	ip, [r0, #38]
 4016 0054 023043E0 		sub	r3, r3, r2
 4017 0058 035045E0 		sub	r5, r5, r3
 4018 005c D700001A 		bne	.L844
 4019              	.L779:
 4020 0060 00005BE3 		cmp	fp, #0
 4021 0064 C900001A 		bne	.L845
 4022              	.L783:
 4023 0068 00005AE3 		cmp	r10, #0
 4024 006c BB00001A 		bne	.L846
 4025              	.L787:
 4026 0070 28309DE5 		ldr	r3, [sp, #40]
 4027 0074 000053E3 		cmp	r3, #0
 4028 0078 1200001A 		bne	.L847
 4029              	.L790:
 4030 007c 000059E3 		cmp	r9, #0
 4031 0080 1A00001A 		bne	.L793
 4032 0084 2C30D4E5 		ldrb	r3, [r4, #44]	@ zero_extendqisi2
 4033 0088 000053E3 		cmp	r3, #0
 4034 008c 1700001A 		bne	.L793
 4035              	.L794:
 4036 0090 000057E3 		cmp	r7, #0
 4037 0094 4D00001A 		bne	.L848
 4038              	.L798:
 4039 0098 000058E3 		cmp	r8, #0
 4040 009c 5800001A 		bne	.L801
 4041              	.L849:
 4042 00a0 2C30D4E5 		ldrb	r3, [r4, #44]	@ zero_extendqisi2
 4043 00a4 000053E3 		cmp	r3, #0
 4044 00a8 5500001A 		bne	.L801
 4045 00ac 7660AFE6 		sxtb	r6, r6
 4046 00b0 000056E3 		cmp	r6, #0
 4047 00b4 7E00001A 		bne	.L804
 4048              	.L805:
 4049 00b8 0510A0E1 		mov	r1, r5
 4050 00bc 0400A0E1 		mov	r0, r4
 4051 00c0 FEFFFFEB 		bl	_ZN11flatbuffers17FlatBufferBuilder8EndTableEm
 4052 00c4 F88FBDE8 		pop	{r3, r4, r5, r6, r7, r8, r9, r10, fp, pc}
 4053              	.L847:
 4054 00c8 0310A0E1 		mov	r1, r3
 4055 00cc 0400A0E1 		mov	r0, r4
 4056 00d0 FEFFFFEB 		bl	_ZN11flatbuffers17FlatBufferBuilder7ReferToEm
 4057 00d4 002050E2 		subs	r2, r0, #0
 4058 00d8 9C00001A 		bne	.L791
 4059 00dc 2C30D4E5 		ldrb	r3, [r4, #44]	@ zero_extendqisi2
 4060 00e0 000053E3 		cmp	r3, #0
 4061 00e4 9900001A 		bne	.L791
 4062 00e8 000059E3 		cmp	r9, #0
 4063 00ec E7FFFF0A 		beq	.L794
 4064              	.L793:
 4065 00f0 283094E5 		ldr	r3, [r4, #40]
 4066 00f4 0400A0E1 		mov	r0, r4
 4067 00f8 18A094E5 		ldr	r10, [r4, #24]
 4068 00fc 142094E5 		ldr	r2, [r4, #20]
 4069 0100 030053E3 		cmp	r3, #3
 4070 0104 0430A093 		movls	r3, #4
 4071 0108 28308495 		strls	r3, [r4, #40]
 4072 010c 02A04AE0 		sub	r10, r10, r2
 4073 0110 103094E5 		ldr	r3, [r4, #16]
 4074 0114 03A04AE0 		sub	r10, r10, r3
 4075 0118 03A00AE2 		and	r10, r10, #3
 4076 011c 0A10A0E1 		mov	r1, r10
 4077 0120 FEFFFFEB 		bl	_ZN11flatbuffers15vector_downward12ensure_spaceEj
 4078 0124 183094E5 		ldr	r3, [r4, #24]
 4079 0128 00005AE3 		cmp	r10, #0
 4080 012c 000043E0 		sub	r0, r3, r0
 4081 0130 180084E5 		str	r0, [r4, #24]
 4082 0134 0800000A 		beq	.L795
 4083 0138 01005AE3 		cmp	r10, #1
 4084 013c 0030A0E3 		mov	r3, #0
 4085 0140 0030C0E5 		strb	r3, [r0]
 4086 0144 0400000A 		beq	.L795
 4087 0148 182094E5 		ldr	r2, [r4, #24]
 4088 014c 02005AE3 		cmp	r10, #2
 4089 0150 0130C2E5 		strb	r3, [r2, #1]
 4090 0154 18209415 		ldrne	r2, [r4, #24]
 4091 0158 0230C215 		strbne	r3, [r2, #2]
 4092              	.L795:
 4093 015c 0410A0E3 		mov	r1, #4
 4094 0160 0400A0E1 		mov	r0, r4
 4095 0164 FEFFFFEB 		bl	_ZN11flatbuffers15vector_downward12ensure_spaceEj
 4096 0168 183094E5 		ldr	r3, [r4, #24]
 4097 016c 0810A0E3 		mov	r1, #8
 4098 0170 142094E5 		ldr	r2, [r4, #20]
 4099 0174 000043E0 		sub	r0, r3, r0
 4100 0178 103094E5 		ldr	r3, [r4, #16]
 4101 017c 022040E0 		sub	r2, r0, r2
 4102 0180 180084E5 		str	r0, [r4, #24]
 4103 0184 009080E5 		str	r9, [r0]
 4104 0188 0400A0E1 		mov	r0, r4
 4105 018c 029043E0 		sub	r9, r3, r2
 4106 0190 FEFFFFEB 		bl	_ZN11flatbuffers15vector_downward12ensure_spaceEj
 4107 0194 1C3094E5 		ldr	r3, [r4, #28]
 4108 0198 0800A0E3 		mov	r0, #8
 4109 019c 202094E5 		ldr	r2, [r4, #32]
 4110 01a0 001083E0 		add	r1, r3, r0
 4111 01a4 009083E5 		str	r9, [r3]
 4112 01a8 B400C3E1 		strh	r0, [r3, #4]	@ movhi
 4113 01ac 012082E2 		add	r2, r2, #1
 4114 01b0 B432D4E1 		ldrh	r3, [r4, #36]
 4115 01b4 1C1084E5 		str	r1, [r4, #28]
 4116 01b8 202084E5 		str	r2, [r4, #32]
 4117 01bc 000053E1 		cmp	r3, r0
 4118 01c0 0030A0B1 		movlt	r3, r0
 4119 01c4 000057E3 		cmp	r7, #0
 4120 01c8 B432C4E1 		strh	r3, [r4, #36]	@ movhi
 4121 01cc B1FFFF0A 		beq	.L798
 4122              	.L848:
 4123 01d0 0710A0E1 		mov	r1, r7
 4124 01d4 0400A0E1 		mov	r0, r4
 4125 01d8 FEFFFFEB 		bl	_ZN11flatbuffers17FlatBufferBuilder7ReferToEm
 4126 01dc 002050E2 		subs	r2, r0, #0
 4127 01e0 0200001A 		bne	.L799
 4128 01e4 2C30D4E5 		ldrb	r3, [r4, #44]	@ zero_extendqisi2
 4129 01e8 000053E3 		cmp	r3, #0
 4130 01ec A9FFFF0A 		beq	.L798
 4131              	.L799:
 4132 01f0 0410A0E3 		mov	r1, #4
 4133 01f4 0400A0E1 		mov	r0, r4
 4134 01f8 FEFFFFEB 		bl	_ZN11flatbuffers17FlatBufferBuilder10AddElementImEEvtT_S2_.part.45
 4135 01fc 000058E3 		cmp	r8, #0
 4136 0200 A6FFFF0A 		beq	.L849
 4137              	.L801:
 4138 0204 283094E5 		ldr	r3, [r4, #40]
 4139 0208 0010A0E3 		mov	r1, #0
 4140 020c 0400A0E1 		mov	r0, r4
 4141 0210 7660AFE6 		sxtb	r6, r6
 4142 0214 000053E3 		cmp	r3, #0
 4143 0218 0130A003 		moveq	r3, #1
 4144 021c 28308405 		streq	r3, [r4, #40]
 4145 0220 FEFFFFEB 		bl	_ZN11flatbuffers15vector_downward12ensure_spaceEj
 4146 0224 183094E5 		ldr	r3, [r4, #24]
 4147 0228 0110A0E3 		mov	r1, #1
 4148 022c 003043E0 		sub	r3, r3, r0
 4149 0230 0400A0E1 		mov	r0, r4
 4150 0234 183084E5 		str	r3, [r4, #24]
 4151 0238 FEFFFFEB 		bl	_ZN11flatbuffers15vector_downward12ensure_spaceEj
 4152 023c 183094E5 		ldr	r3, [r4, #24]
 4153 0240 0810A0E3 		mov	r1, #8
 4154 0244 003043E0 		sub	r3, r3, r0
 4155 0248 0400A0E1 		mov	r0, r4
 4156 024c 183084E5 		str	r3, [r4, #24]
 4157 0250 0080C3E5 		strb	r8, [r3]
 4158 0254 142094E5 		ldr	r2, [r4, #20]
 4159 0258 183094E5 		ldr	r3, [r4, #24]
 4160 025c 107094E5 		ldr	r7, [r4, #16]
 4161 0260 023043E0 		sub	r3, r3, r2
 4162 0264 037047E0 		sub	r7, r7, r3
 4163 0268 FEFFFFEB 		bl	_ZN11flatbuffers15vector_downward12ensure_spaceEj
 4164 026c 1C3094E5 		ldr	r3, [r4, #28]
 4165 0270 0E00A0E3 		mov	r0, #14
 4166 0274 202094E5 		ldr	r2, [r4, #32]
 4167 0278 081083E2 		add	r1, r3, #8
 4168 027c 007083E5 		str	r7, [r3]
 4169 0280 B400C3E1 		strh	r0, [r3, #4]	@ movhi
 4170 0284 012082E2 		add	r2, r2, #1
 4171 0288 B432D4E1 		ldrh	r3, [r4, #36]
 4172 028c 1C1084E5 		str	r1, [r4, #28]
 4173 0290 202084E5 		str	r2, [r4, #32]
 4174 0294 000053E1 		cmp	r3, r0
 4175 0298 0030A0B1 		movlt	r3, r0
 4176 029c 000056E3 		cmp	r6, #0
 4177 02a0 B432C4E1 		strh	r3, [r4, #36]	@ movhi
 4178 02a4 0200001A 		bne	.L804
 4179 02a8 2C30D4E5 		ldrb	r3, [r4, #44]	@ zero_extendqisi2
 4180 02ac 000053E3 		cmp	r3, #0
 4181 02b0 80FFFF0A 		beq	.L805
 4182              	.L804:
 4183 02b4 283094E5 		ldr	r3, [r4, #40]
 4184 02b8 0010A0E3 		mov	r1, #0
 4185 02bc 0400A0E1 		mov	r0, r4
 4186 02c0 000053E3 		cmp	r3, #0
 4187 02c4 0130A003 		moveq	r3, #1
 4188 02c8 28308405 		streq	r3, [r4, #40]
 4189 02cc FEFFFFEB 		bl	_ZN11flatbuffers15vector_downward12ensure_spaceEj
 4190 02d0 183094E5 		ldr	r3, [r4, #24]
 4191 02d4 0110A0E3 		mov	r1, #1
 4192 02d8 003043E0 		sub	r3, r3, r0
 4193 02dc 0400A0E1 		mov	r0, r4
 4194 02e0 183084E5 		str	r3, [r4, #24]
 4195 02e4 FEFFFFEB 		bl	_ZN11flatbuffers15vector_downward12ensure_spaceEj
 4196 02e8 183094E5 		ldr	r3, [r4, #24]
 4197 02ec 0810A0E3 		mov	r1, #8
 4198 02f0 003043E0 		sub	r3, r3, r0
 4199 02f4 0400A0E1 		mov	r0, r4
 4200 02f8 183084E5 		str	r3, [r4, #24]
 4201 02fc 0060C3E5 		strb	r6, [r3]
 4202 0300 142094E5 		ldr	r2, [r4, #20]
 4203 0304 183094E5 		ldr	r3, [r4, #24]
 4204 0308 106094E5 		ldr	r6, [r4, #16]
 4205 030c 023043E0 		sub	r3, r3, r2
 4206 0310 036046E0 		sub	r6, r6, r3
 4207 0314 FEFFFFEB 		bl	_ZN11flatbuffers15vector_downward12ensure_spaceEj
 4208 0318 1C3094E5 		ldr	r3, [r4, #28]
 4209 031c 0600A0E3 		mov	r0, #6
 4210 0320 202094E5 		ldr	r2, [r4, #32]
 4211 0324 081083E2 		add	r1, r3, #8
 4212 0328 006083E5 		str	r6, [r3]
 4213 032c B400C3E1 		strh	r0, [r3, #4]	@ movhi
 4214 0330 012082E2 		add	r2, r2, #1
 4215 0334 B432D4E1 		ldrh	r3, [r4, #36]
 4216 0338 1C1084E5 		str	r1, [r4, #28]
 4217 033c 202084E5 		str	r2, [r4, #32]
 4218 0340 000053E1 		cmp	r3, r0
 4219 0344 0030A0B1 		movlt	r3, r0
 4220 0348 B432C4E1 		strh	r3, [r4, #36]	@ movhi
 4221 034c 59FFFFEA 		b	.L805
 4222              	.L791:
 4223 0350 0A10A0E3 		mov	r1, #10
 4224 0354 0400A0E1 		mov	r0, r4
 4225 0358 FEFFFFEB 		bl	_ZN11flatbuffers17FlatBufferBuilder10AddElementImEEvtT_S2_.part.45
 4226 035c 46FFFFEA 		b	.L790
 4227              	.L846:
 4228 0360 0A10A0E1 		mov	r1, r10
 4229 0364 0400A0E1 		mov	r0, r4
 4230 0368 FEFFFFEB 		bl	_ZN11flatbuffers17FlatBufferBuilder7ReferToEm
 4231 036c 002050E2 		subs	r2, r0, #0
 4232 0370 0200001A 		bne	.L788
 4233 0374 2C30D4E5 		ldrb	r3, [r4, #44]	@ zero_extendqisi2
 4234 0378 000053E3 		cmp	r3, #0
 4235 037c 3BFFFF0A 		beq	.L787
 4236              	.L788:
 4237 0380 0C10A0E3 		mov	r1, #12
 4238 0384 0400A0E1 		mov	r0, r4
 4239 0388 FEFFFFEB 		bl	_ZN11flatbuffers17FlatBufferBuilder10AddElementImEEvtT_S2_.part.45
 4240 038c 37FFFFEA 		b	.L787
 4241              	.L845:
 4242 0390 0B10A0E1 		mov	r1, fp
 4243 0394 0400A0E1 		mov	r0, r4
 4244 0398 FEFFFFEB 		bl	_ZN11flatbuffers17FlatBufferBuilder7ReferToEm
 4245 039c 002050E2 		subs	r2, r0, #0
 4246 03a0 0200001A 		bne	.L784
 4247 03a4 2C30D4E5 		ldrb	r3, [r4, #44]	@ zero_extendqisi2
 4248 03a8 000053E3 		cmp	r3, #0
 4249 03ac 2DFFFF0A 		beq	.L783
 4250              	.L784:
 4251 03b0 1010A0E3 		mov	r1, #16
 4252 03b4 0400A0E1 		mov	r0, r4
 4253 03b8 FEFFFFEB 		bl	_ZN11flatbuffers17FlatBufferBuilder10AddElementImEEvtT_S2_.part.45
 4254 03bc 29FFFFEA 		b	.L783
 4255              	.L844:
 4256 03c0 FEFFFFEB 		bl	_ZN11flatbuffers17FlatBufferBuilder7ReferToEm
 4257 03c4 002050E2 		subs	r2, r0, #0
 4258 03c8 0200001A 		bne	.L780
 4259 03cc 2C30D4E5 		ldrb	r3, [r4, #44]	@ zero_extendqisi2
 4260 03d0 000053E3 		cmp	r3, #0
 4261 03d4 21FFFF0A 		beq	.L779
 4262              	.L780:
 4263 03d8 1210A0E3 		mov	r1, #18
 4264 03dc 0400A0E1 		mov	r0, r4
 4265 03e0 FEFFFFEB 		bl	_ZN11flatbuffers17FlatBufferBuilder10AddElementImEEvtT_S2_.part.45
 4266 03e4 1DFFFFEA 		b	.L779
 4267              	.L842:
 4268 03e8 003000E3 		movw	r3, #:lower16:.LC24
 4269 03ec 002000E3 		movw	r2, #:lower16:.LANCHOR11
 4270 03f0 000000E3 		movw	r0, #:lower16:.LC19
 4271 03f4 003040E3 		movt	r3, #:upper16:.LC24
 4272 03f8 002040E3 		movt	r2, #:upper16:.LANCHOR11
 4273 03fc 000040E3 		movt	r0, #:upper16:.LC19
 4274 0400 481500E3 		movw	r1, #1352
 4275 0404 FEFFFFEB 		bl	__assert_func
 4276              	.L843:
 4277 0408 FEFFFFEB 		bl	_ZN11flatbuffers17FlatBufferBuilder9NotNestedEv.isra.20.part.21
 4278              		.fnend
 4280              		.section	.text._ZN6tflite14CreateOperatorERN11flatbuffers17FlatBufferBuilderEmNS0_6OffsetINS0_6Vec
 4281              		.align	2
 4282              		.weak	_ZN6tflite14CreateOperatorERN11flatbuffers17FlatBufferBuilderEmNS0_6OffsetINS0_6VectorIlEEEE
 4283              		.syntax unified
 4284              		.arm
 4285              		.fpu neon
 4287              	_ZN6tflite14CreateOperatorERN11flatbuffers17FlatBufferBuilderEmNS0_6OffsetINS0_6VectorIlEEEES6_NS_1
 4288              		.fnstart
 4289              	.LFB5941:
 4290              		@ args = 24, pretend = 0, frame = 0
 4291              		@ frame_needed = 0, uses_anonymous_args = 0
 4292 0000 F84F2DE9 		push	{r3, r4, r5, r6, r7, r8, r9, r10, fp, lr}
 4293              		.save {r3, r4, r5, r6, r7, r8, r9, r10, fp, lr}
 4294 0004 0170A0E1 		mov	r7, r1
 4295 0008 2610D0E5 		ldrb	r1, [r0, #38]	@ zero_extendqisi2
 4296 000c 0390A0E1 		mov	r9, r3
 4297 0010 28B0DDE5 		ldrb	fp, [sp, #40]	@ zero_extendqisi2
 4298 0014 000051E3 		cmp	r1, #0
 4299 0018 203090E5 		ldr	r3, [r0, #32]
 4300 001c 3460DDE5 		ldrb	r6, [sp, #52]	@ zero_extendqisi2
 4301 0020 38A09DE5 		ldr	r10, [sp, #56]
 4302 0024 3C109DE5 		ldr	r1, [sp, #60]
 4303 0028 FD00001A 		bne	.L916
 4304 002c 000053E3 		cmp	r3, #0
 4305 0030 0301001A 		bne	.L917
 4306 0034 0280A0E1 		mov	r8, r2
 4307 0038 183090E5 		ldr	r3, [r0, #24]
 4308 003c 142090E5 		ldr	r2, [r0, #20]
 4309 0040 000051E3 		cmp	r1, #0
 4310 0044 105090E5 		ldr	r5, [r0, #16]
 4311 0048 01C0A0E3 		mov	ip, #1
 4312 004c 0040A0E1 		mov	r4, r0
 4313 0050 26C0C0E5 		strb	ip, [r0, #38]
 4314 0054 023043E0 		sub	r3, r3, r2
 4315 0058 035045E0 		sub	r5, r5, r3
 4316 005c E600001A 		bne	.L918
 4317              	.L854:
 4318 0060 00005AE3 		cmp	r10, #0
 4319 0064 D800001A 		bne	.L919
 4320              	.L858:
 4321 0068 30309DE5 		ldr	r3, [sp, #48]
 4322 006c 000053E3 		cmp	r3, #0
 4323 0070 C900001A 		bne	.L920
 4324              	.L862:
 4325 0074 2C309DE5 		ldr	r3, [sp, #44]
 4326 0078 000053E3 		cmp	r3, #0
 4327 007c BA00001A 		bne	.L921
 4328              	.L866:
 4329 0080 000059E3 		cmp	r9, #0
 4330 0084 AC00001A 		bne	.L922
 4331              	.L870:
 4332 0088 000058E3 		cmp	r8, #0
 4333 008c 9E00001A 		bne	.L923
 4334              	.L874:
 4335 0090 000057E3 		cmp	r7, #0
 4336 0094 0200001A 		bne	.L877
 4337 0098 2C30D4E5 		ldrb	r3, [r4, #44]	@ zero_extendqisi2
 4338 009c 000053E3 		cmp	r3, #0
 4339 00a0 8D00000A 		beq	.L924
 4340              	.L877:
 4341 00a4 283094E5 		ldr	r3, [r4, #40]
 4342 00a8 0400A0E1 		mov	r0, r4
 4343 00ac 188094E5 		ldr	r8, [r4, #24]
 4344 00b0 142094E5 		ldr	r2, [r4, #20]
 4345 00b4 030053E3 		cmp	r3, #3
 4346 00b8 0430A093 		movls	r3, #4
 4347 00bc 28308495 		strls	r3, [r4, #40]
 4348 00c0 028048E0 		sub	r8, r8, r2
 4349 00c4 103094E5 		ldr	r3, [r4, #16]
 4350 00c8 038048E0 		sub	r8, r8, r3
 4351 00cc 038008E2 		and	r8, r8, #3
 4352 00d0 0810A0E1 		mov	r1, r8
 4353 00d4 FEFFFFEB 		bl	_ZN11flatbuffers15vector_downward12ensure_spaceEj
 4354 00d8 183094E5 		ldr	r3, [r4, #24]
 4355 00dc 000058E3 		cmp	r8, #0
 4356 00e0 000043E0 		sub	r0, r3, r0
 4357 00e4 180084E5 		str	r0, [r4, #24]
 4358 00e8 0800000A 		beq	.L879
 4359 00ec 010058E3 		cmp	r8, #1
 4360 00f0 0030A0E3 		mov	r3, #0
 4361 00f4 0030C0E5 		strb	r3, [r0]
 4362 00f8 0400000A 		beq	.L879
 4363 00fc 182094E5 		ldr	r2, [r4, #24]
 4364 0100 020058E3 		cmp	r8, #2
 4365 0104 0130C2E5 		strb	r3, [r2, #1]
 4366 0108 18209415 		ldrne	r2, [r4, #24]
 4367 010c 0230C215 		strbne	r3, [r2, #2]
 4368              	.L879:
 4369 0110 0410A0E3 		mov	r1, #4
 4370 0114 0400A0E1 		mov	r0, r4
 4371 0118 FEFFFFEB 		bl	_ZN11flatbuffers15vector_downward12ensure_spaceEj
 4372 011c 183094E5 		ldr	r3, [r4, #24]
 4373 0120 0810A0E3 		mov	r1, #8
 4374 0124 142094E5 		ldr	r2, [r4, #20]
 4375 0128 7660AFE6 		sxtb	r6, r6
 4376 012c 000043E0 		sub	r0, r3, r0
 4377 0130 103094E5 		ldr	r3, [r4, #16]
 4378 0134 022040E0 		sub	r2, r0, r2
 4379 0138 180084E5 		str	r0, [r4, #24]
 4380 013c 007080E5 		str	r7, [r0]
 4381 0140 0400A0E1 		mov	r0, r4
 4382 0144 027043E0 		sub	r7, r3, r2
 4383 0148 FEFFFFEB 		bl	_ZN11flatbuffers15vector_downward12ensure_spaceEj
 4384 014c 1C3094E5 		ldr	r3, [r4, #28]
 4385 0150 0400A0E3 		mov	r0, #4
 4386 0154 202094E5 		ldr	r2, [r4, #32]
 4387 0158 081083E2 		add	r1, r3, #8
 4388 015c 007083E5 		str	r7, [r3]
 4389 0160 B400C3E1 		strh	r0, [r3, #4]	@ movhi
 4390 0164 012082E2 		add	r2, r2, #1
 4391 0168 B432D4E1 		ldrh	r3, [r4, #36]
 4392 016c 1C1084E5 		str	r1, [r4, #28]
 4393 0170 202084E5 		str	r2, [r4, #32]
 4394 0174 000053E1 		cmp	r3, r0
 4395 0178 0030A0B1 		movlt	r3, r0
 4396 017c 000056E3 		cmp	r6, #0
 4397 0180 B432C4E1 		strh	r3, [r4, #36]	@ movhi
 4398 0184 5A00000A 		beq	.L925
 4399              	.L881:
 4400 0188 283094E5 		ldr	r3, [r4, #40]
 4401 018c 0010A0E3 		mov	r1, #0
 4402 0190 0400A0E1 		mov	r0, r4
 4403 0194 000053E3 		cmp	r3, #0
 4404 0198 0130A003 		moveq	r3, #1
 4405 019c 28308405 		streq	r3, [r4, #40]
 4406 01a0 FEFFFFEB 		bl	_ZN11flatbuffers15vector_downward12ensure_spaceEj
 4407 01a4 183094E5 		ldr	r3, [r4, #24]
 4408 01a8 0110A0E3 		mov	r1, #1
 4409 01ac 003043E0 		sub	r3, r3, r0
 4410 01b0 0400A0E1 		mov	r0, r4
 4411 01b4 183084E5 		str	r3, [r4, #24]
 4412 01b8 FEFFFFEB 		bl	_ZN11flatbuffers15vector_downward12ensure_spaceEj
 4413 01bc 183094E5 		ldr	r3, [r4, #24]
 4414 01c0 0810A0E3 		mov	r1, #8
 4415 01c4 003043E0 		sub	r3, r3, r0
 4416 01c8 0400A0E1 		mov	r0, r4
 4417 01cc 183084E5 		str	r3, [r4, #24]
 4418 01d0 0060C3E5 		strb	r6, [r3]
 4419 01d4 142094E5 		ldr	r2, [r4, #20]
 4420 01d8 183094E5 		ldr	r3, [r4, #24]
 4421 01dc 106094E5 		ldr	r6, [r4, #16]
 4422 01e0 023043E0 		sub	r3, r3, r2
 4423 01e4 036046E0 		sub	r6, r6, r3
 4424 01e8 FEFFFFEB 		bl	_ZN11flatbuffers15vector_downward12ensure_spaceEj
 4425 01ec 1C3094E5 		ldr	r3, [r4, #28]
 4426 01f0 1000A0E3 		mov	r0, #16
 4427 01f4 202094E5 		ldr	r2, [r4, #32]
 4428 01f8 081083E2 		add	r1, r3, #8
 4429 01fc 006083E5 		str	r6, [r3]
 4430 0200 B400C3E1 		strh	r0, [r3, #4]	@ movhi
 4431 0204 012082E2 		add	r2, r2, #1
 4432 0208 B432D4E1 		ldrh	r3, [r4, #36]
 4433 020c 1C1084E5 		str	r1, [r4, #28]
 4434 0210 202084E5 		str	r2, [r4, #32]
 4435 0214 000053E1 		cmp	r3, r0
 4436 0218 0030A0B1 		movlt	r3, r0
 4437 021c 00005BE3 		cmp	fp, #0
 4438 0220 B432C4E1 		strh	r3, [r4, #36]	@ movhi
 4439 0224 0200001A 		bne	.L884
 4440 0228 2C30D4E5 		ldrb	r3, [r4, #44]	@ zero_extendqisi2
 4441 022c 000053E3 		cmp	r3, #0
 4442 0230 2500000A 		beq	.L885
 4443              	.L884:
 4444 0234 283094E5 		ldr	r3, [r4, #40]
 4445 0238 0010A0E3 		mov	r1, #0
 4446 023c 0400A0E1 		mov	r0, r4
 4447 0240 000053E3 		cmp	r3, #0
 4448 0244 0130A003 		moveq	r3, #1
 4449 0248 28308405 		streq	r3, [r4, #40]
 4450 024c FEFFFFEB 		bl	_ZN11flatbuffers15vector_downward12ensure_spaceEj
 4451 0250 183094E5 		ldr	r3, [r4, #24]
 4452 0254 0110A0E3 		mov	r1, #1
 4453 0258 003043E0 		sub	r3, r3, r0
 4454 025c 0400A0E1 		mov	r0, r4
 4455 0260 183084E5 		str	r3, [r4, #24]
 4456 0264 FEFFFFEB 		bl	_ZN11flatbuffers15vector_downward12ensure_spaceEj
 4457 0268 183094E5 		ldr	r3, [r4, #24]
 4458 026c 0810A0E3 		mov	r1, #8
 4459 0270 003043E0 		sub	r3, r3, r0
 4460 0274 0400A0E1 		mov	r0, r4
 4461 0278 183084E5 		str	r3, [r4, #24]
 4462 027c 00B0C3E5 		strb	fp, [r3]
 4463 0280 142094E5 		ldr	r2, [r4, #20]
 4464 0284 183094E5 		ldr	r3, [r4, #24]
 4465 0288 106094E5 		ldr	r6, [r4, #16]
 4466 028c 023043E0 		sub	r3, r3, r2
 4467 0290 036046E0 		sub	r6, r6, r3
 4468 0294 FEFFFFEB 		bl	_ZN11flatbuffers15vector_downward12ensure_spaceEj
 4469 0298 1C3094E5 		ldr	r3, [r4, #28]
 4470 029c 0A00A0E3 		mov	r0, #10
 4471 02a0 202094E5 		ldr	r2, [r4, #32]
 4472 02a4 081083E2 		add	r1, r3, #8
 4473 02a8 006083E5 		str	r6, [r3]
 4474 02ac B400C3E1 		strh	r0, [r3, #4]	@ movhi
 4475 02b0 012082E2 		add	r2, r2, #1
 4476 02b4 B432D4E1 		ldrh	r3, [r4, #36]
 4477 02b8 1C1084E5 		str	r1, [r4, #28]
 4478 02bc 202084E5 		str	r2, [r4, #32]
 4479 02c0 000053E1 		cmp	r3, r0
 4480 02c4 0030A0B1 		movlt	r3, r0
 4481 02c8 B432C4E1 		strh	r3, [r4, #36]	@ movhi
 4482              	.L885:
 4483 02cc 0510A0E1 		mov	r1, r5
 4484 02d0 0400A0E1 		mov	r0, r4
 4485 02d4 FEFFFFEB 		bl	_ZN11flatbuffers17FlatBufferBuilder8EndTableEm
 4486 02d8 F88FBDE8 		pop	{r3, r4, r5, r6, r7, r8, r9, r10, fp, pc}
 4487              	.L924:
 4488 02dc 7660AFE6 		sxtb	r6, r6
 4489 02e0 000056E3 		cmp	r6, #0
 4490 02e4 A7FFFF1A 		bne	.L881
 4491 02e8 00005BE3 		cmp	fp, #0
 4492 02ec F6FFFF0A 		beq	.L885
 4493 02f0 CFFFFFEA 		b	.L884
 4494              	.L925:
 4495 02f4 2C30D4E5 		ldrb	r3, [r4, #44]	@ zero_extendqisi2
 4496 02f8 000053E3 		cmp	r3, #0
 4497 02fc A1FFFF1A 		bne	.L881
 4498 0300 00005BE3 		cmp	fp, #0
 4499 0304 F0FFFF0A 		beq	.L885
 4500 0308 C9FFFFEA 		b	.L884
 4501              	.L923:
 4502 030c 0810A0E1 		mov	r1, r8
 4503 0310 0400A0E1 		mov	r0, r4
 4504 0314 FEFFFFEB 		bl	_ZN11flatbuffers17FlatBufferBuilder7ReferToEm
 4505 0318 002050E2 		subs	r2, r0, #0
 4506 031c 0200001A 		bne	.L875
 4507 0320 2C30D4E5 		ldrb	r3, [r4, #44]	@ zero_extendqisi2
 4508 0324 000053E3 		cmp	r3, #0
 4509 0328 58FFFF0A 		beq	.L874
 4510              	.L875:
 4511 032c 0610A0E3 		mov	r1, #6
 4512 0330 0400A0E1 		mov	r0, r4
 4513 0334 FEFFFFEB 		bl	_ZN11flatbuffers17FlatBufferBuilder10AddElementImEEvtT_S2_.part.45
 4514 0338 54FFFFEA 		b	.L874
 4515              	.L922:
 4516 033c 0910A0E1 		mov	r1, r9
 4517 0340 0400A0E1 		mov	r0, r4
 4518 0344 FEFFFFEB 		bl	_ZN11flatbuffers17FlatBufferBuilder7ReferToEm
 4519 0348 002050E2 		subs	r2, r0, #0
 4520 034c 0200001A 		bne	.L871
 4521 0350 2C30D4E5 		ldrb	r3, [r4, #44]	@ zero_extendqisi2
 4522 0354 000053E3 		cmp	r3, #0
 4523 0358 4AFFFF0A 		beq	.L870
 4524              	.L871:
 4525 035c 0810A0E3 		mov	r1, #8
 4526 0360 0400A0E1 		mov	r0, r4
 4527 0364 FEFFFFEB 		bl	_ZN11flatbuffers17FlatBufferBuilder10AddElementImEEvtT_S2_.part.45
 4528 0368 46FFFFEA 		b	.L870
 4529              	.L921:
 4530 036c 0310A0E1 		mov	r1, r3
 4531 0370 0400A0E1 		mov	r0, r4
 4532 0374 FEFFFFEB 		bl	_ZN11flatbuffers17FlatBufferBuilder7ReferToEm
 4533 0378 002050E2 		subs	r2, r0, #0
 4534 037c 0200001A 		bne	.L867
 4535 0380 2C30D4E5 		ldrb	r3, [r4, #44]	@ zero_extendqisi2
 4536 0384 000053E3 		cmp	r3, #0
 4537 0388 3CFFFF0A 		beq	.L866
 4538              	.L867:
 4539 038c 0C10A0E3 		mov	r1, #12
 4540 0390 0400A0E1 		mov	r0, r4
 4541 0394 FEFFFFEB 		bl	_ZN11flatbuffers17FlatBufferBuilder10AddElementImEEvtT_S2_.part.45
 4542 0398 38FFFFEA 		b	.L866
 4543              	.L920:
 4544 039c 0310A0E1 		mov	r1, r3
 4545 03a0 0400A0E1 		mov	r0, r4
 4546 03a4 FEFFFFEB 		bl	_ZN11flatbuffers17FlatBufferBuilder7ReferToEm
 4547 03a8 002050E2 		subs	r2, r0, #0
 4548 03ac 0200001A 		bne	.L863
 4549 03b0 2C30D4E5 		ldrb	r3, [r4, #44]	@ zero_extendqisi2
 4550 03b4 000053E3 		cmp	r3, #0
 4551 03b8 2DFFFF0A 		beq	.L862
 4552              	.L863:
 4553 03bc 0E10A0E3 		mov	r1, #14
 4554 03c0 0400A0E1 		mov	r0, r4
 4555 03c4 FEFFFFEB 		bl	_ZN11flatbuffers17FlatBufferBuilder10AddElementImEEvtT_S2_.part.45
 4556 03c8 29FFFFEA 		b	.L862
 4557              	.L919:
 4558 03cc 0A10A0E1 		mov	r1, r10
 4559 03d0 0400A0E1 		mov	r0, r4
 4560 03d4 FEFFFFEB 		bl	_ZN11flatbuffers17FlatBufferBuilder7ReferToEm
 4561 03d8 002050E2 		subs	r2, r0, #0
 4562 03dc 0200001A 		bne	.L859
 4563 03e0 2C30D4E5 		ldrb	r3, [r4, #44]	@ zero_extendqisi2
 4564 03e4 000053E3 		cmp	r3, #0
 4565 03e8 1EFFFF0A 		beq	.L858
 4566              	.L859:
 4567 03ec 1210A0E3 		mov	r1, #18
 4568 03f0 0400A0E1 		mov	r0, r4
 4569 03f4 FEFFFFEB 		bl	_ZN11flatbuffers17FlatBufferBuilder10AddElementImEEvtT_S2_.part.45
 4570 03f8 1AFFFFEA 		b	.L858
 4571              	.L918:
 4572 03fc FEFFFFEB 		bl	_ZN11flatbuffers17FlatBufferBuilder7ReferToEm
 4573 0400 002050E2 		subs	r2, r0, #0
 4574 0404 0200001A 		bne	.L855
 4575 0408 2C30D4E5 		ldrb	r3, [r4, #44]	@ zero_extendqisi2
 4576 040c 000053E3 		cmp	r3, #0
 4577 0410 12FFFF0A 		beq	.L854
 4578              	.L855:
 4579 0414 1410A0E3 		mov	r1, #20
 4580 0418 0400A0E1 		mov	r0, r4
 4581 041c FEFFFFEB 		bl	_ZN11flatbuffers17FlatBufferBuilder10AddElementImEEvtT_S2_.part.45
 4582 0420 0EFFFFEA 		b	.L854
 4583              	.L916:
 4584 0424 003000E3 		movw	r3, #:lower16:.LC24
 4585 0428 002000E3 		movw	r2, #:lower16:.LANCHOR11
 4586 042c 000000E3 		movw	r0, #:lower16:.LC19
 4587 0430 003040E3 		movt	r3, #:upper16:.LC24
 4588 0434 002040E3 		movt	r2, #:upper16:.LANCHOR11
 4589 0438 000040E3 		movt	r0, #:upper16:.LC19
 4590 043c 481500E3 		movw	r1, #1352
 4591 0440 FEFFFFEB 		bl	__assert_func
 4592              	.L917:
 4593 0444 FEFFFFEB 		bl	_ZN11flatbuffers17FlatBufferBuilder9NotNestedEv.isra.20.part.21
 4594              		.fnend
 4596              		.section	.text._ZN6tflite7testing12_GLOBAL__N_112ModelBuilder7AddNodeEiSt16initializer_listIlES4_,
 4597              		.align	2
 4598              		.syntax unified
 4599              		.arm
 4600              		.fpu neon
 4602              	_ZN6tflite7testing12_GLOBAL__N_112ModelBuilder7AddNodeEiSt16initializer_listIlES4_:
 4603              		.fnstart
 4604              	.LFB7056:
 4605              		@ args = 8, pretend = 0, frame = 8
 4606              		@ frame_needed = 0, uses_anonymous_args = 0
 4607 0000 F04F2DE9 		push	{r4, r5, r6, r7, r8, r9, r10, fp, lr}
 4608              		.save {r4, r5, r6, r7, r8, r9, r10, fp, lr}
 4609              		.pad #36
 4610 0004 24D04DE2 		sub	sp, sp, #36
 4611 0008 F86090E5 		ldr	r6, [r0, #248]
 4612 000c 0180A0E1 		mov	r8, r1
 4613 0010 20108DE2 		add	r1, sp, #32
 4614 0014 0C0001E9 		stmdb	r1, {r2, r3}
 4615 0018 320056E3 		cmp	r6, #50
 4616 001c 430000CA 		bgt	.L941
 4617 0020 1C509DE5 		ldr	r5, [sp, #28]
 4618 0024 0040A0E1 		mov	r4, r0
 4619 0028 007090E5 		ldr	r7, [r0]
 4620 002c 18A09DE5 		ldr	r10, [sp, #24]
 4621 0030 0510A0E1 		mov	r1, r5
 4622 0034 0700A0E1 		mov	r0, r7
 4623 0038 FEFFFFEB 		bl	_ZN11flatbuffers17FlatBufferBuilder11StartVectorEjj.constprop.148
 4624 003c 000055E3 		cmp	r5, #0
 4625 0040 0100000A 		beq	.L930
 4626 0044 0591B0E1 		lsls	r9, r5, #2
 4627 0048 2400001A 		bne	.L942
 4628              	.L930:
 4629 004c 0510A0E1 		mov	r1, r5
 4630 0050 0700A0E1 		mov	r0, r7
 4631 0054 FEFFFFEB 		bl	_ZN11flatbuffers17FlatBufferBuilder9EndVectorEj
 4632 0058 4C509DE5 		ldr	r5, [sp, #76]
 4633 005c 0090A0E1 		mov	r9, r0
 4634 0060 007094E5 		ldr	r7, [r4]
 4635 0064 48B09DE5 		ldr	fp, [sp, #72]
 4636 0068 0510A0E1 		mov	r1, r5
 4637 006c 0700A0E1 		mov	r0, r7
 4638 0070 FEFFFFEB 		bl	_ZN11flatbuffers17FlatBufferBuilder11StartVectorEjj.constprop.148
 4639 0074 000055E3 		cmp	r5, #0
 4640 0078 0100000A 		beq	.L933
 4641 007c 05A1B0E1 		lsls	r10, r5, #2
 4642 0080 2000001A 		bne	.L943
 4643              	.L933:
 4644 0084 0510A0E1 		mov	r1, r5
 4645 0088 0700A0E1 		mov	r0, r7
 4646 008c FEFFFFEB 		bl	_ZN11flatbuffers17FlatBufferBuilder9EndVectorEj
 4647 0090 00C0A0E3 		mov	ip, #0
 4648 0094 0030A0E1 		mov	r3, r0
 4649 0098 0920A0E1 		mov	r2, r9
 4650 009c 0810A0E1 		mov	r1, r8
 4651 00a0 0700A0E1 		mov	r0, r7
 4652 00a4 14C08DE5 		str	ip, [sp, #20]
 4653 00a8 10C08DE5 		str	ip, [sp, #16]
 4654 00ac 0C6086E2 		add	r6, r6, #12
 4655 00b0 0CC08DE5 		str	ip, [sp, #12]
 4656 00b4 08C08DE5 		str	ip, [sp, #8]
 4657 00b8 04C08DE5 		str	ip, [sp, #4]
 4658 00bc 00C08DE5 		str	ip, [sp]
 4659 00c0 FEFFFFEB 		bl	_ZN6tflite14CreateOperatorERN11flatbuffers17FlatBufferBuilderEmNS0_6OffsetINS0_6VectorIlEEEES6_
 4660 00c4 F83094E5 		ldr	r3, [r4, #248]
 4661 00c8 060184E7 		str	r0, [r4, r6, lsl #2]
 4662 00cc 012083E2 		add	r2, r3, #1
 4663 00d0 0300A0E1 		mov	r0, r3
 4664 00d4 F82084E5 		str	r2, [r4, #248]
 4665 00d8 24D08DE2 		add	sp, sp, #36
 4666              		@ sp needed
 4667 00dc F08FBDE8 		pop	{r4, r5, r6, r7, r8, r9, r10, fp, pc}
 4668              	.L942:
 4669 00e0 0910A0E1 		mov	r1, r9
 4670 00e4 0700A0E1 		mov	r0, r7
 4671 00e8 FEFFFFEB 		bl	_ZN11flatbuffers15vector_downward12ensure_spaceEj
 4672 00ec 183097E5 		ldr	r3, [r7, #24]
 4673 00f0 0920A0E1 		mov	r2, r9
 4674 00f4 0A10A0E1 		mov	r1, r10
 4675 00f8 000043E0 		sub	r0, r3, r0
 4676 00fc 180087E5 		str	r0, [r7, #24]
 4677 0100 FEFFFFEB 		bl	memcpy
 4678 0104 D0FFFFEA 		b	.L930
 4679              	.L943:
 4680 0108 0A10A0E1 		mov	r1, r10
 4681 010c 0700A0E1 		mov	r0, r7
 4682 0110 FEFFFFEB 		bl	_ZN11flatbuffers15vector_downward12ensure_spaceEj
 4683 0114 183097E5 		ldr	r3, [r7, #24]
 4684 0118 0A20A0E1 		mov	r2, r10
 4685 011c 0B10A0E1 		mov	r1, fp
 4686 0120 000043E0 		sub	r0, r3, r0
 4687 0124 180087E5 		str	r0, [r7, #24]
 4688 0128 FEFFFFEB 		bl	memcpy
 4689 012c D4FFFFEA 		b	.L933
 4690              	.L941:
 4691 0130 FEFFFFEB 		bl	abort
 4692              		.fnend
 4694              		.section	.text._ZN6tflite14CreateSubGraphERN11flatbuffers17FlatBufferBuilderENS0_6OffsetINS0_6Vect
 4695              		.align	2
 4696              		.weak	_ZN6tflite14CreateSubGraphERN11flatbuffers17FlatBufferBuilderENS0_6OffsetINS0_6VectorINS3_IN
 4697              		.syntax unified
 4698              		.arm
 4699              		.fpu neon
 4701              	_ZN6tflite14CreateSubGraphERN11flatbuffers17FlatBufferBuilderENS0_6OffsetINS0_6VectorINS3_INS_6Tens
 4702              		.fnstart
 4703              	.LFB5961:
 4704              		@ args = 8, pretend = 0, frame = 0
 4705              		@ frame_needed = 0, uses_anonymous_args = 0
 4706 0000 F0472DE9 		push	{r4, r5, r6, r7, r8, r9, r10, lr}
 4707              		.save {r4, r5, r6, r7, r8, r9, r10, lr}
 4708 0004 0160A0E1 		mov	r6, r1
 4709 0008 2610D0E5 		ldrb	r1, [r0, #38]	@ zero_extendqisi2
 4710 000c 0380A0E1 		mov	r8, r3
 4711 0010 20909DE5 		ldr	r9, [sp, #32]
 4712 0014 000051E3 		cmp	r1, #0
 4713 0018 203090E5 		ldr	r3, [r0, #32]
 4714 001c 24109DE5 		ldr	r1, [sp, #36]
 4715 0020 5600001A 		bne	.L969
 4716 0024 000053E3 		cmp	r3, #0
 4717 0028 5C00001A 		bne	.L970
 4718 002c 0270A0E1 		mov	r7, r2
 4719 0030 143090E5 		ldr	r3, [r0, #20]
 4720 0034 182090E5 		ldr	r2, [r0, #24]
 4721 0038 000051E3 		cmp	r1, #0
 4722 003c 105090E5 		ldr	r5, [r0, #16]
 4723 0040 01C0A0E3 		mov	ip, #1
 4724 0044 0040A0E1 		mov	r4, r0
 4725 0048 26C0C0E5 		strb	ip, [r0, #38]
 4726 004c 032042E0 		sub	r2, r2, r3
 4727 0050 025045E0 		sub	r5, r5, r2
 4728 0054 0B00001A 		bne	.L971
 4729              	.L948:
 4730 0058 000059E3 		cmp	r9, #0
 4731 005c 1400001A 		bne	.L972
 4732              	.L952:
 4733 0060 000058E3 		cmp	r8, #0
 4734 0064 1F00001A 		bne	.L973
 4735              	.L956:
 4736 0068 000057E3 		cmp	r7, #0
 4737 006c 2A00001A 		bne	.L974
 4738              	.L960:
 4739 0070 000056E3 		cmp	r6, #0
 4740 0074 3500001A 		bne	.L975
 4741              	.L964:
 4742 0078 0510A0E1 		mov	r1, r5
 4743 007c 0400A0E1 		mov	r0, r4
 4744 0080 FEFFFFEB 		bl	_ZN11flatbuffers17FlatBufferBuilder8EndTableEm
 4745 0084 F087BDE8 		pop	{r4, r5, r6, r7, r8, r9, r10, pc}
 4746              	.L971:
 4747 0088 FEFFFFEB 		bl	_ZN11flatbuffers17FlatBufferBuilder7ReferToEm
 4748 008c 002050E2 		subs	r2, r0, #0
 4749 0090 0200001A 		bne	.L949
 4750 0094 2C30D4E5 		ldrb	r3, [r4, #44]	@ zero_extendqisi2
 4751 0098 000053E3 		cmp	r3, #0
 4752 009c EDFFFF0A 		beq	.L948
 4753              	.L949:
 4754 00a0 0C10A0E3 		mov	r1, #12
 4755 00a4 0400A0E1 		mov	r0, r4
 4756 00a8 FEFFFFEB 		bl	_ZN11flatbuffers17FlatBufferBuilder10AddElementImEEvtT_S2_.part.45
 4757 00ac 000059E3 		cmp	r9, #0
 4758 00b0 EAFFFF0A 		beq	.L952
 4759              	.L972:
 4760 00b4 0910A0E1 		mov	r1, r9
 4761 00b8 0400A0E1 		mov	r0, r4
 4762 00bc FEFFFFEB 		bl	_ZN11flatbuffers17FlatBufferBuilder7ReferToEm
 4763 00c0 002050E2 		subs	r2, r0, #0
 4764 00c4 0200001A 		bne	.L953
 4765 00c8 2C30D4E5 		ldrb	r3, [r4, #44]	@ zero_extendqisi2
 4766 00cc 000053E3 		cmp	r3, #0
 4767 00d0 E2FFFF0A 		beq	.L952
 4768              	.L953:
 4769 00d4 0A10A0E3 		mov	r1, #10
 4770 00d8 0400A0E1 		mov	r0, r4
 4771 00dc FEFFFFEB 		bl	_ZN11flatbuffers17FlatBufferBuilder10AddElementImEEvtT_S2_.part.45
 4772 00e0 000058E3 		cmp	r8, #0
 4773 00e4 DFFFFF0A 		beq	.L956
 4774              	.L973:
 4775 00e8 0810A0E1 		mov	r1, r8
 4776 00ec 0400A0E1 		mov	r0, r4
 4777 00f0 FEFFFFEB 		bl	_ZN11flatbuffers17FlatBufferBuilder7ReferToEm
 4778 00f4 002050E2 		subs	r2, r0, #0
 4779 00f8 0200001A 		bne	.L957
 4780 00fc 2C30D4E5 		ldrb	r3, [r4, #44]	@ zero_extendqisi2
 4781 0100 000053E3 		cmp	r3, #0
 4782 0104 D7FFFF0A 		beq	.L956
 4783              	.L957:
 4784 0108 0810A0E3 		mov	r1, #8
 4785 010c 0400A0E1 		mov	r0, r4
 4786 0110 FEFFFFEB 		bl	_ZN11flatbuffers17FlatBufferBuilder10AddElementImEEvtT_S2_.part.45
 4787 0114 000057E3 		cmp	r7, #0
 4788 0118 D4FFFF0A 		beq	.L960
 4789              	.L974:
 4790 011c 0710A0E1 		mov	r1, r7
 4791 0120 0400A0E1 		mov	r0, r4
 4792 0124 FEFFFFEB 		bl	_ZN11flatbuffers17FlatBufferBuilder7ReferToEm
 4793 0128 002050E2 		subs	r2, r0, #0
 4794 012c 0200001A 		bne	.L961
 4795 0130 2C30D4E5 		ldrb	r3, [r4, #44]	@ zero_extendqisi2
 4796 0134 000053E3 		cmp	r3, #0
 4797 0138 CCFFFF0A 		beq	.L960
 4798              	.L961:
 4799 013c 0610A0E3 		mov	r1, #6
 4800 0140 0400A0E1 		mov	r0, r4
 4801 0144 FEFFFFEB 		bl	_ZN11flatbuffers17FlatBufferBuilder10AddElementImEEvtT_S2_.part.45
 4802 0148 000056E3 		cmp	r6, #0
 4803 014c C9FFFF0A 		beq	.L964
 4804              	.L975:
 4805 0150 0610A0E1 		mov	r1, r6
 4806 0154 0400A0E1 		mov	r0, r4
 4807 0158 FEFFFFEB 		bl	_ZN11flatbuffers17FlatBufferBuilder7ReferToEm
 4808 015c 002050E2 		subs	r2, r0, #0
 4809 0160 0200001A 		bne	.L965
 4810 0164 2C30D4E5 		ldrb	r3, [r4, #44]	@ zero_extendqisi2
 4811 0168 000053E3 		cmp	r3, #0
 4812 016c C1FFFF0A 		beq	.L964
 4813              	.L965:
 4814 0170 0410A0E3 		mov	r1, #4
 4815 0174 0400A0E1 		mov	r0, r4
 4816 0178 FEFFFFEB 		bl	_ZN11flatbuffers17FlatBufferBuilder10AddElementImEEvtT_S2_.part.45
 4817 017c BDFFFFEA 		b	.L964
 4818              	.L969:
 4819 0180 003000E3 		movw	r3, #:lower16:.LC24
 4820 0184 002000E3 		movw	r2, #:lower16:.LANCHOR11
 4821 0188 000000E3 		movw	r0, #:lower16:.LC19
 4822 018c 003040E3 		movt	r3, #:upper16:.LC24
 4823 0190 002040E3 		movt	r2, #:upper16:.LANCHOR11
 4824 0194 000040E3 		movt	r0, #:upper16:.LC19
 4825 0198 481500E3 		movw	r1, #1352
 4826 019c FEFFFFEB 		bl	__assert_func
 4827              	.L970:
 4828 01a0 FEFFFFEB 		bl	_ZN11flatbuffers17FlatBufferBuilder9NotNestedEv.isra.20.part.21
 4829              		.fnend
 4831              		.section	.text._ZN6tflite12CreateBufferERN11flatbuffers17FlatBufferBuilderENS0_6OffsetINS0_6Vector
 4832              		.align	2
 4833              		.weak	_ZN6tflite12CreateBufferERN11flatbuffers17FlatBufferBuilderENS0_6OffsetINS0_6VectorIhEEEE
 4834              		.syntax unified
 4835              		.arm
 4836              		.fpu neon
 4838              	_ZN6tflite12CreateBufferERN11flatbuffers17FlatBufferBuilderENS0_6OffsetINS0_6VectorIhEEEE:
 4839              		.fnstart
 4840              	.LFB5973:
 4841              		@ args = 0, pretend = 0, frame = 0
 4842              		@ frame_needed = 0, uses_anonymous_args = 0
 4843 0000 26C0D0E5 		ldrb	ip, [r0, #38]	@ zero_extendqisi2
 4844 0004 F0412DE9 		push	{r4, r5, r6, r7, r8, lr}
 4845              		.save {r4, r5, r6, r7, r8, lr}
 4846 0008 203090E5 		ldr	r3, [r0, #32]
 4847 000c 00005CE3 		cmp	ip, #0
 4848 0010 4D00001A 		bne	.L999
 4849 0014 000053E3 		cmp	r3, #0
 4850 0018 5300001A 		bne	.L1000
 4851 001c 183090E5 		ldr	r3, [r0, #24]
 4852 0020 000051E3 		cmp	r1, #0
 4853 0024 142090E5 		ldr	r2, [r0, #20]
 4854 0028 01C0A0E3 		mov	ip, #1
 4855 002c 105090E5 		ldr	r5, [r0, #16]
 4856 0030 0040A0E1 		mov	r4, r0
 4857 0034 26C0C0E5 		strb	ip, [r0, #38]
 4858 0038 023043E0 		sub	r3, r3, r2
 4859 003c 035045E0 		sub	r5, r5, r3
 4860 0040 0300001A 		bne	.L1001
 4861              	.L980:
 4862 0044 0510A0E1 		mov	r1, r5
 4863 0048 0400A0E1 		mov	r0, r4
 4864 004c FEFFFFEB 		bl	_ZN11flatbuffers17FlatBufferBuilder8EndTableEm
 4865 0050 F081BDE8 		pop	{r4, r5, r6, r7, r8, pc}
 4866              	.L1001:
 4867 0054 FEFFFFEB 		bl	_ZN11flatbuffers17FlatBufferBuilder7ReferToEm
 4868 0058 007050E2 		subs	r7, r0, #0
 4869 005c 3600000A 		beq	.L1002
 4870              	.L981:
 4871 0060 283094E5 		ldr	r3, [r4, #40]
 4872 0064 0400A0E1 		mov	r0, r4
 4873 0068 186094E5 		ldr	r6, [r4, #24]
 4874 006c 142094E5 		ldr	r2, [r4, #20]
 4875 0070 030053E3 		cmp	r3, #3
 4876 0074 0430A093 		movls	r3, #4
 4877 0078 28308495 		strls	r3, [r4, #40]
 4878 007c 026046E0 		sub	r6, r6, r2
 4879 0080 103094E5 		ldr	r3, [r4, #16]
 4880 0084 036046E0 		sub	r6, r6, r3
 4881 0088 036006E2 		and	r6, r6, #3
 4882 008c 0610A0E1 		mov	r1, r6
 4883 0090 FEFFFFEB 		bl	_ZN11flatbuffers15vector_downward12ensure_spaceEj
 4884 0094 183094E5 		ldr	r3, [r4, #24]
 4885 0098 000056E3 		cmp	r6, #0
 4886 009c 000043E0 		sub	r0, r3, r0
 4887 00a0 180084E5 		str	r0, [r4, #24]
 4888 00a4 0800000A 		beq	.L983
 4889 00a8 010056E3 		cmp	r6, #1
 4890 00ac 0030A0E3 		mov	r3, #0
 4891 00b0 0030C0E5 		strb	r3, [r0]
 4892 00b4 0400000A 		beq	.L983
 4893 00b8 182094E5 		ldr	r2, [r4, #24]
 4894 00bc 020056E3 		cmp	r6, #2
 4895 00c0 0130C2E5 		strb	r3, [r2, #1]
 4896 00c4 18209415 		ldrne	r2, [r4, #24]
 4897 00c8 0230C215 		strbne	r3, [r2, #2]
 4898              	.L983:
 4899 00cc 0410A0E3 		mov	r1, #4
 4900 00d0 0400A0E1 		mov	r0, r4
 4901 00d4 FEFFFFEB 		bl	_ZN11flatbuffers15vector_downward12ensure_spaceEj
 4902 00d8 183094E5 		ldr	r3, [r4, #24]
 4903 00dc 0810A0E3 		mov	r1, #8
 4904 00e0 142094E5 		ldr	r2, [r4, #20]
 4905 00e4 106094E5 		ldr	r6, [r4, #16]
 4906 00e8 003043E0 		sub	r3, r3, r0
 4907 00ec 0400A0E1 		mov	r0, r4
 4908 00f0 022043E0 		sub	r2, r3, r2
 4909 00f4 183084E5 		str	r3, [r4, #24]
 4910 00f8 007083E5 		str	r7, [r3]
 4911 00fc 026046E0 		sub	r6, r6, r2
 4912 0100 FEFFFFEB 		bl	_ZN11flatbuffers15vector_downward12ensure_spaceEj
 4913 0104 1C3094E5 		ldr	r3, [r4, #28]
 4914 0108 0400A0E3 		mov	r0, #4
 4915 010c 202094E5 		ldr	r2, [r4, #32]
 4916 0110 081083E2 		add	r1, r3, #8
 4917 0114 006083E5 		str	r6, [r3]
 4918 0118 B400C3E1 		strh	r0, [r3, #4]	@ movhi
 4919 011c 012082E2 		add	r2, r2, #1
 4920 0120 B432D4E1 		ldrh	r3, [r4, #36]
 4921 0124 1C1084E5 		str	r1, [r4, #28]
 4922 0128 202084E5 		str	r2, [r4, #32]
 4923 012c 000053E1 		cmp	r3, r0
 4924 0130 0030A0B1 		movlt	r3, r0
 4925 0134 B432C4E1 		strh	r3, [r4, #36]	@ movhi
 4926 0138 C1FFFFEA 		b	.L980
 4927              	.L1002:
 4928 013c 2C30D4E5 		ldrb	r3, [r4, #44]	@ zero_extendqisi2
 4929 0140 000053E3 		cmp	r3, #0
 4930 0144 C5FFFF1A 		bne	.L981
 4931 0148 BDFFFFEA 		b	.L980
 4932              	.L999:
 4933 014c 003000E3 		movw	r3, #:lower16:.LC24
 4934 0150 002000E3 		movw	r2, #:lower16:.LANCHOR11
 4935 0154 000000E3 		movw	r0, #:lower16:.LC19
 4936 0158 003040E3 		movt	r3, #:upper16:.LC24
 4937 015c 002040E3 		movt	r2, #:upper16:.LANCHOR11
 4938 0160 000040E3 		movt	r0, #:upper16:.LC19
 4939 0164 481500E3 		movw	r1, #1352
 4940 0168 FEFFFFEB 		bl	__assert_func
 4941              	.L1000:
 4942 016c FEFFFFEB 		bl	_ZN11flatbuffers17FlatBufferBuilder9NotNestedEv.isra.20.part.21
 4943              		.fnend
 4945              		.section	.text._ZN6tflite11CreateModelERN11flatbuffers17FlatBufferBuilderEmNS0_6OffsetINS0_6Vector
 4946              		.align	2
 4947              		.weak	_ZN6tflite11CreateModelERN11flatbuffers17FlatBufferBuilderEmNS0_6OffsetINS0_6VectorINS3_INS_
 4948              		.syntax unified
 4949              		.arm
 4950              		.fpu neon
 4952              	_ZN6tflite11CreateModelERN11flatbuffers17FlatBufferBuilderEmNS0_6OffsetINS0_6VectorINS3_INS_12Opera
 4953              		.fnstart
 4954              	.LFB6047:
 4955              		@ args = 20, pretend = 0, frame = 0
 4956              		@ frame_needed = 0, uses_anonymous_args = 0
 4957 0000 F84F2DE9 		push	{r3, r4, r5, r6, r7, r8, r9, r10, fp, lr}
 4958              		.save {r3, r4, r5, r6, r7, r8, r9, r10, fp, lr}
 4959 0004 0160A0E1 		mov	r6, r1
 4960 0008 2610D0E5 		ldrb	r1, [r0, #38]	@ zero_extendqisi2
 4961 000c 2C908DE2 		add	r9, sp, #44
 4962 0010 0380A0E1 		mov	r8, r3
 4963 0014 000E99E8 		ldm	r9, {r9, r10, fp}
 4964 0018 000051E3 		cmp	r1, #0
 4965 001c 203090E5 		ldr	r3, [r0, #32]
 4966 0020 38109DE5 		ldr	r1, [sp, #56]
 4967 0024 AD00001A 		bne	.L1060
 4968 0028 000053E3 		cmp	r3, #0
 4969 002c B300001A 		bne	.L1061
 4970 0030 0270A0E1 		mov	r7, r2
 4971 0034 183090E5 		ldr	r3, [r0, #24]
 4972 0038 142090E5 		ldr	r2, [r0, #20]
 4973 003c 000051E3 		cmp	r1, #0
 4974 0040 105090E5 		ldr	r5, [r0, #16]
 4975 0044 01C0A0E3 		mov	ip, #1
 4976 0048 0040A0E1 		mov	r4, r0
 4977 004c 26C0C0E5 		strb	ip, [r0, #38]
 4978 0050 023043E0 		sub	r3, r3, r2
 4979 0054 035045E0 		sub	r5, r5, r3
 4980 0058 9600001A 		bne	.L1062
 4981              	.L1007:
 4982 005c 00005BE3 		cmp	fp, #0
 4983 0060 8800001A 		bne	.L1063
 4984              	.L1011:
 4985 0064 00005AE3 		cmp	r10, #0
 4986 0068 7A00001A 		bne	.L1064
 4987              	.L1015:
 4988 006c 000059E3 		cmp	r9, #0
 4989 0070 6C00001A 		bne	.L1065
 4990              	.L1019:
 4991 0074 28309DE5 		ldr	r3, [sp, #40]
 4992 0078 000053E3 		cmp	r3, #0
 4993 007c 5D00001A 		bne	.L1066
 4994              	.L1023:
 4995 0080 000058E3 		cmp	r8, #0
 4996 0084 4F00001A 		bne	.L1067
 4997              	.L1027:
 4998 0088 000057E3 		cmp	r7, #0
 4999 008c 0800001A 		bne	.L1068
 5000              	.L1030:
 5001 0090 000056E3 		cmp	r6, #0
 5002 0094 1000001A 		bne	.L1033
 5003 0098 2C30D4E5 		ldrb	r3, [r4, #44]	@ zero_extendqisi2
 5004 009c 000053E3 		cmp	r3, #0
 5005 00a0 0D00001A 		bne	.L1033
 5006              	.L1034:
 5007 00a4 0510A0E1 		mov	r1, r5
 5008 00a8 0400A0E1 		mov	r0, r4
 5009 00ac FEFFFFEB 		bl	_ZN11flatbuffers17FlatBufferBuilder8EndTableEm
 5010 00b0 F88FBDE8 		pop	{r3, r4, r5, r6, r7, r8, r9, r10, fp, pc}
 5011              	.L1068:
 5012 00b4 0710A0E1 		mov	r1, r7
 5013 00b8 0400A0E1 		mov	r0, r4
 5014 00bc FEFFFFEB 		bl	_ZN11flatbuffers17FlatBufferBuilder7ReferToEm
 5015 00c0 002050E2 		subs	r2, r0, #0
 5016 00c4 3B00001A 		bne	.L1031
 5017 00c8 2C30D4E5 		ldrb	r3, [r4, #44]	@ zero_extendqisi2
 5018 00cc 000053E3 		cmp	r3, #0
 5019 00d0 3800001A 		bne	.L1031
 5020 00d4 000056E3 		cmp	r6, #0
 5021 00d8 F1FFFF0A 		beq	.L1034
 5022              	.L1033:
 5023 00dc 283094E5 		ldr	r3, [r4, #40]
 5024 00e0 0400A0E1 		mov	r0, r4
 5025 00e4 187094E5 		ldr	r7, [r4, #24]
 5026 00e8 142094E5 		ldr	r2, [r4, #20]
 5027 00ec 030053E3 		cmp	r3, #3
 5028 00f0 0430A093 		movls	r3, #4
 5029 00f4 28308495 		strls	r3, [r4, #40]
 5030 00f8 027047E0 		sub	r7, r7, r2
 5031 00fc 103094E5 		ldr	r3, [r4, #16]
 5032 0100 037047E0 		sub	r7, r7, r3
 5033 0104 037007E2 		and	r7, r7, #3
 5034 0108 0710A0E1 		mov	r1, r7
 5035 010c FEFFFFEB 		bl	_ZN11flatbuffers15vector_downward12ensure_spaceEj
 5036 0110 183094E5 		ldr	r3, [r4, #24]
 5037 0114 000057E3 		cmp	r7, #0
 5038 0118 000043E0 		sub	r0, r3, r0
 5039 011c 180084E5 		str	r0, [r4, #24]
 5040 0120 0800000A 		beq	.L1035
 5041 0124 010057E3 		cmp	r7, #1
 5042 0128 0030A0E3 		mov	r3, #0
 5043 012c 0030C0E5 		strb	r3, [r0]
 5044 0130 0400000A 		beq	.L1035
 5045 0134 182094E5 		ldr	r2, [r4, #24]
 5046 0138 020057E3 		cmp	r7, #2
 5047 013c 0130C2E5 		strb	r3, [r2, #1]
 5048 0140 18209415 		ldrne	r2, [r4, #24]
 5049 0144 0230C215 		strbne	r3, [r2, #2]
 5050              	.L1035:
 5051 0148 0410A0E3 		mov	r1, #4
 5052 014c 0400A0E1 		mov	r0, r4
 5053 0150 FEFFFFEB 		bl	_ZN11flatbuffers15vector_downward12ensure_spaceEj
 5054 0154 183094E5 		ldr	r3, [r4, #24]
 5055 0158 0810A0E3 		mov	r1, #8
 5056 015c 14C094E5 		ldr	ip, [r4, #20]
 5057 0160 102094E5 		ldr	r2, [r4, #16]
 5058 0164 003043E0 		sub	r3, r3, r0
 5059 0168 0400A0E1 		mov	r0, r4
 5060 016c 183084E5 		str	r3, [r4, #24]
 5061 0170 0CC043E0 		sub	ip, r3, ip
 5062 0174 006083E5 		str	r6, [r3]
 5063 0178 0C6042E0 		sub	r6, r2, ip
 5064 017c FEFFFFEB 		bl	_ZN11flatbuffers15vector_downward12ensure_spaceEj
 5065 0180 1C3094E5 		ldr	r3, [r4, #28]
 5066 0184 0400A0E3 		mov	r0, #4
 5067 0188 202094E5 		ldr	r2, [r4, #32]
 5068 018c 081083E2 		add	r1, r3, #8
 5069 0190 006083E5 		str	r6, [r3]
 5070 0194 B400C3E1 		strh	r0, [r3, #4]	@ movhi
 5071 0198 012082E2 		add	r2, r2, #1
 5072 019c B432D4E1 		ldrh	r3, [r4, #36]
 5073 01a0 1C1084E5 		str	r1, [r4, #28]
 5074 01a4 202084E5 		str	r2, [r4, #32]
 5075 01a8 000053E1 		cmp	r3, r0
 5076 01ac 0030A0B1 		movlt	r3, r0
 5077 01b0 B432C4E1 		strh	r3, [r4, #36]	@ movhi
 5078 01b4 BAFFFFEA 		b	.L1034
 5079              	.L1031:
 5080 01b8 0610A0E3 		mov	r1, #6
 5081 01bc 0400A0E1 		mov	r0, r4
 5082 01c0 FEFFFFEB 		bl	_ZN11flatbuffers17FlatBufferBuilder10AddElementImEEvtT_S2_.part.45
 5083 01c4 B1FFFFEA 		b	.L1030
 5084              	.L1067:
 5085 01c8 0810A0E1 		mov	r1, r8
 5086 01cc 0400A0E1 		mov	r0, r4
 5087 01d0 FEFFFFEB 		bl	_ZN11flatbuffers17FlatBufferBuilder7ReferToEm
 5088 01d4 002050E2 		subs	r2, r0, #0
 5089 01d8 0200001A 		bne	.L1028
 5090 01dc 2C30D4E5 		ldrb	r3, [r4, #44]	@ zero_extendqisi2
 5091 01e0 000053E3 		cmp	r3, #0
 5092 01e4 A7FFFF0A 		beq	.L1027
 5093              	.L1028:
 5094 01e8 0810A0E3 		mov	r1, #8
 5095 01ec 0400A0E1 		mov	r0, r4
 5096 01f0 FEFFFFEB 		bl	_ZN11flatbuffers17FlatBufferBuilder10AddElementImEEvtT_S2_.part.45
 5097 01f4 A3FFFFEA 		b	.L1027
 5098              	.L1066:
 5099 01f8 0310A0E1 		mov	r1, r3
 5100 01fc 0400A0E1 		mov	r0, r4
 5101 0200 FEFFFFEB 		bl	_ZN11flatbuffers17FlatBufferBuilder7ReferToEm
 5102 0204 002050E2 		subs	r2, r0, #0
 5103 0208 0200001A 		bne	.L1024
 5104 020c 2C30D4E5 		ldrb	r3, [r4, #44]	@ zero_extendqisi2
 5105 0210 000053E3 		cmp	r3, #0
 5106 0214 99FFFF0A 		beq	.L1023
 5107              	.L1024:
 5108 0218 0A10A0E3 		mov	r1, #10
 5109 021c 0400A0E1 		mov	r0, r4
 5110 0220 FEFFFFEB 		bl	_ZN11flatbuffers17FlatBufferBuilder10AddElementImEEvtT_S2_.part.45
 5111 0224 95FFFFEA 		b	.L1023
 5112              	.L1065:
 5113 0228 0910A0E1 		mov	r1, r9
 5114 022c 0400A0E1 		mov	r0, r4
 5115 0230 FEFFFFEB 		bl	_ZN11flatbuffers17FlatBufferBuilder7ReferToEm
 5116 0234 002050E2 		subs	r2, r0, #0
 5117 0238 0200001A 		bne	.L1020
 5118 023c 2C30D4E5 		ldrb	r3, [r4, #44]	@ zero_extendqisi2
 5119 0240 000053E3 		cmp	r3, #0
 5120 0244 8AFFFF0A 		beq	.L1019
 5121              	.L1020:
 5122 0248 0C10A0E3 		mov	r1, #12
 5123 024c 0400A0E1 		mov	r0, r4
 5124 0250 FEFFFFEB 		bl	_ZN11flatbuffers17FlatBufferBuilder10AddElementImEEvtT_S2_.part.45
 5125 0254 86FFFFEA 		b	.L1019
 5126              	.L1064:
 5127 0258 0A10A0E1 		mov	r1, r10
 5128 025c 0400A0E1 		mov	r0, r4
 5129 0260 FEFFFFEB 		bl	_ZN11flatbuffers17FlatBufferBuilder7ReferToEm
 5130 0264 002050E2 		subs	r2, r0, #0
 5131 0268 0200001A 		bne	.L1016
 5132 026c 2C30D4E5 		ldrb	r3, [r4, #44]	@ zero_extendqisi2
 5133 0270 000053E3 		cmp	r3, #0
 5134 0274 7CFFFF0A 		beq	.L1015
 5135              	.L1016:
 5136 0278 0E10A0E3 		mov	r1, #14
 5137 027c 0400A0E1 		mov	r0, r4
 5138 0280 FEFFFFEB 		bl	_ZN11flatbuffers17FlatBufferBuilder10AddElementImEEvtT_S2_.part.45
 5139 0284 78FFFFEA 		b	.L1015
 5140              	.L1063:
 5141 0288 0B10A0E1 		mov	r1, fp
 5142 028c 0400A0E1 		mov	r0, r4
 5143 0290 FEFFFFEB 		bl	_ZN11flatbuffers17FlatBufferBuilder7ReferToEm
 5144 0294 002050E2 		subs	r2, r0, #0
 5145 0298 0200001A 		bne	.L1012
 5146 029c 2C30D4E5 		ldrb	r3, [r4, #44]	@ zero_extendqisi2
 5147 02a0 000053E3 		cmp	r3, #0
 5148 02a4 6EFFFF0A 		beq	.L1011
 5149              	.L1012:
 5150 02a8 1010A0E3 		mov	r1, #16
 5151 02ac 0400A0E1 		mov	r0, r4
 5152 02b0 FEFFFFEB 		bl	_ZN11flatbuffers17FlatBufferBuilder10AddElementImEEvtT_S2_.part.45
 5153 02b4 6AFFFFEA 		b	.L1011
 5154              	.L1062:
 5155 02b8 FEFFFFEB 		bl	_ZN11flatbuffers17FlatBufferBuilder7ReferToEm
 5156 02bc 002050E2 		subs	r2, r0, #0
 5157 02c0 0200001A 		bne	.L1008
 5158 02c4 2C30D4E5 		ldrb	r3, [r4, #44]	@ zero_extendqisi2
 5159 02c8 000053E3 		cmp	r3, #0
 5160 02cc 62FFFF0A 		beq	.L1007
 5161              	.L1008:
 5162 02d0 1210A0E3 		mov	r1, #18
 5163 02d4 0400A0E1 		mov	r0, r4
 5164 02d8 FEFFFFEB 		bl	_ZN11flatbuffers17FlatBufferBuilder10AddElementImEEvtT_S2_.part.45
 5165 02dc 5EFFFFEA 		b	.L1007
 5166              	.L1060:
 5167 02e0 003000E3 		movw	r3, #:lower16:.LC24
 5168 02e4 002000E3 		movw	r2, #:lower16:.LANCHOR11
 5169 02e8 000000E3 		movw	r0, #:lower16:.LC19
 5170 02ec 003040E3 		movt	r3, #:upper16:.LC24
 5171 02f0 002040E3 		movt	r2, #:upper16:.LANCHOR11
 5172 02f4 000040E3 		movt	r0, #:upper16:.LC19
 5173 02f8 481500E3 		movw	r1, #1352
 5174 02fc FEFFFFEB 		bl	__assert_func
 5175              	.L1061:
 5176 0300 FEFFFFEB 		bl	_ZN11flatbuffers17FlatBufferBuilder9NotNestedEv.isra.20.part.21
 5177              		.fnend
 5179              		.section	.text._ZN6tflite7testing12_GLOBAL__N_112ModelBuilder10BuildModelESt16initializer_listIlES
 5180              		.align	2
 5181              		.syntax unified
 5182              		.arm
 5183              		.fpu neon
 5185              	_ZN6tflite7testing12_GLOBAL__N_112ModelBuilder10BuildModelESt16initializer_listIlES4_j:
 5186              		.fnstart
 5187              	.LFB7060:
 5188              		@ args = 16, pretend = 8, frame = 80
 5189              		@ frame_needed = 0, uses_anonymous_args = 0
 5190              		.pad #8
 5191 0000 08D04DE2 		sub	sp, sp, #8
 5192 0004 5000C0F2 		vmov.i32	q8, #0  @ v4si
 5193 0008 F04F2DE9 		push	{r4, r5, r6, r7, r8, r9, r10, fp, lr}
 5194              		.save {r4, r5, r6, r7, r8, r9, r10, fp, lr}
 5195 000c 0050A0E1 		mov	r5, r0
 5196              		.pad #108
 5197 0010 6CD04DE2 		sub	sp, sp, #108
 5198 0014 00C0A0E3 		mov	ip, #0
 5199 0018 94308DE5 		str	r3, [sp, #148]
 5200 001c 143295E5 		ldr	r3, [r5, #532]
 5201 0020 18008DE5 		str	r0, [sp, #24]
 5202 0024 30008DE2 		add	r0, sp, #48
 5203 0028 060080E8 		stm	r0, {r1, r2}
 5204 002c 0C10A0E1 		mov	r1, ip
 5205 0030 24308DE5 		str	r3, [sp, #36]
 5206 0034 013083E2 		add	r3, r3, #1
 5207 0038 000095E5 		ldr	r0, [r5]
 5208 003c 34409DE5 		ldr	r4, [sp, #52]
 5209 0040 100BCDED 		vstr	d16, [sp, #64]
 5210 0044 121BCDED 		vstr	d17, [sp, #72]
 5211 0048 60C08DE5 		str	ip, [sp, #96]
 5212 004c 140BCDED 		vstr	d16, [sp, #80]
 5213 0050 161BCDED 		vstr	d17, [sp, #88]
 5214 0054 1C308DE5 		str	r3, [sp, #28]
 5215 0058 64C08DE5 		str	ip, [sp, #100]
 5216 005c FEFFFFEB 		bl	_ZN6tflite12CreateBufferERN11flatbuffers17FlatBufferBuilderENS0_6OffsetINS0_6VectorIhEEEE
 5217 0060 142295E5 		ldr	r2, [r5, #532]
 5218 0064 40008DE5 		str	r0, [sp, #64]
 5219 0068 000052E3 		cmp	r2, #0
 5220 006c 040000DA 		ble	.L1073
 5221 0070 18309DE5 		ldr	r3, [sp, #24]
 5222 0074 0221A0E1 		lsl	r2, r2, #2
 5223 0078 44008DE2 		add	r0, sp, #68
 5224 007c 7B1F83E2 		add	r1, r3, #492
 5225 0080 FEFFFFEB 		bl	memcpy
 5226              	.L1073:
 5227 0084 9C309DE5 		ldr	r3, [sp, #156]
 5228 0088 000053E3 		cmp	r3, #0
 5229 008c 8902000A 		beq	.L1299
 5230 0090 030054E1 		cmp	r4, r3
 5231 0094 C802003A 		bcc	.L1300
 5232 0098 18309DE5 		ldr	r3, [sp, #24]
 5233 009c 0370A0E1 		mov	r7, r3
 5234 00a0 18A293E5 		ldr	r10, [r3, #536]
 5235 00a4 FCB097E4 		ldr	fp, [r7], #252
 5236 00a8 0A10A0E1 		mov	r1, r10
 5237 00ac 0B00A0E1 		mov	r0, fp
 5238 00b0 FEFFFFEB 		bl	_ZN11flatbuffers17FlatBufferBuilder11StartVectorEjj.constprop.148
 5239 00b4 00005AE3 		cmp	r10, #0
 5240 00b8 A202000A 		beq	.L1301
 5241              	.L1133:
 5242 00bc 18209BE5 		ldr	r2, [fp, #24]
 5243 00c0 0A7187E0 		add	r7, r7, r10, lsl #2
 5244 00c4 0A60A0E1 		mov	r6, r10
 5245 00c8 0480A0E3 		mov	r8, #4
 5246 00cc 0050A0E3 		mov	r5, #0
 5247              	.L1082:
 5248 00d0 28309BE5 		ldr	r3, [fp, #40]
 5249 00d4 0B00A0E1 		mov	r0, fp
 5250 00d8 14409BE5 		ldr	r4, [fp, #20]
 5251 00dc 016046E2 		sub	r6, r6, #1
 5252 00e0 049037E5 		ldr	r9, [r7, #-4]!
 5253 00e4 030053E3 		cmp	r3, #3
 5254 00e8 10309BE5 		ldr	r3, [fp, #16]
 5255 00ec 044042E0 		sub	r4, r2, r4
 5256 00f0 28808B95 		strls	r8, [fp, #40]
 5257 00f4 034044E0 		sub	r4, r4, r3
 5258 00f8 034004E2 		and	r4, r4, #3
 5259 00fc 0410A0E1 		mov	r1, r4
 5260 0100 FEFFFFEB 		bl	_ZN11flatbuffers15vector_downward12ensure_spaceEj
 5261 0104 18309BE5 		ldr	r3, [fp, #24]
 5262 0108 000054E3 		cmp	r4, #0
 5263 010c 000043E0 		sub	r0, r3, r0
 5264 0110 18008BE5 		str	r0, [fp, #24]
 5265 0114 0700000A 		beq	.L1077
 5266 0118 010054E3 		cmp	r4, #1
 5267 011c 0050C0E5 		strb	r5, [r0]
 5268 0120 0400000A 		beq	.L1077
 5269 0124 18309BE5 		ldr	r3, [fp, #24]
 5270 0128 020054E3 		cmp	r4, #2
 5271 012c 0150C3E5 		strb	r5, [r3, #1]
 5272 0130 18309B15 		ldrne	r3, [fp, #24]
 5273 0134 0250C315 		strbne	r5, [r3, #2]
 5274              	.L1077:
 5275 0138 000059E3 		cmp	r9, #0
 5276 013c 8D02000A 		beq	.L1079
 5277 0140 18309BE5 		ldr	r3, [fp, #24]
 5278 0144 14209BE5 		ldr	r2, [fp, #20]
 5279 0148 10409BE5 		ldr	r4, [fp, #16]
 5280 014c 023043E0 		sub	r3, r3, r2
 5281 0150 034044E0 		sub	r4, r4, r3
 5282 0154 090054E1 		cmp	r4, r9
 5283 0158 8602003A 		bcc	.L1079
 5284 015c 28309BE5 		ldr	r3, [fp, #40]
 5285 0160 049069E2 		rsb	r9, r9, #4
 5286 0164 049089E0 		add	r9, r9, r4
 5287 0168 004064E2 		rsb	r4, r4, #0
 5288 016c 034004E2 		and	r4, r4, #3
 5289 0170 0B00A0E1 		mov	r0, fp
 5290 0174 030053E3 		cmp	r3, #3
 5291 0178 0410A0E1 		mov	r1, r4
 5292 017c 28808B95 		strls	r8, [fp, #40]
 5293 0180 FEFFFFEB 		bl	_ZN11flatbuffers15vector_downward12ensure_spaceEj
 5294 0184 18309BE5 		ldr	r3, [fp, #24]
 5295 0188 000054E3 		cmp	r4, #0
 5296 018c 000043E0 		sub	r0, r3, r0
 5297 0190 18008BE5 		str	r0, [fp, #24]
 5298 0194 0700000A 		beq	.L1081
 5299 0198 010054E3 		cmp	r4, #1
 5300 019c 0050C0E5 		strb	r5, [r0]
 5301 01a0 0400000A 		beq	.L1081
 5302 01a4 18309BE5 		ldr	r3, [fp, #24]
 5303 01a8 020054E3 		cmp	r4, #2
 5304 01ac 0150C3E5 		strb	r5, [r3, #1]
 5305 01b0 18309B15 		ldrne	r3, [fp, #24]
 5306 01b4 0250C315 		strbne	r5, [r3, #2]
 5307              	.L1081:
 5308 01b8 0410A0E3 		mov	r1, #4
 5309 01bc 0B00A0E1 		mov	r0, fp
 5310 01c0 FEFFFFEB 		bl	_ZN11flatbuffers15vector_downward12ensure_spaceEj
 5311 01c4 18209BE5 		ldr	r2, [fp, #24]
 5312 01c8 000056E3 		cmp	r6, #0
 5313 01cc 002042E0 		sub	r2, r2, r0
 5314 01d0 18208BE5 		str	r2, [fp, #24]
 5315 01d4 009082E5 		str	r9, [r2]
 5316 01d8 BCFFFF1A 		bne	.L1082
 5317              	.L1075:
 5318 01dc 0A10A0E1 		mov	r1, r10
 5319 01e0 0B00A0E1 		mov	r0, fp
 5320 01e4 FEFFFFEB 		bl	_ZN11flatbuffers17FlatBufferBuilder9EndVectorEj
 5321 01e8 18309DE5 		ldr	r3, [sp, #24]
 5322 01ec 20008DE5 		str	r0, [sp, #32]
 5323 01f0 9C109DE5 		ldr	r1, [sp, #156]
 5324 01f4 004093E5 		ldr	r4, [r3]
 5325 01f8 30509DE5 		ldr	r5, [sp, #48]
 5326 01fc 0400A0E1 		mov	r0, r4
 5327 0200 FEFFFFEB 		bl	_ZN11flatbuffers17FlatBufferBuilder11StartVectorEjj.constprop.148
 5328 0204 9C309DE5 		ldr	r3, [sp, #156]
 5329 0208 000053E3 		cmp	r3, #0
 5330 020c 4802000A 		beq	.L1302
 5331              	.L1083:
 5332 0210 0361B0E1 		lsls	r6, r3, #2
 5333 0214 3C02001A 		bne	.L1303
 5334              	.L1085:
 5335 0218 9C109DE5 		ldr	r1, [sp, #156]
 5336 021c 0400A0E1 		mov	r0, r4
 5337 0220 FEFFFFEB 		bl	_ZN11flatbuffers17FlatBufferBuilder9EndVectorEj
 5338 0224 2C008DE5 		str	r0, [sp, #44]
 5339              	.L1084:
 5340 0228 18309DE5 		ldr	r3, [sp, #24]
 5341 022c 98409DE5 		ldr	r4, [sp, #152]
 5342 0230 94609DE5 		ldr	r6, [sp, #148]
 5343 0234 005093E5 		ldr	r5, [r3]
 5344 0238 0410A0E1 		mov	r1, r4
 5345 023c 0500A0E1 		mov	r0, r5
 5346 0240 FEFFFFEB 		bl	_ZN11flatbuffers17FlatBufferBuilder11StartVectorEjj.constprop.148
 5347 0244 000054E3 		cmp	r4, #0
 5348 0248 0100000A 		beq	.L1088
 5349 024c 0471B0E1 		lsls	r7, r4, #2
 5350 0250 2302001A 		bne	.L1304
 5351              	.L1088:
 5352 0254 0410A0E1 		mov	r1, r4
 5353 0258 0500A0E1 		mov	r0, r5
 5354 025c FEFFFFEB 		bl	_ZN11flatbuffers17FlatBufferBuilder9EndVectorEj
 5355 0260 18309DE5 		ldr	r3, [sp, #24]
 5356 0264 28008DE5 		str	r0, [sp, #40]
 5357 0268 0370A0E1 		mov	r7, r3
 5358 026c F89093E5 		ldr	r9, [r3, #248]
 5359 0270 30A097E4 		ldr	r10, [r7], #48
 5360 0274 0910A0E1 		mov	r1, r9
 5361 0278 0A00A0E1 		mov	r0, r10
 5362 027c FEFFFFEB 		bl	_ZN11flatbuffers17FlatBufferBuilder11StartVectorEjj.constprop.148
 5363 0280 000059E3 		cmp	r9, #0
 5364 0284 4700000A 		beq	.L1096
 5365 0288 18309AE5 		ldr	r3, [r10, #24]
 5366 028c 097187E0 		add	r7, r7, r9, lsl #2
 5367 0290 0960A0E1 		mov	r6, r9
 5368 0294 0480A0E3 		mov	r8, #4
 5369 0298 0050A0E3 		mov	r5, #0
 5370              	.L1097:
 5371 029c 28209AE5 		ldr	r2, [r10, #40]
 5372 02a0 0A00A0E1 		mov	r0, r10
 5373 02a4 14409AE5 		ldr	r4, [r10, #20]
 5374 02a8 016046E2 		sub	r6, r6, #1
 5375 02ac 04B037E5 		ldr	fp, [r7, #-4]!
 5376 02b0 030052E3 		cmp	r2, #3
 5377 02b4 10209AE5 		ldr	r2, [r10, #16]
 5378 02b8 044043E0 		sub	r4, r3, r4
 5379 02bc 28808A95 		strls	r8, [r10, #40]
 5380 02c0 024044E0 		sub	r4, r4, r2
 5381 02c4 034004E2 		and	r4, r4, #3
 5382 02c8 0410A0E1 		mov	r1, r4
 5383 02cc FEFFFFEB 		bl	_ZN11flatbuffers15vector_downward12ensure_spaceEj
 5384 02d0 18309AE5 		ldr	r3, [r10, #24]
 5385 02d4 000054E3 		cmp	r4, #0
 5386 02d8 000043E0 		sub	r0, r3, r0
 5387 02dc 18008AE5 		str	r0, [r10, #24]
 5388 02e0 0700000A 		beq	.L1093
 5389 02e4 010054E3 		cmp	r4, #1
 5390 02e8 0050C0E5 		strb	r5, [r0]
 5391 02ec 0400000A 		beq	.L1093
 5392 02f0 18309AE5 		ldr	r3, [r10, #24]
 5393 02f4 020054E3 		cmp	r4, #2
 5394 02f8 0150C3E5 		strb	r5, [r3, #1]
 5395 02fc 18309A15 		ldrne	r3, [r10, #24]
 5396 0300 0250C315 		strbne	r5, [r3, #2]
 5397              	.L1093:
 5398 0304 00005BE3 		cmp	fp, #0
 5399 0308 1A02000A 		beq	.L1079
 5400 030c 18309AE5 		ldr	r3, [r10, #24]
 5401 0310 14209AE5 		ldr	r2, [r10, #20]
 5402 0314 10409AE5 		ldr	r4, [r10, #16]
 5403 0318 023043E0 		sub	r3, r3, r2
 5404 031c 034044E0 		sub	r4, r4, r3
 5405 0320 0B0054E1 		cmp	r4, fp
 5406 0324 1302003A 		bcc	.L1079
 5407 0328 28309AE5 		ldr	r3, [r10, #40]
 5408 032c 04B06BE2 		rsb	fp, fp, #4
 5409 0330 04B08BE0 		add	fp, fp, r4
 5410 0334 004064E2 		rsb	r4, r4, #0
 5411 0338 034004E2 		and	r4, r4, #3
 5412 033c 0A00A0E1 		mov	r0, r10
 5413 0340 030053E3 		cmp	r3, #3
 5414 0344 0410A0E1 		mov	r1, r4
 5415 0348 28808A95 		strls	r8, [r10, #40]
 5416 034c FEFFFFEB 		bl	_ZN11flatbuffers15vector_downward12ensure_spaceEj
 5417 0350 18309AE5 		ldr	r3, [r10, #24]
 5418 0354 000054E3 		cmp	r4, #0
 5419 0358 000043E0 		sub	r0, r3, r0
 5420 035c 18008AE5 		str	r0, [r10, #24]
 5421 0360 0700000A 		beq	.L1095
 5422 0364 010054E3 		cmp	r4, #1
 5423 0368 0050C0E5 		strb	r5, [r0]
 5424 036c 0400000A 		beq	.L1095
 5425 0370 18309AE5 		ldr	r3, [r10, #24]
 5426 0374 020054E3 		cmp	r4, #2
 5427 0378 0150C3E5 		strb	r5, [r3, #1]
 5428 037c 18309A15 		ldrne	r3, [r10, #24]
 5429 0380 0250C315 		strbne	r5, [r3, #2]
 5430              	.L1095:
 5431 0384 0410A0E3 		mov	r1, #4
 5432 0388 0A00A0E1 		mov	r0, r10
 5433 038c FEFFFFEB 		bl	_ZN11flatbuffers15vector_downward12ensure_spaceEj
 5434 0390 18309AE5 		ldr	r3, [r10, #24]
 5435 0394 000056E3 		cmp	r6, #0
 5436 0398 003043E0 		sub	r3, r3, r0
 5437 039c 18308AE5 		str	r3, [r10, #24]
 5438 03a0 00B083E5 		str	fp, [r3]
 5439 03a4 BCFFFF1A 		bne	.L1097
 5440              	.L1096:
 5441 03a8 0910A0E1 		mov	r1, r9
 5442 03ac 0A00A0E1 		mov	r0, r10
 5443 03b0 FEFFFFEB 		bl	_ZN11flatbuffers17FlatBufferBuilder9EndVectorEj
 5444 03b4 18609DE5 		ldr	r6, [sp, #24]
 5445 03b8 001000E3 		movw	r1, #:lower16:.LC32
 5446 03bc 0050A0E1 		mov	r5, r0
 5447 03c0 001040E3 		movt	r1, #:upper16:.LC32
 5448 03c4 0D20A0E3 		mov	r2, #13
 5449 03c8 004096E5 		ldr	r4, [r6]
 5450 03cc 0400A0E1 		mov	r0, r4
 5451 03d0 FEFFFFEB 		bl	_ZN11flatbuffers17FlatBufferBuilder12CreateStringEPKcj
 5452 03d4 28309DE5 		ldr	r3, [sp, #40]
 5453 03d8 04008DE5 		str	r0, [sp, #4]
 5454 03dc 0400A0E1 		mov	r0, r4
 5455 03e0 00508DE5 		str	r5, [sp]
 5456 03e4 2C209DE5 		ldr	r2, [sp, #44]
 5457 03e8 20109DE5 		ldr	r1, [sp, #32]
 5458 03ec FEFFFFEB 		bl	_ZN6tflite14CreateSubGraphERN11flatbuffers17FlatBufferBuilderENS0_6OffsetINS0_6VectorINS3_INS_6
 5459 03f0 143296E5 		ldr	r3, [r6, #532]
 5460 03f4 3C008DE5 		str	r0, [sp, #60]
 5461 03f8 000053E3 		cmp	r3, #0
 5462 03fc 250100DA 		ble	.L1305
 5463 0400 18309DE5 		ldr	r3, [sp, #24]
 5464 0404 0370A0E1 		mov	r7, r3
 5465 0408 2C9093E5 		ldr	r9, [r3, #44]
 5466 040c 04A097E4 		ldr	r10, [r7], #4
 5467 0410 0910A0E1 		mov	r1, r9
 5468 0414 0A00A0E1 		mov	r0, r10
 5469 0418 FEFFFFEB 		bl	_ZN11flatbuffers17FlatBufferBuilder11StartVectorEjj.constprop.148
 5470 041c 000059E3 		cmp	r9, #0
 5471 0420 4700000A 		beq	.L1105
 5472 0424 18309AE5 		ldr	r3, [r10, #24]
 5473 0428 097187E0 		add	r7, r7, r9, lsl #2
 5474 042c 0960A0E1 		mov	r6, r9
 5475 0430 0480A0E3 		mov	r8, #4
 5476 0434 0050A0E3 		mov	r5, #0
 5477              	.L1106:
 5478 0438 28209AE5 		ldr	r2, [r10, #40]
 5479 043c 0A00A0E1 		mov	r0, r10
 5480 0440 14409AE5 		ldr	r4, [r10, #20]
 5481 0444 016046E2 		sub	r6, r6, #1
 5482 0448 04B037E5 		ldr	fp, [r7, #-4]!
 5483 044c 030052E3 		cmp	r2, #3
 5484 0450 10209AE5 		ldr	r2, [r10, #16]
 5485 0454 044043E0 		sub	r4, r3, r4
 5486 0458 28808A95 		strls	r8, [r10, #40]
 5487 045c 024044E0 		sub	r4, r4, r2
 5488 0460 034004E2 		and	r4, r4, #3
 5489 0464 0410A0E1 		mov	r1, r4
 5490 0468 FEFFFFEB 		bl	_ZN11flatbuffers15vector_downward12ensure_spaceEj
 5491 046c 18309AE5 		ldr	r3, [r10, #24]
 5492 0470 000054E3 		cmp	r4, #0
 5493 0474 000043E0 		sub	r0, r3, r0
 5494 0478 18008AE5 		str	r0, [r10, #24]
 5495 047c 0700000A 		beq	.L1102
 5496 0480 010054E3 		cmp	r4, #1
 5497 0484 0050C0E5 		strb	r5, [r0]
 5498 0488 0400000A 		beq	.L1102
 5499 048c 18309AE5 		ldr	r3, [r10, #24]
 5500 0490 020054E3 		cmp	r4, #2
 5501 0494 0150C3E5 		strb	r5, [r3, #1]
 5502 0498 18309A15 		ldrne	r3, [r10, #24]
 5503 049c 0250C315 		strbne	r5, [r3, #2]
 5504              	.L1102:
 5505 04a0 00005BE3 		cmp	fp, #0
 5506 04a4 B301000A 		beq	.L1079
 5507 04a8 18209AE5 		ldr	r2, [r10, #24]
 5508 04ac 14109AE5 		ldr	r1, [r10, #20]
 5509 04b0 10309AE5 		ldr	r3, [r10, #16]
 5510 04b4 012042E0 		sub	r2, r2, r1
 5511 04b8 023043E0 		sub	r3, r3, r2
 5512 04bc 0B0053E1 		cmp	r3, fp
 5513 04c0 AC01003A 		bcc	.L1079
 5514 04c4 28209AE5 		ldr	r2, [r10, #40]
 5515 04c8 04406BE2 		rsb	r4, fp, #4
 5516 04cc 00B063E2 		rsb	fp, r3, #0
 5517 04d0 0A00A0E1 		mov	r0, r10
 5518 04d4 03B00BE2 		and	fp, fp, #3
 5519 04d8 034084E0 		add	r4, r4, r3
 5520 04dc 030052E3 		cmp	r2, #3
 5521 04e0 0B10A0E1 		mov	r1, fp
 5522 04e4 28808A95 		strls	r8, [r10, #40]
 5523 04e8 FEFFFFEB 		bl	_ZN11flatbuffers15vector_downward12ensure_spaceEj
 5524 04ec 18309AE5 		ldr	r3, [r10, #24]
 5525 04f0 00005BE3 		cmp	fp, #0
 5526 04f4 000043E0 		sub	r0, r3, r0
 5527 04f8 18008AE5 		str	r0, [r10, #24]
 5528 04fc 0700000A 		beq	.L1104
 5529 0500 01005BE3 		cmp	fp, #1
 5530 0504 0050C0E5 		strb	r5, [r0]
 5531 0508 0400000A 		beq	.L1104
 5532 050c 18309AE5 		ldr	r3, [r10, #24]
 5533 0510 02005BE3 		cmp	fp, #2
 5534 0514 0150C3E5 		strb	r5, [r3, #1]
 5535 0518 18309A15 		ldrne	r3, [r10, #24]
 5536 051c 0250C315 		strbne	r5, [r3, #2]
 5537              	.L1104:
 5538 0520 0410A0E3 		mov	r1, #4
 5539 0524 0A00A0E1 		mov	r0, r10
 5540 0528 FEFFFFEB 		bl	_ZN11flatbuffers15vector_downward12ensure_spaceEj
 5541 052c 18309AE5 		ldr	r3, [r10, #24]
 5542 0530 000056E3 		cmp	r6, #0
 5543 0534 003043E0 		sub	r3, r3, r0
 5544 0538 18308AE5 		str	r3, [r10, #24]
 5545 053c 004083E5 		str	r4, [r3]
 5546 0540 BCFFFF1A 		bne	.L1106
 5547              	.L1105:
 5548 0544 0910A0E1 		mov	r1, r9
 5549 0548 0A00A0E1 		mov	r0, r10
 5550 054c FEFFFFEB 		bl	_ZN11flatbuffers17FlatBufferBuilder9EndVectorEj
 5551 0550 18409DE5 		ldr	r4, [sp, #24]
 5552 0554 3C108DE2 		add	r1, sp, #60
 5553 0558 2C008DE5 		str	r0, [sp, #44]
 5554 055c 000094E5 		ldr	r0, [r4]
 5555 0560 FEFFFFEB 		bl	_ZN11flatbuffers17FlatBufferBuilder12CreateVectorIN6tflite8SubGraphEEENS_6OffsetINS_6VectorINS4
 5556 0564 001000E3 		movw	r1, #:lower16:.LC33
 5557 0568 28008DE5 		str	r0, [sp, #40]
 5558 056c 0B20A0E3 		mov	r2, #11
 5559 0570 000094E5 		ldr	r0, [r4]
 5560 0574 001040E3 		movt	r1, #:upper16:.LC33
 5561 0578 FEFFFFEB 		bl	_ZN11flatbuffers17FlatBufferBuilder12CreateStringEPKcj
 5562 057c 009094E5 		ldr	r9, [r4]
 5563 0580 1C409DE5 		ldr	r4, [sp, #28]
 5564 0584 20008DE5 		str	r0, [sp, #32]
 5565 0588 0900A0E1 		mov	r0, r9
 5566 058c 0410A0E1 		mov	r1, r4
 5567 0590 FEFFFFEB 		bl	_ZN11flatbuffers17FlatBufferBuilder11StartVectorEjj.constprop.148
 5568 0594 000054E3 		cmp	r4, #0
 5569 0598 4900000A 		beq	.L1099
 5570 059c 24109DE5 		ldr	r1, [sp, #36]
 5571 05a0 40208DE2 		add	r2, sp, #64
 5572 05a4 183099E5 		ldr	r3, [r9, #24]
 5573 05a8 0480A0E3 		mov	r8, #4
 5574 05ac 1C609DE5 		ldr	r6, [sp, #28]
 5575 05b0 0050A0E3 		mov	r5, #0
 5576 05b4 017182E0 		add	r7, r2, r1, lsl #2
 5577              	.L1113:
 5578 05b8 282099E5 		ldr	r2, [r9, #40]
 5579 05bc 0900A0E1 		mov	r0, r9
 5580 05c0 144099E5 		ldr	r4, [r9, #20]
 5581 05c4 016046E2 		sub	r6, r6, #1
 5582 05c8 04B017E4 		ldr	fp, [r7], #-4
 5583 05cc 030052E3 		cmp	r2, #3
 5584 05d0 102099E5 		ldr	r2, [r9, #16]
 5585 05d4 044043E0 		sub	r4, r3, r4
 5586 05d8 28808995 		strls	r8, [r9, #40]
 5587 05dc 024044E0 		sub	r4, r4, r2
 5588 05e0 034004E2 		and	r4, r4, #3
 5589 05e4 0410A0E1 		mov	r1, r4
 5590 05e8 FEFFFFEB 		bl	_ZN11flatbuffers15vector_downward12ensure_spaceEj
 5591 05ec 183099E5 		ldr	r3, [r9, #24]
 5592 05f0 000054E3 		cmp	r4, #0
 5593 05f4 000043E0 		sub	r0, r3, r0
 5594 05f8 180089E5 		str	r0, [r9, #24]
 5595 05fc 0700000A 		beq	.L1110
 5596 0600 010054E3 		cmp	r4, #1
 5597 0604 0050C0E5 		strb	r5, [r0]
 5598 0608 0400000A 		beq	.L1110
 5599 060c 183099E5 		ldr	r3, [r9, #24]
 5600 0610 020054E3 		cmp	r4, #2
 5601 0614 0150C3E5 		strb	r5, [r3, #1]
 5602 0618 18309915 		ldrne	r3, [r9, #24]
 5603 061c 0250C315 		strbne	r5, [r3, #2]
 5604              	.L1110:
 5605 0620 00005BE3 		cmp	fp, #0
 5606 0624 5301000A 		beq	.L1079
 5607 0628 183099E5 		ldr	r3, [r9, #24]
 5608 062c 142099E5 		ldr	r2, [r9, #20]
 5609 0630 10A099E5 		ldr	r10, [r9, #16]
 5610 0634 023043E0 		sub	r3, r3, r2
 5611 0638 03A04AE0 		sub	r10, r10, r3
 5612 063c 0B005AE1 		cmp	r10, fp
 5613 0640 4C01003A 		bcc	.L1079
 5614 0644 283099E5 		ldr	r3, [r9, #40]
 5615 0648 04408AE2 		add	r4, r10, #4
 5616 064c 00A06AE2 		rsb	r10, r10, #0
 5617 0650 0900A0E1 		mov	r0, r9
 5618 0654 03A00AE2 		and	r10, r10, #3
 5619 0658 0B4044E0 		sub	r4, r4, fp
 5620 065c 030053E3 		cmp	r3, #3
 5621 0660 0A10A0E1 		mov	r1, r10
 5622 0664 28808995 		strls	r8, [r9, #40]
 5623 0668 FEFFFFEB 		bl	_ZN11flatbuffers15vector_downward12ensure_spaceEj
 5624 066c 183099E5 		ldr	r3, [r9, #24]
 5625 0670 00005AE3 		cmp	r10, #0
 5626 0674 000043E0 		sub	r0, r3, r0
 5627 0678 180089E5 		str	r0, [r9, #24]
 5628 067c 0700000A 		beq	.L1112
 5629 0680 01005AE3 		cmp	r10, #1
 5630 0684 0050C0E5 		strb	r5, [r0]
 5631 0688 0400000A 		beq	.L1112
 5632 068c 183099E5 		ldr	r3, [r9, #24]
 5633 0690 02005AE3 		cmp	r10, #2
 5634 0694 0150C3E5 		strb	r5, [r3, #1]
 5635 0698 18309915 		ldrne	r3, [r9, #24]
 5636 069c 0250C315 		strbne	r5, [r3, #2]
 5637              	.L1112:
 5638 06a0 0410A0E3 		mov	r1, #4
 5639 06a4 0900A0E1 		mov	r0, r9
 5640 06a8 FEFFFFEB 		bl	_ZN11flatbuffers15vector_downward12ensure_spaceEj
 5641 06ac 183099E5 		ldr	r3, [r9, #24]
 5642 06b0 000056E3 		cmp	r6, #0
 5643 06b4 003043E0 		sub	r3, r3, r0
 5644 06b8 183089E5 		str	r3, [r9, #24]
 5645 06bc 004083E5 		str	r4, [r3]
 5646 06c0 BCFFFF1A 		bne	.L1113
 5647              	.L1099:
 5648 06c4 18509DE5 		ldr	r5, [sp, #24]
 5649 06c8 0900A0E1 		mov	r0, r9
 5650 06cc 1C109DE5 		ldr	r1, [sp, #28]
 5651 06d0 FEFFFFEB 		bl	_ZN11flatbuffers17FlatBufferBuilder9EndVectorEj
 5652 06d4 0580A0E1 		mov	r8, r5
 5653 06d8 14A295E5 		ldr	r10, [r5, #532]
 5654 06dc C44198E4 		ldr	r4, [r8], #452
 5655 06e0 1C008DE5 		str	r0, [sp, #28]
 5656 06e4 0A10A0E1 		mov	r1, r10
 5657 06e8 0400A0E1 		mov	r0, r4
 5658 06ec FEFFFFEB 		bl	_ZN11flatbuffers17FlatBufferBuilder11StartVectorEjj.constprop.148
 5659 06f0 00005AE3 		cmp	r10, #0
 5660 06f4 4700000A 		beq	.L1107
 5661 06f8 183094E5 		ldr	r3, [r4, #24]
 5662 06fc 0A8188E0 		add	r8, r8, r10, lsl #2
 5663 0700 0A70A0E1 		mov	r7, r10
 5664 0704 0490A0E3 		mov	r9, #4
 5665 0708 0060A0E3 		mov	r6, #0
 5666              	.L1119:
 5667 070c 282094E5 		ldr	r2, [r4, #40]
 5668 0710 0400A0E1 		mov	r0, r4
 5669 0714 145094E5 		ldr	r5, [r4, #20]
 5670 0718 017047E2 		sub	r7, r7, #1
 5671 071c 04B038E5 		ldr	fp, [r8, #-4]!
 5672 0720 030052E3 		cmp	r2, #3
 5673 0724 102094E5 		ldr	r2, [r4, #16]
 5674 0728 055043E0 		sub	r5, r3, r5
 5675 072c 28908495 		strls	r9, [r4, #40]
 5676 0730 025045E0 		sub	r5, r5, r2
 5677 0734 035005E2 		and	r5, r5, #3
 5678 0738 0510A0E1 		mov	r1, r5
 5679 073c FEFFFFEB 		bl	_ZN11flatbuffers15vector_downward12ensure_spaceEj
 5680 0740 183094E5 		ldr	r3, [r4, #24]
 5681 0744 000055E3 		cmp	r5, #0
 5682 0748 000043E0 		sub	r0, r3, r0
 5683 074c 180084E5 		str	r0, [r4, #24]
 5684 0750 0700000A 		beq	.L1116
 5685 0754 010055E3 		cmp	r5, #1
 5686 0758 0060C0E5 		strb	r6, [r0]
 5687 075c 0400000A 		beq	.L1116
 5688 0760 183094E5 		ldr	r3, [r4, #24]
 5689 0764 020055E3 		cmp	r5, #2
 5690 0768 0160C3E5 		strb	r6, [r3, #1]
 5691 076c 18309415 		ldrne	r3, [r4, #24]
 5692 0770 0260C315 		strbne	r6, [r3, #2]
 5693              	.L1116:
 5694 0774 00005BE3 		cmp	fp, #0
 5695 0778 FE00000A 		beq	.L1079
 5696 077c 182094E5 		ldr	r2, [r4, #24]
 5697 0780 141094E5 		ldr	r1, [r4, #20]
 5698 0784 103094E5 		ldr	r3, [r4, #16]
 5699 0788 012042E0 		sub	r2, r2, r1
 5700 078c 023043E0 		sub	r3, r3, r2
 5701 0790 0B0053E1 		cmp	r3, fp
 5702 0794 F700003A 		bcc	.L1079
 5703 0798 282094E5 		ldr	r2, [r4, #40]
 5704 079c 04506BE2 		rsb	r5, fp, #4
 5705 07a0 00B063E2 		rsb	fp, r3, #0
 5706 07a4 0400A0E1 		mov	r0, r4
 5707 07a8 03B00BE2 		and	fp, fp, #3
 5708 07ac 035085E0 		add	r5, r5, r3
 5709 07b0 030052E3 		cmp	r2, #3
 5710 07b4 0B10A0E1 		mov	r1, fp
 5711 07b8 28908495 		strls	r9, [r4, #40]
 5712 07bc FEFFFFEB 		bl	_ZN11flatbuffers15vector_downward12ensure_spaceEj
 5713 07c0 183094E5 		ldr	r3, [r4, #24]
 5714 07c4 00005BE3 		cmp	fp, #0
 5715 07c8 000043E0 		sub	r0, r3, r0
 5716 07cc 180084E5 		str	r0, [r4, #24]
 5717 07d0 0700000A 		beq	.L1118
 5718 07d4 01005BE3 		cmp	fp, #1
 5719 07d8 0060C0E5 		strb	r6, [r0]
 5720 07dc 0400000A 		beq	.L1118
 5721 07e0 183094E5 		ldr	r3, [r4, #24]
 5722 07e4 02005BE3 		cmp	fp, #2
 5723 07e8 0160C3E5 		strb	r6, [r3, #1]
 5724 07ec 18309415 		ldrne	r3, [r4, #24]
 5725 07f0 0260C315 		strbne	r6, [r3, #2]
 5726              	.L1118:
 5727 07f4 0410A0E3 		mov	r1, #4
 5728 07f8 0400A0E1 		mov	r0, r4
 5729 07fc FEFFFFEB 		bl	_ZN11flatbuffers15vector_downward12ensure_spaceEj
 5730 0800 183094E5 		ldr	r3, [r4, #24]
 5731 0804 000057E3 		cmp	r7, #0
 5732 0808 003043E0 		sub	r3, r3, r0
 5733 080c 183084E5 		str	r3, [r4, #24]
 5734 0810 005083E5 		str	r5, [r3]
 5735 0814 BCFFFF1A 		bne	.L1119
 5736              	.L1107:
 5737 0818 0A10A0E1 		mov	r1, r10
 5738 081c 0400A0E1 		mov	r0, r4
 5739 0820 FEFFFFEB 		bl	_ZN11flatbuffers17FlatBufferBuilder9EndVectorEj
 5740 0824 1C209DE5 		ldr	r2, [sp, #28]
 5741 0828 0010A0E3 		mov	r1, #0
 5742 082c 0C008DE5 		str	r0, [sp, #12]
 5743 0830 20009DE5 		ldr	r0, [sp, #32]
 5744 0834 08108DE5 		str	r1, [sp, #8]
 5745 0838 04208DE5 		str	r2, [sp, #4]
 5746 083c 00008DE5 		str	r0, [sp]
 5747 0840 0400A0E1 		mov	r0, r4
 5748 0844 10108DE5 		str	r1, [sp, #16]
 5749 0848 28309DE5 		ldr	r3, [sp, #40]
 5750 084c 2C209DE5 		ldr	r2, [sp, #44]
 5751 0850 FEFFFFEB 		bl	_ZN6tflite11CreateModelERN11flatbuffers17FlatBufferBuilderEmNS0_6OffsetINS0_6VectorINS3_INS_12O
 5752 0854 0010A0E1 		mov	r1, r0
 5753              	.L1114:
 5754 0858 18409DE5 		ldr	r4, [sp, #24]
 5755 085c 000094E5 		ldr	r0, [r4]
 5756 0860 FEFFFFEB 		bl	_ZN11flatbuffers17FlatBufferBuilder6FinishEmPKcb.constprop.146
 5757 0864 003094E5 		ldr	r3, [r4]
 5758 0868 2720D3E5 		ldrb	r2, [r3, #39]	@ zero_extendqisi2
 5759 086c 000052E3 		cmp	r2, #0
 5760 0870 C900000A 		beq	.L1306
 5761 0874 183093E5 		ldr	r3, [r3, #24]
 5762 0878 000053E3 		cmp	r3, #0
 5763 087c C500000A 		beq	.L1307
 5764 0880 000093E5 		ldr	r0, [r3]
 5765 0884 000083E0 		add	r0, r3, r0
 5766 0888 6CD08DE2 		add	sp, sp, #108
 5767              		@ sp needed
 5768 088c F04FBDE8 		pop	{r4, r5, r6, r7, r8, r9, r10, fp, lr}
 5769 0890 08D08DE2 		add	sp, sp, #8
 5770 0894 1EFF2FE1 		bx	lr
 5771              	.L1305:
 5772 0898 18309DE5 		ldr	r3, [sp, #24]
 5773 089c 0360A0E1 		mov	r6, r3
 5774 08a0 2C9093E5 		ldr	r9, [r3, #44]
 5775 08a4 04B096E4 		ldr	fp, [r6], #4
 5776 08a8 0910A0E1 		mov	r1, r9
 5777 08ac 0B00A0E1 		mov	r0, fp
 5778 08b0 FEFFFFEB 		bl	_ZN11flatbuffers17FlatBufferBuilder11StartVectorEjj.constprop.148
 5779 08b4 000059E3 		cmp	r9, #0
 5780 08b8 2A00000A 		beq	.L1125
 5781 08bc 096186E0 		add	r6, r6, r9, lsl #2
 5782 08c0 0940A0E1 		mov	r4, r9
 5783 08c4 0480A0E3 		mov	r8, #4
 5784 08c8 0050A0E3 		mov	r5, #0
 5785              	.L1126:
 5786 08cc 041036E5 		ldr	r1, [r6, #-4]!
 5787 08d0 0B00A0E1 		mov	r0, fp
 5788 08d4 FEFFFFEB 		bl	_ZN11flatbuffers17FlatBufferBuilder7ReferToEm
 5789 08d8 28309BE5 		ldr	r3, [fp, #40]
 5790 08dc 00A0A0E1 		mov	r10, r0
 5791 08e0 18709BE5 		ldr	r7, [fp, #24]
 5792 08e4 0B00A0E1 		mov	r0, fp
 5793 08e8 14209BE5 		ldr	r2, [fp, #20]
 5794 08ec 014044E2 		sub	r4, r4, #1
 5795 08f0 030053E3 		cmp	r3, #3
 5796 08f4 10309BE5 		ldr	r3, [fp, #16]
 5797 08f8 28808B95 		strls	r8, [fp, #40]
 5798 08fc 027047E0 		sub	r7, r7, r2
 5799 0900 037047E0 		sub	r7, r7, r3
 5800 0904 037007E2 		and	r7, r7, #3
 5801 0908 0710A0E1 		mov	r1, r7
 5802 090c FEFFFFEB 		bl	_ZN11flatbuffers15vector_downward12ensure_spaceEj
 5803 0910 18309BE5 		ldr	r3, [fp, #24]
 5804 0914 000057E3 		cmp	r7, #0
 5805 0918 000043E0 		sub	r0, r3, r0
 5806 091c 18008BE5 		str	r0, [fp, #24]
 5807 0920 0700000A 		beq	.L1124
 5808 0924 010057E3 		cmp	r7, #1
 5809 0928 0050C0E5 		strb	r5, [r0]
 5810 092c 0400000A 		beq	.L1124
 5811 0930 18309BE5 		ldr	r3, [fp, #24]
 5812 0934 020057E3 		cmp	r7, #2
 5813 0938 0150C3E5 		strb	r5, [r3, #1]
 5814 093c 18309B15 		ldrne	r3, [fp, #24]
 5815 0940 0250C315 		strbne	r5, [r3, #2]
 5816              	.L1124:
 5817 0944 0410A0E3 		mov	r1, #4
 5818 0948 0B00A0E1 		mov	r0, fp
 5819 094c FEFFFFEB 		bl	_ZN11flatbuffers15vector_downward12ensure_spaceEj
 5820 0950 18309BE5 		ldr	r3, [fp, #24]
 5821 0954 000054E3 		cmp	r4, #0
 5822 0958 000043E0 		sub	r0, r3, r0
 5823 095c 18008BE5 		str	r0, [fp, #24]
 5824 0960 00A080E5 		str	r10, [r0]
 5825 0964 D8FFFF1A 		bne	.L1126
 5826              	.L1125:
 5827 0968 0910A0E1 		mov	r1, r9
 5828 096c 0B00A0E1 		mov	r0, fp
 5829 0970 FEFFFFEB 		bl	_ZN11flatbuffers17FlatBufferBuilder9EndVectorEj
 5830 0974 18409DE5 		ldr	r4, [sp, #24]
 5831 0978 3C108DE2 		add	r1, sp, #60
 5832 097c 00B0A0E1 		mov	fp, r0
 5833 0980 000094E5 		ldr	r0, [r4]
 5834 0984 FEFFFFEB 		bl	_ZN11flatbuffers17FlatBufferBuilder12CreateVectorIN6tflite8SubGraphEEENS_6OffsetINS_6VectorINS4
 5835 0988 001000E3 		movw	r1, #:lower16:.LC33
 5836 098c 28008DE5 		str	r0, [sp, #40]
 5837 0990 0B20A0E3 		mov	r2, #11
 5838 0994 000094E5 		ldr	r0, [r4]
 5839 0998 001040E3 		movt	r1, #:upper16:.LC33
 5840 099c FEFFFFEB 		bl	_ZN11flatbuffers17FlatBufferBuilder12CreateStringEPKcj
 5841 09a0 1C509DE5 		ldr	r5, [sp, #28]
 5842 09a4 004094E5 		ldr	r4, [r4]
 5843 09a8 20008DE5 		str	r0, [sp, #32]
 5844 09ac 0510A0E1 		mov	r1, r5
 5845 09b0 0400A0E1 		mov	r0, r4
 5846 09b4 FEFFFFEB 		bl	_ZN11flatbuffers17FlatBufferBuilder11StartVectorEjj.constprop.148
 5847 09b8 000055E3 		cmp	r5, #0
 5848 09bc 2C00000A 		beq	.L1121
 5849 09c0 24209DE5 		ldr	r2, [sp, #36]
 5850 09c4 40308DE2 		add	r3, sp, #64
 5851 09c8 1C509DE5 		ldr	r5, [sp, #28]
 5852 09cc 0490A0E3 		mov	r9, #4
 5853 09d0 0060A0E3 		mov	r6, #0
 5854 09d4 027183E0 		add	r7, r3, r2, lsl #2
 5855              	.L1129:
 5856 09d8 041017E4 		ldr	r1, [r7], #-4
 5857 09dc 0400A0E1 		mov	r0, r4
 5858 09e0 FEFFFFEB 		bl	_ZN11flatbuffers17FlatBufferBuilder7ReferToEm
 5859 09e4 283094E5 		ldr	r3, [r4, #40]
 5860 09e8 00A0A0E1 		mov	r10, r0
 5861 09ec 188094E5 		ldr	r8, [r4, #24]
 5862 09f0 0400A0E1 		mov	r0, r4
 5863 09f4 142094E5 		ldr	r2, [r4, #20]
 5864 09f8 015045E2 		sub	r5, r5, #1
 5865 09fc 030053E3 		cmp	r3, #3
 5866 0a00 103094E5 		ldr	r3, [r4, #16]
 5867 0a04 28908495 		strls	r9, [r4, #40]
 5868 0a08 028048E0 		sub	r8, r8, r2
 5869 0a0c 038048E0 		sub	r8, r8, r3
 5870 0a10 038008E2 		and	r8, r8, #3
 5871 0a14 0810A0E1 		mov	r1, r8
 5872 0a18 FEFFFFEB 		bl	_ZN11flatbuffers15vector_downward12ensure_spaceEj
 5873 0a1c 183094E5 		ldr	r3, [r4, #24]
 5874 0a20 000058E3 		cmp	r8, #0
 5875 0a24 000043E0 		sub	r0, r3, r0
 5876 0a28 180084E5 		str	r0, [r4, #24]
 5877 0a2c 0700000A 		beq	.L1128
 5878 0a30 010058E3 		cmp	r8, #1
 5879 0a34 0060C0E5 		strb	r6, [r0]
 5880 0a38 0400000A 		beq	.L1128
 5881 0a3c 183094E5 		ldr	r3, [r4, #24]
 5882 0a40 020058E3 		cmp	r8, #2
 5883 0a44 0160C3E5 		strb	r6, [r3, #1]
 5884 0a48 18309415 		ldrne	r3, [r4, #24]
 5885 0a4c 0260C315 		strbne	r6, [r3, #2]
 5886              	.L1128:
 5887 0a50 0410A0E3 		mov	r1, #4
 5888 0a54 0400A0E1 		mov	r0, r4
 5889 0a58 FEFFFFEB 		bl	_ZN11flatbuffers15vector_downward12ensure_spaceEj
 5890 0a5c 183094E5 		ldr	r3, [r4, #24]
 5891 0a60 000055E3 		cmp	r5, #0
 5892 0a64 000043E0 		sub	r0, r3, r0
 5893 0a68 180084E5 		str	r0, [r4, #24]
 5894 0a6c 00A080E5 		str	r10, [r0]
 5895 0a70 D8FFFF1A 		bne	.L1129
 5896              	.L1121:
 5897 0a74 1C109DE5 		ldr	r1, [sp, #28]
 5898 0a78 0400A0E1 		mov	r0, r4
 5899 0a7c FEFFFFEB 		bl	_ZN11flatbuffers17FlatBufferBuilder9EndVectorEj
 5900 0a80 20309DE5 		ldr	r3, [sp, #32]
 5901 0a84 00C0A0E3 		mov	ip, #0
 5902 0a88 04008DE5 		str	r0, [sp, #4]
 5903 0a8c 0C10A0E1 		mov	r1, ip
 5904 0a90 0B20A0E1 		mov	r2, fp
 5905 0a94 0400A0E1 		mov	r0, r4
 5906 0a98 00308DE5 		str	r3, [sp]
 5907 0a9c 10C08DE5 		str	ip, [sp, #16]
 5908 0aa0 28309DE5 		ldr	r3, [sp, #40]
 5909 0aa4 0CC08DE5 		str	ip, [sp, #12]
 5910 0aa8 08C08DE5 		str	ip, [sp, #8]
 5911 0aac FEFFFFEB 		bl	_ZN6tflite11CreateModelERN11flatbuffers17FlatBufferBuilderEmNS0_6OffsetINS0_6VectorINS3_INS_12O
 5912 0ab0 0010A0E1 		mov	r1, r0
 5913 0ab4 67FFFFEA 		b	.L1114
 5914              	.L1299:
 5915 0ab8 18309DE5 		ldr	r3, [sp, #24]
 5916 0abc 0370A0E1 		mov	r7, r3
 5917 0ac0 18A293E5 		ldr	r10, [r3, #536]
 5918 0ac4 FCB097E4 		ldr	fp, [r7], #252
 5919 0ac8 0A10A0E1 		mov	r1, r10
 5920 0acc 0B00A0E1 		mov	r0, fp
 5921 0ad0 FEFFFFEB 		bl	_ZN11flatbuffers17FlatBufferBuilder11StartVectorEjj.constprop.148
 5922 0ad4 00005AE3 		cmp	r10, #0
 5923 0ad8 9C408DE5 		str	r4, [sp, #156]
 5924 0adc 76FDFF1A 		bne	.L1133
 5925 0ae0 BDFDFFEA 		b	.L1075
 5926              	.L1304:
 5927 0ae4 0710A0E1 		mov	r1, r7
 5928 0ae8 0500A0E1 		mov	r0, r5
 5929 0aec FEFFFFEB 		bl	_ZN11flatbuffers15vector_downward12ensure_spaceEj
 5930 0af0 183095E5 		ldr	r3, [r5, #24]
 5931 0af4 0720A0E1 		mov	r2, r7
 5932 0af8 0610A0E1 		mov	r1, r6
 5933 0afc 000043E0 		sub	r0, r3, r0
 5934 0b00 180085E5 		str	r0, [r5, #24]
 5935 0b04 FEFFFFEB 		bl	memcpy
 5936 0b08 D1FDFFEA 		b	.L1088
 5937              	.L1303:
 5938 0b0c 0610A0E1 		mov	r1, r6
 5939 0b10 0400A0E1 		mov	r0, r4
 5940 0b14 FEFFFFEB 		bl	_ZN11flatbuffers15vector_downward12ensure_spaceEj
 5941 0b18 183094E5 		ldr	r3, [r4, #24]
 5942 0b1c 0620A0E1 		mov	r2, r6
 5943 0b20 0510A0E1 		mov	r1, r5
 5944 0b24 000043E0 		sub	r0, r3, r0
 5945 0b28 180084E5 		str	r0, [r4, #24]
 5946 0b2c FEFFFFEB 		bl	memcpy
 5947 0b30 B8FDFFEA 		b	.L1085
 5948              	.L1302:
 5949 0b34 0310A0E1 		mov	r1, r3
 5950 0b38 0400A0E1 		mov	r0, r4
 5951 0b3c FEFFFFEB 		bl	_ZN11flatbuffers17FlatBufferBuilder9EndVectorEj
 5952 0b40 2C008DE5 		str	r0, [sp, #44]
 5953 0b44 B7FDFFEA 		b	.L1084
 5954              	.L1301:
 5955 0b48 0A10A0E1 		mov	r1, r10
 5956 0b4c 0B00A0E1 		mov	r0, fp
 5957 0b50 FEFFFFEB 		bl	_ZN11flatbuffers17FlatBufferBuilder9EndVectorEj
 5958 0b54 18309DE5 		ldr	r3, [sp, #24]
 5959 0b58 20008DE5 		str	r0, [sp, #32]
 5960 0b5c 9C109DE5 		ldr	r1, [sp, #156]
 5961 0b60 004093E5 		ldr	r4, [r3]
 5962 0b64 30509DE5 		ldr	r5, [sp, #48]
 5963 0b68 0400A0E1 		mov	r0, r4
 5964 0b6c FEFFFFEB 		bl	_ZN11flatbuffers17FlatBufferBuilder11StartVectorEjj.constprop.148
 5965 0b70 9C309DE5 		ldr	r3, [sp, #156]
 5966 0b74 A5FDFFEA 		b	.L1083
 5967              	.L1079:
 5968 0b78 003000E3 		movw	r3, #:lower16:.LC25
 5969 0b7c 002000E3 		movw	r2, #:lower16:.LANCHOR13
 5970 0b80 000000E3 		movw	r0, #:lower16:.LC19
 5971 0b84 003040E3 		movt	r3, #:upper16:.LC25
 5972 0b88 002040E3 		movt	r2, #:upper16:.LANCHOR13
 5973 0b8c 000040E3 		movt	r0, #:upper16:.LC19
 5974 0b90 3B1500E3 		movw	r1, #1339
 5975 0b94 FEFFFFEB 		bl	__assert_func
 5976              	.L1307:
 5977 0b98 FEFFFFEB 		bl	_ZNK11flatbuffers15vector_downward4dataEv.isra.9.part.10
 5978              	.L1306:
 5979 0b9c 003000E3 		movw	r3, #:lower16:.LC34
 5980 0ba0 002000E3 		movw	r2, #:lower16:.LANCHOR18
 5981 0ba4 000000E3 		movw	r0, #:lower16:.LC19
 5982 0ba8 003040E3 		movt	r3, #:upper16:.LC34
 5983 0bac 002040E3 		movt	r2, #:upper16:.LANCHOR18
 5984 0bb0 000040E3 		movt	r0, #:upper16:.LC19
 5985 0bb4 D71400E3 		movw	r1, #1239
 5986 0bb8 FEFFFFEB 		bl	__assert_func
 5987              	.L1300:
 5988 0bbc FEFFFFEB 		bl	abort
 5989              		.fnend
 5991              		.section	.text._ZN6tflite7testing12_GLOBAL__N_126BuildSimpleModelWithBranchEv,"ax",%progbits
 5992              		.align	2
 5993              		.syntax unified
 5994              		.arm
 5995              		.fpu neon
 5997              	_ZN6tflite7testing12_GLOBAL__N_126BuildSimpleModelWithBranchEv:
 5998              		.fnstart
 5999              	.LFB7063:
 6000              		@ args = 0, pretend = 0, frame = 656
 6001              		@ frame_needed = 0, uses_anonymous_args = 0
 6002 0000 F04F2DE9 		push	{r4, r5, r6, r7, r8, r9, r10, fp, lr}
 6003              		.save {r4, r5, r6, r7, r8, r9, r10, fp, lr}
 6004              		.pad #668
 6005 0004 A7DF4DE2 		sub	sp, sp, #668
 6006 0008 FEFFFFEB 		bl	_ZN6tflite7testing12_GLOBAL__N_115BuilderInstanceEv
 6007 000c 001000E3 		movw	r1, #:lower16:.LC35
 6008 0010 0040A0E3 		mov	r4, #0
 6009 0014 5000C0F2 		vmov.i32	q8, #0  @ v4si
 6010 0018 001040E3 		movt	r1, #:upper16:.LC35
 6011 001c 2020A0E3 		mov	r2, #32
 6012 0020 78008DE5 		str	r0, [sp, #120]
 6013 0024 7C408DE5 		str	r4, [sp, #124]
 6014 0028 0150A0E3 		mov	r5, #1
 6015 002c 220BCDED 		vstr	d16, [sp, #136]
 6016 0030 241BCDED 		vstr	d17, [sp, #144]
 6017 0034 0360A0E3 		mov	r6, #3
 6018 0038 80408DE5 		str	r4, [sp, #128]
 6019 003c A67F8DE2 		add	r7, sp, #664
 6020 0040 2A0BCDED 		vstr	d16, [sp, #168]
 6021 0044 2C1BCDED 		vstr	d17, [sp, #176]
 6022 0048 84408DE5 		str	r4, [sp, #132]
 6023 004c 2E0BCDED 		vstr	d16, [sp, #184]
 6024 0050 301BCDED 		vstr	d17, [sp, #192]
 6025 0054 98408DE5 		str	r4, [sp, #152]
 6026 0058 320BCDED 		vstr	d16, [sp, #200]
 6027 005c 341BCDED 		vstr	d17, [sp, #208]
 6028 0060 9C408DE5 		str	r4, [sp, #156]
 6029 0064 360BCDED 		vstr	d16, [sp, #216]
 6030 0068 381BCDED 		vstr	d17, [sp, #224]
 6031 006c A0408DE5 		str	r4, [sp, #160]
 6032 0070 3A0BCDED 		vstr	d16, [sp, #232]
 6033 0074 3C1BCDED 		vstr	d17, [sp, #240]
 6034 0078 A4408DE5 		str	r4, [sp, #164]
 6035 007c 3E0BCDED 		vstr	d16, [sp, #248]
 6036 0080 401BCDED 		vstr	d17, [sp, #256]
 6037 0084 68418DE5 		str	r4, [sp, #360]
 6038 0088 420BCDED 		vstr	d16, [sp, #264]
 6039 008c 441BCDED 		vstr	d17, [sp, #272]
 6040 0090 6C418DE5 		str	r4, [sp, #364]
 6041 0094 460BCDED 		vstr	d16, [sp, #280]
 6042 0098 481BCDED 		vstr	d17, [sp, #288]
 6043 009c 70418DE5 		str	r4, [sp, #368]
 6044 00a0 4A0BCDED 		vstr	d16, [sp, #296]
 6045 00a4 4C1BCDED 		vstr	d17, [sp, #304]
 6046 00a8 74418DE5 		str	r4, [sp, #372]
 6047 00ac 4E0BCDED 		vstr	d16, [sp, #312]
 6048 00b0 501BCDED 		vstr	d17, [sp, #320]
 6049 00b4 78418DE5 		str	r4, [sp, #376]
 6050 00b8 520BCDED 		vstr	d16, [sp, #328]
 6051 00bc 541BCDED 		vstr	d17, [sp, #336]
 6052 00c0 7C418DE5 		str	r4, [sp, #380]
 6053 00c4 560BCDED 		vstr	d16, [sp, #344]
 6054 00c8 581BCDED 		vstr	d17, [sp, #352]
 6055 00cc 600BCDED 		vstr	d16, [sp, #384]
 6056 00d0 621BCDED 		vstr	d17, [sp, #392]
 6057 00d4 640BCDED 		vstr	d16, [sp, #400]
 6058 00d8 661BCDED 		vstr	d17, [sp, #408]
 6059 00dc 680BCDED 		vstr	d16, [sp, #416]
 6060 00e0 6A1BCDED 		vstr	d17, [sp, #424]
 6061 00e4 6C0BCDED 		vstr	d16, [sp, #432]
 6062 00e8 6E1BCDED 		vstr	d17, [sp, #440]
 6063 00ec 700BCDED 		vstr	d16, [sp, #448]
 6064 00f0 721BCDED 		vstr	d17, [sp, #456]
 6065 00f4 740BCDED 		vstr	d16, [sp, #464]
 6066 00f8 761BCDED 		vstr	d17, [sp, #472]
 6067 00fc 30428DE5 		str	r4, [sp, #560]
 6068 0100 780BCDED 		vstr	d16, [sp, #480]
 6069 0104 7A1BCDED 		vstr	d17, [sp, #488]
 6070 0108 34428DE5 		str	r4, [sp, #564]
 6071 010c 7C0BCDED 		vstr	d16, [sp, #496]
 6072 0110 7E1BCDED 		vstr	d17, [sp, #504]
 6073 0114 38428DE5 		str	r4, [sp, #568]
 6074 0118 800BCDED 		vstr	d16, [sp, #512]
 6075 011c 821BCDED 		vstr	d17, [sp, #520]
 6076 0120 3C428DE5 		str	r4, [sp, #572]
 6077 0124 840BCDED 		vstr	d16, [sp, #528]
 6078 0128 861BCDED 		vstr	d17, [sp, #536]
 6079 012c 40428DE5 		str	r4, [sp, #576]
 6080 0130 880BCDED 		vstr	d16, [sp, #544]
 6081 0134 8A1BCDED 		vstr	d17, [sp, #552]
 6082 0138 44428DE5 		str	r4, [sp, #580]
 6083 013c 920BCDED 		vstr	d16, [sp, #584]
 6084 0140 941BCDED 		vstr	d17, [sp, #592]
 6085 0144 58428DE5 		str	r4, [sp, #600]
 6086 0148 9C0BCDED 		vstr	d16, [sp, #624]
 6087 014c 9E1BCDED 		vstr	d17, [sp, #632]
 6088 0150 5C428DE5 		str	r4, [sp, #604]
 6089 0154 60428DE5 		str	r4, [sp, #608]
 6090 0158 64428DE5 		str	r4, [sp, #612]
 6091 015c 68428DE5 		str	r4, [sp, #616]
 6092 0160 6C428DE5 		str	r4, [sp, #620]
 6093 0164 80428DE5 		str	r4, [sp, #640]
 6094 0168 84428DE5 		str	r4, [sp, #644]
 6095 016c 88428DE5 		str	r4, [sp, #648]
 6096 0170 8C428DE5 		str	r4, [sp, #652]
 6097 0174 90428DE5 		str	r4, [sp, #656]
 6098 0178 FEFFFFEB 		bl	_ZN6tflite24CreateOperatorCodeDirectERN11flatbuffers17FlatBufferBuilderEaPKclNS_15BuiltinOperat
 6099 017c A4809DE5 		ldr	r8, [sp, #164]
 6100 0180 003000E3 		movw	r3, #:lower16:.LANCHOR19
 6101 0184 003040E3 		movt	r3, #:upper16:.LANCHOR19
 6102 0188 58208DE2 		add	r2, sp, #88
 6103 018c 58308DE5 		str	r3, [sp, #88]
 6104 0190 5C608DE5 		str	r6, [sp, #92]
 6105 0194 053088E0 		add	r3, r8, r5
 6106 0198 7C008DE5 		str	r0, [sp, #124]
 6107 019c 78008DE2 		add	r0, sp, #120
 6108 01a0 060092E8 		ldm	r2, {r1, r2}
 6109 01a4 A4308DE5 		str	r3, [sp, #164]
 6110 01a8 FEFFFFEB 		bl	_ZN6tflite7testing12_GLOBAL__N_112ModelBuilder13AddTensorImplENS_10TensorTypeEbSt16initializer_
 6111 01ac 003000E3 		movw	r3, #:lower16:.LANCHOR20
 6112 01b0 60208DE2 		add	r2, sp, #96
 6113 01b4 003040E3 		movt	r3, #:upper16:.LANCHOR20
 6114 01b8 0090A0E1 		mov	r9, r0
 6115 01bc 64608DE5 		str	r6, [sp, #100]
 6116 01c0 78008DE2 		add	r0, sp, #120
 6117 01c4 60308DE5 		str	r3, [sp, #96]
 6118 01c8 060092E8 		ldm	r2, {r1, r2}
 6119 01cc FEFFFFEB 		bl	_ZN6tflite7testing12_GLOBAL__N_112ModelBuilder13AddTensorImplENS_10TensorTypeEbSt16initializer_
 6120 01d0 003000E3 		movw	r3, #:lower16:.LANCHOR21
 6121 01d4 68208DE2 		add	r2, sp, #104
 6122 01d8 003040E3 		movt	r3, #:upper16:.LANCHOR21
 6123 01dc 00B0A0E1 		mov	fp, r0
 6124 01e0 6C608DE5 		str	r6, [sp, #108]
 6125 01e4 78008DE2 		add	r0, sp, #120
 6126 01e8 68308DE5 		str	r3, [sp, #104]
 6127 01ec 060092E8 		ldm	r2, {r1, r2}
 6128 01f0 FEFFFFEB 		bl	_ZN6tflite7testing12_GLOBAL__N_112ModelBuilder13AddTensorImplENS_10TensorTypeEbSt16initializer_
 6129 01f4 003000E3 		movw	r3, #:lower16:.LANCHOR22
 6130 01f8 70208DE2 		add	r2, sp, #112
 6131 01fc 003040E3 		movt	r3, #:upper16:.LANCHOR22
 6132 0200 00A0A0E1 		mov	r10, r0
 6133 0204 74608DE5 		str	r6, [sp, #116]
 6134 0208 78008DE2 		add	r0, sp, #120
 6135 020c 70308DE5 		str	r3, [sp, #112]
 6136 0210 A66F8DE2 		add	r6, sp, #664
 6137 0214 060092E8 		ldm	r2, {r1, r2}
 6138 0218 FEFFFFEB 		bl	_ZN6tflite7testing12_GLOBAL__N_112ModelBuilder13AddTensorImplENS_10TensorTypeEbSt16initializer_
 6139 021c 20208DE2 		add	r2, sp, #32
 6140 0220 48B227E5 		str	fp, [r7, #-584]!
 6141 0224 0C008DE5 		str	r0, [sp, #12]
 6142 0228 18308DE2 		add	r3, sp, #24
 6143 022c 20708DE5 		str	r7, [sp, #32]
 6144 0230 24508DE5 		str	r5, [sp, #36]
 6145 0234 030092E8 		ldm	r2, {r0, r1}
 6146 0238 78208DE2 		add	r2, sp, #120
 6147 023c 509226E5 		str	r9, [r6, #-592]!
 6148 0240 1C508DE5 		str	r5, [sp, #28]
 6149 0244 03008DE8 		stm	sp, {r0, r1}
 6150 0248 0810A0E1 		mov	r1, r8
 6151 024c 18608DE5 		str	r6, [sp, #24]
 6152 0250 0200A0E1 		mov	r0, r2
 6153 0254 0C0093E8 		ldm	r3, {r2, r3}
 6154 0258 FEFFFFEB 		bl	_ZN6tflite7testing12_GLOBAL__N_112ModelBuilder7AddNodeEiSt16initializer_listIlES4_
 6155 025c 30208DE2 		add	r2, sp, #48
 6156 0260 30708DE5 		str	r7, [sp, #48]
 6157 0264 34508DE5 		str	r5, [sp, #52]
 6158 0268 28308DE2 		add	r3, sp, #40
 6159 026c 030092E8 		ldm	r2, {r0, r1}
 6160 0270 28608DE5 		str	r6, [sp, #40]
 6161 0274 2C508DE5 		str	r5, [sp, #44]
 6162 0278 03008DE8 		stm	sp, {r0, r1}
 6163 027c 0810A0E1 		mov	r1, r8
 6164 0280 0C0093E8 		ldm	r3, {r2, r3}
 6165 0284 78008DE2 		add	r0, sp, #120
 6166 0288 48908DE5 		str	r9, [sp, #72]
 6167 028c 50A08DE5 		str	r10, [sp, #80]
 6168 0290 FEFFFFEB 		bl	_ZN6tflite7testing12_GLOBAL__N_112ModelBuilder7AddNodeEiSt16initializer_listIlES4_
 6169 0294 40308DE2 		add	r3, sp, #64
 6170 0298 38708DE5 		str	r7, [sp, #56]
 6171 029c 40608DE5 		str	r6, [sp, #64]
 6172 02a0 0220A0E3 		mov	r2, #2
 6173 02a4 0C709DE5 		ldr	r7, [sp, #12]
 6174 02a8 44508DE5 		str	r5, [sp, #68]
 6175 02ac 030093E8 		ldm	r3, {r0, r1}
 6176 02b0 38308DE2 		add	r3, sp, #56
 6177 02b4 3C208DE5 		str	r2, [sp, #60]
 6178 02b8 50B08DE5 		str	fp, [sp, #80]
 6179 02bc 03008DE8 		stm	sp, {r0, r1}
 6180 02c0 0810A0E1 		mov	r1, r8
 6181 02c4 0C0093E8 		ldm	r3, {r2, r3}
 6182 02c8 78008DE2 		add	r0, sp, #120
 6183 02cc 54A08DE5 		str	r10, [sp, #84]
 6184 02d0 48708DE5 		str	r7, [sp, #72]
 6185 02d4 FEFFFFEB 		bl	_ZN6tflite7testing12_GLOBAL__N_112ModelBuilder7AddNodeEiSt16initializer_listIlES4_
 6186 02d8 A62F8DE2 		add	r2, sp, #664
 6187 02dc 04408DE5 		str	r4, [sp, #4]
 6188 02e0 02C0A0E1 		mov	ip, r2
 6189 02e4 00508DE5 		str	r5, [sp]
 6190 02e8 4C508DE5 		str	r5, [sp, #76]
 6191 02ec 78008DE2 		add	r0, sp, #120
 6192 02f0 889222E5 		str	r9, [r2, #-648]!
 6193 02f4 84722CE5 		str	r7, [ip, #-644]!
 6194 02f8 0C30A0E1 		mov	r3, ip
 6195 02fc 48208DE5 		str	r2, [sp, #72]
 6196 0300 060096E8 		ldm	r6, {r1, r2}
 6197 0304 54508DE5 		str	r5, [sp, #84]
 6198 0308 50C08DE5 		str	ip, [sp, #80]
 6199 030c FEFFFFEB 		bl	_ZN6tflite7testing12_GLOBAL__N_112ModelBuilder10BuildModelESt16initializer_listIlES4_j
 6200 0310 A7DF8DE2 		add	sp, sp, #668
 6201              		@ sp needed
 6202 0314 F08FBDE8 		pop	{r4, r5, r6, r7, r8, r9, r10, fp, pc}
 6203              		.fnend
 6205              		.section	.text._ZN6tflite7testing12_GLOBAL__N_129BuildModelWithOfflinePlanningEiPKlPNS0_15NodeConn
 6206              		.align	2
 6207              		.syntax unified
 6208              		.arm
 6209              		.fpu neon
 6211              	_ZN6tflite7testing12_GLOBAL__N_129BuildModelWithOfflinePlanningEiPKlPNS0_15NodeConnection_Eii:
 6212              		.fnstart
 6213              	.LFB7064:
 6214              		@ args = 4, pretend = 0, frame = 584
 6215              		@ frame_needed = 0, uses_anonymous_args = 0
 6216 0000 F04F2DE9 		push	{r4, r5, r6, r7, r8, r9, r10, fp, lr}
 6217              		.save {r4, r5, r6, r7, r8, r9, r10, fp, lr}
 6218              		.pad #612
 6219 0004 99DF4DE2 		sub	sp, sp, #612
 6220 0008 0040A0E1 		mov	r4, r0
 6221 000c 3C108DE5 		str	r1, [sp, #60]
 6222 0010 34208DE5 		str	r2, [sp, #52]
 6223 0014 24308DE5 		str	r3, [sp, #36]
 6224 0018 38008DE5 		str	r0, [sp, #56]
 6225 001c FEFFFFEB 		bl	_ZN6tflite7testing12_GLOBAL__N_115BuilderInstanceEv
 6226 0020 5000C0F2 		vmov.i32	q8, #0  @ v4si
 6227 0024 001000E3 		movw	r1, #:lower16:.LC35
 6228 0028 0030A0E3 		mov	r3, #0
 6229 002c 001040E3 		movt	r1, #:upper16:.LC35
 6230 0030 2020A0E3 		mov	r2, #32
 6231 0034 44308DE5 		str	r3, [sp, #68]
 6232 0038 48308DE5 		str	r3, [sp, #72]
 6233 003c 4C308DE5 		str	r3, [sp, #76]
 6234 0040 60308DE5 		str	r3, [sp, #96]
 6235 0044 64308DE5 		str	r3, [sp, #100]
 6236 0048 68308DE5 		str	r3, [sp, #104]
 6237 004c 6C308DE5 		str	r3, [sp, #108]
 6238 0050 30318DE5 		str	r3, [sp, #304]
 6239 0054 34318DE5 		str	r3, [sp, #308]
 6240 0058 38318DE5 		str	r3, [sp, #312]
 6241 005c 3C318DE5 		str	r3, [sp, #316]
 6242 0060 40318DE5 		str	r3, [sp, #320]
 6243 0064 44318DE5 		str	r3, [sp, #324]
 6244 0068 40008DE5 		str	r0, [sp, #64]
 6245 006c 140BCDED 		vstr	d16, [sp, #80]
 6246 0070 161BCDED 		vstr	d17, [sp, #88]
 6247 0074 1C0BCDED 		vstr	d16, [sp, #112]
 6248 0078 1E1BCDED 		vstr	d17, [sp, #120]
 6249 007c 200BCDED 		vstr	d16, [sp, #128]
 6250 0080 221BCDED 		vstr	d17, [sp, #136]
 6251 0084 240BCDED 		vstr	d16, [sp, #144]
 6252 0088 261BCDED 		vstr	d17, [sp, #152]
 6253 008c 280BCDED 		vstr	d16, [sp, #160]
 6254 0090 2A1BCDED 		vstr	d17, [sp, #168]
 6255 0094 2C0BCDED 		vstr	d16, [sp, #176]
 6256 0098 2E1BCDED 		vstr	d17, [sp, #184]
 6257 009c 300BCDED 		vstr	d16, [sp, #192]
 6258 00a0 321BCDED 		vstr	d17, [sp, #200]
 6259 00a4 340BCDED 		vstr	d16, [sp, #208]
 6260 00a8 361BCDED 		vstr	d17, [sp, #216]
 6261 00ac 380BCDED 		vstr	d16, [sp, #224]
 6262 00b0 3A1BCDED 		vstr	d17, [sp, #232]
 6263 00b4 3C0BCDED 		vstr	d16, [sp, #240]
 6264 00b8 3E1BCDED 		vstr	d17, [sp, #248]
 6265 00bc 400BCDED 		vstr	d16, [sp, #256]
 6266 00c0 421BCDED 		vstr	d17, [sp, #264]
 6267 00c4 440BCDED 		vstr	d16, [sp, #272]
 6268 00c8 461BCDED 		vstr	d17, [sp, #280]
 6269 00cc 480BCDED 		vstr	d16, [sp, #288]
 6270 00d0 4A1BCDED 		vstr	d17, [sp, #296]
 6271 00d4 520BCDED 		vstr	d16, [sp, #328]
 6272 00d8 541BCDED 		vstr	d17, [sp, #336]
 6273 00dc 560BCDED 		vstr	d16, [sp, #344]
 6274 00e0 581BCDED 		vstr	d17, [sp, #352]
 6275 00e4 5A0BCDED 		vstr	d16, [sp, #360]
 6276 00e8 5C1BCDED 		vstr	d17, [sp, #368]
 6277 00ec 5E0BCDED 		vstr	d16, [sp, #376]
 6278 00f0 601BCDED 		vstr	d17, [sp, #384]
 6279 00f4 620BCDED 		vstr	d16, [sp, #392]
 6280 00f8 641BCDED 		vstr	d17, [sp, #400]
 6281 00fc 660BCDED 		vstr	d16, [sp, #408]
 6282 0100 681BCDED 		vstr	d17, [sp, #416]
 6283 0104 F8318DE5 		str	r3, [sp, #504]
 6284 0108 FC318DE5 		str	r3, [sp, #508]
 6285 010c 00328DE5 		str	r3, [sp, #512]
 6286 0110 04328DE5 		str	r3, [sp, #516]
 6287 0114 08328DE5 		str	r3, [sp, #520]
 6288 0118 0C328DE5 		str	r3, [sp, #524]
 6289 011c 20328DE5 		str	r3, [sp, #544]
 6290 0120 24328DE5 		str	r3, [sp, #548]
 6291 0124 28328DE5 		str	r3, [sp, #552]
 6292 0128 2C328DE5 		str	r3, [sp, #556]
 6293 012c 30328DE5 		str	r3, [sp, #560]
 6294 0130 34328DE5 		str	r3, [sp, #564]
 6295 0134 48328DE5 		str	r3, [sp, #584]
 6296 0138 4C328DE5 		str	r3, [sp, #588]
 6297 013c 50328DE5 		str	r3, [sp, #592]
 6298 0140 54328DE5 		str	r3, [sp, #596]
 6299 0144 58328DE5 		str	r3, [sp, #600]
 6300 0148 6A0BCDED 		vstr	d16, [sp, #424]
 6301 014c 6C1BCDED 		vstr	d17, [sp, #432]
 6302 0150 6E0BCDED 		vstr	d16, [sp, #440]
 6303 0154 701BCDED 		vstr	d17, [sp, #448]
 6304 0158 720BCDED 		vstr	d16, [sp, #456]
 6305 015c 741BCDED 		vstr	d17, [sp, #464]
 6306 0160 760BCDED 		vstr	d16, [sp, #472]
 6307 0164 781BCDED 		vstr	d17, [sp, #480]
 6308 0168 7A0BCDED 		vstr	d16, [sp, #488]
 6309 016c 7C1BCDED 		vstr	d17, [sp, #496]
 6310 0170 840BCDED 		vstr	d16, [sp, #528]
 6311 0174 861BCDED 		vstr	d17, [sp, #536]
 6312 0178 8E0BCDED 		vstr	d16, [sp, #568]
 6313 017c 901BCDED 		vstr	d17, [sp, #576]
 6314 0180 FEFFFFEB 		bl	_ZN6tflite24CreateOperatorCodeDirectERN11flatbuffers17FlatBufferBuilderEaPKclNS_15BuiltinOperat
 6315 0184 6C309DE5 		ldr	r3, [sp, #108]
 6316 0188 000054E3 		cmp	r4, #0
 6317 018c 44008DE5 		str	r0, [sp, #68]
 6318 0190 30308DE5 		str	r3, [sp, #48]
 6319 0194 013083E2 		add	r3, r3, #1
 6320 0198 6C308DE5 		str	r3, [sp, #108]
 6321 019c 940000DA 		ble	.L1311
 6322 01a0 58529DE5 		ldr	r5, [sp, #600]
 6323 01a4 320055E3 		cmp	r5, #50
 6324 01a8 BD0200CA 		bgt	.L1319
 6325 01ac 40409DE5 		ldr	r4, [sp, #64]
 6326 01b0 2630D4E5 		ldrb	r3, [r4, #38]	@ zero_extendqisi2
 6327 01b4 206094E5 		ldr	r6, [r4, #32]
 6328 01b8 000053E3 		cmp	r3, #0
 6329 01bc C202001A 		bne	.L1314
 6330 01c0 000056E3 		cmp	r6, #0
 6331 01c4 BF02001A 		bne	.L1316
 6332 01c8 007000E3 		movw	r7, #:lower16:.LANCHOR23
 6333 01cc 38909DE5 		ldr	r9, [sp, #56]
 6334 01d0 007040E3 		movt	r7, #:upper16:.LANCHOR23
 6335 01d4 080000EA 		b	.L1322
 6336              	.L1518:
 6337 01d8 320055E3 		cmp	r5, #50
 6338 01dc B00200CA 		bgt	.L1319
 6339 01e0 40409DE5 		ldr	r4, [sp, #64]
 6340 01e4 2620D4E5 		ldrb	r2, [r4, #38]	@ zero_extendqisi2
 6341 01e8 203094E5 		ldr	r3, [r4, #32]
 6342 01ec 000052E3 		cmp	r2, #0
 6343 01f0 B502001A 		bne	.L1314
 6344 01f4 000053E3 		cmp	r3, #0
 6345 01f8 B202001A 		bne	.L1316
 6346              	.L1322:
 6347 01fc 283094E5 		ldr	r3, [r4, #40]
 6348 0200 0120A0E3 		mov	r2, #1
 6349 0204 2620C4E5 		strb	r2, [r4, #38]
 6350 0208 0400A0E1 		mov	r0, r4
 6351 020c 188094E5 		ldr	r8, [r4, #24]
 6352 0210 030053E3 		cmp	r3, #3
 6353 0214 142094E5 		ldr	r2, [r4, #20]
 6354 0218 0430A093 		movls	r3, #4
 6355 021c 28308495 		strls	r3, [r4, #40]
 6356 0220 103094E5 		ldr	r3, [r4, #16]
 6357 0224 028048E0 		sub	r8, r8, r2
 6358 0228 038048E0 		sub	r8, r8, r3
 6359 022c 038008E2 		and	r8, r8, #3
 6360 0230 0810A0E1 		mov	r1, r8
 6361 0234 FEFFFFEB 		bl	_ZN11flatbuffers15vector_downward12ensure_spaceEj
 6362 0238 183094E5 		ldr	r3, [r4, #24]
 6363 023c 000058E3 		cmp	r8, #0
 6364 0240 003043E0 		sub	r3, r3, r0
 6365 0244 183084E5 		str	r3, [r4, #24]
 6366 0248 0900000A 		beq	.L1325
 6367 024c 010058E3 		cmp	r8, #1
 6368 0250 0020A0E3 		mov	r2, #0
 6369 0254 0020C3E5 		strb	r2, [r3]
 6370 0258 0400000A 		beq	.L1326
 6371 025c 183094E5 		ldr	r3, [r4, #24]
 6372 0260 020058E3 		cmp	r8, #2
 6373 0264 0120C3E5 		strb	r2, [r3, #1]
 6374 0268 18309415 		ldrne	r3, [r4, #24]
 6375 026c 0220C315 		strbne	r2, [r3, #2]
 6376              	.L1326:
 6377 0270 183094E5 		ldr	r3, [r4, #24]
 6378              	.L1325:
 6379 0274 282094E5 		ldr	r2, [r4, #40]
 6380 0278 0400A0E1 		mov	r0, r4
 6381 027c 148094E5 		ldr	r8, [r4, #20]
 6382 0280 030052E3 		cmp	r2, #3
 6383 0284 0420A093 		movls	r2, #4
 6384 0288 088043E0 		sub	r8, r3, r8
 6385 028c 28208495 		strls	r2, [r4, #40]
 6386 0290 102094E5 		ldr	r2, [r4, #16]
 6387 0294 028048E0 		sub	r8, r8, r2
 6388 0298 038008E2 		and	r8, r8, #3
 6389 029c 0810A0E1 		mov	r1, r8
 6390 02a0 FEFFFFEB 		bl	_ZN11flatbuffers15vector_downward12ensure_spaceEj
 6391 02a4 183094E5 		ldr	r3, [r4, #24]
 6392 02a8 000058E3 		cmp	r8, #0
 6393 02ac 000043E0 		sub	r0, r3, r0
 6394 02b0 180084E5 		str	r0, [r4, #24]
 6395 02b4 0800000A 		beq	.L1328
 6396 02b8 010058E3 		cmp	r8, #1
 6397 02bc 0030A0E3 		mov	r3, #0
 6398 02c0 0030C0E5 		strb	r3, [r0]
 6399 02c4 0400000A 		beq	.L1328
 6400 02c8 182094E5 		ldr	r2, [r4, #24]
 6401 02cc 020058E3 		cmp	r8, #2
 6402 02d0 0130C2E5 		strb	r3, [r2, #1]
 6403 02d4 18209415 		ldrne	r2, [r4, #24]
 6404 02d8 0230C215 		strbne	r3, [r2, #2]
 6405              	.L1328:
 6406 02dc 0C10A0E3 		mov	r1, #12
 6407 02e0 0400A0E1 		mov	r0, r4
 6408 02e4 FEFFFFEB 		bl	_ZN11flatbuffers15vector_downward12ensure_spaceEj
 6409 02e8 183094E5 		ldr	r3, [r4, #24]
 6410 02ec 0C20A0E3 		mov	r2, #12
 6411 02f0 0710A0E1 		mov	r1, r7
 6412 02f4 000043E0 		sub	r0, r3, r0
 6413 02f8 180084E5 		str	r0, [r4, #24]
 6414 02fc FEFFFFEB 		bl	memcpy
 6415 0300 2630D4E5 		ldrb	r3, [r4, #38]	@ zero_extendqisi2
 6416 0304 000053E3 		cmp	r3, #0
 6417 0308 6602000A 		beq	.L1341
 6418 030c 283094E5 		ldr	r3, [r4, #40]
 6419 0310 0020A0E3 		mov	r2, #0
 6420 0314 2620C4E5 		strb	r2, [r4, #38]
 6421 0318 0400A0E1 		mov	r0, r4
 6422 031c 188094E5 		ldr	r8, [r4, #24]
 6423 0320 030053E3 		cmp	r3, #3
 6424 0324 142094E5 		ldr	r2, [r4, #20]
 6425 0328 0430A093 		movls	r3, #4
 6426 032c 28308495 		strls	r3, [r4, #40]
 6427 0330 103094E5 		ldr	r3, [r4, #16]
 6428 0334 028048E0 		sub	r8, r8, r2
 6429 0338 038048E0 		sub	r8, r8, r3
 6430 033c 038008E2 		and	r8, r8, #3
 6431 0340 0810A0E1 		mov	r1, r8
 6432 0344 FEFFFFEB 		bl	_ZN11flatbuffers15vector_downward12ensure_spaceEj
 6433 0348 183094E5 		ldr	r3, [r4, #24]
 6434 034c 000058E3 		cmp	r8, #0
 6435 0350 000043E0 		sub	r0, r3, r0
 6436 0354 180084E5 		str	r0, [r4, #24]
 6437 0358 0800000A 		beq	.L1331
 6438 035c 010058E3 		cmp	r8, #1
 6439 0360 0030A0E3 		mov	r3, #0
 6440 0364 0030C0E5 		strb	r3, [r0]
 6441 0368 0400000A 		beq	.L1331
 6442 036c 182094E5 		ldr	r2, [r4, #24]
 6443 0370 020058E3 		cmp	r8, #2
 6444 0374 0130C2E5 		strb	r3, [r2, #1]
 6445 0378 18209415 		ldrne	r2, [r4, #24]
 6446 037c 0230C215 		strbne	r3, [r2, #2]
 6447              	.L1331:
 6448 0380 0410A0E3 		mov	r1, #4
 6449 0384 0400A0E1 		mov	r0, r4
 6450 0388 FEFFFFEB 		bl	_ZN11flatbuffers15vector_downward12ensure_spaceEj
 6451 038c 182094E5 		ldr	r2, [r4, #24]
 6452 0390 0030A0E3 		mov	r3, #0
 6453 0394 141094E5 		ldr	r1, [r4, #20]
 6454 0398 03E0A0E3 		mov	lr, #3
 6455 039c 10C094E5 		ldr	ip, [r4, #16]
 6456 03a0 3E5085E2 		add	r5, r5, #62
 6457 03a4 002042E0 		sub	r2, r2, r0
 6458 03a8 0400A0E1 		mov	r0, r4
 6459 03ac 011042E0 		sub	r1, r2, r1
 6460 03b0 182084E5 		str	r2, [r4, #24]
 6461 03b4 01104CE0 		sub	r1, ip, r1
 6462 03b8 00E082E5 		str	lr, [r2]
 6463 03bc 26CE8DE2 		add	ip, sp, #608
 6464 03c0 08308DE5 		str	r3, [sp, #8]
 6465 03c4 04308DE5 		str	r3, [sp, #4]
 6466 03c8 0320A0E1 		mov	r2, r3
 6467 03cc 00308DE5 		str	r3, [sp]
 6468 03d0 05418CE0 		add	r4, ip, r5, lsl #2
 6469 03d4 016086E2 		add	r6, r6, #1
 6470 03d8 FEFFFFEB 		bl	_ZN6tflite12CreateTensorERN11flatbuffers17FlatBufferBuilderENS0_6OffsetINS0_6VectorIlEEEENS_10T
 6471 03dc 58529DE5 		ldr	r5, [sp, #600]
 6472 03e0 060059E1 		cmp	r9, r6
 6473 03e4 1C0204E5 		str	r0, [r4, #-540]
 6474 03e8 015085E2 		add	r5, r5, #1
 6475 03ec 58528DE5 		str	r5, [sp, #600]
 6476 03f0 78FFFF1A 		bne	.L1518
 6477              	.L1311:
 6478 03f4 24309DE5 		ldr	r3, [sp, #36]
 6479 03f8 000053E3 		cmp	r3, #0
 6480 03fc 6E0100DA 		ble	.L1360
 6481 0400 34309DE5 		ldr	r3, [sp, #52]
 6482 0404 38619DE5 		ldr	r6, [sp, #312]
 6483 0408 002093E5 		ldr	r2, [r3]
 6484 040c 320056E3 		cmp	r6, #50
 6485 0410 044093E5 		ldr	r4, [r3, #4]
 6486 0414 0C9093E5 		ldr	r9, [r3, #12]
 6487 0418 28208DE5 		str	r2, [sp, #40]
 6488 041c 082093E5 		ldr	r2, [r3, #8]
 6489 0420 2C208DE5 		str	r2, [sp, #44]
 6490 0424 1E0200CA 		bgt	.L1319
 6491 0428 0380A0E1 		mov	r8, r3
 6492 042c 0030A0E3 		mov	r3, #0
 6493 0430 1C308DE5 		str	r3, [sp, #28]
 6494 0434 0350A0E1 		mov	r5, r3
 6495 0438 04A0A0E3 		mov	r10, #4
 6496 043c B40000EA 		b	.L1334
 6497              	.L1345:
 6498 0440 2620DBE5 		ldrb	r2, [fp, #38]	@ zero_extendqisi2
 6499 0444 000052E3 		cmp	r2, #0
 6500 0448 1602000A 		beq	.L1341
 6501 044c 28209BE5 		ldr	r2, [fp, #40]
 6502 0450 0B00A0E1 		mov	r0, fp
 6503 0454 14109BE5 		ldr	r1, [fp, #20]
 6504 0458 18709BE5 		ldr	r7, [fp, #24]
 6505 045c 030052E3 		cmp	r2, #3
 6506 0460 10209BE5 		ldr	r2, [fp, #16]
 6507 0464 28A08B95 		strls	r10, [fp, #40]
 6508 0468 017047E0 		sub	r7, r7, r1
 6509 046c 2650CBE5 		strb	r5, [fp, #38]
 6510 0470 027047E0 		sub	r7, r7, r2
 6511 0474 037007E2 		and	r7, r7, #3
 6512 0478 0710A0E1 		mov	r1, r7
 6513 047c FEFFFFEB 		bl	_ZN11flatbuffers15vector_downward12ensure_spaceEj
 6514 0480 18209BE5 		ldr	r2, [fp, #24]
 6515 0484 000057E3 		cmp	r7, #0
 6516 0488 000042E0 		sub	r0, r2, r0
 6517 048c 18008BE5 		str	r0, [fp, #24]
 6518 0490 0700000A 		beq	.L1347
 6519 0494 010057E3 		cmp	r7, #1
 6520 0498 0050C0E5 		strb	r5, [r0]
 6521 049c 0400000A 		beq	.L1347
 6522 04a0 18209BE5 		ldr	r2, [fp, #24]
 6523 04a4 020057E3 		cmp	r7, #2
 6524 04a8 0150C2E5 		strb	r5, [r2, #1]
 6525 04ac 18209B15 		ldrne	r2, [fp, #24]
 6526 04b0 0250C215 		strbne	r5, [r2, #2]
 6527              	.L1347:
 6528 04b4 0410A0E3 		mov	r1, #4
 6529 04b8 0B00A0E1 		mov	r0, fp
 6530 04bc FEFFFFEB 		bl	_ZN11flatbuffers15vector_downward12ensure_spaceEj
 6531 04c0 18209BE5 		ldr	r2, [fp, #24]
 6532 04c4 14109BE5 		ldr	r1, [fp, #20]
 6533 04c8 10709BE5 		ldr	r7, [fp, #16]
 6534 04cc 000042E0 		sub	r0, r2, r0
 6535 04d0 011040E0 		sub	r1, r0, r1
 6536 04d4 18008BE5 		str	r0, [fp, #24]
 6537 04d8 017047E0 		sub	r7, r7, r1
 6538 04dc 004080E5 		str	r4, [r0]
 6539              	.L1344:
 6540 04e0 40409DE5 		ldr	r4, [sp, #64]
 6541 04e4 2620D4E5 		ldrb	r2, [r4, #38]	@ zero_extendqisi2
 6542 04e8 203094E5 		ldr	r3, [r4, #32]
 6543 04ec 000052E3 		cmp	r2, #0
 6544 04f0 F501001A 		bne	.L1314
 6545 04f4 000053E3 		cmp	r3, #0
 6546 04f8 F201001A 		bne	.L1316
 6547 04fc 283094E5 		ldr	r3, [r4, #40]
 6548 0500 0120A0E3 		mov	r2, #1
 6549 0504 141094E5 		ldr	r1, [r4, #20]
 6550 0508 0400A0E1 		mov	r0, r4
 6551 050c 2620C4E5 		strb	r2, [r4, #38]
 6552 0510 09B1A0E1 		lsl	fp, r9, #2
 6553 0514 182094E5 		ldr	r2, [r4, #24]
 6554 0518 030053E3 		cmp	r3, #3
 6555 051c 103094E5 		ldr	r3, [r4, #16]
 6556 0520 28A08495 		strls	r10, [r4, #40]
 6557 0524 012042E0 		sub	r2, r2, r1
 6558 0528 032042E0 		sub	r2, r2, r3
 6559 052c 032002E2 		and	r2, r2, #3
 6560 0530 0210A0E1 		mov	r1, r2
 6561 0534 20208DE5 		str	r2, [sp, #32]
 6562 0538 FEFFFFEB 		bl	_ZN11flatbuffers15vector_downward12ensure_spaceEj
 6563 053c 20209DE5 		ldr	r2, [sp, #32]
 6564 0540 183094E5 		ldr	r3, [r4, #24]
 6565 0544 000052E3 		cmp	r2, #0
 6566 0548 003043E0 		sub	r3, r3, r0
 6567 054c 183084E5 		str	r3, [r4, #24]
 6568 0550 0800000A 		beq	.L1349
 6569 0554 010052E3 		cmp	r2, #1
 6570 0558 0050C3E5 		strb	r5, [r3]
 6571 055c 0400000A 		beq	.L1350
 6572 0560 183094E5 		ldr	r3, [r4, #24]
 6573 0564 020052E3 		cmp	r2, #2
 6574 0568 0150C3E5 		strb	r5, [r3, #1]
 6575 056c 18309415 		ldrne	r3, [r4, #24]
 6576 0570 0250C315 		strbne	r5, [r3, #2]
 6577              	.L1350:
 6578 0574 183094E5 		ldr	r3, [r4, #24]
 6579              	.L1349:
 6580 0578 282094E5 		ldr	r2, [r4, #40]
 6581 057c 0400A0E1 		mov	r0, r4
 6582 0580 141094E5 		ldr	r1, [r4, #20]
 6583 0584 030052E3 		cmp	r2, #3
 6584 0588 102094E5 		ldr	r2, [r4, #16]
 6585 058c 013043E0 		sub	r3, r3, r1
 6586 0590 28A08495 		strls	r10, [r4, #40]
 6587 0594 023043E0 		sub	r3, r3, r2
 6588 0598 033003E2 		and	r3, r3, #3
 6589 059c 0310A0E1 		mov	r1, r3
 6590 05a0 20308DE5 		str	r3, [sp, #32]
 6591 05a4 FEFFFFEB 		bl	_ZN11flatbuffers15vector_downward12ensure_spaceEj
 6592 05a8 20309DE5 		ldr	r3, [sp, #32]
 6593 05ac 182094E5 		ldr	r2, [r4, #24]
 6594 05b0 000053E3 		cmp	r3, #0
 6595 05b4 000042E0 		sub	r0, r2, r0
 6596 05b8 180084E5 		str	r0, [r4, #24]
 6597 05bc 0700000A 		beq	.L1352
 6598 05c0 010053E3 		cmp	r3, #1
 6599 05c4 0050C0E5 		strb	r5, [r0]
 6600 05c8 0400000A 		beq	.L1352
 6601 05cc 182094E5 		ldr	r2, [r4, #24]
 6602 05d0 020053E3 		cmp	r3, #2
 6603 05d4 0150C2E5 		strb	r5, [r2, #1]
 6604 05d8 18309415 		ldrne	r3, [r4, #24]
 6605 05dc 0250C315 		strbne	r5, [r3, #2]
 6606              	.L1352:
 6607 05e0 000059E3 		cmp	r9, #0
 6608 05e4 A200000A 		beq	.L1523
 6609 05e8 00005BE3 		cmp	fp, #0
 6610 05ec 9600001A 		bne	.L1524
 6611              	.L1357:
 6612 05f0 2630D4E5 		ldrb	r3, [r4, #38]	@ zero_extendqisi2
 6613 05f4 000053E3 		cmp	r3, #0
 6614 05f8 AA01000A 		beq	.L1341
 6615 05fc 283094E5 		ldr	r3, [r4, #40]
 6616 0600 0400A0E1 		mov	r0, r4
 6617 0604 18B094E5 		ldr	fp, [r4, #24]
 6618 0608 142094E5 		ldr	r2, [r4, #20]
 6619 060c 030053E3 		cmp	r3, #3
 6620 0610 103094E5 		ldr	r3, [r4, #16]
 6621 0614 28A08495 		strls	r10, [r4, #40]
 6622 0618 02B04BE0 		sub	fp, fp, r2
 6623 061c 2650C4E5 		strb	r5, [r4, #38]
 6624 0620 03B04BE0 		sub	fp, fp, r3
 6625 0624 03B00BE2 		and	fp, fp, #3
 6626 0628 0B10A0E1 		mov	r1, fp
 6627 062c FEFFFFEB 		bl	_ZN11flatbuffers15vector_downward12ensure_spaceEj
 6628 0630 183094E5 		ldr	r3, [r4, #24]
 6629 0634 00005BE3 		cmp	fp, #0
 6630 0638 000043E0 		sub	r0, r3, r0
 6631 063c 180084E5 		str	r0, [r4, #24]
 6632 0640 0700000A 		beq	.L1359
 6633 0644 01005BE3 		cmp	fp, #1
 6634 0648 0050C0E5 		strb	r5, [r0]
 6635 064c 0400000A 		beq	.L1359
 6636 0650 183094E5 		ldr	r3, [r4, #24]
 6637 0654 02005BE3 		cmp	fp, #2
 6638 0658 0150C3E5 		strb	r5, [r3, #1]
 6639 065c 18309415 		ldrne	r3, [r4, #24]
 6640 0660 0250C315 		strbne	r5, [r3, #2]
 6641              	.L1359:
 6642 0664 0410A0E3 		mov	r1, #4
 6643 0668 0400A0E1 		mov	r0, r4
 6644 066c FEFFFFEB 		bl	_ZN11flatbuffers15vector_downward12ensure_spaceEj
 6645 0670 182094E5 		ldr	r2, [r4, #24]
 6646 0674 141094E5 		ldr	r1, [r4, #20]
 6647 0678 103094E5 		ldr	r3, [r4, #16]
 6648 067c 000042E0 		sub	r0, r2, r0
 6649 0680 011040E0 		sub	r1, r0, r1
 6650 0684 180084E5 		str	r0, [r4, #24]
 6651 0688 013043E0 		sub	r3, r3, r1
 6652 068c 009080E5 		str	r9, [r0]
 6653              	.L1356:
 6654 0690 0C6086E2 		add	r6, r6, #12
 6655 0694 26CE8DE2 		add	ip, sp, #608
 6656 0698 0400A0E1 		mov	r0, r4
 6657 069c 06418CE0 		add	r4, ip, r6, lsl #2
 6658 06a0 1CC09DE5 		ldr	ip, [sp, #28]
 6659 06a4 0720A0E1 		mov	r2, r7
 6660 06a8 14508DE5 		str	r5, [sp, #20]
 6661 06ac 10508DE5 		str	r5, [sp, #16]
 6662 06b0 01C08CE2 		add	ip, ip, #1
 6663 06b4 0C508DE5 		str	r5, [sp, #12]
 6664 06b8 08508DE5 		str	r5, [sp, #8]
 6665 06bc 0C70A0E1 		mov	r7, ip
 6666 06c0 04508DE5 		str	r5, [sp, #4]
 6667 06c4 30109DE5 		ldr	r1, [sp, #48]
 6668 06c8 00508DE5 		str	r5, [sp]
 6669 06cc 1CC08DE5 		str	ip, [sp, #28]
 6670 06d0 FEFFFFEB 		bl	_ZN6tflite14CreateOperatorERN11flatbuffers17FlatBufferBuilderEmNS0_6OffsetINS0_6VectorIlEEEES6_
 6671 06d4 24309DE5 		ldr	r3, [sp, #36]
 6672 06d8 38619DE5 		ldr	r6, [sp, #312]
 6673 06dc 200204E5 		str	r0, [r4, #-544]
 6674 06e0 070053E1 		cmp	r3, r7
 6675 06e4 016086E2 		add	r6, r6, #1
 6676 06e8 38618DE5 		str	r6, [sp, #312]
 6677 06ec B200000A 		beq	.L1360
 6678 06f0 103098E5 		ldr	r3, [r8, #16]
 6679 06f4 320056E3 		cmp	r6, #50
 6680 06f8 144098E5 		ldr	r4, [r8, #20]
 6681 06fc 108088E2 		add	r8, r8, #16
 6682 0700 28308DE5 		str	r3, [sp, #40]
 6683 0704 083098E5 		ldr	r3, [r8, #8]
 6684 0708 2C308DE5 		str	r3, [sp, #44]
 6685 070c 0C9098E5 		ldr	r9, [r8, #12]
 6686 0710 630100CA 		bgt	.L1319
 6687              	.L1334:
 6688 0714 40B09DE5 		ldr	fp, [sp, #64]
 6689 0718 2610DBE5 		ldrb	r1, [fp, #38]	@ zero_extendqisi2
 6690 071c 20209BE5 		ldr	r2, [fp, #32]
 6691 0720 000051E3 		cmp	r1, #0
 6692 0724 6801001A 		bne	.L1314
 6693 0728 000052E3 		cmp	r2, #0
 6694 072c 6501001A 		bne	.L1316
 6695 0730 28209BE5 		ldr	r2, [fp, #40]
 6696 0734 0130A0E3 		mov	r3, #1
 6697 0738 14C09BE5 		ldr	ip, [fp, #20]
 6698 073c 0B00A0E1 		mov	r0, fp
 6699 0740 10109BE5 		ldr	r1, [fp, #16]
 6700 0744 0471A0E1 		lsl	r7, r4, #2
 6701 0748 030052E3 		cmp	r2, #3
 6702 074c 18209BE5 		ldr	r2, [fp, #24]
 6703 0750 28A08B95 		strls	r10, [fp, #40]
 6704 0754 2630CBE5 		strb	r3, [fp, #38]
 6705 0758 0C2042E0 		sub	r2, r2, ip
 6706 075c 012042E0 		sub	r2, r2, r1
 6707 0760 032002E2 		and	r2, r2, #3
 6708 0764 0210A0E1 		mov	r1, r2
 6709 0768 20208DE5 		str	r2, [sp, #32]
 6710 076c FEFFFFEB 		bl	_ZN11flatbuffers15vector_downward12ensure_spaceEj
 6711 0770 20209DE5 		ldr	r2, [sp, #32]
 6712 0774 18109BE5 		ldr	r1, [fp, #24]
 6713 0778 000052E3 		cmp	r2, #0
 6714 077c 001041E0 		sub	r1, r1, r0
 6715 0780 18108BE5 		str	r1, [fp, #24]
 6716 0784 0800000A 		beq	.L1336
 6717 0788 010052E3 		cmp	r2, #1
 6718 078c 0050C1E5 		strb	r5, [r1]
 6719 0790 0400000A 		beq	.L1337
 6720 0794 18109BE5 		ldr	r1, [fp, #24]
 6721 0798 020052E3 		cmp	r2, #2
 6722 079c 0150C1E5 		strb	r5, [r1, #1]
 6723 07a0 18209B15 		ldrne	r2, [fp, #24]
 6724 07a4 0250C215 		strbne	r5, [r2, #2]
 6725              	.L1337:
 6726 07a8 18109BE5 		ldr	r1, [fp, #24]
 6727              	.L1336:
 6728 07ac 28209BE5 		ldr	r2, [fp, #40]
 6729 07b0 0B00A0E1 		mov	r0, fp
 6730 07b4 10C09BE5 		ldr	ip, [fp, #16]
 6731 07b8 030052E3 		cmp	r2, #3
 6732 07bc 14209BE5 		ldr	r2, [fp, #20]
 6733 07c0 28A08B95 		strls	r10, [fp, #40]
 6734 07c4 022041E0 		sub	r2, r1, r2
 6735 07c8 0C2042E0 		sub	r2, r2, ip
 6736 07cc 032002E2 		and	r2, r2, #3
 6737 07d0 0210A0E1 		mov	r1, r2
 6738 07d4 20208DE5 		str	r2, [sp, #32]
 6739 07d8 FEFFFFEB 		bl	_ZN11flatbuffers15vector_downward12ensure_spaceEj
 6740 07dc 20209DE5 		ldr	r2, [sp, #32]
 6741 07e0 18109BE5 		ldr	r1, [fp, #24]
 6742 07e4 000052E3 		cmp	r2, #0
 6743 07e8 000041E0 		sub	r0, r1, r0
 6744 07ec 18008BE5 		str	r0, [fp, #24]
 6745 07f0 0700000A 		beq	.L1339
 6746 07f4 010052E3 		cmp	r2, #1
 6747 07f8 0050C0E5 		strb	r5, [r0]
 6748 07fc 0400000A 		beq	.L1339
 6749 0800 18109BE5 		ldr	r1, [fp, #24]
 6750 0804 020052E3 		cmp	r2, #2
 6751 0808 0150C1E5 		strb	r5, [r1, #1]
 6752 080c 18209B15 		ldrne	r2, [fp, #24]
 6753 0810 0250C215 		strbne	r5, [r2, #2]
 6754              	.L1339:
 6755 0814 000054E3 		cmp	r4, #0
 6756 0818 3E00000A 		beq	.L1525
 6757 081c 000057E3 		cmp	r7, #0
 6758 0820 06FFFF0A 		beq	.L1345
 6759 0824 0710A0E1 		mov	r1, r7
 6760 0828 0B00A0E1 		mov	r0, fp
 6761 082c FEFFFFEB 		bl	_ZN11flatbuffers15vector_downward12ensure_spaceEj
 6762 0830 18C09BE5 		ldr	ip, [fp, #24]
 6763 0834 0720A0E1 		mov	r2, r7
 6764 0838 28109DE5 		ldr	r1, [sp, #40]
 6765 083c 00004CE0 		sub	r0, ip, r0
 6766 0840 18008BE5 		str	r0, [fp, #24]
 6767 0844 FEFFFFEB 		bl	memcpy
 6768 0848 FCFEFFEA 		b	.L1345
 6769              	.L1524:
 6770 084c 0B10A0E1 		mov	r1, fp
 6771 0850 0400A0E1 		mov	r0, r4
 6772 0854 FEFFFFEB 		bl	_ZN11flatbuffers15vector_downward12ensure_spaceEj
 6773 0858 183094E5 		ldr	r3, [r4, #24]
 6774 085c 0B20A0E1 		mov	r2, fp
 6775 0860 2C109DE5 		ldr	r1, [sp, #44]
 6776 0864 000043E0 		sub	r0, r3, r0
 6777 0868 180084E5 		str	r0, [r4, #24]
 6778 086c FEFFFFEB 		bl	memcpy
 6779 0870 5EFFFFEA 		b	.L1357
 6780              	.L1523:
 6781 0874 2630D4E5 		ldrb	r3, [r4, #38]	@ zero_extendqisi2
 6782 0878 000053E3 		cmp	r3, #0
 6783 087c 0901000A 		beq	.L1341
 6784 0880 283094E5 		ldr	r3, [r4, #40]
 6785 0884 0400A0E1 		mov	r0, r4
 6786 0888 2690C4E5 		strb	r9, [r4, #38]
 6787 088c 142094E5 		ldr	r2, [r4, #20]
 6788 0890 189094E5 		ldr	r9, [r4, #24]
 6789 0894 030053E3 		cmp	r3, #3
 6790 0898 103094E5 		ldr	r3, [r4, #16]
 6791 089c 28A08495 		strls	r10, [r4, #40]
 6792 08a0 029049E0 		sub	r9, r9, r2
 6793 08a4 039049E0 		sub	r9, r9, r3
 6794 08a8 039009E2 		and	r9, r9, #3
 6795 08ac 0910A0E1 		mov	r1, r9
 6796 08b0 FEFFFFEB 		bl	_ZN11flatbuffers15vector_downward12ensure_spaceEj
 6797 08b4 183094E5 		ldr	r3, [r4, #24]
 6798 08b8 000059E3 		cmp	r9, #0
 6799 08bc 000043E0 		sub	r0, r3, r0
 6800 08c0 180084E5 		str	r0, [r4, #24]
 6801 08c4 0700000A 		beq	.L1355
 6802 08c8 010059E3 		cmp	r9, #1
 6803 08cc 0050C0E5 		strb	r5, [r0]
 6804 08d0 0400000A 		beq	.L1355
 6805 08d4 183094E5 		ldr	r3, [r4, #24]
 6806 08d8 020059E3 		cmp	r9, #2
 6807 08dc 0150C3E5 		strb	r5, [r3, #1]
 6808 08e0 18309415 		ldrne	r3, [r4, #24]
 6809 08e4 0250C315 		strbne	r5, [r3, #2]
 6810              	.L1355:
 6811 08e8 0410A0E3 		mov	r1, #4
 6812 08ec 0400A0E1 		mov	r0, r4
 6813 08f0 FEFFFFEB 		bl	_ZN11flatbuffers15vector_downward12ensure_spaceEj
 6814 08f4 182094E5 		ldr	r2, [r4, #24]
 6815 08f8 141094E5 		ldr	r1, [r4, #20]
 6816 08fc 103094E5 		ldr	r3, [r4, #16]
 6817 0900 000042E0 		sub	r0, r2, r0
 6818 0904 011040E0 		sub	r1, r0, r1
 6819 0908 180084E5 		str	r0, [r4, #24]
 6820 090c 013043E0 		sub	r3, r3, r1
 6821 0910 005080E5 		str	r5, [r0]
 6822 0914 5DFFFFEA 		b	.L1356
 6823              	.L1525:
 6824 0918 2620DBE5 		ldrb	r2, [fp, #38]	@ zero_extendqisi2
 6825 091c 000052E3 		cmp	r2, #0
 6826 0920 E000000A 		beq	.L1341
 6827 0924 28209BE5 		ldr	r2, [fp, #40]
 6828 0928 0B00A0E1 		mov	r0, fp
 6829 092c 14109BE5 		ldr	r1, [fp, #20]
 6830 0930 2640CBE5 		strb	r4, [fp, #38]
 6831 0934 18409BE5 		ldr	r4, [fp, #24]
 6832 0938 030052E3 		cmp	r2, #3
 6833 093c 10209BE5 		ldr	r2, [fp, #16]
 6834 0940 28A08B95 		strls	r10, [fp, #40]
 6835 0944 014044E0 		sub	r4, r4, r1
 6836 0948 024044E0 		sub	r4, r4, r2
 6837 094c 034004E2 		and	r4, r4, #3
 6838 0950 0410A0E1 		mov	r1, r4
 6839 0954 FEFFFFEB 		bl	_ZN11flatbuffers15vector_downward12ensure_spaceEj
 6840 0958 18209BE5 		ldr	r2, [fp, #24]
 6841 095c 000054E3 		cmp	r4, #0
 6842 0960 000042E0 		sub	r0, r2, r0
 6843 0964 18008BE5 		str	r0, [fp, #24]
 6844 0968 0700000A 		beq	.L1343
 6845 096c 010054E3 		cmp	r4, #1
 6846 0970 0050C0E5 		strb	r5, [r0]
 6847 0974 0400000A 		beq	.L1343
 6848 0978 18209BE5 		ldr	r2, [fp, #24]
 6849 097c 020054E3 		cmp	r4, #2
 6850 0980 0150C2E5 		strb	r5, [r2, #1]
 6851 0984 18209B15 		ldrne	r2, [fp, #24]
 6852 0988 0250C215 		strbne	r5, [r2, #2]
 6853              	.L1343:
 6854 098c 0410A0E3 		mov	r1, #4
 6855 0990 0B00A0E1 		mov	r0, fp
 6856 0994 FEFFFFEB 		bl	_ZN11flatbuffers15vector_downward12ensure_spaceEj
 6857 0998 18209BE5 		ldr	r2, [fp, #24]
 6858 099c 14109BE5 		ldr	r1, [fp, #20]
 6859 09a0 10709BE5 		ldr	r7, [fp, #16]
 6860 09a4 000042E0 		sub	r0, r2, r0
 6861 09a8 011040E0 		sub	r1, r0, r1
 6862 09ac 18008BE5 		str	r0, [fp, #24]
 6863 09b0 017047E0 		sub	r7, r7, r1
 6864 09b4 005080E5 		str	r5, [r0]
 6865 09b8 C8FEFFEA 		b	.L1344
 6866              	.L1360:
 6867 09bc 40409DE5 		ldr	r4, [sp, #64]
 6868 09c0 001000E3 		movw	r1, #:lower16:.LC36
 6869 09c4 38309DE5 		ldr	r3, [sp, #56]
 6870 09c8 1720A0E3 		mov	r2, #23
 6871 09cc 001040E3 		movt	r1, #:upper16:.LC36
 6872 09d0 0400A0E1 		mov	r0, r4
 6873 09d4 036083E2 		add	r6, r3, #3
 6874 09d8 FEFFFFEB 		bl	_ZN11flatbuffers17FlatBufferBuilder12CreateStringEPKcj
 6875 09dc 2620D4E5 		ldrb	r2, [r4, #38]	@ zero_extendqisi2
 6876 09e0 0090A0E1 		mov	r9, r0
 6877 09e4 54529DE5 		ldr	r5, [sp, #596]
 6878 09e8 203094E5 		ldr	r3, [r4, #32]
 6879 09ec 000052E3 		cmp	r2, #0
 6880 09f0 018085E2 		add	r8, r5, #1
 6881 09f4 B400001A 		bne	.L1314
 6882 09f8 000053E3 		cmp	r3, #0
 6883 09fc B100001A 		bne	.L1316
 6884 0a00 183094E5 		ldr	r3, [r4, #24]
 6885 0a04 000058E3 		cmp	r8, #0
 6886 0a08 142094E5 		ldr	r2, [r4, #20]
 6887 0a0c 0110A0E3 		mov	r1, #1
 6888 0a10 107094E5 		ldr	r7, [r4, #16]
 6889 0a14 2610C4E5 		strb	r1, [r4, #38]
 6890 0a18 023043E0 		sub	r3, r3, r2
 6891 0a1c 037047E0 		sub	r7, r7, r3
 6892 0a20 5F00001A 		bne	.L1362
 6893 0a24 2C30D4E5 		ldrb	r3, [r4, #44]	@ zero_extendqisi2
 6894 0a28 000053E3 		cmp	r3, #0
 6895 0a2c 5C00001A 		bne	.L1362
 6896 0a30 000059E3 		cmp	r9, #0
 6897 0a34 8E00001A 		bne	.L1526
 6898              	.L1367:
 6899 0a38 0710A0E1 		mov	r1, r7
 6900 0a3c 0400A0E1 		mov	r0, r4
 6901 0a40 FEFFFFEB 		bl	_ZN11flatbuffers17FlatBufferBuilder8EndTableEm
 6902 0a44 40409DE5 		ldr	r4, [sp, #64]
 6903 0a48 263E8DE2 		add	r3, sp, #608
 6904 0a4c 055183E0 		add	r5, r3, r5, lsl #2
 6905 0a50 54729DE5 		ldr	r7, [sp, #596]
 6906 0a54 0661A0E1 		lsl	r6, r6, #2
 6907 0a58 2620D4E5 		ldrb	r2, [r4, #38]	@ zero_extendqisi2
 6908 0a5c 5C0005E5 		str	r0, [r5, #-92]
 6909 0a60 203094E5 		ldr	r3, [r4, #32]
 6910 0a64 000052E3 		cmp	r2, #0
 6911 0a68 9700001A 		bne	.L1314
 6912 0a6c 000053E3 		cmp	r3, #0
 6913 0a70 9400001A 		bne	.L1316
 6914 0a74 283094E5 		ldr	r3, [r4, #40]
 6915 0a78 0120A0E3 		mov	r2, #1
 6916 0a7c 2620C4E5 		strb	r2, [r4, #38]
 6917 0a80 0400A0E1 		mov	r0, r4
 6918 0a84 185094E5 		ldr	r5, [r4, #24]
 6919 0a88 030053E3 		cmp	r3, #3
 6920 0a8c 142094E5 		ldr	r2, [r4, #20]
 6921 0a90 0430A093 		movls	r3, #4
 6922 0a94 28308495 		strls	r3, [r4, #40]
 6923 0a98 103094E5 		ldr	r3, [r4, #16]
 6924 0a9c 025045E0 		sub	r5, r5, r2
 6925 0aa0 035045E0 		sub	r5, r5, r3
 6926 0aa4 035005E2 		and	r5, r5, #3
 6927 0aa8 0510A0E1 		mov	r1, r5
 6928 0aac FEFFFFEB 		bl	_ZN11flatbuffers15vector_downward12ensure_spaceEj
 6929 0ab0 183094E5 		ldr	r3, [r4, #24]
 6930 0ab4 000055E3 		cmp	r5, #0
 6931 0ab8 000043E0 		sub	r0, r3, r0
 6932 0abc 180084E5 		str	r0, [r4, #24]
 6933 0ac0 0800000A 		beq	.L1371
 6934 0ac4 010055E3 		cmp	r5, #1
 6935 0ac8 0030A0E3 		mov	r3, #0
 6936 0acc 0030C0E5 		strb	r3, [r0]
 6937 0ad0 0400000A 		beq	.L1371
 6938 0ad4 182094E5 		ldr	r2, [r4, #24]
 6939 0ad8 020055E3 		cmp	r5, #2
 6940 0adc 0130C2E5 		strb	r3, [r2, #1]
 6941 0ae0 18209415 		ldrne	r2, [r4, #24]
 6942 0ae4 0230C215 		strbne	r3, [r2, #2]
 6943              	.L1371:
 6944 0ae8 283094E5 		ldr	r3, [r4, #40]
 6945 0aec 0010A0E3 		mov	r1, #0
 6946 0af0 0400A0E1 		mov	r0, r4
 6947 0af4 000053E3 		cmp	r3, #0
 6948 0af8 0130A003 		moveq	r3, #1
 6949 0afc 28308405 		streq	r3, [r4, #40]
 6950 0b00 FEFFFFEB 		bl	_ZN11flatbuffers15vector_downward12ensure_spaceEj
 6951 0b04 183094E5 		ldr	r3, [r4, #24]
 6952 0b08 001056E2 		subs	r1, r6, #0
 6953 0b0c 003043E0 		sub	r3, r3, r0
 6954 0b10 0400A0E1 		mov	r0, r4
 6955 0b14 183084E5 		str	r3, [r4, #24]
 6956 0b18 0800000A 		beq	.L1522
 6957 0b1c FEFFFFEB 		bl	_ZN11flatbuffers15vector_downward12ensure_spaceEj
 6958 0b20 183094E5 		ldr	r3, [r4, #24]
 6959 0b24 0620A0E1 		mov	r2, r6
 6960 0b28 3C109DE5 		ldr	r1, [sp, #60]
 6961 0b2c 000043E0 		sub	r0, r3, r0
 6962 0b30 180084E5 		str	r0, [r4, #24]
 6963 0b34 FEFFFFEB 		bl	memcpy
 6964 0b38 0610A0E1 		mov	r1, r6
 6965 0b3c 0400A0E1 		mov	r0, r4
 6966              	.L1522:
 6967 0b40 FEFFFFEB 		bl	_ZN11flatbuffers17FlatBufferBuilder9EndVectorEj
 6968 0b44 7A3087E2 		add	r3, r7, #122
 6969 0b48 262E8DE2 		add	r2, sp, #608
 6970 0b4c 0010A0E1 		mov	r1, r0
 6971 0b50 0400A0E1 		mov	r0, r4
 6972 0b54 034182E0 		add	r4, r2, r3, lsl #2
 6973 0b58 FEFFFFEB 		bl	_ZN6tflite12CreateBufferERN11flatbuffers17FlatBufferBuilderENS0_6OffsetINS0_6VectorIhEEEE
 6974 0b5c 34209DE5 		ldr	r2, [sp, #52]
 6975 0b60 24309DE5 		ldr	r3, [sp, #36]
 6976 0b64 88129DE5 		ldr	r1, [sp, #648]
 6977 0b68 1C0204E5 		str	r0, [r4, #-540]
 6978 0b6c 40008DE2 		add	r0, sp, #64
 6979 0b70 1F3243E2 		sub	r3, r3, #-268435455
 6980 0b74 54C29DE5 		ldr	ip, [sp, #596]
 6981 0b78 033282E0 		add	r3, r2, r3, lsl #4
 6982 0b7c 04108DE5 		str	r1, [sp, #4]
 6983 0b80 060092E8 		ldm	r2, {r1, r2}
 6984 0b84 0CE093E5 		ldr	lr, [r3, #12]
 6985 0b88 01C08CE2 		add	ip, ip, #1
 6986 0b8c 083093E5 		ldr	r3, [r3, #8]
 6987 0b90 54C28DE5 		str	ip, [sp, #596]
 6988 0b94 00E08DE5 		str	lr, [sp]
 6989 0b98 FEFFFFEB 		bl	_ZN6tflite7testing12_GLOBAL__N_112ModelBuilder10BuildModelESt16initializer_listIlES4_j
 6990 0b9c 99DF8DE2 		add	sp, sp, #612
 6991              		@ sp needed
 6992 0ba0 F08FBDE8 		pop	{r4, r5, r6, r7, r8, r9, r10, fp, pc}
 6993              	.L1362:
 6994 0ba4 283094E5 		ldr	r3, [r4, #40]
 6995 0ba8 00A067E2 		rsb	r10, r7, #0
 6996 0bac 03A00AE2 		and	r10, r10, #3
 6997 0bb0 0400A0E1 		mov	r0, r4
 6998 0bb4 0A10A0E1 		mov	r1, r10
 6999 0bb8 030053E3 		cmp	r3, #3
 7000 0bbc 0430A093 		movls	r3, #4
 7001 0bc0 28308495 		strls	r3, [r4, #40]
 7002 0bc4 FEFFFFEB 		bl	_ZN11flatbuffers15vector_downward12ensure_spaceEj
 7003 0bc8 183094E5 		ldr	r3, [r4, #24]
 7004 0bcc 00005AE3 		cmp	r10, #0
 7005 0bd0 000043E0 		sub	r0, r3, r0
 7006 0bd4 180084E5 		str	r0, [r4, #24]
 7007 0bd8 0800000A 		beq	.L1364
 7008 0bdc 01005AE3 		cmp	r10, #1
 7009 0be0 0030A0E3 		mov	r3, #0
 7010 0be4 0030C0E5 		strb	r3, [r0]
 7011 0be8 0400000A 		beq	.L1364
 7012 0bec 182094E5 		ldr	r2, [r4, #24]
 7013 0bf0 02005AE3 		cmp	r10, #2
 7014 0bf4 0130C2E5 		strb	r3, [r2, #1]
 7015 0bf8 18209415 		ldrne	r2, [r4, #24]
 7016 0bfc 0230C215 		strbne	r3, [r2, #2]
 7017              	.L1364:
 7018 0c00 0410A0E3 		mov	r1, #4
 7019 0c04 0400A0E1 		mov	r0, r4
 7020 0c08 FEFFFFEB 		bl	_ZN11flatbuffers15vector_downward12ensure_spaceEj
 7021 0c0c 183094E5 		ldr	r3, [r4, #24]
 7022 0c10 0810A0E3 		mov	r1, #8
 7023 0c14 142094E5 		ldr	r2, [r4, #20]
 7024 0c18 000043E0 		sub	r0, r3, r0
 7025 0c1c 103094E5 		ldr	r3, [r4, #16]
 7026 0c20 022040E0 		sub	r2, r0, r2
 7027 0c24 180084E5 		str	r0, [r4, #24]
 7028 0c28 008080E5 		str	r8, [r0]
 7029 0c2c 0400A0E1 		mov	r0, r4
 7030 0c30 028043E0 		sub	r8, r3, r2
 7031 0c34 FEFFFFEB 		bl	_ZN11flatbuffers15vector_downward12ensure_spaceEj
 7032 0c38 1C3094E5 		ldr	r3, [r4, #28]
 7033 0c3c 0600A0E3 		mov	r0, #6
 7034 0c40 202094E5 		ldr	r2, [r4, #32]
 7035 0c44 081083E2 		add	r1, r3, #8
 7036 0c48 008083E5 		str	r8, [r3]
 7037 0c4c B400C3E1 		strh	r0, [r3, #4]	@ movhi
 7038 0c50 012082E2 		add	r2, r2, #1
 7039 0c54 B432D4E1 		ldrh	r3, [r4, #36]
 7040 0c58 1C1084E5 		str	r1, [r4, #28]
 7041 0c5c 202084E5 		str	r2, [r4, #32]
 7042 0c60 000053E1 		cmp	r3, r0
 7043 0c64 0030A0B1 		movlt	r3, r0
 7044 0c68 000059E3 		cmp	r9, #0
 7045 0c6c B432C4E1 		strh	r3, [r4, #36]	@ movhi
 7046 0c70 70FFFF0A 		beq	.L1367
 7047              	.L1526:
 7048 0c74 0910A0E1 		mov	r1, r9
 7049 0c78 0400A0E1 		mov	r0, r4
 7050 0c7c FEFFFFEB 		bl	_ZN11flatbuffers17FlatBufferBuilder7ReferToEm
 7051 0c80 002050E2 		subs	r2, r0, #0
 7052 0c84 0200001A 		bne	.L1368
 7053 0c88 2C30D4E5 		ldrb	r3, [r4, #44]	@ zero_extendqisi2
 7054 0c8c 000053E3 		cmp	r3, #0
 7055 0c90 68FFFF0A 		beq	.L1367
 7056              	.L1368:
 7057 0c94 0410A0E3 		mov	r1, #4
 7058 0c98 0400A0E1 		mov	r0, r4
 7059 0c9c FEFFFFEB 		bl	_ZN11flatbuffers17FlatBufferBuilder10AddElementImEEvtT_S2_.part.45
 7060 0ca0 64FFFFEA 		b	.L1367
 7061              	.L1319:
 7062 0ca4 FEFFFFEB 		bl	abort
 7063              	.L1341:
 7064 0ca8 003000E3 		movw	r3, #:lower16:.LC26
 7065 0cac 002000E3 		movw	r2, #:lower16:.LANCHOR14
 7066 0cb0 000000E3 		movw	r0, #:lower16:.LC19
 7067 0cb4 003040E3 		movt	r3, #:upper16:.LC26
 7068 0cb8 002040E3 		movt	r2, #:upper16:.LANCHOR14
 7069 0cbc 000040E3 		movt	r0, #:upper16:.LC19
 7070 0cc0 2C1600E3 		movw	r1, #1580
 7071 0cc4 FEFFFFEB 		bl	__assert_func
 7072              	.L1316:
 7073 0cc8 FEFFFFEB 		bl	_ZN11flatbuffers17FlatBufferBuilder9NotNestedEv.isra.20.part.21
 7074              	.L1314:
 7075 0ccc 003000E3 		movw	r3, #:lower16:.LC24
 7076 0cd0 002000E3 		movw	r2, #:lower16:.LANCHOR11
 7077 0cd4 000000E3 		movw	r0, #:lower16:.LC19
 7078 0cd8 003040E3 		movt	r3, #:upper16:.LC24
 7079 0cdc 002040E3 		movt	r2, #:upper16:.LANCHOR11
 7080 0ce0 000040E3 		movt	r0, #:upper16:.LC19
 7081 0ce4 481500E3 		movw	r1, #1352
 7082 0ce8 FEFFFFEB 		bl	__assert_func
 7083              		.fnend
 7085              		.section	.text._ZN6tflite7testing12_GLOBAL__N_124BuildSimpleStatefulModelEv,"ax",%progbits
 7086              		.align	2
 7087              		.syntax unified
 7088              		.arm
 7089              		.fpu neon
 7091              	_ZN6tflite7testing12_GLOBAL__N_124BuildSimpleStatefulModelEv:
 7092              		.fnstart
 7093              	.LFB7062:
 7094              		@ args = 0, pretend = 0, frame = 592
 7095              		@ frame_needed = 0, uses_anonymous_args = 0
 7096 0000 F04F2DE9 		push	{r4, r5, r6, r7, r8, r9, r10, fp, lr}
 7097              		.save {r4, r5, r6, r7, r8, r9, r10, fp, lr}
 7098              		.pad #612
 7099 0004 99DF4DE2 		sub	sp, sp, #612
 7100 0008 FEFFFFEB 		bl	_ZN6tflite7testing12_GLOBAL__N_115BuilderInstanceEv
 7101 000c 001000E3 		movw	r1, #:lower16:.LC37
 7102 0010 0040A0E3 		mov	r4, #0
 7103 0014 5000C0F2 		vmov.i32	q8, #0  @ v4si
 7104 0018 001040E3 		movt	r1, #:upper16:.LC37
 7105 001c 2020A0E3 		mov	r2, #32
 7106 0020 40008DE5 		str	r0, [sp, #64]
 7107 0024 44408DE5 		str	r4, [sp, #68]
 7108 0028 140BCDED 		vstr	d16, [sp, #80]
 7109 002c 161BCDED 		vstr	d17, [sp, #88]
 7110 0030 48408DE5 		str	r4, [sp, #72]
 7111 0034 1C0BCDED 		vstr	d16, [sp, #112]
 7112 0038 1E1BCDED 		vstr	d17, [sp, #120]
 7113 003c 4C408DE5 		str	r4, [sp, #76]
 7114 0040 200BCDED 		vstr	d16, [sp, #128]
 7115 0044 221BCDED 		vstr	d17, [sp, #136]
 7116 0048 60408DE5 		str	r4, [sp, #96]
 7117 004c 240BCDED 		vstr	d16, [sp, #144]
 7118 0050 261BCDED 		vstr	d17, [sp, #152]
 7119 0054 64408DE5 		str	r4, [sp, #100]
 7120 0058 280BCDED 		vstr	d16, [sp, #160]
 7121 005c 2A1BCDED 		vstr	d17, [sp, #168]
 7122 0060 68408DE5 		str	r4, [sp, #104]
 7123 0064 2C0BCDED 		vstr	d16, [sp, #176]
 7124 0068 2E1BCDED 		vstr	d17, [sp, #184]
 7125 006c 6C408DE5 		str	r4, [sp, #108]
 7126 0070 300BCDED 		vstr	d16, [sp, #192]
 7127 0074 321BCDED 		vstr	d17, [sp, #200]
 7128 0078 30418DE5 		str	r4, [sp, #304]
 7129 007c 340BCDED 		vstr	d16, [sp, #208]
 7130 0080 361BCDED 		vstr	d17, [sp, #216]
 7131 0084 34418DE5 		str	r4, [sp, #308]
 7132 0088 380BCDED 		vstr	d16, [sp, #224]
 7133 008c 3A1BCDED 		vstr	d17, [sp, #232]
 7134 0090 38418DE5 		str	r4, [sp, #312]
 7135 0094 3C0BCDED 		vstr	d16, [sp, #240]
 7136 0098 3E1BCDED 		vstr	d17, [sp, #248]
 7137 009c 3C418DE5 		str	r4, [sp, #316]
 7138 00a0 400BCDED 		vstr	d16, [sp, #256]
 7139 00a4 421BCDED 		vstr	d17, [sp, #264]
 7140 00a8 40418DE5 		str	r4, [sp, #320]
 7141 00ac 440BCDED 		vstr	d16, [sp, #272]
 7142 00b0 461BCDED 		vstr	d17, [sp, #280]
 7143 00b4 44418DE5 		str	r4, [sp, #324]
 7144 00b8 480BCDED 		vstr	d16, [sp, #288]
 7145 00bc 4A1BCDED 		vstr	d17, [sp, #296]
 7146 00c0 520BCDED 		vstr	d16, [sp, #328]
 7147 00c4 541BCDED 		vstr	d17, [sp, #336]
 7148 00c8 560BCDED 		vstr	d16, [sp, #344]
 7149 00cc 581BCDED 		vstr	d17, [sp, #352]
 7150 00d0 5A0BCDED 		vstr	d16, [sp, #360]
 7151 00d4 5C1BCDED 		vstr	d17, [sp, #368]
 7152 00d8 5E0BCDED 		vstr	d16, [sp, #376]
 7153 00dc 601BCDED 		vstr	d17, [sp, #384]
 7154 00e0 620BCDED 		vstr	d16, [sp, #392]
 7155 00e4 641BCDED 		vstr	d17, [sp, #400]
 7156 00e8 660BCDED 		vstr	d16, [sp, #408]
 7157 00ec 681BCDED 		vstr	d17, [sp, #416]
 7158 00f0 F8418DE5 		str	r4, [sp, #504]
 7159 00f4 6A0BCDED 		vstr	d16, [sp, #424]
 7160 00f8 6C1BCDED 		vstr	d17, [sp, #432]
 7161 00fc FC418DE5 		str	r4, [sp, #508]
 7162 0100 6E0BCDED 		vstr	d16, [sp, #440]
 7163 0104 701BCDED 		vstr	d17, [sp, #448]
 7164 0108 00428DE5 		str	r4, [sp, #512]
 7165 010c 720BCDED 		vstr	d16, [sp, #456]
 7166 0110 741BCDED 		vstr	d17, [sp, #464]
 7167 0114 04428DE5 		str	r4, [sp, #516]
 7168 0118 760BCDED 		vstr	d16, [sp, #472]
 7169 011c 781BCDED 		vstr	d17, [sp, #480]
 7170 0120 08428DE5 		str	r4, [sp, #520]
 7171 0124 7A0BCDED 		vstr	d16, [sp, #488]
 7172 0128 7C1BCDED 		vstr	d17, [sp, #496]
 7173 012c 0C428DE5 		str	r4, [sp, #524]
 7174 0130 840BCDED 		vstr	d16, [sp, #528]
 7175 0134 861BCDED 		vstr	d17, [sp, #536]
 7176 0138 20428DE5 		str	r4, [sp, #544]
 7177 013c 24428DE5 		str	r4, [sp, #548]
 7178 0140 28428DE5 		str	r4, [sp, #552]
 7179 0144 2C428DE5 		str	r4, [sp, #556]
 7180 0148 30428DE5 		str	r4, [sp, #560]
 7181 014c 34428DE5 		str	r4, [sp, #564]
 7182 0150 8E0BCDED 		vstr	d16, [sp, #568]
 7183 0154 901BCDED 		vstr	d17, [sp, #576]
 7184 0158 48428DE5 		str	r4, [sp, #584]
 7185 015c 4C428DE5 		str	r4, [sp, #588]
 7186 0160 50428DE5 		str	r4, [sp, #592]
 7187 0164 54428DE5 		str	r4, [sp, #596]
 7188 0168 58428DE5 		str	r4, [sp, #600]
 7189 016c FEFFFFEB 		bl	_ZN6tflite24CreateOperatorCodeDirectERN11flatbuffers17FlatBufferBuilderEaPKclNS_15BuiltinOperat
 7190 0170 58529DE5 		ldr	r5, [sp, #600]
 7191 0174 6C709DE5 		ldr	r7, [sp, #108]
 7192 0178 44008DE5 		str	r0, [sp, #68]
 7193 017c 320055E3 		cmp	r5, #50
 7194 0180 013087E2 		add	r3, r7, #1
 7195 0184 6C308DE5 		str	r3, [sp, #108]
 7196 0188 870000CA 		bgt	.L1529
 7197 018c 40609DE5 		ldr	r6, [sp, #64]
 7198 0190 0110A0E3 		mov	r1, #1
 7199 0194 3E5085E2 		add	r5, r5, #62
 7200 0198 0600A0E1 		mov	r0, r6
 7201 019c FEFFFFEB 		bl	_ZN11flatbuffers17FlatBufferBuilder11StartVectorEjj.constprop.148
 7202 01a0 0410A0E3 		mov	r1, #4
 7203 01a4 0600A0E1 		mov	r0, r6
 7204 01a8 FEFFFFEB 		bl	_ZN11flatbuffers15vector_downward12ensure_spaceEj
 7205 01ac 183096E5 		ldr	r3, [r6, #24]
 7206 01b0 001000E3 		movw	r1, #:lower16:.LANCHOR24
 7207 01b4 0420A0E3 		mov	r2, #4
 7208 01b8 001040E3 		movt	r1, #:upper16:.LANCHOR24
 7209 01bc 000043E0 		sub	r0, r3, r0
 7210 01c0 180086E5 		str	r0, [r6, #24]
 7211 01c4 FEFFFFEB 		bl	memcpy
 7212 01c8 0110A0E3 		mov	r1, #1
 7213 01cc 0600A0E1 		mov	r0, r6
 7214 01d0 FEFFFFEB 		bl	_ZN11flatbuffers17FlatBufferBuilder9EndVectorEj
 7215 01d4 0430A0E1 		mov	r3, r4
 7216 01d8 0010A0E1 		mov	r1, r0
 7217 01dc 26CE8DE2 		add	ip, sp, #608
 7218 01e0 08408DE5 		str	r4, [sp, #8]
 7219 01e4 0600A0E1 		mov	r0, r6
 7220 01e8 04408DE5 		str	r4, [sp, #4]
 7221 01ec 00408DE5 		str	r4, [sp]
 7222 01f0 0320A0E3 		mov	r2, #3
 7223 01f4 05518CE0 		add	r5, ip, r5, lsl #2
 7224 01f8 FEFFFFEB 		bl	_ZN6tflite12CreateTensorERN11flatbuffers17FlatBufferBuilderENS0_6OffsetINS0_6VectorIlEEEENS_10T
 7225 01fc 58829DE5 		ldr	r8, [sp, #600]
 7226 0200 1C0205E5 		str	r0, [r5, #-540]
 7227 0204 013088E2 		add	r3, r8, #1
 7228 0208 320053E3 		cmp	r3, #50
 7229 020c 58328DE5 		str	r3, [sp, #600]
 7230 0210 650000CA 		bgt	.L1529
 7231 0214 40509DE5 		ldr	r5, [sp, #64]
 7232 0218 0110A0E3 		mov	r1, #1
 7233 021c 0500A0E1 		mov	r0, r5
 7234 0220 FEFFFFEB 		bl	_ZN11flatbuffers17FlatBufferBuilder11StartVectorEjj.constprop.148
 7235 0224 0500A0E1 		mov	r0, r5
 7236 0228 0410A0E3 		mov	r1, #4
 7237 022c FEFFFFEB 		bl	_ZN11flatbuffers15vector_downward12ensure_spaceEj
 7238 0230 183095E5 		ldr	r3, [r5, #24]
 7239 0234 001000E3 		movw	r1, #:lower16:.LANCHOR25
 7240 0238 0420A0E3 		mov	r2, #4
 7241 023c 001040E3 		movt	r1, #:upper16:.LANCHOR25
 7242 0240 000043E0 		sub	r0, r3, r0
 7243 0244 180085E5 		str	r0, [r5, #24]
 7244 0248 FEFFFFEB 		bl	memcpy
 7245 024c 0500A0E1 		mov	r0, r5
 7246 0250 0110A0E3 		mov	r1, #1
 7247 0254 FEFFFFEB 		bl	_ZN11flatbuffers17FlatBufferBuilder9EndVectorEj
 7248 0258 0430A0E1 		mov	r3, r4
 7249 025c 0010A0E1 		mov	r1, r0
 7250 0260 26CE8DE2 		add	ip, sp, #608
 7251 0264 0500A0E1 		mov	r0, r5
 7252 0268 08408DE5 		str	r4, [sp, #8]
 7253 026c 3F5088E2 		add	r5, r8, #63
 7254 0270 04408DE5 		str	r4, [sp, #4]
 7255 0274 0320A0E3 		mov	r2, #3
 7256 0278 00408DE5 		str	r4, [sp]
 7257 027c 05518CE0 		add	r5, ip, r5, lsl #2
 7258 0280 FEFFFFEB 		bl	_ZN6tflite12CreateTensorERN11flatbuffers17FlatBufferBuilderENS0_6OffsetINS0_6VectorIlEEEENS_10T
 7259 0284 58929DE5 		ldr	r9, [sp, #600]
 7260 0288 1C0205E5 		str	r0, [r5, #-540]
 7261 028c 013089E2 		add	r3, r9, #1
 7262 0290 320053E3 		cmp	r3, #50
 7263 0294 58328DE5 		str	r3, [sp, #600]
 7264 0298 430000CA 		bgt	.L1529
 7265 029c 40509DE5 		ldr	r5, [sp, #64]
 7266 02a0 0110A0E3 		mov	r1, #1
 7267 02a4 01B0A0E1 		mov	fp, r1
 7268 02a8 02A0A0E3 		mov	r10, #2
 7269 02ac 266E8DE2 		add	r6, sp, #608
 7270 02b0 0500A0E1 		mov	r0, r5
 7271 02b4 FEFFFFEB 		bl	_ZN11flatbuffers17FlatBufferBuilder11StartVectorEjj.constprop.148
 7272 02b8 0500A0E1 		mov	r0, r5
 7273 02bc 0410A0E3 		mov	r1, #4
 7274 02c0 FEFFFFEB 		bl	_ZN11flatbuffers15vector_downward12ensure_spaceEj
 7275 02c4 183095E5 		ldr	r3, [r5, #24]
 7276 02c8 001000E3 		movw	r1, #:lower16:.LANCHOR26
 7277 02cc 0420A0E3 		mov	r2, #4
 7278 02d0 001040E3 		movt	r1, #:upper16:.LANCHOR26
 7279 02d4 000043E0 		sub	r0, r3, r0
 7280 02d8 180085E5 		str	r0, [r5, #24]
 7281 02dc FEFFFFEB 		bl	memcpy
 7282 02e0 0B10A0E1 		mov	r1, fp
 7283 02e4 0500A0E1 		mov	r0, r5
 7284 02e8 FEFFFFEB 		bl	_ZN11flatbuffers17FlatBufferBuilder9EndVectorEj
 7285 02ec 3F3089E2 		add	r3, r9, #63
 7286 02f0 262E8DE2 		add	r2, sp, #608
 7287 02f4 0010A0E1 		mov	r1, r0
 7288 02f8 0500A0E1 		mov	r0, r5
 7289 02fc 135A82E0 		add	r5, r2, r3, lsl r10
 7290 0300 08408DE5 		str	r4, [sp, #8]
 7291 0304 0430A0E1 		mov	r3, r4
 7292 0308 04408DE5 		str	r4, [sp, #4]
 7293 030c 0A20A0E1 		mov	r2, r10
 7294 0310 00408DE5 		str	r4, [sp]
 7295 0314 FEFFFFEB 		bl	_ZN6tflite12CreateTensorERN11flatbuffers17FlatBufferBuilderENS0_6OffsetINS0_6VectorIlEEEENS_10T
 7296 0318 38108DE2 		add	r1, sp, #56
 7297 031c 1C0205E5 		str	r0, [r5, #-540]
 7298 0320 28208DE2 		add	r2, sp, #40
 7299 0324 58529DE5 		ldr	r5, [sp, #600]
 7300 0328 28108DE5 		str	r1, [sp, #40]
 7301 032c 20308DE2 		add	r3, sp, #32
 7302 0330 2CA08DE5 		str	r10, [sp, #44]
 7303 0334 030092E8 		ldm	r2, {r0, r1}
 7304 0338 0BC085E0 		add	ip, r5, fp
 7305 033c 308226E5 		str	r8, [r6, #-560]!
 7306 0340 24B08DE5 		str	fp, [sp, #36]
 7307 0344 03008DE8 		stm	sp, {r0, r1}
 7308 0348 0710A0E1 		mov	r1, r7
 7309 034c 20608DE5 		str	r6, [sp, #32]
 7310 0350 40008DE2 		add	r0, sp, #64
 7311 0354 0C0093E8 		ldm	r3, {r2, r3}
 7312 0358 58C28DE5 		str	ip, [sp, #600]
 7313 035c 38908DE5 		str	r9, [sp, #56]
 7314 0360 3C508DE5 		str	r5, [sp, #60]
 7315 0364 FEFFFFEB 		bl	_ZN6tflite7testing12_GLOBAL__N_112ModelBuilder7AddNodeEiSt16initializer_listIlES4_
 7316 0368 262E8DE2 		add	r2, sp, #608
 7317 036c 18C08DE2 		add	ip, sp, #24
 7318 0370 00A08DE5 		str	r10, [sp]
 7319 0374 40008DE2 		add	r0, sp, #64
 7320 0378 04408DE5 		str	r4, [sp, #4]
 7321 037c 0C30A0E1 		mov	r3, ip
 7322 0380 4C8222E5 		str	r8, [r2, #-588]!
 7323 0384 34B08DE5 		str	fp, [sp, #52]
 7324 0388 30208DE5 		str	r2, [sp, #48]
 7325 038c 060096E8 		ldm	r6, {r1, r2}
 7326 0390 1C508DE5 		str	r5, [sp, #28]
 7327 0394 3CA08DE5 		str	r10, [sp, #60]
 7328 0398 18908DE5 		str	r9, [sp, #24]
 7329 039c 38C08DE5 		str	ip, [sp, #56]
 7330 03a0 FEFFFFEB 		bl	_ZN6tflite7testing12_GLOBAL__N_112ModelBuilder10BuildModelESt16initializer_listIlES4_j
 7331 03a4 99DF8DE2 		add	sp, sp, #612
 7332              		@ sp needed
 7333 03a8 F08FBDE8 		pop	{r4, r5, r6, r7, r8, r9, r10, fp, pc}
 7334              	.L1529:
 7335 03ac FEFFFFEB 		bl	abort
 7336              		.fnend
 7338              		.section	.text._ZN6tflite7testing16SimpleStatefulOp15getRegistrationEv,"ax",%progbits
 7339              		.align	2
 7340              		.global	_ZN6tflite7testing16SimpleStatefulOp15getRegistrationEv
 7341              		.syntax unified
 7342              		.arm
 7343              		.fpu neon
 7345              	_ZN6tflite7testing16SimpleStatefulOp15getRegistrationEv:
 7346              		.fnstart
 7347              	.LFB11802:
 7348              		@ args = 0, pretend = 0, frame = 0
 7349              		@ frame_needed = 0, uses_anonymous_args = 0
 7350              		@ link register save eliminated.
 7351 0000 003000E3 		movw	r3, #:lower16:.LANCHOR27
 7352 0004 000000E3 		movw	r0, #:lower16:_ZN6tflite7testing16SimpleStatefulOp4InitEP13TfLiteContextPKcj
 7353 0008 001000E3 		movw	r1, #:lower16:_ZN6tflite7testing16SimpleStatefulOp7PrepareEP13TfLiteContextP10TfLiteNode
 7354 000c 002000E3 		movw	r2, #:lower16:_ZN6tflite7testing16SimpleStatefulOp6InvokeEP13TfLiteContextP10TfLiteNode
 7355 0010 003040E3 		movt	r3, #:upper16:.LANCHOR27
 7356 0014 000040E3 		movt	r0, #:upper16:_ZN6tflite7testing16SimpleStatefulOp4InitEP13TfLiteContextPKcj
 7357 0018 001040E3 		movt	r1, #:upper16:_ZN6tflite7testing16SimpleStatefulOp7PrepareEP13TfLiteContextP10TfLiteNode
 7358 001c 002040E3 		movt	r2, #:upper16:_ZN6tflite7testing16SimpleStatefulOp6InvokeEP13TfLiteContextP10TfLiteNode
 7359 0020 000083E5 		str	r0, [r3]
 7360 0024 0300A0E1 		mov	r0, r3
 7361 0028 081083E5 		str	r1, [r3, #8]
 7362 002c 0C2083E5 		str	r2, [r3, #12]
 7363 0030 1EFF2FE1 		bx	lr
 7364              		.cantunwind
 7365              		.fnend
 7367              		.section	.text._ZN6tflite7testing16SimpleStatefulOp22GetMutableRegistrationEv,"ax",%progbits
 7368              		.align	2
 7369              		.global	_ZN6tflite7testing16SimpleStatefulOp22GetMutableRegistrationEv
 7370              		.syntax unified
 7371              		.arm
 7372              		.fpu neon
 7374              	_ZN6tflite7testing16SimpleStatefulOp22GetMutableRegistrationEv:
 7375              		.fnstart
 7376              	.LFB7071:
 7377              		@ args = 0, pretend = 0, frame = 0
 7378              		@ frame_needed = 0, uses_anonymous_args = 0
 7379              		@ link register save eliminated.
 7380 0000 003000E3 		movw	r3, #:lower16:.LANCHOR27
 7381 0004 000000E3 		movw	r0, #:lower16:_ZN6tflite7testing16SimpleStatefulOp4InitEP13TfLiteContextPKcj
 7382 0008 001000E3 		movw	r1, #:lower16:_ZN6tflite7testing16SimpleStatefulOp7PrepareEP13TfLiteContextP10TfLiteNode
 7383 000c 002000E3 		movw	r2, #:lower16:_ZN6tflite7testing16SimpleStatefulOp6InvokeEP13TfLiteContextP10TfLiteNode
 7384 0010 003040E3 		movt	r3, #:upper16:.LANCHOR27
 7385 0014 000040E3 		movt	r0, #:upper16:_ZN6tflite7testing16SimpleStatefulOp4InitEP13TfLiteContextPKcj
 7386 0018 001040E3 		movt	r1, #:upper16:_ZN6tflite7testing16SimpleStatefulOp7PrepareEP13TfLiteContextP10TfLiteNode
 7387 001c 002040E3 		movt	r2, #:upper16:_ZN6tflite7testing16SimpleStatefulOp6InvokeEP13TfLiteContextP10TfLiteNode
 7388 0020 000083E5 		str	r0, [r3]
 7389 0024 0300A0E1 		mov	r0, r3
 7390 0028 081083E5 		str	r1, [r3, #8]
 7391 002c 0C2083E5 		str	r2, [r3, #12]
 7392 0030 1EFF2FE1 		bx	lr
 7393              		.cantunwind
 7394              		.fnend
 7396              		.section	.text._ZN6tflite7testing10MockCustom15getRegistrationEv,"ax",%progbits
 7397              		.align	2
 7398              		.global	_ZN6tflite7testing10MockCustom15getRegistrationEv
 7399              		.syntax unified
 7400              		.arm
 7401              		.fpu neon
 7403              	_ZN6tflite7testing10MockCustom15getRegistrationEv:
 7404              		.fnstart
 7405              	.LFB11800:
 7406              		@ args = 0, pretend = 0, frame = 16
 7407              		@ frame_needed = 0, uses_anonymous_args = 0
 7408              		@ link register save eliminated.
 7409 0000 003000E3 		movw	r3, #:lower16:_ZN6tflite7testing10MockCustom4InitEP13TfLiteContextPKcj
 7410 0004 000000E3 		movw	r0, #:lower16:_ZN6tflite7testing10MockCustom4FreeEP13TfLiteContextPv
 7411 0008 001000E3 		movw	r1, #:lower16:_ZN6tflite7testing10MockCustom7PrepareEP13TfLiteContextP10TfLiteNode
 7412 000c 002000E3 		movw	r2, #:lower16:_ZN6tflite7testing10MockCustom6InvokeEP13TfLiteContextP10TfLiteNode
 7413 0010 10D04DE2 		sub	sp, sp, #16
 7414 0014 003040E3 		movt	r3, #:upper16:_ZN6tflite7testing10MockCustom4InitEP13TfLiteContextPKcj
 7415 0018 000040E3 		movt	r0, #:upper16:_ZN6tflite7testing10MockCustom4FreeEP13TfLiteContextPv
 7416 001c 001040E3 		movt	r1, #:upper16:_ZN6tflite7testing10MockCustom7PrepareEP13TfLiteContextP10TfLiteNode
 7417 0020 002040E3 		movt	r2, #:upper16:_ZN6tflite7testing10MockCustom6InvokeEP13TfLiteContextP10TfLiteNode
 7418 0024 00308DE5 		str	r3, [sp]
 7419 0028 04008DE5 		str	r0, [sp, #4]
 7420 002c 003000E3 		movw	r3, #:lower16:.LANCHOR28
 7421 0030 08108DE5 		str	r1, [sp, #8]
 7422 0034 003040E3 		movt	r3, #:upper16:.LANCHOR28
 7423 0038 0C208DE5 		str	r2, [sp, #12]
 7424 003c 0300A0E1 		mov	r0, r3
 7425 0040 DF0A6DF4 		vld1.64	{d16-d17}, [sp:64]
 7426 0044 DF0A43F4 		vst1.64	{d16-d17}, [r3:64]
 7427 0048 10D08DE2 		add	sp, sp, #16
 7428              		@ sp needed
 7429 004c 1EFF2FE1 		bx	lr
 7430              		.cantunwind
 7431              		.fnend
 7433              		.section	.text._ZN6tflite7testing10MockCustom22GetMutableRegistrationEv,"ax",%progbits
 7434              		.align	2
 7435              		.global	_ZN6tflite7testing10MockCustom22GetMutableRegistrationEv
 7436              		.syntax unified
 7437              		.arm
 7438              		.fpu neon
 7440              	_ZN6tflite7testing10MockCustom22GetMutableRegistrationEv:
 7441              		.fnstart
 7442              	.LFB7076:
 7443              		@ args = 0, pretend = 0, frame = 16
 7444              		@ frame_needed = 0, uses_anonymous_args = 0
 7445              		@ link register save eliminated.
 7446 0000 003000E3 		movw	r3, #:lower16:_ZN6tflite7testing10MockCustom4InitEP13TfLiteContextPKcj
 7447 0004 000000E3 		movw	r0, #:lower16:_ZN6tflite7testing10MockCustom4FreeEP13TfLiteContextPv
 7448 0008 001000E3 		movw	r1, #:lower16:_ZN6tflite7testing10MockCustom7PrepareEP13TfLiteContextP10TfLiteNode
 7449 000c 002000E3 		movw	r2, #:lower16:_ZN6tflite7testing10MockCustom6InvokeEP13TfLiteContextP10TfLiteNode
 7450 0010 10D04DE2 		sub	sp, sp, #16
 7451 0014 003040E3 		movt	r3, #:upper16:_ZN6tflite7testing10MockCustom4InitEP13TfLiteContextPKcj
 7452 0018 000040E3 		movt	r0, #:upper16:_ZN6tflite7testing10MockCustom4FreeEP13TfLiteContextPv
 7453 001c 001040E3 		movt	r1, #:upper16:_ZN6tflite7testing10MockCustom7PrepareEP13TfLiteContextP10TfLiteNode
 7454 0020 002040E3 		movt	r2, #:upper16:_ZN6tflite7testing10MockCustom6InvokeEP13TfLiteContextP10TfLiteNode
 7455 0024 00308DE5 		str	r3, [sp]
 7456 0028 04008DE5 		str	r0, [sp, #4]
 7457 002c 003000E3 		movw	r3, #:lower16:.LANCHOR28
 7458 0030 08108DE5 		str	r1, [sp, #8]
 7459 0034 003040E3 		movt	r3, #:upper16:.LANCHOR28
 7460 0038 0C208DE5 		str	r2, [sp, #12]
 7461 003c 0300A0E1 		mov	r0, r3
 7462 0040 DF0A6DF4 		vld1.64	{d16-d17}, [sp:64]
 7463 0044 DF0A43F4 		vst1.64	{d16-d17}, [r3:64]
 7464 0048 10D08DE2 		add	sp, sp, #16
 7465              		@ sp needed
 7466 004c 1EFF2FE1 		bx	lr
 7467              		.cantunwind
 7468              		.fnend
 7470              		.section	.text._ZN6tflite7testing14MultipleInputs15getRegistrationEv,"ax",%progbits
 7471              		.align	2
 7472              		.global	_ZN6tflite7testing14MultipleInputs15getRegistrationEv
 7473              		.syntax unified
 7474              		.arm
 7475              		.fpu neon
 7477              	_ZN6tflite7testing14MultipleInputs15getRegistrationEv:
 7478              		.fnstart
 7479              	.LFB11804:
 7480              		@ args = 0, pretend = 0, frame = 16
 7481              		@ frame_needed = 0, uses_anonymous_args = 0
 7482              		@ link register save eliminated.
 7483 0000 003000E3 		movw	r3, #:lower16:_ZN6tflite7testing14MultipleInputs4InitEP13TfLiteContextPKcj
 7484 0004 000000E3 		movw	r0, #:lower16:_ZN6tflite7testing14MultipleInputs4FreeEP13TfLiteContextPv
 7485 0008 001000E3 		movw	r1, #:lower16:_ZN6tflite7testing14MultipleInputs7PrepareEP13TfLiteContextP10TfLiteNode
 7486 000c 002000E3 		movw	r2, #:lower16:_ZN6tflite7testing14MultipleInputs6InvokeEP13TfLiteContextP10TfLiteNode
 7487 0010 10D04DE2 		sub	sp, sp, #16
 7488 0014 003040E3 		movt	r3, #:upper16:_ZN6tflite7testing14MultipleInputs4InitEP13TfLiteContextPKcj
 7489 0018 000040E3 		movt	r0, #:upper16:_ZN6tflite7testing14MultipleInputs4FreeEP13TfLiteContextPv
 7490 001c 001040E3 		movt	r1, #:upper16:_ZN6tflite7testing14MultipleInputs7PrepareEP13TfLiteContextP10TfLiteNode
 7491 0020 002040E3 		movt	r2, #:upper16:_ZN6tflite7testing14MultipleInputs6InvokeEP13TfLiteContextP10TfLiteNode
 7492 0024 00308DE5 		str	r3, [sp]
 7493 0028 04008DE5 		str	r0, [sp, #4]
 7494 002c 003000E3 		movw	r3, #:lower16:.LANCHOR29
 7495 0030 08108DE5 		str	r1, [sp, #8]
 7496 0034 003040E3 		movt	r3, #:upper16:.LANCHOR29
 7497 0038 0C208DE5 		str	r2, [sp, #12]
 7498 003c 0300A0E1 		mov	r0, r3
 7499 0040 DF0A6DF4 		vld1.64	{d16-d17}, [sp:64]
 7500 0044 DF0A43F4 		vst1.64	{d16-d17}, [r3:64]
 7501 0048 10D08DE2 		add	sp, sp, #16
 7502              		@ sp needed
 7503 004c 1EFF2FE1 		bx	lr
 7504              		.cantunwind
 7505              		.fnend
 7507              		.section	.text._ZN6tflite7testing14MultipleInputs22GetMutableRegistrationEv,"ax",%progbits
 7508              		.align	2
 7509              		.global	_ZN6tflite7testing14MultipleInputs22GetMutableRegistrationEv
 7510              		.syntax unified
 7511              		.arm
 7512              		.fpu neon
 7514              	_ZN6tflite7testing14MultipleInputs22GetMutableRegistrationEv:
 7515              		.fnstart
 7516              	.LFB7082:
 7517              		@ args = 0, pretend = 0, frame = 16
 7518              		@ frame_needed = 0, uses_anonymous_args = 0
 7519              		@ link register save eliminated.
 7520 0000 003000E3 		movw	r3, #:lower16:_ZN6tflite7testing14MultipleInputs4InitEP13TfLiteContextPKcj
 7521 0004 000000E3 		movw	r0, #:lower16:_ZN6tflite7testing14MultipleInputs4FreeEP13TfLiteContextPv
 7522 0008 001000E3 		movw	r1, #:lower16:_ZN6tflite7testing14MultipleInputs7PrepareEP13TfLiteContextP10TfLiteNode
 7523 000c 002000E3 		movw	r2, #:lower16:_ZN6tflite7testing14MultipleInputs6InvokeEP13TfLiteContextP10TfLiteNode
 7524 0010 10D04DE2 		sub	sp, sp, #16
 7525 0014 003040E3 		movt	r3, #:upper16:_ZN6tflite7testing14MultipleInputs4InitEP13TfLiteContextPKcj
 7526 0018 000040E3 		movt	r0, #:upper16:_ZN6tflite7testing14MultipleInputs4FreeEP13TfLiteContextPv
 7527 001c 001040E3 		movt	r1, #:upper16:_ZN6tflite7testing14MultipleInputs7PrepareEP13TfLiteContextP10TfLiteNode
 7528 0020 002040E3 		movt	r2, #:upper16:_ZN6tflite7testing14MultipleInputs6InvokeEP13TfLiteContextP10TfLiteNode
 7529 0024 00308DE5 		str	r3, [sp]
 7530 0028 04008DE5 		str	r0, [sp, #4]
 7531 002c 003000E3 		movw	r3, #:lower16:.LANCHOR29
 7532 0030 08108DE5 		str	r1, [sp, #8]
 7533 0034 003040E3 		movt	r3, #:upper16:.LANCHOR29
 7534 0038 0C208DE5 		str	r2, [sp, #12]
 7535 003c 0300A0E1 		mov	r0, r3
 7536 0040 DF0A6DF4 		vld1.64	{d16-d17}, [sp:64]
 7537 0044 DF0A43F4 		vst1.64	{d16-d17}, [r3:64]
 7538 0048 10D08DE2 		add	sp, sp, #16
 7539              		@ sp needed
 7540 004c 1EFF2FE1 		bx	lr
 7541              		.cantunwind
 7542              		.fnend
 7544              		.section	.text._ZN6tflite7testing13GetOpResolverEv,"ax",%progbits
 7545              		.align	2
 7546              		.global	_ZN6tflite7testing13GetOpResolverEv
 7547              		.syntax unified
 7548              		.arm
 7549              		.fpu neon
 7551              	_ZN6tflite7testing13GetOpResolverEv:
 7552              		.fnstart
 7553              	.LFB7087:
 7554              		@ args = 0, pretend = 0, frame = 80
 7555              		@ frame_needed = 0, uses_anonymous_args = 0
 7556 0000 00C000E3 		movw	ip, #:lower16:_ZN6tflite7testing10MockCustom4InitEP13TfLiteContextPKcj
 7557 0004 001000E3 		movw	r1, #:lower16:_ZN6tflite7testing10MockCustom4FreeEP13TfLiteContextPv
 7558 0008 002000E3 		movw	r2, #:lower16:_ZN6tflite7testing10MockCustom7PrepareEP13TfLiteContextP10TfLiteNode
 7559 000c 003000E3 		movw	r3, #:lower16:_ZN6tflite7testing10MockCustom6InvokeEP13TfLiteContextP10TfLiteNode
 7560 0010 F04F2DE9 		push	{r4, r5, r6, r7, r8, r9, r10, fp, lr}
 7561              		.save {r4, r5, r6, r7, r8, r9, r10, fp, lr}
 7562 0014 003040E3 		movt	r3, #:upper16:_ZN6tflite7testing10MockCustom6InvokeEP13TfLiteContextP10TfLiteNode
 7563 0018 048B2DED 		vpush.64	{d8, d9}
 7564              		.vsave {d8, d9}
 7565 001c 00C040E3 		movt	ip, #:upper16:_ZN6tflite7testing10MockCustom4InitEP13TfLiteContextPKcj
 7566              		.pad #84
 7567 0020 54D04DE2 		sub	sp, sp, #84
 7568 0024 001040E3 		movt	r1, #:upper16:_ZN6tflite7testing10MockCustom4FreeEP13TfLiteContextPv
 7569 0028 002040E3 		movt	r2, #:upper16:_ZN6tflite7testing10MockCustom7PrepareEP13TfLiteContextP10TfLiteNode
 7570 002c 4C308DE5 		str	r3, [sp, #76]
 7571 0030 40C08DE5 		str	ip, [sp, #64]
 7572 0034 016A80E2 		add	r6, r0, #4096
 7573 0038 44108DE5 		str	r1, [sp, #68]
 7574 003c 0050A0E1 		mov	r5, r0
 7575 0040 48208DE5 		str	r2, [sp, #72]
 7576 0044 108B9DED 		vldr	d8, [sp, #64]
 7577 0048 129B9DED 		vldr	d9, [sp, #72]
 7578 004c FEFFFFEB 		bl	_ZN6tflite14AllOpsResolverC1Ev
 7579 0050 048096E5 		ldr	r8, [r6, #4]
 7580 0054 003000E3 		movw	r3, #:lower16:.LANCHOR28
 7581 0058 003040E3 		movt	r3, #:upper16:.LANCHOR28
 7582 005c 7F0058E3 		cmp	r8, #127
 7583 0060 DF8A03F4 		vst1.64	{d8-d9}, [r3:64]
 7584 0064 1F00009A 		bls	.L1577
 7585 0068 000000E3 		movw	r0, #:lower16:_ZN6tflite7testing14MultipleInputs4InitEP13TfLiteContextPKcj
 7586 006c 001000E3 		movw	r1, #:lower16:_ZN6tflite7testing14MultipleInputs4FreeEP13TfLiteContextPv
 7587 0070 003000E3 		movw	r3, #:lower16:_ZN6tflite7testing14MultipleInputs7PrepareEP13TfLiteContextP10TfLiteNode
 7588 0074 002000E3 		movw	r2, #:lower16:_ZN6tflite7testing14MultipleInputs6InvokeEP13TfLiteContextP10TfLiteNode
 7589 0078 000040E3 		movt	r0, #:upper16:_ZN6tflite7testing14MultipleInputs4InitEP13TfLiteContextPKcj
 7590 007c 001040E3 		movt	r1, #:upper16:_ZN6tflite7testing14MultipleInputs4FreeEP13TfLiteContextPv
 7591 0080 003040E3 		movt	r3, #:upper16:_ZN6tflite7testing14MultipleInputs7PrepareEP13TfLiteContextP10TfLiteNode
 7592 0084 002040E3 		movt	r2, #:upper16:_ZN6tflite7testing14MultipleInputs6InvokeEP13TfLiteContextP10TfLiteNode
 7593 0088 20008DE5 		str	r0, [sp, #32]
 7594 008c 00C000E3 		movw	ip, #:lower16:.LANCHOR29
 7595 0090 24108DE5 		str	r1, [sp, #36]
 7596 0094 00C040E3 		movt	ip, #:upper16:.LANCHOR29
 7597 0098 28308DE5 		str	r3, [sp, #40]
 7598 009c 000000E3 		movw	r0, #:lower16:_ZN6tflite7testing16SimpleStatefulOp4InitEP13TfLiteContextPKcj
 7599 00a0 2C208DE5 		str	r2, [sp, #44]
 7600 00a4 003000E3 		movw	r3, #:lower16:.LANCHOR27
 7601 00a8 080BDDED 		vldr	d16, [sp, #32]
 7602 00ac 0A1BDDED 		vldr	d17, [sp, #40]
 7603 00b0 001000E3 		movw	r1, #:lower16:_ZN6tflite7testing16SimpleStatefulOp7PrepareEP13TfLiteContextP10TfLiteNode
 7604 00b4 002000E3 		movw	r2, #:lower16:_ZN6tflite7testing16SimpleStatefulOp6InvokeEP13TfLiteContextP10TfLiteNode
 7605 00b8 003040E3 		movt	r3, #:upper16:.LANCHOR27
 7606 00bc 000040E3 		movt	r0, #:upper16:_ZN6tflite7testing16SimpleStatefulOp4InitEP13TfLiteContextPKcj
 7607 00c0 001040E3 		movt	r1, #:upper16:_ZN6tflite7testing16SimpleStatefulOp7PrepareEP13TfLiteContextP10TfLiteNode
 7608 00c4 002040E3 		movt	r2, #:upper16:_ZN6tflite7testing16SimpleStatefulOp6InvokeEP13TfLiteContextP10TfLiteNode
 7609 00c8 DF0A4CF4 		vst1.64	{d16-d17}, [ip:64]
 7610 00cc 000083E5 		str	r0, [r3]
 7611 00d0 081083E5 		str	r1, [r3, #8]
 7612 00d4 0C2083E5 		str	r2, [r3, #12]
 7613              	.L1541:
 7614 00d8 0500A0E1 		mov	r0, r5
 7615 00dc 54D08DE2 		add	sp, sp, #84
 7616              		@ sp needed
 7617 00e0 048BBDEC 		vldm	sp!, {d8-d9}
 7618 00e4 F08FBDE8 		pop	{r4, r5, r6, r7, r8, r9, r10, fp, pc}
 7619              	.L1577:
 7620 00e8 000058E3 		cmp	r8, #0
 7621 00ec 0890A001 		moveq	r9, r8
 7622 00f0 1D00000A 		beq	.L1543
 7623 00f4 8892A0E1 		lsl	r9, r8, #5
 7624 00f8 00A000E3 		movw	r10, #:lower16:.LC35
 7625 00fc 00A040E3 		movt	r10, #:upper16:.LC35
 7626 0100 097085E0 		add	r7, r5, r9
 7627 0104 0540A0E1 		mov	r4, r5
 7628 0108 020000EA 		b	.L1546
 7629              	.L1544:
 7630 010c 204084E2 		add	r4, r4, #32
 7631 0110 040057E1 		cmp	r7, r4
 7632 0114 1400000A 		beq	.L1543
 7633              	.L1546:
 7634 0118 183094E5 		ldr	r3, [r4, #24]
 7635 011c 200053E3 		cmp	r3, #32
 7636 0120 F9FFFF1A 		bne	.L1544
 7637 0124 0A10A0E1 		mov	r1, r10
 7638 0128 1C0094E5 		ldr	r0, [r4, #28]
 7639 012c FEFFFFEB 		bl	strcmp
 7640 0130 000050E3 		cmp	r0, #0
 7641 0134 F4FFFF1A 		bne	.L1544
 7642 0138 004000E3 		movw	r4, #:lower16:.LANCHOR27
 7643 013c 001000E3 		movw	r1, #:lower16:_ZN6tflite7testing16SimpleStatefulOp4InitEP13TfLiteContextPKcj
 7644 0140 002000E3 		movw	r2, #:lower16:_ZN6tflite7testing16SimpleStatefulOp7PrepareEP13TfLiteContextP10TfLiteNode
 7645 0144 003000E3 		movw	r3, #:lower16:_ZN6tflite7testing16SimpleStatefulOp6InvokeEP13TfLiteContextP10TfLiteNode
 7646 0148 004040E3 		movt	r4, #:upper16:.LANCHOR27
 7647 014c 001040E3 		movt	r1, #:upper16:_ZN6tflite7testing16SimpleStatefulOp4InitEP13TfLiteContextPKcj
 7648 0150 002040E3 		movt	r2, #:upper16:_ZN6tflite7testing16SimpleStatefulOp7PrepareEP13TfLiteContextP10TfLiteNode
 7649 0154 003040E3 		movt	r3, #:upper16:_ZN6tflite7testing16SimpleStatefulOp6InvokeEP13TfLiteContextP10TfLiteNode
 7650 0158 0870A0E1 		mov	r7, r8
 7651 015c 001084E5 		str	r1, [r4]
 7652 0160 082084E5 		str	r2, [r4, #8]
 7653 0164 0C3084E5 		str	r3, [r4, #12]
 7654 0168 1B0000EA 		b	.L1557
 7655              	.L1543:
 7656 016c 00C000E3 		movw	ip, #:lower16:.LANCHOR28
 7657 0170 099085E0 		add	r9, r5, r9
 7658 0174 00C040E3 		movt	ip, #:upper16:.LANCHOR28
 7659 0178 017088E2 		add	r7, r8, #1
 7660 017c 0F00BCE8 		ldmia	ip!, {r0, r1, r2, r3}
 7661 0180 04E089E2 		add	lr, r9, #4
 7662 0184 008000E3 		movw	r8, #:lower16:.LC35
 7663 0188 004000E3 		movw	r4, #:lower16:.LANCHOR27
 7664 018c 047086E5 		str	r7, [r6, #4]
 7665 0190 00A000E3 		movw	r10, #:lower16:_ZN6tflite7testing16SimpleStatefulOp4InitEP13TfLiteContextPKcj
 7666 0194 800057E3 		cmp	r7, #128
 7667 0198 004040E3 		movt	r4, #:upper16:.LANCHOR27
 7668 019c 0F00AEE8 		stmia	lr!, {r0, r1, r2, r3}
 7669 01a0 008040E3 		movt	r8, #:upper16:.LC35
 7670 01a4 00A040E3 		movt	r10, #:upper16:_ZN6tflite7testing16SimpleStatefulOp4InitEP13TfLiteContextPKcj
 7671 01a8 0F009CE8 		ldm	ip, {r0, r1, r2, r3}
 7672 01ac 00C000E3 		movw	ip, #:lower16:_ZN6tflite7testing16SimpleStatefulOp7PrepareEP13TfLiteContextP10TfLiteNode
 7673 01b0 00C040E3 		movt	ip, #:upper16:_ZN6tflite7testing16SimpleStatefulOp7PrepareEP13TfLiteContextP10TfLiteNode
 7674 01b4 00A084E5 		str	r10, [r4]
 7675 01b8 0F008EE8 		stm	lr, {r0, r1, r2, r3}
 7676 01bc 003000E3 		movw	r3, #:lower16:_ZN6tflite7testing16SimpleStatefulOp6InvokeEP13TfLiteContextP10TfLiteNode
 7677 01c0 2020A0E3 		mov	r2, #32
 7678 01c4 003040E3 		movt	r3, #:upper16:_ZN6tflite7testing16SimpleStatefulOp6InvokeEP13TfLiteContextP10TfLiteNode
 7679 01c8 182089E5 		str	r2, [r9, #24]
 7680 01cc 1C8089E5 		str	r8, [r9, #28]
 7681 01d0 08C084E5 		str	ip, [r4, #8]
 7682 01d4 0C3084E5 		str	r3, [r4, #12]
 7683 01d8 8100000A 		beq	.L1578
 7684              	.L1557:
 7685 01dc 003095E5 		ldr	r3, [r5]
 7686 01e0 009000E3 		movw	r9, #:lower16:_ZNK6tflite22MicroMutableOpResolverILj128EE6FindOpEPKc
 7687 01e4 009040E3 		movt	r9, #:upper16:_ZNK6tflite22MicroMutableOpResolverILj128EE6FindOpEPKc
 7688 01e8 1C3093E5 		ldr	r3, [r3, #28]
 7689 01ec 090053E1 		cmp	r3, r9
 7690 01f0 2200001A 		bne	.L1579
 7691 01f4 87A2A0E1 		lsl	r10, r7, #5
 7692 01f8 008000E3 		movw	r8, #:lower16:.LC37
 7693 01fc 008040E3 		movt	r8, #:upper16:.LC37
 7694 0200 0AB085E0 		add	fp, r5, r10
 7695 0204 0540A0E1 		mov	r4, r5
 7696 0208 020000EA 		b	.L1550
 7697              	.L1547:
 7698 020c 204084E2 		add	r4, r4, #32
 7699 0210 04005BE1 		cmp	fp, r4
 7700 0214 2000000A 		beq	.L1549
 7701              	.L1550:
 7702 0218 183094E5 		ldr	r3, [r4, #24]
 7703 021c 200053E3 		cmp	r3, #32
 7704 0220 F9FFFF1A 		bne	.L1547
 7705 0224 0810A0E1 		mov	r1, r8
 7706 0228 1C0094E5 		ldr	r0, [r4, #28]
 7707 022c FEFFFFEB 		bl	strcmp
 7708 0230 000050E3 		cmp	r0, #0
 7709 0234 F4FFFF1A 		bne	.L1547
 7710              	.L1548:
 7711 0238 000000E3 		movw	r0, #:lower16:_ZN6tflite7testing14MultipleInputs4InitEP13TfLiteContextPKcj
 7712 023c 003000E3 		movw	r3, #:lower16:_ZN6tflite7testing14MultipleInputs4FreeEP13TfLiteContextPv
 7713 0240 001000E3 		movw	r1, #:lower16:_ZN6tflite7testing14MultipleInputs7PrepareEP13TfLiteContextP10TfLiteNode
 7714 0244 002000E3 		movw	r2, #:lower16:_ZN6tflite7testing14MultipleInputs6InvokeEP13TfLiteContextP10TfLiteNode
 7715 0248 003040E3 		movt	r3, #:upper16:_ZN6tflite7testing14MultipleInputs4FreeEP13TfLiteContextPv
 7716 024c 000040E3 		movt	r0, #:upper16:_ZN6tflite7testing14MultipleInputs4InitEP13TfLiteContextPKcj
 7717 0250 001040E3 		movt	r1, #:upper16:_ZN6tflite7testing14MultipleInputs7PrepareEP13TfLiteContextP10TfLiteNode
 7718 0254 002040E3 		movt	r2, #:upper16:_ZN6tflite7testing14MultipleInputs6InvokeEP13TfLiteContextP10TfLiteNode
 7719 0258 14308DE5 		str	r3, [sp, #20]
 7720 025c 003000E3 		movw	r3, #:lower16:.LANCHOR29
 7721 0260 10008DE5 		str	r0, [sp, #16]
 7722 0264 003040E3 		movt	r3, #:upper16:.LANCHOR29
 7723 0268 18108DE5 		str	r1, [sp, #24]
 7724 026c 1C208DE5 		str	r2, [sp, #28]
 7725 0270 040BDDED 		vldr	d16, [sp, #16]
 7726 0274 061BDDED 		vldr	d17, [sp, #24]
 7727 0278 DF0A43F4 		vst1.64	{d16-d17}, [r3:64]
 7728 027c 280000EA 		b	.L1552
 7729              	.L1579:
 7730 0280 001000E3 		movw	r1, #:lower16:.LC37
 7731 0284 0500A0E1 		mov	r0, r5
 7732 0288 001040E3 		movt	r1, #:upper16:.LC37
 7733 028c FEFFFFEB 		bl	_ZNK6tflite22MicroMutableOpResolverILj128EE6FindOpEPKc
 7734 0290 000050E3 		cmp	r0, #0
 7735 0294 E7FFFF1A 		bne	.L1548
 7736 0298 87A2A0E1 		lsl	r10, r7, #5
 7737              	.L1549:
 7738 029c 00C000E3 		movw	ip, #:lower16:.LANCHOR27
 7739 02a0 00C040E3 		movt	ip, #:upper16:.LANCHOR27
 7740 02a4 0AA085E0 		add	r10, r5, r10
 7741 02a8 0F00BCE8 		ldmia	ip!, {r0, r1, r2, r3}
 7742 02ac 017087E2 		add	r7, r7, #1
 7743 02b0 04E08AE2 		add	lr, r10, #4
 7744 02b4 008000E3 		movw	r8, #:lower16:_ZN6tflite7testing14MultipleInputs4InitEP13TfLiteContextPKcj
 7745 02b8 047086E5 		str	r7, [r6, #4]
 7746 02bc 004000E3 		movw	r4, #:lower16:_ZN6tflite7testing14MultipleInputs4FreeEP13TfLiteContextPv
 7747 02c0 00B000E3 		movw	fp, #:lower16:_ZN6tflite7testing14MultipleInputs7PrepareEP13TfLiteContextP10TfLiteNode
 7748 02c4 008040E3 		movt	r8, #:upper16:_ZN6tflite7testing14MultipleInputs4InitEP13TfLiteContextPKcj
 7749 02c8 0F00AEE8 		stmia	lr!, {r0, r1, r2, r3}
 7750 02cc 004040E3 		movt	r4, #:upper16:_ZN6tflite7testing14MultipleInputs4FreeEP13TfLiteContextPv
 7751 02d0 00B040E3 		movt	fp, #:upper16:_ZN6tflite7testing14MultipleInputs7PrepareEP13TfLiteContextP10TfLiteNode
 7752 02d4 7F0057E3 		cmp	r7, #127
 7753 02d8 0F009CE8 		ldm	ip, {r0, r1, r2, r3}
 7754 02dc 00C000E3 		movw	ip, #:lower16:_ZN6tflite7testing14MultipleInputs6InvokeEP13TfLiteContextP10TfLiteNode
 7755 02e0 00C040E3 		movt	ip, #:upper16:_ZN6tflite7testing14MultipleInputs6InvokeEP13TfLiteContextP10TfLiteNode
 7756 02e4 0F008EE8 		stm	lr, {r0, r1, r2, r3}
 7757 02e8 003000E3 		movw	r3, #:lower16:.LANCHOR29
 7758 02ec 30808DE5 		str	r8, [sp, #48]
 7759 02f0 002000E3 		movw	r2, #:lower16:.LC37
 7760 02f4 003040E3 		movt	r3, #:upper16:.LANCHOR29
 7761 02f8 2010A0E3 		mov	r1, #32
 7762 02fc 34408DE5 		str	r4, [sp, #52]
 7763 0300 002040E3 		movt	r2, #:upper16:.LC37
 7764 0304 38B08DE5 		str	fp, [sp, #56]
 7765 0308 3CC08DE5 		str	ip, [sp, #60]
 7766 030c 0C0BDDED 		vldr	d16, [sp, #48]
 7767 0310 0E1BDDED 		vldr	d17, [sp, #56]
 7768 0314 18108AE5 		str	r1, [r10, #24]
 7769 0318 1C208AE5 		str	r2, [r10, #28]
 7770 031c DF0A43F4 		vst1.64	{d16-d17}, [r3:64]
 7771 0320 6CFFFF8A 		bhi	.L1541
 7772              	.L1552:
 7773 0324 003095E5 		ldr	r3, [r5]
 7774 0328 1C3093E5 		ldr	r3, [r3, #28]
 7775 032c 090053E1 		cmp	r3, r9
 7776 0330 2300001A 		bne	.L1580
 7777 0334 87A2A0E1 		lsl	r10, r7, #5
 7778 0338 009000E3 		movw	r9, #:lower16:.LC38
 7779 033c 009040E3 		movt	r9, #:upper16:.LC38
 7780 0340 0A8085E0 		add	r8, r5, r10
 7781 0344 0540A0E1 		mov	r4, r5
 7782 0348 020000EA 		b	.L1555
 7783              	.L1553:
 7784 034c 204084E2 		add	r4, r4, #32
 7785 0350 040058E1 		cmp	r8, r4
 7786 0354 0A00000A 		beq	.L1554
 7787              	.L1555:
 7788 0358 183094E5 		ldr	r3, [r4, #24]
 7789 035c 200053E3 		cmp	r3, #32
 7790 0360 F9FFFF1A 		bne	.L1553
 7791 0364 0910A0E1 		mov	r1, r9
 7792 0368 1C0094E5 		ldr	r0, [r4, #28]
 7793 036c FEFFFFEB 		bl	strcmp
 7794 0370 000050E3 		cmp	r0, #0
 7795 0374 57FFFF0A 		beq	.L1541
 7796 0378 204084E2 		add	r4, r4, #32
 7797 037c 040058E1 		cmp	r8, r4
 7798 0380 F4FFFF1A 		bne	.L1555
 7799              	.L1554:
 7800 0384 00C000E3 		movw	ip, #:lower16:.LANCHOR29
 7801 0388 0AA085E0 		add	r10, r5, r10
 7802 038c 00C040E3 		movt	ip, #:upper16:.LANCHOR29
 7803 0390 017087E2 		add	r7, r7, #1
 7804 0394 0F00BCE8 		ldmia	ip!, {r0, r1, r2, r3}
 7805 0398 04E08AE2 		add	lr, r10, #4
 7806 039c 004000E3 		movw	r4, #:lower16:.LC38
 7807 03a0 047086E5 		str	r7, [r6, #4]
 7808 03a4 004040E3 		movt	r4, #:upper16:.LC38
 7809 03a8 2060A0E3 		mov	r6, #32
 7810 03ac 0F00AEE8 		stmia	lr!, {r0, r1, r2, r3}
 7811 03b0 0F009CE8 		ldm	ip, {r0, r1, r2, r3}
 7812 03b4 0F008EE8 		stm	lr, {r0, r1, r2, r3}
 7813 03b8 18608AE5 		str	r6, [r10, #24]
 7814 03bc 1C408AE5 		str	r4, [r10, #28]
 7815 03c0 44FFFFEA 		b	.L1541
 7816              	.L1580:
 7817 03c4 001000E3 		movw	r1, #:lower16:.LC38
 7818 03c8 0500A0E1 		mov	r0, r5
 7819 03cc 001040E3 		movt	r1, #:upper16:.LC38
 7820 03d0 FEFFFFEB 		bl	_ZNK6tflite22MicroMutableOpResolverILj128EE6FindOpEPKc
 7821 03d4 000050E3 		cmp	r0, #0
 7822 03d8 3EFFFF1A 		bne	.L1541
 7823 03dc 87A2A0E1 		lsl	r10, r7, #5
 7824 03e0 E7FFFFEA 		b	.L1554
 7825              	.L1578:
 7826 03e4 003000E3 		movw	r3, #:lower16:_ZN6tflite7testing14MultipleInputs4InitEP13TfLiteContextPKcj
 7827 03e8 000000E3 		movw	r0, #:lower16:_ZN6tflite7testing14MultipleInputs4FreeEP13TfLiteContextPv
 7828 03ec 001000E3 		movw	r1, #:lower16:_ZN6tflite7testing14MultipleInputs7PrepareEP13TfLiteContextP10TfLiteNode
 7829 03f0 002000E3 		movw	r2, #:lower16:_ZN6tflite7testing14MultipleInputs6InvokeEP13TfLiteContextP10TfLiteNode
 7830 03f4 003040E3 		movt	r3, #:upper16:_ZN6tflite7testing14MultipleInputs4InitEP13TfLiteContextPKcj
 7831 03f8 000040E3 		movt	r0, #:upper16:_ZN6tflite7testing14MultipleInputs4FreeEP13TfLiteContextPv
 7832 03fc 001040E3 		movt	r1, #:upper16:_ZN6tflite7testing14MultipleInputs7PrepareEP13TfLiteContextP10TfLiteNode
 7833 0400 002040E3 		movt	r2, #:upper16:_ZN6tflite7testing14MultipleInputs6InvokeEP13TfLiteContextP10TfLiteNode
 7834 0404 00308DE5 		str	r3, [sp]
 7835 0408 003000E3 		movw	r3, #:lower16:.LANCHOR29
 7836 040c 04008DE5 		str	r0, [sp, #4]
 7837 0410 003040E3 		movt	r3, #:upper16:.LANCHOR29
 7838 0414 08108DE5 		str	r1, [sp, #8]
 7839 0418 0C208DE5 		str	r2, [sp, #12]
 7840 041c DF0A6DF4 		vld1.64	{d16-d17}, [sp:64]
 7841 0420 DF0A43F4 		vst1.64	{d16-d17}, [r3:64]
 7842 0424 2BFFFFEA 		b	.L1541
 7843              		.fnend
 7845              		.section	.text._ZN6tflite7testing24GetModelWithUnusedInputsEv,"ax",%progbits
 7846              		.align	2
 7847              		.global	_ZN6tflite7testing24GetModelWithUnusedInputsEv
 7848              		.syntax unified
 7849              		.arm
 7850              		.fpu neon
 7852              	_ZN6tflite7testing24GetModelWithUnusedInputsEv:
 7853              		.fnstart
 7854              	.LFB7104:
 7855              		@ args = 0, pretend = 0, frame = 64
 7856              		@ frame_needed = 0, uses_anonymous_args = 0
 7857 0000 F0472DE9 		push	{r4, r5, r6, r7, r8, r9, r10, lr}
 7858              		.save {r4, r5, r6, r7, r8, r9, r10, lr}
 7859 0004 005000E3 		movw	r5, #:lower16:.LANCHOR30
 7860 0008 005040E3 		movt	r5, #:upper16:.LANCHOR30
 7861              		.pad #88
 7862 000c 58D04DE2 		sub	sp, sp, #88
 7863 0010 004095E5 		ldr	r4, [r5]
 7864 0014 000054E3 		cmp	r4, #0
 7865 0018 0200000A 		beq	.L1586
 7866 001c 0400A0E1 		mov	r0, r4
 7867 0020 58D08DE2 		add	sp, sp, #88
 7868              		@ sp needed
 7869 0024 F087BDE8 		pop	{r4, r5, r6, r7, r8, r9, r10, pc}
 7870              	.L1586:
 7871 0028 FEFFFFEB 		bl	_ZN6tflite7testing12_GLOBAL__N_115BuilderInstanceEv
 7872 002c 0410A0E1 		mov	r1, r4
 7873 0030 0060A0E1 		mov	r6, r0
 7874 0034 FEFFFFEB 		bl	_ZN6tflite12CreateBufferERN11flatbuffers17FlatBufferBuilderENS0_6OffsetINS0_6VectorIhEEEE
 7875 0038 C40BDFED 		vldr	d16, .L1589
 7876 003c 38108DE2 		add	r1, sp, #56
 7877 0040 1C008DE5 		str	r0, [sp, #28]
 7878 0044 0600A0E1 		mov	r0, r6
 7879 0048 0E0BCDED 		vstr	d16, [sp, #56]
 7880 004c FEFFFFEB 		bl	_ZN11flatbuffers17FlatBufferBuilder12CreateVectorIlEENS_6OffsetINS_6VectorIT_EEEEPKS4_j.constpr
 7881 0050 001000E3 		movw	r1, #:lower16:.LC39
 7882 0054 0070A0E1 		mov	r7, r0
 7883 0058 1120A0E3 		mov	r2, #17
 7884 005c 001040E3 		movt	r1, #:upper16:.LC39
 7885 0060 0600A0E1 		mov	r0, r6
 7886 0064 FEFFFFEB 		bl	_ZN11flatbuffers17FlatBufferBuilder12CreateStringEPKcj
 7887 0068 0710A0E1 		mov	r1, r7
 7888 006c 0030A0E1 		mov	r3, r0
 7889 0070 0920A0E3 		mov	r2, #9
 7890 0074 08408DE5 		str	r4, [sp, #8]
 7891 0078 0600A0E1 		mov	r0, r6
 7892 007c 04408DE5 		str	r4, [sp, #4]
 7893 0080 00408DE5 		str	r4, [sp]
 7894 0084 FEFFFFEB 		bl	_ZN6tflite12CreateTensorERN11flatbuffers17FlatBufferBuilderENS0_6OffsetINS0_6VectorIlEEEENS_10T
 7895 0088 38108DE2 		add	r1, sp, #56
 7896 008c 48008DE5 		str	r0, [sp, #72]
 7897 0090 0600A0E1 		mov	r0, r6
 7898 0094 FEFFFFEB 		bl	_ZN11flatbuffers17FlatBufferBuilder12CreateVectorIlEENS_6OffsetINS_6VectorIT_EEEEPKS4_j.constpr
 7899 0098 001000E3 		movw	r1, #:lower16:.LC40
 7900 009c 0070A0E1 		mov	r7, r0
 7901 00a0 1820A0E3 		mov	r2, #24
 7902 00a4 001040E3 		movt	r1, #:upper16:.LC40
 7903 00a8 0600A0E1 		mov	r0, r6
 7904 00ac FEFFFFEB 		bl	_ZN11flatbuffers17FlatBufferBuilder12CreateStringEPKcj
 7905 00b0 0710A0E1 		mov	r1, r7
 7906 00b4 0030A0E1 		mov	r3, r0
 7907 00b8 0920A0E3 		mov	r2, #9
 7908 00bc 08408DE5 		str	r4, [sp, #8]
 7909 00c0 0600A0E1 		mov	r0, r6
 7910 00c4 04408DE5 		str	r4, [sp, #4]
 7911 00c8 00408DE5 		str	r4, [sp]
 7912 00cc FEFFFFEB 		bl	_ZN6tflite12CreateTensorERN11flatbuffers17FlatBufferBuilderENS0_6OffsetINS0_6VectorIlEEEENS_10T
 7913 00d0 38108DE2 		add	r1, sp, #56
 7914 00d4 4C008DE5 		str	r0, [sp, #76]
 7915 00d8 0600A0E1 		mov	r0, r6
 7916 00dc FEFFFFEB 		bl	_ZN11flatbuffers17FlatBufferBuilder12CreateVectorIlEENS_6OffsetINS_6VectorIT_EEEEPKS4_j.constpr
 7917 00e0 001000E3 		movw	r1, #:lower16:.LC41
 7918 00e4 0070A0E1 		mov	r7, r0
 7919 00e8 1220A0E3 		mov	r2, #18
 7920 00ec 001040E3 		movt	r1, #:upper16:.LC41
 7921 00f0 0600A0E1 		mov	r0, r6
 7922 00f4 FEFFFFEB 		bl	_ZN11flatbuffers17FlatBufferBuilder12CreateStringEPKcj
 7923 00f8 0920A0E3 		mov	r2, #9
 7924 00fc 0030A0E1 		mov	r3, r0
 7925 0100 0710A0E1 		mov	r1, r7
 7926 0104 08408DE5 		str	r4, [sp, #8]
 7927 0108 0600A0E1 		mov	r0, r6
 7928 010c 04408DE5 		str	r4, [sp, #4]
 7929 0110 00408DE5 		str	r4, [sp]
 7930 0114 FEFFFFEB 		bl	_ZN6tflite12CreateTensorERN11flatbuffers17FlatBufferBuilderENS0_6OffsetINS0_6VectorIlEEEENS_10T
 7931 0118 0210A0E3 		mov	r1, #2
 7932 011c 50008DE5 		str	r0, [sp, #80]
 7933 0120 0600A0E1 		mov	r0, r6
 7934 0124 FEFFFFEB 		bl	_ZN11flatbuffers17FlatBufferBuilder11StartVectorEjj.constprop.148
 7935 0128 0810A0E3 		mov	r1, #8
 7936 012c 0600A0E1 		mov	r0, r6
 7937 0130 FEFFFFEB 		bl	_ZN11flatbuffers15vector_downward12ensure_spaceEj
 7938 0134 183096E5 		ldr	r3, [r6, #24]
 7939 0138 0820A0E3 		mov	r2, #8
 7940 013c 38108DE2 		add	r1, sp, #56
 7941 0140 000043E0 		sub	r0, r3, r0
 7942 0144 180086E5 		str	r0, [r6, #24]
 7943 0148 FEFFFFEB 		bl	memcpy
 7944 014c 0210A0E3 		mov	r1, #2
 7945 0150 0600A0E1 		mov	r0, r6
 7946 0154 FEFFFFEB 		bl	_ZN11flatbuffers17FlatBufferBuilder9EndVectorEj
 7947 0158 001000E3 		movw	r1, #:lower16:.LC42
 7948 015c 0070A0E1 		mov	r7, r0
 7949 0160 1220A0E3 		mov	r2, #18
 7950 0164 001040E3 		movt	r1, #:upper16:.LC42
 7951 0168 0600A0E1 		mov	r0, r6
 7952 016c FEFFFFEB 		bl	_ZN11flatbuffers17FlatBufferBuilder12CreateStringEPKcj
 7953 0170 0920A0E3 		mov	r2, #9
 7954 0174 0710A0E1 		mov	r1, r7
 7955 0178 0030A0E1 		mov	r3, r0
 7956 017c 08408DE5 		str	r4, [sp, #8]
 7957 0180 0600A0E1 		mov	r0, r6
 7958 0184 04408DE5 		str	r4, [sp, #4]
 7959 0188 00408DE5 		str	r4, [sp]
 7960 018c FEFFFFEB 		bl	_ZN6tflite12CreateTensorERN11flatbuffers17FlatBufferBuilderENS0_6OffsetINS0_6VectorIlEEEENS_10T
 7961 0190 700BDFED 		vldr	d16, .L1589+8
 7962 0194 0230A0E3 		mov	r3, #2
 7963 0198 54008DE5 		str	r0, [sp, #84]
 7964 019c 24108DE2 		add	r1, sp, #36
 7965 01a0 0600A0E1 		mov	r0, r6
 7966 01a4 100BCDED 		vstr	d16, [sp, #64]
 7967 01a8 20308DE5 		str	r3, [sp, #32]
 7968 01ac 28308DE5 		str	r3, [sp, #40]
 7969 01b0 24408DE5 		str	r4, [sp, #36]
 7970 01b4 FEFFFFEB 		bl	_ZN11flatbuffers17FlatBufferBuilder12CreateVectorIlEENS_6OffsetINS_6VectorIT_EEEEPKS4_j.constpr
 7971 01b8 28108DE2 		add	r1, sp, #40
 7972 01bc 0070A0E1 		mov	r7, r0
 7973 01c0 0600A0E1 		mov	r0, r6
 7974 01c4 FEFFFFEB 		bl	_ZN11flatbuffers17FlatBufferBuilder12CreateVectorIlEENS_6OffsetINS_6VectorIT_EEEEPKS4_j.constpr
 7975 01c8 0720A0E1 		mov	r2, r7
 7976 01cc 0030A0E1 		mov	r3, r0
 7977 01d0 0410A0E1 		mov	r1, r4
 7978 01d4 14408DE5 		str	r4, [sp, #20]
 7979 01d8 0600A0E1 		mov	r0, r6
 7980 01dc 10408DE5 		str	r4, [sp, #16]
 7981 01e0 0C408DE5 		str	r4, [sp, #12]
 7982 01e4 08408DE5 		str	r4, [sp, #8]
 7983 01e8 04408DE5 		str	r4, [sp, #4]
 7984 01ec 00408DE5 		str	r4, [sp]
 7985 01f0 FEFFFFEB 		bl	_ZN6tflite14CreateOperatorERN11flatbuffers17FlatBufferBuilderEmNS0_6OffsetINS0_6VectorIlEEEES6_
 7986 01f4 48108DE2 		add	r1, sp, #72
 7987 01f8 2C008DE5 		str	r0, [sp, #44]
 7988 01fc 0600A0E1 		mov	r0, r6
 7989 0200 FEFFFFEB 		bl	_ZN11flatbuffers17FlatBufferBuilder12CreateVectorIN6tflite6TensorEEENS_6OffsetINS_6VectorINS4_I
 7990 0204 40108DE2 		add	r1, sp, #64
 7991 0208 0070A0E1 		mov	r7, r0
 7992 020c 0600A0E1 		mov	r0, r6
 7993 0210 FEFFFFEB 		bl	_ZN11flatbuffers17FlatBufferBuilder12CreateVectorIlEENS_6OffsetINS_6VectorIT_EEEEPKS4_j.constpr
 7994 0214 20108DE2 		add	r1, sp, #32
 7995 0218 0080A0E1 		mov	r8, r0
 7996 021c 0600A0E1 		mov	r0, r6
 7997 0220 FEFFFFEB 		bl	_ZN11flatbuffers17FlatBufferBuilder12CreateVectorIlEENS_6OffsetINS_6VectorIT_EEEEPKS4_j.constpr
 7998 0224 2C108DE2 		add	r1, sp, #44
 7999 0228 0090A0E1 		mov	r9, r0
 8000 022c 0600A0E1 		mov	r0, r6
 8001 0230 FEFFFFEB 		bl	_ZN11flatbuffers17FlatBufferBuilder12CreateVectorIN6tflite8OperatorEEENS_6OffsetINS_6VectorINS4
 8002 0234 001000E3 		movw	r1, #:lower16:.LC32
 8003 0238 00A0A0E1 		mov	r10, r0
 8004 023c 0D20A0E3 		mov	r2, #13
 8005 0240 001040E3 		movt	r1, #:upper16:.LC32
 8006 0244 0600A0E1 		mov	r0, r6
 8007 0248 FEFFFFEB 		bl	_ZN11flatbuffers17FlatBufferBuilder12CreateStringEPKcj
 8008 024c 0930A0E1 		mov	r3, r9
 8009 0250 0820A0E1 		mov	r2, r8
 8010 0254 0710A0E1 		mov	r1, r7
 8011 0258 04008DE5 		str	r0, [sp, #4]
 8012 025c 00A08DE5 		str	r10, [sp]
 8013 0260 0600A0E1 		mov	r0, r6
 8014 0264 FEFFFFEB 		bl	_ZN6tflite14CreateSubGraphERN11flatbuffers17FlatBufferBuilderENS0_6OffsetINS0_6VectorINS3_INS_6
 8015 0268 001000E3 		movw	r1, #:lower16:.LC35
 8016 026c 2020A0E3 		mov	r2, #32
 8017 0270 30008DE5 		str	r0, [sp, #48]
 8018 0274 001040E3 		movt	r1, #:upper16:.LC35
 8019 0278 0600A0E1 		mov	r0, r6
 8020 027c FEFFFFEB 		bl	_ZN6tflite24CreateOperatorCodeDirectERN11flatbuffers17FlatBufferBuilderEaPKclNS_15BuiltinOperat
 8021 0280 58108DE2 		add	r1, sp, #88
 8022 0284 240021E5 		str	r0, [r1, #-36]!
 8023 0288 0600A0E1 		mov	r0, r6
 8024 028c FEFFFFEB 		bl	_ZN11flatbuffers17FlatBufferBuilder12CreateVectorIN6tflite12OperatorCodeEEENS_6OffsetINS_6Vecto
 8025 0290 30108DE2 		add	r1, sp, #48
 8026 0294 0070A0E1 		mov	r7, r0
 8027 0298 0600A0E1 		mov	r0, r6
 8028 029c FEFFFFEB 		bl	_ZN11flatbuffers17FlatBufferBuilder12CreateVectorIN6tflite8SubGraphEEENS_6OffsetINS_6VectorINS4
 8029 02a0 001000E3 		movw	r1, #:lower16:.LC43
 8030 02a4 0A20A0E3 		mov	r2, #10
 8031 02a8 0080A0E1 		mov	r8, r0
 8032 02ac 001040E3 		movt	r1, #:upper16:.LC43
 8033 02b0 0600A0E1 		mov	r0, r6
 8034 02b4 FEFFFFEB 		bl	_ZN11flatbuffers17FlatBufferBuilder12CreateStringEPKcj
 8035 02b8 1C108DE2 		add	r1, sp, #28
 8036 02bc 0090A0E1 		mov	r9, r0
 8037 02c0 0600A0E1 		mov	r0, r6
 8038 02c4 FEFFFFEB 		bl	_ZN11flatbuffers17FlatBufferBuilder12CreateVectorIN6tflite6BufferEEENS_6OffsetINS_6VectorINS4_I
 8039 02c8 0830A0E1 		mov	r3, r8
 8040 02cc 04008DE5 		str	r0, [sp, #4]
 8041 02d0 0720A0E1 		mov	r2, r7
 8042 02d4 0410A0E1 		mov	r1, r4
 8043 02d8 00908DE5 		str	r9, [sp]
 8044 02dc 0600A0E1 		mov	r0, r6
 8045 02e0 10408DE5 		str	r4, [sp, #16]
 8046 02e4 0C408DE5 		str	r4, [sp, #12]
 8047 02e8 08408DE5 		str	r4, [sp, #8]
 8048 02ec FEFFFFEB 		bl	_ZN6tflite11CreateModelERN11flatbuffers17FlatBufferBuilderEmNS0_6OffsetINS0_6VectorINS3_INS_12O
 8049 02f0 0010A0E1 		mov	r1, r0
 8050 02f4 0600A0E1 		mov	r0, r6
 8051 02f8 FEFFFFEB 		bl	_ZN11flatbuffers17FlatBufferBuilder6FinishEmPKcb.constprop.146
 8052 02fc 2730D6E5 		ldrb	r3, [r6, #39]	@ zero_extendqisi2
 8053 0300 000053E3 		cmp	r3, #0
 8054 0304 0800000A 		beq	.L1587
 8055 0308 184096E5 		ldr	r4, [r6, #24]
 8056 030c 000054E3 		cmp	r4, #0
 8057 0310 0D00000A 		beq	.L1588
 8058 0314 003094E5 		ldr	r3, [r4]
 8059 0318 034084E0 		add	r4, r4, r3
 8060 031c 0400A0E1 		mov	r0, r4
 8061 0320 004085E5 		str	r4, [r5]
 8062 0324 58D08DE2 		add	sp, sp, #88
 8063              		@ sp needed
 8064 0328 F087BDE8 		pop	{r4, r5, r6, r7, r8, r9, r10, pc}
 8065              	.L1587:
 8066 032c 003000E3 		movw	r3, #:lower16:.LC34
 8067 0330 002000E3 		movw	r2, #:lower16:.LANCHOR18
 8068 0334 000000E3 		movw	r0, #:lower16:.LC19
 8069 0338 003040E3 		movt	r3, #:upper16:.LC34
 8070 033c 002040E3 		movt	r2, #:upper16:.LANCHOR18
 8071 0340 000040E3 		movt	r0, #:upper16:.LC19
 8072 0344 D71400E3 		movw	r1, #1239
 8073 0348 FEFFFFEB 		bl	__assert_func
 8074              	.L1588:
 8075 034c FEFFFFEB 		bl	_ZNK11flatbuffers15vector_downward4dataEv.isra.9.part.10
 8076              	.L1590:
 8077              		.align	3
 8078              	.L1589:
 8079 0350 01000000 		.word	1
 8080 0354 40000000 		.word	64
 8081 0358 00000000 		.word	0
 8082 035c 01000000 		.word	1
 8083              		.fnend
 8085              		.section	.text._ZN6tflite7testing18GetSimpleMockModelEv,"ax",%progbits
 8086              		.align	2
 8087              		.global	_ZN6tflite7testing18GetSimpleMockModelEv
 8088              		.syntax unified
 8089              		.arm
 8090              		.fpu neon
 8092              	_ZN6tflite7testing18GetSimpleMockModelEv:
 8093              		.fnstart
 8094              	.LFB7105:
 8095              		@ args = 0, pretend = 0, frame = 80
 8096              		@ frame_needed = 0, uses_anonymous_args = 0
 8097 0000 F04F2DE9 		push	{r4, r5, r6, r7, r8, r9, r10, fp, lr}
 8098              		.save {r4, r5, r6, r7, r8, r9, r10, fp, lr}
 8099 0004 007000E3 		movw	r7, #:lower16:.LANCHOR31
 8100 0008 007040E3 		movt	r7, #:upper16:.LANCHOR31
 8101              		.pad #108
 8102 000c 6CD04DE2 		sub	sp, sp, #108
 8103 0010 005097E5 		ldr	r5, [r7]
 8104 0014 000055E3 		cmp	r5, #0
 8105 0018 0200000A 		beq	.L1663
 8106 001c 0500A0E1 		mov	r0, r5
 8107 0020 6CD08DE2 		add	sp, sp, #108
 8108              		@ sp needed
 8109 0024 F08FBDE8 		pop	{r4, r5, r6, r7, r8, r9, r10, fp, pc}
 8110              	.L1663:
 8111 0028 FEFFFFEB 		bl	_ZN6tflite7testing12_GLOBAL__N_115BuilderInstanceEv
 8112 002c 0510A0E1 		mov	r1, r5
 8113 0030 0040A0E1 		mov	r4, r0
 8114 0034 FEFFFFEB 		bl	_ZN6tflite12CreateBufferERN11flatbuffers17FlatBufferBuilderENS0_6OffsetINS0_6VectorIhEEEE
 8115 0038 2620D4E5 		ldrb	r2, [r4, #38]	@ zero_extendqisi2
 8116 003c 48008DE5 		str	r0, [sp, #72]
 8117 0040 203094E5 		ldr	r3, [r4, #32]
 8118 0044 000052E3 		cmp	r2, #0
 8119 0048 AB01001A 		bne	.L1664
 8120 004c 000053E3 		cmp	r3, #0
 8121 0050 A801001A 		bne	.L1665
 8122 0054 283094E5 		ldr	r3, [r4, #40]
 8123 0058 0120A0E3 		mov	r2, #1
 8124 005c 2620C4E5 		strb	r2, [r4, #38]
 8125 0060 0400A0E1 		mov	r0, r4
 8126 0064 142094E5 		ldr	r2, [r4, #20]
 8127 0068 030053E3 		cmp	r3, #3
 8128 006c 105094E5 		ldr	r5, [r4, #16]
 8129 0070 0430A093 		movls	r3, #4
 8130 0074 28308495 		strls	r3, [r4, #40]
 8131 0078 183094E5 		ldr	r3, [r4, #24]
 8132 007c 023043E0 		sub	r3, r3, r2
 8133 0080 035045E0 		sub	r5, r5, r3
 8134 0084 0550E0E1 		mvn	r5, r5
 8135 0088 035005E2 		and	r5, r5, #3
 8136 008c 0510A0E1 		mov	r1, r5
 8137 0090 FEFFFFEB 		bl	_ZN11flatbuffers15vector_downward12ensure_spaceEj
 8138 0094 183094E5 		ldr	r3, [r4, #24]
 8139 0098 000055E3 		cmp	r5, #0
 8140 009c 000043E0 		sub	r0, r3, r0
 8141 00a0 180084E5 		str	r0, [r4, #24]
 8142 00a4 0800000A 		beq	.L1596
 8143 00a8 010055E3 		cmp	r5, #1
 8144 00ac 0030A0E3 		mov	r3, #0
 8145 00b0 0030C0E5 		strb	r3, [r0]
 8146 00b4 0400000A 		beq	.L1596
 8147 00b8 182094E5 		ldr	r2, [r4, #24]
 8148 00bc 020055E3 		cmp	r5, #2
 8149 00c0 0130C2E5 		strb	r3, [r2, #1]
 8150 00c4 18209415 		ldrne	r2, [r4, #24]
 8151 00c8 0230C215 		strbne	r3, [r2, #2]
 8152              	.L1596:
 8153 00cc 283094E5 		ldr	r3, [r4, #40]
 8154 00d0 0010A0E3 		mov	r1, #0
 8155 00d4 0400A0E1 		mov	r0, r4
 8156 00d8 68508DE2 		add	r5, sp, #104
 8157 00dc 00A0A0E3 		mov	r10, #0
 8158 00e0 0280A0E3 		mov	r8, #2
 8159 00e4 000053E3 		cmp	r3, #0
 8160 00e8 0130A003 		moveq	r3, #1
 8161 00ec 28308405 		streq	r3, [r4, #40]
 8162 00f0 FEFFFFEB 		bl	_ZN11flatbuffers15vector_downward12ensure_spaceEj
 8163 00f4 183094E5 		ldr	r3, [r4, #24]
 8164 00f8 0110A0E3 		mov	r1, #1
 8165 00fc 0160A0E1 		mov	r6, r1
 8166 0100 003043E0 		sub	r3, r3, r0
 8167 0104 0400A0E1 		mov	r0, r4
 8168 0108 183084E5 		str	r3, [r4, #24]
 8169 010c FEFFFFEB 		bl	_ZN11flatbuffers15vector_downward12ensure_spaceEj
 8170 0110 183094E5 		ldr	r3, [r4, #24]
 8171 0114 1520A0E3 		mov	r2, #21
 8172 0118 0610A0E1 		mov	r1, r6
 8173 011c 003043E0 		sub	r3, r3, r0
 8174 0120 0400A0E1 		mov	r0, r4
 8175 0124 183084E5 		str	r3, [r4, #24]
 8176 0128 0020C3E5 		strb	r2, [r3]
 8177 012c FEFFFFEB 		bl	_ZN11flatbuffers17FlatBufferBuilder9EndVectorEj
 8178 0130 0010A0E1 		mov	r1, r0
 8179 0134 0400A0E1 		mov	r0, r4
 8180 0138 FEFFFFEB 		bl	_ZN6tflite12CreateBufferERN11flatbuffers17FlatBufferBuilderENS0_6OffsetINS0_6VectorIhEEEE
 8181 013c 486025E5 		str	r6, [r5, #-72]!
 8182 0140 0510A0E1 		mov	r1, r5
 8183 0144 4C008DE5 		str	r0, [sp, #76]
 8184 0148 0400A0E1 		mov	r0, r4
 8185 014c FEFFFFEB 		bl	_ZN11flatbuffers17FlatBufferBuilder12CreateVectorIlEENS_6OffsetINS_6VectorIT_EEEEPKS4_j.constpr
 8186 0150 001000E3 		movw	r1, #:lower16:.LC39
 8187 0154 0090A0E1 		mov	r9, r0
 8188 0158 1120A0E3 		mov	r2, #17
 8189 015c 001040E3 		movt	r1, #:upper16:.LC39
 8190 0160 0400A0E1 		mov	r0, r4
 8191 0164 FEFFFFEB 		bl	_ZN11flatbuffers17FlatBufferBuilder12CreateStringEPKcj
 8192 0168 0910A0E1 		mov	r1, r9
 8193 016c 0030A0E1 		mov	r3, r0
 8194 0170 0A20A0E1 		mov	r2, r10
 8195 0174 0CA08DE5 		str	r10, [sp, #12]
 8196 0178 08A08DE5 		str	r10, [sp, #8]
 8197 017c 0400A0E1 		mov	r0, r4
 8198 0180 04A08DE5 		str	r10, [sp, #4]
 8199 0184 00A08DE5 		str	r10, [sp]
 8200 0188 FEFFFFEB 		bl	_ZN6tflite12CreateTensorERN11flatbuffers17FlatBufferBuilderENS0_6OffsetINS0_6VectorIlEEEENS_10T
 8201 018c 0510A0E1 		mov	r1, r5
 8202 0190 58008DE5 		str	r0, [sp, #88]
 8203 0194 0400A0E1 		mov	r0, r4
 8204 0198 FEFFFFEB 		bl	_ZN11flatbuffers17FlatBufferBuilder12CreateVectorIlEENS_6OffsetINS_6VectorIT_EEEEPKS4_j.constpr
 8205 019c 001000E3 		movw	r1, #:lower16:.LC44
 8206 01a0 0090A0E1 		mov	r9, r0
 8207 01a4 1220A0E3 		mov	r2, #18
 8208 01a8 001040E3 		movt	r1, #:upper16:.LC44
 8209 01ac 0400A0E1 		mov	r0, r4
 8210 01b0 FEFFFFEB 		bl	_ZN11flatbuffers17FlatBufferBuilder12CreateStringEPKcj
 8211 01b4 0630A0E1 		mov	r3, r6
 8212 01b8 0910A0E1 		mov	r1, r9
 8213 01bc 0320A0E3 		mov	r2, #3
 8214 01c0 00008DE5 		str	r0, [sp]
 8215 01c4 10A08DE5 		str	r10, [sp, #16]
 8216 01c8 0400A0E1 		mov	r0, r4
 8217 01cc 0CA08DE5 		str	r10, [sp, #12]
 8218 01d0 0490A0E3 		mov	r9, #4
 8219 01d4 08A08DE5 		str	r10, [sp, #8]
 8220 01d8 04A08DE5 		str	r10, [sp, #4]
 8221 01dc FEFFFFEB 		bl	_ZN6tflite12CreateTensorERN11flatbuffers17FlatBufferBuilderENS0_6OffsetINS0_6VectorIlEEEENS_10T
 8222 01e0 0510A0E1 		mov	r1, r5
 8223 01e4 5C008DE5 		str	r0, [sp, #92]
 8224 01e8 0400A0E1 		mov	r0, r4
 8225 01ec FEFFFFEB 		bl	_ZN11flatbuffers17FlatBufferBuilder12CreateVectorIlEENS_6OffsetINS_6VectorIT_EEEEPKS4_j.constpr
 8226 01f0 001000E3 		movw	r1, #:lower16:.LC41
 8227 01f4 0060A0E1 		mov	r6, r0
 8228 01f8 1220A0E3 		mov	r2, #18
 8229 01fc 001040E3 		movt	r1, #:upper16:.LC41
 8230 0200 0400A0E1 		mov	r0, r4
 8231 0204 FEFFFFEB 		bl	_ZN11flatbuffers17FlatBufferBuilder12CreateStringEPKcj
 8232 0208 0610A0E1 		mov	r1, r6
 8233 020c 0030A0E1 		mov	r3, r0
 8234 0210 0A20A0E1 		mov	r2, r10
 8235 0214 0CA08DE5 		str	r10, [sp, #12]
 8236 0218 08A08DE5 		str	r10, [sp, #8]
 8237 021c 0400A0E1 		mov	r0, r4
 8238 0220 04A08DE5 		str	r10, [sp, #4]
 8239 0224 0A60A0E1 		mov	r6, r10
 8240 0228 00A08DE5 		str	r10, [sp]
 8241 022c FEFFFFEB 		bl	_ZN6tflite12CreateTensorERN11flatbuffers17FlatBufferBuilderENS0_6OffsetINS0_6VectorIlEEEENS_10T
 8242 0230 0510A0E1 		mov	r1, r5
 8243 0234 60008DE5 		str	r0, [sp, #96]
 8244 0238 0400A0E1 		mov	r0, r4
 8245 023c FEFFFFEB 		bl	_ZN11flatbuffers17FlatBufferBuilder12CreateVectorIlEENS_6OffsetINS_6VectorIT_EEEEPKS4_j.constpr
 8246 0240 001000E3 		movw	r1, #:lower16:.LC45
 8247 0244 0050A0E1 		mov	r5, r0
 8248 0248 1320A0E3 		mov	r2, #19
 8249 024c 001040E3 		movt	r1, #:upper16:.LC45
 8250 0250 0400A0E1 		mov	r0, r4
 8251 0254 FEFFFFEB 		bl	_ZN11flatbuffers17FlatBufferBuilder12CreateStringEPKcj
 8252 0258 0A20A0E1 		mov	r2, r10
 8253 025c 0030A0E1 		mov	r3, r0
 8254 0260 0510A0E1 		mov	r1, r5
 8255 0264 0CA08DE5 		str	r10, [sp, #12]
 8256 0268 08A08DE5 		str	r10, [sp, #8]
 8257 026c 0400A0E1 		mov	r0, r4
 8258 0270 04A08DE5 		str	r10, [sp, #4]
 8259 0274 00A08DE5 		str	r10, [sp]
 8260 0278 FEFFFFEB 		bl	_ZN6tflite12CreateTensorERN11flatbuffers17FlatBufferBuilderENS0_6OffsetINS0_6VectorIlEEEENS_10T
 8261 027c EB1BDFED 		vldr	d17, .L1668
 8262 0280 0330A0E3 		mov	r3, #3
 8263 0284 40108DE2 		add	r1, sp, #64
 8264 0288 64008DE5 		str	r0, [sp, #100]
 8265 028c E90BDFED 		vldr	d16, .L1668+8
 8266 0290 0400A0E1 		mov	r0, r4
 8267 0294 2C308DE5 		str	r3, [sp, #44]
 8268 0298 0E1BCDED 		vstr	d17, [sp, #56]
 8269 029c 24A08DE5 		str	r10, [sp, #36]
 8270 02a0 100BCDED 		vstr	d16, [sp, #64]
 8271 02a4 28808DE5 		str	r8, [sp, #40]
 8272 02a8 FEFFFFEB 		bl	_ZN11flatbuffers17FlatBufferBuilder12CreateVectorIlEENS_6OffsetINS_6VectorIT_EEEEPKS4_j.constpr
 8273 02ac 28108DE2 		add	r1, sp, #40
 8274 02b0 0050A0E1 		mov	r5, r0
 8275 02b4 0400A0E1 		mov	r0, r4
 8276 02b8 FEFFFFEB 		bl	_ZN11flatbuffers17FlatBufferBuilder12CreateVectorIlEENS_6OffsetINS_6VectorIT_EEEEPKS4_j.constpr
 8277 02bc 0520A0E1 		mov	r2, r5
 8278 02c0 0030A0E1 		mov	r3, r0
 8279 02c4 0A10A0E1 		mov	r1, r10
 8280 02c8 14A08DE5 		str	r10, [sp, #20]
 8281 02cc 10A08DE5 		str	r10, [sp, #16]
 8282 02d0 0400A0E1 		mov	r0, r4
 8283 02d4 0CA08DE5 		str	r10, [sp, #12]
 8284 02d8 0850A0E1 		mov	r5, r8
 8285 02dc 08A08DE5 		str	r10, [sp, #8]
 8286 02e0 04A08DE5 		str	r10, [sp, #4]
 8287 02e4 00A08DE5 		str	r10, [sp]
 8288 02e8 FEFFFFEB 		bl	_ZN6tflite14CreateOperatorERN11flatbuffers17FlatBufferBuilderEmNS0_6OffsetINS0_6VectorIlEEEES6_
 8289 02ec 40108DE2 		add	r1, sp, #64
 8290 02f0 50008DE5 		str	r0, [sp, #80]
 8291 02f4 0400A0E1 		mov	r0, r4
 8292 02f8 FEFFFFEB 		bl	_ZN11flatbuffers17FlatBufferBuilder12CreateVectorIlEENS_6OffsetINS_6VectorIT_EEEEPKS4_j.constpr
 8293 02fc 2C108DE2 		add	r1, sp, #44
 8294 0300 00B0A0E1 		mov	fp, r0
 8295 0304 0400A0E1 		mov	r0, r4
 8296 0308 FEFFFFEB 		bl	_ZN11flatbuffers17FlatBufferBuilder12CreateVectorIlEENS_6OffsetINS_6VectorIT_EEEEPKS4_j.constpr
 8297 030c 0B20A0E1 		mov	r2, fp
 8298 0310 0030A0E1 		mov	r3, r0
 8299 0314 0A10A0E1 		mov	r1, r10
 8300 0318 14A08DE5 		str	r10, [sp, #20]
 8301 031c 10A08DE5 		str	r10, [sp, #16]
 8302 0320 0400A0E1 		mov	r0, r4
 8303 0324 0CA08DE5 		str	r10, [sp, #12]
 8304 0328 08A08DE5 		str	r10, [sp, #8]
 8305 032c 04A08DE5 		str	r10, [sp, #4]
 8306 0330 00A08DE5 		str	r10, [sp]
 8307 0334 FEFFFFEB 		bl	_ZN6tflite14CreateOperatorERN11flatbuffers17FlatBufferBuilderEmNS0_6OffsetINS0_6VectorIlEEEES6_
 8308 0338 58108DE2 		add	r1, sp, #88
 8309 033c 54008DE5 		str	r0, [sp, #84]
 8310 0340 0400A0E1 		mov	r0, r4
 8311 0344 FEFFFFEB 		bl	_ZN11flatbuffers17FlatBufferBuilder12CreateVectorIN6tflite6TensorEEENS_6OffsetINS_6VectorINS4_I
 8312 0348 24108DE2 		add	r1, sp, #36
 8313 034c 18008DE5 		str	r0, [sp, #24]
 8314 0350 0400A0E1 		mov	r0, r4
 8315 0354 FEFFFFEB 		bl	_ZN11flatbuffers17FlatBufferBuilder12CreateVectorIlEENS_6OffsetINS_6VectorIT_EEEEPKS4_j.constpr
 8316 0358 38108DE2 		add	r1, sp, #56
 8317 035c 1C008DE5 		str	r0, [sp, #28]
 8318 0360 0400A0E1 		mov	r0, r4
 8319 0364 FEFFFFEB 		bl	_ZN11flatbuffers17FlatBufferBuilder12CreateVectorIlEENS_6OffsetINS_6VectorIT_EEEEPKS4_j.constpr
 8320 0368 0810A0E1 		mov	r1, r8
 8321 036c 00B0A0E1 		mov	fp, r0
 8322 0370 0400A0E1 		mov	r0, r4
 8323 0374 FEFFFFEB 		bl	_ZN11flatbuffers17FlatBufferBuilder11StartVectorEjj.constprop.148
 8324 0378 182094E5 		ldr	r2, [r4, #24]
 8325              	.L1604:
 8326 037c 015045E2 		sub	r5, r5, #1
 8327 0380 68308DE2 		add	r3, sp, #104
 8328 0384 281094E5 		ldr	r1, [r4, #40]
 8329 0388 053183E0 		add	r3, r3, r5, lsl #2
 8330 038c 0400A0E1 		mov	r0, r4
 8331 0390 188013E5 		ldr	r8, [r3, #-24]
 8332 0394 143094E5 		ldr	r3, [r4, #20]
 8333 0398 030051E3 		cmp	r1, #3
 8334 039c 101094E5 		ldr	r1, [r4, #16]
 8335 03a0 28908495 		strls	r9, [r4, #40]
 8336 03a4 033042E0 		sub	r3, r2, r3
 8337 03a8 013043E0 		sub	r3, r3, r1
 8338 03ac 03A003E2 		and	r10, r3, #3
 8339 03b0 0A10A0E1 		mov	r1, r10
 8340 03b4 FEFFFFEB 		bl	_ZN11flatbuffers15vector_downward12ensure_spaceEj
 8341 03b8 182094E5 		ldr	r2, [r4, #24]
 8342 03bc 00005AE3 		cmp	r10, #0
 8343 03c0 000042E0 		sub	r0, r2, r0
 8344 03c4 180084E5 		str	r0, [r4, #24]
 8345 03c8 0700000A 		beq	.L1599
 8346 03cc 01005AE3 		cmp	r10, #1
 8347 03d0 0060C0E5 		strb	r6, [r0]
 8348 03d4 0400000A 		beq	.L1599
 8349 03d8 182094E5 		ldr	r2, [r4, #24]
 8350 03dc 02005AE3 		cmp	r10, #2
 8351 03e0 0160C2E5 		strb	r6, [r2, #1]
 8352 03e4 18309415 		ldrne	r3, [r4, #24]
 8353 03e8 0260C315 		strbne	r6, [r3, #2]
 8354              	.L1599:
 8355 03ec 000058E3 		cmp	r8, #0
 8356 03f0 B800000A 		beq	.L1601
 8357 03f4 182094E5 		ldr	r2, [r4, #24]
 8358 03f8 141094E5 		ldr	r1, [r4, #20]
 8359 03fc 103094E5 		ldr	r3, [r4, #16]
 8360 0400 012042E0 		sub	r2, r2, r1
 8361 0404 023043E0 		sub	r3, r3, r2
 8362 0408 080053E1 		cmp	r3, r8
 8363 040c B100003A 		bcc	.L1601
 8364 0410 282094E5 		ldr	r2, [r4, #40]
 8365 0414 041083E2 		add	r1, r3, #4
 8366 0418 003063E2 		rsb	r3, r3, #0
 8367 041c 088041E0 		sub	r8, r1, r8
 8368 0420 03A003E2 		and	r10, r3, #3
 8369 0424 0400A0E1 		mov	r0, r4
 8370 0428 030052E3 		cmp	r2, #3
 8371 042c 0A10A0E1 		mov	r1, r10
 8372 0430 28908495 		strls	r9, [r4, #40]
 8373 0434 FEFFFFEB 		bl	_ZN11flatbuffers15vector_downward12ensure_spaceEj
 8374 0438 182094E5 		ldr	r2, [r4, #24]
 8375 043c 00005AE3 		cmp	r10, #0
 8376 0440 000042E0 		sub	r0, r2, r0
 8377 0444 180084E5 		str	r0, [r4, #24]
 8378 0448 0700000A 		beq	.L1603
 8379 044c 01005AE3 		cmp	r10, #1
 8380 0450 0060C0E5 		strb	r6, [r0]
 8381 0454 0400000A 		beq	.L1603
 8382 0458 182094E5 		ldr	r2, [r4, #24]
 8383 045c 02005AE3 		cmp	r10, #2
 8384 0460 0160C2E5 		strb	r6, [r2, #1]
 8385 0464 18309415 		ldrne	r3, [r4, #24]
 8386 0468 0260C315 		strbne	r6, [r3, #2]
 8387              	.L1603:
 8388 046c 0410A0E3 		mov	r1, #4
 8389 0470 0400A0E1 		mov	r0, r4
 8390 0474 FEFFFFEB 		bl	_ZN11flatbuffers15vector_downward12ensure_spaceEj
 8391 0478 182094E5 		ldr	r2, [r4, #24]
 8392 047c 000055E3 		cmp	r5, #0
 8393 0480 002042E0 		sub	r2, r2, r0
 8394 0484 182084E5 		str	r2, [r4, #24]
 8395 0488 008082E5 		str	r8, [r2]
 8396 048c BAFFFF1A 		bne	.L1604
 8397 0490 0210A0E3 		mov	r1, #2
 8398 0494 0400A0E1 		mov	r0, r4
 8399 0498 FEFFFFEB 		bl	_ZN11flatbuffers17FlatBufferBuilder9EndVectorEj
 8400 049c 001000E3 		movw	r1, #:lower16:.LC32
 8401 04a0 0060A0E1 		mov	r6, r0
 8402 04a4 0D20A0E3 		mov	r2, #13
 8403 04a8 001040E3 		movt	r1, #:upper16:.LC32
 8404 04ac 0400A0E1 		mov	r0, r4
 8405 04b0 0490A0E3 		mov	r9, #4
 8406 04b4 FEFFFFEB 		bl	_ZN11flatbuffers17FlatBufferBuilder12CreateStringEPKcj
 8407 04b8 0B30A0E1 		mov	r3, fp
 8408 04bc 00608DE5 		str	r6, [sp]
 8409 04c0 04008DE5 		str	r0, [sp, #4]
 8410 04c4 0400A0E1 		mov	r0, r4
 8411 04c8 1C209DE5 		ldr	r2, [sp, #28]
 8412 04cc 0260A0E3 		mov	r6, #2
 8413 04d0 18109DE5 		ldr	r1, [sp, #24]
 8414 04d4 FEFFFFEB 		bl	_ZN6tflite14CreateSubGraphERN11flatbuffers17FlatBufferBuilderENS0_6OffsetINS0_6VectorINS3_INS_6
 8415 04d8 001000E3 		movw	r1, #:lower16:.LC35
 8416 04dc 2020A0E3 		mov	r2, #32
 8417 04e0 30008DE5 		str	r0, [sp, #48]
 8418 04e4 001040E3 		movt	r1, #:upper16:.LC35
 8419 04e8 0400A0E1 		mov	r0, r4
 8420 04ec FEFFFFEB 		bl	_ZN6tflite24CreateOperatorCodeDirectERN11flatbuffers17FlatBufferBuilderEaPKclNS_15BuiltinOperat
 8421 04f0 68108DE2 		add	r1, sp, #104
 8422 04f4 340021E5 		str	r0, [r1, #-52]!
 8423 04f8 0400A0E1 		mov	r0, r4
 8424 04fc FEFFFFEB 		bl	_ZN11flatbuffers17FlatBufferBuilder12CreateVectorIN6tflite12OperatorCodeEEENS_6OffsetINS_6Vecto
 8425 0500 30108DE2 		add	r1, sp, #48
 8426 0504 18008DE5 		str	r0, [sp, #24]
 8427 0508 0400A0E1 		mov	r0, r4
 8428 050c FEFFFFEB 		bl	_ZN11flatbuffers17FlatBufferBuilder12CreateVectorIN6tflite8SubGraphEEENS_6OffsetINS_6VectorINS4
 8429 0510 001000E3 		movw	r1, #:lower16:.LC43
 8430 0514 0A20A0E3 		mov	r2, #10
 8431 0518 001040E3 		movt	r1, #:upper16:.LC43
 8432 051c 00B0A0E1 		mov	fp, r0
 8433 0520 0400A0E1 		mov	r0, r4
 8434 0524 FEFFFFEB 		bl	_ZN11flatbuffers17FlatBufferBuilder12CreateStringEPKcj
 8435 0528 0610A0E1 		mov	r1, r6
 8436 052c 1C008DE5 		str	r0, [sp, #28]
 8437 0530 0400A0E1 		mov	r0, r4
 8438 0534 FEFFFFEB 		bl	_ZN11flatbuffers17FlatBufferBuilder11StartVectorEjj.constprop.148
 8439 0538 183094E5 		ldr	r3, [r4, #24]
 8440              	.L1609:
 8441 053c 281094E5 		ldr	r1, [r4, #40]
 8442 0540 016046E2 		sub	r6, r6, #1
 8443 0544 148094E5 		ldr	r8, [r4, #20]
 8444 0548 68208DE2 		add	r2, sp, #104
 8445 054c 062182E0 		add	r2, r2, r6, lsl #2
 8446 0550 0400A0E1 		mov	r0, r4
 8447 0554 030051E3 		cmp	r1, #3
 8448 0558 101094E5 		ldr	r1, [r4, #16]
 8449 055c 088043E0 		sub	r8, r3, r8
 8450 0560 28908495 		strls	r9, [r4, #40]
 8451 0564 20A012E5 		ldr	r10, [r2, #-32]
 8452 0568 018048E0 		sub	r8, r8, r1
 8453 056c 038008E2 		and	r8, r8, #3
 8454 0570 0810A0E1 		mov	r1, r8
 8455 0574 FEFFFFEB 		bl	_ZN11flatbuffers15vector_downward12ensure_spaceEj
 8456 0578 183094E5 		ldr	r3, [r4, #24]
 8457 057c 000058E3 		cmp	r8, #0
 8458 0580 000043E0 		sub	r0, r3, r0
 8459 0584 180084E5 		str	r0, [r4, #24]
 8460 0588 0700000A 		beq	.L1606
 8461 058c 010058E3 		cmp	r8, #1
 8462 0590 0050C0E5 		strb	r5, [r0]
 8463 0594 0400000A 		beq	.L1606
 8464 0598 183094E5 		ldr	r3, [r4, #24]
 8465 059c 020058E3 		cmp	r8, #2
 8466 05a0 0150C3E5 		strb	r5, [r3, #1]
 8467 05a4 18309415 		ldrne	r3, [r4, #24]
 8468 05a8 0250C315 		strbne	r5, [r3, #2]
 8469              	.L1606:
 8470 05ac 00005AE3 		cmp	r10, #0
 8471 05b0 4800000A 		beq	.L1601
 8472 05b4 181094E5 		ldr	r1, [r4, #24]
 8473 05b8 140094E5 		ldr	r0, [r4, #20]
 8474 05bc 103094E5 		ldr	r3, [r4, #16]
 8475 05c0 001041E0 		sub	r1, r1, r0
 8476 05c4 013043E0 		sub	r3, r3, r1
 8477 05c8 0A0053E1 		cmp	r3, r10
 8478 05cc 4100003A 		bcc	.L1601
 8479 05d0 281094E5 		ldr	r1, [r4, #40]
 8480 05d4 048083E2 		add	r8, r3, #4
 8481 05d8 003063E2 		rsb	r3, r3, #0
 8482 05dc 0A8048E0 		sub	r8, r8, r10
 8483 05e0 03A003E2 		and	r10, r3, #3
 8484 05e4 0400A0E1 		mov	r0, r4
 8485 05e8 030051E3 		cmp	r1, #3
 8486 05ec 0A10A0E1 		mov	r1, r10
 8487 05f0 28908495 		strls	r9, [r4, #40]
 8488 05f4 FEFFFFEB 		bl	_ZN11flatbuffers15vector_downward12ensure_spaceEj
 8489 05f8 182094E5 		ldr	r2, [r4, #24]
 8490 05fc 00005AE3 		cmp	r10, #0
 8491 0600 000042E0 		sub	r0, r2, r0
 8492 0604 180084E5 		str	r0, [r4, #24]
 8493 0608 0C00000A 		beq	.L1608
 8494 060c 01005AE3 		cmp	r10, #1
 8495 0610 0050C0E5 		strb	r5, [r0]
 8496 0614 0900000A 		beq	.L1608
 8497 0618 182094E5 		ldr	r2, [r4, #24]
 8498 061c 02005AE3 		cmp	r10, #2
 8499 0620 0150C2E5 		strb	r5, [r2, #1]
 8500 0624 18309415 		ldrne	r3, [r4, #24]
 8501 0628 0250C315 		strbne	r5, [r3, #2]
 8502 062c 030000EA 		b	.L1669
 8503              	.L1670:
 8504              		.align	3
 8505              	.L1668:
 8506 0630 02000000 		.word	2
 8507 0634 03000000 		.word	3
 8508 0638 00000000 		.word	0
 8509 063c 01000000 		.word	1
 8510              	.L1669:
 8511              	.L1608:
 8512 0640 0410A0E3 		mov	r1, #4
 8513 0644 0400A0E1 		mov	r0, r4
 8514 0648 FEFFFFEB 		bl	_ZN11flatbuffers15vector_downward12ensure_spaceEj
 8515 064c 183094E5 		ldr	r3, [r4, #24]
 8516 0650 000056E3 		cmp	r6, #0
 8517 0654 003043E0 		sub	r3, r3, r0
 8518 0658 183084E5 		str	r3, [r4, #24]
 8519 065c 008083E5 		str	r8, [r3]
 8520 0660 B5FFFF1A 		bne	.L1609
 8521 0664 0210A0E3 		mov	r1, #2
 8522 0668 0400A0E1 		mov	r0, r4
 8523 066c FEFFFFEB 		bl	_ZN11flatbuffers17FlatBufferBuilder9EndVectorEj
 8524 0670 1CC09DE5 		ldr	ip, [sp, #28]
 8525 0674 0B30A0E1 		mov	r3, fp
 8526 0678 04008DE5 		str	r0, [sp, #4]
 8527 067c 0610A0E1 		mov	r1, r6
 8528 0680 18209DE5 		ldr	r2, [sp, #24]
 8529 0684 0400A0E1 		mov	r0, r4
 8530 0688 00C08DE5 		str	ip, [sp]
 8531 068c 10608DE5 		str	r6, [sp, #16]
 8532 0690 0C608DE5 		str	r6, [sp, #12]
 8533 0694 08608DE5 		str	r6, [sp, #8]
 8534 0698 FEFFFFEB 		bl	_ZN6tflite11CreateModelERN11flatbuffers17FlatBufferBuilderEmNS0_6OffsetINS0_6VectorINS3_INS_12O
 8535 069c 0010A0E1 		mov	r1, r0
 8536 06a0 0400A0E1 		mov	r0, r4
 8537 06a4 FEFFFFEB 		bl	_ZN11flatbuffers17FlatBufferBuilder6FinishEmPKcb.constprop.146
 8538 06a8 2730D4E5 		ldrb	r3, [r4, #39]	@ zero_extendqisi2
 8539 06ac 000053E3 		cmp	r3, #0
 8540 06b0 1A00000A 		beq	.L1666
 8541 06b4 185094E5 		ldr	r5, [r4, #24]
 8542 06b8 000055E3 		cmp	r5, #0
 8543 06bc 1600000A 		beq	.L1667
 8544 06c0 003095E5 		ldr	r3, [r5]
 8545 06c4 035085E0 		add	r5, r5, r3
 8546 06c8 0500A0E1 		mov	r0, r5
 8547 06cc 005087E5 		str	r5, [r7]
 8548 06d0 6CD08DE2 		add	sp, sp, #108
 8549              		@ sp needed
 8550 06d4 F08FBDE8 		pop	{r4, r5, r6, r7, r8, r9, r10, fp, pc}
 8551              	.L1601:
 8552 06d8 003000E3 		movw	r3, #:lower16:.LC25
 8553 06dc 002000E3 		movw	r2, #:lower16:.LANCHOR13
 8554 06e0 000000E3 		movw	r0, #:lower16:.LC19
 8555 06e4 003040E3 		movt	r3, #:upper16:.LC25
 8556 06e8 002040E3 		movt	r2, #:upper16:.LANCHOR13
 8557 06ec 000040E3 		movt	r0, #:upper16:.LC19
 8558 06f0 3B1500E3 		movw	r1, #1339
 8559 06f4 FEFFFFEB 		bl	__assert_func
 8560              	.L1665:
 8561 06f8 FEFFFFEB 		bl	_ZN11flatbuffers17FlatBufferBuilder9NotNestedEv.isra.20.part.21
 8562              	.L1664:
 8563 06fc 003000E3 		movw	r3, #:lower16:.LC24
 8564 0700 002000E3 		movw	r2, #:lower16:.LANCHOR11
 8565 0704 000000E3 		movw	r0, #:lower16:.LC19
 8566 0708 003040E3 		movt	r3, #:upper16:.LC24
 8567 070c 002040E3 		movt	r2, #:upper16:.LANCHOR11
 8568 0710 000040E3 		movt	r0, #:upper16:.LC19
 8569 0714 481500E3 		movw	r1, #1352
 8570 0718 FEFFFFEB 		bl	__assert_func
 8571              	.L1667:
 8572 071c FEFFFFEB 		bl	_ZNK11flatbuffers15vector_downward4dataEv.isra.9.part.10
 8573              	.L1666:
 8574 0720 003000E3 		movw	r3, #:lower16:.LC34
 8575 0724 002000E3 		movw	r2, #:lower16:.LANCHOR18
 8576 0728 000000E3 		movw	r0, #:lower16:.LC19
 8577 072c 003040E3 		movt	r3, #:upper16:.LC34
 8578 0730 002040E3 		movt	r2, #:upper16:.LANCHOR18
 8579 0734 000040E3 		movt	r0, #:upper16:.LC19
 8580 0738 D71400E3 		movw	r1, #1239
 8581 073c FEFFFFEB 		bl	__assert_func
 8582              		.fnend
 8584              		.section	.text._ZN6tflite7testing28GetSimpleMultipleInputsModelEv,"ax",%progbits
 8585              		.align	2
 8586              		.global	_ZN6tflite7testing28GetSimpleMultipleInputsModelEv
 8587              		.syntax unified
 8588              		.arm
 8589              		.fpu neon
 8591              	_ZN6tflite7testing28GetSimpleMultipleInputsModelEv:
 8592              		.fnstart
 8593              	.LFB7106:
 8594              		@ args = 0, pretend = 0, frame = 72
 8595              		@ frame_needed = 0, uses_anonymous_args = 0
 8596 0000 F04F2DE9 		push	{r4, r5, r6, r7, r8, r9, r10, fp, lr}
 8597              		.save {r4, r5, r6, r7, r8, r9, r10, fp, lr}
 8598 0004 005000E3 		movw	r5, #:lower16:.LANCHOR32
 8599 0008 005040E3 		movt	r5, #:upper16:.LANCHOR32
 8600              		.pad #100
 8601 000c 64D04DE2 		sub	sp, sp, #100
 8602 0010 004095E5 		ldr	r4, [r5]
 8603 0014 000054E3 		cmp	r4, #0
 8604 0018 0200000A 		beq	.L1676
 8605 001c 0400A0E1 		mov	r0, r4
 8606 0020 64D08DE2 		add	sp, sp, #100
 8607              		@ sp needed
 8608 0024 F08FBDE8 		pop	{r4, r5, r6, r7, r8, r9, r10, fp, pc}
 8609              	.L1676:
 8610 0028 FEFFFFEB 		bl	_ZN6tflite7testing12_GLOBAL__N_115BuilderInstanceEv
 8611 002c 0410A0E1 		mov	r1, r4
 8612 0030 0060A0E1 		mov	r6, r0
 8613 0034 60808DE2 		add	r8, sp, #96
 8614 0038 38908DE2 		add	r9, sp, #56
 8615 003c FEFFFFEB 		bl	_ZN6tflite12CreateBufferERN11flatbuffers17FlatBufferBuilderENS0_6OffsetINS0_6VectorIhEEEE
 8616 0040 0130A0E3 		mov	r3, #1
 8617 0044 1C008DE5 		str	r0, [sp, #28]
 8618 0048 403028E5 		str	r3, [r8, #-64]!
 8619 004c 0600A0E1 		mov	r0, r6
 8620 0050 0810A0E1 		mov	r1, r8
 8621 0054 44A08DE2 		add	r10, sp, #68
 8622 0058 FEFFFFEB 		bl	_ZN11flatbuffers17FlatBufferBuilder12CreateVectorIlEENS_6OffsetINS_6VectorIT_EEEEPKS4_j.constpr
 8623 005c 001000E3 		movw	r1, #:lower16:.LC46
 8624 0060 0070A0E1 		mov	r7, r0
 8625 0064 1220A0E3 		mov	r2, #18
 8626 0068 001040E3 		movt	r1, #:upper16:.LC46
 8627 006c 0600A0E1 		mov	r0, r6
 8628 0070 FEFFFFEB 		bl	_ZN11flatbuffers17FlatBufferBuilder12CreateStringEPKcj
 8629 0074 0710A0E1 		mov	r1, r7
 8630 0078 0030A0E1 		mov	r3, r0
 8631 007c 0420A0E1 		mov	r2, r4
 8632 0080 0C408DE5 		str	r4, [sp, #12]
 8633 0084 0600A0E1 		mov	r0, r6
 8634 0088 08408DE5 		str	r4, [sp, #8]
 8635 008c 04408DE5 		str	r4, [sp, #4]
 8636 0090 0370A0E3 		mov	r7, #3
 8637 0094 00408DE5 		str	r4, [sp]
 8638 0098 FEFFFFEB 		bl	_ZN6tflite12CreateTensorERN11flatbuffers17FlatBufferBuilderENS0_6OffsetINS0_6VectorIlEEEENS_10T
 8639 009c 0810A0E1 		mov	r1, r8
 8640 00a0 50008DE5 		str	r0, [sp, #80]
 8641 00a4 0600A0E1 		mov	r0, r6
 8642 00a8 FEFFFFEB 		bl	_ZN11flatbuffers17FlatBufferBuilder12CreateVectorIlEENS_6OffsetINS_6VectorIT_EEEEPKS4_j.constpr
 8643 00ac 001000E3 		movw	r1, #:lower16:.LC47
 8644 00b0 00B0A0E1 		mov	fp, r0
 8645 00b4 1220A0E3 		mov	r2, #18
 8646 00b8 001040E3 		movt	r1, #:upper16:.LC47
 8647 00bc 0600A0E1 		mov	r0, r6
 8648 00c0 FEFFFFEB 		bl	_ZN11flatbuffers17FlatBufferBuilder12CreateStringEPKcj
 8649 00c4 0B10A0E1 		mov	r1, fp
 8650 00c8 0030A0E1 		mov	r3, r0
 8651 00cc 0920A0E3 		mov	r2, #9
 8652 00d0 08408DE5 		str	r4, [sp, #8]
 8653 00d4 0600A0E1 		mov	r0, r6
 8654 00d8 04408DE5 		str	r4, [sp, #4]
 8655 00dc 00408DE5 		str	r4, [sp]
 8656 00e0 FEFFFFEB 		bl	_ZN6tflite12CreateTensorERN11flatbuffers17FlatBufferBuilderENS0_6OffsetINS0_6VectorIlEEEENS_10T
 8657 00e4 0810A0E1 		mov	r1, r8
 8658 00e8 54008DE5 		str	r0, [sp, #84]
 8659 00ec 0600A0E1 		mov	r0, r6
 8660 00f0 FEFFFFEB 		bl	_ZN11flatbuffers17FlatBufferBuilder12CreateVectorIlEENS_6OffsetINS_6VectorIT_EEEEPKS4_j.constpr
 8661 00f4 001000E3 		movw	r1, #:lower16:.LC48
 8662 00f8 00B0A0E1 		mov	fp, r0
 8663 00fc 1220A0E3 		mov	r2, #18
 8664 0100 001040E3 		movt	r1, #:upper16:.LC48
 8665 0104 0600A0E1 		mov	r0, r6
 8666 0108 FEFFFFEB 		bl	_ZN11flatbuffers17FlatBufferBuilder12CreateStringEPKcj
 8667 010c 0B10A0E1 		mov	r1, fp
 8668 0110 0030A0E1 		mov	r3, r0
 8669 0114 0420A0E1 		mov	r2, r4
 8670 0118 0C408DE5 		str	r4, [sp, #12]
 8671 011c 0600A0E1 		mov	r0, r6
 8672 0120 08408DE5 		str	r4, [sp, #8]
 8673 0124 04408DE5 		str	r4, [sp, #4]
 8674 0128 00408DE5 		str	r4, [sp]
 8675 012c FEFFFFEB 		bl	_ZN6tflite12CreateTensorERN11flatbuffers17FlatBufferBuilderENS0_6OffsetINS0_6VectorIlEEEENS_10T
 8676 0130 0810A0E1 		mov	r1, r8
 8677 0134 58008DE5 		str	r0, [sp, #88]
 8678 0138 0600A0E1 		mov	r0, r6
 8679 013c 60808DE2 		add	r8, sp, #96
 8680 0140 FEFFFFEB 		bl	_ZN11flatbuffers17FlatBufferBuilder12CreateVectorIlEENS_6OffsetINS_6VectorIT_EEEEPKS4_j.constpr
 8681 0144 001000E3 		movw	r1, #:lower16:.LC41
 8682 0148 00B0A0E1 		mov	fp, r0
 8683 014c 1220A0E3 		mov	r2, #18
 8684 0150 001040E3 		movt	r1, #:upper16:.LC41
 8685 0154 0600A0E1 		mov	r0, r6
 8686 0158 FEFFFFEB 		bl	_ZN11flatbuffers17FlatBufferBuilder12CreateStringEPKcj
 8687 015c 0B10A0E1 		mov	r1, fp
 8688 0160 0030A0E1 		mov	r3, r0
 8689 0164 0420A0E1 		mov	r2, r4
 8690 0168 0C408DE5 		str	r4, [sp, #12]
 8691 016c 0600A0E1 		mov	r0, r6
 8692 0170 08408DE5 		str	r4, [sp, #8]
 8693 0174 04408DE5 		str	r4, [sp, #4]
 8694 0178 00408DE5 		str	r4, [sp]
 8695 017c FEFFFFEB 		bl	_ZN6tflite12CreateTensorERN11flatbuffers17FlatBufferBuilderENS0_6OffsetINS0_6VectorIlEEEENS_10T
 8696 0180 003000E3 		movw	r3, #:lower16:.LANCHOR33
 8697 0184 5C008DE5 		str	r0, [sp, #92]
 8698 0188 003040E3 		movt	r3, #:upper16:.LANCHOR33
 8699 018c 387028E5 		str	r7, [r8, #-56]!
 8700 0190 070093E8 		ldm	r3, {r0, r1, r2}
 8701 0194 24708DE5 		str	r7, [sp, #36]
 8702 0198 070089E8 		stm	r9, {r0, r1, r2}
 8703 019c 07008AE8 		stm	r10, {r0, r1, r2}
 8704 01a0 0710A0E1 		mov	r1, r7
 8705 01a4 0600A0E1 		mov	r0, r6
 8706 01a8 FEFFFFEB 		bl	_ZN11flatbuffers17FlatBufferBuilder11StartVectorEjj.constprop.148
 8707 01ac 0C10A0E3 		mov	r1, #12
 8708 01b0 0600A0E1 		mov	r0, r6
 8709 01b4 FEFFFFEB 		bl	_ZN11flatbuffers15vector_downward12ensure_spaceEj
 8710 01b8 183096E5 		ldr	r3, [r6, #24]
 8711 01bc 0C20A0E3 		mov	r2, #12
 8712 01c0 0A10A0E1 		mov	r1, r10
 8713 01c4 000043E0 		sub	r0, r3, r0
 8714 01c8 180086E5 		str	r0, [r6, #24]
 8715 01cc FEFFFFEB 		bl	memcpy
 8716 01d0 0710A0E1 		mov	r1, r7
 8717 01d4 0600A0E1 		mov	r0, r6
 8718 01d8 FEFFFFEB 		bl	_ZN11flatbuffers17FlatBufferBuilder9EndVectorEj
 8719 01dc 0810A0E1 		mov	r1, r8
 8720 01e0 00A0A0E1 		mov	r10, r0
 8721 01e4 0600A0E1 		mov	r0, r6
 8722 01e8 FEFFFFEB 		bl	_ZN11flatbuffers17FlatBufferBuilder12CreateVectorIlEENS_6OffsetINS_6VectorIT_EEEEPKS4_j.constpr
 8723 01ec 0A20A0E1 		mov	r2, r10
 8724 01f0 0030A0E1 		mov	r3, r0
 8725 01f4 0410A0E1 		mov	r1, r4
 8726 01f8 14408DE5 		str	r4, [sp, #20]
 8727 01fc 0600A0E1 		mov	r0, r6
 8728 0200 10408DE5 		str	r4, [sp, #16]
 8729 0204 0C408DE5 		str	r4, [sp, #12]
 8730 0208 08408DE5 		str	r4, [sp, #8]
 8731 020c 04408DE5 		str	r4, [sp, #4]
 8732 0210 00408DE5 		str	r4, [sp]
 8733 0214 FEFFFFEB 		bl	_ZN6tflite14CreateOperatorERN11flatbuffers17FlatBufferBuilderEmNS0_6OffsetINS0_6VectorIlEEEES6_
 8734 0218 50108DE2 		add	r1, sp, #80
 8735 021c 2C008DE5 		str	r0, [sp, #44]
 8736 0220 0600A0E1 		mov	r0, r6
 8737 0224 FEFFFFEB 		bl	_ZN11flatbuffers17FlatBufferBuilder12CreateVectorIN6tflite6TensorEEENS_6OffsetINS_6VectorINS4_I
 8738 0228 0710A0E1 		mov	r1, r7
 8739 022c 0080A0E1 		mov	r8, r0
 8740 0230 0600A0E1 		mov	r0, r6
 8741 0234 FEFFFFEB 		bl	_ZN11flatbuffers17FlatBufferBuilder11StartVectorEjj.constprop.148
 8742 0238 0C10A0E3 		mov	r1, #12
 8743 023c 0600A0E1 		mov	r0, r6
 8744 0240 FEFFFFEB 		bl	_ZN11flatbuffers15vector_downward12ensure_spaceEj
 8745 0244 183096E5 		ldr	r3, [r6, #24]
 8746 0248 0C20A0E3 		mov	r2, #12
 8747 024c 0910A0E1 		mov	r1, r9
 8748 0250 000043E0 		sub	r0, r3, r0
 8749 0254 180086E5 		str	r0, [r6, #24]
 8750 0258 FEFFFFEB 		bl	memcpy
 8751 025c 0710A0E1 		mov	r1, r7
 8752 0260 0600A0E1 		mov	r0, r6
 8753 0264 FEFFFFEB 		bl	_ZN11flatbuffers17FlatBufferBuilder9EndVectorEj
 8754 0268 24108DE2 		add	r1, sp, #36
 8755 026c 0070A0E1 		mov	r7, r0
 8756 0270 0600A0E1 		mov	r0, r6
 8757 0274 FEFFFFEB 		bl	_ZN11flatbuffers17FlatBufferBuilder12CreateVectorIlEENS_6OffsetINS_6VectorIT_EEEEPKS4_j.constpr
 8758 0278 2C108DE2 		add	r1, sp, #44
 8759 027c 0090A0E1 		mov	r9, r0
 8760 0280 0600A0E1 		mov	r0, r6
 8761 0284 FEFFFFEB 		bl	_ZN11flatbuffers17FlatBufferBuilder12CreateVectorIN6tflite8OperatorEEENS_6OffsetINS_6VectorINS4
 8762 0288 001000E3 		movw	r1, #:lower16:.LC32
 8763 028c 00A0A0E1 		mov	r10, r0
 8764 0290 0D20A0E3 		mov	r2, #13
 8765 0294 001040E3 		movt	r1, #:upper16:.LC32
 8766 0298 0600A0E1 		mov	r0, r6
 8767 029c FEFFFFEB 		bl	_ZN11flatbuffers17FlatBufferBuilder12CreateStringEPKcj
 8768 02a0 0930A0E1 		mov	r3, r9
 8769 02a4 0720A0E1 		mov	r2, r7
 8770 02a8 0810A0E1 		mov	r1, r8
 8771 02ac 04008DE5 		str	r0, [sp, #4]
 8772 02b0 00A08DE5 		str	r10, [sp]
 8773 02b4 0600A0E1 		mov	r0, r6
 8774 02b8 FEFFFFEB 		bl	_ZN6tflite14CreateSubGraphERN11flatbuffers17FlatBufferBuilderENS0_6OffsetINS0_6VectorINS3_INS_6
 8775 02bc 001000E3 		movw	r1, #:lower16:.LC38
 8776 02c0 2020A0E3 		mov	r2, #32
 8777 02c4 30008DE5 		str	r0, [sp, #48]
 8778 02c8 001040E3 		movt	r1, #:upper16:.LC38
 8779 02cc 0600A0E1 		mov	r0, r6
 8780 02d0 FEFFFFEB 		bl	_ZN6tflite24CreateOperatorCodeDirectERN11flatbuffers17FlatBufferBuilderEaPKclNS_15BuiltinOperat
 8781 02d4 60108DE2 		add	r1, sp, #96
 8782 02d8 2C0021E5 		str	r0, [r1, #-44]!
 8783 02dc 0600A0E1 		mov	r0, r6
 8784 02e0 FEFFFFEB 		bl	_ZN11flatbuffers17FlatBufferBuilder12CreateVectorIN6tflite12OperatorCodeEEENS_6OffsetINS_6Vecto
 8785 02e4 30108DE2 		add	r1, sp, #48
 8786 02e8 0070A0E1 		mov	r7, r0
 8787 02ec 0600A0E1 		mov	r0, r6
 8788 02f0 FEFFFFEB 		bl	_ZN11flatbuffers17FlatBufferBuilder12CreateVectorIN6tflite8SubGraphEEENS_6OffsetINS_6VectorINS4
 8789 02f4 001000E3 		movw	r1, #:lower16:.LC43
 8790 02f8 0A20A0E3 		mov	r2, #10
 8791 02fc 0080A0E1 		mov	r8, r0
 8792 0300 001040E3 		movt	r1, #:upper16:.LC43
 8793 0304 0600A0E1 		mov	r0, r6
 8794 0308 FEFFFFEB 		bl	_ZN11flatbuffers17FlatBufferBuilder12CreateStringEPKcj
 8795 030c 1C108DE2 		add	r1, sp, #28
 8796 0310 0090A0E1 		mov	r9, r0
 8797 0314 0600A0E1 		mov	r0, r6
 8798 0318 FEFFFFEB 		bl	_ZN11flatbuffers17FlatBufferBuilder12CreateVectorIN6tflite6BufferEEENS_6OffsetINS_6VectorINS4_I
 8799 031c 0830A0E1 		mov	r3, r8
 8800 0320 04008DE5 		str	r0, [sp, #4]
 8801 0324 0720A0E1 		mov	r2, r7
 8802 0328 0410A0E1 		mov	r1, r4
 8803 032c 00908DE5 		str	r9, [sp]
 8804 0330 0600A0E1 		mov	r0, r6
 8805 0334 10408DE5 		str	r4, [sp, #16]
 8806 0338 0C408DE5 		str	r4, [sp, #12]
 8807 033c 08408DE5 		str	r4, [sp, #8]
 8808 0340 FEFFFFEB 		bl	_ZN6tflite11CreateModelERN11flatbuffers17FlatBufferBuilderEmNS0_6OffsetINS0_6VectorINS3_INS_12O
 8809 0344 0010A0E1 		mov	r1, r0
 8810 0348 0600A0E1 		mov	r0, r6
 8811 034c FEFFFFEB 		bl	_ZN11flatbuffers17FlatBufferBuilder6FinishEmPKcb.constprop.146
 8812 0350 2730D6E5 		ldrb	r3, [r6, #39]	@ zero_extendqisi2
 8813 0354 000053E3 		cmp	r3, #0
 8814 0358 0800000A 		beq	.L1677
 8815 035c 184096E5 		ldr	r4, [r6, #24]
 8816 0360 000054E3 		cmp	r4, #0
 8817 0364 0D00000A 		beq	.L1678
 8818 0368 003094E5 		ldr	r3, [r4]
 8819 036c 034084E0 		add	r4, r4, r3
 8820 0370 0400A0E1 		mov	r0, r4
 8821 0374 004085E5 		str	r4, [r5]
 8822 0378 64D08DE2 		add	sp, sp, #100
 8823              		@ sp needed
 8824 037c F08FBDE8 		pop	{r4, r5, r6, r7, r8, r9, r10, fp, pc}
 8825              	.L1677:
 8826 0380 003000E3 		movw	r3, #:lower16:.LC34
 8827 0384 002000E3 		movw	r2, #:lower16:.LANCHOR18
 8828 0388 000000E3 		movw	r0, #:lower16:.LC19
 8829 038c 003040E3 		movt	r3, #:upper16:.LC34
 8830 0390 002040E3 		movt	r2, #:upper16:.LANCHOR18
 8831 0394 000040E3 		movt	r0, #:upper16:.LC19
 8832 0398 D71400E3 		movw	r1, #1239
 8833 039c FEFFFFEB 		bl	__assert_func
 8834              	.L1678:
 8835 03a0 FEFFFFEB 		bl	_ZNK11flatbuffers15vector_downward4dataEv.isra.9.part.10
 8836              		.fnend
 8838              		.section	.text._ZN6tflite7testing32GetSimpleModelWithSubgraphsAndIfEv,"ax",%progbits
 8839              		.align	2
 8840              		.global	_ZN6tflite7testing32GetSimpleModelWithSubgraphsAndIfEv
 8841              		.syntax unified
 8842              		.arm
 8843              		.fpu neon
 8845              	_ZN6tflite7testing32GetSimpleModelWithSubgraphsAndIfEv:
 8846              		.fnstart
 8847              	.LFB7107:
 8848              		@ args = 0, pretend = 0, frame = 136
 8849              		@ frame_needed = 0, uses_anonymous_args = 0
 8850 0000 F04F2DE9 		push	{r4, r5, r6, r7, r8, r9, r10, fp, lr}
 8851              		.save {r4, r5, r6, r7, r8, r9, r10, fp, lr}
 8852 0004 008000E3 		movw	r8, #:lower16:.LANCHOR34
 8853 0008 008040E3 		movt	r8, #:upper16:.LANCHOR34
 8854              		.pad #164
 8855 000c A4D04DE2 		sub	sp, sp, #164
 8856 0010 005098E5 		ldr	r5, [r8]
 8857 0014 000055E3 		cmp	r5, #0
 8858 0018 0200000A 		beq	.L1842
 8859 001c 0500A0E1 		mov	r0, r5
 8860 0020 A4D08DE2 		add	sp, sp, #164
 8861              		@ sp needed
 8862 0024 F08FBDE8 		pop	{r4, r5, r6, r7, r8, r9, r10, fp, pc}
 8863              	.L1842:
 8864 0028 FEFFFFEB 		bl	_ZN6tflite7testing12_GLOBAL__N_115BuilderInstanceEv
 8865 002c 0510A0E1 		mov	r1, r5
 8866 0030 0040A0E1 		mov	r4, r0
 8867 0034 FEFFFFEB 		bl	_ZN6tflite12CreateBufferERN11flatbuffers17FlatBufferBuilderENS0_6OffsetINS0_6VectorIhEEEE
 8868 0038 FC0BDFED 		vldr	d16, .L1847
 8869 003c 0160A0E3 		mov	r6, #1
 8870 0040 18008DE5 		str	r0, [sp, #24]
 8871 0044 20108DE2 		add	r1, sp, #32
 8872 0048 0400A0E1 		mov	r0, r4
 8873 004c 0E0BCDED 		vstr	d16, [sp, #56]
 8874 0050 20608DE5 		str	r6, [sp, #32]
 8875 0054 FEFFFFEB 		bl	_ZN11flatbuffers17FlatBufferBuilder12CreateVectorIlEENS_6OffsetINS_6VectorIT_EEEEPKS4_j.constpr
 8876 0058 001000E3 		movw	r1, #:lower16:.LC49
 8877 005c 0070A0E1 		mov	r7, r0
 8878 0060 1020A0E3 		mov	r2, #16
 8879 0064 001040E3 		movt	r1, #:upper16:.LC49
 8880 0068 0400A0E1 		mov	r0, r4
 8881 006c FEFFFFEB 		bl	_ZN11flatbuffers17FlatBufferBuilder12CreateStringEPKcj
 8882 0070 0710A0E1 		mov	r1, r7
 8883 0074 0030A0E1 		mov	r3, r0
 8884 0078 0620A0E3 		mov	r2, #6
 8885 007c 08508DE5 		str	r5, [sp, #8]
 8886 0080 0400A0E1 		mov	r0, r4
 8887 0084 04508DE5 		str	r5, [sp, #4]
 8888 0088 00508DE5 		str	r5, [sp]
 8889 008c FEFFFFEB 		bl	_ZN6tflite12CreateTensorERN11flatbuffers17FlatBufferBuilderENS0_6OffsetINS0_6VectorIlEEEENS_10T
 8890 0090 38108DE2 		add	r1, sp, #56
 8891 0094 70008DE5 		str	r0, [sp, #112]
 8892 0098 0400A0E1 		mov	r0, r4
 8893 009c FEFFFFEB 		bl	_ZN11flatbuffers17FlatBufferBuilder12CreateVectorIlEENS_6OffsetINS_6VectorIT_EEEEPKS4_j.constpr
 8894 00a0 001000E3 		movw	r1, #:lower16:.LC50
 8895 00a4 0070A0E1 		mov	r7, r0
 8896 00a8 0D20A0E3 		mov	r2, #13
 8897 00ac 001040E3 		movt	r1, #:upper16:.LC50
 8898 00b0 0400A0E1 		mov	r0, r4
 8899 00b4 FEFFFFEB 		bl	_ZN11flatbuffers17FlatBufferBuilder12CreateStringEPKcj
 8900 00b8 0710A0E1 		mov	r1, r7
 8901 00bc 0030A0E1 		mov	r3, r0
 8902 00c0 0520A0E1 		mov	r2, r5
 8903 00c4 08508DE5 		str	r5, [sp, #8]
 8904 00c8 0400A0E1 		mov	r0, r4
 8905 00cc 04508DE5 		str	r5, [sp, #4]
 8906 00d0 00508DE5 		str	r5, [sp]
 8907 00d4 FEFFFFEB 		bl	_ZN6tflite12CreateTensorERN11flatbuffers17FlatBufferBuilderENS0_6OffsetINS0_6VectorIlEEEENS_10T
 8908 00d8 38108DE2 		add	r1, sp, #56
 8909 00dc 74008DE5 		str	r0, [sp, #116]
 8910 00e0 0400A0E1 		mov	r0, r4
 8911 00e4 FEFFFFEB 		bl	_ZN11flatbuffers17FlatBufferBuilder12CreateVectorIlEENS_6OffsetINS_6VectorIT_EEEEPKS4_j.constpr
 8912 00e8 001000E3 		movw	r1, #:lower16:.LC51
 8913 00ec 0070A0E1 		mov	r7, r0
 8914 00f0 0D20A0E3 		mov	r2, #13
 8915 00f4 001040E3 		movt	r1, #:upper16:.LC51
 8916 00f8 0400A0E1 		mov	r0, r4
 8917 00fc FEFFFFEB 		bl	_ZN11flatbuffers17FlatBufferBuilder12CreateStringEPKcj
 8918 0100 0710A0E1 		mov	r1, r7
 8919 0104 0030A0E1 		mov	r3, r0
 8920 0108 0520A0E1 		mov	r2, r5
 8921 010c 08508DE5 		str	r5, [sp, #8]
 8922 0110 0400A0E1 		mov	r0, r4
 8923 0114 04508DE5 		str	r5, [sp, #4]
 8924 0118 00508DE5 		str	r5, [sp]
 8925 011c FEFFFFEB 		bl	_ZN6tflite12CreateTensorERN11flatbuffers17FlatBufferBuilderENS0_6OffsetINS0_6VectorIlEEEENS_10T
 8926 0120 38108DE2 		add	r1, sp, #56
 8927 0124 78008DE5 		str	r0, [sp, #120]
 8928 0128 0400A0E1 		mov	r0, r4
 8929 012c FEFFFFEB 		bl	_ZN11flatbuffers17FlatBufferBuilder12CreateVectorIlEENS_6OffsetINS_6VectorIT_EEEEPKS4_j.constpr
 8930 0130 001000E3 		movw	r1, #:lower16:.LC52
 8931 0134 0070A0E1 		mov	r7, r0
 8932 0138 0D20A0E3 		mov	r2, #13
 8933 013c 001040E3 		movt	r1, #:upper16:.LC52
 8934 0140 0400A0E1 		mov	r0, r4
 8935 0144 FEFFFFEB 		bl	_ZN11flatbuffers17FlatBufferBuilder12CreateStringEPKcj
 8936 0148 0710A0E1 		mov	r1, r7
 8937 014c 0030A0E1 		mov	r3, r0
 8938 0150 0520A0E1 		mov	r2, r5
 8939 0154 08508DE5 		str	r5, [sp, #8]
 8940 0158 0400A0E1 		mov	r0, r4
 8941 015c 04508DE5 		str	r5, [sp, #4]
 8942 0160 00508DE5 		str	r5, [sp]
 8943 0164 FEFFFFEB 		bl	_ZN6tflite12CreateTensorERN11flatbuffers17FlatBufferBuilderENS0_6OffsetINS0_6VectorIlEEEENS_10T
 8944 0168 38108DE2 		add	r1, sp, #56
 8945 016c 7C008DE5 		str	r0, [sp, #124]
 8946 0170 0400A0E1 		mov	r0, r4
 8947 0174 FEFFFFEB 		bl	_ZN11flatbuffers17FlatBufferBuilder12CreateVectorIlEENS_6OffsetINS_6VectorIT_EEEEPKS4_j.constpr
 8948 0178 001000E3 		movw	r1, #:lower16:.LC50
 8949 017c 0070A0E1 		mov	r7, r0
 8950 0180 0D20A0E3 		mov	r2, #13
 8951 0184 001040E3 		movt	r1, #:upper16:.LC50
 8952 0188 0400A0E1 		mov	r0, r4
 8953 018c FEFFFFEB 		bl	_ZN11flatbuffers17FlatBufferBuilder12CreateStringEPKcj
 8954 0190 0710A0E1 		mov	r1, r7
 8955 0194 0030A0E1 		mov	r3, r0
 8956 0198 0520A0E1 		mov	r2, r5
 8957 019c 08508DE5 		str	r5, [sp, #8]
 8958 01a0 0400A0E1 		mov	r0, r4
 8959 01a4 04508DE5 		str	r5, [sp, #4]
 8960 01a8 00508DE5 		str	r5, [sp]
 8961 01ac FEFFFFEB 		bl	_ZN6tflite12CreateTensorERN11flatbuffers17FlatBufferBuilderENS0_6OffsetINS0_6VectorIlEEEENS_10T
 8962 01b0 38108DE2 		add	r1, sp, #56
 8963 01b4 80008DE5 		str	r0, [sp, #128]
 8964 01b8 0400A0E1 		mov	r0, r4
 8965 01bc FEFFFFEB 		bl	_ZN11flatbuffers17FlatBufferBuilder12CreateVectorIlEENS_6OffsetINS_6VectorIT_EEEEPKS4_j.constpr
 8966 01c0 001000E3 		movw	r1, #:lower16:.LC51
 8967 01c4 0070A0E1 		mov	r7, r0
 8968 01c8 0D20A0E3 		mov	r2, #13
 8969 01cc 001040E3 		movt	r1, #:upper16:.LC51
 8970 01d0 0400A0E1 		mov	r0, r4
 8971 01d4 FEFFFFEB 		bl	_ZN11flatbuffers17FlatBufferBuilder12CreateStringEPKcj
 8972 01d8 0710A0E1 		mov	r1, r7
 8973 01dc 0030A0E1 		mov	r3, r0
 8974 01e0 0520A0E1 		mov	r2, r5
 8975 01e4 08508DE5 		str	r5, [sp, #8]
 8976 01e8 0400A0E1 		mov	r0, r4
 8977 01ec 04508DE5 		str	r5, [sp, #4]
 8978 01f0 00508DE5 		str	r5, [sp]
 8979 01f4 FEFFFFEB 		bl	_ZN6tflite12CreateTensorERN11flatbuffers17FlatBufferBuilderENS0_6OffsetINS0_6VectorIlEEEENS_10T
 8980 01f8 38108DE2 		add	r1, sp, #56
 8981 01fc 84008DE5 		str	r0, [sp, #132]
 8982 0200 0400A0E1 		mov	r0, r4
 8983 0204 FEFFFFEB 		bl	_ZN11flatbuffers17FlatBufferBuilder12CreateVectorIlEENS_6OffsetINS_6VectorIT_EEEEPKS4_j.constpr
 8984 0208 001000E3 		movw	r1, #:lower16:.LC52
 8985 020c 0070A0E1 		mov	r7, r0
 8986 0210 0D20A0E3 		mov	r2, #13
 8987 0214 001040E3 		movt	r1, #:upper16:.LC52
 8988 0218 0400A0E1 		mov	r0, r4
 8989 021c FEFFFFEB 		bl	_ZN11flatbuffers17FlatBufferBuilder12CreateStringEPKcj
 8990 0220 0710A0E1 		mov	r1, r7
 8991 0224 0030A0E1 		mov	r3, r0
 8992 0228 0520A0E1 		mov	r2, r5
 8993 022c 08508DE5 		str	r5, [sp, #8]
 8994 0230 0400A0E1 		mov	r0, r4
 8995 0234 04508DE5 		str	r5, [sp, #4]
 8996 0238 00508DE5 		str	r5, [sp]
 8997 023c FEFFFFEB 		bl	_ZN6tflite12CreateTensorERN11flatbuffers17FlatBufferBuilderENS0_6OffsetINS0_6VectorIlEEEENS_10T
 8998 0240 38108DE2 		add	r1, sp, #56
 8999 0244 88008DE5 		str	r0, [sp, #136]
 9000 0248 0400A0E1 		mov	r0, r4
 9001 024c 8C508DE5 		str	r5, [sp, #140]
 9002 0250 FEFFFFEB 		bl	_ZN11flatbuffers17FlatBufferBuilder12CreateVectorIlEENS_6OffsetINS_6VectorIT_EEEEPKS4_j.constpr
 9003 0254 001000E3 		movw	r1, #:lower16:.LC50
 9004 0258 0070A0E1 		mov	r7, r0
 9005 025c 0D20A0E3 		mov	r2, #13
 9006 0260 001040E3 		movt	r1, #:upper16:.LC50
 9007 0264 0400A0E1 		mov	r0, r4
 9008 0268 FEFFFFEB 		bl	_ZN11flatbuffers17FlatBufferBuilder12CreateStringEPKcj
 9009 026c 0710A0E1 		mov	r1, r7
 9010 0270 0030A0E1 		mov	r3, r0
 9011 0274 0520A0E1 		mov	r2, r5
 9012 0278 08508DE5 		str	r5, [sp, #8]
 9013 027c 0400A0E1 		mov	r0, r4
 9014 0280 04508DE5 		str	r5, [sp, #4]
 9015 0284 00508DE5 		str	r5, [sp]
 9016 0288 FEFFFFEB 		bl	_ZN6tflite12CreateTensorERN11flatbuffers17FlatBufferBuilderENS0_6OffsetINS0_6VectorIlEEEENS_10T
 9017 028c 38108DE2 		add	r1, sp, #56
 9018 0290 90008DE5 		str	r0, [sp, #144]
 9019 0294 0400A0E1 		mov	r0, r4
 9020 0298 FEFFFFEB 		bl	_ZN11flatbuffers17FlatBufferBuilder12CreateVectorIlEENS_6OffsetINS_6VectorIT_EEEEPKS4_j.constpr
 9021 029c 001000E3 		movw	r1, #:lower16:.LC51
 9022 02a0 0070A0E1 		mov	r7, r0
 9023 02a4 0D20A0E3 		mov	r2, #13
 9024 02a8 001040E3 		movt	r1, #:upper16:.LC51
 9025 02ac 0400A0E1 		mov	r0, r4
 9026 02b0 FEFFFFEB 		bl	_ZN11flatbuffers17FlatBufferBuilder12CreateStringEPKcj
 9027 02b4 0710A0E1 		mov	r1, r7
 9028 02b8 0030A0E1 		mov	r3, r0
 9029 02bc 0520A0E1 		mov	r2, r5
 9030 02c0 08508DE5 		str	r5, [sp, #8]
 9031 02c4 0400A0E1 		mov	r0, r4
 9032 02c8 04508DE5 		str	r5, [sp, #4]
 9033 02cc 00508DE5 		str	r5, [sp]
 9034 02d0 0370A0E3 		mov	r7, #3
 9035 02d4 FEFFFFEB 		bl	_ZN6tflite12CreateTensorERN11flatbuffers17FlatBufferBuilderENS0_6OffsetINS0_6VectorIlEEEENS_10T
 9036 02d8 38108DE2 		add	r1, sp, #56
 9037 02dc 94008DE5 		str	r0, [sp, #148]
 9038 02e0 0400A0E1 		mov	r0, r4
 9039 02e4 FEFFFFEB 		bl	_ZN11flatbuffers17FlatBufferBuilder12CreateVectorIlEENS_6OffsetINS_6VectorIT_EEEEPKS4_j.constpr
 9040 02e8 001000E3 		movw	r1, #:lower16:.LC52
 9041 02ec 0090A0E1 		mov	r9, r0
 9042 02f0 0D20A0E3 		mov	r2, #13
 9043 02f4 001040E3 		movt	r1, #:upper16:.LC52
 9044 02f8 0400A0E1 		mov	r0, r4
 9045 02fc FEFFFFEB 		bl	_ZN11flatbuffers17FlatBufferBuilder12CreateStringEPKcj
 9046 0300 0910A0E1 		mov	r1, r9
 9047 0304 0030A0E1 		mov	r3, r0
 9048 0308 0520A0E1 		mov	r2, r5
 9049 030c 08508DE5 		str	r5, [sp, #8]
 9050 0310 0400A0E1 		mov	r0, r4
 9051 0314 04508DE5 		str	r5, [sp, #4]
 9052 0318 00508DE5 		str	r5, [sp]
 9053 031c FEFFFFEB 		bl	_ZN6tflite12CreateTensorERN11flatbuffers17FlatBufferBuilderENS0_6OffsetINS0_6VectorIlEEEENS_10T
 9054 0320 003000E3 		movw	r3, #:lower16:.LANCHOR33
 9055 0324 98008DE5 		str	r0, [sp, #152]
 9056 0328 003040E3 		movt	r3, #:upper16:.LANCHOR33
 9057 032c 02C0A0E3 		mov	ip, #2
 9058 0330 070093E8 		ldm	r3, {r0, r1, r2}
 9059 0334 4C308DE2 		add	r3, sp, #76
 9060 0338 28C08DE5 		str	ip, [sp, #40]
 9061 033c 48608DE5 		str	r6, [sp, #72]
 9062 0340 070083E8 		stm	r3, {r0, r1, r2}
 9063 0344 0400A0E1 		mov	r0, r4
 9064 0348 0710A0E1 		mov	r1, r7
 9065 034c 9C508DE5 		str	r5, [sp, #156]
 9066 0350 44508DE5 		str	r5, [sp, #68]
 9067 0354 24708DE5 		str	r7, [sp, #36]
 9068 0358 FEFFFFEB 		bl	_ZN11flatbuffers17FlatBufferBuilder11StartVectorEjj.constprop.148
 9069 035c 0C10A0E3 		mov	r1, #12
 9070 0360 0400A0E1 		mov	r0, r4
 9071 0364 FEFFFFEB 		bl	_ZN11flatbuffers15vector_downward12ensure_spaceEj
 9072 0368 183094E5 		ldr	r3, [r4, #24]
 9073 036c 0C20A0E3 		mov	r2, #12
 9074 0370 4C108DE2 		add	r1, sp, #76
 9075 0374 000043E0 		sub	r0, r3, r0
 9076 0378 180084E5 		str	r0, [r4, #24]
 9077 037c FEFFFFEB 		bl	memcpy
 9078 0380 0710A0E1 		mov	r1, r7
 9079 0384 0400A0E1 		mov	r0, r4
 9080 0388 FEFFFFEB 		bl	_ZN11flatbuffers17FlatBufferBuilder9EndVectorEj
 9081 038c 24108DE2 		add	r1, sp, #36
 9082 0390 0090A0E1 		mov	r9, r0
 9083 0394 0400A0E1 		mov	r0, r4
 9084 0398 FEFFFFEB 		bl	_ZN11flatbuffers17FlatBufferBuilder12CreateVectorIlEENS_6OffsetINS_6VectorIT_EEEEPKS4_j.constpr
 9085 039c 2620D4E5 		ldrb	r2, [r4, #38]	@ zero_extendqisi2
 9086 03a0 00A0A0E1 		mov	r10, r0
 9087 03a4 203094E5 		ldr	r3, [r4, #32]
 9088 03a8 000052E3 		cmp	r2, #0
 9089 03ac EA02001A 		bne	.L1843
 9090 03b0 000053E3 		cmp	r3, #0
 9091 03b4 E702001A 		bne	.L1844
 9092 03b8 281094E5 		ldr	r1, [r4, #40]
 9093 03bc 0400A0E1 		mov	r0, r4
 9094 03c0 183094E5 		ldr	r3, [r4, #24]
 9095 03c4 142094E5 		ldr	r2, [r4, #20]
 9096 03c8 105094E5 		ldr	r5, [r4, #16]
 9097 03cc 030051E3 		cmp	r1, #3
 9098 03d0 2660C4E5 		strb	r6, [r4, #38]
 9099 03d4 023043E0 		sub	r3, r3, r2
 9100 03d8 035045E0 		sub	r5, r5, r3
 9101 03dc 0430A093 		movls	r3, #4
 9102 03e0 28308495 		strls	r3, [r4, #40]
 9103 03e4 003065E2 		rsb	r3, r5, #0
 9104 03e8 036003E2 		and	r6, r3, #3
 9105 03ec 0610A0E1 		mov	r1, r6
 9106 03f0 FEFFFFEB 		bl	_ZN11flatbuffers15vector_downward12ensure_spaceEj
 9107 03f4 183094E5 		ldr	r3, [r4, #24]
 9108 03f8 000056E3 		cmp	r6, #0
 9109 03fc 000043E0 		sub	r0, r3, r0
 9110 0400 180084E5 		str	r0, [r4, #24]
 9111 0404 0B00000A 		beq	.L1684
 9112 0408 010056E3 		cmp	r6, #1
 9113 040c 0030A0E3 		mov	r3, #0
 9114 0410 0030C0E5 		strb	r3, [r0]
 9115 0414 0700000A 		beq	.L1684
 9116 0418 182094E5 		ldr	r2, [r4, #24]
 9117 041c 020056E3 		cmp	r6, #2
 9118 0420 0130C2E5 		strb	r3, [r2, #1]
 9119 0424 18209415 		ldrne	r2, [r4, #24]
 9120 0428 0230C215 		strbne	r3, [r2, #2]
 9121 042c 010000EA 		b	.L1848
 9122              	.L1849:
 9123              		.align	3
 9124              	.L1847:
 9125 0430 01000000 		.word	1
 9126 0434 02000000 		.word	2
 9127              	.L1848:
 9128              	.L1684:
 9129 0438 0410A0E3 		mov	r1, #4
 9130 043c 0400A0E1 		mov	r0, r4
 9131 0440 FEFFFFEB 		bl	_ZN11flatbuffers15vector_downward12ensure_spaceEj
 9132 0444 183094E5 		ldr	r3, [r4, #24]
 9133 0448 02C0A0E3 		mov	ip, #2
 9134 044c 142094E5 		ldr	r2, [r4, #20]
 9135 0450 0810A0E3 		mov	r1, #8
 9136 0454 106094E5 		ldr	r6, [r4, #16]
 9137 0458 000043E0 		sub	r0, r3, r0
 9138 045c 023040E0 		sub	r3, r0, r2
 9139 0460 180084E5 		str	r0, [r4, #24]
 9140 0464 00C080E5 		str	ip, [r0]
 9141 0468 0400A0E1 		mov	r0, r4
 9142 046c 036046E0 		sub	r6, r6, r3
 9143 0470 FEFFFFEB 		bl	_ZN11flatbuffers15vector_downward12ensure_spaceEj
 9144 0474 1C3094E5 		ldr	r3, [r4, #28]
 9145 0478 0620A0E3 		mov	r2, #6
 9146 047c 281094E5 		ldr	r1, [r4, #40]
 9147 0480 080083E2 		add	r0, r3, #8
 9148 0484 006083E5 		str	r6, [r3]
 9149 0488 B420C3E1 		strh	r2, [r3, #4]	@ movhi
 9150 048c B432D4E1 		ldrh	r3, [r4, #36]
 9151 0490 202094E5 		ldr	r2, [r4, #32]
 9152 0494 1C0084E5 		str	r0, [r4, #28]
 9153 0498 0400A0E1 		mov	r0, r4
 9154 049c 060053E3 		cmp	r3, #6
 9155 04a0 0630A0B3 		movlt	r3, #6
 9156 04a4 030051E3 		cmp	r1, #3
 9157 04a8 B432C4E1 		strh	r3, [r4, #36]	@ movhi
 9158 04ac 0430A093 		movls	r3, #4
 9159 04b0 28308495 		strls	r3, [r4, #40]
 9160 04b4 012082E2 		add	r2, r2, #1
 9161 04b8 141094E5 		ldr	r1, [r4, #20]
 9162 04bc 183094E5 		ldr	r3, [r4, #24]
 9163 04c0 202084E5 		str	r2, [r4, #32]
 9164 04c4 102094E5 		ldr	r2, [r4, #16]
 9165 04c8 013043E0 		sub	r3, r3, r1
 9166 04cc 023043E0 		sub	r3, r3, r2
 9167 04d0 036003E2 		and	r6, r3, #3
 9168 04d4 0610A0E1 		mov	r1, r6
 9169 04d8 FEFFFFEB 		bl	_ZN11flatbuffers15vector_downward12ensure_spaceEj
 9170 04dc 182094E5 		ldr	r2, [r4, #24]
 9171 04e0 000056E3 		cmp	r6, #0
 9172 04e4 000042E0 		sub	r0, r2, r0
 9173 04e8 180084E5 		str	r0, [r4, #24]
 9174 04ec 0800000A 		beq	.L1687
 9175 04f0 010056E3 		cmp	r6, #1
 9176 04f4 0030A0E3 		mov	r3, #0
 9177 04f8 0030C0E5 		strb	r3, [r0]
 9178 04fc 0400000A 		beq	.L1687
 9179 0500 182094E5 		ldr	r2, [r4, #24]
 9180 0504 020056E3 		cmp	r6, #2
 9181 0508 0130C2E5 		strb	r3, [r2, #1]
 9182 050c 18209415 		ldrne	r2, [r4, #24]
 9183 0510 0230C215 		strbne	r3, [r2, #2]
 9184              	.L1687:
 9185 0514 0410A0E3 		mov	r1, #4
 9186 0518 0400A0E1 		mov	r0, r4
 9187 051c FEFFFFEB 		bl	_ZN11flatbuffers15vector_downward12ensure_spaceEj
 9188 0520 183094E5 		ldr	r3, [r4, #24]
 9189 0524 0170A0E3 		mov	r7, #1
 9190 0528 142094E5 		ldr	r2, [r4, #20]
 9191 052c 0810A0E3 		mov	r1, #8
 9192 0530 10C094E5 		ldr	ip, [r4, #16]
 9193 0534 0460A0E3 		mov	r6, #4
 9194 0538 003043E0 		sub	r3, r3, r0
 9195 053c 0400A0E1 		mov	r0, r4
 9196 0540 022043E0 		sub	r2, r3, r2
 9197 0544 183084E5 		str	r3, [r4, #24]
 9198 0548 007083E5 		str	r7, [r3]
 9199 054c 02B04CE0 		sub	fp, ip, r2
 9200 0550 FEFFFFEB 		bl	_ZN11flatbuffers15vector_downward12ensure_spaceEj
 9201 0554 1C3094E5 		ldr	r3, [r4, #28]
 9202 0558 0510A0E1 		mov	r1, r5
 9203 055c 202094E5 		ldr	r2, [r4, #32]
 9204 0560 0400A0E1 		mov	r0, r4
 9205 0564 0050A0E3 		mov	r5, #0
 9206 0568 00B083E5 		str	fp, [r3]
 9207 056c 08C083E2 		add	ip, r3, #8
 9208 0570 B460C3E1 		strh	r6, [r3, #4]	@ movhi
 9209 0574 072082E0 		add	r2, r2, r7
 9210 0578 B432D4E1 		ldrh	r3, [r4, #36]
 9211 057c 80B08DE2 		add	fp, sp, #128
 9212 0580 1CC084E5 		str	ip, [r4, #28]
 9213 0584 202084E5 		str	r2, [r4, #32]
 9214 0588 060053E1 		cmp	r3, r6
 9215 058c 0630A0B1 		movlt	r3, r6
 9216 0590 B432C4E1 		strh	r3, [r4, #36]	@ movhi
 9217 0594 FEFFFFEB 		bl	_ZN11flatbuffers17FlatBufferBuilder8EndTableEm
 9218 0598 5CC0A0E3 		mov	ip, #92
 9219 059c 0A30A0E1 		mov	r3, r10
 9220 05a0 00C08DE5 		str	ip, [sp]
 9221 05a4 0920A0E1 		mov	r2, r9
 9222 05a8 04008DE5 		str	r0, [sp, #4]
 9223 05ac 0510A0E1 		mov	r1, r5
 9224 05b0 14508DE5 		str	r5, [sp, #20]
 9225 05b4 0400A0E1 		mov	r0, r4
 9226 05b8 10508DE5 		str	r5, [sp, #16]
 9227 05bc 06A0A0E1 		mov	r10, r6
 9228 05c0 0C508DE5 		str	r5, [sp, #12]
 9229 05c4 08508DE5 		str	r5, [sp, #8]
 9230 05c8 FEFFFFEB 		bl	_ZN6tflite14CreateOperatorERN11flatbuffers17FlatBufferBuilderEmNS0_6OffsetINS0_6VectorIlEEEES6_
 9231 05cc 44108DE2 		add	r1, sp, #68
 9232 05d0 2C008DE5 		str	r0, [sp, #44]
 9233 05d4 0400A0E1 		mov	r0, r4
 9234 05d8 FEFFFFEB 		bl	_ZN11flatbuffers17FlatBufferBuilder12CreateVectorIlEENS_6OffsetINS_6VectorIT_EEEEPKS4_j.constpr
 9235 05dc 28108DE2 		add	r1, sp, #40
 9236 05e0 0090A0E1 		mov	r9, r0
 9237 05e4 0400A0E1 		mov	r0, r4
 9238 05e8 FEFFFFEB 		bl	_ZN11flatbuffers17FlatBufferBuilder12CreateVectorIlEENS_6OffsetINS_6VectorIT_EEEEPKS4_j.constpr
 9239 05ec 0920A0E1 		mov	r2, r9
 9240 05f0 0030A0E1 		mov	r3, r0
 9241 05f4 0710A0E1 		mov	r1, r7
 9242 05f8 14508DE5 		str	r5, [sp, #20]
 9243 05fc 10508DE5 		str	r5, [sp, #16]
 9244 0600 0400A0E1 		mov	r0, r4
 9245 0604 0C508DE5 		str	r5, [sp, #12]
 9246 0608 0570A0E1 		mov	r7, r5
 9247 060c 08508DE5 		str	r5, [sp, #8]
 9248 0610 04508DE5 		str	r5, [sp, #4]
 9249 0614 00508DE5 		str	r5, [sp]
 9250 0618 FEFFFFEB 		bl	_ZN6tflite14CreateOperatorERN11flatbuffers17FlatBufferBuilderEmNS0_6OffsetINS0_6VectorIlEEEES6_
 9251 061c 44108DE2 		add	r1, sp, #68
 9252 0620 30008DE5 		str	r0, [sp, #48]
 9253 0624 0400A0E1 		mov	r0, r4
 9254 0628 FEFFFFEB 		bl	_ZN11flatbuffers17FlatBufferBuilder12CreateVectorIlEENS_6OffsetINS_6VectorIT_EEEEPKS4_j.constpr
 9255 062c 28108DE2 		add	r1, sp, #40
 9256 0630 0090A0E1 		mov	r9, r0
 9257 0634 0400A0E1 		mov	r0, r4
 9258 0638 FEFFFFEB 		bl	_ZN11flatbuffers17FlatBufferBuilder12CreateVectorIlEENS_6OffsetINS_6VectorIT_EEEEPKS4_j.constpr
 9259 063c 0920A0E1 		mov	r2, r9
 9260 0640 0030A0E1 		mov	r3, r0
 9261 0644 0210A0E3 		mov	r1, #2
 9262 0648 14508DE5 		str	r5, [sp, #20]
 9263 064c 10508DE5 		str	r5, [sp, #16]
 9264 0650 0400A0E1 		mov	r0, r4
 9265 0654 0C508DE5 		str	r5, [sp, #12]
 9266 0658 0B90A0E1 		mov	r9, fp
 9267 065c 08508DE5 		str	r5, [sp, #8]
 9268 0660 04508DE5 		str	r5, [sp, #4]
 9269 0664 00508DE5 		str	r5, [sp]
 9270 0668 FEFFFFEB 		bl	_ZN6tflite14CreateOperatorERN11flatbuffers17FlatBufferBuilderEmNS0_6OffsetINS0_6VectorIlEEEES6_
 9271 066c 0610A0E1 		mov	r1, r6
 9272 0670 34008DE5 		str	r0, [sp, #52]
 9273 0674 0400A0E1 		mov	r0, r4
 9274 0678 FEFFFFEB 		bl	_ZN11flatbuffers17FlatBufferBuilder11StartVectorEjj.constprop.148
 9275 067c 183094E5 		ldr	r3, [r4, #24]
 9276              	.L1695:
 9277 0680 282094E5 		ldr	r2, [r4, #40]
 9278 0684 0400A0E1 		mov	r0, r4
 9279 0688 145094E5 		ldr	r5, [r4, #20]
 9280 068c 046039E5 		ldr	r6, [r9, #-4]!
 9281 0690 030052E3 		cmp	r2, #3
 9282 0694 102094E5 		ldr	r2, [r4, #16]
 9283 0698 055043E0 		sub	r5, r3, r5
 9284 069c 28A08495 		strls	r10, [r4, #40]
 9285 06a0 025045E0 		sub	r5, r5, r2
 9286 06a4 035005E2 		and	r5, r5, #3
 9287 06a8 0510A0E1 		mov	r1, r5
 9288 06ac FEFFFFEB 		bl	_ZN11flatbuffers15vector_downward12ensure_spaceEj
 9289 06b0 183094E5 		ldr	r3, [r4, #24]
 9290 06b4 000055E3 		cmp	r5, #0
 9291 06b8 000043E0 		sub	r0, r3, r0
 9292 06bc 180084E5 		str	r0, [r4, #24]
 9293 06c0 0700000A 		beq	.L1690
 9294 06c4 010055E3 		cmp	r5, #1
 9295 06c8 0070C0E5 		strb	r7, [r0]
 9296 06cc 0400000A 		beq	.L1690
 9297 06d0 183094E5 		ldr	r3, [r4, #24]
 9298 06d4 020055E3 		cmp	r5, #2
 9299 06d8 0170C3E5 		strb	r7, [r3, #1]
 9300 06dc 18309415 		ldrne	r3, [r4, #24]
 9301 06e0 0270C315 		strbne	r7, [r3, #2]
 9302              	.L1690:
 9303 06e4 000056E3 		cmp	r6, #0
 9304 06e8 1202000A 		beq	.L1692
 9305 06ec 183094E5 		ldr	r3, [r4, #24]
 9306 06f0 142094E5 		ldr	r2, [r4, #20]
 9307 06f4 105094E5 		ldr	r5, [r4, #16]
 9308 06f8 023043E0 		sub	r3, r3, r2
 9309 06fc 035045E0 		sub	r5, r5, r3
 9310 0700 060055E1 		cmp	r5, r6
 9311 0704 0B02003A 		bcc	.L1692
 9312 0708 283094E5 		ldr	r3, [r4, #40]
 9313 070c 046066E2 		rsb	r6, r6, #4
 9314 0710 056086E0 		add	r6, r6, r5
 9315 0714 005065E2 		rsb	r5, r5, #0
 9316 0718 035005E2 		and	r5, r5, #3
 9317 071c 0400A0E1 		mov	r0, r4
 9318 0720 030053E3 		cmp	r3, #3
 9319 0724 0510A0E1 		mov	r1, r5
 9320 0728 28A08495 		strls	r10, [r4, #40]
 9321 072c FEFFFFEB 		bl	_ZN11flatbuffers15vector_downward12ensure_spaceEj
 9322 0730 183094E5 		ldr	r3, [r4, #24]
 9323 0734 000055E3 		cmp	r5, #0
 9324 0738 000043E0 		sub	r0, r3, r0
 9325 073c 180084E5 		str	r0, [r4, #24]
 9326 0740 0700000A 		beq	.L1694
 9327 0744 010055E3 		cmp	r5, #1
 9328 0748 0070C0E5 		strb	r7, [r0]
 9329 074c 0400000A 		beq	.L1694
 9330 0750 183094E5 		ldr	r3, [r4, #24]
 9331 0754 020055E3 		cmp	r5, #2
 9332 0758 0170C3E5 		strb	r7, [r3, #1]
 9333 075c 18309415 		ldrne	r3, [r4, #24]
 9334 0760 0270C315 		strbne	r7, [r3, #2]
 9335              	.L1694:
 9336 0764 0410A0E3 		mov	r1, #4
 9337 0768 0400A0E1 		mov	r0, r4
 9338 076c FEFFFFEB 		bl	_ZN11flatbuffers15vector_downward12ensure_spaceEj
 9339 0770 183094E5 		ldr	r3, [r4, #24]
 9340 0774 70208DE2 		add	r2, sp, #112
 9341 0778 090052E1 		cmp	r2, r9
 9342 077c 003043E0 		sub	r3, r3, r0
 9343 0780 183084E5 		str	r3, [r4, #24]
 9344 0784 006083E5 		str	r6, [r3]
 9345 0788 BCFFFF1A 		bne	.L1695
 9346 078c 2620D4E5 		ldrb	r2, [r4, #38]	@ zero_extendqisi2
 9347 0790 000052E3 		cmp	r2, #0
 9348 0794 0102000A 		beq	.L1715
 9349 0798 282094E5 		ldr	r2, [r4, #40]
 9350 079c 0010A0E3 		mov	r1, #0
 9351 07a0 2610C4E5 		strb	r1, [r4, #38]
 9352 07a4 0400A0E1 		mov	r0, r4
 9353 07a8 141094E5 		ldr	r1, [r4, #20]
 9354 07ac 030052E3 		cmp	r2, #3
 9355 07b0 0420A093 		movls	r2, #4
 9356 07b4 28208495 		strls	r2, [r4, #40]
 9357 07b8 013043E0 		sub	r3, r3, r1
 9358 07bc 102094E5 		ldr	r2, [r4, #16]
 9359 07c0 023043E0 		sub	r3, r3, r2
 9360 07c4 035003E2 		and	r5, r3, #3
 9361 07c8 0510A0E1 		mov	r1, r5
 9362 07cc FEFFFFEB 		bl	_ZN11flatbuffers15vector_downward12ensure_spaceEj
 9363 07d0 183094E5 		ldr	r3, [r4, #24]
 9364 07d4 000055E3 		cmp	r5, #0
 9365 07d8 000043E0 		sub	r0, r3, r0
 9366 07dc 180084E5 		str	r0, [r4, #24]
 9367 07e0 0800000A 		beq	.L1698
 9368 07e4 010055E3 		cmp	r5, #1
 9369 07e8 0030A0E3 		mov	r3, #0
 9370 07ec 0030C0E5 		strb	r3, [r0]
 9371 07f0 0400000A 		beq	.L1698
 9372 07f4 182094E5 		ldr	r2, [r4, #24]
 9373 07f8 020055E3 		cmp	r5, #2
 9374 07fc 0130C2E5 		strb	r3, [r2, #1]
 9375 0800 18209415 		ldrne	r2, [r4, #24]
 9376 0804 0230C215 		strbne	r3, [r2, #2]
 9377              	.L1698:
 9378 0808 0410A0E3 		mov	r1, #4
 9379 080c 0400A0E1 		mov	r0, r4
 9380 0810 FEFFFFEB 		bl	_ZN11flatbuffers15vector_downward12ensure_spaceEj
 9381 0814 183094E5 		ldr	r3, [r4, #24]
 9382 0818 04C0A0E3 		mov	ip, #4
 9383 081c 142094E5 		ldr	r2, [r4, #20]
 9384 0820 0310A0E3 		mov	r1, #3
 9385 0824 10E094E5 		ldr	lr, [r4, #16]
 9386 0828 8C508DE2 		add	r5, sp, #140
 9387 082c 003043E0 		sub	r3, r3, r0
 9388 0830 0400A0E1 		mov	r0, r4
 9389 0834 022043E0 		sub	r2, r3, r2
 9390 0838 183084E5 		str	r3, [r4, #24]
 9391 083c 00C083E5 		str	ip, [r3]
 9392 0840 02A04EE0 		sub	r10, lr, r2
 9393 0844 FEFFFFEB 		bl	_ZN11flatbuffers17FlatBufferBuilder11StartVectorEjj.constprop.148
 9394 0848 0C10A0E3 		mov	r1, #12
 9395 084c 0400A0E1 		mov	r0, r4
 9396 0850 FEFFFFEB 		bl	_ZN11flatbuffers15vector_downward12ensure_spaceEj
 9397 0854 183094E5 		ldr	r3, [r4, #24]
 9398 0858 0C20A0E3 		mov	r2, #12
 9399 085c 4C108DE2 		add	r1, sp, #76
 9400 0860 0070A0E3 		mov	r7, #0
 9401 0864 000043E0 		sub	r0, r3, r0
 9402 0868 180084E5 		str	r0, [r4, #24]
 9403 086c FEFFFFEB 		bl	memcpy
 9404 0870 0310A0E3 		mov	r1, #3
 9405 0874 0400A0E1 		mov	r0, r4
 9406 0878 FEFFFFEB 		bl	_ZN11flatbuffers17FlatBufferBuilder9EndVectorEj
 9407 087c 24108DE2 		add	r1, sp, #36
 9408 0880 0090A0E1 		mov	r9, r0
 9409 0884 0400A0E1 		mov	r0, r4
 9410 0888 FEFFFFEB 		bl	_ZN11flatbuffers17FlatBufferBuilder12CreateVectorIlEENS_6OffsetINS_6VectorIT_EEEEPKS4_j.constpr
 9411 088c 2C108DE2 		add	r1, sp, #44
 9412 0890 1C008DE5 		str	r0, [sp, #28]
 9413 0894 0400A0E1 		mov	r0, r4
 9414 0898 FEFFFFEB 		bl	_ZN11flatbuffers17FlatBufferBuilder12CreateVectorIN6tflite8OperatorEEENS_6OffsetINS_6VectorINS4
 9415 089c 001000E3 		movw	r1, #:lower16:.LC53
 9416 08a0 0060A0E1 		mov	r6, r0
 9417 08a4 0B20A0E3 		mov	r2, #11
 9418 08a8 001040E3 		movt	r1, #:upper16:.LC53
 9419 08ac 0400A0E1 		mov	r0, r4
 9420 08b0 FEFFFFEB 		bl	_ZN11flatbuffers17FlatBufferBuilder12CreateStringEPKcj
 9421 08b4 0A10A0E1 		mov	r1, r10
 9422 08b8 04008DE5 		str	r0, [sp, #4]
 9423 08bc 00608DE5 		str	r6, [sp]
 9424 08c0 0920A0E1 		mov	r2, r9
 9425 08c4 1C309DE5 		ldr	r3, [sp, #28]
 9426 08c8 0400A0E1 		mov	r0, r4
 9427 08cc FEFFFFEB 		bl	_ZN6tflite14CreateSubGraphERN11flatbuffers17FlatBufferBuilderENS0_6OffsetINS0_6VectorINS3_INS_6
 9428 08d0 0310A0E3 		mov	r1, #3
 9429 08d4 58008DE5 		str	r0, [sp, #88]
 9430 08d8 0400A0E1 		mov	r0, r4
 9431 08dc FEFFFFEB 		bl	_ZN11flatbuffers17FlatBufferBuilder11StartVectorEjj.constprop.148
 9432              	.L1701:
 9433 08e0 041035E5 		ldr	r1, [r5, #-4]!
 9434 08e4 0400A0E1 		mov	r0, r4
 9435 08e8 FEFFFFEB 		bl	_ZN11flatbuffers17FlatBufferBuilder7ReferToEm
 9436 08ec 283094E5 		ldr	r3, [r4, #40]
 9437 08f0 0090A0E1 		mov	r9, r0
 9438 08f4 186094E5 		ldr	r6, [r4, #24]
 9439 08f8 0400A0E1 		mov	r0, r4
 9440 08fc 142094E5 		ldr	r2, [r4, #20]
 9441 0900 030053E3 		cmp	r3, #3
 9442 0904 0430A093 		movls	r3, #4
 9443 0908 28308495 		strls	r3, [r4, #40]
 9444 090c 026046E0 		sub	r6, r6, r2
 9445 0910 103094E5 		ldr	r3, [r4, #16]
 9446 0914 036046E0 		sub	r6, r6, r3
 9447 0918 036006E2 		and	r6, r6, #3
 9448 091c 0610A0E1 		mov	r1, r6
 9449 0920 FEFFFFEB 		bl	_ZN11flatbuffers15vector_downward12ensure_spaceEj
 9450 0924 183094E5 		ldr	r3, [r4, #24]
 9451 0928 000056E3 		cmp	r6, #0
 9452 092c 000043E0 		sub	r0, r3, r0
 9453 0930 180084E5 		str	r0, [r4, #24]
 9454 0934 0700000A 		beq	.L1700
 9455 0938 010056E3 		cmp	r6, #1
 9456 093c 0070C0E5 		strb	r7, [r0]
 9457 0940 0400000A 		beq	.L1700
 9458 0944 183094E5 		ldr	r3, [r4, #24]
 9459 0948 020056E3 		cmp	r6, #2
 9460 094c 0170C3E5 		strb	r7, [r3, #1]
 9461 0950 18309415 		ldrne	r3, [r4, #24]
 9462 0954 0270C315 		strbne	r7, [r3, #2]
 9463              	.L1700:
 9464 0958 0410A0E3 		mov	r1, #4
 9465 095c 0400A0E1 		mov	r0, r4
 9466 0960 FEFFFFEB 		bl	_ZN11flatbuffers15vector_downward12ensure_spaceEj
 9467 0964 183094E5 		ldr	r3, [r4, #24]
 9468 0968 05005BE1 		cmp	fp, r5
 9469 096c 000043E0 		sub	r0, r3, r0
 9470 0970 180084E5 		str	r0, [r4, #24]
 9471 0974 009080E5 		str	r9, [r0]
 9472 0978 D8FFFF1A 		bne	.L1701
 9473 097c 0310A0E3 		mov	r1, #3
 9474 0980 0400A0E1 		mov	r0, r4
 9475 0984 FEFFFFEB 		bl	_ZN11flatbuffers17FlatBufferBuilder9EndVectorEj
 9476 0988 44108DE2 		add	r1, sp, #68
 9477 098c 0070A0E1 		mov	r7, r0
 9478 0990 0400A0E1 		mov	r0, r4
 9479 0994 90A08DE2 		add	r10, sp, #144
 9480 0998 FEFFFFEB 		bl	_ZN11flatbuffers17FlatBufferBuilder12CreateVectorIlEENS_6OffsetINS_6VectorIT_EEEEPKS4_j.constpr
 9481 099c 28108DE2 		add	r1, sp, #40
 9482 09a0 0090A0E1 		mov	r9, r0
 9483 09a4 0400A0E1 		mov	r0, r4
 9484 09a8 9C508DE2 		add	r5, sp, #156
 9485 09ac FEFFFFEB 		bl	_ZN11flatbuffers17FlatBufferBuilder12CreateVectorIlEENS_6OffsetINS_6VectorIT_EEEEPKS4_j.constpr
 9486 09b0 30108DE2 		add	r1, sp, #48
 9487 09b4 00B0A0E1 		mov	fp, r0
 9488 09b8 0400A0E1 		mov	r0, r4
 9489 09bc 0460A0E3 		mov	r6, #4
 9490 09c0 FEFFFFEB 		bl	_ZN11flatbuffers17FlatBufferBuilder12CreateVectorIN6tflite8OperatorEEENS_6OffsetINS_6VectorINS4
 9491 09c4 001000E3 		movw	r1, #:lower16:.LC54
 9492 09c8 1C008DE5 		str	r0, [sp, #28]
 9493 09cc 0D20A0E3 		mov	r2, #13
 9494 09d0 001040E3 		movt	r1, #:upper16:.LC54
 9495 09d4 0400A0E1 		mov	r0, r4
 9496 09d8 FEFFFFEB 		bl	_ZN11flatbuffers17FlatBufferBuilder12CreateStringEPKcj
 9497 09dc 1C309DE5 		ldr	r3, [sp, #28]
 9498 09e0 0710A0E1 		mov	r1, r7
 9499 09e4 04008DE5 		str	r0, [sp, #4]
 9500 09e8 0920A0E1 		mov	r2, r9
 9501 09ec 0400A0E1 		mov	r0, r4
 9502 09f0 0070A0E3 		mov	r7, #0
 9503 09f4 00308DE5 		str	r3, [sp]
 9504 09f8 0B30A0E1 		mov	r3, fp
 9505 09fc FEFFFFEB 		bl	_ZN6tflite14CreateSubGraphERN11flatbuffers17FlatBufferBuilderENS0_6OffsetINS0_6VectorINS3_INS_6
 9506 0a00 0310A0E3 		mov	r1, #3
 9507 0a04 5C008DE5 		str	r0, [sp, #92]
 9508 0a08 0400A0E1 		mov	r0, r4
 9509 0a0c FEFFFFEB 		bl	_ZN11flatbuffers17FlatBufferBuilder11StartVectorEjj.constprop.148
 9510              	.L1704:
 9511 0a10 041035E5 		ldr	r1, [r5, #-4]!
 9512 0a14 0400A0E1 		mov	r0, r4
 9513 0a18 FEFFFFEB 		bl	_ZN11flatbuffers17FlatBufferBuilder7ReferToEm
 9514 0a1c 283094E5 		ldr	r3, [r4, #40]
 9515 0a20 00B0A0E1 		mov	fp, r0
 9516 0a24 189094E5 		ldr	r9, [r4, #24]
 9517 0a28 0400A0E1 		mov	r0, r4
 9518 0a2c 142094E5 		ldr	r2, [r4, #20]
 9519 0a30 030053E3 		cmp	r3, #3
 9520 0a34 103094E5 		ldr	r3, [r4, #16]
 9521 0a38 28608495 		strls	r6, [r4, #40]
 9522 0a3c 029049E0 		sub	r9, r9, r2
 9523 0a40 039049E0 		sub	r9, r9, r3
 9524 0a44 039009E2 		and	r9, r9, #3
 9525 0a48 0910A0E1 		mov	r1, r9
 9526 0a4c FEFFFFEB 		bl	_ZN11flatbuffers15vector_downward12ensure_spaceEj
 9527 0a50 183094E5 		ldr	r3, [r4, #24]
 9528 0a54 000059E3 		cmp	r9, #0
 9529 0a58 000043E0 		sub	r0, r3, r0
 9530 0a5c 180084E5 		str	r0, [r4, #24]
 9531 0a60 0700000A 		beq	.L1703
 9532 0a64 010059E3 		cmp	r9, #1
 9533 0a68 0070C0E5 		strb	r7, [r0]
 9534 0a6c 0400000A 		beq	.L1703
 9535 0a70 183094E5 		ldr	r3, [r4, #24]
 9536 0a74 020059E3 		cmp	r9, #2
 9537 0a78 0170C3E5 		strb	r7, [r3, #1]
 9538 0a7c 18309415 		ldrne	r3, [r4, #24]
 9539 0a80 0270C315 		strbne	r7, [r3, #2]
 9540              	.L1703:
 9541 0a84 0410A0E3 		mov	r1, #4
 9542 0a88 0400A0E1 		mov	r0, r4
 9543 0a8c FEFFFFEB 		bl	_ZN11flatbuffers15vector_downward12ensure_spaceEj
 9544 0a90 183094E5 		ldr	r3, [r4, #24]
 9545 0a94 0A0055E1 		cmp	r5, r10
 9546 0a98 000043E0 		sub	r0, r3, r0
 9547 0a9c 180084E5 		str	r0, [r4, #24]
 9548 0aa0 00B080E5 		str	fp, [r0]
 9549 0aa4 D9FFFF1A 		bne	.L1704
 9550 0aa8 0310A0E3 		mov	r1, #3
 9551 0aac 0400A0E1 		mov	r0, r4
 9552 0ab0 FEFFFFEB 		bl	_ZN11flatbuffers17FlatBufferBuilder9EndVectorEj
 9553 0ab4 44108DE2 		add	r1, sp, #68
 9554 0ab8 0050A0E1 		mov	r5, r0
 9555 0abc 0400A0E1 		mov	r0, r4
 9556 0ac0 70608DE2 		add	r6, sp, #112
 9557 0ac4 FEFFFFEB 		bl	_ZN11flatbuffers17FlatBufferBuilder12CreateVectorIlEENS_6OffsetINS_6VectorIT_EEEEPKS4_j.constpr
 9558 0ac8 28108DE2 		add	r1, sp, #40
 9559 0acc 0070A0E1 		mov	r7, r0
 9560 0ad0 0400A0E1 		mov	r0, r4
 9561 0ad4 64908DE2 		add	r9, sp, #100
 9562 0ad8 FEFFFFEB 		bl	_ZN11flatbuffers17FlatBufferBuilder12CreateVectorIlEENS_6OffsetINS_6VectorIT_EEEEPKS4_j.constpr
 9563 0adc 34108DE2 		add	r1, sp, #52
 9564 0ae0 00A0A0E1 		mov	r10, r0
 9565 0ae4 0400A0E1 		mov	r0, r4
 9566 0ae8 FEFFFFEB 		bl	_ZN11flatbuffers17FlatBufferBuilder12CreateVectorIN6tflite8OperatorEEENS_6OffsetINS_6VectorINS4
 9567 0aec 001000E3 		movw	r1, #:lower16:.LC55
 9568 0af0 00B0A0E1 		mov	fp, r0
 9569 0af4 0D20A0E3 		mov	r2, #13
 9570 0af8 001040E3 		movt	r1, #:upper16:.LC55
 9571 0afc 0400A0E1 		mov	r0, r4
 9572 0b00 FEFFFFEB 		bl	_ZN11flatbuffers17FlatBufferBuilder12CreateStringEPKcj
 9573 0b04 0A30A0E1 		mov	r3, r10
 9574 0b08 0510A0E1 		mov	r1, r5
 9575 0b0c 04008DE5 		str	r0, [sp, #4]
 9576 0b10 0720A0E1 		mov	r2, r7
 9577 0b14 00B08DE5 		str	fp, [sp]
 9578 0b18 0400A0E1 		mov	r0, r4
 9579 0b1c FEFFFFEB 		bl	_ZN6tflite14CreateSubGraphERN11flatbuffers17FlatBufferBuilderENS0_6OffsetINS0_6VectorINS3_INS_6
 9580 0b20 001000E3 		movw	r1, #:lower16:.LC38
 9581 0b24 60008DE5 		str	r0, [sp, #96]
 9582 0b28 001040E3 		movt	r1, #:upper16:.LC38
 9583 0b2c 7620A0E3 		mov	r2, #118
 9584 0b30 0400A0E1 		mov	r0, r4
 9585 0b34 04A0A0E3 		mov	r10, #4
 9586 0b38 FEFFFFEB 		bl	_ZN6tflite24CreateOperatorCodeDirectERN11flatbuffers17FlatBufferBuilderEaPKclNS_15BuiltinOperat
 9587 0b3c 001000E3 		movw	r1, #:lower16:.LC38
 9588 0b40 0020A0E3 		mov	r2, #0
 9589 0b44 64008DE5 		str	r0, [sp, #100]
 9590 0b48 001040E3 		movt	r1, #:upper16:.LC38
 9591 0b4c 0400A0E1 		mov	r0, r4
 9592 0b50 0250A0E1 		mov	r5, r2
 9593 0b54 FEFFFFEB 		bl	_ZN6tflite24CreateOperatorCodeDirectERN11flatbuffers17FlatBufferBuilderEaPKclNS_15BuiltinOperat
 9594 0b58 001000E3 		movw	r1, #:lower16:.LC38
 9595 0b5c 68008DE5 		str	r0, [sp, #104]
 9596 0b60 001040E3 		movt	r1, #:upper16:.LC38
 9597 0b64 1220A0E3 		mov	r2, #18
 9598 0b68 0400A0E1 		mov	r0, r4
 9599 0b6c FEFFFFEB 		bl	_ZN6tflite24CreateOperatorCodeDirectERN11flatbuffers17FlatBufferBuilderEaPKclNS_15BuiltinOperat
 9600 0b70 0310A0E3 		mov	r1, #3
 9601 0b74 6C008DE5 		str	r0, [sp, #108]
 9602 0b78 0400A0E1 		mov	r0, r4
 9603 0b7c FEFFFFEB 		bl	_ZN11flatbuffers17FlatBufferBuilder11StartVectorEjj.constprop.148
 9604              	.L1707:
 9605 0b80 041036E5 		ldr	r1, [r6, #-4]!
 9606 0b84 0400A0E1 		mov	r0, r4
 9607 0b88 FEFFFFEB 		bl	_ZN11flatbuffers17FlatBufferBuilder7ReferToEm
 9608 0b8c 283094E5 		ldr	r3, [r4, #40]
 9609 0b90 00B0A0E1 		mov	fp, r0
 9610 0b94 187094E5 		ldr	r7, [r4, #24]
 9611 0b98 0400A0E1 		mov	r0, r4
 9612 0b9c 142094E5 		ldr	r2, [r4, #20]
 9613 0ba0 030053E3 		cmp	r3, #3
 9614 0ba4 103094E5 		ldr	r3, [r4, #16]
 9615 0ba8 28A08495 		strls	r10, [r4, #40]
 9616 0bac 027047E0 		sub	r7, r7, r2
 9617 0bb0 037047E0 		sub	r7, r7, r3
 9618 0bb4 037007E2 		and	r7, r7, #3
 9619 0bb8 0710A0E1 		mov	r1, r7
 9620 0bbc FEFFFFEB 		bl	_ZN11flatbuffers15vector_downward12ensure_spaceEj
 9621 0bc0 183094E5 		ldr	r3, [r4, #24]
 9622 0bc4 000057E3 		cmp	r7, #0
 9623 0bc8 000043E0 		sub	r0, r3, r0
 9624 0bcc 180084E5 		str	r0, [r4, #24]
 9625 0bd0 0700000A 		beq	.L1706
 9626 0bd4 010057E3 		cmp	r7, #1
 9627 0bd8 0050C0E5 		strb	r5, [r0]
 9628 0bdc 0400000A 		beq	.L1706
 9629 0be0 183094E5 		ldr	r3, [r4, #24]
 9630 0be4 020057E3 		cmp	r7, #2
 9631 0be8 0150C3E5 		strb	r5, [r3, #1]
 9632 0bec 18309415 		ldrne	r3, [r4, #24]
 9633 0bf0 0250C315 		strbne	r5, [r3, #2]
 9634              	.L1706:
 9635 0bf4 0410A0E3 		mov	r1, #4
 9636 0bf8 0400A0E1 		mov	r0, r4
 9637 0bfc FEFFFFEB 		bl	_ZN11flatbuffers15vector_downward12ensure_spaceEj
 9638 0c00 183094E5 		ldr	r3, [r4, #24]
 9639 0c04 090056E1 		cmp	r6, r9
 9640 0c08 000043E0 		sub	r0, r3, r0
 9641 0c0c 180084E5 		str	r0, [r4, #24]
 9642 0c10 00B080E5 		str	fp, [r0]
 9643 0c14 D9FFFF1A 		bne	.L1707
 9644 0c18 0310A0E3 		mov	r1, #3
 9645 0c1c 0400A0E1 		mov	r0, r4
 9646 0c20 FEFFFFEB 		bl	_ZN11flatbuffers17FlatBufferBuilder9EndVectorEj
 9647 0c24 0310A0E3 		mov	r1, #3
 9648 0c28 1C008DE5 		str	r0, [sp, #28]
 9649 0c2c 0400A0E1 		mov	r0, r4
 9650 0c30 58908DE2 		add	r9, sp, #88
 9651 0c34 04A0A0E3 		mov	r10, #4
 9652 0c38 0050A0E3 		mov	r5, #0
 9653 0c3c FEFFFFEB 		bl	_ZN11flatbuffers17FlatBufferBuilder11StartVectorEjj.constprop.148
 9654              	.L1710:
 9655 0c40 041036E5 		ldr	r1, [r6, #-4]!
 9656 0c44 0400A0E1 		mov	r0, r4
 9657 0c48 FEFFFFEB 		bl	_ZN11flatbuffers17FlatBufferBuilder7ReferToEm
 9658 0c4c 283094E5 		ldr	r3, [r4, #40]
 9659 0c50 00B0A0E1 		mov	fp, r0
 9660 0c54 187094E5 		ldr	r7, [r4, #24]
 9661 0c58 0400A0E1 		mov	r0, r4
 9662 0c5c 142094E5 		ldr	r2, [r4, #20]
 9663 0c60 030053E3 		cmp	r3, #3
 9664 0c64 103094E5 		ldr	r3, [r4, #16]
 9665 0c68 28A08495 		strls	r10, [r4, #40]
 9666 0c6c 027047E0 		sub	r7, r7, r2
 9667 0c70 037047E0 		sub	r7, r7, r3
 9668 0c74 037007E2 		and	r7, r7, #3
 9669 0c78 0710A0E1 		mov	r1, r7
 9670 0c7c FEFFFFEB 		bl	_ZN11flatbuffers15vector_downward12ensure_spaceEj
 9671 0c80 183094E5 		ldr	r3, [r4, #24]
 9672 0c84 000057E3 		cmp	r7, #0
 9673 0c88 000043E0 		sub	r0, r3, r0
 9674 0c8c 180084E5 		str	r0, [r4, #24]
 9675 0c90 0700000A 		beq	.L1709
 9676 0c94 010057E3 		cmp	r7, #1
 9677 0c98 0050C0E5 		strb	r5, [r0]
 9678 0c9c 0400000A 		beq	.L1709
 9679 0ca0 183094E5 		ldr	r3, [r4, #24]
 9680 0ca4 020057E3 		cmp	r7, #2
 9681 0ca8 0150C3E5 		strb	r5, [r3, #1]
 9682 0cac 18309415 		ldrne	r3, [r4, #24]
 9683 0cb0 0250C315 		strbne	r5, [r3, #2]
 9684              	.L1709:
 9685 0cb4 0410A0E3 		mov	r1, #4
 9686 0cb8 0400A0E1 		mov	r0, r4
 9687 0cbc FEFFFFEB 		bl	_ZN11flatbuffers15vector_downward12ensure_spaceEj
 9688 0cc0 183094E5 		ldr	r3, [r4, #24]
 9689 0cc4 060059E1 		cmp	r9, r6
 9690 0cc8 000043E0 		sub	r0, r3, r0
 9691 0ccc 180084E5 		str	r0, [r4, #24]
 9692 0cd0 00B080E5 		str	fp, [r0]
 9693 0cd4 D9FFFF1A 		bne	.L1710
 9694 0cd8 0310A0E3 		mov	r1, #3
 9695 0cdc 0400A0E1 		mov	r0, r4
 9696 0ce0 FEFFFFEB 		bl	_ZN11flatbuffers17FlatBufferBuilder9EndVectorEj
 9697 0ce4 001000E3 		movw	r1, #:lower16:.LC43
 9698 0ce8 0A20A0E3 		mov	r2, #10
 9699 0cec 001040E3 		movt	r1, #:upper16:.LC43
 9700 0cf0 0070A0E1 		mov	r7, r0
 9701 0cf4 0400A0E1 		mov	r0, r4
 9702 0cf8 FEFFFFEB 		bl	_ZN11flatbuffers17FlatBufferBuilder12CreateStringEPKcj
 9703 0cfc 0110A0E3 		mov	r1, #1
 9704 0d00 0060A0E1 		mov	r6, r0
 9705 0d04 0400A0E1 		mov	r0, r4
 9706 0d08 FEFFFFEB 		bl	_ZN11flatbuffers17FlatBufferBuilder11StartVectorEjj.constprop.148
 9707 0d0c 283094E5 		ldr	r3, [r4, #40]
 9708 0d10 0400A0E1 		mov	r0, r4
 9709 0d14 185094E5 		ldr	r5, [r4, #24]
 9710 0d18 142094E5 		ldr	r2, [r4, #20]
 9711 0d1c 030053E3 		cmp	r3, #3
 9712 0d20 0430A093 		movls	r3, #4
 9713 0d24 28308495 		strls	r3, [r4, #40]
 9714 0d28 025045E0 		sub	r5, r5, r2
 9715 0d2c 103094E5 		ldr	r3, [r4, #16]
 9716 0d30 035045E0 		sub	r5, r5, r3
 9717 0d34 035005E2 		and	r5, r5, #3
 9718 0d38 0510A0E1 		mov	r1, r5
 9719 0d3c FEFFFFEB 		bl	_ZN11flatbuffers15vector_downward12ensure_spaceEj
 9720 0d40 183094E5 		ldr	r3, [r4, #24]
 9721 0d44 000055E3 		cmp	r5, #0
 9722 0d48 000043E0 		sub	r0, r3, r0
 9723 0d4c 180084E5 		str	r0, [r4, #24]
 9724 0d50 0800000A 		beq	.L1712
 9725 0d54 010055E3 		cmp	r5, #1
 9726 0d58 0030A0E3 		mov	r3, #0
 9727 0d5c 0030C0E5 		strb	r3, [r0]
 9728 0d60 0400000A 		beq	.L1712
 9729 0d64 182094E5 		ldr	r2, [r4, #24]
 9730 0d68 020055E3 		cmp	r5, #2
 9731 0d6c 0130C2E5 		strb	r3, [r2, #1]
 9732 0d70 18209415 		ldrne	r2, [r4, #24]
 9733 0d74 0230C215 		strbne	r3, [r2, #2]
 9734              	.L1712:
 9735 0d78 18009DE5 		ldr	r0, [sp, #24]
 9736 0d7c 000050E3 		cmp	r0, #0
 9737 0d80 6C00000A 		beq	.L1692
 9738 0d84 182094E5 		ldr	r2, [r4, #24]
 9739 0d88 141094E5 		ldr	r1, [r4, #20]
 9740 0d8c 103094E5 		ldr	r3, [r4, #16]
 9741 0d90 012042E0 		sub	r2, r2, r1
 9742 0d94 023043E0 		sub	r3, r3, r2
 9743 0d98 000053E1 		cmp	r3, r0
 9744 0d9c 6500003A 		bcc	.L1692
 9745 0da0 282094E5 		ldr	r2, [r4, #40]
 9746 0da4 049060E2 		rsb	r9, r0, #4
 9747 0da8 039089E0 		add	r9, r9, r3
 9748 0dac 003063E2 		rsb	r3, r3, #0
 9749 0db0 035003E2 		and	r5, r3, #3
 9750 0db4 0400A0E1 		mov	r0, r4
 9751 0db8 030052E3 		cmp	r2, #3
 9752 0dbc 0510A0E1 		mov	r1, r5
 9753 0dc0 0420A093 		movls	r2, #4
 9754 0dc4 28208495 		strls	r2, [r4, #40]
 9755 0dc8 FEFFFFEB 		bl	_ZN11flatbuffers15vector_downward12ensure_spaceEj
 9756 0dcc 183094E5 		ldr	r3, [r4, #24]
 9757 0dd0 000055E3 		cmp	r5, #0
 9758 0dd4 000043E0 		sub	r0, r3, r0
 9759 0dd8 180084E5 		str	r0, [r4, #24]
 9760 0ddc 0800000A 		beq	.L1714
 9761 0de0 010055E3 		cmp	r5, #1
 9762 0de4 0030A0E3 		mov	r3, #0
 9763 0de8 0030C0E5 		strb	r3, [r0]
 9764 0dec 0400000A 		beq	.L1714
 9765 0df0 182094E5 		ldr	r2, [r4, #24]
 9766 0df4 020055E3 		cmp	r5, #2
 9767 0df8 0130C2E5 		strb	r3, [r2, #1]
 9768 0dfc 18209415 		ldrne	r2, [r4, #24]
 9769 0e00 0230C215 		strbne	r3, [r2, #2]
 9770              	.L1714:
 9771 0e04 0410A0E3 		mov	r1, #4
 9772 0e08 0400A0E1 		mov	r0, r4
 9773 0e0c FEFFFFEB 		bl	_ZN11flatbuffers15vector_downward12ensure_spaceEj
 9774 0e10 183094E5 		ldr	r3, [r4, #24]
 9775 0e14 2610D4E5 		ldrb	r1, [r4, #38]	@ zero_extendqisi2
 9776 0e18 142094E5 		ldr	r2, [r4, #20]
 9777 0e1c 105094E5 		ldr	r5, [r4, #16]
 9778 0e20 000043E0 		sub	r0, r3, r0
 9779 0e24 000051E3 		cmp	r1, #0
 9780 0e28 180084E5 		str	r0, [r4, #24]
 9781 0e2c 022040E0 		sub	r2, r0, r2
 9782 0e30 009080E5 		str	r9, [r0]
 9783 0e34 025045E0 		sub	r5, r5, r2
 9784 0e38 5800000A 		beq	.L1715
 9785 0e3c 283094E5 		ldr	r3, [r4, #40]
 9786 0e40 005065E2 		rsb	r5, r5, #0
 9787 0e44 0020A0E3 		mov	r2, #0
 9788 0e48 035005E2 		and	r5, r5, #3
 9789 0e4c 2620C4E5 		strb	r2, [r4, #38]
 9790 0e50 0400A0E1 		mov	r0, r4
 9791 0e54 030053E3 		cmp	r3, #3
 9792 0e58 0510A0E1 		mov	r1, r5
 9793 0e5c 0430A093 		movls	r3, #4
 9794 0e60 28308495 		strls	r3, [r4, #40]
 9795 0e64 FEFFFFEB 		bl	_ZN11flatbuffers15vector_downward12ensure_spaceEj
 9796 0e68 183094E5 		ldr	r3, [r4, #24]
 9797 0e6c 000055E3 		cmp	r5, #0
 9798 0e70 000043E0 		sub	r0, r3, r0
 9799 0e74 180084E5 		str	r0, [r4, #24]
 9800 0e78 0800000A 		beq	.L1717
 9801 0e7c 010055E3 		cmp	r5, #1
 9802 0e80 0030A0E3 		mov	r3, #0
 9803 0e84 0030C0E5 		strb	r3, [r0]
 9804 0e88 0400000A 		beq	.L1717
 9805 0e8c 182094E5 		ldr	r2, [r4, #24]
 9806 0e90 020055E3 		cmp	r5, #2
 9807 0e94 0130C2E5 		strb	r3, [r2, #1]
 9808 0e98 18209415 		ldrne	r2, [r4, #24]
 9809 0e9c 0230C215 		strbne	r3, [r2, #2]
 9810              	.L1717:
 9811 0ea0 0410A0E3 		mov	r1, #4
 9812 0ea4 0400A0E1 		mov	r0, r4
 9813 0ea8 FEFFFFEB 		bl	_ZN11flatbuffers15vector_downward12ensure_spaceEj
 9814 0eac 181094E5 		ldr	r1, [r4, #24]
 9815 0eb0 0150A0E3 		mov	r5, #1
 9816 0eb4 14C094E5 		ldr	ip, [r4, #20]
 9817 0eb8 0730A0E1 		mov	r3, r7
 9818 0ebc 1C209DE5 		ldr	r2, [sp, #28]
 9819 0ec0 000041E0 		sub	r0, r1, r0
 9820 0ec4 101094E5 		ldr	r1, [r4, #16]
 9821 0ec8 0CE040E0 		sub	lr, r0, ip
 9822 0ecc 00C0A0E3 		mov	ip, #0
 9823 0ed0 180084E5 		str	r0, [r4, #24]
 9824 0ed4 0E1041E0 		sub	r1, r1, lr
 9825 0ed8 005080E5 		str	r5, [r0]
 9826 0edc 04108DE5 		str	r1, [sp, #4]
 9827 0ee0 0400A0E1 		mov	r0, r4
 9828 0ee4 0C10A0E1 		mov	r1, ip
 9829 0ee8 10C08DE5 		str	ip, [sp, #16]
 9830 0eec 0CC08DE5 		str	ip, [sp, #12]
 9831 0ef0 08C08DE5 		str	ip, [sp, #8]
 9832 0ef4 00608DE5 		str	r6, [sp]
 9833 0ef8 FEFFFFEB 		bl	_ZN6tflite11CreateModelERN11flatbuffers17FlatBufferBuilderEmNS0_6OffsetINS0_6VectorINS3_INS_12O
 9834 0efc 0010A0E1 		mov	r1, r0
 9835 0f00 0400A0E1 		mov	r0, r4
 9836 0f04 FEFFFFEB 		bl	_ZN11flatbuffers17FlatBufferBuilder6FinishEmPKcb.constprop.146
 9837 0f08 2730D4E5 		ldrb	r3, [r4, #39]	@ zero_extendqisi2
 9838 0f0c 000053E3 		cmp	r3, #0
 9839 0f10 1A00000A 		beq	.L1845
 9840 0f14 185094E5 		ldr	r5, [r4, #24]
 9841 0f18 000055E3 		cmp	r5, #0
 9842 0f1c 1600000A 		beq	.L1846
 9843 0f20 003095E5 		ldr	r3, [r5]
 9844 0f24 035085E0 		add	r5, r5, r3
 9845 0f28 0500A0E1 		mov	r0, r5
 9846 0f2c 005088E5 		str	r5, [r8]
 9847 0f30 A4D08DE2 		add	sp, sp, #164
 9848              		@ sp needed
 9849 0f34 F08FBDE8 		pop	{r4, r5, r6, r7, r8, r9, r10, fp, pc}
 9850              	.L1692:
 9851 0f38 003000E3 		movw	r3, #:lower16:.LC25
 9852 0f3c 002000E3 		movw	r2, #:lower16:.LANCHOR13
 9853 0f40 000000E3 		movw	r0, #:lower16:.LC19
 9854 0f44 003040E3 		movt	r3, #:upper16:.LC25
 9855 0f48 002040E3 		movt	r2, #:upper16:.LANCHOR13
 9856 0f4c 000040E3 		movt	r0, #:upper16:.LC19
 9857 0f50 3B1500E3 		movw	r1, #1339
 9858 0f54 FEFFFFEB 		bl	__assert_func
 9859              	.L1844:
 9860 0f58 FEFFFFEB 		bl	_ZN11flatbuffers17FlatBufferBuilder9NotNestedEv.isra.20.part.21
 9861              	.L1843:
 9862 0f5c 003000E3 		movw	r3, #:lower16:.LC24
 9863 0f60 002000E3 		movw	r2, #:lower16:.LANCHOR11
 9864 0f64 000000E3 		movw	r0, #:lower16:.LC19
 9865 0f68 003040E3 		movt	r3, #:upper16:.LC24
 9866 0f6c 002040E3 		movt	r2, #:upper16:.LANCHOR11
 9867 0f70 000040E3 		movt	r0, #:upper16:.LC19
 9868 0f74 481500E3 		movw	r1, #1352
 9869 0f78 FEFFFFEB 		bl	__assert_func
 9870              	.L1846:
 9871 0f7c FEFFFFEB 		bl	_ZNK11flatbuffers15vector_downward4dataEv.isra.9.part.10
 9872              	.L1845:
 9873 0f80 003000E3 		movw	r3, #:lower16:.LC34
 9874 0f84 002000E3 		movw	r2, #:lower16:.LANCHOR18
 9875 0f88 000000E3 		movw	r0, #:lower16:.LC19
 9876 0f8c 003040E3 		movt	r3, #:upper16:.LC34
 9877 0f90 002040E3 		movt	r2, #:upper16:.LANCHOR18
 9878 0f94 000040E3 		movt	r0, #:upper16:.LC19
 9879 0f98 D71400E3 		movw	r1, #1239
 9880 0f9c FEFFFFEB 		bl	__assert_func
 9881              	.L1715:
 9882 0fa0 003000E3 		movw	r3, #:lower16:.LC26
 9883 0fa4 002000E3 		movw	r2, #:lower16:.LANCHOR14
 9884 0fa8 000000E3 		movw	r0, #:lower16:.LC19
 9885 0fac 003040E3 		movt	r3, #:upper16:.LC26
 9886 0fb0 002040E3 		movt	r2, #:upper16:.LANCHOR14
 9887 0fb4 000040E3 		movt	r0, #:upper16:.LC19
 9888 0fb8 2C1600E3 		movw	r1, #1580
 9889 0fbc FEFFFFEB 		bl	__assert_func
 9890              		.fnend
 9892              		.section	.text._ZN6tflite7testing19GetComplexMockModelEv,"ax",%progbits
 9893              		.align	2
 9894              		.global	_ZN6tflite7testing19GetComplexMockModelEv
 9895              		.syntax unified
 9896              		.arm
 9897              		.fpu neon
 9899              	_ZN6tflite7testing19GetComplexMockModelEv:
 9900              		.fnstart
 9901              	.LFB7108:
 9902              		@ args = 0, pretend = 0, frame = 120
 9903              		@ frame_needed = 0, uses_anonymous_args = 0
 9904 0000 F04F2DE9 		push	{r4, r5, r6, r7, r8, r9, r10, fp, lr}
 9905              		.save {r4, r5, r6, r7, r8, r9, r10, fp, lr}
 9906 0004 008000E3 		movw	r8, #:lower16:.LANCHOR35
 9907 0008 008040E3 		movt	r8, #:upper16:.LANCHOR35
 9908              		.pad #148
 9909 000c 94D04DE2 		sub	sp, sp, #148
 9910 0010 005098E5 		ldr	r5, [r8]
 9911 0014 000055E3 		cmp	r5, #0
 9912 0018 0200000A 		beq	.L1998
 9913              	.L1851:
 9914 001c 0500A0E1 		mov	r0, r5
 9915 0020 94D08DE2 		add	sp, sp, #148
 9916              		@ sp needed
 9917 0024 F08FBDE8 		pop	{r4, r5, r6, r7, r8, r9, r10, fp, pc}
 9918              	.L1998:
 9919 0028 FEFFFFEB 		bl	_ZN6tflite7testing12_GLOBAL__N_115BuilderInstanceEv
 9920 002c 0510A0E1 		mov	r1, r5
 9921 0030 0040A0E1 		mov	r4, r0
 9922 0034 FEFFFFEB 		bl	_ZN6tflite12CreateBufferERN11flatbuffers17FlatBufferBuilderENS0_6OffsetINS0_6VectorIhEEEE
 9923 0038 0510A0E1 		mov	r1, r5
 9924 003c 4C008DE5 		str	r0, [sp, #76]
 9925 0040 0400A0E1 		mov	r0, r4
 9926 0044 FEFFFFEB 		bl	_ZN6tflite12CreateBufferERN11flatbuffers17FlatBufferBuilderENS0_6OffsetINS0_6VectorIhEEEE
 9927 0048 2620D4E5 		ldrb	r2, [r4, #38]	@ zero_extendqisi2
 9928 004c 50008DE5 		str	r0, [sp, #80]
 9929 0050 203094E5 		ldr	r3, [r4, #32]
 9930 0054 000052E3 		cmp	r2, #0
 9931 0058 7903001A 		bne	.L1857
 9932 005c 000053E3 		cmp	r3, #0
 9933 0060 7603001A 		bne	.L1858
 9934 0064 283094E5 		ldr	r3, [r4, #40]
 9935 0068 0120A0E3 		mov	r2, #1
 9936 006c 2620C4E5 		strb	r2, [r4, #38]
 9937 0070 0400A0E1 		mov	r0, r4
 9938 0074 142094E5 		ldr	r2, [r4, #20]
 9939 0078 030053E3 		cmp	r3, #3
 9940 007c 105094E5 		ldr	r5, [r4, #16]
 9941 0080 0430A093 		movls	r3, #4
 9942 0084 28308495 		strls	r3, [r4, #40]
 9943 0088 183094E5 		ldr	r3, [r4, #24]
 9944 008c 023043E0 		sub	r3, r3, r2
 9945 0090 035045E0 		sub	r5, r5, r3
 9946 0094 0550E0E1 		mvn	r5, r5
 9947 0098 035005E2 		and	r5, r5, #3
 9948 009c 0510A0E1 		mov	r1, r5
 9949 00a0 FEFFFFEB 		bl	_ZN11flatbuffers15vector_downward12ensure_spaceEj
 9950 00a4 183094E5 		ldr	r3, [r4, #24]
 9951 00a8 000055E3 		cmp	r5, #0
 9952 00ac 000043E0 		sub	r0, r3, r0
 9953 00b0 180084E5 		str	r0, [r4, #24]
 9954 00b4 0800000A 		beq	.L1855
 9955 00b8 010055E3 		cmp	r5, #1
 9956 00bc 0030A0E3 		mov	r3, #0
 9957 00c0 0030C0E5 		strb	r3, [r0]
 9958 00c4 0400000A 		beq	.L1855
 9959 00c8 182094E5 		ldr	r2, [r4, #24]
 9960 00cc 020055E3 		cmp	r5, #2
 9961 00d0 0130C2E5 		strb	r3, [r2, #1]
 9962 00d4 18209415 		ldrne	r2, [r4, #24]
 9963 00d8 0230C215 		strbne	r3, [r2, #2]
 9964              	.L1855:
 9965 00dc 283094E5 		ldr	r3, [r4, #40]
 9966 00e0 0010A0E3 		mov	r1, #0
 9967 00e4 0400A0E1 		mov	r0, r4
 9968 00e8 000053E3 		cmp	r3, #0
 9969 00ec 0130A003 		moveq	r3, #1
 9970 00f0 28308405 		streq	r3, [r4, #40]
 9971 00f4 FEFFFFEB 		bl	_ZN11flatbuffers15vector_downward12ensure_spaceEj
 9972 00f8 183094E5 		ldr	r3, [r4, #24]
 9973 00fc 0110A0E3 		mov	r1, #1
 9974 0100 003043E0 		sub	r3, r3, r0
 9975 0104 0400A0E1 		mov	r0, r4
 9976 0108 183084E5 		str	r3, [r4, #24]
 9977 010c FEFFFFEB 		bl	_ZN11flatbuffers15vector_downward12ensure_spaceEj
 9978 0110 183094E5 		ldr	r3, [r4, #24]
 9979 0114 1520A0E3 		mov	r2, #21
 9980 0118 0110A0E3 		mov	r1, #1
 9981 011c 003043E0 		sub	r3, r3, r0
 9982 0120 0400A0E1 		mov	r0, r4
 9983 0124 183084E5 		str	r3, [r4, #24]
 9984 0128 0020C3E5 		strb	r2, [r3]
 9985 012c FEFFFFEB 		bl	_ZN11flatbuffers17FlatBufferBuilder9EndVectorEj
 9986 0130 0010A0E1 		mov	r1, r0
 9987 0134 0400A0E1 		mov	r0, r4
 9988 0138 FEFFFFEB 		bl	_ZN6tflite12CreateBufferERN11flatbuffers17FlatBufferBuilderENS0_6OffsetINS0_6VectorIhEEEE
 9989 013c 0010A0E3 		mov	r1, #0
 9990 0140 54008DE5 		str	r0, [sp, #84]
 9991 0144 0400A0E1 		mov	r0, r4
 9992 0148 FEFFFFEB 		bl	_ZN6tflite12CreateBufferERN11flatbuffers17FlatBufferBuilderENS0_6OffsetINS0_6VectorIhEEEE
 9993 014c 2620D4E5 		ldrb	r2, [r4, #38]	@ zero_extendqisi2
 9994 0150 58008DE5 		str	r0, [sp, #88]
 9995 0154 203094E5 		ldr	r3, [r4, #32]
 9996 0158 000052E3 		cmp	r2, #0
 9997 015c 3803001A 		bne	.L1857
 9998 0160 000053E3 		cmp	r3, #0
 9999 0164 3503001A 		bne	.L1858
 10000 0168 283094E5 		ldr	r3, [r4, #40]
 10001 016c 0120A0E3 		mov	r2, #1
 10002 0170 2620C4E5 		strb	r2, [r4, #38]
 10003 0174 0400A0E1 		mov	r0, r4
 10004 0178 142094E5 		ldr	r2, [r4, #20]
 10005 017c 030053E3 		cmp	r3, #3
 10006 0180 105094E5 		ldr	r5, [r4, #16]
 10007 0184 0430A093 		movls	r3, #4
 10008 0188 28308495 		strls	r3, [r4, #40]
 10009 018c 183094E5 		ldr	r3, [r4, #24]
 10010 0190 023043E0 		sub	r3, r3, r2
 10011 0194 035045E0 		sub	r5, r5, r3
 10012 0198 0550E0E1 		mvn	r5, r5
 10013 019c 035005E2 		and	r5, r5, #3
 10014 01a0 0510A0E1 		mov	r1, r5
 10015 01a4 FEFFFFEB 		bl	_ZN11flatbuffers15vector_downward12ensure_spaceEj
 10016 01a8 183094E5 		ldr	r3, [r4, #24]
 10017 01ac 000055E3 		cmp	r5, #0
 10018 01b0 000043E0 		sub	r0, r3, r0
 10019 01b4 180084E5 		str	r0, [r4, #24]
 10020 01b8 0800000A 		beq	.L1860
 10021 01bc 010055E3 		cmp	r5, #1
 10022 01c0 0030A0E3 		mov	r3, #0
 10023 01c4 0030C0E5 		strb	r3, [r0]
 10024 01c8 0400000A 		beq	.L1860
 10025 01cc 182094E5 		ldr	r2, [r4, #24]
 10026 01d0 020055E3 		cmp	r5, #2
 10027 01d4 0130C2E5 		strb	r3, [r2, #1]
 10028 01d8 18209415 		ldrne	r2, [r4, #24]
 10029 01dc 0230C215 		strbne	r3, [r2, #2]
 10030              	.L1860:
 10031 01e0 283094E5 		ldr	r3, [r4, #40]
 10032 01e4 0010A0E3 		mov	r1, #0
 10033 01e8 0400A0E1 		mov	r0, r4
 10034 01ec 000053E3 		cmp	r3, #0
 10035 01f0 0130A003 		moveq	r3, #1
 10036 01f4 28308405 		streq	r3, [r4, #40]
 10037 01f8 FEFFFFEB 		bl	_ZN11flatbuffers15vector_downward12ensure_spaceEj
 10038 01fc 183094E5 		ldr	r3, [r4, #24]
 10039 0200 0110A0E3 		mov	r1, #1
 10040 0204 003043E0 		sub	r3, r3, r0
 10041 0208 0400A0E1 		mov	r0, r4
 10042 020c 183084E5 		str	r3, [r4, #24]
 10043 0210 FEFFFFEB 		bl	_ZN11flatbuffers15vector_downward12ensure_spaceEj
 10044 0214 183094E5 		ldr	r3, [r4, #24]
 10045 0218 1520A0E3 		mov	r2, #21
 10046 021c 0110A0E3 		mov	r1, #1
 10047 0220 003043E0 		sub	r3, r3, r0
 10048 0224 0400A0E1 		mov	r0, r4
 10049 0228 183084E5 		str	r3, [r4, #24]
 10050 022c 0020C3E5 		strb	r2, [r3]
 10051 0230 FEFFFFEB 		bl	_ZN11flatbuffers17FlatBufferBuilder9EndVectorEj
 10052 0234 0010A0E1 		mov	r1, r0
 10053 0238 0400A0E1 		mov	r0, r4
 10054 023c FEFFFFEB 		bl	_ZN6tflite12CreateBufferERN11flatbuffers17FlatBufferBuilderENS0_6OffsetINS0_6VectorIhEEEE
 10055 0240 0010A0E3 		mov	r1, #0
 10056 0244 5C008DE5 		str	r0, [sp, #92]
 10057 0248 0400A0E1 		mov	r0, r4
 10058 024c FEFFFFEB 		bl	_ZN6tflite12CreateBufferERN11flatbuffers17FlatBufferBuilderENS0_6OffsetINS0_6VectorIhEEEE
 10059 0250 2620D4E5 		ldrb	r2, [r4, #38]	@ zero_extendqisi2
 10060 0254 60008DE5 		str	r0, [sp, #96]
 10061 0258 203094E5 		ldr	r3, [r4, #32]
 10062 025c 000052E3 		cmp	r2, #0
 10063 0260 F702001A 		bne	.L1857
 10064 0264 000053E3 		cmp	r3, #0
 10065 0268 F402001A 		bne	.L1858
 10066 026c 283094E5 		ldr	r3, [r4, #40]
 10067 0270 0120A0E3 		mov	r2, #1
 10068 0274 2620C4E5 		strb	r2, [r4, #38]
 10069 0278 0400A0E1 		mov	r0, r4
 10070 027c 142094E5 		ldr	r2, [r4, #20]
 10071 0280 030053E3 		cmp	r3, #3
 10072 0284 105094E5 		ldr	r5, [r4, #16]
 10073 0288 0430A093 		movls	r3, #4
 10074 028c 28308495 		strls	r3, [r4, #40]
 10075 0290 183094E5 		ldr	r3, [r4, #24]
 10076 0294 023043E0 		sub	r3, r3, r2
 10077 0298 035045E0 		sub	r5, r5, r3
 10078 029c 0550E0E1 		mvn	r5, r5
 10079 02a0 035005E2 		and	r5, r5, #3
 10080 02a4 0510A0E1 		mov	r1, r5
 10081 02a8 FEFFFFEB 		bl	_ZN11flatbuffers15vector_downward12ensure_spaceEj
 10082 02ac 183094E5 		ldr	r3, [r4, #24]
 10083 02b0 000055E3 		cmp	r5, #0
 10084 02b4 000043E0 		sub	r0, r3, r0
 10085 02b8 180084E5 		str	r0, [r4, #24]
 10086 02bc 0800000A 		beq	.L1863
 10087 02c0 010055E3 		cmp	r5, #1
 10088 02c4 0030A0E3 		mov	r3, #0
 10089 02c8 0030C0E5 		strb	r3, [r0]
 10090 02cc 0400000A 		beq	.L1863
 10091 02d0 182094E5 		ldr	r2, [r4, #24]
 10092 02d4 020055E3 		cmp	r5, #2
 10093 02d8 0130C2E5 		strb	r3, [r2, #1]
 10094 02dc 18209415 		ldrne	r2, [r4, #24]
 10095 02e0 0230C215 		strbne	r3, [r2, #2]
 10096              	.L1863:
 10097 02e4 283094E5 		ldr	r3, [r4, #40]
 10098 02e8 0010A0E3 		mov	r1, #0
 10099 02ec 0400A0E1 		mov	r0, r4
 10100 02f0 90708DE2 		add	r7, sp, #144
 10101 02f4 0050A0E3 		mov	r5, #0
 10102 02f8 0390A0E3 		mov	r9, #3
 10103 02fc 000053E3 		cmp	r3, #0
 10104 0300 006000E3 		movw	r6, #:lower16:.LANCHOR33
 10105 0304 0130A003 		moveq	r3, #1
 10106 0308 006040E3 		movt	r6, #:upper16:.LANCHOR33
 10107 030c 28308405 		streq	r3, [r4, #40]
 10108 0310 FEFFFFEB 		bl	_ZN11flatbuffers15vector_downward12ensure_spaceEj
 10109 0314 183094E5 		ldr	r3, [r4, #24]
 10110 0318 0110A0E3 		mov	r1, #1
 10111 031c 01A0A0E1 		mov	r10, r1
 10112 0320 003043E0 		sub	r3, r3, r0
 10113 0324 0400A0E1 		mov	r0, r4
 10114 0328 183084E5 		str	r3, [r4, #24]
 10115 032c FEFFFFEB 		bl	_ZN11flatbuffers15vector_downward12ensure_spaceEj
 10116 0330 183094E5 		ldr	r3, [r4, #24]
 10117 0334 1520A0E3 		mov	r2, #21
 10118 0338 0A10A0E1 		mov	r1, r10
 10119 033c 003043E0 		sub	r3, r3, r0
 10120 0340 0400A0E1 		mov	r0, r4
 10121 0344 183084E5 		str	r3, [r4, #24]
 10122 0348 0020C3E5 		strb	r2, [r3]
 10123 034c FEFFFFEB 		bl	_ZN11flatbuffers17FlatBufferBuilder9EndVectorEj
 10124 0350 0010A0E1 		mov	r1, r0
 10125 0354 0400A0E1 		mov	r0, r4
 10126 0358 FEFFFFEB 		bl	_ZN6tflite12CreateBufferERN11flatbuffers17FlatBufferBuilderENS0_6OffsetINS0_6VectorIhEEEE
 10127 035c 68A027E5 		str	r10, [r7, #-104]!
 10128 0360 0710A0E1 		mov	r1, r7
 10129 0364 64008DE5 		str	r0, [sp, #100]
 10130 0368 0400A0E1 		mov	r0, r4
 10131 036c FEFFFFEB 		bl	_ZN11flatbuffers17FlatBufferBuilder12CreateVectorIlEENS_6OffsetINS_6VectorIT_EEEEPKS4_j.constpr
 10132 0370 001000E3 		movw	r1, #:lower16:.LC56
 10133 0374 00B0A0E1 		mov	fp, r0
 10134 0378 1320A0E3 		mov	r2, #19
 10135 037c 001040E3 		movt	r1, #:upper16:.LC56
 10136 0380 0400A0E1 		mov	r0, r4
 10137 0384 FEFFFFEB 		bl	_ZN11flatbuffers17FlatBufferBuilder12CreateStringEPKcj
 10138 0388 0B10A0E1 		mov	r1, fp
 10139 038c 0030A0E1 		mov	r3, r0
 10140 0390 0520A0E1 		mov	r2, r5
 10141 0394 0C508DE5 		str	r5, [sp, #12]
 10142 0398 08508DE5 		str	r5, [sp, #8]
 10143 039c 0400A0E1 		mov	r0, r4
 10144 03a0 04508DE5 		str	r5, [sp, #4]
 10145 03a4 00508DE5 		str	r5, [sp]
 10146 03a8 FEFFFFEB 		bl	_ZN6tflite12CreateTensorERN11flatbuffers17FlatBufferBuilderENS0_6OffsetINS0_6VectorIlEEEENS_10T
 10147 03ac 0710A0E1 		mov	r1, r7
 10148 03b0 68008DE5 		str	r0, [sp, #104]
 10149 03b4 0400A0E1 		mov	r0, r4
 10150 03b8 FEFFFFEB 		bl	_ZN11flatbuffers17FlatBufferBuilder12CreateVectorIlEENS_6OffsetINS_6VectorIT_EEEEPKS4_j.constpr
 10151 03bc 001000E3 		movw	r1, #:lower16:.LC57
 10152 03c0 00B0A0E1 		mov	fp, r0
 10153 03c4 1620A0E3 		mov	r2, #22
 10154 03c8 001040E3 		movt	r1, #:upper16:.LC57
 10155 03cc 0400A0E1 		mov	r0, r4
 10156 03d0 FEFFFFEB 		bl	_ZN11flatbuffers17FlatBufferBuilder12CreateStringEPKcj
 10157 03d4 0A20A0E1 		mov	r2, r10
 10158 03d8 0030A0E1 		mov	r3, r0
 10159 03dc 0B10A0E1 		mov	r1, fp
 10160 03e0 04A08DE5 		str	r10, [sp, #4]
 10161 03e4 0C508DE5 		str	r5, [sp, #12]
 10162 03e8 0400A0E1 		mov	r0, r4
 10163 03ec 08508DE5 		str	r5, [sp, #8]
 10164 03f0 00508DE5 		str	r5, [sp]
 10165 03f4 FEFFFFEB 		bl	_ZN6tflite12CreateTensorERN11flatbuffers17FlatBufferBuilderENS0_6OffsetINS0_6VectorIlEEEENS_10T
 10166 03f8 0710A0E1 		mov	r1, r7
 10167 03fc 6C008DE5 		str	r0, [sp, #108]
 10168 0400 0400A0E1 		mov	r0, r4
 10169 0404 FEFFFFEB 		bl	_ZN11flatbuffers17FlatBufferBuilder12CreateVectorIlEENS_6OffsetINS_6VectorIT_EEEEPKS4_j.constpr
 10170 0408 001000E3 		movw	r1, #:lower16:.LC58
 10171 040c 00B0A0E1 		mov	fp, r0
 10172 0410 1420A0E3 		mov	r2, #20
 10173 0414 001040E3 		movt	r1, #:upper16:.LC58
 10174 0418 0400A0E1 		mov	r0, r4
 10175 041c FEFFFFEB 		bl	_ZN11flatbuffers17FlatBufferBuilder12CreateStringEPKcj
 10176 0420 0230A0E3 		mov	r3, #2
 10177 0424 0920A0E1 		mov	r2, r9
 10178 0428 0B10A0E1 		mov	r1, fp
 10179 042c 00008DE5 		str	r0, [sp]
 10180 0430 10508DE5 		str	r5, [sp, #16]
 10181 0434 0400A0E1 		mov	r0, r4
 10182 0438 0C508DE5 		str	r5, [sp, #12]
 10183 043c 08508DE5 		str	r5, [sp, #8]
 10184 0440 04508DE5 		str	r5, [sp, #4]
 10185 0444 FEFFFFEB 		bl	_ZN6tflite12CreateTensorERN11flatbuffers17FlatBufferBuilderENS0_6OffsetINS0_6VectorIlEEEENS_10T
 10186 0448 0710A0E1 		mov	r1, r7
 10187 044c 70008DE5 		str	r0, [sp, #112]
 10188 0450 0400A0E1 		mov	r0, r4
 10189 0454 FEFFFFEB 		bl	_ZN11flatbuffers17FlatBufferBuilder12CreateVectorIlEENS_6OffsetINS_6VectorIT_EEEEPKS4_j.constpr
 10190 0458 001000E3 		movw	r1, #:lower16:.LC59
 10191 045c 00B0A0E1 		mov	fp, r0
 10192 0460 1420A0E3 		mov	r2, #20
 10193 0464 001040E3 		movt	r1, #:upper16:.LC59
 10194 0468 0400A0E1 		mov	r0, r4
 10195 046c FEFFFFEB 		bl	_ZN11flatbuffers17FlatBufferBuilder12CreateStringEPKcj
 10196 0470 0B10A0E1 		mov	r1, fp
 10197 0474 0030A0E1 		mov	r3, r0
 10198 0478 0520A0E1 		mov	r2, r5
 10199 047c 0C508DE5 		str	r5, [sp, #12]
 10200 0480 08508DE5 		str	r5, [sp, #8]
 10201 0484 0400A0E1 		mov	r0, r4
 10202 0488 04508DE5 		str	r5, [sp, #4]
 10203 048c 00508DE5 		str	r5, [sp]
 10204 0490 FEFFFFEB 		bl	_ZN6tflite12CreateTensorERN11flatbuffers17FlatBufferBuilderENS0_6OffsetINS0_6VectorIlEEEENS_10T
 10205 0494 0710A0E1 		mov	r1, r7
 10206 0498 74008DE5 		str	r0, [sp, #116]
 10207 049c 0400A0E1 		mov	r0, r4
 10208 04a0 FEFFFFEB 		bl	_ZN11flatbuffers17FlatBufferBuilder12CreateVectorIlEENS_6OffsetINS_6VectorIT_EEEEPKS4_j.constpr
 10209 04a4 001000E3 		movw	r1, #:lower16:.LC60
 10210 04a8 00B0A0E1 		mov	fp, r0
 10211 04ac 1620A0E3 		mov	r2, #22
 10212 04b0 001040E3 		movt	r1, #:upper16:.LC60
 10213 04b4 0400A0E1 		mov	r0, r4
 10214 04b8 FEFFFFEB 		bl	_ZN11flatbuffers17FlatBufferBuilder12CreateStringEPKcj
 10215 04bc 0A20A0E1 		mov	r2, r10
 10216 04c0 0030A0E1 		mov	r3, r0
 10217 04c4 0B10A0E1 		mov	r1, fp
 10218 04c8 04A08DE5 		str	r10, [sp, #4]
 10219 04cc 0C508DE5 		str	r5, [sp, #12]
 10220 04d0 0400A0E1 		mov	r0, r4
 10221 04d4 08508DE5 		str	r5, [sp, #8]
 10222 04d8 00508DE5 		str	r5, [sp]
 10223 04dc FEFFFFEB 		bl	_ZN6tflite12CreateTensorERN11flatbuffers17FlatBufferBuilderENS0_6OffsetINS0_6VectorIlEEEENS_10T
 10224 04e0 0710A0E1 		mov	r1, r7
 10225 04e4 78008DE5 		str	r0, [sp, #120]
 10226 04e8 0400A0E1 		mov	r0, r4
 10227 04ec FEFFFFEB 		bl	_ZN11flatbuffers17FlatBufferBuilder12CreateVectorIlEENS_6OffsetINS_6VectorIT_EEEEPKS4_j.constpr
 10228 04f0 001000E3 		movw	r1, #:lower16:.LC61
 10229 04f4 00B0A0E1 		mov	fp, r0
 10230 04f8 1420A0E3 		mov	r2, #20
 10231 04fc 001040E3 		movt	r1, #:upper16:.LC61
 10232 0500 0400A0E1 		mov	r0, r4
 10233 0504 FEFFFFEB 		bl	_ZN11flatbuffers17FlatBufferBuilder12CreateStringEPKcj
 10234 0508 0230A0E3 		mov	r3, #2
 10235 050c 0920A0E1 		mov	r2, r9
 10236 0510 0B10A0E1 		mov	r1, fp
 10237 0514 00008DE5 		str	r0, [sp]
 10238 0518 10508DE5 		str	r5, [sp, #16]
 10239 051c 0400A0E1 		mov	r0, r4
 10240 0520 0C508DE5 		str	r5, [sp, #12]
 10241 0524 08508DE5 		str	r5, [sp, #8]
 10242 0528 04508DE5 		str	r5, [sp, #4]
 10243 052c FEFFFFEB 		bl	_ZN6tflite12CreateTensorERN11flatbuffers17FlatBufferBuilderENS0_6OffsetINS0_6VectorIlEEEENS_10T
 10244 0530 0710A0E1 		mov	r1, r7
 10245 0534 7C008DE5 		str	r0, [sp, #124]
 10246 0538 0400A0E1 		mov	r0, r4
 10247 053c FEFFFFEB 		bl	_ZN11flatbuffers17FlatBufferBuilder12CreateVectorIlEENS_6OffsetINS_6VectorIT_EEEEPKS4_j.constpr
 10248 0540 001000E3 		movw	r1, #:lower16:.LC62
 10249 0544 00B0A0E1 		mov	fp, r0
 10250 0548 1420A0E3 		mov	r2, #20
 10251 054c 001040E3 		movt	r1, #:upper16:.LC62
 10252 0550 0400A0E1 		mov	r0, r4
 10253 0554 FEFFFFEB 		bl	_ZN11flatbuffers17FlatBufferBuilder12CreateStringEPKcj
 10254 0558 0B10A0E1 		mov	r1, fp
 10255 055c 0030A0E1 		mov	r3, r0
 10256 0560 0520A0E1 		mov	r2, r5
 10257 0564 0C508DE5 		str	r5, [sp, #12]
 10258 0568 08508DE5 		str	r5, [sp, #8]
 10259 056c 0400A0E1 		mov	r0, r4
 10260 0570 04508DE5 		str	r5, [sp, #4]
 10261 0574 00508DE5 		str	r5, [sp]
 10262 0578 FEFFFFEB 		bl	_ZN6tflite12CreateTensorERN11flatbuffers17FlatBufferBuilderENS0_6OffsetINS0_6VectorIlEEEENS_10T
 10263 057c 0710A0E1 		mov	r1, r7
 10264 0580 80008DE5 		str	r0, [sp, #128]
 10265 0584 0400A0E1 		mov	r0, r4
 10266 0588 FEFFFFEB 		bl	_ZN11flatbuffers17FlatBufferBuilder12CreateVectorIlEENS_6OffsetINS_6VectorIT_EEEEPKS4_j.constpr
 10267 058c 001000E3 		movw	r1, #:lower16:.LC63
 10268 0590 00B0A0E1 		mov	fp, r0
 10269 0594 1620A0E3 		mov	r2, #22
 10270 0598 001040E3 		movt	r1, #:upper16:.LC63
 10271 059c 0400A0E1 		mov	r0, r4
 10272 05a0 FEFFFFEB 		bl	_ZN11flatbuffers17FlatBufferBuilder12CreateStringEPKcj
 10273 05a4 0A20A0E1 		mov	r2, r10
 10274 05a8 0030A0E1 		mov	r3, r0
 10275 05ac 0B10A0E1 		mov	r1, fp
 10276 05b0 04A08DE5 		str	r10, [sp, #4]
 10277 05b4 0C508DE5 		str	r5, [sp, #12]
 10278 05b8 0400A0E1 		mov	r0, r4
 10279 05bc 08508DE5 		str	r5, [sp, #8]
 10280 05c0 90A08DE2 		add	r10, sp, #144
 10281 05c4 00508DE5 		str	r5, [sp]
 10282 05c8 FEFFFFEB 		bl	_ZN6tflite12CreateTensorERN11flatbuffers17FlatBufferBuilderENS0_6OffsetINS0_6VectorIlEEEENS_10T
 10283 05cc 0710A0E1 		mov	r1, r7
 10284 05d0 84008DE5 		str	r0, [sp, #132]
 10285 05d4 0400A0E1 		mov	r0, r4
 10286 05d8 FEFFFFEB 		bl	_ZN11flatbuffers17FlatBufferBuilder12CreateVectorIlEENS_6OffsetINS_6VectorIT_EEEEPKS4_j.constpr
 10287 05dc 001000E3 		movw	r1, #:lower16:.LC64
 10288 05e0 00B0A0E1 		mov	fp, r0
 10289 05e4 1420A0E3 		mov	r2, #20
 10290 05e8 001040E3 		movt	r1, #:upper16:.LC64
 10291 05ec 0400A0E1 		mov	r0, r4
 10292 05f0 FEFFFFEB 		bl	_ZN11flatbuffers17FlatBufferBuilder12CreateStringEPKcj
 10293 05f4 0230A0E3 		mov	r3, #2
 10294 05f8 0920A0E1 		mov	r2, r9
 10295 05fc 0B10A0E1 		mov	r1, fp
 10296 0600 00008DE5 		str	r0, [sp]
 10297 0604 10508DE5 		str	r5, [sp, #16]
 10298 0608 0400A0E1 		mov	r0, r4
 10299 060c 0C508DE5 		str	r5, [sp, #12]
 10300 0610 09B0A0E3 		mov	fp, #9
 10301 0614 08508DE5 		str	r5, [sp, #8]
 10302 0618 04508DE5 		str	r5, [sp, #4]
 10303 061c FEFFFFEB 		bl	_ZN6tflite12CreateTensorERN11flatbuffers17FlatBufferBuilderENS0_6OffsetINS0_6VectorIlEEEENS_10T
 10304 0620 0710A0E1 		mov	r1, r7
 10305 0624 88008DE5 		str	r0, [sp, #136]
 10306 0628 0400A0E1 		mov	r0, r4
 10307 062c FEFFFFEB 		bl	_ZN11flatbuffers17FlatBufferBuilder12CreateVectorIlEENS_6OffsetINS_6VectorIT_EEEEPKS4_j.constpr
 10308 0630 001000E3 		movw	r1, #:lower16:.LC65
 10309 0634 0070A0E1 		mov	r7, r0
 10310 0638 1420A0E3 		mov	r2, #20
 10311 063c 001040E3 		movt	r1, #:upper16:.LC65
 10312 0640 0400A0E1 		mov	r0, r4
 10313 0644 FEFFFFEB 		bl	_ZN11flatbuffers17FlatBufferBuilder12CreateStringEPKcj
 10314 0648 0710A0E1 		mov	r1, r7
 10315 064c 0030A0E1 		mov	r3, r0
 10316 0650 0520A0E1 		mov	r2, r5
 10317 0654 0C508DE5 		str	r5, [sp, #12]
 10318 0658 08508DE5 		str	r5, [sp, #8]
 10319 065c 0400A0E1 		mov	r0, r4
 10320 0660 04508DE5 		str	r5, [sp, #4]
 10321 0664 00508DE5 		str	r5, [sp]
 10322 0668 FEFFFFEB 		bl	_ZN6tflite12CreateTensorERN11flatbuffers17FlatBufferBuilderENS0_6OffsetINS0_6VectorIlEEEENS_10T
 10323 066c 8C008DE5 		str	r0, [sp, #140]
 10324 0670 40308DE2 		add	r3, sp, #64
 10325 0674 070096E8 		ldm	r6, {r0, r1, r2}
 10326 0678 60902AE5 		str	r9, [r10, #-96]!
 10327 067c 070083E8 		stm	r3, {r0, r1, r2}
 10328 0680 0910A0E1 		mov	r1, r9
 10329 0684 0400A0E1 		mov	r0, r4
 10330 0688 FEFFFFEB 		bl	_ZN11flatbuffers17FlatBufferBuilder11StartVectorEjj.constprop.148
 10331 068c 0C10A0E3 		mov	r1, #12
 10332 0690 0400A0E1 		mov	r0, r4
 10333 0694 FEFFFFEB 		bl	_ZN11flatbuffers15vector_downward12ensure_spaceEj
 10334 0698 183094E5 		ldr	r3, [r4, #24]
 10335 069c 0C20A0E3 		mov	r2, #12
 10336 06a0 40108DE2 		add	r1, sp, #64
 10337 06a4 000043E0 		sub	r0, r3, r0
 10338 06a8 180084E5 		str	r0, [r4, #24]
 10339 06ac FEFFFFEB 		bl	memcpy
 10340 06b0 0910A0E1 		mov	r1, r9
 10341 06b4 0400A0E1 		mov	r0, r4
 10342 06b8 FEFFFFEB 		bl	_ZN11flatbuffers17FlatBufferBuilder9EndVectorEj
 10343 06bc 0A10A0E1 		mov	r1, r10
 10344 06c0 0070A0E1 		mov	r7, r0
 10345 06c4 0400A0E1 		mov	r0, r4
 10346 06c8 FEFFFFEB 		bl	_ZN11flatbuffers17FlatBufferBuilder12CreateVectorIlEENS_6OffsetINS_6VectorIT_EEEEPKS4_j.constpr
 10347 06cc 0720A0E1 		mov	r2, r7
 10348 06d0 0030A0E1 		mov	r3, r0
 10349 06d4 0510A0E1 		mov	r1, r5
 10350 06d8 14508DE5 		str	r5, [sp, #20]
 10351 06dc 10508DE5 		str	r5, [sp, #16]
 10352 06e0 0400A0E1 		mov	r0, r4
 10353 06e4 0C508DE5 		str	r5, [sp, #12]
 10354 06e8 0570A0E1 		mov	r7, r5
 10355 06ec 08508DE5 		str	r5, [sp, #8]
 10356 06f0 04508DE5 		str	r5, [sp, #4]
 10357 06f4 00508DE5 		str	r5, [sp]
 10358 06f8 FEFFFFEB 		bl	_ZN6tflite14CreateOperatorERN11flatbuffers17FlatBufferBuilderEmNS0_6OffsetINS0_6VectorIlEEEES6_
 10359 06fc 0C3086E2 		add	r3, r6, #12
 10360 0700 34008DE5 		str	r0, [sp, #52]
 10361 0704 070093E8 		ldm	r3, {r0, r1, r2}
 10362 0708 0630A0E3 		mov	r3, #6
 10363 070c 186086E2 		add	r6, r6, #24
 10364 0710 30308DE5 		str	r3, [sp, #48]
 10365 0714 40308DE2 		add	r3, sp, #64
 10366 0718 070083E8 		stm	r3, {r0, r1, r2}
 10367 071c 0910A0E1 		mov	r1, r9
 10368 0720 0400A0E1 		mov	r0, r4
 10369 0724 FEFFFFEB 		bl	_ZN11flatbuffers17FlatBufferBuilder11StartVectorEjj.constprop.148
 10370 0728 0C10A0E3 		mov	r1, #12
 10371 072c 0400A0E1 		mov	r0, r4
 10372 0730 FEFFFFEB 		bl	_ZN11flatbuffers15vector_downward12ensure_spaceEj
 10373 0734 183094E5 		ldr	r3, [r4, #24]
 10374 0738 0C20A0E3 		mov	r2, #12
 10375 073c 40108DE2 		add	r1, sp, #64
 10376 0740 000043E0 		sub	r0, r3, r0
 10377 0744 180084E5 		str	r0, [r4, #24]
 10378 0748 FEFFFFEB 		bl	memcpy
 10379 074c 0910A0E1 		mov	r1, r9
 10380 0750 0400A0E1 		mov	r0, r4
 10381 0754 FEFFFFEB 		bl	_ZN11flatbuffers17FlatBufferBuilder9EndVectorEj
 10382 0758 0A10A0E1 		mov	r1, r10
 10383 075c 1C008DE5 		str	r0, [sp, #28]
 10384 0760 0400A0E1 		mov	r0, r4
 10385 0764 FEFFFFEB 		bl	_ZN11flatbuffers17FlatBufferBuilder12CreateVectorIlEENS_6OffsetINS_6VectorIT_EEEEPKS4_j.constpr
 10386 0768 1C209DE5 		ldr	r2, [sp, #28]
 10387 076c 0030A0E1 		mov	r3, r0
 10388 0770 0510A0E1 		mov	r1, r5
 10389 0774 14508DE5 		str	r5, [sp, #20]
 10390 0778 10508DE5 		str	r5, [sp, #16]
 10391 077c 0400A0E1 		mov	r0, r4
 10392 0780 0C508DE5 		str	r5, [sp, #12]
 10393 0784 08508DE5 		str	r5, [sp, #8]
 10394 0788 04508DE5 		str	r5, [sp, #4]
 10395 078c 00508DE5 		str	r5, [sp]
 10396 0790 FEFFFFEB 		bl	_ZN6tflite14CreateOperatorERN11flatbuffers17FlatBufferBuilderEmNS0_6OffsetINS0_6VectorIlEEEES6_
 10397 0794 38008DE5 		str	r0, [sp, #56]
 10398 0798 40308DE2 		add	r3, sp, #64
 10399 079c 070096E8 		ldm	r6, {r0, r1, r2}
 10400 07a0 90608DE2 		add	r6, sp, #144
 10401 07a4 30B08DE5 		str	fp, [sp, #48]
 10402 07a8 070083E8 		stm	r3, {r0, r1, r2}
 10403 07ac 0910A0E1 		mov	r1, r9
 10404 07b0 0400A0E1 		mov	r0, r4
 10405 07b4 FEFFFFEB 		bl	_ZN11flatbuffers17FlatBufferBuilder11StartVectorEjj.constprop.148
 10406 07b8 0C10A0E3 		mov	r1, #12
 10407 07bc 0400A0E1 		mov	r0, r4
 10408 07c0 FEFFFFEB 		bl	_ZN11flatbuffers15vector_downward12ensure_spaceEj
 10409 07c4 183094E5 		ldr	r3, [r4, #24]
 10410 07c8 0C20A0E3 		mov	r2, #12
 10411 07cc 40108DE2 		add	r1, sp, #64
 10412 07d0 000043E0 		sub	r0, r3, r0
 10413 07d4 180084E5 		str	r0, [r4, #24]
 10414 07d8 FEFFFFEB 		bl	memcpy
 10415 07dc 0910A0E1 		mov	r1, r9
 10416 07e0 0400A0E1 		mov	r0, r4
 10417 07e4 FEFFFFEB 		bl	_ZN11flatbuffers17FlatBufferBuilder9EndVectorEj
 10418 07e8 0A10A0E1 		mov	r1, r10
 10419 07ec 0090A0E1 		mov	r9, r0
 10420 07f0 0400A0E1 		mov	r0, r4
 10421 07f4 FEFFFFEB 		bl	_ZN11flatbuffers17FlatBufferBuilder12CreateVectorIlEENS_6OffsetINS_6VectorIT_EEEEPKS4_j.constpr
 10422 07f8 0920A0E1 		mov	r2, r9
 10423 07fc 0030A0E1 		mov	r3, r0
 10424 0800 0510A0E1 		mov	r1, r5
 10425 0804 14508DE5 		str	r5, [sp, #20]
 10426 0808 10508DE5 		str	r5, [sp, #16]
 10427 080c 0400A0E1 		mov	r0, r4
 10428 0810 0C508DE5 		str	r5, [sp, #12]
 10429 0814 0490A0E3 		mov	r9, #4
 10430 0818 08508DE5 		str	r5, [sp, #8]
 10431 081c 04508DE5 		str	r5, [sp, #4]
 10432 0820 00508DE5 		str	r5, [sp]
 10433 0824 FEFFFFEB 		bl	_ZN6tflite14CreateOperatorERN11flatbuffers17FlatBufferBuilderEmNS0_6OffsetINS0_6VectorIlEEEES6_
 10434 0828 0A10A0E3 		mov	r1, #10
 10435 082c 3C008DE5 		str	r0, [sp, #60]
 10436 0830 0400A0E1 		mov	r0, r4
 10437 0834 30B08DE5 		str	fp, [sp, #48]
 10438 0838 2C508DE5 		str	r5, [sp, #44]
 10439 083c FEFFFFEB 		bl	_ZN11flatbuffers17FlatBufferBuilder11StartVectorEjj.constprop.148
 10440              	.L1867:
 10441 0840 041036E5 		ldr	r1, [r6, #-4]!
 10442 0844 0400A0E1 		mov	r0, r4
 10443 0848 FEFFFFEB 		bl	_ZN11flatbuffers17FlatBufferBuilder7ReferToEm
 10444 084c 283094E5 		ldr	r3, [r4, #40]
 10445 0850 00B0A0E1 		mov	fp, r0
 10446 0854 185094E5 		ldr	r5, [r4, #24]
 10447 0858 0400A0E1 		mov	r0, r4
 10448 085c 142094E5 		ldr	r2, [r4, #20]
 10449 0860 030053E3 		cmp	r3, #3
 10450 0864 103094E5 		ldr	r3, [r4, #16]
 10451 0868 28908495 		strls	r9, [r4, #40]
 10452 086c 025045E0 		sub	r5, r5, r2
 10453 0870 035045E0 		sub	r5, r5, r3
 10454 0874 035005E2 		and	r5, r5, #3
 10455 0878 0510A0E1 		mov	r1, r5
 10456 087c FEFFFFEB 		bl	_ZN11flatbuffers15vector_downward12ensure_spaceEj
 10457 0880 183094E5 		ldr	r3, [r4, #24]
 10458 0884 000055E3 		cmp	r5, #0
 10459 0888 000043E0 		sub	r0, r3, r0
 10460 088c 180084E5 		str	r0, [r4, #24]
 10461 0890 0700000A 		beq	.L1866
 10462 0894 010055E3 		cmp	r5, #1
 10463 0898 0070C0E5 		strb	r7, [r0]
 10464 089c 0400000A 		beq	.L1866
 10465 08a0 183094E5 		ldr	r3, [r4, #24]
 10466 08a4 020055E3 		cmp	r5, #2
 10467 08a8 0170C3E5 		strb	r7, [r3, #1]
 10468 08ac 18309415 		ldrne	r3, [r4, #24]
 10469 08b0 0270C315 		strbne	r7, [r3, #2]
 10470              	.L1866:
 10471 08b4 0410A0E3 		mov	r1, #4
 10472 08b8 0400A0E1 		mov	r0, r4
 10473 08bc FEFFFFEB 		bl	_ZN11flatbuffers15vector_downward12ensure_spaceEj
 10474 08c0 183094E5 		ldr	r3, [r4, #24]
 10475 08c4 68208DE2 		add	r2, sp, #104
 10476 08c8 020056E1 		cmp	r6, r2
 10477 08cc 000043E0 		sub	r0, r3, r0
 10478 08d0 180084E5 		str	r0, [r4, #24]
 10479 08d4 00B080E5 		str	fp, [r0]
 10480 08d8 D8FFFF1A 		bne	.L1867
 10481 08dc 0A10A0E3 		mov	r1, #10
 10482 08e0 0400A0E1 		mov	r0, r4
 10483 08e4 FEFFFFEB 		bl	_ZN11flatbuffers17FlatBufferBuilder9EndVectorEj
 10484 08e8 2C108DE2 		add	r1, sp, #44
 10485 08ec 1C008DE5 		str	r0, [sp, #28]
 10486 08f0 0400A0E1 		mov	r0, r4
 10487 08f4 34908DE2 		add	r9, sp, #52
 10488 08f8 FEFFFFEB 		bl	_ZN11flatbuffers17FlatBufferBuilder12CreateVectorIlEENS_6OffsetINS_6VectorIT_EEEEPKS4_j.constpr
 10489 08fc 0A10A0E1 		mov	r1, r10
 10490 0900 20008DE5 		str	r0, [sp, #32]
 10491 0904 0400A0E1 		mov	r0, r4
 10492 0908 40708DE2 		add	r7, sp, #64
 10493 090c FEFFFFEB 		bl	_ZN11flatbuffers17FlatBufferBuilder12CreateVectorIlEENS_6OffsetINS_6VectorIT_EEEEPKS4_j.constpr
 10494 0910 0310A0E3 		mov	r1, #3
 10495 0914 24008DE5 		str	r0, [sp, #36]
 10496 0918 0400A0E1 		mov	r0, r4
 10497 091c 04A0A0E3 		mov	r10, #4
 10498 0920 FEFFFFEB 		bl	_ZN11flatbuffers17FlatBufferBuilder11StartVectorEjj.constprop.148
 10499 0924 182094E5 		ldr	r2, [r4, #24]
 10500 0928 0060A0E3 		mov	r6, #0
 10501              	.L1874:
 10502 092c 283094E5 		ldr	r3, [r4, #40]
 10503 0930 0400A0E1 		mov	r0, r4
 10504 0934 145094E5 		ldr	r5, [r4, #20]
 10505 0938 04B037E5 		ldr	fp, [r7, #-4]!
 10506 093c 030053E3 		cmp	r3, #3
 10507 0940 103094E5 		ldr	r3, [r4, #16]
 10508 0944 055042E0 		sub	r5, r2, r5
 10509 0948 28A08495 		strls	r10, [r4, #40]
 10510 094c 035045E0 		sub	r5, r5, r3
 10511 0950 035005E2 		and	r5, r5, #3
 10512 0954 0510A0E1 		mov	r1, r5
 10513 0958 FEFFFFEB 		bl	_ZN11flatbuffers15vector_downward12ensure_spaceEj
 10514 095c 183094E5 		ldr	r3, [r4, #24]
 10515 0960 000055E3 		cmp	r5, #0
 10516 0964 000043E0 		sub	r0, r3, r0
 10517 0968 180084E5 		str	r0, [r4, #24]
 10518 096c 0700000A 		beq	.L1869
 10519 0970 010055E3 		cmp	r5, #1
 10520 0974 0060C0E5 		strb	r6, [r0]
 10521 0978 0400000A 		beq	.L1869
 10522 097c 183094E5 		ldr	r3, [r4, #24]
 10523 0980 020055E3 		cmp	r5, #2
 10524 0984 0160C3E5 		strb	r6, [r3, #1]
 10525 0988 18309415 		ldrne	r3, [r4, #24]
 10526 098c 0260C315 		strbne	r6, [r3, #2]
 10527              	.L1869:
 10528 0990 00005BE3 		cmp	fp, #0
 10529 0994 2101000A 		beq	.L1871
 10530 0998 183094E5 		ldr	r3, [r4, #24]
 10531 099c 142094E5 		ldr	r2, [r4, #20]
 10532 09a0 105094E5 		ldr	r5, [r4, #16]
 10533 09a4 023043E0 		sub	r3, r3, r2
 10534 09a8 035045E0 		sub	r5, r5, r3
 10535 09ac 05005BE1 		cmp	fp, r5
 10536 09b0 1A01008A 		bhi	.L1871
 10537 09b4 283094E5 		ldr	r3, [r4, #40]
 10538 09b8 04B06BE2 		rsb	fp, fp, #4
 10539 09bc 05B08BE0 		add	fp, fp, r5
 10540 09c0 005065E2 		rsb	r5, r5, #0
 10541 09c4 035005E2 		and	r5, r5, #3
 10542 09c8 0400A0E1 		mov	r0, r4
 10543 09cc 030053E3 		cmp	r3, #3
 10544 09d0 0510A0E1 		mov	r1, r5
 10545 09d4 28A08495 		strls	r10, [r4, #40]
 10546 09d8 FEFFFFEB 		bl	_ZN11flatbuffers15vector_downward12ensure_spaceEj
 10547 09dc 183094E5 		ldr	r3, [r4, #24]
 10548 09e0 000055E3 		cmp	r5, #0
 10549 09e4 000043E0 		sub	r0, r3, r0
 10550 09e8 180084E5 		str	r0, [r4, #24]
 10551 09ec 0700000A 		beq	.L1873
 10552 09f0 010055E3 		cmp	r5, #1
 10553 09f4 0060C0E5 		strb	r6, [r0]
 10554 09f8 0400000A 		beq	.L1873
 10555 09fc 183094E5 		ldr	r3, [r4, #24]
 10556 0a00 020055E3 		cmp	r5, #2
 10557 0a04 0160C3E5 		strb	r6, [r3, #1]
 10558 0a08 18309415 		ldrne	r3, [r4, #24]
 10559 0a0c 0260C315 		strbne	r6, [r3, #2]
 10560              	.L1873:
 10561 0a10 0410A0E3 		mov	r1, #4
 10562 0a14 0400A0E1 		mov	r0, r4
 10563 0a18 FEFFFFEB 		bl	_ZN11flatbuffers15vector_downward12ensure_spaceEj
 10564 0a1c 182094E5 		ldr	r2, [r4, #24]
 10565 0a20 090057E1 		cmp	r7, r9
 10566 0a24 002042E0 		sub	r2, r2, r0
 10567 0a28 182084E5 		str	r2, [r4, #24]
 10568 0a2c 00B082E5 		str	fp, [r2]
 10569 0a30 BDFFFF1A 		bne	.L1874
 10570 0a34 0310A0E3 		mov	r1, #3
 10571 0a38 0400A0E1 		mov	r0, r4
 10572 0a3c FEFFFFEB 		bl	_ZN11flatbuffers17FlatBufferBuilder9EndVectorEj
 10573 0a40 001000E3 		movw	r1, #:lower16:.LC32
 10574 0a44 0050A0E1 		mov	r5, r0
 10575 0a48 0D20A0E3 		mov	r2, #13
 10576 0a4c 001040E3 		movt	r1, #:upper16:.LC32
 10577 0a50 0400A0E1 		mov	r0, r4
 10578 0a54 FEFFFFEB 		bl	_ZN11flatbuffers17FlatBufferBuilder12CreateStringEPKcj
 10579 0a58 24309DE5 		ldr	r3, [sp, #36]
 10580 0a5c 00508DE5 		str	r5, [sp]
 10581 0a60 04008DE5 		str	r0, [sp, #4]
 10582 0a64 0400A0E1 		mov	r0, r4
 10583 0a68 20209DE5 		ldr	r2, [sp, #32]
 10584 0a6c 1C109DE5 		ldr	r1, [sp, #28]
 10585 0a70 FEFFFFEB 		bl	_ZN6tflite14CreateSubGraphERN11flatbuffers17FlatBufferBuilderENS0_6OffsetINS0_6VectorINS3_INS_6
 10586 0a74 001000E3 		movw	r1, #:lower16:.LC35
 10587 0a78 2020A0E3 		mov	r2, #32
 10588 0a7c 40008DE5 		str	r0, [sp, #64]
 10589 0a80 001040E3 		movt	r1, #:upper16:.LC35
 10590 0a84 0400A0E1 		mov	r0, r4
 10591 0a88 FEFFFFEB 		bl	_ZN6tflite24CreateOperatorCodeDirectERN11flatbuffers17FlatBufferBuilderEaPKclNS_15BuiltinOperat
 10592 0a8c 0110A0E3 		mov	r1, #1
 10593 0a90 0060A0E1 		mov	r6, r0
 10594 0a94 0400A0E1 		mov	r0, r4
 10595 0a98 FEFFFFEB 		bl	_ZN11flatbuffers17FlatBufferBuilder11StartVectorEjj.constprop.148
 10596 0a9c 283094E5 		ldr	r3, [r4, #40]
 10597 0aa0 0400A0E1 		mov	r0, r4
 10598 0aa4 185094E5 		ldr	r5, [r4, #24]
 10599 0aa8 142094E5 		ldr	r2, [r4, #20]
 10600 0aac 030053E3 		cmp	r3, #3
 10601 0ab0 0430A093 		movls	r3, #4
 10602 0ab4 28308495 		strls	r3, [r4, #40]
 10603 0ab8 025045E0 		sub	r5, r5, r2
 10604 0abc 103094E5 		ldr	r3, [r4, #16]
 10605 0ac0 035045E0 		sub	r5, r5, r3
 10606 0ac4 035005E2 		and	r5, r5, #3
 10607 0ac8 0510A0E1 		mov	r1, r5
 10608 0acc FEFFFFEB 		bl	_ZN11flatbuffers15vector_downward12ensure_spaceEj
 10609 0ad0 183094E5 		ldr	r3, [r4, #24]
 10610 0ad4 000055E3 		cmp	r5, #0
 10611 0ad8 000043E0 		sub	r0, r3, r0
 10612 0adc 180084E5 		str	r0, [r4, #24]
 10613 0ae0 0800000A 		beq	.L1876
 10614 0ae4 010055E3 		cmp	r5, #1
 10615 0ae8 0030A0E3 		mov	r3, #0
 10616 0aec 0030C0E5 		strb	r3, [r0]
 10617 0af0 0400000A 		beq	.L1876
 10618 0af4 182094E5 		ldr	r2, [r4, #24]
 10619 0af8 020055E3 		cmp	r5, #2
 10620 0afc 0130C2E5 		strb	r3, [r2, #1]
 10621 0b00 18209415 		ldrne	r2, [r4, #24]
 10622 0b04 0230C215 		strbne	r3, [r2, #2]
 10623              	.L1876:
 10624 0b08 000056E3 		cmp	r6, #0
 10625 0b0c C300000A 		beq	.L1871
 10626 0b10 182094E5 		ldr	r2, [r4, #24]
 10627 0b14 141094E5 		ldr	r1, [r4, #20]
 10628 0b18 103094E5 		ldr	r3, [r4, #16]
 10629 0b1c 012042E0 		sub	r2, r2, r1
 10630 0b20 023043E0 		sub	r3, r3, r2
 10631 0b24 060053E1 		cmp	r3, r6
 10632 0b28 BC00003A 		bcc	.L1871
 10633 0b2c 282094E5 		ldr	r2, [r4, #40]
 10634 0b30 046066E2 		rsb	r6, r6, #4
 10635 0b34 036086E0 		add	r6, r6, r3
 10636 0b38 003063E2 		rsb	r3, r3, #0
 10637 0b3c 035003E2 		and	r5, r3, #3
 10638 0b40 0400A0E1 		mov	r0, r4
 10639 0b44 030052E3 		cmp	r2, #3
 10640 0b48 0510A0E1 		mov	r1, r5
 10641 0b4c 0420A093 		movls	r2, #4
 10642 0b50 28208495 		strls	r2, [r4, #40]
 10643 0b54 FEFFFFEB 		bl	_ZN11flatbuffers15vector_downward12ensure_spaceEj
 10644 0b58 183094E5 		ldr	r3, [r4, #24]
 10645 0b5c 000055E3 		cmp	r5, #0
 10646 0b60 000043E0 		sub	r0, r3, r0
 10647 0b64 180084E5 		str	r0, [r4, #24]
 10648 0b68 0800000A 		beq	.L1878
 10649 0b6c 010055E3 		cmp	r5, #1
 10650 0b70 0030A0E3 		mov	r3, #0
 10651 0b74 0030C0E5 		strb	r3, [r0]
 10652 0b78 0400000A 		beq	.L1878
 10653 0b7c 182094E5 		ldr	r2, [r4, #24]
 10654 0b80 020055E3 		cmp	r5, #2
 10655 0b84 0130C2E5 		strb	r3, [r2, #1]
 10656 0b88 18209415 		ldrne	r2, [r4, #24]
 10657 0b8c 0230C215 		strbne	r3, [r2, #2]
 10658              	.L1878:
 10659 0b90 0410A0E3 		mov	r1, #4
 10660 0b94 0400A0E1 		mov	r0, r4
 10661 0b98 FEFFFFEB 		bl	_ZN11flatbuffers15vector_downward12ensure_spaceEj
 10662 0b9c 183094E5 		ldr	r3, [r4, #24]
 10663 0ba0 2610D4E5 		ldrb	r1, [r4, #38]	@ zero_extendqisi2
 10664 0ba4 142094E5 		ldr	r2, [r4, #20]
 10665 0ba8 105094E5 		ldr	r5, [r4, #16]
 10666 0bac 000043E0 		sub	r0, r3, r0
 10667 0bb0 000051E3 		cmp	r1, #0
 10668 0bb4 180084E5 		str	r0, [r4, #24]
 10669 0bb8 022040E0 		sub	r2, r0, r2
 10670 0bbc 006080E5 		str	r6, [r0]
 10671 0bc0 025045E0 		sub	r5, r5, r2
 10672 0bc4 AF00000A 		beq	.L1999
 10673 0bc8 283094E5 		ldr	r3, [r4, #40]
 10674 0bcc 005065E2 		rsb	r5, r5, #0
 10675 0bd0 0020A0E3 		mov	r2, #0
 10676 0bd4 035005E2 		and	r5, r5, #3
 10677 0bd8 2620C4E5 		strb	r2, [r4, #38]
 10678 0bdc 0400A0E1 		mov	r0, r4
 10679 0be0 030053E3 		cmp	r3, #3
 10680 0be4 0510A0E1 		mov	r1, r5
 10681 0be8 0430A093 		movls	r3, #4
 10682 0bec 28308495 		strls	r3, [r4, #40]
 10683 0bf0 FEFFFFEB 		bl	_ZN11flatbuffers15vector_downward12ensure_spaceEj
 10684 0bf4 183094E5 		ldr	r3, [r4, #24]
 10685 0bf8 000055E3 		cmp	r5, #0
 10686 0bfc 000043E0 		sub	r0, r3, r0
 10687 0c00 180084E5 		str	r0, [r4, #24]
 10688 0c04 0800000A 		beq	.L1881
 10689 0c08 010055E3 		cmp	r5, #1
 10690 0c0c 0030A0E3 		mov	r3, #0
 10691 0c10 0030C0E5 		strb	r3, [r0]
 10692 0c14 0400000A 		beq	.L1881
 10693 0c18 182094E5 		ldr	r2, [r4, #24]
 10694 0c1c 020055E3 		cmp	r5, #2
 10695 0c20 0130C2E5 		strb	r3, [r2, #1]
 10696 0c24 18209415 		ldrne	r2, [r4, #24]
 10697 0c28 0230C215 		strbne	r3, [r2, #2]
 10698              	.L1881:
 10699 0c2c 0410A0E3 		mov	r1, #4
 10700 0c30 0400A0E1 		mov	r0, r4
 10701 0c34 FEFFFFEB 		bl	_ZN11flatbuffers15vector_downward12ensure_spaceEj
 10702 0c38 183094E5 		ldr	r3, [r4, #24]
 10703 0c3c 01E0A0E3 		mov	lr, #1
 10704 0c40 142094E5 		ldr	r2, [r4, #20]
 10705 0c44 40108DE2 		add	r1, sp, #64
 10706 0c48 10C094E5 		ldr	ip, [r4, #16]
 10707 0c4c 68708DE2 		add	r7, sp, #104
 10708 0c50 003043E0 		sub	r3, r3, r0
 10709 0c54 0400A0E1 		mov	r0, r4
 10710 0c58 022043E0 		sub	r2, r3, r2
 10711 0c5c 183084E5 		str	r3, [r4, #24]
 10712 0c60 00E083E5 		str	lr, [r3]
 10713 0c64 02304CE0 		sub	r3, ip, r2
 10714 0c68 1C308DE5 		str	r3, [sp, #28]
 10715 0c6c 4CA08DE2 		add	r10, sp, #76
 10716 0c70 FEFFFFEB 		bl	_ZN11flatbuffers17FlatBufferBuilder12CreateVectorIN6tflite8SubGraphEEENS_6OffsetINS_6VectorINS4
 10717 0c74 001000E3 		movw	r1, #:lower16:.LC43
 10718 0c78 0A20A0E3 		mov	r2, #10
 10719 0c7c 20008DE5 		str	r0, [sp, #32]
 10720 0c80 001040E3 		movt	r1, #:upper16:.LC43
 10721 0c84 0400A0E1 		mov	r0, r4
 10722 0c88 0490A0E3 		mov	r9, #4
 10723 0c8c FEFFFFEB 		bl	_ZN11flatbuffers17FlatBufferBuilder12CreateStringEPKcj
 10724 0c90 0710A0E3 		mov	r1, #7
 10725 0c94 24008DE5 		str	r0, [sp, #36]
 10726 0c98 0400A0E1 		mov	r0, r4
 10727 0c9c 0060A0E3 		mov	r6, #0
 10728 0ca0 FEFFFFEB 		bl	_ZN11flatbuffers17FlatBufferBuilder11StartVectorEjj.constprop.148
 10729 0ca4 182094E5 		ldr	r2, [r4, #24]
 10730              	.L1886:
 10731 0ca8 283094E5 		ldr	r3, [r4, #40]
 10732 0cac 0400A0E1 		mov	r0, r4
 10733 0cb0 145094E5 		ldr	r5, [r4, #20]
 10734 0cb4 04B037E5 		ldr	fp, [r7, #-4]!
 10735 0cb8 030053E3 		cmp	r3, #3
 10736 0cbc 103094E5 		ldr	r3, [r4, #16]
 10737 0cc0 055042E0 		sub	r5, r2, r5
 10738 0cc4 28908495 		strls	r9, [r4, #40]
 10739 0cc8 035045E0 		sub	r5, r5, r3
 10740 0ccc 035005E2 		and	r5, r5, #3
 10741 0cd0 0510A0E1 		mov	r1, r5
 10742 0cd4 FEFFFFEB 		bl	_ZN11flatbuffers15vector_downward12ensure_spaceEj
 10743 0cd8 183094E5 		ldr	r3, [r4, #24]
 10744 0cdc 000055E3 		cmp	r5, #0
 10745 0ce0 000043E0 		sub	r0, r3, r0
 10746 0ce4 180084E5 		str	r0, [r4, #24]
 10747 0ce8 0700000A 		beq	.L1883
 10748 0cec 010055E3 		cmp	r5, #1
 10749 0cf0 0060C0E5 		strb	r6, [r0]
 10750 0cf4 0400000A 		beq	.L1883
 10751 0cf8 183094E5 		ldr	r3, [r4, #24]
 10752 0cfc 020055E3 		cmp	r5, #2
 10753 0d00 0160C3E5 		strb	r6, [r3, #1]
 10754 0d04 18309415 		ldrne	r3, [r4, #24]
 10755 0d08 0260C315 		strbne	r6, [r3, #2]
 10756              	.L1883:
 10757 0d0c 00005BE3 		cmp	fp, #0
 10758 0d10 4200000A 		beq	.L1871
 10759 0d14 183094E5 		ldr	r3, [r4, #24]
 10760 0d18 142094E5 		ldr	r2, [r4, #20]
 10761 0d1c 105094E5 		ldr	r5, [r4, #16]
 10762 0d20 023043E0 		sub	r3, r3, r2
 10763 0d24 035045E0 		sub	r5, r5, r3
 10764 0d28 05005BE1 		cmp	fp, r5
 10765 0d2c 3B00008A 		bhi	.L1871
 10766 0d30 283094E5 		ldr	r3, [r4, #40]
 10767 0d34 04B06BE2 		rsb	fp, fp, #4
 10768 0d38 05B08BE0 		add	fp, fp, r5
 10769 0d3c 005065E2 		rsb	r5, r5, #0
 10770 0d40 035005E2 		and	r5, r5, #3
 10771 0d44 0400A0E1 		mov	r0, r4
 10772 0d48 030053E3 		cmp	r3, #3
 10773 0d4c 0510A0E1 		mov	r1, r5
 10774 0d50 28908495 		strls	r9, [r4, #40]
 10775 0d54 FEFFFFEB 		bl	_ZN11flatbuffers15vector_downward12ensure_spaceEj
 10776 0d58 183094E5 		ldr	r3, [r4, #24]
 10777 0d5c 000055E3 		cmp	r5, #0
 10778 0d60 000043E0 		sub	r0, r3, r0
 10779 0d64 180084E5 		str	r0, [r4, #24]
 10780 0d68 0700000A 		beq	.L1885
 10781 0d6c 010055E3 		cmp	r5, #1
 10782 0d70 0060C0E5 		strb	r6, [r0]
 10783 0d74 0400000A 		beq	.L1885
 10784 0d78 183094E5 		ldr	r3, [r4, #24]
 10785 0d7c 020055E3 		cmp	r5, #2
 10786 0d80 0160C3E5 		strb	r6, [r3, #1]
 10787 0d84 18309415 		ldrne	r3, [r4, #24]
 10788 0d88 0260C315 		strbne	r6, [r3, #2]
 10789              	.L1885:
 10790 0d8c 0410A0E3 		mov	r1, #4
 10791 0d90 0400A0E1 		mov	r0, r4
 10792 0d94 FEFFFFEB 		bl	_ZN11flatbuffers15vector_downward12ensure_spaceEj
 10793 0d98 182094E5 		ldr	r2, [r4, #24]
 10794 0d9c 0A0057E1 		cmp	r7, r10
 10795 0da0 002042E0 		sub	r2, r2, r0
 10796 0da4 182084E5 		str	r2, [r4, #24]
 10797 0da8 00B082E5 		str	fp, [r2]
 10798 0dac BDFFFF1A 		bne	.L1886
 10799 0db0 0710A0E3 		mov	r1, #7
 10800 0db4 0400A0E1 		mov	r0, r4
 10801 0db8 FEFFFFEB 		bl	_ZN11flatbuffers17FlatBufferBuilder9EndVectorEj
 10802 0dbc 24309DE5 		ldr	r3, [sp, #36]
 10803 0dc0 00C0A0E3 		mov	ip, #0
 10804 0dc4 0C10A0E1 		mov	r1, ip
 10805 0dc8 04008DE5 		str	r0, [sp, #4]
 10806 0dcc 1C209DE5 		ldr	r2, [sp, #28]
 10807 0dd0 0400A0E1 		mov	r0, r4
 10808 0dd4 00308DE5 		str	r3, [sp]
 10809 0dd8 10C08DE5 		str	ip, [sp, #16]
 10810 0ddc 20309DE5 		ldr	r3, [sp, #32]
 10811 0de0 0CC08DE5 		str	ip, [sp, #12]
 10812 0de4 08C08DE5 		str	ip, [sp, #8]
 10813 0de8 FEFFFFEB 		bl	_ZN6tflite11CreateModelERN11flatbuffers17FlatBufferBuilderEmNS0_6OffsetINS0_6VectorINS3_INS_12O
 10814 0dec 0010A0E1 		mov	r1, r0
 10815 0df0 0400A0E1 		mov	r0, r4
 10816 0df4 FEFFFFEB 		bl	_ZN11flatbuffers17FlatBufferBuilder6FinishEmPKcb.constprop.146
 10817 0df8 2730D4E5 		ldrb	r3, [r4, #39]	@ zero_extendqisi2
 10818 0dfc 000053E3 		cmp	r3, #0
 10819 0e00 1800000A 		beq	.L2000
 10820 0e04 185094E5 		ldr	r5, [r4, #24]
 10821 0e08 000055E3 		cmp	r5, #0
 10822 0e0c 1400000A 		beq	.L2001
 10823 0e10 003095E5 		ldr	r3, [r5]
 10824 0e14 035085E0 		add	r5, r5, r3
 10825 0e18 005088E5 		str	r5, [r8]
 10826 0e1c 7EFCFFEA 		b	.L1851
 10827              	.L1871:
 10828 0e20 003000E3 		movw	r3, #:lower16:.LC25
 10829 0e24 002000E3 		movw	r2, #:lower16:.LANCHOR13
 10830 0e28 000000E3 		movw	r0, #:lower16:.LC19
 10831 0e2c 003040E3 		movt	r3, #:upper16:.LC25
 10832 0e30 002040E3 		movt	r2, #:upper16:.LANCHOR13
 10833 0e34 000040E3 		movt	r0, #:upper16:.LC19
 10834 0e38 3B1500E3 		movw	r1, #1339
 10835 0e3c FEFFFFEB 		bl	__assert_func
 10836              	.L1858:
 10837 0e40 FEFFFFEB 		bl	_ZN11flatbuffers17FlatBufferBuilder9NotNestedEv.isra.20.part.21
 10838              	.L1857:
 10839 0e44 003000E3 		movw	r3, #:lower16:.LC24
 10840 0e48 002000E3 		movw	r2, #:lower16:.LANCHOR11
 10841 0e4c 000000E3 		movw	r0, #:lower16:.LC19
 10842 0e50 003040E3 		movt	r3, #:upper16:.LC24
 10843 0e54 002040E3 		movt	r2, #:upper16:.LANCHOR11
 10844 0e58 000040E3 		movt	r0, #:upper16:.LC19
 10845 0e5c 481500E3 		movw	r1, #1352
 10846 0e60 FEFFFFEB 		bl	__assert_func
 10847              	.L2001:
 10848 0e64 FEFFFFEB 		bl	_ZNK11flatbuffers15vector_downward4dataEv.isra.9.part.10
 10849              	.L2000:
 10850 0e68 003000E3 		movw	r3, #:lower16:.LC34
 10851 0e6c 002000E3 		movw	r2, #:lower16:.LANCHOR18
 10852 0e70 000000E3 		movw	r0, #:lower16:.LC19
 10853 0e74 003040E3 		movt	r3, #:upper16:.LC34
 10854 0e78 002040E3 		movt	r2, #:upper16:.LANCHOR18
 10855 0e7c 000040E3 		movt	r0, #:upper16:.LC19
 10856 0e80 D71400E3 		movw	r1, #1239
 10857 0e84 FEFFFFEB 		bl	__assert_func
 10858              	.L1999:
 10859 0e88 003000E3 		movw	r3, #:lower16:.LC26
 10860 0e8c 002000E3 		movw	r2, #:lower16:.LANCHOR14
 10861 0e90 000000E3 		movw	r0, #:lower16:.LC19
 10862 0e94 003040E3 		movt	r3, #:upper16:.LC26
 10863 0e98 002040E3 		movt	r2, #:upper16:.LANCHOR14
 10864 0e9c 000040E3 		movt	r0, #:upper16:.LC19
 10865 0ea0 2C1600E3 		movw	r1, #1580
 10866 0ea4 FEFFFFEB 		bl	__assert_func
 10867              		.fnend
 10869              		.section	.text._ZN6tflite7testing24GetSimpleModelWithBranchEv,"ax",%progbits
 10870              		.align	2
 10871              		.global	_ZN6tflite7testing24GetSimpleModelWithBranchEv
 10872              		.syntax unified
 10873              		.arm
 10874              		.fpu neon
 10876              	_ZN6tflite7testing24GetSimpleModelWithBranchEv:
 10877              		.fnstart
 10878              	.LFB7109:
 10879              		@ args = 0, pretend = 0, frame = 0
 10880              		@ frame_needed = 0, uses_anonymous_args = 0
 10881 0000 10402DE9 		push	{r4, lr}
 10882              		.save {r4, lr}
 10883 0004 004000E3 		movw	r4, #:lower16:.LANCHOR36
 10884 0008 004040E3 		movt	r4, #:upper16:.LANCHOR36
 10885 000c 000094E5 		ldr	r0, [r4]
 10886 0010 000050E3 		cmp	r0, #0
 10887 0014 1080BD18 		popne	{r4, pc}
 10888 0018 FEFFFFEB 		bl	_ZN6tflite7testing12_GLOBAL__N_126BuildSimpleModelWithBranchEv
 10889 001c 000084E5 		str	r0, [r4]
 10890 0020 1080BDE8 		pop	{r4, pc}
 10891              		.fnend
 10893              		.section	.text._ZN6tflite7testing27GetModelWithOfflinePlanningEiPKlPNS0_15NodeConnection_Eii,"ax",
 10894              		.align	2
 10895              		.global	_ZN6tflite7testing27GetModelWithOfflinePlanningEiPKlPNS0_15NodeConnection_Eii
 10896              		.syntax unified
 10897              		.arm
 10898              		.fpu neon
 10900              	_ZN6tflite7testing27GetModelWithOfflinePlanningEiPKlPNS0_15NodeConnection_Eii:
 10901              		.fnstart
 10902              	.LFB7110:
 10903              		@ args = 4, pretend = 0, frame = 0
 10904              		@ frame_needed = 0, uses_anonymous_args = 0
 10905              		@ link register save eliminated.
 10906 0000 FEFFFFEA 		b	_ZN6tflite7testing12_GLOBAL__N_129BuildModelWithOfflinePlanningEiPKlPNS0_15NodeConnection_Eii
 10907              		.cantunwind
 10908              		.fnend
 10910              		.section	.text._ZN6tflite7testing22GetSimpleStatefulModelEv,"ax",%progbits
 10911              		.align	2
 10912              		.global	_ZN6tflite7testing22GetSimpleStatefulModelEv
 10913              		.syntax unified
 10914              		.arm
 10915              		.fpu neon
 10917              	_ZN6tflite7testing22GetSimpleStatefulModelEv:
 10918              		.fnstart
 10919              	.LFB7111:
 10920              		@ args = 0, pretend = 0, frame = 0
 10921              		@ frame_needed = 0, uses_anonymous_args = 0
 10922 0000 10402DE9 		push	{r4, lr}
 10923              		.save {r4, lr}
 10924 0004 004000E3 		movw	r4, #:lower16:.LANCHOR37
 10925 0008 004040E3 		movt	r4, #:upper16:.LANCHOR37
 10926 000c 000094E5 		ldr	r0, [r4]
 10927 0010 000050E3 		cmp	r0, #0
 10928 0014 1080BD18 		popne	{r4, pc}
 10929 0018 FEFFFFEB 		bl	_ZN6tflite7testing12_GLOBAL__N_124BuildSimpleStatefulModelEv
 10930 001c 000084E5 		str	r0, [r4]
 10931 0020 1080BDE8 		pop	{r4, pc}
 10932              		.fnend
 10934              		.section	.text._ZN6tflite7testing24Create1dFlatbufferTensorEib,"ax",%progbits
 10935              		.align	2
 10936              		.global	_ZN6tflite7testing24Create1dFlatbufferTensorEib
 10937              		.syntax unified
 10938              		.arm
 10939              		.fpu neon
 10941              	_ZN6tflite7testing24Create1dFlatbufferTensorEib:
 10942              		.fnstart
 10943              	.LFB7112:
 10944              		@ args = 0, pretend = 0, frame = 8
 10945              		@ frame_needed = 0, uses_anonymous_args = 0
 10946 0000 F0402DE9 		push	{r4, r5, r6, r7, lr}
 10947              		.save {r4, r5, r6, r7, lr}
 10948              		.pad #28
 10949 0004 1CD04DE2 		sub	sp, sp, #28
 10950 0008 0160A0E1 		mov	r6, r1
 10951 000c 18408DE2 		add	r4, sp, #24
 10952 0010 0070A0E1 		mov	r7, r0
 10953 0014 FEFFFFEB 		bl	_ZN6tflite7testing12_GLOBAL__N_115BuilderInstanceEv
 10954 0018 0110A0E3 		mov	r1, #1
 10955 001c 0050A0E1 		mov	r5, r0
 10956 0020 047024E5 		str	r7, [r4, #-4]!
 10957 0024 FEFFFFEB 		bl	_ZN11flatbuffers17FlatBufferBuilder11StartVectorEjj.constprop.148
 10958 0028 0410A0E3 		mov	r1, #4
 10959 002c 0500A0E1 		mov	r0, r5
 10960 0030 FEFFFFEB 		bl	_ZN11flatbuffers15vector_downward12ensure_spaceEj
 10961 0034 183095E5 		ldr	r3, [r5, #24]
 10962 0038 0410A0E1 		mov	r1, r4
 10963 003c 0420A0E3 		mov	r2, #4
 10964 0040 000043E0 		sub	r0, r3, r0
 10965 0044 180085E5 		str	r0, [r5, #24]
 10966 0048 FEFFFFEB 		bl	memcpy
 10967 004c 0110A0E3 		mov	r1, #1
 10968 0050 0500A0E1 		mov	r0, r5
 10969 0054 FEFFFFEB 		bl	_ZN11flatbuffers17FlatBufferBuilder9EndVectorEj
 10970 0058 001000E3 		movw	r1, #:lower16:.LC66
 10971 005c 0040A0E1 		mov	r4, r0
 10972 0060 0B20A0E3 		mov	r2, #11
 10973 0064 001040E3 		movt	r1, #:upper16:.LC66
 10974 0068 0500A0E1 		mov	r0, r5
 10975 006c FEFFFFEB 		bl	_ZN11flatbuffers17FlatBufferBuilder12CreateStringEPKcj
 10976 0070 00C0A0E3 		mov	ip, #0
 10977 0074 0030A0E1 		mov	r3, r0
 10978 0078 0410A0E1 		mov	r1, r4
 10979 007c 04608DE5 		str	r6, [sp, #4]
 10980 0080 0500A0E1 		mov	r0, r5
 10981 0084 0CC08DE5 		str	ip, [sp, #12]
 10982 0088 08C08DE5 		str	ip, [sp, #8]
 10983 008c 0C20A0E1 		mov	r2, ip
 10984 0090 00C08DE5 		str	ip, [sp]
 10985 0094 FEFFFFEB 		bl	_ZN6tflite12CreateTensorERN11flatbuffers17FlatBufferBuilderENS0_6OffsetINS0_6VectorIlEEEENS_10T
 10986 0098 2630D5E5 		ldrb	r3, [r5, #38]	@ zero_extendqisi2
 10987 009c 204095E5 		ldr	r4, [r5, #32]
 10988 00a0 000053E3 		cmp	r3, #0
 10989 00a4 4700001A 		bne	.L2031
 10990 00a8 000054E3 		cmp	r4, #0
 10991 00ac 4D00001A 		bne	.L2032
 10992 00b0 142095E5 		ldr	r2, [r5, #20]
 10993 00b4 0070A0E1 		mov	r7, r0
 10994 00b8 186095E5 		ldr	r6, [r5, #24]
 10995 00bc 0500A0E1 		mov	r0, r5
 10996 00c0 101095E5 		ldr	r1, [r5, #16]
 10997 00c4 283095E5 		ldr	r3, [r5, #40]
 10998 00c8 026046E0 		sub	r6, r6, r2
 10999 00cc 1C2085E5 		str	r2, [r5, #28]
 11000 00d0 016046E0 		sub	r6, r6, r1
 11001 00d4 013043E2 		sub	r3, r3, #1
 11002 00d8 046046E2 		sub	r6, r6, #4
 11003 00dc 036006E0 		and	r6, r6, r3
 11004 00e0 0610A0E1 		mov	r1, r6
 11005 00e4 FEFFFFEB 		bl	_ZN11flatbuffers15vector_downward12ensure_spaceEj
 11006 00e8 183095E5 		ldr	r3, [r5, #24]
 11007 00ec 000056E3 		cmp	r6, #0
 11008 00f0 000043E0 		sub	r0, r3, r0
 11009 00f4 180085E5 		str	r0, [r5, #24]
 11010 00f8 0700000A 		beq	.L2012
 11011 00fc 0430A0E1 		mov	r3, r4
 11012 0100 0420A0E1 		mov	r2, r4
 11013 0104 000000EA 		b	.L2013
 11014              	.L2033:
 11015 0108 180095E5 		ldr	r0, [r5, #24]
 11016              	.L2013:
 11017 010c 0320C0E7 		strb	r2, [r0, r3]
 11018 0110 013083E2 		add	r3, r3, #1
 11019 0114 030056E1 		cmp	r6, r3
 11020 0118 FAFFFF1A 		bne	.L2033
 11021              	.L2012:
 11022 011c 0710A0E1 		mov	r1, r7
 11023 0120 0500A0E1 		mov	r0, r5
 11024 0124 FEFFFFEB 		bl	_ZN11flatbuffers17FlatBufferBuilder7ReferToEm
 11025 0128 283095E5 		ldr	r3, [r5, #40]
 11026 012c 0060A0E1 		mov	r6, r0
 11027 0130 184095E5 		ldr	r4, [r5, #24]
 11028 0134 0500A0E1 		mov	r0, r5
 11029 0138 142095E5 		ldr	r2, [r5, #20]
 11030 013c 030053E3 		cmp	r3, #3
 11031 0140 0430A093 		movls	r3, #4
 11032 0144 28308595 		strls	r3, [r5, #40]
 11033 0148 024044E0 		sub	r4, r4, r2
 11034 014c 103095E5 		ldr	r3, [r5, #16]
 11035 0150 034044E0 		sub	r4, r4, r3
 11036 0154 034004E2 		and	r4, r4, #3
 11037 0158 0410A0E1 		mov	r1, r4
 11038 015c FEFFFFEB 		bl	_ZN11flatbuffers15vector_downward12ensure_spaceEj
 11039 0160 183095E5 		ldr	r3, [r5, #24]
 11040 0164 000054E3 		cmp	r4, #0
 11041 0168 000043E0 		sub	r0, r3, r0
 11042 016c 180085E5 		str	r0, [r5, #24]
 11043 0170 0800000A 		beq	.L2016
 11044 0174 010054E3 		cmp	r4, #1
 11045 0178 0030A0E3 		mov	r3, #0
 11046 017c 0030C0E5 		strb	r3, [r0]
 11047 0180 0400000A 		beq	.L2016
 11048 0184 182095E5 		ldr	r2, [r5, #24]
 11049 0188 020054E3 		cmp	r4, #2
 11050 018c 0130C2E5 		strb	r3, [r2, #1]
 11051 0190 18209515 		ldrne	r2, [r5, #24]
 11052 0194 0230C215 		strbne	r3, [r2, #2]
 11053              	.L2016:
 11054 0198 0410A0E3 		mov	r1, #4
 11055 019c 0500A0E1 		mov	r0, r5
 11056 01a0 FEFFFFEB 		bl	_ZN11flatbuffers15vector_downward12ensure_spaceEj
 11057 01a4 183095E5 		ldr	r3, [r5, #24]
 11058 01a8 0120A0E3 		mov	r2, #1
 11059 01ac 003043E0 		sub	r3, r3, r0
 11060 01b0 0300A0E1 		mov	r0, r3
 11061 01b4 183085E5 		str	r3, [r5, #24]
 11062 01b8 066080E6 		str	r6, [r0], r6
 11063 01bc 2720C5E5 		strb	r2, [r5, #39]
 11064 01c0 1CD08DE2 		add	sp, sp, #28
 11065              		@ sp needed
 11066 01c4 F080BDE8 		pop	{r4, r5, r6, r7, pc}
 11067              	.L2031:
 11068 01c8 003000E3 		movw	r3, #:lower16:.LC24
 11069 01cc 002000E3 		movw	r2, #:lower16:.LANCHOR11
 11070 01d0 000000E3 		movw	r0, #:lower16:.LC19
 11071 01d4 003040E3 		movt	r3, #:upper16:.LC24
 11072 01d8 002040E3 		movt	r2, #:upper16:.LANCHOR11
 11073 01dc 000040E3 		movt	r0, #:upper16:.LC19
 11074 01e0 481500E3 		movw	r1, #1352
 11075 01e4 FEFFFFEB 		bl	__assert_func
 11076              	.L2032:
 11077 01e8 FEFFFFEB 		bl	_ZN11flatbuffers17FlatBufferBuilder9NotNestedEv.isra.20.part.21
 11078              		.fnend
 11080              		.section	.text._ZN6tflite7testing31CreateQuantizedFlatbufferTensorEi,"ax",%progbits
 11081              		.align	2
 11082              		.global	_ZN6tflite7testing31CreateQuantizedFlatbufferTensorEi
 11083              		.syntax unified
 11084              		.arm
 11085              		.fpu neon
 11087              	_ZN6tflite7testing31CreateQuantizedFlatbufferTensorEi:
 11088              		.fnstart
 11089              	.LFB7113:
 11090              		@ args = 0, pretend = 0, frame = 24
 11091              		@ frame_needed = 0, uses_anonymous_args = 0
 11092 0000 F04F2DE9 		push	{r4, r5, r6, r7, r8, r9, r10, fp, lr}
 11093              		.save {r4, r5, r6, r7, r8, r9, r10, fp, lr}
 11094              		.pad #44
 11095 0004 2CD04DE2 		sub	sp, sp, #44
 11096 0008 1C008DE5 		str	r0, [sp, #28]
 11097 000c FEFFFFEB 		bl	_ZN6tflite7testing12_GLOBAL__N_115BuilderInstanceEv
 11098 0010 0040A0E1 		mov	r4, r0
 11099 0014 0400A0E3 		mov	r0, #4
 11100              	.LEHB0:
 11101 0018 FEFFFFEB 		bl	_Znwj
 11102              	.LEHE0:
 11103 001c 001000E3 		movw	r1, #:lower16:.LANCHOR38
 11104 0020 0420A0E3 		mov	r2, #4
 11105 0024 001040E3 		movt	r1, #:upper16:.LANCHOR38
 11106 0028 0080A0E1 		mov	r8, r0
 11107 002c FEFFFFEB 		bl	memcpy
 11108 0030 0400A0E1 		mov	r0, r4
 11109 0034 0110A0E3 		mov	r1, #1
 11110              	.LEHB1:
 11111 0038 FEFFFFEB 		bl	_ZN11flatbuffers17FlatBufferBuilder11StartVectorEjj.constprop.148
 11112 003c 0410A0E3 		mov	r1, #4
 11113 0040 0400A0E1 		mov	r0, r4
 11114 0044 FEFFFFEB 		bl	_ZN11flatbuffers15vector_downward12ensure_spaceEj
 11115 0048 183094E5 		ldr	r3, [r4, #24]
 11116 004c 0810A0E1 		mov	r1, r8
 11117 0050 0420A0E3 		mov	r2, #4
 11118 0054 000043E0 		sub	r0, r3, r0
 11119 0058 180084E5 		str	r0, [r4, #24]
 11120 005c FEFFFFEB 		bl	memcpy
 11121 0060 0110A0E3 		mov	r1, #1
 11122 0064 0400A0E1 		mov	r0, r4
 11123 0068 FEFFFFEB 		bl	_ZN11flatbuffers17FlatBufferBuilder9EndVectorEj
 11124 006c 14008DE5 		str	r0, [sp, #20]
 11125 0070 0400A0E3 		mov	r0, #4
 11126 0074 FEFFFFEB 		bl	_Znwj
 11127              	.LEHE1:
 11128 0078 001000E3 		movw	r1, #:lower16:.LANCHOR39
 11129 007c 0420A0E3 		mov	r2, #4
 11130 0080 001040E3 		movt	r1, #:upper16:.LANCHOR39
 11131 0084 0090A0E1 		mov	r9, r0
 11132 0088 FEFFFFEB 		bl	memcpy
 11133 008c 0110A0E3 		mov	r1, #1
 11134 0090 0400A0E1 		mov	r0, r4
 11135              	.LEHB2:
 11136 0094 FEFFFFEB 		bl	_ZN11flatbuffers17FlatBufferBuilder11StartVectorEjj.constprop.148
 11137 0098 0410A0E3 		mov	r1, #4
 11138 009c 0400A0E1 		mov	r0, r4
 11139 00a0 FEFFFFEB 		bl	_ZN11flatbuffers15vector_downward12ensure_spaceEj
 11140 00a4 183094E5 		ldr	r3, [r4, #24]
 11141 00a8 0910A0E1 		mov	r1, r9
 11142 00ac 0420A0E3 		mov	r2, #4
 11143 00b0 000043E0 		sub	r0, r3, r0
 11144 00b4 180084E5 		str	r0, [r4, #24]
 11145 00b8 FEFFFFEB 		bl	memcpy
 11146 00bc 0110A0E3 		mov	r1, #1
 11147 00c0 0400A0E1 		mov	r0, r4
 11148 00c4 FEFFFFEB 		bl	_ZN11flatbuffers17FlatBufferBuilder9EndVectorEj
 11149 00c8 00B0A0E1 		mov	fp, r0
 11150 00cc 0400A0E3 		mov	r0, #4
 11151 00d0 FEFFFFEB 		bl	_Znwj
 11152              	.LEHE2:
 11153 00d4 001000E3 		movw	r1, #:lower16:.LANCHOR40
 11154 00d8 0420A0E3 		mov	r2, #4
 11155 00dc 001040E3 		movt	r1, #:upper16:.LANCHOR40
 11156 00e0 00A0A0E1 		mov	r10, r0
 11157 00e4 FEFFFFEB 		bl	memcpy
 11158 00e8 0110A0E3 		mov	r1, #1
 11159 00ec 0400A0E1 		mov	r0, r4
 11160              	.LEHB3:
 11161 00f0 FEFFFFEB 		bl	_ZN11flatbuffers17FlatBufferBuilder11StartVectorEjj.constprop.148
 11162 00f4 0410A0E3 		mov	r1, #4
 11163 00f8 0400A0E1 		mov	r0, r4
 11164 00fc FEFFFFEB 		bl	_ZN11flatbuffers15vector_downward12ensure_spaceEj
 11165 0100 183094E5 		ldr	r3, [r4, #24]
 11166 0104 0A10A0E1 		mov	r1, r10
 11167 0108 0420A0E3 		mov	r2, #4
 11168 010c 000043E0 		sub	r0, r3, r0
 11169 0110 180084E5 		str	r0, [r4, #24]
 11170 0114 FEFFFFEB 		bl	memcpy
 11171 0118 0110A0E3 		mov	r1, #1
 11172 011c 0400A0E1 		mov	r0, r4
 11173 0120 FEFFFFEB 		bl	_ZN11flatbuffers17FlatBufferBuilder9EndVectorEj
 11174 0124 10008DE5 		str	r0, [sp, #16]
 11175 0128 0800A0E3 		mov	r0, #8
 11176 012c FEFFFFEB 		bl	_Znwj
 11177              	.LEHE3:
 11178 0130 001000E3 		movw	r1, #:lower16:.LANCHOR41
 11179 0134 0820A0E3 		mov	r2, #8
 11180 0138 001040E3 		movt	r1, #:upper16:.LANCHOR41
 11181 013c 0070A0E1 		mov	r7, r0
 11182 0140 FEFFFFEB 		bl	memcpy
 11183 0144 2620D4E5 		ldrb	r2, [r4, #38]	@ zero_extendqisi2
 11184 0148 203094E5 		ldr	r3, [r4, #32]
 11185 014c 000052E3 		cmp	r2, #0
 11186 0150 8201001A 		bne	.L2159
 11187 0154 000053E3 		cmp	r3, #0
 11188 0158 7F01001A 		bne	.L2160
 11189 015c 283094E5 		ldr	r3, [r4, #40]
 11190 0160 0120A0E3 		mov	r2, #1
 11191 0164 2620C4E5 		strb	r2, [r4, #38]
 11192 0168 0400A0E1 		mov	r0, r4
 11193 016c 186094E5 		ldr	r6, [r4, #24]
 11194 0170 030053E3 		cmp	r3, #3
 11195 0174 142094E5 		ldr	r2, [r4, #20]
 11196 0178 0430A093 		movls	r3, #4
 11197 017c 28308495 		strls	r3, [r4, #40]
 11198 0180 103094E5 		ldr	r3, [r4, #16]
 11199 0184 026046E0 		sub	r6, r6, r2
 11200 0188 036046E0 		sub	r6, r6, r3
 11201 018c 036006E2 		and	r6, r6, #3
 11202 0190 0610A0E1 		mov	r1, r6
 11203              	.LEHB4:
 11204 0194 FEFFFFEB 		bl	_ZN11flatbuffers15vector_downward12ensure_spaceEj
 11205 0198 183094E5 		ldr	r3, [r4, #24]
 11206 019c 000056E3 		cmp	r6, #0
 11207 01a0 003043E0 		sub	r3, r3, r0
 11208 01a4 183084E5 		str	r3, [r4, #24]
 11209 01a8 0900000A 		beq	.L2038
 11210 01ac 010056E3 		cmp	r6, #1
 11211 01b0 0020A0E3 		mov	r2, #0
 11212 01b4 0020C3E5 		strb	r2, [r3]
 11213 01b8 0400000A 		beq	.L2039
 11214 01bc 183094E5 		ldr	r3, [r4, #24]
 11215 01c0 020056E3 		cmp	r6, #2
 11216 01c4 0120C3E5 		strb	r2, [r3, #1]
 11217 01c8 18309415 		ldrne	r3, [r4, #24]
 11218 01cc 0220C315 		strbne	r2, [r3, #2]
 11219              	.L2039:
 11220 01d0 183094E5 		ldr	r3, [r4, #24]
 11221              	.L2038:
 11222 01d4 282094E5 		ldr	r2, [r4, #40]
 11223 01d8 0400A0E1 		mov	r0, r4
 11224 01dc 145094E5 		ldr	r5, [r4, #20]
 11225 01e0 070052E3 		cmp	r2, #7
 11226 01e4 0820A093 		movls	r2, #8
 11227 01e8 055043E0 		sub	r5, r3, r5
 11228 01ec 28208495 		strls	r2, [r4, #40]
 11229 01f0 102094E5 		ldr	r2, [r4, #16]
 11230 01f4 025045E0 		sub	r5, r5, r2
 11231 01f8 075005E2 		and	r5, r5, #7
 11232 01fc 0510A0E1 		mov	r1, r5
 11233 0200 FEFFFFEB 		bl	_ZN11flatbuffers15vector_downward12ensure_spaceEj
 11234 0204 183094E5 		ldr	r3, [r4, #24]
 11235 0208 000055E3 		cmp	r5, #0
 11236 020c 000043E0 		sub	r0, r3, r0
 11237 0210 180084E5 		str	r0, [r4, #24]
 11238 0214 1800000A 		beq	.L2041
 11239 0218 010055E3 		cmp	r5, #1
 11240 021c 0030A0E3 		mov	r3, #0
 11241 0220 0030C0E5 		strb	r3, [r0]
 11242 0224 1400000A 		beq	.L2041
 11243 0228 182094E5 		ldr	r2, [r4, #24]
 11244 022c 020055E3 		cmp	r5, #2
 11245 0230 0130C2E5 		strb	r3, [r2, #1]
 11246 0234 1000000A 		beq	.L2041
 11247 0238 182094E5 		ldr	r2, [r4, #24]
 11248 023c 030055E3 		cmp	r5, #3
 11249 0240 0230C2E5 		strb	r3, [r2, #2]
 11250 0244 0C00000A 		beq	.L2041
 11251 0248 182094E5 		ldr	r2, [r4, #24]
 11252 024c 040055E3 		cmp	r5, #4
 11253 0250 0330C2E5 		strb	r3, [r2, #3]
 11254 0254 0800000A 		beq	.L2041
 11255 0258 182094E5 		ldr	r2, [r4, #24]
 11256 025c 050055E3 		cmp	r5, #5
 11257 0260 0430C2E5 		strb	r3, [r2, #4]
 11258 0264 0400000A 		beq	.L2041
 11259 0268 182094E5 		ldr	r2, [r4, #24]
 11260 026c 060055E3 		cmp	r5, #6
 11261 0270 0530C2E5 		strb	r3, [r2, #5]
 11262 0274 18209415 		ldrne	r2, [r4, #24]
 11263 0278 0630C215 		strbne	r3, [r2, #6]
 11264              	.L2041:
 11265 027c 0810A0E3 		mov	r1, #8
 11266 0280 0400A0E1 		mov	r0, r4
 11267 0284 FEFFFFEB 		bl	_ZN11flatbuffers15vector_downward12ensure_spaceEj
 11268 0288 183094E5 		ldr	r3, [r4, #24]
 11269 028c 0710A0E1 		mov	r1, r7
 11270 0290 0820A0E3 		mov	r2, #8
 11271 0294 000043E0 		sub	r0, r3, r0
 11272 0298 180084E5 		str	r0, [r4, #24]
 11273 029c FEFFFFEB 		bl	memcpy
 11274 02a0 0110A0E3 		mov	r1, #1
 11275 02a4 0400A0E1 		mov	r0, r4
 11276 02a8 FEFFFFEB 		bl	_ZN11flatbuffers17FlatBufferBuilder9EndVectorEj
 11277 02ac 2620D4E5 		ldrb	r2, [r4, #38]	@ zero_extendqisi2
 11278 02b0 18008DE5 		str	r0, [sp, #24]
 11279 02b4 203094E5 		ldr	r3, [r4, #32]
 11280 02b8 000052E3 		cmp	r2, #0
 11281 02bc 1501001A 		bne	.L2161
 11282 02c0 000053E3 		cmp	r3, #0
 11283 02c4 2F01001A 		bne	.L2162
 11284 02c8 2C10D4E5 		ldrb	r1, [r4, #44]	@ zero_extendqisi2
 11285 02cc 142094E5 		ldr	r2, [r4, #20]
 11286 02d0 183094E5 		ldr	r3, [r4, #24]
 11287 02d4 105094E5 		ldr	r5, [r4, #16]
 11288 02d8 000051E3 		cmp	r1, #0
 11289 02dc 023043E0 		sub	r3, r3, r2
 11290 02e0 0120A0E3 		mov	r2, #1
 11291 02e4 035045E0 		sub	r5, r5, r3
 11292 02e8 2620C4E5 		strb	r2, [r4, #38]
 11293 02ec 0030A001 		moveq	r3, r0
 11294 02f0 3300000A 		beq	.L2045
 11295 02f4 283094E5 		ldr	r3, [r4, #40]
 11296 02f8 006065E2 		rsb	r6, r5, #0
 11297 02fc 036006E2 		and	r6, r6, #3
 11298 0300 0400A0E1 		mov	r0, r4
 11299 0304 0610A0E1 		mov	r1, r6
 11300 0308 030053E3 		cmp	r3, #3
 11301 030c 0430A093 		movls	r3, #4
 11302 0310 28308495 		strls	r3, [r4, #40]
 11303 0314 FEFFFFEB 		bl	_ZN11flatbuffers15vector_downward12ensure_spaceEj
 11304 0318 183094E5 		ldr	r3, [r4, #24]
 11305 031c 000056E3 		cmp	r6, #0
 11306 0320 000043E0 		sub	r0, r3, r0
 11307 0324 180084E5 		str	r0, [r4, #24]
 11308 0328 0800000A 		beq	.L2046
 11309 032c 010056E3 		cmp	r6, #1
 11310 0330 0030A0E3 		mov	r3, #0
 11311 0334 0030C0E5 		strb	r3, [r0]
 11312 0338 0400000A 		beq	.L2046
 11313 033c 182094E5 		ldr	r2, [r4, #24]
 11314 0340 020056E3 		cmp	r6, #2
 11315 0344 0130C2E5 		strb	r3, [r2, #1]
 11316 0348 18209415 		ldrne	r2, [r4, #24]
 11317 034c 0230C215 		strbne	r3, [r2, #2]
 11318              	.L2046:
 11319 0350 0410A0E3 		mov	r1, #4
 11320 0354 0400A0E1 		mov	r0, r4
 11321 0358 FEFFFFEB 		bl	_ZN11flatbuffers15vector_downward12ensure_spaceEj
 11322 035c 183094E5 		ldr	r3, [r4, #24]
 11323 0360 00C0A0E3 		mov	ip, #0
 11324 0364 142094E5 		ldr	r2, [r4, #20]
 11325 0368 0810A0E3 		mov	r1, #8
 11326 036c 106094E5 		ldr	r6, [r4, #16]
 11327 0370 000043E0 		sub	r0, r3, r0
 11328 0374 180084E5 		str	r0, [r4, #24]
 11329 0378 022040E0 		sub	r2, r0, r2
 11330 037c 00C080E5 		str	ip, [r0]
 11331 0380 0400A0E1 		mov	r0, r4
 11332 0384 026046E0 		sub	r6, r6, r2
 11333 0388 FEFFFFEB 		bl	_ZN11flatbuffers15vector_downward12ensure_spaceEj
 11334 038c 1C3094E5 		ldr	r3, [r4, #28]
 11335 0390 1020A0E3 		mov	r2, #16
 11336 0394 201094E5 		ldr	r1, [r4, #32]
 11337 0398 083083E2 		add	r3, r3, #8
 11338 039c 086003E5 		str	r6, [r3, #-8]
 11339 03a0 B42043E1 		strh	r2, [r3, #-4]	@ movhi
 11340 03a4 011081E2 		add	r1, r1, #1
 11341 03a8 B422D4E1 		ldrh	r2, [r4, #36]
 11342 03ac 1C3084E5 		str	r3, [r4, #28]
 11343 03b0 18309DE5 		ldr	r3, [sp, #24]
 11344 03b4 100052E3 		cmp	r2, #16
 11345 03b8 201084E5 		str	r1, [r4, #32]
 11346 03bc 1020A0B3 		movlt	r2, #16
 11347 03c0 B422C4E1 		strh	r2, [r4, #36]	@ movhi
 11348              	.L2045:
 11349 03c4 000053E3 		cmp	r3, #0
 11350 03c8 C500001A 		bne	.L2048
 11351              	.L2052:
 11352 03cc 10309DE5 		ldr	r3, [sp, #16]
 11353 03d0 000053E3 		cmp	r3, #0
 11354 03d4 B600001A 		bne	.L2163
 11355              	.L2049:
 11356 03d8 00005BE3 		cmp	fp, #0
 11357 03dc 9900001A 		bne	.L2164
 11358              	.L2053:
 11359 03e0 14309DE5 		ldr	r3, [sp, #20]
 11360 03e4 000053E3 		cmp	r3, #0
 11361 03e8 A100001A 		bne	.L2079
 11362              	.L2058:
 11363 03ec 2C30D4E5 		ldrb	r3, [r4, #44]	@ zero_extendqisi2
 11364 03f0 000053E3 		cmp	r3, #0
 11365 03f4 2600000A 		beq	.L2060
 11366 03f8 283094E5 		ldr	r3, [r4, #40]
 11367 03fc 0010A0E3 		mov	r1, #0
 11368 0400 0400A0E1 		mov	r0, r4
 11369 0404 000053E3 		cmp	r3, #0
 11370 0408 0130A003 		moveq	r3, #1
 11371 040c 28308405 		streq	r3, [r4, #40]
 11372 0410 FEFFFFEB 		bl	_ZN11flatbuffers15vector_downward12ensure_spaceEj
 11373 0414 183094E5 		ldr	r3, [r4, #24]
 11374 0418 0110A0E3 		mov	r1, #1
 11375 041c 003043E0 		sub	r3, r3, r0
 11376 0420 0400A0E1 		mov	r0, r4
 11377 0424 183084E5 		str	r3, [r4, #24]
 11378 0428 FEFFFFEB 		bl	_ZN11flatbuffers15vector_downward12ensure_spaceEj
 11379 042c 183094E5 		ldr	r3, [r4, #24]
 11380 0430 0020A0E3 		mov	r2, #0
 11381 0434 0810A0E3 		mov	r1, #8
 11382 0438 003043E0 		sub	r3, r3, r0
 11383 043c 0400A0E1 		mov	r0, r4
 11384 0440 183084E5 		str	r3, [r4, #24]
 11385 0444 0020C3E5 		strb	r2, [r3]
 11386 0448 183094E5 		ldr	r3, [r4, #24]
 11387 044c 142094E5 		ldr	r2, [r4, #20]
 11388 0450 106094E5 		ldr	r6, [r4, #16]
 11389 0454 023043E0 		sub	r3, r3, r2
 11390 0458 036046E0 		sub	r6, r6, r3
 11391 045c FEFFFFEB 		bl	_ZN11flatbuffers15vector_downward12ensure_spaceEj
 11392 0460 1C3094E5 		ldr	r3, [r4, #28]
 11393 0464 0C20A0E3 		mov	r2, #12
 11394 0468 201094E5 		ldr	r1, [r4, #32]
 11395 046c 006083E5 		str	r6, [r3]
 11396 0470 083083E2 		add	r3, r3, #8
 11397 0474 B42043E1 		strh	r2, [r3, #-4]	@ movhi
 11398 0478 011081E2 		add	r1, r1, #1
 11399 047c B422D4E1 		ldrh	r2, [r4, #36]
 11400 0480 1C3084E5 		str	r3, [r4, #28]
 11401 0484 201084E5 		str	r1, [r4, #32]
 11402 0488 0C0052E3 		cmp	r2, #12
 11403 048c 0C20A0B3 		movlt	r2, #12
 11404 0490 B422C4E1 		strh	r2, [r4, #36]	@ movhi
 11405              	.L2060:
 11406 0494 0510A0E1 		mov	r1, r5
 11407 0498 0400A0E1 		mov	r0, r4
 11408 049c FEFFFFEB 		bl	_ZN11flatbuffers17FlatBufferBuilder8EndTableEm
 11409              	.LEHE4:
 11410 04a0 0050A0E1 		mov	r5, r0
 11411 04a4 0700A0E1 		mov	r0, r7
 11412 04a8 FEFFFFEB 		bl	_ZdlPv
 11413 04ac 0A00A0E1 		mov	r0, r10
 11414 04b0 FEFFFFEB 		bl	_ZdlPv
 11415 04b4 0900A0E1 		mov	r0, r9
 11416 04b8 FEFFFFEB 		bl	_ZdlPv
 11417 04bc 0800A0E1 		mov	r0, r8
 11418 04c0 FEFFFFEB 		bl	_ZdlPv
 11419 04c4 1C309DE5 		ldr	r3, [sp, #28]
 11420 04c8 28108DE2 		add	r1, sp, #40
 11421 04cc 0400A0E1 		mov	r0, r4
 11422 04d0 043021E5 		str	r3, [r1, #-4]!
 11423              	.LEHB5:
 11424 04d4 FEFFFFEB 		bl	_ZN11flatbuffers17FlatBufferBuilder12CreateVectorIlEENS_6OffsetINS_6VectorIT_EEEEPKS4_j.constpr
 11425 04d8 001000E3 		movw	r1, #:lower16:.LC66
 11426 04dc 0060A0E1 		mov	r6, r0
 11427 04e0 0B20A0E3 		mov	r2, #11
 11428 04e4 001040E3 		movt	r1, #:upper16:.LC66
 11429 04e8 0400A0E1 		mov	r0, r4
 11430 04ec FEFFFFEB 		bl	_ZN11flatbuffers17FlatBufferBuilder12CreateStringEPKcj
 11431 04f0 00C0A0E3 		mov	ip, #0
 11432 04f4 0030A0E1 		mov	r3, r0
 11433 04f8 00508DE5 		str	r5, [sp]
 11434 04fc 0610A0E1 		mov	r1, r6
 11435 0500 0CC08DE5 		str	ip, [sp, #12]
 11436 0504 0C20A0E1 		mov	r2, ip
 11437 0508 08C08DE5 		str	ip, [sp, #8]
 11438 050c 0400A0E1 		mov	r0, r4
 11439 0510 04C08DE5 		str	ip, [sp, #4]
 11440 0514 FEFFFFEB 		bl	_ZN6tflite12CreateTensorERN11flatbuffers17FlatBufferBuilderENS0_6OffsetINS0_6VectorIlEEEENS_10T
 11441 0518 2630D4E5 		ldrb	r3, [r4, #38]	@ zero_extendqisi2
 11442 051c 0070A0E1 		mov	r7, r0
 11443 0520 205094E5 		ldr	r5, [r4, #32]
 11444 0524 000053E3 		cmp	r3, #0
 11445 0528 9700001A 		bne	.L2165
 11446 052c 000055E3 		cmp	r5, #0
 11447 0530 7700001A 		bne	.L2166
 11448 0534 142094E5 		ldr	r2, [r4, #20]
 11449 0538 0400A0E1 		mov	r0, r4
 11450 053c 186094E5 		ldr	r6, [r4, #24]
 11451 0540 101094E5 		ldr	r1, [r4, #16]
 11452 0544 283094E5 		ldr	r3, [r4, #40]
 11453 0548 026046E0 		sub	r6, r6, r2
 11454 054c 1C2084E5 		str	r2, [r4, #28]
 11455 0550 016046E0 		sub	r6, r6, r1
 11456 0554 013043E2 		sub	r3, r3, #1
 11457 0558 046046E2 		sub	r6, r6, #4
 11458 055c 036006E0 		and	r6, r6, r3
 11459 0560 0610A0E1 		mov	r1, r6
 11460 0564 FEFFFFEB 		bl	_ZN11flatbuffers15vector_downward12ensure_spaceEj
 11461 0568 183094E5 		ldr	r3, [r4, #24]
 11462 056c 000056E3 		cmp	r6, #0
 11463 0570 000043E0 		sub	r0, r3, r0
 11464 0574 180084E5 		str	r0, [r4, #24]
 11465 0578 0700000A 		beq	.L2066
 11466 057c 0530A0E1 		mov	r3, r5
 11467 0580 0520A0E1 		mov	r2, r5
 11468 0584 000000EA 		b	.L2067
 11469              	.L2167:
 11470 0588 180094E5 		ldr	r0, [r4, #24]
 11471              	.L2067:
 11472 058c 0320C0E7 		strb	r2, [r0, r3]
 11473 0590 013083E2 		add	r3, r3, #1
 11474 0594 030056E1 		cmp	r6, r3
 11475 0598 FAFFFF1A 		bne	.L2167
 11476              	.L2066:
 11477 059c 0710A0E1 		mov	r1, r7
 11478 05a0 0400A0E1 		mov	r0, r4
 11479 05a4 FEFFFFEB 		bl	_ZN11flatbuffers17FlatBufferBuilder7ReferToEm
 11480 05a8 283094E5 		ldr	r3, [r4, #40]
 11481 05ac 0060A0E1 		mov	r6, r0
 11482 05b0 185094E5 		ldr	r5, [r4, #24]
 11483 05b4 0400A0E1 		mov	r0, r4
 11484 05b8 142094E5 		ldr	r2, [r4, #20]
 11485 05bc 030053E3 		cmp	r3, #3
 11486 05c0 0430A093 		movls	r3, #4
 11487 05c4 28308495 		strls	r3, [r4, #40]
 11488 05c8 025045E0 		sub	r5, r5, r2
 11489 05cc 103094E5 		ldr	r3, [r4, #16]
 11490 05d0 035045E0 		sub	r5, r5, r3
 11491 05d4 035005E2 		and	r5, r5, #3
 11492 05d8 0510A0E1 		mov	r1, r5
 11493 05dc FEFFFFEB 		bl	_ZN11flatbuffers15vector_downward12ensure_spaceEj
 11494 05e0 183094E5 		ldr	r3, [r4, #24]
 11495 05e4 000055E3 		cmp	r5, #0
 11496 05e8 000043E0 		sub	r0, r3, r0
 11497 05ec 180084E5 		str	r0, [r4, #24]
 11498 05f0 0800000A 		beq	.L2070
 11499 05f4 010055E3 		cmp	r5, #1
 11500 05f8 0030A0E3 		mov	r3, #0
 11501 05fc 0030C0E5 		strb	r3, [r0]
 11502 0600 0400000A 		beq	.L2070
 11503 0604 182094E5 		ldr	r2, [r4, #24]
 11504 0608 020055E3 		cmp	r5, #2
 11505 060c 0130C2E5 		strb	r3, [r2, #1]
 11506 0610 18209415 		ldrne	r2, [r4, #24]
 11507 0614 0230C215 		strbne	r3, [r2, #2]
 11508              	.L2070:
 11509 0618 0410A0E3 		mov	r1, #4
 11510 061c 0400A0E1 		mov	r0, r4
 11511 0620 FEFFFFEB 		bl	_ZN11flatbuffers15vector_downward12ensure_spaceEj
 11512              	.LEHE5:
 11513 0624 183094E5 		ldr	r3, [r4, #24]
 11514 0628 0120A0E3 		mov	r2, #1
 11515 062c 003043E0 		sub	r3, r3, r0
 11516 0630 0300A0E1 		mov	r0, r3
 11517 0634 183084E5 		str	r3, [r4, #24]
 11518 0638 066080E6 		str	r6, [r0], r6
 11519 063c 2720C4E5 		strb	r2, [r4, #39]
 11520 0640 2CD08DE2 		add	sp, sp, #44
 11521              		@ sp needed
 11522 0644 F08FBDE8 		pop	{r4, r5, r6, r7, r8, r9, r10, fp, pc}
 11523              	.L2164:
 11524 0648 0B10A0E1 		mov	r1, fp
 11525 064c 0400A0E1 		mov	r0, r4
 11526              	.LEHB6:
 11527 0650 FEFFFFEB 		bl	_ZN11flatbuffers17FlatBufferBuilder7ReferToEm
 11528 0654 002050E2 		subs	r2, r0, #0
 11529 0658 1100001A 		bne	.L2056
 11530 065c 2C30D4E5 		ldrb	r3, [r4, #44]	@ zero_extendqisi2
 11531 0660 000053E3 		cmp	r3, #0
 11532 0664 0E00001A 		bne	.L2056
 11533 0668 14309DE5 		ldr	r3, [sp, #20]
 11534 066c 000053E3 		cmp	r3, #0
 11535 0670 87FFFF0A 		beq	.L2060
 11536              	.L2079:
 11537 0674 14109DE5 		ldr	r1, [sp, #20]
 11538 0678 0400A0E1 		mov	r0, r4
 11539 067c FEFFFFEB 		bl	_ZN11flatbuffers17FlatBufferBuilder7ReferToEm
 11540 0680 002050E2 		subs	r2, r0, #0
 11541 0684 0200001A 		bne	.L2059
 11542 0688 2C30D4E5 		ldrb	r3, [r4, #44]	@ zero_extendqisi2
 11543 068c 000053E3 		cmp	r3, #0
 11544 0690 7FFFFF0A 		beq	.L2060
 11545              	.L2059:
 11546 0694 0410A0E3 		mov	r1, #4
 11547 0698 0400A0E1 		mov	r0, r4
 11548 069c FEFFFFEB 		bl	_ZN11flatbuffers17FlatBufferBuilder10AddElementImEEvtT_S2_.part.45
 11549 06a0 51FFFFEA 		b	.L2058
 11550              	.L2056:
 11551 06a4 0610A0E3 		mov	r1, #6
 11552 06a8 0400A0E1 		mov	r0, r4
 11553 06ac FEFFFFEB 		bl	_ZN11flatbuffers17FlatBufferBuilder10AddElementImEEvtT_S2_.part.45
 11554 06b0 4AFFFFEA 		b	.L2053
 11555              	.L2163:
 11556 06b4 0310A0E1 		mov	r1, r3
 11557 06b8 0400A0E1 		mov	r0, r4
 11558 06bc FEFFFFEB 		bl	_ZN11flatbuffers17FlatBufferBuilder7ReferToEm
 11559 06c0 002050E2 		subs	r2, r0, #0
 11560 06c4 0200001A 		bne	.L2055
 11561 06c8 2C30D4E5 		ldrb	r3, [r4, #44]	@ zero_extendqisi2
 11562 06cc 000053E3 		cmp	r3, #0
 11563 06d0 40FFFF0A 		beq	.L2049
 11564              	.L2055:
 11565 06d4 0810A0E3 		mov	r1, #8
 11566 06d8 0400A0E1 		mov	r0, r4
 11567 06dc FEFFFFEB 		bl	_ZN11flatbuffers17FlatBufferBuilder10AddElementImEEvtT_S2_.part.45
 11568 06e0 3CFFFFEA 		b	.L2049
 11569              	.L2048:
 11570 06e4 0310A0E1 		mov	r1, r3
 11571 06e8 0400A0E1 		mov	r0, r4
 11572 06ec FEFFFFEB 		bl	_ZN11flatbuffers17FlatBufferBuilder7ReferToEm
 11573 06f0 002050E2 		subs	r2, r0, #0
 11574 06f4 0200001A 		bne	.L2051
 11575 06f8 2C30D4E5 		ldrb	r3, [r4, #44]	@ zero_extendqisi2
 11576 06fc 000053E3 		cmp	r3, #0
 11577 0700 31FFFF0A 		beq	.L2052
 11578              	.L2051:
 11579 0704 0A10A0E3 		mov	r1, #10
 11580 0708 0400A0E1 		mov	r0, r4
 11581 070c FEFFFFEB 		bl	_ZN11flatbuffers17FlatBufferBuilder10AddElementImEEvtT_S2_.part.45
 11582              	.LEHE6:
 11583 0710 2DFFFFEA 		b	.L2052
 11584              	.L2166:
 11585              	.LEHB7:
 11586 0714 FEFFFFEB 		bl	_ZN11flatbuffers17FlatBufferBuilder9NotNestedEv.isra.20.part.21
 11587              	.LEHE7:
 11588              	.L2161:
 11589 0718 003000E3 		movw	r3, #:lower16:.LC24
 11590 071c 002000E3 		movw	r2, #:lower16:.LANCHOR11
 11591 0720 000000E3 		movw	r0, #:lower16:.LC19
 11592 0724 003040E3 		movt	r3, #:upper16:.LC24
 11593 0728 002040E3 		movt	r2, #:upper16:.LANCHOR11
 11594 072c 000040E3 		movt	r0, #:upper16:.LC19
 11595 0730 481500E3 		movw	r1, #1352
 11596              	.LEHB8:
 11597 0734 FEFFFFEB 		bl	__assert_func
 11598              	.LEHE8:
 11599              	.L2085:
 11600 0738 0700A0E1 		mov	r0, r7
 11601 073c FEFFFFEB 		bl	_ZdlPv
 11602              	.L2072:
 11603 0740 0A00A0E1 		mov	r0, r10
 11604 0744 FEFFFFEB 		bl	_ZdlPv
 11605              	.L2073:
 11606 0748 0900A0E1 		mov	r0, r9
 11607 074c FEFFFFEB 		bl	_ZdlPv
 11608              	.L2074:
 11609 0750 0800A0E1 		mov	r0, r8
 11610 0754 FEFFFFEB 		bl	_ZdlPv
 11611              	.LEHB9:
 11612 0758 FEFFFFEB 		bl	__cxa_end_cleanup
 11613              	.LEHE9:
 11614              	.L2160:
 11615              	.LEHB10:
 11616 075c FEFFFFEB 		bl	_ZN11flatbuffers17FlatBufferBuilder9NotNestedEv.isra.20.part.21
 11617              	.L2159:
 11618 0760 003000E3 		movw	r3, #:lower16:.LC24
 11619 0764 002000E3 		movw	r2, #:lower16:.LANCHOR11
 11620 0768 000000E3 		movw	r0, #:lower16:.LC19
 11621 076c 003040E3 		movt	r3, #:upper16:.LC24
 11622 0770 002040E3 		movt	r2, #:upper16:.LANCHOR11
 11623 0774 000040E3 		movt	r0, #:upper16:.LC19
 11624 0778 481500E3 		movw	r1, #1352
 11625 077c FEFFFFEB 		bl	__assert_func
 11626              	.L2084:
 11627 0780 EEFFFFEA 		b	.L2072
 11628              	.L2083:
 11629 0784 EFFFFFEA 		b	.L2073
 11630              	.L2162:
 11631 0788 FEFFFFEB 		bl	_ZN11flatbuffers17FlatBufferBuilder9NotNestedEv.isra.20.part.21
 11632              	.LEHE10:
 11633              	.L2165:
 11634 078c 003000E3 		movw	r3, #:lower16:.LC24
 11635 0790 002000E3 		movw	r2, #:lower16:.LANCHOR11
 11636 0794 000000E3 		movw	r0, #:lower16:.LC19
 11637 0798 003040E3 		movt	r3, #:upper16:.LC24
 11638 079c 002040E3 		movt	r2, #:upper16:.LANCHOR11
 11639 07a0 000040E3 		movt	r0, #:upper16:.LC19
 11640 07a4 481500E3 		movw	r1, #1352
 11641              	.LEHB11:
 11642 07a8 FEFFFFEB 		bl	__assert_func
 11643              	.LEHE11:
 11644              	.L2082:
 11645 07ac E7FFFFEA 		b	.L2074
 11646              		.global	__gxx_personality_v0
 11647              		.personality	__gxx_personality_v0
 11648              		.handlerdata
 11649              	.LLSDA7113:
 11650 0008 FF       		.byte	0xff
 11651 0009 FF       		.byte	0xff
 11652 000a 01       		.byte	0x1
 11653 000b 44       		.uleb128 .LLSDACSE7113-.LLSDACSB7113
 11654              	.LLSDACSB7113:
 11655 000c 18       		.uleb128 .LEHB0-.LFB7113
 11656 000d 04       		.uleb128 .LEHE0-.LEHB0
 11657 000e 00       		.uleb128 0
 11658 000f 00       		.uleb128 0
 11659 0010 38       		.uleb128 .LEHB1-.LFB7113
 11660 0011 40       		.uleb128 .LEHE1-.LEHB1
 11661 0012 AC0F     		.uleb128 .L2082-.LFB7113
 11662 0014 00       		.uleb128 0
 11663 0015 9401     		.uleb128 .LEHB2-.LFB7113
 11664 0017 40       		.uleb128 .LEHE2-.LEHB2
 11665 0018 840F     		.uleb128 .L2083-.LFB7113
 11666 001a 00       		.uleb128 0
 11667 001b F001     		.uleb128 .LEHB3-.LFB7113
 11668 001d 40       		.uleb128 .LEHE3-.LEHB3
 11669 001e 800F     		.uleb128 .L2084-.LFB7113
 11670 0020 00       		.uleb128 0
 11671 0021 9403     		.uleb128 .LEHB4-.LFB7113
 11672 0023 8C06     		.uleb128 .LEHE4-.LEHB4
 11673 0025 B80E     		.uleb128 .L2085-.LFB7113
 11674 0027 00       		.uleb128 0
 11675 0028 D409     		.uleb128 .LEHB5-.LFB7113
 11676 002a D002     		.uleb128 .LEHE5-.LEHB5
 11677 002c 00       		.uleb128 0
 11678 002d 00       		.uleb128 0
 11679 002e D00C     		.uleb128 .LEHB6-.LFB7113
 11680 0030 C001     		.uleb128 .LEHE6-.LEHB6
 11681 0032 B80E     		.uleb128 .L2085-.LFB7113
 11682 0034 00       		.uleb128 0
 11683 0035 940E     		.uleb128 .LEHB7-.LFB7113
 11684 0037 04       		.uleb128 .LEHE7-.LEHB7
 11685 0038 00       		.uleb128 0
 11686 0039 00       		.uleb128 0
 11687 003a B40E     		.uleb128 .LEHB8-.LFB7113
 11688 003c 04       		.uleb128 .LEHE8-.LEHB8
 11689 003d B80E     		.uleb128 .L2085-.LFB7113
 11690 003f 00       		.uleb128 0
 11691 0040 D80E     		.uleb128 .LEHB9-.LFB7113
 11692 0042 04       		.uleb128 .LEHE9-.LEHB9
 11693 0043 00       		.uleb128 0
 11694 0044 00       		.uleb128 0
 11695 0045 DC0E     		.uleb128 .LEHB10-.LFB7113
 11696 0047 30       		.uleb128 .LEHE10-.LEHB10
 11697 0048 B80E     		.uleb128 .L2085-.LFB7113
 11698 004a 00       		.uleb128 0
 11699 004b A80F     		.uleb128 .LEHB11-.LFB7113
 11700 004d 04       		.uleb128 .LEHE11-.LEHB11
 11701 004e 00       		.uleb128 0
 11702 004f 00       		.uleb128 0
 11703              	.LLSDACSE7113:
 11704              		.section	.text._ZN6tflite7testing31CreateQuantizedFlatbufferTensorEi
 11705              		.fnend
 11707              		.section	.text._ZN6tflite7testing41CreateMissingQuantizationFlatbufferTensorEi,"ax",%progbits
 11708              		.align	2
 11709              		.global	_ZN6tflite7testing41CreateMissingQuantizationFlatbufferTensorEi
 11710              		.syntax unified
 11711              		.arm
 11712              		.fpu neon
 11714              	_ZN6tflite7testing41CreateMissingQuantizationFlatbufferTensorEi:
 11715              		.fnstart
 11716              	.LFB7114:
 11717              		@ args = 0, pretend = 0, frame = 8
 11718              		@ frame_needed = 0, uses_anonymous_args = 0
 11719 0000 F0402DE9 		push	{r4, r5, r6, r7, lr}
 11720              		.save {r4, r5, r6, r7, lr}
 11721              		.pad #28
 11722 0004 1CD04DE2 		sub	sp, sp, #28
 11723 0008 0070A0E1 		mov	r7, r0
 11724 000c FEFFFFEB 		bl	_ZN6tflite7testing12_GLOBAL__N_115BuilderInstanceEv
 11725 0010 2620D0E5 		ldrb	r2, [r0, #38]	@ zero_extendqisi2
 11726 0014 203090E5 		ldr	r3, [r0, #32]
 11727 0018 000052E3 		cmp	r2, #0
 11728 001c DB00001A 		bne	.L2177
 11729 0020 000053E3 		cmp	r3, #0
 11730 0024 D800001A 		bne	.L2178
 11731 0028 0040A0E1 		mov	r4, r0
 11732 002c 2C00D0E5 		ldrb	r0, [r0, #44]	@ zero_extendqisi2
 11733 0030 183094E5 		ldr	r3, [r4, #24]
 11734 0034 0110A0E3 		mov	r1, #1
 11735 0038 142094E5 		ldr	r2, [r4, #20]
 11736 003c 105094E5 		ldr	r5, [r4, #16]
 11737 0040 000050E3 		cmp	r0, #0
 11738 0044 2610C4E5 		strb	r1, [r4, #38]
 11739 0048 023043E0 		sub	r3, r3, r2
 11740 004c 035045E0 		sub	r5, r5, r3
 11741 0050 5C00000A 		beq	.L2172
 11742 0054 283094E5 		ldr	r3, [r4, #40]
 11743 0058 006065E2 		rsb	r6, r5, #0
 11744 005c 036006E2 		and	r6, r6, #3
 11745 0060 0400A0E1 		mov	r0, r4
 11746 0064 0610A0E1 		mov	r1, r6
 11747 0068 030053E3 		cmp	r3, #3
 11748 006c 0430A093 		movls	r3, #4
 11749 0070 28308495 		strls	r3, [r4, #40]
 11750 0074 FEFFFFEB 		bl	_ZN11flatbuffers15vector_downward12ensure_spaceEj
 11751 0078 183094E5 		ldr	r3, [r4, #24]
 11752 007c 000056E3 		cmp	r6, #0
 11753 0080 000043E0 		sub	r0, r3, r0
 11754 0084 180084E5 		str	r0, [r4, #24]
 11755 0088 0800000A 		beq	.L2173
 11756 008c 010056E3 		cmp	r6, #1
 11757 0090 0030A0E3 		mov	r3, #0
 11758 0094 0030C0E5 		strb	r3, [r0]
 11759 0098 0400000A 		beq	.L2173
 11760 009c 182094E5 		ldr	r2, [r4, #24]
 11761 00a0 020056E3 		cmp	r6, #2
 11762 00a4 0130C2E5 		strb	r3, [r2, #1]
 11763 00a8 18209415 		ldrne	r2, [r4, #24]
 11764 00ac 0230C215 		strbne	r3, [r2, #2]
 11765              	.L2173:
 11766 00b0 0410A0E3 		mov	r1, #4
 11767 00b4 0400A0E1 		mov	r0, r4
 11768 00b8 FEFFFFEB 		bl	_ZN11flatbuffers15vector_downward12ensure_spaceEj
 11769 00bc 183094E5 		ldr	r3, [r4, #24]
 11770 00c0 00C0A0E3 		mov	ip, #0
 11771 00c4 142094E5 		ldr	r2, [r4, #20]
 11772 00c8 0810A0E3 		mov	r1, #8
 11773 00cc 106094E5 		ldr	r6, [r4, #16]
 11774 00d0 003043E0 		sub	r3, r3, r0
 11775 00d4 0400A0E1 		mov	r0, r4
 11776 00d8 022043E0 		sub	r2, r3, r2
 11777 00dc 183084E5 		str	r3, [r4, #24]
 11778 00e0 00C083E5 		str	ip, [r3]
 11779 00e4 026046E0 		sub	r6, r6, r2
 11780 00e8 FEFFFFEB 		bl	_ZN11flatbuffers15vector_downward12ensure_spaceEj
 11781 00ec 1C3094E5 		ldr	r3, [r4, #28]
 11782 00f0 10C0A0E3 		mov	ip, #16
 11783 00f4 202094E5 		ldr	r2, [r4, #32]
 11784 00f8 2C10D4E5 		ldrb	r1, [r4, #44]	@ zero_extendqisi2
 11785 00fc 080083E2 		add	r0, r3, #8
 11786 0100 006083E5 		str	r6, [r3]
 11787 0104 B4C0C3E1 		strh	ip, [r3, #4]	@ movhi
 11788 0108 012082E2 		add	r2, r2, #1
 11789 010c B432D4E1 		ldrh	r3, [r4, #36]
 11790 0110 1C0084E5 		str	r0, [r4, #28]
 11791 0114 202084E5 		str	r2, [r4, #32]
 11792 0118 0C0053E1 		cmp	r3, ip
 11793 011c 0C30A0B1 		movlt	r3, ip
 11794 0120 000051E3 		cmp	r1, #0
 11795 0124 B432C4E1 		strh	r3, [r4, #36]	@ movhi
 11796 0128 2600000A 		beq	.L2172
 11797 012c 283094E5 		ldr	r3, [r4, #40]
 11798 0130 0010A0E3 		mov	r1, #0
 11799 0134 0400A0E1 		mov	r0, r4
 11800 0138 000053E3 		cmp	r3, #0
 11801 013c 0130A003 		moveq	r3, #1
 11802 0140 28308405 		streq	r3, [r4, #40]
 11803 0144 FEFFFFEB 		bl	_ZN11flatbuffers15vector_downward12ensure_spaceEj
 11804 0148 183094E5 		ldr	r3, [r4, #24]
 11805 014c 0110A0E3 		mov	r1, #1
 11806 0150 003043E0 		sub	r3, r3, r0
 11807 0154 0400A0E1 		mov	r0, r4
 11808 0158 183084E5 		str	r3, [r4, #24]
 11809 015c FEFFFFEB 		bl	_ZN11flatbuffers15vector_downward12ensure_spaceEj
 11810 0160 183094E5 		ldr	r3, [r4, #24]
 11811 0164 0020A0E3 		mov	r2, #0
 11812 0168 0810A0E3 		mov	r1, #8
 11813 016c 003043E0 		sub	r3, r3, r0
 11814 0170 0400A0E1 		mov	r0, r4
 11815 0174 183084E5 		str	r3, [r4, #24]
 11816 0178 0020C3E5 		strb	r2, [r3]
 11817 017c 142094E5 		ldr	r2, [r4, #20]
 11818 0180 183094E5 		ldr	r3, [r4, #24]
 11819 0184 106094E5 		ldr	r6, [r4, #16]
 11820 0188 023043E0 		sub	r3, r3, r2
 11821 018c 036046E0 		sub	r6, r6, r3
 11822 0190 FEFFFFEB 		bl	_ZN11flatbuffers15vector_downward12ensure_spaceEj
 11823 0194 1C3094E5 		ldr	r3, [r4, #28]
 11824 0198 0C00A0E3 		mov	r0, #12
 11825 019c 202094E5 		ldr	r2, [r4, #32]
 11826 01a0 081083E2 		add	r1, r3, #8
 11827 01a4 006083E5 		str	r6, [r3]
 11828 01a8 B400C3E1 		strh	r0, [r3, #4]	@ movhi
 11829 01ac 012082E2 		add	r2, r2, #1
 11830 01b0 B432D4E1 		ldrh	r3, [r4, #36]
 11831 01b4 1C1084E5 		str	r1, [r4, #28]
 11832 01b8 202084E5 		str	r2, [r4, #32]
 11833 01bc 000053E1 		cmp	r3, r0
 11834 01c0 0030A0B1 		movlt	r3, r0
 11835 01c4 B432C4E1 		strh	r3, [r4, #36]	@ movhi
 11836              	.L2172:
 11837 01c8 0510A0E1 		mov	r1, r5
 11838 01cc 0400A0E1 		mov	r0, r4
 11839 01d0 FEFFFFEB 		bl	_ZN11flatbuffers17FlatBufferBuilder8EndTableEm
 11840 01d4 18508DE2 		add	r5, sp, #24
 11841 01d8 0060A0E1 		mov	r6, r0
 11842 01dc 0110A0E3 		mov	r1, #1
 11843 01e0 0400A0E1 		mov	r0, r4
 11844 01e4 047025E5 		str	r7, [r5, #-4]!
 11845 01e8 FEFFFFEB 		bl	_ZN11flatbuffers17FlatBufferBuilder11StartVectorEjj.constprop.148
 11846 01ec 0410A0E3 		mov	r1, #4
 11847 01f0 0400A0E1 		mov	r0, r4
 11848 01f4 FEFFFFEB 		bl	_ZN11flatbuffers15vector_downward12ensure_spaceEj
 11849 01f8 183094E5 		ldr	r3, [r4, #24]
 11850 01fc 0510A0E1 		mov	r1, r5
 11851 0200 0420A0E3 		mov	r2, #4
 11852 0204 000043E0 		sub	r0, r3, r0
 11853 0208 180084E5 		str	r0, [r4, #24]
 11854 020c FEFFFFEB 		bl	memcpy
 11855 0210 0110A0E3 		mov	r1, #1
 11856 0214 0400A0E1 		mov	r0, r4
 11857 0218 FEFFFFEB 		bl	_ZN11flatbuffers17FlatBufferBuilder9EndVectorEj
 11858 021c 001000E3 		movw	r1, #:lower16:.LC66
 11859 0220 0050A0E1 		mov	r5, r0
 11860 0224 0B20A0E3 		mov	r2, #11
 11861 0228 001040E3 		movt	r1, #:upper16:.LC66
 11862 022c 0400A0E1 		mov	r0, r4
 11863 0230 FEFFFFEB 		bl	_ZN11flatbuffers17FlatBufferBuilder12CreateStringEPKcj
 11864 0234 00C0A0E3 		mov	ip, #0
 11865 0238 0030A0E1 		mov	r3, r0
 11866 023c 0510A0E1 		mov	r1, r5
 11867 0240 00608DE5 		str	r6, [sp]
 11868 0244 0CC08DE5 		str	ip, [sp, #12]
 11869 0248 0C20A0E1 		mov	r2, ip
 11870 024c 08C08DE5 		str	ip, [sp, #8]
 11871 0250 0400A0E1 		mov	r0, r4
 11872 0254 04C08DE5 		str	ip, [sp, #4]
 11873 0258 FEFFFFEB 		bl	_ZN6tflite12CreateTensorERN11flatbuffers17FlatBufferBuilderENS0_6OffsetINS0_6VectorIlEEEENS_10T
 11874 025c 2630D4E5 		ldrb	r3, [r4, #38]	@ zero_extendqisi2
 11875 0260 0070A0E1 		mov	r7, r0
 11876 0264 205094E5 		ldr	r5, [r4, #32]
 11877 0268 000053E3 		cmp	r3, #0
 11878 026c 4700001A 		bne	.L2177
 11879 0270 000055E3 		cmp	r5, #0
 11880 0274 4400001A 		bne	.L2178
 11881 0278 142094E5 		ldr	r2, [r4, #20]
 11882 027c 0400A0E1 		mov	r0, r4
 11883 0280 186094E5 		ldr	r6, [r4, #24]
 11884 0284 101094E5 		ldr	r1, [r4, #16]
 11885 0288 283094E5 		ldr	r3, [r4, #40]
 11886 028c 026046E0 		sub	r6, r6, r2
 11887 0290 1C2084E5 		str	r2, [r4, #28]
 11888 0294 016046E0 		sub	r6, r6, r1
 11889 0298 013043E2 		sub	r3, r3, #1
 11890 029c 046046E2 		sub	r6, r6, #4
 11891 02a0 036006E0 		and	r6, r6, r3
 11892 02a4 0610A0E1 		mov	r1, r6
 11893 02a8 FEFFFFEB 		bl	_ZN11flatbuffers15vector_downward12ensure_spaceEj
 11894 02ac 183094E5 		ldr	r3, [r4, #24]
 11895 02b0 000056E3 		cmp	r6, #0
 11896 02b4 000043E0 		sub	r0, r3, r0
 11897 02b8 180084E5 		str	r0, [r4, #24]
 11898 02bc 0700000A 		beq	.L2179
 11899 02c0 0530A0E1 		mov	r3, r5
 11900 02c4 0520A0E1 		mov	r2, r5
 11901 02c8 000000EA 		b	.L2180
 11902              	.L2214:
 11903 02cc 180094E5 		ldr	r0, [r4, #24]
 11904              	.L2180:
 11905 02d0 0320C0E7 		strb	r2, [r0, r3]
 11906 02d4 013083E2 		add	r3, r3, #1
 11907 02d8 030056E1 		cmp	r6, r3
 11908 02dc FAFFFF1A 		bne	.L2214
 11909              	.L2179:
 11910 02e0 0710A0E1 		mov	r1, r7
 11911 02e4 0400A0E1 		mov	r0, r4
 11912 02e8 FEFFFFEB 		bl	_ZN11flatbuffers17FlatBufferBuilder7ReferToEm
 11913 02ec 283094E5 		ldr	r3, [r4, #40]
 11914 02f0 0060A0E1 		mov	r6, r0
 11915 02f4 185094E5 		ldr	r5, [r4, #24]
 11916 02f8 0400A0E1 		mov	r0, r4
 11917 02fc 142094E5 		ldr	r2, [r4, #20]
 11918 0300 030053E3 		cmp	r3, #3
 11919 0304 0430A093 		movls	r3, #4
 11920 0308 28308495 		strls	r3, [r4, #40]
 11921 030c 025045E0 		sub	r5, r5, r2
 11922 0310 103094E5 		ldr	r3, [r4, #16]
 11923 0314 035045E0 		sub	r5, r5, r3
 11924 0318 035005E2 		and	r5, r5, #3
 11925 031c 0510A0E1 		mov	r1, r5
 11926 0320 FEFFFFEB 		bl	_ZN11flatbuffers15vector_downward12ensure_spaceEj
 11927 0324 183094E5 		ldr	r3, [r4, #24]
 11928 0328 000055E3 		cmp	r5, #0
 11929 032c 000043E0 		sub	r0, r3, r0
 11930 0330 180084E5 		str	r0, [r4, #24]
 11931 0334 0800000A 		beq	.L2183
 11932 0338 010055E3 		cmp	r5, #1
 11933 033c 0030A0E3 		mov	r3, #0
 11934 0340 0030C0E5 		strb	r3, [r0]
 11935 0344 0400000A 		beq	.L2183
 11936 0348 182094E5 		ldr	r2, [r4, #24]
 11937 034c 020055E3 		cmp	r5, #2
 11938 0350 0130C2E5 		strb	r3, [r2, #1]
 11939 0354 18209415 		ldrne	r2, [r4, #24]
 11940 0358 0230C215 		strbne	r3, [r2, #2]
 11941              	.L2183:
 11942 035c 0410A0E3 		mov	r1, #4
 11943 0360 0400A0E1 		mov	r0, r4
 11944 0364 FEFFFFEB 		bl	_ZN11flatbuffers15vector_downward12ensure_spaceEj
 11945 0368 183094E5 		ldr	r3, [r4, #24]
 11946 036c 0120A0E3 		mov	r2, #1
 11947 0370 003043E0 		sub	r3, r3, r0
 11948 0374 0300A0E1 		mov	r0, r3
 11949 0378 183084E5 		str	r3, [r4, #24]
 11950 037c 066080E6 		str	r6, [r0], r6
 11951 0380 2720C4E5 		strb	r2, [r4, #39]
 11952 0384 1CD08DE2 		add	sp, sp, #28
 11953              		@ sp needed
 11954 0388 F080BDE8 		pop	{r4, r5, r6, r7, pc}
 11955              	.L2178:
 11956 038c FEFFFFEB 		bl	_ZN11flatbuffers17FlatBufferBuilder9NotNestedEv.isra.20.part.21
 11957              	.L2177:
 11958 0390 003000E3 		movw	r3, #:lower16:.LC24
 11959 0394 002000E3 		movw	r2, #:lower16:.LANCHOR11
 11960 0398 000000E3 		movw	r0, #:lower16:.LC19
 11961 039c 003040E3 		movt	r3, #:upper16:.LC24
 11962 03a0 002040E3 		movt	r2, #:upper16:.LANCHOR11
 11963 03a4 000040E3 		movt	r0, #:upper16:.LC19
 11964 03a8 481500E3 		movw	r1, #1352
 11965 03ac FEFFFFEB 		bl	__assert_func
 11966              		.fnend
 11968              		.section	.text._ZN6tflite7testing23CreateFlatbufferBuffersEv,"ax",%progbits
 11969              		.align	2
 11970              		.global	_ZN6tflite7testing23CreateFlatbufferBuffersEv
 11971              		.syntax unified
 11972              		.arm
 11973              		.fpu neon
 11975              	_ZN6tflite7testing23CreateFlatbufferBuffersEv:
 11976              		.fnstart
 11977              	.LFB7115:
 11978              		@ args = 0, pretend = 0, frame = 0
 11979              		@ frame_needed = 0, uses_anonymous_args = 0
 11980 0000 F0412DE9 		push	{r4, r5, r6, r7, r8, lr}
 11981              		.save {r4, r5, r6, r7, r8, lr}
 11982 0004 FEFFFFEB 		bl	_ZN6tflite7testing12_GLOBAL__N_115BuilderInstanceEv
 11983 0008 0010A0E3 		mov	r1, #0
 11984 000c 0040A0E1 		mov	r4, r0
 11985 0010 FEFFFFEB 		bl	_ZN6tflite12CreateBufferERN11flatbuffers17FlatBufferBuilderENS0_6OffsetINS0_6VectorIhEEEE
 11986 0014 0110A0E3 		mov	r1, #1
 11987 0018 0060A0E1 		mov	r6, r0
 11988 001c 0400A0E1 		mov	r0, r4
 11989 0020 FEFFFFEB 		bl	_ZN11flatbuffers17FlatBufferBuilder11StartVectorEjj.constprop.148
 11990 0024 283094E5 		ldr	r3, [r4, #40]
 11991 0028 0400A0E1 		mov	r0, r4
 11992 002c 185094E5 		ldr	r5, [r4, #24]
 11993 0030 142094E5 		ldr	r2, [r4, #20]
 11994 0034 030053E3 		cmp	r3, #3
 11995 0038 0430A093 		movls	r3, #4
 11996 003c 28308495 		strls	r3, [r4, #40]
 11997 0040 025045E0 		sub	r5, r5, r2
 11998 0044 103094E5 		ldr	r3, [r4, #16]
 11999 0048 035045E0 		sub	r5, r5, r3
 12000 004c 035005E2 		and	r5, r5, #3
 12001 0050 0510A0E1 		mov	r1, r5
 12002 0054 FEFFFFEB 		bl	_ZN11flatbuffers15vector_downward12ensure_spaceEj
 12003 0058 183094E5 		ldr	r3, [r4, #24]
 12004 005c 000055E3 		cmp	r5, #0
 12005 0060 000043E0 		sub	r0, r3, r0
 12006 0064 180084E5 		str	r0, [r4, #24]
 12007 0068 0800000A 		beq	.L2217
 12008 006c 010055E3 		cmp	r5, #1
 12009 0070 0030A0E3 		mov	r3, #0
 12010 0074 0030C0E5 		strb	r3, [r0]
 12011 0078 0400000A 		beq	.L2217
 12012 007c 182094E5 		ldr	r2, [r4, #24]
 12013 0080 020055E3 		cmp	r5, #2
 12014 0084 0130C2E5 		strb	r3, [r2, #1]
 12015 0088 18209415 		ldrne	r2, [r4, #24]
 12016 008c 0230C215 		strbne	r3, [r2, #2]
 12017              	.L2217:
 12018 0090 000056E3 		cmp	r6, #0
 12019 0094 7400000A 		beq	.L2218
 12020 0098 182094E5 		ldr	r2, [r4, #24]
 12021 009c 141094E5 		ldr	r1, [r4, #20]
 12022 00a0 103094E5 		ldr	r3, [r4, #16]
 12023 00a4 012042E0 		sub	r2, r2, r1
 12024 00a8 023043E0 		sub	r3, r3, r2
 12025 00ac 030056E1 		cmp	r6, r3
 12026 00b0 6D00008A 		bhi	.L2218
 12027 00b4 282094E5 		ldr	r2, [r4, #40]
 12028 00b8 046066E2 		rsb	r6, r6, #4
 12029 00bc 036086E0 		add	r6, r6, r3
 12030 00c0 003063E2 		rsb	r3, r3, #0
 12031 00c4 035003E2 		and	r5, r3, #3
 12032 00c8 0400A0E1 		mov	r0, r4
 12033 00cc 030052E3 		cmp	r2, #3
 12034 00d0 0510A0E1 		mov	r1, r5
 12035 00d4 0420A093 		movls	r2, #4
 12036 00d8 28208495 		strls	r2, [r4, #40]
 12037 00dc FEFFFFEB 		bl	_ZN11flatbuffers15vector_downward12ensure_spaceEj
 12038 00e0 183094E5 		ldr	r3, [r4, #24]
 12039 00e4 000055E3 		cmp	r5, #0
 12040 00e8 000043E0 		sub	r0, r3, r0
 12041 00ec 180084E5 		str	r0, [r4, #24]
 12042 00f0 0800000A 		beq	.L2220
 12043 00f4 010055E3 		cmp	r5, #1
 12044 00f8 0030A0E3 		mov	r3, #0
 12045 00fc 0030C0E5 		strb	r3, [r0]
 12046 0100 0400000A 		beq	.L2220
 12047 0104 182094E5 		ldr	r2, [r4, #24]
 12048 0108 020055E3 		cmp	r5, #2
 12049 010c 0130C2E5 		strb	r3, [r2, #1]
 12050 0110 18209415 		ldrne	r2, [r4, #24]
 12051 0114 0230C215 		strbne	r3, [r2, #2]
 12052              	.L2220:
 12053 0118 0410A0E3 		mov	r1, #4
 12054 011c 0400A0E1 		mov	r0, r4
 12055 0120 FEFFFFEB 		bl	_ZN11flatbuffers15vector_downward12ensure_spaceEj
 12056 0124 183094E5 		ldr	r3, [r4, #24]
 12057 0128 0110A0E3 		mov	r1, #1
 12058 012c 003043E0 		sub	r3, r3, r0
 12059 0130 0400A0E1 		mov	r0, r4
 12060 0134 183084E5 		str	r3, [r4, #24]
 12061 0138 006083E5 		str	r6, [r3]
 12062 013c FEFFFFEB 		bl	_ZN11flatbuffers17FlatBufferBuilder9EndVectorEj
 12063 0140 2630D4E5 		ldrb	r3, [r4, #38]	@ zero_extendqisi2
 12064 0144 0070A0E1 		mov	r7, r0
 12065 0148 205094E5 		ldr	r5, [r4, #32]
 12066 014c 000053E3 		cmp	r3, #0
 12067 0150 4E00001A 		bne	.L2266
 12068 0154 000055E3 		cmp	r5, #0
 12069 0158 4B00001A 		bne	.L2267
 12070 015c 142094E5 		ldr	r2, [r4, #20]
 12071 0160 0400A0E1 		mov	r0, r4
 12072 0164 186094E5 		ldr	r6, [r4, #24]
 12073 0168 101094E5 		ldr	r1, [r4, #16]
 12074 016c 283094E5 		ldr	r3, [r4, #40]
 12075 0170 026046E0 		sub	r6, r6, r2
 12076 0174 1C2084E5 		str	r2, [r4, #28]
 12077 0178 016046E0 		sub	r6, r6, r1
 12078 017c 013043E2 		sub	r3, r3, #1
 12079 0180 046046E2 		sub	r6, r6, #4
 12080 0184 036006E0 		and	r6, r6, r3
 12081 0188 0610A0E1 		mov	r1, r6
 12082 018c FEFFFFEB 		bl	_ZN11flatbuffers15vector_downward12ensure_spaceEj
 12083 0190 183094E5 		ldr	r3, [r4, #24]
 12084 0194 000056E3 		cmp	r6, #0
 12085 0198 000043E0 		sub	r0, r3, r0
 12086 019c 180084E5 		str	r0, [r4, #24]
 12087 01a0 0700000A 		beq	.L2224
 12088 01a4 0530A0E1 		mov	r3, r5
 12089 01a8 0520A0E1 		mov	r2, r5
 12090 01ac 000000EA 		b	.L2225
 12091              	.L2268:
 12092 01b0 180094E5 		ldr	r0, [r4, #24]
 12093              	.L2225:
 12094 01b4 0320C0E7 		strb	r2, [r0, r3]
 12095 01b8 013083E2 		add	r3, r3, #1
 12096 01bc 030056E1 		cmp	r6, r3
 12097 01c0 FAFFFF1A 		bne	.L2268
 12098              	.L2224:
 12099 01c4 0710A0E1 		mov	r1, r7
 12100 01c8 0400A0E1 		mov	r0, r4
 12101 01cc FEFFFFEB 		bl	_ZN11flatbuffers17FlatBufferBuilder7ReferToEm
 12102 01d0 283094E5 		ldr	r3, [r4, #40]
 12103 01d4 0060A0E1 		mov	r6, r0
 12104 01d8 185094E5 		ldr	r5, [r4, #24]
 12105 01dc 0400A0E1 		mov	r0, r4
 12106 01e0 142094E5 		ldr	r2, [r4, #20]
 12107 01e4 030053E3 		cmp	r3, #3
 12108 01e8 0430A093 		movls	r3, #4
 12109 01ec 28308495 		strls	r3, [r4, #40]
 12110 01f0 025045E0 		sub	r5, r5, r2
 12111 01f4 103094E5 		ldr	r3, [r4, #16]
 12112 01f8 035045E0 		sub	r5, r5, r3
 12113 01fc 035005E2 		and	r5, r5, #3
 12114 0200 0510A0E1 		mov	r1, r5
 12115 0204 FEFFFFEB 		bl	_ZN11flatbuffers15vector_downward12ensure_spaceEj
 12116 0208 183094E5 		ldr	r3, [r4, #24]
 12117 020c 000055E3 		cmp	r5, #0
 12118 0210 000043E0 		sub	r0, r3, r0
 12119 0214 180084E5 		str	r0, [r4, #24]
 12120 0218 0800000A 		beq	.L2228
 12121 021c 010055E3 		cmp	r5, #1
 12122 0220 0030A0E3 		mov	r3, #0
 12123 0224 0030C0E5 		strb	r3, [r0]
 12124 0228 0400000A 		beq	.L2228
 12125 022c 182094E5 		ldr	r2, [r4, #24]
 12126 0230 020055E3 		cmp	r5, #2
 12127 0234 0130C2E5 		strb	r3, [r2, #1]
 12128 0238 18209415 		ldrne	r2, [r4, #24]
 12129 023c 0230C215 		strbne	r3, [r2, #2]
 12130              	.L2228:
 12131 0240 0410A0E3 		mov	r1, #4
 12132 0244 0400A0E1 		mov	r0, r4
 12133 0248 FEFFFFEB 		bl	_ZN11flatbuffers15vector_downward12ensure_spaceEj
 12134 024c 183094E5 		ldr	r3, [r4, #24]
 12135 0250 0120A0E3 		mov	r2, #1
 12136 0254 003043E0 		sub	r3, r3, r0
 12137 0258 0300A0E1 		mov	r0, r3
 12138 025c 183084E5 		str	r3, [r4, #24]
 12139 0260 066080E6 		str	r6, [r0], r6
 12140 0264 2720C4E5 		strb	r2, [r4, #39]
 12141 0268 F081BDE8 		pop	{r4, r5, r6, r7, r8, pc}
 12142              	.L2218:
 12143 026c 003000E3 		movw	r3, #:lower16:.LC25
 12144 0270 002000E3 		movw	r2, #:lower16:.LANCHOR13
 12145 0274 000000E3 		movw	r0, #:lower16:.LC19
 12146 0278 003040E3 		movt	r3, #:upper16:.LC25
 12147 027c 002040E3 		movt	r2, #:upper16:.LANCHOR13
 12148 0280 000040E3 		movt	r0, #:upper16:.LC19
 12149 0284 3B1500E3 		movw	r1, #1339
 12150 0288 FEFFFFEB 		bl	__assert_func
 12151              	.L2267:
 12152 028c FEFFFFEB 		bl	_ZN11flatbuffers17FlatBufferBuilder9NotNestedEv.isra.20.part.21
 12153              	.L2266:
 12154 0290 003000E3 		movw	r3, #:lower16:.LC24
 12155 0294 002000E3 		movw	r2, #:lower16:.LANCHOR11
 12156 0298 000000E3 		movw	r0, #:lower16:.LC19
 12157 029c 003040E3 		movt	r3, #:upper16:.LC24
 12158 02a0 002040E3 		movt	r2, #:upper16:.LANCHOR11
 12159 02a4 000040E3 		movt	r0, #:upper16:.LC19
 12160 02a8 481500E3 		movw	r1, #1352
 12161 02ac FEFFFFEB 		bl	__assert_func
 12162              		.fnend
 12164              		.section	.text._ZN6tflite7testing10TestStrcmpEPKcS2_,"ax",%progbits
 12165              		.align	2
 12166              		.global	_ZN6tflite7testing10TestStrcmpEPKcS2_
 12167              		.syntax unified
 12168              		.arm
 12169              		.fpu neon
 12171              	_ZN6tflite7testing10TestStrcmpEPKcS2_:
 12172              		.fnstart
 12173              	.LFB7116:
 12174              		@ args = 0, pretend = 0, frame = 0
 12175              		@ frame_needed = 0, uses_anonymous_args = 0
 12176              		@ link register save eliminated.
 12177 0000 000051E3 		cmp	r1, #0
 12178 0004 00005013 		cmpne	r0, #0
 12179 0008 0F00000A 		beq	.L2276
 12180 000c 0030D0E5 		ldrb	r3, [r0]	@ zero_extendqisi2
 12181 0010 0020D1E5 		ldrb	r2, [r1]	@ zero_extendqisi2
 12182 0014 000053E3 		cmp	r3, #0
 12183 0018 0900000A 		beq	.L2272
 12184 001c 030052E1 		cmp	r2, r3
 12185 0020 0300000A 		beq	.L2274
 12186 0024 060000EA 		b	.L2272
 12187              	.L2275:
 12188 0028 0120F1E5 		ldrb	r2, [r1, #1]!	@ zero_extendqisi2
 12189 002c 020053E1 		cmp	r3, r2
 12190 0030 0300001A 		bne	.L2272
 12191              	.L2274:
 12192 0034 0130F0E5 		ldrb	r3, [r0, #1]!	@ zero_extendqisi2
 12193 0038 000053E3 		cmp	r3, #0
 12194 003c F9FFFF1A 		bne	.L2275
 12195 0040 0120D1E5 		ldrb	r2, [r1, #1]	@ zero_extendqisi2
 12196              	.L2272:
 12197 0044 020043E0 		sub	r0, r3, r2
 12198 0048 1EFF2FE1 		bx	lr
 12199              	.L2276:
 12200 004c 0000E0E3 		mvn	r0, #0
 12201 0050 1EFF2FE1 		bx	lr
 12202              		.cantunwind
 12203              		.fnend
 12205              		.section	.text._ZN6tflite7testing13ReportOpErrorEP13TfLiteContextPKcz,"ax",%progbits
 12206              		.align	2
 12207              		.global	_ZN6tflite7testing13ReportOpErrorEP13TfLiteContextPKcz
 12208              		.syntax unified
 12209              		.arm
 12210              		.fpu neon
 12212              	_ZN6tflite7testing13ReportOpErrorEP13TfLiteContextPKcz:
 12213              		.fnstart
 12214              	.LFB7117:
 12215              		@ args = 4, pretend = 12, frame = 0
 12216              		@ frame_needed = 0, uses_anonymous_args = 1
 12217              		@ link register save eliminated.
 12218 0000 0E002DE9 		push	{r1, r2, r3}
 12219 0004 0CD08DE2 		add	sp, sp, #12
 12220 0008 1EFF2FE1 		bx	lr
 12221              		.cantunwind
 12222              		.fnend
 12224              		.section	.text._ZN6tflite7testing16IntArrayFromIntsEPi,"ax",%progbits
 12225              		.align	2
 12226              		.global	_ZN6tflite7testing16IntArrayFromIntsEPi
 12227              		.syntax unified
 12228              		.arm
 12229              		.fpu neon
 12231              	_ZN6tflite7testing16IntArrayFromIntsEPi:
 12232              		.fnstart
 12233              	.LFB7118:
 12234              		@ args = 0, pretend = 0, frame = 0
 12235              		@ frame_needed = 0, uses_anonymous_args = 0
 12236              		@ link register save eliminated.
 12237 0000 1EFF2FE1 		bx	lr
 12238              		.cantunwind
 12239              		.fnend
 12241              		.section	.text._ZN6tflite7testing20FloatArrayFromFloatsEPKf,"ax",%progbits
 12242              		.align	2
 12243              		.global	_ZN6tflite7testing20FloatArrayFromFloatsEPKf
 12244              		.syntax unified
 12245              		.arm
 12246              		.fpu neon
 12248              	_ZN6tflite7testing20FloatArrayFromFloatsEPKf:
 12249              		.fnstart
 12250              	.LFB7119:
 12251              		@ args = 0, pretend = 0, frame = 0
 12252              		@ frame_needed = 0, uses_anonymous_args = 0
 12253              		@ link register save eliminated.
 12254 0000 007AD0ED 		vldr.32	s15, [r0]
 12255 0004 E77AFDEE 		vcvt.s32.f32	s15, s15
 12256 0008 007AC0ED 		vstr.32	s15, [r0]	@ int
 12257 000c 1EFF2FE1 		bx	lr
 12258              		.cantunwind
 12259              		.fnend
 12261              		.section	.text._ZN6tflite7testing25CreateQuantizedBiasTensorEPKfPlP14TfLiteIntArrayffb,"ax",%progb
 12262              		.align	2
 12263              		.global	_ZN6tflite7testing25CreateQuantizedBiasTensorEPKfPlP14TfLiteIntArrayffb
 12264              		.syntax unified
 12265              		.arm
 12266              		.fpu neon
 12268              	_ZN6tflite7testing25CreateQuantizedBiasTensorEPKfPlP14TfLiteIntArrayffb:
 12269              		.fnstart
 12270              	.LFB7120:
 12271              		@ args = 4, pretend = 0, frame = 8
 12272              		@ frame_needed = 0, uses_anonymous_args = 0
 12273 0000 F04F2DE9 		push	{r4, r5, r6, r7, r8, r9, r10, fp, lr}
 12274              		.save {r4, r5, r6, r7, r8, r9, r10, fp, lr}
 12275 0004 0390A0E1 		mov	r9, r3
 12276 0008 028B2DED 		vpush.64	{d8}
 12277              		.vsave {d8}
 12278              		.pad #12
 12279 000c 0CD04DE2 		sub	sp, sp, #12
 12280 0010 0060A0E1 		mov	r6, r0
 12281 0014 0300A0E1 		mov	r0, r3
 12282 0018 3830DDE5 		ldrb	r3, [sp, #56]	@ zero_extendqisi2
 12283 001c 02A0A0E1 		mov	r10, r2
 12284 0020 00108DE5 		str	r1, [sp]
 12285 0024 208A20EE 		vmul.f32	s16, s0, s1
 12286 0028 04308DE5 		str	r3, [sp, #4]
 12287 002c FEFFFFEB 		bl	_ZN6tflite12ElementCountERK14TfLiteIntArray
 12288 0030 007050E2 		subs	r7, r0, #0
 12289 0034 670000DA 		ble	.L2286
 12290 0038 080057E3 		cmp	r7, #8
 12291 003c 7B0000DA 		ble	.L2288
 12292 0040 00309DE5 		ldr	r3, [sp]
 12293 0044 098047E2 		sub	r8, r7, #9
 12294 0048 0780C8E3 		bic	r8, r8, #7
 12295 004c 18408AE2 		add	r4, r10, #24
 12296 0050 088088E2 		add	r8, r8, #8
 12297 0054 00B0A0E3 		mov	fp, #0
 12298 0058 185083E2 		add	r5, r3, #24
 12299              	.L2285:
 12300 005c 067A55ED 		vldr.32	s15, [r5, #-24]
 12301 0060 08B08BE2 		add	fp, fp, #8
 12302 0064 00F0D5F5 		pld	[r5]
 12303 0068 205085E2 		add	r5, r5, #32
 12304 006c 00F0D4F5 		pld	[r4]
 12305 0070 204084E2 		add	r4, r4, #32
 12306 0074 880A87EE 		vdiv.f32	s0, s15, s16
 12307 0078 C00AB7EE 		vcvt.f64.f32	d0, s0
 12308 007c FEFFFFEB 		bl	round
 12309 0080 0D7A55ED 		vldr.32	s15, [r5, #-52]
 12310 0084 C07BBDEE 		vcvt.s32.f64	s14, d0
 12311 0088 880A87EE 		vdiv.f32	s0, s15, s16
 12312 008c 101A17EE 		vmov	r1, s14	@ int
 12313 0090 060151E3 		cmp	r1, #-2147483647
 12314 0094 0611A0B3 		movlt	r1, #-2147483647
 12315 0098 381004E5 		str	r1, [r4, #-56]
 12316 009c C00AB7EE 		vcvt.f64.f32	d0, s0
 12317 00a0 FEFFFFEB 		bl	round
 12318 00a4 0C7A55ED 		vldr.32	s15, [r5, #-48]
 12319 00a8 C07BBDEE 		vcvt.s32.f64	s14, d0
 12320 00ac 880A87EE 		vdiv.f32	s0, s15, s16
 12321 00b0 101A17EE 		vmov	r1, s14	@ int
 12322 00b4 060151E3 		cmp	r1, #-2147483647
 12323 00b8 0611A0B3 		movlt	r1, #-2147483647
 12324 00bc 341004E5 		str	r1, [r4, #-52]
 12325 00c0 C00AB7EE 		vcvt.f64.f32	d0, s0
 12326 00c4 FEFFFFEB 		bl	round
 12327 00c8 0B7A55ED 		vldr.32	s15, [r5, #-44]
 12328 00cc C07BBDEE 		vcvt.s32.f64	s14, d0
 12329 00d0 880A87EE 		vdiv.f32	s0, s15, s16
 12330 00d4 101A17EE 		vmov	r1, s14	@ int
 12331 00d8 060151E3 		cmp	r1, #-2147483647
 12332 00dc 0611A0B3 		movlt	r1, #-2147483647
 12333 00e0 301004E5 		str	r1, [r4, #-48]
 12334 00e4 C00AB7EE 		vcvt.f64.f32	d0, s0
 12335 00e8 FEFFFFEB 		bl	round
 12336 00ec 0A7A55ED 		vldr.32	s15, [r5, #-40]
 12337 00f0 C07BBDEE 		vcvt.s32.f64	s14, d0
 12338 00f4 880A87EE 		vdiv.f32	s0, s15, s16
 12339 00f8 101A17EE 		vmov	r1, s14	@ int
 12340 00fc 060151E3 		cmp	r1, #-2147483647
 12341 0100 0611A0B3 		movlt	r1, #-2147483647
 12342 0104 2C1004E5 		str	r1, [r4, #-44]
 12343 0108 C00AB7EE 		vcvt.f64.f32	d0, s0
 12344 010c FEFFFFEB 		bl	round
 12345 0110 097A55ED 		vldr.32	s15, [r5, #-36]
 12346 0114 C07BBDEE 		vcvt.s32.f64	s14, d0
 12347 0118 880A87EE 		vdiv.f32	s0, s15, s16
 12348 011c 101A17EE 		vmov	r1, s14	@ int
 12349 0120 060151E3 		cmp	r1, #-2147483647
 12350 0124 0611A0B3 		movlt	r1, #-2147483647
 12351 0128 281004E5 		str	r1, [r4, #-40]
 12352 012c C00AB7EE 		vcvt.f64.f32	d0, s0
 12353 0130 FEFFFFEB 		bl	round
 12354 0134 087A55ED 		vldr.32	s15, [r5, #-32]
 12355 0138 C07BBDEE 		vcvt.s32.f64	s14, d0
 12356 013c 880A87EE 		vdiv.f32	s0, s15, s16
 12357 0140 101A17EE 		vmov	r1, s14	@ int
 12358 0144 060151E3 		cmp	r1, #-2147483647
 12359 0148 0611A0B3 		movlt	r1, #-2147483647
 12360 014c 241004E5 		str	r1, [r4, #-36]
 12361 0150 C00AB7EE 		vcvt.f64.f32	d0, s0
 12362 0154 FEFFFFEB 		bl	round
 12363 0158 077A55ED 		vldr.32	s15, [r5, #-28]
 12364 015c C07BBDEE 		vcvt.s32.f64	s14, d0
 12365 0160 880A87EE 		vdiv.f32	s0, s15, s16
 12366 0164 101A17EE 		vmov	r1, s14	@ int
 12367 0168 060151E3 		cmp	r1, #-2147483647
 12368 016c 0611A0B3 		movlt	r1, #-2147483647
 12369 0170 201004E5 		str	r1, [r4, #-32]
 12370 0174 C00AB7EE 		vcvt.f64.f32	d0, s0
 12371 0178 FEFFFFEB 		bl	round
 12372 017c C07BFDEE 		vcvt.s32.f64	s15, d0
 12373 0180 901A17EE 		vmov	r1, s15	@ int
 12374 0184 060151E3 		cmp	r1, #-2147483647
 12375 0188 0611A0B3 		movlt	r1, #-2147483647
 12376 018c 08005BE1 		cmp	fp, r8
 12377 0190 1C1004E5 		str	r1, [r4, #-28]
 12378 0194 B0FFFF1A 		bne	.L2285
 12379              	.L2284:
 12380 0198 00309DE5 		ldr	r3, [sp]
 12381 019c 0B41A0E1 		lsl	r4, fp, #2
 12382 01a0 045083E0 		add	r5, r3, r4
 12383 01a4 04408AE0 		add	r4, r10, r4
 12384              	.L2287:
 12385 01a8 017AF5EC 		vldmia.32	r5!, {s15}
 12386 01ac 01B08BE2 		add	fp, fp, #1
 12387 01b0 880A87EE 		vdiv.f32	s0, s15, s16
 12388 01b4 C00AB7EE 		vcvt.f64.f32	d0, s0
 12389 01b8 FEFFFFEB 		bl	round
 12390 01bc C07BFDEE 		vcvt.s32.f64	s15, d0
 12391 01c0 903A17EE 		vmov	r3, s15	@ int
 12392 01c4 060153E3 		cmp	r3, #-2147483647
 12393 01c8 0631A0B3 		movlt	r3, #-2147483647
 12394 01cc 0B0057E1 		cmp	r7, fp
 12395 01d0 043084E4 		str	r3, [r4], #4
 12396 01d4 F3FFFFCA 		bgt	.L2287
 12397              	.L2286:
 12398 01d8 04E0DDE5 		ldrb	lr, [sp, #4]	@ zero_extendqisi2
 12399 01dc 0030A0E3 		mov	r3, #0
 12400 01e0 02C0A0E3 		mov	ip, #2
 12401 01e4 0110A0E3 		mov	r1, #1
 12402 01e8 089086E5 		str	r9, [r6, #8]
 12403 01ec 0900A0E1 		mov	r0, r9
 12404 01f0 2DE0C6E5 		strb	lr, [r6, #45]
 12405 01f4 04A086E5 		str	r10, [r6, #4]
 12406 01f8 103086E5 		str	r3, [r6, #16]
 12407 01fc 0C3086E5 		str	r3, [r6, #12]
 12408 0200 343086E5 		str	r3, [r6, #52]
 12409 0204 1430C6E5 		strb	r3, [r6, #20]
 12410 0208 00C0C6E5 		strb	ip, [r6]
 12411 020c 3010C6E5 		strb	r1, [r6, #48]
 12412 0210 FEFFFFEB 		bl	_ZN6tflite12ElementCountERK14TfLiteIntArray
 12413 0214 0001A0E1 		lsl	r0, r0, #2
 12414 0218 038A86ED 		vstr.32	s16, [r6, #12]
 12415 021c 180086E5 		str	r0, [r6, #24]
 12416 0220 0600A0E1 		mov	r0, r6
 12417 0224 0CD08DE2 		add	sp, sp, #12
 12418              		@ sp needed
 12419 0228 028BBDEC 		vldm	sp!, {d8}
 12420 022c F08FBDE8 		pop	{r4, r5, r6, r7, r8, r9, r10, fp, pc}
 12421              	.L2288:
 12422 0230 00B0A0E3 		mov	fp, #0
 12423 0234 D7FFFFEA 		b	.L2284
 12424              		.fnend
 12426              		.global	__aeabi_idiv
 12427              		.section	.text._ZN6tflite7testing35CreatePerChannelQuantizedBiasTensorEPKfPlP14TfLiteIntArrayfPfS6
 12428              		.align	2
 12429              		.global	_ZN6tflite7testing35CreatePerChannelQuantizedBiasTensorEPKfPlP14TfLiteIntArrayfPfS6_PiP24T
 12430              		.syntax unified
 12431              		.arm
 12432              		.fpu neon
 12434              	_ZN6tflite7testing35CreatePerChannelQuantizedBiasTensorEPKfPlP14TfLiteIntArrayfPfS6_PiP24TfLiteAffi
 12435              		.fnstart
 12436              	.LFB7121:
 12437              		@ args = 24, pretend = 0, frame = 32
 12438              		@ frame_needed = 0, uses_anonymous_args = 0
 12439 0000 F04F2DE9 		push	{r4, r5, r6, r7, r8, r9, r10, fp, lr}
 12440              		.save {r4, r5, r6, r7, r8, r9, r10, fp, lr}
 12441 0004 0340A0E1 		mov	r4, r3
 12442 0008 028B2DED 		vpush.64	{d8}
 12443              		.vsave {d8}
 12444              		.pad #36
 12445 000c 24D04DE2 		sub	sp, sp, #36
 12446 0010 18308DE5 		str	r3, [sp, #24]
 12447 0014 14008DE5 		str	r0, [sp, #20]
 12448 0018 0300A0E1 		mov	r0, r3
 12449 001c 6430DDE5 		ldrb	r3, [sp, #100]	@ zero_extendqisi2
 12450 0020 04208DE5 		str	r2, [sp, #4]
 12451 0024 08108DE5 		str	r1, [sp, #8]
 12452 0028 1C308DE5 		str	r3, [sp, #28]
 12453 002c 408AB0EE 		vmov.f32	s16, s0
 12454 0030 50609DE5 		ldr	r6, [sp, #80]
 12455 0034 FEFFFFEB 		bl	_ZN6tflite12ElementCountERK14TfLiteIntArray
 12456 0038 60209DE5 		ldr	r2, [sp, #96]
 12457 003c 023184E0 		add	r3, r4, r2, lsl #2
 12458 0040 044093E5 		ldr	r4, [r3, #4]
 12459 0044 58309DE5 		ldr	r3, [sp, #88]
 12460 0048 000054E3 		cmp	r4, #0
 12461 004c 904A07EE 		vmov	s15, r4	@ int
 12462 0050 004083E5 		str	r4, [r3]
 12463 0054 E77AF8EE 		vcvt.f32.s32	s15, s15
 12464 0058 54309DE5 		ldr	r3, [sp, #84]
 12465 005c 007AC3ED 		vstr.32	s15, [r3]
 12466 0060 C70000DA 		ble	.L2293
 12467 0064 080054E3 		cmp	r4, #8
 12468 0068 EA0000DA 		ble	.L2305
 12469 006c 095044E2 		sub	r5, r4, #9
 12470 0070 58C09DE5 		ldr	ip, [sp, #88]
 12471 0074 0010A0E3 		mov	r1, #0
 12472 0078 0750C5E3 		bic	r5, r5, #7
 12473 007c 01E0A0E1 		mov	lr, r1
 12474 0080 085085E2 		add	r5, r5, #8
 12475 0084 402086E2 		add	r2, r6, #64
 12476 0088 443083E2 		add	r3, r3, #68
 12477              	.L2295:
 12478 008c 107A52ED 		vldr.32	s15, [r2, #-64]
 12479 0090 081081E2 		add	r1, r1, #8
 12480 0094 00F0D2F5 		pld	[r2]
 12481 0098 050051E1 		cmp	r1, r5
 12482 009c 00F0D3F5 		pld	[r3]
 12483 00a0 202082E2 		add	r2, r2, #32
 12484 00a4 203083E2 		add	r3, r3, #32
 12485 00a8 887A67EE 		vmul.f32	s15, s15, s16
 12486 00ac 187A43ED 		vstr.32	s15, [r3, #-96]
 12487 00b0 177A52ED 		vldr.32	s15, [r2, #-92]
 12488 00b4 04E08CE5 		str	lr, [ip, #4]
 12489 00b8 887A67EE 		vmul.f32	s15, s15, s16
 12490 00bc 177A43ED 		vstr.32	s15, [r3, #-92]
 12491 00c0 167A52ED 		vldr.32	s15, [r2, #-88]
 12492 00c4 08E08CE5 		str	lr, [ip, #8]
 12493 00c8 887A67EE 		vmul.f32	s15, s15, s16
 12494 00cc 167A43ED 		vstr.32	s15, [r3, #-88]
 12495 00d0 157A52ED 		vldr.32	s15, [r2, #-84]
 12496 00d4 0CE08CE5 		str	lr, [ip, #12]
 12497 00d8 887A67EE 		vmul.f32	s15, s15, s16
 12498 00dc 157A43ED 		vstr.32	s15, [r3, #-84]
 12499 00e0 147A52ED 		vldr.32	s15, [r2, #-80]
 12500 00e4 10E08CE5 		str	lr, [ip, #16]
 12501 00e8 887A67EE 		vmul.f32	s15, s15, s16
 12502 00ec 147A43ED 		vstr.32	s15, [r3, #-80]
 12503 00f0 137A52ED 		vldr.32	s15, [r2, #-76]
 12504 00f4 14E08CE5 		str	lr, [ip, #20]
 12505 00f8 887A67EE 		vmul.f32	s15, s15, s16
 12506 00fc 137A43ED 		vstr.32	s15, [r3, #-76]
 12507 0100 127A52ED 		vldr.32	s15, [r2, #-72]
 12508 0104 18E08CE5 		str	lr, [ip, #24]
 12509 0108 887A67EE 		vmul.f32	s15, s15, s16
 12510 010c 127A43ED 		vstr.32	s15, [r3, #-72]
 12511 0110 117A52ED 		vldr.32	s15, [r2, #-68]
 12512 0114 1CE08CE5 		str	lr, [ip, #28]
 12513 0118 887A67EE 		vmul.f32	s15, s15, s16
 12514 011c 117A43ED 		vstr.32	s15, [r3, #-68]
 12515 0120 20E0ACE5 		str	lr, [ip, #32]!
 12516 0124 D8FFFF1A 		bne	.L2295
 12517 0128 54509DE5 		ldr	r5, [sp, #84]
 12518              	.L2294:
 12519 012c 0131A0E1 		lsl	r3, r1, #2
 12520 0130 00E0A0E3 		mov	lr, #0
 12521 0134 042083E2 		add	r2, r3, #4
 12522 0138 03C086E0 		add	ip, r6, r3
 12523 013c 022085E0 		add	r2, r5, r2
 12524 0140 58509DE5 		ldr	r5, [sp, #88]
 12525 0144 033085E0 		add	r3, r5, r3
 12526              	.L2297:
 12527 0148 017AFCEC 		vldmia.32	ip!, {s15}
 12528 014c 011081E2 		add	r1, r1, #1
 12529 0150 010054E1 		cmp	r4, r1
 12530 0154 277A68EE 		vmul.f32	s15, s16, s15
 12531 0158 017AE2EC 		vstmia.32	r2!, {s15}
 12532 015c 04E0A3E5 		str	lr, [r3, #4]!
 12533 0160 F8FFFFCA 		bgt	.L2297
 12534 0164 0410A0E1 		mov	r1, r4
 12535 0168 FEFFFFEB 		bl	__aeabi_idiv
 12536 016c 005050E2 		subs	r5, r0, #0
 12537 0170 810000DA 		ble	.L2300
 12538 0174 013084E2 		add	r3, r4, #1
 12539 0178 096045E2 		sub	r6, r5, #9
 12540 017c 10308DE5 		str	r3, [sp, #16]
 12541 0180 0531A0E1 		lsl	r3, r5, #2
 12542 0184 0760C6E3 		bic	r6, r6, #7
 12543 0188 0C308DE5 		str	r3, [sp, #12]
 12544 018c 086086E2 		add	r6, r6, #8
 12545 0190 08309DE5 		ldr	r3, [sp, #8]
 12546 0194 0080A0E3 		mov	r8, #0
 12547 0198 0170A0E3 		mov	r7, #1
 12548 019c 18A083E2 		add	r10, r3, #24
 12549 01a0 04309DE5 		ldr	r3, [sp, #4]
 12550 01a4 183083E2 		add	r3, r3, #24
 12551 01a8 00308DE5 		str	r3, [sp]
 12552              	.L2301:
 12553 01ac 54309DE5 		ldr	r3, [sp, #84]
 12554 01b0 080055E3 		cmp	r5, #8
 12555 01b4 0090A0D3 		movle	r9, #0
 12556 01b8 073183E0 		add	r3, r3, r7, lsl #2
 12557 01bc 008A93ED 		vldr.32	s16, [r3]
 12558 01c0 510000DA 		ble	.L2299
 12559 01c4 00409DE5 		ldr	r4, [sp]
 12560 01c8 0AB0A0E1 		mov	fp, r10
 12561 01cc 0090A0E3 		mov	r9, #0
 12562              	.L2302:
 12563 01d0 067A5BED 		vldr.32	s15, [fp, #-24]
 12564 01d4 089089E2 		add	r9, r9, #8
 12565 01d8 00F0DBF5 		pld	[fp]
 12566 01dc 20B08BE2 		add	fp, fp, #32
 12567 01e0 00F0D4F5 		pld	[r4]
 12568 01e4 204084E2 		add	r4, r4, #32
 12569 01e8 880A87EE 		vdiv.f32	s0, s15, s16
 12570 01ec C00AB7EE 		vcvt.f64.f32	d0, s0
 12571 01f0 FEFFFFEB 		bl	round
 12572 01f4 0D7A5BED 		vldr.32	s15, [fp, #-52]
 12573 01f8 C07BBDEE 		vcvt.s32.f64	s14, d0
 12574 01fc 880A87EE 		vdiv.f32	s0, s15, s16
 12575 0200 103A17EE 		vmov	r3, s14	@ int
 12576 0204 060153E3 		cmp	r3, #-2147483647
 12577 0208 0631A0B3 		movlt	r3, #-2147483647
 12578 020c 383004E5 		str	r3, [r4, #-56]
 12579 0210 C00AB7EE 		vcvt.f64.f32	d0, s0
 12580 0214 FEFFFFEB 		bl	round
 12581 0218 0C7A5BED 		vldr.32	s15, [fp, #-48]
 12582 021c C07BBDEE 		vcvt.s32.f64	s14, d0
 12583 0220 880A87EE 		vdiv.f32	s0, s15, s16
 12584 0224 103A17EE 		vmov	r3, s14	@ int
 12585 0228 060153E3 		cmp	r3, #-2147483647
 12586 022c 0631A0B3 		movlt	r3, #-2147483647
 12587 0230 343004E5 		str	r3, [r4, #-52]
 12588 0234 C00AB7EE 		vcvt.f64.f32	d0, s0
 12589 0238 FEFFFFEB 		bl	round
 12590 023c 0B7A5BED 		vldr.32	s15, [fp, #-44]
 12591 0240 C07BBDEE 		vcvt.s32.f64	s14, d0
 12592 0244 880A87EE 		vdiv.f32	s0, s15, s16
 12593 0248 103A17EE 		vmov	r3, s14	@ int
 12594 024c 060153E3 		cmp	r3, #-2147483647
 12595 0250 0631A0B3 		movlt	r3, #-2147483647
 12596 0254 303004E5 		str	r3, [r4, #-48]
 12597 0258 C00AB7EE 		vcvt.f64.f32	d0, s0
 12598 025c FEFFFFEB 		bl	round
 12599 0260 0A7A5BED 		vldr.32	s15, [fp, #-40]
 12600 0264 C07BBDEE 		vcvt.s32.f64	s14, d0
 12601 0268 880A87EE 		vdiv.f32	s0, s15, s16
 12602 026c 103A17EE 		vmov	r3, s14	@ int
 12603 0270 060153E3 		cmp	r3, #-2147483647
 12604 0274 0631A0B3 		movlt	r3, #-2147483647
 12605 0278 2C3004E5 		str	r3, [r4, #-44]
 12606 027c C00AB7EE 		vcvt.f64.f32	d0, s0
 12607 0280 FEFFFFEB 		bl	round
 12608 0284 097A5BED 		vldr.32	s15, [fp, #-36]
 12609 0288 C07BBDEE 		vcvt.s32.f64	s14, d0
 12610 028c 880A87EE 		vdiv.f32	s0, s15, s16
 12611 0290 103A17EE 		vmov	r3, s14	@ int
 12612 0294 060153E3 		cmp	r3, #-2147483647
 12613 0298 0631A0B3 		movlt	r3, #-2147483647
 12614 029c 283004E5 		str	r3, [r4, #-40]
 12615 02a0 C00AB7EE 		vcvt.f64.f32	d0, s0
 12616 02a4 FEFFFFEB 		bl	round
 12617 02a8 087A5BED 		vldr.32	s15, [fp, #-32]
 12618 02ac C07BBDEE 		vcvt.s32.f64	s14, d0
 12619 02b0 880A87EE 		vdiv.f32	s0, s15, s16
 12620 02b4 103A17EE 		vmov	r3, s14	@ int
 12621 02b8 060153E3 		cmp	r3, #-2147483647
 12622 02bc 0631A0B3 		movlt	r3, #-2147483647
 12623 02c0 243004E5 		str	r3, [r4, #-36]
 12624 02c4 C00AB7EE 		vcvt.f64.f32	d0, s0
 12625 02c8 FEFFFFEB 		bl	round
 12626 02cc 077A5BED 		vldr.32	s15, [fp, #-28]
 12627 02d0 C07BBDEE 		vcvt.s32.f64	s14, d0
 12628 02d4 880A87EE 		vdiv.f32	s0, s15, s16
 12629 02d8 103A17EE 		vmov	r3, s14	@ int
 12630 02dc 060153E3 		cmp	r3, #-2147483647
 12631 02e0 0631A0B3 		movlt	r3, #-2147483647
 12632 02e4 203004E5 		str	r3, [r4, #-32]
 12633 02e8 C00AB7EE 		vcvt.f64.f32	d0, s0
 12634 02ec FEFFFFEB 		bl	round
 12635 02f0 C07BFDEE 		vcvt.s32.f64	s15, d0
 12636 02f4 903A17EE 		vmov	r3, s15	@ int
 12637 02f8 060153E3 		cmp	r3, #-2147483647
 12638 02fc 0631A0B3 		movlt	r3, #-2147483647
 12639 0300 060059E1 		cmp	r9, r6
 12640 0304 1C3004E5 		str	r3, [r4, #-28]
 12641 0308 B0FFFF1A 		bne	.L2302
 12642              	.L2299:
 12643 030c 08309DE5 		ldr	r3, [sp, #8]
 12644 0310 084089E0 		add	r4, r9, r8
 12645 0314 0441A0E1 		lsl	r4, r4, #2
 12646 0318 04B083E0 		add	fp, r3, r4
 12647 031c 04309DE5 		ldr	r3, [sp, #4]
 12648 0320 044083E0 		add	r4, r3, r4
 12649              	.L2304:
 12650 0324 017AFBEC 		vldmia.32	fp!, {s15}
 12651 0328 019089E2 		add	r9, r9, #1
 12652 032c 880A87EE 		vdiv.f32	s0, s15, s16
 12653 0330 C00AB7EE 		vcvt.f64.f32	d0, s0
 12654 0334 FEFFFFEB 		bl	round
 12655 0338 C07BFDEE 		vcvt.s32.f64	s15, d0
 12656 033c 903A17EE 		vmov	r3, s15	@ int
 12657 0340 060153E3 		cmp	r3, #-2147483647
 12658 0344 0631A0B3 		movlt	r3, #-2147483647
 12659 0348 090055E1 		cmp	r5, r9
 12660 034c 043084E4 		str	r3, [r4], #4
 12661 0350 F3FFFFCA 		bgt	.L2304
 12662 0354 10309DE5 		ldr	r3, [sp, #16]
 12663 0358 017087E2 		add	r7, r7, #1
 12664 035c 00209DE5 		ldr	r2, [sp]
 12665 0360 058088E0 		add	r8, r8, r5
 12666 0364 030057E1 		cmp	r7, r3
 12667 0368 0C309DE5 		ldr	r3, [sp, #12]
 12668 036c 03A08AE0 		add	r10, r10, r3
 12669 0370 033082E0 		add	r3, r2, r3
 12670 0374 00308DE5 		str	r3, [sp]
 12671 0378 8BFFFF1A 		bne	.L2301
 12672              	.L2300:
 12673 037c 54309DE5 		ldr	r3, [sp, #84]
 12674 0380 007AD3ED 		vldr.32	s15, [r3]
 12675              	.L2293:
 12676 0384 14E09DE5 		ldr	lr, [sp, #20]
 12677 0388 0030A0E3 		mov	r3, #0
 12678 038c 18109DE5 		ldr	r1, [sp, #24]
 12679 0390 E77AFDEE 		vcvt.s32.f32	s15, s15
 12680 0394 5C409DE5 		ldr	r4, [sp, #92]
 12681 0398 0C208EE2 		add	r2, lr, #12
 12682 039c 08108EE5 		str	r1, [lr, #8]
 12683 03a0 0100A0E1 		mov	r0, r1
 12684 03a4 1C10DDE5 		ldrb	r1, [sp, #28]	@ zero_extendqisi2
 12685 03a8 54509DE5 		ldr	r5, [sp, #84]
 12686 03ac 04C09DE5 		ldr	ip, [sp, #4]
 12687 03b0 2D10CEE5 		strb	r1, [lr, #45]
 12688 03b4 54109DE5 		ldr	r1, [sp, #84]
 12689 03b8 04C08EE5 		str	ip, [lr, #4]
 12690 03bc 02C0A0E3 		mov	ip, #2
 12691 03c0 043082E5 		str	r3, [r2, #4]
 12692 03c4 007AC1ED 		vstr.32	s15, [r1]	@ int
 12693 03c8 0110A0E3 		mov	r1, #1
 12694 03cc 005084E5 		str	r5, [r4]
 12695 03d0 58509DE5 		ldr	r5, [sp, #88]
 12696 03d4 0C308EE5 		str	r3, [lr, #12]
 12697 03d8 1430CEE5 		strb	r3, [lr, #20]
 12698 03dc 045084E5 		str	r5, [r4, #4]
 12699 03e0 60509DE5 		ldr	r5, [sp, #96]
 12700 03e4 00C0CEE5 		strb	ip, [lr]
 12701 03e8 3010CEE5 		strb	r1, [lr, #48]
 12702 03ec 085084E5 		str	r5, [r4, #8]
 12703 03f0 0E40A0E1 		mov	r4, lr
 12704 03f4 FEFFFFEB 		bl	_ZN6tflite12ElementCountERK14TfLiteIntArray
 12705 03f8 5C309DE5 		ldr	r3, [sp, #92]
 12706 03fc 0001A0E1 		lsl	r0, r0, #2
 12707 0400 180084E5 		str	r0, [r4, #24]
 12708 0404 343084E5 		str	r3, [r4, #52]
 12709 0408 14009DE5 		ldr	r0, [sp, #20]
 12710 040c 24D08DE2 		add	sp, sp, #36
 12711              		@ sp needed
 12712 0410 028BBDEC 		vldm	sp!, {d8}
 12713 0414 F08FBDE8 		pop	{r4, r5, r6, r7, r8, r9, r10, fp, pc}
 12714              	.L2305:
 12715 0418 0010A0E3 		mov	r1, #0
 12716 041c 0350A0E1 		mov	r5, r3
 12717 0420 41FFFFEA 		b	.L2294
 12718              		.fnend
 12720              		.section	.text._ZN6tflite7testing40CreateSymmetricPerChannelQuantizedTensorEPKfPaP14TfLiteIntArray
 12721              		.align	2
 12722              		.global	_ZN6tflite7testing40CreateSymmetricPerChannelQuantizedTensorEPKfPaP14TfLiteIntArrayPfPiP24
 12723              		.syntax unified
 12724              		.arm
 12725              		.fpu neon
 12727              	_ZN6tflite7testing40CreateSymmetricPerChannelQuantizedTensorEPKfPaP14TfLiteIntArrayPfPiP24TfLiteAff
 12728              		.fnstart
 12729              	.LFB7122:
 12730              		@ args = 20, pretend = 0, frame = 0
 12731              		@ frame_needed = 0, uses_anonymous_args = 0
 12732 0000 F04F2DE9 		push	{r4, r5, r6, r7, r8, r9, r10, fp, lr}
 12733              		.save {r4, r5, r6, r7, r8, r9, r10, fp, lr}
 12734              		.pad #12
 12735 0004 0CD04DE2 		sub	sp, sp, #12
 12736 0008 3C909DE5 		ldr	r9, [sp, #60]
 12737 000c 0350A0E1 		mov	r5, r3
 12738 0010 02A0A0E1 		mov	r10, r2
 12739 0014 0230A0E1 		mov	r3, r2
 12740 0018 30609DE5 		ldr	r6, [sp, #48]
 12741 001c 0040A0E1 		mov	r4, r0
 12742 0020 34E09DE5 		ldr	lr, [sp, #52]
 12743 0024 0100A0E1 		mov	r0, r1
 12744 0028 092185E0 		add	r2, r5, r9, lsl #2
 12745 002c 0510A0E1 		mov	r1, r5
 12746 0030 06C0A0E1 		mov	ip, r6
 12747 0034 38709DE5 		ldr	r7, [sp, #56]
 12748 0038 048092E5 		ldr	r8, [r2, #4]
 12749 003c 0920A0E1 		mov	r2, r9
 12750 0040 40B0DDE5 		ldrb	fp, [sp, #64]	@ zero_extendqisi2
 12751 0044 908A07EE 		vmov	s15, r8	@ int
 12752 0048 E77AF8EE 		vcvt.f32.s32	s15, s15
 12753 004c 017AECEC 		vstmia.32	ip!, {s15}
 12754 0050 00808EE5 		str	r8, [lr]
 12755 0054 00C08DE5 		str	ip, [sp]
 12756 0058 FEFFFFEB 		bl	_ZN6tflite33SignedSymmetricPerChannelQuantizeEPKfP14TfLiteIntArrayiPaPf
 12757 005c 000058E3 		cmp	r8, #0
 12758 0060 040000DA 		ble	.L2316
 12759 0064 34309DE5 		ldr	r3, [sp, #52]
 12760 0068 0821A0E1 		lsl	r2, r8, #2
 12761 006c 0010A0E3 		mov	r1, #0
 12762 0070 040083E2 		add	r0, r3, #4
 12763 0074 FEFFFFEB 		bl	memset
 12764              	.L2316:
 12765 0078 007AD6ED 		vldr.32	s15, [r6]
 12766 007c 0030A0E3 		mov	r3, #0
 12767 0080 103084E5 		str	r3, [r4, #16]
 12768 0084 0910A0E3 		mov	r1, #9
 12769 0088 0C3084E5 		str	r3, [r4, #12]
 12770 008c 0120A0E3 		mov	r2, #1
 12771 0090 1430C4E5 		strb	r3, [r4, #20]
 12772 0094 0500A0E1 		mov	r0, r5
 12773 0098 E77AFDEE 		vcvt.s32.f32	s15, s15
 12774 009c 34309DE5 		ldr	r3, [sp, #52]
 12775 00a0 085084E5 		str	r5, [r4, #8]
 12776 00a4 2DB0C4E5 		strb	fp, [r4, #45]
 12777 00a8 007AC6ED 		vstr.32	s15, [r6]	@ int
 12778 00ac 04A084E5 		str	r10, [r4, #4]
 12779 00b0 0010C4E5 		strb	r1, [r4]
 12780 00b4 006087E5 		str	r6, [r7]
 12781 00b8 080287E9 		stmib	r7, {r3, r9}
 12782 00bc 3020C4E5 		strb	r2, [r4, #48]
 12783 00c0 FEFFFFEB 		bl	_ZN6tflite12ElementCountERK14TfLiteIntArray
 12784 00c4 347084E5 		str	r7, [r4, #52]
 12785 00c8 180084E5 		str	r0, [r4, #24]
 12786 00cc 0400A0E1 		mov	r0, r4
 12787 00d0 0CD08DE2 		add	sp, sp, #12
 12788              		@ sp needed
 12789 00d4 F08FBDE8 		pop	{r4, r5, r6, r7, r8, r9, r10, fp, pc}
 12790              		.fnend
 12792              		.section	.text._ZN6tflite7testing19GetModelTensorCountEPKNS_5ModelE,"ax",%progbits
 12793              		.align	2
 12794              		.global	_ZN6tflite7testing19GetModelTensorCountEPKNS_5ModelE
 12795              		.syntax unified
 12796              		.arm
 12797              		.fpu neon
 12799              	_ZN6tflite7testing19GetModelTensorCountEPKNS_5ModelE:
 12800              		.fnstart
 12801              	.LFB7123:
 12802              		@ args = 0, pretend = 0, frame = 0
 12803              		@ frame_needed = 0, uses_anonymous_args = 0
 12804 0000 003090E5 		ldr	r3, [r0]
 12805 0004 033040E0 		sub	r3, r0, r3
 12806 0008 B020D3E1 		ldrh	r2, [r3]
 12807 000c 080052E3 		cmp	r2, #8
 12808 0010 1B0000DA 		ble	.L2323
 12809 0014 B830D3E1 		ldrh	r3, [r3, #8]
 12810 0018 000053E3 		cmp	r3, #0
 12811 001c 031080E0 		add	r1, r0, r3
 12812 0020 1700000A 		beq	.L2323
 12813 0024 032090E7 		ldr	r2, [r0, r3]
 12814 0028 023091E0 		adds	r3, r1, r2
 12815 002c 1400000A 		beq	.L2323
 12816 0030 022091E7 		ldr	r2, [r1, r2]
 12817 0034 000052E3 		cmp	r2, #0
 12818 0038 1300000A 		beq	.L2332
 12819 003c 041093E5 		ldr	r1, [r3, #4]
 12820 0040 043083E2 		add	r3, r3, #4
 12821 0044 012093E7 		ldr	r2, [r3, r1]
 12822 0048 013083E0 		add	r3, r3, r1
 12823 004c 022043E0 		sub	r2, r3, r2
 12824 0050 B010D2E1 		ldrh	r1, [r2]
 12825 0054 040051E3 		cmp	r1, #4
 12826 0058 060000DA 		ble	.L2322
 12827 005c B420D2E1 		ldrh	r2, [r2, #4]
 12828 0060 000052E3 		cmp	r2, #0
 12829 0064 021083E0 		add	r1, r3, r2
 12830 0068 0200000A 		beq	.L2322
 12831 006c 023093E7 		ldr	r3, [r3, r2]
 12832 0070 030091E7 		ldr	r0, [r1, r3]
 12833 0074 1EFF2FE1 		bx	lr
 12834              	.L2322:
 12835 0078 0030A0E3 		mov	r3, #0
 12836 007c 003093E5 		ldr	r3, [r3]
 12837 0080 F000F0E7 		.inst	0xe7f000f0
 12838              	.L2323:
 12839 0084 0000A0E3 		mov	r0, #0
 12840 0088 1EFF2FE1 		bx	lr
 12841              	.L2332:
 12842 008c 003000E3 		movw	r3, #:lower16:.LC67
 12843 0090 002000E3 		movw	r2, #:lower16:.LANCHOR42
 12844 0094 000000E3 		movw	r0, #:lower16:.LC19
 12845 0098 10402DE9 		push	{r4, lr}
 12846              		.save {r4, lr}
 12847 009c 003040E3 		movt	r3, #:upper16:.LC67
 12848 00a0 002040E3 		movt	r2, #:upper16:.LANCHOR42
 12849 00a4 000040E3 		movt	r0, #:upper16:.LC19
 12850 00a8 061100E3 		movw	r1, #262
 12851 00ac FEFFFFEB 		bl	__assert_func
 12852              		.fnend
 12854              		.weak	_ZTSN11flatbuffers9AllocatorE
 12855              		.section	.rodata._ZTSN11flatbuffers9AllocatorE,"aG",%progbits,_ZTSN11flatbuffers9AllocatorE,comdat
 12856              		.align	2
 12859              	_ZTSN11flatbuffers9AllocatorE:
 12860 0000 4E313166 		.ascii	"N11flatbuffers9AllocatorE\000"
 12860      6C617462 
 12860      75666665 
 12860      72733941 
 12860      6C6C6F63 
 12861              		.weak	_ZTIN11flatbuffers9AllocatorE
 12862              		.section	.rodata._ZTIN11flatbuffers9AllocatorE,"aG",%progbits,_ZTIN11flatbuffers9AllocatorE,comdat
 12863              		.align	2
 12866              	_ZTIN11flatbuffers9AllocatorE:
 12867 0000 08000000 		.word	_ZTVN10__cxxabiv117__class_type_infoE+8
 12868 0004 00000000 		.word	_ZTSN11flatbuffers9AllocatorE
 12869              		.global	_ZN6tflite7testing14MultipleInputs6freed_E
 12870              		.global	_ZN6tflite7testing10MockCustom6freed_E
 12871              		.weak	_ZN11flatbuffers25flatbuffer_version_stringE
 12872              		.section	.rodata
 12873              		.align	2
 12874              		.set	.LANCHOR33,. + 0
 12875              	.LC2:
 12876 0000 00000000 		.word	0
 12877 0004 01000000 		.word	1
 12878 0008 02000000 		.word	2
 12879              	.LC4:
 12880 000c 03000000 		.word	3
 12881 0010 04000000 		.word	4
 12882 0014 05000000 		.word	5
 12883              	.LC5:
 12884 0018 06000000 		.word	6
 12885 001c 07000000 		.word	7
 12886 0020 08000000 		.word	8
 12887              		.section	.bss._ZGVZN6tflite7testing12_GLOBAL__N_114StackAllocator8instanceEvE4inst,"aw",%nobits
 12888              		.align	2
 12889              		.set	.LANCHOR6,. + 0
 12892              	_ZGVZN6tflite7testing12_GLOBAL__N_114StackAllocator8instanceEvE4inst:
 12893 0000 00000000 		.space	4
 12894              		.section	.bss._ZGVZN6tflite7testing12_GLOBAL__N_115BuilderInstanceEvE4inst,"aw",%nobits
 12895              		.align	2
 12896              		.set	.LANCHOR4,. + 0
 12899              	_ZGVZN6tflite7testing12_GLOBAL__N_115BuilderInstanceEvE4inst:
 12900 0000 00000000 		.space	4
 12901              		.section	.bss._ZN6tflite7testing10MockCustom6freed_E,"aw",%nobits
 12902              		.set	.LANCHOR0,. + 0
 12905              	_ZN6tflite7testing10MockCustom6freed_E:
 12906 0000 00       		.space	1
 12907              		.section	.bss._ZN6tflite7testing14MultipleInputs6freed_E,"aw",%nobits
 12908              		.set	.LANCHOR1,. + 0
 12911              	_ZN6tflite7testing14MultipleInputs6freed_E:
 12912 0000 00       		.space	1
 12913              		.section	.bss._ZZN6tflite7testing10MockCustom22GetMutableRegistrationEvE1r,"aw",%nobits
 12914              		.align	3
 12915              		.set	.LANCHOR28,. + 0
 12918              	_ZZN6tflite7testing10MockCustom22GetMutableRegistrationEvE1r:
 12919 0000 00000000 		.space	32
 12919      00000000 
 12919      00000000 
 12919      00000000 
 12919      00000000 
 12920              		.section	.bss._ZZN6tflite7testing12_GLOBAL__N_114StackAllocator8instanceEvE11inst_memory,"aw",%nob
 12921              		.align	3
 12922              		.set	.LANCHOR2,. + 0
 12925              	_ZZN6tflite7testing12_GLOBAL__N_114StackAllocator8instanceEvE11inst_memory:
 12926 0000 00000000 		.space	8204
 12926      00000000 
 12926      00000000 
 12926      00000000 
 12926      00000000 
 12927              		.section	.bss._ZZN6tflite7testing12_GLOBAL__N_114StackAllocator8instanceEvE4inst,"aw",%nobits
 12928              		.align	2
 12929              		.set	.LANCHOR7,. + 0
 12932              	_ZZN6tflite7testing12_GLOBAL__N_114StackAllocator8instanceEvE4inst:
 12933 0000 00000000 		.space	4
 12934              		.section	.bss._ZZN6tflite7testing12_GLOBAL__N_115BuilderInstanceEvE11inst_memory,"aw",%nobits
 12935              		.align	3
 12936              		.set	.LANCHOR3,. + 0
 12939              	_ZZN6tflite7testing12_GLOBAL__N_115BuilderInstanceEvE11inst_memory:
 12940 0000 00000000 		.space	52
 12940      00000000 
 12940      00000000 
 12940      00000000 
 12940      00000000 
 12941              		.section	.bss._ZZN6tflite7testing12_GLOBAL__N_115BuilderInstanceEvE4inst,"aw",%nobits
 12942              		.align	2
 12943              		.set	.LANCHOR5,. + 0
 12946              	_ZZN6tflite7testing12_GLOBAL__N_115BuilderInstanceEvE4inst:
 12947 0000 00000000 		.space	4
 12948              		.section	.bss._ZZN6tflite7testing14MultipleInputs22GetMutableRegistrationEvE1r,"aw",%nobits
 12949              		.align	3
 12950              		.set	.LANCHOR29,. + 0
 12953              	_ZZN6tflite7testing14MultipleInputs22GetMutableRegistrationEvE1r:
 12954 0000 00000000 		.space	32
 12954      00000000 
 12954      00000000 
 12954      00000000 
 12954      00000000 
 12955              		.section	.bss._ZZN6tflite7testing16SimpleStatefulOp22GetMutableRegistrationEvE1r,"aw",%nobits
 12956              		.align	2
 12957              		.set	.LANCHOR27,. + 0
 12960              	_ZZN6tflite7testing16SimpleStatefulOp22GetMutableRegistrationEvE1r:
 12961 0000 00000000 		.space	32
 12961      00000000 
 12961      00000000 
 12961      00000000 
 12961      00000000 
 12962              		.section	.bss._ZZN6tflite7testing18GetSimpleMockModelEvE5model,"aw",%nobits
 12963              		.align	2
 12964              		.set	.LANCHOR31,. + 0
 12967              	_ZZN6tflite7testing18GetSimpleMockModelEvE5model:
 12968 0000 00000000 		.space	4
 12969              		.section	.bss._ZZN6tflite7testing19GetComplexMockModelEvE5model,"aw",%nobits
 12970              		.align	2
 12971              		.set	.LANCHOR35,. + 0
 12974              	_ZZN6tflite7testing19GetComplexMockModelEvE5model:
 12975 0000 00000000 		.space	4
 12976              		.section	.bss._ZZN6tflite7testing22GetSimpleStatefulModelEvE5model,"aw",%nobits
 12977              		.align	2
 12978              		.set	.LANCHOR37,. + 0
 12981              	_ZZN6tflite7testing22GetSimpleStatefulModelEvE5model:
 12982 0000 00000000 		.space	4
 12983              		.section	.bss._ZZN6tflite7testing24GetModelWithUnusedInputsEvE5model,"aw",%nobits
 12984              		.align	2
 12985              		.set	.LANCHOR30,. + 0
 12988              	_ZZN6tflite7testing24GetModelWithUnusedInputsEvE5model:
 12989 0000 00000000 		.space	4
 12990              		.section	.bss._ZZN6tflite7testing24GetSimpleModelWithBranchEvE5model,"aw",%nobits
 12991              		.align	2
 12992              		.set	.LANCHOR36,. + 0
 12995              	_ZZN6tflite7testing24GetSimpleModelWithBranchEvE5model:
 12996 0000 00000000 		.space	4
 12997              		.section	.bss._ZZN6tflite7testing28GetSimpleMultipleInputsModelEvE5model,"aw",%nobits
 12998              		.align	2
 12999              		.set	.LANCHOR32,. + 0
 13002              	_ZZN6tflite7testing28GetSimpleMultipleInputsModelEvE5model:
 13003 0000 00000000 		.space	4
 13004              		.section	.bss._ZZN6tflite7testing32GetSimpleModelWithSubgraphsAndIfEvE5model,"aw",%nobits
 13005              		.align	2
 13006              		.set	.LANCHOR34,. + 0
 13009              	_ZZN6tflite7testing32GetSimpleModelWithSubgraphsAndIfEvE5model:
 13010 0000 00000000 		.space	4
 13011              		.section	.data._ZN11flatbuffers25flatbuffer_version_stringE,"aw",%progbits
 13012              		.align	2
 13015              	_ZN11flatbuffers25flatbuffer_version_stringE:
 13016 0000 00000000 		.word	.LC68
 13017              		.section	.rodata.._138,"a",%progbits
 13018              		.align	2
 13019              		.set	.LANCHOR24,. + 0
 13022              	._138:
 13023 0000 03000000 		.word	3
 13024              		.section	.rodata.._139,"a",%progbits
 13025              		.align	2
 13026              		.set	.LANCHOR25,. + 0
 13029              	._139:
 13030 0000 03000000 		.word	3
 13031              		.section	.rodata.._140,"a",%progbits
 13032              		.align	2
 13033              		.set	.LANCHOR26,. + 0
 13036              	._140:
 13037 0000 01000000 		.word	1
 13038              		.section	.rodata.._141,"a",%progbits
 13039              		.align	2
 13040              		.set	.LANCHOR19,. + 0
 13043              	._141:
 13044 0000 02000000 		.word	2
 13045 0004 02000000 		.word	2
 13046 0008 03000000 		.word	3
 13047              		.section	.rodata.._142,"a",%progbits
 13048              		.align	2
 13049              		.set	.LANCHOR20,. + 0
 13052              	._142:
 13053 0000 02000000 		.word	2
 13054 0004 02000000 		.word	2
 13055 0008 03000000 		.word	3
 13056              		.section	.rodata.._143,"a",%progbits
 13057              		.align	2
 13058              		.set	.LANCHOR21,. + 0
 13061              	._143:
 13062 0000 02000000 		.word	2
 13063 0004 02000000 		.word	2
 13064 0008 03000000 		.word	3
 13065              		.section	.rodata.._144,"a",%progbits
 13066              		.align	2
 13067              		.set	.LANCHOR22,. + 0
 13070              	._144:
 13071 0000 02000000 		.word	2
 13072 0004 02000000 		.word	2
 13073 0008 03000000 		.word	3
 13074              		.section	.rodata.._145,"a",%progbits
 13075              		.align	2
 13076              		.set	.LANCHOR23,. + 0
 13079              	._145:
 13080 0000 02000000 		.word	2
 13081 0004 02000000 		.word	2
 13082 0008 03000000 		.word	3
 13083              		.section	.rodata.._146,"a",%progbits
 13084              		.align	2
 13085              		.set	.LANCHOR38,. + 0
 13088              	._146:
 13089 0000 CDCCCC3D 		.word	1036831949
 13090              		.section	.rodata.._147,"a",%progbits
 13091              		.align	2
 13092              		.set	.LANCHOR39,. + 0
 13095              	._147:
 13096 0000 CDCC4C3E 		.word	1045220557
 13097              		.section	.rodata.._148,"a",%progbits
 13098              		.align	2
 13099              		.set	.LANCHOR40,. + 0
 13102              	._148:
 13103 0000 9A99993E 		.word	1050253722
 13104              		.section	.rodata.._149,"a",%progbits
 13105              		.align	3
 13106              		.set	.LANCHOR41,. + 0
 13109              	._149:
 13110 0000 64000000 		.word	100
 13111 0004 00000000 		.word	0
 13112              		.section	.rodata._ZN11flatbuffers15vector_downward12ensure_spaceEj.str1.4,"aMS",%progbits,1
 13113              		.align	2
 13114              	.LC22:
 13115 0000 6375725F 		.ascii	"cur_ >= scratch_ && scratch_ >= buf_\000"
 13115      203E3D20 
 13115      73637261 
 13115      7463685F 
 13115      20262620 
 13116 0025 000000   		.space	3
 13117              	.LC23:
 13118 0028 73697A65 		.ascii	"size() < FLATBUFFERS_MAX_BUFFER_SIZE\000"
 13118      2829203C 
 13118      20464C41 
 13118      54425546 
 13118      46455253 
 13119              		.section	.rodata._ZN11flatbuffers17FlatBufferBuilder11StartVectorEjj.constprop.148.str1.4,"aMS",%p
 13120              		.align	2
 13121              	.LC24:
 13122 0000 216E6573 		.ascii	"!nested\000"
 13122      74656400 
 13123              		.section	.rodata._ZN11flatbuffers17FlatBufferBuilder12CreateVectorIN6tflite6BufferEEENS_6OffsetINS
 13124              		.align	2
 13125              	.LC25:
 13126 0000 6F666620 		.ascii	"off && off <= GetSize()\000"
 13126      2626206F 
 13126      6666203C 
 13126      3D204765 
 13126      7453697A 
 13127              	.LC26:
 13128 0018 6E657374 		.ascii	"nested\000"
 13128      656400
 13129              		.section	.rodata._ZN11flatbuffers17FlatBufferBuilder6FinishEmPKcb.constprop.146.str1.4,"aMS",%prog
 13130              		.align	2
 13131              	.LC27:
 13132 0000 54464C33 		.ascii	"TFL3\000"
 13132      00
 13133              		.section	.rodata._ZN11flatbuffers17FlatBufferBuilder8EndTableEm.str1.4,"aMS",%progbits,1
 13134              		.align	2
 13135              	.LC28:
 13136 0000 7461626C 		.ascii	"table_object_size < 0x10000\000"
 13136      655F6F62 
 13136      6A656374 
 13136      5F73697A 
 13136      65203C20 
 13137              	.LC29:
 13138 001c 73637261 		.ascii	"scratch_\000"
 13138      7463685F 
 13138      00
 13139 0025 000000   		.space	3
 13140              	.LC30:
 13141 0028 21526561 		.ascii	"!ReadScalar<voffset_t>(buf_.data() + field_location"
 13141      64536361 
 13141      6C61723C 
 13141      766F6666 
 13141      7365745F 
 13142 005b 2D3E6964 		.ascii	"->id)\000"
 13142      2900
 13143 0061 000000   		.space	3
 13144              	.LC31:
 13145 0064 6275665F 		.ascii	"buf_\000"
 13145      00
 13146              		.section	.rodata._ZN11flatbuffers17FlatBufferBuilder9NotNestedEv.isra.20.part.21.str1.4,"aMS",%pro
 13147              		.align	2
 13148              	.LC21:
 13149 0000 216E756D 		.ascii	"!num_field_loc\000"
 13149      5F666965 
 13149      6C645F6C 
 13149      6F6300
 13150              		.section	.rodata._ZN11flatbuffers9Allocator19reallocate_downwardEPhjjjj.str1.4,"aMS",%progbits,1
 13151              		.align	2
 13152              	.LC18:
 13153 0000 6E65775F 		.ascii	"new_size > old_size\000"
 13153      73697A65 
 13153      203E206F 
 13153      6C645F73 
 13153      697A6500 
 13154              	.LC19:
 13155 0014 433A2F52 		.ascii	"C:/Renesas/e2studio_2021_01_workspace_RZA2M_ANPR/AN"
 13155      656E6573 
 13155      61732F65 
 13155      32737475 
 13155      64696F5F 
 13156 0047 50525F52 		.ascii	"PR_RZA2M_GR_MANGO/src/tensorflow_lite/third_party/f"
 13156      5A41324D 
 13156      5F47525F 
 13156      4D414E47 
 13156      4F2F7372 
 13157 007a 6C617462 		.ascii	"latbuffers/include/flatbuffers/flatbuffers.h\000"
 13157      75666665 
 13157      72732F69 
 13157      6E636C75 
 13157      64652F66 
 13158              		.section	.rodata._ZN6tflite7testing12_GLOBAL__N_112ModelBuilder10BuildModelESt16initializer_listIl
 13159              		.align	2
 13160              	.LC32:
 13161 0000 74657374 		.ascii	"test_subgraph\000"
 13161      5F737562 
 13161      67726170 
 13161      6800
 13162 000e 0000     		.space	2
 13163              	.LC33:
 13164 0010 74657365 		.ascii	"teset_model\000"
 13164      745F6D6F 
 13164      64656C00 
 13165              	.LC34:
 13166 001c 66696E69 		.ascii	"finished\000"
 13166      73686564 
 13166      00
 13167              		.section	.rodata._ZN6tflite7testing12_GLOBAL__N_124BuildSimpleStatefulModelEv.str1.4,"aMS",%progbi
 13168              		.align	2
 13169              	.LC37:
 13170 0000 73696D70 		.ascii	"simple_stateful_op\000"
 13170      6C655F73 
 13170      74617465 
 13170      66756C5F 
 13170      6F7000
 13171              		.section	.rodata._ZN6tflite7testing12_GLOBAL__N_126BuildSimpleModelWithBranchEv.str1.4,"aMS",%prog
 13172              		.align	2
 13173              	.LC35:
 13174 0000 6D6F636B 		.ascii	"mock_custom\000"
 13174      5F637573 
 13174      746F6D00 
 13175              		.section	.rodata._ZN6tflite7testing12_GLOBAL__N_129BuildModelWithOfflinePlanningEiPKlPNS0_15NodeCo
 13176              		.align	2
 13177              	.LC36:
 13178 0000 4F66666C 		.ascii	"OfflineMemoryAllocation\000"
 13178      696E654D 
 13178      656D6F72 
 13178      79416C6C 
 13178      6F636174 
 13179              		.section	.rodata._ZN6tflite7testing13GetOpResolverEv.str1.4,"aMS",%progbits,1
 13180              		.align	2
 13181              	.LC38:
 13182 0000 6D756C74 		.ascii	"multiple_inputs_op\000"
 13182      69706C65 
 13182      5F696E70 
 13182      7574735F 
 13182      6F7000
 13183              		.section	.rodata._ZN6tflite7testing18GetSimpleMockModelEv.str1.4,"aMS",%progbits,1
 13184              		.align	2
 13185              	.LC44:
 13186 0000 74657374 		.ascii	"test_weight_tensor\000"
 13186      5F776569 
 13186      6768745F 
 13186      74656E73 
 13186      6F7200
 13187 0013 00       		.space	1
 13188              	.LC45:
 13189 0014 74657374 		.ascii	"test_output2_tensor\000"
 13189      5F6F7574 
 13189      70757432 
 13189      5F74656E 
 13189      736F7200 
 13190              		.section	.rodata._ZN6tflite7testing19GetComplexMockModelEv.str1.4,"aMS",%progbits,1
 13191              		.align	2
 13192              	.LC56:
 13193 0000 74657374 		.ascii	"test_input_tensor_1\000"
 13193      5F696E70 
 13193      75745F74 
 13193      656E736F 
 13193      725F3100 
 13194              	.LC57:
 13195 0014 74657374 		.ascii	"test_variable_tensor_1\000"
 13195      5F766172 
 13195      6961626C 
 13195      655F7465 
 13195      6E736F72 
 13196 002b 00       		.space	1
 13197              	.LC58:
 13198 002c 74657374 		.ascii	"test_weight_tensor_1\000"
 13198      5F776569 
 13198      6768745F 
 13198      74656E73 
 13198      6F725F31 
 13199 0041 000000   		.space	3
 13200              	.LC59:
 13201 0044 74657374 		.ascii	"test_output_tensor_1\000"
 13201      5F6F7574 
 13201      7075745F 
 13201      74656E73 
 13201      6F725F31 
 13202 0059 000000   		.space	3
 13203              	.LC60:
 13204 005c 74657374 		.ascii	"test_variable_tensor_2\000"
 13204      5F766172 
 13204      6961626C 
 13204      655F7465 
 13204      6E736F72 
 13205 0073 00       		.space	1
 13206              	.LC61:
 13207 0074 74657374 		.ascii	"test_weight_tensor_2\000"
 13207      5F776569 
 13207      6768745F 
 13207      74656E73 
 13207      6F725F32 
 13208 0089 000000   		.space	3
 13209              	.LC62:
 13210 008c 74657374 		.ascii	"test_output_tensor_2\000"
 13210      5F6F7574 
 13210      7075745F 
 13210      74656E73 
 13210      6F725F32 
 13211 00a1 000000   		.space	3
 13212              	.LC63:
 13213 00a4 74657374 		.ascii	"test_variable_tensor_3\000"
 13213      5F766172 
 13213      6961626C 
 13213      655F7465 
 13213      6E736F72 
 13214 00bb 00       		.space	1
 13215              	.LC64:
 13216 00bc 74657374 		.ascii	"test_weight_tensor_3\000"
 13216      5F776569 
 13216      6768745F 
 13216      74656E73 
 13216      6F725F33 
 13217 00d1 000000   		.space	3
 13218              	.LC65:
 13219 00d4 74657374 		.ascii	"test_output_tensor_3\000"
 13219      5F6F7574 
 13219      7075745F 
 13219      74656E73 
 13219      6F725F33 
 13220              		.section	.rodata._ZN6tflite7testing19GetModelTensorCountEPKNS_5ModelE.str1.4,"aMS",%progbits,1
 13221              		.align	2
 13222              	.LC67:
 13223 0000 69203C20 		.ascii	"i < size()\000"
 13223      73697A65 
 13223      282900
 13224              		.section	.rodata._ZN6tflite7testing24Create1dFlatbufferTensorEib.str1.4,"aMS",%progbits,1
 13225              		.align	2
 13226              	.LC66:
 13227 0000 74657374 		.ascii	"test_tensor\000"
 13227      5F74656E 
 13227      736F7200 
 13228              		.section	.rodata._ZN6tflite7testing24GetModelWithUnusedInputsEv.str1.4,"aMS",%progbits,1
 13229              		.align	2
 13230              	.LC39:
 13231 0000 74657374 		.ascii	"test_input_tensor\000"
 13231      5F696E70 
 13231      75745F74 
 13231      656E736F 
 13231      7200
 13232 0012 0000     		.space	2
 13233              	.LC40:
 13234 0014 74657374 		.ascii	"test_unused_input_tensor\000"
 13234      5F756E75 
 13234      7365645F 
 13234      696E7075 
 13234      745F7465 
 13235 002d 000000   		.space	3
 13236              	.LC41:
 13237 0030 74657374 		.ascii	"test_output_tensor\000"
 13237      5F6F7574 
 13237      7075745F 
 13237      74656E73 
 13237      6F7200
 13238 0043 00       		.space	1
 13239              	.LC42:
 13240 0044 74657374 		.ascii	"test_unused_tensor\000"
 13240      5F756E75 
 13240      7365645F 
 13240      74656E73 
 13240      6F7200
 13241 0057 00       		.space	1
 13242              	.LC43:
 13243 0058 74657374 		.ascii	"test_model\000"
 13243      5F6D6F64 
 13243      656C00
 13244              		.section	.rodata._ZN6tflite7testing28GetSimpleMultipleInputsModelEv.str1.4,"aMS",%progbits,1
 13245              		.align	2
 13246              	.LC46:
 13247 0000 74657374 		.ascii	"test_input_tensor1\000"
 13247      5F696E70 
 13247      75745F74 
 13247      656E736F 
 13247      723100
 13248 0013 00       		.space	1
 13249              	.LC47:
 13250 0014 74657374 		.ascii	"test_input_tensor2\000"
 13250      5F696E70 
 13250      75745F74 
 13250      656E736F 
 13250      723200
 13251 0027 00       		.space	1
 13252              	.LC48:
 13253 0028 74657374 		.ascii	"test_input_tensor3\000"
 13253      5F696E70 
 13253      75745F74 
 13253      656E736F 
 13253      723300
 13254              		.section	.rodata._ZN6tflite7testing32GetSimpleModelWithSubgraphsAndIfEv.str1.4,"aMS",%progbits,1
 13255              		.align	2
 13256              	.LC49:
 13257 0000 636F6E64 		.ascii	"condition tensor\000"
 13257      6974696F 
 13257      6E207465 
 13257      6E736F72 
 13257      00
 13258 0011 000000   		.space	3
 13259              	.LC50:
 13260 0014 696E7075 		.ascii	"input_tensor1\000"
 13260      745F7465 
 13260      6E736F72 
 13260      3100
 13261 0022 0000     		.space	2
 13262              	.LC51:
 13263 0024 696E7075 		.ascii	"input_tensor2\000"
 13263      745F7465 
 13263      6E736F72 
 13263      3200
 13264 0032 0000     		.space	2
 13265              	.LC52:
 13266 0034 6F757470 		.ascii	"output_tensor\000"
 13266      75745F74 
 13266      656E736F 
 13266      7200
 13267 0042 0000     		.space	2
 13268              	.LC53:
 13269 0044 69665F73 		.ascii	"if_subgraph\000"
 13269      75626772 
 13269      61706800 
 13270              	.LC54:
 13271 0050 7468656E 		.ascii	"then_subgraph\000"
 13271      5F737562 
 13271      67726170 
 13271      6800
 13272 005e 0000     		.space	2
 13273              	.LC55:
 13274 0060 656C7365 		.ascii	"else_subgraph\000"
 13274      5F737562 
 13274      67726170 
 13274      6800
 13275              		.section	.rodata._ZNK11flatbuffers15vector_downward4dataEv.isra.9.part.10.str1.4,"aMS",%progbits,1
 13276              		.align	2
 13277              	.LC20:
 13278 0000 6375725F 		.ascii	"cur_\000"
 13278      00
 13279              		.section	.rodata._ZTIN6tflite7testing12_GLOBAL__N_114StackAllocatorE,"a",%progbits
 13280              		.align	2
 13283              	_ZTIN6tflite7testing12_GLOBAL__N_114StackAllocatorE:
 13284 0000 08000000 		.word	_ZTVN10__cxxabiv120__si_class_type_infoE+8
 13285 0004 00000000 		.word	_ZTSN6tflite7testing12_GLOBAL__N_114StackAllocatorE
 13286 0008 00000000 		.word	_ZTIN11flatbuffers9AllocatorE
 13287              		.section	.rodata._ZTSN6tflite7testing12_GLOBAL__N_114StackAllocatorE,"a",%progbits
 13288              		.align	3
 13291              	_ZTSN6tflite7testing12_GLOBAL__N_114StackAllocatorE:
 13292 0000 2A4E3674 		.ascii	"*N6tflite7testing12_GLOBAL__N_114StackAllocatorE\000"
 13292      666C6974 
 13292      65377465 
 13292      7374696E 
 13292      6731325F 
 13293              		.section	.rodata._ZTVN6tflite7testing12_GLOBAL__N_114StackAllocatorE,"a",%progbits
 13294              		.align	3
 13295              		.set	.LANCHOR8,. + 0
 13298              	_ZTVN6tflite7testing12_GLOBAL__N_114StackAllocatorE:
 13299 0000 00000000 		.word	0
 13300 0004 00000000 		.word	_ZTIN6tflite7testing12_GLOBAL__N_114StackAllocatorE
 13301 0008 00000000 		.word	_ZN6tflite7testing12_GLOBAL__N_114StackAllocatorD1Ev
 13302 000c 00000000 		.word	_ZN6tflite7testing12_GLOBAL__N_114StackAllocatorD0Ev
 13303 0010 00000000 		.word	_ZN6tflite7testing12_GLOBAL__N_114StackAllocator8allocateEj
 13304 0014 00000000 		.word	_ZN6tflite7testing12_GLOBAL__N_114StackAllocator10deallocateEPhj
 13305 0018 00000000 		.word	_ZN11flatbuffers9Allocator19reallocate_downwardEPhjjjj
 13306              		.section	.rodata._ZZN11flatbuffers15vector_downward12ensure_spaceEjE19__PRETTY_FUNCTION__,"a",%pro
 13307              		.align	3
 13308              		.set	.LANCHOR12,. + 0
 13311              	_ZZN11flatbuffers15vector_downward12ensure_spaceEjE19__PRETTY_FUNCTION__:
 13312 0000 73697A65 		.ascii	"size_t flatbuffers::vector_downward::ensure_space(s"
 13312      5F742066 
 13312      6C617462 
 13312      75666665 
 13312      72733A3A 
 13313 0033 697A655F 		.ascii	"ize_t)\000"
 13313      742900
 13314              		.section	.rodata._ZZN11flatbuffers17FlatBufferBuilder7ReferToEmE19__PRETTY_FUNCTION__,"a",%progbit
 13315              		.align	3
 13316              		.set	.LANCHOR13,. + 0
 13319              	_ZZN11flatbuffers17FlatBufferBuilder7ReferToEmE19__PRETTY_FUNCTION__:
 13320 0000 666C6174 		.ascii	"flatbuffers::uoffset_t flatbuffers::FlatBufferBuild"
 13320      62756666 
 13320      6572733A 
 13320      3A756F66 
 13320      66736574 
 13321 0033 65723A3A 		.ascii	"er::ReferTo(flatbuffers::uoffset_t)\000"
 13321      52656665 
 13321      72546F28 
 13321      666C6174 
 13321      62756666 
 13322              		.section	.rodata._ZZN11flatbuffers17FlatBufferBuilder8EndTableEmE19__PRETTY_FUNCTION__,"a",%progbi
 13323              		.align	3
 13324              		.set	.LANCHOR15,. + 0
 13327              	_ZZN11flatbuffers17FlatBufferBuilder8EndTableEmE19__PRETTY_FUNCTION__:
 13328 0000 666C6174 		.ascii	"flatbuffers::uoffset_t flatbuffers::FlatBufferBuild"
 13328      62756666 
 13328      6572733A 
 13328      3A756F66 
 13328      66736574 
 13329 0033 65723A3A 		.ascii	"er::EndTable(flatbuffers::uoffset_t)\000"
 13329      456E6454 
 13329      61626C65 
 13329      28666C61 
 13329      74627566 
 13330              		.section	.rodata._ZZN11flatbuffers17FlatBufferBuilder9EndVectorEjE19__PRETTY_FUNCTION__,"a",%progb
 13331              		.align	3
 13332              		.set	.LANCHOR14,. + 0
 13335              	_ZZN11flatbuffers17FlatBufferBuilder9EndVectorEjE19__PRETTY_FUNCTION__:
 13336 0000 666C6174 		.ascii	"flatbuffers::uoffset_t flatbuffers::FlatBufferBuild"
 13336      62756666 
 13336      6572733A 
 13336      3A756F66 
 13336      66736574 
 13337 0033 65723A3A 		.ascii	"er::EndVector(size_t)\000"
 13337      456E6456 
 13337      6563746F 
 13337      72287369 
 13337      7A655F74 
 13338              		.section	.rodata._ZZN11flatbuffers17FlatBufferBuilder9NotNestedEvE19__PRETTY_FUNCTION__,"a",%progb
 13339              		.align	3
 13340              		.set	.LANCHOR11,. + 0
 13343              	_ZZN11flatbuffers17FlatBufferBuilder9NotNestedEvE19__PRETTY_FUNCTION__:
 13344 0000 766F6964 		.ascii	"void flatbuffers::FlatBufferBuilder::NotNested()\000"
 13344      20666C61 
 13344      74627566 
 13344      66657273 
 13344      3A3A466C 
 13345              		.section	.rodata._ZZN11flatbuffers9Allocator19reallocate_downwardEPhjjjjE19__PRETTY_FUNCTION__,"a"
 13346              		.align	3
 13347              		.set	.LANCHOR9,. + 0
 13350              	_ZZN11flatbuffers9Allocator19reallocate_downwardEPhjjjjE19__PRETTY_FUNCTION__:
 13351 0000 76697274 		.ascii	"virtual uint8_t* flatbuffers::Allocator::reallocate"
 13351      75616C20 
 13351      75696E74 
 13351      385F742A 
 13351      20666C61 
 13352 0033 5F646F77 		.ascii	"_downward(uint8_t*, size_t, size_t, size_t, size_t)"
 13352      6E776172 
 13352      64287569 
 13352      6E74385F 
 13352      742A2C20 
 13353 0066 00       		.ascii	"\000"
 13354              		.section	.rodata._ZZNK11flatbuffers15vector_downward11scratch_endEvE19__PRETTY_FUNCTION__,"a",%pro
 13355              		.align	3
 13356              		.set	.LANCHOR16,. + 0
 13359              	_ZZNK11flatbuffers15vector_downward11scratch_endEvE19__PRETTY_FUNCTION__:
 13360 0000 75696E74 		.ascii	"uint8_t* flatbuffers::vector_downward::scratch_end("
 13360      385F742A 
 13360      20666C61 
 13360      74627566 
 13360      66657273 
 13361 0033 2920636F 		.ascii	") const\000"
 13361      6E737400 
 13362              		.section	.rodata._ZZNK11flatbuffers15vector_downward12scratch_dataEvE19__PRETTY_FUNCTION__,"a",%pr
 13363              		.align	3
 13364              		.set	.LANCHOR17,. + 0
 13367              	_ZZNK11flatbuffers15vector_downward12scratch_dataEvE19__PRETTY_FUNCTION__:
 13368 0000 75696E74 		.ascii	"uint8_t* flatbuffers::vector_downward::scratch_data"
 13368      385F742A 
 13368      20666C61 
 13368      74627566 
 13368      66657273 
 13369 0033 28292063 		.ascii	"() const\000"
 13369      6F6E7374 
 13369      00
 13370              		.section	.rodata._ZZNK11flatbuffers15vector_downward4dataEvE19__PRETTY_FUNCTION__,"a",%progbits
 13371              		.align	3
 13372              		.set	.LANCHOR10,. + 0
 13375              	_ZZNK11flatbuffers15vector_downward4dataEvE19__PRETTY_FUNCTION__:
 13376 0000 75696E74 		.ascii	"uint8_t* flatbuffers::vector_downward::data() const"
 13376      385F742A 
 13376      20666C61 
 13376      74627566 
 13376      66657273 
 13377 0033 00       		.ascii	"\000"
 13378              		.section	.rodata._ZZNK11flatbuffers17FlatBufferBuilder8FinishedEvE19__PRETTY_FUNCTION__,"a",%progb
 13379              		.align	3
 13380              		.set	.LANCHOR18,. + 0
 13383              	_ZZNK11flatbuffers17FlatBufferBuilder8FinishedEvE19__PRETTY_FUNCTION__:
 13384 0000 766F6964 		.ascii	"void flatbuffers::FlatBufferBuilder::Finished() con"
 13384      20666C61 
 13384      74627566 
 13384      66657273 
 13384      3A3A466C 
 13385 0033 737400   		.ascii	"st\000"
 13386              		.section	.rodata._ZZNK11flatbuffers6VectorINS_6OffsetIN6tflite8SubGraphEEEE3GetEmE19__PRETTY_FUNCT
 13387              		.align	3
 13388              		.set	.LANCHOR42,. + 0
 13391              	_ZZNK11flatbuffers6VectorINS_6OffsetIN6tflite8SubGraphEEEE3GetEmE19__PRETTY_FUNCTION__:
 13392 0000 666C6174 		.ascii	"flatbuffers::Vector<T>::return_type flatbuffers::Ve"
 13392      62756666 
 13392      6572733A 
 13392      3A566563 
 13392      746F723C 
 13393 0033 63746F72 		.ascii	"ctor<T>::Get(flatbuffers::uoffset_t) const [with T "
 13393      3C543E3A 
 13393      3A476574 
 13393      28666C61 
 13393      74627566 
 13394 0066 3D20666C 		.ascii	"= flatbuffers::Offset<tflite::SubGraph>; flatbuffer"
 13394      61746275 
 13394      66666572 
 13394      733A3A4F 
 13394      66667365 
 13395 0099 733A3A56 		.ascii	"s::Vector<T>::return_type = const tflite::SubGraph*"
 13395      6563746F 
 13395      723C543E 
 13395      3A3A7265 
 13395      7475726E 
 13396 00cc 3B20666C 		.ascii	"; flatbuffers::uoffset_t = long unsigned int]\000"
 13396      61746275 
 13396      66666572 
 13396      733A3A75 
 13396      6F666673 
 13397              		.section	.rodata.str1.4,"aMS",%progbits,1
 13398              		.align	2
 13399              	.LC68:
 13400 0000 466C6174 		.ascii	"FlatBuffers 1.12.0\000"
 13400      42756666 
 13400      65727320 
 13400      312E3132 
 13400      2E3000
 13401              		.ident	"GCC: (GNU Tools for ARM Embedded Processors 6-2017-q2-update) 6.3.1 20170620 (release) [AR
DEFINED SYMBOLS
                            *ABS*:00000000 test_helpers.cc
C:\Users\a5050395\AppData\Local\Temp\ccL5WzBl.s:14     .text._ZN6tflite7testing12_GLOBAL__N_114StackAllocator10deallocateEPhj:00000000 $a
C:\Users\a5050395\AppData\Local\Temp\ccL5WzBl.s:19     .text._ZN6tflite7testing12_GLOBAL__N_114StackAllocator10deallocateEPhj:00000000 _ZN6tflite7testing12_GLOBAL__N_114StackAllocator10deallocateEPhj
.ARM.exidx.text._ZN6tflite7testing12_GLOBAL__N_114StackAllocator10deallocateEPhj:00000000 $d
C:\Users\a5050395\AppData\Local\Temp\ccL5WzBl.s:30     .text._ZN6tflite7testing10MockCustom4FreeEP13TfLiteContextPv:00000000 $a
C:\Users\a5050395\AppData\Local\Temp\ccL5WzBl.s:36     .text._ZN6tflite7testing10MockCustom4FreeEP13TfLiteContextPv:00000000 _ZN6tflite7testing10MockCustom4FreeEP13TfLiteContextPv
C:\Users\a5050395\AppData\Local\Temp\ccL5WzBl.s:12902  .bss._ZN6tflite7testing10MockCustom6freed_E:00000000 .LANCHOR0
.ARM.exidx.text._ZN6tflite7testing10MockCustom4FreeEP13TfLiteContextPv:00000000 $d
C:\Users\a5050395\AppData\Local\Temp\ccL5WzBl.s:51     .text._ZN6tflite7testing14MultipleInputs4FreeEP13TfLiteContextPv:00000000 $a
C:\Users\a5050395\AppData\Local\Temp\ccL5WzBl.s:57     .text._ZN6tflite7testing14MultipleInputs4FreeEP13TfLiteContextPv:00000000 _ZN6tflite7testing14MultipleInputs4FreeEP13TfLiteContextPv
C:\Users\a5050395\AppData\Local\Temp\ccL5WzBl.s:12908  .bss._ZN6tflite7testing14MultipleInputs6freed_E:00000000 .LANCHOR1
.ARM.exidx.text._ZN6tflite7testing14MultipleInputs4FreeEP13TfLiteContextPv:00000000 $d
C:\Users\a5050395\AppData\Local\Temp\ccL5WzBl.s:72     .text._ZN6tflite7testing14MultipleInputs7PrepareEP13TfLiteContextP10TfLiteNode:00000000 $a
C:\Users\a5050395\AppData\Local\Temp\ccL5WzBl.s:78     .text._ZN6tflite7testing14MultipleInputs7PrepareEP13TfLiteContextP10TfLiteNode:00000000 _ZN6tflite7testing14MultipleInputs7PrepareEP13TfLiteContextP10TfLiteNode
.ARM.exidx.text._ZN6tflite7testing14MultipleInputs7PrepareEP13TfLiteContextP10TfLiteNode:00000000 $d
C:\Users\a5050395\AppData\Local\Temp\ccL5WzBl.s:90     .text._ZN6tflite7testing12_GLOBAL__N_114StackAllocatorD2Ev:00000000 $a
C:\Users\a5050395\AppData\Local\Temp\ccL5WzBl.s:95     .text._ZN6tflite7testing12_GLOBAL__N_114StackAllocatorD2Ev:00000000 _ZN6tflite7testing12_GLOBAL__N_114StackAllocatorD2Ev
.ARM.exidx.text._ZN6tflite7testing12_GLOBAL__N_114StackAllocatorD2Ev:00000000 $d
C:\Users\a5050395\AppData\Local\Temp\ccL5WzBl.s:95     .text._ZN6tflite7testing12_GLOBAL__N_114StackAllocatorD2Ev:00000000 _ZN6tflite7testing12_GLOBAL__N_114StackAllocatorD1Ev
C:\Users\a5050395\AppData\Local\Temp\ccL5WzBl.s:107    .text._ZN11flatbuffers16DefaultAllocatorD2Ev:00000000 $a
C:\Users\a5050395\AppData\Local\Temp\ccL5WzBl.s:113    .text._ZN11flatbuffers16DefaultAllocatorD2Ev:00000000 _ZN11flatbuffers16DefaultAllocatorD2Ev
.ARM.exidx.text._ZN11flatbuffers16DefaultAllocatorD2Ev:00000000 $d
C:\Users\a5050395\AppData\Local\Temp\ccL5WzBl.s:113    .text._ZN11flatbuffers16DefaultAllocatorD2Ev:00000000 _ZN11flatbuffers16DefaultAllocatorD1Ev
C:\Users\a5050395\AppData\Local\Temp\ccL5WzBl.s:126    .text._ZN6tflite7testing16SimpleStatefulOp4InitEP13TfLiteContextPKcj:00000000 $a
C:\Users\a5050395\AppData\Local\Temp\ccL5WzBl.s:132    .text._ZN6tflite7testing16SimpleStatefulOp4InitEP13TfLiteContextPKcj:00000000 _ZN6tflite7testing16SimpleStatefulOp4InitEP13TfLiteContextPKcj
.ARM.exidx.text._ZN6tflite7testing16SimpleStatefulOp4InitEP13TfLiteContextPKcj:00000000 $d
C:\Users\a5050395\AppData\Local\Temp\ccL5WzBl.s:159    .text._ZN6tflite7testing10MockCustom4InitEP13TfLiteContextPKcj:00000000 $a
C:\Users\a5050395\AppData\Local\Temp\ccL5WzBl.s:165    .text._ZN6tflite7testing10MockCustom4InitEP13TfLiteContextPKcj:00000000 _ZN6tflite7testing10MockCustom4InitEP13TfLiteContextPKcj
.ARM.exidx.text._ZN6tflite7testing10MockCustom4InitEP13TfLiteContextPKcj:00000000 $d
C:\Users\a5050395\AppData\Local\Temp\ccL5WzBl.s:185    .text._ZN6tflite7testing14MultipleInputs4InitEP13TfLiteContextPKcj:00000000 $a
C:\Users\a5050395\AppData\Local\Temp\ccL5WzBl.s:191    .text._ZN6tflite7testing14MultipleInputs4InitEP13TfLiteContextPKcj:00000000 _ZN6tflite7testing14MultipleInputs4InitEP13TfLiteContextPKcj
.ARM.exidx.text._ZN6tflite7testing14MultipleInputs4InitEP13TfLiteContextPKcj:00000000 $d
C:\Users\a5050395\AppData\Local\Temp\ccL5WzBl.s:211    .text._ZN6tflite7testing12_GLOBAL__N_114StackAllocator8allocateEj:00000000 $a
C:\Users\a5050395\AppData\Local\Temp\ccL5WzBl.s:216    .text._ZN6tflite7testing12_GLOBAL__N_114StackAllocator8allocateEj:00000000 _ZN6tflite7testing12_GLOBAL__N_114StackAllocator8allocateEj
.ARM.exidx.text._ZN6tflite7testing12_GLOBAL__N_114StackAllocator8allocateEj:00000000 $d
C:\Users\a5050395\AppData\Local\Temp\ccL5WzBl.s:238    .text._ZN6tflite7testing16SimpleStatefulOp7PrepareEP13TfLiteContextP10TfLiteNode:00000000 $a
C:\Users\a5050395\AppData\Local\Temp\ccL5WzBl.s:244    .text._ZN6tflite7testing16SimpleStatefulOp7PrepareEP13TfLiteContextP10TfLiteNode:00000000 _ZN6tflite7testing16SimpleStatefulOp7PrepareEP13TfLiteContextP10TfLiteNode
.ARM.exidx.text._ZN6tflite7testing16SimpleStatefulOp7PrepareEP13TfLiteContextP10TfLiteNode:00000000 $d
C:\Users\a5050395\AppData\Local\Temp\ccL5WzBl.s:482    .text._ZN6tflite7testing10MockCustom6InvokeEP13TfLiteContextP10TfLiteNode:00000000 $a
C:\Users\a5050395\AppData\Local\Temp\ccL5WzBl.s:488    .text._ZN6tflite7testing10MockCustom6InvokeEP13TfLiteContextP10TfLiteNode:00000000 _ZN6tflite7testing10MockCustom6InvokeEP13TfLiteContextP10TfLiteNode
.ARM.exidx.text._ZN6tflite7testing10MockCustom6InvokeEP13TfLiteContextP10TfLiteNode:00000000 $d
C:\Users\a5050395\AppData\Local\Temp\ccL5WzBl.s:538    .text._ZN6tflite7testing14MultipleInputs6InvokeEP13TfLiteContextP10TfLiteNode:00000000 $a
C:\Users\a5050395\AppData\Local\Temp\ccL5WzBl.s:544    .text._ZN6tflite7testing14MultipleInputs6InvokeEP13TfLiteContextP10TfLiteNode:00000000 _ZN6tflite7testing14MultipleInputs6InvokeEP13TfLiteContextP10TfLiteNode
.ARM.exidx.text._ZN6tflite7testing14MultipleInputs6InvokeEP13TfLiteContextP10TfLiteNode:00000000 $d
C:\Users\a5050395\AppData\Local\Temp\ccL5WzBl.s:605    .text._ZN6tflite7testing16SimpleStatefulOp6InvokeEP13TfLiteContextP10TfLiteNode:00000000 $a
C:\Users\a5050395\AppData\Local\Temp\ccL5WzBl.s:611    .text._ZN6tflite7testing16SimpleStatefulOp6InvokeEP13TfLiteContextP10TfLiteNode:00000000 _ZN6tflite7testing16SimpleStatefulOp6InvokeEP13TfLiteContextP10TfLiteNode
.ARM.exidx.text._ZN6tflite7testing16SimpleStatefulOp6InvokeEP13TfLiteContextP10TfLiteNode:00000000 $d
C:\Users\a5050395\AppData\Local\Temp\ccL5WzBl.s:935    .text._ZNK6tflite22MicroMutableOpResolverILj128EE6FindOpEPKc:00000000 $a
C:\Users\a5050395\AppData\Local\Temp\ccL5WzBl.s:941    .text._ZNK6tflite22MicroMutableOpResolverILj128EE6FindOpEPKc:00000000 _ZNK6tflite22MicroMutableOpResolverILj128EE6FindOpEPKc
.ARM.exidx.text._ZNK6tflite22MicroMutableOpResolverILj128EE6FindOpEPKc:00000000 $d
C:\Users\a5050395\AppData\Local\Temp\ccL5WzBl.s:980    .text._ZN6tflite7testing12_GLOBAL__N_114StackAllocatorD0Ev:00000000 $a
C:\Users\a5050395\AppData\Local\Temp\ccL5WzBl.s:985    .text._ZN6tflite7testing12_GLOBAL__N_114StackAllocatorD0Ev:00000000 _ZN6tflite7testing12_GLOBAL__N_114StackAllocatorD0Ev
.ARM.exidx.text._ZN6tflite7testing12_GLOBAL__N_114StackAllocatorD0Ev:00000000 $d
C:\Users\a5050395\AppData\Local\Temp\ccL5WzBl.s:1000   .text._ZN11flatbuffers16DefaultAllocatorD0Ev:00000000 $a
C:\Users\a5050395\AppData\Local\Temp\ccL5WzBl.s:1006   .text._ZN11flatbuffers16DefaultAllocatorD0Ev:00000000 _ZN11flatbuffers16DefaultAllocatorD0Ev
.ARM.exidx.text._ZN11flatbuffers16DefaultAllocatorD0Ev:00000000 $d
C:\Users\a5050395\AppData\Local\Temp\ccL5WzBl.s:1021   .text._ZN6tflite7testing12_GLOBAL__N_115BuilderInstanceEv:00000000 $a
C:\Users\a5050395\AppData\Local\Temp\ccL5WzBl.s:1026   .text._ZN6tflite7testing12_GLOBAL__N_115BuilderInstanceEv:00000000 _ZN6tflite7testing12_GLOBAL__N_115BuilderInstanceEv
C:\Users\a5050395\AppData\Local\Temp\ccL5WzBl.s:12896  .bss._ZGVZN6tflite7testing12_GLOBAL__N_115BuilderInstanceEvE4inst:00000000 .LANCHOR4
C:\Users\a5050395\AppData\Local\Temp\ccL5WzBl.s:12943  .bss._ZZN6tflite7testing12_GLOBAL__N_115BuilderInstanceEvE4inst:00000000 .LANCHOR5
C:\Users\a5050395\AppData\Local\Temp\ccL5WzBl.s:12889  .bss._ZGVZN6tflite7testing12_GLOBAL__N_114StackAllocator8instanceEvE4inst:00000000 .LANCHOR6
C:\Users\a5050395\AppData\Local\Temp\ccL5WzBl.s:12929  .bss._ZZN6tflite7testing12_GLOBAL__N_114StackAllocator8instanceEvE4inst:00000000 .LANCHOR7
C:\Users\a5050395\AppData\Local\Temp\ccL5WzBl.s:12936  .bss._ZZN6tflite7testing12_GLOBAL__N_115BuilderInstanceEvE11inst_memory:00000000 .LANCHOR3
C:\Users\a5050395\AppData\Local\Temp\ccL5WzBl.s:12922  .bss._ZZN6tflite7testing12_GLOBAL__N_114StackAllocator8instanceEvE11inst_memory:00000000 .LANCHOR2
C:\Users\a5050395\AppData\Local\Temp\ccL5WzBl.s:1114   .text._ZN6tflite7testing12_GLOBAL__N_115BuilderInstanceEv:0000012c $d
.ARM.exidx.text._ZN6tflite7testing12_GLOBAL__N_115BuilderInstanceEv:00000000 $d
C:\Users\a5050395\AppData\Local\Temp\ccL5WzBl.s:1119   .text._ZN11flatbuffers16DefaultAllocator8allocateEj:00000000 $a
C:\Users\a5050395\AppData\Local\Temp\ccL5WzBl.s:1125   .text._ZN11flatbuffers16DefaultAllocator8allocateEj:00000000 _ZN11flatbuffers16DefaultAllocator8allocateEj
.ARM.exidx.text._ZN11flatbuffers16DefaultAllocator8allocateEj:00000000 $d
C:\Users\a5050395\AppData\Local\Temp\ccL5WzBl.s:1137   .text._ZN11flatbuffers16DefaultAllocator10deallocateEPhj:00000000 $a
C:\Users\a5050395\AppData\Local\Temp\ccL5WzBl.s:1143   .text._ZN11flatbuffers16DefaultAllocator10deallocateEPhj:00000000 _ZN11flatbuffers16DefaultAllocator10deallocateEPhj
.ARM.exidx.text._ZN11flatbuffers16DefaultAllocator10deallocateEPhj:00000000 $d
C:\Users\a5050395\AppData\Local\Temp\ccL5WzBl.s:1156   .text._ZN11flatbuffers9Allocator19reallocate_downwardEPhjjjj:00000000 $a
C:\Users\a5050395\AppData\Local\Temp\ccL5WzBl.s:1162   .text._ZN11flatbuffers9Allocator19reallocate_downwardEPhjjjj:00000000 _ZN11flatbuffers9Allocator19reallocate_downwardEPhjjjj
C:\Users\a5050395\AppData\Local\Temp\ccL5WzBl.s:13152  .rodata._ZN11flatbuffers9Allocator19reallocate_downwardEPhjjjj.str1.4:00000000 .LC18
C:\Users\a5050395\AppData\Local\Temp\ccL5WzBl.s:13347  .rodata._ZZN11flatbuffers9Allocator19reallocate_downwardEPhjjjjE19__PRETTY_FUNCTION__:00000000 .LANCHOR9
C:\Users\a5050395\AppData\Local\Temp\ccL5WzBl.s:13154  .rodata._ZN11flatbuffers9Allocator19reallocate_downwardEPhjjjj.str1.4:00000014 .LC19
.ARM.exidx.text._ZN11flatbuffers9Allocator19reallocate_downwardEPhjjjj:00000000 $d
C:\Users\a5050395\AppData\Local\Temp\ccL5WzBl.s:1211   .text.unlikely._ZNK11flatbuffers15vector_downward4dataEv.isra.9.part.10:00000000 $a
C:\Users\a5050395\AppData\Local\Temp\ccL5WzBl.s:1216   .text.unlikely._ZNK11flatbuffers15vector_downward4dataEv.isra.9.part.10:00000000 _ZNK11flatbuffers15vector_downward4dataEv.isra.9.part.10
C:\Users\a5050395\AppData\Local\Temp\ccL5WzBl.s:13277  .rodata._ZNK11flatbuffers15vector_downward4dataEv.isra.9.part.10.str1.4:00000000 .LC20
C:\Users\a5050395\AppData\Local\Temp\ccL5WzBl.s:13372  .rodata._ZZNK11flatbuffers15vector_downward4dataEvE19__PRETTY_FUNCTION__:00000000 .LANCHOR10
.ARM.exidx.text.unlikely._ZNK11flatbuffers15vector_downward4dataEv.isra.9.part.10:00000000 $d
C:\Users\a5050395\AppData\Local\Temp\ccL5WzBl.s:1234   .text.unlikely._ZN11flatbuffers17FlatBufferBuilder9NotNestedEv.isra.20.part.21:00000000 $a
C:\Users\a5050395\AppData\Local\Temp\ccL5WzBl.s:1239   .text.unlikely._ZN11flatbuffers17FlatBufferBuilder9NotNestedEv.isra.20.part.21:00000000 _ZN11flatbuffers17FlatBufferBuilder9NotNestedEv.isra.20.part.21
C:\Users\a5050395\AppData\Local\Temp\ccL5WzBl.s:13148  .rodata._ZN11flatbuffers17FlatBufferBuilder9NotNestedEv.isra.20.part.21.str1.4:00000000 .LC21
C:\Users\a5050395\AppData\Local\Temp\ccL5WzBl.s:13340  .rodata._ZZN11flatbuffers17FlatBufferBuilder9NotNestedEvE19__PRETTY_FUNCTION__:00000000 .LANCHOR11
.ARM.exidx.text.unlikely._ZN11flatbuffers17FlatBufferBuilder9NotNestedEv.isra.20.part.21:00000000 $d
C:\Users\a5050395\AppData\Local\Temp\ccL5WzBl.s:1257   .text._ZN6tflite7testing10MockCustom7PrepareEP13TfLiteContextP10TfLiteNode:00000000 $a
C:\Users\a5050395\AppData\Local\Temp\ccL5WzBl.s:1263   .text._ZN6tflite7testing10MockCustom7PrepareEP13TfLiteContextP10TfLiteNode:00000000 _ZN6tflite7testing10MockCustom7PrepareEP13TfLiteContextP10TfLiteNode
.ARM.exidx.text._ZN6tflite7testing10MockCustom7PrepareEP13TfLiteContextP10TfLiteNode:00000000 $d
C:\Users\a5050395\AppData\Local\Temp\ccL5WzBl.s:1275   .text._ZN11flatbuffers15vector_downward12ensure_spaceEj:00000000 $a
C:\Users\a5050395\AppData\Local\Temp\ccL5WzBl.s:1281   .text._ZN11flatbuffers15vector_downward12ensure_spaceEj:00000000 _ZN11flatbuffers15vector_downward12ensure_spaceEj
C:\Users\a5050395\AppData\Local\Temp\ccL5WzBl.s:13114  .rodata._ZN11flatbuffers15vector_downward12ensure_spaceEj.str1.4:00000000 .LC22
C:\Users\a5050395\AppData\Local\Temp\ccL5WzBl.s:13308  .rodata._ZZN11flatbuffers15vector_downward12ensure_spaceEjE19__PRETTY_FUNCTION__:00000000 .LANCHOR12
C:\Users\a5050395\AppData\Local\Temp\ccL5WzBl.s:13117  .rodata._ZN11flatbuffers15vector_downward12ensure_spaceEj.str1.4:00000028 .LC23
.ARM.exidx.text._ZN11flatbuffers15vector_downward12ensure_spaceEj:00000000 $d
C:\Users\a5050395\AppData\Local\Temp\ccL5WzBl.s:1455   .text._ZN11flatbuffers17FlatBufferBuilder11StartVectorEjj.constprop.148:00000000 $a
C:\Users\a5050395\AppData\Local\Temp\ccL5WzBl.s:1460   .text._ZN11flatbuffers17FlatBufferBuilder11StartVectorEjj.constprop.148:00000000 _ZN11flatbuffers17FlatBufferBuilder11StartVectorEjj.constprop.148
C:\Users\a5050395\AppData\Local\Temp\ccL5WzBl.s:13121  .rodata._ZN11flatbuffers17FlatBufferBuilder11StartVectorEjj.constprop.148.str1.4:00000000 .LC24
.ARM.exidx.text._ZN11flatbuffers17FlatBufferBuilder11StartVectorEjj.constprop.148:00000000 $d
C:\Users\a5050395\AppData\Local\Temp\ccL5WzBl.s:1546   .text._ZN11flatbuffers17FlatBufferBuilder10AddElementImEEvtT_S2_.part.45:00000000 $a
C:\Users\a5050395\AppData\Local\Temp\ccL5WzBl.s:1551   .text._ZN11flatbuffers17FlatBufferBuilder10AddElementImEEvtT_S2_.part.45:00000000 _ZN11flatbuffers17FlatBufferBuilder10AddElementImEEvtT_S2_.part.45
.ARM.exidx.text._ZN11flatbuffers17FlatBufferBuilder10AddElementImEEvtT_S2_.part.45:00000000 $d
C:\Users\a5050395\AppData\Local\Temp\ccL5WzBl.s:1618   .text._ZN11flatbuffers17FlatBufferBuilder12CreateVectorIN6tflite6BufferEEENS_6OffsetINS_6VectorINS4_IT_EEEEEEPKS7_j.constprop.136:00000000 $a
C:\Users\a5050395\AppData\Local\Temp\ccL5WzBl.s:1623   .text._ZN11flatbuffers17FlatBufferBuilder12CreateVectorIN6tflite6BufferEEENS_6OffsetINS_6VectorINS4_IT_EEEEEEPKS7_j.constprop.136:00000000 _ZN11flatbuffers17FlatBufferBuilder12CreateVectorIN6tflite6BufferEEENS_6OffsetINS_6VectorINS4_IT_EEEEEEPKS7_j.constprop.136
C:\Users\a5050395\AppData\Local\Temp\ccL5WzBl.s:13125  .rodata._ZN11flatbuffers17FlatBufferBuilder12CreateVectorIN6tflite6BufferEEENS_6OffsetINS_6VectorINS4_IT_EEEEEEPKS7_j.constprop.136.str1.4:00000000 .LC25
C:\Users\a5050395\AppData\Local\Temp\ccL5WzBl.s:13316  .rodata._ZZN11flatbuffers17FlatBufferBuilder7ReferToEmE19__PRETTY_FUNCTION__:00000000 .LANCHOR13
C:\Users\a5050395\AppData\Local\Temp\ccL5WzBl.s:13127  .rodata._ZN11flatbuffers17FlatBufferBuilder12CreateVectorIN6tflite6BufferEEENS_6OffsetINS_6VectorINS4_IT_EEEEEEPKS7_j.constprop.136.str1.4:00000018 .LC26
C:\Users\a5050395\AppData\Local\Temp\ccL5WzBl.s:13332  .rodata._ZZN11flatbuffers17FlatBufferBuilder9EndVectorEjE19__PRETTY_FUNCTION__:00000000 .LANCHOR14
.ARM.exidx.text._ZN11flatbuffers17FlatBufferBuilder12CreateVectorIN6tflite6BufferEEENS_6OffsetINS_6VectorINS4_IT_EEEEEEPKS7_j.constprop.136:00000000 $d
C:\Users\a5050395\AppData\Local\Temp\ccL5WzBl.s:1772   .text._ZN11flatbuffers17FlatBufferBuilder12CreateVectorIN6tflite6TensorEEENS_6OffsetINS_6VectorINS4_IT_EEEEEEPKS7_j.constprop.125:00000000 $a
C:\Users\a5050395\AppData\Local\Temp\ccL5WzBl.s:1777   .text._ZN11flatbuffers17FlatBufferBuilder12CreateVectorIN6tflite6TensorEEENS_6OffsetINS_6VectorINS4_IT_EEEEEEPKS7_j.constprop.125:00000000 _ZN11flatbuffers17FlatBufferBuilder12CreateVectorIN6tflite6TensorEEENS_6OffsetINS_6VectorINS4_IT_EEEEEEPKS7_j.constprop.125
.ARM.exidx.text._ZN11flatbuffers17FlatBufferBuilder12CreateVectorIN6tflite6TensorEEENS_6OffsetINS_6VectorINS4_IT_EEEEEEPKS7_j.constprop.125:00000000 $d
C:\Users\a5050395\AppData\Local\Temp\ccL5WzBl.s:1927   .text._ZN11flatbuffers17FlatBufferBuilder12CreateVectorIN6tflite8OperatorEEENS_6OffsetINS_6VectorINS4_IT_EEEEEEPKS7_j.constprop.129:00000000 $a
C:\Users\a5050395\AppData\Local\Temp\ccL5WzBl.s:1932   .text._ZN11flatbuffers17FlatBufferBuilder12CreateVectorIN6tflite8OperatorEEENS_6OffsetINS_6VectorINS4_IT_EEEEEEPKS7_j.constprop.129:00000000 _ZN11flatbuffers17FlatBufferBuilder12CreateVectorIN6tflite8OperatorEEENS_6OffsetINS_6VectorINS4_IT_EEEEEEPKS7_j.constprop.129
.ARM.exidx.text._ZN11flatbuffers17FlatBufferBuilder12CreateVectorIN6tflite8OperatorEEENS_6OffsetINS_6VectorINS4_IT_EEEEEEPKS7_j.constprop.129:00000000 $d
C:\Users\a5050395\AppData\Local\Temp\ccL5WzBl.s:2081   .text._ZN11flatbuffers17FlatBufferBuilder12CreateVectorIN6tflite12OperatorCodeEEENS_6OffsetINS_6VectorINS4_IT_EEEEEEPKS7_j.constprop.130:00000000 $a
C:\Users\a5050395\AppData\Local\Temp\ccL5WzBl.s:2086   .text._ZN11flatbuffers17FlatBufferBuilder12CreateVectorIN6tflite12OperatorCodeEEENS_6OffsetINS_6VectorINS4_IT_EEEEEEPKS7_j.constprop.130:00000000 _ZN11flatbuffers17FlatBufferBuilder12CreateVectorIN6tflite12OperatorCodeEEENS_6OffsetINS_6VectorINS4_IT_EEEEEEPKS7_j.constprop.130
.ARM.exidx.text._ZN11flatbuffers17FlatBufferBuilder12CreateVectorIN6tflite12OperatorCodeEEENS_6OffsetINS_6VectorINS4_IT_EEEEEEPKS7_j.constprop.130:00000000 $d
C:\Users\a5050395\AppData\Local\Temp\ccL5WzBl.s:2235   .text._ZN11flatbuffers17FlatBufferBuilder12CreateVectorIN6tflite8SubGraphEEENS_6OffsetINS_6VectorINS4_IT_EEEEEEPKS7_j.constprop.132:00000000 $a
C:\Users\a5050395\AppData\Local\Temp\ccL5WzBl.s:2240   .text._ZN11flatbuffers17FlatBufferBuilder12CreateVectorIN6tflite8SubGraphEEENS_6OffsetINS_6VectorINS4_IT_EEEEEEPKS7_j.constprop.132:00000000 _ZN11flatbuffers17FlatBufferBuilder12CreateVectorIN6tflite8SubGraphEEENS_6OffsetINS_6VectorINS4_IT_EEEEEEPKS7_j.constprop.132
.ARM.exidx.text._ZN11flatbuffers17FlatBufferBuilder12CreateVectorIN6tflite8SubGraphEEENS_6OffsetINS_6VectorINS4_IT_EEEEEEPKS7_j.constprop.132:00000000 $d
C:\Users\a5050395\AppData\Local\Temp\ccL5WzBl.s:2389   .text._ZN11flatbuffers17FlatBufferBuilder7ReferToEm:00000000 $a
C:\Users\a5050395\AppData\Local\Temp\ccL5WzBl.s:2395   .text._ZN11flatbuffers17FlatBufferBuilder7ReferToEm:00000000 _ZN11flatbuffers17FlatBufferBuilder7ReferToEm
.ARM.exidx.text._ZN11flatbuffers17FlatBufferBuilder7ReferToEm:00000000 $d
C:\Users\a5050395\AppData\Local\Temp\ccL5WzBl.s:2454   .text._ZN11flatbuffers17FlatBufferBuilder6FinishEmPKcb.constprop.146:00000000 $a
C:\Users\a5050395\AppData\Local\Temp\ccL5WzBl.s:2459   .text._ZN11flatbuffers17FlatBufferBuilder6FinishEmPKcb.constprop.146:00000000 _ZN11flatbuffers17FlatBufferBuilder6FinishEmPKcb.constprop.146
C:\Users\a5050395\AppData\Local\Temp\ccL5WzBl.s:13131  .rodata._ZN11flatbuffers17FlatBufferBuilder6FinishEmPKcb.constprop.146.str1.4:00000000 .LC27
.ARM.exidx.text._ZN11flatbuffers17FlatBufferBuilder6FinishEmPKcb.constprop.146:00000000 $d
C:\Users\a5050395\AppData\Local\Temp\ccL5WzBl.s:2567   .text._ZN11flatbuffers17FlatBufferBuilder8EndTableEm:00000000 $a
C:\Users\a5050395\AppData\Local\Temp\ccL5WzBl.s:2573   .text._ZN11flatbuffers17FlatBufferBuilder8EndTableEm:00000000 _ZN11flatbuffers17FlatBufferBuilder8EndTableEm
C:\Users\a5050395\AppData\Local\Temp\ccL5WzBl.s:13140  .rodata._ZN11flatbuffers17FlatBufferBuilder8EndTableEm.str1.4:00000028 .LC30
C:\Users\a5050395\AppData\Local\Temp\ccL5WzBl.s:13324  .rodata._ZZN11flatbuffers17FlatBufferBuilder8EndTableEmE19__PRETTY_FUNCTION__:00000000 .LANCHOR15
C:\Users\a5050395\AppData\Local\Temp\ccL5WzBl.s:13137  .rodata._ZN11flatbuffers17FlatBufferBuilder8EndTableEm.str1.4:0000001c .LC29
C:\Users\a5050395\AppData\Local\Temp\ccL5WzBl.s:13356  .rodata._ZZNK11flatbuffers15vector_downward11scratch_endEvE19__PRETTY_FUNCTION__:00000000 .LANCHOR16
C:\Users\a5050395\AppData\Local\Temp\ccL5WzBl.s:13144  .rodata._ZN11flatbuffers17FlatBufferBuilder8EndTableEm.str1.4:00000064 .LC31
C:\Users\a5050395\AppData\Local\Temp\ccL5WzBl.s:13364  .rodata._ZZNK11flatbuffers15vector_downward12scratch_dataEvE19__PRETTY_FUNCTION__:00000000 .LANCHOR17
C:\Users\a5050395\AppData\Local\Temp\ccL5WzBl.s:13135  .rodata._ZN11flatbuffers17FlatBufferBuilder8EndTableEm.str1.4:00000000 .LC28
.ARM.exidx.text._ZN11flatbuffers17FlatBufferBuilder8EndTableEm:00000000 $d
C:\Users\a5050395\AppData\Local\Temp\ccL5WzBl.s:2801   .text._ZN6tflite12CreateTensorERN11flatbuffers17FlatBufferBuilderENS0_6OffsetINS0_6VectorIlEEEENS_10TensorTypeEmNS3_INS0_6StringEEENS3_INS_22QuantizationParametersEEEbNS3_INS_18SparsityParametersEEES6_.constprop.144:00000000 $a
C:\Users\a5050395\AppData\Local\Temp\ccL5WzBl.s:2806   .text._ZN6tflite12CreateTensorERN11flatbuffers17FlatBufferBuilderENS0_6OffsetINS0_6VectorIlEEEENS_10TensorTypeEmNS3_INS0_6StringEEENS3_INS_22QuantizationParametersEEEbNS3_INS_18SparsityParametersEEES6_.constprop.144:00000000 _ZN6tflite12CreateTensorERN11flatbuffers17FlatBufferBuilderENS0_6OffsetINS0_6VectorIlEEEENS_10TensorTypeEmNS3_INS0_6StringEEENS3_INS_22QuantizationParametersEEEbNS3_INS_18SparsityParametersEEES6_.constprop.144
.ARM.exidx.text._ZN6tflite12CreateTensorERN11flatbuffers17FlatBufferBuilderENS0_6OffsetINS0_6VectorIlEEEENS_10TensorTypeEmNS3_INS0_6StringEEENS3_INS_22QuantizationParametersEEEbNS3_INS_18SparsityParametersEEES6_.constprop.144:00000000 $d
C:\Users\a5050395\AppData\Local\Temp\ccL5WzBl.s:3090   .text._ZN6tflite12CreateTensorERN11flatbuffers17FlatBufferBuilderENS0_6OffsetINS0_6VectorIlEEEENS_10TensorTypeEmNS3_INS0_6StringEEENS3_INS_22QuantizationParametersEEEbNS3_INS_18SparsityParametersEEES6_.constprop.145:00000000 $a
C:\Users\a5050395\AppData\Local\Temp\ccL5WzBl.s:3095   .text._ZN6tflite12CreateTensorERN11flatbuffers17FlatBufferBuilderENS0_6OffsetINS0_6VectorIlEEEENS_10TensorTypeEmNS3_INS0_6StringEEENS3_INS_22QuantizationParametersEEEbNS3_INS_18SparsityParametersEEES6_.constprop.145:00000000 _ZN6tflite12CreateTensorERN11flatbuffers17FlatBufferBuilderENS0_6OffsetINS0_6VectorIlEEEENS_10TensorTypeEmNS3_INS0_6StringEEENS3_INS_22QuantizationParametersEEEbNS3_INS_18SparsityParametersEEES6_.constprop.145
.ARM.exidx.text._ZN6tflite12CreateTensorERN11flatbuffers17FlatBufferBuilderENS0_6OffsetINS0_6VectorIlEEEENS_10TensorTypeEmNS3_INS0_6StringEEENS3_INS_22QuantizationParametersEEEbNS3_INS_18SparsityParametersEEES6_.constprop.145:00000000 $d
C:\Users\a5050395\AppData\Local\Temp\ccL5WzBl.s:3376   .text._ZN11flatbuffers17FlatBufferBuilder12CreateStringEPKcj:00000000 $a
C:\Users\a5050395\AppData\Local\Temp\ccL5WzBl.s:3382   .text._ZN11flatbuffers17FlatBufferBuilder12CreateStringEPKcj:00000000 _ZN11flatbuffers17FlatBufferBuilder12CreateStringEPKcj
.ARM.exidx.text._ZN11flatbuffers17FlatBufferBuilder12CreateStringEPKcj:00000000 $d
C:\Users\a5050395\AppData\Local\Temp\ccL5WzBl.s:3502   .text._ZN6tflite24CreateOperatorCodeDirectERN11flatbuffers17FlatBufferBuilderEaPKclNS_15BuiltinOperatorE.constprop.143:00000000 $a
C:\Users\a5050395\AppData\Local\Temp\ccL5WzBl.s:3507   .text._ZN6tflite24CreateOperatorCodeDirectERN11flatbuffers17FlatBufferBuilderEaPKclNS_15BuiltinOperatorE.constprop.143:00000000 _ZN6tflite24CreateOperatorCodeDirectERN11flatbuffers17FlatBufferBuilderEaPKclNS_15BuiltinOperatorE.constprop.143
.ARM.exidx.text._ZN6tflite24CreateOperatorCodeDirectERN11flatbuffers17FlatBufferBuilderEaPKclNS_15BuiltinOperatorE.constprop.143:00000000 $d
C:\Users\a5050395\AppData\Local\Temp\ccL5WzBl.s:3788   .text._ZN11flatbuffers17FlatBufferBuilder9EndVectorEj:00000000 $a
C:\Users\a5050395\AppData\Local\Temp\ccL5WzBl.s:3794   .text._ZN11flatbuffers17FlatBufferBuilder9EndVectorEj:00000000 _ZN11flatbuffers17FlatBufferBuilder9EndVectorEj
.ARM.exidx.text._ZN11flatbuffers17FlatBufferBuilder9EndVectorEj:00000000 $d
C:\Users\a5050395\AppData\Local\Temp\ccL5WzBl.s:3858   .text._ZN11flatbuffers17FlatBufferBuilder12CreateVectorIlEENS_6OffsetINS_6VectorIT_EEEEPKS4_j.constprop.140:00000000 $a
C:\Users\a5050395\AppData\Local\Temp\ccL5WzBl.s:3863   .text._ZN11flatbuffers17FlatBufferBuilder12CreateVectorIlEENS_6OffsetINS_6VectorIT_EEEEPKS4_j.constprop.140:00000000 _ZN11flatbuffers17FlatBufferBuilder12CreateVectorIlEENS_6OffsetINS_6VectorIT_EEEEPKS4_j.constprop.140
.ARM.exidx.text._ZN11flatbuffers17FlatBufferBuilder12CreateVectorIlEENS_6OffsetINS_6VectorIT_EEEEPKS4_j.constprop.140:00000000 $d
C:\Users\a5050395\AppData\Local\Temp\ccL5WzBl.s:3890   .text._ZN11flatbuffers17FlatBufferBuilder12CreateVectorIlEENS_6OffsetINS_6VectorIT_EEEEPKS4_j.constprop.141:00000000 $a
C:\Users\a5050395\AppData\Local\Temp\ccL5WzBl.s:3895   .text._ZN11flatbuffers17FlatBufferBuilder12CreateVectorIlEENS_6OffsetINS_6VectorIT_EEEEPKS4_j.constprop.141:00000000 _ZN11flatbuffers17FlatBufferBuilder12CreateVectorIlEENS_6OffsetINS_6VectorIT_EEEEPKS4_j.constprop.141
.ARM.exidx.text._ZN11flatbuffers17FlatBufferBuilder12CreateVectorIlEENS_6OffsetINS_6VectorIT_EEEEPKS4_j.constprop.141:00000000 $d
C:\Users\a5050395\AppData\Local\Temp\ccL5WzBl.s:3922   .text._ZN6tflite7testing12_GLOBAL__N_112ModelBuilder13AddTensorImplENS_10TensorTypeEbSt16initializer_listIlE.constprop.122:00000000 $a
C:\Users\a5050395\AppData\Local\Temp\ccL5WzBl.s:3927   .text._ZN6tflite7testing12_GLOBAL__N_112ModelBuilder13AddTensorImplENS_10TensorTypeEbSt16initializer_listIlE.constprop.122:00000000 _ZN6tflite7testing12_GLOBAL__N_112ModelBuilder13AddTensorImplENS_10TensorTypeEbSt16initializer_listIlE.constprop.122
.ARM.exidx.text._ZN6tflite7testing12_GLOBAL__N_112ModelBuilder13AddTensorImplENS_10TensorTypeEbSt16initializer_listIlE.constprop.122:00000000 $d
C:\Users\a5050395\AppData\Local\Temp\ccL5WzBl.s:3983   .text._ZN6tflite12CreateTensorERN11flatbuffers17FlatBufferBuilderENS0_6OffsetINS0_6VectorIlEEEENS_10TensorTypeEmNS3_INS0_6StringEEENS3_INS_22QuantizationParametersEEEbNS3_INS_18SparsityParametersEEES6_:00000000 $a
C:\Users\a5050395\AppData\Local\Temp\ccL5WzBl.s:3989   .text._ZN6tflite12CreateTensorERN11flatbuffers17FlatBufferBuilderENS0_6OffsetINS0_6VectorIlEEEENS_10TensorTypeEmNS3_INS0_6StringEEENS3_INS_22QuantizationParametersEEEbNS3_INS_18SparsityParametersEEES6_:00000000 _ZN6tflite12CreateTensorERN11flatbuffers17FlatBufferBuilderENS0_6OffsetINS0_6VectorIlEEEENS_10TensorTypeEmNS3_INS0_6StringEEENS3_INS_22QuantizationParametersEEEbNS3_INS_18SparsityParametersEEES6_
.ARM.exidx.text._ZN6tflite12CreateTensorERN11flatbuffers17FlatBufferBuilderENS0_6OffsetINS0_6VectorIlEEEENS_10TensorTypeEmNS3_INS0_6StringEEENS3_INS_22QuantizationParametersEEEbNS3_INS_18SparsityParametersEEES6_:00000000 $d
C:\Users\a5050395\AppData\Local\Temp\ccL5WzBl.s:4281   .text._ZN6tflite14CreateOperatorERN11flatbuffers17FlatBufferBuilderEmNS0_6OffsetINS0_6VectorIlEEEES6_NS_14BuiltinOptionsENS3_IvEENS3_INS4_IhEEEENS_19CustomOptionsFormatESA_S6_:00000000 $a
C:\Users\a5050395\AppData\Local\Temp\ccL5WzBl.s:4287   .text._ZN6tflite14CreateOperatorERN11flatbuffers17FlatBufferBuilderEmNS0_6OffsetINS0_6VectorIlEEEES6_NS_14BuiltinOptionsENS3_IvEENS3_INS4_IhEEEENS_19CustomOptionsFormatESA_S6_:00000000 _ZN6tflite14CreateOperatorERN11flatbuffers17FlatBufferBuilderEmNS0_6OffsetINS0_6VectorIlEEEES6_NS_14BuiltinOptionsENS3_IvEENS3_INS4_IhEEEENS_19CustomOptionsFormatESA_S6_
.ARM.exidx.text._ZN6tflite14CreateOperatorERN11flatbuffers17FlatBufferBuilderEmNS0_6OffsetINS0_6VectorIlEEEES6_NS_14BuiltinOptionsENS3_IvEENS3_INS4_IhEEEENS_19CustomOptionsFormatESA_S6_:00000000 $d
C:\Users\a5050395\AppData\Local\Temp\ccL5WzBl.s:4597   .text._ZN6tflite7testing12_GLOBAL__N_112ModelBuilder7AddNodeEiSt16initializer_listIlES4_:00000000 $a
C:\Users\a5050395\AppData\Local\Temp\ccL5WzBl.s:4602   .text._ZN6tflite7testing12_GLOBAL__N_112ModelBuilder7AddNodeEiSt16initializer_listIlES4_:00000000 _ZN6tflite7testing12_GLOBAL__N_112ModelBuilder7AddNodeEiSt16initializer_listIlES4_
.ARM.exidx.text._ZN6tflite7testing12_GLOBAL__N_112ModelBuilder7AddNodeEiSt16initializer_listIlES4_:00000000 $d
C:\Users\a5050395\AppData\Local\Temp\ccL5WzBl.s:4695   .text._ZN6tflite14CreateSubGraphERN11flatbuffers17FlatBufferBuilderENS0_6OffsetINS0_6VectorINS3_INS_6TensorEEEEEEENS3_INS4_IlEEEESA_NS3_INS4_INS3_INS_8OperatorEEEEEEENS3_INS0_6StringEEE:00000000 $a
C:\Users\a5050395\AppData\Local\Temp\ccL5WzBl.s:4701   .text._ZN6tflite14CreateSubGraphERN11flatbuffers17FlatBufferBuilderENS0_6OffsetINS0_6VectorINS3_INS_6TensorEEEEEEENS3_INS4_IlEEEESA_NS3_INS4_INS3_INS_8OperatorEEEEEEENS3_INS0_6StringEEE:00000000 _ZN6tflite14CreateSubGraphERN11flatbuffers17FlatBufferBuilderENS0_6OffsetINS0_6VectorINS3_INS_6TensorEEEEEEENS3_INS4_IlEEEESA_NS3_INS4_INS3_INS_8OperatorEEEEEEENS3_INS0_6StringEEE
.ARM.exidx.text._ZN6tflite14CreateSubGraphERN11flatbuffers17FlatBufferBuilderENS0_6OffsetINS0_6VectorINS3_INS_6TensorEEEEEEENS3_INS4_IlEEEESA_NS3_INS4_INS3_INS_8OperatorEEEEEEENS3_INS0_6StringEEE:00000000 $d
C:\Users\a5050395\AppData\Local\Temp\ccL5WzBl.s:4832   .text._ZN6tflite12CreateBufferERN11flatbuffers17FlatBufferBuilderENS0_6OffsetINS0_6VectorIhEEEE:00000000 $a
C:\Users\a5050395\AppData\Local\Temp\ccL5WzBl.s:4838   .text._ZN6tflite12CreateBufferERN11flatbuffers17FlatBufferBuilderENS0_6OffsetINS0_6VectorIhEEEE:00000000 _ZN6tflite12CreateBufferERN11flatbuffers17FlatBufferBuilderENS0_6OffsetINS0_6VectorIhEEEE
.ARM.exidx.text._ZN6tflite12CreateBufferERN11flatbuffers17FlatBufferBuilderENS0_6OffsetINS0_6VectorIhEEEE:00000000 $d
C:\Users\a5050395\AppData\Local\Temp\ccL5WzBl.s:4946   .text._ZN6tflite11CreateModelERN11flatbuffers17FlatBufferBuilderEmNS0_6OffsetINS0_6VectorINS3_INS_12OperatorCodeEEEEEEENS3_INS4_INS3_INS_8SubGraphEEEEEEENS3_INS0_6StringEEENS3_INS4_INS3_INS_6BufferEEEEEEENS3_INS4_IlEEEENS3_INS4_INS3_INS_8MetadataEEEEEEENS3_INS4_INS3_INS_12SignatureDefEEEEEEE:00000000 $a
C:\Users\a5050395\AppData\Local\Temp\ccL5WzBl.s:4952   .text._ZN6tflite11CreateModelERN11flatbuffers17FlatBufferBuilderEmNS0_6OffsetINS0_6VectorINS3_INS_12OperatorCodeEEEEEEENS3_INS4_INS3_INS_8SubGraphEEEEEEENS3_INS0_6StringEEENS3_INS4_INS3_INS_6BufferEEEEEEENS3_INS4_IlEEEENS3_INS4_INS3_INS_8MetadataEEEEEEENS3_INS4_INS3_INS_12SignatureDefEEEEEEE:00000000 _ZN6tflite11CreateModelERN11flatbuffers17FlatBufferBuilderEmNS0_6OffsetINS0_6VectorINS3_INS_12OperatorCodeEEEEEEENS3_INS4_INS3_INS_8SubGraphEEEEEEENS3_INS0_6StringEEENS3_INS4_INS3_INS_6BufferEEEEEEENS3_INS4_IlEEEENS3_INS4_INS3_INS_8MetadataEEEEEEENS3_INS4_INS3_INS_12SignatureDefEEEEEEE
.ARM.exidx.text._ZN6tflite11CreateModelERN11flatbuffers17FlatBufferBuilderEmNS0_6OffsetINS0_6VectorINS3_INS_12OperatorCodeEEEEEEENS3_INS4_INS3_INS_8SubGraphEEEEEEENS3_INS0_6StringEEENS3_INS4_INS3_INS_6BufferEEEEEEENS3_INS4_IlEEEENS3_INS4_INS3_INS_8MetadataEEEEEEENS3_INS4_INS3_INS_12SignatureDefEEEEEEE:00000000 $d
C:\Users\a5050395\AppData\Local\Temp\ccL5WzBl.s:5180   .text._ZN6tflite7testing12_GLOBAL__N_112ModelBuilder10BuildModelESt16initializer_listIlES4_j:00000000 $a
C:\Users\a5050395\AppData\Local\Temp\ccL5WzBl.s:5185   .text._ZN6tflite7testing12_GLOBAL__N_112ModelBuilder10BuildModelESt16initializer_listIlES4_j:00000000 _ZN6tflite7testing12_GLOBAL__N_112ModelBuilder10BuildModelESt16initializer_listIlES4_j
C:\Users\a5050395\AppData\Local\Temp\ccL5WzBl.s:13160  .rodata._ZN6tflite7testing12_GLOBAL__N_112ModelBuilder10BuildModelESt16initializer_listIlES4_j.str1.4:00000000 .LC32
C:\Users\a5050395\AppData\Local\Temp\ccL5WzBl.s:13163  .rodata._ZN6tflite7testing12_GLOBAL__N_112ModelBuilder10BuildModelESt16initializer_listIlES4_j.str1.4:00000010 .LC33
C:\Users\a5050395\AppData\Local\Temp\ccL5WzBl.s:13165  .rodata._ZN6tflite7testing12_GLOBAL__N_112ModelBuilder10BuildModelESt16initializer_listIlES4_j.str1.4:0000001c .LC34
C:\Users\a5050395\AppData\Local\Temp\ccL5WzBl.s:13380  .rodata._ZZNK11flatbuffers17FlatBufferBuilder8FinishedEvE19__PRETTY_FUNCTION__:00000000 .LANCHOR18
.ARM.exidx.text._ZN6tflite7testing12_GLOBAL__N_112ModelBuilder10BuildModelESt16initializer_listIlES4_j:00000000 $d
C:\Users\a5050395\AppData\Local\Temp\ccL5WzBl.s:5992   .text._ZN6tflite7testing12_GLOBAL__N_126BuildSimpleModelWithBranchEv:00000000 $a
C:\Users\a5050395\AppData\Local\Temp\ccL5WzBl.s:5997   .text._ZN6tflite7testing12_GLOBAL__N_126BuildSimpleModelWithBranchEv:00000000 _ZN6tflite7testing12_GLOBAL__N_126BuildSimpleModelWithBranchEv
C:\Users\a5050395\AppData\Local\Temp\ccL5WzBl.s:13173  .rodata._ZN6tflite7testing12_GLOBAL__N_126BuildSimpleModelWithBranchEv.str1.4:00000000 .LC35
C:\Users\a5050395\AppData\Local\Temp\ccL5WzBl.s:13040  .rodata.._141:00000000 .LANCHOR19
C:\Users\a5050395\AppData\Local\Temp\ccL5WzBl.s:13049  .rodata.._142:00000000 .LANCHOR20
C:\Users\a5050395\AppData\Local\Temp\ccL5WzBl.s:13058  .rodata.._143:00000000 .LANCHOR21
C:\Users\a5050395\AppData\Local\Temp\ccL5WzBl.s:13067  .rodata.._144:00000000 .LANCHOR22
.ARM.exidx.text._ZN6tflite7testing12_GLOBAL__N_126BuildSimpleModelWithBranchEv:00000000 $d
C:\Users\a5050395\AppData\Local\Temp\ccL5WzBl.s:6206   .text._ZN6tflite7testing12_GLOBAL__N_129BuildModelWithOfflinePlanningEiPKlPNS0_15NodeConnection_Eii:00000000 $a
C:\Users\a5050395\AppData\Local\Temp\ccL5WzBl.s:6211   .text._ZN6tflite7testing12_GLOBAL__N_129BuildModelWithOfflinePlanningEiPKlPNS0_15NodeConnection_Eii:00000000 _ZN6tflite7testing12_GLOBAL__N_129BuildModelWithOfflinePlanningEiPKlPNS0_15NodeConnection_Eii
C:\Users\a5050395\AppData\Local\Temp\ccL5WzBl.s:13076  .rodata.._145:00000000 .LANCHOR23
C:\Users\a5050395\AppData\Local\Temp\ccL5WzBl.s:13177  .rodata._ZN6tflite7testing12_GLOBAL__N_129BuildModelWithOfflinePlanningEiPKlPNS0_15NodeConnection_Eii.str1.4:00000000 .LC36
.ARM.exidx.text._ZN6tflite7testing12_GLOBAL__N_129BuildModelWithOfflinePlanningEiPKlPNS0_15NodeConnection_Eii:00000000 $d
C:\Users\a5050395\AppData\Local\Temp\ccL5WzBl.s:7086   .text._ZN6tflite7testing12_GLOBAL__N_124BuildSimpleStatefulModelEv:00000000 $a
C:\Users\a5050395\AppData\Local\Temp\ccL5WzBl.s:7091   .text._ZN6tflite7testing12_GLOBAL__N_124BuildSimpleStatefulModelEv:00000000 _ZN6tflite7testing12_GLOBAL__N_124BuildSimpleStatefulModelEv
C:\Users\a5050395\AppData\Local\Temp\ccL5WzBl.s:13169  .rodata._ZN6tflite7testing12_GLOBAL__N_124BuildSimpleStatefulModelEv.str1.4:00000000 .LC37
C:\Users\a5050395\AppData\Local\Temp\ccL5WzBl.s:13019  .rodata.._138:00000000 .LANCHOR24
C:\Users\a5050395\AppData\Local\Temp\ccL5WzBl.s:13026  .rodata.._139:00000000 .LANCHOR25
C:\Users\a5050395\AppData\Local\Temp\ccL5WzBl.s:13033  .rodata.._140:00000000 .LANCHOR26
.ARM.exidx.text._ZN6tflite7testing12_GLOBAL__N_124BuildSimpleStatefulModelEv:00000000 $d
C:\Users\a5050395\AppData\Local\Temp\ccL5WzBl.s:7339   .text._ZN6tflite7testing16SimpleStatefulOp15getRegistrationEv:00000000 $a
C:\Users\a5050395\AppData\Local\Temp\ccL5WzBl.s:7345   .text._ZN6tflite7testing16SimpleStatefulOp15getRegistrationEv:00000000 _ZN6tflite7testing16SimpleStatefulOp15getRegistrationEv
C:\Users\a5050395\AppData\Local\Temp\ccL5WzBl.s:12957  .bss._ZZN6tflite7testing16SimpleStatefulOp22GetMutableRegistrationEvE1r:00000000 .LANCHOR27
.ARM.exidx.text._ZN6tflite7testing16SimpleStatefulOp15getRegistrationEv:00000000 $d
C:\Users\a5050395\AppData\Local\Temp\ccL5WzBl.s:7368   .text._ZN6tflite7testing16SimpleStatefulOp22GetMutableRegistrationEv:00000000 $a
C:\Users\a5050395\AppData\Local\Temp\ccL5WzBl.s:7374   .text._ZN6tflite7testing16SimpleStatefulOp22GetMutableRegistrationEv:00000000 _ZN6tflite7testing16SimpleStatefulOp22GetMutableRegistrationEv
.ARM.exidx.text._ZN6tflite7testing16SimpleStatefulOp22GetMutableRegistrationEv:00000000 $d
C:\Users\a5050395\AppData\Local\Temp\ccL5WzBl.s:7397   .text._ZN6tflite7testing10MockCustom15getRegistrationEv:00000000 $a
C:\Users\a5050395\AppData\Local\Temp\ccL5WzBl.s:7403   .text._ZN6tflite7testing10MockCustom15getRegistrationEv:00000000 _ZN6tflite7testing10MockCustom15getRegistrationEv
C:\Users\a5050395\AppData\Local\Temp\ccL5WzBl.s:12915  .bss._ZZN6tflite7testing10MockCustom22GetMutableRegistrationEvE1r:00000000 .LANCHOR28
.ARM.exidx.text._ZN6tflite7testing10MockCustom15getRegistrationEv:00000000 $d
C:\Users\a5050395\AppData\Local\Temp\ccL5WzBl.s:7434   .text._ZN6tflite7testing10MockCustom22GetMutableRegistrationEv:00000000 $a
C:\Users\a5050395\AppData\Local\Temp\ccL5WzBl.s:7440   .text._ZN6tflite7testing10MockCustom22GetMutableRegistrationEv:00000000 _ZN6tflite7testing10MockCustom22GetMutableRegistrationEv
.ARM.exidx.text._ZN6tflite7testing10MockCustom22GetMutableRegistrationEv:00000000 $d
C:\Users\a5050395\AppData\Local\Temp\ccL5WzBl.s:7471   .text._ZN6tflite7testing14MultipleInputs15getRegistrationEv:00000000 $a
C:\Users\a5050395\AppData\Local\Temp\ccL5WzBl.s:7477   .text._ZN6tflite7testing14MultipleInputs15getRegistrationEv:00000000 _ZN6tflite7testing14MultipleInputs15getRegistrationEv
C:\Users\a5050395\AppData\Local\Temp\ccL5WzBl.s:12950  .bss._ZZN6tflite7testing14MultipleInputs22GetMutableRegistrationEvE1r:00000000 .LANCHOR29
.ARM.exidx.text._ZN6tflite7testing14MultipleInputs15getRegistrationEv:00000000 $d
C:\Users\a5050395\AppData\Local\Temp\ccL5WzBl.s:7508   .text._ZN6tflite7testing14MultipleInputs22GetMutableRegistrationEv:00000000 $a
C:\Users\a5050395\AppData\Local\Temp\ccL5WzBl.s:7514   .text._ZN6tflite7testing14MultipleInputs22GetMutableRegistrationEv:00000000 _ZN6tflite7testing14MultipleInputs22GetMutableRegistrationEv
.ARM.exidx.text._ZN6tflite7testing14MultipleInputs22GetMutableRegistrationEv:00000000 $d
C:\Users\a5050395\AppData\Local\Temp\ccL5WzBl.s:7545   .text._ZN6tflite7testing13GetOpResolverEv:00000000 $a
C:\Users\a5050395\AppData\Local\Temp\ccL5WzBl.s:7551   .text._ZN6tflite7testing13GetOpResolverEv:00000000 _ZN6tflite7testing13GetOpResolverEv
C:\Users\a5050395\AppData\Local\Temp\ccL5WzBl.s:13181  .rodata._ZN6tflite7testing13GetOpResolverEv.str1.4:00000000 .LC38
.ARM.extab.text._ZN6tflite7testing13GetOpResolverEv:00000000 $d
.ARM.exidx.text._ZN6tflite7testing13GetOpResolverEv:00000000 $d
C:\Users\a5050395\AppData\Local\Temp\ccL5WzBl.s:7846   .text._ZN6tflite7testing24GetModelWithUnusedInputsEv:00000000 $a
C:\Users\a5050395\AppData\Local\Temp\ccL5WzBl.s:7852   .text._ZN6tflite7testing24GetModelWithUnusedInputsEv:00000000 _ZN6tflite7testing24GetModelWithUnusedInputsEv
C:\Users\a5050395\AppData\Local\Temp\ccL5WzBl.s:12985  .bss._ZZN6tflite7testing24GetModelWithUnusedInputsEvE5model:00000000 .LANCHOR30
C:\Users\a5050395\AppData\Local\Temp\ccL5WzBl.s:13230  .rodata._ZN6tflite7testing24GetModelWithUnusedInputsEv.str1.4:00000000 .LC39
C:\Users\a5050395\AppData\Local\Temp\ccL5WzBl.s:13233  .rodata._ZN6tflite7testing24GetModelWithUnusedInputsEv.str1.4:00000014 .LC40
C:\Users\a5050395\AppData\Local\Temp\ccL5WzBl.s:13236  .rodata._ZN6tflite7testing24GetModelWithUnusedInputsEv.str1.4:00000030 .LC41
C:\Users\a5050395\AppData\Local\Temp\ccL5WzBl.s:13239  .rodata._ZN6tflite7testing24GetModelWithUnusedInputsEv.str1.4:00000044 .LC42
C:\Users\a5050395\AppData\Local\Temp\ccL5WzBl.s:13242  .rodata._ZN6tflite7testing24GetModelWithUnusedInputsEv.str1.4:00000058 .LC43
C:\Users\a5050395\AppData\Local\Temp\ccL5WzBl.s:8079   .text._ZN6tflite7testing24GetModelWithUnusedInputsEv:00000350 $d
.ARM.exidx.text._ZN6tflite7testing24GetModelWithUnusedInputsEv:00000000 $d
C:\Users\a5050395\AppData\Local\Temp\ccL5WzBl.s:8086   .text._ZN6tflite7testing18GetSimpleMockModelEv:00000000 $a
C:\Users\a5050395\AppData\Local\Temp\ccL5WzBl.s:8092   .text._ZN6tflite7testing18GetSimpleMockModelEv:00000000 _ZN6tflite7testing18GetSimpleMockModelEv
C:\Users\a5050395\AppData\Local\Temp\ccL5WzBl.s:12964  .bss._ZZN6tflite7testing18GetSimpleMockModelEvE5model:00000000 .LANCHOR31
C:\Users\a5050395\AppData\Local\Temp\ccL5WzBl.s:13185  .rodata._ZN6tflite7testing18GetSimpleMockModelEv.str1.4:00000000 .LC44
C:\Users\a5050395\AppData\Local\Temp\ccL5WzBl.s:13188  .rodata._ZN6tflite7testing18GetSimpleMockModelEv.str1.4:00000014 .LC45
C:\Users\a5050395\AppData\Local\Temp\ccL5WzBl.s:8506   .text._ZN6tflite7testing18GetSimpleMockModelEv:00000630 $d
C:\Users\a5050395\AppData\Local\Temp\ccL5WzBl.s:8512   .text._ZN6tflite7testing18GetSimpleMockModelEv:00000640 $a
.ARM.exidx.text._ZN6tflite7testing18GetSimpleMockModelEv:00000000 $d
C:\Users\a5050395\AppData\Local\Temp\ccL5WzBl.s:8585   .text._ZN6tflite7testing28GetSimpleMultipleInputsModelEv:00000000 $a
C:\Users\a5050395\AppData\Local\Temp\ccL5WzBl.s:8591   .text._ZN6tflite7testing28GetSimpleMultipleInputsModelEv:00000000 _ZN6tflite7testing28GetSimpleMultipleInputsModelEv
C:\Users\a5050395\AppData\Local\Temp\ccL5WzBl.s:12999  .bss._ZZN6tflite7testing28GetSimpleMultipleInputsModelEvE5model:00000000 .LANCHOR32
C:\Users\a5050395\AppData\Local\Temp\ccL5WzBl.s:13246  .rodata._ZN6tflite7testing28GetSimpleMultipleInputsModelEv.str1.4:00000000 .LC46
C:\Users\a5050395\AppData\Local\Temp\ccL5WzBl.s:13249  .rodata._ZN6tflite7testing28GetSimpleMultipleInputsModelEv.str1.4:00000014 .LC47
C:\Users\a5050395\AppData\Local\Temp\ccL5WzBl.s:13252  .rodata._ZN6tflite7testing28GetSimpleMultipleInputsModelEv.str1.4:00000028 .LC48
C:\Users\a5050395\AppData\Local\Temp\ccL5WzBl.s:12874  .rodata:00000000 .LANCHOR33
.ARM.exidx.text._ZN6tflite7testing28GetSimpleMultipleInputsModelEv:00000000 $d
C:\Users\a5050395\AppData\Local\Temp\ccL5WzBl.s:8839   .text._ZN6tflite7testing32GetSimpleModelWithSubgraphsAndIfEv:00000000 $a
C:\Users\a5050395\AppData\Local\Temp\ccL5WzBl.s:8845   .text._ZN6tflite7testing32GetSimpleModelWithSubgraphsAndIfEv:00000000 _ZN6tflite7testing32GetSimpleModelWithSubgraphsAndIfEv
C:\Users\a5050395\AppData\Local\Temp\ccL5WzBl.s:13006  .bss._ZZN6tflite7testing32GetSimpleModelWithSubgraphsAndIfEvE5model:00000000 .LANCHOR34
C:\Users\a5050395\AppData\Local\Temp\ccL5WzBl.s:13256  .rodata._ZN6tflite7testing32GetSimpleModelWithSubgraphsAndIfEv.str1.4:00000000 .LC49
C:\Users\a5050395\AppData\Local\Temp\ccL5WzBl.s:13259  .rodata._ZN6tflite7testing32GetSimpleModelWithSubgraphsAndIfEv.str1.4:00000014 .LC50
C:\Users\a5050395\AppData\Local\Temp\ccL5WzBl.s:13262  .rodata._ZN6tflite7testing32GetSimpleModelWithSubgraphsAndIfEv.str1.4:00000024 .LC51
C:\Users\a5050395\AppData\Local\Temp\ccL5WzBl.s:13265  .rodata._ZN6tflite7testing32GetSimpleModelWithSubgraphsAndIfEv.str1.4:00000034 .LC52
C:\Users\a5050395\AppData\Local\Temp\ccL5WzBl.s:9125   .text._ZN6tflite7testing32GetSimpleModelWithSubgraphsAndIfEv:00000430 $d
C:\Users\a5050395\AppData\Local\Temp\ccL5WzBl.s:9129   .text._ZN6tflite7testing32GetSimpleModelWithSubgraphsAndIfEv:00000438 $a
C:\Users\a5050395\AppData\Local\Temp\ccL5WzBl.s:13268  .rodata._ZN6tflite7testing32GetSimpleModelWithSubgraphsAndIfEv.str1.4:00000044 .LC53
C:\Users\a5050395\AppData\Local\Temp\ccL5WzBl.s:13270  .rodata._ZN6tflite7testing32GetSimpleModelWithSubgraphsAndIfEv.str1.4:00000050 .LC54
C:\Users\a5050395\AppData\Local\Temp\ccL5WzBl.s:13273  .rodata._ZN6tflite7testing32GetSimpleModelWithSubgraphsAndIfEv.str1.4:00000060 .LC55
.ARM.exidx.text._ZN6tflite7testing32GetSimpleModelWithSubgraphsAndIfEv:00000000 $d
C:\Users\a5050395\AppData\Local\Temp\ccL5WzBl.s:9893   .text._ZN6tflite7testing19GetComplexMockModelEv:00000000 $a
C:\Users\a5050395\AppData\Local\Temp\ccL5WzBl.s:9899   .text._ZN6tflite7testing19GetComplexMockModelEv:00000000 _ZN6tflite7testing19GetComplexMockModelEv
C:\Users\a5050395\AppData\Local\Temp\ccL5WzBl.s:12971  .bss._ZZN6tflite7testing19GetComplexMockModelEvE5model:00000000 .LANCHOR35
C:\Users\a5050395\AppData\Local\Temp\ccL5WzBl.s:13192  .rodata._ZN6tflite7testing19GetComplexMockModelEv.str1.4:00000000 .LC56
C:\Users\a5050395\AppData\Local\Temp\ccL5WzBl.s:13194  .rodata._ZN6tflite7testing19GetComplexMockModelEv.str1.4:00000014 .LC57
C:\Users\a5050395\AppData\Local\Temp\ccL5WzBl.s:13197  .rodata._ZN6tflite7testing19GetComplexMockModelEv.str1.4:0000002c .LC58
C:\Users\a5050395\AppData\Local\Temp\ccL5WzBl.s:13200  .rodata._ZN6tflite7testing19GetComplexMockModelEv.str1.4:00000044 .LC59
C:\Users\a5050395\AppData\Local\Temp\ccL5WzBl.s:13203  .rodata._ZN6tflite7testing19GetComplexMockModelEv.str1.4:0000005c .LC60
C:\Users\a5050395\AppData\Local\Temp\ccL5WzBl.s:13206  .rodata._ZN6tflite7testing19GetComplexMockModelEv.str1.4:00000074 .LC61
C:\Users\a5050395\AppData\Local\Temp\ccL5WzBl.s:13209  .rodata._ZN6tflite7testing19GetComplexMockModelEv.str1.4:0000008c .LC62
C:\Users\a5050395\AppData\Local\Temp\ccL5WzBl.s:13212  .rodata._ZN6tflite7testing19GetComplexMockModelEv.str1.4:000000a4 .LC63
C:\Users\a5050395\AppData\Local\Temp\ccL5WzBl.s:13215  .rodata._ZN6tflite7testing19GetComplexMockModelEv.str1.4:000000bc .LC64
C:\Users\a5050395\AppData\Local\Temp\ccL5WzBl.s:13218  .rodata._ZN6tflite7testing19GetComplexMockModelEv.str1.4:000000d4 .LC65
.ARM.exidx.text._ZN6tflite7testing19GetComplexMockModelEv:00000000 $d
C:\Users\a5050395\AppData\Local\Temp\ccL5WzBl.s:10870  .text._ZN6tflite7testing24GetSimpleModelWithBranchEv:00000000 $a
C:\Users\a5050395\AppData\Local\Temp\ccL5WzBl.s:10876  .text._ZN6tflite7testing24GetSimpleModelWithBranchEv:00000000 _ZN6tflite7testing24GetSimpleModelWithBranchEv
C:\Users\a5050395\AppData\Local\Temp\ccL5WzBl.s:12992  .bss._ZZN6tflite7testing24GetSimpleModelWithBranchEvE5model:00000000 .LANCHOR36
.ARM.exidx.text._ZN6tflite7testing24GetSimpleModelWithBranchEv:00000000 $d
C:\Users\a5050395\AppData\Local\Temp\ccL5WzBl.s:10894  .text._ZN6tflite7testing27GetModelWithOfflinePlanningEiPKlPNS0_15NodeConnection_Eii:00000000 $a
C:\Users\a5050395\AppData\Local\Temp\ccL5WzBl.s:10900  .text._ZN6tflite7testing27GetModelWithOfflinePlanningEiPKlPNS0_15NodeConnection_Eii:00000000 _ZN6tflite7testing27GetModelWithOfflinePlanningEiPKlPNS0_15NodeConnection_Eii
.ARM.exidx.text._ZN6tflite7testing27GetModelWithOfflinePlanningEiPKlPNS0_15NodeConnection_Eii:00000000 $d
C:\Users\a5050395\AppData\Local\Temp\ccL5WzBl.s:10911  .text._ZN6tflite7testing22GetSimpleStatefulModelEv:00000000 $a
C:\Users\a5050395\AppData\Local\Temp\ccL5WzBl.s:10917  .text._ZN6tflite7testing22GetSimpleStatefulModelEv:00000000 _ZN6tflite7testing22GetSimpleStatefulModelEv
C:\Users\a5050395\AppData\Local\Temp\ccL5WzBl.s:12978  .bss._ZZN6tflite7testing22GetSimpleStatefulModelEvE5model:00000000 .LANCHOR37
.ARM.exidx.text._ZN6tflite7testing22GetSimpleStatefulModelEv:00000000 $d
C:\Users\a5050395\AppData\Local\Temp\ccL5WzBl.s:10935  .text._ZN6tflite7testing24Create1dFlatbufferTensorEib:00000000 $a
C:\Users\a5050395\AppData\Local\Temp\ccL5WzBl.s:10941  .text._ZN6tflite7testing24Create1dFlatbufferTensorEib:00000000 _ZN6tflite7testing24Create1dFlatbufferTensorEib
C:\Users\a5050395\AppData\Local\Temp\ccL5WzBl.s:13226  .rodata._ZN6tflite7testing24Create1dFlatbufferTensorEib.str1.4:00000000 .LC66
.ARM.exidx.text._ZN6tflite7testing24Create1dFlatbufferTensorEib:00000000 $d
C:\Users\a5050395\AppData\Local\Temp\ccL5WzBl.s:11081  .text._ZN6tflite7testing31CreateQuantizedFlatbufferTensorEi:00000000 $a
C:\Users\a5050395\AppData\Local\Temp\ccL5WzBl.s:11087  .text._ZN6tflite7testing31CreateQuantizedFlatbufferTensorEi:00000000 _ZN6tflite7testing31CreateQuantizedFlatbufferTensorEi
C:\Users\a5050395\AppData\Local\Temp\ccL5WzBl.s:13085  .rodata.._146:00000000 .LANCHOR38
C:\Users\a5050395\AppData\Local\Temp\ccL5WzBl.s:13092  .rodata.._147:00000000 .LANCHOR39
C:\Users\a5050395\AppData\Local\Temp\ccL5WzBl.s:13099  .rodata.._148:00000000 .LANCHOR40
C:\Users\a5050395\AppData\Local\Temp\ccL5WzBl.s:13106  .rodata.._149:00000000 .LANCHOR41
.ARM.extab.text._ZN6tflite7testing31CreateQuantizedFlatbufferTensorEi:00000000 $d
.ARM.exidx.text._ZN6tflite7testing31CreateQuantizedFlatbufferTensorEi:00000000 $d
C:\Users\a5050395\AppData\Local\Temp\ccL5WzBl.s:11708  .text._ZN6tflite7testing41CreateMissingQuantizationFlatbufferTensorEi:00000000 $a
C:\Users\a5050395\AppData\Local\Temp\ccL5WzBl.s:11714  .text._ZN6tflite7testing41CreateMissingQuantizationFlatbufferTensorEi:00000000 _ZN6tflite7testing41CreateMissingQuantizationFlatbufferTensorEi
.ARM.exidx.text._ZN6tflite7testing41CreateMissingQuantizationFlatbufferTensorEi:00000000 $d
C:\Users\a5050395\AppData\Local\Temp\ccL5WzBl.s:11969  .text._ZN6tflite7testing23CreateFlatbufferBuffersEv:00000000 $a
C:\Users\a5050395\AppData\Local\Temp\ccL5WzBl.s:11975  .text._ZN6tflite7testing23CreateFlatbufferBuffersEv:00000000 _ZN6tflite7testing23CreateFlatbufferBuffersEv
.ARM.exidx.text._ZN6tflite7testing23CreateFlatbufferBuffersEv:00000000 $d
C:\Users\a5050395\AppData\Local\Temp\ccL5WzBl.s:12165  .text._ZN6tflite7testing10TestStrcmpEPKcS2_:00000000 $a
C:\Users\a5050395\AppData\Local\Temp\ccL5WzBl.s:12171  .text._ZN6tflite7testing10TestStrcmpEPKcS2_:00000000 _ZN6tflite7testing10TestStrcmpEPKcS2_
.ARM.exidx.text._ZN6tflite7testing10TestStrcmpEPKcS2_:00000000 $d
C:\Users\a5050395\AppData\Local\Temp\ccL5WzBl.s:12206  .text._ZN6tflite7testing13ReportOpErrorEP13TfLiteContextPKcz:00000000 $a
C:\Users\a5050395\AppData\Local\Temp\ccL5WzBl.s:12212  .text._ZN6tflite7testing13ReportOpErrorEP13TfLiteContextPKcz:00000000 _ZN6tflite7testing13ReportOpErrorEP13TfLiteContextPKcz
.ARM.exidx.text._ZN6tflite7testing13ReportOpErrorEP13TfLiteContextPKcz:00000000 $d
C:\Users\a5050395\AppData\Local\Temp\ccL5WzBl.s:12225  .text._ZN6tflite7testing16IntArrayFromIntsEPi:00000000 $a
C:\Users\a5050395\AppData\Local\Temp\ccL5WzBl.s:12231  .text._ZN6tflite7testing16IntArrayFromIntsEPi:00000000 _ZN6tflite7testing16IntArrayFromIntsEPi
.ARM.exidx.text._ZN6tflite7testing16IntArrayFromIntsEPi:00000000 $d
C:\Users\a5050395\AppData\Local\Temp\ccL5WzBl.s:12242  .text._ZN6tflite7testing20FloatArrayFromFloatsEPKf:00000000 $a
C:\Users\a5050395\AppData\Local\Temp\ccL5WzBl.s:12248  .text._ZN6tflite7testing20FloatArrayFromFloatsEPKf:00000000 _ZN6tflite7testing20FloatArrayFromFloatsEPKf
.ARM.exidx.text._ZN6tflite7testing20FloatArrayFromFloatsEPKf:00000000 $d
C:\Users\a5050395\AppData\Local\Temp\ccL5WzBl.s:12262  .text._ZN6tflite7testing25CreateQuantizedBiasTensorEPKfPlP14TfLiteIntArrayffb:00000000 $a
C:\Users\a5050395\AppData\Local\Temp\ccL5WzBl.s:12268  .text._ZN6tflite7testing25CreateQuantizedBiasTensorEPKfPlP14TfLiteIntArrayffb:00000000 _ZN6tflite7testing25CreateQuantizedBiasTensorEPKfPlP14TfLiteIntArrayffb
.ARM.extab.text._ZN6tflite7testing25CreateQuantizedBiasTensorEPKfPlP14TfLiteIntArrayffb:00000000 $d
.ARM.exidx.text._ZN6tflite7testing25CreateQuantizedBiasTensorEPKfPlP14TfLiteIntArrayffb:00000000 $d
C:\Users\a5050395\AppData\Local\Temp\ccL5WzBl.s:12428  .text._ZN6tflite7testing35CreatePerChannelQuantizedBiasTensorEPKfPlP14TfLiteIntArrayfPfS6_PiP24TfLiteAffineQuantizationib:00000000 $a
C:\Users\a5050395\AppData\Local\Temp\ccL5WzBl.s:12434  .text._ZN6tflite7testing35CreatePerChannelQuantizedBiasTensorEPKfPlP14TfLiteIntArrayfPfS6_PiP24TfLiteAffineQuantizationib:00000000 _ZN6tflite7testing35CreatePerChannelQuantizedBiasTensorEPKfPlP14TfLiteIntArrayfPfS6_PiP24TfLiteAffineQuantizationib
.ARM.extab.text._ZN6tflite7testing35CreatePerChannelQuantizedBiasTensorEPKfPlP14TfLiteIntArrayfPfS6_PiP24TfLiteAffineQuantizationib:00000000 $d
.ARM.exidx.text._ZN6tflite7testing35CreatePerChannelQuantizedBiasTensorEPKfPlP14TfLiteIntArrayfPfS6_PiP24TfLiteAffineQuantizationib:00000000 $d
C:\Users\a5050395\AppData\Local\Temp\ccL5WzBl.s:12721  .text._ZN6tflite7testing40CreateSymmetricPerChannelQuantizedTensorEPKfPaP14TfLiteIntArrayPfPiP24TfLiteAffineQuantizationib:00000000 $a
C:\Users\a5050395\AppData\Local\Temp\ccL5WzBl.s:12727  .text._ZN6tflite7testing40CreateSymmetricPerChannelQuantizedTensorEPKfPaP14TfLiteIntArrayPfPiP24TfLiteAffineQuantizationib:00000000 _ZN6tflite7testing40CreateSymmetricPerChannelQuantizedTensorEPKfPaP14TfLiteIntArrayPfPiP24TfLiteAffineQuantizationib
.ARM.exidx.text._ZN6tflite7testing40CreateSymmetricPerChannelQuantizedTensorEPKfPaP14TfLiteIntArrayPfPiP24TfLiteAffineQuantizationib:00000000 $d
C:\Users\a5050395\AppData\Local\Temp\ccL5WzBl.s:12793  .text._ZN6tflite7testing19GetModelTensorCountEPKNS_5ModelE:00000000 $a
C:\Users\a5050395\AppData\Local\Temp\ccL5WzBl.s:12799  .text._ZN6tflite7testing19GetModelTensorCountEPKNS_5ModelE:00000000 _ZN6tflite7testing19GetModelTensorCountEPKNS_5ModelE
C:\Users\a5050395\AppData\Local\Temp\ccL5WzBl.s:13222  .rodata._ZN6tflite7testing19GetModelTensorCountEPKNS_5ModelE.str1.4:00000000 .LC67
C:\Users\a5050395\AppData\Local\Temp\ccL5WzBl.s:13388  .rodata._ZZNK11flatbuffers6VectorINS_6OffsetIN6tflite8SubGraphEEEE3GetEmE19__PRETTY_FUNCTION__:00000000 .LANCHOR42
.ARM.exidx.text._ZN6tflite7testing19GetModelTensorCountEPKNS_5ModelE:00000000 $d
C:\Users\a5050395\AppData\Local\Temp\ccL5WzBl.s:12859  .rodata._ZTSN11flatbuffers9AllocatorE:00000000 _ZTSN11flatbuffers9AllocatorE
C:\Users\a5050395\AppData\Local\Temp\ccL5WzBl.s:12856  .rodata._ZTSN11flatbuffers9AllocatorE:00000000 $d
C:\Users\a5050395\AppData\Local\Temp\ccL5WzBl.s:12866  .rodata._ZTIN11flatbuffers9AllocatorE:00000000 _ZTIN11flatbuffers9AllocatorE
C:\Users\a5050395\AppData\Local\Temp\ccL5WzBl.s:12863  .rodata._ZTIN11flatbuffers9AllocatorE:00000000 $d
C:\Users\a5050395\AppData\Local\Temp\ccL5WzBl.s:12911  .bss._ZN6tflite7testing14MultipleInputs6freed_E:00000000 _ZN6tflite7testing14MultipleInputs6freed_E
C:\Users\a5050395\AppData\Local\Temp\ccL5WzBl.s:12905  .bss._ZN6tflite7testing10MockCustom6freed_E:00000000 _ZN6tflite7testing10MockCustom6freed_E
C:\Users\a5050395\AppData\Local\Temp\ccL5WzBl.s:13015  .data._ZN11flatbuffers25flatbuffer_version_stringE:00000000 _ZN11flatbuffers25flatbuffer_version_stringE
C:\Users\a5050395\AppData\Local\Temp\ccL5WzBl.s:12873  .rodata:00000000 $d
C:\Users\a5050395\AppData\Local\Temp\ccL5WzBl.s:12888  .bss._ZGVZN6tflite7testing12_GLOBAL__N_114StackAllocator8instanceEvE4inst:00000000 $d
C:\Users\a5050395\AppData\Local\Temp\ccL5WzBl.s:12892  .bss._ZGVZN6tflite7testing12_GLOBAL__N_114StackAllocator8instanceEvE4inst:00000000 _ZGVZN6tflite7testing12_GLOBAL__N_114StackAllocator8instanceEvE4inst
C:\Users\a5050395\AppData\Local\Temp\ccL5WzBl.s:12895  .bss._ZGVZN6tflite7testing12_GLOBAL__N_115BuilderInstanceEvE4inst:00000000 $d
C:\Users\a5050395\AppData\Local\Temp\ccL5WzBl.s:12899  .bss._ZGVZN6tflite7testing12_GLOBAL__N_115BuilderInstanceEvE4inst:00000000 _ZGVZN6tflite7testing12_GLOBAL__N_115BuilderInstanceEvE4inst
C:\Users\a5050395\AppData\Local\Temp\ccL5WzBl.s:12906  .bss._ZN6tflite7testing10MockCustom6freed_E:00000000 $d
C:\Users\a5050395\AppData\Local\Temp\ccL5WzBl.s:12912  .bss._ZN6tflite7testing14MultipleInputs6freed_E:00000000 $d
C:\Users\a5050395\AppData\Local\Temp\ccL5WzBl.s:12914  .bss._ZZN6tflite7testing10MockCustom22GetMutableRegistrationEvE1r:00000000 $d
C:\Users\a5050395\AppData\Local\Temp\ccL5WzBl.s:12918  .bss._ZZN6tflite7testing10MockCustom22GetMutableRegistrationEvE1r:00000000 _ZZN6tflite7testing10MockCustom22GetMutableRegistrationEvE1r
C:\Users\a5050395\AppData\Local\Temp\ccL5WzBl.s:12921  .bss._ZZN6tflite7testing12_GLOBAL__N_114StackAllocator8instanceEvE11inst_memory:00000000 $d
C:\Users\a5050395\AppData\Local\Temp\ccL5WzBl.s:12925  .bss._ZZN6tflite7testing12_GLOBAL__N_114StackAllocator8instanceEvE11inst_memory:00000000 _ZZN6tflite7testing12_GLOBAL__N_114StackAllocator8instanceEvE11inst_memory
C:\Users\a5050395\AppData\Local\Temp\ccL5WzBl.s:12928  .bss._ZZN6tflite7testing12_GLOBAL__N_114StackAllocator8instanceEvE4inst:00000000 $d
C:\Users\a5050395\AppData\Local\Temp\ccL5WzBl.s:12932  .bss._ZZN6tflite7testing12_GLOBAL__N_114StackAllocator8instanceEvE4inst:00000000 _ZZN6tflite7testing12_GLOBAL__N_114StackAllocator8instanceEvE4inst
C:\Users\a5050395\AppData\Local\Temp\ccL5WzBl.s:12935  .bss._ZZN6tflite7testing12_GLOBAL__N_115BuilderInstanceEvE11inst_memory:00000000 $d
C:\Users\a5050395\AppData\Local\Temp\ccL5WzBl.s:12939  .bss._ZZN6tflite7testing12_GLOBAL__N_115BuilderInstanceEvE11inst_memory:00000000 _ZZN6tflite7testing12_GLOBAL__N_115BuilderInstanceEvE11inst_memory
C:\Users\a5050395\AppData\Local\Temp\ccL5WzBl.s:12942  .bss._ZZN6tflite7testing12_GLOBAL__N_115BuilderInstanceEvE4inst:00000000 $d
C:\Users\a5050395\AppData\Local\Temp\ccL5WzBl.s:12946  .bss._ZZN6tflite7testing12_GLOBAL__N_115BuilderInstanceEvE4inst:00000000 _ZZN6tflite7testing12_GLOBAL__N_115BuilderInstanceEvE4inst
C:\Users\a5050395\AppData\Local\Temp\ccL5WzBl.s:12949  .bss._ZZN6tflite7testing14MultipleInputs22GetMutableRegistrationEvE1r:00000000 $d
C:\Users\a5050395\AppData\Local\Temp\ccL5WzBl.s:12953  .bss._ZZN6tflite7testing14MultipleInputs22GetMutableRegistrationEvE1r:00000000 _ZZN6tflite7testing14MultipleInputs22GetMutableRegistrationEvE1r
C:\Users\a5050395\AppData\Local\Temp\ccL5WzBl.s:12956  .bss._ZZN6tflite7testing16SimpleStatefulOp22GetMutableRegistrationEvE1r:00000000 $d
C:\Users\a5050395\AppData\Local\Temp\ccL5WzBl.s:12960  .bss._ZZN6tflite7testing16SimpleStatefulOp22GetMutableRegistrationEvE1r:00000000 _ZZN6tflite7testing16SimpleStatefulOp22GetMutableRegistrationEvE1r
C:\Users\a5050395\AppData\Local\Temp\ccL5WzBl.s:12963  .bss._ZZN6tflite7testing18GetSimpleMockModelEvE5model:00000000 $d
C:\Users\a5050395\AppData\Local\Temp\ccL5WzBl.s:12967  .bss._ZZN6tflite7testing18GetSimpleMockModelEvE5model:00000000 _ZZN6tflite7testing18GetSimpleMockModelEvE5model
C:\Users\a5050395\AppData\Local\Temp\ccL5WzBl.s:12970  .bss._ZZN6tflite7testing19GetComplexMockModelEvE5model:00000000 $d
C:\Users\a5050395\AppData\Local\Temp\ccL5WzBl.s:12974  .bss._ZZN6tflite7testing19GetComplexMockModelEvE5model:00000000 _ZZN6tflite7testing19GetComplexMockModelEvE5model
C:\Users\a5050395\AppData\Local\Temp\ccL5WzBl.s:12977  .bss._ZZN6tflite7testing22GetSimpleStatefulModelEvE5model:00000000 $d
C:\Users\a5050395\AppData\Local\Temp\ccL5WzBl.s:12981  .bss._ZZN6tflite7testing22GetSimpleStatefulModelEvE5model:00000000 _ZZN6tflite7testing22GetSimpleStatefulModelEvE5model
C:\Users\a5050395\AppData\Local\Temp\ccL5WzBl.s:12984  .bss._ZZN6tflite7testing24GetModelWithUnusedInputsEvE5model:00000000 $d
C:\Users\a5050395\AppData\Local\Temp\ccL5WzBl.s:12988  .bss._ZZN6tflite7testing24GetModelWithUnusedInputsEvE5model:00000000 _ZZN6tflite7testing24GetModelWithUnusedInputsEvE5model
C:\Users\a5050395\AppData\Local\Temp\ccL5WzBl.s:12991  .bss._ZZN6tflite7testing24GetSimpleModelWithBranchEvE5model:00000000 $d
C:\Users\a5050395\AppData\Local\Temp\ccL5WzBl.s:12995  .bss._ZZN6tflite7testing24GetSimpleModelWithBranchEvE5model:00000000 _ZZN6tflite7testing24GetSimpleModelWithBranchEvE5model
C:\Users\a5050395\AppData\Local\Temp\ccL5WzBl.s:12998  .bss._ZZN6tflite7testing28GetSimpleMultipleInputsModelEvE5model:00000000 $d
C:\Users\a5050395\AppData\Local\Temp\ccL5WzBl.s:13002  .bss._ZZN6tflite7testing28GetSimpleMultipleInputsModelEvE5model:00000000 _ZZN6tflite7testing28GetSimpleMultipleInputsModelEvE5model
C:\Users\a5050395\AppData\Local\Temp\ccL5WzBl.s:13005  .bss._ZZN6tflite7testing32GetSimpleModelWithSubgraphsAndIfEvE5model:00000000 $d
C:\Users\a5050395\AppData\Local\Temp\ccL5WzBl.s:13009  .bss._ZZN6tflite7testing32GetSimpleModelWithSubgraphsAndIfEvE5model:00000000 _ZZN6tflite7testing32GetSimpleModelWithSubgraphsAndIfEvE5model
C:\Users\a5050395\AppData\Local\Temp\ccL5WzBl.s:13012  .data._ZN11flatbuffers25flatbuffer_version_stringE:00000000 $d
C:\Users\a5050395\AppData\Local\Temp\ccL5WzBl.s:13018  .rodata.._138:00000000 $d
C:\Users\a5050395\AppData\Local\Temp\ccL5WzBl.s:13022  .rodata.._138:00000000 ._138
C:\Users\a5050395\AppData\Local\Temp\ccL5WzBl.s:13025  .rodata.._139:00000000 $d
C:\Users\a5050395\AppData\Local\Temp\ccL5WzBl.s:13029  .rodata.._139:00000000 ._139
C:\Users\a5050395\AppData\Local\Temp\ccL5WzBl.s:13032  .rodata.._140:00000000 $d
C:\Users\a5050395\AppData\Local\Temp\ccL5WzBl.s:13036  .rodata.._140:00000000 ._140
C:\Users\a5050395\AppData\Local\Temp\ccL5WzBl.s:13039  .rodata.._141:00000000 $d
C:\Users\a5050395\AppData\Local\Temp\ccL5WzBl.s:13043  .rodata.._141:00000000 ._141
C:\Users\a5050395\AppData\Local\Temp\ccL5WzBl.s:13048  .rodata.._142:00000000 $d
C:\Users\a5050395\AppData\Local\Temp\ccL5WzBl.s:13052  .rodata.._142:00000000 ._142
C:\Users\a5050395\AppData\Local\Temp\ccL5WzBl.s:13057  .rodata.._143:00000000 $d
C:\Users\a5050395\AppData\Local\Temp\ccL5WzBl.s:13061  .rodata.._143:00000000 ._143
C:\Users\a5050395\AppData\Local\Temp\ccL5WzBl.s:13066  .rodata.._144:00000000 $d
C:\Users\a5050395\AppData\Local\Temp\ccL5WzBl.s:13070  .rodata.._144:00000000 ._144
C:\Users\a5050395\AppData\Local\Temp\ccL5WzBl.s:13075  .rodata.._145:00000000 $d
C:\Users\a5050395\AppData\Local\Temp\ccL5WzBl.s:13079  .rodata.._145:00000000 ._145
C:\Users\a5050395\AppData\Local\Temp\ccL5WzBl.s:13084  .rodata.._146:00000000 $d
C:\Users\a5050395\AppData\Local\Temp\ccL5WzBl.s:13088  .rodata.._146:00000000 ._146
C:\Users\a5050395\AppData\Local\Temp\ccL5WzBl.s:13091  .rodata.._147:00000000 $d
C:\Users\a5050395\AppData\Local\Temp\ccL5WzBl.s:13095  .rodata.._147:00000000 ._147
C:\Users\a5050395\AppData\Local\Temp\ccL5WzBl.s:13098  .rodata.._148:00000000 $d
C:\Users\a5050395\AppData\Local\Temp\ccL5WzBl.s:13102  .rodata.._148:00000000 ._148
C:\Users\a5050395\AppData\Local\Temp\ccL5WzBl.s:13105  .rodata.._149:00000000 $d
C:\Users\a5050395\AppData\Local\Temp\ccL5WzBl.s:13109  .rodata.._149:00000000 ._149
C:\Users\a5050395\AppData\Local\Temp\ccL5WzBl.s:13113  .rodata._ZN11flatbuffers15vector_downward12ensure_spaceEj.str1.4:00000000 $d
C:\Users\a5050395\AppData\Local\Temp\ccL5WzBl.s:13120  .rodata._ZN11flatbuffers17FlatBufferBuilder11StartVectorEjj.constprop.148.str1.4:00000000 $d
C:\Users\a5050395\AppData\Local\Temp\ccL5WzBl.s:13124  .rodata._ZN11flatbuffers17FlatBufferBuilder12CreateVectorIN6tflite6BufferEEENS_6OffsetINS_6VectorINS4_IT_EEEEEEPKS7_j.constprop.136.str1.4:00000000 $d
C:\Users\a5050395\AppData\Local\Temp\ccL5WzBl.s:13130  .rodata._ZN11flatbuffers17FlatBufferBuilder6FinishEmPKcb.constprop.146.str1.4:00000000 $d
C:\Users\a5050395\AppData\Local\Temp\ccL5WzBl.s:13134  .rodata._ZN11flatbuffers17FlatBufferBuilder8EndTableEm.str1.4:00000000 $d
C:\Users\a5050395\AppData\Local\Temp\ccL5WzBl.s:13147  .rodata._ZN11flatbuffers17FlatBufferBuilder9NotNestedEv.isra.20.part.21.str1.4:00000000 $d
C:\Users\a5050395\AppData\Local\Temp\ccL5WzBl.s:13151  .rodata._ZN11flatbuffers9Allocator19reallocate_downwardEPhjjjj.str1.4:00000000 $d
C:\Users\a5050395\AppData\Local\Temp\ccL5WzBl.s:13159  .rodata._ZN6tflite7testing12_GLOBAL__N_112ModelBuilder10BuildModelESt16initializer_listIlES4_j.str1.4:00000000 $d
C:\Users\a5050395\AppData\Local\Temp\ccL5WzBl.s:13168  .rodata._ZN6tflite7testing12_GLOBAL__N_124BuildSimpleStatefulModelEv.str1.4:00000000 $d
C:\Users\a5050395\AppData\Local\Temp\ccL5WzBl.s:13172  .rodata._ZN6tflite7testing12_GLOBAL__N_126BuildSimpleModelWithBranchEv.str1.4:00000000 $d
C:\Users\a5050395\AppData\Local\Temp\ccL5WzBl.s:13176  .rodata._ZN6tflite7testing12_GLOBAL__N_129BuildModelWithOfflinePlanningEiPKlPNS0_15NodeConnection_Eii.str1.4:00000000 $d
C:\Users\a5050395\AppData\Local\Temp\ccL5WzBl.s:13180  .rodata._ZN6tflite7testing13GetOpResolverEv.str1.4:00000000 $d
C:\Users\a5050395\AppData\Local\Temp\ccL5WzBl.s:13184  .rodata._ZN6tflite7testing18GetSimpleMockModelEv.str1.4:00000000 $d
C:\Users\a5050395\AppData\Local\Temp\ccL5WzBl.s:13191  .rodata._ZN6tflite7testing19GetComplexMockModelEv.str1.4:00000000 $d
C:\Users\a5050395\AppData\Local\Temp\ccL5WzBl.s:13221  .rodata._ZN6tflite7testing19GetModelTensorCountEPKNS_5ModelE.str1.4:00000000 $d
C:\Users\a5050395\AppData\Local\Temp\ccL5WzBl.s:13225  .rodata._ZN6tflite7testing24Create1dFlatbufferTensorEib.str1.4:00000000 $d
C:\Users\a5050395\AppData\Local\Temp\ccL5WzBl.s:13229  .rodata._ZN6tflite7testing24GetModelWithUnusedInputsEv.str1.4:00000000 $d
C:\Users\a5050395\AppData\Local\Temp\ccL5WzBl.s:13245  .rodata._ZN6tflite7testing28GetSimpleMultipleInputsModelEv.str1.4:00000000 $d
C:\Users\a5050395\AppData\Local\Temp\ccL5WzBl.s:13255  .rodata._ZN6tflite7testing32GetSimpleModelWithSubgraphsAndIfEv.str1.4:00000000 $d
C:\Users\a5050395\AppData\Local\Temp\ccL5WzBl.s:13276  .rodata._ZNK11flatbuffers15vector_downward4dataEv.isra.9.part.10.str1.4:00000000 $d
C:\Users\a5050395\AppData\Local\Temp\ccL5WzBl.s:13280  .rodata._ZTIN6tflite7testing12_GLOBAL__N_114StackAllocatorE:00000000 $d
C:\Users\a5050395\AppData\Local\Temp\ccL5WzBl.s:13283  .rodata._ZTIN6tflite7testing12_GLOBAL__N_114StackAllocatorE:00000000 _ZTIN6tflite7testing12_GLOBAL__N_114StackAllocatorE
C:\Users\a5050395\AppData\Local\Temp\ccL5WzBl.s:13291  .rodata._ZTSN6tflite7testing12_GLOBAL__N_114StackAllocatorE:00000000 _ZTSN6tflite7testing12_GLOBAL__N_114StackAllocatorE
C:\Users\a5050395\AppData\Local\Temp\ccL5WzBl.s:13288  .rodata._ZTSN6tflite7testing12_GLOBAL__N_114StackAllocatorE:00000000 $d
C:\Users\a5050395\AppData\Local\Temp\ccL5WzBl.s:13294  .rodata._ZTVN6tflite7testing12_GLOBAL__N_114StackAllocatorE:00000000 $d
C:\Users\a5050395\AppData\Local\Temp\ccL5WzBl.s:13298  .rodata._ZTVN6tflite7testing12_GLOBAL__N_114StackAllocatorE:00000000 _ZTVN6tflite7testing12_GLOBAL__N_114StackAllocatorE
C:\Users\a5050395\AppData\Local\Temp\ccL5WzBl.s:13307  .rodata._ZZN11flatbuffers15vector_downward12ensure_spaceEjE19__PRETTY_FUNCTION__:00000000 $d
C:\Users\a5050395\AppData\Local\Temp\ccL5WzBl.s:13311  .rodata._ZZN11flatbuffers15vector_downward12ensure_spaceEjE19__PRETTY_FUNCTION__:00000000 _ZZN11flatbuffers15vector_downward12ensure_spaceEjE19__PRETTY_FUNCTION__
C:\Users\a5050395\AppData\Local\Temp\ccL5WzBl.s:13315  .rodata._ZZN11flatbuffers17FlatBufferBuilder7ReferToEmE19__PRETTY_FUNCTION__:00000000 $d
C:\Users\a5050395\AppData\Local\Temp\ccL5WzBl.s:13319  .rodata._ZZN11flatbuffers17FlatBufferBuilder7ReferToEmE19__PRETTY_FUNCTION__:00000000 _ZZN11flatbuffers17FlatBufferBuilder7ReferToEmE19__PRETTY_FUNCTION__
C:\Users\a5050395\AppData\Local\Temp\ccL5WzBl.s:13323  .rodata._ZZN11flatbuffers17FlatBufferBuilder8EndTableEmE19__PRETTY_FUNCTION__:00000000 $d
C:\Users\a5050395\AppData\Local\Temp\ccL5WzBl.s:13327  .rodata._ZZN11flatbuffers17FlatBufferBuilder8EndTableEmE19__PRETTY_FUNCTION__:00000000 _ZZN11flatbuffers17FlatBufferBuilder8EndTableEmE19__PRETTY_FUNCTION__
C:\Users\a5050395\AppData\Local\Temp\ccL5WzBl.s:13331  .rodata._ZZN11flatbuffers17FlatBufferBuilder9EndVectorEjE19__PRETTY_FUNCTION__:00000000 $d
C:\Users\a5050395\AppData\Local\Temp\ccL5WzBl.s:13335  .rodata._ZZN11flatbuffers17FlatBufferBuilder9EndVectorEjE19__PRETTY_FUNCTION__:00000000 _ZZN11flatbuffers17FlatBufferBuilder9EndVectorEjE19__PRETTY_FUNCTION__
C:\Users\a5050395\AppData\Local\Temp\ccL5WzBl.s:13339  .rodata._ZZN11flatbuffers17FlatBufferBuilder9NotNestedEvE19__PRETTY_FUNCTION__:00000000 $d
C:\Users\a5050395\AppData\Local\Temp\ccL5WzBl.s:13343  .rodata._ZZN11flatbuffers17FlatBufferBuilder9NotNestedEvE19__PRETTY_FUNCTION__:00000000 _ZZN11flatbuffers17FlatBufferBuilder9NotNestedEvE19__PRETTY_FUNCTION__
C:\Users\a5050395\AppData\Local\Temp\ccL5WzBl.s:13346  .rodata._ZZN11flatbuffers9Allocator19reallocate_downwardEPhjjjjE19__PRETTY_FUNCTION__:00000000 $d
C:\Users\a5050395\AppData\Local\Temp\ccL5WzBl.s:13350  .rodata._ZZN11flatbuffers9Allocator19reallocate_downwardEPhjjjjE19__PRETTY_FUNCTION__:00000000 _ZZN11flatbuffers9Allocator19reallocate_downwardEPhjjjjE19__PRETTY_FUNCTION__
C:\Users\a5050395\AppData\Local\Temp\ccL5WzBl.s:13355  .rodata._ZZNK11flatbuffers15vector_downward11scratch_endEvE19__PRETTY_FUNCTION__:00000000 $d
C:\Users\a5050395\AppData\Local\Temp\ccL5WzBl.s:13359  .rodata._ZZNK11flatbuffers15vector_downward11scratch_endEvE19__PRETTY_FUNCTION__:00000000 _ZZNK11flatbuffers15vector_downward11scratch_endEvE19__PRETTY_FUNCTION__
C:\Users\a5050395\AppData\Local\Temp\ccL5WzBl.s:13363  .rodata._ZZNK11flatbuffers15vector_downward12scratch_dataEvE19__PRETTY_FUNCTION__:00000000 $d
C:\Users\a5050395\AppData\Local\Temp\ccL5WzBl.s:13367  .rodata._ZZNK11flatbuffers15vector_downward12scratch_dataEvE19__PRETTY_FUNCTION__:00000000 _ZZNK11flatbuffers15vector_downward12scratch_dataEvE19__PRETTY_FUNCTION__
C:\Users\a5050395\AppData\Local\Temp\ccL5WzBl.s:13371  .rodata._ZZNK11flatbuffers15vector_downward4dataEvE19__PRETTY_FUNCTION__:00000000 $d
C:\Users\a5050395\AppData\Local\Temp\ccL5WzBl.s:13375  .rodata._ZZNK11flatbuffers15vector_downward4dataEvE19__PRETTY_FUNCTION__:00000000 _ZZNK11flatbuffers15vector_downward4dataEvE19__PRETTY_FUNCTION__
C:\Users\a5050395\AppData\Local\Temp\ccL5WzBl.s:13379  .rodata._ZZNK11flatbuffers17FlatBufferBuilder8FinishedEvE19__PRETTY_FUNCTION__:00000000 $d
C:\Users\a5050395\AppData\Local\Temp\ccL5WzBl.s:13383  .rodata._ZZNK11flatbuffers17FlatBufferBuilder8FinishedEvE19__PRETTY_FUNCTION__:00000000 _ZZNK11flatbuffers17FlatBufferBuilder8FinishedEvE19__PRETTY_FUNCTION__
C:\Users\a5050395\AppData\Local\Temp\ccL5WzBl.s:13387  .rodata._ZZNK11flatbuffers6VectorINS_6OffsetIN6tflite8SubGraphEEEE3GetEmE19__PRETTY_FUNCTION__:00000000 $d
C:\Users\a5050395\AppData\Local\Temp\ccL5WzBl.s:13391  .rodata._ZZNK11flatbuffers6VectorINS_6OffsetIN6tflite8SubGraphEEEE3GetEmE19__PRETTY_FUNCTION__:00000000 _ZZNK11flatbuffers6VectorINS_6OffsetIN6tflite8SubGraphEEEE3GetEmE19__PRETTY_FUNCTION__
C:\Users\a5050395\AppData\Local\Temp\ccL5WzBl.s:13398  .rodata.str1.4:00000000 $d
                           .group:00000000 _ZN11flatbuffers16DefaultAllocatorD5Ev

UNDEFINED SYMBOLS
abort
__aeabi_unwind_cpp_pr0
_ZN6tflite12GetInputSafeEPK13TfLiteContextPK10TfLiteNodeiPPK12TfLiteTensor
_ZN6tflite13GetOutputSafeEPK13TfLiteContextPK10TfLiteNodeiPP12TfLiteTensor
strcmp
_ZdlPvj
__cxa_guard_acquire
__cxa_guard_release
_Znaj
_ZdaPv
memcpy
__assert_func
memset
memcmp
strlen
_ZN6tflite14AllOpsResolverC1Ev
__aeabi_unwind_cpp_pr1
_Znwj
_ZdlPv
__cxa_end_cleanup
__gxx_personality_v0
_ZN6tflite12ElementCountERK14TfLiteIntArray
round
__aeabi_idiv
_ZN6tflite33SignedSymmetricPerChannelQuantizeEPKfP14TfLiteIntArrayiPaPf
_ZTVN10__cxxabiv117__class_type_infoE
_ZTVN10__cxxabiv120__si_class_type_infoE
