   1              		.cpu cortex-a9
   2              		.eabi_attribute 28, 1
   3              		.eabi_attribute 20, 1
   4              		.eabi_attribute 21, 1
   5              		.eabi_attribute 23, 3
   6              		.eabi_attribute 24, 1
   7              		.eabi_attribute 25, 1
   8              		.eabi_attribute 26, 1
   9              		.eabi_attribute 30, 2
  10              		.eabi_attribute 34, 0
  11              		.eabi_attribute 18, 4
  12              		.file	"op_resolver.cc"
  13              		.text
  14              	.Ltext0:
  15              		.cfi_sections	.debug_frame
  16              		.section	.text._ZN6tflite25GetRegistrationFromOpCodeEPKNS_12OperatorCodeERKNS_10OpResolverEPNS_13E
  17              		.align	2
  18              		.global	_ZN6tflite25GetRegistrationFromOpCodeEPKNS_12OperatorCodeERKNS_10OpResolverEPNS_13ErrorRep
  19              		.syntax unified
  20              		.arm
  21              		.fpu neon
  23              	_ZN6tflite25GetRegistrationFromOpCodeEPKNS_12OperatorCodeERKNS_10OpResolverEPNS_13ErrorReporterEPPK
  24              		.fnstart
  25              	.LFB6508:
  26              		.file 1 "../src/tensorflow_lite/tensorflow/lite/core/api/op_resolver.cc"
   1:../src/tensorflow_lite/tensorflow/lite/core/api/op_resolver.cc **** /* Copyright 2018 The TensorFlow Authors. All Rights Reserved.
   2:../src/tensorflow_lite/tensorflow/lite/core/api/op_resolver.cc **** 
   3:../src/tensorflow_lite/tensorflow/lite/core/api/op_resolver.cc **** Licensed under the Apache License, Version 2.0 (the "License");
   4:../src/tensorflow_lite/tensorflow/lite/core/api/op_resolver.cc **** you may not use this file except in compliance with the License.
   5:../src/tensorflow_lite/tensorflow/lite/core/api/op_resolver.cc **** You may obtain a copy of the License at
   6:../src/tensorflow_lite/tensorflow/lite/core/api/op_resolver.cc **** 
   7:../src/tensorflow_lite/tensorflow/lite/core/api/op_resolver.cc ****     http://www.apache.org/licenses/LICENSE-2.0
   8:../src/tensorflow_lite/tensorflow/lite/core/api/op_resolver.cc **** 
   9:../src/tensorflow_lite/tensorflow/lite/core/api/op_resolver.cc **** Unless required by applicable law or agreed to in writing, software
  10:../src/tensorflow_lite/tensorflow/lite/core/api/op_resolver.cc **** distributed under the License is distributed on an "AS IS" BASIS,
  11:../src/tensorflow_lite/tensorflow/lite/core/api/op_resolver.cc **** WITHOUT WARRANTIES OR CONDITIONS OF ANY KIND, either express or implied.
  12:../src/tensorflow_lite/tensorflow/lite/core/api/op_resolver.cc **** See the License for the specific language governing permissions and
  13:../src/tensorflow_lite/tensorflow/lite/core/api/op_resolver.cc **** limitations under the License.
  14:../src/tensorflow_lite/tensorflow/lite/core/api/op_resolver.cc **** ==============================================================================*/
  15:../src/tensorflow_lite/tensorflow/lite/core/api/op_resolver.cc **** 
  16:../src/tensorflow_lite/tensorflow/lite/core/api/op_resolver.cc **** #include "tensorflow/lite/core/api/op_resolver.h"
  17:../src/tensorflow_lite/tensorflow/lite/core/api/op_resolver.cc **** 
  18:../src/tensorflow_lite/tensorflow/lite/core/api/op_resolver.cc **** #include "flatbuffers/flatbuffers.h"  // from @flatbuffers
  19:../src/tensorflow_lite/tensorflow/lite/core/api/op_resolver.cc **** #include "tensorflow/lite/c/common.h"
  20:../src/tensorflow_lite/tensorflow/lite/core/api/op_resolver.cc **** #include "tensorflow/lite/core/api/error_reporter.h"
  21:../src/tensorflow_lite/tensorflow/lite/core/api/op_resolver.cc **** #include "tensorflow/lite/schema/schema_utils.h"
  22:../src/tensorflow_lite/tensorflow/lite/core/api/op_resolver.cc **** 
  23:../src/tensorflow_lite/tensorflow/lite/core/api/op_resolver.cc **** namespace tflite {
  24:../src/tensorflow_lite/tensorflow/lite/core/api/op_resolver.cc **** 
  25:../src/tensorflow_lite/tensorflow/lite/core/api/op_resolver.cc **** TfLiteStatus GetRegistrationFromOpCode(
  26:../src/tensorflow_lite/tensorflow/lite/core/api/op_resolver.cc ****     const OperatorCode* opcode, const OpResolver& op_resolver,
  27:../src/tensorflow_lite/tensorflow/lite/core/api/op_resolver.cc ****     ErrorReporter* error_reporter, const TfLiteRegistration** registration) {
  27              		.loc 1 27 0
  28              		.cfi_startproc
  29              		@ args = 0, pretend = 0, frame = 0
  30              		@ frame_needed = 0, uses_anonymous_args = 0
  31              	.LVL0:
  32 0000 F0472DE9 		push	{r4, r5, r6, r7, r8, r9, r10, lr}
  33              		.save {r4, r5, r6, r7, r8, r9, r10, lr}
  34              		.cfi_def_cfa_offset 32
  35              		.cfi_offset 4, -32
  36              		.cfi_offset 5, -28
  37              		.cfi_offset 6, -24
  38              		.cfi_offset 7, -20
  39              		.cfi_offset 8, -16
  40              		.cfi_offset 9, -12
  41              		.cfi_offset 10, -8
  42              		.cfi_offset 14, -4
  43              		.loc 1 27 0
  44 0004 0360A0E1 		mov	r6, r3
  28:../src/tensorflow_lite/tensorflow/lite/core/api/op_resolver.cc ****   TfLiteStatus status = kTfLiteOk;
  29:../src/tensorflow_lite/tensorflow/lite/core/api/op_resolver.cc ****   *registration = nullptr;
  45              		.loc 1 29 0
  46 0008 0030A0E3 		mov	r3, #0
  47              	.LVL1:
  27:../src/tensorflow_lite/tensorflow/lite/core/api/op_resolver.cc ****   TfLiteStatus status = kTfLiteOk;
  48              		.loc 1 27 0
  49 000c 0040A0E1 		mov	r4, r0
  50 0010 0170A0E1 		mov	r7, r1
  51 0014 0280A0E1 		mov	r8, r2
  52              		.loc 1 29 0
  53 0018 003086E5 		str	r3, [r6]
  30:../src/tensorflow_lite/tensorflow/lite/core/api/op_resolver.cc ****   auto builtin_code = GetBuiltinCode(opcode);
  54              		.loc 1 30 0
  55 001c FEFFFFEB 		bl	_ZN6tflite14GetBuiltinCodeEPKNS_12OperatorCodeE
  56              	.LVL2:
  57              	.LBB155:
  58              	.LBB156:
  59              	.LBB157:
  60              	.LBB158:
  61              	.LBB159:
  62              	.LBB160:
  63              	.LBB161:
  64              		.file 2 "C:/Renesas/e2studio_2021_01_workspace_RZA2M_ANPR/ANPR_RZA2M_EBK/src/tensorflow_lite/third
   1:C:/Renesas/e2studio_2021_01_workspace_RZA2M_ANPR/ANPR_RZA2M_EBK/src/tensorflow_lite/third_party/flatbuffers/include/flatbuffers\flatbuffers.h **** /*
   2:C:/Renesas/e2studio_2021_01_workspace_RZA2M_ANPR/ANPR_RZA2M_EBK/src/tensorflow_lite/third_party/flatbuffers/include/flatbuffers\flatbuffers.h ****  * Copyright 2014 Google Inc. All rights reserved.
   3:C:/Renesas/e2studio_2021_01_workspace_RZA2M_ANPR/ANPR_RZA2M_EBK/src/tensorflow_lite/third_party/flatbuffers/include/flatbuffers\flatbuffers.h ****  *
   4:C:/Renesas/e2studio_2021_01_workspace_RZA2M_ANPR/ANPR_RZA2M_EBK/src/tensorflow_lite/third_party/flatbuffers/include/flatbuffers\flatbuffers.h ****  * Licensed under the Apache License, Version 2.0 (the "License");
   5:C:/Renesas/e2studio_2021_01_workspace_RZA2M_ANPR/ANPR_RZA2M_EBK/src/tensorflow_lite/third_party/flatbuffers/include/flatbuffers\flatbuffers.h ****  * you may not use this file except in compliance with the License.
   6:C:/Renesas/e2studio_2021_01_workspace_RZA2M_ANPR/ANPR_RZA2M_EBK/src/tensorflow_lite/third_party/flatbuffers/include/flatbuffers\flatbuffers.h ****  * You may obtain a copy of the License at
   7:C:/Renesas/e2studio_2021_01_workspace_RZA2M_ANPR/ANPR_RZA2M_EBK/src/tensorflow_lite/third_party/flatbuffers/include/flatbuffers\flatbuffers.h ****  *
   8:C:/Renesas/e2studio_2021_01_workspace_RZA2M_ANPR/ANPR_RZA2M_EBK/src/tensorflow_lite/third_party/flatbuffers/include/flatbuffers\flatbuffers.h ****  *     http://www.apache.org/licenses/LICENSE-2.0
   9:C:/Renesas/e2studio_2021_01_workspace_RZA2M_ANPR/ANPR_RZA2M_EBK/src/tensorflow_lite/third_party/flatbuffers/include/flatbuffers\flatbuffers.h ****  *
  10:C:/Renesas/e2studio_2021_01_workspace_RZA2M_ANPR/ANPR_RZA2M_EBK/src/tensorflow_lite/third_party/flatbuffers/include/flatbuffers\flatbuffers.h ****  * Unless required by applicable law or agreed to in writing, software
  11:C:/Renesas/e2studio_2021_01_workspace_RZA2M_ANPR/ANPR_RZA2M_EBK/src/tensorflow_lite/third_party/flatbuffers/include/flatbuffers\flatbuffers.h ****  * distributed under the License is distributed on an "AS IS" BASIS,
  12:C:/Renesas/e2studio_2021_01_workspace_RZA2M_ANPR/ANPR_RZA2M_EBK/src/tensorflow_lite/third_party/flatbuffers/include/flatbuffers\flatbuffers.h ****  * WITHOUT WARRANTIES OR CONDITIONS OF ANY KIND, either express or implied.
  13:C:/Renesas/e2studio_2021_01_workspace_RZA2M_ANPR/ANPR_RZA2M_EBK/src/tensorflow_lite/third_party/flatbuffers/include/flatbuffers\flatbuffers.h ****  * See the License for the specific language governing permissions and
  14:C:/Renesas/e2studio_2021_01_workspace_RZA2M_ANPR/ANPR_RZA2M_EBK/src/tensorflow_lite/third_party/flatbuffers/include/flatbuffers\flatbuffers.h ****  * limitations under the License.
  15:C:/Renesas/e2studio_2021_01_workspace_RZA2M_ANPR/ANPR_RZA2M_EBK/src/tensorflow_lite/third_party/flatbuffers/include/flatbuffers\flatbuffers.h ****  */
  16:C:/Renesas/e2studio_2021_01_workspace_RZA2M_ANPR/ANPR_RZA2M_EBK/src/tensorflow_lite/third_party/flatbuffers/include/flatbuffers\flatbuffers.h **** 
  17:C:/Renesas/e2studio_2021_01_workspace_RZA2M_ANPR/ANPR_RZA2M_EBK/src/tensorflow_lite/third_party/flatbuffers/include/flatbuffers\flatbuffers.h **** #ifndef FLATBUFFERS_H_
  18:C:/Renesas/e2studio_2021_01_workspace_RZA2M_ANPR/ANPR_RZA2M_EBK/src/tensorflow_lite/third_party/flatbuffers/include/flatbuffers\flatbuffers.h **** #define FLATBUFFERS_H_
  19:C:/Renesas/e2studio_2021_01_workspace_RZA2M_ANPR/ANPR_RZA2M_EBK/src/tensorflow_lite/third_party/flatbuffers/include/flatbuffers\flatbuffers.h **** 
  20:C:/Renesas/e2studio_2021_01_workspace_RZA2M_ANPR/ANPR_RZA2M_EBK/src/tensorflow_lite/third_party/flatbuffers/include/flatbuffers\flatbuffers.h **** #include "flatbuffers/base.h"
  21:C:/Renesas/e2studio_2021_01_workspace_RZA2M_ANPR/ANPR_RZA2M_EBK/src/tensorflow_lite/third_party/flatbuffers/include/flatbuffers\flatbuffers.h **** #include "flatbuffers/stl_emulation.h"
  22:C:/Renesas/e2studio_2021_01_workspace_RZA2M_ANPR/ANPR_RZA2M_EBK/src/tensorflow_lite/third_party/flatbuffers/include/flatbuffers\flatbuffers.h **** 
  23:C:/Renesas/e2studio_2021_01_workspace_RZA2M_ANPR/ANPR_RZA2M_EBK/src/tensorflow_lite/third_party/flatbuffers/include/flatbuffers\flatbuffers.h **** #ifndef FLATBUFFERS_CPP98_STL
  24:C:/Renesas/e2studio_2021_01_workspace_RZA2M_ANPR/ANPR_RZA2M_EBK/src/tensorflow_lite/third_party/flatbuffers/include/flatbuffers\flatbuffers.h ****   #include <functional>
  25:C:/Renesas/e2studio_2021_01_workspace_RZA2M_ANPR/ANPR_RZA2M_EBK/src/tensorflow_lite/third_party/flatbuffers/include/flatbuffers\flatbuffers.h **** #endif
  26:C:/Renesas/e2studio_2021_01_workspace_RZA2M_ANPR/ANPR_RZA2M_EBK/src/tensorflow_lite/third_party/flatbuffers/include/flatbuffers\flatbuffers.h **** 
  27:C:/Renesas/e2studio_2021_01_workspace_RZA2M_ANPR/ANPR_RZA2M_EBK/src/tensorflow_lite/third_party/flatbuffers/include/flatbuffers\flatbuffers.h **** #if defined(FLATBUFFERS_NAN_DEFAULTS)
  28:C:/Renesas/e2studio_2021_01_workspace_RZA2M_ANPR/ANPR_RZA2M_EBK/src/tensorflow_lite/third_party/flatbuffers/include/flatbuffers\flatbuffers.h **** #  include <cmath>
  29:C:/Renesas/e2studio_2021_01_workspace_RZA2M_ANPR/ANPR_RZA2M_EBK/src/tensorflow_lite/third_party/flatbuffers/include/flatbuffers\flatbuffers.h **** #endif
  30:C:/Renesas/e2studio_2021_01_workspace_RZA2M_ANPR/ANPR_RZA2M_EBK/src/tensorflow_lite/third_party/flatbuffers/include/flatbuffers\flatbuffers.h **** 
  31:C:/Renesas/e2studio_2021_01_workspace_RZA2M_ANPR/ANPR_RZA2M_EBK/src/tensorflow_lite/third_party/flatbuffers/include/flatbuffers\flatbuffers.h **** namespace flatbuffers {
  32:C:/Renesas/e2studio_2021_01_workspace_RZA2M_ANPR/ANPR_RZA2M_EBK/src/tensorflow_lite/third_party/flatbuffers/include/flatbuffers\flatbuffers.h **** // Generic 'operator==' with conditional specialisations.
  33:C:/Renesas/e2studio_2021_01_workspace_RZA2M_ANPR/ANPR_RZA2M_EBK/src/tensorflow_lite/third_party/flatbuffers/include/flatbuffers\flatbuffers.h **** // T e - new value of a scalar field.
  34:C:/Renesas/e2studio_2021_01_workspace_RZA2M_ANPR/ANPR_RZA2M_EBK/src/tensorflow_lite/third_party/flatbuffers/include/flatbuffers\flatbuffers.h **** // T def - default of scalar (is known at compile-time).
  35:C:/Renesas/e2studio_2021_01_workspace_RZA2M_ANPR/ANPR_RZA2M_EBK/src/tensorflow_lite/third_party/flatbuffers/include/flatbuffers\flatbuffers.h **** template<typename T> inline bool IsTheSameAs(T e, T def) { return e == def; }
  36:C:/Renesas/e2studio_2021_01_workspace_RZA2M_ANPR/ANPR_RZA2M_EBK/src/tensorflow_lite/third_party/flatbuffers/include/flatbuffers\flatbuffers.h **** 
  37:C:/Renesas/e2studio_2021_01_workspace_RZA2M_ANPR/ANPR_RZA2M_EBK/src/tensorflow_lite/third_party/flatbuffers/include/flatbuffers\flatbuffers.h **** #if defined(FLATBUFFERS_NAN_DEFAULTS) && \
  38:C:/Renesas/e2studio_2021_01_workspace_RZA2M_ANPR/ANPR_RZA2M_EBK/src/tensorflow_lite/third_party/flatbuffers/include/flatbuffers\flatbuffers.h ****     defined(FLATBUFFERS_HAS_NEW_STRTOD) && (FLATBUFFERS_HAS_NEW_STRTOD > 0)
  39:C:/Renesas/e2studio_2021_01_workspace_RZA2M_ANPR/ANPR_RZA2M_EBK/src/tensorflow_lite/third_party/flatbuffers/include/flatbuffers\flatbuffers.h **** // Like `operator==(e, def)` with weak NaN if T=(float|double).
  40:C:/Renesas/e2studio_2021_01_workspace_RZA2M_ANPR/ANPR_RZA2M_EBK/src/tensorflow_lite/third_party/flatbuffers/include/flatbuffers\flatbuffers.h **** template<typename T> inline bool IsFloatTheSameAs(T e, T def) {
  41:C:/Renesas/e2studio_2021_01_workspace_RZA2M_ANPR/ANPR_RZA2M_EBK/src/tensorflow_lite/third_party/flatbuffers/include/flatbuffers\flatbuffers.h ****   return (e == def) || ((def != def) && (e != e));
  42:C:/Renesas/e2studio_2021_01_workspace_RZA2M_ANPR/ANPR_RZA2M_EBK/src/tensorflow_lite/third_party/flatbuffers/include/flatbuffers\flatbuffers.h **** }
  43:C:/Renesas/e2studio_2021_01_workspace_RZA2M_ANPR/ANPR_RZA2M_EBK/src/tensorflow_lite/third_party/flatbuffers/include/flatbuffers\flatbuffers.h **** template<> inline bool IsTheSameAs<float>(float e, float def) {
  44:C:/Renesas/e2studio_2021_01_workspace_RZA2M_ANPR/ANPR_RZA2M_EBK/src/tensorflow_lite/third_party/flatbuffers/include/flatbuffers\flatbuffers.h ****   return IsFloatTheSameAs(e, def);
  45:C:/Renesas/e2studio_2021_01_workspace_RZA2M_ANPR/ANPR_RZA2M_EBK/src/tensorflow_lite/third_party/flatbuffers/include/flatbuffers\flatbuffers.h **** }
  46:C:/Renesas/e2studio_2021_01_workspace_RZA2M_ANPR/ANPR_RZA2M_EBK/src/tensorflow_lite/third_party/flatbuffers/include/flatbuffers\flatbuffers.h **** template<> inline bool IsTheSameAs<double>(double e, double def) {
  47:C:/Renesas/e2studio_2021_01_workspace_RZA2M_ANPR/ANPR_RZA2M_EBK/src/tensorflow_lite/third_party/flatbuffers/include/flatbuffers\flatbuffers.h ****   return IsFloatTheSameAs(e, def);
  48:C:/Renesas/e2studio_2021_01_workspace_RZA2M_ANPR/ANPR_RZA2M_EBK/src/tensorflow_lite/third_party/flatbuffers/include/flatbuffers\flatbuffers.h **** }
  49:C:/Renesas/e2studio_2021_01_workspace_RZA2M_ANPR/ANPR_RZA2M_EBK/src/tensorflow_lite/third_party/flatbuffers/include/flatbuffers\flatbuffers.h **** #endif
  50:C:/Renesas/e2studio_2021_01_workspace_RZA2M_ANPR/ANPR_RZA2M_EBK/src/tensorflow_lite/third_party/flatbuffers/include/flatbuffers\flatbuffers.h **** 
  51:C:/Renesas/e2studio_2021_01_workspace_RZA2M_ANPR/ANPR_RZA2M_EBK/src/tensorflow_lite/third_party/flatbuffers/include/flatbuffers\flatbuffers.h **** // Check 'v' is out of closed range [low; high].
  52:C:/Renesas/e2studio_2021_01_workspace_RZA2M_ANPR/ANPR_RZA2M_EBK/src/tensorflow_lite/third_party/flatbuffers/include/flatbuffers\flatbuffers.h **** // Workaround for GCC warning [-Werror=type-limits]:
  53:C:/Renesas/e2studio_2021_01_workspace_RZA2M_ANPR/ANPR_RZA2M_EBK/src/tensorflow_lite/third_party/flatbuffers/include/flatbuffers\flatbuffers.h **** // comparison is always true due to limited range of data type.
  54:C:/Renesas/e2studio_2021_01_workspace_RZA2M_ANPR/ANPR_RZA2M_EBK/src/tensorflow_lite/third_party/flatbuffers/include/flatbuffers\flatbuffers.h **** template<typename T>
  55:C:/Renesas/e2studio_2021_01_workspace_RZA2M_ANPR/ANPR_RZA2M_EBK/src/tensorflow_lite/third_party/flatbuffers/include/flatbuffers\flatbuffers.h **** inline bool IsOutRange(const T &v, const T &low, const T &high) {
  56:C:/Renesas/e2studio_2021_01_workspace_RZA2M_ANPR/ANPR_RZA2M_EBK/src/tensorflow_lite/third_party/flatbuffers/include/flatbuffers\flatbuffers.h ****   return (v < low) || (high < v);
  57:C:/Renesas/e2studio_2021_01_workspace_RZA2M_ANPR/ANPR_RZA2M_EBK/src/tensorflow_lite/third_party/flatbuffers/include/flatbuffers\flatbuffers.h **** }
  58:C:/Renesas/e2studio_2021_01_workspace_RZA2M_ANPR/ANPR_RZA2M_EBK/src/tensorflow_lite/third_party/flatbuffers/include/flatbuffers\flatbuffers.h **** 
  59:C:/Renesas/e2studio_2021_01_workspace_RZA2M_ANPR/ANPR_RZA2M_EBK/src/tensorflow_lite/third_party/flatbuffers/include/flatbuffers\flatbuffers.h **** // Check 'v' is in closed range [low; high].
  60:C:/Renesas/e2studio_2021_01_workspace_RZA2M_ANPR/ANPR_RZA2M_EBK/src/tensorflow_lite/third_party/flatbuffers/include/flatbuffers\flatbuffers.h **** template<typename T>
  61:C:/Renesas/e2studio_2021_01_workspace_RZA2M_ANPR/ANPR_RZA2M_EBK/src/tensorflow_lite/third_party/flatbuffers/include/flatbuffers\flatbuffers.h **** inline bool IsInRange(const T &v, const T &low, const T &high) {
  62:C:/Renesas/e2studio_2021_01_workspace_RZA2M_ANPR/ANPR_RZA2M_EBK/src/tensorflow_lite/third_party/flatbuffers/include/flatbuffers\flatbuffers.h ****   return !IsOutRange(v, low, high);
  63:C:/Renesas/e2studio_2021_01_workspace_RZA2M_ANPR/ANPR_RZA2M_EBK/src/tensorflow_lite/third_party/flatbuffers/include/flatbuffers\flatbuffers.h **** }
  64:C:/Renesas/e2studio_2021_01_workspace_RZA2M_ANPR/ANPR_RZA2M_EBK/src/tensorflow_lite/third_party/flatbuffers/include/flatbuffers\flatbuffers.h **** 
  65:C:/Renesas/e2studio_2021_01_workspace_RZA2M_ANPR/ANPR_RZA2M_EBK/src/tensorflow_lite/third_party/flatbuffers/include/flatbuffers\flatbuffers.h **** // Wrapper for uoffset_t to allow safe template specialization.
  66:C:/Renesas/e2studio_2021_01_workspace_RZA2M_ANPR/ANPR_RZA2M_EBK/src/tensorflow_lite/third_party/flatbuffers/include/flatbuffers\flatbuffers.h **** // Value is allowed to be 0 to indicate a null object (see e.g. AddOffset).
  67:C:/Renesas/e2studio_2021_01_workspace_RZA2M_ANPR/ANPR_RZA2M_EBK/src/tensorflow_lite/third_party/flatbuffers/include/flatbuffers\flatbuffers.h **** template<typename T> struct Offset {
  68:C:/Renesas/e2studio_2021_01_workspace_RZA2M_ANPR/ANPR_RZA2M_EBK/src/tensorflow_lite/third_party/flatbuffers/include/flatbuffers\flatbuffers.h ****   uoffset_t o;
  69:C:/Renesas/e2studio_2021_01_workspace_RZA2M_ANPR/ANPR_RZA2M_EBK/src/tensorflow_lite/third_party/flatbuffers/include/flatbuffers\flatbuffers.h ****   Offset() : o(0) {}
  70:C:/Renesas/e2studio_2021_01_workspace_RZA2M_ANPR/ANPR_RZA2M_EBK/src/tensorflow_lite/third_party/flatbuffers/include/flatbuffers\flatbuffers.h ****   Offset(uoffset_t _o) : o(_o) {}
  71:C:/Renesas/e2studio_2021_01_workspace_RZA2M_ANPR/ANPR_RZA2M_EBK/src/tensorflow_lite/third_party/flatbuffers/include/flatbuffers\flatbuffers.h ****   Offset<void> Union() const { return Offset<void>(o); }
  72:C:/Renesas/e2studio_2021_01_workspace_RZA2M_ANPR/ANPR_RZA2M_EBK/src/tensorflow_lite/third_party/flatbuffers/include/flatbuffers\flatbuffers.h ****   bool IsNull() const { return !o; }
  73:C:/Renesas/e2studio_2021_01_workspace_RZA2M_ANPR/ANPR_RZA2M_EBK/src/tensorflow_lite/third_party/flatbuffers/include/flatbuffers\flatbuffers.h **** };
  74:C:/Renesas/e2studio_2021_01_workspace_RZA2M_ANPR/ANPR_RZA2M_EBK/src/tensorflow_lite/third_party/flatbuffers/include/flatbuffers\flatbuffers.h **** 
  75:C:/Renesas/e2studio_2021_01_workspace_RZA2M_ANPR/ANPR_RZA2M_EBK/src/tensorflow_lite/third_party/flatbuffers/include/flatbuffers\flatbuffers.h **** inline void EndianCheck() {
  76:C:/Renesas/e2studio_2021_01_workspace_RZA2M_ANPR/ANPR_RZA2M_EBK/src/tensorflow_lite/third_party/flatbuffers/include/flatbuffers\flatbuffers.h ****   int endiantest = 1;
  77:C:/Renesas/e2studio_2021_01_workspace_RZA2M_ANPR/ANPR_RZA2M_EBK/src/tensorflow_lite/third_party/flatbuffers/include/flatbuffers\flatbuffers.h ****   // If this fails, see FLATBUFFERS_LITTLEENDIAN above.
  78:C:/Renesas/e2studio_2021_01_workspace_RZA2M_ANPR/ANPR_RZA2M_EBK/src/tensorflow_lite/third_party/flatbuffers/include/flatbuffers\flatbuffers.h ****   FLATBUFFERS_ASSERT(*reinterpret_cast<char *>(&endiantest) ==
  79:C:/Renesas/e2studio_2021_01_workspace_RZA2M_ANPR/ANPR_RZA2M_EBK/src/tensorflow_lite/third_party/flatbuffers/include/flatbuffers\flatbuffers.h ****                      FLATBUFFERS_LITTLEENDIAN);
  80:C:/Renesas/e2studio_2021_01_workspace_RZA2M_ANPR/ANPR_RZA2M_EBK/src/tensorflow_lite/third_party/flatbuffers/include/flatbuffers\flatbuffers.h ****   (void)endiantest;
  81:C:/Renesas/e2studio_2021_01_workspace_RZA2M_ANPR/ANPR_RZA2M_EBK/src/tensorflow_lite/third_party/flatbuffers/include/flatbuffers\flatbuffers.h **** }
  82:C:/Renesas/e2studio_2021_01_workspace_RZA2M_ANPR/ANPR_RZA2M_EBK/src/tensorflow_lite/third_party/flatbuffers/include/flatbuffers\flatbuffers.h **** 
  83:C:/Renesas/e2studio_2021_01_workspace_RZA2M_ANPR/ANPR_RZA2M_EBK/src/tensorflow_lite/third_party/flatbuffers/include/flatbuffers\flatbuffers.h **** template<typename T> FLATBUFFERS_CONSTEXPR size_t AlignOf() {
  84:C:/Renesas/e2studio_2021_01_workspace_RZA2M_ANPR/ANPR_RZA2M_EBK/src/tensorflow_lite/third_party/flatbuffers/include/flatbuffers\flatbuffers.h ****   // clang-format off
  85:C:/Renesas/e2studio_2021_01_workspace_RZA2M_ANPR/ANPR_RZA2M_EBK/src/tensorflow_lite/third_party/flatbuffers/include/flatbuffers\flatbuffers.h ****   #ifdef _MSC_VER
  86:C:/Renesas/e2studio_2021_01_workspace_RZA2M_ANPR/ANPR_RZA2M_EBK/src/tensorflow_lite/third_party/flatbuffers/include/flatbuffers\flatbuffers.h ****     return __alignof(T);
  87:C:/Renesas/e2studio_2021_01_workspace_RZA2M_ANPR/ANPR_RZA2M_EBK/src/tensorflow_lite/third_party/flatbuffers/include/flatbuffers\flatbuffers.h ****   #else
  88:C:/Renesas/e2studio_2021_01_workspace_RZA2M_ANPR/ANPR_RZA2M_EBK/src/tensorflow_lite/third_party/flatbuffers/include/flatbuffers\flatbuffers.h ****     #ifndef alignof
  89:C:/Renesas/e2studio_2021_01_workspace_RZA2M_ANPR/ANPR_RZA2M_EBK/src/tensorflow_lite/third_party/flatbuffers/include/flatbuffers\flatbuffers.h ****       return __alignof__(T);
  90:C:/Renesas/e2studio_2021_01_workspace_RZA2M_ANPR/ANPR_RZA2M_EBK/src/tensorflow_lite/third_party/flatbuffers/include/flatbuffers\flatbuffers.h ****     #else
  91:C:/Renesas/e2studio_2021_01_workspace_RZA2M_ANPR/ANPR_RZA2M_EBK/src/tensorflow_lite/third_party/flatbuffers/include/flatbuffers\flatbuffers.h ****       return alignof(T);
  92:C:/Renesas/e2studio_2021_01_workspace_RZA2M_ANPR/ANPR_RZA2M_EBK/src/tensorflow_lite/third_party/flatbuffers/include/flatbuffers\flatbuffers.h ****     #endif
  93:C:/Renesas/e2studio_2021_01_workspace_RZA2M_ANPR/ANPR_RZA2M_EBK/src/tensorflow_lite/third_party/flatbuffers/include/flatbuffers\flatbuffers.h ****   #endif
  94:C:/Renesas/e2studio_2021_01_workspace_RZA2M_ANPR/ANPR_RZA2M_EBK/src/tensorflow_lite/third_party/flatbuffers/include/flatbuffers\flatbuffers.h ****   // clang-format on
  95:C:/Renesas/e2studio_2021_01_workspace_RZA2M_ANPR/ANPR_RZA2M_EBK/src/tensorflow_lite/third_party/flatbuffers/include/flatbuffers\flatbuffers.h **** }
  96:C:/Renesas/e2studio_2021_01_workspace_RZA2M_ANPR/ANPR_RZA2M_EBK/src/tensorflow_lite/third_party/flatbuffers/include/flatbuffers\flatbuffers.h **** 
  97:C:/Renesas/e2studio_2021_01_workspace_RZA2M_ANPR/ANPR_RZA2M_EBK/src/tensorflow_lite/third_party/flatbuffers/include/flatbuffers\flatbuffers.h **** // When we read serialized data from memory, in the case of most scalars,
  98:C:/Renesas/e2studio_2021_01_workspace_RZA2M_ANPR/ANPR_RZA2M_EBK/src/tensorflow_lite/third_party/flatbuffers/include/flatbuffers\flatbuffers.h **** // we want to just read T, but in the case of Offset, we want to actually
  99:C:/Renesas/e2studio_2021_01_workspace_RZA2M_ANPR/ANPR_RZA2M_EBK/src/tensorflow_lite/third_party/flatbuffers/include/flatbuffers\flatbuffers.h **** // perform the indirection and return a pointer.
 100:C:/Renesas/e2studio_2021_01_workspace_RZA2M_ANPR/ANPR_RZA2M_EBK/src/tensorflow_lite/third_party/flatbuffers/include/flatbuffers\flatbuffers.h **** // The template specialization below does just that.
 101:C:/Renesas/e2studio_2021_01_workspace_RZA2M_ANPR/ANPR_RZA2M_EBK/src/tensorflow_lite/third_party/flatbuffers/include/flatbuffers\flatbuffers.h **** // It is wrapped in a struct since function templates can't overload on the
 102:C:/Renesas/e2studio_2021_01_workspace_RZA2M_ANPR/ANPR_RZA2M_EBK/src/tensorflow_lite/third_party/flatbuffers/include/flatbuffers\flatbuffers.h **** // return type like this.
 103:C:/Renesas/e2studio_2021_01_workspace_RZA2M_ANPR/ANPR_RZA2M_EBK/src/tensorflow_lite/third_party/flatbuffers/include/flatbuffers\flatbuffers.h **** // The typedef is for the convenience of callers of this function
 104:C:/Renesas/e2studio_2021_01_workspace_RZA2M_ANPR/ANPR_RZA2M_EBK/src/tensorflow_lite/third_party/flatbuffers/include/flatbuffers\flatbuffers.h **** // (avoiding the need for a trailing return decltype)
 105:C:/Renesas/e2studio_2021_01_workspace_RZA2M_ANPR/ANPR_RZA2M_EBK/src/tensorflow_lite/third_party/flatbuffers/include/flatbuffers\flatbuffers.h **** template<typename T> struct IndirectHelper {
 106:C:/Renesas/e2studio_2021_01_workspace_RZA2M_ANPR/ANPR_RZA2M_EBK/src/tensorflow_lite/third_party/flatbuffers/include/flatbuffers\flatbuffers.h ****   typedef T return_type;
 107:C:/Renesas/e2studio_2021_01_workspace_RZA2M_ANPR/ANPR_RZA2M_EBK/src/tensorflow_lite/third_party/flatbuffers/include/flatbuffers\flatbuffers.h ****   typedef T mutable_return_type;
 108:C:/Renesas/e2studio_2021_01_workspace_RZA2M_ANPR/ANPR_RZA2M_EBK/src/tensorflow_lite/third_party/flatbuffers/include/flatbuffers\flatbuffers.h ****   static const size_t element_stride = sizeof(T);
 109:C:/Renesas/e2studio_2021_01_workspace_RZA2M_ANPR/ANPR_RZA2M_EBK/src/tensorflow_lite/third_party/flatbuffers/include/flatbuffers\flatbuffers.h ****   static return_type Read(const uint8_t *p, uoffset_t i) {
 110:C:/Renesas/e2studio_2021_01_workspace_RZA2M_ANPR/ANPR_RZA2M_EBK/src/tensorflow_lite/third_party/flatbuffers/include/flatbuffers\flatbuffers.h ****     return EndianScalar((reinterpret_cast<const T *>(p))[i]);
 111:C:/Renesas/e2studio_2021_01_workspace_RZA2M_ANPR/ANPR_RZA2M_EBK/src/tensorflow_lite/third_party/flatbuffers/include/flatbuffers\flatbuffers.h ****   }
 112:C:/Renesas/e2studio_2021_01_workspace_RZA2M_ANPR/ANPR_RZA2M_EBK/src/tensorflow_lite/third_party/flatbuffers/include/flatbuffers\flatbuffers.h **** };
 113:C:/Renesas/e2studio_2021_01_workspace_RZA2M_ANPR/ANPR_RZA2M_EBK/src/tensorflow_lite/third_party/flatbuffers/include/flatbuffers\flatbuffers.h **** template<typename T> struct IndirectHelper<Offset<T>> {
 114:C:/Renesas/e2studio_2021_01_workspace_RZA2M_ANPR/ANPR_RZA2M_EBK/src/tensorflow_lite/third_party/flatbuffers/include/flatbuffers\flatbuffers.h ****   typedef const T *return_type;
 115:C:/Renesas/e2studio_2021_01_workspace_RZA2M_ANPR/ANPR_RZA2M_EBK/src/tensorflow_lite/third_party/flatbuffers/include/flatbuffers\flatbuffers.h ****   typedef T *mutable_return_type;
 116:C:/Renesas/e2studio_2021_01_workspace_RZA2M_ANPR/ANPR_RZA2M_EBK/src/tensorflow_lite/third_party/flatbuffers/include/flatbuffers\flatbuffers.h ****   static const size_t element_stride = sizeof(uoffset_t);
 117:C:/Renesas/e2studio_2021_01_workspace_RZA2M_ANPR/ANPR_RZA2M_EBK/src/tensorflow_lite/third_party/flatbuffers/include/flatbuffers\flatbuffers.h ****   static return_type Read(const uint8_t *p, uoffset_t i) {
 118:C:/Renesas/e2studio_2021_01_workspace_RZA2M_ANPR/ANPR_RZA2M_EBK/src/tensorflow_lite/third_party/flatbuffers/include/flatbuffers\flatbuffers.h ****     p += i * sizeof(uoffset_t);
 119:C:/Renesas/e2studio_2021_01_workspace_RZA2M_ANPR/ANPR_RZA2M_EBK/src/tensorflow_lite/third_party/flatbuffers/include/flatbuffers\flatbuffers.h ****     return reinterpret_cast<return_type>(p + ReadScalar<uoffset_t>(p));
 120:C:/Renesas/e2studio_2021_01_workspace_RZA2M_ANPR/ANPR_RZA2M_EBK/src/tensorflow_lite/third_party/flatbuffers/include/flatbuffers\flatbuffers.h ****   }
 121:C:/Renesas/e2studio_2021_01_workspace_RZA2M_ANPR/ANPR_RZA2M_EBK/src/tensorflow_lite/third_party/flatbuffers/include/flatbuffers\flatbuffers.h **** };
 122:C:/Renesas/e2studio_2021_01_workspace_RZA2M_ANPR/ANPR_RZA2M_EBK/src/tensorflow_lite/third_party/flatbuffers/include/flatbuffers\flatbuffers.h **** template<typename T> struct IndirectHelper<const T *> {
 123:C:/Renesas/e2studio_2021_01_workspace_RZA2M_ANPR/ANPR_RZA2M_EBK/src/tensorflow_lite/third_party/flatbuffers/include/flatbuffers\flatbuffers.h ****   typedef const T *return_type;
 124:C:/Renesas/e2studio_2021_01_workspace_RZA2M_ANPR/ANPR_RZA2M_EBK/src/tensorflow_lite/third_party/flatbuffers/include/flatbuffers\flatbuffers.h ****   typedef T *mutable_return_type;
 125:C:/Renesas/e2studio_2021_01_workspace_RZA2M_ANPR/ANPR_RZA2M_EBK/src/tensorflow_lite/third_party/flatbuffers/include/flatbuffers\flatbuffers.h ****   static const size_t element_stride = sizeof(T);
 126:C:/Renesas/e2studio_2021_01_workspace_RZA2M_ANPR/ANPR_RZA2M_EBK/src/tensorflow_lite/third_party/flatbuffers/include/flatbuffers\flatbuffers.h ****   static return_type Read(const uint8_t *p, uoffset_t i) {
 127:C:/Renesas/e2studio_2021_01_workspace_RZA2M_ANPR/ANPR_RZA2M_EBK/src/tensorflow_lite/third_party/flatbuffers/include/flatbuffers\flatbuffers.h ****     return reinterpret_cast<const T *>(p + i * sizeof(T));
 128:C:/Renesas/e2studio_2021_01_workspace_RZA2M_ANPR/ANPR_RZA2M_EBK/src/tensorflow_lite/third_party/flatbuffers/include/flatbuffers\flatbuffers.h ****   }
 129:C:/Renesas/e2studio_2021_01_workspace_RZA2M_ANPR/ANPR_RZA2M_EBK/src/tensorflow_lite/third_party/flatbuffers/include/flatbuffers\flatbuffers.h **** };
 130:C:/Renesas/e2studio_2021_01_workspace_RZA2M_ANPR/ANPR_RZA2M_EBK/src/tensorflow_lite/third_party/flatbuffers/include/flatbuffers\flatbuffers.h **** 
 131:C:/Renesas/e2studio_2021_01_workspace_RZA2M_ANPR/ANPR_RZA2M_EBK/src/tensorflow_lite/third_party/flatbuffers/include/flatbuffers\flatbuffers.h **** // An STL compatible iterator implementation for Vector below, effectively
 132:C:/Renesas/e2studio_2021_01_workspace_RZA2M_ANPR/ANPR_RZA2M_EBK/src/tensorflow_lite/third_party/flatbuffers/include/flatbuffers\flatbuffers.h **** // calling Get() for every element.
 133:C:/Renesas/e2studio_2021_01_workspace_RZA2M_ANPR/ANPR_RZA2M_EBK/src/tensorflow_lite/third_party/flatbuffers/include/flatbuffers\flatbuffers.h **** template<typename T, typename IT> struct VectorIterator {
 134:C:/Renesas/e2studio_2021_01_workspace_RZA2M_ANPR/ANPR_RZA2M_EBK/src/tensorflow_lite/third_party/flatbuffers/include/flatbuffers\flatbuffers.h ****   typedef std::random_access_iterator_tag iterator_category;
 135:C:/Renesas/e2studio_2021_01_workspace_RZA2M_ANPR/ANPR_RZA2M_EBK/src/tensorflow_lite/third_party/flatbuffers/include/flatbuffers\flatbuffers.h ****   typedef IT value_type;
 136:C:/Renesas/e2studio_2021_01_workspace_RZA2M_ANPR/ANPR_RZA2M_EBK/src/tensorflow_lite/third_party/flatbuffers/include/flatbuffers\flatbuffers.h ****   typedef ptrdiff_t difference_type;
 137:C:/Renesas/e2studio_2021_01_workspace_RZA2M_ANPR/ANPR_RZA2M_EBK/src/tensorflow_lite/third_party/flatbuffers/include/flatbuffers\flatbuffers.h ****   typedef IT *pointer;
 138:C:/Renesas/e2studio_2021_01_workspace_RZA2M_ANPR/ANPR_RZA2M_EBK/src/tensorflow_lite/third_party/flatbuffers/include/flatbuffers\flatbuffers.h ****   typedef IT &reference;
 139:C:/Renesas/e2studio_2021_01_workspace_RZA2M_ANPR/ANPR_RZA2M_EBK/src/tensorflow_lite/third_party/flatbuffers/include/flatbuffers\flatbuffers.h **** 
 140:C:/Renesas/e2studio_2021_01_workspace_RZA2M_ANPR/ANPR_RZA2M_EBK/src/tensorflow_lite/third_party/flatbuffers/include/flatbuffers\flatbuffers.h ****   VectorIterator(const uint8_t *data, uoffset_t i)
 141:C:/Renesas/e2studio_2021_01_workspace_RZA2M_ANPR/ANPR_RZA2M_EBK/src/tensorflow_lite/third_party/flatbuffers/include/flatbuffers\flatbuffers.h ****       : data_(data + IndirectHelper<T>::element_stride * i) {}
 142:C:/Renesas/e2studio_2021_01_workspace_RZA2M_ANPR/ANPR_RZA2M_EBK/src/tensorflow_lite/third_party/flatbuffers/include/flatbuffers\flatbuffers.h ****   VectorIterator(const VectorIterator &other) : data_(other.data_) {}
 143:C:/Renesas/e2studio_2021_01_workspace_RZA2M_ANPR/ANPR_RZA2M_EBK/src/tensorflow_lite/third_party/flatbuffers/include/flatbuffers\flatbuffers.h ****   VectorIterator() : data_(nullptr) {}
 144:C:/Renesas/e2studio_2021_01_workspace_RZA2M_ANPR/ANPR_RZA2M_EBK/src/tensorflow_lite/third_party/flatbuffers/include/flatbuffers\flatbuffers.h **** 
 145:C:/Renesas/e2studio_2021_01_workspace_RZA2M_ANPR/ANPR_RZA2M_EBK/src/tensorflow_lite/third_party/flatbuffers/include/flatbuffers\flatbuffers.h ****   VectorIterator &operator=(const VectorIterator &other) {
 146:C:/Renesas/e2studio_2021_01_workspace_RZA2M_ANPR/ANPR_RZA2M_EBK/src/tensorflow_lite/third_party/flatbuffers/include/flatbuffers\flatbuffers.h ****     data_ = other.data_;
 147:C:/Renesas/e2studio_2021_01_workspace_RZA2M_ANPR/ANPR_RZA2M_EBK/src/tensorflow_lite/third_party/flatbuffers/include/flatbuffers\flatbuffers.h ****     return *this;
 148:C:/Renesas/e2studio_2021_01_workspace_RZA2M_ANPR/ANPR_RZA2M_EBK/src/tensorflow_lite/third_party/flatbuffers/include/flatbuffers\flatbuffers.h ****   }
 149:C:/Renesas/e2studio_2021_01_workspace_RZA2M_ANPR/ANPR_RZA2M_EBK/src/tensorflow_lite/third_party/flatbuffers/include/flatbuffers\flatbuffers.h **** 
 150:C:/Renesas/e2studio_2021_01_workspace_RZA2M_ANPR/ANPR_RZA2M_EBK/src/tensorflow_lite/third_party/flatbuffers/include/flatbuffers\flatbuffers.h ****   // clang-format off
 151:C:/Renesas/e2studio_2021_01_workspace_RZA2M_ANPR/ANPR_RZA2M_EBK/src/tensorflow_lite/third_party/flatbuffers/include/flatbuffers\flatbuffers.h ****   #if !defined(FLATBUFFERS_CPP98_STL)
 152:C:/Renesas/e2studio_2021_01_workspace_RZA2M_ANPR/ANPR_RZA2M_EBK/src/tensorflow_lite/third_party/flatbuffers/include/flatbuffers\flatbuffers.h ****   VectorIterator &operator=(VectorIterator &&other) {
 153:C:/Renesas/e2studio_2021_01_workspace_RZA2M_ANPR/ANPR_RZA2M_EBK/src/tensorflow_lite/third_party/flatbuffers/include/flatbuffers\flatbuffers.h ****     data_ = other.data_;
 154:C:/Renesas/e2studio_2021_01_workspace_RZA2M_ANPR/ANPR_RZA2M_EBK/src/tensorflow_lite/third_party/flatbuffers/include/flatbuffers\flatbuffers.h ****     return *this;
 155:C:/Renesas/e2studio_2021_01_workspace_RZA2M_ANPR/ANPR_RZA2M_EBK/src/tensorflow_lite/third_party/flatbuffers/include/flatbuffers\flatbuffers.h ****   }
 156:C:/Renesas/e2studio_2021_01_workspace_RZA2M_ANPR/ANPR_RZA2M_EBK/src/tensorflow_lite/third_party/flatbuffers/include/flatbuffers\flatbuffers.h ****   #endif  // !defined(FLATBUFFERS_CPP98_STL)
 157:C:/Renesas/e2studio_2021_01_workspace_RZA2M_ANPR/ANPR_RZA2M_EBK/src/tensorflow_lite/third_party/flatbuffers/include/flatbuffers\flatbuffers.h ****   // clang-format on
 158:C:/Renesas/e2studio_2021_01_workspace_RZA2M_ANPR/ANPR_RZA2M_EBK/src/tensorflow_lite/third_party/flatbuffers/include/flatbuffers\flatbuffers.h **** 
 159:C:/Renesas/e2studio_2021_01_workspace_RZA2M_ANPR/ANPR_RZA2M_EBK/src/tensorflow_lite/third_party/flatbuffers/include/flatbuffers\flatbuffers.h ****   bool operator==(const VectorIterator &other) const {
 160:C:/Renesas/e2studio_2021_01_workspace_RZA2M_ANPR/ANPR_RZA2M_EBK/src/tensorflow_lite/third_party/flatbuffers/include/flatbuffers\flatbuffers.h ****     return data_ == other.data_;
 161:C:/Renesas/e2studio_2021_01_workspace_RZA2M_ANPR/ANPR_RZA2M_EBK/src/tensorflow_lite/third_party/flatbuffers/include/flatbuffers\flatbuffers.h ****   }
 162:C:/Renesas/e2studio_2021_01_workspace_RZA2M_ANPR/ANPR_RZA2M_EBK/src/tensorflow_lite/third_party/flatbuffers/include/flatbuffers\flatbuffers.h **** 
 163:C:/Renesas/e2studio_2021_01_workspace_RZA2M_ANPR/ANPR_RZA2M_EBK/src/tensorflow_lite/third_party/flatbuffers/include/flatbuffers\flatbuffers.h ****   bool operator<(const VectorIterator &other) const {
 164:C:/Renesas/e2studio_2021_01_workspace_RZA2M_ANPR/ANPR_RZA2M_EBK/src/tensorflow_lite/third_party/flatbuffers/include/flatbuffers\flatbuffers.h ****     return data_ < other.data_;
 165:C:/Renesas/e2studio_2021_01_workspace_RZA2M_ANPR/ANPR_RZA2M_EBK/src/tensorflow_lite/third_party/flatbuffers/include/flatbuffers\flatbuffers.h ****   }
 166:C:/Renesas/e2studio_2021_01_workspace_RZA2M_ANPR/ANPR_RZA2M_EBK/src/tensorflow_lite/third_party/flatbuffers/include/flatbuffers\flatbuffers.h **** 
 167:C:/Renesas/e2studio_2021_01_workspace_RZA2M_ANPR/ANPR_RZA2M_EBK/src/tensorflow_lite/third_party/flatbuffers/include/flatbuffers\flatbuffers.h ****   bool operator!=(const VectorIterator &other) const {
 168:C:/Renesas/e2studio_2021_01_workspace_RZA2M_ANPR/ANPR_RZA2M_EBK/src/tensorflow_lite/third_party/flatbuffers/include/flatbuffers\flatbuffers.h ****     return data_ != other.data_;
 169:C:/Renesas/e2studio_2021_01_workspace_RZA2M_ANPR/ANPR_RZA2M_EBK/src/tensorflow_lite/third_party/flatbuffers/include/flatbuffers\flatbuffers.h ****   }
 170:C:/Renesas/e2studio_2021_01_workspace_RZA2M_ANPR/ANPR_RZA2M_EBK/src/tensorflow_lite/third_party/flatbuffers/include/flatbuffers\flatbuffers.h **** 
 171:C:/Renesas/e2studio_2021_01_workspace_RZA2M_ANPR/ANPR_RZA2M_EBK/src/tensorflow_lite/third_party/flatbuffers/include/flatbuffers\flatbuffers.h ****   difference_type operator-(const VectorIterator &other) const {
 172:C:/Renesas/e2studio_2021_01_workspace_RZA2M_ANPR/ANPR_RZA2M_EBK/src/tensorflow_lite/third_party/flatbuffers/include/flatbuffers\flatbuffers.h ****     return (data_ - other.data_) / IndirectHelper<T>::element_stride;
 173:C:/Renesas/e2studio_2021_01_workspace_RZA2M_ANPR/ANPR_RZA2M_EBK/src/tensorflow_lite/third_party/flatbuffers/include/flatbuffers\flatbuffers.h ****   }
 174:C:/Renesas/e2studio_2021_01_workspace_RZA2M_ANPR/ANPR_RZA2M_EBK/src/tensorflow_lite/third_party/flatbuffers/include/flatbuffers\flatbuffers.h **** 
 175:C:/Renesas/e2studio_2021_01_workspace_RZA2M_ANPR/ANPR_RZA2M_EBK/src/tensorflow_lite/third_party/flatbuffers/include/flatbuffers\flatbuffers.h ****   IT operator*() const { return IndirectHelper<T>::Read(data_, 0); }
 176:C:/Renesas/e2studio_2021_01_workspace_RZA2M_ANPR/ANPR_RZA2M_EBK/src/tensorflow_lite/third_party/flatbuffers/include/flatbuffers\flatbuffers.h **** 
 177:C:/Renesas/e2studio_2021_01_workspace_RZA2M_ANPR/ANPR_RZA2M_EBK/src/tensorflow_lite/third_party/flatbuffers/include/flatbuffers\flatbuffers.h ****   IT operator->() const { return IndirectHelper<T>::Read(data_, 0); }
 178:C:/Renesas/e2studio_2021_01_workspace_RZA2M_ANPR/ANPR_RZA2M_EBK/src/tensorflow_lite/third_party/flatbuffers/include/flatbuffers\flatbuffers.h **** 
 179:C:/Renesas/e2studio_2021_01_workspace_RZA2M_ANPR/ANPR_RZA2M_EBK/src/tensorflow_lite/third_party/flatbuffers/include/flatbuffers\flatbuffers.h ****   VectorIterator &operator++() {
 180:C:/Renesas/e2studio_2021_01_workspace_RZA2M_ANPR/ANPR_RZA2M_EBK/src/tensorflow_lite/third_party/flatbuffers/include/flatbuffers\flatbuffers.h ****     data_ += IndirectHelper<T>::element_stride;
 181:C:/Renesas/e2studio_2021_01_workspace_RZA2M_ANPR/ANPR_RZA2M_EBK/src/tensorflow_lite/third_party/flatbuffers/include/flatbuffers\flatbuffers.h ****     return *this;
 182:C:/Renesas/e2studio_2021_01_workspace_RZA2M_ANPR/ANPR_RZA2M_EBK/src/tensorflow_lite/third_party/flatbuffers/include/flatbuffers\flatbuffers.h ****   }
 183:C:/Renesas/e2studio_2021_01_workspace_RZA2M_ANPR/ANPR_RZA2M_EBK/src/tensorflow_lite/third_party/flatbuffers/include/flatbuffers\flatbuffers.h **** 
 184:C:/Renesas/e2studio_2021_01_workspace_RZA2M_ANPR/ANPR_RZA2M_EBK/src/tensorflow_lite/third_party/flatbuffers/include/flatbuffers\flatbuffers.h ****   VectorIterator operator++(int) {
 185:C:/Renesas/e2studio_2021_01_workspace_RZA2M_ANPR/ANPR_RZA2M_EBK/src/tensorflow_lite/third_party/flatbuffers/include/flatbuffers\flatbuffers.h ****     VectorIterator temp(data_, 0);
 186:C:/Renesas/e2studio_2021_01_workspace_RZA2M_ANPR/ANPR_RZA2M_EBK/src/tensorflow_lite/third_party/flatbuffers/include/flatbuffers\flatbuffers.h ****     data_ += IndirectHelper<T>::element_stride;
 187:C:/Renesas/e2studio_2021_01_workspace_RZA2M_ANPR/ANPR_RZA2M_EBK/src/tensorflow_lite/third_party/flatbuffers/include/flatbuffers\flatbuffers.h ****     return temp;
 188:C:/Renesas/e2studio_2021_01_workspace_RZA2M_ANPR/ANPR_RZA2M_EBK/src/tensorflow_lite/third_party/flatbuffers/include/flatbuffers\flatbuffers.h ****   }
 189:C:/Renesas/e2studio_2021_01_workspace_RZA2M_ANPR/ANPR_RZA2M_EBK/src/tensorflow_lite/third_party/flatbuffers/include/flatbuffers\flatbuffers.h **** 
 190:C:/Renesas/e2studio_2021_01_workspace_RZA2M_ANPR/ANPR_RZA2M_EBK/src/tensorflow_lite/third_party/flatbuffers/include/flatbuffers\flatbuffers.h ****   VectorIterator operator+(const uoffset_t &offset) const {
 191:C:/Renesas/e2studio_2021_01_workspace_RZA2M_ANPR/ANPR_RZA2M_EBK/src/tensorflow_lite/third_party/flatbuffers/include/flatbuffers\flatbuffers.h ****     return VectorIterator(data_ + offset * IndirectHelper<T>::element_stride,
 192:C:/Renesas/e2studio_2021_01_workspace_RZA2M_ANPR/ANPR_RZA2M_EBK/src/tensorflow_lite/third_party/flatbuffers/include/flatbuffers\flatbuffers.h ****                           0);
 193:C:/Renesas/e2studio_2021_01_workspace_RZA2M_ANPR/ANPR_RZA2M_EBK/src/tensorflow_lite/third_party/flatbuffers/include/flatbuffers\flatbuffers.h ****   }
 194:C:/Renesas/e2studio_2021_01_workspace_RZA2M_ANPR/ANPR_RZA2M_EBK/src/tensorflow_lite/third_party/flatbuffers/include/flatbuffers\flatbuffers.h **** 
 195:C:/Renesas/e2studio_2021_01_workspace_RZA2M_ANPR/ANPR_RZA2M_EBK/src/tensorflow_lite/third_party/flatbuffers/include/flatbuffers\flatbuffers.h ****   VectorIterator &operator+=(const uoffset_t &offset) {
 196:C:/Renesas/e2studio_2021_01_workspace_RZA2M_ANPR/ANPR_RZA2M_EBK/src/tensorflow_lite/third_party/flatbuffers/include/flatbuffers\flatbuffers.h ****     data_ += offset * IndirectHelper<T>::element_stride;
 197:C:/Renesas/e2studio_2021_01_workspace_RZA2M_ANPR/ANPR_RZA2M_EBK/src/tensorflow_lite/third_party/flatbuffers/include/flatbuffers\flatbuffers.h ****     return *this;
 198:C:/Renesas/e2studio_2021_01_workspace_RZA2M_ANPR/ANPR_RZA2M_EBK/src/tensorflow_lite/third_party/flatbuffers/include/flatbuffers\flatbuffers.h ****   }
 199:C:/Renesas/e2studio_2021_01_workspace_RZA2M_ANPR/ANPR_RZA2M_EBK/src/tensorflow_lite/third_party/flatbuffers/include/flatbuffers\flatbuffers.h **** 
 200:C:/Renesas/e2studio_2021_01_workspace_RZA2M_ANPR/ANPR_RZA2M_EBK/src/tensorflow_lite/third_party/flatbuffers/include/flatbuffers\flatbuffers.h ****   VectorIterator &operator--() {
 201:C:/Renesas/e2studio_2021_01_workspace_RZA2M_ANPR/ANPR_RZA2M_EBK/src/tensorflow_lite/third_party/flatbuffers/include/flatbuffers\flatbuffers.h ****     data_ -= IndirectHelper<T>::element_stride;
 202:C:/Renesas/e2studio_2021_01_workspace_RZA2M_ANPR/ANPR_RZA2M_EBK/src/tensorflow_lite/third_party/flatbuffers/include/flatbuffers\flatbuffers.h ****     return *this;
 203:C:/Renesas/e2studio_2021_01_workspace_RZA2M_ANPR/ANPR_RZA2M_EBK/src/tensorflow_lite/third_party/flatbuffers/include/flatbuffers\flatbuffers.h ****   }
 204:C:/Renesas/e2studio_2021_01_workspace_RZA2M_ANPR/ANPR_RZA2M_EBK/src/tensorflow_lite/third_party/flatbuffers/include/flatbuffers\flatbuffers.h **** 
 205:C:/Renesas/e2studio_2021_01_workspace_RZA2M_ANPR/ANPR_RZA2M_EBK/src/tensorflow_lite/third_party/flatbuffers/include/flatbuffers\flatbuffers.h ****   VectorIterator operator--(int) {
 206:C:/Renesas/e2studio_2021_01_workspace_RZA2M_ANPR/ANPR_RZA2M_EBK/src/tensorflow_lite/third_party/flatbuffers/include/flatbuffers\flatbuffers.h ****     VectorIterator temp(data_, 0);
 207:C:/Renesas/e2studio_2021_01_workspace_RZA2M_ANPR/ANPR_RZA2M_EBK/src/tensorflow_lite/third_party/flatbuffers/include/flatbuffers\flatbuffers.h ****     data_ -= IndirectHelper<T>::element_stride;
 208:C:/Renesas/e2studio_2021_01_workspace_RZA2M_ANPR/ANPR_RZA2M_EBK/src/tensorflow_lite/third_party/flatbuffers/include/flatbuffers\flatbuffers.h ****     return temp;
 209:C:/Renesas/e2studio_2021_01_workspace_RZA2M_ANPR/ANPR_RZA2M_EBK/src/tensorflow_lite/third_party/flatbuffers/include/flatbuffers\flatbuffers.h ****   }
 210:C:/Renesas/e2studio_2021_01_workspace_RZA2M_ANPR/ANPR_RZA2M_EBK/src/tensorflow_lite/third_party/flatbuffers/include/flatbuffers\flatbuffers.h **** 
 211:C:/Renesas/e2studio_2021_01_workspace_RZA2M_ANPR/ANPR_RZA2M_EBK/src/tensorflow_lite/third_party/flatbuffers/include/flatbuffers\flatbuffers.h ****   VectorIterator operator-(const uoffset_t &offset) const {
 212:C:/Renesas/e2studio_2021_01_workspace_RZA2M_ANPR/ANPR_RZA2M_EBK/src/tensorflow_lite/third_party/flatbuffers/include/flatbuffers\flatbuffers.h ****     return VectorIterator(data_ - offset * IndirectHelper<T>::element_stride,
 213:C:/Renesas/e2studio_2021_01_workspace_RZA2M_ANPR/ANPR_RZA2M_EBK/src/tensorflow_lite/third_party/flatbuffers/include/flatbuffers\flatbuffers.h ****                           0);
 214:C:/Renesas/e2studio_2021_01_workspace_RZA2M_ANPR/ANPR_RZA2M_EBK/src/tensorflow_lite/third_party/flatbuffers/include/flatbuffers\flatbuffers.h ****   }
 215:C:/Renesas/e2studio_2021_01_workspace_RZA2M_ANPR/ANPR_RZA2M_EBK/src/tensorflow_lite/third_party/flatbuffers/include/flatbuffers\flatbuffers.h **** 
 216:C:/Renesas/e2studio_2021_01_workspace_RZA2M_ANPR/ANPR_RZA2M_EBK/src/tensorflow_lite/third_party/flatbuffers/include/flatbuffers\flatbuffers.h ****   VectorIterator &operator-=(const uoffset_t &offset) {
 217:C:/Renesas/e2studio_2021_01_workspace_RZA2M_ANPR/ANPR_RZA2M_EBK/src/tensorflow_lite/third_party/flatbuffers/include/flatbuffers\flatbuffers.h ****     data_ -= offset * IndirectHelper<T>::element_stride;
 218:C:/Renesas/e2studio_2021_01_workspace_RZA2M_ANPR/ANPR_RZA2M_EBK/src/tensorflow_lite/third_party/flatbuffers/include/flatbuffers\flatbuffers.h ****     return *this;
 219:C:/Renesas/e2studio_2021_01_workspace_RZA2M_ANPR/ANPR_RZA2M_EBK/src/tensorflow_lite/third_party/flatbuffers/include/flatbuffers\flatbuffers.h ****   }
 220:C:/Renesas/e2studio_2021_01_workspace_RZA2M_ANPR/ANPR_RZA2M_EBK/src/tensorflow_lite/third_party/flatbuffers/include/flatbuffers\flatbuffers.h **** 
 221:C:/Renesas/e2studio_2021_01_workspace_RZA2M_ANPR/ANPR_RZA2M_EBK/src/tensorflow_lite/third_party/flatbuffers/include/flatbuffers\flatbuffers.h ****  private:
 222:C:/Renesas/e2studio_2021_01_workspace_RZA2M_ANPR/ANPR_RZA2M_EBK/src/tensorflow_lite/third_party/flatbuffers/include/flatbuffers\flatbuffers.h ****   const uint8_t *data_;
 223:C:/Renesas/e2studio_2021_01_workspace_RZA2M_ANPR/ANPR_RZA2M_EBK/src/tensorflow_lite/third_party/flatbuffers/include/flatbuffers\flatbuffers.h **** };
 224:C:/Renesas/e2studio_2021_01_workspace_RZA2M_ANPR/ANPR_RZA2M_EBK/src/tensorflow_lite/third_party/flatbuffers/include/flatbuffers\flatbuffers.h **** 
 225:C:/Renesas/e2studio_2021_01_workspace_RZA2M_ANPR/ANPR_RZA2M_EBK/src/tensorflow_lite/third_party/flatbuffers/include/flatbuffers\flatbuffers.h **** template<typename Iterator>
 226:C:/Renesas/e2studio_2021_01_workspace_RZA2M_ANPR/ANPR_RZA2M_EBK/src/tensorflow_lite/third_party/flatbuffers/include/flatbuffers\flatbuffers.h **** struct VectorReverseIterator : public std::reverse_iterator<Iterator> {
 227:C:/Renesas/e2studio_2021_01_workspace_RZA2M_ANPR/ANPR_RZA2M_EBK/src/tensorflow_lite/third_party/flatbuffers/include/flatbuffers\flatbuffers.h ****   explicit VectorReverseIterator(Iterator iter)
 228:C:/Renesas/e2studio_2021_01_workspace_RZA2M_ANPR/ANPR_RZA2M_EBK/src/tensorflow_lite/third_party/flatbuffers/include/flatbuffers\flatbuffers.h ****       : std::reverse_iterator<Iterator>(iter) {}
 229:C:/Renesas/e2studio_2021_01_workspace_RZA2M_ANPR/ANPR_RZA2M_EBK/src/tensorflow_lite/third_party/flatbuffers/include/flatbuffers\flatbuffers.h **** 
 230:C:/Renesas/e2studio_2021_01_workspace_RZA2M_ANPR/ANPR_RZA2M_EBK/src/tensorflow_lite/third_party/flatbuffers/include/flatbuffers\flatbuffers.h ****   typename Iterator::value_type operator*() const {
 231:C:/Renesas/e2studio_2021_01_workspace_RZA2M_ANPR/ANPR_RZA2M_EBK/src/tensorflow_lite/third_party/flatbuffers/include/flatbuffers\flatbuffers.h ****     return *(std::reverse_iterator<Iterator>::current);
 232:C:/Renesas/e2studio_2021_01_workspace_RZA2M_ANPR/ANPR_RZA2M_EBK/src/tensorflow_lite/third_party/flatbuffers/include/flatbuffers\flatbuffers.h ****   }
 233:C:/Renesas/e2studio_2021_01_workspace_RZA2M_ANPR/ANPR_RZA2M_EBK/src/tensorflow_lite/third_party/flatbuffers/include/flatbuffers\flatbuffers.h **** 
 234:C:/Renesas/e2studio_2021_01_workspace_RZA2M_ANPR/ANPR_RZA2M_EBK/src/tensorflow_lite/third_party/flatbuffers/include/flatbuffers\flatbuffers.h ****   typename Iterator::value_type operator->() const {
 235:C:/Renesas/e2studio_2021_01_workspace_RZA2M_ANPR/ANPR_RZA2M_EBK/src/tensorflow_lite/third_party/flatbuffers/include/flatbuffers\flatbuffers.h ****     return *(std::reverse_iterator<Iterator>::current);
 236:C:/Renesas/e2studio_2021_01_workspace_RZA2M_ANPR/ANPR_RZA2M_EBK/src/tensorflow_lite/third_party/flatbuffers/include/flatbuffers\flatbuffers.h ****   }
 237:C:/Renesas/e2studio_2021_01_workspace_RZA2M_ANPR/ANPR_RZA2M_EBK/src/tensorflow_lite/third_party/flatbuffers/include/flatbuffers\flatbuffers.h **** };
 238:C:/Renesas/e2studio_2021_01_workspace_RZA2M_ANPR/ANPR_RZA2M_EBK/src/tensorflow_lite/third_party/flatbuffers/include/flatbuffers\flatbuffers.h **** 
 239:C:/Renesas/e2studio_2021_01_workspace_RZA2M_ANPR/ANPR_RZA2M_EBK/src/tensorflow_lite/third_party/flatbuffers/include/flatbuffers\flatbuffers.h **** struct String;
 240:C:/Renesas/e2studio_2021_01_workspace_RZA2M_ANPR/ANPR_RZA2M_EBK/src/tensorflow_lite/third_party/flatbuffers/include/flatbuffers\flatbuffers.h **** 
 241:C:/Renesas/e2studio_2021_01_workspace_RZA2M_ANPR/ANPR_RZA2M_EBK/src/tensorflow_lite/third_party/flatbuffers/include/flatbuffers\flatbuffers.h **** // This is used as a helper type for accessing vectors.
 242:C:/Renesas/e2studio_2021_01_workspace_RZA2M_ANPR/ANPR_RZA2M_EBK/src/tensorflow_lite/third_party/flatbuffers/include/flatbuffers\flatbuffers.h **** // Vector::data() assumes the vector elements start after the length field.
 243:C:/Renesas/e2studio_2021_01_workspace_RZA2M_ANPR/ANPR_RZA2M_EBK/src/tensorflow_lite/third_party/flatbuffers/include/flatbuffers\flatbuffers.h **** template<typename T> class Vector {
 244:C:/Renesas/e2studio_2021_01_workspace_RZA2M_ANPR/ANPR_RZA2M_EBK/src/tensorflow_lite/third_party/flatbuffers/include/flatbuffers\flatbuffers.h ****  public:
 245:C:/Renesas/e2studio_2021_01_workspace_RZA2M_ANPR/ANPR_RZA2M_EBK/src/tensorflow_lite/third_party/flatbuffers/include/flatbuffers\flatbuffers.h ****   typedef VectorIterator<T, typename IndirectHelper<T>::mutable_return_type>
 246:C:/Renesas/e2studio_2021_01_workspace_RZA2M_ANPR/ANPR_RZA2M_EBK/src/tensorflow_lite/third_party/flatbuffers/include/flatbuffers\flatbuffers.h ****       iterator;
 247:C:/Renesas/e2studio_2021_01_workspace_RZA2M_ANPR/ANPR_RZA2M_EBK/src/tensorflow_lite/third_party/flatbuffers/include/flatbuffers\flatbuffers.h ****   typedef VectorIterator<T, typename IndirectHelper<T>::return_type>
 248:C:/Renesas/e2studio_2021_01_workspace_RZA2M_ANPR/ANPR_RZA2M_EBK/src/tensorflow_lite/third_party/flatbuffers/include/flatbuffers\flatbuffers.h ****       const_iterator;
 249:C:/Renesas/e2studio_2021_01_workspace_RZA2M_ANPR/ANPR_RZA2M_EBK/src/tensorflow_lite/third_party/flatbuffers/include/flatbuffers\flatbuffers.h ****   typedef VectorReverseIterator<iterator> reverse_iterator;
 250:C:/Renesas/e2studio_2021_01_workspace_RZA2M_ANPR/ANPR_RZA2M_EBK/src/tensorflow_lite/third_party/flatbuffers/include/flatbuffers\flatbuffers.h ****   typedef VectorReverseIterator<const_iterator> const_reverse_iterator;
 251:C:/Renesas/e2studio_2021_01_workspace_RZA2M_ANPR/ANPR_RZA2M_EBK/src/tensorflow_lite/third_party/flatbuffers/include/flatbuffers\flatbuffers.h **** 
 252:C:/Renesas/e2studio_2021_01_workspace_RZA2M_ANPR/ANPR_RZA2M_EBK/src/tensorflow_lite/third_party/flatbuffers/include/flatbuffers\flatbuffers.h ****   uoffset_t size() const { return EndianScalar(length_); }
 253:C:/Renesas/e2studio_2021_01_workspace_RZA2M_ANPR/ANPR_RZA2M_EBK/src/tensorflow_lite/third_party/flatbuffers/include/flatbuffers\flatbuffers.h **** 
 254:C:/Renesas/e2studio_2021_01_workspace_RZA2M_ANPR/ANPR_RZA2M_EBK/src/tensorflow_lite/third_party/flatbuffers/include/flatbuffers\flatbuffers.h ****   // Deprecated: use size(). Here for backwards compatibility.
 255:C:/Renesas/e2studio_2021_01_workspace_RZA2M_ANPR/ANPR_RZA2M_EBK/src/tensorflow_lite/third_party/flatbuffers/include/flatbuffers\flatbuffers.h ****   FLATBUFFERS_ATTRIBUTE(deprecated("use size() instead"))
 256:C:/Renesas/e2studio_2021_01_workspace_RZA2M_ANPR/ANPR_RZA2M_EBK/src/tensorflow_lite/third_party/flatbuffers/include/flatbuffers\flatbuffers.h ****   uoffset_t Length() const { return size(); }
 257:C:/Renesas/e2studio_2021_01_workspace_RZA2M_ANPR/ANPR_RZA2M_EBK/src/tensorflow_lite/third_party/flatbuffers/include/flatbuffers\flatbuffers.h **** 
 258:C:/Renesas/e2studio_2021_01_workspace_RZA2M_ANPR/ANPR_RZA2M_EBK/src/tensorflow_lite/third_party/flatbuffers/include/flatbuffers\flatbuffers.h ****   typedef typename IndirectHelper<T>::return_type return_type;
 259:C:/Renesas/e2studio_2021_01_workspace_RZA2M_ANPR/ANPR_RZA2M_EBK/src/tensorflow_lite/third_party/flatbuffers/include/flatbuffers\flatbuffers.h ****   typedef typename IndirectHelper<T>::mutable_return_type mutable_return_type;
 260:C:/Renesas/e2studio_2021_01_workspace_RZA2M_ANPR/ANPR_RZA2M_EBK/src/tensorflow_lite/third_party/flatbuffers/include/flatbuffers\flatbuffers.h **** 
 261:C:/Renesas/e2studio_2021_01_workspace_RZA2M_ANPR/ANPR_RZA2M_EBK/src/tensorflow_lite/third_party/flatbuffers/include/flatbuffers\flatbuffers.h ****   return_type Get(uoffset_t i) const {
 262:C:/Renesas/e2studio_2021_01_workspace_RZA2M_ANPR/ANPR_RZA2M_EBK/src/tensorflow_lite/third_party/flatbuffers/include/flatbuffers\flatbuffers.h ****     FLATBUFFERS_ASSERT(i < size());
 263:C:/Renesas/e2studio_2021_01_workspace_RZA2M_ANPR/ANPR_RZA2M_EBK/src/tensorflow_lite/third_party/flatbuffers/include/flatbuffers\flatbuffers.h ****     return IndirectHelper<T>::Read(Data(), i);
 264:C:/Renesas/e2studio_2021_01_workspace_RZA2M_ANPR/ANPR_RZA2M_EBK/src/tensorflow_lite/third_party/flatbuffers/include/flatbuffers\flatbuffers.h ****   }
 265:C:/Renesas/e2studio_2021_01_workspace_RZA2M_ANPR/ANPR_RZA2M_EBK/src/tensorflow_lite/third_party/flatbuffers/include/flatbuffers\flatbuffers.h **** 
 266:C:/Renesas/e2studio_2021_01_workspace_RZA2M_ANPR/ANPR_RZA2M_EBK/src/tensorflow_lite/third_party/flatbuffers/include/flatbuffers\flatbuffers.h ****   return_type operator[](uoffset_t i) const { return Get(i); }
 267:C:/Renesas/e2studio_2021_01_workspace_RZA2M_ANPR/ANPR_RZA2M_EBK/src/tensorflow_lite/third_party/flatbuffers/include/flatbuffers\flatbuffers.h **** 
 268:C:/Renesas/e2studio_2021_01_workspace_RZA2M_ANPR/ANPR_RZA2M_EBK/src/tensorflow_lite/third_party/flatbuffers/include/flatbuffers\flatbuffers.h ****   // If this is a Vector of enums, T will be its storage type, not the enum
 269:C:/Renesas/e2studio_2021_01_workspace_RZA2M_ANPR/ANPR_RZA2M_EBK/src/tensorflow_lite/third_party/flatbuffers/include/flatbuffers\flatbuffers.h ****   // type. This function makes it convenient to retrieve value with enum
 270:C:/Renesas/e2studio_2021_01_workspace_RZA2M_ANPR/ANPR_RZA2M_EBK/src/tensorflow_lite/third_party/flatbuffers/include/flatbuffers\flatbuffers.h ****   // type E.
 271:C:/Renesas/e2studio_2021_01_workspace_RZA2M_ANPR/ANPR_RZA2M_EBK/src/tensorflow_lite/third_party/flatbuffers/include/flatbuffers\flatbuffers.h ****   template<typename E> E GetEnum(uoffset_t i) const {
 272:C:/Renesas/e2studio_2021_01_workspace_RZA2M_ANPR/ANPR_RZA2M_EBK/src/tensorflow_lite/third_party/flatbuffers/include/flatbuffers\flatbuffers.h ****     return static_cast<E>(Get(i));
 273:C:/Renesas/e2studio_2021_01_workspace_RZA2M_ANPR/ANPR_RZA2M_EBK/src/tensorflow_lite/third_party/flatbuffers/include/flatbuffers\flatbuffers.h ****   }
 274:C:/Renesas/e2studio_2021_01_workspace_RZA2M_ANPR/ANPR_RZA2M_EBK/src/tensorflow_lite/third_party/flatbuffers/include/flatbuffers\flatbuffers.h **** 
 275:C:/Renesas/e2studio_2021_01_workspace_RZA2M_ANPR/ANPR_RZA2M_EBK/src/tensorflow_lite/third_party/flatbuffers/include/flatbuffers\flatbuffers.h ****   // If this a vector of unions, this does the cast for you. There's no check
 276:C:/Renesas/e2studio_2021_01_workspace_RZA2M_ANPR/ANPR_RZA2M_EBK/src/tensorflow_lite/third_party/flatbuffers/include/flatbuffers\flatbuffers.h ****   // to make sure this is the right type!
 277:C:/Renesas/e2studio_2021_01_workspace_RZA2M_ANPR/ANPR_RZA2M_EBK/src/tensorflow_lite/third_party/flatbuffers/include/flatbuffers\flatbuffers.h ****   template<typename U> const U *GetAs(uoffset_t i) const {
 278:C:/Renesas/e2studio_2021_01_workspace_RZA2M_ANPR/ANPR_RZA2M_EBK/src/tensorflow_lite/third_party/flatbuffers/include/flatbuffers\flatbuffers.h ****     return reinterpret_cast<const U *>(Get(i));
 279:C:/Renesas/e2studio_2021_01_workspace_RZA2M_ANPR/ANPR_RZA2M_EBK/src/tensorflow_lite/third_party/flatbuffers/include/flatbuffers\flatbuffers.h ****   }
 280:C:/Renesas/e2studio_2021_01_workspace_RZA2M_ANPR/ANPR_RZA2M_EBK/src/tensorflow_lite/third_party/flatbuffers/include/flatbuffers\flatbuffers.h **** 
 281:C:/Renesas/e2studio_2021_01_workspace_RZA2M_ANPR/ANPR_RZA2M_EBK/src/tensorflow_lite/third_party/flatbuffers/include/flatbuffers\flatbuffers.h ****   // If this a vector of unions, this does the cast for you. There's no check
 282:C:/Renesas/e2studio_2021_01_workspace_RZA2M_ANPR/ANPR_RZA2M_EBK/src/tensorflow_lite/third_party/flatbuffers/include/flatbuffers\flatbuffers.h ****   // to make sure this is actually a string!
 283:C:/Renesas/e2studio_2021_01_workspace_RZA2M_ANPR/ANPR_RZA2M_EBK/src/tensorflow_lite/third_party/flatbuffers/include/flatbuffers\flatbuffers.h ****   const String *GetAsString(uoffset_t i) const {
 284:C:/Renesas/e2studio_2021_01_workspace_RZA2M_ANPR/ANPR_RZA2M_EBK/src/tensorflow_lite/third_party/flatbuffers/include/flatbuffers\flatbuffers.h ****     return reinterpret_cast<const String *>(Get(i));
 285:C:/Renesas/e2studio_2021_01_workspace_RZA2M_ANPR/ANPR_RZA2M_EBK/src/tensorflow_lite/third_party/flatbuffers/include/flatbuffers\flatbuffers.h ****   }
 286:C:/Renesas/e2studio_2021_01_workspace_RZA2M_ANPR/ANPR_RZA2M_EBK/src/tensorflow_lite/third_party/flatbuffers/include/flatbuffers\flatbuffers.h **** 
 287:C:/Renesas/e2studio_2021_01_workspace_RZA2M_ANPR/ANPR_RZA2M_EBK/src/tensorflow_lite/third_party/flatbuffers/include/flatbuffers\flatbuffers.h ****   const void *GetStructFromOffset(size_t o) const {
 288:C:/Renesas/e2studio_2021_01_workspace_RZA2M_ANPR/ANPR_RZA2M_EBK/src/tensorflow_lite/third_party/flatbuffers/include/flatbuffers\flatbuffers.h ****     return reinterpret_cast<const void *>(Data() + o);
 289:C:/Renesas/e2studio_2021_01_workspace_RZA2M_ANPR/ANPR_RZA2M_EBK/src/tensorflow_lite/third_party/flatbuffers/include/flatbuffers\flatbuffers.h ****   }
 290:C:/Renesas/e2studio_2021_01_workspace_RZA2M_ANPR/ANPR_RZA2M_EBK/src/tensorflow_lite/third_party/flatbuffers/include/flatbuffers\flatbuffers.h **** 
 291:C:/Renesas/e2studio_2021_01_workspace_RZA2M_ANPR/ANPR_RZA2M_EBK/src/tensorflow_lite/third_party/flatbuffers/include/flatbuffers\flatbuffers.h ****   iterator begin() { return iterator(Data(), 0); }
 292:C:/Renesas/e2studio_2021_01_workspace_RZA2M_ANPR/ANPR_RZA2M_EBK/src/tensorflow_lite/third_party/flatbuffers/include/flatbuffers\flatbuffers.h ****   const_iterator begin() const { return const_iterator(Data(), 0); }
 293:C:/Renesas/e2studio_2021_01_workspace_RZA2M_ANPR/ANPR_RZA2M_EBK/src/tensorflow_lite/third_party/flatbuffers/include/flatbuffers\flatbuffers.h **** 
 294:C:/Renesas/e2studio_2021_01_workspace_RZA2M_ANPR/ANPR_RZA2M_EBK/src/tensorflow_lite/third_party/flatbuffers/include/flatbuffers\flatbuffers.h ****   iterator end() { return iterator(Data(), size()); }
 295:C:/Renesas/e2studio_2021_01_workspace_RZA2M_ANPR/ANPR_RZA2M_EBK/src/tensorflow_lite/third_party/flatbuffers/include/flatbuffers\flatbuffers.h ****   const_iterator end() const { return const_iterator(Data(), size()); }
 296:C:/Renesas/e2studio_2021_01_workspace_RZA2M_ANPR/ANPR_RZA2M_EBK/src/tensorflow_lite/third_party/flatbuffers/include/flatbuffers\flatbuffers.h **** 
 297:C:/Renesas/e2studio_2021_01_workspace_RZA2M_ANPR/ANPR_RZA2M_EBK/src/tensorflow_lite/third_party/flatbuffers/include/flatbuffers\flatbuffers.h ****   reverse_iterator rbegin() { return reverse_iterator(end() - 1); }
 298:C:/Renesas/e2studio_2021_01_workspace_RZA2M_ANPR/ANPR_RZA2M_EBK/src/tensorflow_lite/third_party/flatbuffers/include/flatbuffers\flatbuffers.h ****   const_reverse_iterator rbegin() const {
 299:C:/Renesas/e2studio_2021_01_workspace_RZA2M_ANPR/ANPR_RZA2M_EBK/src/tensorflow_lite/third_party/flatbuffers/include/flatbuffers\flatbuffers.h ****     return const_reverse_iterator(end() - 1);
 300:C:/Renesas/e2studio_2021_01_workspace_RZA2M_ANPR/ANPR_RZA2M_EBK/src/tensorflow_lite/third_party/flatbuffers/include/flatbuffers\flatbuffers.h ****   }
 301:C:/Renesas/e2studio_2021_01_workspace_RZA2M_ANPR/ANPR_RZA2M_EBK/src/tensorflow_lite/third_party/flatbuffers/include/flatbuffers\flatbuffers.h **** 
 302:C:/Renesas/e2studio_2021_01_workspace_RZA2M_ANPR/ANPR_RZA2M_EBK/src/tensorflow_lite/third_party/flatbuffers/include/flatbuffers\flatbuffers.h ****   reverse_iterator rend() { return reverse_iterator(begin() - 1); }
 303:C:/Renesas/e2studio_2021_01_workspace_RZA2M_ANPR/ANPR_RZA2M_EBK/src/tensorflow_lite/third_party/flatbuffers/include/flatbuffers\flatbuffers.h ****   const_reverse_iterator rend() const {
 304:C:/Renesas/e2studio_2021_01_workspace_RZA2M_ANPR/ANPR_RZA2M_EBK/src/tensorflow_lite/third_party/flatbuffers/include/flatbuffers\flatbuffers.h ****     return const_reverse_iterator(begin() - 1);
 305:C:/Renesas/e2studio_2021_01_workspace_RZA2M_ANPR/ANPR_RZA2M_EBK/src/tensorflow_lite/third_party/flatbuffers/include/flatbuffers\flatbuffers.h ****   }
 306:C:/Renesas/e2studio_2021_01_workspace_RZA2M_ANPR/ANPR_RZA2M_EBK/src/tensorflow_lite/third_party/flatbuffers/include/flatbuffers\flatbuffers.h **** 
 307:C:/Renesas/e2studio_2021_01_workspace_RZA2M_ANPR/ANPR_RZA2M_EBK/src/tensorflow_lite/third_party/flatbuffers/include/flatbuffers\flatbuffers.h ****   const_iterator cbegin() const { return begin(); }
 308:C:/Renesas/e2studio_2021_01_workspace_RZA2M_ANPR/ANPR_RZA2M_EBK/src/tensorflow_lite/third_party/flatbuffers/include/flatbuffers\flatbuffers.h **** 
 309:C:/Renesas/e2studio_2021_01_workspace_RZA2M_ANPR/ANPR_RZA2M_EBK/src/tensorflow_lite/third_party/flatbuffers/include/flatbuffers\flatbuffers.h ****   const_iterator cend() const { return end(); }
 310:C:/Renesas/e2studio_2021_01_workspace_RZA2M_ANPR/ANPR_RZA2M_EBK/src/tensorflow_lite/third_party/flatbuffers/include/flatbuffers\flatbuffers.h **** 
 311:C:/Renesas/e2studio_2021_01_workspace_RZA2M_ANPR/ANPR_RZA2M_EBK/src/tensorflow_lite/third_party/flatbuffers/include/flatbuffers\flatbuffers.h ****   const_reverse_iterator crbegin() const { return rbegin(); }
 312:C:/Renesas/e2studio_2021_01_workspace_RZA2M_ANPR/ANPR_RZA2M_EBK/src/tensorflow_lite/third_party/flatbuffers/include/flatbuffers\flatbuffers.h **** 
 313:C:/Renesas/e2studio_2021_01_workspace_RZA2M_ANPR/ANPR_RZA2M_EBK/src/tensorflow_lite/third_party/flatbuffers/include/flatbuffers\flatbuffers.h ****   const_reverse_iterator crend() const { return rend(); }
 314:C:/Renesas/e2studio_2021_01_workspace_RZA2M_ANPR/ANPR_RZA2M_EBK/src/tensorflow_lite/third_party/flatbuffers/include/flatbuffers\flatbuffers.h **** 
 315:C:/Renesas/e2studio_2021_01_workspace_RZA2M_ANPR/ANPR_RZA2M_EBK/src/tensorflow_lite/third_party/flatbuffers/include/flatbuffers\flatbuffers.h ****   // Change elements if you have a non-const pointer to this object.
 316:C:/Renesas/e2studio_2021_01_workspace_RZA2M_ANPR/ANPR_RZA2M_EBK/src/tensorflow_lite/third_party/flatbuffers/include/flatbuffers\flatbuffers.h ****   // Scalars only. See reflection.h, and the documentation.
 317:C:/Renesas/e2studio_2021_01_workspace_RZA2M_ANPR/ANPR_RZA2M_EBK/src/tensorflow_lite/third_party/flatbuffers/include/flatbuffers\flatbuffers.h ****   void Mutate(uoffset_t i, const T &val) {
 318:C:/Renesas/e2studio_2021_01_workspace_RZA2M_ANPR/ANPR_RZA2M_EBK/src/tensorflow_lite/third_party/flatbuffers/include/flatbuffers\flatbuffers.h ****     FLATBUFFERS_ASSERT(i < size());
 319:C:/Renesas/e2studio_2021_01_workspace_RZA2M_ANPR/ANPR_RZA2M_EBK/src/tensorflow_lite/third_party/flatbuffers/include/flatbuffers\flatbuffers.h ****     WriteScalar(data() + i, val);
 320:C:/Renesas/e2studio_2021_01_workspace_RZA2M_ANPR/ANPR_RZA2M_EBK/src/tensorflow_lite/third_party/flatbuffers/include/flatbuffers\flatbuffers.h ****   }
 321:C:/Renesas/e2studio_2021_01_workspace_RZA2M_ANPR/ANPR_RZA2M_EBK/src/tensorflow_lite/third_party/flatbuffers/include/flatbuffers\flatbuffers.h **** 
 322:C:/Renesas/e2studio_2021_01_workspace_RZA2M_ANPR/ANPR_RZA2M_EBK/src/tensorflow_lite/third_party/flatbuffers/include/flatbuffers\flatbuffers.h ****   // Change an element of a vector of tables (or strings).
 323:C:/Renesas/e2studio_2021_01_workspace_RZA2M_ANPR/ANPR_RZA2M_EBK/src/tensorflow_lite/third_party/flatbuffers/include/flatbuffers\flatbuffers.h ****   // "val" points to the new table/string, as you can obtain from
 324:C:/Renesas/e2studio_2021_01_workspace_RZA2M_ANPR/ANPR_RZA2M_EBK/src/tensorflow_lite/third_party/flatbuffers/include/flatbuffers\flatbuffers.h ****   // e.g. reflection::AddFlatBuffer().
 325:C:/Renesas/e2studio_2021_01_workspace_RZA2M_ANPR/ANPR_RZA2M_EBK/src/tensorflow_lite/third_party/flatbuffers/include/flatbuffers\flatbuffers.h ****   void MutateOffset(uoffset_t i, const uint8_t *val) {
 326:C:/Renesas/e2studio_2021_01_workspace_RZA2M_ANPR/ANPR_RZA2M_EBK/src/tensorflow_lite/third_party/flatbuffers/include/flatbuffers\flatbuffers.h ****     FLATBUFFERS_ASSERT(i < size());
 327:C:/Renesas/e2studio_2021_01_workspace_RZA2M_ANPR/ANPR_RZA2M_EBK/src/tensorflow_lite/third_party/flatbuffers/include/flatbuffers\flatbuffers.h ****     static_assert(sizeof(T) == sizeof(uoffset_t), "Unrelated types");
 328:C:/Renesas/e2studio_2021_01_workspace_RZA2M_ANPR/ANPR_RZA2M_EBK/src/tensorflow_lite/third_party/flatbuffers/include/flatbuffers\flatbuffers.h ****     WriteScalar(data() + i,
 329:C:/Renesas/e2studio_2021_01_workspace_RZA2M_ANPR/ANPR_RZA2M_EBK/src/tensorflow_lite/third_party/flatbuffers/include/flatbuffers\flatbuffers.h ****                 static_cast<uoffset_t>(val - (Data() + i * sizeof(uoffset_t))));
 330:C:/Renesas/e2studio_2021_01_workspace_RZA2M_ANPR/ANPR_RZA2M_EBK/src/tensorflow_lite/third_party/flatbuffers/include/flatbuffers\flatbuffers.h ****   }
 331:C:/Renesas/e2studio_2021_01_workspace_RZA2M_ANPR/ANPR_RZA2M_EBK/src/tensorflow_lite/third_party/flatbuffers/include/flatbuffers\flatbuffers.h **** 
 332:C:/Renesas/e2studio_2021_01_workspace_RZA2M_ANPR/ANPR_RZA2M_EBK/src/tensorflow_lite/third_party/flatbuffers/include/flatbuffers\flatbuffers.h ****   // Get a mutable pointer to tables/strings inside this vector.
 333:C:/Renesas/e2studio_2021_01_workspace_RZA2M_ANPR/ANPR_RZA2M_EBK/src/tensorflow_lite/third_party/flatbuffers/include/flatbuffers\flatbuffers.h ****   mutable_return_type GetMutableObject(uoffset_t i) const {
 334:C:/Renesas/e2studio_2021_01_workspace_RZA2M_ANPR/ANPR_RZA2M_EBK/src/tensorflow_lite/third_party/flatbuffers/include/flatbuffers\flatbuffers.h ****     FLATBUFFERS_ASSERT(i < size());
 335:C:/Renesas/e2studio_2021_01_workspace_RZA2M_ANPR/ANPR_RZA2M_EBK/src/tensorflow_lite/third_party/flatbuffers/include/flatbuffers\flatbuffers.h ****     return const_cast<mutable_return_type>(IndirectHelper<T>::Read(Data(), i));
 336:C:/Renesas/e2studio_2021_01_workspace_RZA2M_ANPR/ANPR_RZA2M_EBK/src/tensorflow_lite/third_party/flatbuffers/include/flatbuffers\flatbuffers.h ****   }
 337:C:/Renesas/e2studio_2021_01_workspace_RZA2M_ANPR/ANPR_RZA2M_EBK/src/tensorflow_lite/third_party/flatbuffers/include/flatbuffers\flatbuffers.h **** 
 338:C:/Renesas/e2studio_2021_01_workspace_RZA2M_ANPR/ANPR_RZA2M_EBK/src/tensorflow_lite/third_party/flatbuffers/include/flatbuffers\flatbuffers.h ****   // The raw data in little endian format. Use with care.
 339:C:/Renesas/e2studio_2021_01_workspace_RZA2M_ANPR/ANPR_RZA2M_EBK/src/tensorflow_lite/third_party/flatbuffers/include/flatbuffers\flatbuffers.h ****   const uint8_t *Data() const {
 340:C:/Renesas/e2studio_2021_01_workspace_RZA2M_ANPR/ANPR_RZA2M_EBK/src/tensorflow_lite/third_party/flatbuffers/include/flatbuffers\flatbuffers.h ****     return reinterpret_cast<const uint8_t *>(&length_ + 1);
 341:C:/Renesas/e2studio_2021_01_workspace_RZA2M_ANPR/ANPR_RZA2M_EBK/src/tensorflow_lite/third_party/flatbuffers/include/flatbuffers\flatbuffers.h ****   }
 342:C:/Renesas/e2studio_2021_01_workspace_RZA2M_ANPR/ANPR_RZA2M_EBK/src/tensorflow_lite/third_party/flatbuffers/include/flatbuffers\flatbuffers.h **** 
 343:C:/Renesas/e2studio_2021_01_workspace_RZA2M_ANPR/ANPR_RZA2M_EBK/src/tensorflow_lite/third_party/flatbuffers/include/flatbuffers\flatbuffers.h ****   uint8_t *Data() { return reinterpret_cast<uint8_t *>(&length_ + 1); }
 344:C:/Renesas/e2studio_2021_01_workspace_RZA2M_ANPR/ANPR_RZA2M_EBK/src/tensorflow_lite/third_party/flatbuffers/include/flatbuffers\flatbuffers.h **** 
 345:C:/Renesas/e2studio_2021_01_workspace_RZA2M_ANPR/ANPR_RZA2M_EBK/src/tensorflow_lite/third_party/flatbuffers/include/flatbuffers\flatbuffers.h ****   // Similarly, but typed, much like std::vector::data
 346:C:/Renesas/e2studio_2021_01_workspace_RZA2M_ANPR/ANPR_RZA2M_EBK/src/tensorflow_lite/third_party/flatbuffers/include/flatbuffers\flatbuffers.h ****   const T *data() const { return reinterpret_cast<const T *>(Data()); }
 347:C:/Renesas/e2studio_2021_01_workspace_RZA2M_ANPR/ANPR_RZA2M_EBK/src/tensorflow_lite/third_party/flatbuffers/include/flatbuffers\flatbuffers.h ****   T *data() { return reinterpret_cast<T *>(Data()); }
 348:C:/Renesas/e2studio_2021_01_workspace_RZA2M_ANPR/ANPR_RZA2M_EBK/src/tensorflow_lite/third_party/flatbuffers/include/flatbuffers\flatbuffers.h **** 
 349:C:/Renesas/e2studio_2021_01_workspace_RZA2M_ANPR/ANPR_RZA2M_EBK/src/tensorflow_lite/third_party/flatbuffers/include/flatbuffers\flatbuffers.h ****   template<typename K> return_type LookupByKey(K key) const {
 350:C:/Renesas/e2studio_2021_01_workspace_RZA2M_ANPR/ANPR_RZA2M_EBK/src/tensorflow_lite/third_party/flatbuffers/include/flatbuffers\flatbuffers.h ****     void *search_result = std::bsearch(
 351:C:/Renesas/e2studio_2021_01_workspace_RZA2M_ANPR/ANPR_RZA2M_EBK/src/tensorflow_lite/third_party/flatbuffers/include/flatbuffers\flatbuffers.h ****         &key, Data(), size(), IndirectHelper<T>::element_stride, KeyCompare<K>);
 352:C:/Renesas/e2studio_2021_01_workspace_RZA2M_ANPR/ANPR_RZA2M_EBK/src/tensorflow_lite/third_party/flatbuffers/include/flatbuffers\flatbuffers.h **** 
 353:C:/Renesas/e2studio_2021_01_workspace_RZA2M_ANPR/ANPR_RZA2M_EBK/src/tensorflow_lite/third_party/flatbuffers/include/flatbuffers\flatbuffers.h ****     if (!search_result) {
 354:C:/Renesas/e2studio_2021_01_workspace_RZA2M_ANPR/ANPR_RZA2M_EBK/src/tensorflow_lite/third_party/flatbuffers/include/flatbuffers\flatbuffers.h ****       return nullptr;  // Key not found.
 355:C:/Renesas/e2studio_2021_01_workspace_RZA2M_ANPR/ANPR_RZA2M_EBK/src/tensorflow_lite/third_party/flatbuffers/include/flatbuffers\flatbuffers.h ****     }
 356:C:/Renesas/e2studio_2021_01_workspace_RZA2M_ANPR/ANPR_RZA2M_EBK/src/tensorflow_lite/third_party/flatbuffers/include/flatbuffers\flatbuffers.h **** 
 357:C:/Renesas/e2studio_2021_01_workspace_RZA2M_ANPR/ANPR_RZA2M_EBK/src/tensorflow_lite/third_party/flatbuffers/include/flatbuffers\flatbuffers.h ****     const uint8_t *element = reinterpret_cast<const uint8_t *>(search_result);
 358:C:/Renesas/e2studio_2021_01_workspace_RZA2M_ANPR/ANPR_RZA2M_EBK/src/tensorflow_lite/third_party/flatbuffers/include/flatbuffers\flatbuffers.h **** 
 359:C:/Renesas/e2studio_2021_01_workspace_RZA2M_ANPR/ANPR_RZA2M_EBK/src/tensorflow_lite/third_party/flatbuffers/include/flatbuffers\flatbuffers.h ****     return IndirectHelper<T>::Read(element, 0);
 360:C:/Renesas/e2studio_2021_01_workspace_RZA2M_ANPR/ANPR_RZA2M_EBK/src/tensorflow_lite/third_party/flatbuffers/include/flatbuffers\flatbuffers.h ****   }
 361:C:/Renesas/e2studio_2021_01_workspace_RZA2M_ANPR/ANPR_RZA2M_EBK/src/tensorflow_lite/third_party/flatbuffers/include/flatbuffers\flatbuffers.h **** 
 362:C:/Renesas/e2studio_2021_01_workspace_RZA2M_ANPR/ANPR_RZA2M_EBK/src/tensorflow_lite/third_party/flatbuffers/include/flatbuffers\flatbuffers.h ****  protected:
 363:C:/Renesas/e2studio_2021_01_workspace_RZA2M_ANPR/ANPR_RZA2M_EBK/src/tensorflow_lite/third_party/flatbuffers/include/flatbuffers\flatbuffers.h ****   // This class is only used to access pre-existing data. Don't ever
 364:C:/Renesas/e2studio_2021_01_workspace_RZA2M_ANPR/ANPR_RZA2M_EBK/src/tensorflow_lite/third_party/flatbuffers/include/flatbuffers\flatbuffers.h ****   // try to construct these manually.
 365:C:/Renesas/e2studio_2021_01_workspace_RZA2M_ANPR/ANPR_RZA2M_EBK/src/tensorflow_lite/third_party/flatbuffers/include/flatbuffers\flatbuffers.h ****   Vector();
 366:C:/Renesas/e2studio_2021_01_workspace_RZA2M_ANPR/ANPR_RZA2M_EBK/src/tensorflow_lite/third_party/flatbuffers/include/flatbuffers\flatbuffers.h **** 
 367:C:/Renesas/e2studio_2021_01_workspace_RZA2M_ANPR/ANPR_RZA2M_EBK/src/tensorflow_lite/third_party/flatbuffers/include/flatbuffers\flatbuffers.h ****   uoffset_t length_;
 368:C:/Renesas/e2studio_2021_01_workspace_RZA2M_ANPR/ANPR_RZA2M_EBK/src/tensorflow_lite/third_party/flatbuffers/include/flatbuffers\flatbuffers.h **** 
 369:C:/Renesas/e2studio_2021_01_workspace_RZA2M_ANPR/ANPR_RZA2M_EBK/src/tensorflow_lite/third_party/flatbuffers/include/flatbuffers\flatbuffers.h ****  private:
 370:C:/Renesas/e2studio_2021_01_workspace_RZA2M_ANPR/ANPR_RZA2M_EBK/src/tensorflow_lite/third_party/flatbuffers/include/flatbuffers\flatbuffers.h ****   // This class is a pointer. Copying will therefore create an invalid object.
 371:C:/Renesas/e2studio_2021_01_workspace_RZA2M_ANPR/ANPR_RZA2M_EBK/src/tensorflow_lite/third_party/flatbuffers/include/flatbuffers\flatbuffers.h ****   // Private and unimplemented copy constructor.
 372:C:/Renesas/e2studio_2021_01_workspace_RZA2M_ANPR/ANPR_RZA2M_EBK/src/tensorflow_lite/third_party/flatbuffers/include/flatbuffers\flatbuffers.h ****   Vector(const Vector &);
 373:C:/Renesas/e2studio_2021_01_workspace_RZA2M_ANPR/ANPR_RZA2M_EBK/src/tensorflow_lite/third_party/flatbuffers/include/flatbuffers\flatbuffers.h ****   Vector &operator=(const Vector &);
 374:C:/Renesas/e2studio_2021_01_workspace_RZA2M_ANPR/ANPR_RZA2M_EBK/src/tensorflow_lite/third_party/flatbuffers/include/flatbuffers\flatbuffers.h **** 
 375:C:/Renesas/e2studio_2021_01_workspace_RZA2M_ANPR/ANPR_RZA2M_EBK/src/tensorflow_lite/third_party/flatbuffers/include/flatbuffers\flatbuffers.h ****   template<typename K> static int KeyCompare(const void *ap, const void *bp) {
 376:C:/Renesas/e2studio_2021_01_workspace_RZA2M_ANPR/ANPR_RZA2M_EBK/src/tensorflow_lite/third_party/flatbuffers/include/flatbuffers\flatbuffers.h ****     const K *key = reinterpret_cast<const K *>(ap);
 377:C:/Renesas/e2studio_2021_01_workspace_RZA2M_ANPR/ANPR_RZA2M_EBK/src/tensorflow_lite/third_party/flatbuffers/include/flatbuffers\flatbuffers.h ****     const uint8_t *data = reinterpret_cast<const uint8_t *>(bp);
 378:C:/Renesas/e2studio_2021_01_workspace_RZA2M_ANPR/ANPR_RZA2M_EBK/src/tensorflow_lite/third_party/flatbuffers/include/flatbuffers\flatbuffers.h ****     auto table = IndirectHelper<T>::Read(data, 0);
 379:C:/Renesas/e2studio_2021_01_workspace_RZA2M_ANPR/ANPR_RZA2M_EBK/src/tensorflow_lite/third_party/flatbuffers/include/flatbuffers\flatbuffers.h **** 
 380:C:/Renesas/e2studio_2021_01_workspace_RZA2M_ANPR/ANPR_RZA2M_EBK/src/tensorflow_lite/third_party/flatbuffers/include/flatbuffers\flatbuffers.h ****     // std::bsearch compares with the operands transposed, so we negate the
 381:C:/Renesas/e2studio_2021_01_workspace_RZA2M_ANPR/ANPR_RZA2M_EBK/src/tensorflow_lite/third_party/flatbuffers/include/flatbuffers\flatbuffers.h ****     // result here.
 382:C:/Renesas/e2studio_2021_01_workspace_RZA2M_ANPR/ANPR_RZA2M_EBK/src/tensorflow_lite/third_party/flatbuffers/include/flatbuffers\flatbuffers.h ****     return -table->KeyCompareWithValue(*key);
 383:C:/Renesas/e2studio_2021_01_workspace_RZA2M_ANPR/ANPR_RZA2M_EBK/src/tensorflow_lite/third_party/flatbuffers/include/flatbuffers\flatbuffers.h ****   }
 384:C:/Renesas/e2studio_2021_01_workspace_RZA2M_ANPR/ANPR_RZA2M_EBK/src/tensorflow_lite/third_party/flatbuffers/include/flatbuffers\flatbuffers.h **** };
 385:C:/Renesas/e2studio_2021_01_workspace_RZA2M_ANPR/ANPR_RZA2M_EBK/src/tensorflow_lite/third_party/flatbuffers/include/flatbuffers\flatbuffers.h **** 
 386:C:/Renesas/e2studio_2021_01_workspace_RZA2M_ANPR/ANPR_RZA2M_EBK/src/tensorflow_lite/third_party/flatbuffers/include/flatbuffers\flatbuffers.h **** // Represent a vector much like the template above, but in this case we
 387:C:/Renesas/e2studio_2021_01_workspace_RZA2M_ANPR/ANPR_RZA2M_EBK/src/tensorflow_lite/third_party/flatbuffers/include/flatbuffers\flatbuffers.h **** // don't know what the element types are (used with reflection.h).
 388:C:/Renesas/e2studio_2021_01_workspace_RZA2M_ANPR/ANPR_RZA2M_EBK/src/tensorflow_lite/third_party/flatbuffers/include/flatbuffers\flatbuffers.h **** class VectorOfAny {
 389:C:/Renesas/e2studio_2021_01_workspace_RZA2M_ANPR/ANPR_RZA2M_EBK/src/tensorflow_lite/third_party/flatbuffers/include/flatbuffers\flatbuffers.h ****  public:
 390:C:/Renesas/e2studio_2021_01_workspace_RZA2M_ANPR/ANPR_RZA2M_EBK/src/tensorflow_lite/third_party/flatbuffers/include/flatbuffers\flatbuffers.h ****   uoffset_t size() const { return EndianScalar(length_); }
 391:C:/Renesas/e2studio_2021_01_workspace_RZA2M_ANPR/ANPR_RZA2M_EBK/src/tensorflow_lite/third_party/flatbuffers/include/flatbuffers\flatbuffers.h **** 
 392:C:/Renesas/e2studio_2021_01_workspace_RZA2M_ANPR/ANPR_RZA2M_EBK/src/tensorflow_lite/third_party/flatbuffers/include/flatbuffers\flatbuffers.h ****   const uint8_t *Data() const {
 393:C:/Renesas/e2studio_2021_01_workspace_RZA2M_ANPR/ANPR_RZA2M_EBK/src/tensorflow_lite/third_party/flatbuffers/include/flatbuffers\flatbuffers.h ****     return reinterpret_cast<const uint8_t *>(&length_ + 1);
 394:C:/Renesas/e2studio_2021_01_workspace_RZA2M_ANPR/ANPR_RZA2M_EBK/src/tensorflow_lite/third_party/flatbuffers/include/flatbuffers\flatbuffers.h ****   }
 395:C:/Renesas/e2studio_2021_01_workspace_RZA2M_ANPR/ANPR_RZA2M_EBK/src/tensorflow_lite/third_party/flatbuffers/include/flatbuffers\flatbuffers.h ****   uint8_t *Data() { return reinterpret_cast<uint8_t *>(&length_ + 1); }
 396:C:/Renesas/e2studio_2021_01_workspace_RZA2M_ANPR/ANPR_RZA2M_EBK/src/tensorflow_lite/third_party/flatbuffers/include/flatbuffers\flatbuffers.h **** 
 397:C:/Renesas/e2studio_2021_01_workspace_RZA2M_ANPR/ANPR_RZA2M_EBK/src/tensorflow_lite/third_party/flatbuffers/include/flatbuffers\flatbuffers.h ****  protected:
 398:C:/Renesas/e2studio_2021_01_workspace_RZA2M_ANPR/ANPR_RZA2M_EBK/src/tensorflow_lite/third_party/flatbuffers/include/flatbuffers\flatbuffers.h ****   VectorOfAny();
 399:C:/Renesas/e2studio_2021_01_workspace_RZA2M_ANPR/ANPR_RZA2M_EBK/src/tensorflow_lite/third_party/flatbuffers/include/flatbuffers\flatbuffers.h **** 
 400:C:/Renesas/e2studio_2021_01_workspace_RZA2M_ANPR/ANPR_RZA2M_EBK/src/tensorflow_lite/third_party/flatbuffers/include/flatbuffers\flatbuffers.h ****   uoffset_t length_;
 401:C:/Renesas/e2studio_2021_01_workspace_RZA2M_ANPR/ANPR_RZA2M_EBK/src/tensorflow_lite/third_party/flatbuffers/include/flatbuffers\flatbuffers.h **** 
 402:C:/Renesas/e2studio_2021_01_workspace_RZA2M_ANPR/ANPR_RZA2M_EBK/src/tensorflow_lite/third_party/flatbuffers/include/flatbuffers\flatbuffers.h ****  private:
 403:C:/Renesas/e2studio_2021_01_workspace_RZA2M_ANPR/ANPR_RZA2M_EBK/src/tensorflow_lite/third_party/flatbuffers/include/flatbuffers\flatbuffers.h ****   VectorOfAny(const VectorOfAny &);
 404:C:/Renesas/e2studio_2021_01_workspace_RZA2M_ANPR/ANPR_RZA2M_EBK/src/tensorflow_lite/third_party/flatbuffers/include/flatbuffers\flatbuffers.h ****   VectorOfAny &operator=(const VectorOfAny &);
 405:C:/Renesas/e2studio_2021_01_workspace_RZA2M_ANPR/ANPR_RZA2M_EBK/src/tensorflow_lite/third_party/flatbuffers/include/flatbuffers\flatbuffers.h **** };
 406:C:/Renesas/e2studio_2021_01_workspace_RZA2M_ANPR/ANPR_RZA2M_EBK/src/tensorflow_lite/third_party/flatbuffers/include/flatbuffers\flatbuffers.h **** 
 407:C:/Renesas/e2studio_2021_01_workspace_RZA2M_ANPR/ANPR_RZA2M_EBK/src/tensorflow_lite/third_party/flatbuffers/include/flatbuffers\flatbuffers.h **** #ifndef FLATBUFFERS_CPP98_STL
 408:C:/Renesas/e2studio_2021_01_workspace_RZA2M_ANPR/ANPR_RZA2M_EBK/src/tensorflow_lite/third_party/flatbuffers/include/flatbuffers\flatbuffers.h **** template<typename T, typename U>
 409:C:/Renesas/e2studio_2021_01_workspace_RZA2M_ANPR/ANPR_RZA2M_EBK/src/tensorflow_lite/third_party/flatbuffers/include/flatbuffers\flatbuffers.h **** Vector<Offset<T>> *VectorCast(Vector<Offset<U>> *ptr) {
 410:C:/Renesas/e2studio_2021_01_workspace_RZA2M_ANPR/ANPR_RZA2M_EBK/src/tensorflow_lite/third_party/flatbuffers/include/flatbuffers\flatbuffers.h ****   static_assert(std::is_base_of<T, U>::value, "Unrelated types");
 411:C:/Renesas/e2studio_2021_01_workspace_RZA2M_ANPR/ANPR_RZA2M_EBK/src/tensorflow_lite/third_party/flatbuffers/include/flatbuffers\flatbuffers.h ****   return reinterpret_cast<Vector<Offset<T>> *>(ptr);
 412:C:/Renesas/e2studio_2021_01_workspace_RZA2M_ANPR/ANPR_RZA2M_EBK/src/tensorflow_lite/third_party/flatbuffers/include/flatbuffers\flatbuffers.h **** }
 413:C:/Renesas/e2studio_2021_01_workspace_RZA2M_ANPR/ANPR_RZA2M_EBK/src/tensorflow_lite/third_party/flatbuffers/include/flatbuffers\flatbuffers.h **** 
 414:C:/Renesas/e2studio_2021_01_workspace_RZA2M_ANPR/ANPR_RZA2M_EBK/src/tensorflow_lite/third_party/flatbuffers/include/flatbuffers\flatbuffers.h **** template<typename T, typename U>
 415:C:/Renesas/e2studio_2021_01_workspace_RZA2M_ANPR/ANPR_RZA2M_EBK/src/tensorflow_lite/third_party/flatbuffers/include/flatbuffers\flatbuffers.h **** const Vector<Offset<T>> *VectorCast(const Vector<Offset<U>> *ptr) {
 416:C:/Renesas/e2studio_2021_01_workspace_RZA2M_ANPR/ANPR_RZA2M_EBK/src/tensorflow_lite/third_party/flatbuffers/include/flatbuffers\flatbuffers.h ****   static_assert(std::is_base_of<T, U>::value, "Unrelated types");
 417:C:/Renesas/e2studio_2021_01_workspace_RZA2M_ANPR/ANPR_RZA2M_EBK/src/tensorflow_lite/third_party/flatbuffers/include/flatbuffers\flatbuffers.h ****   return reinterpret_cast<const Vector<Offset<T>> *>(ptr);
 418:C:/Renesas/e2studio_2021_01_workspace_RZA2M_ANPR/ANPR_RZA2M_EBK/src/tensorflow_lite/third_party/flatbuffers/include/flatbuffers\flatbuffers.h **** }
 419:C:/Renesas/e2studio_2021_01_workspace_RZA2M_ANPR/ANPR_RZA2M_EBK/src/tensorflow_lite/third_party/flatbuffers/include/flatbuffers\flatbuffers.h **** #endif
 420:C:/Renesas/e2studio_2021_01_workspace_RZA2M_ANPR/ANPR_RZA2M_EBK/src/tensorflow_lite/third_party/flatbuffers/include/flatbuffers\flatbuffers.h **** 
 421:C:/Renesas/e2studio_2021_01_workspace_RZA2M_ANPR/ANPR_RZA2M_EBK/src/tensorflow_lite/third_party/flatbuffers/include/flatbuffers\flatbuffers.h **** // Convenient helper function to get the length of any vector, regardless
 422:C:/Renesas/e2studio_2021_01_workspace_RZA2M_ANPR/ANPR_RZA2M_EBK/src/tensorflow_lite/third_party/flatbuffers/include/flatbuffers\flatbuffers.h **** // of whether it is null or not (the field is not set).
 423:C:/Renesas/e2studio_2021_01_workspace_RZA2M_ANPR/ANPR_RZA2M_EBK/src/tensorflow_lite/third_party/flatbuffers/include/flatbuffers\flatbuffers.h **** template<typename T> static inline size_t VectorLength(const Vector<T> *v) {
 424:C:/Renesas/e2studio_2021_01_workspace_RZA2M_ANPR/ANPR_RZA2M_EBK/src/tensorflow_lite/third_party/flatbuffers/include/flatbuffers\flatbuffers.h ****   return v ? v->size() : 0;
 425:C:/Renesas/e2studio_2021_01_workspace_RZA2M_ANPR/ANPR_RZA2M_EBK/src/tensorflow_lite/third_party/flatbuffers/include/flatbuffers\flatbuffers.h **** }
 426:C:/Renesas/e2studio_2021_01_workspace_RZA2M_ANPR/ANPR_RZA2M_EBK/src/tensorflow_lite/third_party/flatbuffers/include/flatbuffers\flatbuffers.h **** 
 427:C:/Renesas/e2studio_2021_01_workspace_RZA2M_ANPR/ANPR_RZA2M_EBK/src/tensorflow_lite/third_party/flatbuffers/include/flatbuffers\flatbuffers.h **** // This is used as a helper type for accessing arrays.
 428:C:/Renesas/e2studio_2021_01_workspace_RZA2M_ANPR/ANPR_RZA2M_EBK/src/tensorflow_lite/third_party/flatbuffers/include/flatbuffers\flatbuffers.h **** template<typename T, uint16_t length> class Array {
 429:C:/Renesas/e2studio_2021_01_workspace_RZA2M_ANPR/ANPR_RZA2M_EBK/src/tensorflow_lite/third_party/flatbuffers/include/flatbuffers\flatbuffers.h ****   typedef
 430:C:/Renesas/e2studio_2021_01_workspace_RZA2M_ANPR/ANPR_RZA2M_EBK/src/tensorflow_lite/third_party/flatbuffers/include/flatbuffers\flatbuffers.h ****       typename flatbuffers::integral_constant<bool,
 431:C:/Renesas/e2studio_2021_01_workspace_RZA2M_ANPR/ANPR_RZA2M_EBK/src/tensorflow_lite/third_party/flatbuffers/include/flatbuffers\flatbuffers.h ****                                               flatbuffers::is_scalar<T>::value>
 432:C:/Renesas/e2studio_2021_01_workspace_RZA2M_ANPR/ANPR_RZA2M_EBK/src/tensorflow_lite/third_party/flatbuffers/include/flatbuffers\flatbuffers.h ****           scalar_tag;
 433:C:/Renesas/e2studio_2021_01_workspace_RZA2M_ANPR/ANPR_RZA2M_EBK/src/tensorflow_lite/third_party/flatbuffers/include/flatbuffers\flatbuffers.h ****   typedef
 434:C:/Renesas/e2studio_2021_01_workspace_RZA2M_ANPR/ANPR_RZA2M_EBK/src/tensorflow_lite/third_party/flatbuffers/include/flatbuffers\flatbuffers.h ****       typename flatbuffers::conditional<scalar_tag::value, T, const T *>::type
 435:C:/Renesas/e2studio_2021_01_workspace_RZA2M_ANPR/ANPR_RZA2M_EBK/src/tensorflow_lite/third_party/flatbuffers/include/flatbuffers\flatbuffers.h ****           IndirectHelperType;
 436:C:/Renesas/e2studio_2021_01_workspace_RZA2M_ANPR/ANPR_RZA2M_EBK/src/tensorflow_lite/third_party/flatbuffers/include/flatbuffers\flatbuffers.h **** 
 437:C:/Renesas/e2studio_2021_01_workspace_RZA2M_ANPR/ANPR_RZA2M_EBK/src/tensorflow_lite/third_party/flatbuffers/include/flatbuffers\flatbuffers.h ****  public:
 438:C:/Renesas/e2studio_2021_01_workspace_RZA2M_ANPR/ANPR_RZA2M_EBK/src/tensorflow_lite/third_party/flatbuffers/include/flatbuffers\flatbuffers.h ****   typedef typename IndirectHelper<IndirectHelperType>::return_type return_type;
 439:C:/Renesas/e2studio_2021_01_workspace_RZA2M_ANPR/ANPR_RZA2M_EBK/src/tensorflow_lite/third_party/flatbuffers/include/flatbuffers\flatbuffers.h ****   typedef VectorIterator<T, return_type> const_iterator;
 440:C:/Renesas/e2studio_2021_01_workspace_RZA2M_ANPR/ANPR_RZA2M_EBK/src/tensorflow_lite/third_party/flatbuffers/include/flatbuffers\flatbuffers.h ****   typedef VectorReverseIterator<const_iterator> const_reverse_iterator;
 441:C:/Renesas/e2studio_2021_01_workspace_RZA2M_ANPR/ANPR_RZA2M_EBK/src/tensorflow_lite/third_party/flatbuffers/include/flatbuffers\flatbuffers.h **** 
 442:C:/Renesas/e2studio_2021_01_workspace_RZA2M_ANPR/ANPR_RZA2M_EBK/src/tensorflow_lite/third_party/flatbuffers/include/flatbuffers\flatbuffers.h ****   FLATBUFFERS_CONSTEXPR uint16_t size() const { return length; }
 443:C:/Renesas/e2studio_2021_01_workspace_RZA2M_ANPR/ANPR_RZA2M_EBK/src/tensorflow_lite/third_party/flatbuffers/include/flatbuffers\flatbuffers.h **** 
 444:C:/Renesas/e2studio_2021_01_workspace_RZA2M_ANPR/ANPR_RZA2M_EBK/src/tensorflow_lite/third_party/flatbuffers/include/flatbuffers\flatbuffers.h ****   return_type Get(uoffset_t i) const {
 445:C:/Renesas/e2studio_2021_01_workspace_RZA2M_ANPR/ANPR_RZA2M_EBK/src/tensorflow_lite/third_party/flatbuffers/include/flatbuffers\flatbuffers.h ****     FLATBUFFERS_ASSERT(i < size());
 446:C:/Renesas/e2studio_2021_01_workspace_RZA2M_ANPR/ANPR_RZA2M_EBK/src/tensorflow_lite/third_party/flatbuffers/include/flatbuffers\flatbuffers.h ****     return IndirectHelper<IndirectHelperType>::Read(Data(), i);
 447:C:/Renesas/e2studio_2021_01_workspace_RZA2M_ANPR/ANPR_RZA2M_EBK/src/tensorflow_lite/third_party/flatbuffers/include/flatbuffers\flatbuffers.h ****   }
 448:C:/Renesas/e2studio_2021_01_workspace_RZA2M_ANPR/ANPR_RZA2M_EBK/src/tensorflow_lite/third_party/flatbuffers/include/flatbuffers\flatbuffers.h **** 
 449:C:/Renesas/e2studio_2021_01_workspace_RZA2M_ANPR/ANPR_RZA2M_EBK/src/tensorflow_lite/third_party/flatbuffers/include/flatbuffers\flatbuffers.h ****   return_type operator[](uoffset_t i) const { return Get(i); }
 450:C:/Renesas/e2studio_2021_01_workspace_RZA2M_ANPR/ANPR_RZA2M_EBK/src/tensorflow_lite/third_party/flatbuffers/include/flatbuffers\flatbuffers.h **** 
 451:C:/Renesas/e2studio_2021_01_workspace_RZA2M_ANPR/ANPR_RZA2M_EBK/src/tensorflow_lite/third_party/flatbuffers/include/flatbuffers\flatbuffers.h ****   // If this is a Vector of enums, T will be its storage type, not the enum
 452:C:/Renesas/e2studio_2021_01_workspace_RZA2M_ANPR/ANPR_RZA2M_EBK/src/tensorflow_lite/third_party/flatbuffers/include/flatbuffers\flatbuffers.h ****   // type. This function makes it convenient to retrieve value with enum
 453:C:/Renesas/e2studio_2021_01_workspace_RZA2M_ANPR/ANPR_RZA2M_EBK/src/tensorflow_lite/third_party/flatbuffers/include/flatbuffers\flatbuffers.h ****   // type E.
 454:C:/Renesas/e2studio_2021_01_workspace_RZA2M_ANPR/ANPR_RZA2M_EBK/src/tensorflow_lite/third_party/flatbuffers/include/flatbuffers\flatbuffers.h ****   template<typename E> E GetEnum(uoffset_t i) const {
 455:C:/Renesas/e2studio_2021_01_workspace_RZA2M_ANPR/ANPR_RZA2M_EBK/src/tensorflow_lite/third_party/flatbuffers/include/flatbuffers\flatbuffers.h ****     return static_cast<E>(Get(i));
 456:C:/Renesas/e2studio_2021_01_workspace_RZA2M_ANPR/ANPR_RZA2M_EBK/src/tensorflow_lite/third_party/flatbuffers/include/flatbuffers\flatbuffers.h ****   }
 457:C:/Renesas/e2studio_2021_01_workspace_RZA2M_ANPR/ANPR_RZA2M_EBK/src/tensorflow_lite/third_party/flatbuffers/include/flatbuffers\flatbuffers.h **** 
 458:C:/Renesas/e2studio_2021_01_workspace_RZA2M_ANPR/ANPR_RZA2M_EBK/src/tensorflow_lite/third_party/flatbuffers/include/flatbuffers\flatbuffers.h ****   const_iterator begin() const { return const_iterator(Data(), 0); }
 459:C:/Renesas/e2studio_2021_01_workspace_RZA2M_ANPR/ANPR_RZA2M_EBK/src/tensorflow_lite/third_party/flatbuffers/include/flatbuffers\flatbuffers.h ****   const_iterator end() const { return const_iterator(Data(), size()); }
 460:C:/Renesas/e2studio_2021_01_workspace_RZA2M_ANPR/ANPR_RZA2M_EBK/src/tensorflow_lite/third_party/flatbuffers/include/flatbuffers\flatbuffers.h **** 
 461:C:/Renesas/e2studio_2021_01_workspace_RZA2M_ANPR/ANPR_RZA2M_EBK/src/tensorflow_lite/third_party/flatbuffers/include/flatbuffers\flatbuffers.h ****   const_reverse_iterator rbegin() const {
 462:C:/Renesas/e2studio_2021_01_workspace_RZA2M_ANPR/ANPR_RZA2M_EBK/src/tensorflow_lite/third_party/flatbuffers/include/flatbuffers\flatbuffers.h ****     return const_reverse_iterator(end());
 463:C:/Renesas/e2studio_2021_01_workspace_RZA2M_ANPR/ANPR_RZA2M_EBK/src/tensorflow_lite/third_party/flatbuffers/include/flatbuffers\flatbuffers.h ****   }
 464:C:/Renesas/e2studio_2021_01_workspace_RZA2M_ANPR/ANPR_RZA2M_EBK/src/tensorflow_lite/third_party/flatbuffers/include/flatbuffers\flatbuffers.h ****   const_reverse_iterator rend() const { return const_reverse_iterator(end()); }
 465:C:/Renesas/e2studio_2021_01_workspace_RZA2M_ANPR/ANPR_RZA2M_EBK/src/tensorflow_lite/third_party/flatbuffers/include/flatbuffers\flatbuffers.h **** 
 466:C:/Renesas/e2studio_2021_01_workspace_RZA2M_ANPR/ANPR_RZA2M_EBK/src/tensorflow_lite/third_party/flatbuffers/include/flatbuffers\flatbuffers.h ****   const_iterator cbegin() const { return begin(); }
 467:C:/Renesas/e2studio_2021_01_workspace_RZA2M_ANPR/ANPR_RZA2M_EBK/src/tensorflow_lite/third_party/flatbuffers/include/flatbuffers\flatbuffers.h ****   const_iterator cend() const { return end(); }
 468:C:/Renesas/e2studio_2021_01_workspace_RZA2M_ANPR/ANPR_RZA2M_EBK/src/tensorflow_lite/third_party/flatbuffers/include/flatbuffers\flatbuffers.h **** 
 469:C:/Renesas/e2studio_2021_01_workspace_RZA2M_ANPR/ANPR_RZA2M_EBK/src/tensorflow_lite/third_party/flatbuffers/include/flatbuffers\flatbuffers.h ****   const_reverse_iterator crbegin() const { return rbegin(); }
 470:C:/Renesas/e2studio_2021_01_workspace_RZA2M_ANPR/ANPR_RZA2M_EBK/src/tensorflow_lite/third_party/flatbuffers/include/flatbuffers\flatbuffers.h ****   const_reverse_iterator crend() const { return rend(); }
 471:C:/Renesas/e2studio_2021_01_workspace_RZA2M_ANPR/ANPR_RZA2M_EBK/src/tensorflow_lite/third_party/flatbuffers/include/flatbuffers\flatbuffers.h **** 
 472:C:/Renesas/e2studio_2021_01_workspace_RZA2M_ANPR/ANPR_RZA2M_EBK/src/tensorflow_lite/third_party/flatbuffers/include/flatbuffers\flatbuffers.h ****   // Get a mutable pointer to elements inside this array.
 473:C:/Renesas/e2studio_2021_01_workspace_RZA2M_ANPR/ANPR_RZA2M_EBK/src/tensorflow_lite/third_party/flatbuffers/include/flatbuffers\flatbuffers.h ****   // This method used to mutate arrays of structs followed by a @p Mutate
 474:C:/Renesas/e2studio_2021_01_workspace_RZA2M_ANPR/ANPR_RZA2M_EBK/src/tensorflow_lite/third_party/flatbuffers/include/flatbuffers\flatbuffers.h ****   // operation. For primitive types use @p Mutate directly.
 475:C:/Renesas/e2studio_2021_01_workspace_RZA2M_ANPR/ANPR_RZA2M_EBK/src/tensorflow_lite/third_party/flatbuffers/include/flatbuffers\flatbuffers.h ****   // @warning Assignments and reads to/from the dereferenced pointer are not
 476:C:/Renesas/e2studio_2021_01_workspace_RZA2M_ANPR/ANPR_RZA2M_EBK/src/tensorflow_lite/third_party/flatbuffers/include/flatbuffers\flatbuffers.h ****   //  automatically converted to the correct endianness.
 477:C:/Renesas/e2studio_2021_01_workspace_RZA2M_ANPR/ANPR_RZA2M_EBK/src/tensorflow_lite/third_party/flatbuffers/include/flatbuffers\flatbuffers.h ****   typename flatbuffers::conditional<scalar_tag::value, void, T *>::type
 478:C:/Renesas/e2studio_2021_01_workspace_RZA2M_ANPR/ANPR_RZA2M_EBK/src/tensorflow_lite/third_party/flatbuffers/include/flatbuffers\flatbuffers.h ****   GetMutablePointer(uoffset_t i) const {
 479:C:/Renesas/e2studio_2021_01_workspace_RZA2M_ANPR/ANPR_RZA2M_EBK/src/tensorflow_lite/third_party/flatbuffers/include/flatbuffers\flatbuffers.h ****     FLATBUFFERS_ASSERT(i < size());
 480:C:/Renesas/e2studio_2021_01_workspace_RZA2M_ANPR/ANPR_RZA2M_EBK/src/tensorflow_lite/third_party/flatbuffers/include/flatbuffers\flatbuffers.h ****     return const_cast<T *>(&data()[i]);
 481:C:/Renesas/e2studio_2021_01_workspace_RZA2M_ANPR/ANPR_RZA2M_EBK/src/tensorflow_lite/third_party/flatbuffers/include/flatbuffers\flatbuffers.h ****   }
 482:C:/Renesas/e2studio_2021_01_workspace_RZA2M_ANPR/ANPR_RZA2M_EBK/src/tensorflow_lite/third_party/flatbuffers/include/flatbuffers\flatbuffers.h **** 
 483:C:/Renesas/e2studio_2021_01_workspace_RZA2M_ANPR/ANPR_RZA2M_EBK/src/tensorflow_lite/third_party/flatbuffers/include/flatbuffers\flatbuffers.h ****   // Change elements if you have a non-const pointer to this object.
 484:C:/Renesas/e2studio_2021_01_workspace_RZA2M_ANPR/ANPR_RZA2M_EBK/src/tensorflow_lite/third_party/flatbuffers/include/flatbuffers\flatbuffers.h ****   void Mutate(uoffset_t i, const T &val) { MutateImpl(scalar_tag(), i, val); }
 485:C:/Renesas/e2studio_2021_01_workspace_RZA2M_ANPR/ANPR_RZA2M_EBK/src/tensorflow_lite/third_party/flatbuffers/include/flatbuffers\flatbuffers.h **** 
 486:C:/Renesas/e2studio_2021_01_workspace_RZA2M_ANPR/ANPR_RZA2M_EBK/src/tensorflow_lite/third_party/flatbuffers/include/flatbuffers\flatbuffers.h ****   // The raw data in little endian format. Use with care.
 487:C:/Renesas/e2studio_2021_01_workspace_RZA2M_ANPR/ANPR_RZA2M_EBK/src/tensorflow_lite/third_party/flatbuffers/include/flatbuffers\flatbuffers.h ****   const uint8_t *Data() const { return data_; }
 488:C:/Renesas/e2studio_2021_01_workspace_RZA2M_ANPR/ANPR_RZA2M_EBK/src/tensorflow_lite/third_party/flatbuffers/include/flatbuffers\flatbuffers.h **** 
 489:C:/Renesas/e2studio_2021_01_workspace_RZA2M_ANPR/ANPR_RZA2M_EBK/src/tensorflow_lite/third_party/flatbuffers/include/flatbuffers\flatbuffers.h ****   uint8_t *Data() { return data_; }
 490:C:/Renesas/e2studio_2021_01_workspace_RZA2M_ANPR/ANPR_RZA2M_EBK/src/tensorflow_lite/third_party/flatbuffers/include/flatbuffers\flatbuffers.h **** 
 491:C:/Renesas/e2studio_2021_01_workspace_RZA2M_ANPR/ANPR_RZA2M_EBK/src/tensorflow_lite/third_party/flatbuffers/include/flatbuffers\flatbuffers.h ****   // Similarly, but typed, much like std::vector::data
 492:C:/Renesas/e2studio_2021_01_workspace_RZA2M_ANPR/ANPR_RZA2M_EBK/src/tensorflow_lite/third_party/flatbuffers/include/flatbuffers\flatbuffers.h ****   const T *data() const { return reinterpret_cast<const T *>(Data()); }
 493:C:/Renesas/e2studio_2021_01_workspace_RZA2M_ANPR/ANPR_RZA2M_EBK/src/tensorflow_lite/third_party/flatbuffers/include/flatbuffers\flatbuffers.h ****   T *data() { return reinterpret_cast<T *>(Data()); }
 494:C:/Renesas/e2studio_2021_01_workspace_RZA2M_ANPR/ANPR_RZA2M_EBK/src/tensorflow_lite/third_party/flatbuffers/include/flatbuffers\flatbuffers.h **** 
 495:C:/Renesas/e2studio_2021_01_workspace_RZA2M_ANPR/ANPR_RZA2M_EBK/src/tensorflow_lite/third_party/flatbuffers/include/flatbuffers\flatbuffers.h ****  protected:
 496:C:/Renesas/e2studio_2021_01_workspace_RZA2M_ANPR/ANPR_RZA2M_EBK/src/tensorflow_lite/third_party/flatbuffers/include/flatbuffers\flatbuffers.h ****   void MutateImpl(flatbuffers::integral_constant<bool, true>, uoffset_t i,
 497:C:/Renesas/e2studio_2021_01_workspace_RZA2M_ANPR/ANPR_RZA2M_EBK/src/tensorflow_lite/third_party/flatbuffers/include/flatbuffers\flatbuffers.h ****                   const T &val) {
 498:C:/Renesas/e2studio_2021_01_workspace_RZA2M_ANPR/ANPR_RZA2M_EBK/src/tensorflow_lite/third_party/flatbuffers/include/flatbuffers\flatbuffers.h ****     FLATBUFFERS_ASSERT(i < size());
 499:C:/Renesas/e2studio_2021_01_workspace_RZA2M_ANPR/ANPR_RZA2M_EBK/src/tensorflow_lite/third_party/flatbuffers/include/flatbuffers\flatbuffers.h ****     WriteScalar(data() + i, val);
 500:C:/Renesas/e2studio_2021_01_workspace_RZA2M_ANPR/ANPR_RZA2M_EBK/src/tensorflow_lite/third_party/flatbuffers/include/flatbuffers\flatbuffers.h ****   }
 501:C:/Renesas/e2studio_2021_01_workspace_RZA2M_ANPR/ANPR_RZA2M_EBK/src/tensorflow_lite/third_party/flatbuffers/include/flatbuffers\flatbuffers.h **** 
 502:C:/Renesas/e2studio_2021_01_workspace_RZA2M_ANPR/ANPR_RZA2M_EBK/src/tensorflow_lite/third_party/flatbuffers/include/flatbuffers\flatbuffers.h ****   void MutateImpl(flatbuffers::integral_constant<bool, false>, uoffset_t i,
 503:C:/Renesas/e2studio_2021_01_workspace_RZA2M_ANPR/ANPR_RZA2M_EBK/src/tensorflow_lite/third_party/flatbuffers/include/flatbuffers\flatbuffers.h ****                   const T &val) {
 504:C:/Renesas/e2studio_2021_01_workspace_RZA2M_ANPR/ANPR_RZA2M_EBK/src/tensorflow_lite/third_party/flatbuffers/include/flatbuffers\flatbuffers.h ****     *(GetMutablePointer(i)) = val;
 505:C:/Renesas/e2studio_2021_01_workspace_RZA2M_ANPR/ANPR_RZA2M_EBK/src/tensorflow_lite/third_party/flatbuffers/include/flatbuffers\flatbuffers.h ****   }
 506:C:/Renesas/e2studio_2021_01_workspace_RZA2M_ANPR/ANPR_RZA2M_EBK/src/tensorflow_lite/third_party/flatbuffers/include/flatbuffers\flatbuffers.h **** 
 507:C:/Renesas/e2studio_2021_01_workspace_RZA2M_ANPR/ANPR_RZA2M_EBK/src/tensorflow_lite/third_party/flatbuffers/include/flatbuffers\flatbuffers.h ****   // This class is only used to access pre-existing data. Don't ever
 508:C:/Renesas/e2studio_2021_01_workspace_RZA2M_ANPR/ANPR_RZA2M_EBK/src/tensorflow_lite/third_party/flatbuffers/include/flatbuffers\flatbuffers.h ****   // try to construct these manually.
 509:C:/Renesas/e2studio_2021_01_workspace_RZA2M_ANPR/ANPR_RZA2M_EBK/src/tensorflow_lite/third_party/flatbuffers/include/flatbuffers\flatbuffers.h ****   // 'constexpr' allows us to use 'size()' at compile time.
 510:C:/Renesas/e2studio_2021_01_workspace_RZA2M_ANPR/ANPR_RZA2M_EBK/src/tensorflow_lite/third_party/flatbuffers/include/flatbuffers\flatbuffers.h ****   // @note Must not use 'FLATBUFFERS_CONSTEXPR' here, as const is not allowed on
 511:C:/Renesas/e2studio_2021_01_workspace_RZA2M_ANPR/ANPR_RZA2M_EBK/src/tensorflow_lite/third_party/flatbuffers/include/flatbuffers\flatbuffers.h ****   //  a constructor.
 512:C:/Renesas/e2studio_2021_01_workspace_RZA2M_ANPR/ANPR_RZA2M_EBK/src/tensorflow_lite/third_party/flatbuffers/include/flatbuffers\flatbuffers.h **** #if defined(__cpp_constexpr)
 513:C:/Renesas/e2studio_2021_01_workspace_RZA2M_ANPR/ANPR_RZA2M_EBK/src/tensorflow_lite/third_party/flatbuffers/include/flatbuffers\flatbuffers.h ****   constexpr Array();
 514:C:/Renesas/e2studio_2021_01_workspace_RZA2M_ANPR/ANPR_RZA2M_EBK/src/tensorflow_lite/third_party/flatbuffers/include/flatbuffers\flatbuffers.h **** #else
 515:C:/Renesas/e2studio_2021_01_workspace_RZA2M_ANPR/ANPR_RZA2M_EBK/src/tensorflow_lite/third_party/flatbuffers/include/flatbuffers\flatbuffers.h ****   Array();
 516:C:/Renesas/e2studio_2021_01_workspace_RZA2M_ANPR/ANPR_RZA2M_EBK/src/tensorflow_lite/third_party/flatbuffers/include/flatbuffers\flatbuffers.h **** #endif
 517:C:/Renesas/e2studio_2021_01_workspace_RZA2M_ANPR/ANPR_RZA2M_EBK/src/tensorflow_lite/third_party/flatbuffers/include/flatbuffers\flatbuffers.h **** 
 518:C:/Renesas/e2studio_2021_01_workspace_RZA2M_ANPR/ANPR_RZA2M_EBK/src/tensorflow_lite/third_party/flatbuffers/include/flatbuffers\flatbuffers.h ****   uint8_t data_[length * sizeof(T)];
 519:C:/Renesas/e2studio_2021_01_workspace_RZA2M_ANPR/ANPR_RZA2M_EBK/src/tensorflow_lite/third_party/flatbuffers/include/flatbuffers\flatbuffers.h **** 
 520:C:/Renesas/e2studio_2021_01_workspace_RZA2M_ANPR/ANPR_RZA2M_EBK/src/tensorflow_lite/third_party/flatbuffers/include/flatbuffers\flatbuffers.h ****  private:
 521:C:/Renesas/e2studio_2021_01_workspace_RZA2M_ANPR/ANPR_RZA2M_EBK/src/tensorflow_lite/third_party/flatbuffers/include/flatbuffers\flatbuffers.h ****   // This class is a pointer. Copying will therefore create an invalid object.
 522:C:/Renesas/e2studio_2021_01_workspace_RZA2M_ANPR/ANPR_RZA2M_EBK/src/tensorflow_lite/third_party/flatbuffers/include/flatbuffers\flatbuffers.h ****   // Private and unimplemented copy constructor.
 523:C:/Renesas/e2studio_2021_01_workspace_RZA2M_ANPR/ANPR_RZA2M_EBK/src/tensorflow_lite/third_party/flatbuffers/include/flatbuffers\flatbuffers.h ****   Array(const Array &);
 524:C:/Renesas/e2studio_2021_01_workspace_RZA2M_ANPR/ANPR_RZA2M_EBK/src/tensorflow_lite/third_party/flatbuffers/include/flatbuffers\flatbuffers.h ****   Array &operator=(const Array &);
 525:C:/Renesas/e2studio_2021_01_workspace_RZA2M_ANPR/ANPR_RZA2M_EBK/src/tensorflow_lite/third_party/flatbuffers/include/flatbuffers\flatbuffers.h **** };
 526:C:/Renesas/e2studio_2021_01_workspace_RZA2M_ANPR/ANPR_RZA2M_EBK/src/tensorflow_lite/third_party/flatbuffers/include/flatbuffers\flatbuffers.h **** 
 527:C:/Renesas/e2studio_2021_01_workspace_RZA2M_ANPR/ANPR_RZA2M_EBK/src/tensorflow_lite/third_party/flatbuffers/include/flatbuffers\flatbuffers.h **** // Specialization for Array[struct] with access using Offset<void> pointer.
 528:C:/Renesas/e2studio_2021_01_workspace_RZA2M_ANPR/ANPR_RZA2M_EBK/src/tensorflow_lite/third_party/flatbuffers/include/flatbuffers\flatbuffers.h **** // This specialization used by idl_gen_text.cpp.
 529:C:/Renesas/e2studio_2021_01_workspace_RZA2M_ANPR/ANPR_RZA2M_EBK/src/tensorflow_lite/third_party/flatbuffers/include/flatbuffers\flatbuffers.h **** template<typename T, uint16_t length> class Array<Offset<T>, length> {
 530:C:/Renesas/e2studio_2021_01_workspace_RZA2M_ANPR/ANPR_RZA2M_EBK/src/tensorflow_lite/third_party/flatbuffers/include/flatbuffers\flatbuffers.h ****   static_assert(flatbuffers::is_same<T, void>::value, "unexpected type T");
 531:C:/Renesas/e2studio_2021_01_workspace_RZA2M_ANPR/ANPR_RZA2M_EBK/src/tensorflow_lite/third_party/flatbuffers/include/flatbuffers\flatbuffers.h **** 
 532:C:/Renesas/e2studio_2021_01_workspace_RZA2M_ANPR/ANPR_RZA2M_EBK/src/tensorflow_lite/third_party/flatbuffers/include/flatbuffers\flatbuffers.h ****  public:
 533:C:/Renesas/e2studio_2021_01_workspace_RZA2M_ANPR/ANPR_RZA2M_EBK/src/tensorflow_lite/third_party/flatbuffers/include/flatbuffers\flatbuffers.h ****   typedef const void *return_type;
 534:C:/Renesas/e2studio_2021_01_workspace_RZA2M_ANPR/ANPR_RZA2M_EBK/src/tensorflow_lite/third_party/flatbuffers/include/flatbuffers\flatbuffers.h **** 
 535:C:/Renesas/e2studio_2021_01_workspace_RZA2M_ANPR/ANPR_RZA2M_EBK/src/tensorflow_lite/third_party/flatbuffers/include/flatbuffers\flatbuffers.h ****   const uint8_t *Data() const { return data_; }
 536:C:/Renesas/e2studio_2021_01_workspace_RZA2M_ANPR/ANPR_RZA2M_EBK/src/tensorflow_lite/third_party/flatbuffers/include/flatbuffers\flatbuffers.h **** 
 537:C:/Renesas/e2studio_2021_01_workspace_RZA2M_ANPR/ANPR_RZA2M_EBK/src/tensorflow_lite/third_party/flatbuffers/include/flatbuffers\flatbuffers.h ****   // Make idl_gen_text.cpp::PrintContainer happy.
 538:C:/Renesas/e2studio_2021_01_workspace_RZA2M_ANPR/ANPR_RZA2M_EBK/src/tensorflow_lite/third_party/flatbuffers/include/flatbuffers\flatbuffers.h ****   return_type operator[](uoffset_t) const {
 539:C:/Renesas/e2studio_2021_01_workspace_RZA2M_ANPR/ANPR_RZA2M_EBK/src/tensorflow_lite/third_party/flatbuffers/include/flatbuffers\flatbuffers.h ****     FLATBUFFERS_ASSERT(false);
 540:C:/Renesas/e2studio_2021_01_workspace_RZA2M_ANPR/ANPR_RZA2M_EBK/src/tensorflow_lite/third_party/flatbuffers/include/flatbuffers\flatbuffers.h ****     return nullptr;
 541:C:/Renesas/e2studio_2021_01_workspace_RZA2M_ANPR/ANPR_RZA2M_EBK/src/tensorflow_lite/third_party/flatbuffers/include/flatbuffers\flatbuffers.h ****   }
 542:C:/Renesas/e2studio_2021_01_workspace_RZA2M_ANPR/ANPR_RZA2M_EBK/src/tensorflow_lite/third_party/flatbuffers/include/flatbuffers\flatbuffers.h **** 
 543:C:/Renesas/e2studio_2021_01_workspace_RZA2M_ANPR/ANPR_RZA2M_EBK/src/tensorflow_lite/third_party/flatbuffers/include/flatbuffers\flatbuffers.h ****  private:
 544:C:/Renesas/e2studio_2021_01_workspace_RZA2M_ANPR/ANPR_RZA2M_EBK/src/tensorflow_lite/third_party/flatbuffers/include/flatbuffers\flatbuffers.h ****   // This class is only used to access pre-existing data.
 545:C:/Renesas/e2studio_2021_01_workspace_RZA2M_ANPR/ANPR_RZA2M_EBK/src/tensorflow_lite/third_party/flatbuffers/include/flatbuffers\flatbuffers.h ****   Array();
 546:C:/Renesas/e2studio_2021_01_workspace_RZA2M_ANPR/ANPR_RZA2M_EBK/src/tensorflow_lite/third_party/flatbuffers/include/flatbuffers\flatbuffers.h ****   Array(const Array &);
 547:C:/Renesas/e2studio_2021_01_workspace_RZA2M_ANPR/ANPR_RZA2M_EBK/src/tensorflow_lite/third_party/flatbuffers/include/flatbuffers\flatbuffers.h ****   Array &operator=(const Array &);
 548:C:/Renesas/e2studio_2021_01_workspace_RZA2M_ANPR/ANPR_RZA2M_EBK/src/tensorflow_lite/third_party/flatbuffers/include/flatbuffers\flatbuffers.h **** 
 549:C:/Renesas/e2studio_2021_01_workspace_RZA2M_ANPR/ANPR_RZA2M_EBK/src/tensorflow_lite/third_party/flatbuffers/include/flatbuffers\flatbuffers.h ****   uint8_t data_[1];
 550:C:/Renesas/e2studio_2021_01_workspace_RZA2M_ANPR/ANPR_RZA2M_EBK/src/tensorflow_lite/third_party/flatbuffers/include/flatbuffers\flatbuffers.h **** };
 551:C:/Renesas/e2studio_2021_01_workspace_RZA2M_ANPR/ANPR_RZA2M_EBK/src/tensorflow_lite/third_party/flatbuffers/include/flatbuffers\flatbuffers.h **** 
 552:C:/Renesas/e2studio_2021_01_workspace_RZA2M_ANPR/ANPR_RZA2M_EBK/src/tensorflow_lite/third_party/flatbuffers/include/flatbuffers\flatbuffers.h **** // Lexicographically compare two strings (possibly containing nulls), and
 553:C:/Renesas/e2studio_2021_01_workspace_RZA2M_ANPR/ANPR_RZA2M_EBK/src/tensorflow_lite/third_party/flatbuffers/include/flatbuffers\flatbuffers.h **** // return true if the first is less than the second.
 554:C:/Renesas/e2studio_2021_01_workspace_RZA2M_ANPR/ANPR_RZA2M_EBK/src/tensorflow_lite/third_party/flatbuffers/include/flatbuffers\flatbuffers.h **** static inline bool StringLessThan(const char *a_data, uoffset_t a_size,
 555:C:/Renesas/e2studio_2021_01_workspace_RZA2M_ANPR/ANPR_RZA2M_EBK/src/tensorflow_lite/third_party/flatbuffers/include/flatbuffers\flatbuffers.h ****                                   const char *b_data, uoffset_t b_size) {
 556:C:/Renesas/e2studio_2021_01_workspace_RZA2M_ANPR/ANPR_RZA2M_EBK/src/tensorflow_lite/third_party/flatbuffers/include/flatbuffers\flatbuffers.h ****   const auto cmp = memcmp(a_data, b_data, (std::min)(a_size, b_size));
 557:C:/Renesas/e2studio_2021_01_workspace_RZA2M_ANPR/ANPR_RZA2M_EBK/src/tensorflow_lite/third_party/flatbuffers/include/flatbuffers\flatbuffers.h ****   return cmp == 0 ? a_size < b_size : cmp < 0;
 558:C:/Renesas/e2studio_2021_01_workspace_RZA2M_ANPR/ANPR_RZA2M_EBK/src/tensorflow_lite/third_party/flatbuffers/include/flatbuffers\flatbuffers.h **** }
 559:C:/Renesas/e2studio_2021_01_workspace_RZA2M_ANPR/ANPR_RZA2M_EBK/src/tensorflow_lite/third_party/flatbuffers/include/flatbuffers\flatbuffers.h **** 
 560:C:/Renesas/e2studio_2021_01_workspace_RZA2M_ANPR/ANPR_RZA2M_EBK/src/tensorflow_lite/third_party/flatbuffers/include/flatbuffers\flatbuffers.h **** struct String : public Vector<char> {
 561:C:/Renesas/e2studio_2021_01_workspace_RZA2M_ANPR/ANPR_RZA2M_EBK/src/tensorflow_lite/third_party/flatbuffers/include/flatbuffers\flatbuffers.h ****   const char *c_str() const { return reinterpret_cast<const char *>(Data()); }
 562:C:/Renesas/e2studio_2021_01_workspace_RZA2M_ANPR/ANPR_RZA2M_EBK/src/tensorflow_lite/third_party/flatbuffers/include/flatbuffers\flatbuffers.h ****   std::string str() const { return std::string(c_str(), size()); }
 563:C:/Renesas/e2studio_2021_01_workspace_RZA2M_ANPR/ANPR_RZA2M_EBK/src/tensorflow_lite/third_party/flatbuffers/include/flatbuffers\flatbuffers.h **** 
 564:C:/Renesas/e2studio_2021_01_workspace_RZA2M_ANPR/ANPR_RZA2M_EBK/src/tensorflow_lite/third_party/flatbuffers/include/flatbuffers\flatbuffers.h ****   // clang-format off
 565:C:/Renesas/e2studio_2021_01_workspace_RZA2M_ANPR/ANPR_RZA2M_EBK/src/tensorflow_lite/third_party/flatbuffers/include/flatbuffers\flatbuffers.h ****   #ifdef FLATBUFFERS_HAS_STRING_VIEW
 566:C:/Renesas/e2studio_2021_01_workspace_RZA2M_ANPR/ANPR_RZA2M_EBK/src/tensorflow_lite/third_party/flatbuffers/include/flatbuffers\flatbuffers.h ****   flatbuffers::string_view string_view() const {
 567:C:/Renesas/e2studio_2021_01_workspace_RZA2M_ANPR/ANPR_RZA2M_EBK/src/tensorflow_lite/third_party/flatbuffers/include/flatbuffers\flatbuffers.h ****     return flatbuffers::string_view(c_str(), size());
 568:C:/Renesas/e2studio_2021_01_workspace_RZA2M_ANPR/ANPR_RZA2M_EBK/src/tensorflow_lite/third_party/flatbuffers/include/flatbuffers\flatbuffers.h ****   }
 569:C:/Renesas/e2studio_2021_01_workspace_RZA2M_ANPR/ANPR_RZA2M_EBK/src/tensorflow_lite/third_party/flatbuffers/include/flatbuffers\flatbuffers.h ****   #endif // FLATBUFFERS_HAS_STRING_VIEW
 570:C:/Renesas/e2studio_2021_01_workspace_RZA2M_ANPR/ANPR_RZA2M_EBK/src/tensorflow_lite/third_party/flatbuffers/include/flatbuffers\flatbuffers.h ****   // clang-format on
 571:C:/Renesas/e2studio_2021_01_workspace_RZA2M_ANPR/ANPR_RZA2M_EBK/src/tensorflow_lite/third_party/flatbuffers/include/flatbuffers\flatbuffers.h **** 
 572:C:/Renesas/e2studio_2021_01_workspace_RZA2M_ANPR/ANPR_RZA2M_EBK/src/tensorflow_lite/third_party/flatbuffers/include/flatbuffers\flatbuffers.h ****   bool operator<(const String &o) const {
 573:C:/Renesas/e2studio_2021_01_workspace_RZA2M_ANPR/ANPR_RZA2M_EBK/src/tensorflow_lite/third_party/flatbuffers/include/flatbuffers\flatbuffers.h ****     return StringLessThan(this->data(), this->size(), o.data(), o.size());
 574:C:/Renesas/e2studio_2021_01_workspace_RZA2M_ANPR/ANPR_RZA2M_EBK/src/tensorflow_lite/third_party/flatbuffers/include/flatbuffers\flatbuffers.h ****   }
 575:C:/Renesas/e2studio_2021_01_workspace_RZA2M_ANPR/ANPR_RZA2M_EBK/src/tensorflow_lite/third_party/flatbuffers/include/flatbuffers\flatbuffers.h **** };
 576:C:/Renesas/e2studio_2021_01_workspace_RZA2M_ANPR/ANPR_RZA2M_EBK/src/tensorflow_lite/third_party/flatbuffers/include/flatbuffers\flatbuffers.h **** 
 577:C:/Renesas/e2studio_2021_01_workspace_RZA2M_ANPR/ANPR_RZA2M_EBK/src/tensorflow_lite/third_party/flatbuffers/include/flatbuffers\flatbuffers.h **** // Convenience function to get std::string from a String returning an empty
 578:C:/Renesas/e2studio_2021_01_workspace_RZA2M_ANPR/ANPR_RZA2M_EBK/src/tensorflow_lite/third_party/flatbuffers/include/flatbuffers\flatbuffers.h **** // string on null pointer.
 579:C:/Renesas/e2studio_2021_01_workspace_RZA2M_ANPR/ANPR_RZA2M_EBK/src/tensorflow_lite/third_party/flatbuffers/include/flatbuffers\flatbuffers.h **** static inline std::string GetString(const String *str) {
 580:C:/Renesas/e2studio_2021_01_workspace_RZA2M_ANPR/ANPR_RZA2M_EBK/src/tensorflow_lite/third_party/flatbuffers/include/flatbuffers\flatbuffers.h ****   return str ? str->str() : "";
 581:C:/Renesas/e2studio_2021_01_workspace_RZA2M_ANPR/ANPR_RZA2M_EBK/src/tensorflow_lite/third_party/flatbuffers/include/flatbuffers\flatbuffers.h **** }
 582:C:/Renesas/e2studio_2021_01_workspace_RZA2M_ANPR/ANPR_RZA2M_EBK/src/tensorflow_lite/third_party/flatbuffers/include/flatbuffers\flatbuffers.h **** 
 583:C:/Renesas/e2studio_2021_01_workspace_RZA2M_ANPR/ANPR_RZA2M_EBK/src/tensorflow_lite/third_party/flatbuffers/include/flatbuffers\flatbuffers.h **** // Convenience function to get char* from a String returning an empty string on
 584:C:/Renesas/e2studio_2021_01_workspace_RZA2M_ANPR/ANPR_RZA2M_EBK/src/tensorflow_lite/third_party/flatbuffers/include/flatbuffers\flatbuffers.h **** // null pointer.
 585:C:/Renesas/e2studio_2021_01_workspace_RZA2M_ANPR/ANPR_RZA2M_EBK/src/tensorflow_lite/third_party/flatbuffers/include/flatbuffers\flatbuffers.h **** static inline const char *GetCstring(const String *str) {
 586:C:/Renesas/e2studio_2021_01_workspace_RZA2M_ANPR/ANPR_RZA2M_EBK/src/tensorflow_lite/third_party/flatbuffers/include/flatbuffers\flatbuffers.h ****   return str ? str->c_str() : "";
 587:C:/Renesas/e2studio_2021_01_workspace_RZA2M_ANPR/ANPR_RZA2M_EBK/src/tensorflow_lite/third_party/flatbuffers/include/flatbuffers\flatbuffers.h **** }
 588:C:/Renesas/e2studio_2021_01_workspace_RZA2M_ANPR/ANPR_RZA2M_EBK/src/tensorflow_lite/third_party/flatbuffers/include/flatbuffers\flatbuffers.h **** 
 589:C:/Renesas/e2studio_2021_01_workspace_RZA2M_ANPR/ANPR_RZA2M_EBK/src/tensorflow_lite/third_party/flatbuffers/include/flatbuffers\flatbuffers.h **** #ifdef FLATBUFFERS_HAS_STRING_VIEW
 590:C:/Renesas/e2studio_2021_01_workspace_RZA2M_ANPR/ANPR_RZA2M_EBK/src/tensorflow_lite/third_party/flatbuffers/include/flatbuffers\flatbuffers.h **** // Convenience function to get string_view from a String returning an empty
 591:C:/Renesas/e2studio_2021_01_workspace_RZA2M_ANPR/ANPR_RZA2M_EBK/src/tensorflow_lite/third_party/flatbuffers/include/flatbuffers\flatbuffers.h **** // string_view on null pointer.
 592:C:/Renesas/e2studio_2021_01_workspace_RZA2M_ANPR/ANPR_RZA2M_EBK/src/tensorflow_lite/third_party/flatbuffers/include/flatbuffers\flatbuffers.h **** static inline flatbuffers::string_view GetStringView(const String *str) {
 593:C:/Renesas/e2studio_2021_01_workspace_RZA2M_ANPR/ANPR_RZA2M_EBK/src/tensorflow_lite/third_party/flatbuffers/include/flatbuffers\flatbuffers.h ****   return str ? str->string_view() : flatbuffers::string_view();
 594:C:/Renesas/e2studio_2021_01_workspace_RZA2M_ANPR/ANPR_RZA2M_EBK/src/tensorflow_lite/third_party/flatbuffers/include/flatbuffers\flatbuffers.h **** }
 595:C:/Renesas/e2studio_2021_01_workspace_RZA2M_ANPR/ANPR_RZA2M_EBK/src/tensorflow_lite/third_party/flatbuffers/include/flatbuffers\flatbuffers.h **** #endif  // FLATBUFFERS_HAS_STRING_VIEW
 596:C:/Renesas/e2studio_2021_01_workspace_RZA2M_ANPR/ANPR_RZA2M_EBK/src/tensorflow_lite/third_party/flatbuffers/include/flatbuffers\flatbuffers.h **** 
 597:C:/Renesas/e2studio_2021_01_workspace_RZA2M_ANPR/ANPR_RZA2M_EBK/src/tensorflow_lite/third_party/flatbuffers/include/flatbuffers\flatbuffers.h **** // Allocator interface. This is flatbuffers-specific and meant only for
 598:C:/Renesas/e2studio_2021_01_workspace_RZA2M_ANPR/ANPR_RZA2M_EBK/src/tensorflow_lite/third_party/flatbuffers/include/flatbuffers\flatbuffers.h **** // `vector_downward` usage.
 599:C:/Renesas/e2studio_2021_01_workspace_RZA2M_ANPR/ANPR_RZA2M_EBK/src/tensorflow_lite/third_party/flatbuffers/include/flatbuffers\flatbuffers.h **** class Allocator {
 600:C:/Renesas/e2studio_2021_01_workspace_RZA2M_ANPR/ANPR_RZA2M_EBK/src/tensorflow_lite/third_party/flatbuffers/include/flatbuffers\flatbuffers.h ****  public:
 601:C:/Renesas/e2studio_2021_01_workspace_RZA2M_ANPR/ANPR_RZA2M_EBK/src/tensorflow_lite/third_party/flatbuffers/include/flatbuffers\flatbuffers.h ****   virtual ~Allocator() {}
 602:C:/Renesas/e2studio_2021_01_workspace_RZA2M_ANPR/ANPR_RZA2M_EBK/src/tensorflow_lite/third_party/flatbuffers/include/flatbuffers\flatbuffers.h **** 
 603:C:/Renesas/e2studio_2021_01_workspace_RZA2M_ANPR/ANPR_RZA2M_EBK/src/tensorflow_lite/third_party/flatbuffers/include/flatbuffers\flatbuffers.h ****   // Allocate `size` bytes of memory.
 604:C:/Renesas/e2studio_2021_01_workspace_RZA2M_ANPR/ANPR_RZA2M_EBK/src/tensorflow_lite/third_party/flatbuffers/include/flatbuffers\flatbuffers.h ****   virtual uint8_t *allocate(size_t size) = 0;
 605:C:/Renesas/e2studio_2021_01_workspace_RZA2M_ANPR/ANPR_RZA2M_EBK/src/tensorflow_lite/third_party/flatbuffers/include/flatbuffers\flatbuffers.h **** 
 606:C:/Renesas/e2studio_2021_01_workspace_RZA2M_ANPR/ANPR_RZA2M_EBK/src/tensorflow_lite/third_party/flatbuffers/include/flatbuffers\flatbuffers.h ****   // Deallocate `size` bytes of memory at `p` allocated by this allocator.
 607:C:/Renesas/e2studio_2021_01_workspace_RZA2M_ANPR/ANPR_RZA2M_EBK/src/tensorflow_lite/third_party/flatbuffers/include/flatbuffers\flatbuffers.h ****   virtual void deallocate(uint8_t *p, size_t size) = 0;
 608:C:/Renesas/e2studio_2021_01_workspace_RZA2M_ANPR/ANPR_RZA2M_EBK/src/tensorflow_lite/third_party/flatbuffers/include/flatbuffers\flatbuffers.h **** 
 609:C:/Renesas/e2studio_2021_01_workspace_RZA2M_ANPR/ANPR_RZA2M_EBK/src/tensorflow_lite/third_party/flatbuffers/include/flatbuffers\flatbuffers.h ****   // Reallocate `new_size` bytes of memory, replacing the old region of size
 610:C:/Renesas/e2studio_2021_01_workspace_RZA2M_ANPR/ANPR_RZA2M_EBK/src/tensorflow_lite/third_party/flatbuffers/include/flatbuffers\flatbuffers.h ****   // `old_size` at `p`. In contrast to a normal realloc, this grows downwards,
 611:C:/Renesas/e2studio_2021_01_workspace_RZA2M_ANPR/ANPR_RZA2M_EBK/src/tensorflow_lite/third_party/flatbuffers/include/flatbuffers\flatbuffers.h ****   // and is intended specifcally for `vector_downward` use.
 612:C:/Renesas/e2studio_2021_01_workspace_RZA2M_ANPR/ANPR_RZA2M_EBK/src/tensorflow_lite/third_party/flatbuffers/include/flatbuffers\flatbuffers.h ****   // `in_use_back` and `in_use_front` indicate how much of `old_size` is
 613:C:/Renesas/e2studio_2021_01_workspace_RZA2M_ANPR/ANPR_RZA2M_EBK/src/tensorflow_lite/third_party/flatbuffers/include/flatbuffers\flatbuffers.h ****   // actually in use at each end, and needs to be copied.
 614:C:/Renesas/e2studio_2021_01_workspace_RZA2M_ANPR/ANPR_RZA2M_EBK/src/tensorflow_lite/third_party/flatbuffers/include/flatbuffers\flatbuffers.h ****   virtual uint8_t *reallocate_downward(uint8_t *old_p, size_t old_size,
 615:C:/Renesas/e2studio_2021_01_workspace_RZA2M_ANPR/ANPR_RZA2M_EBK/src/tensorflow_lite/third_party/flatbuffers/include/flatbuffers\flatbuffers.h ****                                        size_t new_size, size_t in_use_back,
 616:C:/Renesas/e2studio_2021_01_workspace_RZA2M_ANPR/ANPR_RZA2M_EBK/src/tensorflow_lite/third_party/flatbuffers/include/flatbuffers\flatbuffers.h ****                                        size_t in_use_front) {
 617:C:/Renesas/e2studio_2021_01_workspace_RZA2M_ANPR/ANPR_RZA2M_EBK/src/tensorflow_lite/third_party/flatbuffers/include/flatbuffers\flatbuffers.h ****     FLATBUFFERS_ASSERT(new_size > old_size);  // vector_downward only grows
 618:C:/Renesas/e2studio_2021_01_workspace_RZA2M_ANPR/ANPR_RZA2M_EBK/src/tensorflow_lite/third_party/flatbuffers/include/flatbuffers\flatbuffers.h ****     uint8_t *new_p = allocate(new_size);
 619:C:/Renesas/e2studio_2021_01_workspace_RZA2M_ANPR/ANPR_RZA2M_EBK/src/tensorflow_lite/third_party/flatbuffers/include/flatbuffers\flatbuffers.h ****     memcpy_downward(old_p, old_size, new_p, new_size, in_use_back,
 620:C:/Renesas/e2studio_2021_01_workspace_RZA2M_ANPR/ANPR_RZA2M_EBK/src/tensorflow_lite/third_party/flatbuffers/include/flatbuffers\flatbuffers.h ****                     in_use_front);
 621:C:/Renesas/e2studio_2021_01_workspace_RZA2M_ANPR/ANPR_RZA2M_EBK/src/tensorflow_lite/third_party/flatbuffers/include/flatbuffers\flatbuffers.h ****     deallocate(old_p, old_size);
 622:C:/Renesas/e2studio_2021_01_workspace_RZA2M_ANPR/ANPR_RZA2M_EBK/src/tensorflow_lite/third_party/flatbuffers/include/flatbuffers\flatbuffers.h ****     return new_p;
 623:C:/Renesas/e2studio_2021_01_workspace_RZA2M_ANPR/ANPR_RZA2M_EBK/src/tensorflow_lite/third_party/flatbuffers/include/flatbuffers\flatbuffers.h ****   }
 624:C:/Renesas/e2studio_2021_01_workspace_RZA2M_ANPR/ANPR_RZA2M_EBK/src/tensorflow_lite/third_party/flatbuffers/include/flatbuffers\flatbuffers.h **** 
 625:C:/Renesas/e2studio_2021_01_workspace_RZA2M_ANPR/ANPR_RZA2M_EBK/src/tensorflow_lite/third_party/flatbuffers/include/flatbuffers\flatbuffers.h ****  protected:
 626:C:/Renesas/e2studio_2021_01_workspace_RZA2M_ANPR/ANPR_RZA2M_EBK/src/tensorflow_lite/third_party/flatbuffers/include/flatbuffers\flatbuffers.h ****   // Called by `reallocate_downward` to copy memory from `old_p` of `old_size`
 627:C:/Renesas/e2studio_2021_01_workspace_RZA2M_ANPR/ANPR_RZA2M_EBK/src/tensorflow_lite/third_party/flatbuffers/include/flatbuffers\flatbuffers.h ****   // to `new_p` of `new_size`. Only memory of size `in_use_front` and
 628:C:/Renesas/e2studio_2021_01_workspace_RZA2M_ANPR/ANPR_RZA2M_EBK/src/tensorflow_lite/third_party/flatbuffers/include/flatbuffers\flatbuffers.h ****   // `in_use_back` will be copied from the front and back of the old memory
 629:C:/Renesas/e2studio_2021_01_workspace_RZA2M_ANPR/ANPR_RZA2M_EBK/src/tensorflow_lite/third_party/flatbuffers/include/flatbuffers\flatbuffers.h ****   // allocation.
 630:C:/Renesas/e2studio_2021_01_workspace_RZA2M_ANPR/ANPR_RZA2M_EBK/src/tensorflow_lite/third_party/flatbuffers/include/flatbuffers\flatbuffers.h ****   void memcpy_downward(uint8_t *old_p, size_t old_size, uint8_t *new_p,
 631:C:/Renesas/e2studio_2021_01_workspace_RZA2M_ANPR/ANPR_RZA2M_EBK/src/tensorflow_lite/third_party/flatbuffers/include/flatbuffers\flatbuffers.h ****                        size_t new_size, size_t in_use_back,
 632:C:/Renesas/e2studio_2021_01_workspace_RZA2M_ANPR/ANPR_RZA2M_EBK/src/tensorflow_lite/third_party/flatbuffers/include/flatbuffers\flatbuffers.h ****                        size_t in_use_front) {
 633:C:/Renesas/e2studio_2021_01_workspace_RZA2M_ANPR/ANPR_RZA2M_EBK/src/tensorflow_lite/third_party/flatbuffers/include/flatbuffers\flatbuffers.h ****     memcpy(new_p + new_size - in_use_back, old_p + old_size - in_use_back,
 634:C:/Renesas/e2studio_2021_01_workspace_RZA2M_ANPR/ANPR_RZA2M_EBK/src/tensorflow_lite/third_party/flatbuffers/include/flatbuffers\flatbuffers.h ****            in_use_back);
 635:C:/Renesas/e2studio_2021_01_workspace_RZA2M_ANPR/ANPR_RZA2M_EBK/src/tensorflow_lite/third_party/flatbuffers/include/flatbuffers\flatbuffers.h ****     memcpy(new_p, old_p, in_use_front);
 636:C:/Renesas/e2studio_2021_01_workspace_RZA2M_ANPR/ANPR_RZA2M_EBK/src/tensorflow_lite/third_party/flatbuffers/include/flatbuffers\flatbuffers.h ****   }
 637:C:/Renesas/e2studio_2021_01_workspace_RZA2M_ANPR/ANPR_RZA2M_EBK/src/tensorflow_lite/third_party/flatbuffers/include/flatbuffers\flatbuffers.h **** };
 638:C:/Renesas/e2studio_2021_01_workspace_RZA2M_ANPR/ANPR_RZA2M_EBK/src/tensorflow_lite/third_party/flatbuffers/include/flatbuffers\flatbuffers.h **** 
 639:C:/Renesas/e2studio_2021_01_workspace_RZA2M_ANPR/ANPR_RZA2M_EBK/src/tensorflow_lite/third_party/flatbuffers/include/flatbuffers\flatbuffers.h **** // DefaultAllocator uses new/delete to allocate memory regions
 640:C:/Renesas/e2studio_2021_01_workspace_RZA2M_ANPR/ANPR_RZA2M_EBK/src/tensorflow_lite/third_party/flatbuffers/include/flatbuffers\flatbuffers.h **** class DefaultAllocator : public Allocator {
 641:C:/Renesas/e2studio_2021_01_workspace_RZA2M_ANPR/ANPR_RZA2M_EBK/src/tensorflow_lite/third_party/flatbuffers/include/flatbuffers\flatbuffers.h ****  public:
 642:C:/Renesas/e2studio_2021_01_workspace_RZA2M_ANPR/ANPR_RZA2M_EBK/src/tensorflow_lite/third_party/flatbuffers/include/flatbuffers\flatbuffers.h ****   uint8_t *allocate(size_t size) FLATBUFFERS_OVERRIDE {
 643:C:/Renesas/e2studio_2021_01_workspace_RZA2M_ANPR/ANPR_RZA2M_EBK/src/tensorflow_lite/third_party/flatbuffers/include/flatbuffers\flatbuffers.h ****     return new uint8_t[size];
 644:C:/Renesas/e2studio_2021_01_workspace_RZA2M_ANPR/ANPR_RZA2M_EBK/src/tensorflow_lite/third_party/flatbuffers/include/flatbuffers\flatbuffers.h ****   }
 645:C:/Renesas/e2studio_2021_01_workspace_RZA2M_ANPR/ANPR_RZA2M_EBK/src/tensorflow_lite/third_party/flatbuffers/include/flatbuffers\flatbuffers.h **** 
 646:C:/Renesas/e2studio_2021_01_workspace_RZA2M_ANPR/ANPR_RZA2M_EBK/src/tensorflow_lite/third_party/flatbuffers/include/flatbuffers\flatbuffers.h ****   void deallocate(uint8_t *p, size_t) FLATBUFFERS_OVERRIDE { delete[] p; }
 647:C:/Renesas/e2studio_2021_01_workspace_RZA2M_ANPR/ANPR_RZA2M_EBK/src/tensorflow_lite/third_party/flatbuffers/include/flatbuffers\flatbuffers.h **** 
 648:C:/Renesas/e2studio_2021_01_workspace_RZA2M_ANPR/ANPR_RZA2M_EBK/src/tensorflow_lite/third_party/flatbuffers/include/flatbuffers\flatbuffers.h ****   static void dealloc(void *p, size_t) { delete[] static_cast<uint8_t *>(p); }
 649:C:/Renesas/e2studio_2021_01_workspace_RZA2M_ANPR/ANPR_RZA2M_EBK/src/tensorflow_lite/third_party/flatbuffers/include/flatbuffers\flatbuffers.h **** };
 650:C:/Renesas/e2studio_2021_01_workspace_RZA2M_ANPR/ANPR_RZA2M_EBK/src/tensorflow_lite/third_party/flatbuffers/include/flatbuffers\flatbuffers.h **** 
 651:C:/Renesas/e2studio_2021_01_workspace_RZA2M_ANPR/ANPR_RZA2M_EBK/src/tensorflow_lite/third_party/flatbuffers/include/flatbuffers\flatbuffers.h **** // These functions allow for a null allocator to mean use the default allocator,
 652:C:/Renesas/e2studio_2021_01_workspace_RZA2M_ANPR/ANPR_RZA2M_EBK/src/tensorflow_lite/third_party/flatbuffers/include/flatbuffers\flatbuffers.h **** // as used by DetachedBuffer and vector_downward below.
 653:C:/Renesas/e2studio_2021_01_workspace_RZA2M_ANPR/ANPR_RZA2M_EBK/src/tensorflow_lite/third_party/flatbuffers/include/flatbuffers\flatbuffers.h **** // This is to avoid having a statically or dynamically allocated default
 654:C:/Renesas/e2studio_2021_01_workspace_RZA2M_ANPR/ANPR_RZA2M_EBK/src/tensorflow_lite/third_party/flatbuffers/include/flatbuffers\flatbuffers.h **** // allocator, or having to move it between the classes that may own it.
 655:C:/Renesas/e2studio_2021_01_workspace_RZA2M_ANPR/ANPR_RZA2M_EBK/src/tensorflow_lite/third_party/flatbuffers/include/flatbuffers\flatbuffers.h **** inline uint8_t *Allocate(Allocator *allocator, size_t size) {
 656:C:/Renesas/e2studio_2021_01_workspace_RZA2M_ANPR/ANPR_RZA2M_EBK/src/tensorflow_lite/third_party/flatbuffers/include/flatbuffers\flatbuffers.h ****   return allocator ? allocator->allocate(size)
 657:C:/Renesas/e2studio_2021_01_workspace_RZA2M_ANPR/ANPR_RZA2M_EBK/src/tensorflow_lite/third_party/flatbuffers/include/flatbuffers\flatbuffers.h ****                    : DefaultAllocator().allocate(size);
 658:C:/Renesas/e2studio_2021_01_workspace_RZA2M_ANPR/ANPR_RZA2M_EBK/src/tensorflow_lite/third_party/flatbuffers/include/flatbuffers\flatbuffers.h **** }
 659:C:/Renesas/e2studio_2021_01_workspace_RZA2M_ANPR/ANPR_RZA2M_EBK/src/tensorflow_lite/third_party/flatbuffers/include/flatbuffers\flatbuffers.h **** 
 660:C:/Renesas/e2studio_2021_01_workspace_RZA2M_ANPR/ANPR_RZA2M_EBK/src/tensorflow_lite/third_party/flatbuffers/include/flatbuffers\flatbuffers.h **** inline void Deallocate(Allocator *allocator, uint8_t *p, size_t size) {
 661:C:/Renesas/e2studio_2021_01_workspace_RZA2M_ANPR/ANPR_RZA2M_EBK/src/tensorflow_lite/third_party/flatbuffers/include/flatbuffers\flatbuffers.h ****   if (allocator)
 662:C:/Renesas/e2studio_2021_01_workspace_RZA2M_ANPR/ANPR_RZA2M_EBK/src/tensorflow_lite/third_party/flatbuffers/include/flatbuffers\flatbuffers.h ****     allocator->deallocate(p, size);
 663:C:/Renesas/e2studio_2021_01_workspace_RZA2M_ANPR/ANPR_RZA2M_EBK/src/tensorflow_lite/third_party/flatbuffers/include/flatbuffers\flatbuffers.h ****   else
 664:C:/Renesas/e2studio_2021_01_workspace_RZA2M_ANPR/ANPR_RZA2M_EBK/src/tensorflow_lite/third_party/flatbuffers/include/flatbuffers\flatbuffers.h ****     DefaultAllocator().deallocate(p, size);
 665:C:/Renesas/e2studio_2021_01_workspace_RZA2M_ANPR/ANPR_RZA2M_EBK/src/tensorflow_lite/third_party/flatbuffers/include/flatbuffers\flatbuffers.h **** }
 666:C:/Renesas/e2studio_2021_01_workspace_RZA2M_ANPR/ANPR_RZA2M_EBK/src/tensorflow_lite/third_party/flatbuffers/include/flatbuffers\flatbuffers.h **** 
 667:C:/Renesas/e2studio_2021_01_workspace_RZA2M_ANPR/ANPR_RZA2M_EBK/src/tensorflow_lite/third_party/flatbuffers/include/flatbuffers\flatbuffers.h **** inline uint8_t *ReallocateDownward(Allocator *allocator, uint8_t *old_p,
 668:C:/Renesas/e2studio_2021_01_workspace_RZA2M_ANPR/ANPR_RZA2M_EBK/src/tensorflow_lite/third_party/flatbuffers/include/flatbuffers\flatbuffers.h ****                                    size_t old_size, size_t new_size,
 669:C:/Renesas/e2studio_2021_01_workspace_RZA2M_ANPR/ANPR_RZA2M_EBK/src/tensorflow_lite/third_party/flatbuffers/include/flatbuffers\flatbuffers.h ****                                    size_t in_use_back, size_t in_use_front) {
 670:C:/Renesas/e2studio_2021_01_workspace_RZA2M_ANPR/ANPR_RZA2M_EBK/src/tensorflow_lite/third_party/flatbuffers/include/flatbuffers\flatbuffers.h ****   return allocator ? allocator->reallocate_downward(old_p, old_size, new_size,
 671:C:/Renesas/e2studio_2021_01_workspace_RZA2M_ANPR/ANPR_RZA2M_EBK/src/tensorflow_lite/third_party/flatbuffers/include/flatbuffers\flatbuffers.h ****                                                     in_use_back, in_use_front)
 672:C:/Renesas/e2studio_2021_01_workspace_RZA2M_ANPR/ANPR_RZA2M_EBK/src/tensorflow_lite/third_party/flatbuffers/include/flatbuffers\flatbuffers.h ****                    : DefaultAllocator().reallocate_downward(
 673:C:/Renesas/e2studio_2021_01_workspace_RZA2M_ANPR/ANPR_RZA2M_EBK/src/tensorflow_lite/third_party/flatbuffers/include/flatbuffers\flatbuffers.h ****                          old_p, old_size, new_size, in_use_back, in_use_front);
 674:C:/Renesas/e2studio_2021_01_workspace_RZA2M_ANPR/ANPR_RZA2M_EBK/src/tensorflow_lite/third_party/flatbuffers/include/flatbuffers\flatbuffers.h **** }
 675:C:/Renesas/e2studio_2021_01_workspace_RZA2M_ANPR/ANPR_RZA2M_EBK/src/tensorflow_lite/third_party/flatbuffers/include/flatbuffers\flatbuffers.h **** 
 676:C:/Renesas/e2studio_2021_01_workspace_RZA2M_ANPR/ANPR_RZA2M_EBK/src/tensorflow_lite/third_party/flatbuffers/include/flatbuffers\flatbuffers.h **** // DetachedBuffer is a finished flatbuffer memory region, detached from its
 677:C:/Renesas/e2studio_2021_01_workspace_RZA2M_ANPR/ANPR_RZA2M_EBK/src/tensorflow_lite/third_party/flatbuffers/include/flatbuffers\flatbuffers.h **** // builder. The original memory region and allocator are also stored so that
 678:C:/Renesas/e2studio_2021_01_workspace_RZA2M_ANPR/ANPR_RZA2M_EBK/src/tensorflow_lite/third_party/flatbuffers/include/flatbuffers\flatbuffers.h **** // the DetachedBuffer can manage the memory lifetime.
 679:C:/Renesas/e2studio_2021_01_workspace_RZA2M_ANPR/ANPR_RZA2M_EBK/src/tensorflow_lite/third_party/flatbuffers/include/flatbuffers\flatbuffers.h **** class DetachedBuffer {
 680:C:/Renesas/e2studio_2021_01_workspace_RZA2M_ANPR/ANPR_RZA2M_EBK/src/tensorflow_lite/third_party/flatbuffers/include/flatbuffers\flatbuffers.h ****  public:
 681:C:/Renesas/e2studio_2021_01_workspace_RZA2M_ANPR/ANPR_RZA2M_EBK/src/tensorflow_lite/third_party/flatbuffers/include/flatbuffers\flatbuffers.h ****   DetachedBuffer()
 682:C:/Renesas/e2studio_2021_01_workspace_RZA2M_ANPR/ANPR_RZA2M_EBK/src/tensorflow_lite/third_party/flatbuffers/include/flatbuffers\flatbuffers.h ****       : allocator_(nullptr),
 683:C:/Renesas/e2studio_2021_01_workspace_RZA2M_ANPR/ANPR_RZA2M_EBK/src/tensorflow_lite/third_party/flatbuffers/include/flatbuffers\flatbuffers.h ****         own_allocator_(false),
 684:C:/Renesas/e2studio_2021_01_workspace_RZA2M_ANPR/ANPR_RZA2M_EBK/src/tensorflow_lite/third_party/flatbuffers/include/flatbuffers\flatbuffers.h ****         buf_(nullptr),
 685:C:/Renesas/e2studio_2021_01_workspace_RZA2M_ANPR/ANPR_RZA2M_EBK/src/tensorflow_lite/third_party/flatbuffers/include/flatbuffers\flatbuffers.h ****         reserved_(0),
 686:C:/Renesas/e2studio_2021_01_workspace_RZA2M_ANPR/ANPR_RZA2M_EBK/src/tensorflow_lite/third_party/flatbuffers/include/flatbuffers\flatbuffers.h ****         cur_(nullptr),
 687:C:/Renesas/e2studio_2021_01_workspace_RZA2M_ANPR/ANPR_RZA2M_EBK/src/tensorflow_lite/third_party/flatbuffers/include/flatbuffers\flatbuffers.h ****         size_(0) {}
 688:C:/Renesas/e2studio_2021_01_workspace_RZA2M_ANPR/ANPR_RZA2M_EBK/src/tensorflow_lite/third_party/flatbuffers/include/flatbuffers\flatbuffers.h **** 
 689:C:/Renesas/e2studio_2021_01_workspace_RZA2M_ANPR/ANPR_RZA2M_EBK/src/tensorflow_lite/third_party/flatbuffers/include/flatbuffers\flatbuffers.h ****   DetachedBuffer(Allocator *allocator, bool own_allocator, uint8_t *buf,
 690:C:/Renesas/e2studio_2021_01_workspace_RZA2M_ANPR/ANPR_RZA2M_EBK/src/tensorflow_lite/third_party/flatbuffers/include/flatbuffers\flatbuffers.h ****                  size_t reserved, uint8_t *cur, size_t sz)
 691:C:/Renesas/e2studio_2021_01_workspace_RZA2M_ANPR/ANPR_RZA2M_EBK/src/tensorflow_lite/third_party/flatbuffers/include/flatbuffers\flatbuffers.h ****       : allocator_(allocator),
 692:C:/Renesas/e2studio_2021_01_workspace_RZA2M_ANPR/ANPR_RZA2M_EBK/src/tensorflow_lite/third_party/flatbuffers/include/flatbuffers\flatbuffers.h ****         own_allocator_(own_allocator),
 693:C:/Renesas/e2studio_2021_01_workspace_RZA2M_ANPR/ANPR_RZA2M_EBK/src/tensorflow_lite/third_party/flatbuffers/include/flatbuffers\flatbuffers.h ****         buf_(buf),
 694:C:/Renesas/e2studio_2021_01_workspace_RZA2M_ANPR/ANPR_RZA2M_EBK/src/tensorflow_lite/third_party/flatbuffers/include/flatbuffers\flatbuffers.h ****         reserved_(reserved),
 695:C:/Renesas/e2studio_2021_01_workspace_RZA2M_ANPR/ANPR_RZA2M_EBK/src/tensorflow_lite/third_party/flatbuffers/include/flatbuffers\flatbuffers.h ****         cur_(cur),
 696:C:/Renesas/e2studio_2021_01_workspace_RZA2M_ANPR/ANPR_RZA2M_EBK/src/tensorflow_lite/third_party/flatbuffers/include/flatbuffers\flatbuffers.h ****         size_(sz) {}
 697:C:/Renesas/e2studio_2021_01_workspace_RZA2M_ANPR/ANPR_RZA2M_EBK/src/tensorflow_lite/third_party/flatbuffers/include/flatbuffers\flatbuffers.h **** 
 698:C:/Renesas/e2studio_2021_01_workspace_RZA2M_ANPR/ANPR_RZA2M_EBK/src/tensorflow_lite/third_party/flatbuffers/include/flatbuffers\flatbuffers.h ****   // clang-format off
 699:C:/Renesas/e2studio_2021_01_workspace_RZA2M_ANPR/ANPR_RZA2M_EBK/src/tensorflow_lite/third_party/flatbuffers/include/flatbuffers\flatbuffers.h ****   #if !defined(FLATBUFFERS_CPP98_STL)
 700:C:/Renesas/e2studio_2021_01_workspace_RZA2M_ANPR/ANPR_RZA2M_EBK/src/tensorflow_lite/third_party/flatbuffers/include/flatbuffers\flatbuffers.h ****   // clang-format on
 701:C:/Renesas/e2studio_2021_01_workspace_RZA2M_ANPR/ANPR_RZA2M_EBK/src/tensorflow_lite/third_party/flatbuffers/include/flatbuffers\flatbuffers.h ****   DetachedBuffer(DetachedBuffer &&other)
 702:C:/Renesas/e2studio_2021_01_workspace_RZA2M_ANPR/ANPR_RZA2M_EBK/src/tensorflow_lite/third_party/flatbuffers/include/flatbuffers\flatbuffers.h ****       : allocator_(other.allocator_),
 703:C:/Renesas/e2studio_2021_01_workspace_RZA2M_ANPR/ANPR_RZA2M_EBK/src/tensorflow_lite/third_party/flatbuffers/include/flatbuffers\flatbuffers.h ****         own_allocator_(other.own_allocator_),
 704:C:/Renesas/e2studio_2021_01_workspace_RZA2M_ANPR/ANPR_RZA2M_EBK/src/tensorflow_lite/third_party/flatbuffers/include/flatbuffers\flatbuffers.h ****         buf_(other.buf_),
 705:C:/Renesas/e2studio_2021_01_workspace_RZA2M_ANPR/ANPR_RZA2M_EBK/src/tensorflow_lite/third_party/flatbuffers/include/flatbuffers\flatbuffers.h ****         reserved_(other.reserved_),
 706:C:/Renesas/e2studio_2021_01_workspace_RZA2M_ANPR/ANPR_RZA2M_EBK/src/tensorflow_lite/third_party/flatbuffers/include/flatbuffers\flatbuffers.h ****         cur_(other.cur_),
 707:C:/Renesas/e2studio_2021_01_workspace_RZA2M_ANPR/ANPR_RZA2M_EBK/src/tensorflow_lite/third_party/flatbuffers/include/flatbuffers\flatbuffers.h ****         size_(other.size_) {
 708:C:/Renesas/e2studio_2021_01_workspace_RZA2M_ANPR/ANPR_RZA2M_EBK/src/tensorflow_lite/third_party/flatbuffers/include/flatbuffers\flatbuffers.h ****     other.reset();
 709:C:/Renesas/e2studio_2021_01_workspace_RZA2M_ANPR/ANPR_RZA2M_EBK/src/tensorflow_lite/third_party/flatbuffers/include/flatbuffers\flatbuffers.h ****   }
 710:C:/Renesas/e2studio_2021_01_workspace_RZA2M_ANPR/ANPR_RZA2M_EBK/src/tensorflow_lite/third_party/flatbuffers/include/flatbuffers\flatbuffers.h ****   // clang-format off
 711:C:/Renesas/e2studio_2021_01_workspace_RZA2M_ANPR/ANPR_RZA2M_EBK/src/tensorflow_lite/third_party/flatbuffers/include/flatbuffers\flatbuffers.h ****   #endif  // !defined(FLATBUFFERS_CPP98_STL)
 712:C:/Renesas/e2studio_2021_01_workspace_RZA2M_ANPR/ANPR_RZA2M_EBK/src/tensorflow_lite/third_party/flatbuffers/include/flatbuffers\flatbuffers.h ****   // clang-format on
 713:C:/Renesas/e2studio_2021_01_workspace_RZA2M_ANPR/ANPR_RZA2M_EBK/src/tensorflow_lite/third_party/flatbuffers/include/flatbuffers\flatbuffers.h **** 
 714:C:/Renesas/e2studio_2021_01_workspace_RZA2M_ANPR/ANPR_RZA2M_EBK/src/tensorflow_lite/third_party/flatbuffers/include/flatbuffers\flatbuffers.h ****   // clang-format off
 715:C:/Renesas/e2studio_2021_01_workspace_RZA2M_ANPR/ANPR_RZA2M_EBK/src/tensorflow_lite/third_party/flatbuffers/include/flatbuffers\flatbuffers.h ****   #if !defined(FLATBUFFERS_CPP98_STL)
 716:C:/Renesas/e2studio_2021_01_workspace_RZA2M_ANPR/ANPR_RZA2M_EBK/src/tensorflow_lite/third_party/flatbuffers/include/flatbuffers\flatbuffers.h ****   // clang-format on
 717:C:/Renesas/e2studio_2021_01_workspace_RZA2M_ANPR/ANPR_RZA2M_EBK/src/tensorflow_lite/third_party/flatbuffers/include/flatbuffers\flatbuffers.h ****   DetachedBuffer &operator=(DetachedBuffer &&other) {
 718:C:/Renesas/e2studio_2021_01_workspace_RZA2M_ANPR/ANPR_RZA2M_EBK/src/tensorflow_lite/third_party/flatbuffers/include/flatbuffers\flatbuffers.h ****     if (this == &other) return *this;
 719:C:/Renesas/e2studio_2021_01_workspace_RZA2M_ANPR/ANPR_RZA2M_EBK/src/tensorflow_lite/third_party/flatbuffers/include/flatbuffers\flatbuffers.h **** 
 720:C:/Renesas/e2studio_2021_01_workspace_RZA2M_ANPR/ANPR_RZA2M_EBK/src/tensorflow_lite/third_party/flatbuffers/include/flatbuffers\flatbuffers.h ****     destroy();
 721:C:/Renesas/e2studio_2021_01_workspace_RZA2M_ANPR/ANPR_RZA2M_EBK/src/tensorflow_lite/third_party/flatbuffers/include/flatbuffers\flatbuffers.h **** 
 722:C:/Renesas/e2studio_2021_01_workspace_RZA2M_ANPR/ANPR_RZA2M_EBK/src/tensorflow_lite/third_party/flatbuffers/include/flatbuffers\flatbuffers.h ****     allocator_ = other.allocator_;
 723:C:/Renesas/e2studio_2021_01_workspace_RZA2M_ANPR/ANPR_RZA2M_EBK/src/tensorflow_lite/third_party/flatbuffers/include/flatbuffers\flatbuffers.h ****     own_allocator_ = other.own_allocator_;
 724:C:/Renesas/e2studio_2021_01_workspace_RZA2M_ANPR/ANPR_RZA2M_EBK/src/tensorflow_lite/third_party/flatbuffers/include/flatbuffers\flatbuffers.h ****     buf_ = other.buf_;
 725:C:/Renesas/e2studio_2021_01_workspace_RZA2M_ANPR/ANPR_RZA2M_EBK/src/tensorflow_lite/third_party/flatbuffers/include/flatbuffers\flatbuffers.h ****     reserved_ = other.reserved_;
 726:C:/Renesas/e2studio_2021_01_workspace_RZA2M_ANPR/ANPR_RZA2M_EBK/src/tensorflow_lite/third_party/flatbuffers/include/flatbuffers\flatbuffers.h ****     cur_ = other.cur_;
 727:C:/Renesas/e2studio_2021_01_workspace_RZA2M_ANPR/ANPR_RZA2M_EBK/src/tensorflow_lite/third_party/flatbuffers/include/flatbuffers\flatbuffers.h ****     size_ = other.size_;
 728:C:/Renesas/e2studio_2021_01_workspace_RZA2M_ANPR/ANPR_RZA2M_EBK/src/tensorflow_lite/third_party/flatbuffers/include/flatbuffers\flatbuffers.h **** 
 729:C:/Renesas/e2studio_2021_01_workspace_RZA2M_ANPR/ANPR_RZA2M_EBK/src/tensorflow_lite/third_party/flatbuffers/include/flatbuffers\flatbuffers.h ****     other.reset();
 730:C:/Renesas/e2studio_2021_01_workspace_RZA2M_ANPR/ANPR_RZA2M_EBK/src/tensorflow_lite/third_party/flatbuffers/include/flatbuffers\flatbuffers.h **** 
 731:C:/Renesas/e2studio_2021_01_workspace_RZA2M_ANPR/ANPR_RZA2M_EBK/src/tensorflow_lite/third_party/flatbuffers/include/flatbuffers\flatbuffers.h ****     return *this;
 732:C:/Renesas/e2studio_2021_01_workspace_RZA2M_ANPR/ANPR_RZA2M_EBK/src/tensorflow_lite/third_party/flatbuffers/include/flatbuffers\flatbuffers.h ****   }
 733:C:/Renesas/e2studio_2021_01_workspace_RZA2M_ANPR/ANPR_RZA2M_EBK/src/tensorflow_lite/third_party/flatbuffers/include/flatbuffers\flatbuffers.h ****   // clang-format off
 734:C:/Renesas/e2studio_2021_01_workspace_RZA2M_ANPR/ANPR_RZA2M_EBK/src/tensorflow_lite/third_party/flatbuffers/include/flatbuffers\flatbuffers.h ****   #endif  // !defined(FLATBUFFERS_CPP98_STL)
 735:C:/Renesas/e2studio_2021_01_workspace_RZA2M_ANPR/ANPR_RZA2M_EBK/src/tensorflow_lite/third_party/flatbuffers/include/flatbuffers\flatbuffers.h ****   // clang-format on
 736:C:/Renesas/e2studio_2021_01_workspace_RZA2M_ANPR/ANPR_RZA2M_EBK/src/tensorflow_lite/third_party/flatbuffers/include/flatbuffers\flatbuffers.h **** 
 737:C:/Renesas/e2studio_2021_01_workspace_RZA2M_ANPR/ANPR_RZA2M_EBK/src/tensorflow_lite/third_party/flatbuffers/include/flatbuffers\flatbuffers.h ****   ~DetachedBuffer() { destroy(); }
 738:C:/Renesas/e2studio_2021_01_workspace_RZA2M_ANPR/ANPR_RZA2M_EBK/src/tensorflow_lite/third_party/flatbuffers/include/flatbuffers\flatbuffers.h **** 
 739:C:/Renesas/e2studio_2021_01_workspace_RZA2M_ANPR/ANPR_RZA2M_EBK/src/tensorflow_lite/third_party/flatbuffers/include/flatbuffers\flatbuffers.h ****   const uint8_t *data() const { return cur_; }
 740:C:/Renesas/e2studio_2021_01_workspace_RZA2M_ANPR/ANPR_RZA2M_EBK/src/tensorflow_lite/third_party/flatbuffers/include/flatbuffers\flatbuffers.h **** 
 741:C:/Renesas/e2studio_2021_01_workspace_RZA2M_ANPR/ANPR_RZA2M_EBK/src/tensorflow_lite/third_party/flatbuffers/include/flatbuffers\flatbuffers.h ****   uint8_t *data() { return cur_; }
 742:C:/Renesas/e2studio_2021_01_workspace_RZA2M_ANPR/ANPR_RZA2M_EBK/src/tensorflow_lite/third_party/flatbuffers/include/flatbuffers\flatbuffers.h **** 
 743:C:/Renesas/e2studio_2021_01_workspace_RZA2M_ANPR/ANPR_RZA2M_EBK/src/tensorflow_lite/third_party/flatbuffers/include/flatbuffers\flatbuffers.h ****   size_t size() const { return size_; }
 744:C:/Renesas/e2studio_2021_01_workspace_RZA2M_ANPR/ANPR_RZA2M_EBK/src/tensorflow_lite/third_party/flatbuffers/include/flatbuffers\flatbuffers.h **** 
 745:C:/Renesas/e2studio_2021_01_workspace_RZA2M_ANPR/ANPR_RZA2M_EBK/src/tensorflow_lite/third_party/flatbuffers/include/flatbuffers\flatbuffers.h ****   // clang-format off
 746:C:/Renesas/e2studio_2021_01_workspace_RZA2M_ANPR/ANPR_RZA2M_EBK/src/tensorflow_lite/third_party/flatbuffers/include/flatbuffers\flatbuffers.h ****   #if 0  // disabled for now due to the ordering of classes in this header
 747:C:/Renesas/e2studio_2021_01_workspace_RZA2M_ANPR/ANPR_RZA2M_EBK/src/tensorflow_lite/third_party/flatbuffers/include/flatbuffers\flatbuffers.h ****   template <class T>
 748:C:/Renesas/e2studio_2021_01_workspace_RZA2M_ANPR/ANPR_RZA2M_EBK/src/tensorflow_lite/third_party/flatbuffers/include/flatbuffers\flatbuffers.h ****   bool Verify() const {
 749:C:/Renesas/e2studio_2021_01_workspace_RZA2M_ANPR/ANPR_RZA2M_EBK/src/tensorflow_lite/third_party/flatbuffers/include/flatbuffers\flatbuffers.h ****     Verifier verifier(data(), size());
 750:C:/Renesas/e2studio_2021_01_workspace_RZA2M_ANPR/ANPR_RZA2M_EBK/src/tensorflow_lite/third_party/flatbuffers/include/flatbuffers\flatbuffers.h ****     return verifier.Verify<T>(nullptr);
 751:C:/Renesas/e2studio_2021_01_workspace_RZA2M_ANPR/ANPR_RZA2M_EBK/src/tensorflow_lite/third_party/flatbuffers/include/flatbuffers\flatbuffers.h ****   }
 752:C:/Renesas/e2studio_2021_01_workspace_RZA2M_ANPR/ANPR_RZA2M_EBK/src/tensorflow_lite/third_party/flatbuffers/include/flatbuffers\flatbuffers.h **** 
 753:C:/Renesas/e2studio_2021_01_workspace_RZA2M_ANPR/ANPR_RZA2M_EBK/src/tensorflow_lite/third_party/flatbuffers/include/flatbuffers\flatbuffers.h ****   template <class T>
 754:C:/Renesas/e2studio_2021_01_workspace_RZA2M_ANPR/ANPR_RZA2M_EBK/src/tensorflow_lite/third_party/flatbuffers/include/flatbuffers\flatbuffers.h ****   const T* GetRoot() const {
 755:C:/Renesas/e2studio_2021_01_workspace_RZA2M_ANPR/ANPR_RZA2M_EBK/src/tensorflow_lite/third_party/flatbuffers/include/flatbuffers\flatbuffers.h ****     return flatbuffers::GetRoot<T>(data());
 756:C:/Renesas/e2studio_2021_01_workspace_RZA2M_ANPR/ANPR_RZA2M_EBK/src/tensorflow_lite/third_party/flatbuffers/include/flatbuffers\flatbuffers.h ****   }
 757:C:/Renesas/e2studio_2021_01_workspace_RZA2M_ANPR/ANPR_RZA2M_EBK/src/tensorflow_lite/third_party/flatbuffers/include/flatbuffers\flatbuffers.h **** 
 758:C:/Renesas/e2studio_2021_01_workspace_RZA2M_ANPR/ANPR_RZA2M_EBK/src/tensorflow_lite/third_party/flatbuffers/include/flatbuffers\flatbuffers.h ****   template <class T>
 759:C:/Renesas/e2studio_2021_01_workspace_RZA2M_ANPR/ANPR_RZA2M_EBK/src/tensorflow_lite/third_party/flatbuffers/include/flatbuffers\flatbuffers.h ****   T* GetRoot() {
 760:C:/Renesas/e2studio_2021_01_workspace_RZA2M_ANPR/ANPR_RZA2M_EBK/src/tensorflow_lite/third_party/flatbuffers/include/flatbuffers\flatbuffers.h ****     return flatbuffers::GetRoot<T>(data());
 761:C:/Renesas/e2studio_2021_01_workspace_RZA2M_ANPR/ANPR_RZA2M_EBK/src/tensorflow_lite/third_party/flatbuffers/include/flatbuffers\flatbuffers.h ****   }
 762:C:/Renesas/e2studio_2021_01_workspace_RZA2M_ANPR/ANPR_RZA2M_EBK/src/tensorflow_lite/third_party/flatbuffers/include/flatbuffers\flatbuffers.h ****   #endif
 763:C:/Renesas/e2studio_2021_01_workspace_RZA2M_ANPR/ANPR_RZA2M_EBK/src/tensorflow_lite/third_party/flatbuffers/include/flatbuffers\flatbuffers.h ****   // clang-format on
 764:C:/Renesas/e2studio_2021_01_workspace_RZA2M_ANPR/ANPR_RZA2M_EBK/src/tensorflow_lite/third_party/flatbuffers/include/flatbuffers\flatbuffers.h **** 
 765:C:/Renesas/e2studio_2021_01_workspace_RZA2M_ANPR/ANPR_RZA2M_EBK/src/tensorflow_lite/third_party/flatbuffers/include/flatbuffers\flatbuffers.h ****   // clang-format off
 766:C:/Renesas/e2studio_2021_01_workspace_RZA2M_ANPR/ANPR_RZA2M_EBK/src/tensorflow_lite/third_party/flatbuffers/include/flatbuffers\flatbuffers.h ****   #if !defined(FLATBUFFERS_CPP98_STL)
 767:C:/Renesas/e2studio_2021_01_workspace_RZA2M_ANPR/ANPR_RZA2M_EBK/src/tensorflow_lite/third_party/flatbuffers/include/flatbuffers\flatbuffers.h ****   // clang-format on
 768:C:/Renesas/e2studio_2021_01_workspace_RZA2M_ANPR/ANPR_RZA2M_EBK/src/tensorflow_lite/third_party/flatbuffers/include/flatbuffers\flatbuffers.h ****   // These may change access mode, leave these at end of public section
 769:C:/Renesas/e2studio_2021_01_workspace_RZA2M_ANPR/ANPR_RZA2M_EBK/src/tensorflow_lite/third_party/flatbuffers/include/flatbuffers\flatbuffers.h ****   FLATBUFFERS_DELETE_FUNC(DetachedBuffer(const DetachedBuffer &other))
 770:C:/Renesas/e2studio_2021_01_workspace_RZA2M_ANPR/ANPR_RZA2M_EBK/src/tensorflow_lite/third_party/flatbuffers/include/flatbuffers\flatbuffers.h ****   FLATBUFFERS_DELETE_FUNC(
 771:C:/Renesas/e2studio_2021_01_workspace_RZA2M_ANPR/ANPR_RZA2M_EBK/src/tensorflow_lite/third_party/flatbuffers/include/flatbuffers\flatbuffers.h ****       DetachedBuffer &operator=(const DetachedBuffer &other))
 772:C:/Renesas/e2studio_2021_01_workspace_RZA2M_ANPR/ANPR_RZA2M_EBK/src/tensorflow_lite/third_party/flatbuffers/include/flatbuffers\flatbuffers.h ****   // clang-format off
 773:C:/Renesas/e2studio_2021_01_workspace_RZA2M_ANPR/ANPR_RZA2M_EBK/src/tensorflow_lite/third_party/flatbuffers/include/flatbuffers\flatbuffers.h ****   #endif  // !defined(FLATBUFFERS_CPP98_STL)
 774:C:/Renesas/e2studio_2021_01_workspace_RZA2M_ANPR/ANPR_RZA2M_EBK/src/tensorflow_lite/third_party/flatbuffers/include/flatbuffers\flatbuffers.h ****   // clang-format on
 775:C:/Renesas/e2studio_2021_01_workspace_RZA2M_ANPR/ANPR_RZA2M_EBK/src/tensorflow_lite/third_party/flatbuffers/include/flatbuffers\flatbuffers.h **** 
 776:C:/Renesas/e2studio_2021_01_workspace_RZA2M_ANPR/ANPR_RZA2M_EBK/src/tensorflow_lite/third_party/flatbuffers/include/flatbuffers\flatbuffers.h ****  protected:
 777:C:/Renesas/e2studio_2021_01_workspace_RZA2M_ANPR/ANPR_RZA2M_EBK/src/tensorflow_lite/third_party/flatbuffers/include/flatbuffers\flatbuffers.h ****   Allocator *allocator_;
 778:C:/Renesas/e2studio_2021_01_workspace_RZA2M_ANPR/ANPR_RZA2M_EBK/src/tensorflow_lite/third_party/flatbuffers/include/flatbuffers\flatbuffers.h ****   bool own_allocator_;
 779:C:/Renesas/e2studio_2021_01_workspace_RZA2M_ANPR/ANPR_RZA2M_EBK/src/tensorflow_lite/third_party/flatbuffers/include/flatbuffers\flatbuffers.h ****   uint8_t *buf_;
 780:C:/Renesas/e2studio_2021_01_workspace_RZA2M_ANPR/ANPR_RZA2M_EBK/src/tensorflow_lite/third_party/flatbuffers/include/flatbuffers\flatbuffers.h ****   size_t reserved_;
 781:C:/Renesas/e2studio_2021_01_workspace_RZA2M_ANPR/ANPR_RZA2M_EBK/src/tensorflow_lite/third_party/flatbuffers/include/flatbuffers\flatbuffers.h ****   uint8_t *cur_;
 782:C:/Renesas/e2studio_2021_01_workspace_RZA2M_ANPR/ANPR_RZA2M_EBK/src/tensorflow_lite/third_party/flatbuffers/include/flatbuffers\flatbuffers.h ****   size_t size_;
 783:C:/Renesas/e2studio_2021_01_workspace_RZA2M_ANPR/ANPR_RZA2M_EBK/src/tensorflow_lite/third_party/flatbuffers/include/flatbuffers\flatbuffers.h **** 
 784:C:/Renesas/e2studio_2021_01_workspace_RZA2M_ANPR/ANPR_RZA2M_EBK/src/tensorflow_lite/third_party/flatbuffers/include/flatbuffers\flatbuffers.h ****   inline void destroy() {
 785:C:/Renesas/e2studio_2021_01_workspace_RZA2M_ANPR/ANPR_RZA2M_EBK/src/tensorflow_lite/third_party/flatbuffers/include/flatbuffers\flatbuffers.h ****     if (buf_) Deallocate(allocator_, buf_, reserved_);
 786:C:/Renesas/e2studio_2021_01_workspace_RZA2M_ANPR/ANPR_RZA2M_EBK/src/tensorflow_lite/third_party/flatbuffers/include/flatbuffers\flatbuffers.h ****     if (own_allocator_ && allocator_) { delete allocator_; }
 787:C:/Renesas/e2studio_2021_01_workspace_RZA2M_ANPR/ANPR_RZA2M_EBK/src/tensorflow_lite/third_party/flatbuffers/include/flatbuffers\flatbuffers.h ****     reset();
 788:C:/Renesas/e2studio_2021_01_workspace_RZA2M_ANPR/ANPR_RZA2M_EBK/src/tensorflow_lite/third_party/flatbuffers/include/flatbuffers\flatbuffers.h ****   }
 789:C:/Renesas/e2studio_2021_01_workspace_RZA2M_ANPR/ANPR_RZA2M_EBK/src/tensorflow_lite/third_party/flatbuffers/include/flatbuffers\flatbuffers.h **** 
 790:C:/Renesas/e2studio_2021_01_workspace_RZA2M_ANPR/ANPR_RZA2M_EBK/src/tensorflow_lite/third_party/flatbuffers/include/flatbuffers\flatbuffers.h ****   inline void reset() {
 791:C:/Renesas/e2studio_2021_01_workspace_RZA2M_ANPR/ANPR_RZA2M_EBK/src/tensorflow_lite/third_party/flatbuffers/include/flatbuffers\flatbuffers.h ****     allocator_ = nullptr;
 792:C:/Renesas/e2studio_2021_01_workspace_RZA2M_ANPR/ANPR_RZA2M_EBK/src/tensorflow_lite/third_party/flatbuffers/include/flatbuffers\flatbuffers.h ****     own_allocator_ = false;
 793:C:/Renesas/e2studio_2021_01_workspace_RZA2M_ANPR/ANPR_RZA2M_EBK/src/tensorflow_lite/third_party/flatbuffers/include/flatbuffers\flatbuffers.h ****     buf_ = nullptr;
 794:C:/Renesas/e2studio_2021_01_workspace_RZA2M_ANPR/ANPR_RZA2M_EBK/src/tensorflow_lite/third_party/flatbuffers/include/flatbuffers\flatbuffers.h ****     reserved_ = 0;
 795:C:/Renesas/e2studio_2021_01_workspace_RZA2M_ANPR/ANPR_RZA2M_EBK/src/tensorflow_lite/third_party/flatbuffers/include/flatbuffers\flatbuffers.h ****     cur_ = nullptr;
 796:C:/Renesas/e2studio_2021_01_workspace_RZA2M_ANPR/ANPR_RZA2M_EBK/src/tensorflow_lite/third_party/flatbuffers/include/flatbuffers\flatbuffers.h ****     size_ = 0;
 797:C:/Renesas/e2studio_2021_01_workspace_RZA2M_ANPR/ANPR_RZA2M_EBK/src/tensorflow_lite/third_party/flatbuffers/include/flatbuffers\flatbuffers.h ****   }
 798:C:/Renesas/e2studio_2021_01_workspace_RZA2M_ANPR/ANPR_RZA2M_EBK/src/tensorflow_lite/third_party/flatbuffers/include/flatbuffers\flatbuffers.h **** };
 799:C:/Renesas/e2studio_2021_01_workspace_RZA2M_ANPR/ANPR_RZA2M_EBK/src/tensorflow_lite/third_party/flatbuffers/include/flatbuffers\flatbuffers.h **** 
 800:C:/Renesas/e2studio_2021_01_workspace_RZA2M_ANPR/ANPR_RZA2M_EBK/src/tensorflow_lite/third_party/flatbuffers/include/flatbuffers\flatbuffers.h **** // This is a minimal replication of std::vector<uint8_t> functionality,
 801:C:/Renesas/e2studio_2021_01_workspace_RZA2M_ANPR/ANPR_RZA2M_EBK/src/tensorflow_lite/third_party/flatbuffers/include/flatbuffers\flatbuffers.h **** // except growing from higher to lower addresses. i.e push_back() inserts data
 802:C:/Renesas/e2studio_2021_01_workspace_RZA2M_ANPR/ANPR_RZA2M_EBK/src/tensorflow_lite/third_party/flatbuffers/include/flatbuffers\flatbuffers.h **** // in the lowest address in the vector.
 803:C:/Renesas/e2studio_2021_01_workspace_RZA2M_ANPR/ANPR_RZA2M_EBK/src/tensorflow_lite/third_party/flatbuffers/include/flatbuffers\flatbuffers.h **** // Since this vector leaves the lower part unused, we support a "scratch-pad"
 804:C:/Renesas/e2studio_2021_01_workspace_RZA2M_ANPR/ANPR_RZA2M_EBK/src/tensorflow_lite/third_party/flatbuffers/include/flatbuffers\flatbuffers.h **** // that can be stored there for temporary data, to share the allocated space.
 805:C:/Renesas/e2studio_2021_01_workspace_RZA2M_ANPR/ANPR_RZA2M_EBK/src/tensorflow_lite/third_party/flatbuffers/include/flatbuffers\flatbuffers.h **** // Essentially, this supports 2 std::vectors in a single buffer.
 806:C:/Renesas/e2studio_2021_01_workspace_RZA2M_ANPR/ANPR_RZA2M_EBK/src/tensorflow_lite/third_party/flatbuffers/include/flatbuffers\flatbuffers.h **** class vector_downward {
 807:C:/Renesas/e2studio_2021_01_workspace_RZA2M_ANPR/ANPR_RZA2M_EBK/src/tensorflow_lite/third_party/flatbuffers/include/flatbuffers\flatbuffers.h ****  public:
 808:C:/Renesas/e2studio_2021_01_workspace_RZA2M_ANPR/ANPR_RZA2M_EBK/src/tensorflow_lite/third_party/flatbuffers/include/flatbuffers\flatbuffers.h ****   explicit vector_downward(size_t initial_size, Allocator *allocator,
 809:C:/Renesas/e2studio_2021_01_workspace_RZA2M_ANPR/ANPR_RZA2M_EBK/src/tensorflow_lite/third_party/flatbuffers/include/flatbuffers\flatbuffers.h ****                            bool own_allocator, size_t buffer_minalign)
 810:C:/Renesas/e2studio_2021_01_workspace_RZA2M_ANPR/ANPR_RZA2M_EBK/src/tensorflow_lite/third_party/flatbuffers/include/flatbuffers\flatbuffers.h ****       : allocator_(allocator),
 811:C:/Renesas/e2studio_2021_01_workspace_RZA2M_ANPR/ANPR_RZA2M_EBK/src/tensorflow_lite/third_party/flatbuffers/include/flatbuffers\flatbuffers.h ****         own_allocator_(own_allocator),
 812:C:/Renesas/e2studio_2021_01_workspace_RZA2M_ANPR/ANPR_RZA2M_EBK/src/tensorflow_lite/third_party/flatbuffers/include/flatbuffers\flatbuffers.h ****         initial_size_(initial_size),
 813:C:/Renesas/e2studio_2021_01_workspace_RZA2M_ANPR/ANPR_RZA2M_EBK/src/tensorflow_lite/third_party/flatbuffers/include/flatbuffers\flatbuffers.h ****         buffer_minalign_(buffer_minalign),
 814:C:/Renesas/e2studio_2021_01_workspace_RZA2M_ANPR/ANPR_RZA2M_EBK/src/tensorflow_lite/third_party/flatbuffers/include/flatbuffers\flatbuffers.h ****         reserved_(0),
 815:C:/Renesas/e2studio_2021_01_workspace_RZA2M_ANPR/ANPR_RZA2M_EBK/src/tensorflow_lite/third_party/flatbuffers/include/flatbuffers\flatbuffers.h ****         buf_(nullptr),
 816:C:/Renesas/e2studio_2021_01_workspace_RZA2M_ANPR/ANPR_RZA2M_EBK/src/tensorflow_lite/third_party/flatbuffers/include/flatbuffers\flatbuffers.h ****         cur_(nullptr),
 817:C:/Renesas/e2studio_2021_01_workspace_RZA2M_ANPR/ANPR_RZA2M_EBK/src/tensorflow_lite/third_party/flatbuffers/include/flatbuffers\flatbuffers.h ****         scratch_(nullptr) {}
 818:C:/Renesas/e2studio_2021_01_workspace_RZA2M_ANPR/ANPR_RZA2M_EBK/src/tensorflow_lite/third_party/flatbuffers/include/flatbuffers\flatbuffers.h **** 
 819:C:/Renesas/e2studio_2021_01_workspace_RZA2M_ANPR/ANPR_RZA2M_EBK/src/tensorflow_lite/third_party/flatbuffers/include/flatbuffers\flatbuffers.h ****   // clang-format off
 820:C:/Renesas/e2studio_2021_01_workspace_RZA2M_ANPR/ANPR_RZA2M_EBK/src/tensorflow_lite/third_party/flatbuffers/include/flatbuffers\flatbuffers.h ****   #if !defined(FLATBUFFERS_CPP98_STL)
 821:C:/Renesas/e2studio_2021_01_workspace_RZA2M_ANPR/ANPR_RZA2M_EBK/src/tensorflow_lite/third_party/flatbuffers/include/flatbuffers\flatbuffers.h ****   vector_downward(vector_downward &&other)
 822:C:/Renesas/e2studio_2021_01_workspace_RZA2M_ANPR/ANPR_RZA2M_EBK/src/tensorflow_lite/third_party/flatbuffers/include/flatbuffers\flatbuffers.h ****   #else
 823:C:/Renesas/e2studio_2021_01_workspace_RZA2M_ANPR/ANPR_RZA2M_EBK/src/tensorflow_lite/third_party/flatbuffers/include/flatbuffers\flatbuffers.h ****   vector_downward(vector_downward &other)
 824:C:/Renesas/e2studio_2021_01_workspace_RZA2M_ANPR/ANPR_RZA2M_EBK/src/tensorflow_lite/third_party/flatbuffers/include/flatbuffers\flatbuffers.h ****   #endif  // defined(FLATBUFFERS_CPP98_STL)
 825:C:/Renesas/e2studio_2021_01_workspace_RZA2M_ANPR/ANPR_RZA2M_EBK/src/tensorflow_lite/third_party/flatbuffers/include/flatbuffers\flatbuffers.h ****       // clang-format on
 826:C:/Renesas/e2studio_2021_01_workspace_RZA2M_ANPR/ANPR_RZA2M_EBK/src/tensorflow_lite/third_party/flatbuffers/include/flatbuffers\flatbuffers.h ****       : allocator_(other.allocator_),
 827:C:/Renesas/e2studio_2021_01_workspace_RZA2M_ANPR/ANPR_RZA2M_EBK/src/tensorflow_lite/third_party/flatbuffers/include/flatbuffers\flatbuffers.h ****         own_allocator_(other.own_allocator_),
 828:C:/Renesas/e2studio_2021_01_workspace_RZA2M_ANPR/ANPR_RZA2M_EBK/src/tensorflow_lite/third_party/flatbuffers/include/flatbuffers\flatbuffers.h ****         initial_size_(other.initial_size_),
 829:C:/Renesas/e2studio_2021_01_workspace_RZA2M_ANPR/ANPR_RZA2M_EBK/src/tensorflow_lite/third_party/flatbuffers/include/flatbuffers\flatbuffers.h ****         buffer_minalign_(other.buffer_minalign_),
 830:C:/Renesas/e2studio_2021_01_workspace_RZA2M_ANPR/ANPR_RZA2M_EBK/src/tensorflow_lite/third_party/flatbuffers/include/flatbuffers\flatbuffers.h ****         reserved_(other.reserved_),
 831:C:/Renesas/e2studio_2021_01_workspace_RZA2M_ANPR/ANPR_RZA2M_EBK/src/tensorflow_lite/third_party/flatbuffers/include/flatbuffers\flatbuffers.h ****         buf_(other.buf_),
 832:C:/Renesas/e2studio_2021_01_workspace_RZA2M_ANPR/ANPR_RZA2M_EBK/src/tensorflow_lite/third_party/flatbuffers/include/flatbuffers\flatbuffers.h ****         cur_(other.cur_),
 833:C:/Renesas/e2studio_2021_01_workspace_RZA2M_ANPR/ANPR_RZA2M_EBK/src/tensorflow_lite/third_party/flatbuffers/include/flatbuffers\flatbuffers.h ****         scratch_(other.scratch_) {
 834:C:/Renesas/e2studio_2021_01_workspace_RZA2M_ANPR/ANPR_RZA2M_EBK/src/tensorflow_lite/third_party/flatbuffers/include/flatbuffers\flatbuffers.h ****     // No change in other.allocator_
 835:C:/Renesas/e2studio_2021_01_workspace_RZA2M_ANPR/ANPR_RZA2M_EBK/src/tensorflow_lite/third_party/flatbuffers/include/flatbuffers\flatbuffers.h ****     // No change in other.initial_size_
 836:C:/Renesas/e2studio_2021_01_workspace_RZA2M_ANPR/ANPR_RZA2M_EBK/src/tensorflow_lite/third_party/flatbuffers/include/flatbuffers\flatbuffers.h ****     // No change in other.buffer_minalign_
 837:C:/Renesas/e2studio_2021_01_workspace_RZA2M_ANPR/ANPR_RZA2M_EBK/src/tensorflow_lite/third_party/flatbuffers/include/flatbuffers\flatbuffers.h ****     other.own_allocator_ = false;
 838:C:/Renesas/e2studio_2021_01_workspace_RZA2M_ANPR/ANPR_RZA2M_EBK/src/tensorflow_lite/third_party/flatbuffers/include/flatbuffers\flatbuffers.h ****     other.reserved_ = 0;
 839:C:/Renesas/e2studio_2021_01_workspace_RZA2M_ANPR/ANPR_RZA2M_EBK/src/tensorflow_lite/third_party/flatbuffers/include/flatbuffers\flatbuffers.h ****     other.buf_ = nullptr;
 840:C:/Renesas/e2studio_2021_01_workspace_RZA2M_ANPR/ANPR_RZA2M_EBK/src/tensorflow_lite/third_party/flatbuffers/include/flatbuffers\flatbuffers.h ****     other.cur_ = nullptr;
 841:C:/Renesas/e2studio_2021_01_workspace_RZA2M_ANPR/ANPR_RZA2M_EBK/src/tensorflow_lite/third_party/flatbuffers/include/flatbuffers\flatbuffers.h ****     other.scratch_ = nullptr;
 842:C:/Renesas/e2studio_2021_01_workspace_RZA2M_ANPR/ANPR_RZA2M_EBK/src/tensorflow_lite/third_party/flatbuffers/include/flatbuffers\flatbuffers.h ****   }
 843:C:/Renesas/e2studio_2021_01_workspace_RZA2M_ANPR/ANPR_RZA2M_EBK/src/tensorflow_lite/third_party/flatbuffers/include/flatbuffers\flatbuffers.h **** 
 844:C:/Renesas/e2studio_2021_01_workspace_RZA2M_ANPR/ANPR_RZA2M_EBK/src/tensorflow_lite/third_party/flatbuffers/include/flatbuffers\flatbuffers.h ****   // clang-format off
 845:C:/Renesas/e2studio_2021_01_workspace_RZA2M_ANPR/ANPR_RZA2M_EBK/src/tensorflow_lite/third_party/flatbuffers/include/flatbuffers\flatbuffers.h ****   #if !defined(FLATBUFFERS_CPP98_STL)
 846:C:/Renesas/e2studio_2021_01_workspace_RZA2M_ANPR/ANPR_RZA2M_EBK/src/tensorflow_lite/third_party/flatbuffers/include/flatbuffers\flatbuffers.h ****   // clang-format on
 847:C:/Renesas/e2studio_2021_01_workspace_RZA2M_ANPR/ANPR_RZA2M_EBK/src/tensorflow_lite/third_party/flatbuffers/include/flatbuffers\flatbuffers.h ****   vector_downward &operator=(vector_downward &&other) {
 848:C:/Renesas/e2studio_2021_01_workspace_RZA2M_ANPR/ANPR_RZA2M_EBK/src/tensorflow_lite/third_party/flatbuffers/include/flatbuffers\flatbuffers.h ****     // Move construct a temporary and swap idiom
 849:C:/Renesas/e2studio_2021_01_workspace_RZA2M_ANPR/ANPR_RZA2M_EBK/src/tensorflow_lite/third_party/flatbuffers/include/flatbuffers\flatbuffers.h ****     vector_downward temp(std::move(other));
 850:C:/Renesas/e2studio_2021_01_workspace_RZA2M_ANPR/ANPR_RZA2M_EBK/src/tensorflow_lite/third_party/flatbuffers/include/flatbuffers\flatbuffers.h ****     swap(temp);
 851:C:/Renesas/e2studio_2021_01_workspace_RZA2M_ANPR/ANPR_RZA2M_EBK/src/tensorflow_lite/third_party/flatbuffers/include/flatbuffers\flatbuffers.h ****     return *this;
 852:C:/Renesas/e2studio_2021_01_workspace_RZA2M_ANPR/ANPR_RZA2M_EBK/src/tensorflow_lite/third_party/flatbuffers/include/flatbuffers\flatbuffers.h ****   }
 853:C:/Renesas/e2studio_2021_01_workspace_RZA2M_ANPR/ANPR_RZA2M_EBK/src/tensorflow_lite/third_party/flatbuffers/include/flatbuffers\flatbuffers.h ****   // clang-format off
 854:C:/Renesas/e2studio_2021_01_workspace_RZA2M_ANPR/ANPR_RZA2M_EBK/src/tensorflow_lite/third_party/flatbuffers/include/flatbuffers\flatbuffers.h ****   #endif  // defined(FLATBUFFERS_CPP98_STL)
 855:C:/Renesas/e2studio_2021_01_workspace_RZA2M_ANPR/ANPR_RZA2M_EBK/src/tensorflow_lite/third_party/flatbuffers/include/flatbuffers\flatbuffers.h ****   // clang-format on
 856:C:/Renesas/e2studio_2021_01_workspace_RZA2M_ANPR/ANPR_RZA2M_EBK/src/tensorflow_lite/third_party/flatbuffers/include/flatbuffers\flatbuffers.h **** 
 857:C:/Renesas/e2studio_2021_01_workspace_RZA2M_ANPR/ANPR_RZA2M_EBK/src/tensorflow_lite/third_party/flatbuffers/include/flatbuffers\flatbuffers.h ****   ~vector_downward() {
 858:C:/Renesas/e2studio_2021_01_workspace_RZA2M_ANPR/ANPR_RZA2M_EBK/src/tensorflow_lite/third_party/flatbuffers/include/flatbuffers\flatbuffers.h ****     clear_buffer();
 859:C:/Renesas/e2studio_2021_01_workspace_RZA2M_ANPR/ANPR_RZA2M_EBK/src/tensorflow_lite/third_party/flatbuffers/include/flatbuffers\flatbuffers.h ****     clear_allocator();
 860:C:/Renesas/e2studio_2021_01_workspace_RZA2M_ANPR/ANPR_RZA2M_EBK/src/tensorflow_lite/third_party/flatbuffers/include/flatbuffers\flatbuffers.h ****   }
 861:C:/Renesas/e2studio_2021_01_workspace_RZA2M_ANPR/ANPR_RZA2M_EBK/src/tensorflow_lite/third_party/flatbuffers/include/flatbuffers\flatbuffers.h **** 
 862:C:/Renesas/e2studio_2021_01_workspace_RZA2M_ANPR/ANPR_RZA2M_EBK/src/tensorflow_lite/third_party/flatbuffers/include/flatbuffers\flatbuffers.h ****   void reset() {
 863:C:/Renesas/e2studio_2021_01_workspace_RZA2M_ANPR/ANPR_RZA2M_EBK/src/tensorflow_lite/third_party/flatbuffers/include/flatbuffers\flatbuffers.h ****     clear_buffer();
 864:C:/Renesas/e2studio_2021_01_workspace_RZA2M_ANPR/ANPR_RZA2M_EBK/src/tensorflow_lite/third_party/flatbuffers/include/flatbuffers\flatbuffers.h ****     clear();
 865:C:/Renesas/e2studio_2021_01_workspace_RZA2M_ANPR/ANPR_RZA2M_EBK/src/tensorflow_lite/third_party/flatbuffers/include/flatbuffers\flatbuffers.h ****   }
 866:C:/Renesas/e2studio_2021_01_workspace_RZA2M_ANPR/ANPR_RZA2M_EBK/src/tensorflow_lite/third_party/flatbuffers/include/flatbuffers\flatbuffers.h **** 
 867:C:/Renesas/e2studio_2021_01_workspace_RZA2M_ANPR/ANPR_RZA2M_EBK/src/tensorflow_lite/third_party/flatbuffers/include/flatbuffers\flatbuffers.h ****   void clear() {
 868:C:/Renesas/e2studio_2021_01_workspace_RZA2M_ANPR/ANPR_RZA2M_EBK/src/tensorflow_lite/third_party/flatbuffers/include/flatbuffers\flatbuffers.h ****     if (buf_) {
 869:C:/Renesas/e2studio_2021_01_workspace_RZA2M_ANPR/ANPR_RZA2M_EBK/src/tensorflow_lite/third_party/flatbuffers/include/flatbuffers\flatbuffers.h ****       cur_ = buf_ + reserved_;
 870:C:/Renesas/e2studio_2021_01_workspace_RZA2M_ANPR/ANPR_RZA2M_EBK/src/tensorflow_lite/third_party/flatbuffers/include/flatbuffers\flatbuffers.h ****     } else {
 871:C:/Renesas/e2studio_2021_01_workspace_RZA2M_ANPR/ANPR_RZA2M_EBK/src/tensorflow_lite/third_party/flatbuffers/include/flatbuffers\flatbuffers.h ****       reserved_ = 0;
 872:C:/Renesas/e2studio_2021_01_workspace_RZA2M_ANPR/ANPR_RZA2M_EBK/src/tensorflow_lite/third_party/flatbuffers/include/flatbuffers\flatbuffers.h ****       cur_ = nullptr;
 873:C:/Renesas/e2studio_2021_01_workspace_RZA2M_ANPR/ANPR_RZA2M_EBK/src/tensorflow_lite/third_party/flatbuffers/include/flatbuffers\flatbuffers.h ****     }
 874:C:/Renesas/e2studio_2021_01_workspace_RZA2M_ANPR/ANPR_RZA2M_EBK/src/tensorflow_lite/third_party/flatbuffers/include/flatbuffers\flatbuffers.h ****     clear_scratch();
 875:C:/Renesas/e2studio_2021_01_workspace_RZA2M_ANPR/ANPR_RZA2M_EBK/src/tensorflow_lite/third_party/flatbuffers/include/flatbuffers\flatbuffers.h ****   }
 876:C:/Renesas/e2studio_2021_01_workspace_RZA2M_ANPR/ANPR_RZA2M_EBK/src/tensorflow_lite/third_party/flatbuffers/include/flatbuffers\flatbuffers.h **** 
 877:C:/Renesas/e2studio_2021_01_workspace_RZA2M_ANPR/ANPR_RZA2M_EBK/src/tensorflow_lite/third_party/flatbuffers/include/flatbuffers\flatbuffers.h ****   void clear_scratch() { scratch_ = buf_; }
 878:C:/Renesas/e2studio_2021_01_workspace_RZA2M_ANPR/ANPR_RZA2M_EBK/src/tensorflow_lite/third_party/flatbuffers/include/flatbuffers\flatbuffers.h **** 
 879:C:/Renesas/e2studio_2021_01_workspace_RZA2M_ANPR/ANPR_RZA2M_EBK/src/tensorflow_lite/third_party/flatbuffers/include/flatbuffers\flatbuffers.h ****   void clear_allocator() {
 880:C:/Renesas/e2studio_2021_01_workspace_RZA2M_ANPR/ANPR_RZA2M_EBK/src/tensorflow_lite/third_party/flatbuffers/include/flatbuffers\flatbuffers.h ****     if (own_allocator_ && allocator_) { delete allocator_; }
 881:C:/Renesas/e2studio_2021_01_workspace_RZA2M_ANPR/ANPR_RZA2M_EBK/src/tensorflow_lite/third_party/flatbuffers/include/flatbuffers\flatbuffers.h ****     allocator_ = nullptr;
 882:C:/Renesas/e2studio_2021_01_workspace_RZA2M_ANPR/ANPR_RZA2M_EBK/src/tensorflow_lite/third_party/flatbuffers/include/flatbuffers\flatbuffers.h ****     own_allocator_ = false;
 883:C:/Renesas/e2studio_2021_01_workspace_RZA2M_ANPR/ANPR_RZA2M_EBK/src/tensorflow_lite/third_party/flatbuffers/include/flatbuffers\flatbuffers.h ****   }
 884:C:/Renesas/e2studio_2021_01_workspace_RZA2M_ANPR/ANPR_RZA2M_EBK/src/tensorflow_lite/third_party/flatbuffers/include/flatbuffers\flatbuffers.h **** 
 885:C:/Renesas/e2studio_2021_01_workspace_RZA2M_ANPR/ANPR_RZA2M_EBK/src/tensorflow_lite/third_party/flatbuffers/include/flatbuffers\flatbuffers.h ****   void clear_buffer() {
 886:C:/Renesas/e2studio_2021_01_workspace_RZA2M_ANPR/ANPR_RZA2M_EBK/src/tensorflow_lite/third_party/flatbuffers/include/flatbuffers\flatbuffers.h ****     if (buf_) Deallocate(allocator_, buf_, reserved_);
 887:C:/Renesas/e2studio_2021_01_workspace_RZA2M_ANPR/ANPR_RZA2M_EBK/src/tensorflow_lite/third_party/flatbuffers/include/flatbuffers\flatbuffers.h ****     buf_ = nullptr;
 888:C:/Renesas/e2studio_2021_01_workspace_RZA2M_ANPR/ANPR_RZA2M_EBK/src/tensorflow_lite/third_party/flatbuffers/include/flatbuffers\flatbuffers.h ****   }
 889:C:/Renesas/e2studio_2021_01_workspace_RZA2M_ANPR/ANPR_RZA2M_EBK/src/tensorflow_lite/third_party/flatbuffers/include/flatbuffers\flatbuffers.h **** 
 890:C:/Renesas/e2studio_2021_01_workspace_RZA2M_ANPR/ANPR_RZA2M_EBK/src/tensorflow_lite/third_party/flatbuffers/include/flatbuffers\flatbuffers.h ****   // Relinquish the pointer to the caller.
 891:C:/Renesas/e2studio_2021_01_workspace_RZA2M_ANPR/ANPR_RZA2M_EBK/src/tensorflow_lite/third_party/flatbuffers/include/flatbuffers\flatbuffers.h ****   uint8_t *release_raw(size_t &allocated_bytes, size_t &offset) {
 892:C:/Renesas/e2studio_2021_01_workspace_RZA2M_ANPR/ANPR_RZA2M_EBK/src/tensorflow_lite/third_party/flatbuffers/include/flatbuffers\flatbuffers.h ****     auto *buf = buf_;
 893:C:/Renesas/e2studio_2021_01_workspace_RZA2M_ANPR/ANPR_RZA2M_EBK/src/tensorflow_lite/third_party/flatbuffers/include/flatbuffers\flatbuffers.h ****     allocated_bytes = reserved_;
 894:C:/Renesas/e2studio_2021_01_workspace_RZA2M_ANPR/ANPR_RZA2M_EBK/src/tensorflow_lite/third_party/flatbuffers/include/flatbuffers\flatbuffers.h ****     offset = static_cast<size_t>(cur_ - buf_);
 895:C:/Renesas/e2studio_2021_01_workspace_RZA2M_ANPR/ANPR_RZA2M_EBK/src/tensorflow_lite/third_party/flatbuffers/include/flatbuffers\flatbuffers.h **** 
 896:C:/Renesas/e2studio_2021_01_workspace_RZA2M_ANPR/ANPR_RZA2M_EBK/src/tensorflow_lite/third_party/flatbuffers/include/flatbuffers\flatbuffers.h ****     // release_raw only relinquishes the buffer ownership.
 897:C:/Renesas/e2studio_2021_01_workspace_RZA2M_ANPR/ANPR_RZA2M_EBK/src/tensorflow_lite/third_party/flatbuffers/include/flatbuffers\flatbuffers.h ****     // Does not deallocate or reset the allocator. Destructor will do that.
 898:C:/Renesas/e2studio_2021_01_workspace_RZA2M_ANPR/ANPR_RZA2M_EBK/src/tensorflow_lite/third_party/flatbuffers/include/flatbuffers\flatbuffers.h ****     buf_ = nullptr;
 899:C:/Renesas/e2studio_2021_01_workspace_RZA2M_ANPR/ANPR_RZA2M_EBK/src/tensorflow_lite/third_party/flatbuffers/include/flatbuffers\flatbuffers.h ****     clear();
 900:C:/Renesas/e2studio_2021_01_workspace_RZA2M_ANPR/ANPR_RZA2M_EBK/src/tensorflow_lite/third_party/flatbuffers/include/flatbuffers\flatbuffers.h ****     return buf;
 901:C:/Renesas/e2studio_2021_01_workspace_RZA2M_ANPR/ANPR_RZA2M_EBK/src/tensorflow_lite/third_party/flatbuffers/include/flatbuffers\flatbuffers.h ****   }
 902:C:/Renesas/e2studio_2021_01_workspace_RZA2M_ANPR/ANPR_RZA2M_EBK/src/tensorflow_lite/third_party/flatbuffers/include/flatbuffers\flatbuffers.h **** 
 903:C:/Renesas/e2studio_2021_01_workspace_RZA2M_ANPR/ANPR_RZA2M_EBK/src/tensorflow_lite/third_party/flatbuffers/include/flatbuffers\flatbuffers.h ****   // Relinquish the pointer to the caller.
 904:C:/Renesas/e2studio_2021_01_workspace_RZA2M_ANPR/ANPR_RZA2M_EBK/src/tensorflow_lite/third_party/flatbuffers/include/flatbuffers\flatbuffers.h ****   DetachedBuffer release() {
 905:C:/Renesas/e2studio_2021_01_workspace_RZA2M_ANPR/ANPR_RZA2M_EBK/src/tensorflow_lite/third_party/flatbuffers/include/flatbuffers\flatbuffers.h ****     // allocator ownership (if any) is transferred to DetachedBuffer.
 906:C:/Renesas/e2studio_2021_01_workspace_RZA2M_ANPR/ANPR_RZA2M_EBK/src/tensorflow_lite/third_party/flatbuffers/include/flatbuffers\flatbuffers.h ****     DetachedBuffer fb(allocator_, own_allocator_, buf_, reserved_, cur_,
 907:C:/Renesas/e2studio_2021_01_workspace_RZA2M_ANPR/ANPR_RZA2M_EBK/src/tensorflow_lite/third_party/flatbuffers/include/flatbuffers\flatbuffers.h ****                       size());
 908:C:/Renesas/e2studio_2021_01_workspace_RZA2M_ANPR/ANPR_RZA2M_EBK/src/tensorflow_lite/third_party/flatbuffers/include/flatbuffers\flatbuffers.h ****     if (own_allocator_) {
 909:C:/Renesas/e2studio_2021_01_workspace_RZA2M_ANPR/ANPR_RZA2M_EBK/src/tensorflow_lite/third_party/flatbuffers/include/flatbuffers\flatbuffers.h ****       allocator_ = nullptr;
 910:C:/Renesas/e2studio_2021_01_workspace_RZA2M_ANPR/ANPR_RZA2M_EBK/src/tensorflow_lite/third_party/flatbuffers/include/flatbuffers\flatbuffers.h ****       own_allocator_ = false;
 911:C:/Renesas/e2studio_2021_01_workspace_RZA2M_ANPR/ANPR_RZA2M_EBK/src/tensorflow_lite/third_party/flatbuffers/include/flatbuffers\flatbuffers.h ****     }
 912:C:/Renesas/e2studio_2021_01_workspace_RZA2M_ANPR/ANPR_RZA2M_EBK/src/tensorflow_lite/third_party/flatbuffers/include/flatbuffers\flatbuffers.h ****     buf_ = nullptr;
 913:C:/Renesas/e2studio_2021_01_workspace_RZA2M_ANPR/ANPR_RZA2M_EBK/src/tensorflow_lite/third_party/flatbuffers/include/flatbuffers\flatbuffers.h ****     clear();
 914:C:/Renesas/e2studio_2021_01_workspace_RZA2M_ANPR/ANPR_RZA2M_EBK/src/tensorflow_lite/third_party/flatbuffers/include/flatbuffers\flatbuffers.h ****     return fb;
 915:C:/Renesas/e2studio_2021_01_workspace_RZA2M_ANPR/ANPR_RZA2M_EBK/src/tensorflow_lite/third_party/flatbuffers/include/flatbuffers\flatbuffers.h ****   }
 916:C:/Renesas/e2studio_2021_01_workspace_RZA2M_ANPR/ANPR_RZA2M_EBK/src/tensorflow_lite/third_party/flatbuffers/include/flatbuffers\flatbuffers.h **** 
 917:C:/Renesas/e2studio_2021_01_workspace_RZA2M_ANPR/ANPR_RZA2M_EBK/src/tensorflow_lite/third_party/flatbuffers/include/flatbuffers\flatbuffers.h ****   size_t ensure_space(size_t len) {
 918:C:/Renesas/e2studio_2021_01_workspace_RZA2M_ANPR/ANPR_RZA2M_EBK/src/tensorflow_lite/third_party/flatbuffers/include/flatbuffers\flatbuffers.h ****     FLATBUFFERS_ASSERT(cur_ >= scratch_ && scratch_ >= buf_);
 919:C:/Renesas/e2studio_2021_01_workspace_RZA2M_ANPR/ANPR_RZA2M_EBK/src/tensorflow_lite/third_party/flatbuffers/include/flatbuffers\flatbuffers.h ****     if (len > static_cast<size_t>(cur_ - scratch_)) { reallocate(len); }
 920:C:/Renesas/e2studio_2021_01_workspace_RZA2M_ANPR/ANPR_RZA2M_EBK/src/tensorflow_lite/third_party/flatbuffers/include/flatbuffers\flatbuffers.h ****     // Beyond this, signed offsets may not have enough range:
 921:C:/Renesas/e2studio_2021_01_workspace_RZA2M_ANPR/ANPR_RZA2M_EBK/src/tensorflow_lite/third_party/flatbuffers/include/flatbuffers\flatbuffers.h ****     // (FlatBuffers > 2GB not supported).
 922:C:/Renesas/e2studio_2021_01_workspace_RZA2M_ANPR/ANPR_RZA2M_EBK/src/tensorflow_lite/third_party/flatbuffers/include/flatbuffers\flatbuffers.h ****     FLATBUFFERS_ASSERT(size() < FLATBUFFERS_MAX_BUFFER_SIZE);
 923:C:/Renesas/e2studio_2021_01_workspace_RZA2M_ANPR/ANPR_RZA2M_EBK/src/tensorflow_lite/third_party/flatbuffers/include/flatbuffers\flatbuffers.h ****     return len;
 924:C:/Renesas/e2studio_2021_01_workspace_RZA2M_ANPR/ANPR_RZA2M_EBK/src/tensorflow_lite/third_party/flatbuffers/include/flatbuffers\flatbuffers.h ****   }
 925:C:/Renesas/e2studio_2021_01_workspace_RZA2M_ANPR/ANPR_RZA2M_EBK/src/tensorflow_lite/third_party/flatbuffers/include/flatbuffers\flatbuffers.h **** 
 926:C:/Renesas/e2studio_2021_01_workspace_RZA2M_ANPR/ANPR_RZA2M_EBK/src/tensorflow_lite/third_party/flatbuffers/include/flatbuffers\flatbuffers.h ****   inline uint8_t *make_space(size_t len) {
 927:C:/Renesas/e2studio_2021_01_workspace_RZA2M_ANPR/ANPR_RZA2M_EBK/src/tensorflow_lite/third_party/flatbuffers/include/flatbuffers\flatbuffers.h ****     size_t space = ensure_space(len);
 928:C:/Renesas/e2studio_2021_01_workspace_RZA2M_ANPR/ANPR_RZA2M_EBK/src/tensorflow_lite/third_party/flatbuffers/include/flatbuffers\flatbuffers.h ****     cur_ -= space;
 929:C:/Renesas/e2studio_2021_01_workspace_RZA2M_ANPR/ANPR_RZA2M_EBK/src/tensorflow_lite/third_party/flatbuffers/include/flatbuffers\flatbuffers.h ****     return cur_;
 930:C:/Renesas/e2studio_2021_01_workspace_RZA2M_ANPR/ANPR_RZA2M_EBK/src/tensorflow_lite/third_party/flatbuffers/include/flatbuffers\flatbuffers.h ****   }
 931:C:/Renesas/e2studio_2021_01_workspace_RZA2M_ANPR/ANPR_RZA2M_EBK/src/tensorflow_lite/third_party/flatbuffers/include/flatbuffers\flatbuffers.h **** 
 932:C:/Renesas/e2studio_2021_01_workspace_RZA2M_ANPR/ANPR_RZA2M_EBK/src/tensorflow_lite/third_party/flatbuffers/include/flatbuffers\flatbuffers.h ****   // Returns nullptr if using the DefaultAllocator.
 933:C:/Renesas/e2studio_2021_01_workspace_RZA2M_ANPR/ANPR_RZA2M_EBK/src/tensorflow_lite/third_party/flatbuffers/include/flatbuffers\flatbuffers.h ****   Allocator *get_custom_allocator() { return allocator_; }
 934:C:/Renesas/e2studio_2021_01_workspace_RZA2M_ANPR/ANPR_RZA2M_EBK/src/tensorflow_lite/third_party/flatbuffers/include/flatbuffers\flatbuffers.h **** 
 935:C:/Renesas/e2studio_2021_01_workspace_RZA2M_ANPR/ANPR_RZA2M_EBK/src/tensorflow_lite/third_party/flatbuffers/include/flatbuffers\flatbuffers.h ****   uoffset_t size() const {
 936:C:/Renesas/e2studio_2021_01_workspace_RZA2M_ANPR/ANPR_RZA2M_EBK/src/tensorflow_lite/third_party/flatbuffers/include/flatbuffers\flatbuffers.h ****     return static_cast<uoffset_t>(reserved_ - (cur_ - buf_));
 937:C:/Renesas/e2studio_2021_01_workspace_RZA2M_ANPR/ANPR_RZA2M_EBK/src/tensorflow_lite/third_party/flatbuffers/include/flatbuffers\flatbuffers.h ****   }
 938:C:/Renesas/e2studio_2021_01_workspace_RZA2M_ANPR/ANPR_RZA2M_EBK/src/tensorflow_lite/third_party/flatbuffers/include/flatbuffers\flatbuffers.h **** 
 939:C:/Renesas/e2studio_2021_01_workspace_RZA2M_ANPR/ANPR_RZA2M_EBK/src/tensorflow_lite/third_party/flatbuffers/include/flatbuffers\flatbuffers.h ****   uoffset_t scratch_size() const {
 940:C:/Renesas/e2studio_2021_01_workspace_RZA2M_ANPR/ANPR_RZA2M_EBK/src/tensorflow_lite/third_party/flatbuffers/include/flatbuffers\flatbuffers.h ****     return static_cast<uoffset_t>(scratch_ - buf_);
 941:C:/Renesas/e2studio_2021_01_workspace_RZA2M_ANPR/ANPR_RZA2M_EBK/src/tensorflow_lite/third_party/flatbuffers/include/flatbuffers\flatbuffers.h ****   }
 942:C:/Renesas/e2studio_2021_01_workspace_RZA2M_ANPR/ANPR_RZA2M_EBK/src/tensorflow_lite/third_party/flatbuffers/include/flatbuffers\flatbuffers.h **** 
 943:C:/Renesas/e2studio_2021_01_workspace_RZA2M_ANPR/ANPR_RZA2M_EBK/src/tensorflow_lite/third_party/flatbuffers/include/flatbuffers\flatbuffers.h ****   size_t capacity() const { return reserved_; }
 944:C:/Renesas/e2studio_2021_01_workspace_RZA2M_ANPR/ANPR_RZA2M_EBK/src/tensorflow_lite/third_party/flatbuffers/include/flatbuffers\flatbuffers.h **** 
 945:C:/Renesas/e2studio_2021_01_workspace_RZA2M_ANPR/ANPR_RZA2M_EBK/src/tensorflow_lite/third_party/flatbuffers/include/flatbuffers\flatbuffers.h ****   uint8_t *data() const {
 946:C:/Renesas/e2studio_2021_01_workspace_RZA2M_ANPR/ANPR_RZA2M_EBK/src/tensorflow_lite/third_party/flatbuffers/include/flatbuffers\flatbuffers.h ****     FLATBUFFERS_ASSERT(cur_);
 947:C:/Renesas/e2studio_2021_01_workspace_RZA2M_ANPR/ANPR_RZA2M_EBK/src/tensorflow_lite/third_party/flatbuffers/include/flatbuffers\flatbuffers.h ****     return cur_;
 948:C:/Renesas/e2studio_2021_01_workspace_RZA2M_ANPR/ANPR_RZA2M_EBK/src/tensorflow_lite/third_party/flatbuffers/include/flatbuffers\flatbuffers.h ****   }
 949:C:/Renesas/e2studio_2021_01_workspace_RZA2M_ANPR/ANPR_RZA2M_EBK/src/tensorflow_lite/third_party/flatbuffers/include/flatbuffers\flatbuffers.h **** 
 950:C:/Renesas/e2studio_2021_01_workspace_RZA2M_ANPR/ANPR_RZA2M_EBK/src/tensorflow_lite/third_party/flatbuffers/include/flatbuffers\flatbuffers.h ****   uint8_t *scratch_data() const {
 951:C:/Renesas/e2studio_2021_01_workspace_RZA2M_ANPR/ANPR_RZA2M_EBK/src/tensorflow_lite/third_party/flatbuffers/include/flatbuffers\flatbuffers.h ****     FLATBUFFERS_ASSERT(buf_);
 952:C:/Renesas/e2studio_2021_01_workspace_RZA2M_ANPR/ANPR_RZA2M_EBK/src/tensorflow_lite/third_party/flatbuffers/include/flatbuffers\flatbuffers.h ****     return buf_;
 953:C:/Renesas/e2studio_2021_01_workspace_RZA2M_ANPR/ANPR_RZA2M_EBK/src/tensorflow_lite/third_party/flatbuffers/include/flatbuffers\flatbuffers.h ****   }
 954:C:/Renesas/e2studio_2021_01_workspace_RZA2M_ANPR/ANPR_RZA2M_EBK/src/tensorflow_lite/third_party/flatbuffers/include/flatbuffers\flatbuffers.h **** 
 955:C:/Renesas/e2studio_2021_01_workspace_RZA2M_ANPR/ANPR_RZA2M_EBK/src/tensorflow_lite/third_party/flatbuffers/include/flatbuffers\flatbuffers.h ****   uint8_t *scratch_end() const {
 956:C:/Renesas/e2studio_2021_01_workspace_RZA2M_ANPR/ANPR_RZA2M_EBK/src/tensorflow_lite/third_party/flatbuffers/include/flatbuffers\flatbuffers.h ****     FLATBUFFERS_ASSERT(scratch_);
 957:C:/Renesas/e2studio_2021_01_workspace_RZA2M_ANPR/ANPR_RZA2M_EBK/src/tensorflow_lite/third_party/flatbuffers/include/flatbuffers\flatbuffers.h ****     return scratch_;
 958:C:/Renesas/e2studio_2021_01_workspace_RZA2M_ANPR/ANPR_RZA2M_EBK/src/tensorflow_lite/third_party/flatbuffers/include/flatbuffers\flatbuffers.h ****   }
 959:C:/Renesas/e2studio_2021_01_workspace_RZA2M_ANPR/ANPR_RZA2M_EBK/src/tensorflow_lite/third_party/flatbuffers/include/flatbuffers\flatbuffers.h **** 
 960:C:/Renesas/e2studio_2021_01_workspace_RZA2M_ANPR/ANPR_RZA2M_EBK/src/tensorflow_lite/third_party/flatbuffers/include/flatbuffers\flatbuffers.h ****   uint8_t *data_at(size_t offset) const { return buf_ + reserved_ - offset; }
 961:C:/Renesas/e2studio_2021_01_workspace_RZA2M_ANPR/ANPR_RZA2M_EBK/src/tensorflow_lite/third_party/flatbuffers/include/flatbuffers\flatbuffers.h **** 
 962:C:/Renesas/e2studio_2021_01_workspace_RZA2M_ANPR/ANPR_RZA2M_EBK/src/tensorflow_lite/third_party/flatbuffers/include/flatbuffers\flatbuffers.h ****   void push(const uint8_t *bytes, size_t num) {
 963:C:/Renesas/e2studio_2021_01_workspace_RZA2M_ANPR/ANPR_RZA2M_EBK/src/tensorflow_lite/third_party/flatbuffers/include/flatbuffers\flatbuffers.h ****     if (num > 0) { memcpy(make_space(num), bytes, num); }
 964:C:/Renesas/e2studio_2021_01_workspace_RZA2M_ANPR/ANPR_RZA2M_EBK/src/tensorflow_lite/third_party/flatbuffers/include/flatbuffers\flatbuffers.h ****   }
 965:C:/Renesas/e2studio_2021_01_workspace_RZA2M_ANPR/ANPR_RZA2M_EBK/src/tensorflow_lite/third_party/flatbuffers/include/flatbuffers\flatbuffers.h **** 
 966:C:/Renesas/e2studio_2021_01_workspace_RZA2M_ANPR/ANPR_RZA2M_EBK/src/tensorflow_lite/third_party/flatbuffers/include/flatbuffers\flatbuffers.h ****   // Specialized version of push() that avoids memcpy call for small data.
 967:C:/Renesas/e2studio_2021_01_workspace_RZA2M_ANPR/ANPR_RZA2M_EBK/src/tensorflow_lite/third_party/flatbuffers/include/flatbuffers\flatbuffers.h ****   template<typename T> void push_small(const T &little_endian_t) {
 968:C:/Renesas/e2studio_2021_01_workspace_RZA2M_ANPR/ANPR_RZA2M_EBK/src/tensorflow_lite/third_party/flatbuffers/include/flatbuffers\flatbuffers.h ****     make_space(sizeof(T));
 969:C:/Renesas/e2studio_2021_01_workspace_RZA2M_ANPR/ANPR_RZA2M_EBK/src/tensorflow_lite/third_party/flatbuffers/include/flatbuffers\flatbuffers.h ****     *reinterpret_cast<T *>(cur_) = little_endian_t;
 970:C:/Renesas/e2studio_2021_01_workspace_RZA2M_ANPR/ANPR_RZA2M_EBK/src/tensorflow_lite/third_party/flatbuffers/include/flatbuffers\flatbuffers.h ****   }
 971:C:/Renesas/e2studio_2021_01_workspace_RZA2M_ANPR/ANPR_RZA2M_EBK/src/tensorflow_lite/third_party/flatbuffers/include/flatbuffers\flatbuffers.h **** 
 972:C:/Renesas/e2studio_2021_01_workspace_RZA2M_ANPR/ANPR_RZA2M_EBK/src/tensorflow_lite/third_party/flatbuffers/include/flatbuffers\flatbuffers.h ****   template<typename T> void scratch_push_small(const T &t) {
 973:C:/Renesas/e2studio_2021_01_workspace_RZA2M_ANPR/ANPR_RZA2M_EBK/src/tensorflow_lite/third_party/flatbuffers/include/flatbuffers\flatbuffers.h ****     ensure_space(sizeof(T));
 974:C:/Renesas/e2studio_2021_01_workspace_RZA2M_ANPR/ANPR_RZA2M_EBK/src/tensorflow_lite/third_party/flatbuffers/include/flatbuffers\flatbuffers.h ****     *reinterpret_cast<T *>(scratch_) = t;
 975:C:/Renesas/e2studio_2021_01_workspace_RZA2M_ANPR/ANPR_RZA2M_EBK/src/tensorflow_lite/third_party/flatbuffers/include/flatbuffers\flatbuffers.h ****     scratch_ += sizeof(T);
 976:C:/Renesas/e2studio_2021_01_workspace_RZA2M_ANPR/ANPR_RZA2M_EBK/src/tensorflow_lite/third_party/flatbuffers/include/flatbuffers\flatbuffers.h ****   }
 977:C:/Renesas/e2studio_2021_01_workspace_RZA2M_ANPR/ANPR_RZA2M_EBK/src/tensorflow_lite/third_party/flatbuffers/include/flatbuffers\flatbuffers.h **** 
 978:C:/Renesas/e2studio_2021_01_workspace_RZA2M_ANPR/ANPR_RZA2M_EBK/src/tensorflow_lite/third_party/flatbuffers/include/flatbuffers\flatbuffers.h ****   // fill() is most frequently called with small byte counts (<= 4),
 979:C:/Renesas/e2studio_2021_01_workspace_RZA2M_ANPR/ANPR_RZA2M_EBK/src/tensorflow_lite/third_party/flatbuffers/include/flatbuffers\flatbuffers.h ****   // which is why we're using loops rather than calling memset.
 980:C:/Renesas/e2studio_2021_01_workspace_RZA2M_ANPR/ANPR_RZA2M_EBK/src/tensorflow_lite/third_party/flatbuffers/include/flatbuffers\flatbuffers.h ****   void fill(size_t zero_pad_bytes) {
 981:C:/Renesas/e2studio_2021_01_workspace_RZA2M_ANPR/ANPR_RZA2M_EBK/src/tensorflow_lite/third_party/flatbuffers/include/flatbuffers\flatbuffers.h ****     make_space(zero_pad_bytes);
 982:C:/Renesas/e2studio_2021_01_workspace_RZA2M_ANPR/ANPR_RZA2M_EBK/src/tensorflow_lite/third_party/flatbuffers/include/flatbuffers\flatbuffers.h ****     for (size_t i = 0; i < zero_pad_bytes; i++) cur_[i] = 0;
 983:C:/Renesas/e2studio_2021_01_workspace_RZA2M_ANPR/ANPR_RZA2M_EBK/src/tensorflow_lite/third_party/flatbuffers/include/flatbuffers\flatbuffers.h ****   }
 984:C:/Renesas/e2studio_2021_01_workspace_RZA2M_ANPR/ANPR_RZA2M_EBK/src/tensorflow_lite/third_party/flatbuffers/include/flatbuffers\flatbuffers.h **** 
 985:C:/Renesas/e2studio_2021_01_workspace_RZA2M_ANPR/ANPR_RZA2M_EBK/src/tensorflow_lite/third_party/flatbuffers/include/flatbuffers\flatbuffers.h ****   // Version for when we know the size is larger.
 986:C:/Renesas/e2studio_2021_01_workspace_RZA2M_ANPR/ANPR_RZA2M_EBK/src/tensorflow_lite/third_party/flatbuffers/include/flatbuffers\flatbuffers.h ****   // Precondition: zero_pad_bytes > 0
 987:C:/Renesas/e2studio_2021_01_workspace_RZA2M_ANPR/ANPR_RZA2M_EBK/src/tensorflow_lite/third_party/flatbuffers/include/flatbuffers\flatbuffers.h ****   void fill_big(size_t zero_pad_bytes) {
 988:C:/Renesas/e2studio_2021_01_workspace_RZA2M_ANPR/ANPR_RZA2M_EBK/src/tensorflow_lite/third_party/flatbuffers/include/flatbuffers\flatbuffers.h ****     memset(make_space(zero_pad_bytes), 0, zero_pad_bytes);
 989:C:/Renesas/e2studio_2021_01_workspace_RZA2M_ANPR/ANPR_RZA2M_EBK/src/tensorflow_lite/third_party/flatbuffers/include/flatbuffers\flatbuffers.h ****   }
 990:C:/Renesas/e2studio_2021_01_workspace_RZA2M_ANPR/ANPR_RZA2M_EBK/src/tensorflow_lite/third_party/flatbuffers/include/flatbuffers\flatbuffers.h **** 
 991:C:/Renesas/e2studio_2021_01_workspace_RZA2M_ANPR/ANPR_RZA2M_EBK/src/tensorflow_lite/third_party/flatbuffers/include/flatbuffers\flatbuffers.h ****   void pop(size_t bytes_to_remove) { cur_ += bytes_to_remove; }
 992:C:/Renesas/e2studio_2021_01_workspace_RZA2M_ANPR/ANPR_RZA2M_EBK/src/tensorflow_lite/third_party/flatbuffers/include/flatbuffers\flatbuffers.h ****   void scratch_pop(size_t bytes_to_remove) { scratch_ -= bytes_to_remove; }
 993:C:/Renesas/e2studio_2021_01_workspace_RZA2M_ANPR/ANPR_RZA2M_EBK/src/tensorflow_lite/third_party/flatbuffers/include/flatbuffers\flatbuffers.h **** 
 994:C:/Renesas/e2studio_2021_01_workspace_RZA2M_ANPR/ANPR_RZA2M_EBK/src/tensorflow_lite/third_party/flatbuffers/include/flatbuffers\flatbuffers.h ****   void swap(vector_downward &other) {
 995:C:/Renesas/e2studio_2021_01_workspace_RZA2M_ANPR/ANPR_RZA2M_EBK/src/tensorflow_lite/third_party/flatbuffers/include/flatbuffers\flatbuffers.h ****     using std::swap;
 996:C:/Renesas/e2studio_2021_01_workspace_RZA2M_ANPR/ANPR_RZA2M_EBK/src/tensorflow_lite/third_party/flatbuffers/include/flatbuffers\flatbuffers.h ****     swap(allocator_, other.allocator_);
 997:C:/Renesas/e2studio_2021_01_workspace_RZA2M_ANPR/ANPR_RZA2M_EBK/src/tensorflow_lite/third_party/flatbuffers/include/flatbuffers\flatbuffers.h ****     swap(own_allocator_, other.own_allocator_);
 998:C:/Renesas/e2studio_2021_01_workspace_RZA2M_ANPR/ANPR_RZA2M_EBK/src/tensorflow_lite/third_party/flatbuffers/include/flatbuffers\flatbuffers.h ****     swap(initial_size_, other.initial_size_);
 999:C:/Renesas/e2studio_2021_01_workspace_RZA2M_ANPR/ANPR_RZA2M_EBK/src/tensorflow_lite/third_party/flatbuffers/include/flatbuffers\flatbuffers.h ****     swap(buffer_minalign_, other.buffer_minalign_);
1000:C:/Renesas/e2studio_2021_01_workspace_RZA2M_ANPR/ANPR_RZA2M_EBK/src/tensorflow_lite/third_party/flatbuffers/include/flatbuffers\flatbuffers.h ****     swap(reserved_, other.reserved_);
1001:C:/Renesas/e2studio_2021_01_workspace_RZA2M_ANPR/ANPR_RZA2M_EBK/src/tensorflow_lite/third_party/flatbuffers/include/flatbuffers\flatbuffers.h ****     swap(buf_, other.buf_);
1002:C:/Renesas/e2studio_2021_01_workspace_RZA2M_ANPR/ANPR_RZA2M_EBK/src/tensorflow_lite/third_party/flatbuffers/include/flatbuffers\flatbuffers.h ****     swap(cur_, other.cur_);
1003:C:/Renesas/e2studio_2021_01_workspace_RZA2M_ANPR/ANPR_RZA2M_EBK/src/tensorflow_lite/third_party/flatbuffers/include/flatbuffers\flatbuffers.h ****     swap(scratch_, other.scratch_);
1004:C:/Renesas/e2studio_2021_01_workspace_RZA2M_ANPR/ANPR_RZA2M_EBK/src/tensorflow_lite/third_party/flatbuffers/include/flatbuffers\flatbuffers.h ****   }
1005:C:/Renesas/e2studio_2021_01_workspace_RZA2M_ANPR/ANPR_RZA2M_EBK/src/tensorflow_lite/third_party/flatbuffers/include/flatbuffers\flatbuffers.h **** 
1006:C:/Renesas/e2studio_2021_01_workspace_RZA2M_ANPR/ANPR_RZA2M_EBK/src/tensorflow_lite/third_party/flatbuffers/include/flatbuffers\flatbuffers.h ****   void swap_allocator(vector_downward &other) {
1007:C:/Renesas/e2studio_2021_01_workspace_RZA2M_ANPR/ANPR_RZA2M_EBK/src/tensorflow_lite/third_party/flatbuffers/include/flatbuffers\flatbuffers.h ****     using std::swap;
1008:C:/Renesas/e2studio_2021_01_workspace_RZA2M_ANPR/ANPR_RZA2M_EBK/src/tensorflow_lite/third_party/flatbuffers/include/flatbuffers\flatbuffers.h ****     swap(allocator_, other.allocator_);
1009:C:/Renesas/e2studio_2021_01_workspace_RZA2M_ANPR/ANPR_RZA2M_EBK/src/tensorflow_lite/third_party/flatbuffers/include/flatbuffers\flatbuffers.h ****     swap(own_allocator_, other.own_allocator_);
1010:C:/Renesas/e2studio_2021_01_workspace_RZA2M_ANPR/ANPR_RZA2M_EBK/src/tensorflow_lite/third_party/flatbuffers/include/flatbuffers\flatbuffers.h ****   }
1011:C:/Renesas/e2studio_2021_01_workspace_RZA2M_ANPR/ANPR_RZA2M_EBK/src/tensorflow_lite/third_party/flatbuffers/include/flatbuffers\flatbuffers.h **** 
1012:C:/Renesas/e2studio_2021_01_workspace_RZA2M_ANPR/ANPR_RZA2M_EBK/src/tensorflow_lite/third_party/flatbuffers/include/flatbuffers\flatbuffers.h ****  private:
1013:C:/Renesas/e2studio_2021_01_workspace_RZA2M_ANPR/ANPR_RZA2M_EBK/src/tensorflow_lite/third_party/flatbuffers/include/flatbuffers\flatbuffers.h ****   // You shouldn't really be copying instances of this class.
1014:C:/Renesas/e2studio_2021_01_workspace_RZA2M_ANPR/ANPR_RZA2M_EBK/src/tensorflow_lite/third_party/flatbuffers/include/flatbuffers\flatbuffers.h ****   FLATBUFFERS_DELETE_FUNC(vector_downward(const vector_downward &))
1015:C:/Renesas/e2studio_2021_01_workspace_RZA2M_ANPR/ANPR_RZA2M_EBK/src/tensorflow_lite/third_party/flatbuffers/include/flatbuffers\flatbuffers.h ****   FLATBUFFERS_DELETE_FUNC(vector_downward &operator=(const vector_downward &))
1016:C:/Renesas/e2studio_2021_01_workspace_RZA2M_ANPR/ANPR_RZA2M_EBK/src/tensorflow_lite/third_party/flatbuffers/include/flatbuffers\flatbuffers.h **** 
1017:C:/Renesas/e2studio_2021_01_workspace_RZA2M_ANPR/ANPR_RZA2M_EBK/src/tensorflow_lite/third_party/flatbuffers/include/flatbuffers\flatbuffers.h ****   Allocator *allocator_;
1018:C:/Renesas/e2studio_2021_01_workspace_RZA2M_ANPR/ANPR_RZA2M_EBK/src/tensorflow_lite/third_party/flatbuffers/include/flatbuffers\flatbuffers.h ****   bool own_allocator_;
1019:C:/Renesas/e2studio_2021_01_workspace_RZA2M_ANPR/ANPR_RZA2M_EBK/src/tensorflow_lite/third_party/flatbuffers/include/flatbuffers\flatbuffers.h ****   size_t initial_size_;
1020:C:/Renesas/e2studio_2021_01_workspace_RZA2M_ANPR/ANPR_RZA2M_EBK/src/tensorflow_lite/third_party/flatbuffers/include/flatbuffers\flatbuffers.h ****   size_t buffer_minalign_;
1021:C:/Renesas/e2studio_2021_01_workspace_RZA2M_ANPR/ANPR_RZA2M_EBK/src/tensorflow_lite/third_party/flatbuffers/include/flatbuffers\flatbuffers.h ****   size_t reserved_;
1022:C:/Renesas/e2studio_2021_01_workspace_RZA2M_ANPR/ANPR_RZA2M_EBK/src/tensorflow_lite/third_party/flatbuffers/include/flatbuffers\flatbuffers.h ****   uint8_t *buf_;
1023:C:/Renesas/e2studio_2021_01_workspace_RZA2M_ANPR/ANPR_RZA2M_EBK/src/tensorflow_lite/third_party/flatbuffers/include/flatbuffers\flatbuffers.h ****   uint8_t *cur_;  // Points at location between empty (below) and used (above).
1024:C:/Renesas/e2studio_2021_01_workspace_RZA2M_ANPR/ANPR_RZA2M_EBK/src/tensorflow_lite/third_party/flatbuffers/include/flatbuffers\flatbuffers.h ****   uint8_t *scratch_;  // Points to the end of the scratchpad in use.
1025:C:/Renesas/e2studio_2021_01_workspace_RZA2M_ANPR/ANPR_RZA2M_EBK/src/tensorflow_lite/third_party/flatbuffers/include/flatbuffers\flatbuffers.h **** 
1026:C:/Renesas/e2studio_2021_01_workspace_RZA2M_ANPR/ANPR_RZA2M_EBK/src/tensorflow_lite/third_party/flatbuffers/include/flatbuffers\flatbuffers.h ****   void reallocate(size_t len) {
1027:C:/Renesas/e2studio_2021_01_workspace_RZA2M_ANPR/ANPR_RZA2M_EBK/src/tensorflow_lite/third_party/flatbuffers/include/flatbuffers\flatbuffers.h ****     auto old_reserved = reserved_;
1028:C:/Renesas/e2studio_2021_01_workspace_RZA2M_ANPR/ANPR_RZA2M_EBK/src/tensorflow_lite/third_party/flatbuffers/include/flatbuffers\flatbuffers.h ****     auto old_size = size();
1029:C:/Renesas/e2studio_2021_01_workspace_RZA2M_ANPR/ANPR_RZA2M_EBK/src/tensorflow_lite/third_party/flatbuffers/include/flatbuffers\flatbuffers.h ****     auto old_scratch_size = scratch_size();
1030:C:/Renesas/e2studio_2021_01_workspace_RZA2M_ANPR/ANPR_RZA2M_EBK/src/tensorflow_lite/third_party/flatbuffers/include/flatbuffers\flatbuffers.h ****     reserved_ +=
1031:C:/Renesas/e2studio_2021_01_workspace_RZA2M_ANPR/ANPR_RZA2M_EBK/src/tensorflow_lite/third_party/flatbuffers/include/flatbuffers\flatbuffers.h ****         (std::max)(len, old_reserved ? old_reserved / 2 : initial_size_);
1032:C:/Renesas/e2studio_2021_01_workspace_RZA2M_ANPR/ANPR_RZA2M_EBK/src/tensorflow_lite/third_party/flatbuffers/include/flatbuffers\flatbuffers.h ****     reserved_ = (reserved_ + buffer_minalign_ - 1) & ~(buffer_minalign_ - 1);
1033:C:/Renesas/e2studio_2021_01_workspace_RZA2M_ANPR/ANPR_RZA2M_EBK/src/tensorflow_lite/third_party/flatbuffers/include/flatbuffers\flatbuffers.h ****     if (buf_) {
1034:C:/Renesas/e2studio_2021_01_workspace_RZA2M_ANPR/ANPR_RZA2M_EBK/src/tensorflow_lite/third_party/flatbuffers/include/flatbuffers\flatbuffers.h ****       buf_ = ReallocateDownward(allocator_, buf_, old_reserved, reserved_,
1035:C:/Renesas/e2studio_2021_01_workspace_RZA2M_ANPR/ANPR_RZA2M_EBK/src/tensorflow_lite/third_party/flatbuffers/include/flatbuffers\flatbuffers.h ****                                 old_size, old_scratch_size);
1036:C:/Renesas/e2studio_2021_01_workspace_RZA2M_ANPR/ANPR_RZA2M_EBK/src/tensorflow_lite/third_party/flatbuffers/include/flatbuffers\flatbuffers.h ****     } else {
1037:C:/Renesas/e2studio_2021_01_workspace_RZA2M_ANPR/ANPR_RZA2M_EBK/src/tensorflow_lite/third_party/flatbuffers/include/flatbuffers\flatbuffers.h ****       buf_ = Allocate(allocator_, reserved_);
1038:C:/Renesas/e2studio_2021_01_workspace_RZA2M_ANPR/ANPR_RZA2M_EBK/src/tensorflow_lite/third_party/flatbuffers/include/flatbuffers\flatbuffers.h ****     }
1039:C:/Renesas/e2studio_2021_01_workspace_RZA2M_ANPR/ANPR_RZA2M_EBK/src/tensorflow_lite/third_party/flatbuffers/include/flatbuffers\flatbuffers.h ****     cur_ = buf_ + reserved_ - old_size;
1040:C:/Renesas/e2studio_2021_01_workspace_RZA2M_ANPR/ANPR_RZA2M_EBK/src/tensorflow_lite/third_party/flatbuffers/include/flatbuffers\flatbuffers.h ****     scratch_ = buf_ + old_scratch_size;
1041:C:/Renesas/e2studio_2021_01_workspace_RZA2M_ANPR/ANPR_RZA2M_EBK/src/tensorflow_lite/third_party/flatbuffers/include/flatbuffers\flatbuffers.h ****   }
1042:C:/Renesas/e2studio_2021_01_workspace_RZA2M_ANPR/ANPR_RZA2M_EBK/src/tensorflow_lite/third_party/flatbuffers/include/flatbuffers\flatbuffers.h **** };
1043:C:/Renesas/e2studio_2021_01_workspace_RZA2M_ANPR/ANPR_RZA2M_EBK/src/tensorflow_lite/third_party/flatbuffers/include/flatbuffers\flatbuffers.h **** 
1044:C:/Renesas/e2studio_2021_01_workspace_RZA2M_ANPR/ANPR_RZA2M_EBK/src/tensorflow_lite/third_party/flatbuffers/include/flatbuffers\flatbuffers.h **** // Converts a Field ID to a virtual table offset.
1045:C:/Renesas/e2studio_2021_01_workspace_RZA2M_ANPR/ANPR_RZA2M_EBK/src/tensorflow_lite/third_party/flatbuffers/include/flatbuffers\flatbuffers.h **** inline voffset_t FieldIndexToOffset(voffset_t field_id) {
1046:C:/Renesas/e2studio_2021_01_workspace_RZA2M_ANPR/ANPR_RZA2M_EBK/src/tensorflow_lite/third_party/flatbuffers/include/flatbuffers\flatbuffers.h ****   // Should correspond to what EndTable() below builds up.
1047:C:/Renesas/e2studio_2021_01_workspace_RZA2M_ANPR/ANPR_RZA2M_EBK/src/tensorflow_lite/third_party/flatbuffers/include/flatbuffers\flatbuffers.h ****   const int fixed_fields = 2;  // Vtable size and Object Size.
1048:C:/Renesas/e2studio_2021_01_workspace_RZA2M_ANPR/ANPR_RZA2M_EBK/src/tensorflow_lite/third_party/flatbuffers/include/flatbuffers\flatbuffers.h ****   return static_cast<voffset_t>((field_id + fixed_fields) * sizeof(voffset_t));
1049:C:/Renesas/e2studio_2021_01_workspace_RZA2M_ANPR/ANPR_RZA2M_EBK/src/tensorflow_lite/third_party/flatbuffers/include/flatbuffers\flatbuffers.h **** }
1050:C:/Renesas/e2studio_2021_01_workspace_RZA2M_ANPR/ANPR_RZA2M_EBK/src/tensorflow_lite/third_party/flatbuffers/include/flatbuffers\flatbuffers.h **** 
1051:C:/Renesas/e2studio_2021_01_workspace_RZA2M_ANPR/ANPR_RZA2M_EBK/src/tensorflow_lite/third_party/flatbuffers/include/flatbuffers\flatbuffers.h **** template<typename T, typename Alloc>
1052:C:/Renesas/e2studio_2021_01_workspace_RZA2M_ANPR/ANPR_RZA2M_EBK/src/tensorflow_lite/third_party/flatbuffers/include/flatbuffers\flatbuffers.h **** const T *data(const std::vector<T, Alloc> &v) {
1053:C:/Renesas/e2studio_2021_01_workspace_RZA2M_ANPR/ANPR_RZA2M_EBK/src/tensorflow_lite/third_party/flatbuffers/include/flatbuffers\flatbuffers.h ****   // Eventually the returned pointer gets passed down to memcpy, so
1054:C:/Renesas/e2studio_2021_01_workspace_RZA2M_ANPR/ANPR_RZA2M_EBK/src/tensorflow_lite/third_party/flatbuffers/include/flatbuffers\flatbuffers.h ****   // we need it to be non-null to avoid undefined behavior.
1055:C:/Renesas/e2studio_2021_01_workspace_RZA2M_ANPR/ANPR_RZA2M_EBK/src/tensorflow_lite/third_party/flatbuffers/include/flatbuffers\flatbuffers.h ****   static uint8_t t;
1056:C:/Renesas/e2studio_2021_01_workspace_RZA2M_ANPR/ANPR_RZA2M_EBK/src/tensorflow_lite/third_party/flatbuffers/include/flatbuffers\flatbuffers.h ****   return v.empty() ? reinterpret_cast<const T *>(&t) : &v.front();
1057:C:/Renesas/e2studio_2021_01_workspace_RZA2M_ANPR/ANPR_RZA2M_EBK/src/tensorflow_lite/third_party/flatbuffers/include/flatbuffers\flatbuffers.h **** }
1058:C:/Renesas/e2studio_2021_01_workspace_RZA2M_ANPR/ANPR_RZA2M_EBK/src/tensorflow_lite/third_party/flatbuffers/include/flatbuffers\flatbuffers.h **** template<typename T, typename Alloc> T *data(std::vector<T, Alloc> &v) {
1059:C:/Renesas/e2studio_2021_01_workspace_RZA2M_ANPR/ANPR_RZA2M_EBK/src/tensorflow_lite/third_party/flatbuffers/include/flatbuffers\flatbuffers.h ****   // Eventually the returned pointer gets passed down to memcpy, so
1060:C:/Renesas/e2studio_2021_01_workspace_RZA2M_ANPR/ANPR_RZA2M_EBK/src/tensorflow_lite/third_party/flatbuffers/include/flatbuffers\flatbuffers.h ****   // we need it to be non-null to avoid undefined behavior.
1061:C:/Renesas/e2studio_2021_01_workspace_RZA2M_ANPR/ANPR_RZA2M_EBK/src/tensorflow_lite/third_party/flatbuffers/include/flatbuffers\flatbuffers.h ****   static uint8_t t;
1062:C:/Renesas/e2studio_2021_01_workspace_RZA2M_ANPR/ANPR_RZA2M_EBK/src/tensorflow_lite/third_party/flatbuffers/include/flatbuffers\flatbuffers.h ****   return v.empty() ? reinterpret_cast<T *>(&t) : &v.front();
1063:C:/Renesas/e2studio_2021_01_workspace_RZA2M_ANPR/ANPR_RZA2M_EBK/src/tensorflow_lite/third_party/flatbuffers/include/flatbuffers\flatbuffers.h **** }
1064:C:/Renesas/e2studio_2021_01_workspace_RZA2M_ANPR/ANPR_RZA2M_EBK/src/tensorflow_lite/third_party/flatbuffers/include/flatbuffers\flatbuffers.h **** 
1065:C:/Renesas/e2studio_2021_01_workspace_RZA2M_ANPR/ANPR_RZA2M_EBK/src/tensorflow_lite/third_party/flatbuffers/include/flatbuffers\flatbuffers.h **** /// @endcond
1066:C:/Renesas/e2studio_2021_01_workspace_RZA2M_ANPR/ANPR_RZA2M_EBK/src/tensorflow_lite/third_party/flatbuffers/include/flatbuffers\flatbuffers.h **** 
1067:C:/Renesas/e2studio_2021_01_workspace_RZA2M_ANPR/ANPR_RZA2M_EBK/src/tensorflow_lite/third_party/flatbuffers/include/flatbuffers\flatbuffers.h **** /// @addtogroup flatbuffers_cpp_api
1068:C:/Renesas/e2studio_2021_01_workspace_RZA2M_ANPR/ANPR_RZA2M_EBK/src/tensorflow_lite/third_party/flatbuffers/include/flatbuffers\flatbuffers.h **** /// @{
1069:C:/Renesas/e2studio_2021_01_workspace_RZA2M_ANPR/ANPR_RZA2M_EBK/src/tensorflow_lite/third_party/flatbuffers/include/flatbuffers\flatbuffers.h **** /// @class FlatBufferBuilder
1070:C:/Renesas/e2studio_2021_01_workspace_RZA2M_ANPR/ANPR_RZA2M_EBK/src/tensorflow_lite/third_party/flatbuffers/include/flatbuffers\flatbuffers.h **** /// @brief Helper class to hold data needed in creation of a FlatBuffer.
1071:C:/Renesas/e2studio_2021_01_workspace_RZA2M_ANPR/ANPR_RZA2M_EBK/src/tensorflow_lite/third_party/flatbuffers/include/flatbuffers\flatbuffers.h **** /// To serialize data, you typically call one of the `Create*()` functions in
1072:C:/Renesas/e2studio_2021_01_workspace_RZA2M_ANPR/ANPR_RZA2M_EBK/src/tensorflow_lite/third_party/flatbuffers/include/flatbuffers\flatbuffers.h **** /// the generated code, which in turn call a sequence of `StartTable`/
1073:C:/Renesas/e2studio_2021_01_workspace_RZA2M_ANPR/ANPR_RZA2M_EBK/src/tensorflow_lite/third_party/flatbuffers/include/flatbuffers\flatbuffers.h **** /// `PushElement`/`AddElement`/`EndTable`, or the builtin `CreateString`/
1074:C:/Renesas/e2studio_2021_01_workspace_RZA2M_ANPR/ANPR_RZA2M_EBK/src/tensorflow_lite/third_party/flatbuffers/include/flatbuffers\flatbuffers.h **** /// `CreateVector` functions. Do this is depth-first order to build up a tree to
1075:C:/Renesas/e2studio_2021_01_workspace_RZA2M_ANPR/ANPR_RZA2M_EBK/src/tensorflow_lite/third_party/flatbuffers/include/flatbuffers\flatbuffers.h **** /// the root. `Finish()` wraps up the buffer ready for transport.
1076:C:/Renesas/e2studio_2021_01_workspace_RZA2M_ANPR/ANPR_RZA2M_EBK/src/tensorflow_lite/third_party/flatbuffers/include/flatbuffers\flatbuffers.h **** class FlatBufferBuilder {
1077:C:/Renesas/e2studio_2021_01_workspace_RZA2M_ANPR/ANPR_RZA2M_EBK/src/tensorflow_lite/third_party/flatbuffers/include/flatbuffers\flatbuffers.h ****  public:
1078:C:/Renesas/e2studio_2021_01_workspace_RZA2M_ANPR/ANPR_RZA2M_EBK/src/tensorflow_lite/third_party/flatbuffers/include/flatbuffers\flatbuffers.h ****   /// @brief Default constructor for FlatBufferBuilder.
1079:C:/Renesas/e2studio_2021_01_workspace_RZA2M_ANPR/ANPR_RZA2M_EBK/src/tensorflow_lite/third_party/flatbuffers/include/flatbuffers\flatbuffers.h ****   /// @param[in] initial_size The initial size of the buffer, in bytes. Defaults
1080:C:/Renesas/e2studio_2021_01_workspace_RZA2M_ANPR/ANPR_RZA2M_EBK/src/tensorflow_lite/third_party/flatbuffers/include/flatbuffers\flatbuffers.h ****   /// to `1024`.
1081:C:/Renesas/e2studio_2021_01_workspace_RZA2M_ANPR/ANPR_RZA2M_EBK/src/tensorflow_lite/third_party/flatbuffers/include/flatbuffers\flatbuffers.h ****   /// @param[in] allocator An `Allocator` to use. If null will use
1082:C:/Renesas/e2studio_2021_01_workspace_RZA2M_ANPR/ANPR_RZA2M_EBK/src/tensorflow_lite/third_party/flatbuffers/include/flatbuffers\flatbuffers.h ****   /// `DefaultAllocator`.
1083:C:/Renesas/e2studio_2021_01_workspace_RZA2M_ANPR/ANPR_RZA2M_EBK/src/tensorflow_lite/third_party/flatbuffers/include/flatbuffers\flatbuffers.h ****   /// @param[in] own_allocator Whether the builder/vector should own the
1084:C:/Renesas/e2studio_2021_01_workspace_RZA2M_ANPR/ANPR_RZA2M_EBK/src/tensorflow_lite/third_party/flatbuffers/include/flatbuffers\flatbuffers.h ****   /// allocator. Defaults to / `false`.
1085:C:/Renesas/e2studio_2021_01_workspace_RZA2M_ANPR/ANPR_RZA2M_EBK/src/tensorflow_lite/third_party/flatbuffers/include/flatbuffers\flatbuffers.h ****   /// @param[in] buffer_minalign Force the buffer to be aligned to the given
1086:C:/Renesas/e2studio_2021_01_workspace_RZA2M_ANPR/ANPR_RZA2M_EBK/src/tensorflow_lite/third_party/flatbuffers/include/flatbuffers\flatbuffers.h ****   /// minimum alignment upon reallocation. Only needed if you intend to store
1087:C:/Renesas/e2studio_2021_01_workspace_RZA2M_ANPR/ANPR_RZA2M_EBK/src/tensorflow_lite/third_party/flatbuffers/include/flatbuffers\flatbuffers.h ****   /// types with custom alignment AND you wish to read the buffer in-place
1088:C:/Renesas/e2studio_2021_01_workspace_RZA2M_ANPR/ANPR_RZA2M_EBK/src/tensorflow_lite/third_party/flatbuffers/include/flatbuffers\flatbuffers.h ****   /// directly after creation.
1089:C:/Renesas/e2studio_2021_01_workspace_RZA2M_ANPR/ANPR_RZA2M_EBK/src/tensorflow_lite/third_party/flatbuffers/include/flatbuffers\flatbuffers.h ****   explicit FlatBufferBuilder(
1090:C:/Renesas/e2studio_2021_01_workspace_RZA2M_ANPR/ANPR_RZA2M_EBK/src/tensorflow_lite/third_party/flatbuffers/include/flatbuffers\flatbuffers.h ****       size_t initial_size = 1024, Allocator *allocator = nullptr,
1091:C:/Renesas/e2studio_2021_01_workspace_RZA2M_ANPR/ANPR_RZA2M_EBK/src/tensorflow_lite/third_party/flatbuffers/include/flatbuffers\flatbuffers.h ****       bool own_allocator = false,
1092:C:/Renesas/e2studio_2021_01_workspace_RZA2M_ANPR/ANPR_RZA2M_EBK/src/tensorflow_lite/third_party/flatbuffers/include/flatbuffers\flatbuffers.h ****       size_t buffer_minalign = AlignOf<largest_scalar_t>())
1093:C:/Renesas/e2studio_2021_01_workspace_RZA2M_ANPR/ANPR_RZA2M_EBK/src/tensorflow_lite/third_party/flatbuffers/include/flatbuffers\flatbuffers.h ****       : buf_(initial_size, allocator, own_allocator, buffer_minalign),
1094:C:/Renesas/e2studio_2021_01_workspace_RZA2M_ANPR/ANPR_RZA2M_EBK/src/tensorflow_lite/third_party/flatbuffers/include/flatbuffers\flatbuffers.h ****         num_field_loc(0),
1095:C:/Renesas/e2studio_2021_01_workspace_RZA2M_ANPR/ANPR_RZA2M_EBK/src/tensorflow_lite/third_party/flatbuffers/include/flatbuffers\flatbuffers.h ****         max_voffset_(0),
1096:C:/Renesas/e2studio_2021_01_workspace_RZA2M_ANPR/ANPR_RZA2M_EBK/src/tensorflow_lite/third_party/flatbuffers/include/flatbuffers\flatbuffers.h ****         nested(false),
1097:C:/Renesas/e2studio_2021_01_workspace_RZA2M_ANPR/ANPR_RZA2M_EBK/src/tensorflow_lite/third_party/flatbuffers/include/flatbuffers\flatbuffers.h ****         finished(false),
1098:C:/Renesas/e2studio_2021_01_workspace_RZA2M_ANPR/ANPR_RZA2M_EBK/src/tensorflow_lite/third_party/flatbuffers/include/flatbuffers\flatbuffers.h ****         minalign_(1),
1099:C:/Renesas/e2studio_2021_01_workspace_RZA2M_ANPR/ANPR_RZA2M_EBK/src/tensorflow_lite/third_party/flatbuffers/include/flatbuffers\flatbuffers.h ****         force_defaults_(false),
1100:C:/Renesas/e2studio_2021_01_workspace_RZA2M_ANPR/ANPR_RZA2M_EBK/src/tensorflow_lite/third_party/flatbuffers/include/flatbuffers\flatbuffers.h ****         dedup_vtables_(true),
1101:C:/Renesas/e2studio_2021_01_workspace_RZA2M_ANPR/ANPR_RZA2M_EBK/src/tensorflow_lite/third_party/flatbuffers/include/flatbuffers\flatbuffers.h ****         string_pool(nullptr) {
1102:C:/Renesas/e2studio_2021_01_workspace_RZA2M_ANPR/ANPR_RZA2M_EBK/src/tensorflow_lite/third_party/flatbuffers/include/flatbuffers\flatbuffers.h ****     EndianCheck();
1103:C:/Renesas/e2studio_2021_01_workspace_RZA2M_ANPR/ANPR_RZA2M_EBK/src/tensorflow_lite/third_party/flatbuffers/include/flatbuffers\flatbuffers.h ****   }
1104:C:/Renesas/e2studio_2021_01_workspace_RZA2M_ANPR/ANPR_RZA2M_EBK/src/tensorflow_lite/third_party/flatbuffers/include/flatbuffers\flatbuffers.h **** 
1105:C:/Renesas/e2studio_2021_01_workspace_RZA2M_ANPR/ANPR_RZA2M_EBK/src/tensorflow_lite/third_party/flatbuffers/include/flatbuffers\flatbuffers.h ****   // clang-format off
1106:C:/Renesas/e2studio_2021_01_workspace_RZA2M_ANPR/ANPR_RZA2M_EBK/src/tensorflow_lite/third_party/flatbuffers/include/flatbuffers\flatbuffers.h ****   /// @brief Move constructor for FlatBufferBuilder.
1107:C:/Renesas/e2studio_2021_01_workspace_RZA2M_ANPR/ANPR_RZA2M_EBK/src/tensorflow_lite/third_party/flatbuffers/include/flatbuffers\flatbuffers.h ****   #if !defined(FLATBUFFERS_CPP98_STL)
1108:C:/Renesas/e2studio_2021_01_workspace_RZA2M_ANPR/ANPR_RZA2M_EBK/src/tensorflow_lite/third_party/flatbuffers/include/flatbuffers\flatbuffers.h ****   FlatBufferBuilder(FlatBufferBuilder &&other)
1109:C:/Renesas/e2studio_2021_01_workspace_RZA2M_ANPR/ANPR_RZA2M_EBK/src/tensorflow_lite/third_party/flatbuffers/include/flatbuffers\flatbuffers.h ****   #else
1110:C:/Renesas/e2studio_2021_01_workspace_RZA2M_ANPR/ANPR_RZA2M_EBK/src/tensorflow_lite/third_party/flatbuffers/include/flatbuffers\flatbuffers.h ****   FlatBufferBuilder(FlatBufferBuilder &other)
1111:C:/Renesas/e2studio_2021_01_workspace_RZA2M_ANPR/ANPR_RZA2M_EBK/src/tensorflow_lite/third_party/flatbuffers/include/flatbuffers\flatbuffers.h ****   #endif  // #if !defined(FLATBUFFERS_CPP98_STL)
1112:C:/Renesas/e2studio_2021_01_workspace_RZA2M_ANPR/ANPR_RZA2M_EBK/src/tensorflow_lite/third_party/flatbuffers/include/flatbuffers\flatbuffers.h ****     : buf_(1024, nullptr, false, AlignOf<largest_scalar_t>()),
1113:C:/Renesas/e2studio_2021_01_workspace_RZA2M_ANPR/ANPR_RZA2M_EBK/src/tensorflow_lite/third_party/flatbuffers/include/flatbuffers\flatbuffers.h ****       num_field_loc(0),
1114:C:/Renesas/e2studio_2021_01_workspace_RZA2M_ANPR/ANPR_RZA2M_EBK/src/tensorflow_lite/third_party/flatbuffers/include/flatbuffers\flatbuffers.h ****       max_voffset_(0),
1115:C:/Renesas/e2studio_2021_01_workspace_RZA2M_ANPR/ANPR_RZA2M_EBK/src/tensorflow_lite/third_party/flatbuffers/include/flatbuffers\flatbuffers.h ****       nested(false),
1116:C:/Renesas/e2studio_2021_01_workspace_RZA2M_ANPR/ANPR_RZA2M_EBK/src/tensorflow_lite/third_party/flatbuffers/include/flatbuffers\flatbuffers.h ****       finished(false),
1117:C:/Renesas/e2studio_2021_01_workspace_RZA2M_ANPR/ANPR_RZA2M_EBK/src/tensorflow_lite/third_party/flatbuffers/include/flatbuffers\flatbuffers.h ****       minalign_(1),
1118:C:/Renesas/e2studio_2021_01_workspace_RZA2M_ANPR/ANPR_RZA2M_EBK/src/tensorflow_lite/third_party/flatbuffers/include/flatbuffers\flatbuffers.h ****       force_defaults_(false),
1119:C:/Renesas/e2studio_2021_01_workspace_RZA2M_ANPR/ANPR_RZA2M_EBK/src/tensorflow_lite/third_party/flatbuffers/include/flatbuffers\flatbuffers.h ****       dedup_vtables_(true),
1120:C:/Renesas/e2studio_2021_01_workspace_RZA2M_ANPR/ANPR_RZA2M_EBK/src/tensorflow_lite/third_party/flatbuffers/include/flatbuffers\flatbuffers.h ****       string_pool(nullptr) {
1121:C:/Renesas/e2studio_2021_01_workspace_RZA2M_ANPR/ANPR_RZA2M_EBK/src/tensorflow_lite/third_party/flatbuffers/include/flatbuffers\flatbuffers.h ****     EndianCheck();
1122:C:/Renesas/e2studio_2021_01_workspace_RZA2M_ANPR/ANPR_RZA2M_EBK/src/tensorflow_lite/third_party/flatbuffers/include/flatbuffers\flatbuffers.h ****     // Default construct and swap idiom.
1123:C:/Renesas/e2studio_2021_01_workspace_RZA2M_ANPR/ANPR_RZA2M_EBK/src/tensorflow_lite/third_party/flatbuffers/include/flatbuffers\flatbuffers.h ****     // Lack of delegating constructors in vs2010 makes it more verbose than needed.
1124:C:/Renesas/e2studio_2021_01_workspace_RZA2M_ANPR/ANPR_RZA2M_EBK/src/tensorflow_lite/third_party/flatbuffers/include/flatbuffers\flatbuffers.h ****     Swap(other);
1125:C:/Renesas/e2studio_2021_01_workspace_RZA2M_ANPR/ANPR_RZA2M_EBK/src/tensorflow_lite/third_party/flatbuffers/include/flatbuffers\flatbuffers.h ****   }
1126:C:/Renesas/e2studio_2021_01_workspace_RZA2M_ANPR/ANPR_RZA2M_EBK/src/tensorflow_lite/third_party/flatbuffers/include/flatbuffers\flatbuffers.h ****   // clang-format on
1127:C:/Renesas/e2studio_2021_01_workspace_RZA2M_ANPR/ANPR_RZA2M_EBK/src/tensorflow_lite/third_party/flatbuffers/include/flatbuffers\flatbuffers.h **** 
1128:C:/Renesas/e2studio_2021_01_workspace_RZA2M_ANPR/ANPR_RZA2M_EBK/src/tensorflow_lite/third_party/flatbuffers/include/flatbuffers\flatbuffers.h ****   // clang-format off
1129:C:/Renesas/e2studio_2021_01_workspace_RZA2M_ANPR/ANPR_RZA2M_EBK/src/tensorflow_lite/third_party/flatbuffers/include/flatbuffers\flatbuffers.h ****   #if !defined(FLATBUFFERS_CPP98_STL)
1130:C:/Renesas/e2studio_2021_01_workspace_RZA2M_ANPR/ANPR_RZA2M_EBK/src/tensorflow_lite/third_party/flatbuffers/include/flatbuffers\flatbuffers.h ****   // clang-format on
1131:C:/Renesas/e2studio_2021_01_workspace_RZA2M_ANPR/ANPR_RZA2M_EBK/src/tensorflow_lite/third_party/flatbuffers/include/flatbuffers\flatbuffers.h ****   /// @brief Move assignment operator for FlatBufferBuilder.
1132:C:/Renesas/e2studio_2021_01_workspace_RZA2M_ANPR/ANPR_RZA2M_EBK/src/tensorflow_lite/third_party/flatbuffers/include/flatbuffers\flatbuffers.h ****   FlatBufferBuilder &operator=(FlatBufferBuilder &&other) {
1133:C:/Renesas/e2studio_2021_01_workspace_RZA2M_ANPR/ANPR_RZA2M_EBK/src/tensorflow_lite/third_party/flatbuffers/include/flatbuffers\flatbuffers.h ****     // Move construct a temporary and swap idiom
1134:C:/Renesas/e2studio_2021_01_workspace_RZA2M_ANPR/ANPR_RZA2M_EBK/src/tensorflow_lite/third_party/flatbuffers/include/flatbuffers\flatbuffers.h ****     FlatBufferBuilder temp(std::move(other));
1135:C:/Renesas/e2studio_2021_01_workspace_RZA2M_ANPR/ANPR_RZA2M_EBK/src/tensorflow_lite/third_party/flatbuffers/include/flatbuffers\flatbuffers.h ****     Swap(temp);
1136:C:/Renesas/e2studio_2021_01_workspace_RZA2M_ANPR/ANPR_RZA2M_EBK/src/tensorflow_lite/third_party/flatbuffers/include/flatbuffers\flatbuffers.h ****     return *this;
1137:C:/Renesas/e2studio_2021_01_workspace_RZA2M_ANPR/ANPR_RZA2M_EBK/src/tensorflow_lite/third_party/flatbuffers/include/flatbuffers\flatbuffers.h ****   }
1138:C:/Renesas/e2studio_2021_01_workspace_RZA2M_ANPR/ANPR_RZA2M_EBK/src/tensorflow_lite/third_party/flatbuffers/include/flatbuffers\flatbuffers.h ****   // clang-format off
1139:C:/Renesas/e2studio_2021_01_workspace_RZA2M_ANPR/ANPR_RZA2M_EBK/src/tensorflow_lite/third_party/flatbuffers/include/flatbuffers\flatbuffers.h ****   #endif  // defined(FLATBUFFERS_CPP98_STL)
1140:C:/Renesas/e2studio_2021_01_workspace_RZA2M_ANPR/ANPR_RZA2M_EBK/src/tensorflow_lite/third_party/flatbuffers/include/flatbuffers\flatbuffers.h ****   // clang-format on
1141:C:/Renesas/e2studio_2021_01_workspace_RZA2M_ANPR/ANPR_RZA2M_EBK/src/tensorflow_lite/third_party/flatbuffers/include/flatbuffers\flatbuffers.h **** 
1142:C:/Renesas/e2studio_2021_01_workspace_RZA2M_ANPR/ANPR_RZA2M_EBK/src/tensorflow_lite/third_party/flatbuffers/include/flatbuffers\flatbuffers.h ****   void Swap(FlatBufferBuilder &other) {
1143:C:/Renesas/e2studio_2021_01_workspace_RZA2M_ANPR/ANPR_RZA2M_EBK/src/tensorflow_lite/third_party/flatbuffers/include/flatbuffers\flatbuffers.h ****     using std::swap;
1144:C:/Renesas/e2studio_2021_01_workspace_RZA2M_ANPR/ANPR_RZA2M_EBK/src/tensorflow_lite/third_party/flatbuffers/include/flatbuffers\flatbuffers.h ****     buf_.swap(other.buf_);
1145:C:/Renesas/e2studio_2021_01_workspace_RZA2M_ANPR/ANPR_RZA2M_EBK/src/tensorflow_lite/third_party/flatbuffers/include/flatbuffers\flatbuffers.h ****     swap(num_field_loc, other.num_field_loc);
1146:C:/Renesas/e2studio_2021_01_workspace_RZA2M_ANPR/ANPR_RZA2M_EBK/src/tensorflow_lite/third_party/flatbuffers/include/flatbuffers\flatbuffers.h ****     swap(max_voffset_, other.max_voffset_);
1147:C:/Renesas/e2studio_2021_01_workspace_RZA2M_ANPR/ANPR_RZA2M_EBK/src/tensorflow_lite/third_party/flatbuffers/include/flatbuffers\flatbuffers.h ****     swap(nested, other.nested);
1148:C:/Renesas/e2studio_2021_01_workspace_RZA2M_ANPR/ANPR_RZA2M_EBK/src/tensorflow_lite/third_party/flatbuffers/include/flatbuffers\flatbuffers.h ****     swap(finished, other.finished);
1149:C:/Renesas/e2studio_2021_01_workspace_RZA2M_ANPR/ANPR_RZA2M_EBK/src/tensorflow_lite/third_party/flatbuffers/include/flatbuffers\flatbuffers.h ****     swap(minalign_, other.minalign_);
1150:C:/Renesas/e2studio_2021_01_workspace_RZA2M_ANPR/ANPR_RZA2M_EBK/src/tensorflow_lite/third_party/flatbuffers/include/flatbuffers\flatbuffers.h ****     swap(force_defaults_, other.force_defaults_);
1151:C:/Renesas/e2studio_2021_01_workspace_RZA2M_ANPR/ANPR_RZA2M_EBK/src/tensorflow_lite/third_party/flatbuffers/include/flatbuffers\flatbuffers.h ****     swap(dedup_vtables_, other.dedup_vtables_);
1152:C:/Renesas/e2studio_2021_01_workspace_RZA2M_ANPR/ANPR_RZA2M_EBK/src/tensorflow_lite/third_party/flatbuffers/include/flatbuffers\flatbuffers.h ****     swap(string_pool, other.string_pool);
1153:C:/Renesas/e2studio_2021_01_workspace_RZA2M_ANPR/ANPR_RZA2M_EBK/src/tensorflow_lite/third_party/flatbuffers/include/flatbuffers\flatbuffers.h ****   }
1154:C:/Renesas/e2studio_2021_01_workspace_RZA2M_ANPR/ANPR_RZA2M_EBK/src/tensorflow_lite/third_party/flatbuffers/include/flatbuffers\flatbuffers.h **** 
1155:C:/Renesas/e2studio_2021_01_workspace_RZA2M_ANPR/ANPR_RZA2M_EBK/src/tensorflow_lite/third_party/flatbuffers/include/flatbuffers\flatbuffers.h ****   ~FlatBufferBuilder() {
1156:C:/Renesas/e2studio_2021_01_workspace_RZA2M_ANPR/ANPR_RZA2M_EBK/src/tensorflow_lite/third_party/flatbuffers/include/flatbuffers\flatbuffers.h ****     if (string_pool) delete string_pool;
1157:C:/Renesas/e2studio_2021_01_workspace_RZA2M_ANPR/ANPR_RZA2M_EBK/src/tensorflow_lite/third_party/flatbuffers/include/flatbuffers\flatbuffers.h ****   }
1158:C:/Renesas/e2studio_2021_01_workspace_RZA2M_ANPR/ANPR_RZA2M_EBK/src/tensorflow_lite/third_party/flatbuffers/include/flatbuffers\flatbuffers.h **** 
1159:C:/Renesas/e2studio_2021_01_workspace_RZA2M_ANPR/ANPR_RZA2M_EBK/src/tensorflow_lite/third_party/flatbuffers/include/flatbuffers\flatbuffers.h ****   void Reset() {
1160:C:/Renesas/e2studio_2021_01_workspace_RZA2M_ANPR/ANPR_RZA2M_EBK/src/tensorflow_lite/third_party/flatbuffers/include/flatbuffers\flatbuffers.h ****     Clear();       // clear builder state
1161:C:/Renesas/e2studio_2021_01_workspace_RZA2M_ANPR/ANPR_RZA2M_EBK/src/tensorflow_lite/third_party/flatbuffers/include/flatbuffers\flatbuffers.h ****     buf_.reset();  // deallocate buffer
1162:C:/Renesas/e2studio_2021_01_workspace_RZA2M_ANPR/ANPR_RZA2M_EBK/src/tensorflow_lite/third_party/flatbuffers/include/flatbuffers\flatbuffers.h ****   }
1163:C:/Renesas/e2studio_2021_01_workspace_RZA2M_ANPR/ANPR_RZA2M_EBK/src/tensorflow_lite/third_party/flatbuffers/include/flatbuffers\flatbuffers.h **** 
1164:C:/Renesas/e2studio_2021_01_workspace_RZA2M_ANPR/ANPR_RZA2M_EBK/src/tensorflow_lite/third_party/flatbuffers/include/flatbuffers\flatbuffers.h ****   /// @brief Reset all the state in this FlatBufferBuilder so it can be reused
1165:C:/Renesas/e2studio_2021_01_workspace_RZA2M_ANPR/ANPR_RZA2M_EBK/src/tensorflow_lite/third_party/flatbuffers/include/flatbuffers\flatbuffers.h ****   /// to construct another buffer.
1166:C:/Renesas/e2studio_2021_01_workspace_RZA2M_ANPR/ANPR_RZA2M_EBK/src/tensorflow_lite/third_party/flatbuffers/include/flatbuffers\flatbuffers.h ****   void Clear() {
1167:C:/Renesas/e2studio_2021_01_workspace_RZA2M_ANPR/ANPR_RZA2M_EBK/src/tensorflow_lite/third_party/flatbuffers/include/flatbuffers\flatbuffers.h ****     ClearOffsets();
1168:C:/Renesas/e2studio_2021_01_workspace_RZA2M_ANPR/ANPR_RZA2M_EBK/src/tensorflow_lite/third_party/flatbuffers/include/flatbuffers\flatbuffers.h ****     buf_.clear();
1169:C:/Renesas/e2studio_2021_01_workspace_RZA2M_ANPR/ANPR_RZA2M_EBK/src/tensorflow_lite/third_party/flatbuffers/include/flatbuffers\flatbuffers.h ****     nested = false;
1170:C:/Renesas/e2studio_2021_01_workspace_RZA2M_ANPR/ANPR_RZA2M_EBK/src/tensorflow_lite/third_party/flatbuffers/include/flatbuffers\flatbuffers.h ****     finished = false;
1171:C:/Renesas/e2studio_2021_01_workspace_RZA2M_ANPR/ANPR_RZA2M_EBK/src/tensorflow_lite/third_party/flatbuffers/include/flatbuffers\flatbuffers.h ****     minalign_ = 1;
1172:C:/Renesas/e2studio_2021_01_workspace_RZA2M_ANPR/ANPR_RZA2M_EBK/src/tensorflow_lite/third_party/flatbuffers/include/flatbuffers\flatbuffers.h ****     if (string_pool) string_pool->clear();
1173:C:/Renesas/e2studio_2021_01_workspace_RZA2M_ANPR/ANPR_RZA2M_EBK/src/tensorflow_lite/third_party/flatbuffers/include/flatbuffers\flatbuffers.h ****   }
1174:C:/Renesas/e2studio_2021_01_workspace_RZA2M_ANPR/ANPR_RZA2M_EBK/src/tensorflow_lite/third_party/flatbuffers/include/flatbuffers\flatbuffers.h **** 
1175:C:/Renesas/e2studio_2021_01_workspace_RZA2M_ANPR/ANPR_RZA2M_EBK/src/tensorflow_lite/third_party/flatbuffers/include/flatbuffers\flatbuffers.h ****   /// @brief The current size of the serialized buffer, counting from the end.
1176:C:/Renesas/e2studio_2021_01_workspace_RZA2M_ANPR/ANPR_RZA2M_EBK/src/tensorflow_lite/third_party/flatbuffers/include/flatbuffers\flatbuffers.h ****   /// @return Returns an `uoffset_t` with the current size of the buffer.
1177:C:/Renesas/e2studio_2021_01_workspace_RZA2M_ANPR/ANPR_RZA2M_EBK/src/tensorflow_lite/third_party/flatbuffers/include/flatbuffers\flatbuffers.h ****   uoffset_t GetSize() const { return buf_.size(); }
1178:C:/Renesas/e2studio_2021_01_workspace_RZA2M_ANPR/ANPR_RZA2M_EBK/src/tensorflow_lite/third_party/flatbuffers/include/flatbuffers\flatbuffers.h **** 
1179:C:/Renesas/e2studio_2021_01_workspace_RZA2M_ANPR/ANPR_RZA2M_EBK/src/tensorflow_lite/third_party/flatbuffers/include/flatbuffers\flatbuffers.h ****   /// @brief Get the serialized buffer (after you call `Finish()`).
1180:C:/Renesas/e2studio_2021_01_workspace_RZA2M_ANPR/ANPR_RZA2M_EBK/src/tensorflow_lite/third_party/flatbuffers/include/flatbuffers\flatbuffers.h ****   /// @return Returns an `uint8_t` pointer to the FlatBuffer data inside the
1181:C:/Renesas/e2studio_2021_01_workspace_RZA2M_ANPR/ANPR_RZA2M_EBK/src/tensorflow_lite/third_party/flatbuffers/include/flatbuffers\flatbuffers.h ****   /// buffer.
1182:C:/Renesas/e2studio_2021_01_workspace_RZA2M_ANPR/ANPR_RZA2M_EBK/src/tensorflow_lite/third_party/flatbuffers/include/flatbuffers\flatbuffers.h ****   uint8_t *GetBufferPointer() const {
1183:C:/Renesas/e2studio_2021_01_workspace_RZA2M_ANPR/ANPR_RZA2M_EBK/src/tensorflow_lite/third_party/flatbuffers/include/flatbuffers\flatbuffers.h ****     Finished();
1184:C:/Renesas/e2studio_2021_01_workspace_RZA2M_ANPR/ANPR_RZA2M_EBK/src/tensorflow_lite/third_party/flatbuffers/include/flatbuffers\flatbuffers.h ****     return buf_.data();
1185:C:/Renesas/e2studio_2021_01_workspace_RZA2M_ANPR/ANPR_RZA2M_EBK/src/tensorflow_lite/third_party/flatbuffers/include/flatbuffers\flatbuffers.h ****   }
1186:C:/Renesas/e2studio_2021_01_workspace_RZA2M_ANPR/ANPR_RZA2M_EBK/src/tensorflow_lite/third_party/flatbuffers/include/flatbuffers\flatbuffers.h **** 
1187:C:/Renesas/e2studio_2021_01_workspace_RZA2M_ANPR/ANPR_RZA2M_EBK/src/tensorflow_lite/third_party/flatbuffers/include/flatbuffers\flatbuffers.h ****   /// @brief Get a pointer to an unfinished buffer.
1188:C:/Renesas/e2studio_2021_01_workspace_RZA2M_ANPR/ANPR_RZA2M_EBK/src/tensorflow_lite/third_party/flatbuffers/include/flatbuffers\flatbuffers.h ****   /// @return Returns a `uint8_t` pointer to the unfinished buffer.
1189:C:/Renesas/e2studio_2021_01_workspace_RZA2M_ANPR/ANPR_RZA2M_EBK/src/tensorflow_lite/third_party/flatbuffers/include/flatbuffers\flatbuffers.h ****   uint8_t *GetCurrentBufferPointer() const { return buf_.data(); }
1190:C:/Renesas/e2studio_2021_01_workspace_RZA2M_ANPR/ANPR_RZA2M_EBK/src/tensorflow_lite/third_party/flatbuffers/include/flatbuffers\flatbuffers.h **** 
1191:C:/Renesas/e2studio_2021_01_workspace_RZA2M_ANPR/ANPR_RZA2M_EBK/src/tensorflow_lite/third_party/flatbuffers/include/flatbuffers\flatbuffers.h ****   /// @brief Get the released pointer to the serialized buffer.
1192:C:/Renesas/e2studio_2021_01_workspace_RZA2M_ANPR/ANPR_RZA2M_EBK/src/tensorflow_lite/third_party/flatbuffers/include/flatbuffers\flatbuffers.h ****   /// @warning Do NOT attempt to use this FlatBufferBuilder afterwards!
1193:C:/Renesas/e2studio_2021_01_workspace_RZA2M_ANPR/ANPR_RZA2M_EBK/src/tensorflow_lite/third_party/flatbuffers/include/flatbuffers\flatbuffers.h ****   /// @return A `FlatBuffer` that owns the buffer and its allocator and
1194:C:/Renesas/e2studio_2021_01_workspace_RZA2M_ANPR/ANPR_RZA2M_EBK/src/tensorflow_lite/third_party/flatbuffers/include/flatbuffers\flatbuffers.h ****   /// behaves similar to a `unique_ptr` with a deleter.
1195:C:/Renesas/e2studio_2021_01_workspace_RZA2M_ANPR/ANPR_RZA2M_EBK/src/tensorflow_lite/third_party/flatbuffers/include/flatbuffers\flatbuffers.h ****   FLATBUFFERS_ATTRIBUTE(deprecated("use Release() instead"))
1196:C:/Renesas/e2studio_2021_01_workspace_RZA2M_ANPR/ANPR_RZA2M_EBK/src/tensorflow_lite/third_party/flatbuffers/include/flatbuffers\flatbuffers.h ****   DetachedBuffer ReleaseBufferPointer() {
1197:C:/Renesas/e2studio_2021_01_workspace_RZA2M_ANPR/ANPR_RZA2M_EBK/src/tensorflow_lite/third_party/flatbuffers/include/flatbuffers\flatbuffers.h ****     Finished();
1198:C:/Renesas/e2studio_2021_01_workspace_RZA2M_ANPR/ANPR_RZA2M_EBK/src/tensorflow_lite/third_party/flatbuffers/include/flatbuffers\flatbuffers.h ****     return buf_.release();
1199:C:/Renesas/e2studio_2021_01_workspace_RZA2M_ANPR/ANPR_RZA2M_EBK/src/tensorflow_lite/third_party/flatbuffers/include/flatbuffers\flatbuffers.h ****   }
1200:C:/Renesas/e2studio_2021_01_workspace_RZA2M_ANPR/ANPR_RZA2M_EBK/src/tensorflow_lite/third_party/flatbuffers/include/flatbuffers\flatbuffers.h **** 
1201:C:/Renesas/e2studio_2021_01_workspace_RZA2M_ANPR/ANPR_RZA2M_EBK/src/tensorflow_lite/third_party/flatbuffers/include/flatbuffers\flatbuffers.h ****   /// @brief Get the released DetachedBuffer.
1202:C:/Renesas/e2studio_2021_01_workspace_RZA2M_ANPR/ANPR_RZA2M_EBK/src/tensorflow_lite/third_party/flatbuffers/include/flatbuffers\flatbuffers.h ****   /// @return A `DetachedBuffer` that owns the buffer and its allocator.
1203:C:/Renesas/e2studio_2021_01_workspace_RZA2M_ANPR/ANPR_RZA2M_EBK/src/tensorflow_lite/third_party/flatbuffers/include/flatbuffers\flatbuffers.h ****   DetachedBuffer Release() {
1204:C:/Renesas/e2studio_2021_01_workspace_RZA2M_ANPR/ANPR_RZA2M_EBK/src/tensorflow_lite/third_party/flatbuffers/include/flatbuffers\flatbuffers.h ****     Finished();
1205:C:/Renesas/e2studio_2021_01_workspace_RZA2M_ANPR/ANPR_RZA2M_EBK/src/tensorflow_lite/third_party/flatbuffers/include/flatbuffers\flatbuffers.h ****     return buf_.release();
1206:C:/Renesas/e2studio_2021_01_workspace_RZA2M_ANPR/ANPR_RZA2M_EBK/src/tensorflow_lite/third_party/flatbuffers/include/flatbuffers\flatbuffers.h ****   }
1207:C:/Renesas/e2studio_2021_01_workspace_RZA2M_ANPR/ANPR_RZA2M_EBK/src/tensorflow_lite/third_party/flatbuffers/include/flatbuffers\flatbuffers.h **** 
1208:C:/Renesas/e2studio_2021_01_workspace_RZA2M_ANPR/ANPR_RZA2M_EBK/src/tensorflow_lite/third_party/flatbuffers/include/flatbuffers\flatbuffers.h ****   /// @brief Get the released pointer to the serialized buffer.
1209:C:/Renesas/e2studio_2021_01_workspace_RZA2M_ANPR/ANPR_RZA2M_EBK/src/tensorflow_lite/third_party/flatbuffers/include/flatbuffers\flatbuffers.h ****   /// @param size The size of the memory block containing
1210:C:/Renesas/e2studio_2021_01_workspace_RZA2M_ANPR/ANPR_RZA2M_EBK/src/tensorflow_lite/third_party/flatbuffers/include/flatbuffers\flatbuffers.h ****   /// the serialized `FlatBuffer`.
1211:C:/Renesas/e2studio_2021_01_workspace_RZA2M_ANPR/ANPR_RZA2M_EBK/src/tensorflow_lite/third_party/flatbuffers/include/flatbuffers\flatbuffers.h ****   /// @param offset The offset from the released pointer where the finished
1212:C:/Renesas/e2studio_2021_01_workspace_RZA2M_ANPR/ANPR_RZA2M_EBK/src/tensorflow_lite/third_party/flatbuffers/include/flatbuffers\flatbuffers.h ****   /// `FlatBuffer` starts.
1213:C:/Renesas/e2studio_2021_01_workspace_RZA2M_ANPR/ANPR_RZA2M_EBK/src/tensorflow_lite/third_party/flatbuffers/include/flatbuffers\flatbuffers.h ****   /// @return A raw pointer to the start of the memory block containing
1214:C:/Renesas/e2studio_2021_01_workspace_RZA2M_ANPR/ANPR_RZA2M_EBK/src/tensorflow_lite/third_party/flatbuffers/include/flatbuffers\flatbuffers.h ****   /// the serialized `FlatBuffer`.
1215:C:/Renesas/e2studio_2021_01_workspace_RZA2M_ANPR/ANPR_RZA2M_EBK/src/tensorflow_lite/third_party/flatbuffers/include/flatbuffers\flatbuffers.h ****   /// @remark If the allocator is owned, it gets deleted when the destructor is
1216:C:/Renesas/e2studio_2021_01_workspace_RZA2M_ANPR/ANPR_RZA2M_EBK/src/tensorflow_lite/third_party/flatbuffers/include/flatbuffers\flatbuffers.h ****   /// called..
1217:C:/Renesas/e2studio_2021_01_workspace_RZA2M_ANPR/ANPR_RZA2M_EBK/src/tensorflow_lite/third_party/flatbuffers/include/flatbuffers\flatbuffers.h ****   uint8_t *ReleaseRaw(size_t &size, size_t &offset) {
1218:C:/Renesas/e2studio_2021_01_workspace_RZA2M_ANPR/ANPR_RZA2M_EBK/src/tensorflow_lite/third_party/flatbuffers/include/flatbuffers\flatbuffers.h ****     Finished();
1219:C:/Renesas/e2studio_2021_01_workspace_RZA2M_ANPR/ANPR_RZA2M_EBK/src/tensorflow_lite/third_party/flatbuffers/include/flatbuffers\flatbuffers.h ****     return buf_.release_raw(size, offset);
1220:C:/Renesas/e2studio_2021_01_workspace_RZA2M_ANPR/ANPR_RZA2M_EBK/src/tensorflow_lite/third_party/flatbuffers/include/flatbuffers\flatbuffers.h ****   }
1221:C:/Renesas/e2studio_2021_01_workspace_RZA2M_ANPR/ANPR_RZA2M_EBK/src/tensorflow_lite/third_party/flatbuffers/include/flatbuffers\flatbuffers.h **** 
1222:C:/Renesas/e2studio_2021_01_workspace_RZA2M_ANPR/ANPR_RZA2M_EBK/src/tensorflow_lite/third_party/flatbuffers/include/flatbuffers\flatbuffers.h ****   /// @brief get the minimum alignment this buffer needs to be accessed
1223:C:/Renesas/e2studio_2021_01_workspace_RZA2M_ANPR/ANPR_RZA2M_EBK/src/tensorflow_lite/third_party/flatbuffers/include/flatbuffers\flatbuffers.h ****   /// properly. This is only known once all elements have been written (after
1224:C:/Renesas/e2studio_2021_01_workspace_RZA2M_ANPR/ANPR_RZA2M_EBK/src/tensorflow_lite/third_party/flatbuffers/include/flatbuffers\flatbuffers.h ****   /// you call Finish()). You can use this information if you need to embed
1225:C:/Renesas/e2studio_2021_01_workspace_RZA2M_ANPR/ANPR_RZA2M_EBK/src/tensorflow_lite/third_party/flatbuffers/include/flatbuffers\flatbuffers.h ****   /// a FlatBuffer in some other buffer, such that you can later read it
1226:C:/Renesas/e2studio_2021_01_workspace_RZA2M_ANPR/ANPR_RZA2M_EBK/src/tensorflow_lite/third_party/flatbuffers/include/flatbuffers\flatbuffers.h ****   /// without first having to copy it into its own buffer.
1227:C:/Renesas/e2studio_2021_01_workspace_RZA2M_ANPR/ANPR_RZA2M_EBK/src/tensorflow_lite/third_party/flatbuffers/include/flatbuffers\flatbuffers.h ****   size_t GetBufferMinAlignment() const {
1228:C:/Renesas/e2studio_2021_01_workspace_RZA2M_ANPR/ANPR_RZA2M_EBK/src/tensorflow_lite/third_party/flatbuffers/include/flatbuffers\flatbuffers.h ****     Finished();
1229:C:/Renesas/e2studio_2021_01_workspace_RZA2M_ANPR/ANPR_RZA2M_EBK/src/tensorflow_lite/third_party/flatbuffers/include/flatbuffers\flatbuffers.h ****     return minalign_;
1230:C:/Renesas/e2studio_2021_01_workspace_RZA2M_ANPR/ANPR_RZA2M_EBK/src/tensorflow_lite/third_party/flatbuffers/include/flatbuffers\flatbuffers.h ****   }
1231:C:/Renesas/e2studio_2021_01_workspace_RZA2M_ANPR/ANPR_RZA2M_EBK/src/tensorflow_lite/third_party/flatbuffers/include/flatbuffers\flatbuffers.h **** 
1232:C:/Renesas/e2studio_2021_01_workspace_RZA2M_ANPR/ANPR_RZA2M_EBK/src/tensorflow_lite/third_party/flatbuffers/include/flatbuffers\flatbuffers.h ****   /// @cond FLATBUFFERS_INTERNAL
1233:C:/Renesas/e2studio_2021_01_workspace_RZA2M_ANPR/ANPR_RZA2M_EBK/src/tensorflow_lite/third_party/flatbuffers/include/flatbuffers\flatbuffers.h ****   void Finished() const {
1234:C:/Renesas/e2studio_2021_01_workspace_RZA2M_ANPR/ANPR_RZA2M_EBK/src/tensorflow_lite/third_party/flatbuffers/include/flatbuffers\flatbuffers.h ****     // If you get this assert, you're attempting to get access a buffer
1235:C:/Renesas/e2studio_2021_01_workspace_RZA2M_ANPR/ANPR_RZA2M_EBK/src/tensorflow_lite/third_party/flatbuffers/include/flatbuffers\flatbuffers.h ****     // which hasn't been finished yet. Be sure to call
1236:C:/Renesas/e2studio_2021_01_workspace_RZA2M_ANPR/ANPR_RZA2M_EBK/src/tensorflow_lite/third_party/flatbuffers/include/flatbuffers\flatbuffers.h ****     // FlatBufferBuilder::Finish with your root table.
1237:C:/Renesas/e2studio_2021_01_workspace_RZA2M_ANPR/ANPR_RZA2M_EBK/src/tensorflow_lite/third_party/flatbuffers/include/flatbuffers\flatbuffers.h ****     // If you really need to access an unfinished buffer, call
1238:C:/Renesas/e2studio_2021_01_workspace_RZA2M_ANPR/ANPR_RZA2M_EBK/src/tensorflow_lite/third_party/flatbuffers/include/flatbuffers\flatbuffers.h ****     // GetCurrentBufferPointer instead.
1239:C:/Renesas/e2studio_2021_01_workspace_RZA2M_ANPR/ANPR_RZA2M_EBK/src/tensorflow_lite/third_party/flatbuffers/include/flatbuffers\flatbuffers.h ****     FLATBUFFERS_ASSERT(finished);
1240:C:/Renesas/e2studio_2021_01_workspace_RZA2M_ANPR/ANPR_RZA2M_EBK/src/tensorflow_lite/third_party/flatbuffers/include/flatbuffers\flatbuffers.h ****   }
1241:C:/Renesas/e2studio_2021_01_workspace_RZA2M_ANPR/ANPR_RZA2M_EBK/src/tensorflow_lite/third_party/flatbuffers/include/flatbuffers\flatbuffers.h ****   /// @endcond
1242:C:/Renesas/e2studio_2021_01_workspace_RZA2M_ANPR/ANPR_RZA2M_EBK/src/tensorflow_lite/third_party/flatbuffers/include/flatbuffers\flatbuffers.h **** 
1243:C:/Renesas/e2studio_2021_01_workspace_RZA2M_ANPR/ANPR_RZA2M_EBK/src/tensorflow_lite/third_party/flatbuffers/include/flatbuffers\flatbuffers.h ****   /// @brief In order to save space, fields that are set to their default value
1244:C:/Renesas/e2studio_2021_01_workspace_RZA2M_ANPR/ANPR_RZA2M_EBK/src/tensorflow_lite/third_party/flatbuffers/include/flatbuffers\flatbuffers.h ****   /// don't get serialized into the buffer.
1245:C:/Renesas/e2studio_2021_01_workspace_RZA2M_ANPR/ANPR_RZA2M_EBK/src/tensorflow_lite/third_party/flatbuffers/include/flatbuffers\flatbuffers.h ****   /// @param[in] fd When set to `true`, always serializes default values that
1246:C:/Renesas/e2studio_2021_01_workspace_RZA2M_ANPR/ANPR_RZA2M_EBK/src/tensorflow_lite/third_party/flatbuffers/include/flatbuffers\flatbuffers.h ****   /// are set. Optional fields which are not set explicitly, will still not be
1247:C:/Renesas/e2studio_2021_01_workspace_RZA2M_ANPR/ANPR_RZA2M_EBK/src/tensorflow_lite/third_party/flatbuffers/include/flatbuffers\flatbuffers.h ****   /// serialized.
1248:C:/Renesas/e2studio_2021_01_workspace_RZA2M_ANPR/ANPR_RZA2M_EBK/src/tensorflow_lite/third_party/flatbuffers/include/flatbuffers\flatbuffers.h ****   void ForceDefaults(bool fd) { force_defaults_ = fd; }
1249:C:/Renesas/e2studio_2021_01_workspace_RZA2M_ANPR/ANPR_RZA2M_EBK/src/tensorflow_lite/third_party/flatbuffers/include/flatbuffers\flatbuffers.h **** 
1250:C:/Renesas/e2studio_2021_01_workspace_RZA2M_ANPR/ANPR_RZA2M_EBK/src/tensorflow_lite/third_party/flatbuffers/include/flatbuffers\flatbuffers.h ****   /// @brief By default vtables are deduped in order to save space.
1251:C:/Renesas/e2studio_2021_01_workspace_RZA2M_ANPR/ANPR_RZA2M_EBK/src/tensorflow_lite/third_party/flatbuffers/include/flatbuffers\flatbuffers.h ****   /// @param[in] dedup When set to `true`, dedup vtables.
1252:C:/Renesas/e2studio_2021_01_workspace_RZA2M_ANPR/ANPR_RZA2M_EBK/src/tensorflow_lite/third_party/flatbuffers/include/flatbuffers\flatbuffers.h ****   void DedupVtables(bool dedup) { dedup_vtables_ = dedup; }
1253:C:/Renesas/e2studio_2021_01_workspace_RZA2M_ANPR/ANPR_RZA2M_EBK/src/tensorflow_lite/third_party/flatbuffers/include/flatbuffers\flatbuffers.h **** 
1254:C:/Renesas/e2studio_2021_01_workspace_RZA2M_ANPR/ANPR_RZA2M_EBK/src/tensorflow_lite/third_party/flatbuffers/include/flatbuffers\flatbuffers.h ****   /// @cond FLATBUFFERS_INTERNAL
1255:C:/Renesas/e2studio_2021_01_workspace_RZA2M_ANPR/ANPR_RZA2M_EBK/src/tensorflow_lite/third_party/flatbuffers/include/flatbuffers\flatbuffers.h ****   void Pad(size_t num_bytes) { buf_.fill(num_bytes); }
1256:C:/Renesas/e2studio_2021_01_workspace_RZA2M_ANPR/ANPR_RZA2M_EBK/src/tensorflow_lite/third_party/flatbuffers/include/flatbuffers\flatbuffers.h **** 
1257:C:/Renesas/e2studio_2021_01_workspace_RZA2M_ANPR/ANPR_RZA2M_EBK/src/tensorflow_lite/third_party/flatbuffers/include/flatbuffers\flatbuffers.h ****   void TrackMinAlign(size_t elem_size) {
1258:C:/Renesas/e2studio_2021_01_workspace_RZA2M_ANPR/ANPR_RZA2M_EBK/src/tensorflow_lite/third_party/flatbuffers/include/flatbuffers\flatbuffers.h ****     if (elem_size > minalign_) minalign_ = elem_size;
1259:C:/Renesas/e2studio_2021_01_workspace_RZA2M_ANPR/ANPR_RZA2M_EBK/src/tensorflow_lite/third_party/flatbuffers/include/flatbuffers\flatbuffers.h ****   }
1260:C:/Renesas/e2studio_2021_01_workspace_RZA2M_ANPR/ANPR_RZA2M_EBK/src/tensorflow_lite/third_party/flatbuffers/include/flatbuffers\flatbuffers.h **** 
1261:C:/Renesas/e2studio_2021_01_workspace_RZA2M_ANPR/ANPR_RZA2M_EBK/src/tensorflow_lite/third_party/flatbuffers/include/flatbuffers\flatbuffers.h ****   void Align(size_t elem_size) {
1262:C:/Renesas/e2studio_2021_01_workspace_RZA2M_ANPR/ANPR_RZA2M_EBK/src/tensorflow_lite/third_party/flatbuffers/include/flatbuffers\flatbuffers.h ****     TrackMinAlign(elem_size);
1263:C:/Renesas/e2studio_2021_01_workspace_RZA2M_ANPR/ANPR_RZA2M_EBK/src/tensorflow_lite/third_party/flatbuffers/include/flatbuffers\flatbuffers.h ****     buf_.fill(PaddingBytes(buf_.size(), elem_size));
1264:C:/Renesas/e2studio_2021_01_workspace_RZA2M_ANPR/ANPR_RZA2M_EBK/src/tensorflow_lite/third_party/flatbuffers/include/flatbuffers\flatbuffers.h ****   }
1265:C:/Renesas/e2studio_2021_01_workspace_RZA2M_ANPR/ANPR_RZA2M_EBK/src/tensorflow_lite/third_party/flatbuffers/include/flatbuffers\flatbuffers.h **** 
1266:C:/Renesas/e2studio_2021_01_workspace_RZA2M_ANPR/ANPR_RZA2M_EBK/src/tensorflow_lite/third_party/flatbuffers/include/flatbuffers\flatbuffers.h ****   void PushFlatBuffer(const uint8_t *bytes, size_t size) {
1267:C:/Renesas/e2studio_2021_01_workspace_RZA2M_ANPR/ANPR_RZA2M_EBK/src/tensorflow_lite/third_party/flatbuffers/include/flatbuffers\flatbuffers.h ****     PushBytes(bytes, size);
1268:C:/Renesas/e2studio_2021_01_workspace_RZA2M_ANPR/ANPR_RZA2M_EBK/src/tensorflow_lite/third_party/flatbuffers/include/flatbuffers\flatbuffers.h ****     finished = true;
1269:C:/Renesas/e2studio_2021_01_workspace_RZA2M_ANPR/ANPR_RZA2M_EBK/src/tensorflow_lite/third_party/flatbuffers/include/flatbuffers\flatbuffers.h ****   }
1270:C:/Renesas/e2studio_2021_01_workspace_RZA2M_ANPR/ANPR_RZA2M_EBK/src/tensorflow_lite/third_party/flatbuffers/include/flatbuffers\flatbuffers.h **** 
1271:C:/Renesas/e2studio_2021_01_workspace_RZA2M_ANPR/ANPR_RZA2M_EBK/src/tensorflow_lite/third_party/flatbuffers/include/flatbuffers\flatbuffers.h ****   void PushBytes(const uint8_t *bytes, size_t size) { buf_.push(bytes, size); }
1272:C:/Renesas/e2studio_2021_01_workspace_RZA2M_ANPR/ANPR_RZA2M_EBK/src/tensorflow_lite/third_party/flatbuffers/include/flatbuffers\flatbuffers.h **** 
1273:C:/Renesas/e2studio_2021_01_workspace_RZA2M_ANPR/ANPR_RZA2M_EBK/src/tensorflow_lite/third_party/flatbuffers/include/flatbuffers\flatbuffers.h ****   void PopBytes(size_t amount) { buf_.pop(amount); }
1274:C:/Renesas/e2studio_2021_01_workspace_RZA2M_ANPR/ANPR_RZA2M_EBK/src/tensorflow_lite/third_party/flatbuffers/include/flatbuffers\flatbuffers.h **** 
1275:C:/Renesas/e2studio_2021_01_workspace_RZA2M_ANPR/ANPR_RZA2M_EBK/src/tensorflow_lite/third_party/flatbuffers/include/flatbuffers\flatbuffers.h ****   template<typename T> void AssertScalarT() {
1276:C:/Renesas/e2studio_2021_01_workspace_RZA2M_ANPR/ANPR_RZA2M_EBK/src/tensorflow_lite/third_party/flatbuffers/include/flatbuffers\flatbuffers.h ****     // The code assumes power of 2 sizes and endian-swap-ability.
1277:C:/Renesas/e2studio_2021_01_workspace_RZA2M_ANPR/ANPR_RZA2M_EBK/src/tensorflow_lite/third_party/flatbuffers/include/flatbuffers\flatbuffers.h ****     static_assert(flatbuffers::is_scalar<T>::value, "T must be a scalar type");
1278:C:/Renesas/e2studio_2021_01_workspace_RZA2M_ANPR/ANPR_RZA2M_EBK/src/tensorflow_lite/third_party/flatbuffers/include/flatbuffers\flatbuffers.h ****   }
1279:C:/Renesas/e2studio_2021_01_workspace_RZA2M_ANPR/ANPR_RZA2M_EBK/src/tensorflow_lite/third_party/flatbuffers/include/flatbuffers\flatbuffers.h **** 
1280:C:/Renesas/e2studio_2021_01_workspace_RZA2M_ANPR/ANPR_RZA2M_EBK/src/tensorflow_lite/third_party/flatbuffers/include/flatbuffers\flatbuffers.h ****   // Write a single aligned scalar to the buffer
1281:C:/Renesas/e2studio_2021_01_workspace_RZA2M_ANPR/ANPR_RZA2M_EBK/src/tensorflow_lite/third_party/flatbuffers/include/flatbuffers\flatbuffers.h ****   template<typename T> uoffset_t PushElement(T element) {
1282:C:/Renesas/e2studio_2021_01_workspace_RZA2M_ANPR/ANPR_RZA2M_EBK/src/tensorflow_lite/third_party/flatbuffers/include/flatbuffers\flatbuffers.h ****     AssertScalarT<T>();
1283:C:/Renesas/e2studio_2021_01_workspace_RZA2M_ANPR/ANPR_RZA2M_EBK/src/tensorflow_lite/third_party/flatbuffers/include/flatbuffers\flatbuffers.h ****     T litle_endian_element = EndianScalar(element);
1284:C:/Renesas/e2studio_2021_01_workspace_RZA2M_ANPR/ANPR_RZA2M_EBK/src/tensorflow_lite/third_party/flatbuffers/include/flatbuffers\flatbuffers.h ****     Align(sizeof(T));
1285:C:/Renesas/e2studio_2021_01_workspace_RZA2M_ANPR/ANPR_RZA2M_EBK/src/tensorflow_lite/third_party/flatbuffers/include/flatbuffers\flatbuffers.h ****     buf_.push_small(litle_endian_element);
1286:C:/Renesas/e2studio_2021_01_workspace_RZA2M_ANPR/ANPR_RZA2M_EBK/src/tensorflow_lite/third_party/flatbuffers/include/flatbuffers\flatbuffers.h ****     return GetSize();
1287:C:/Renesas/e2studio_2021_01_workspace_RZA2M_ANPR/ANPR_RZA2M_EBK/src/tensorflow_lite/third_party/flatbuffers/include/flatbuffers\flatbuffers.h ****   }
1288:C:/Renesas/e2studio_2021_01_workspace_RZA2M_ANPR/ANPR_RZA2M_EBK/src/tensorflow_lite/third_party/flatbuffers/include/flatbuffers\flatbuffers.h **** 
1289:C:/Renesas/e2studio_2021_01_workspace_RZA2M_ANPR/ANPR_RZA2M_EBK/src/tensorflow_lite/third_party/flatbuffers/include/flatbuffers\flatbuffers.h ****   template<typename T> uoffset_t PushElement(Offset<T> off) {
1290:C:/Renesas/e2studio_2021_01_workspace_RZA2M_ANPR/ANPR_RZA2M_EBK/src/tensorflow_lite/third_party/flatbuffers/include/flatbuffers\flatbuffers.h ****     // Special case for offsets: see ReferTo below.
1291:C:/Renesas/e2studio_2021_01_workspace_RZA2M_ANPR/ANPR_RZA2M_EBK/src/tensorflow_lite/third_party/flatbuffers/include/flatbuffers\flatbuffers.h ****     return PushElement(ReferTo(off.o));
1292:C:/Renesas/e2studio_2021_01_workspace_RZA2M_ANPR/ANPR_RZA2M_EBK/src/tensorflow_lite/third_party/flatbuffers/include/flatbuffers\flatbuffers.h ****   }
1293:C:/Renesas/e2studio_2021_01_workspace_RZA2M_ANPR/ANPR_RZA2M_EBK/src/tensorflow_lite/third_party/flatbuffers/include/flatbuffers\flatbuffers.h **** 
1294:C:/Renesas/e2studio_2021_01_workspace_RZA2M_ANPR/ANPR_RZA2M_EBK/src/tensorflow_lite/third_party/flatbuffers/include/flatbuffers\flatbuffers.h ****   // When writing fields, we track where they are, so we can create correct
1295:C:/Renesas/e2studio_2021_01_workspace_RZA2M_ANPR/ANPR_RZA2M_EBK/src/tensorflow_lite/third_party/flatbuffers/include/flatbuffers\flatbuffers.h ****   // vtables later.
1296:C:/Renesas/e2studio_2021_01_workspace_RZA2M_ANPR/ANPR_RZA2M_EBK/src/tensorflow_lite/third_party/flatbuffers/include/flatbuffers\flatbuffers.h ****   void TrackField(voffset_t field, uoffset_t off) {
1297:C:/Renesas/e2studio_2021_01_workspace_RZA2M_ANPR/ANPR_RZA2M_EBK/src/tensorflow_lite/third_party/flatbuffers/include/flatbuffers\flatbuffers.h ****     FieldLoc fl = { off, field };
1298:C:/Renesas/e2studio_2021_01_workspace_RZA2M_ANPR/ANPR_RZA2M_EBK/src/tensorflow_lite/third_party/flatbuffers/include/flatbuffers\flatbuffers.h ****     buf_.scratch_push_small(fl);
1299:C:/Renesas/e2studio_2021_01_workspace_RZA2M_ANPR/ANPR_RZA2M_EBK/src/tensorflow_lite/third_party/flatbuffers/include/flatbuffers\flatbuffers.h ****     num_field_loc++;
1300:C:/Renesas/e2studio_2021_01_workspace_RZA2M_ANPR/ANPR_RZA2M_EBK/src/tensorflow_lite/third_party/flatbuffers/include/flatbuffers\flatbuffers.h ****     max_voffset_ = (std::max)(max_voffset_, field);
1301:C:/Renesas/e2studio_2021_01_workspace_RZA2M_ANPR/ANPR_RZA2M_EBK/src/tensorflow_lite/third_party/flatbuffers/include/flatbuffers\flatbuffers.h ****   }
1302:C:/Renesas/e2studio_2021_01_workspace_RZA2M_ANPR/ANPR_RZA2M_EBK/src/tensorflow_lite/third_party/flatbuffers/include/flatbuffers\flatbuffers.h **** 
1303:C:/Renesas/e2studio_2021_01_workspace_RZA2M_ANPR/ANPR_RZA2M_EBK/src/tensorflow_lite/third_party/flatbuffers/include/flatbuffers\flatbuffers.h ****   // Like PushElement, but additionally tracks the field this represents.
1304:C:/Renesas/e2studio_2021_01_workspace_RZA2M_ANPR/ANPR_RZA2M_EBK/src/tensorflow_lite/third_party/flatbuffers/include/flatbuffers\flatbuffers.h ****   template<typename T> void AddElement(voffset_t field, T e, T def) {
1305:C:/Renesas/e2studio_2021_01_workspace_RZA2M_ANPR/ANPR_RZA2M_EBK/src/tensorflow_lite/third_party/flatbuffers/include/flatbuffers\flatbuffers.h ****     // We don't serialize values equal to the default.
1306:C:/Renesas/e2studio_2021_01_workspace_RZA2M_ANPR/ANPR_RZA2M_EBK/src/tensorflow_lite/third_party/flatbuffers/include/flatbuffers\flatbuffers.h ****     if (IsTheSameAs(e, def) && !force_defaults_) return;
1307:C:/Renesas/e2studio_2021_01_workspace_RZA2M_ANPR/ANPR_RZA2M_EBK/src/tensorflow_lite/third_party/flatbuffers/include/flatbuffers\flatbuffers.h ****     auto off = PushElement(e);
1308:C:/Renesas/e2studio_2021_01_workspace_RZA2M_ANPR/ANPR_RZA2M_EBK/src/tensorflow_lite/third_party/flatbuffers/include/flatbuffers\flatbuffers.h ****     TrackField(field, off);
1309:C:/Renesas/e2studio_2021_01_workspace_RZA2M_ANPR/ANPR_RZA2M_EBK/src/tensorflow_lite/third_party/flatbuffers/include/flatbuffers\flatbuffers.h ****   }
1310:C:/Renesas/e2studio_2021_01_workspace_RZA2M_ANPR/ANPR_RZA2M_EBK/src/tensorflow_lite/third_party/flatbuffers/include/flatbuffers\flatbuffers.h **** 
1311:C:/Renesas/e2studio_2021_01_workspace_RZA2M_ANPR/ANPR_RZA2M_EBK/src/tensorflow_lite/third_party/flatbuffers/include/flatbuffers\flatbuffers.h ****   template<typename T> void AddElement(voffset_t field, T e) {
