   1              		.cpu cortex-a9
   2              		.eabi_attribute 28, 1
   3              		.eabi_attribute 20, 1
   4              		.eabi_attribute 21, 1
   5              		.eabi_attribute 23, 3
   6              		.eabi_attribute 24, 1
   7              		.eabi_attribute 25, 1
   8              		.eabi_attribute 26, 1
   9              		.eabi_attribute 30, 2
  10              		.eabi_attribute 34, 0
  11              		.eabi_attribute 18, 4
  12              		.file	"maximum_minimum.cc"
  13              		.text
  14              	.Ltext0:
  15              		.cfi_sections	.debug_frame
  16              		.section	.text._ZN6tflite3ops5micro15maximum_minimum12_GLOBAL__N_19MaximumOp2opIfEET_S6_S6_,"ax",%
  17              		.align	2
  18              		.syntax unified
  19              		.arm
  20              		.fpu neon
  22              	_ZN6tflite3ops5micro15maximum_minimum12_GLOBAL__N_19MaximumOp2opIfEET_S6_S6_:
  23              		.fnstart
  24              	.LFB4486:
  25              		.file 1 "../src/tensorflow_lite/tensorflow/lite/micro/kernels/maximum_minimum.cc"
   1:../src/tensorflow_lite/tensorflow/lite/micro/kernels/maximum_minimum.cc **** /* Copyright 2018 The TensorFlow Authors. All Rights Reserved.
   2:../src/tensorflow_lite/tensorflow/lite/micro/kernels/maximum_minimum.cc **** 
   3:../src/tensorflow_lite/tensorflow/lite/micro/kernels/maximum_minimum.cc **** Licensed under the Apache License, Version 2.0 (the "License");
   4:../src/tensorflow_lite/tensorflow/lite/micro/kernels/maximum_minimum.cc **** you may not use this file except in compliance with the License.
   5:../src/tensorflow_lite/tensorflow/lite/micro/kernels/maximum_minimum.cc **** You may obtain a copy of the License at
   6:../src/tensorflow_lite/tensorflow/lite/micro/kernels/maximum_minimum.cc **** 
   7:../src/tensorflow_lite/tensorflow/lite/micro/kernels/maximum_minimum.cc ****     http://www.apache.org/licenses/LICENSE-2.0
   8:../src/tensorflow_lite/tensorflow/lite/micro/kernels/maximum_minimum.cc **** 
   9:../src/tensorflow_lite/tensorflow/lite/micro/kernels/maximum_minimum.cc **** Unless required by applicable law or agreed to in writing, software
  10:../src/tensorflow_lite/tensorflow/lite/micro/kernels/maximum_minimum.cc **** distributed under the License is distributed on an "AS IS" BASIS,
  11:../src/tensorflow_lite/tensorflow/lite/micro/kernels/maximum_minimum.cc **** WITHOUT WARRANTIES OR CONDITIONS OF ANY KIND, either express or implied.
  12:../src/tensorflow_lite/tensorflow/lite/micro/kernels/maximum_minimum.cc **** See the License for the specific language governing permissions and
  13:../src/tensorflow_lite/tensorflow/lite/micro/kernels/maximum_minimum.cc **** limitations under the License.
  14:../src/tensorflow_lite/tensorflow/lite/micro/kernels/maximum_minimum.cc **** ==============================================================================*/
  15:../src/tensorflow_lite/tensorflow/lite/micro/kernels/maximum_minimum.cc **** 
  16:../src/tensorflow_lite/tensorflow/lite/micro/kernels/maximum_minimum.cc **** #include "tensorflow/lite/kernels/internal/reference/maximum_minimum.h"
  17:../src/tensorflow_lite/tensorflow/lite/micro/kernels/maximum_minimum.cc **** 
  18:../src/tensorflow_lite/tensorflow/lite/micro/kernels/maximum_minimum.cc **** #include "tensorflow/lite/c/builtin_op_data.h"
  19:../src/tensorflow_lite/tensorflow/lite/micro/kernels/maximum_minimum.cc **** #include "tensorflow/lite/c/common.h"
  20:../src/tensorflow_lite/tensorflow/lite/micro/kernels/maximum_minimum.cc **** #include "tensorflow/lite/kernels/internal/common.h"
  21:../src/tensorflow_lite/tensorflow/lite/micro/kernels/maximum_minimum.cc **** #include "tensorflow/lite/kernels/internal/quantization_util.h"
  22:../src/tensorflow_lite/tensorflow/lite/micro/kernels/maximum_minimum.cc **** #include "tensorflow/lite/kernels/internal/tensor_ctypes.h"
  23:../src/tensorflow_lite/tensorflow/lite/micro/kernels/maximum_minimum.cc **** #include "tensorflow/lite/kernels/kernel_util.h"
  24:../src/tensorflow_lite/tensorflow/lite/micro/kernels/maximum_minimum.cc **** #include "tensorflow/lite/kernels/op_macros.h"
  25:../src/tensorflow_lite/tensorflow/lite/micro/kernels/maximum_minimum.cc **** #include "tensorflow/lite/micro/kernels/kernel_util.h"
  26:../src/tensorflow_lite/tensorflow/lite/micro/kernels/maximum_minimum.cc **** 
  27:../src/tensorflow_lite/tensorflow/lite/micro/kernels/maximum_minimum.cc **** namespace tflite {
  28:../src/tensorflow_lite/tensorflow/lite/micro/kernels/maximum_minimum.cc **** namespace ops {
  29:../src/tensorflow_lite/tensorflow/lite/micro/kernels/maximum_minimum.cc **** namespace micro {
  30:../src/tensorflow_lite/tensorflow/lite/micro/kernels/maximum_minimum.cc **** namespace maximum_minimum {
  31:../src/tensorflow_lite/tensorflow/lite/micro/kernels/maximum_minimum.cc **** namespace {
  32:../src/tensorflow_lite/tensorflow/lite/micro/kernels/maximum_minimum.cc **** 
  33:../src/tensorflow_lite/tensorflow/lite/micro/kernels/maximum_minimum.cc **** // This file has a reference implementation of TFMaximum/TFMinimum.
  34:../src/tensorflow_lite/tensorflow/lite/micro/kernels/maximum_minimum.cc **** enum KernelType {
  35:../src/tensorflow_lite/tensorflow/lite/micro/kernels/maximum_minimum.cc ****   kReference,
  36:../src/tensorflow_lite/tensorflow/lite/micro/kernels/maximum_minimum.cc **** };
  37:../src/tensorflow_lite/tensorflow/lite/micro/kernels/maximum_minimum.cc **** 
  38:../src/tensorflow_lite/tensorflow/lite/micro/kernels/maximum_minimum.cc **** constexpr int kInputTensor1 = 0;
  39:../src/tensorflow_lite/tensorflow/lite/micro/kernels/maximum_minimum.cc **** constexpr int kInputTensor2 = 1;
  40:../src/tensorflow_lite/tensorflow/lite/micro/kernels/maximum_minimum.cc **** constexpr int kOutputTensor = 0;
  41:../src/tensorflow_lite/tensorflow/lite/micro/kernels/maximum_minimum.cc **** 
  42:../src/tensorflow_lite/tensorflow/lite/micro/kernels/maximum_minimum.cc **** struct OpContext {
  43:../src/tensorflow_lite/tensorflow/lite/micro/kernels/maximum_minimum.cc ****   OpContext(TfLiteContext* context, TfLiteNode* node) {
  44:../src/tensorflow_lite/tensorflow/lite/micro/kernels/maximum_minimum.cc ****     input1 = tflite::micro::GetEvalInput(context, node, kInputTensor1);
  45:../src/tensorflow_lite/tensorflow/lite/micro/kernels/maximum_minimum.cc ****     input2 = tflite::micro::GetEvalInput(context, node, kInputTensor2);
  46:../src/tensorflow_lite/tensorflow/lite/micro/kernels/maximum_minimum.cc ****     output = tflite::micro::GetEvalOutput(context, node, kOutputTensor);
  47:../src/tensorflow_lite/tensorflow/lite/micro/kernels/maximum_minimum.cc ****   }
  48:../src/tensorflow_lite/tensorflow/lite/micro/kernels/maximum_minimum.cc ****   const TfLiteEvalTensor* input1;
  49:../src/tensorflow_lite/tensorflow/lite/micro/kernels/maximum_minimum.cc ****   const TfLiteEvalTensor* input2;
  50:../src/tensorflow_lite/tensorflow/lite/micro/kernels/maximum_minimum.cc ****   TfLiteEvalTensor* output;
  51:../src/tensorflow_lite/tensorflow/lite/micro/kernels/maximum_minimum.cc **** };
  52:../src/tensorflow_lite/tensorflow/lite/micro/kernels/maximum_minimum.cc **** 
  53:../src/tensorflow_lite/tensorflow/lite/micro/kernels/maximum_minimum.cc **** struct MaximumOp {
  54:../src/tensorflow_lite/tensorflow/lite/micro/kernels/maximum_minimum.cc ****   template <typename data_type>
  55:../src/tensorflow_lite/tensorflow/lite/micro/kernels/maximum_minimum.cc ****   static data_type op(data_type el1, data_type el2) {
  26              		.loc 1 55 0
  27              		.cfi_startproc
  28              		@ args = 0, pretend = 0, frame = 0
  29              		@ frame_needed = 0, uses_anonymous_args = 0
  30              		@ link register save eliminated.
  31              	.LVL0:
  56:../src/tensorflow_lite/tensorflow/lite/micro/kernels/maximum_minimum.cc ****     return el1 > el2 ? el1 : el2;
  32              		.loc 1 56 0
  33 0000 E00AB4EE 		vcmpe.f32	s0, s1
  34 0004 10FAF1EE 		vmrs	APSR_nzcv, FPSCR
  57:../src/tensorflow_lite/tensorflow/lite/micro/kernels/maximum_minimum.cc ****   }
  35              		.loc 1 57 0
  36 0008 600AB0DE 		vmovle.f32	s0, s1
  37              	.LVL1:
  38 000c 1EFF2FE1 		bx	lr
  39              		.cfi_endproc
  40              	.LFE4486:
  41              		.cantunwind
  42              		.fnend
  44              		.section	.text._ZN6tflite3ops5micro15maximum_minimum12_GLOBAL__N_19MaximumOp2opIhEET_S6_S6_,"ax",%
  45              		.align	2
  46              		.syntax unified
  47              		.arm
  48              		.fpu neon
  50              	_ZN6tflite3ops5micro15maximum_minimum12_GLOBAL__N_19MaximumOp2opIhEET_S6_S6_:
  51              		.fnstart
  52              	.LFB4491:
  55:../src/tensorflow_lite/tensorflow/lite/micro/kernels/maximum_minimum.cc ****     return el1 > el2 ? el1 : el2;
  53              		.loc 1 55 0
  54              		.cfi_startproc
  55              		@ args = 0, pretend = 0, frame = 0
  56              		@ frame_needed = 0, uses_anonymous_args = 0
  57              		@ link register save eliminated.
  58              	.LVL2:
  59              		.loc 1 57 0
  60 0000 000051E1 		cmp	r1, r0
  61 0004 0100A0A1 		movge	r0, r1
  62              	.LVL3:
  63 0008 1EFF2FE1 		bx	lr
  64              		.cfi_endproc
  65              	.LFE4491:
  66              		.cantunwind
  67              		.fnend
  69              		.section	.text._ZN6tflite3ops5micro15maximum_minimum12_GLOBAL__N_19MaximumOp2opIaEET_S6_S6_,"ax",%
  70              		.align	2
  71              		.syntax unified
  72              		.arm
  73              		.fpu neon
  75              	_ZN6tflite3ops5micro15maximum_minimum12_GLOBAL__N_19MaximumOp2opIaEET_S6_S6_:
  76              		.fnstart
  77              	.LFB4496:
  55:../src/tensorflow_lite/tensorflow/lite/micro/kernels/maximum_minimum.cc ****     return el1 > el2 ? el1 : el2;
  78              		.loc 1 55 0
  79              		.cfi_startproc
  80              		@ args = 0, pretend = 0, frame = 0
  81              		@ frame_needed = 0, uses_anonymous_args = 0
  82              		@ link register save eliminated.
  83              	.LVL4:
  84              		.loc 1 57 0
  85 0000 010050E1 		cmp	r0, r1
  86 0004 0100A0B1 		movlt	r0, r1
  87              	.LVL5:
  88 0008 1EFF2FE1 		bx	lr
  89              		.cfi_endproc
  90              	.LFE4496:
  91              		.cantunwind
  92              		.fnend
  94              		.section	.text._ZN6tflite3ops5micro15maximum_minimum12_GLOBAL__N_19MaximumOp2opIlEET_S6_S6_,"ax",%
  95              		.align	2
  96              		.syntax unified
  97              		.arm
  98              		.fpu neon
 100              	_ZN6tflite3ops5micro15maximum_minimum12_GLOBAL__N_19MaximumOp2opIlEET_S6_S6_:
 101              		.fnstart
 102              	.LFB4501:
  55:../src/tensorflow_lite/tensorflow/lite/micro/kernels/maximum_minimum.cc ****     return el1 > el2 ? el1 : el2;
 103              		.loc 1 55 0
 104              		.cfi_startproc
 105              		@ args = 0, pretend = 0, frame = 0
 106              		@ frame_needed = 0, uses_anonymous_args = 0
 107              		@ link register save eliminated.
 108              	.LVL6:
 109              		.loc 1 57 0
 110 0000 010050E1 		cmp	r0, r1
 111 0004 0100A0B1 		movlt	r0, r1
 112              	.LVL7:
 113 0008 1EFF2FE1 		bx	lr
 114              		.cfi_endproc
 115              	.LFE4501:
 116              		.cantunwind
 117              		.fnend
 119              		.section	.text._ZN6tflite3ops5micro15maximum_minimum12_GLOBAL__N_19MaximumOp2opIxEET_S6_S6_,"ax",%
 120              		.align	2
 121              		.syntax unified
 122              		.arm
 123              		.fpu neon
 125              	_ZN6tflite3ops5micro15maximum_minimum12_GLOBAL__N_19MaximumOp2opIxEET_S6_S6_:
 126              		.fnstart
 127              	.LFB4506:
  55:../src/tensorflow_lite/tensorflow/lite/micro/kernels/maximum_minimum.cc ****     return el1 > el2 ? el1 : el2;
 128              		.loc 1 55 0
 129              		.cfi_startproc
 130              		@ args = 0, pretend = 0, frame = 0
 131              		@ frame_needed = 0, uses_anonymous_args = 0
 132              		@ link register save eliminated.
 133              	.LVL8:
  56:../src/tensorflow_lite/tensorflow/lite/micro/kernels/maximum_minimum.cc ****     return el1 > el2 ? el1 : el2;
 134              		.loc 1 56 0
 135 0000 020050E1 		cmp	r0, r2
 136 0004 03C0D1E0 		sbcs	ip, r1, r3
 137 0008 0200A0B1 		movlt	r0, r2
 138              	.LVL9:
 139 000c 0310A0B1 		movlt	r1, r3
 140              		.loc 1 57 0
 141 0010 1EFF2FE1 		bx	lr
 142              		.cfi_endproc
 143              	.LFE4506:
 144              		.cantunwind
 145              		.fnend
 147              		.section	.text._ZN6tflite3ops5micro15maximum_minimum12_GLOBAL__N_19MinimumOp2opIfEET_S6_S6_,"ax",%
 148              		.align	2
 149              		.syntax unified
 150              		.arm
 151              		.fpu neon
 153              	_ZN6tflite3ops5micro15maximum_minimum12_GLOBAL__N_19MinimumOp2opIfEET_S6_S6_:
 154              		.fnstart
 155              	.LFB4509:
  58:../src/tensorflow_lite/tensorflow/lite/micro/kernels/maximum_minimum.cc **** };
  59:../src/tensorflow_lite/tensorflow/lite/micro/kernels/maximum_minimum.cc **** 
  60:../src/tensorflow_lite/tensorflow/lite/micro/kernels/maximum_minimum.cc **** struct MinimumOp {
  61:../src/tensorflow_lite/tensorflow/lite/micro/kernels/maximum_minimum.cc ****   template <typename data_type>
  62:../src/tensorflow_lite/tensorflow/lite/micro/kernels/maximum_minimum.cc ****   static data_type op(data_type el1, data_type el2) {
 156              		.loc 1 62 0
 157              		.cfi_startproc
 158              		@ args = 0, pretend = 0, frame = 0
 159              		@ frame_needed = 0, uses_anonymous_args = 0
 160              		@ link register save eliminated.
 161              	.LVL10:
  63:../src/tensorflow_lite/tensorflow/lite/micro/kernels/maximum_minimum.cc ****     return el1 < el2 ? el1 : el2;
 162              		.loc 1 63 0
 163 0000 E00AB4EE 		vcmpe.f32	s0, s1
 164 0004 10FAF1EE 		vmrs	APSR_nzcv, FPSCR
  64:../src/tensorflow_lite/tensorflow/lite/micro/kernels/maximum_minimum.cc ****   }
 165              		.loc 1 64 0
 166 0008 600AB05E 		vmovpl.f32	s0, s1
 167              	.LVL11:
 168 000c 1EFF2FE1 		bx	lr
 169              		.cfi_endproc
 170              	.LFE4509:
 171              		.cantunwind
 172              		.fnend
 174              		.section	.text._ZN6tflite3ops5micro15maximum_minimum12_GLOBAL__N_19MinimumOp2opIhEET_S6_S6_,"ax",%
 175              		.align	2
 176              		.syntax unified
 177              		.arm
 178              		.fpu neon
 180              	_ZN6tflite3ops5micro15maximum_minimum12_GLOBAL__N_19MinimumOp2opIhEET_S6_S6_:
 181              		.fnstart
 182              	.LFB4510:
  62:../src/tensorflow_lite/tensorflow/lite/micro/kernels/maximum_minimum.cc ****     return el1 < el2 ? el1 : el2;
 183              		.loc 1 62 0
 184              		.cfi_startproc
 185              		@ args = 0, pretend = 0, frame = 0
 186              		@ frame_needed = 0, uses_anonymous_args = 0
 187              		@ link register save eliminated.
 188              	.LVL12:
 189              		.loc 1 64 0
 190 0000 000051E1 		cmp	r1, r0
 191 0004 0100A0B1 		movlt	r0, r1
 192              	.LVL13:
 193 0008 1EFF2FE1 		bx	lr
 194              		.cfi_endproc
 195              	.LFE4510:
 196              		.cantunwind
 197              		.fnend
 199              		.section	.text._ZN6tflite3ops5micro15maximum_minimum12_GLOBAL__N_19MinimumOp2opIaEET_S6_S6_,"ax",%
 200              		.align	2
 201              		.syntax unified
 202              		.arm
 203              		.fpu neon
 205              	_ZN6tflite3ops5micro15maximum_minimum12_GLOBAL__N_19MinimumOp2opIaEET_S6_S6_:
 206              		.fnstart
 207              	.LFB4511:
  62:../src/tensorflow_lite/tensorflow/lite/micro/kernels/maximum_minimum.cc ****     return el1 < el2 ? el1 : el2;
 208              		.loc 1 62 0
 209              		.cfi_startproc
 210              		@ args = 0, pretend = 0, frame = 0
 211              		@ frame_needed = 0, uses_anonymous_args = 0
 212              		@ link register save eliminated.
 213              	.LVL14:
 214              		.loc 1 64 0
 215 0000 010050E1 		cmp	r0, r1
 216 0004 0100A0A1 		movge	r0, r1
 217              	.LVL15:
 218 0008 1EFF2FE1 		bx	lr
 219              		.cfi_endproc
 220              	.LFE4511:
 221              		.cantunwind
 222              		.fnend
 224              		.section	.text._ZN6tflite3ops5micro15maximum_minimum12_GLOBAL__N_19MinimumOp2opIlEET_S6_S6_,"ax",%
 225              		.align	2
 226              		.syntax unified
 227              		.arm
 228              		.fpu neon
 230              	_ZN6tflite3ops5micro15maximum_minimum12_GLOBAL__N_19MinimumOp2opIlEET_S6_S6_:
 231              		.fnstart
 232              	.LFB4512:
  62:../src/tensorflow_lite/tensorflow/lite/micro/kernels/maximum_minimum.cc ****     return el1 < el2 ? el1 : el2;
 233              		.loc 1 62 0
 234              		.cfi_startproc
 235              		@ args = 0, pretend = 0, frame = 0
 236              		@ frame_needed = 0, uses_anonymous_args = 0
 237              		@ link register save eliminated.
 238              	.LVL16:
 239              		.loc 1 64 0
 240 0000 010050E1 		cmp	r0, r1
 241 0004 0100A0A1 		movge	r0, r1
 242              	.LVL17:
 243 0008 1EFF2FE1 		bx	lr
 244              		.cfi_endproc
 245              	.LFE4512:
 246              		.cantunwind
 247              		.fnend
 249              		.section	.text._ZN6tflite3ops5micro15maximum_minimum12_GLOBAL__N_19MinimumOp2opIxEET_S6_S6_,"ax",%
 250              		.align	2
 251              		.syntax unified
 252              		.arm
 253              		.fpu neon
 255              	_ZN6tflite3ops5micro15maximum_minimum12_GLOBAL__N_19MinimumOp2opIxEET_S6_S6_:
 256              		.fnstart
 257              	.LFB4513:
  62:../src/tensorflow_lite/tensorflow/lite/micro/kernels/maximum_minimum.cc ****     return el1 < el2 ? el1 : el2;
 258              		.loc 1 62 0
 259              		.cfi_startproc
 260              		@ args = 0, pretend = 0, frame = 0
 261              		@ frame_needed = 0, uses_anonymous_args = 0
 262              		@ link register save eliminated.
 263              	.LVL18:
  63:../src/tensorflow_lite/tensorflow/lite/micro/kernels/maximum_minimum.cc ****     return el1 < el2 ? el1 : el2;
 264              		.loc 1 63 0
 265 0000 000052E1 		cmp	r2, r0
 266 0004 01C0D3E0 		sbcs	ip, r3, r1
 267 0008 0200A0B1 		movlt	r0, r2
 268              	.LVL19:
 269 000c 0310A0B1 		movlt	r1, r3
 270              		.loc 1 64 0
 271 0010 1EFF2FE1 		bx	lr
 272              		.cfi_endproc
 273              	.LFE4513:
 274              		.cantunwind
 275              		.fnend
 277              		.section	.text._ZN6tflite3ops5micro16Register_MAXIMUMEv,"ax",%progbits
 278              		.align	2
 279              		.global	_ZN6tflite3ops5micro16Register_MAXIMUMEv
 280              		.syntax unified
 281              		.arm
 282              		.fpu neon
 284              	_ZN6tflite3ops5micro16Register_MAXIMUMEv:
 285              		.fnstart
 286              	.LFB4176:
  65:../src/tensorflow_lite/tensorflow/lite/micro/kernels/maximum_minimum.cc **** };
  66:../src/tensorflow_lite/tensorflow/lite/micro/kernels/maximum_minimum.cc **** 
  67:../src/tensorflow_lite/tensorflow/lite/micro/kernels/maximum_minimum.cc **** }  // namespace
  68:../src/tensorflow_lite/tensorflow/lite/micro/kernels/maximum_minimum.cc **** 
  69:../src/tensorflow_lite/tensorflow/lite/micro/kernels/maximum_minimum.cc **** template <typename data_type, typename op_type>
  70:../src/tensorflow_lite/tensorflow/lite/micro/kernels/maximum_minimum.cc **** void TFLiteOperation(TfLiteContext* context, TfLiteNode* node,
  71:../src/tensorflow_lite/tensorflow/lite/micro/kernels/maximum_minimum.cc ****                      const OpContext& op_context) {
  72:../src/tensorflow_lite/tensorflow/lite/micro/kernels/maximum_minimum.cc ****   reference_ops::MaximumMinimumBroadcastSlow(
  73:../src/tensorflow_lite/tensorflow/lite/micro/kernels/maximum_minimum.cc ****       tflite::micro::GetTensorShape(op_context.input1),
  74:../src/tensorflow_lite/tensorflow/lite/micro/kernels/maximum_minimum.cc ****       tflite::micro::GetTensorData<data_type>(op_context.input1),
  75:../src/tensorflow_lite/tensorflow/lite/micro/kernels/maximum_minimum.cc ****       tflite::micro::GetTensorShape(op_context.input2),
  76:../src/tensorflow_lite/tensorflow/lite/micro/kernels/maximum_minimum.cc ****       tflite::micro::GetTensorData<data_type>(op_context.input2),
  77:../src/tensorflow_lite/tensorflow/lite/micro/kernels/maximum_minimum.cc ****       tflite::micro::GetTensorShape(op_context.output),
  78:../src/tensorflow_lite/tensorflow/lite/micro/kernels/maximum_minimum.cc ****       tflite::micro::GetTensorData<data_type>(op_context.output),
  79:../src/tensorflow_lite/tensorflow/lite/micro/kernels/maximum_minimum.cc ****       op_type::template op<data_type>);
  80:../src/tensorflow_lite/tensorflow/lite/micro/kernels/maximum_minimum.cc **** }
  81:../src/tensorflow_lite/tensorflow/lite/micro/kernels/maximum_minimum.cc **** 
  82:../src/tensorflow_lite/tensorflow/lite/micro/kernels/maximum_minimum.cc **** template <KernelType kernel_type, typename OpType>
  83:../src/tensorflow_lite/tensorflow/lite/micro/kernels/maximum_minimum.cc **** TfLiteStatus Eval(TfLiteContext* context, TfLiteNode* node) {
  84:../src/tensorflow_lite/tensorflow/lite/micro/kernels/maximum_minimum.cc ****   OpContext op_context(context, node);
  85:../src/tensorflow_lite/tensorflow/lite/micro/kernels/maximum_minimum.cc **** 
  86:../src/tensorflow_lite/tensorflow/lite/micro/kernels/maximum_minimum.cc ****   if (kernel_type == kReference) {
  87:../src/tensorflow_lite/tensorflow/lite/micro/kernels/maximum_minimum.cc ****     switch (op_context.output->type) {
  88:../src/tensorflow_lite/tensorflow/lite/micro/kernels/maximum_minimum.cc ****       case kTfLiteFloat32:
  89:../src/tensorflow_lite/tensorflow/lite/micro/kernels/maximum_minimum.cc ****         TFLiteOperation<float, OpType>(context, node, op_context);
  90:../src/tensorflow_lite/tensorflow/lite/micro/kernels/maximum_minimum.cc ****         break;
  91:../src/tensorflow_lite/tensorflow/lite/micro/kernels/maximum_minimum.cc ****       case kTfLiteUInt8:
  92:../src/tensorflow_lite/tensorflow/lite/micro/kernels/maximum_minimum.cc ****         TFLiteOperation<uint8_t, OpType>(context, node, op_context);
  93:../src/tensorflow_lite/tensorflow/lite/micro/kernels/maximum_minimum.cc ****         break;
  94:../src/tensorflow_lite/tensorflow/lite/micro/kernels/maximum_minimum.cc ****       case kTfLiteInt8:
  95:../src/tensorflow_lite/tensorflow/lite/micro/kernels/maximum_minimum.cc ****         TFLiteOperation<int8_t, OpType>(context, node, op_context);
  96:../src/tensorflow_lite/tensorflow/lite/micro/kernels/maximum_minimum.cc ****         break;
  97:../src/tensorflow_lite/tensorflow/lite/micro/kernels/maximum_minimum.cc ****       case kTfLiteInt32:
  98:../src/tensorflow_lite/tensorflow/lite/micro/kernels/maximum_minimum.cc ****         TFLiteOperation<int32_t, OpType>(context, node, op_context);
  99:../src/tensorflow_lite/tensorflow/lite/micro/kernels/maximum_minimum.cc ****         break;
 100:../src/tensorflow_lite/tensorflow/lite/micro/kernels/maximum_minimum.cc ****       case kTfLiteInt64:
 101:../src/tensorflow_lite/tensorflow/lite/micro/kernels/maximum_minimum.cc ****         TFLiteOperation<int64_t, OpType>(context, node, op_context);
 102:../src/tensorflow_lite/tensorflow/lite/micro/kernels/maximum_minimum.cc ****         break;
 103:../src/tensorflow_lite/tensorflow/lite/micro/kernels/maximum_minimum.cc ****       default:
 104:../src/tensorflow_lite/tensorflow/lite/micro/kernels/maximum_minimum.cc ****         TF_LITE_KERNEL_LOG(context,
 105:../src/tensorflow_lite/tensorflow/lite/micro/kernels/maximum_minimum.cc ****                            "Type %s (%d) is not supported by Maximum/Minimum.",
 106:../src/tensorflow_lite/tensorflow/lite/micro/kernels/maximum_minimum.cc ****                            TfLiteTypeGetName(op_context.output->type),
 107:../src/tensorflow_lite/tensorflow/lite/micro/kernels/maximum_minimum.cc ****                            op_context.output->type);
 108:../src/tensorflow_lite/tensorflow/lite/micro/kernels/maximum_minimum.cc ****         return kTfLiteError;
 109:../src/tensorflow_lite/tensorflow/lite/micro/kernels/maximum_minimum.cc ****     }
 110:../src/tensorflow_lite/tensorflow/lite/micro/kernels/maximum_minimum.cc ****   } else {
 111:../src/tensorflow_lite/tensorflow/lite/micro/kernels/maximum_minimum.cc ****     TF_LITE_KERNEL_LOG(context,
 112:../src/tensorflow_lite/tensorflow/lite/micro/kernels/maximum_minimum.cc ****                        "Kernel type not supported by Maximum/Minimum.");
 113:../src/tensorflow_lite/tensorflow/lite/micro/kernels/maximum_minimum.cc ****     return kTfLiteError;
 114:../src/tensorflow_lite/tensorflow/lite/micro/kernels/maximum_minimum.cc ****   }
 115:../src/tensorflow_lite/tensorflow/lite/micro/kernels/maximum_minimum.cc ****   return kTfLiteOk;
 116:../src/tensorflow_lite/tensorflow/lite/micro/kernels/maximum_minimum.cc **** }
 117:../src/tensorflow_lite/tensorflow/lite/micro/kernels/maximum_minimum.cc **** 
 118:../src/tensorflow_lite/tensorflow/lite/micro/kernels/maximum_minimum.cc **** }  // namespace maximum_minimum
 119:../src/tensorflow_lite/tensorflow/lite/micro/kernels/maximum_minimum.cc **** 
 120:../src/tensorflow_lite/tensorflow/lite/micro/kernels/maximum_minimum.cc **** TfLiteRegistration Register_MAXIMUM() {
 287              		.loc 1 120 0
 288              		.cfi_startproc
 289              		@ args = 0, pretend = 0, frame = 0
 290              		@ frame_needed = 0, uses_anonymous_args = 0
 291              	.LVL20:
 292 0000 10402DE9 		push	{r4, lr}
 293              		.cfi_def_cfa_offset 8
 294              		.cfi_offset 4, -8
 295              		.cfi_offset 14, -4
 121:../src/tensorflow_lite/tensorflow/lite/micro/kernels/maximum_minimum.cc ****   return {/*init=*/nullptr,
 122:../src/tensorflow_lite/tensorflow/lite/micro/kernels/maximum_minimum.cc ****           /*free=*/nullptr,
 123:../src/tensorflow_lite/tensorflow/lite/micro/kernels/maximum_minimum.cc ****           /*prepare=*/nullptr,
 124:../src/tensorflow_lite/tensorflow/lite/micro/kernels/maximum_minimum.cc ****           /*invoke=*/
 125:../src/tensorflow_lite/tensorflow/lite/micro/kernels/maximum_minimum.cc ****           maximum_minimum::Eval<maximum_minimum::kReference,
 126:../src/tensorflow_lite/tensorflow/lite/micro/kernels/maximum_minimum.cc ****                                 maximum_minimum::MaximumOp>,
 127:../src/tensorflow_lite/tensorflow/lite/micro/kernels/maximum_minimum.cc ****           /*profiling_string=*/nullptr,
 128:../src/tensorflow_lite/tensorflow/lite/micro/kernels/maximum_minimum.cc ****           /*builtin_code=*/0,
 129:../src/tensorflow_lite/tensorflow/lite/micro/kernels/maximum_minimum.cc ****           /*custom_name=*/nullptr,
 130:../src/tensorflow_lite/tensorflow/lite/micro/kernels/maximum_minimum.cc ****           /*version=*/0};
 296              		.loc 1 130 0
 297 0004 2020A0E3 		mov	r2, #32
 298 0008 0010A0E3 		mov	r1, #0
 120:../src/tensorflow_lite/tensorflow/lite/micro/kernels/maximum_minimum.cc ****   return {/*init=*/nullptr,
 299              		.loc 1 120 0
 300 000c 0040A0E1 		mov	r4, r0
 301              		.loc 1 130 0
 302 0010 FEFFFFEB 		bl	memset
 303              	.LVL21:
 304 0014 003000E3 		movw	r3, #:lower16:_ZN6tflite3ops5micro15maximum_minimum4EvalILNS2_12_GLOBAL__N_110KernelTypeE0ENS
 131:../src/tensorflow_lite/tensorflow/lite/micro/kernels/maximum_minimum.cc **** }
 305              		.loc 1 131 0
 306 0018 0400A0E1 		mov	r0, r4
 130:../src/tensorflow_lite/tensorflow/lite/micro/kernels/maximum_minimum.cc **** }
 307              		.loc 1 130 0
 308 001c 003040E3 		movt	r3, #:upper16:_ZN6tflite3ops5micro15maximum_minimum4EvalILNS2_12_GLOBAL__N_110KernelTypeE0ENS
 309 0020 0C3084E5 		str	r3, [r4, #12]
 310              		.loc 1 131 0
 311 0024 1080BDE8 		pop	{r4, pc}
 312              		.cfi_endproc
 313              	.LFE4176:
 314              		.cantunwind
 315              		.fnend
 317              		.section	.text._ZN6tflite3ops5micro16Register_MINIMUMEv,"ax",%progbits
 318              		.align	2
 319              		.global	_ZN6tflite3ops5micro16Register_MINIMUMEv
 320              		.syntax unified
 321              		.arm
 322              		.fpu neon
 324              	_ZN6tflite3ops5micro16Register_MINIMUMEv:
 325              		.fnstart
 326              	.LFB4177:
 132:../src/tensorflow_lite/tensorflow/lite/micro/kernels/maximum_minimum.cc **** 
 133:../src/tensorflow_lite/tensorflow/lite/micro/kernels/maximum_minimum.cc **** TfLiteRegistration Register_MINIMUM() {
 327              		.loc 1 133 0
 328              		.cfi_startproc
 329              		@ args = 0, pretend = 0, frame = 0
 330              		@ frame_needed = 0, uses_anonymous_args = 0
 331              	.LVL22:
 332 0000 10402DE9 		push	{r4, lr}
 333              		.cfi_def_cfa_offset 8
 334              		.cfi_offset 4, -8
 335              		.cfi_offset 14, -4
 134:../src/tensorflow_lite/tensorflow/lite/micro/kernels/maximum_minimum.cc ****   return {/*init=*/nullptr,
 135:../src/tensorflow_lite/tensorflow/lite/micro/kernels/maximum_minimum.cc ****           /*free=*/nullptr,
 136:../src/tensorflow_lite/tensorflow/lite/micro/kernels/maximum_minimum.cc ****           /*prepare=*/nullptr,
 137:../src/tensorflow_lite/tensorflow/lite/micro/kernels/maximum_minimum.cc ****           /*invoke=*/
 138:../src/tensorflow_lite/tensorflow/lite/micro/kernels/maximum_minimum.cc ****           maximum_minimum::Eval<maximum_minimum::kReference,
 139:../src/tensorflow_lite/tensorflow/lite/micro/kernels/maximum_minimum.cc ****                                 maximum_minimum::MinimumOp>,
 140:../src/tensorflow_lite/tensorflow/lite/micro/kernels/maximum_minimum.cc ****           /*profiling_string=*/nullptr,
 141:../src/tensorflow_lite/tensorflow/lite/micro/kernels/maximum_minimum.cc ****           /*builtin_code=*/0,
 142:../src/tensorflow_lite/tensorflow/lite/micro/kernels/maximum_minimum.cc ****           /*custom_name=*/nullptr,
 143:../src/tensorflow_lite/tensorflow/lite/micro/kernels/maximum_minimum.cc ****           /*version=*/0};
 336              		.loc 1 143 0
 337 0004 2020A0E3 		mov	r2, #32
 338 0008 0010A0E3 		mov	r1, #0
 133:../src/tensorflow_lite/tensorflow/lite/micro/kernels/maximum_minimum.cc ****   return {/*init=*/nullptr,
 339              		.loc 1 133 0
 340 000c 0040A0E1 		mov	r4, r0
 341              		.loc 1 143 0
 342 0010 FEFFFFEB 		bl	memset
 343              	.LVL23:
 344 0014 003000E3 		movw	r3, #:lower16:_ZN6tflite3ops5micro15maximum_minimum4EvalILNS2_12_GLOBAL__N_110KernelTypeE0ENS
 144:../src/tensorflow_lite/tensorflow/lite/micro/kernels/maximum_minimum.cc **** }
 345              		.loc 1 144 0
 346 0018 0400A0E1 		mov	r0, r4
 143:../src/tensorflow_lite/tensorflow/lite/micro/kernels/maximum_minimum.cc **** }
 347              		.loc 1 143 0
 348 001c 003040E3 		movt	r3, #:upper16:_ZN6tflite3ops5micro15maximum_minimum4EvalILNS2_12_GLOBAL__N_110KernelTypeE0ENS
 349 0020 0C3084E5 		str	r3, [r4, #12]
 350              		.loc 1 144 0
 351 0024 1080BDE8 		pop	{r4, pc}
 352              		.cfi_endproc
 353              	.LFE4177:
 354              		.cantunwind
 355              		.fnend
 357              		.section	.text._ZN6tflite13reference_ops27MaximumMinimumBroadcastSlowIfPFfffELi5EEEvRKNS_12Runtime
 358              		.align	2
 359              		.weak	_ZN6tflite13reference_ops27MaximumMinimumBroadcastSlowIfPFfffELi5EEEvRKNS_12RuntimeShapeEPKT
 360              		.syntax unified
 361              		.arm
 362              		.fpu neon
 364              	_ZN6tflite13reference_ops27MaximumMinimumBroadcastSlowIfPFfffELi5EEEvRKNS_12RuntimeShapeEPKT_S6_S9_
 365              		.fnstart
 366              	.LFB4487:
 367              		.file 2 "C:/Renesas/e2studio_2021_01_workspace_RZA2M_ANPR/ANPR_RZA2M_GR_MANGO/src/tensorflow_lite/
   1:C:/Renesas/e2studio_2021_01_workspace_RZA2M_ANPR/ANPR_RZA2M_GR_MANGO/src/tensorflow_lite/tensorflow/lite/kernels/internal/reference\maximum_minimum.h **** /* Copyright 2017 The TensorFlow Authors. All Rights Reserved.
   2:C:/Renesas/e2studio_2021_01_workspace_RZA2M_ANPR/ANPR_RZA2M_GR_MANGO/src/tensorflow_lite/tensorflow/lite/kernels/internal/reference\maximum_minimum.h **** 
   3:C:/Renesas/e2studio_2021_01_workspace_RZA2M_ANPR/ANPR_RZA2M_GR_MANGO/src/tensorflow_lite/tensorflow/lite/kernels/internal/reference\maximum_minimum.h **** Licensed under the Apache License, Version 2.0 (the "License");
   4:C:/Renesas/e2studio_2021_01_workspace_RZA2M_ANPR/ANPR_RZA2M_GR_MANGO/src/tensorflow_lite/tensorflow/lite/kernels/internal/reference\maximum_minimum.h **** you may not use this file except in compliance with the License.
   5:C:/Renesas/e2studio_2021_01_workspace_RZA2M_ANPR/ANPR_RZA2M_GR_MANGO/src/tensorflow_lite/tensorflow/lite/kernels/internal/reference\maximum_minimum.h **** You may obtain a copy of the License at
   6:C:/Renesas/e2studio_2021_01_workspace_RZA2M_ANPR/ANPR_RZA2M_GR_MANGO/src/tensorflow_lite/tensorflow/lite/kernels/internal/reference\maximum_minimum.h **** 
   7:C:/Renesas/e2studio_2021_01_workspace_RZA2M_ANPR/ANPR_RZA2M_GR_MANGO/src/tensorflow_lite/tensorflow/lite/kernels/internal/reference\maximum_minimum.h ****     http://www.apache.org/licenses/LICENSE-2.0
   8:C:/Renesas/e2studio_2021_01_workspace_RZA2M_ANPR/ANPR_RZA2M_GR_MANGO/src/tensorflow_lite/tensorflow/lite/kernels/internal/reference\maximum_minimum.h **** 
   9:C:/Renesas/e2studio_2021_01_workspace_RZA2M_ANPR/ANPR_RZA2M_GR_MANGO/src/tensorflow_lite/tensorflow/lite/kernels/internal/reference\maximum_minimum.h **** Unless required by applicable law or agreed to in writing, software
  10:C:/Renesas/e2studio_2021_01_workspace_RZA2M_ANPR/ANPR_RZA2M_GR_MANGO/src/tensorflow_lite/tensorflow/lite/kernels/internal/reference\maximum_minimum.h **** distributed under the License is distributed on an "AS IS" BASIS,
  11:C:/Renesas/e2studio_2021_01_workspace_RZA2M_ANPR/ANPR_RZA2M_GR_MANGO/src/tensorflow_lite/tensorflow/lite/kernels/internal/reference\maximum_minimum.h **** WITHOUT WARRANTIES OR CONDITIONS OF ANY KIND, either express or implied.
  12:C:/Renesas/e2studio_2021_01_workspace_RZA2M_ANPR/ANPR_RZA2M_GR_MANGO/src/tensorflow_lite/tensorflow/lite/kernels/internal/reference\maximum_minimum.h **** See the License for the specific language governing permissions and
  13:C:/Renesas/e2studio_2021_01_workspace_RZA2M_ANPR/ANPR_RZA2M_GR_MANGO/src/tensorflow_lite/tensorflow/lite/kernels/internal/reference\maximum_minimum.h **** limitations under the License.
  14:C:/Renesas/e2studio_2021_01_workspace_RZA2M_ANPR/ANPR_RZA2M_GR_MANGO/src/tensorflow_lite/tensorflow/lite/kernels/internal/reference\maximum_minimum.h **** ==============================================================================*/
  15:C:/Renesas/e2studio_2021_01_workspace_RZA2M_ANPR/ANPR_RZA2M_GR_MANGO/src/tensorflow_lite/tensorflow/lite/kernels/internal/reference\maximum_minimum.h **** #ifndef TENSORFLOW_LITE_KERNELS_INTERNAL_REFERENCE_MAXIMUM_MINIMUM_H_
  16:C:/Renesas/e2studio_2021_01_workspace_RZA2M_ANPR/ANPR_RZA2M_GR_MANGO/src/tensorflow_lite/tensorflow/lite/kernels/internal/reference\maximum_minimum.h **** #define TENSORFLOW_LITE_KERNELS_INTERNAL_REFERENCE_MAXIMUM_MINIMUM_H_
  17:C:/Renesas/e2studio_2021_01_workspace_RZA2M_ANPR/ANPR_RZA2M_GR_MANGO/src/tensorflow_lite/tensorflow/lite/kernels/internal/reference\maximum_minimum.h **** 
  18:C:/Renesas/e2studio_2021_01_workspace_RZA2M_ANPR/ANPR_RZA2M_GR_MANGO/src/tensorflow_lite/tensorflow/lite/kernels/internal/reference\maximum_minimum.h **** #include "tensorflow/lite/kernels/internal/common.h"
  19:C:/Renesas/e2studio_2021_01_workspace_RZA2M_ANPR/ANPR_RZA2M_GR_MANGO/src/tensorflow_lite/tensorflow/lite/kernels/internal/reference\maximum_minimum.h **** #include "tensorflow/lite/kernels/internal/types.h"
  20:C:/Renesas/e2studio_2021_01_workspace_RZA2M_ANPR/ANPR_RZA2M_GR_MANGO/src/tensorflow_lite/tensorflow/lite/kernels/internal/reference\maximum_minimum.h **** 
  21:C:/Renesas/e2studio_2021_01_workspace_RZA2M_ANPR/ANPR_RZA2M_GR_MANGO/src/tensorflow_lite/tensorflow/lite/kernels/internal/reference\maximum_minimum.h **** namespace tflite {
  22:C:/Renesas/e2studio_2021_01_workspace_RZA2M_ANPR/ANPR_RZA2M_GR_MANGO/src/tensorflow_lite/tensorflow/lite/kernels/internal/reference\maximum_minimum.h **** namespace reference_ops {
  23:C:/Renesas/e2studio_2021_01_workspace_RZA2M_ANPR/ANPR_RZA2M_GR_MANGO/src/tensorflow_lite/tensorflow/lite/kernels/internal/reference\maximum_minimum.h **** 
  24:C:/Renesas/e2studio_2021_01_workspace_RZA2M_ANPR/ANPR_RZA2M_GR_MANGO/src/tensorflow_lite/tensorflow/lite/kernels/internal/reference\maximum_minimum.h **** template <typename T, typename Op, int N = 5>
  25:C:/Renesas/e2studio_2021_01_workspace_RZA2M_ANPR/ANPR_RZA2M_GR_MANGO/src/tensorflow_lite/tensorflow/lite/kernels/internal/reference\maximum_minimum.h **** void MaximumMinimumBroadcastSlow(const RuntimeShape& unextended_input1_shape,
 368              		.loc 2 25 0
 369              		.cfi_startproc
 370              		.cfi_personality 0,__gxx_personality_v0
 371              		.cfi_lsda 0,.LLSDA4487
 372              		@ args = 12, pretend = 0, frame = 208
 373              		@ frame_needed = 0, uses_anonymous_args = 0
 374              	.LVL24:
 375 0000 F04F2DE9 		push	{r4, r5, r6, r7, r8, r9, r10, fp, lr}
 376              		.save {r4, r5, r6, r7, r8, r9, r10, fp, lr}
 377              		.cfi_def_cfa_offset 36
 378              		.cfi_offset 4, -36
 379              		.cfi_offset 5, -32
 380              		.cfi_offset 6, -28
 381              		.cfi_offset 7, -24
 382              		.cfi_offset 8, -20
 383              		.cfi_offset 9, -16
 384              		.cfi_offset 10, -12
 385              		.cfi_offset 11, -8
 386              		.cfi_offset 14, -4
 387              		.pad #212
 388 0004 D4D04DE2 		sub	sp, sp, #212
 389              		.cfi_def_cfa_offset 248
 390              	.LBB782:
 391              	.LBB783:
 392              		.file 3 "C:/Renesas/e2studio_2021_01_workspace_RZA2M_ANPR/ANPR_RZA2M_GR_MANGO/src/tensorflow_lite/
   1:C:/Renesas/e2studio_2021_01_workspace_RZA2M_ANPR/ANPR_RZA2M_GR_MANGO/src/tensorflow_lite/tensorflow/lite/kernels/internal\types.h **** /* Copyright 2018 The TensorFlow Authors. All Rights Reserved.
   2:C:/Renesas/e2studio_2021_01_workspace_RZA2M_ANPR/ANPR_RZA2M_GR_MANGO/src/tensorflow_lite/tensorflow/lite/kernels/internal\types.h **** 
   3:C:/Renesas/e2studio_2021_01_workspace_RZA2M_ANPR/ANPR_RZA2M_GR_MANGO/src/tensorflow_lite/tensorflow/lite/kernels/internal\types.h **** Licensed under the Apache License, Version 2.0 (the "License");
   4:C:/Renesas/e2studio_2021_01_workspace_RZA2M_ANPR/ANPR_RZA2M_GR_MANGO/src/tensorflow_lite/tensorflow/lite/kernels/internal\types.h **** you may not use this file except in compliance with the License.
   5:C:/Renesas/e2studio_2021_01_workspace_RZA2M_ANPR/ANPR_RZA2M_GR_MANGO/src/tensorflow_lite/tensorflow/lite/kernels/internal\types.h **** You may obtain a copy of the License at
   6:C:/Renesas/e2studio_2021_01_workspace_RZA2M_ANPR/ANPR_RZA2M_GR_MANGO/src/tensorflow_lite/tensorflow/lite/kernels/internal\types.h **** 
   7:C:/Renesas/e2studio_2021_01_workspace_RZA2M_ANPR/ANPR_RZA2M_GR_MANGO/src/tensorflow_lite/tensorflow/lite/kernels/internal\types.h ****     http://www.apache.org/licenses/LICENSE-2.0
   8:C:/Renesas/e2studio_2021_01_workspace_RZA2M_ANPR/ANPR_RZA2M_GR_MANGO/src/tensorflow_lite/tensorflow/lite/kernels/internal\types.h **** 
   9:C:/Renesas/e2studio_2021_01_workspace_RZA2M_ANPR/ANPR_RZA2M_GR_MANGO/src/tensorflow_lite/tensorflow/lite/kernels/internal\types.h **** Unless required by applicable law or agreed to in writing, software
  10:C:/Renesas/e2studio_2021_01_workspace_RZA2M_ANPR/ANPR_RZA2M_GR_MANGO/src/tensorflow_lite/tensorflow/lite/kernels/internal\types.h **** distributed under the License is distributed on an "AS IS" BASIS,
  11:C:/Renesas/e2studio_2021_01_workspace_RZA2M_ANPR/ANPR_RZA2M_GR_MANGO/src/tensorflow_lite/tensorflow/lite/kernels/internal\types.h **** WITHOUT WARRANTIES OR CONDITIONS OF ANY KIND, either express or implied.
  12:C:/Renesas/e2studio_2021_01_workspace_RZA2M_ANPR/ANPR_RZA2M_GR_MANGO/src/tensorflow_lite/tensorflow/lite/kernels/internal\types.h **** See the License for the specific language governing permissions and
  13:C:/Renesas/e2studio_2021_01_workspace_RZA2M_ANPR/ANPR_RZA2M_GR_MANGO/src/tensorflow_lite/tensorflow/lite/kernels/internal\types.h **** limitations under the License.
  14:C:/Renesas/e2studio_2021_01_workspace_RZA2M_ANPR/ANPR_RZA2M_GR_MANGO/src/tensorflow_lite/tensorflow/lite/kernels/internal\types.h **** ==============================================================================*/
  15:C:/Renesas/e2studio_2021_01_workspace_RZA2M_ANPR/ANPR_RZA2M_GR_MANGO/src/tensorflow_lite/tensorflow/lite/kernels/internal\types.h **** #ifndef TENSORFLOW_LITE_KERNELS_INTERNAL_TYPES_H_
  16:C:/Renesas/e2studio_2021_01_workspace_RZA2M_ANPR/ANPR_RZA2M_GR_MANGO/src/tensorflow_lite/tensorflow/lite/kernels/internal\types.h **** #define TENSORFLOW_LITE_KERNELS_INTERNAL_TYPES_H_
  17:C:/Renesas/e2studio_2021_01_workspace_RZA2M_ANPR/ANPR_RZA2M_GR_MANGO/src/tensorflow_lite/tensorflow/lite/kernels/internal\types.h **** 
  18:C:/Renesas/e2studio_2021_01_workspace_RZA2M_ANPR/ANPR_RZA2M_GR_MANGO/src/tensorflow_lite/tensorflow/lite/kernels/internal\types.h **** #include <algorithm>
  19:C:/Renesas/e2studio_2021_01_workspace_RZA2M_ANPR/ANPR_RZA2M_GR_MANGO/src/tensorflow_lite/tensorflow/lite/kernels/internal\types.h **** #include <cstdint>
  20:C:/Renesas/e2studio_2021_01_workspace_RZA2M_ANPR/ANPR_RZA2M_GR_MANGO/src/tensorflow_lite/tensorflow/lite/kernels/internal\types.h **** #include <cstring>
  21:C:/Renesas/e2studio_2021_01_workspace_RZA2M_ANPR/ANPR_RZA2M_GR_MANGO/src/tensorflow_lite/tensorflow/lite/kernels/internal\types.h **** #include <initializer_list>
  22:C:/Renesas/e2studio_2021_01_workspace_RZA2M_ANPR/ANPR_RZA2M_GR_MANGO/src/tensorflow_lite/tensorflow/lite/kernels/internal\types.h **** 
  23:C:/Renesas/e2studio_2021_01_workspace_RZA2M_ANPR/ANPR_RZA2M_GR_MANGO/src/tensorflow_lite/tensorflow/lite/kernels/internal\types.h **** #include "tensorflow/lite/kernels/internal/compatibility.h"
  24:C:/Renesas/e2studio_2021_01_workspace_RZA2M_ANPR/ANPR_RZA2M_GR_MANGO/src/tensorflow_lite/tensorflow/lite/kernels/internal\types.h **** 
  25:C:/Renesas/e2studio_2021_01_workspace_RZA2M_ANPR/ANPR_RZA2M_GR_MANGO/src/tensorflow_lite/tensorflow/lite/kernels/internal\types.h **** namespace tflite {
  26:C:/Renesas/e2studio_2021_01_workspace_RZA2M_ANPR/ANPR_RZA2M_GR_MANGO/src/tensorflow_lite/tensorflow/lite/kernels/internal\types.h **** 
  27:C:/Renesas/e2studio_2021_01_workspace_RZA2M_ANPR/ANPR_RZA2M_GR_MANGO/src/tensorflow_lite/tensorflow/lite/kernels/internal\types.h **** enum class FusedActivationFunctionType : uint8_t {
  28:C:/Renesas/e2studio_2021_01_workspace_RZA2M_ANPR/ANPR_RZA2M_GR_MANGO/src/tensorflow_lite/tensorflow/lite/kernels/internal\types.h ****   kNone,
  29:C:/Renesas/e2studio_2021_01_workspace_RZA2M_ANPR/ANPR_RZA2M_GR_MANGO/src/tensorflow_lite/tensorflow/lite/kernels/internal\types.h ****   kRelu6,
  30:C:/Renesas/e2studio_2021_01_workspace_RZA2M_ANPR/ANPR_RZA2M_GR_MANGO/src/tensorflow_lite/tensorflow/lite/kernels/internal\types.h ****   kRelu1,
  31:C:/Renesas/e2studio_2021_01_workspace_RZA2M_ANPR/ANPR_RZA2M_GR_MANGO/src/tensorflow_lite/tensorflow/lite/kernels/internal\types.h ****   kRelu
  32:C:/Renesas/e2studio_2021_01_workspace_RZA2M_ANPR/ANPR_RZA2M_GR_MANGO/src/tensorflow_lite/tensorflow/lite/kernels/internal\types.h **** };
  33:C:/Renesas/e2studio_2021_01_workspace_RZA2M_ANPR/ANPR_RZA2M_GR_MANGO/src/tensorflow_lite/tensorflow/lite/kernels/internal\types.h **** enum class PaddingType : uint8_t { kNone, kSame, kValid };
  34:C:/Renesas/e2studio_2021_01_workspace_RZA2M_ANPR/ANPR_RZA2M_GR_MANGO/src/tensorflow_lite/tensorflow/lite/kernels/internal\types.h **** 
  35:C:/Renesas/e2studio_2021_01_workspace_RZA2M_ANPR/ANPR_RZA2M_GR_MANGO/src/tensorflow_lite/tensorflow/lite/kernels/internal\types.h **** struct PaddingValues {
  36:C:/Renesas/e2studio_2021_01_workspace_RZA2M_ANPR/ANPR_RZA2M_GR_MANGO/src/tensorflow_lite/tensorflow/lite/kernels/internal\types.h ****   int16_t width;
  37:C:/Renesas/e2studio_2021_01_workspace_RZA2M_ANPR/ANPR_RZA2M_GR_MANGO/src/tensorflow_lite/tensorflow/lite/kernels/internal\types.h ****   int16_t height;
  38:C:/Renesas/e2studio_2021_01_workspace_RZA2M_ANPR/ANPR_RZA2M_GR_MANGO/src/tensorflow_lite/tensorflow/lite/kernels/internal\types.h ****   // offset is used for calculating "remaining" padding, for example, `width`
  39:C:/Renesas/e2studio_2021_01_workspace_RZA2M_ANPR/ANPR_RZA2M_GR_MANGO/src/tensorflow_lite/tensorflow/lite/kernels/internal\types.h ****   // is 1 and `width_offset` is 1, so padding_left is 1 while padding_right is
  40:C:/Renesas/e2studio_2021_01_workspace_RZA2M_ANPR/ANPR_RZA2M_GR_MANGO/src/tensorflow_lite/tensorflow/lite/kernels/internal\types.h ****   // 1 + 1 = 2.
  41:C:/Renesas/e2studio_2021_01_workspace_RZA2M_ANPR/ANPR_RZA2M_GR_MANGO/src/tensorflow_lite/tensorflow/lite/kernels/internal\types.h ****   int16_t width_offset;
  42:C:/Renesas/e2studio_2021_01_workspace_RZA2M_ANPR/ANPR_RZA2M_GR_MANGO/src/tensorflow_lite/tensorflow/lite/kernels/internal\types.h ****   // Same as width_offset except it's over the height dimension.
  43:C:/Renesas/e2studio_2021_01_workspace_RZA2M_ANPR/ANPR_RZA2M_GR_MANGO/src/tensorflow_lite/tensorflow/lite/kernels/internal\types.h ****   int16_t height_offset;
  44:C:/Renesas/e2studio_2021_01_workspace_RZA2M_ANPR/ANPR_RZA2M_GR_MANGO/src/tensorflow_lite/tensorflow/lite/kernels/internal\types.h **** };
  45:C:/Renesas/e2studio_2021_01_workspace_RZA2M_ANPR/ANPR_RZA2M_GR_MANGO/src/tensorflow_lite/tensorflow/lite/kernels/internal\types.h **** 
  46:C:/Renesas/e2studio_2021_01_workspace_RZA2M_ANPR/ANPR_RZA2M_GR_MANGO/src/tensorflow_lite/tensorflow/lite/kernels/internal\types.h **** struct Padding3DValues {
  47:C:/Renesas/e2studio_2021_01_workspace_RZA2M_ANPR/ANPR_RZA2M_GR_MANGO/src/tensorflow_lite/tensorflow/lite/kernels/internal\types.h ****   int16_t width;
  48:C:/Renesas/e2studio_2021_01_workspace_RZA2M_ANPR/ANPR_RZA2M_GR_MANGO/src/tensorflow_lite/tensorflow/lite/kernels/internal\types.h ****   int16_t height;
  49:C:/Renesas/e2studio_2021_01_workspace_RZA2M_ANPR/ANPR_RZA2M_GR_MANGO/src/tensorflow_lite/tensorflow/lite/kernels/internal\types.h ****   int16_t depth;
  50:C:/Renesas/e2studio_2021_01_workspace_RZA2M_ANPR/ANPR_RZA2M_GR_MANGO/src/tensorflow_lite/tensorflow/lite/kernels/internal\types.h ****   // offset is used for calculating "remaining" padding, for example, `width`
  51:C:/Renesas/e2studio_2021_01_workspace_RZA2M_ANPR/ANPR_RZA2M_GR_MANGO/src/tensorflow_lite/tensorflow/lite/kernels/internal\types.h ****   // is 1 and `width_offset` is 1, so padding_left is 1 while padding_right is
  52:C:/Renesas/e2studio_2021_01_workspace_RZA2M_ANPR/ANPR_RZA2M_GR_MANGO/src/tensorflow_lite/tensorflow/lite/kernels/internal\types.h ****   // 1 + 1 = 2.
  53:C:/Renesas/e2studio_2021_01_workspace_RZA2M_ANPR/ANPR_RZA2M_GR_MANGO/src/tensorflow_lite/tensorflow/lite/kernels/internal\types.h ****   int16_t width_offset;
  54:C:/Renesas/e2studio_2021_01_workspace_RZA2M_ANPR/ANPR_RZA2M_GR_MANGO/src/tensorflow_lite/tensorflow/lite/kernels/internal\types.h ****   // Same as width_offset except it's over the height dimension.
  55:C:/Renesas/e2studio_2021_01_workspace_RZA2M_ANPR/ANPR_RZA2M_GR_MANGO/src/tensorflow_lite/tensorflow/lite/kernels/internal\types.h ****   int16_t height_offset;
  56:C:/Renesas/e2studio_2021_01_workspace_RZA2M_ANPR/ANPR_RZA2M_GR_MANGO/src/tensorflow_lite/tensorflow/lite/kernels/internal\types.h ****   // Same as width_offset except it's over the depth dimension.
  57:C:/Renesas/e2studio_2021_01_workspace_RZA2M_ANPR/ANPR_RZA2M_GR_MANGO/src/tensorflow_lite/tensorflow/lite/kernels/internal\types.h ****   int16_t depth_offset;
  58:C:/Renesas/e2studio_2021_01_workspace_RZA2M_ANPR/ANPR_RZA2M_GR_MANGO/src/tensorflow_lite/tensorflow/lite/kernels/internal\types.h **** };
  59:C:/Renesas/e2studio_2021_01_workspace_RZA2M_ANPR/ANPR_RZA2M_GR_MANGO/src/tensorflow_lite/tensorflow/lite/kernels/internal\types.h **** 
  60:C:/Renesas/e2studio_2021_01_workspace_RZA2M_ANPR/ANPR_RZA2M_GR_MANGO/src/tensorflow_lite/tensorflow/lite/kernels/internal\types.h **** // This enumeration allows for non-default formats for the weights array
  61:C:/Renesas/e2studio_2021_01_workspace_RZA2M_ANPR/ANPR_RZA2M_GR_MANGO/src/tensorflow_lite/tensorflow/lite/kernels/internal\types.h **** // of a fully-connected operator, allowing the use of special optimized
  62:C:/Renesas/e2studio_2021_01_workspace_RZA2M_ANPR/ANPR_RZA2M_GR_MANGO/src/tensorflow_lite/tensorflow/lite/kernels/internal\types.h **** // runtime paths.
  63:C:/Renesas/e2studio_2021_01_workspace_RZA2M_ANPR/ANPR_RZA2M_GR_MANGO/src/tensorflow_lite/tensorflow/lite/kernels/internal\types.h **** enum class FullyConnectedWeightsFormat : uint8_t {
  64:C:/Renesas/e2studio_2021_01_workspace_RZA2M_ANPR/ANPR_RZA2M_GR_MANGO/src/tensorflow_lite/tensorflow/lite/kernels/internal\types.h ****   // Default format (flat 2D layout, the inner contiguous dimension
  65:C:/Renesas/e2studio_2021_01_workspace_RZA2M_ANPR/ANPR_RZA2M_GR_MANGO/src/tensorflow_lite/tensorflow/lite/kernels/internal\types.h ****   // is input_depth, the outer non-contiguous dimension is output_depth)
  66:C:/Renesas/e2studio_2021_01_workspace_RZA2M_ANPR/ANPR_RZA2M_GR_MANGO/src/tensorflow_lite/tensorflow/lite/kernels/internal\types.h ****   kDefault,
  67:C:/Renesas/e2studio_2021_01_workspace_RZA2M_ANPR/ANPR_RZA2M_GR_MANGO/src/tensorflow_lite/tensorflow/lite/kernels/internal\types.h ****   // Summary: optimized layout for fast CPU runtime implementation,
  68:C:/Renesas/e2studio_2021_01_workspace_RZA2M_ANPR/ANPR_RZA2M_GR_MANGO/src/tensorflow_lite/tensorflow/lite/kernels/internal\types.h ****   // aimed specifically at ARM CPUs at the moment, and specialized for
  69:C:/Renesas/e2studio_2021_01_workspace_RZA2M_ANPR/ANPR_RZA2M_GR_MANGO/src/tensorflow_lite/tensorflow/lite/kernels/internal\types.h ****   // 8-bit quantized layers.
  70:C:/Renesas/e2studio_2021_01_workspace_RZA2M_ANPR/ANPR_RZA2M_GR_MANGO/src/tensorflow_lite/tensorflow/lite/kernels/internal\types.h ****   //
  71:C:/Renesas/e2studio_2021_01_workspace_RZA2M_ANPR/ANPR_RZA2M_GR_MANGO/src/tensorflow_lite/tensorflow/lite/kernels/internal\types.h ****   // The use case we're concerned with here is: 8-bit quantization,
  72:C:/Renesas/e2studio_2021_01_workspace_RZA2M_ANPR/ANPR_RZA2M_GR_MANGO/src/tensorflow_lite/tensorflow/lite/kernels/internal\types.h ****   // large weights matrix that doesn't fit in cache (e.g. 4096x2048 in
  73:C:/Renesas/e2studio_2021_01_workspace_RZA2M_ANPR/ANPR_RZA2M_GR_MANGO/src/tensorflow_lite/tensorflow/lite/kernels/internal\types.h ****   // a key application that drove this), very small batch size (e.g. 1 -- 4).
  74:C:/Renesas/e2studio_2021_01_workspace_RZA2M_ANPR/ANPR_RZA2M_GR_MANGO/src/tensorflow_lite/tensorflow/lite/kernels/internal\types.h ****   //
  75:C:/Renesas/e2studio_2021_01_workspace_RZA2M_ANPR/ANPR_RZA2M_GR_MANGO/src/tensorflow_lite/tensorflow/lite/kernels/internal\types.h ****   // Even with 8-bit quantization of weights, the performance of memory
  76:C:/Renesas/e2studio_2021_01_workspace_RZA2M_ANPR/ANPR_RZA2M_GR_MANGO/src/tensorflow_lite/tensorflow/lite/kernels/internal\types.h ****   // accesses to the weights can become the dominant issue when
  77:C:/Renesas/e2studio_2021_01_workspace_RZA2M_ANPR/ANPR_RZA2M_GR_MANGO/src/tensorflow_lite/tensorflow/lite/kernels/internal\types.h ****   // the batch size is small, so each weight value is used in only a few
  78:C:/Renesas/e2studio_2021_01_workspace_RZA2M_ANPR/ANPR_RZA2M_GR_MANGO/src/tensorflow_lite/tensorflow/lite/kernels/internal\types.h ****   // arithmetic ops, i.e. the fully-connected node has a low arithmetic
  79:C:/Renesas/e2studio_2021_01_workspace_RZA2M_ANPR/ANPR_RZA2M_GR_MANGO/src/tensorflow_lite/tensorflow/lite/kernels/internal\types.h ****   // intensity. The specific issues that arise are of three kinds:
  80:C:/Renesas/e2studio_2021_01_workspace_RZA2M_ANPR/ANPR_RZA2M_GR_MANGO/src/tensorflow_lite/tensorflow/lite/kernels/internal\types.h ****   // (1) One may, ideally, max out DRAM bandwidth, i.e. be truly memory
  81:C:/Renesas/e2studio_2021_01_workspace_RZA2M_ANPR/ANPR_RZA2M_GR_MANGO/src/tensorflow_lite/tensorflow/lite/kernels/internal\types.h ****   //     bound. That's the "good" issue to run into.
  82:C:/Renesas/e2studio_2021_01_workspace_RZA2M_ANPR/ANPR_RZA2M_GR_MANGO/src/tensorflow_lite/tensorflow/lite/kernels/internal\types.h ****   // (2) One may run into sub-optimal pre-fetching: the data hasn't been
  83:C:/Renesas/e2studio_2021_01_workspace_RZA2M_ANPR/ANPR_RZA2M_GR_MANGO/src/tensorflow_lite/tensorflow/lite/kernels/internal\types.h ****   //     prefetched into the cache by the time we need it.
  84:C:/Renesas/e2studio_2021_01_workspace_RZA2M_ANPR/ANPR_RZA2M_GR_MANGO/src/tensorflow_lite/tensorflow/lite/kernels/internal\types.h ****   // (3) One may run into cache aliasing: multiple values that are
  85:C:/Renesas/e2studio_2021_01_workspace_RZA2M_ANPR/ANPR_RZA2M_GR_MANGO/src/tensorflow_lite/tensorflow/lite/kernels/internal\types.h ****   //     pre-fetched, alias each other in the L1 cache (which typically
  86:C:/Renesas/e2studio_2021_01_workspace_RZA2M_ANPR/ANPR_RZA2M_GR_MANGO/src/tensorflow_lite/tensorflow/lite/kernels/internal\types.h ****   //     has only 4-way set associativity in ARM CPUs) and thus evict
  87:C:/Renesas/e2studio_2021_01_workspace_RZA2M_ANPR/ANPR_RZA2M_GR_MANGO/src/tensorflow_lite/tensorflow/lite/kernels/internal\types.h ****   //     each other before we get to using them.
  88:C:/Renesas/e2studio_2021_01_workspace_RZA2M_ANPR/ANPR_RZA2M_GR_MANGO/src/tensorflow_lite/tensorflow/lite/kernels/internal\types.h ****   //
  89:C:/Renesas/e2studio_2021_01_workspace_RZA2M_ANPR/ANPR_RZA2M_GR_MANGO/src/tensorflow_lite/tensorflow/lite/kernels/internal\types.h ****   // The point of this shuffling is to avoid issues (2) and (3) so that
  90:C:/Renesas/e2studio_2021_01_workspace_RZA2M_ANPR/ANPR_RZA2M_GR_MANGO/src/tensorflow_lite/tensorflow/lite/kernels/internal\types.h ****   // we get as fast as possible given only the hard constraint (1).
  91:C:/Renesas/e2studio_2021_01_workspace_RZA2M_ANPR/ANPR_RZA2M_GR_MANGO/src/tensorflow_lite/tensorflow/lite/kernels/internal\types.h ****   // This is achieved by turning the difficulty into a solution: the
  92:C:/Renesas/e2studio_2021_01_workspace_RZA2M_ANPR/ANPR_RZA2M_GR_MANGO/src/tensorflow_lite/tensorflow/lite/kernels/internal\types.h ****   // difficulty, that each value loaded from memory is used only in
  93:C:/Renesas/e2studio_2021_01_workspace_RZA2M_ANPR/ANPR_RZA2M_GR_MANGO/src/tensorflow_lite/tensorflow/lite/kernels/internal\types.h ****   // one kernel iteration, making this operation memory-intensive, hints at
  94:C:/Renesas/e2studio_2021_01_workspace_RZA2M_ANPR/ANPR_RZA2M_GR_MANGO/src/tensorflow_lite/tensorflow/lite/kernels/internal\types.h ****   // the solution, of shuffling the weights so that they are stored in the
  95:C:/Renesas/e2studio_2021_01_workspace_RZA2M_ANPR/ANPR_RZA2M_GR_MANGO/src/tensorflow_lite/tensorflow/lite/kernels/internal\types.h ****   // exact order as the kernel needs to load them, so that the memory
  96:C:/Renesas/e2studio_2021_01_workspace_RZA2M_ANPR/ANPR_RZA2M_GR_MANGO/src/tensorflow_lite/tensorflow/lite/kernels/internal\types.h ****   // accesses made by the kernel are trivial. This solves (2) because the
  97:C:/Renesas/e2studio_2021_01_workspace_RZA2M_ANPR/ANPR_RZA2M_GR_MANGO/src/tensorflow_lite/tensorflow/lite/kernels/internal\types.h ****   // trivial memory access pattern allows the CPU's automatic prefetching
  98:C:/Renesas/e2studio_2021_01_workspace_RZA2M_ANPR/ANPR_RZA2M_GR_MANGO/src/tensorflow_lite/tensorflow/lite/kernels/internal\types.h ****   // to perform very well (no need even for preload instructions), and this
  99:C:/Renesas/e2studio_2021_01_workspace_RZA2M_ANPR/ANPR_RZA2M_GR_MANGO/src/tensorflow_lite/tensorflow/lite/kernels/internal\types.h ****   // solves (3) because the values being loaded concurrently are now
 100:C:/Renesas/e2studio_2021_01_workspace_RZA2M_ANPR/ANPR_RZA2M_GR_MANGO/src/tensorflow_lite/tensorflow/lite/kernels/internal\types.h ****   // contiguous in the address space, thus don't alias each other in the cache.
 101:C:/Renesas/e2studio_2021_01_workspace_RZA2M_ANPR/ANPR_RZA2M_GR_MANGO/src/tensorflow_lite/tensorflow/lite/kernels/internal\types.h ****   //
 102:C:/Renesas/e2studio_2021_01_workspace_RZA2M_ANPR/ANPR_RZA2M_GR_MANGO/src/tensorflow_lite/tensorflow/lite/kernels/internal\types.h ****   // On ARM, we typically want our kernel to process a 4x16 block of weights
 103:C:/Renesas/e2studio_2021_01_workspace_RZA2M_ANPR/ANPR_RZA2M_GR_MANGO/src/tensorflow_lite/tensorflow/lite/kernels/internal\types.h ****   // at a time, because:
 104:C:/Renesas/e2studio_2021_01_workspace_RZA2M_ANPR/ANPR_RZA2M_GR_MANGO/src/tensorflow_lite/tensorflow/lite/kernels/internal\types.h ****   //   - 16 is the number of bytes in a NEON register.
 105:C:/Renesas/e2studio_2021_01_workspace_RZA2M_ANPR/ANPR_RZA2M_GR_MANGO/src/tensorflow_lite/tensorflow/lite/kernels/internal\types.h ****   //   - 4 is how many rows we need to handle concurrently in the kernel in
 106:C:/Renesas/e2studio_2021_01_workspace_RZA2M_ANPR/ANPR_RZA2M_GR_MANGO/src/tensorflow_lite/tensorflow/lite/kernels/internal\types.h ****   //     order to have sufficient mutual independence of instructions to
 107:C:/Renesas/e2studio_2021_01_workspace_RZA2M_ANPR/ANPR_RZA2M_GR_MANGO/src/tensorflow_lite/tensorflow/lite/kernels/internal\types.h ****   //     maximize arithmetic throughput.
 108:C:/Renesas/e2studio_2021_01_workspace_RZA2M_ANPR/ANPR_RZA2M_GR_MANGO/src/tensorflow_lite/tensorflow/lite/kernels/internal\types.h ****   //
 109:C:/Renesas/e2studio_2021_01_workspace_RZA2M_ANPR/ANPR_RZA2M_GR_MANGO/src/tensorflow_lite/tensorflow/lite/kernels/internal\types.h ****   // Finally, the 'Int8' part in the name refers to the fact that this
 110:C:/Renesas/e2studio_2021_01_workspace_RZA2M_ANPR/ANPR_RZA2M_GR_MANGO/src/tensorflow_lite/tensorflow/lite/kernels/internal\types.h ****   // weights format has each weights value encoded as a signed int8_t value,
 111:C:/Renesas/e2studio_2021_01_workspace_RZA2M_ANPR/ANPR_RZA2M_GR_MANGO/src/tensorflow_lite/tensorflow/lite/kernels/internal\types.h ****   // even if the data type of the weights buffer is uint8_t.  This is intended
 112:C:/Renesas/e2studio_2021_01_workspace_RZA2M_ANPR/ANPR_RZA2M_GR_MANGO/src/tensorflow_lite/tensorflow/lite/kernels/internal\types.h ****   // to save runtime kernels the effort to have to XOR the top bit of these
 113:C:/Renesas/e2studio_2021_01_workspace_RZA2M_ANPR/ANPR_RZA2M_GR_MANGO/src/tensorflow_lite/tensorflow/lite/kernels/internal\types.h ****   // bytes before using them in signed arithmetic, see this file for more
 114:C:/Renesas/e2studio_2021_01_workspace_RZA2M_ANPR/ANPR_RZA2M_GR_MANGO/src/tensorflow_lite/tensorflow/lite/kernels/internal\types.h ****   // explanations on the 'signed int8_t trick' in matrix multiplication kernels:
 115:C:/Renesas/e2studio_2021_01_workspace_RZA2M_ANPR/ANPR_RZA2M_GR_MANGO/src/tensorflow_lite/tensorflow/lite/kernels/internal\types.h ****   //
 116:C:/Renesas/e2studio_2021_01_workspace_RZA2M_ANPR/ANPR_RZA2M_GR_MANGO/src/tensorflow_lite/tensorflow/lite/kernels/internal\types.h ****   //   tensorflow/lite/toco/graph_transformations/ensure_uint8_weights_safe_for_fast_int8_kernels.c
 117:C:/Renesas/e2studio_2021_01_workspace_RZA2M_ANPR/ANPR_RZA2M_GR_MANGO/src/tensorflow_lite/tensorflow/lite/kernels/internal\types.h ****   //
 118:C:/Renesas/e2studio_2021_01_workspace_RZA2M_ANPR/ANPR_RZA2M_GR_MANGO/src/tensorflow_lite/tensorflow/lite/kernels/internal\types.h ****   kShuffled4x16Int8,
 119:C:/Renesas/e2studio_2021_01_workspace_RZA2M_ANPR/ANPR_RZA2M_GR_MANGO/src/tensorflow_lite/tensorflow/lite/kernels/internal\types.h **** };
 120:C:/Renesas/e2studio_2021_01_workspace_RZA2M_ANPR/ANPR_RZA2M_GR_MANGO/src/tensorflow_lite/tensorflow/lite/kernels/internal\types.h **** 
 121:C:/Renesas/e2studio_2021_01_workspace_RZA2M_ANPR/ANPR_RZA2M_GR_MANGO/src/tensorflow_lite/tensorflow/lite/kernels/internal\types.h **** // Quantization parameters, determining the mapping of quantized values
 122:C:/Renesas/e2studio_2021_01_workspace_RZA2M_ANPR/ANPR_RZA2M_GR_MANGO/src/tensorflow_lite/tensorflow/lite/kernels/internal\types.h **** // to real values (i.e. determining how quantized values are mathematically
 123:C:/Renesas/e2studio_2021_01_workspace_RZA2M_ANPR/ANPR_RZA2M_GR_MANGO/src/tensorflow_lite/tensorflow/lite/kernels/internal\types.h **** // interpreted).
 124:C:/Renesas/e2studio_2021_01_workspace_RZA2M_ANPR/ANPR_RZA2M_GR_MANGO/src/tensorflow_lite/tensorflow/lite/kernels/internal\types.h **** //
 125:C:/Renesas/e2studio_2021_01_workspace_RZA2M_ANPR/ANPR_RZA2M_GR_MANGO/src/tensorflow_lite/tensorflow/lite/kernels/internal\types.h **** // The correspondence is as follows:
 126:C:/Renesas/e2studio_2021_01_workspace_RZA2M_ANPR/ANPR_RZA2M_GR_MANGO/src/tensorflow_lite/tensorflow/lite/kernels/internal\types.h **** //
 127:C:/Renesas/e2studio_2021_01_workspace_RZA2M_ANPR/ANPR_RZA2M_GR_MANGO/src/tensorflow_lite/tensorflow/lite/kernels/internal\types.h **** //   real_value = scale * (quantized_value - zero_point);
 128:C:/Renesas/e2studio_2021_01_workspace_RZA2M_ANPR/ANPR_RZA2M_GR_MANGO/src/tensorflow_lite/tensorflow/lite/kernels/internal\types.h **** //
 129:C:/Renesas/e2studio_2021_01_workspace_RZA2M_ANPR/ANPR_RZA2M_GR_MANGO/src/tensorflow_lite/tensorflow/lite/kernels/internal\types.h **** // In other words, zero_point designates which quantized value corresponds to
 130:C:/Renesas/e2studio_2021_01_workspace_RZA2M_ANPR/ANPR_RZA2M_GR_MANGO/src/tensorflow_lite/tensorflow/lite/kernels/internal\types.h **** // the real 0 value, and scale designates the difference between the real values
 131:C:/Renesas/e2studio_2021_01_workspace_RZA2M_ANPR/ANPR_RZA2M_GR_MANGO/src/tensorflow_lite/tensorflow/lite/kernels/internal\types.h **** // corresponding to consecutive quantized values differing by 1.
 132:C:/Renesas/e2studio_2021_01_workspace_RZA2M_ANPR/ANPR_RZA2M_GR_MANGO/src/tensorflow_lite/tensorflow/lite/kernels/internal\types.h **** struct QuantizationParams {
 133:C:/Renesas/e2studio_2021_01_workspace_RZA2M_ANPR/ANPR_RZA2M_GR_MANGO/src/tensorflow_lite/tensorflow/lite/kernels/internal\types.h ****   int32_t zero_point = 0;
 134:C:/Renesas/e2studio_2021_01_workspace_RZA2M_ANPR/ANPR_RZA2M_GR_MANGO/src/tensorflow_lite/tensorflow/lite/kernels/internal\types.h ****   double scale = 0.0;
 135:C:/Renesas/e2studio_2021_01_workspace_RZA2M_ANPR/ANPR_RZA2M_GR_MANGO/src/tensorflow_lite/tensorflow/lite/kernels/internal\types.h **** };
 136:C:/Renesas/e2studio_2021_01_workspace_RZA2M_ANPR/ANPR_RZA2M_GR_MANGO/src/tensorflow_lite/tensorflow/lite/kernels/internal\types.h **** 
 137:C:/Renesas/e2studio_2021_01_workspace_RZA2M_ANPR/ANPR_RZA2M_GR_MANGO/src/tensorflow_lite/tensorflow/lite/kernels/internal\types.h **** inline bool operator==(const QuantizationParams& qp1,
 138:C:/Renesas/e2studio_2021_01_workspace_RZA2M_ANPR/ANPR_RZA2M_GR_MANGO/src/tensorflow_lite/tensorflow/lite/kernels/internal\types.h ****                        const QuantizationParams& qp2) {
 139:C:/Renesas/e2studio_2021_01_workspace_RZA2M_ANPR/ANPR_RZA2M_GR_MANGO/src/tensorflow_lite/tensorflow/lite/kernels/internal\types.h ****   return qp1.zero_point == qp2.zero_point && qp1.scale == qp2.scale;
 140:C:/Renesas/e2studio_2021_01_workspace_RZA2M_ANPR/ANPR_RZA2M_GR_MANGO/src/tensorflow_lite/tensorflow/lite/kernels/internal\types.h **** }
 141:C:/Renesas/e2studio_2021_01_workspace_RZA2M_ANPR/ANPR_RZA2M_GR_MANGO/src/tensorflow_lite/tensorflow/lite/kernels/internal\types.h **** 
 142:C:/Renesas/e2studio_2021_01_workspace_RZA2M_ANPR/ANPR_RZA2M_GR_MANGO/src/tensorflow_lite/tensorflow/lite/kernels/internal\types.h **** template <int N>
 143:C:/Renesas/e2studio_2021_01_workspace_RZA2M_ANPR/ANPR_RZA2M_GR_MANGO/src/tensorflow_lite/tensorflow/lite/kernels/internal\types.h **** struct Dims {
 144:C:/Renesas/e2studio_2021_01_workspace_RZA2M_ANPR/ANPR_RZA2M_GR_MANGO/src/tensorflow_lite/tensorflow/lite/kernels/internal\types.h ****   int sizes[N];
 145:C:/Renesas/e2studio_2021_01_workspace_RZA2M_ANPR/ANPR_RZA2M_GR_MANGO/src/tensorflow_lite/tensorflow/lite/kernels/internal\types.h ****   int strides[N];
 146:C:/Renesas/e2studio_2021_01_workspace_RZA2M_ANPR/ANPR_RZA2M_GR_MANGO/src/tensorflow_lite/tensorflow/lite/kernels/internal\types.h **** };
 147:C:/Renesas/e2studio_2021_01_workspace_RZA2M_ANPR/ANPR_RZA2M_GR_MANGO/src/tensorflow_lite/tensorflow/lite/kernels/internal\types.h **** 
 148:C:/Renesas/e2studio_2021_01_workspace_RZA2M_ANPR/ANPR_RZA2M_GR_MANGO/src/tensorflow_lite/tensorflow/lite/kernels/internal\types.h **** class RuntimeShape {
 149:C:/Renesas/e2studio_2021_01_workspace_RZA2M_ANPR/ANPR_RZA2M_GR_MANGO/src/tensorflow_lite/tensorflow/lite/kernels/internal\types.h ****  public:
 150:C:/Renesas/e2studio_2021_01_workspace_RZA2M_ANPR/ANPR_RZA2M_GR_MANGO/src/tensorflow_lite/tensorflow/lite/kernels/internal\types.h ****   // Shapes with dimensions up to 5 are stored directly in the structure, while
 151:C:/Renesas/e2studio_2021_01_workspace_RZA2M_ANPR/ANPR_RZA2M_GR_MANGO/src/tensorflow_lite/tensorflow/lite/kernels/internal\types.h ****   // larger shapes are separately allocated.
 152:C:/Renesas/e2studio_2021_01_workspace_RZA2M_ANPR/ANPR_RZA2M_GR_MANGO/src/tensorflow_lite/tensorflow/lite/kernels/internal\types.h ****   static constexpr int kMaxSmallSize = 5;
 153:C:/Renesas/e2studio_2021_01_workspace_RZA2M_ANPR/ANPR_RZA2M_GR_MANGO/src/tensorflow_lite/tensorflow/lite/kernels/internal\types.h **** 
 154:C:/Renesas/e2studio_2021_01_workspace_RZA2M_ANPR/ANPR_RZA2M_GR_MANGO/src/tensorflow_lite/tensorflow/lite/kernels/internal\types.h ****   RuntimeShape& operator=(RuntimeShape const&) = delete;
 155:C:/Renesas/e2studio_2021_01_workspace_RZA2M_ANPR/ANPR_RZA2M_GR_MANGO/src/tensorflow_lite/tensorflow/lite/kernels/internal\types.h **** 
 156:C:/Renesas/e2studio_2021_01_workspace_RZA2M_ANPR/ANPR_RZA2M_GR_MANGO/src/tensorflow_lite/tensorflow/lite/kernels/internal\types.h ****   RuntimeShape() : size_(0) {}
 157:C:/Renesas/e2studio_2021_01_workspace_RZA2M_ANPR/ANPR_RZA2M_GR_MANGO/src/tensorflow_lite/tensorflow/lite/kernels/internal\types.h **** 
 158:C:/Renesas/e2studio_2021_01_workspace_RZA2M_ANPR/ANPR_RZA2M_GR_MANGO/src/tensorflow_lite/tensorflow/lite/kernels/internal\types.h ****   explicit RuntimeShape(int dimensions_count) : size_(dimensions_count) {
 159:C:/Renesas/e2studio_2021_01_workspace_RZA2M_ANPR/ANPR_RZA2M_GR_MANGO/src/tensorflow_lite/tensorflow/lite/kernels/internal\types.h ****     if (dimensions_count > kMaxSmallSize) {
 160:C:/Renesas/e2studio_2021_01_workspace_RZA2M_ANPR/ANPR_RZA2M_GR_MANGO/src/tensorflow_lite/tensorflow/lite/kernels/internal\types.h **** #ifdef TF_LITE_STATIC_MEMORY
 161:C:/Renesas/e2studio_2021_01_workspace_RZA2M_ANPR/ANPR_RZA2M_GR_MANGO/src/tensorflow_lite/tensorflow/lite/kernels/internal\types.h ****       TFLITE_CHECK(false && "No shape resizing supported on this platform");
 162:C:/Renesas/e2studio_2021_01_workspace_RZA2M_ANPR/ANPR_RZA2M_GR_MANGO/src/tensorflow_lite/tensorflow/lite/kernels/internal\types.h **** #else  // TF_LITE_STATIC_MEMORY
 163:C:/Renesas/e2studio_2021_01_workspace_RZA2M_ANPR/ANPR_RZA2M_GR_MANGO/src/tensorflow_lite/tensorflow/lite/kernels/internal\types.h ****       dims_pointer_ = new int32_t[dimensions_count];
 164:C:/Renesas/e2studio_2021_01_workspace_RZA2M_ANPR/ANPR_RZA2M_GR_MANGO/src/tensorflow_lite/tensorflow/lite/kernels/internal\types.h **** #endif  // TF_LITE_STATIC_MEMORY
 165:C:/Renesas/e2studio_2021_01_workspace_RZA2M_ANPR/ANPR_RZA2M_GR_MANGO/src/tensorflow_lite/tensorflow/lite/kernels/internal\types.h ****     }
 166:C:/Renesas/e2studio_2021_01_workspace_RZA2M_ANPR/ANPR_RZA2M_GR_MANGO/src/tensorflow_lite/tensorflow/lite/kernels/internal\types.h ****   }
 167:C:/Renesas/e2studio_2021_01_workspace_RZA2M_ANPR/ANPR_RZA2M_GR_MANGO/src/tensorflow_lite/tensorflow/lite/kernels/internal\types.h **** 
 168:C:/Renesas/e2studio_2021_01_workspace_RZA2M_ANPR/ANPR_RZA2M_GR_MANGO/src/tensorflow_lite/tensorflow/lite/kernels/internal\types.h ****   RuntimeShape(int shape_size, int32_t value) : size_(0) {
 169:C:/Renesas/e2studio_2021_01_workspace_RZA2M_ANPR/ANPR_RZA2M_GR_MANGO/src/tensorflow_lite/tensorflow/lite/kernels/internal\types.h ****     Resize(shape_size);
 170:C:/Renesas/e2studio_2021_01_workspace_RZA2M_ANPR/ANPR_RZA2M_GR_MANGO/src/tensorflow_lite/tensorflow/lite/kernels/internal\types.h ****     for (int i = 0; i < shape_size; ++i) {
 171:C:/Renesas/e2studio_2021_01_workspace_RZA2M_ANPR/ANPR_RZA2M_GR_MANGO/src/tensorflow_lite/tensorflow/lite/kernels/internal\types.h ****       SetDim(i, value);
 172:C:/Renesas/e2studio_2021_01_workspace_RZA2M_ANPR/ANPR_RZA2M_GR_MANGO/src/tensorflow_lite/tensorflow/lite/kernels/internal\types.h ****     }
 173:C:/Renesas/e2studio_2021_01_workspace_RZA2M_ANPR/ANPR_RZA2M_GR_MANGO/src/tensorflow_lite/tensorflow/lite/kernels/internal\types.h ****   }
 174:C:/Renesas/e2studio_2021_01_workspace_RZA2M_ANPR/ANPR_RZA2M_GR_MANGO/src/tensorflow_lite/tensorflow/lite/kernels/internal\types.h **** 
 175:C:/Renesas/e2studio_2021_01_workspace_RZA2M_ANPR/ANPR_RZA2M_GR_MANGO/src/tensorflow_lite/tensorflow/lite/kernels/internal\types.h ****   RuntimeShape(int dimensions_count, const int32_t* dims_data) : size_(0) {
 176:C:/Renesas/e2studio_2021_01_workspace_RZA2M_ANPR/ANPR_RZA2M_GR_MANGO/src/tensorflow_lite/tensorflow/lite/kernels/internal\types.h ****     ReplaceWith(dimensions_count, dims_data);
 177:C:/Renesas/e2studio_2021_01_workspace_RZA2M_ANPR/ANPR_RZA2M_GR_MANGO/src/tensorflow_lite/tensorflow/lite/kernels/internal\types.h ****   }
 178:C:/Renesas/e2studio_2021_01_workspace_RZA2M_ANPR/ANPR_RZA2M_GR_MANGO/src/tensorflow_lite/tensorflow/lite/kernels/internal\types.h **** 
 179:C:/Renesas/e2studio_2021_01_workspace_RZA2M_ANPR/ANPR_RZA2M_GR_MANGO/src/tensorflow_lite/tensorflow/lite/kernels/internal\types.h ****   RuntimeShape(const std::initializer_list<int> init_list) : size_(0) {
 180:C:/Renesas/e2studio_2021_01_workspace_RZA2M_ANPR/ANPR_RZA2M_GR_MANGO/src/tensorflow_lite/tensorflow/lite/kernels/internal\types.h ****     BuildFrom(init_list);
 181:C:/Renesas/e2studio_2021_01_workspace_RZA2M_ANPR/ANPR_RZA2M_GR_MANGO/src/tensorflow_lite/tensorflow/lite/kernels/internal\types.h ****   }
 182:C:/Renesas/e2studio_2021_01_workspace_RZA2M_ANPR/ANPR_RZA2M_GR_MANGO/src/tensorflow_lite/tensorflow/lite/kernels/internal\types.h **** 
 183:C:/Renesas/e2studio_2021_01_workspace_RZA2M_ANPR/ANPR_RZA2M_GR_MANGO/src/tensorflow_lite/tensorflow/lite/kernels/internal\types.h ****   // Avoid using this constructor.  We should be able to delete it when C++17
 184:C:/Renesas/e2studio_2021_01_workspace_RZA2M_ANPR/ANPR_RZA2M_GR_MANGO/src/tensorflow_lite/tensorflow/lite/kernels/internal\types.h ****   // rolls out.
 185:C:/Renesas/e2studio_2021_01_workspace_RZA2M_ANPR/ANPR_RZA2M_GR_MANGO/src/tensorflow_lite/tensorflow/lite/kernels/internal\types.h ****   RuntimeShape(RuntimeShape const& other) : size_(other.DimensionsCount()) {
 186:C:/Renesas/e2studio_2021_01_workspace_RZA2M_ANPR/ANPR_RZA2M_GR_MANGO/src/tensorflow_lite/tensorflow/lite/kernels/internal\types.h ****     if (size_ > kMaxSmallSize) {
 187:C:/Renesas/e2studio_2021_01_workspace_RZA2M_ANPR/ANPR_RZA2M_GR_MANGO/src/tensorflow_lite/tensorflow/lite/kernels/internal\types.h **** #ifdef TF_LITE_STATIC_MEMORY
 188:C:/Renesas/e2studio_2021_01_workspace_RZA2M_ANPR/ANPR_RZA2M_GR_MANGO/src/tensorflow_lite/tensorflow/lite/kernels/internal\types.h ****       TFLITE_CHECK(false && "No shape resizing supported on this platform");
 189:C:/Renesas/e2studio_2021_01_workspace_RZA2M_ANPR/ANPR_RZA2M_GR_MANGO/src/tensorflow_lite/tensorflow/lite/kernels/internal\types.h **** #else
 190:C:/Renesas/e2studio_2021_01_workspace_RZA2M_ANPR/ANPR_RZA2M_GR_MANGO/src/tensorflow_lite/tensorflow/lite/kernels/internal\types.h ****       dims_pointer_ = new int32_t[size_];
 191:C:/Renesas/e2studio_2021_01_workspace_RZA2M_ANPR/ANPR_RZA2M_GR_MANGO/src/tensorflow_lite/tensorflow/lite/kernels/internal\types.h **** #endif
 192:C:/Renesas/e2studio_2021_01_workspace_RZA2M_ANPR/ANPR_RZA2M_GR_MANGO/src/tensorflow_lite/tensorflow/lite/kernels/internal\types.h ****     }
 193:C:/Renesas/e2studio_2021_01_workspace_RZA2M_ANPR/ANPR_RZA2M_GR_MANGO/src/tensorflow_lite/tensorflow/lite/kernels/internal\types.h ****     std::memcpy(DimsData(), other.DimsData(), sizeof(int32_t) * size_);
 194:C:/Renesas/e2studio_2021_01_workspace_RZA2M_ANPR/ANPR_RZA2M_GR_MANGO/src/tensorflow_lite/tensorflow/lite/kernels/internal\types.h ****   }
 195:C:/Renesas/e2studio_2021_01_workspace_RZA2M_ANPR/ANPR_RZA2M_GR_MANGO/src/tensorflow_lite/tensorflow/lite/kernels/internal\types.h **** 
 196:C:/Renesas/e2studio_2021_01_workspace_RZA2M_ANPR/ANPR_RZA2M_GR_MANGO/src/tensorflow_lite/tensorflow/lite/kernels/internal\types.h ****   bool operator==(const RuntimeShape& comp) const {
 197:C:/Renesas/e2studio_2021_01_workspace_RZA2M_ANPR/ANPR_RZA2M_GR_MANGO/src/tensorflow_lite/tensorflow/lite/kernels/internal\types.h ****     return this->size_ == comp.size_ &&
 393              		.loc 3 197 0
 394 0008 006090E5 		ldr	r6, [r0]
 395              	.LBE783:
 396              	.LBE782:
 397              		.loc 2 25 0
 398 000c 0070A0E1 		mov	r7, r0
 399 0010 0240A0E1 		mov	r4, r2
 400              	.LBB793:
 401              	.LBB788:
 402              		.loc 3 197 0
 403 0014 005092E5 		ldr	r5, [r2]
 404              	.LBE788:
 405              	.LBE793:
 406              		.loc 2 25 0
 407 0018 10108DE5 		str	r1, [sp, #16]
 408              	.LVL25:
 409 001c 14308DE5 		str	r3, [sp, #20]
 410              	.LBB794:
 411              	.LBB789:
 412              		.loc 3 197 0
 413 0020 050056E1 		cmp	r6, r5
 414              	.LBE789:
 415              	.LBE794:
 416              		.loc 2 25 0
 417 0024 F8909DE5 		ldr	r9, [sp, #248]
 418              	.LBB795:
 419              	.LBB790:
 420              		.loc 3 197 0
 421 0028 1B00000A 		beq	.L304
 422              	.LVL26:
 423              	.LBE790:
 424              	.LBE795:
 425              	.LBB796:
  26:C:/Renesas/e2studio_2021_01_workspace_RZA2M_ANPR/ANPR_RZA2M_GR_MANGO/src/tensorflow_lite/tensorflow/lite/kernels/internal/reference\maximum_minimum.h ****                                  const T* input1_data,
  27:C:/Renesas/e2studio_2021_01_workspace_RZA2M_ANPR/ANPR_RZA2M_GR_MANGO/src/tensorflow_lite/tensorflow/lite/kernels/internal/reference\maximum_minimum.h ****                                  const RuntimeShape& unextended_input2_shape,
  28:C:/Renesas/e2studio_2021_01_workspace_RZA2M_ANPR/ANPR_RZA2M_GR_MANGO/src/tensorflow_lite/tensorflow/lite/kernels/internal/reference\maximum_minimum.h ****                                  const T* input2_data,
  29:C:/Renesas/e2studio_2021_01_workspace_RZA2M_ANPR/ANPR_RZA2M_GR_MANGO/src/tensorflow_lite/tensorflow/lite/kernels/internal/reference\maximum_minimum.h ****                                  const RuntimeShape& unextended_output_shape,
  30:C:/Renesas/e2studio_2021_01_workspace_RZA2M_ANPR/ANPR_RZA2M_GR_MANGO/src/tensorflow_lite/tensorflow/lite/kernels/internal/reference\maximum_minimum.h ****                                  T* output_data, Op op) {
  31:C:/Renesas/e2studio_2021_01_workspace_RZA2M_ANPR/ANPR_RZA2M_GR_MANGO/src/tensorflow_lite/tensorflow/lite/kernels/internal/reference\maximum_minimum.h ****   // Uses element-wise calculation if broadcast is not required.
  32:C:/Renesas/e2studio_2021_01_workspace_RZA2M_ANPR/ANPR_RZA2M_GR_MANGO/src/tensorflow_lite/tensorflow/lite/kernels/internal/reference\maximum_minimum.h ****   if (unextended_input1_shape == unextended_input2_shape) {
  33:C:/Renesas/e2studio_2021_01_workspace_RZA2M_ANPR/ANPR_RZA2M_GR_MANGO/src/tensorflow_lite/tensorflow/lite/kernels/internal/reference\maximum_minimum.h ****     const int flat_size =
  34:C:/Renesas/e2studio_2021_01_workspace_RZA2M_ANPR/ANPR_RZA2M_GR_MANGO/src/tensorflow_lite/tensorflow/lite/kernels/internal/reference\maximum_minimum.h ****         MatchingElementsSize(unextended_input1_shape, unextended_input2_shape,
  35:C:/Renesas/e2studio_2021_01_workspace_RZA2M_ANPR/ANPR_RZA2M_GR_MANGO/src/tensorflow_lite/tensorflow/lite/kernels/internal/reference\maximum_minimum.h ****                              unextended_output_shape);
  36:C:/Renesas/e2studio_2021_01_workspace_RZA2M_ANPR/ANPR_RZA2M_GR_MANGO/src/tensorflow_lite/tensorflow/lite/kernels/internal/reference\maximum_minimum.h ****     for (int i = 0; i < flat_size; ++i) {
  37:C:/Renesas/e2studio_2021_01_workspace_RZA2M_ANPR/ANPR_RZA2M_GR_MANGO/src/tensorflow_lite/tensorflow/lite/kernels/internal/reference\maximum_minimum.h ****       output_data[i] = op(input1_data[i], input2_data[i]);
  38:C:/Renesas/e2studio_2021_01_workspace_RZA2M_ANPR/ANPR_RZA2M_GR_MANGO/src/tensorflow_lite/tensorflow/lite/kernels/internal/reference\maximum_minimum.h ****     }
  39:C:/Renesas/e2studio_2021_01_workspace_RZA2M_ANPR/ANPR_RZA2M_GR_MANGO/src/tensorflow_lite/tensorflow/lite/kernels/internal/reference\maximum_minimum.h ****   } else {
  40:C:/Renesas/e2studio_2021_01_workspace_RZA2M_ANPR/ANPR_RZA2M_GR_MANGO/src/tensorflow_lite/tensorflow/lite/kernels/internal/reference\maximum_minimum.h ****     TFLITE_DCHECK_LE(unextended_input1_shape.DimensionsCount(), N);
 426              		.loc 2 40 0
 427 002c 050056E3 		cmp	r6, #5
 428 0030 180000CA 		bgt	.L30
 429              	.LVL27:
 430              	.L31:
  41:C:/Renesas/e2studio_2021_01_workspace_RZA2M_ANPR/ANPR_RZA2M_GR_MANGO/src/tensorflow_lite/tensorflow/lite/kernels/internal/reference\maximum_minimum.h ****     TFLITE_DCHECK_LE(unextended_input2_shape.DimensionsCount(), N);
 431              		.loc 2 41 0
 432 0034 050055E3 		cmp	r5, #5
 433 0038 160000CA 		bgt	.L30
 434              	.LVL28:
  42:C:/Renesas/e2studio_2021_01_workspace_RZA2M_ANPR/ANPR_RZA2M_GR_MANGO/src/tensorflow_lite/tensorflow/lite/kernels/internal/reference\maximum_minimum.h ****     TFLITE_DCHECK_LE(unextended_output_shape.DimensionsCount(), N);
 435              		.loc 2 42 0
 436 003c 003099E5 		ldr	r3, [r9]
 437 0040 050053E3 		cmp	r3, #5
 438 0044 130000CA 		bgt	.L30
 439              	.LVL29:
 440              	.LBB797:
 441              	.LBB798:
 442              	.LBB799:
 443              	.LBB800:
 444              	.LBB801:
 445              	.LBB802:
 446              	.LBB803:
 198:C:/Renesas/e2studio_2021_01_workspace_RZA2M_ANPR/ANPR_RZA2M_GR_MANGO/src/tensorflow_lite/tensorflow/lite/kernels/internal\types.h ****            std::memcmp(DimsData(), comp.DimsData(), size_ * sizeof(int32_t)) ==
 199:C:/Renesas/e2studio_2021_01_workspace_RZA2M_ANPR/ANPR_RZA2M_GR_MANGO/src/tensorflow_lite/tensorflow/lite/kernels/internal\types.h ****                0;
 200:C:/Renesas/e2studio_2021_01_workspace_RZA2M_ANPR/ANPR_RZA2M_GR_MANGO/src/tensorflow_lite/tensorflow/lite/kernels/internal\types.h ****   }
 201:C:/Renesas/e2studio_2021_01_workspace_RZA2M_ANPR/ANPR_RZA2M_GR_MANGO/src/tensorflow_lite/tensorflow/lite/kernels/internal\types.h **** 
 202:C:/Renesas/e2studio_2021_01_workspace_RZA2M_ANPR/ANPR_RZA2M_GR_MANGO/src/tensorflow_lite/tensorflow/lite/kernels/internal\types.h ****   ~RuntimeShape() {
 203:C:/Renesas/e2studio_2021_01_workspace_RZA2M_ANPR/ANPR_RZA2M_GR_MANGO/src/tensorflow_lite/tensorflow/lite/kernels/internal\types.h ****     if (size_ > kMaxSmallSize) {
 204:C:/Renesas/e2studio_2021_01_workspace_RZA2M_ANPR/ANPR_RZA2M_GR_MANGO/src/tensorflow_lite/tensorflow/lite/kernels/internal\types.h **** #ifdef TF_LITE_STATIC_MEMORY
 205:C:/Renesas/e2studio_2021_01_workspace_RZA2M_ANPR/ANPR_RZA2M_GR_MANGO/src/tensorflow_lite/tensorflow/lite/kernels/internal\types.h ****       TFLITE_CHECK(false && "No shape resizing supported on this platform");
 206:C:/Renesas/e2studio_2021_01_workspace_RZA2M_ANPR/ANPR_RZA2M_GR_MANGO/src/tensorflow_lite/tensorflow/lite/kernels/internal\types.h **** #else  // TF_LITE_STATIC_MEMORY
 207:C:/Renesas/e2studio_2021_01_workspace_RZA2M_ANPR/ANPR_RZA2M_GR_MANGO/src/tensorflow_lite/tensorflow/lite/kernels/internal\types.h ****       delete[] dims_pointer_;
 208:C:/Renesas/e2studio_2021_01_workspace_RZA2M_ANPR/ANPR_RZA2M_GR_MANGO/src/tensorflow_lite/tensorflow/lite/kernels/internal\types.h **** #endif  // TF_LITE_STATIC_MEMORY
 209:C:/Renesas/e2studio_2021_01_workspace_RZA2M_ANPR/ANPR_RZA2M_GR_MANGO/src/tensorflow_lite/tensorflow/lite/kernels/internal\types.h ****     }
 210:C:/Renesas/e2studio_2021_01_workspace_RZA2M_ANPR/ANPR_RZA2M_GR_MANGO/src/tensorflow_lite/tensorflow/lite/kernels/internal\types.h ****   }
 211:C:/Renesas/e2studio_2021_01_workspace_RZA2M_ANPR/ANPR_RZA2M_GR_MANGO/src/tensorflow_lite/tensorflow/lite/kernels/internal\types.h **** 
 212:C:/Renesas/e2studio_2021_01_workspace_RZA2M_ANPR/ANPR_RZA2M_GR_MANGO/src/tensorflow_lite/tensorflow/lite/kernels/internal\types.h ****   inline int32_t DimensionsCount() const { return size_; }
 213:C:/Renesas/e2studio_2021_01_workspace_RZA2M_ANPR/ANPR_RZA2M_GR_MANGO/src/tensorflow_lite/tensorflow/lite/kernels/internal\types.h ****   inline int32_t Dims(int i) const {
 214:C:/Renesas/e2studio_2021_01_workspace_RZA2M_ANPR/ANPR_RZA2M_GR_MANGO/src/tensorflow_lite/tensorflow/lite/kernels/internal\types.h ****     TFLITE_DCHECK_GE(i, 0);
 215:C:/Renesas/e2studio_2021_01_workspace_RZA2M_ANPR/ANPR_RZA2M_GR_MANGO/src/tensorflow_lite/tensorflow/lite/kernels/internal\types.h ****     TFLITE_DCHECK_LT(i, size_);
 216:C:/Renesas/e2studio_2021_01_workspace_RZA2M_ANPR/ANPR_RZA2M_GR_MANGO/src/tensorflow_lite/tensorflow/lite/kernels/internal\types.h ****     return size_ > kMaxSmallSize ? dims_pointer_[i] : dims_[i];
 217:C:/Renesas/e2studio_2021_01_workspace_RZA2M_ANPR/ANPR_RZA2M_GR_MANGO/src/tensorflow_lite/tensorflow/lite/kernels/internal\types.h ****   }
 218:C:/Renesas/e2studio_2021_01_workspace_RZA2M_ANPR/ANPR_RZA2M_GR_MANGO/src/tensorflow_lite/tensorflow/lite/kernels/internal\types.h ****   inline void SetDim(int i, int32_t val) {
 219:C:/Renesas/e2studio_2021_01_workspace_RZA2M_ANPR/ANPR_RZA2M_GR_MANGO/src/tensorflow_lite/tensorflow/lite/kernels/internal\types.h ****     TFLITE_DCHECK_GE(i, 0);
 220:C:/Renesas/e2studio_2021_01_workspace_RZA2M_ANPR/ANPR_RZA2M_GR_MANGO/src/tensorflow_lite/tensorflow/lite/kernels/internal\types.h ****     TFLITE_DCHECK_LT(i, size_);
 221:C:/Renesas/e2studio_2021_01_workspace_RZA2M_ANPR/ANPR_RZA2M_GR_MANGO/src/tensorflow_lite/tensorflow/lite/kernels/internal\types.h ****     if (size_ > kMaxSmallSize) {
 222:C:/Renesas/e2studio_2021_01_workspace_RZA2M_ANPR/ANPR_RZA2M_GR_MANGO/src/tensorflow_lite/tensorflow/lite/kernels/internal\types.h ****       dims_pointer_[i] = val;
 223:C:/Renesas/e2studio_2021_01_workspace_RZA2M_ANPR/ANPR_RZA2M_GR_MANGO/src/tensorflow_lite/tensorflow/lite/kernels/internal\types.h ****     } else {
 224:C:/Renesas/e2studio_2021_01_workspace_RZA2M_ANPR/ANPR_RZA2M_GR_MANGO/src/tensorflow_lite/tensorflow/lite/kernels/internal\types.h ****       dims_[i] = val;
 225:C:/Renesas/e2studio_2021_01_workspace_RZA2M_ANPR/ANPR_RZA2M_GR_MANGO/src/tensorflow_lite/tensorflow/lite/kernels/internal\types.h ****     }
 226:C:/Renesas/e2studio_2021_01_workspace_RZA2M_ANPR/ANPR_RZA2M_GR_MANGO/src/tensorflow_lite/tensorflow/lite/kernels/internal\types.h ****   }
 227:C:/Renesas/e2studio_2021_01_workspace_RZA2M_ANPR/ANPR_RZA2M_GR_MANGO/src/tensorflow_lite/tensorflow/lite/kernels/internal\types.h **** 
 228:C:/Renesas/e2studio_2021_01_workspace_RZA2M_ANPR/ANPR_RZA2M_GR_MANGO/src/tensorflow_lite/tensorflow/lite/kernels/internal\types.h ****   inline int32_t* DimsData() {
 229:C:/Renesas/e2studio_2021_01_workspace_RZA2M_ANPR/ANPR_RZA2M_GR_MANGO/src/tensorflow_lite/tensorflow/lite/kernels/internal\types.h ****     return size_ > kMaxSmallSize ? dims_pointer_ : dims_;
 230:C:/Renesas/e2studio_2021_01_workspace_RZA2M_ANPR/ANPR_RZA2M_GR_MANGO/src/tensorflow_lite/tensorflow/lite/kernels/internal\types.h ****   }
 231:C:/Renesas/e2studio_2021_01_workspace_RZA2M_ANPR/ANPR_RZA2M_GR_MANGO/src/tensorflow_lite/tensorflow/lite/kernels/internal\types.h ****   inline const int32_t* DimsData() const {
 232:C:/Renesas/e2studio_2021_01_workspace_RZA2M_ANPR/ANPR_RZA2M_GR_MANGO/src/tensorflow_lite/tensorflow/lite/kernels/internal\types.h ****     return size_ > kMaxSmallSize ? dims_pointer_ : dims_;
 233:C:/Renesas/e2studio_2021_01_workspace_RZA2M_ANPR/ANPR_RZA2M_GR_MANGO/src/tensorflow_lite/tensorflow/lite/kernels/internal\types.h ****   }
 234:C:/Renesas/e2studio_2021_01_workspace_RZA2M_ANPR/ANPR_RZA2M_GR_MANGO/src/tensorflow_lite/tensorflow/lite/kernels/internal\types.h ****   // The caller must ensure that the shape is no bigger than 5-D.
 235:C:/Renesas/e2studio_2021_01_workspace_RZA2M_ANPR/ANPR_RZA2M_GR_MANGO/src/tensorflow_lite/tensorflow/lite/kernels/internal\types.h ****   inline const int32_t* DimsDataUpTo5D() const { return dims_; }
 236:C:/Renesas/e2studio_2021_01_workspace_RZA2M_ANPR/ANPR_RZA2M_GR_MANGO/src/tensorflow_lite/tensorflow/lite/kernels/internal\types.h **** 
 237:C:/Renesas/e2studio_2021_01_workspace_RZA2M_ANPR/ANPR_RZA2M_GR_MANGO/src/tensorflow_lite/tensorflow/lite/kernels/internal\types.h ****   inline void Resize(int dimensions_count) {
 238:C:/Renesas/e2studio_2021_01_workspace_RZA2M_ANPR/ANPR_RZA2M_GR_MANGO/src/tensorflow_lite/tensorflow/lite/kernels/internal\types.h ****     if (size_ > kMaxSmallSize) {
 239:C:/Renesas/e2studio_2021_01_workspace_RZA2M_ANPR/ANPR_RZA2M_GR_MANGO/src/tensorflow_lite/tensorflow/lite/kernels/internal\types.h **** #ifdef TF_LITE_STATIC_MEMORY
 240:C:/Renesas/e2studio_2021_01_workspace_RZA2M_ANPR/ANPR_RZA2M_GR_MANGO/src/tensorflow_lite/tensorflow/lite/kernels/internal\types.h ****       TFLITE_CHECK(false && "No shape resizing supported on this platform");
 241:C:/Renesas/e2studio_2021_01_workspace_RZA2M_ANPR/ANPR_RZA2M_GR_MANGO/src/tensorflow_lite/tensorflow/lite/kernels/internal\types.h **** #else  // TF_LITE_STATIC_MEMORY
 242:C:/Renesas/e2studio_2021_01_workspace_RZA2M_ANPR/ANPR_RZA2M_GR_MANGO/src/tensorflow_lite/tensorflow/lite/kernels/internal\types.h ****       delete[] dims_pointer_;
 243:C:/Renesas/e2studio_2021_01_workspace_RZA2M_ANPR/ANPR_RZA2M_GR_MANGO/src/tensorflow_lite/tensorflow/lite/kernels/internal\types.h **** #endif  // TF_LITE_STATIC_MEMORY
 244:C:/Renesas/e2studio_2021_01_workspace_RZA2M_ANPR/ANPR_RZA2M_GR_MANGO/src/tensorflow_lite/tensorflow/lite/kernels/internal\types.h ****     }
 245:C:/Renesas/e2studio_2021_01_workspace_RZA2M_ANPR/ANPR_RZA2M_GR_MANGO/src/tensorflow_lite/tensorflow/lite/kernels/internal\types.h ****     size_ = dimensions_count;
 246:C:/Renesas/e2studio_2021_01_workspace_RZA2M_ANPR/ANPR_RZA2M_GR_MANGO/src/tensorflow_lite/tensorflow/lite/kernels/internal\types.h ****     if (dimensions_count > kMaxSmallSize) {
 247:C:/Renesas/e2studio_2021_01_workspace_RZA2M_ANPR/ANPR_RZA2M_GR_MANGO/src/tensorflow_lite/tensorflow/lite/kernels/internal\types.h **** #ifdef TF_LITE_STATIC_MEMORY
 248:C:/Renesas/e2studio_2021_01_workspace_RZA2M_ANPR/ANPR_RZA2M_GR_MANGO/src/tensorflow_lite/tensorflow/lite/kernels/internal\types.h ****       TFLITE_CHECK(false && "No shape resizing supported on this platform");
 249:C:/Renesas/e2studio_2021_01_workspace_RZA2M_ANPR/ANPR_RZA2M_GR_MANGO/src/tensorflow_lite/tensorflow/lite/kernels/internal\types.h **** #else  // TF_LITE_STATIC_MEMORY
 250:C:/Renesas/e2studio_2021_01_workspace_RZA2M_ANPR/ANPR_RZA2M_GR_MANGO/src/tensorflow_lite/tensorflow/lite/kernels/internal\types.h ****       dims_pointer_ = new int32_t[dimensions_count];
 251:C:/Renesas/e2studio_2021_01_workspace_RZA2M_ANPR/ANPR_RZA2M_GR_MANGO/src/tensorflow_lite/tensorflow/lite/kernels/internal\types.h **** #endif  // TF_LITE_STATIC_MEMORY
 252:C:/Renesas/e2studio_2021_01_workspace_RZA2M_ANPR/ANPR_RZA2M_GR_MANGO/src/tensorflow_lite/tensorflow/lite/kernels/internal\types.h ****     }
 253:C:/Renesas/e2studio_2021_01_workspace_RZA2M_ANPR/ANPR_RZA2M_GR_MANGO/src/tensorflow_lite/tensorflow/lite/kernels/internal\types.h ****   }
 254:C:/Renesas/e2studio_2021_01_workspace_RZA2M_ANPR/ANPR_RZA2M_GR_MANGO/src/tensorflow_lite/tensorflow/lite/kernels/internal\types.h **** 
 255:C:/Renesas/e2studio_2021_01_workspace_RZA2M_ANPR/ANPR_RZA2M_GR_MANGO/src/tensorflow_lite/tensorflow/lite/kernels/internal\types.h ****   inline void ReplaceWith(int dimensions_count, const int32_t* dims_data) {
 256:C:/Renesas/e2studio_2021_01_workspace_RZA2M_ANPR/ANPR_RZA2M_GR_MANGO/src/tensorflow_lite/tensorflow/lite/kernels/internal\types.h ****     Resize(dimensions_count);
 257:C:/Renesas/e2studio_2021_01_workspace_RZA2M_ANPR/ANPR_RZA2M_GR_MANGO/src/tensorflow_lite/tensorflow/lite/kernels/internal\types.h ****     int32_t* dst_dims = DimsData();
 258:C:/Renesas/e2studio_2021_01_workspace_RZA2M_ANPR/ANPR_RZA2M_GR_MANGO/src/tensorflow_lite/tensorflow/lite/kernels/internal\types.h ****     std::memcpy(dst_dims, dims_data, dimensions_count * sizeof(int32_t));
 259:C:/Renesas/e2studio_2021_01_workspace_RZA2M_ANPR/ANPR_RZA2M_GR_MANGO/src/tensorflow_lite/tensorflow/lite/kernels/internal\types.h ****   }
 260:C:/Renesas/e2studio_2021_01_workspace_RZA2M_ANPR/ANPR_RZA2M_GR_MANGO/src/tensorflow_lite/tensorflow/lite/kernels/internal\types.h **** 
 261:C:/Renesas/e2studio_2021_01_workspace_RZA2M_ANPR/ANPR_RZA2M_GR_MANGO/src/tensorflow_lite/tensorflow/lite/kernels/internal\types.h ****   template <typename T>
 262:C:/Renesas/e2studio_2021_01_workspace_RZA2M_ANPR/ANPR_RZA2M_GR_MANGO/src/tensorflow_lite/tensorflow/lite/kernels/internal\types.h ****   inline void BuildFrom(const T& src_iterable) {
 263:C:/Renesas/e2studio_2021_01_workspace_RZA2M_ANPR/ANPR_RZA2M_GR_MANGO/src/tensorflow_lite/tensorflow/lite/kernels/internal\types.h ****     const int dimensions_count =
 264:C:/Renesas/e2studio_2021_01_workspace_RZA2M_ANPR/ANPR_RZA2M_GR_MANGO/src/tensorflow_lite/tensorflow/lite/kernels/internal\types.h ****         std::distance(src_iterable.begin(), src_iterable.end());
 265:C:/Renesas/e2studio_2021_01_workspace_RZA2M_ANPR/ANPR_RZA2M_GR_MANGO/src/tensorflow_lite/tensorflow/lite/kernels/internal\types.h ****     Resize(dimensions_count);
 266:C:/Renesas/e2studio_2021_01_workspace_RZA2M_ANPR/ANPR_RZA2M_GR_MANGO/src/tensorflow_lite/tensorflow/lite/kernels/internal\types.h ****     int32_t* data = DimsData();
 267:C:/Renesas/e2studio_2021_01_workspace_RZA2M_ANPR/ANPR_RZA2M_GR_MANGO/src/tensorflow_lite/tensorflow/lite/kernels/internal\types.h ****     for (auto it : src_iterable) {
 268:C:/Renesas/e2studio_2021_01_workspace_RZA2M_ANPR/ANPR_RZA2M_GR_MANGO/src/tensorflow_lite/tensorflow/lite/kernels/internal\types.h ****       *data = it;
 269:C:/Renesas/e2studio_2021_01_workspace_RZA2M_ANPR/ANPR_RZA2M_GR_MANGO/src/tensorflow_lite/tensorflow/lite/kernels/internal\types.h ****       ++data;
 270:C:/Renesas/e2studio_2021_01_workspace_RZA2M_ANPR/ANPR_RZA2M_GR_MANGO/src/tensorflow_lite/tensorflow/lite/kernels/internal\types.h ****     }
 271:C:/Renesas/e2studio_2021_01_workspace_RZA2M_ANPR/ANPR_RZA2M_GR_MANGO/src/tensorflow_lite/tensorflow/lite/kernels/internal\types.h ****   }
 272:C:/Renesas/e2studio_2021_01_workspace_RZA2M_ANPR/ANPR_RZA2M_GR_MANGO/src/tensorflow_lite/tensorflow/lite/kernels/internal\types.h **** 
 273:C:/Renesas/e2studio_2021_01_workspace_RZA2M_ANPR/ANPR_RZA2M_GR_MANGO/src/tensorflow_lite/tensorflow/lite/kernels/internal\types.h ****   // This will probably be factored out. Old code made substantial use of 4-D
 274:C:/Renesas/e2studio_2021_01_workspace_RZA2M_ANPR/ANPR_RZA2M_GR_MANGO/src/tensorflow_lite/tensorflow/lite/kernels/internal\types.h ****   // shapes, and so this function is used to extend smaller shapes. Note that
 275:C:/Renesas/e2studio_2021_01_workspace_RZA2M_ANPR/ANPR_RZA2M_GR_MANGO/src/tensorflow_lite/tensorflow/lite/kernels/internal\types.h ****   // (a) as Dims<4>-dependent code is eliminated, the reliance on this should be
 276:C:/Renesas/e2studio_2021_01_workspace_RZA2M_ANPR/ANPR_RZA2M_GR_MANGO/src/tensorflow_lite/tensorflow/lite/kernels/internal\types.h ****   // reduced, and (b) some kernels are stricly 4-D, but then the shapes of their
 277:C:/Renesas/e2studio_2021_01_workspace_RZA2M_ANPR/ANPR_RZA2M_GR_MANGO/src/tensorflow_lite/tensorflow/lite/kernels/internal\types.h ****   // inputs should already be 4-D, so this function should not be needed.
 278:C:/Renesas/e2studio_2021_01_workspace_RZA2M_ANPR/ANPR_RZA2M_GR_MANGO/src/tensorflow_lite/tensorflow/lite/kernels/internal\types.h ****   inline static RuntimeShape ExtendedShape(int new_shape_size,
 279:C:/Renesas/e2studio_2021_01_workspace_RZA2M_ANPR/ANPR_RZA2M_GR_MANGO/src/tensorflow_lite/tensorflow/lite/kernels/internal\types.h ****                                            const RuntimeShape& shape) {
 280:C:/Renesas/e2studio_2021_01_workspace_RZA2M_ANPR/ANPR_RZA2M_GR_MANGO/src/tensorflow_lite/tensorflow/lite/kernels/internal\types.h ****     return RuntimeShape(new_shape_size, shape, 1);
 281:C:/Renesas/e2studio_2021_01_workspace_RZA2M_ANPR/ANPR_RZA2M_GR_MANGO/src/tensorflow_lite/tensorflow/lite/kernels/internal\types.h ****   }
 282:C:/Renesas/e2studio_2021_01_workspace_RZA2M_ANPR/ANPR_RZA2M_GR_MANGO/src/tensorflow_lite/tensorflow/lite/kernels/internal\types.h **** 
 283:C:/Renesas/e2studio_2021_01_workspace_RZA2M_ANPR/ANPR_RZA2M_GR_MANGO/src/tensorflow_lite/tensorflow/lite/kernels/internal\types.h ****   inline void BuildFrom(const std::initializer_list<int> init_list) {
 284:C:/Renesas/e2studio_2021_01_workspace_RZA2M_ANPR/ANPR_RZA2M_GR_MANGO/src/tensorflow_lite/tensorflow/lite/kernels/internal\types.h ****     BuildFrom<const std::initializer_list<int>>(init_list);
 285:C:/Renesas/e2studio_2021_01_workspace_RZA2M_ANPR/ANPR_RZA2M_GR_MANGO/src/tensorflow_lite/tensorflow/lite/kernels/internal\types.h ****   }
 286:C:/Renesas/e2studio_2021_01_workspace_RZA2M_ANPR/ANPR_RZA2M_GR_MANGO/src/tensorflow_lite/tensorflow/lite/kernels/internal\types.h **** 
 287:C:/Renesas/e2studio_2021_01_workspace_RZA2M_ANPR/ANPR_RZA2M_GR_MANGO/src/tensorflow_lite/tensorflow/lite/kernels/internal\types.h ****   // Returns the total count of elements, that is the size when flattened into a
 288:C:/Renesas/e2studio_2021_01_workspace_RZA2M_ANPR/ANPR_RZA2M_GR_MANGO/src/tensorflow_lite/tensorflow/lite/kernels/internal\types.h ****   // vector.
 289:C:/Renesas/e2studio_2021_01_workspace_RZA2M_ANPR/ANPR_RZA2M_GR_MANGO/src/tensorflow_lite/tensorflow/lite/kernels/internal\types.h ****   inline int FlatSize() const {
 290:C:/Renesas/e2studio_2021_01_workspace_RZA2M_ANPR/ANPR_RZA2M_GR_MANGO/src/tensorflow_lite/tensorflow/lite/kernels/internal\types.h ****     int buffer_size = 1;
 291:C:/Renesas/e2studio_2021_01_workspace_RZA2M_ANPR/ANPR_RZA2M_GR_MANGO/src/tensorflow_lite/tensorflow/lite/kernels/internal\types.h ****     const int* dims_data = reinterpret_cast<const int*>(DimsData());
 292:C:/Renesas/e2studio_2021_01_workspace_RZA2M_ANPR/ANPR_RZA2M_GR_MANGO/src/tensorflow_lite/tensorflow/lite/kernels/internal\types.h ****     for (int i = 0; i < size_; i++) {
 293:C:/Renesas/e2studio_2021_01_workspace_RZA2M_ANPR/ANPR_RZA2M_GR_MANGO/src/tensorflow_lite/tensorflow/lite/kernels/internal\types.h ****       buffer_size *= dims_data[i];
 294:C:/Renesas/e2studio_2021_01_workspace_RZA2M_ANPR/ANPR_RZA2M_GR_MANGO/src/tensorflow_lite/tensorflow/lite/kernels/internal\types.h ****     }
 295:C:/Renesas/e2studio_2021_01_workspace_RZA2M_ANPR/ANPR_RZA2M_GR_MANGO/src/tensorflow_lite/tensorflow/lite/kernels/internal\types.h ****     return buffer_size;
 296:C:/Renesas/e2studio_2021_01_workspace_RZA2M_ANPR/ANPR_RZA2M_GR_MANGO/src/tensorflow_lite/tensorflow/lite/kernels/internal\types.h ****   }
 297:C:/Renesas/e2studio_2021_01_workspace_RZA2M_ANPR/ANPR_RZA2M_GR_MANGO/src/tensorflow_lite/tensorflow/lite/kernels/internal\types.h **** 
 298:C:/Renesas/e2studio_2021_01_workspace_RZA2M_ANPR/ANPR_RZA2M_GR_MANGO/src/tensorflow_lite/tensorflow/lite/kernels/internal\types.h ****   bool operator!=(const RuntimeShape& comp) const { return !((*this) == comp); }
 299:C:/Renesas/e2studio_2021_01_workspace_RZA2M_ANPR/ANPR_RZA2M_GR_MANGO/src/tensorflow_lite/tensorflow/lite/kernels/internal\types.h **** 
 300:C:/Renesas/e2studio_2021_01_workspace_RZA2M_ANPR/ANPR_RZA2M_GR_MANGO/src/tensorflow_lite/tensorflow/lite/kernels/internal\types.h ****  private:
 301:C:/Renesas/e2studio_2021_01_workspace_RZA2M_ANPR/ANPR_RZA2M_GR_MANGO/src/tensorflow_lite/tensorflow/lite/kernels/internal\types.h ****   // For use only by ExtendedShape(), written to guarantee (return-value) copy
 302:C:/Renesas/e2studio_2021_01_workspace_RZA2M_ANPR/ANPR_RZA2M_GR_MANGO/src/tensorflow_lite/tensorflow/lite/kernels/internal\types.h ****   // elision in C++17.
 303:C:/Renesas/e2studio_2021_01_workspace_RZA2M_ANPR/ANPR_RZA2M_GR_MANGO/src/tensorflow_lite/tensorflow/lite/kernels/internal\types.h ****   // This creates a shape padded to the desired size with the specified value.
 304:C:/Renesas/e2studio_2021_01_workspace_RZA2M_ANPR/ANPR_RZA2M_GR_MANGO/src/tensorflow_lite/tensorflow/lite/kernels/internal\types.h ****   RuntimeShape(int new_shape_size, const RuntimeShape& shape, int pad_value)
 305:C:/Renesas/e2studio_2021_01_workspace_RZA2M_ANPR/ANPR_RZA2M_GR_MANGO/src/tensorflow_lite/tensorflow/lite/kernels/internal\types.h ****       : size_(0) {
 306:C:/Renesas/e2studio_2021_01_workspace_RZA2M_ANPR/ANPR_RZA2M_GR_MANGO/src/tensorflow_lite/tensorflow/lite/kernels/internal\types.h ****     // If the following check fails, it is likely because a 4D-only kernel is
 307:C:/Renesas/e2studio_2021_01_workspace_RZA2M_ANPR/ANPR_RZA2M_GR_MANGO/src/tensorflow_lite/tensorflow/lite/kernels/internal\types.h ****     // being used with an array of larger dimension count.
 308:C:/Renesas/e2studio_2021_01_workspace_RZA2M_ANPR/ANPR_RZA2M_GR_MANGO/src/tensorflow_lite/tensorflow/lite/kernels/internal\types.h ****     TFLITE_CHECK_GE(new_shape_size, shape.DimensionsCount());
 309:C:/Renesas/e2studio_2021_01_workspace_RZA2M_ANPR/ANPR_RZA2M_GR_MANGO/src/tensorflow_lite/tensorflow/lite/kernels/internal\types.h ****     Resize(new_shape_size);
 310:C:/Renesas/e2studio_2021_01_workspace_RZA2M_ANPR/ANPR_RZA2M_GR_MANGO/src/tensorflow_lite/tensorflow/lite/kernels/internal\types.h ****     const int size_increase = new_shape_size - shape.DimensionsCount();
 311:C:/Renesas/e2studio_2021_01_workspace_RZA2M_ANPR/ANPR_RZA2M_GR_MANGO/src/tensorflow_lite/tensorflow/lite/kernels/internal\types.h ****     for (int i = 0; i < size_increase; ++i) {
 447              		.loc 3 311 0
 448 0048 050076E2 		rsbs	r0, r6, #5
 449              	.LBE803:
 450              	.LBB814:
 451              	.LBB815:
 245:C:/Renesas/e2studio_2021_01_workspace_RZA2M_ANPR/ANPR_RZA2M_GR_MANGO/src/tensorflow_lite/tensorflow/lite/kernels/internal\types.h ****     if (dimensions_count > kMaxSmallSize) {
 452              		.loc 3 245 0
 453 004c 0530A0E3 		mov	r3, #5
 454 0050 40308DE5 		str	r3, [sp, #64]
 455              	.LVL30:
 456              	.LBE815:
 457              	.LBE814:
 458              	.LBB816:
 459              		.loc 3 311 0
 460 0054 6401000A 		beq	.L78
 461              	.LVL31:
 462 0058 010050E3 		cmp	r0, #1
 463              	.LBB804:
 464              	.LBB805:
 224:C:/Renesas/e2studio_2021_01_workspace_RZA2M_ANPR/ANPR_RZA2M_GR_MANGO/src/tensorflow_lite/tensorflow/lite/kernels/internal\types.h ****     }
 465              		.loc 3 224 0
 466 005c 0130A0E3 		mov	r3, #1
 467 0060 44308DE5 		str	r3, [sp, #68]
 468              	.LVL32:
 469              	.LBE805:
 470              	.LBE804:
 471              		.loc 3 311 0
 472 0064 6001000A 		beq	.L78
 473              	.LVL33:
 474 0068 020050E3 		cmp	r0, #2
 475              	.LBB810:
 476              	.LBB806:
 224:C:/Renesas/e2studio_2021_01_workspace_RZA2M_ANPR/ANPR_RZA2M_GR_MANGO/src/tensorflow_lite/tensorflow/lite/kernels/internal\types.h ****     }
 477              		.loc 3 224 0
 478 006c 48308DE5 		str	r3, [sp, #72]
 479              	.LVL34:
 480              	.LBE806:
 481              	.LBE810:
 482              		.loc 3 311 0
 483 0070 5D01000A 		beq	.L78
 484              	.LVL35:
 485 0074 030050E3 		cmp	r0, #3
 486              	.LBB811:
 487              	.LBB807:
 224:C:/Renesas/e2studio_2021_01_workspace_RZA2M_ANPR/ANPR_RZA2M_GR_MANGO/src/tensorflow_lite/tensorflow/lite/kernels/internal\types.h ****     }
 488              		.loc 3 224 0
 489 0078 4C308DE5 		str	r3, [sp, #76]
 490              	.LVL36:
 491              	.LBE807:
 492              	.LBE811:
 493              		.loc 3 311 0
 494 007c 5A01000A 		beq	.L78
 495              	.LVL37:
 496 0080 040050E3 		cmp	r0, #4
 497              	.LBB812:
 498              	.LBB808:
 224:C:/Renesas/e2studio_2021_01_workspace_RZA2M_ANPR/ANPR_RZA2M_GR_MANGO/src/tensorflow_lite/tensorflow/lite/kernels/internal\types.h ****     }
 499              		.loc 3 224 0
 500 0084 50308DE5 		str	r3, [sp, #80]
 501              	.LVL38:
 502              	.LBE808:
 503              	.LBE812:
 504              		.loc 3 311 0
 505 0088 5701000A 		beq	.L78
 506              	.LVL39:
 507 008c 050050E3 		cmp	r0, #5
 508              	.LBB813:
 509              	.LBB809:
 224:C:/Renesas/e2studio_2021_01_workspace_RZA2M_ANPR/ANPR_RZA2M_GR_MANGO/src/tensorflow_lite/tensorflow/lite/kernels/internal\types.h ****     }
 510              		.loc 3 224 0
 511 0090 54308DE5 		str	r3, [sp, #84]
 512              	.LVL40:
 513              	.LBE809:
 514              	.LBE813:
 515              		.loc 3 311 0
 516 0094 5401000A 		beq	.L78
 517              	.LVL41:
 518              	.L30:
 519              	.LEHB0:
 520              	.LBE816:
 521              	.LBE802:
 522              	.LBE801:
 523              	.LBE800:
 524              	.LBE799:
 525              	.LBE798:
 526              	.LBE797:
 527              	.LBE796:
 528              	.LBB1039:
 529              	.LBB1040:
 530              	.LBB1041:
 312:C:/Renesas/e2studio_2021_01_workspace_RZA2M_ANPR/ANPR_RZA2M_GR_MANGO/src/tensorflow_lite/tensorflow/lite/kernels/internal\types.h ****       SetDim(i, pad_value);
 313:C:/Renesas/e2studio_2021_01_workspace_RZA2M_ANPR/ANPR_RZA2M_GR_MANGO/src/tensorflow_lite/tensorflow/lite/kernels/internal\types.h ****     }
 314:C:/Renesas/e2studio_2021_01_workspace_RZA2M_ANPR/ANPR_RZA2M_GR_MANGO/src/tensorflow_lite/tensorflow/lite/kernels/internal\types.h ****     std::memcpy(DimsData() + size_increase, shape.DimsData(),
 315:C:/Renesas/e2studio_2021_01_workspace_RZA2M_ANPR/ANPR_RZA2M_GR_MANGO/src/tensorflow_lite/tensorflow/lite/kernels/internal\types.h ****                 sizeof(int32_t) * shape.DimensionsCount());
 316:C:/Renesas/e2studio_2021_01_workspace_RZA2M_ANPR/ANPR_RZA2M_GR_MANGO/src/tensorflow_lite/tensorflow/lite/kernels/internal\types.h ****   }
 317:C:/Renesas/e2studio_2021_01_workspace_RZA2M_ANPR/ANPR_RZA2M_GR_MANGO/src/tensorflow_lite/tensorflow/lite/kernels/internal\types.h **** 
 318:C:/Renesas/e2studio_2021_01_workspace_RZA2M_ANPR/ANPR_RZA2M_GR_MANGO/src/tensorflow_lite/tensorflow/lite/kernels/internal\types.h ****   int32_t size_;
 319:C:/Renesas/e2studio_2021_01_workspace_RZA2M_ANPR/ANPR_RZA2M_GR_MANGO/src/tensorflow_lite/tensorflow/lite/kernels/internal\types.h ****   union {
 320:C:/Renesas/e2studio_2021_01_workspace_RZA2M_ANPR/ANPR_RZA2M_GR_MANGO/src/tensorflow_lite/tensorflow/lite/kernels/internal\types.h ****     int32_t dims_[kMaxSmallSize];
 321:C:/Renesas/e2studio_2021_01_workspace_RZA2M_ANPR/ANPR_RZA2M_GR_MANGO/src/tensorflow_lite/tensorflow/lite/kernels/internal\types.h ****     int32_t* dims_pointer_;
 322:C:/Renesas/e2studio_2021_01_workspace_RZA2M_ANPR/ANPR_RZA2M_GR_MANGO/src/tensorflow_lite/tensorflow/lite/kernels/internal\types.h ****   };
 323:C:/Renesas/e2studio_2021_01_workspace_RZA2M_ANPR/ANPR_RZA2M_GR_MANGO/src/tensorflow_lite/tensorflow/lite/kernels/internal\types.h **** };
 324:C:/Renesas/e2studio_2021_01_workspace_RZA2M_ANPR/ANPR_RZA2M_GR_MANGO/src/tensorflow_lite/tensorflow/lite/kernels/internal\types.h **** 
 325:C:/Renesas/e2studio_2021_01_workspace_RZA2M_ANPR/ANPR_RZA2M_GR_MANGO/src/tensorflow_lite/tensorflow/lite/kernels/internal\types.h **** // Converts inference-style shape to legacy tflite::Dims<4>.
 326:C:/Renesas/e2studio_2021_01_workspace_RZA2M_ANPR/ANPR_RZA2M_GR_MANGO/src/tensorflow_lite/tensorflow/lite/kernels/internal\types.h **** inline tflite::Dims<4> ToRuntimeDims(const tflite::RuntimeShape& array_shape) {
 327:C:/Renesas/e2studio_2021_01_workspace_RZA2M_ANPR/ANPR_RZA2M_GR_MANGO/src/tensorflow_lite/tensorflow/lite/kernels/internal\types.h ****   tflite::Dims<4> result;
 328:C:/Renesas/e2studio_2021_01_workspace_RZA2M_ANPR/ANPR_RZA2M_GR_MANGO/src/tensorflow_lite/tensorflow/lite/kernels/internal\types.h ****   const int dimensions_count = array_shape.DimensionsCount();
 329:C:/Renesas/e2studio_2021_01_workspace_RZA2M_ANPR/ANPR_RZA2M_GR_MANGO/src/tensorflow_lite/tensorflow/lite/kernels/internal\types.h ****   TFLITE_CHECK_LE(dimensions_count, 4);
 330:C:/Renesas/e2studio_2021_01_workspace_RZA2M_ANPR/ANPR_RZA2M_GR_MANGO/src/tensorflow_lite/tensorflow/lite/kernels/internal\types.h ****   int cum_prod = 1;
 331:C:/Renesas/e2studio_2021_01_workspace_RZA2M_ANPR/ANPR_RZA2M_GR_MANGO/src/tensorflow_lite/tensorflow/lite/kernels/internal\types.h ****   for (int i = 0; i < 4; i++) {
 332:C:/Renesas/e2studio_2021_01_workspace_RZA2M_ANPR/ANPR_RZA2M_GR_MANGO/src/tensorflow_lite/tensorflow/lite/kernels/internal\types.h ****     const int new_dim =
 333:C:/Renesas/e2studio_2021_01_workspace_RZA2M_ANPR/ANPR_RZA2M_GR_MANGO/src/tensorflow_lite/tensorflow/lite/kernels/internal\types.h ****         (i < dimensions_count) ? array_shape.Dims(dimensions_count - 1 - i) : 1;
 334:C:/Renesas/e2studio_2021_01_workspace_RZA2M_ANPR/ANPR_RZA2M_GR_MANGO/src/tensorflow_lite/tensorflow/lite/kernels/internal\types.h ****     result.sizes[i] = new_dim;
 335:C:/Renesas/e2studio_2021_01_workspace_RZA2M_ANPR/ANPR_RZA2M_GR_MANGO/src/tensorflow_lite/tensorflow/lite/kernels/internal\types.h ****     result.strides[i] = cum_prod;
 336:C:/Renesas/e2studio_2021_01_workspace_RZA2M_ANPR/ANPR_RZA2M_GR_MANGO/src/tensorflow_lite/tensorflow/lite/kernels/internal\types.h ****     cum_prod *= new_dim;
 337:C:/Renesas/e2studio_2021_01_workspace_RZA2M_ANPR/ANPR_RZA2M_GR_MANGO/src/tensorflow_lite/tensorflow/lite/kernels/internal\types.h ****   }
 338:C:/Renesas/e2studio_2021_01_workspace_RZA2M_ANPR/ANPR_RZA2M_GR_MANGO/src/tensorflow_lite/tensorflow/lite/kernels/internal\types.h ****   return result;
 339:C:/Renesas/e2studio_2021_01_workspace_RZA2M_ANPR/ANPR_RZA2M_GR_MANGO/src/tensorflow_lite/tensorflow/lite/kernels/internal\types.h **** }
 340:C:/Renesas/e2studio_2021_01_workspace_RZA2M_ANPR/ANPR_RZA2M_GR_MANGO/src/tensorflow_lite/tensorflow/lite/kernels/internal\types.h **** 
 341:C:/Renesas/e2studio_2021_01_workspace_RZA2M_ANPR/ANPR_RZA2M_GR_MANGO/src/tensorflow_lite/tensorflow/lite/kernels/internal\types.h **** // TODO(b/80418076): Move to legacy ops file, update invocations.
 342:C:/Renesas/e2studio_2021_01_workspace_RZA2M_ANPR/ANPR_RZA2M_GR_MANGO/src/tensorflow_lite/tensorflow/lite/kernels/internal\types.h **** inline RuntimeShape DimsToShape(const tflite::Dims<4>& dims) {
 343:C:/Renesas/e2studio_2021_01_workspace_RZA2M_ANPR/ANPR_RZA2M_GR_MANGO/src/tensorflow_lite/tensorflow/lite/kernels/internal\types.h ****   return RuntimeShape(
 344:C:/Renesas/e2studio_2021_01_workspace_RZA2M_ANPR/ANPR_RZA2M_GR_MANGO/src/tensorflow_lite/tensorflow/lite/kernels/internal\types.h ****       {dims.sizes[3], dims.sizes[2], dims.sizes[1], dims.sizes[0]});
 345:C:/Renesas/e2studio_2021_01_workspace_RZA2M_ANPR/ANPR_RZA2M_GR_MANGO/src/tensorflow_lite/tensorflow/lite/kernels/internal\types.h **** }
 346:C:/Renesas/e2studio_2021_01_workspace_RZA2M_ANPR/ANPR_RZA2M_GR_MANGO/src/tensorflow_lite/tensorflow/lite/kernels/internal\types.h **** 
 347:C:/Renesas/e2studio_2021_01_workspace_RZA2M_ANPR/ANPR_RZA2M_GR_MANGO/src/tensorflow_lite/tensorflow/lite/kernels/internal\types.h **** // Gets next index to iterate through a multidimensional array.
 348:C:/Renesas/e2studio_2021_01_workspace_RZA2M_ANPR/ANPR_RZA2M_GR_MANGO/src/tensorflow_lite/tensorflow/lite/kernels/internal\types.h **** inline bool NextIndex(const int num_dims, const int* dims, int* current) {
 349:C:/Renesas/e2studio_2021_01_workspace_RZA2M_ANPR/ANPR_RZA2M_GR_MANGO/src/tensorflow_lite/tensorflow/lite/kernels/internal\types.h ****   if (num_dims == 0) {
 350:C:/Renesas/e2studio_2021_01_workspace_RZA2M_ANPR/ANPR_RZA2M_GR_MANGO/src/tensorflow_lite/tensorflow/lite/kernels/internal\types.h ****     return false;
 351:C:/Renesas/e2studio_2021_01_workspace_RZA2M_ANPR/ANPR_RZA2M_GR_MANGO/src/tensorflow_lite/tensorflow/lite/kernels/internal\types.h ****   }
 352:C:/Renesas/e2studio_2021_01_workspace_RZA2M_ANPR/ANPR_RZA2M_GR_MANGO/src/tensorflow_lite/tensorflow/lite/kernels/internal\types.h ****   TFLITE_DCHECK(dims != nullptr);
 353:C:/Renesas/e2studio_2021_01_workspace_RZA2M_ANPR/ANPR_RZA2M_GR_MANGO/src/tensorflow_lite/tensorflow/lite/kernels/internal\types.h ****   TFLITE_DCHECK(current != nullptr);
 354:C:/Renesas/e2studio_2021_01_workspace_RZA2M_ANPR/ANPR_RZA2M_GR_MANGO/src/tensorflow_lite/tensorflow/lite/kernels/internal\types.h ****   int carry = 1;
 355:C:/Renesas/e2studio_2021_01_workspace_RZA2M_ANPR/ANPR_RZA2M_GR_MANGO/src/tensorflow_lite/tensorflow/lite/kernels/internal\types.h ****   for (int idx = num_dims - 1; idx >= 0; --idx) {
 356:C:/Renesas/e2studio_2021_01_workspace_RZA2M_ANPR/ANPR_RZA2M_GR_MANGO/src/tensorflow_lite/tensorflow/lite/kernels/internal\types.h ****     int current_val = current[idx] + carry;
 357:C:/Renesas/e2studio_2021_01_workspace_RZA2M_ANPR/ANPR_RZA2M_GR_MANGO/src/tensorflow_lite/tensorflow/lite/kernels/internal\types.h ****     TFLITE_DCHECK_GE(dims[idx], current_val);
 358:C:/Renesas/e2studio_2021_01_workspace_RZA2M_ANPR/ANPR_RZA2M_GR_MANGO/src/tensorflow_lite/tensorflow/lite/kernels/internal\types.h ****     if (dims[idx] == current_val) {
 359:C:/Renesas/e2studio_2021_01_workspace_RZA2M_ANPR/ANPR_RZA2M_GR_MANGO/src/tensorflow_lite/tensorflow/lite/kernels/internal\types.h ****       current[idx] = 0;
 360:C:/Renesas/e2studio_2021_01_workspace_RZA2M_ANPR/ANPR_RZA2M_GR_MANGO/src/tensorflow_lite/tensorflow/lite/kernels/internal\types.h ****     } else {
 361:C:/Renesas/e2studio_2021_01_workspace_RZA2M_ANPR/ANPR_RZA2M_GR_MANGO/src/tensorflow_lite/tensorflow/lite/kernels/internal\types.h ****       current[idx] = current_val;
 362:C:/Renesas/e2studio_2021_01_workspace_RZA2M_ANPR/ANPR_RZA2M_GR_MANGO/src/tensorflow_lite/tensorflow/lite/kernels/internal\types.h ****       carry = 0;
 363:C:/Renesas/e2studio_2021_01_workspace_RZA2M_ANPR/ANPR_RZA2M_GR_MANGO/src/tensorflow_lite/tensorflow/lite/kernels/internal\types.h ****       break;
 364:C:/Renesas/e2studio_2021_01_workspace_RZA2M_ANPR/ANPR_RZA2M_GR_MANGO/src/tensorflow_lite/tensorflow/lite/kernels/internal\types.h ****     }
 365:C:/Renesas/e2studio_2021_01_workspace_RZA2M_ANPR/ANPR_RZA2M_GR_MANGO/src/tensorflow_lite/tensorflow/lite/kernels/internal\types.h ****   }
 366:C:/Renesas/e2studio_2021_01_workspace_RZA2M_ANPR/ANPR_RZA2M_GR_MANGO/src/tensorflow_lite/tensorflow/lite/kernels/internal\types.h ****   return (carry == 0);
 367:C:/Renesas/e2studio_2021_01_workspace_RZA2M_ANPR/ANPR_RZA2M_GR_MANGO/src/tensorflow_lite/tensorflow/lite/kernels/internal\types.h **** }
 368:C:/Renesas/e2studio_2021_01_workspace_RZA2M_ANPR/ANPR_RZA2M_GR_MANGO/src/tensorflow_lite/tensorflow/lite/kernels/internal\types.h **** 
 369:C:/Renesas/e2studio_2021_01_workspace_RZA2M_ANPR/ANPR_RZA2M_GR_MANGO/src/tensorflow_lite/tensorflow/lite/kernels/internal\types.h **** // Gets offset of index if reducing on axis. When reducing, the flattened offset
 370:C:/Renesas/e2studio_2021_01_workspace_RZA2M_ANPR/ANPR_RZA2M_GR_MANGO/src/tensorflow_lite/tensorflow/lite/kernels/internal\types.h **** // will not change, if the input index changes on the given axis. For example,
 371:C:/Renesas/e2studio_2021_01_workspace_RZA2M_ANPR/ANPR_RZA2M_GR_MANGO/src/tensorflow_lite/tensorflow/lite/kernels/internal\types.h **** // if you have a 3D tensor and you are reducing to 2D by eliminating axis 0,
 372:C:/Renesas/e2studio_2021_01_workspace_RZA2M_ANPR/ANPR_RZA2M_GR_MANGO/src/tensorflow_lite/tensorflow/lite/kernels/internal\types.h **** // then index (0, 1, 2) and index (1, 1, 2) will map to the same flattened
 373:C:/Renesas/e2studio_2021_01_workspace_RZA2M_ANPR/ANPR_RZA2M_GR_MANGO/src/tensorflow_lite/tensorflow/lite/kernels/internal\types.h **** // offset.
 374:C:/Renesas/e2studio_2021_01_workspace_RZA2M_ANPR/ANPR_RZA2M_GR_MANGO/src/tensorflow_lite/tensorflow/lite/kernels/internal\types.h **** // TODO(kanlig): uses Dims to represent dimensions.
 375:C:/Renesas/e2studio_2021_01_workspace_RZA2M_ANPR/ANPR_RZA2M_GR_MANGO/src/tensorflow_lite/tensorflow/lite/kernels/internal\types.h **** inline size_t ReducedOutputOffset(const int num_dims, const int* dims,
 376:C:/Renesas/e2studio_2021_01_workspace_RZA2M_ANPR/ANPR_RZA2M_GR_MANGO/src/tensorflow_lite/tensorflow/lite/kernels/internal\types.h ****                                   const int* index, const int num_axis,
 377:C:/Renesas/e2studio_2021_01_workspace_RZA2M_ANPR/ANPR_RZA2M_GR_MANGO/src/tensorflow_lite/tensorflow/lite/kernels/internal\types.h ****                                   const int* axis) {
 378:C:/Renesas/e2studio_2021_01_workspace_RZA2M_ANPR/ANPR_RZA2M_GR_MANGO/src/tensorflow_lite/tensorflow/lite/kernels/internal\types.h ****   if (num_dims == 0) {
 379:C:/Renesas/e2studio_2021_01_workspace_RZA2M_ANPR/ANPR_RZA2M_GR_MANGO/src/tensorflow_lite/tensorflow/lite/kernels/internal\types.h ****     return 0;
 380:C:/Renesas/e2studio_2021_01_workspace_RZA2M_ANPR/ANPR_RZA2M_GR_MANGO/src/tensorflow_lite/tensorflow/lite/kernels/internal\types.h ****   }
 381:C:/Renesas/e2studio_2021_01_workspace_RZA2M_ANPR/ANPR_RZA2M_GR_MANGO/src/tensorflow_lite/tensorflow/lite/kernels/internal\types.h ****   TFLITE_DCHECK(dims != nullptr);
 382:C:/Renesas/e2studio_2021_01_workspace_RZA2M_ANPR/ANPR_RZA2M_GR_MANGO/src/tensorflow_lite/tensorflow/lite/kernels/internal\types.h ****   TFLITE_DCHECK(index != nullptr);
 383:C:/Renesas/e2studio_2021_01_workspace_RZA2M_ANPR/ANPR_RZA2M_GR_MANGO/src/tensorflow_lite/tensorflow/lite/kernels/internal\types.h ****   size_t offset = 0;
 384:C:/Renesas/e2studio_2021_01_workspace_RZA2M_ANPR/ANPR_RZA2M_GR_MANGO/src/tensorflow_lite/tensorflow/lite/kernels/internal\types.h ****   for (int idx = 0; idx < num_dims; ++idx) {
 385:C:/Renesas/e2studio_2021_01_workspace_RZA2M_ANPR/ANPR_RZA2M_GR_MANGO/src/tensorflow_lite/tensorflow/lite/kernels/internal\types.h ****     // if we need to skip this axis
 386:C:/Renesas/e2studio_2021_01_workspace_RZA2M_ANPR/ANPR_RZA2M_GR_MANGO/src/tensorflow_lite/tensorflow/lite/kernels/internal\types.h ****     bool is_axis = false;
 387:C:/Renesas/e2studio_2021_01_workspace_RZA2M_ANPR/ANPR_RZA2M_GR_MANGO/src/tensorflow_lite/tensorflow/lite/kernels/internal\types.h ****     if (axis != nullptr) {
 388:C:/Renesas/e2studio_2021_01_workspace_RZA2M_ANPR/ANPR_RZA2M_GR_MANGO/src/tensorflow_lite/tensorflow/lite/kernels/internal\types.h ****       for (int axis_idx = 0; axis_idx < num_axis; ++axis_idx) {
 389:C:/Renesas/e2studio_2021_01_workspace_RZA2M_ANPR/ANPR_RZA2M_GR_MANGO/src/tensorflow_lite/tensorflow/lite/kernels/internal\types.h ****         if (idx == axis[axis_idx]) {
 390:C:/Renesas/e2studio_2021_01_workspace_RZA2M_ANPR/ANPR_RZA2M_GR_MANGO/src/tensorflow_lite/tensorflow/lite/kernels/internal\types.h ****           is_axis = true;
 391:C:/Renesas/e2studio_2021_01_workspace_RZA2M_ANPR/ANPR_RZA2M_GR_MANGO/src/tensorflow_lite/tensorflow/lite/kernels/internal\types.h ****           break;
 392:C:/Renesas/e2studio_2021_01_workspace_RZA2M_ANPR/ANPR_RZA2M_GR_MANGO/src/tensorflow_lite/tensorflow/lite/kernels/internal\types.h ****         }
 393:C:/Renesas/e2studio_2021_01_workspace_RZA2M_ANPR/ANPR_RZA2M_GR_MANGO/src/tensorflow_lite/tensorflow/lite/kernels/internal\types.h ****       }
 394:C:/Renesas/e2studio_2021_01_workspace_RZA2M_ANPR/ANPR_RZA2M_GR_MANGO/src/tensorflow_lite/tensorflow/lite/kernels/internal\types.h ****     }
 395:C:/Renesas/e2studio_2021_01_workspace_RZA2M_ANPR/ANPR_RZA2M_GR_MANGO/src/tensorflow_lite/tensorflow/lite/kernels/internal\types.h ****     if (!is_axis) {
 396:C:/Renesas/e2studio_2021_01_workspace_RZA2M_ANPR/ANPR_RZA2M_GR_MANGO/src/tensorflow_lite/tensorflow/lite/kernels/internal\types.h ****       offset = offset * static_cast<size_t>(dims[idx]) +
 397:C:/Renesas/e2studio_2021_01_workspace_RZA2M_ANPR/ANPR_RZA2M_GR_MANGO/src/tensorflow_lite/tensorflow/lite/kernels/internal\types.h ****                static_cast<size_t>(index[idx]);
 398:C:/Renesas/e2studio_2021_01_workspace_RZA2M_ANPR/ANPR_RZA2M_GR_MANGO/src/tensorflow_lite/tensorflow/lite/kernels/internal\types.h ****     }
 399:C:/Renesas/e2studio_2021_01_workspace_RZA2M_ANPR/ANPR_RZA2M_GR_MANGO/src/tensorflow_lite/tensorflow/lite/kernels/internal\types.h ****   }
 400:C:/Renesas/e2studio_2021_01_workspace_RZA2M_ANPR/ANPR_RZA2M_GR_MANGO/src/tensorflow_lite/tensorflow/lite/kernels/internal\types.h ****   return offset;
 401:C:/Renesas/e2studio_2021_01_workspace_RZA2M_ANPR/ANPR_RZA2M_GR_MANGO/src/tensorflow_lite/tensorflow/lite/kernels/internal\types.h **** }
 402:C:/Renesas/e2studio_2021_01_workspace_RZA2M_ANPR/ANPR_RZA2M_GR_MANGO/src/tensorflow_lite/tensorflow/lite/kernels/internal\types.h **** 
 403:C:/Renesas/e2studio_2021_01_workspace_RZA2M_ANPR/ANPR_RZA2M_GR_MANGO/src/tensorflow_lite/tensorflow/lite/kernels/internal\types.h **** inline int Offset(const RuntimeShape& shape, int i0, int i1, int i2, int i3) {
 404:C:/Renesas/e2studio_2021_01_workspace_RZA2M_ANPR/ANPR_RZA2M_GR_MANGO/src/tensorflow_lite/tensorflow/lite/kernels/internal\types.h ****   TFLITE_DCHECK_EQ(shape.DimensionsCount(), 4);
 405:C:/Renesas/e2studio_2021_01_workspace_RZA2M_ANPR/ANPR_RZA2M_GR_MANGO/src/tensorflow_lite/tensorflow/lite/kernels/internal\types.h ****   const int* dims_data = reinterpret_cast<const int*>(shape.DimsDataUpTo5D());
 406:C:/Renesas/e2studio_2021_01_workspace_RZA2M_ANPR/ANPR_RZA2M_GR_MANGO/src/tensorflow_lite/tensorflow/lite/kernels/internal\types.h ****   TFLITE_DCHECK(i0 >= 0 && i0 < dims_data[0]);
 407:C:/Renesas/e2studio_2021_01_workspace_RZA2M_ANPR/ANPR_RZA2M_GR_MANGO/src/tensorflow_lite/tensorflow/lite/kernels/internal\types.h ****   TFLITE_DCHECK(i1 >= 0 && i1 < dims_data[1]);
 408:C:/Renesas/e2studio_2021_01_workspace_RZA2M_ANPR/ANPR_RZA2M_GR_MANGO/src/tensorflow_lite/tensorflow/lite/kernels/internal\types.h ****   TFLITE_DCHECK(i2 >= 0 && i2 < dims_data[2]);
 409:C:/Renesas/e2studio_2021_01_workspace_RZA2M_ANPR/ANPR_RZA2M_GR_MANGO/src/tensorflow_lite/tensorflow/lite/kernels/internal\types.h ****   TFLITE_DCHECK(i3 >= 0 && i3 < dims_data[3]);
 410:C:/Renesas/e2studio_2021_01_workspace_RZA2M_ANPR/ANPR_RZA2M_GR_MANGO/src/tensorflow_lite/tensorflow/lite/kernels/internal\types.h ****   return ((i0 * dims_data[1] + i1) * dims_data[2] + i2) * dims_data[3] + i3;
 411:C:/Renesas/e2studio_2021_01_workspace_RZA2M_ANPR/ANPR_RZA2M_GR_MANGO/src/tensorflow_lite/tensorflow/lite/kernels/internal\types.h **** }
 412:C:/Renesas/e2studio_2021_01_workspace_RZA2M_ANPR/ANPR_RZA2M_GR_MANGO/src/tensorflow_lite/tensorflow/lite/kernels/internal\types.h **** 
 413:C:/Renesas/e2studio_2021_01_workspace_RZA2M_ANPR/ANPR_RZA2M_GR_MANGO/src/tensorflow_lite/tensorflow/lite/kernels/internal\types.h **** inline int Offset(const RuntimeShape& shape, int i0, int i1, int i2, int i3,
 414:C:/Renesas/e2studio_2021_01_workspace_RZA2M_ANPR/ANPR_RZA2M_GR_MANGO/src/tensorflow_lite/tensorflow/lite/kernels/internal\types.h ****                   int i4) {
 415:C:/Renesas/e2studio_2021_01_workspace_RZA2M_ANPR/ANPR_RZA2M_GR_MANGO/src/tensorflow_lite/tensorflow/lite/kernels/internal\types.h ****   TFLITE_DCHECK_EQ(shape.DimensionsCount(), 5);
 416:C:/Renesas/e2studio_2021_01_workspace_RZA2M_ANPR/ANPR_RZA2M_GR_MANGO/src/tensorflow_lite/tensorflow/lite/kernels/internal\types.h ****   const int* dims_data = reinterpret_cast<const int*>(shape.DimsDataUpTo5D());
 417:C:/Renesas/e2studio_2021_01_workspace_RZA2M_ANPR/ANPR_RZA2M_GR_MANGO/src/tensorflow_lite/tensorflow/lite/kernels/internal\types.h ****   TFLITE_DCHECK(i0 >= 0 && i0 < dims_data[0]);
 418:C:/Renesas/e2studio_2021_01_workspace_RZA2M_ANPR/ANPR_RZA2M_GR_MANGO/src/tensorflow_lite/tensorflow/lite/kernels/internal\types.h ****   TFLITE_DCHECK(i1 >= 0 && i1 < dims_data[1]);
 419:C:/Renesas/e2studio_2021_01_workspace_RZA2M_ANPR/ANPR_RZA2M_GR_MANGO/src/tensorflow_lite/tensorflow/lite/kernels/internal\types.h ****   TFLITE_DCHECK(i2 >= 0 && i2 < dims_data[2]);
 420:C:/Renesas/e2studio_2021_01_workspace_RZA2M_ANPR/ANPR_RZA2M_GR_MANGO/src/tensorflow_lite/tensorflow/lite/kernels/internal\types.h ****   TFLITE_DCHECK(i3 >= 0 && i3 < dims_data[3]);
 421:C:/Renesas/e2studio_2021_01_workspace_RZA2M_ANPR/ANPR_RZA2M_GR_MANGO/src/tensorflow_lite/tensorflow/lite/kernels/internal\types.h ****   TFLITE_DCHECK(i4 >= 0 && i4 < dims_data[4]);
 422:C:/Renesas/e2studio_2021_01_workspace_RZA2M_ANPR/ANPR_RZA2M_GR_MANGO/src/tensorflow_lite/tensorflow/lite/kernels/internal\types.h ****   return (((i0 * dims_data[1] + i1) * dims_data[2] + i2) * dims_data[3] + i3) *
 423:C:/Renesas/e2studio_2021_01_workspace_RZA2M_ANPR/ANPR_RZA2M_GR_MANGO/src/tensorflow_lite/tensorflow/lite/kernels/internal\types.h ****              dims_data[4] +
 424:C:/Renesas/e2studio_2021_01_workspace_RZA2M_ANPR/ANPR_RZA2M_GR_MANGO/src/tensorflow_lite/tensorflow/lite/kernels/internal\types.h ****          i4;
 425:C:/Renesas/e2studio_2021_01_workspace_RZA2M_ANPR/ANPR_RZA2M_GR_MANGO/src/tensorflow_lite/tensorflow/lite/kernels/internal\types.h **** }
 426:C:/Renesas/e2studio_2021_01_workspace_RZA2M_ANPR/ANPR_RZA2M_GR_MANGO/src/tensorflow_lite/tensorflow/lite/kernels/internal\types.h **** 
 427:C:/Renesas/e2studio_2021_01_workspace_RZA2M_ANPR/ANPR_RZA2M_GR_MANGO/src/tensorflow_lite/tensorflow/lite/kernels/internal\types.h **** inline int Offset(const Dims<4>& dims, int i0, int i1, int i2, int i3) {
 428:C:/Renesas/e2studio_2021_01_workspace_RZA2M_ANPR/ANPR_RZA2M_GR_MANGO/src/tensorflow_lite/tensorflow/lite/kernels/internal\types.h ****   TFLITE_DCHECK(i0 >= 0 && i0 < dims.sizes[0]);
 429:C:/Renesas/e2studio_2021_01_workspace_RZA2M_ANPR/ANPR_RZA2M_GR_MANGO/src/tensorflow_lite/tensorflow/lite/kernels/internal\types.h ****   TFLITE_DCHECK(i1 >= 0 && i1 < dims.sizes[1]);
 430:C:/Renesas/e2studio_2021_01_workspace_RZA2M_ANPR/ANPR_RZA2M_GR_MANGO/src/tensorflow_lite/tensorflow/lite/kernels/internal\types.h ****   TFLITE_DCHECK(i2 >= 0 && i2 < dims.sizes[2]);
 431:C:/Renesas/e2studio_2021_01_workspace_RZA2M_ANPR/ANPR_RZA2M_GR_MANGO/src/tensorflow_lite/tensorflow/lite/kernels/internal\types.h ****   TFLITE_DCHECK(i3 >= 0 && i3 < dims.sizes[3]);
 432:C:/Renesas/e2studio_2021_01_workspace_RZA2M_ANPR/ANPR_RZA2M_GR_MANGO/src/tensorflow_lite/tensorflow/lite/kernels/internal\types.h ****   return i0 * dims.strides[0] + i1 * dims.strides[1] + i2 * dims.strides[2] +
 433:C:/Renesas/e2studio_2021_01_workspace_RZA2M_ANPR/ANPR_RZA2M_GR_MANGO/src/tensorflow_lite/tensorflow/lite/kernels/internal\types.h ****          i3 * dims.strides[3];
 434:C:/Renesas/e2studio_2021_01_workspace_RZA2M_ANPR/ANPR_RZA2M_GR_MANGO/src/tensorflow_lite/tensorflow/lite/kernels/internal\types.h **** }
 435:C:/Renesas/e2studio_2021_01_workspace_RZA2M_ANPR/ANPR_RZA2M_GR_MANGO/src/tensorflow_lite/tensorflow/lite/kernels/internal\types.h **** 
 436:C:/Renesas/e2studio_2021_01_workspace_RZA2M_ANPR/ANPR_RZA2M_GR_MANGO/src/tensorflow_lite/tensorflow/lite/kernels/internal\types.h **** inline int Offset(const Dims<4>& dims, int* index) {
 437:C:/Renesas/e2studio_2021_01_workspace_RZA2M_ANPR/ANPR_RZA2M_GR_MANGO/src/tensorflow_lite/tensorflow/lite/kernels/internal\types.h ****   return Offset(dims, index[0], index[1], index[2], index[3]);
 438:C:/Renesas/e2studio_2021_01_workspace_RZA2M_ANPR/ANPR_RZA2M_GR_MANGO/src/tensorflow_lite/tensorflow/lite/kernels/internal\types.h **** }
 439:C:/Renesas/e2studio_2021_01_workspace_RZA2M_ANPR/ANPR_RZA2M_GR_MANGO/src/tensorflow_lite/tensorflow/lite/kernels/internal\types.h **** 
 440:C:/Renesas/e2studio_2021_01_workspace_RZA2M_ANPR/ANPR_RZA2M_GR_MANGO/src/tensorflow_lite/tensorflow/lite/kernels/internal\types.h **** inline int Offset(const RuntimeShape& shape, int* index) {
 441:C:/Renesas/e2studio_2021_01_workspace_RZA2M_ANPR/ANPR_RZA2M_GR_MANGO/src/tensorflow_lite/tensorflow/lite/kernels/internal\types.h ****   return Offset(shape, index[0], index[1], index[2], index[3]);
 442:C:/Renesas/e2studio_2021_01_workspace_RZA2M_ANPR/ANPR_RZA2M_GR_MANGO/src/tensorflow_lite/tensorflow/lite/kernels/internal\types.h **** }
 443:C:/Renesas/e2studio_2021_01_workspace_RZA2M_ANPR/ANPR_RZA2M_GR_MANGO/src/tensorflow_lite/tensorflow/lite/kernels/internal\types.h **** 
 444:C:/Renesas/e2studio_2021_01_workspace_RZA2M_ANPR/ANPR_RZA2M_GR_MANGO/src/tensorflow_lite/tensorflow/lite/kernels/internal\types.h **** // Get array size, DCHECKing that the dim index is in range.
 445:C:/Renesas/e2studio_2021_01_workspace_RZA2M_ANPR/ANPR_RZA2M_GR_MANGO/src/tensorflow_lite/tensorflow/lite/kernels/internal\types.h **** //
 446:C:/Renesas/e2studio_2021_01_workspace_RZA2M_ANPR/ANPR_RZA2M_GR_MANGO/src/tensorflow_lite/tensorflow/lite/kernels/internal\types.h **** // Note that this will be phased out with Dims<4>, since RuntimeShape::Dims()
 447:C:/Renesas/e2studio_2021_01_workspace_RZA2M_ANPR/ANPR_RZA2M_GR_MANGO/src/tensorflow_lite/tensorflow/lite/kernels/internal\types.h **** // already performs this check.
 448:C:/Renesas/e2studio_2021_01_workspace_RZA2M_ANPR/ANPR_RZA2M_GR_MANGO/src/tensorflow_lite/tensorflow/lite/kernels/internal\types.h **** template <int N>
 449:C:/Renesas/e2studio_2021_01_workspace_RZA2M_ANPR/ANPR_RZA2M_GR_MANGO/src/tensorflow_lite/tensorflow/lite/kernels/internal\types.h **** int ArraySize(const Dims<N>& array, int index) {
 450:C:/Renesas/e2studio_2021_01_workspace_RZA2M_ANPR/ANPR_RZA2M_GR_MANGO/src/tensorflow_lite/tensorflow/lite/kernels/internal\types.h ****   TFLITE_DCHECK(index >= 0 && index < N);
 451:C:/Renesas/e2studio_2021_01_workspace_RZA2M_ANPR/ANPR_RZA2M_GR_MANGO/src/tensorflow_lite/tensorflow/lite/kernels/internal\types.h ****   return array.sizes[index];
 452:C:/Renesas/e2studio_2021_01_workspace_RZA2M_ANPR/ANPR_RZA2M_GR_MANGO/src/tensorflow_lite/tensorflow/lite/kernels/internal\types.h **** }
 453:C:/Renesas/e2studio_2021_01_workspace_RZA2M_ANPR/ANPR_RZA2M_GR_MANGO/src/tensorflow_lite/tensorflow/lite/kernels/internal\types.h **** 
 454:C:/Renesas/e2studio_2021_01_workspace_RZA2M_ANPR/ANPR_RZA2M_GR_MANGO/src/tensorflow_lite/tensorflow/lite/kernels/internal\types.h **** // Get common array size, DCHECKing that they all agree.
 455:C:/Renesas/e2studio_2021_01_workspace_RZA2M_ANPR/ANPR_RZA2M_GR_MANGO/src/tensorflow_lite/tensorflow/lite/kernels/internal\types.h **** template <typename ArrayType1, typename ArrayType2>
 456:C:/Renesas/e2studio_2021_01_workspace_RZA2M_ANPR/ANPR_RZA2M_GR_MANGO/src/tensorflow_lite/tensorflow/lite/kernels/internal\types.h **** int MatchingArraySize(const ArrayType1& array1, int index1,
 457:C:/Renesas/e2studio_2021_01_workspace_RZA2M_ANPR/ANPR_RZA2M_GR_MANGO/src/tensorflow_lite/tensorflow/lite/kernels/internal\types.h ****                       const ArrayType2& array2, int index2) {
 458:C:/Renesas/e2studio_2021_01_workspace_RZA2M_ANPR/ANPR_RZA2M_GR_MANGO/src/tensorflow_lite/tensorflow/lite/kernels/internal\types.h ****   TFLITE_DCHECK_EQ(ArraySize(array1, index1), ArraySize(array2, index2));
 459:C:/Renesas/e2studio_2021_01_workspace_RZA2M_ANPR/ANPR_RZA2M_GR_MANGO/src/tensorflow_lite/tensorflow/lite/kernels/internal\types.h ****   return ArraySize(array1, index1);
 460:C:/Renesas/e2studio_2021_01_workspace_RZA2M_ANPR/ANPR_RZA2M_GR_MANGO/src/tensorflow_lite/tensorflow/lite/kernels/internal\types.h **** }
 461:C:/Renesas/e2studio_2021_01_workspace_RZA2M_ANPR/ANPR_RZA2M_GR_MANGO/src/tensorflow_lite/tensorflow/lite/kernels/internal\types.h **** 
 462:C:/Renesas/e2studio_2021_01_workspace_RZA2M_ANPR/ANPR_RZA2M_GR_MANGO/src/tensorflow_lite/tensorflow/lite/kernels/internal\types.h **** template <typename ArrayType1, typename ArrayType2, typename... Args>
 463:C:/Renesas/e2studio_2021_01_workspace_RZA2M_ANPR/ANPR_RZA2M_GR_MANGO/src/tensorflow_lite/tensorflow/lite/kernels/internal\types.h **** int MatchingArraySize(const ArrayType1& array1, int index1,
 464:C:/Renesas/e2studio_2021_01_workspace_RZA2M_ANPR/ANPR_RZA2M_GR_MANGO/src/tensorflow_lite/tensorflow/lite/kernels/internal\types.h ****                       const ArrayType2& array2, int index2, Args... args) {
 465:C:/Renesas/e2studio_2021_01_workspace_RZA2M_ANPR/ANPR_RZA2M_GR_MANGO/src/tensorflow_lite/tensorflow/lite/kernels/internal\types.h ****   TFLITE_DCHECK_EQ(ArraySize(array1, index1), ArraySize(array2, index2));
 466:C:/Renesas/e2studio_2021_01_workspace_RZA2M_ANPR/ANPR_RZA2M_GR_MANGO/src/tensorflow_lite/tensorflow/lite/kernels/internal\types.h ****   return MatchingArraySize(array1, index1, args...);
 467:C:/Renesas/e2studio_2021_01_workspace_RZA2M_ANPR/ANPR_RZA2M_GR_MANGO/src/tensorflow_lite/tensorflow/lite/kernels/internal\types.h **** }
 468:C:/Renesas/e2studio_2021_01_workspace_RZA2M_ANPR/ANPR_RZA2M_GR_MANGO/src/tensorflow_lite/tensorflow/lite/kernels/internal\types.h **** 
 469:C:/Renesas/e2studio_2021_01_workspace_RZA2M_ANPR/ANPR_RZA2M_GR_MANGO/src/tensorflow_lite/tensorflow/lite/kernels/internal\types.h **** // Get common shape dim, DCHECKing that they all agree.
 470:C:/Renesas/e2studio_2021_01_workspace_RZA2M_ANPR/ANPR_RZA2M_GR_MANGO/src/tensorflow_lite/tensorflow/lite/kernels/internal\types.h **** inline int MatchingDim(const RuntimeShape& shape1, int index1,
 471:C:/Renesas/e2studio_2021_01_workspace_RZA2M_ANPR/ANPR_RZA2M_GR_MANGO/src/tensorflow_lite/tensorflow/lite/kernels/internal\types.h ****                        const RuntimeShape& shape2, int index2) {
 472:C:/Renesas/e2studio_2021_01_workspace_RZA2M_ANPR/ANPR_RZA2M_GR_MANGO/src/tensorflow_lite/tensorflow/lite/kernels/internal\types.h ****   TFLITE_DCHECK_EQ(shape1.Dims(index1), shape2.Dims(index2));
 473:C:/Renesas/e2studio_2021_01_workspace_RZA2M_ANPR/ANPR_RZA2M_GR_MANGO/src/tensorflow_lite/tensorflow/lite/kernels/internal\types.h ****   return std::min(shape1.Dims(index1), shape2.Dims(index2));
 474:C:/Renesas/e2studio_2021_01_workspace_RZA2M_ANPR/ANPR_RZA2M_GR_MANGO/src/tensorflow_lite/tensorflow/lite/kernels/internal\types.h **** }
 475:C:/Renesas/e2studio_2021_01_workspace_RZA2M_ANPR/ANPR_RZA2M_GR_MANGO/src/tensorflow_lite/tensorflow/lite/kernels/internal\types.h **** 
 476:C:/Renesas/e2studio_2021_01_workspace_RZA2M_ANPR/ANPR_RZA2M_GR_MANGO/src/tensorflow_lite/tensorflow/lite/kernels/internal\types.h **** template <typename... Args>
 477:C:/Renesas/e2studio_2021_01_workspace_RZA2M_ANPR/ANPR_RZA2M_GR_MANGO/src/tensorflow_lite/tensorflow/lite/kernels/internal\types.h **** int MatchingDim(const RuntimeShape& shape1, int index1,
 478:C:/Renesas/e2studio_2021_01_workspace_RZA2M_ANPR/ANPR_RZA2M_GR_MANGO/src/tensorflow_lite/tensorflow/lite/kernels/internal\types.h ****                 const RuntimeShape& shape2, int index2, Args... args) {
 479:C:/Renesas/e2studio_2021_01_workspace_RZA2M_ANPR/ANPR_RZA2M_GR_MANGO/src/tensorflow_lite/tensorflow/lite/kernels/internal\types.h ****   TFLITE_DCHECK_EQ(shape1.Dims(index1), shape2.Dims(index2));
 480:C:/Renesas/e2studio_2021_01_workspace_RZA2M_ANPR/ANPR_RZA2M_GR_MANGO/src/tensorflow_lite/tensorflow/lite/kernels/internal\types.h ****   return MatchingDim(shape1, index1, args...);
 481:C:/Renesas/e2studio_2021_01_workspace_RZA2M_ANPR/ANPR_RZA2M_GR_MANGO/src/tensorflow_lite/tensorflow/lite/kernels/internal\types.h **** }
 482:C:/Renesas/e2studio_2021_01_workspace_RZA2M_ANPR/ANPR_RZA2M_GR_MANGO/src/tensorflow_lite/tensorflow/lite/kernels/internal\types.h **** 
 483:C:/Renesas/e2studio_2021_01_workspace_RZA2M_ANPR/ANPR_RZA2M_GR_MANGO/src/tensorflow_lite/tensorflow/lite/kernels/internal\types.h **** // Will be phased out with Dims<4>, replaced by RuntimeShape::FlatSize().
 484:C:/Renesas/e2studio_2021_01_workspace_RZA2M_ANPR/ANPR_RZA2M_GR_MANGO/src/tensorflow_lite/tensorflow/lite/kernels/internal\types.h **** template <int N>
 485:C:/Renesas/e2studio_2021_01_workspace_RZA2M_ANPR/ANPR_RZA2M_GR_MANGO/src/tensorflow_lite/tensorflow/lite/kernels/internal\types.h **** inline int FlatSize(const Dims<N>& dims) {
 486:C:/Renesas/e2studio_2021_01_workspace_RZA2M_ANPR/ANPR_RZA2M_GR_MANGO/src/tensorflow_lite/tensorflow/lite/kernels/internal\types.h ****   int flat_size = 1;
 487:C:/Renesas/e2studio_2021_01_workspace_RZA2M_ANPR/ANPR_RZA2M_GR_MANGO/src/tensorflow_lite/tensorflow/lite/kernels/internal\types.h ****   for (int i = 0; i < N; ++i) {
 488:C:/Renesas/e2studio_2021_01_workspace_RZA2M_ANPR/ANPR_RZA2M_GR_MANGO/src/tensorflow_lite/tensorflow/lite/kernels/internal\types.h ****     flat_size *= dims.sizes[i];
 489:C:/Renesas/e2studio_2021_01_workspace_RZA2M_ANPR/ANPR_RZA2M_GR_MANGO/src/tensorflow_lite/tensorflow/lite/kernels/internal\types.h ****   }
 490:C:/Renesas/e2studio_2021_01_workspace_RZA2M_ANPR/ANPR_RZA2M_GR_MANGO/src/tensorflow_lite/tensorflow/lite/kernels/internal\types.h ****   return flat_size;
 491:C:/Renesas/e2studio_2021_01_workspace_RZA2M_ANPR/ANPR_RZA2M_GR_MANGO/src/tensorflow_lite/tensorflow/lite/kernels/internal\types.h **** }
 492:C:/Renesas/e2studio_2021_01_workspace_RZA2M_ANPR/ANPR_RZA2M_GR_MANGO/src/tensorflow_lite/tensorflow/lite/kernels/internal\types.h **** 
 493:C:/Renesas/e2studio_2021_01_workspace_RZA2M_ANPR/ANPR_RZA2M_GR_MANGO/src/tensorflow_lite/tensorflow/lite/kernels/internal\types.h **** TFLITE_DEPRECATED("Prefer FlatSize.")
 494:C:/Renesas/e2studio_2021_01_workspace_RZA2M_ANPR/ANPR_RZA2M_GR_MANGO/src/tensorflow_lite/tensorflow/lite/kernels/internal\types.h **** inline int RequiredBufferSizeForDims(const Dims<4>& dims) {
 495:C:/Renesas/e2studio_2021_01_workspace_RZA2M_ANPR/ANPR_RZA2M_GR_MANGO/src/tensorflow_lite/tensorflow/lite/kernels/internal\types.h ****   return FlatSize(dims);
 496:C:/Renesas/e2studio_2021_01_workspace_RZA2M_ANPR/ANPR_RZA2M_GR_MANGO/src/tensorflow_lite/tensorflow/lite/kernels/internal\types.h **** }
 497:C:/Renesas/e2studio_2021_01_workspace_RZA2M_ANPR/ANPR_RZA2M_GR_MANGO/src/tensorflow_lite/tensorflow/lite/kernels/internal\types.h **** 
 498:C:/Renesas/e2studio_2021_01_workspace_RZA2M_ANPR/ANPR_RZA2M_GR_MANGO/src/tensorflow_lite/tensorflow/lite/kernels/internal\types.h **** inline int MatchingElementsSize(const RuntimeShape& shape,
 499:C:/Renesas/e2studio_2021_01_workspace_RZA2M_ANPR/ANPR_RZA2M_GR_MANGO/src/tensorflow_lite/tensorflow/lite/kernels/internal\types.h ****                                 const RuntimeShape& check_shape_0) {
 500:C:/Renesas/e2studio_2021_01_workspace_RZA2M_ANPR/ANPR_RZA2M_GR_MANGO/src/tensorflow_lite/tensorflow/lite/kernels/internal\types.h ****   const int size_1 = shape.FlatSize();
 501:C:/Renesas/e2studio_2021_01_workspace_RZA2M_ANPR/ANPR_RZA2M_GR_MANGO/src/tensorflow_lite/tensorflow/lite/kernels/internal\types.h ****   const int size_2 = check_shape_0.FlatSize();
 502:C:/Renesas/e2studio_2021_01_workspace_RZA2M_ANPR/ANPR_RZA2M_GR_MANGO/src/tensorflow_lite/tensorflow/lite/kernels/internal\types.h ****   TFLITE_CHECK_EQ(size_1, size_2);
 503:C:/Renesas/e2studio_2021_01_workspace_RZA2M_ANPR/ANPR_RZA2M_GR_MANGO/src/tensorflow_lite/tensorflow/lite/kernels/internal\types.h ****   return size_1;
 504:C:/Renesas/e2studio_2021_01_workspace_RZA2M_ANPR/ANPR_RZA2M_GR_MANGO/src/tensorflow_lite/tensorflow/lite/kernels/internal\types.h **** }
 505:C:/Renesas/e2studio_2021_01_workspace_RZA2M_ANPR/ANPR_RZA2M_GR_MANGO/src/tensorflow_lite/tensorflow/lite/kernels/internal\types.h **** 
 506:C:/Renesas/e2studio_2021_01_workspace_RZA2M_ANPR/ANPR_RZA2M_GR_MANGO/src/tensorflow_lite/tensorflow/lite/kernels/internal\types.h **** inline int MatchingElementsSize(const RuntimeShape& shape,
 507:C:/Renesas/e2studio_2021_01_workspace_RZA2M_ANPR/ANPR_RZA2M_GR_MANGO/src/tensorflow_lite/tensorflow/lite/kernels/internal\types.h ****                                 const RuntimeShape& check_shape_0,
 508:C:/Renesas/e2studio_2021_01_workspace_RZA2M_ANPR/ANPR_RZA2M_GR_MANGO/src/tensorflow_lite/tensorflow/lite/kernels/internal\types.h ****                                 const RuntimeShape& check_shape_1) {
 509:C:/Renesas/e2studio_2021_01_workspace_RZA2M_ANPR/ANPR_RZA2M_GR_MANGO/src/tensorflow_lite/tensorflow/lite/kernels/internal\types.h ****   const int size_1 = shape.FlatSize();
 510:C:/Renesas/e2studio_2021_01_workspace_RZA2M_ANPR/ANPR_RZA2M_GR_MANGO/src/tensorflow_lite/tensorflow/lite/kernels/internal\types.h ****   const int size_2 = check_shape_0.FlatSize();
 511:C:/Renesas/e2studio_2021_01_workspace_RZA2M_ANPR/ANPR_RZA2M_GR_MANGO/src/tensorflow_lite/tensorflow/lite/kernels/internal\types.h ****   const int size_3 = check_shape_1.FlatSize();
 512:C:/Renesas/e2studio_2021_01_workspace_RZA2M_ANPR/ANPR_RZA2M_GR_MANGO/src/tensorflow_lite/tensorflow/lite/kernels/internal\types.h ****   TFLITE_CHECK_EQ(size_1, size_2);
 531              		.loc 3 512 0
 532 0098 FEFFFFEB 		bl	abort
 533              	.LVL42:
 534              	.L304:
 535              	.LBE1041:
 536              	.LBE1040:
 537              	.LBE1039:
 538              	.LBB1090:
 539              	.LBB791:
 540              	.LBB784:
 541              	.LBB785:
 232:C:/Renesas/e2studio_2021_01_workspace_RZA2M_ANPR/ANPR_RZA2M_GR_MANGO/src/tensorflow_lite/tensorflow/lite/kernels/internal\types.h ****   }
 542              		.loc 3 232 0
 543 009c 050056E3 		cmp	r6, #5
 544 00a0 6B0100DA 		ble	.L28
 545 00a4 048090E5 		ldr	r8, [r0, #4]
 546              	.LVL43:
 547              	.LBE785:
 548              	.LBE784:
 198:C:/Renesas/e2studio_2021_01_workspace_RZA2M_ANPR/ANPR_RZA2M_GR_MANGO/src/tensorflow_lite/tensorflow/lite/kernels/internal\types.h ****                0;
 549              		.loc 3 198 0
 550 00a8 0621A0E1 		lsl	r2, r6, #2
 551              	.LVL44:
 552 00ac 041094E5 		ldr	r1, [r4, #4]
 553              	.LVL45:
 554 00b0 0800A0E1 		mov	r0, r8
 555              	.LVL46:
 556 00b4 FEFFFFEB 		bl	memcmp
 557              	.LVL47:
 197:C:/Renesas/e2studio_2021_01_workspace_RZA2M_ANPR/ANPR_RZA2M_GR_MANGO/src/tensorflow_lite/tensorflow/lite/kernels/internal\types.h ****            std::memcmp(DimsData(), comp.DimsData(), size_ * sizeof(int32_t)) ==
 558              		.loc 3 197 0
 559 00b8 000050E3 		cmp	r0, #0
 560 00bc F5FFFF1A 		bne	.L30
 561              	.LVL48:
 562              	.L29:
 563 00c0 010056E3 		cmp	r6, #1
 564 00c4 5831A0E7 		sbfx	r3, r8, #2, #1
 565 00c8 06C0A0A1 		movge	ip, r6
 566 00cc 01C0A0B3 		movlt	ip, #1
 567 00d0 033003E2 		and	r3, r3, #3
 568 00d4 0C0053E1 		cmp	r3, ip
 569 00d8 0C30A021 		movcs	r3, ip
 570 00dc 08005CE3 		cmp	ip, #8
 571              	.LBE791:
 572              	.LBE1090:
  25:C:/Renesas/e2studio_2021_01_workspace_RZA2M_ANPR/ANPR_RZA2M_GR_MANGO/src/tensorflow_lite/tensorflow/lite/kernels/internal/reference\maximum_minimum.h ****                                  const T* input1_data,
 573              		.loc 2 25 0
 574 00e0 0C30A0D1 		movle	r3, ip
 575 00e4 810100CA 		bgt	.L305
 576              	.L33:
 577              	.LVL49:
 578 00e8 010053E3 		cmp	r3, #1
 579              	.LBB1091:
 580              	.LBB1085:
 581              	.LBB1082:
 582              	.LBB1042:
 583              	.LBB1043:
 584              	.LBB1044:
 293:C:/Renesas/e2studio_2021_01_workspace_RZA2M_ANPR/ANPR_RZA2M_GR_MANGO/src/tensorflow_lite/tensorflow/lite/kernels/internal\types.h ****     }
 585              		.loc 3 293 0
 586 00ec 007098E5 		ldr	r7, [r8]
 587              	.LVL50:
 588 00f0 7C01000A 		beq	.L192
 589 00f4 042098E5 		ldr	r2, [r8, #4]
 590 00f8 020053E3 		cmp	r3, #2
 591 00fc 920707E0 		mul	r7, r2, r7
 592              	.LVL51:
 593 0100 7801000A 		beq	.L192
 594 0104 082098E5 		ldr	r2, [r8, #8]
 595 0108 030053E3 		cmp	r3, #3
 596 010c 920707E0 		mul	r7, r2, r7
 597              	.LVL52:
 598 0110 7401000A 		beq	.L192
 599 0114 0C2098E5 		ldr	r2, [r8, #12]
 600 0118 040053E3 		cmp	r3, #4
 601 011c 920707E0 		mul	r7, r2, r7
 602              	.LVL53:
 603 0120 7001000A 		beq	.L192
 604 0124 102098E5 		ldr	r2, [r8, #16]
 605 0128 050053E3 		cmp	r3, #5
 606 012c 920707E0 		mul	r7, r2, r7
 607              	.LVL54:
 608 0130 6C01000A 		beq	.L192
 609 0134 142098E5 		ldr	r2, [r8, #20]
 610 0138 060053E3 		cmp	r3, #6
 611 013c 920707E0 		mul	r7, r2, r7
 612              	.LVL55:
 613 0140 6801000A 		beq	.L192
 614 0144 182098E5 		ldr	r2, [r8, #24]
 615 0148 070053E3 		cmp	r3, #7
 616 014c 920707E0 		mul	r7, r2, r7
 617              	.LVL56:
 618 0150 6401000A 		beq	.L192
 619 0154 1C1098E5 		ldr	r1, [r8, #28]
 292:C:/Renesas/e2studio_2021_01_workspace_RZA2M_ANPR/ANPR_RZA2M_GR_MANGO/src/tensorflow_lite/tensorflow/lite/kernels/internal\types.h ****       buffer_size *= dims_data[i];
 620              		.loc 3 292 0
 621 0158 0820A0E3 		mov	r2, #8
 293:C:/Renesas/e2studio_2021_01_workspace_RZA2M_ANPR/ANPR_RZA2M_GR_MANGO/src/tensorflow_lite/tensorflow/lite/kernels/internal\types.h ****     }
 622              		.loc 3 293 0
 623 015c 910707E0 		mul	r7, r1, r7
 624              	.LVL57:
 625              	.L35:
 626 0160 03005CE1 		cmp	ip, r3
 627 0164 2A00000A 		beq	.L36
 628              	.LVL58:
 629              	.L34:
 630 0168 000056E3 		cmp	r6, #0
 631 016c 03C04CE0 		sub	ip, ip, r3
 632 0170 010046C2 		subgt	r0, r6, #1
 633 0174 0000A0D3 		movle	r0, #0
 634 0178 04104CE2 		sub	r1, ip, #4
 635 017c 2111A0E1 		lsr	r1, r1, #2
 636 0180 030040E0 		sub	r0, r0, r3
 637 0184 020050E3 		cmp	r0, #2
 638 0188 011081E2 		add	r1, r1, #1
 639 018c 01E1A0E1 		lsl	lr, r1, #2
 640 0190 1200009A 		bls	.L37
 641 0194 033188E0 		add	r3, r8, r3, lsl #2
 292:C:/Renesas/e2studio_2021_01_workspace_RZA2M_ANPR/ANPR_RZA2M_GR_MANGO/src/tensorflow_lite/tensorflow/lite/kernels/internal\types.h ****       buffer_size *= dims_data[i];
 642              		.loc 3 292 0
 643 0198 5100C0F2 		vmov.i32	q8, #1  @ v4si
 644 019c 0000A0E3 		mov	r0, #0
 645              	.L39:
 646 01a0 010080E2 		add	r0, r0, #1
 293:C:/Renesas/e2studio_2021_01_workspace_RZA2M_ANPR/ANPR_RZA2M_GR_MANGO/src/tensorflow_lite/tensorflow/lite/kernels/internal\types.h ****     }
 647              		.loc 3 293 0
 648 01a4 DF2A63F4 		vld1.64	{d18-d19}, [r3:64]
 649 01a8 000051E1 		cmp	r1, r0
 650 01ac 103083E2 		add	r3, r3, #16
 651 01b0 F20960F2 		vmul.i32	q8, q8, q9
 652 01b4 F9FFFF8A 		bhi	.L39
 653 01b8 5020C0F2 		vmov.i32	q9, #0  @ v4si
 654 01bc 0E005CE1 		cmp	ip, lr
 655 01c0 0E2082E0 		add	r2, r2, lr
 656 01c4 E248F0F2 		vext.32	q10, q8, q9, #2
 657 01c8 F40960F2 		vmul.i32	q8, q8, q10
 658 01cc E224F0F2 		vext.32	q9, q8, q9, #1
 659 01d0 F20960F2 		vmul.i32	q8, q8, q9
 660 01d4 903B10EE 		vmov.32	r3, d16[0]
 661 01d8 930707E0 		mul	r7, r3, r7
 662 01dc 0C00000A 		beq	.L36
 663              	.L37:
 664              	.LVL59:
 665 01e0 021198E7 		ldr	r1, [r8, r2, lsl #2]
 292:C:/Renesas/e2studio_2021_01_workspace_RZA2M_ANPR/ANPR_RZA2M_GR_MANGO/src/tensorflow_lite/tensorflow/lite/kernels/internal\types.h ****       buffer_size *= dims_data[i];
 666              		.loc 3 292 0
 667 01e4 013082E2 		add	r3, r2, #1
 668 01e8 030056E1 		cmp	r6, r3
 293:C:/Renesas/e2studio_2021_01_workspace_RZA2M_ANPR/ANPR_RZA2M_GR_MANGO/src/tensorflow_lite/tensorflow/lite/kernels/internal\types.h ****     }
 669              		.loc 3 293 0
 670 01ec 0231A0E1 		lsl	r3, r2, #2
 671 01f0 910707E0 		mul	r7, r1, r7
 672              	.LVL60:
 292:C:/Renesas/e2studio_2021_01_workspace_RZA2M_ANPR/ANPR_RZA2M_GR_MANGO/src/tensorflow_lite/tensorflow/lite/kernels/internal\types.h ****       buffer_size *= dims_data[i];
 673              		.loc 3 292 0
 674 01f4 060000DA 		ble	.L36
 293:C:/Renesas/e2studio_2021_01_workspace_RZA2M_ANPR/ANPR_RZA2M_GR_MANGO/src/tensorflow_lite/tensorflow/lite/kernels/internal\types.h ****     }
 675              		.loc 3 293 0
 676 01f8 038088E0 		add	r8, r8, r3
 292:C:/Renesas/e2studio_2021_01_workspace_RZA2M_ANPR/ANPR_RZA2M_GR_MANGO/src/tensorflow_lite/tensorflow/lite/kernels/internal\types.h ****       buffer_size *= dims_data[i];
 677              		.loc 3 292 0
 678 01fc 022082E2 		add	r2, r2, #2
 293:C:/Renesas/e2studio_2021_01_workspace_RZA2M_ANPR/ANPR_RZA2M_GR_MANGO/src/tensorflow_lite/tensorflow/lite/kernels/internal\types.h ****     }
 679              		.loc 3 293 0
 680 0200 043098E5 		ldr	r3, [r8, #4]
 292:C:/Renesas/e2studio_2021_01_workspace_RZA2M_ANPR/ANPR_RZA2M_GR_MANGO/src/tensorflow_lite/tensorflow/lite/kernels/internal\types.h ****       buffer_size *= dims_data[i];
 681              		.loc 3 292 0
 682 0204 020056E1 		cmp	r6, r2
 293:C:/Renesas/e2studio_2021_01_workspace_RZA2M_ANPR/ANPR_RZA2M_GR_MANGO/src/tensorflow_lite/tensorflow/lite/kernels/internal\types.h ****     }
 683              		.loc 3 293 0
 684 0208 930707E0 		mul	r7, r3, r7
 685              	.LVL61:
 292:C:/Renesas/e2studio_2021_01_workspace_RZA2M_ANPR/ANPR_RZA2M_GR_MANGO/src/tensorflow_lite/tensorflow/lite/kernels/internal\types.h ****       buffer_size *= dims_data[i];
 686              		.loc 3 292 0
 293:C:/Renesas/e2studio_2021_01_workspace_RZA2M_ANPR/ANPR_RZA2M_GR_MANGO/src/tensorflow_lite/tensorflow/lite/kernels/internal\types.h ****     }
 687              		.loc 3 293 0
 688 020c 083098C5 		ldrgt	r3, [r8, #8]
 689 0210 930707C0 		mulgt	r7, r3, r7
 690              	.LVL62:
 691              	.L36:
 692              	.LBE1044:
 693              	.LBE1043:
 694              	.LBE1042:
 695              	.LBB1049:
 696              	.LBB1050:
 697              	.LBB1051:
 698              	.LBB1052:
 232:C:/Renesas/e2studio_2021_01_workspace_RZA2M_ANPR/ANPR_RZA2M_GR_MANGO/src/tensorflow_lite/tensorflow/lite/kernels/internal\types.h ****   }
 699              		.loc 3 232 0
 700 0214 050055E3 		cmp	r5, #5
 701 0218 300100CA 		bgt	.L43
 702              	.LBE1052:
 703              	.LBE1051:
 704              	.LBB1054:
 292:C:/Renesas/e2studio_2021_01_workspace_RZA2M_ANPR/ANPR_RZA2M_GR_MANGO/src/tensorflow_lite/tensorflow/lite/kernels/internal\types.h ****       buffer_size *= dims_data[i];
 705              		.loc 3 292 0
 706 021c 000055E3 		cmp	r5, #0
 707 0220 041084E2 		add	r1, r4, #4
 708              	.LVL63:
 709 0224 2B0100DA 		ble	.L306
 710              	.L44:
 711 0228 5131A0E7 		sbfx	r3, r1, #2, #1
 712 022c 033003E2 		and	r3, r3, #3
 713 0230 050053E1 		cmp	r3, r5
 714 0234 0530A021 		movcs	r3, r5
 715 0238 080055E3 		cmp	r5, #8
 716              	.LBE1054:
 717              	.LBB1055:
 718              	.LBB1053:
 232:C:/Renesas/e2studio_2021_01_workspace_RZA2M_ANPR/ANPR_RZA2M_GR_MANGO/src/tensorflow_lite/tensorflow/lite/kernels/internal\types.h ****   }
 719              		.loc 3 232 0
 720 023c 0530A0D1 		movle	r3, r5
 721 0240 1F0100CA 		bgt	.L307
 722              	.L45:
 723 0244 010053E3 		cmp	r3, #1
 724              	.LBE1053:
 725              	.LBE1055:
 726              	.LBB1056:
 293:C:/Renesas/e2studio_2021_01_workspace_RZA2M_ANPR/ANPR_RZA2M_GR_MANGO/src/tensorflow_lite/tensorflow/lite/kernels/internal\types.h ****     }
 727              		.loc 3 293 0
 728 0248 002091E5 		ldr	r2, [r1]
 729              	.LVL64:
 730 024c 1A01000A 		beq	.L202
 731 0250 040091E5 		ldr	r0, [r1, #4]
 732 0254 020053E3 		cmp	r3, #2
 733 0258 900202E0 		mul	r2, r0, r2
 734              	.LVL65:
 735 025c 1601000A 		beq	.L202
 736 0260 080091E5 		ldr	r0, [r1, #8]
 737 0264 030053E3 		cmp	r3, #3
 738 0268 900202E0 		mul	r2, r0, r2
 739              	.LVL66:
 740 026c 1201000A 		beq	.L202
 741 0270 0C0091E5 		ldr	r0, [r1, #12]
 742 0274 040053E3 		cmp	r3, #4
 743 0278 900202E0 		mul	r2, r0, r2
 744              	.LVL67:
 745 027c 0E01000A 		beq	.L202
 746 0280 100091E5 		ldr	r0, [r1, #16]
 747 0284 050053E3 		cmp	r3, #5
 748 0288 900202E0 		mul	r2, r0, r2
 749              	.LVL68:
 750 028c 0A01000A 		beq	.L202
 751 0290 140091E5 		ldr	r0, [r1, #20]
 752 0294 060053E3 		cmp	r3, #6
 753 0298 900202E0 		mul	r2, r0, r2
 754              	.LVL69:
 755 029c 0601000A 		beq	.L202
 756 02a0 180091E5 		ldr	r0, [r1, #24]
 757 02a4 070053E3 		cmp	r3, #7
 758 02a8 900202E0 		mul	r2, r0, r2
 759              	.LVL70:
 760 02ac 0201000A 		beq	.L202
 761 02b0 1CC091E5 		ldr	ip, [r1, #28]
 292:C:/Renesas/e2studio_2021_01_workspace_RZA2M_ANPR/ANPR_RZA2M_GR_MANGO/src/tensorflow_lite/tensorflow/lite/kernels/internal\types.h ****       buffer_size *= dims_data[i];
 762              		.loc 3 292 0
 763 02b4 0800A0E3 		mov	r0, #8
 293:C:/Renesas/e2studio_2021_01_workspace_RZA2M_ANPR/ANPR_RZA2M_GR_MANGO/src/tensorflow_lite/tensorflow/lite/kernels/internal\types.h ****     }
 764              		.loc 3 293 0
 765 02b8 9C0202E0 		mul	r2, ip, r2
 766              	.LVL71:
 767              	.L47:
 768 02bc 030055E1 		cmp	r5, r3
 769 02c0 2800000A 		beq	.L32
 770              	.LVL72:
 771              	.L46:
 772 02c4 036045E0 		sub	r6, r5, r3
 773 02c8 01E045E2 		sub	lr, r5, #1
 774 02cc 04C046E2 		sub	ip, r6, #4
 775 02d0 03E04EE0 		sub	lr, lr, r3
 776 02d4 2CC1A0E1 		lsr	ip, ip, #2
 777 02d8 02005EE3 		cmp	lr, #2
 778 02dc 01C08CE2 		add	ip, ip, #1
 779 02e0 0C41A0E1 		lsl	r4, ip, #2
 780              	.LVL73:
 781 02e4 1200009A 		bls	.L49
 782 02e8 033181E0 		add	r3, r1, r3, lsl #2
 292:C:/Renesas/e2studio_2021_01_workspace_RZA2M_ANPR/ANPR_RZA2M_GR_MANGO/src/tensorflow_lite/tensorflow/lite/kernels/internal\types.h ****       buffer_size *= dims_data[i];
 783              		.loc 3 292 0
 784 02ec 5100C0F2 		vmov.i32	q8, #1  @ v4si
 785 02f0 00E0A0E3 		mov	lr, #0
 786              	.L51:
 787 02f4 01E08EE2 		add	lr, lr, #1
 293:C:/Renesas/e2studio_2021_01_workspace_RZA2M_ANPR/ANPR_RZA2M_GR_MANGO/src/tensorflow_lite/tensorflow/lite/kernels/internal\types.h ****     }
 788              		.loc 3 293 0
 789 02f8 DF2A63F4 		vld1.64	{d18-d19}, [r3:64]
 790 02fc 0E005CE1 		cmp	ip, lr
 791 0300 103083E2 		add	r3, r3, #16
 792 0304 F20960F2 		vmul.i32	q8, q8, q9
 793 0308 F9FFFF8A 		bhi	.L51
 794 030c 5020C0F2 		vmov.i32	q9, #0  @ v4si
 795 0310 060054E1 		cmp	r4, r6
 796 0314 040080E0 		add	r0, r0, r4
 797 0318 E248F0F2 		vext.32	q10, q8, q9, #2
 798 031c F40960F2 		vmul.i32	q8, q8, q10
 799 0320 E224F0F2 		vext.32	q9, q8, q9, #1
 800 0324 F20960F2 		vmul.i32	q8, q8, q9
 801 0328 903B10EE 		vmov.32	r3, d16[0]
 802 032c 930202E0 		mul	r2, r3, r2
 803 0330 0C00000A 		beq	.L32
 804              	.L49:
 805              	.LVL74:
 806 0334 00C191E7 		ldr	ip, [r1, r0, lsl #2]
 292:C:/Renesas/e2studio_2021_01_workspace_RZA2M_ANPR/ANPR_RZA2M_GR_MANGO/src/tensorflow_lite/tensorflow/lite/kernels/internal\types.h ****       buffer_size *= dims_data[i];
 807              		.loc 3 292 0
 808 0338 013080E2 		add	r3, r0, #1
 809 033c 030055E1 		cmp	r5, r3
 293:C:/Renesas/e2studio_2021_01_workspace_RZA2M_ANPR/ANPR_RZA2M_GR_MANGO/src/tensorflow_lite/tensorflow/lite/kernels/internal\types.h ****     }
 810              		.loc 3 293 0
 811 0340 0031A0E1 		lsl	r3, r0, #2
 812 0344 9C0202E0 		mul	r2, ip, r2
 813              	.LVL75:
 292:C:/Renesas/e2studio_2021_01_workspace_RZA2M_ANPR/ANPR_RZA2M_GR_MANGO/src/tensorflow_lite/tensorflow/lite/kernels/internal\types.h ****       buffer_size *= dims_data[i];
 814              		.loc 3 292 0
 815 0348 060000DA 		ble	.L32
 293:C:/Renesas/e2studio_2021_01_workspace_RZA2M_ANPR/ANPR_RZA2M_GR_MANGO/src/tensorflow_lite/tensorflow/lite/kernels/internal\types.h ****     }
 816              		.loc 3 293 0
 817 034c 031081E0 		add	r1, r1, r3
 292:C:/Renesas/e2studio_2021_01_workspace_RZA2M_ANPR/ANPR_RZA2M_GR_MANGO/src/tensorflow_lite/tensorflow/lite/kernels/internal\types.h ****       buffer_size *= dims_data[i];
 818              		.loc 3 292 0
 819 0350 020080E2 		add	r0, r0, #2
 293:C:/Renesas/e2studio_2021_01_workspace_RZA2M_ANPR/ANPR_RZA2M_GR_MANGO/src/tensorflow_lite/tensorflow/lite/kernels/internal\types.h ****     }
 820              		.loc 3 293 0
 821 0354 043091E5 		ldr	r3, [r1, #4]
 292:C:/Renesas/e2studio_2021_01_workspace_RZA2M_ANPR/ANPR_RZA2M_GR_MANGO/src/tensorflow_lite/tensorflow/lite/kernels/internal\types.h ****       buffer_size *= dims_data[i];
 822              		.loc 3 292 0
 823 0358 000055E1 		cmp	r5, r0
 293:C:/Renesas/e2studio_2021_01_workspace_RZA2M_ANPR/ANPR_RZA2M_GR_MANGO/src/tensorflow_lite/tensorflow/lite/kernels/internal\types.h ****     }
 824              		.loc 3 293 0
 825 035c 930202E0 		mul	r2, r3, r2
 826              	.LVL76:
 292:C:/Renesas/e2studio_2021_01_workspace_RZA2M_ANPR/ANPR_RZA2M_GR_MANGO/src/tensorflow_lite/tensorflow/lite/kernels/internal\types.h ****       buffer_size *= dims_data[i];
 827              		.loc 3 292 0
 293:C:/Renesas/e2studio_2021_01_workspace_RZA2M_ANPR/ANPR_RZA2M_GR_MANGO/src/tensorflow_lite/tensorflow/lite/kernels/internal\types.h ****     }
 828              		.loc 3 293 0
 829 0360 083091C5 		ldrgt	r3, [r1, #8]
 830 0364 930202C0 		mulgt	r2, r3, r2
 831              	.LVL77:
 832              	.L32:
 833              	.LBE1056:
 834              	.LBE1050:
 835              	.LBE1049:
 836              	.LBB1061:
 837              	.LBB1062:
 838              	.LBB1063:
 839              	.LBB1064:
 232:C:/Renesas/e2studio_2021_01_workspace_RZA2M_ANPR/ANPR_RZA2M_GR_MANGO/src/tensorflow_lite/tensorflow/lite/kernels/internal\types.h ****   }
 840              		.loc 3 232 0
 841 0368 00E099E5 		ldr	lr, [r9]
 842 036c 05005EE3 		cmp	lr, #5
 843 0370 CC0000DA 		ble	.L55
 844 0374 04C099E5 		ldr	ip, [r9, #4]
 845              	.LVL78:
 846              	.L56:
 847 0378 5C31A0E7 		sbfx	r3, ip, #2, #1
 848 037c 033003E2 		and	r3, r3, #3
 849 0380 0E0053E1 		cmp	r3, lr
 850 0384 0E30A021 		movcs	r3, lr
 851 0388 08005EE3 		cmp	lr, #8
 852              	.LBE1064:
 853              	.LBE1063:
 854              	.LBE1062:
 855              	.LBE1061:
 856              	.LBB1074:
 857              	.LBB1058:
 290:C:/Renesas/e2studio_2021_01_workspace_RZA2M_ANPR/ANPR_RZA2M_GR_MANGO/src/tensorflow_lite/tensorflow/lite/kernels/internal\types.h ****     const int* dims_data = reinterpret_cast<const int*>(DimsData());
 858              		.loc 3 290 0
 859 038c 0E30A0D1 		movle	r3, lr
 860 0390 BF0000CA 		bgt	.L308
 861              	.L58:
 862 0394 010053E3 		cmp	r3, #1
 863              	.LBE1058:
 864              	.LBE1074:
 865              	.LBB1075:
 866              	.LBB1071:
 867              	.LBB1066:
 293:C:/Renesas/e2studio_2021_01_workspace_RZA2M_ANPR/ANPR_RZA2M_GR_MANGO/src/tensorflow_lite/tensorflow/lite/kernels/internal\types.h ****     }
 868              		.loc 3 293 0
 869 0398 00109CE5 		ldr	r1, [ip]
 870              	.LVL79:
 871 039c B800000A 		beq	.L212
 872 03a0 04009CE5 		ldr	r0, [ip, #4]
 873 03a4 020053E3 		cmp	r3, #2
 874 03a8 900101E0 		mul	r1, r0, r1
 875              	.LVL80:
 876 03ac B400000A 		beq	.L212
 877 03b0 08009CE5 		ldr	r0, [ip, #8]
 878 03b4 030053E3 		cmp	r3, #3
 879 03b8 900101E0 		mul	r1, r0, r1
 880              	.LVL81:
 881 03bc B000000A 		beq	.L212
 882 03c0 0C009CE5 		ldr	r0, [ip, #12]
 883 03c4 040053E3 		cmp	r3, #4
 884 03c8 900101E0 		mul	r1, r0, r1
 885              	.LVL82:
 886 03cc AC00000A 		beq	.L212
 887 03d0 10009CE5 		ldr	r0, [ip, #16]
 888 03d4 050053E3 		cmp	r3, #5
 889 03d8 900101E0 		mul	r1, r0, r1
 890              	.LVL83:
 891 03dc A800000A 		beq	.L212
 892 03e0 14009CE5 		ldr	r0, [ip, #20]
 893 03e4 060053E3 		cmp	r3, #6
 894 03e8 900101E0 		mul	r1, r0, r1
 895              	.LVL84:
 896 03ec A400000A 		beq	.L212
 897 03f0 18009CE5 		ldr	r0, [ip, #24]
 898 03f4 070053E3 		cmp	r3, #7
 899 03f8 900101E0 		mul	r1, r0, r1
 900              	.LVL85:
 901 03fc A000000A 		beq	.L212
 902 0400 1C409CE5 		ldr	r4, [ip, #28]
 292:C:/Renesas/e2studio_2021_01_workspace_RZA2M_ANPR/ANPR_RZA2M_GR_MANGO/src/tensorflow_lite/tensorflow/lite/kernels/internal\types.h ****       buffer_size *= dims_data[i];
 903              		.loc 3 292 0
 904 0404 0800A0E3 		mov	r0, #8
 293:C:/Renesas/e2studio_2021_01_workspace_RZA2M_ANPR/ANPR_RZA2M_GR_MANGO/src/tensorflow_lite/tensorflow/lite/kernels/internal\types.h ****     }
 905              		.loc 3 293 0
 906 0408 940101E0 		mul	r1, r4, r1
 907              	.LVL86:
 908              	.L60:
 909 040c 03005EE1 		cmp	lr, r3
 910 0410 2800000A 		beq	.L57
 911              	.LVL87:
 912              	.L59:
 913 0414 03604EE0 		sub	r6, lr, r3
 914 0418 01504EE2 		sub	r5, lr, #1
 915 041c 044046E2 		sub	r4, r6, #4
 916 0420 035045E0 		sub	r5, r5, r3
 917 0424 2441A0E1 		lsr	r4, r4, #2
 918 0428 020055E3 		cmp	r5, #2
 919 042c 014084E2 		add	r4, r4, #1
 920 0430 0481A0E1 		lsl	r8, r4, #2
 921 0434 1200009A 		bls	.L62
 922 0438 03318CE0 		add	r3, ip, r3, lsl #2
 292:C:/Renesas/e2studio_2021_01_workspace_RZA2M_ANPR/ANPR_RZA2M_GR_MANGO/src/tensorflow_lite/tensorflow/lite/kernels/internal\types.h ****       buffer_size *= dims_data[i];
 923              		.loc 3 292 0
 924 043c 5120C0F2 		vmov.i32	q9, #1  @ v4si
 925 0440 0050A0E3 		mov	r5, #0
 926              	.L64:
 927 0444 015085E2 		add	r5, r5, #1
 293:C:/Renesas/e2studio_2021_01_workspace_RZA2M_ANPR/ANPR_RZA2M_GR_MANGO/src/tensorflow_lite/tensorflow/lite/kernels/internal\types.h ****     }
 928              		.loc 3 293 0
 929 0448 DF0A63F4 		vld1.64	{d16-d17}, [r3:64]
 930 044c 050054E1 		cmp	r4, r5
 931 0450 103083E2 		add	r3, r3, #16
 932 0454 F02962F2 		vmul.i32	q9, q9, q8
 933 0458 F9FFFF8A 		bhi	.L64
 934 045c 5000C0F2 		vmov.i32	q8, #0  @ v4si
 935 0460 060058E1 		cmp	r8, r6
 936 0464 080080E0 		add	r0, r0, r8
 937 0468 E048F2F2 		vext.32	q10, q9, q8, #2
 938 046c F42962F2 		vmul.i32	q9, q9, q10
 939 0470 E004F2F2 		vext.32	q8, q9, q8, #1
 940 0474 F20960F2 		vmul.i32	q8, q8, q9
 941 0478 903B10EE 		vmov.32	r3, d16[0]
 942 047c 930101E0 		mul	r1, r3, r1
 943 0480 0C00000A 		beq	.L57
 944              	.L62:
 945              	.LVL88:
 946 0484 00419CE7 		ldr	r4, [ip, r0, lsl #2]
 292:C:/Renesas/e2studio_2021_01_workspace_RZA2M_ANPR/ANPR_RZA2M_GR_MANGO/src/tensorflow_lite/tensorflow/lite/kernels/internal\types.h ****       buffer_size *= dims_data[i];
 947              		.loc 3 292 0
 948 0488 013080E2 		add	r3, r0, #1
 949 048c 0E0053E1 		cmp	r3, lr
 293:C:/Renesas/e2studio_2021_01_workspace_RZA2M_ANPR/ANPR_RZA2M_GR_MANGO/src/tensorflow_lite/tensorflow/lite/kernels/internal\types.h ****     }
 950              		.loc 3 293 0
 951 0490 0031A0E1 		lsl	r3, r0, #2
 952 0494 940101E0 		mul	r1, r4, r1
 953              	.LVL89:
 292:C:/Renesas/e2studio_2021_01_workspace_RZA2M_ANPR/ANPR_RZA2M_GR_MANGO/src/tensorflow_lite/tensorflow/lite/kernels/internal\types.h ****       buffer_size *= dims_data[i];
 954              		.loc 3 292 0
 955 0498 060000AA 		bge	.L57
 293:C:/Renesas/e2studio_2021_01_workspace_RZA2M_ANPR/ANPR_RZA2M_GR_MANGO/src/tensorflow_lite/tensorflow/lite/kernels/internal\types.h ****     }
 956              		.loc 3 293 0
 957 049c 03C08CE0 		add	ip, ip, r3
 292:C:/Renesas/e2studio_2021_01_workspace_RZA2M_ANPR/ANPR_RZA2M_GR_MANGO/src/tensorflow_lite/tensorflow/lite/kernels/internal\types.h ****       buffer_size *= dims_data[i];
 958              		.loc 3 292 0
 959 04a0 020080E2 		add	r0, r0, #2
 293:C:/Renesas/e2studio_2021_01_workspace_RZA2M_ANPR/ANPR_RZA2M_GR_MANGO/src/tensorflow_lite/tensorflow/lite/kernels/internal\types.h ****     }
 960              		.loc 3 293 0
 961 04a4 04309CE5 		ldr	r3, [ip, #4]
 292:C:/Renesas/e2studio_2021_01_workspace_RZA2M_ANPR/ANPR_RZA2M_GR_MANGO/src/tensorflow_lite/tensorflow/lite/kernels/internal\types.h ****       buffer_size *= dims_data[i];
 962              		.loc 3 292 0
 963 04a8 00005EE1 		cmp	lr, r0
 293:C:/Renesas/e2studio_2021_01_workspace_RZA2M_ANPR/ANPR_RZA2M_GR_MANGO/src/tensorflow_lite/tensorflow/lite/kernels/internal\types.h ****     }
 964              		.loc 3 293 0
 965 04ac 930101E0 		mul	r1, r3, r1
 966              	.LVL90:
 292:C:/Renesas/e2studio_2021_01_workspace_RZA2M_ANPR/ANPR_RZA2M_GR_MANGO/src/tensorflow_lite/tensorflow/lite/kernels/internal\types.h ****       buffer_size *= dims_data[i];
 967              		.loc 3 292 0
 293:C:/Renesas/e2studio_2021_01_workspace_RZA2M_ANPR/ANPR_RZA2M_GR_MANGO/src/tensorflow_lite/tensorflow/lite/kernels/internal\types.h ****     }
 968              		.loc 3 293 0
 969 04b0 08309CC5 		ldrgt	r3, [ip, #8]
 970 04b4 930101C0 		mulgt	r1, r3, r1
 971              	.LVL91:
 972              	.L57:
 973              	.LBE1066:
 974              	.LBE1071:
 975              	.LBE1075:
 976              		.loc 3 512 0
 977 04b8 070052E1 		cmp	r2, r7
 978 04bc F5FEFF1A 		bne	.L30
 513:C:/Renesas/e2studio_2021_01_workspace_RZA2M_ANPR/ANPR_RZA2M_GR_MANGO/src/tensorflow_lite/tensorflow/lite/kernels/internal\types.h ****   TFLITE_CHECK_EQ(size_2, size_3);
 979              		.loc 3 513 0
 980 04c0 070051E1 		cmp	r1, r7
 981 04c4 F3FEFF1A 		bne	.L30
 982              	.LVL92:
 983              	.LBE1082:
 984              	.LBE1085:
 985              	.LBB1086:
  36:C:/Renesas/e2studio_2021_01_workspace_RZA2M_ANPR/ANPR_RZA2M_GR_MANGO/src/tensorflow_lite/tensorflow/lite/kernels/internal/reference\maximum_minimum.h ****       output_data[i] = op(input1_data[i], input2_data[i]);
 986              		.loc 2 36 0 discriminator 3
 987 04c8 000057E3 		cmp	r7, #0
 988 04cc 440000DA 		ble	.L26
 989 04d0 080057E3 		cmp	r7, #8
 990 04d4 6C0000DA 		ble	.L213
 991 04d8 10309DE5 		ldr	r3, [sp, #16]
 992 04dc 099047E2 		sub	r9, r7, #9
  36:C:/Renesas/e2studio_2021_01_workspace_RZA2M_ANPR/ANPR_RZA2M_GR_MANGO/src/tensorflow_lite/tensorflow/lite/kernels/internal/reference\maximum_minimum.h ****       output_data[i] = op(input1_data[i], input2_data[i]);
 993              		.loc 2 36 0 is_stmt 0
 994 04e0 00A19DE5 		ldr	r10, [sp, #256]
 995 04e4 0790C9E3 		bic	r9, r9, #7
 996 04e8 089089E2 		add	r9, r9, #8
 997 04ec 0080A0E3 		mov	r8, #0
 998 04f0 206083E2 		add	r6, r3, #32
 999 04f4 14309DE5 		ldr	r3, [sp, #20]
 1000 04f8 205083E2 		add	r5, r3, #32
 1001 04fc FC309DE5 		ldr	r3, [sp, #252]
 1002 0500 204083E2 		add	r4, r3, #32
 1003              	.LVL93:
 1004              	.L72:
  37:C:/Renesas/e2studio_2021_01_workspace_RZA2M_ANPR/ANPR_RZA2M_GR_MANGO/src/tensorflow_lite/tensorflow/lite/kernels/internal/reference\maximum_minimum.h ****     }
 1005              		.loc 2 37 0 is_stmt 1 discriminator 2
 1006 0504 080A55ED 		vldr.32	s1, [r5, #-32]
 1007 0508 088088E2 		add	r8, r8, #8
 1008              	.LVL94:
 1009 050c 080A16ED 		vldr.32	s0, [r6, #-32]
 1010 0510 00F0D6F5 		pld	[r6]
 1011 0514 206086E2 		add	r6, r6, #32
 1012 0518 00F0D5F5 		pld	[r5]
 1013 051c 205085E2 		add	r5, r5, #32
 1014 0520 3AFF2FE1 		blx	r10
 1015              	.LVL95:
 1016 0524 080A04ED 		vstr.32	s0, [r4, #-32]
 1017              	.LVL96:
 1018 0528 0F0A55ED 		vldr.32	s1, [r5, #-60]
 1019 052c 0F0A16ED 		vldr.32	s0, [r6, #-60]
 1020 0530 00F0D4F5 		pld	[r4]
 1021 0534 204084E2 		add	r4, r4, #32
 1022 0538 3AFF2FE1 		blx	r10
 1023              	.LVL97:
 1024 053c 0F0A04ED 		vstr.32	s0, [r4, #-60]
 1025 0540 0E0A55ED 		vldr.32	s1, [r5, #-56]
 1026 0544 0E0A16ED 		vldr.32	s0, [r6, #-56]
 1027 0548 3AFF2FE1 		blx	r10
 1028              	.LVL98:
 1029 054c 0E0A04ED 		vstr.32	s0, [r4, #-56]
 1030 0550 0D0A16ED 		vldr.32	s0, [r6, #-52]
 1031 0554 0D0A55ED 		vldr.32	s1, [r5, #-52]
 1032 0558 3AFF2FE1 		blx	r10
 1033              	.LVL99:
 1034 055c 0D0A04ED 		vstr.32	s0, [r4, #-52]
 1035 0560 0C0A16ED 		vldr.32	s0, [r6, #-48]
 1036 0564 0C0A55ED 		vldr.32	s1, [r5, #-48]
 1037 0568 3AFF2FE1 		blx	r10
 1038              	.LVL100:
 1039 056c 0C0A04ED 		vstr.32	s0, [r4, #-48]
 1040 0570 0B0A16ED 		vldr.32	s0, [r6, #-44]
 1041 0574 0B0A55ED 		vldr.32	s1, [r5, #-44]
 1042 0578 3AFF2FE1 		blx	r10
 1043              	.LVL101:
 1044 057c 0B0A04ED 		vstr.32	s0, [r4, #-44]
 1045 0580 0A0A16ED 		vldr.32	s0, [r6, #-40]
 1046 0584 0A0A55ED 		vldr.32	s1, [r5, #-40]
 1047 0588 3AFF2FE1 		blx	r10
 1048              	.LVL102:
 1049 058c 0A0A04ED 		vstr.32	s0, [r4, #-40]
 1050 0590 090A16ED 		vldr.32	s0, [r6, #-36]
 1051 0594 090A55ED 		vldr.32	s1, [r5, #-36]
 1052 0598 3AFF2FE1 		blx	r10
 1053              	.LVL103:
 1054 059c 080059E1 		cmp	r9, r8
 1055 05a0 090A04ED 		vstr.32	s0, [r4, #-36]
 1056 05a4 D6FFFF1A 		bne	.L72
 1057              	.LVL104:
 1058              	.L71:
 1059 05a8 10209DE5 		ldr	r2, [sp, #16]
 1060 05ac 0831A0E1 		lsl	r3, r8, #2
 1061 05b0 036082E0 		add	r6, r2, r3
 1062 05b4 14209DE5 		ldr	r2, [sp, #20]
 1063 05b8 035082E0 		add	r5, r2, r3
 1064 05bc FC209DE5 		ldr	r2, [sp, #252]
 1065 05c0 034082E0 		add	r4, r2, r3
 1066              	.L74:
 1067              	.LVL105:
  36:C:/Renesas/e2studio_2021_01_workspace_RZA2M_ANPR/ANPR_RZA2M_GR_MANGO/src/tensorflow_lite/tensorflow/lite/kernels/internal/reference\maximum_minimum.h ****       output_data[i] = op(input1_data[i], input2_data[i]);
 1068              		.loc 2 36 0
 1069 05c4 018088E2 		add	r8, r8, #1
 1070              	.LVL106:
  37:C:/Renesas/e2studio_2021_01_workspace_RZA2M_ANPR/ANPR_RZA2M_GR_MANGO/src/tensorflow_lite/tensorflow/lite/kernels/internal/reference\maximum_minimum.h ****     }
 1071              		.loc 2 37 0
 1072 05c8 010AF5EC 		vldmia.32	r5!, {s1}
 1073 05cc 010AB6EC 		vldmia.32	r6!, {s0}
 1074 05d0 00319DE5 		ldr	r3, [sp, #256]
 1075 05d4 33FF2FE1 		blx	r3
 1076              	.LVL107:
 1077              	.LEHE0:
  36:C:/Renesas/e2studio_2021_01_workspace_RZA2M_ANPR/ANPR_RZA2M_GR_MANGO/src/tensorflow_lite/tensorflow/lite/kernels/internal/reference\maximum_minimum.h ****       output_data[i] = op(input1_data[i], input2_data[i]);
 1078              		.loc 2 36 0
 1079 05d8 070058E1 		cmp	r8, r7
  37:C:/Renesas/e2studio_2021_01_workspace_RZA2M_ANPR/ANPR_RZA2M_GR_MANGO/src/tensorflow_lite/tensorflow/lite/kernels/internal/reference\maximum_minimum.h ****     }
 1080              		.loc 2 37 0
 1081 05dc 010AA4EC 		vstmia.32	r4!, {s0}
  36:C:/Renesas/e2studio_2021_01_workspace_RZA2M_ANPR/ANPR_RZA2M_GR_MANGO/src/tensorflow_lite/tensorflow/lite/kernels/internal/reference\maximum_minimum.h ****       output_data[i] = op(input1_data[i], input2_data[i]);
 1082              		.loc 2 36 0
 1083 05e0 F7FFFFBA 		blt	.L74
 1084              	.LVL108:
 1085              	.L26:
 1086              	.LBE1086:
 1087              	.LBE1091:
  43:C:/Renesas/e2studio_2021_01_workspace_RZA2M_ANPR/ANPR_RZA2M_GR_MANGO/src/tensorflow_lite/tensorflow/lite/kernels/internal/reference\maximum_minimum.h **** 
  44:C:/Renesas/e2studio_2021_01_workspace_RZA2M_ANPR/ANPR_RZA2M_GR_MANGO/src/tensorflow_lite/tensorflow/lite/kernels/internal/reference\maximum_minimum.h ****     NdArrayDesc<N> desc1;
  45:C:/Renesas/e2studio_2021_01_workspace_RZA2M_ANPR/ANPR_RZA2M_GR_MANGO/src/tensorflow_lite/tensorflow/lite/kernels/internal/reference\maximum_minimum.h ****     NdArrayDesc<N> desc2;
  46:C:/Renesas/e2studio_2021_01_workspace_RZA2M_ANPR/ANPR_RZA2M_GR_MANGO/src/tensorflow_lite/tensorflow/lite/kernels/internal/reference\maximum_minimum.h ****     NdArrayDesc<N> output_desc;
  47:C:/Renesas/e2studio_2021_01_workspace_RZA2M_ANPR/ANPR_RZA2M_GR_MANGO/src/tensorflow_lite/tensorflow/lite/kernels/internal/reference\maximum_minimum.h ****     NdArrayDescsForElementwiseBroadcast(
  48:C:/Renesas/e2studio_2021_01_workspace_RZA2M_ANPR/ANPR_RZA2M_GR_MANGO/src/tensorflow_lite/tensorflow/lite/kernels/internal/reference\maximum_minimum.h ****         unextended_input1_shape, unextended_input2_shape, &desc1, &desc2);
  49:C:/Renesas/e2studio_2021_01_workspace_RZA2M_ANPR/ANPR_RZA2M_GR_MANGO/src/tensorflow_lite/tensorflow/lite/kernels/internal/reference\maximum_minimum.h ****     CopyDimsToDesc(RuntimeShape::ExtendedShape(N, unextended_output_shape),
  50:C:/Renesas/e2studio_2021_01_workspace_RZA2M_ANPR/ANPR_RZA2M_GR_MANGO/src/tensorflow_lite/tensorflow/lite/kernels/internal/reference\maximum_minimum.h ****                    &output_desc);
  51:C:/Renesas/e2studio_2021_01_workspace_RZA2M_ANPR/ANPR_RZA2M_GR_MANGO/src/tensorflow_lite/tensorflow/lite/kernels/internal/reference\maximum_minimum.h **** 
  52:C:/Renesas/e2studio_2021_01_workspace_RZA2M_ANPR/ANPR_RZA2M_GR_MANGO/src/tensorflow_lite/tensorflow/lite/kernels/internal/reference\maximum_minimum.h ****     auto maxmin_func = [&](int indexes[N]) {
  53:C:/Renesas/e2studio_2021_01_workspace_RZA2M_ANPR/ANPR_RZA2M_GR_MANGO/src/tensorflow_lite/tensorflow/lite/kernels/internal/reference\maximum_minimum.h ****       output_data[SubscriptToIndex(output_desc, indexes)] =
  54:C:/Renesas/e2studio_2021_01_workspace_RZA2M_ANPR/ANPR_RZA2M_GR_MANGO/src/tensorflow_lite/tensorflow/lite/kernels/internal/reference\maximum_minimum.h ****           op(input1_data[SubscriptToIndex(desc1, indexes)],
  55:C:/Renesas/e2studio_2021_01_workspace_RZA2M_ANPR/ANPR_RZA2M_GR_MANGO/src/tensorflow_lite/tensorflow/lite/kernels/internal/reference\maximum_minimum.h ****              input2_data[SubscriptToIndex(desc2, indexes)]);
  56:C:/Renesas/e2studio_2021_01_workspace_RZA2M_ANPR/ANPR_RZA2M_GR_MANGO/src/tensorflow_lite/tensorflow/lite/kernels/internal/reference\maximum_minimum.h ****     };
  57:C:/Renesas/e2studio_2021_01_workspace_RZA2M_ANPR/ANPR_RZA2M_GR_MANGO/src/tensorflow_lite/tensorflow/lite/kernels/internal/reference\maximum_minimum.h ****     NDOpsHelper<N>(output_desc, maxmin_func);
  58:C:/Renesas/e2studio_2021_01_workspace_RZA2M_ANPR/ANPR_RZA2M_GR_MANGO/src/tensorflow_lite/tensorflow/lite/kernels/internal/reference\maximum_minimum.h ****   }
  59:C:/Renesas/e2studio_2021_01_workspace_RZA2M_ANPR/ANPR_RZA2M_GR_MANGO/src/tensorflow_lite/tensorflow/lite/kernels/internal/reference\maximum_minimum.h **** }
 1088              		.loc 2 59 0
 1089 05e4 D4D08DE2 		add	sp, sp, #212
 1090              		.cfi_remember_state
 1091              		.cfi_def_cfa_offset 36
 1092              		@ sp needed
 1093 05e8 F08FBDE8 		pop	{r4, r5, r6, r7, r8, r9, r10, fp, pc}
 1094              	.LVL109:
 1095              	.L78:
 1096              		.cfi_restore_state
 1097              	.LBB1092:
 1098              	.LBB974:
 1099              	.LBB969:
 1100              	.LBB820:
 1101              	.LBB819:
 1102              	.LBB818:
 1103              	.LBB817:
 315:C:/Renesas/e2studio_2021_01_workspace_RZA2M_ANPR/ANPR_RZA2M_GR_MANGO/src/tensorflow_lite/tensorflow/lite/kernels/internal\types.h ****   }
 1104              		.loc 3 315 0
 1105 05ec 44308DE2 		add	r3, sp, #68
 1106 05f0 0621A0E1 		lsl	r2, r6, #2
 1107 05f4 000183E0 		add	r0, r3, r0, lsl #2
 1108              	.LVL110:
 1109 05f8 041087E2 		add	r1, r7, #4
 1110 05fc FEFFFFEB 		bl	memcpy
 1111              	.LVL111:
 1112              	.LBE817:
 1113              	.LBE818:
 1114              	.LBE819:
 1115              	.LBE820:
 1116              	.LBB821:
 1117              	.LBB822:
 1118              	.LBB823:
 1119              	.LBB824:
 1120              	.LBB825:
 311:C:/Renesas/e2studio_2021_01_workspace_RZA2M_ANPR/ANPR_RZA2M_GR_MANGO/src/tensorflow_lite/tensorflow/lite/kernels/internal\types.h ****       SetDim(i, pad_value);
 1121              		.loc 3 311 0
 1122 0600 050075E2 		rsbs	r0, r5, #5
 1123              	.LBE825:
 1124              	.LBB838:
 1125              	.LBB839:
 245:C:/Renesas/e2studio_2021_01_workspace_RZA2M_ANPR/ANPR_RZA2M_GR_MANGO/src/tensorflow_lite/tensorflow/lite/kernels/internal\types.h ****     if (dimensions_count > kMaxSmallSize) {
 1126              		.loc 3 245 0
 1127 0604 0530A0E3 		mov	r3, #5
 1128 0608 A8308DE5 		str	r3, [sp, #168]
 1129              	.LVL112:
 1130              	.LBE839:
 1131              	.LBE838:
 1132              	.LBB840:
 311:C:/Renesas/e2studio_2021_01_workspace_RZA2M_ANPR/ANPR_RZA2M_GR_MANGO/src/tensorflow_lite/tensorflow/lite/kernels/internal\types.h ****       SetDim(i, pad_value);
 1133              		.loc 3 311 0
 1134 060c 4400000A 		beq	.L76
 1135              	.LVL113:
 1136 0610 010050E3 		cmp	r0, #1
 1137              	.LBB826:
 1138              	.LBB827:
 224:C:/Renesas/e2studio_2021_01_workspace_RZA2M_ANPR/ANPR_RZA2M_GR_MANGO/src/tensorflow_lite/tensorflow/lite/kernels/internal\types.h ****     }
 1139              		.loc 3 224 0
 1140 0614 0130A0E3 		mov	r3, #1
 1141 0618 AC308DE5 		str	r3, [sp, #172]
 1142              	.LVL114:
 1143              	.LBE827:
 1144              	.LBE826:
 311:C:/Renesas/e2studio_2021_01_workspace_RZA2M_ANPR/ANPR_RZA2M_GR_MANGO/src/tensorflow_lite/tensorflow/lite/kernels/internal\types.h ****       SetDim(i, pad_value);
 1145              		.loc 3 311 0
 1146 061c 4000000A 		beq	.L76
 1147              	.LVL115:
 1148 0620 020050E3 		cmp	r0, #2
 1149              	.LBB833:
 1150              	.LBB828:
 224:C:/Renesas/e2studio_2021_01_workspace_RZA2M_ANPR/ANPR_RZA2M_GR_MANGO/src/tensorflow_lite/tensorflow/lite/kernels/internal\types.h ****     }
 1151              		.loc 3 224 0
 1152 0624 B0308DE5 		str	r3, [sp, #176]
 1153              	.LVL116:
 1154              	.LBE828:
 1155              	.LBE833:
 311:C:/Renesas/e2studio_2021_01_workspace_RZA2M_ANPR/ANPR_RZA2M_GR_MANGO/src/tensorflow_lite/tensorflow/lite/kernels/internal\types.h ****       SetDim(i, pad_value);
 1156              		.loc 3 311 0
 1157 0628 3D00000A 		beq	.L76
 1158              	.LVL117:
 1159 062c 030050E3 		cmp	r0, #3
 1160              	.LBB834:
 1161              	.LBB829:
 224:C:/Renesas/e2studio_2021_01_workspace_RZA2M_ANPR/ANPR_RZA2M_GR_MANGO/src/tensorflow_lite/tensorflow/lite/kernels/internal\types.h ****     }
 1162              		.loc 3 224 0
 1163 0630 B4308DE5 		str	r3, [sp, #180]
 1164              	.LVL118:
 1165              	.LBE829:
 1166              	.LBE834:
 311:C:/Renesas/e2studio_2021_01_workspace_RZA2M_ANPR/ANPR_RZA2M_GR_MANGO/src/tensorflow_lite/tensorflow/lite/kernels/internal\types.h ****       SetDim(i, pad_value);
 1167              		.loc 3 311 0
 1168 0634 3A00000A 		beq	.L76
 1169              	.LVL119:
 1170 0638 040050E3 		cmp	r0, #4
 1171              	.LBB835:
 1172              	.LBB830:
 224:C:/Renesas/e2studio_2021_01_workspace_RZA2M_ANPR/ANPR_RZA2M_GR_MANGO/src/tensorflow_lite/tensorflow/lite/kernels/internal\types.h ****     }
 1173              		.loc 3 224 0
 1174 063c B8308DE5 		str	r3, [sp, #184]
 1175              	.LVL120:
 1176              	.LBE830:
 1177              	.LBE835:
 311:C:/Renesas/e2studio_2021_01_workspace_RZA2M_ANPR/ANPR_RZA2M_GR_MANGO/src/tensorflow_lite/tensorflow/lite/kernels/internal\types.h ****       SetDim(i, pad_value);
 1178              		.loc 3 311 0
 1179 0640 3700000A 		beq	.L76
 1180              	.LVL121:
 1181 0644 050050E3 		cmp	r0, #5
 1182              	.LBB836:
 1183              	.LBB831:
 224:C:/Renesas/e2studio_2021_01_workspace_RZA2M_ANPR/ANPR_RZA2M_GR_MANGO/src/tensorflow_lite/tensorflow/lite/kernels/internal\types.h ****     }
 1184              		.loc 3 224 0
 1185 0648 BC308DE5 		str	r3, [sp, #188]
 1186              	.LVL122:
 1187              	.LBE831:
 1188              	.LBE836:
 311:C:/Renesas/e2studio_2021_01_workspace_RZA2M_ANPR/ANPR_RZA2M_GR_MANGO/src/tensorflow_lite/tensorflow/lite/kernels/internal\types.h ****       SetDim(i, pad_value);
 1189              		.loc 3 311 0
 1190 064c 3400000A 		beq	.L76
 1191              	.LVL123:
 1192              	.LEHB1:
 1193              	.LBB837:
 1194              	.LBB832:
 220:C:/Renesas/e2studio_2021_01_workspace_RZA2M_ANPR/ANPR_RZA2M_GR_MANGO/src/tensorflow_lite/tensorflow/lite/kernels/internal\types.h ****     if (size_ > kMaxSmallSize) {
 1195              		.loc 3 220 0
 1196 0650 FEFFFFEB 		bl	abort
 1197              	.LVL124:
 1198              	.LEHE1:
 1199              	.L28:
 1200              	.LBE832:
 1201              	.LBE837:
 1202              	.LBE840:
 1203              	.LBE824:
 1204              	.LBE823:
 1205              	.LBE822:
 1206              	.LBE821:
 1207              	.LBE969:
 1208              	.LBE974:
 1209              	.LBE1092:
 1210              	.LBB1093:
 1211              	.LBB792:
 1212              	.LBB787:
 1213              	.LBB786:
 232:C:/Renesas/e2studio_2021_01_workspace_RZA2M_ANPR/ANPR_RZA2M_GR_MANGO/src/tensorflow_lite/tensorflow/lite/kernels/internal\types.h ****   }
 1214              		.loc 3 232 0
 1215 0654 048080E2 		add	r8, r0, #4
 1216              	.LVL125:
 1217              	.LBE786:
 1218              	.LBE787:
 198:C:/Renesas/e2studio_2021_01_workspace_RZA2M_ANPR/ANPR_RZA2M_GR_MANGO/src/tensorflow_lite/tensorflow/lite/kernels/internal\types.h ****                0;
 1219              		.loc 3 198 0
 1220 0658 0621A0E1 		lsl	r2, r6, #2
 1221              	.LVL126:
 1222 065c 0800A0E1 		mov	r0, r8
 1223              	.LVL127:
 1224 0660 041084E2 		add	r1, r4, #4
 1225              	.LVL128:
 1226 0664 FEFFFFEB 		bl	memcmp
 1227              	.LVL129:
 197:C:/Renesas/e2studio_2021_01_workspace_RZA2M_ANPR/ANPR_RZA2M_GR_MANGO/src/tensorflow_lite/tensorflow/lite/kernels/internal\types.h ****            std::memcmp(DimsData(), comp.DimsData(), size_ * sizeof(int32_t)) ==
 1228              		.loc 3 197 0
 1229 0668 000050E3 		cmp	r0, #0
 1230 066c 70FEFF1A 		bne	.L31
 1231              	.LVL130:
 1232              	.LBE792:
 1233              	.LBE1093:
 1234              	.LBB1094:
 1235              	.LBB1087:
 1236              	.LBB1083:
 1237              	.LBB1076:
 1238              	.LBB1047:
 1239              	.LBB1045:
 292:C:/Renesas/e2studio_2021_01_workspace_RZA2M_ANPR/ANPR_RZA2M_GR_MANGO/src/tensorflow_lite/tensorflow/lite/kernels/internal\types.h ****       buffer_size *= dims_data[i];
 1240              		.loc 3 292 0
 1241 0670 000056E3 		cmp	r6, #0
 1242 0674 91FEFFCA 		bgt	.L29
 1243              	.LBE1045:
 290:C:/Renesas/e2studio_2021_01_workspace_RZA2M_ANPR/ANPR_RZA2M_GR_MANGO/src/tensorflow_lite/tensorflow/lite/kernels/internal\types.h ****     const int* dims_data = reinterpret_cast<const int*>(DimsData());
 1244              		.loc 3 290 0
 1245 0678 0170A0E3 		mov	r7, #1
 1246              	.LVL131:
 1247              	.LBE1047:
 1248              	.LBE1076:
 1249              	.LBB1077:
 1250              	.LBB1059:
 1251 067c 0720A0E1 		mov	r2, r7
 1252 0680 38FFFFEA 		b	.L32
 1253              	.LVL132:
 1254              	.L212:
 1255              	.LBE1059:
 1256              	.LBE1077:
 1257              	.LBB1078:
 1258              	.LBB1072:
 1259              	.LBB1067:
 292:C:/Renesas/e2studio_2021_01_workspace_RZA2M_ANPR/ANPR_RZA2M_GR_MANGO/src/tensorflow_lite/tensorflow/lite/kernels/internal\types.h ****       buffer_size *= dims_data[i];
 1260              		.loc 3 292 0
 1261 0684 0300A0E1 		mov	r0, r3
 1262 0688 5FFFFFEA 		b	.L60
 1263              	.LVL133:
 1264              	.L213:
 1265              	.LBE1067:
 1266              	.LBE1072:
 1267              	.LBE1078:
 1268              	.LBE1083:
 1269              	.LBE1087:
 1270              	.LBB1088:
  36:C:/Renesas/e2studio_2021_01_workspace_RZA2M_ANPR/ANPR_RZA2M_GR_MANGO/src/tensorflow_lite/tensorflow/lite/kernels/internal/reference\maximum_minimum.h ****       output_data[i] = op(input1_data[i], input2_data[i]);
 1271              		.loc 2 36 0
 1272 068c 0080A0E3 		mov	r8, #0
 1273 0690 C4FFFFEA 		b	.L71
 1274              	.LVL134:
 1275              	.L308:
 1276 0694 000053E3 		cmp	r3, #0
 1277 0698 3DFFFF1A 		bne	.L58
 1278              	.LBE1088:
 1279              	.LBB1089:
 1280              	.LBB1084:
 1281              	.LBB1079:
 1282              	.LBB1073:
 1283              	.LBB1068:
 292:C:/Renesas/e2studio_2021_01_workspace_RZA2M_ANPR/ANPR_RZA2M_GR_MANGO/src/tensorflow_lite/tensorflow/lite/kernels/internal\types.h ****       buffer_size *= dims_data[i];
 1284              		.loc 3 292 0
 1285 069c 0110A0E3 		mov	r1, #1
 1286 06a0 0300A0E1 		mov	r0, r3
 1287 06a4 5AFFFFEA 		b	.L59
 1288              	.LVL135:
 1289              	.L55:
 1290 06a8 00005EE3 		cmp	lr, #0
 1291              	.LBE1068:
 1292              	.LBB1069:
 1293              	.LBB1065:
 232:C:/Renesas/e2studio_2021_01_workspace_RZA2M_ANPR/ANPR_RZA2M_GR_MANGO/src/tensorflow_lite/tensorflow/lite/kernels/internal\types.h ****   }
 1294              		.loc 3 232 0
 1295 06ac 04C089E2 		add	ip, r9, #4
 1296              	.LVL136:
 1297              	.LBE1065:
 1298              	.LBE1069:
 1299              	.LBB1070:
 292:C:/Renesas/e2studio_2021_01_workspace_RZA2M_ANPR/ANPR_RZA2M_GR_MANGO/src/tensorflow_lite/tensorflow/lite/kernels/internal\types.h ****       buffer_size *= dims_data[i];
 1300              		.loc 3 292 0
 1301 06b0 30FFFFCA 		bgt	.L56
 1302              	.LBE1070:
 290:C:/Renesas/e2studio_2021_01_workspace_RZA2M_ANPR/ANPR_RZA2M_GR_MANGO/src/tensorflow_lite/tensorflow/lite/kernels/internal\types.h ****     const int* dims_data = reinterpret_cast<const int*>(DimsData());
 1303              		.loc 3 290 0
 1304 06b4 0110A0E3 		mov	r1, #1
 1305 06b8 7EFFFFEA 		b	.L57
 1306              	.LVL137:
 1307              	.L202:
 1308              	.LBE1073:
 1309              	.LBE1079:
 1310              	.LBB1080:
 1311              	.LBB1060:
 1312              	.LBB1057:
 292:C:/Renesas/e2studio_2021_01_workspace_RZA2M_ANPR/ANPR_RZA2M_GR_MANGO/src/tensorflow_lite/tensorflow/lite/kernels/internal\types.h ****       buffer_size *= dims_data[i];
 1313              		.loc 3 292 0
 1314 06bc 0300A0E1 		mov	r0, r3
 1315 06c0 FDFEFFEA 		b	.L47
 1316              	.LVL138:
 1317              	.L307:
 1318 06c4 000053E3 		cmp	r3, #0
 1319 06c8 DDFEFF1A 		bne	.L45
 1320 06cc 0120A0E3 		mov	r2, #1
 1321 06d0 0300A0E1 		mov	r0, r3
 1322 06d4 FAFEFFEA 		b	.L46
 1323              	.L306:
 1324              	.LBE1057:
 290:C:/Renesas/e2studio_2021_01_workspace_RZA2M_ANPR/ANPR_RZA2M_GR_MANGO/src/tensorflow_lite/tensorflow/lite/kernels/internal\types.h ****     const int* dims_data = reinterpret_cast<const int*>(DimsData());
 1325              		.loc 3 290 0
 1326 06d8 0120A0E3 		mov	r2, #1
 1327 06dc 21FFFFEA 		b	.L32
 1328              	.LVL139:
 1329              	.L43:
 1330 06e0 041094E5 		ldr	r1, [r4, #4]
 1331              	.LVL140:
 1332 06e4 CFFEFFEA 		b	.L44
 1333              	.LVL141:
 1334              	.L192:
 1335              	.LBE1060:
 1336              	.LBE1080:
 1337              	.LBB1081:
 1338              	.LBB1048:
 1339              	.LBB1046:
 292:C:/Renesas/e2studio_2021_01_workspace_RZA2M_ANPR/ANPR_RZA2M_GR_MANGO/src/tensorflow_lite/tensorflow/lite/kernels/internal\types.h ****       buffer_size *= dims_data[i];
 1340              		.loc 3 292 0
 1341 06e8 0320A0E1 		mov	r2, r3
 1342 06ec 9BFEFFEA 		b	.L35
 1343              	.LVL142:
 1344              	.L305:
 1345 06f0 000053E3 		cmp	r3, #0
 1346 06f4 7BFEFF1A 		bne	.L33
 1347 06f8 0170A0E3 		mov	r7, #1
 1348              	.LVL143:
 1349 06fc 0320A0E1 		mov	r2, r3
 1350 0700 98FEFFEA 		b	.L34
 1351              	.LVL144:
 1352              	.L216:
 1353 0704 40409DE5 		ldr	r4, [sp, #64]
 1354              	.LVL145:
 1355              	.L83:
 1356              	.LBE1046:
 1357              	.LBE1048:
 1358              	.LBE1081:
 1359              	.LBE1084:
 1360              	.LBE1089:
 1361              	.LBE1094:
 1362              	.LBB1095:
 1363              	.LBB975:
 1364              	.LBB970:
 1365              	.LBB844:
 1366              	.LBB845:
 203:C:/Renesas/e2studio_2021_01_workspace_RZA2M_ANPR/ANPR_RZA2M_GR_MANGO/src/tensorflow_lite/tensorflow/lite/kernels/internal\types.h **** #ifdef TF_LITE_STATIC_MEMORY
 1367              		.loc 3 203 0
 1368 0708 050054E3 		cmp	r4, #5
 1369 070c 030000DA 		ble	.L164
 207:C:/Renesas/e2studio_2021_01_workspace_RZA2M_ANPR/ANPR_RZA2M_GR_MANGO/src/tensorflow_lite/tensorflow/lite/kernels/internal\types.h **** #endif  // TF_LITE_STATIC_MEMORY
 1370              		.loc 3 207 0
 1371 0710 44009DE5 		ldr	r0, [sp, #68]
 1372 0714 000050E3 		cmp	r0, #0
 1373 0718 0000000A 		beq	.L164
 1374              	.LVL146:
 1375              	.L293:
 1376              	.LBE845:
 1377              	.LBE844:
 1378              	.LBE970:
 1379              	.LBE975:
 1380              	.LBB976:
 1381              	.LBB977:
 1382 071c FEFFFFEB 		bl	_ZdaPv
 1383              	.LVL147:
 1384              	.L164:
 1385              	.LEHB2:
 1386 0720 FEFFFFEB 		bl	__cxa_end_cleanup
 1387              	.LVL148:
 1388              	.L76:
 1389              	.LBE977:
 1390              	.LBE976:
 1391              	.LBB979:
 1392              	.LBB971:
 1393              	.LBB846:
 1394              	.LBB843:
 1395              	.LBB842:
 1396              	.LBB841:
 315:C:/Renesas/e2studio_2021_01_workspace_RZA2M_ANPR/ANPR_RZA2M_GR_MANGO/src/tensorflow_lite/tensorflow/lite/kernels/internal\types.h ****   }
 1397              		.loc 3 315 0
 1398 0724 AC308DE2 		add	r3, sp, #172
 1399 0728 041084E2 		add	r1, r4, #4
 1400 072c 000183E0 		add	r0, r3, r0, lsl #2
 1401              	.LVL149:
 1402 0730 0521A0E1 		lsl	r2, r5, #2
 1403 0734 FEFFFFEB 		bl	memcpy
 1404              	.LVL150:
 1405 0738 40409DE5 		ldr	r4, [sp, #64]
 1406              	.LVL151:
 1407              	.LBE841:
 1408              	.LBE842:
 1409              	.LBE843:
 1410              	.LBE846:
 1411              	.LBB847:
 1412              	.LBB848:
 1413              	.LBB849:
 1414              	.LBB850:
 1415              	.LBB851:
 216:C:/Renesas/e2studio_2021_01_workspace_RZA2M_ANPR/ANPR_RZA2M_GR_MANGO/src/tensorflow_lite/tensorflow/lite/kernels/internal\types.h ****   }
 1416              		.loc 3 216 0
 1417 073c 44309DE5 		ldr	r3, [sp, #68]
 1418 0740 050054E3 		cmp	r4, #5
 1419 0744 610100CA 		bgt	.L309
 1420              	.LVL152:
 215:C:/Renesas/e2studio_2021_01_workspace_RZA2M_ANPR/ANPR_RZA2M_GR_MANGO/src/tensorflow_lite/tensorflow/lite/kernels/internal\types.h ****     return size_ > kMaxSmallSize ? dims_pointer_[i] : dims_[i];
 1421              		.loc 3 215 0
 1422 0748 0302001A 		bne	.L81
 216:C:/Renesas/e2studio_2021_01_workspace_RZA2M_ANPR/ANPR_RZA2M_GR_MANGO/src/tensorflow_lite/tensorflow/lite/kernels/internal\types.h ****   }
 1423              		.loc 3 216 0
 1424 074c 54009DE5 		ldr	r0, [sp, #84]
 1425              	.LVL153:
 1426 0750 01C0A0E3 		mov	ip, #1
 1427 0754 50109DE5 		ldr	r1, [sp, #80]
 1428 0758 4C209DE5 		ldr	r2, [sp, #76]
 1429 075c 78008DE5 		str	r0, [sp, #120]
 1430 0760 7CC08DE5 		str	ip, [sp, #124]
 1431              	.LVL154:
 1432              	.LBE851:
 1433              	.LBE850:
 1434              		.file 4 "C:/Renesas/e2studio_2021_01_workspace_RZA2M_ANPR/ANPR_RZA2M_GR_MANGO/src/tensorflow_lite/
   1:C:/Renesas/e2studio_2021_01_workspace_RZA2M_ANPR/ANPR_RZA2M_GR_MANGO/src/tensorflow_lite/tensorflow/lite/kernels/internal\common.h **** /* Copyright 2017 The TensorFlow Authors. All Rights Reserved.
   2:C:/Renesas/e2studio_2021_01_workspace_RZA2M_ANPR/ANPR_RZA2M_GR_MANGO/src/tensorflow_lite/tensorflow/lite/kernels/internal\common.h **** 
   3:C:/Renesas/e2studio_2021_01_workspace_RZA2M_ANPR/ANPR_RZA2M_GR_MANGO/src/tensorflow_lite/tensorflow/lite/kernels/internal\common.h **** Licensed under the Apache License, Version 2.0 (the "License");
   4:C:/Renesas/e2studio_2021_01_workspace_RZA2M_ANPR/ANPR_RZA2M_GR_MANGO/src/tensorflow_lite/tensorflow/lite/kernels/internal\common.h **** you may not use this file except in compliance with the License.
   5:C:/Renesas/e2studio_2021_01_workspace_RZA2M_ANPR/ANPR_RZA2M_GR_MANGO/src/tensorflow_lite/tensorflow/lite/kernels/internal\common.h **** You may obtain a copy of the License at
   6:C:/Renesas/e2studio_2021_01_workspace_RZA2M_ANPR/ANPR_RZA2M_GR_MANGO/src/tensorflow_lite/tensorflow/lite/kernels/internal\common.h **** 
   7:C:/Renesas/e2studio_2021_01_workspace_RZA2M_ANPR/ANPR_RZA2M_GR_MANGO/src/tensorflow_lite/tensorflow/lite/kernels/internal\common.h ****     http://www.apache.org/licenses/LICENSE-2.0
   8:C:/Renesas/e2studio_2021_01_workspace_RZA2M_ANPR/ANPR_RZA2M_GR_MANGO/src/tensorflow_lite/tensorflow/lite/kernels/internal\common.h **** 
   9:C:/Renesas/e2studio_2021_01_workspace_RZA2M_ANPR/ANPR_RZA2M_GR_MANGO/src/tensorflow_lite/tensorflow/lite/kernels/internal\common.h **** Unless required by applicable law or agreed to in writing, software
  10:C:/Renesas/e2studio_2021_01_workspace_RZA2M_ANPR/ANPR_RZA2M_GR_MANGO/src/tensorflow_lite/tensorflow/lite/kernels/internal\common.h **** distributed under the License is distributed on an "AS IS" BASIS,
  11:C:/Renesas/e2studio_2021_01_workspace_RZA2M_ANPR/ANPR_RZA2M_GR_MANGO/src/tensorflow_lite/tensorflow/lite/kernels/internal\common.h **** WITHOUT WARRANTIES OR CONDITIONS OF ANY KIND, either express or implied.
  12:C:/Renesas/e2studio_2021_01_workspace_RZA2M_ANPR/ANPR_RZA2M_GR_MANGO/src/tensorflow_lite/tensorflow/lite/kernels/internal\common.h **** See the License for the specific language governing permissions and
  13:C:/Renesas/e2studio_2021_01_workspace_RZA2M_ANPR/ANPR_RZA2M_GR_MANGO/src/tensorflow_lite/tensorflow/lite/kernels/internal\common.h **** limitations under the License.
  14:C:/Renesas/e2studio_2021_01_workspace_RZA2M_ANPR/ANPR_RZA2M_GR_MANGO/src/tensorflow_lite/tensorflow/lite/kernels/internal\common.h **** ==============================================================================*/
  15:C:/Renesas/e2studio_2021_01_workspace_RZA2M_ANPR/ANPR_RZA2M_GR_MANGO/src/tensorflow_lite/tensorflow/lite/kernels/internal\common.h **** #ifndef TENSORFLOW_LITE_KERNELS_INTERNAL_COMMON_H_
  16:C:/Renesas/e2studio_2021_01_workspace_RZA2M_ANPR/ANPR_RZA2M_GR_MANGO/src/tensorflow_lite/tensorflow/lite/kernels/internal\common.h **** #define TENSORFLOW_LITE_KERNELS_INTERNAL_COMMON_H_
  17:C:/Renesas/e2studio_2021_01_workspace_RZA2M_ANPR/ANPR_RZA2M_GR_MANGO/src/tensorflow_lite/tensorflow/lite/kernels/internal\common.h **** 
  18:C:/Renesas/e2studio_2021_01_workspace_RZA2M_ANPR/ANPR_RZA2M_GR_MANGO/src/tensorflow_lite/tensorflow/lite/kernels/internal\common.h **** #ifndef ALLOW_SLOW_GENERIC_DEPTHWISECONV_FALLBACK
  19:C:/Renesas/e2studio_2021_01_workspace_RZA2M_ANPR/ANPR_RZA2M_GR_MANGO/src/tensorflow_lite/tensorflow/lite/kernels/internal\common.h **** #ifdef GEMMLOWP_ALLOW_SLOW_SCALAR_FALLBACK
  20:C:/Renesas/e2studio_2021_01_workspace_RZA2M_ANPR/ANPR_RZA2M_GR_MANGO/src/tensorflow_lite/tensorflow/lite/kernels/internal\common.h **** #define ALLOW_SLOW_GENERIC_DEPTHWISECONV_FALLBACK
  21:C:/Renesas/e2studio_2021_01_workspace_RZA2M_ANPR/ANPR_RZA2M_GR_MANGO/src/tensorflow_lite/tensorflow/lite/kernels/internal\common.h **** #endif
  22:C:/Renesas/e2studio_2021_01_workspace_RZA2M_ANPR/ANPR_RZA2M_GR_MANGO/src/tensorflow_lite/tensorflow/lite/kernels/internal\common.h **** #endif
  23:C:/Renesas/e2studio_2021_01_workspace_RZA2M_ANPR/ANPR_RZA2M_GR_MANGO/src/tensorflow_lite/tensorflow/lite/kernels/internal\common.h **** 
  24:C:/Renesas/e2studio_2021_01_workspace_RZA2M_ANPR/ANPR_RZA2M_GR_MANGO/src/tensorflow_lite/tensorflow/lite/kernels/internal\common.h **** #include <functional>
  25:C:/Renesas/e2studio_2021_01_workspace_RZA2M_ANPR/ANPR_RZA2M_GR_MANGO/src/tensorflow_lite/tensorflow/lite/kernels/internal\common.h **** 
  26:C:/Renesas/e2studio_2021_01_workspace_RZA2M_ANPR/ANPR_RZA2M_GR_MANGO/src/tensorflow_lite/tensorflow/lite/kernels/internal\common.h **** #include "fixedpoint/fixedpoint.h"
  27:C:/Renesas/e2studio_2021_01_workspace_RZA2M_ANPR/ANPR_RZA2M_GR_MANGO/src/tensorflow_lite/tensorflow/lite/kernels/internal\common.h **** #include "tensorflow/lite/kernels/internal/cppmath.h"
  28:C:/Renesas/e2studio_2021_01_workspace_RZA2M_ANPR/ANPR_RZA2M_GR_MANGO/src/tensorflow_lite/tensorflow/lite/kernels/internal\common.h **** #include "tensorflow/lite/kernels/internal/optimized/neon_check.h"
  29:C:/Renesas/e2studio_2021_01_workspace_RZA2M_ANPR/ANPR_RZA2M_GR_MANGO/src/tensorflow_lite/tensorflow/lite/kernels/internal\common.h **** #include "tensorflow/lite/kernels/internal/types.h"
  30:C:/Renesas/e2studio_2021_01_workspace_RZA2M_ANPR/ANPR_RZA2M_GR_MANGO/src/tensorflow_lite/tensorflow/lite/kernels/internal\common.h **** 
  31:C:/Renesas/e2studio_2021_01_workspace_RZA2M_ANPR/ANPR_RZA2M_GR_MANGO/src/tensorflow_lite/tensorflow/lite/kernels/internal\common.h **** namespace tflite {
  32:C:/Renesas/e2studio_2021_01_workspace_RZA2M_ANPR/ANPR_RZA2M_GR_MANGO/src/tensorflow_lite/tensorflow/lite/kernels/internal\common.h **** 
  33:C:/Renesas/e2studio_2021_01_workspace_RZA2M_ANPR/ANPR_RZA2M_GR_MANGO/src/tensorflow_lite/tensorflow/lite/kernels/internal\common.h **** constexpr int kReverseShift = -1;
  34:C:/Renesas/e2studio_2021_01_workspace_RZA2M_ANPR/ANPR_RZA2M_GR_MANGO/src/tensorflow_lite/tensorflow/lite/kernels/internal\common.h **** 
  35:C:/Renesas/e2studio_2021_01_workspace_RZA2M_ANPR/ANPR_RZA2M_GR_MANGO/src/tensorflow_lite/tensorflow/lite/kernels/internal\common.h **** inline void GetActivationMinMax(FusedActivationFunctionType ac,
  36:C:/Renesas/e2studio_2021_01_workspace_RZA2M_ANPR/ANPR_RZA2M_GR_MANGO/src/tensorflow_lite/tensorflow/lite/kernels/internal\common.h ****                                 float* output_activation_min,
  37:C:/Renesas/e2studio_2021_01_workspace_RZA2M_ANPR/ANPR_RZA2M_GR_MANGO/src/tensorflow_lite/tensorflow/lite/kernels/internal\common.h ****                                 float* output_activation_max) {
  38:C:/Renesas/e2studio_2021_01_workspace_RZA2M_ANPR/ANPR_RZA2M_GR_MANGO/src/tensorflow_lite/tensorflow/lite/kernels/internal\common.h ****   switch (ac) {
  39:C:/Renesas/e2studio_2021_01_workspace_RZA2M_ANPR/ANPR_RZA2M_GR_MANGO/src/tensorflow_lite/tensorflow/lite/kernels/internal\common.h ****     case FusedActivationFunctionType::kNone:
  40:C:/Renesas/e2studio_2021_01_workspace_RZA2M_ANPR/ANPR_RZA2M_GR_MANGO/src/tensorflow_lite/tensorflow/lite/kernels/internal\common.h ****       *output_activation_min = std::numeric_limits<float>::lowest();
  41:C:/Renesas/e2studio_2021_01_workspace_RZA2M_ANPR/ANPR_RZA2M_GR_MANGO/src/tensorflow_lite/tensorflow/lite/kernels/internal\common.h ****       *output_activation_max = std::numeric_limits<float>::max();
  42:C:/Renesas/e2studio_2021_01_workspace_RZA2M_ANPR/ANPR_RZA2M_GR_MANGO/src/tensorflow_lite/tensorflow/lite/kernels/internal\common.h ****       break;
  43:C:/Renesas/e2studio_2021_01_workspace_RZA2M_ANPR/ANPR_RZA2M_GR_MANGO/src/tensorflow_lite/tensorflow/lite/kernels/internal\common.h ****     case FusedActivationFunctionType::kRelu:
  44:C:/Renesas/e2studio_2021_01_workspace_RZA2M_ANPR/ANPR_RZA2M_GR_MANGO/src/tensorflow_lite/tensorflow/lite/kernels/internal\common.h ****       *output_activation_min = 0.f;
  45:C:/Renesas/e2studio_2021_01_workspace_RZA2M_ANPR/ANPR_RZA2M_GR_MANGO/src/tensorflow_lite/tensorflow/lite/kernels/internal\common.h ****       *output_activation_max = std::numeric_limits<float>::max();
  46:C:/Renesas/e2studio_2021_01_workspace_RZA2M_ANPR/ANPR_RZA2M_GR_MANGO/src/tensorflow_lite/tensorflow/lite/kernels/internal\common.h ****       break;
  47:C:/Renesas/e2studio_2021_01_workspace_RZA2M_ANPR/ANPR_RZA2M_GR_MANGO/src/tensorflow_lite/tensorflow/lite/kernels/internal\common.h ****     case FusedActivationFunctionType::kRelu1:
  48:C:/Renesas/e2studio_2021_01_workspace_RZA2M_ANPR/ANPR_RZA2M_GR_MANGO/src/tensorflow_lite/tensorflow/lite/kernels/internal\common.h ****       *output_activation_min = -1.f;
  49:C:/Renesas/e2studio_2021_01_workspace_RZA2M_ANPR/ANPR_RZA2M_GR_MANGO/src/tensorflow_lite/tensorflow/lite/kernels/internal\common.h ****       *output_activation_max = 1.f;
  50:C:/Renesas/e2studio_2021_01_workspace_RZA2M_ANPR/ANPR_RZA2M_GR_MANGO/src/tensorflow_lite/tensorflow/lite/kernels/internal\common.h ****       break;
  51:C:/Renesas/e2studio_2021_01_workspace_RZA2M_ANPR/ANPR_RZA2M_GR_MANGO/src/tensorflow_lite/tensorflow/lite/kernels/internal\common.h ****     case FusedActivationFunctionType::kRelu6:
  52:C:/Renesas/e2studio_2021_01_workspace_RZA2M_ANPR/ANPR_RZA2M_GR_MANGO/src/tensorflow_lite/tensorflow/lite/kernels/internal\common.h ****       *output_activation_min = 0.f;
  53:C:/Renesas/e2studio_2021_01_workspace_RZA2M_ANPR/ANPR_RZA2M_GR_MANGO/src/tensorflow_lite/tensorflow/lite/kernels/internal\common.h ****       *output_activation_max = 6.f;
  54:C:/Renesas/e2studio_2021_01_workspace_RZA2M_ANPR/ANPR_RZA2M_GR_MANGO/src/tensorflow_lite/tensorflow/lite/kernels/internal\common.h ****       break;
  55:C:/Renesas/e2studio_2021_01_workspace_RZA2M_ANPR/ANPR_RZA2M_GR_MANGO/src/tensorflow_lite/tensorflow/lite/kernels/internal\common.h ****   }
  56:C:/Renesas/e2studio_2021_01_workspace_RZA2M_ANPR/ANPR_RZA2M_GR_MANGO/src/tensorflow_lite/tensorflow/lite/kernels/internal\common.h **** }
  57:C:/Renesas/e2studio_2021_01_workspace_RZA2M_ANPR/ANPR_RZA2M_GR_MANGO/src/tensorflow_lite/tensorflow/lite/kernels/internal\common.h **** 
  58:C:/Renesas/e2studio_2021_01_workspace_RZA2M_ANPR/ANPR_RZA2M_GR_MANGO/src/tensorflow_lite/tensorflow/lite/kernels/internal\common.h **** template <typename T>
  59:C:/Renesas/e2studio_2021_01_workspace_RZA2M_ANPR/ANPR_RZA2M_GR_MANGO/src/tensorflow_lite/tensorflow/lite/kernels/internal\common.h **** inline T ActivationFunctionWithMinMax(T x, T output_activation_min,
  60:C:/Renesas/e2studio_2021_01_workspace_RZA2M_ANPR/ANPR_RZA2M_GR_MANGO/src/tensorflow_lite/tensorflow/lite/kernels/internal\common.h ****                                       T output_activation_max) {
  61:C:/Renesas/e2studio_2021_01_workspace_RZA2M_ANPR/ANPR_RZA2M_GR_MANGO/src/tensorflow_lite/tensorflow/lite/kernels/internal\common.h ****   using std::max;
  62:C:/Renesas/e2studio_2021_01_workspace_RZA2M_ANPR/ANPR_RZA2M_GR_MANGO/src/tensorflow_lite/tensorflow/lite/kernels/internal\common.h ****   using std::min;
  63:C:/Renesas/e2studio_2021_01_workspace_RZA2M_ANPR/ANPR_RZA2M_GR_MANGO/src/tensorflow_lite/tensorflow/lite/kernels/internal\common.h ****   return min(max(x, output_activation_min), output_activation_max);
  64:C:/Renesas/e2studio_2021_01_workspace_RZA2M_ANPR/ANPR_RZA2M_GR_MANGO/src/tensorflow_lite/tensorflow/lite/kernels/internal\common.h **** }
  65:C:/Renesas/e2studio_2021_01_workspace_RZA2M_ANPR/ANPR_RZA2M_GR_MANGO/src/tensorflow_lite/tensorflow/lite/kernels/internal\common.h **** 
  66:C:/Renesas/e2studio_2021_01_workspace_RZA2M_ANPR/ANPR_RZA2M_GR_MANGO/src/tensorflow_lite/tensorflow/lite/kernels/internal\common.h **** // Legacy function, left for compatibility only.
  67:C:/Renesas/e2studio_2021_01_workspace_RZA2M_ANPR/ANPR_RZA2M_GR_MANGO/src/tensorflow_lite/tensorflow/lite/kernels/internal\common.h **** template <FusedActivationFunctionType Ac>
  68:C:/Renesas/e2studio_2021_01_workspace_RZA2M_ANPR/ANPR_RZA2M_GR_MANGO/src/tensorflow_lite/tensorflow/lite/kernels/internal\common.h **** float ActivationFunction(float x) {
  69:C:/Renesas/e2studio_2021_01_workspace_RZA2M_ANPR/ANPR_RZA2M_GR_MANGO/src/tensorflow_lite/tensorflow/lite/kernels/internal\common.h ****   float output_activation_min, output_activation_max;
  70:C:/Renesas/e2studio_2021_01_workspace_RZA2M_ANPR/ANPR_RZA2M_GR_MANGO/src/tensorflow_lite/tensorflow/lite/kernels/internal\common.h ****   GetActivationMinMax(Ac, &output_activation_min, &output_activation_max);
  71:C:/Renesas/e2studio_2021_01_workspace_RZA2M_ANPR/ANPR_RZA2M_GR_MANGO/src/tensorflow_lite/tensorflow/lite/kernels/internal\common.h ****   return ActivationFunctionWithMinMax(x, output_activation_min,
  72:C:/Renesas/e2studio_2021_01_workspace_RZA2M_ANPR/ANPR_RZA2M_GR_MANGO/src/tensorflow_lite/tensorflow/lite/kernels/internal\common.h ****                                       output_activation_max);
  73:C:/Renesas/e2studio_2021_01_workspace_RZA2M_ANPR/ANPR_RZA2M_GR_MANGO/src/tensorflow_lite/tensorflow/lite/kernels/internal\common.h **** }
  74:C:/Renesas/e2studio_2021_01_workspace_RZA2M_ANPR/ANPR_RZA2M_GR_MANGO/src/tensorflow_lite/tensorflow/lite/kernels/internal\common.h **** 
  75:C:/Renesas/e2studio_2021_01_workspace_RZA2M_ANPR/ANPR_RZA2M_GR_MANGO/src/tensorflow_lite/tensorflow/lite/kernels/internal\common.h **** inline void BiasAndClamp(float clamp_min, float clamp_max, int bias_size,
  76:C:/Renesas/e2studio_2021_01_workspace_RZA2M_ANPR/ANPR_RZA2M_GR_MANGO/src/tensorflow_lite/tensorflow/lite/kernels/internal\common.h ****                          const float* bias_data, int array_size,
  77:C:/Renesas/e2studio_2021_01_workspace_RZA2M_ANPR/ANPR_RZA2M_GR_MANGO/src/tensorflow_lite/tensorflow/lite/kernels/internal\common.h ****                          float* array_data) {
  78:C:/Renesas/e2studio_2021_01_workspace_RZA2M_ANPR/ANPR_RZA2M_GR_MANGO/src/tensorflow_lite/tensorflow/lite/kernels/internal\common.h ****   // Note: see b/132215220: in May 2019 we thought it would be OK to replace
  79:C:/Renesas/e2studio_2021_01_workspace_RZA2M_ANPR/ANPR_RZA2M_GR_MANGO/src/tensorflow_lite/tensorflow/lite/kernels/internal\common.h ****   // this with the Eigen one-liner:
  80:C:/Renesas/e2studio_2021_01_workspace_RZA2M_ANPR/ANPR_RZA2M_GR_MANGO/src/tensorflow_lite/tensorflow/lite/kernels/internal\common.h ****   //   return (array.colwise() + bias).cwiseMin(clamp_max).cwiseMin(clamp_max).
  81:C:/Renesas/e2studio_2021_01_workspace_RZA2M_ANPR/ANPR_RZA2M_GR_MANGO/src/tensorflow_lite/tensorflow/lite/kernels/internal\common.h ****   // This turned out to severely regress performance: +4ms (i.e. 8%) on
  82:C:/Renesas/e2studio_2021_01_workspace_RZA2M_ANPR/ANPR_RZA2M_GR_MANGO/src/tensorflow_lite/tensorflow/lite/kernels/internal\common.h ****   // MobileNet v2 / 1.0 / 224. So we keep custom NEON code for now.
  83:C:/Renesas/e2studio_2021_01_workspace_RZA2M_ANPR/ANPR_RZA2M_GR_MANGO/src/tensorflow_lite/tensorflow/lite/kernels/internal\common.h ****   TFLITE_DCHECK_EQ((array_size % bias_size), 0);
  84:C:/Renesas/e2studio_2021_01_workspace_RZA2M_ANPR/ANPR_RZA2M_GR_MANGO/src/tensorflow_lite/tensorflow/lite/kernels/internal\common.h **** #ifdef USE_NEON
  85:C:/Renesas/e2studio_2021_01_workspace_RZA2M_ANPR/ANPR_RZA2M_GR_MANGO/src/tensorflow_lite/tensorflow/lite/kernels/internal\common.h ****   float* array_ptr = array_data;
  86:C:/Renesas/e2studio_2021_01_workspace_RZA2M_ANPR/ANPR_RZA2M_GR_MANGO/src/tensorflow_lite/tensorflow/lite/kernels/internal\common.h ****   float* array_end_ptr = array_ptr + array_size;
  87:C:/Renesas/e2studio_2021_01_workspace_RZA2M_ANPR/ANPR_RZA2M_GR_MANGO/src/tensorflow_lite/tensorflow/lite/kernels/internal\common.h ****   const auto clamp_min_vec = vdupq_n_f32(clamp_min);
  88:C:/Renesas/e2studio_2021_01_workspace_RZA2M_ANPR/ANPR_RZA2M_GR_MANGO/src/tensorflow_lite/tensorflow/lite/kernels/internal\common.h ****   const auto clamp_max_vec = vdupq_n_f32(clamp_max);
  89:C:/Renesas/e2studio_2021_01_workspace_RZA2M_ANPR/ANPR_RZA2M_GR_MANGO/src/tensorflow_lite/tensorflow/lite/kernels/internal\common.h ****   for (; array_ptr != array_end_ptr; array_ptr += bias_size) {
  90:C:/Renesas/e2studio_2021_01_workspace_RZA2M_ANPR/ANPR_RZA2M_GR_MANGO/src/tensorflow_lite/tensorflow/lite/kernels/internal\common.h ****     int i = 0;
  91:C:/Renesas/e2studio_2021_01_workspace_RZA2M_ANPR/ANPR_RZA2M_GR_MANGO/src/tensorflow_lite/tensorflow/lite/kernels/internal\common.h ****     for (; i <= bias_size - 16; i += 16) {
  92:C:/Renesas/e2studio_2021_01_workspace_RZA2M_ANPR/ANPR_RZA2M_GR_MANGO/src/tensorflow_lite/tensorflow/lite/kernels/internal\common.h ****       auto b0 = vld1q_f32(bias_data + i);
  93:C:/Renesas/e2studio_2021_01_workspace_RZA2M_ANPR/ANPR_RZA2M_GR_MANGO/src/tensorflow_lite/tensorflow/lite/kernels/internal\common.h ****       auto b1 = vld1q_f32(bias_data + i + 4);
  94:C:/Renesas/e2studio_2021_01_workspace_RZA2M_ANPR/ANPR_RZA2M_GR_MANGO/src/tensorflow_lite/tensorflow/lite/kernels/internal\common.h ****       auto b2 = vld1q_f32(bias_data + i + 8);
  95:C:/Renesas/e2studio_2021_01_workspace_RZA2M_ANPR/ANPR_RZA2M_GR_MANGO/src/tensorflow_lite/tensorflow/lite/kernels/internal\common.h ****       auto b3 = vld1q_f32(bias_data + i + 12);
  96:C:/Renesas/e2studio_2021_01_workspace_RZA2M_ANPR/ANPR_RZA2M_GR_MANGO/src/tensorflow_lite/tensorflow/lite/kernels/internal\common.h ****       auto a0 = vld1q_f32(array_ptr + i);
  97:C:/Renesas/e2studio_2021_01_workspace_RZA2M_ANPR/ANPR_RZA2M_GR_MANGO/src/tensorflow_lite/tensorflow/lite/kernels/internal\common.h ****       auto a1 = vld1q_f32(array_ptr + i + 4);
  98:C:/Renesas/e2studio_2021_01_workspace_RZA2M_ANPR/ANPR_RZA2M_GR_MANGO/src/tensorflow_lite/tensorflow/lite/kernels/internal\common.h ****       auto a2 = vld1q_f32(array_ptr + i + 8);
  99:C:/Renesas/e2studio_2021_01_workspace_RZA2M_ANPR/ANPR_RZA2M_GR_MANGO/src/tensorflow_lite/tensorflow/lite/kernels/internal\common.h ****       auto a3 = vld1q_f32(array_ptr + i + 12);
 100:C:/Renesas/e2studio_2021_01_workspace_RZA2M_ANPR/ANPR_RZA2M_GR_MANGO/src/tensorflow_lite/tensorflow/lite/kernels/internal\common.h ****       auto x0 = vaddq_f32(a0, b0);
 101:C:/Renesas/e2studio_2021_01_workspace_RZA2M_ANPR/ANPR_RZA2M_GR_MANGO/src/tensorflow_lite/tensorflow/lite/kernels/internal\common.h ****       auto x1 = vaddq_f32(a1, b1);
 102:C:/Renesas/e2studio_2021_01_workspace_RZA2M_ANPR/ANPR_RZA2M_GR_MANGO/src/tensorflow_lite/tensorflow/lite/kernels/internal\common.h ****       auto x2 = vaddq_f32(a2, b2);
 103:C:/Renesas/e2studio_2021_01_workspace_RZA2M_ANPR/ANPR_RZA2M_GR_MANGO/src/tensorflow_lite/tensorflow/lite/kernels/internal\common.h ****       auto x3 = vaddq_f32(a3, b3);
 104:C:/Renesas/e2studio_2021_01_workspace_RZA2M_ANPR/ANPR_RZA2M_GR_MANGO/src/tensorflow_lite/tensorflow/lite/kernels/internal\common.h ****       x0 = vmaxq_f32(clamp_min_vec, x0);
 105:C:/Renesas/e2studio_2021_01_workspace_RZA2M_ANPR/ANPR_RZA2M_GR_MANGO/src/tensorflow_lite/tensorflow/lite/kernels/internal\common.h ****       x1 = vmaxq_f32(clamp_min_vec, x1);
 106:C:/Renesas/e2studio_2021_01_workspace_RZA2M_ANPR/ANPR_RZA2M_GR_MANGO/src/tensorflow_lite/tensorflow/lite/kernels/internal\common.h ****       x2 = vmaxq_f32(clamp_min_vec, x2);
 107:C:/Renesas/e2studio_2021_01_workspace_RZA2M_ANPR/ANPR_RZA2M_GR_MANGO/src/tensorflow_lite/tensorflow/lite/kernels/internal\common.h ****       x3 = vmaxq_f32(clamp_min_vec, x3);
 108:C:/Renesas/e2studio_2021_01_workspace_RZA2M_ANPR/ANPR_RZA2M_GR_MANGO/src/tensorflow_lite/tensorflow/lite/kernels/internal\common.h ****       x0 = vminq_f32(clamp_max_vec, x0);
 109:C:/Renesas/e2studio_2021_01_workspace_RZA2M_ANPR/ANPR_RZA2M_GR_MANGO/src/tensorflow_lite/tensorflow/lite/kernels/internal\common.h ****       x1 = vminq_f32(clamp_max_vec, x1);
 110:C:/Renesas/e2studio_2021_01_workspace_RZA2M_ANPR/ANPR_RZA2M_GR_MANGO/src/tensorflow_lite/tensorflow/lite/kernels/internal\common.h ****       x2 = vminq_f32(clamp_max_vec, x2);
 111:C:/Renesas/e2studio_2021_01_workspace_RZA2M_ANPR/ANPR_RZA2M_GR_MANGO/src/tensorflow_lite/tensorflow/lite/kernels/internal\common.h ****       x3 = vminq_f32(clamp_max_vec, x3);
 112:C:/Renesas/e2studio_2021_01_workspace_RZA2M_ANPR/ANPR_RZA2M_GR_MANGO/src/tensorflow_lite/tensorflow/lite/kernels/internal\common.h ****       vst1q_f32(array_ptr + i, x0);
 113:C:/Renesas/e2studio_2021_01_workspace_RZA2M_ANPR/ANPR_RZA2M_GR_MANGO/src/tensorflow_lite/tensorflow/lite/kernels/internal\common.h ****       vst1q_f32(array_ptr + i + 4, x1);
 114:C:/Renesas/e2studio_2021_01_workspace_RZA2M_ANPR/ANPR_RZA2M_GR_MANGO/src/tensorflow_lite/tensorflow/lite/kernels/internal\common.h ****       vst1q_f32(array_ptr + i + 8, x2);
 115:C:/Renesas/e2studio_2021_01_workspace_RZA2M_ANPR/ANPR_RZA2M_GR_MANGO/src/tensorflow_lite/tensorflow/lite/kernels/internal\common.h ****       vst1q_f32(array_ptr + i + 12, x3);
 116:C:/Renesas/e2studio_2021_01_workspace_RZA2M_ANPR/ANPR_RZA2M_GR_MANGO/src/tensorflow_lite/tensorflow/lite/kernels/internal\common.h ****     }
 117:C:/Renesas/e2studio_2021_01_workspace_RZA2M_ANPR/ANPR_RZA2M_GR_MANGO/src/tensorflow_lite/tensorflow/lite/kernels/internal\common.h ****     for (; i <= bias_size - 4; i += 4) {
 118:C:/Renesas/e2studio_2021_01_workspace_RZA2M_ANPR/ANPR_RZA2M_GR_MANGO/src/tensorflow_lite/tensorflow/lite/kernels/internal\common.h ****       auto b = vld1q_f32(bias_data + i);
 119:C:/Renesas/e2studio_2021_01_workspace_RZA2M_ANPR/ANPR_RZA2M_GR_MANGO/src/tensorflow_lite/tensorflow/lite/kernels/internal\common.h ****       auto a = vld1q_f32(array_ptr + i);
 120:C:/Renesas/e2studio_2021_01_workspace_RZA2M_ANPR/ANPR_RZA2M_GR_MANGO/src/tensorflow_lite/tensorflow/lite/kernels/internal\common.h ****       auto x = vaddq_f32(a, b);
 121:C:/Renesas/e2studio_2021_01_workspace_RZA2M_ANPR/ANPR_RZA2M_GR_MANGO/src/tensorflow_lite/tensorflow/lite/kernels/internal\common.h ****       x = vmaxq_f32(clamp_min_vec, x);
 122:C:/Renesas/e2studio_2021_01_workspace_RZA2M_ANPR/ANPR_RZA2M_GR_MANGO/src/tensorflow_lite/tensorflow/lite/kernels/internal\common.h ****       x = vminq_f32(clamp_max_vec, x);
 123:C:/Renesas/e2studio_2021_01_workspace_RZA2M_ANPR/ANPR_RZA2M_GR_MANGO/src/tensorflow_lite/tensorflow/lite/kernels/internal\common.h ****       vst1q_f32(array_ptr + i, x);
 124:C:/Renesas/e2studio_2021_01_workspace_RZA2M_ANPR/ANPR_RZA2M_GR_MANGO/src/tensorflow_lite/tensorflow/lite/kernels/internal\common.h ****     }
 125:C:/Renesas/e2studio_2021_01_workspace_RZA2M_ANPR/ANPR_RZA2M_GR_MANGO/src/tensorflow_lite/tensorflow/lite/kernels/internal\common.h ****     for (; i < bias_size; i++) {
 126:C:/Renesas/e2studio_2021_01_workspace_RZA2M_ANPR/ANPR_RZA2M_GR_MANGO/src/tensorflow_lite/tensorflow/lite/kernels/internal\common.h ****       array_ptr[i] = ActivationFunctionWithMinMax(array_ptr[i] + bias_data[i],
 127:C:/Renesas/e2studio_2021_01_workspace_RZA2M_ANPR/ANPR_RZA2M_GR_MANGO/src/tensorflow_lite/tensorflow/lite/kernels/internal\common.h ****                                                   clamp_min, clamp_max);
 128:C:/Renesas/e2studio_2021_01_workspace_RZA2M_ANPR/ANPR_RZA2M_GR_MANGO/src/tensorflow_lite/tensorflow/lite/kernels/internal\common.h ****     }
 129:C:/Renesas/e2studio_2021_01_workspace_RZA2M_ANPR/ANPR_RZA2M_GR_MANGO/src/tensorflow_lite/tensorflow/lite/kernels/internal\common.h ****   }
 130:C:/Renesas/e2studio_2021_01_workspace_RZA2M_ANPR/ANPR_RZA2M_GR_MANGO/src/tensorflow_lite/tensorflow/lite/kernels/internal\common.h **** #else  // not NEON
 131:C:/Renesas/e2studio_2021_01_workspace_RZA2M_ANPR/ANPR_RZA2M_GR_MANGO/src/tensorflow_lite/tensorflow/lite/kernels/internal\common.h ****   for (int array_offset = 0; array_offset < array_size;
 132:C:/Renesas/e2studio_2021_01_workspace_RZA2M_ANPR/ANPR_RZA2M_GR_MANGO/src/tensorflow_lite/tensorflow/lite/kernels/internal\common.h ****        array_offset += bias_size) {
 133:C:/Renesas/e2studio_2021_01_workspace_RZA2M_ANPR/ANPR_RZA2M_GR_MANGO/src/tensorflow_lite/tensorflow/lite/kernels/internal\common.h ****     for (int i = 0; i < bias_size; i++) {
 134:C:/Renesas/e2studio_2021_01_workspace_RZA2M_ANPR/ANPR_RZA2M_GR_MANGO/src/tensorflow_lite/tensorflow/lite/kernels/internal\common.h ****       array_data[array_offset + i] = ActivationFunctionWithMinMax(
 135:C:/Renesas/e2studio_2021_01_workspace_RZA2M_ANPR/ANPR_RZA2M_GR_MANGO/src/tensorflow_lite/tensorflow/lite/kernels/internal\common.h ****           array_data[array_offset + i] + bias_data[i], clamp_min, clamp_max);
 136:C:/Renesas/e2studio_2021_01_workspace_RZA2M_ANPR/ANPR_RZA2M_GR_MANGO/src/tensorflow_lite/tensorflow/lite/kernels/internal\common.h ****     }
 137:C:/Renesas/e2studio_2021_01_workspace_RZA2M_ANPR/ANPR_RZA2M_GR_MANGO/src/tensorflow_lite/tensorflow/lite/kernels/internal\common.h ****   }
 138:C:/Renesas/e2studio_2021_01_workspace_RZA2M_ANPR/ANPR_RZA2M_GR_MANGO/src/tensorflow_lite/tensorflow/lite/kernels/internal\common.h **** #endif
 139:C:/Renesas/e2studio_2021_01_workspace_RZA2M_ANPR/ANPR_RZA2M_GR_MANGO/src/tensorflow_lite/tensorflow/lite/kernels/internal\common.h **** }
 140:C:/Renesas/e2studio_2021_01_workspace_RZA2M_ANPR/ANPR_RZA2M_GR_MANGO/src/tensorflow_lite/tensorflow/lite/kernels/internal\common.h **** 
 141:C:/Renesas/e2studio_2021_01_workspace_RZA2M_ANPR/ANPR_RZA2M_GR_MANGO/src/tensorflow_lite/tensorflow/lite/kernels/internal\common.h **** inline int32_t MultiplyByQuantizedMultiplierSmallerThanOneExp(
 142:C:/Renesas/e2studio_2021_01_workspace_RZA2M_ANPR/ANPR_RZA2M_GR_MANGO/src/tensorflow_lite/tensorflow/lite/kernels/internal\common.h ****     int32_t x, int32_t quantized_multiplier, int left_shift) {
 143:C:/Renesas/e2studio_2021_01_workspace_RZA2M_ANPR/ANPR_RZA2M_GR_MANGO/src/tensorflow_lite/tensorflow/lite/kernels/internal\common.h ****   using gemmlowp::RoundingDivideByPOT;
 144:C:/Renesas/e2studio_2021_01_workspace_RZA2M_ANPR/ANPR_RZA2M_GR_MANGO/src/tensorflow_lite/tensorflow/lite/kernels/internal\common.h ****   using gemmlowp::SaturatingRoundingDoublingHighMul;
 145:C:/Renesas/e2studio_2021_01_workspace_RZA2M_ANPR/ANPR_RZA2M_GR_MANGO/src/tensorflow_lite/tensorflow/lite/kernels/internal\common.h ****   return RoundingDivideByPOT(
 146:C:/Renesas/e2studio_2021_01_workspace_RZA2M_ANPR/ANPR_RZA2M_GR_MANGO/src/tensorflow_lite/tensorflow/lite/kernels/internal\common.h ****       SaturatingRoundingDoublingHighMul(x, quantized_multiplier), -left_shift);
 147:C:/Renesas/e2studio_2021_01_workspace_RZA2M_ANPR/ANPR_RZA2M_GR_MANGO/src/tensorflow_lite/tensorflow/lite/kernels/internal\common.h **** }
 148:C:/Renesas/e2studio_2021_01_workspace_RZA2M_ANPR/ANPR_RZA2M_GR_MANGO/src/tensorflow_lite/tensorflow/lite/kernels/internal\common.h **** 
 149:C:/Renesas/e2studio_2021_01_workspace_RZA2M_ANPR/ANPR_RZA2M_GR_MANGO/src/tensorflow_lite/tensorflow/lite/kernels/internal\common.h **** inline int32_t MultiplyByQuantizedMultiplierGreaterThanOne(
 150:C:/Renesas/e2studio_2021_01_workspace_RZA2M_ANPR/ANPR_RZA2M_GR_MANGO/src/tensorflow_lite/tensorflow/lite/kernels/internal\common.h ****     int32_t x, int32_t quantized_multiplier, int left_shift) {
 151:C:/Renesas/e2studio_2021_01_workspace_RZA2M_ANPR/ANPR_RZA2M_GR_MANGO/src/tensorflow_lite/tensorflow/lite/kernels/internal\common.h ****   using gemmlowp::SaturatingRoundingDoublingHighMul;
 152:C:/Renesas/e2studio_2021_01_workspace_RZA2M_ANPR/ANPR_RZA2M_GR_MANGO/src/tensorflow_lite/tensorflow/lite/kernels/internal\common.h ****   return SaturatingRoundingDoublingHighMul(x * (1 << left_shift),
 153:C:/Renesas/e2studio_2021_01_workspace_RZA2M_ANPR/ANPR_RZA2M_GR_MANGO/src/tensorflow_lite/tensorflow/lite/kernels/internal\common.h ****                                            quantized_multiplier);
 154:C:/Renesas/e2studio_2021_01_workspace_RZA2M_ANPR/ANPR_RZA2M_GR_MANGO/src/tensorflow_lite/tensorflow/lite/kernels/internal\common.h **** }
 155:C:/Renesas/e2studio_2021_01_workspace_RZA2M_ANPR/ANPR_RZA2M_GR_MANGO/src/tensorflow_lite/tensorflow/lite/kernels/internal\common.h **** 
 156:C:/Renesas/e2studio_2021_01_workspace_RZA2M_ANPR/ANPR_RZA2M_GR_MANGO/src/tensorflow_lite/tensorflow/lite/kernels/internal\common.h **** inline int32_t MultiplyByQuantizedMultiplier(int32_t x,
 157:C:/Renesas/e2studio_2021_01_workspace_RZA2M_ANPR/ANPR_RZA2M_GR_MANGO/src/tensorflow_lite/tensorflow/lite/kernels/internal\common.h ****                                              int32_t quantized_multiplier,
 158:C:/Renesas/e2studio_2021_01_workspace_RZA2M_ANPR/ANPR_RZA2M_GR_MANGO/src/tensorflow_lite/tensorflow/lite/kernels/internal\common.h ****                                              int shift) {
 159:C:/Renesas/e2studio_2021_01_workspace_RZA2M_ANPR/ANPR_RZA2M_GR_MANGO/src/tensorflow_lite/tensorflow/lite/kernels/internal\common.h ****   using gemmlowp::RoundingDivideByPOT;
 160:C:/Renesas/e2studio_2021_01_workspace_RZA2M_ANPR/ANPR_RZA2M_GR_MANGO/src/tensorflow_lite/tensorflow/lite/kernels/internal\common.h ****   using gemmlowp::SaturatingRoundingDoublingHighMul;
 161:C:/Renesas/e2studio_2021_01_workspace_RZA2M_ANPR/ANPR_RZA2M_GR_MANGO/src/tensorflow_lite/tensorflow/lite/kernels/internal\common.h ****   int left_shift = shift > 0 ? shift : 0;
 162:C:/Renesas/e2studio_2021_01_workspace_RZA2M_ANPR/ANPR_RZA2M_GR_MANGO/src/tensorflow_lite/tensorflow/lite/kernels/internal\common.h ****   int right_shift = shift > 0 ? 0 : -shift;
 163:C:/Renesas/e2studio_2021_01_workspace_RZA2M_ANPR/ANPR_RZA2M_GR_MANGO/src/tensorflow_lite/tensorflow/lite/kernels/internal\common.h ****   return RoundingDivideByPOT(SaturatingRoundingDoublingHighMul(
 164:C:/Renesas/e2studio_2021_01_workspace_RZA2M_ANPR/ANPR_RZA2M_GR_MANGO/src/tensorflow_lite/tensorflow/lite/kernels/internal\common.h ****                                  x * (1 << left_shift), quantized_multiplier),
 165:C:/Renesas/e2studio_2021_01_workspace_RZA2M_ANPR/ANPR_RZA2M_GR_MANGO/src/tensorflow_lite/tensorflow/lite/kernels/internal\common.h ****                              right_shift);
 166:C:/Renesas/e2studio_2021_01_workspace_RZA2M_ANPR/ANPR_RZA2M_GR_MANGO/src/tensorflow_lite/tensorflow/lite/kernels/internal\common.h **** }
 167:C:/Renesas/e2studio_2021_01_workspace_RZA2M_ANPR/ANPR_RZA2M_GR_MANGO/src/tensorflow_lite/tensorflow/lite/kernels/internal\common.h **** 
 168:C:/Renesas/e2studio_2021_01_workspace_RZA2M_ANPR/ANPR_RZA2M_GR_MANGO/src/tensorflow_lite/tensorflow/lite/kernels/internal\common.h **** inline int32_t MultiplyByQuantizedMultiplier(int64_t x,
 169:C:/Renesas/e2studio_2021_01_workspace_RZA2M_ANPR/ANPR_RZA2M_GR_MANGO/src/tensorflow_lite/tensorflow/lite/kernels/internal\common.h ****                                              int32_t quantized_multiplier,
 170:C:/Renesas/e2studio_2021_01_workspace_RZA2M_ANPR/ANPR_RZA2M_GR_MANGO/src/tensorflow_lite/tensorflow/lite/kernels/internal\common.h ****                                              int shift) {
 171:C:/Renesas/e2studio_2021_01_workspace_RZA2M_ANPR/ANPR_RZA2M_GR_MANGO/src/tensorflow_lite/tensorflow/lite/kernels/internal\common.h ****   // Inputs:
 172:C:/Renesas/e2studio_2021_01_workspace_RZA2M_ANPR/ANPR_RZA2M_GR_MANGO/src/tensorflow_lite/tensorflow/lite/kernels/internal\common.h ****   // - quantized_multiplier has fixed point at bit 31
 173:C:/Renesas/e2studio_2021_01_workspace_RZA2M_ANPR/ANPR_RZA2M_GR_MANGO/src/tensorflow_lite/tensorflow/lite/kernels/internal\common.h ****   // - shift is -31 to +7 (negative for right shift)
 174:C:/Renesas/e2studio_2021_01_workspace_RZA2M_ANPR/ANPR_RZA2M_GR_MANGO/src/tensorflow_lite/tensorflow/lite/kernels/internal\common.h ****   //
 175:C:/Renesas/e2studio_2021_01_workspace_RZA2M_ANPR/ANPR_RZA2M_GR_MANGO/src/tensorflow_lite/tensorflow/lite/kernels/internal\common.h ****   // Assumptions: The following input ranges are assumed
 176:C:/Renesas/e2studio_2021_01_workspace_RZA2M_ANPR/ANPR_RZA2M_GR_MANGO/src/tensorflow_lite/tensorflow/lite/kernels/internal\common.h ****   // - quantize_scale>=0  (the usual range is (1<<30) to (1>>31)-1)
 177:C:/Renesas/e2studio_2021_01_workspace_RZA2M_ANPR/ANPR_RZA2M_GR_MANGO/src/tensorflow_lite/tensorflow/lite/kernels/internal\common.h ****   // - scaling is chosen so final scaled result fits in int32_t
 178:C:/Renesas/e2studio_2021_01_workspace_RZA2M_ANPR/ANPR_RZA2M_GR_MANGO/src/tensorflow_lite/tensorflow/lite/kernels/internal\common.h ****   // - input x is in the range -(1<<47) <= x < (1<<47)
 179:C:/Renesas/e2studio_2021_01_workspace_RZA2M_ANPR/ANPR_RZA2M_GR_MANGO/src/tensorflow_lite/tensorflow/lite/kernels/internal\common.h ****   assert(quantized_multiplier >= 0);
 180:C:/Renesas/e2studio_2021_01_workspace_RZA2M_ANPR/ANPR_RZA2M_GR_MANGO/src/tensorflow_lite/tensorflow/lite/kernels/internal\common.h ****   assert(shift >= -31 && shift < 8);
 181:C:/Renesas/e2studio_2021_01_workspace_RZA2M_ANPR/ANPR_RZA2M_GR_MANGO/src/tensorflow_lite/tensorflow/lite/kernels/internal\common.h ****   assert(x >= -(static_cast<int64_t>(1) << 47) &&
 182:C:/Renesas/e2studio_2021_01_workspace_RZA2M_ANPR/ANPR_RZA2M_GR_MANGO/src/tensorflow_lite/tensorflow/lite/kernels/internal\common.h ****          x < (static_cast<int64_t>(1) << 47));
 183:C:/Renesas/e2studio_2021_01_workspace_RZA2M_ANPR/ANPR_RZA2M_GR_MANGO/src/tensorflow_lite/tensorflow/lite/kernels/internal\common.h **** 
 184:C:/Renesas/e2studio_2021_01_workspace_RZA2M_ANPR/ANPR_RZA2M_GR_MANGO/src/tensorflow_lite/tensorflow/lite/kernels/internal\common.h ****   int32_t reduced_multiplier = (quantized_multiplier < 0x7FFF0000)
 185:C:/Renesas/e2studio_2021_01_workspace_RZA2M_ANPR/ANPR_RZA2M_GR_MANGO/src/tensorflow_lite/tensorflow/lite/kernels/internal\common.h ****                                    ? ((quantized_multiplier + (1 << 15)) >> 16)
 186:C:/Renesas/e2studio_2021_01_workspace_RZA2M_ANPR/ANPR_RZA2M_GR_MANGO/src/tensorflow_lite/tensorflow/lite/kernels/internal\common.h ****                                    : 0x7FFF;
 187:C:/Renesas/e2studio_2021_01_workspace_RZA2M_ANPR/ANPR_RZA2M_GR_MANGO/src/tensorflow_lite/tensorflow/lite/kernels/internal\common.h ****   int total_shift = 15 - shift;
 188:C:/Renesas/e2studio_2021_01_workspace_RZA2M_ANPR/ANPR_RZA2M_GR_MANGO/src/tensorflow_lite/tensorflow/lite/kernels/internal\common.h ****   x = (x * (int64_t)reduced_multiplier) + ((int64_t)1 << (total_shift - 1));
 189:C:/Renesas/e2studio_2021_01_workspace_RZA2M_ANPR/ANPR_RZA2M_GR_MANGO/src/tensorflow_lite/tensorflow/lite/kernels/internal\common.h ****   int32_t result = x >> total_shift;
 190:C:/Renesas/e2studio_2021_01_workspace_RZA2M_ANPR/ANPR_RZA2M_GR_MANGO/src/tensorflow_lite/tensorflow/lite/kernels/internal\common.h ****   return result;
 191:C:/Renesas/e2studio_2021_01_workspace_RZA2M_ANPR/ANPR_RZA2M_GR_MANGO/src/tensorflow_lite/tensorflow/lite/kernels/internal\common.h **** }
 192:C:/Renesas/e2studio_2021_01_workspace_RZA2M_ANPR/ANPR_RZA2M_GR_MANGO/src/tensorflow_lite/tensorflow/lite/kernels/internal\common.h **** 
 193:C:/Renesas/e2studio_2021_01_workspace_RZA2M_ANPR/ANPR_RZA2M_GR_MANGO/src/tensorflow_lite/tensorflow/lite/kernels/internal\common.h **** #ifdef USE_NEON
 194:C:/Renesas/e2studio_2021_01_workspace_RZA2M_ANPR/ANPR_RZA2M_GR_MANGO/src/tensorflow_lite/tensorflow/lite/kernels/internal\common.h **** // Round uses ARM's rounding shift right.
 195:C:/Renesas/e2studio_2021_01_workspace_RZA2M_ANPR/ANPR_RZA2M_GR_MANGO/src/tensorflow_lite/tensorflow/lite/kernels/internal\common.h **** inline int32x4x4_t MultiplyByQuantizedMultiplier4Rows(
 196:C:/Renesas/e2studio_2021_01_workspace_RZA2M_ANPR/ANPR_RZA2M_GR_MANGO/src/tensorflow_lite/tensorflow/lite/kernels/internal\common.h ****     int32x4x4_t input_val, int32_t quantized_multiplier, int shift) {
 197:C:/Renesas/e2studio_2021_01_workspace_RZA2M_ANPR/ANPR_RZA2M_GR_MANGO/src/tensorflow_lite/tensorflow/lite/kernels/internal\common.h ****   const int left_shift = std::max(shift, 0);
 198:C:/Renesas/e2studio_2021_01_workspace_RZA2M_ANPR/ANPR_RZA2M_GR_MANGO/src/tensorflow_lite/tensorflow/lite/kernels/internal\common.h ****   const int right_shift = std::min(shift, 0);
 199:C:/Renesas/e2studio_2021_01_workspace_RZA2M_ANPR/ANPR_RZA2M_GR_MANGO/src/tensorflow_lite/tensorflow/lite/kernels/internal\common.h ****   int32x4x4_t result;
 200:C:/Renesas/e2studio_2021_01_workspace_RZA2M_ANPR/ANPR_RZA2M_GR_MANGO/src/tensorflow_lite/tensorflow/lite/kernels/internal\common.h **** 
 201:C:/Renesas/e2studio_2021_01_workspace_RZA2M_ANPR/ANPR_RZA2M_GR_MANGO/src/tensorflow_lite/tensorflow/lite/kernels/internal\common.h ****   int32x4_t multiplier_dup = vdupq_n_s32(quantized_multiplier);
 202:C:/Renesas/e2studio_2021_01_workspace_RZA2M_ANPR/ANPR_RZA2M_GR_MANGO/src/tensorflow_lite/tensorflow/lite/kernels/internal\common.h ****   int32x4_t left_shift_dup = vdupq_n_s32(left_shift);
 203:C:/Renesas/e2studio_2021_01_workspace_RZA2M_ANPR/ANPR_RZA2M_GR_MANGO/src/tensorflow_lite/tensorflow/lite/kernels/internal\common.h ****   int32x4_t right_shift_dup = vdupq_n_s32(right_shift);
 204:C:/Renesas/e2studio_2021_01_workspace_RZA2M_ANPR/ANPR_RZA2M_GR_MANGO/src/tensorflow_lite/tensorflow/lite/kernels/internal\common.h **** 
 205:C:/Renesas/e2studio_2021_01_workspace_RZA2M_ANPR/ANPR_RZA2M_GR_MANGO/src/tensorflow_lite/tensorflow/lite/kernels/internal\common.h ****   result.val[0] =
 206:C:/Renesas/e2studio_2021_01_workspace_RZA2M_ANPR/ANPR_RZA2M_GR_MANGO/src/tensorflow_lite/tensorflow/lite/kernels/internal\common.h ****       vrshlq_s32(vqrdmulhq_s32(vshlq_s32(input_val.val[0], left_shift_dup),
 207:C:/Renesas/e2studio_2021_01_workspace_RZA2M_ANPR/ANPR_RZA2M_GR_MANGO/src/tensorflow_lite/tensorflow/lite/kernels/internal\common.h ****                                multiplier_dup),
 208:C:/Renesas/e2studio_2021_01_workspace_RZA2M_ANPR/ANPR_RZA2M_GR_MANGO/src/tensorflow_lite/tensorflow/lite/kernels/internal\common.h ****                  right_shift_dup);
 209:C:/Renesas/e2studio_2021_01_workspace_RZA2M_ANPR/ANPR_RZA2M_GR_MANGO/src/tensorflow_lite/tensorflow/lite/kernels/internal\common.h **** 
 210:C:/Renesas/e2studio_2021_01_workspace_RZA2M_ANPR/ANPR_RZA2M_GR_MANGO/src/tensorflow_lite/tensorflow/lite/kernels/internal\common.h ****   result.val[1] =
 211:C:/Renesas/e2studio_2021_01_workspace_RZA2M_ANPR/ANPR_RZA2M_GR_MANGO/src/tensorflow_lite/tensorflow/lite/kernels/internal\common.h ****       vrshlq_s32(vqrdmulhq_s32(vshlq_s32(input_val.val[1], left_shift_dup),
 212:C:/Renesas/e2studio_2021_01_workspace_RZA2M_ANPR/ANPR_RZA2M_GR_MANGO/src/tensorflow_lite/tensorflow/lite/kernels/internal\common.h ****                                multiplier_dup),
 213:C:/Renesas/e2studio_2021_01_workspace_RZA2M_ANPR/ANPR_RZA2M_GR_MANGO/src/tensorflow_lite/tensorflow/lite/kernels/internal\common.h ****                  right_shift_dup);
 214:C:/Renesas/e2studio_2021_01_workspace_RZA2M_ANPR/ANPR_RZA2M_GR_MANGO/src/tensorflow_lite/tensorflow/lite/kernels/internal\common.h **** 
 215:C:/Renesas/e2studio_2021_01_workspace_RZA2M_ANPR/ANPR_RZA2M_GR_MANGO/src/tensorflow_lite/tensorflow/lite/kernels/internal\common.h ****   result.val[2] =
 216:C:/Renesas/e2studio_2021_01_workspace_RZA2M_ANPR/ANPR_RZA2M_GR_MANGO/src/tensorflow_lite/tensorflow/lite/kernels/internal\common.h ****       vrshlq_s32(vqrdmulhq_s32(vshlq_s32(input_val.val[2], left_shift_dup),
 217:C:/Renesas/e2studio_2021_01_workspace_RZA2M_ANPR/ANPR_RZA2M_GR_MANGO/src/tensorflow_lite/tensorflow/lite/kernels/internal\common.h ****                                multiplier_dup),
 218:C:/Renesas/e2studio_2021_01_workspace_RZA2M_ANPR/ANPR_RZA2M_GR_MANGO/src/tensorflow_lite/tensorflow/lite/kernels/internal\common.h ****                  right_shift_dup);
 219:C:/Renesas/e2studio_2021_01_workspace_RZA2M_ANPR/ANPR_RZA2M_GR_MANGO/src/tensorflow_lite/tensorflow/lite/kernels/internal\common.h **** 
 220:C:/Renesas/e2studio_2021_01_workspace_RZA2M_ANPR/ANPR_RZA2M_GR_MANGO/src/tensorflow_lite/tensorflow/lite/kernels/internal\common.h ****   result.val[3] =
 221:C:/Renesas/e2studio_2021_01_workspace_RZA2M_ANPR/ANPR_RZA2M_GR_MANGO/src/tensorflow_lite/tensorflow/lite/kernels/internal\common.h ****       vrshlq_s32(vqrdmulhq_s32(vshlq_s32(input_val.val[3], left_shift_dup),
 222:C:/Renesas/e2studio_2021_01_workspace_RZA2M_ANPR/ANPR_RZA2M_GR_MANGO/src/tensorflow_lite/tensorflow/lite/kernels/internal\common.h ****                                multiplier_dup),
 223:C:/Renesas/e2studio_2021_01_workspace_RZA2M_ANPR/ANPR_RZA2M_GR_MANGO/src/tensorflow_lite/tensorflow/lite/kernels/internal\common.h ****                  right_shift_dup);
 224:C:/Renesas/e2studio_2021_01_workspace_RZA2M_ANPR/ANPR_RZA2M_GR_MANGO/src/tensorflow_lite/tensorflow/lite/kernels/internal\common.h **** 
 225:C:/Renesas/e2studio_2021_01_workspace_RZA2M_ANPR/ANPR_RZA2M_GR_MANGO/src/tensorflow_lite/tensorflow/lite/kernels/internal\common.h ****   return result;
 226:C:/Renesas/e2studio_2021_01_workspace_RZA2M_ANPR/ANPR_RZA2M_GR_MANGO/src/tensorflow_lite/tensorflow/lite/kernels/internal\common.h **** }
 227:C:/Renesas/e2studio_2021_01_workspace_RZA2M_ANPR/ANPR_RZA2M_GR_MANGO/src/tensorflow_lite/tensorflow/lite/kernels/internal\common.h **** #endif
 228:C:/Renesas/e2studio_2021_01_workspace_RZA2M_ANPR/ANPR_RZA2M_GR_MANGO/src/tensorflow_lite/tensorflow/lite/kernels/internal\common.h **** 
 229:C:/Renesas/e2studio_2021_01_workspace_RZA2M_ANPR/ANPR_RZA2M_GR_MANGO/src/tensorflow_lite/tensorflow/lite/kernels/internal\common.h **** template <typename T>
 230:C:/Renesas/e2studio_2021_01_workspace_RZA2M_ANPR/ANPR_RZA2M_GR_MANGO/src/tensorflow_lite/tensorflow/lite/kernels/internal\common.h **** int CountLeadingZeros(T integer_input) {
 231:C:/Renesas/e2studio_2021_01_workspace_RZA2M_ANPR/ANPR_RZA2M_GR_MANGO/src/tensorflow_lite/tensorflow/lite/kernels/internal\common.h ****   static_assert(std::is_unsigned<T>::value,
 232:C:/Renesas/e2studio_2021_01_workspace_RZA2M_ANPR/ANPR_RZA2M_GR_MANGO/src/tensorflow_lite/tensorflow/lite/kernels/internal\common.h ****                 "Only unsigned integer types handled.");
 233:C:/Renesas/e2studio_2021_01_workspace_RZA2M_ANPR/ANPR_RZA2M_GR_MANGO/src/tensorflow_lite/tensorflow/lite/kernels/internal\common.h **** #if defined(__GNUC__)
 234:C:/Renesas/e2studio_2021_01_workspace_RZA2M_ANPR/ANPR_RZA2M_GR_MANGO/src/tensorflow_lite/tensorflow/lite/kernels/internal\common.h ****   return integer_input ? __builtin_clz(integer_input)
 235:C:/Renesas/e2studio_2021_01_workspace_RZA2M_ANPR/ANPR_RZA2M_GR_MANGO/src/tensorflow_lite/tensorflow/lite/kernels/internal\common.h ****                        : std::numeric_limits<T>::digits;
 236:C:/Renesas/e2studio_2021_01_workspace_RZA2M_ANPR/ANPR_RZA2M_GR_MANGO/src/tensorflow_lite/tensorflow/lite/kernels/internal\common.h **** #else
 237:C:/Renesas/e2studio_2021_01_workspace_RZA2M_ANPR/ANPR_RZA2M_GR_MANGO/src/tensorflow_lite/tensorflow/lite/kernels/internal\common.h ****   if (integer_input == 0) {
 238:C:/Renesas/e2studio_2021_01_workspace_RZA2M_ANPR/ANPR_RZA2M_GR_MANGO/src/tensorflow_lite/tensorflow/lite/kernels/internal\common.h ****     return std::numeric_limits<T>::digits;
 239:C:/Renesas/e2studio_2021_01_workspace_RZA2M_ANPR/ANPR_RZA2M_GR_MANGO/src/tensorflow_lite/tensorflow/lite/kernels/internal\common.h ****   }
 240:C:/Renesas/e2studio_2021_01_workspace_RZA2M_ANPR/ANPR_RZA2M_GR_MANGO/src/tensorflow_lite/tensorflow/lite/kernels/internal\common.h **** 
 241:C:/Renesas/e2studio_2021_01_workspace_RZA2M_ANPR/ANPR_RZA2M_GR_MANGO/src/tensorflow_lite/tensorflow/lite/kernels/internal\common.h ****   const T one_in_leading_positive = static_cast<T>(1)
 242:C:/Renesas/e2studio_2021_01_workspace_RZA2M_ANPR/ANPR_RZA2M_GR_MANGO/src/tensorflow_lite/tensorflow/lite/kernels/internal\common.h ****                                     << (std::numeric_limits<T>::digits - 1);
 243:C:/Renesas/e2studio_2021_01_workspace_RZA2M_ANPR/ANPR_RZA2M_GR_MANGO/src/tensorflow_lite/tensorflow/lite/kernels/internal\common.h ****   int leading_zeros = 0;
 244:C:/Renesas/e2studio_2021_01_workspace_RZA2M_ANPR/ANPR_RZA2M_GR_MANGO/src/tensorflow_lite/tensorflow/lite/kernels/internal\common.h ****   while (integer_input < one_in_leading_positive) {
 245:C:/Renesas/e2studio_2021_01_workspace_RZA2M_ANPR/ANPR_RZA2M_GR_MANGO/src/tensorflow_lite/tensorflow/lite/kernels/internal\common.h ****     integer_input <<= 1;
 246:C:/Renesas/e2studio_2021_01_workspace_RZA2M_ANPR/ANPR_RZA2M_GR_MANGO/src/tensorflow_lite/tensorflow/lite/kernels/internal\common.h ****     ++leading_zeros;
 247:C:/Renesas/e2studio_2021_01_workspace_RZA2M_ANPR/ANPR_RZA2M_GR_MANGO/src/tensorflow_lite/tensorflow/lite/kernels/internal\common.h ****   }
 248:C:/Renesas/e2studio_2021_01_workspace_RZA2M_ANPR/ANPR_RZA2M_GR_MANGO/src/tensorflow_lite/tensorflow/lite/kernels/internal\common.h ****   return leading_zeros;
 249:C:/Renesas/e2studio_2021_01_workspace_RZA2M_ANPR/ANPR_RZA2M_GR_MANGO/src/tensorflow_lite/tensorflow/lite/kernels/internal\common.h **** #endif
 250:C:/Renesas/e2studio_2021_01_workspace_RZA2M_ANPR/ANPR_RZA2M_GR_MANGO/src/tensorflow_lite/tensorflow/lite/kernels/internal\common.h **** }
 251:C:/Renesas/e2studio_2021_01_workspace_RZA2M_ANPR/ANPR_RZA2M_GR_MANGO/src/tensorflow_lite/tensorflow/lite/kernels/internal\common.h **** 
 252:C:/Renesas/e2studio_2021_01_workspace_RZA2M_ANPR/ANPR_RZA2M_GR_MANGO/src/tensorflow_lite/tensorflow/lite/kernels/internal\common.h **** template <typename T>
 253:C:/Renesas/e2studio_2021_01_workspace_RZA2M_ANPR/ANPR_RZA2M_GR_MANGO/src/tensorflow_lite/tensorflow/lite/kernels/internal\common.h **** inline int CountLeadingSignBits(T integer_input) {
 254:C:/Renesas/e2studio_2021_01_workspace_RZA2M_ANPR/ANPR_RZA2M_GR_MANGO/src/tensorflow_lite/tensorflow/lite/kernels/internal\common.h ****   static_assert(std::is_signed<T>::value, "Only signed integer types handled.");
 255:C:/Renesas/e2studio_2021_01_workspace_RZA2M_ANPR/ANPR_RZA2M_GR_MANGO/src/tensorflow_lite/tensorflow/lite/kernels/internal\common.h **** #if defined(__GNUC__) && !defined(__clang__)
 256:C:/Renesas/e2studio_2021_01_workspace_RZA2M_ANPR/ANPR_RZA2M_GR_MANGO/src/tensorflow_lite/tensorflow/lite/kernels/internal\common.h ****   return integer_input ? __builtin_clrsb(integer_input)
 257:C:/Renesas/e2studio_2021_01_workspace_RZA2M_ANPR/ANPR_RZA2M_GR_MANGO/src/tensorflow_lite/tensorflow/lite/kernels/internal\common.h ****                        : std::numeric_limits<T>::digits;
 258:C:/Renesas/e2studio_2021_01_workspace_RZA2M_ANPR/ANPR_RZA2M_GR_MANGO/src/tensorflow_lite/tensorflow/lite/kernels/internal\common.h **** #else
 259:C:/Renesas/e2studio_2021_01_workspace_RZA2M_ANPR/ANPR_RZA2M_GR_MANGO/src/tensorflow_lite/tensorflow/lite/kernels/internal\common.h ****   using U = typename std::make_unsigned<T>::type;
 260:C:/Renesas/e2studio_2021_01_workspace_RZA2M_ANPR/ANPR_RZA2M_GR_MANGO/src/tensorflow_lite/tensorflow/lite/kernels/internal\common.h ****   return integer_input >= 0
 261:C:/Renesas/e2studio_2021_01_workspace_RZA2M_ANPR/ANPR_RZA2M_GR_MANGO/src/tensorflow_lite/tensorflow/lite/kernels/internal\common.h ****              ? CountLeadingZeros(static_cast<U>(integer_input)) - 1
 262:C:/Renesas/e2studio_2021_01_workspace_RZA2M_ANPR/ANPR_RZA2M_GR_MANGO/src/tensorflow_lite/tensorflow/lite/kernels/internal\common.h ****          : integer_input != std::numeric_limits<T>::min()
 263:C:/Renesas/e2studio_2021_01_workspace_RZA2M_ANPR/ANPR_RZA2M_GR_MANGO/src/tensorflow_lite/tensorflow/lite/kernels/internal\common.h ****              ? CountLeadingZeros(2 * static_cast<U>(-integer_input) - 1)
 264:C:/Renesas/e2studio_2021_01_workspace_RZA2M_ANPR/ANPR_RZA2M_GR_MANGO/src/tensorflow_lite/tensorflow/lite/kernels/internal\common.h ****              : 0;
 265:C:/Renesas/e2studio_2021_01_workspace_RZA2M_ANPR/ANPR_RZA2M_GR_MANGO/src/tensorflow_lite/tensorflow/lite/kernels/internal\common.h **** #endif
 266:C:/Renesas/e2studio_2021_01_workspace_RZA2M_ANPR/ANPR_RZA2M_GR_MANGO/src/tensorflow_lite/tensorflow/lite/kernels/internal\common.h **** }
 267:C:/Renesas/e2studio_2021_01_workspace_RZA2M_ANPR/ANPR_RZA2M_GR_MANGO/src/tensorflow_lite/tensorflow/lite/kernels/internal\common.h **** 
 268:C:/Renesas/e2studio_2021_01_workspace_RZA2M_ANPR/ANPR_RZA2M_GR_MANGO/src/tensorflow_lite/tensorflow/lite/kernels/internal\common.h **** // Use "count leading zeros" helper functions to do a fast Floor(log_2(x)).
 269:C:/Renesas/e2studio_2021_01_workspace_RZA2M_ANPR/ANPR_RZA2M_GR_MANGO/src/tensorflow_lite/tensorflow/lite/kernels/internal\common.h **** template <typename Integer>
 270:C:/Renesas/e2studio_2021_01_workspace_RZA2M_ANPR/ANPR_RZA2M_GR_MANGO/src/tensorflow_lite/tensorflow/lite/kernels/internal\common.h **** inline Integer FloorLog2(Integer n) {
 271:C:/Renesas/e2studio_2021_01_workspace_RZA2M_ANPR/ANPR_RZA2M_GR_MANGO/src/tensorflow_lite/tensorflow/lite/kernels/internal\common.h ****   static_assert(std::is_integral<Integer>::value, "");
 272:C:/Renesas/e2studio_2021_01_workspace_RZA2M_ANPR/ANPR_RZA2M_GR_MANGO/src/tensorflow_lite/tensorflow/lite/kernels/internal\common.h ****   static_assert(std::is_signed<Integer>::value, "");
 273:C:/Renesas/e2studio_2021_01_workspace_RZA2M_ANPR/ANPR_RZA2M_GR_MANGO/src/tensorflow_lite/tensorflow/lite/kernels/internal\common.h ****   static_assert(sizeof(Integer) == 4 || sizeof(Integer) == 8, "");
 274:C:/Renesas/e2studio_2021_01_workspace_RZA2M_ANPR/ANPR_RZA2M_GR_MANGO/src/tensorflow_lite/tensorflow/lite/kernels/internal\common.h ****   TFLITE_CHECK_GT(n, 0);
 275:C:/Renesas/e2studio_2021_01_workspace_RZA2M_ANPR/ANPR_RZA2M_GR_MANGO/src/tensorflow_lite/tensorflow/lite/kernels/internal\common.h ****   if (sizeof(Integer) == 4) {
 276:C:/Renesas/e2studio_2021_01_workspace_RZA2M_ANPR/ANPR_RZA2M_GR_MANGO/src/tensorflow_lite/tensorflow/lite/kernels/internal\common.h ****     return 30 - CountLeadingSignBits(n);
 277:C:/Renesas/e2studio_2021_01_workspace_RZA2M_ANPR/ANPR_RZA2M_GR_MANGO/src/tensorflow_lite/tensorflow/lite/kernels/internal\common.h ****   } else {
 278:C:/Renesas/e2studio_2021_01_workspace_RZA2M_ANPR/ANPR_RZA2M_GR_MANGO/src/tensorflow_lite/tensorflow/lite/kernels/internal\common.h ****     return 62 - CountLeadingSignBits(n);
 279:C:/Renesas/e2studio_2021_01_workspace_RZA2M_ANPR/ANPR_RZA2M_GR_MANGO/src/tensorflow_lite/tensorflow/lite/kernels/internal\common.h ****   }
 280:C:/Renesas/e2studio_2021_01_workspace_RZA2M_ANPR/ANPR_RZA2M_GR_MANGO/src/tensorflow_lite/tensorflow/lite/kernels/internal\common.h **** }
 281:C:/Renesas/e2studio_2021_01_workspace_RZA2M_ANPR/ANPR_RZA2M_GR_MANGO/src/tensorflow_lite/tensorflow/lite/kernels/internal\common.h **** 
 282:C:/Renesas/e2studio_2021_01_workspace_RZA2M_ANPR/ANPR_RZA2M_GR_MANGO/src/tensorflow_lite/tensorflow/lite/kernels/internal\common.h **** // generate INT16 LUT for function(), e.g., table exp(x) and 1/(1+x) used in
 283:C:/Renesas/e2studio_2021_01_workspace_RZA2M_ANPR/ANPR_RZA2M_GR_MANGO/src/tensorflow_lite/tensorflow/lite/kernels/internal\common.h **** // softmax
 284:C:/Renesas/e2studio_2021_01_workspace_RZA2M_ANPR/ANPR_RZA2M_GR_MANGO/src/tensorflow_lite/tensorflow/lite/kernels/internal\common.h **** // func - the function to build the LUT for (e.g exp(x))
 285:C:/Renesas/e2studio_2021_01_workspace_RZA2M_ANPR/ANPR_RZA2M_GR_MANGO/src/tensorflow_lite/tensorflow/lite/kernels/internal\common.h **** // min,max - table limits
 286:C:/Renesas/e2studio_2021_01_workspace_RZA2M_ANPR/ANPR_RZA2M_GR_MANGO/src/tensorflow_lite/tensorflow/lite/kernels/internal\common.h **** // table - pointer to buffer
 287:C:/Renesas/e2studio_2021_01_workspace_RZA2M_ANPR/ANPR_RZA2M_GR_MANGO/src/tensorflow_lite/tensorflow/lite/kernels/internal\common.h **** // num - number of elements in the LUT
 288:C:/Renesas/e2studio_2021_01_workspace_RZA2M_ANPR/ANPR_RZA2M_GR_MANGO/src/tensorflow_lite/tensorflow/lite/kernels/internal\common.h **** inline void gen_lut(double (*func)(double), double min, double max,
 289:C:/Renesas/e2studio_2021_01_workspace_RZA2M_ANPR/ANPR_RZA2M_GR_MANGO/src/tensorflow_lite/tensorflow/lite/kernels/internal\common.h ****                     int16_t* table, const int num) {
 290:C:/Renesas/e2studio_2021_01_workspace_RZA2M_ANPR/ANPR_RZA2M_GR_MANGO/src/tensorflow_lite/tensorflow/lite/kernels/internal\common.h ****   // size of table should equal to num + 1
 291:C:/Renesas/e2studio_2021_01_workspace_RZA2M_ANPR/ANPR_RZA2M_GR_MANGO/src/tensorflow_lite/tensorflow/lite/kernels/internal\common.h ****   // last element only for slope calculation
 292:C:/Renesas/e2studio_2021_01_workspace_RZA2M_ANPR/ANPR_RZA2M_GR_MANGO/src/tensorflow_lite/tensorflow/lite/kernels/internal\common.h ****   double step = (max - min) / (num - 1);
 293:C:/Renesas/e2studio_2021_01_workspace_RZA2M_ANPR/ANPR_RZA2M_GR_MANGO/src/tensorflow_lite/tensorflow/lite/kernels/internal\common.h ****   double half_step = step / 2.0;
 294:C:/Renesas/e2studio_2021_01_workspace_RZA2M_ANPR/ANPR_RZA2M_GR_MANGO/src/tensorflow_lite/tensorflow/lite/kernels/internal\common.h ****   for (int i = 0; i < num - 1; i++) {
 295:C:/Renesas/e2studio_2021_01_workspace_RZA2M_ANPR/ANPR_RZA2M_GR_MANGO/src/tensorflow_lite/tensorflow/lite/kernels/internal\common.h ****     double sample_val = TfLiteRound(func(min + i * step) * 32768.0);
 296:C:/Renesas/e2studio_2021_01_workspace_RZA2M_ANPR/ANPR_RZA2M_GR_MANGO/src/tensorflow_lite/tensorflow/lite/kernels/internal\common.h ****     double midpoint_interp_val =
 297:C:/Renesas/e2studio_2021_01_workspace_RZA2M_ANPR/ANPR_RZA2M_GR_MANGO/src/tensorflow_lite/tensorflow/lite/kernels/internal\common.h ****         TfLiteRound((func(min + (i + 1) * step) * 32768.0 +
 298:C:/Renesas/e2studio_2021_01_workspace_RZA2M_ANPR/ANPR_RZA2M_GR_MANGO/src/tensorflow_lite/tensorflow/lite/kernels/internal\common.h ****                      TfLiteRound(func(min + i * step) * 32768.0)) /
 299:C:/Renesas/e2studio_2021_01_workspace_RZA2M_ANPR/ANPR_RZA2M_GR_MANGO/src/tensorflow_lite/tensorflow/lite/kernels/internal\common.h ****                     2.0);
 300:C:/Renesas/e2studio_2021_01_workspace_RZA2M_ANPR/ANPR_RZA2M_GR_MANGO/src/tensorflow_lite/tensorflow/lite/kernels/internal\common.h ****     double midpoint_val =
 301:C:/Renesas/e2studio_2021_01_workspace_RZA2M_ANPR/ANPR_RZA2M_GR_MANGO/src/tensorflow_lite/tensorflow/lite/kernels/internal\common.h ****         TfLiteRound(func(min + i * step + half_step) * 32768.0);
 302:C:/Renesas/e2studio_2021_01_workspace_RZA2M_ANPR/ANPR_RZA2M_GR_MANGO/src/tensorflow_lite/tensorflow/lite/kernels/internal\common.h ****     double midpoint_err = midpoint_interp_val - midpoint_val;
 303:C:/Renesas/e2studio_2021_01_workspace_RZA2M_ANPR/ANPR_RZA2M_GR_MANGO/src/tensorflow_lite/tensorflow/lite/kernels/internal\common.h ****     double bias = TfLiteRound(midpoint_err / 2.0);
 304:C:/Renesas/e2studio_2021_01_workspace_RZA2M_ANPR/ANPR_RZA2M_GR_MANGO/src/tensorflow_lite/tensorflow/lite/kernels/internal\common.h ****     table[i] = std::min<double>(std::max<double>(sample_val - bias, -32768.0),
 305:C:/Renesas/e2studio_2021_01_workspace_RZA2M_ANPR/ANPR_RZA2M_GR_MANGO/src/tensorflow_lite/tensorflow/lite/kernels/internal\common.h ****                                 32767.0);
 306:C:/Renesas/e2studio_2021_01_workspace_RZA2M_ANPR/ANPR_RZA2M_GR_MANGO/src/tensorflow_lite/tensorflow/lite/kernels/internal\common.h ****   }
 307:C:/Renesas/e2studio_2021_01_workspace_RZA2M_ANPR/ANPR_RZA2M_GR_MANGO/src/tensorflow_lite/tensorflow/lite/kernels/internal\common.h ****   table[num - 1] = std::min<double>(
 308:C:/Renesas/e2studio_2021_01_workspace_RZA2M_ANPR/ANPR_RZA2M_GR_MANGO/src/tensorflow_lite/tensorflow/lite/kernels/internal\common.h ****       std::max<double>(TfLiteRound(func(max) * 32768.0), -32768.0), 32767.0);
 309:C:/Renesas/e2studio_2021_01_workspace_RZA2M_ANPR/ANPR_RZA2M_GR_MANGO/src/tensorflow_lite/tensorflow/lite/kernels/internal\common.h **** }
 310:C:/Renesas/e2studio_2021_01_workspace_RZA2M_ANPR/ANPR_RZA2M_GR_MANGO/src/tensorflow_lite/tensorflow/lite/kernels/internal\common.h **** 
 311:C:/Renesas/e2studio_2021_01_workspace_RZA2M_ANPR/ANPR_RZA2M_GR_MANGO/src/tensorflow_lite/tensorflow/lite/kernels/internal\common.h **** // generate INT16 LUT for function(), e.g., table exp(x) and 1/(1+x) used in
 312:C:/Renesas/e2studio_2021_01_workspace_RZA2M_ANPR/ANPR_RZA2M_GR_MANGO/src/tensorflow_lite/tensorflow/lite/kernels/internal\common.h **** // softmax
 313:C:/Renesas/e2studio_2021_01_workspace_RZA2M_ANPR/ANPR_RZA2M_GR_MANGO/src/tensorflow_lite/tensorflow/lite/kernels/internal\common.h **** // func - the function to build the LUT for (e.g exp(x))
 314:C:/Renesas/e2studio_2021_01_workspace_RZA2M_ANPR/ANPR_RZA2M_GR_MANGO/src/tensorflow_lite/tensorflow/lite/kernels/internal\common.h **** // min,max - table limits
 315:C:/Renesas/e2studio_2021_01_workspace_RZA2M_ANPR/ANPR_RZA2M_GR_MANGO/src/tensorflow_lite/tensorflow/lite/kernels/internal\common.h **** // table - pointer to buffer
 316:C:/Renesas/e2studio_2021_01_workspace_RZA2M_ANPR/ANPR_RZA2M_GR_MANGO/src/tensorflow_lite/tensorflow/lite/kernels/internal\common.h **** // num - number of elements in the LUT
 317:C:/Renesas/e2studio_2021_01_workspace_RZA2M_ANPR/ANPR_RZA2M_GR_MANGO/src/tensorflow_lite/tensorflow/lite/kernels/internal\common.h **** inline void gen_lut(float (*func)(float), float min, float max, int16_t* table,
 318:C:/Renesas/e2studio_2021_01_workspace_RZA2M_ANPR/ANPR_RZA2M_GR_MANGO/src/tensorflow_lite/tensorflow/lite/kernels/internal\common.h ****                     const int num) {
 319:C:/Renesas/e2studio_2021_01_workspace_RZA2M_ANPR/ANPR_RZA2M_GR_MANGO/src/tensorflow_lite/tensorflow/lite/kernels/internal\common.h ****   // size of table should equal to num + 1
 320:C:/Renesas/e2studio_2021_01_workspace_RZA2M_ANPR/ANPR_RZA2M_GR_MANGO/src/tensorflow_lite/tensorflow/lite/kernels/internal\common.h ****   // last element only for slope calculation
 321:C:/Renesas/e2studio_2021_01_workspace_RZA2M_ANPR/ANPR_RZA2M_GR_MANGO/src/tensorflow_lite/tensorflow/lite/kernels/internal\common.h ****   float step = (max - min) / (num - 1);
 322:C:/Renesas/e2studio_2021_01_workspace_RZA2M_ANPR/ANPR_RZA2M_GR_MANGO/src/tensorflow_lite/tensorflow/lite/kernels/internal\common.h ****   float half_step = step / 2.0f;
 323:C:/Renesas/e2studio_2021_01_workspace_RZA2M_ANPR/ANPR_RZA2M_GR_MANGO/src/tensorflow_lite/tensorflow/lite/kernels/internal\common.h ****   for (int i = 0; i < num - 1; i++) {
 324:C:/Renesas/e2studio_2021_01_workspace_RZA2M_ANPR/ANPR_RZA2M_GR_MANGO/src/tensorflow_lite/tensorflow/lite/kernels/internal\common.h ****     float sample_val = TfLiteRound(func(min + i * step) * 32768.0f);
 325:C:/Renesas/e2studio_2021_01_workspace_RZA2M_ANPR/ANPR_RZA2M_GR_MANGO/src/tensorflow_lite/tensorflow/lite/kernels/internal\common.h ****     float midpoint_interp_val =
 326:C:/Renesas/e2studio_2021_01_workspace_RZA2M_ANPR/ANPR_RZA2M_GR_MANGO/src/tensorflow_lite/tensorflow/lite/kernels/internal\common.h ****         TfLiteRound((func(min + (i + 1) * step) * 32768.0f +
 327:C:/Renesas/e2studio_2021_01_workspace_RZA2M_ANPR/ANPR_RZA2M_GR_MANGO/src/tensorflow_lite/tensorflow/lite/kernels/internal\common.h ****                      TfLiteRound(func(min + i * step) * 32768.0f)) /
 328:C:/Renesas/e2studio_2021_01_workspace_RZA2M_ANPR/ANPR_RZA2M_GR_MANGO/src/tensorflow_lite/tensorflow/lite/kernels/internal\common.h ****                     2.0f);
 329:C:/Renesas/e2studio_2021_01_workspace_RZA2M_ANPR/ANPR_RZA2M_GR_MANGO/src/tensorflow_lite/tensorflow/lite/kernels/internal\common.h ****     float midpoint_val =
 330:C:/Renesas/e2studio_2021_01_workspace_RZA2M_ANPR/ANPR_RZA2M_GR_MANGO/src/tensorflow_lite/tensorflow/lite/kernels/internal\common.h ****         TfLiteRound(func(min + i * step + half_step) * 32768.0f);
 331:C:/Renesas/e2studio_2021_01_workspace_RZA2M_ANPR/ANPR_RZA2M_GR_MANGO/src/tensorflow_lite/tensorflow/lite/kernels/internal\common.h ****     float midpoint_err = midpoint_interp_val - midpoint_val;
 332:C:/Renesas/e2studio_2021_01_workspace_RZA2M_ANPR/ANPR_RZA2M_GR_MANGO/src/tensorflow_lite/tensorflow/lite/kernels/internal\common.h ****     float bias = TfLiteRound(midpoint_err / 2.0f);
 333:C:/Renesas/e2studio_2021_01_workspace_RZA2M_ANPR/ANPR_RZA2M_GR_MANGO/src/tensorflow_lite/tensorflow/lite/kernels/internal\common.h ****     table[i] = std::min<float>(std::max<float>(sample_val - bias, -32768.0f),
 334:C:/Renesas/e2studio_2021_01_workspace_RZA2M_ANPR/ANPR_RZA2M_GR_MANGO/src/tensorflow_lite/tensorflow/lite/kernels/internal\common.h ****                                32767.0f);
