   1              		.cpu cortex-a9
   2              		.eabi_attribute 28, 1
   3              		.eabi_attribute 20, 1
   4              		.eabi_attribute 21, 1
   5              		.eabi_attribute 23, 3
   6              		.eabi_attribute 24, 1
   7              		.eabi_attribute 25, 1
   8              		.eabi_attribute 26, 1
   9              		.eabi_attribute 30, 2
  10              		.eabi_attribute 34, 0
  11              		.eabi_attribute 18, 4
  12              		.file	"pad.cc"
  13              		.text
  14              	.Ltext0:
  15              		.cfi_sections	.debug_frame
  16              		.section	.text._ZN6tflite3ops5micro3pad4InitEP13TfLiteContextPKcj,"ax",%progbits
  17              		.align	2
  18              		.global	_ZN6tflite3ops5micro3pad4InitEP13TfLiteContextPKcj
  19              		.syntax unified
  20              		.arm
  21              		.fpu neon
  23              	_ZN6tflite3ops5micro3pad4InitEP13TfLiteContextPKcj:
  24              		.fnstart
  25              	.LFB1319:
  26              		.file 1 "../src/tensorflow_lite/tensorflow/lite/micro/kernels/pad.cc"
   1:../src/tensorflow_lite/tensorflow/lite/micro/kernels/pad.cc **** /* Copyright 2019 The TensorFlow Authors. All Rights Reserved.
   2:../src/tensorflow_lite/tensorflow/lite/micro/kernels/pad.cc **** 
   3:../src/tensorflow_lite/tensorflow/lite/micro/kernels/pad.cc **** Licensed under the Apache License, Version 2.0 (the "License");
   4:../src/tensorflow_lite/tensorflow/lite/micro/kernels/pad.cc **** you may not use this file except in compliance with the License.
   5:../src/tensorflow_lite/tensorflow/lite/micro/kernels/pad.cc **** You may obtain a copy of the License at
   6:../src/tensorflow_lite/tensorflow/lite/micro/kernels/pad.cc **** 
   7:../src/tensorflow_lite/tensorflow/lite/micro/kernels/pad.cc ****     http://www.apache.org/licenses/LICENSE-2.0
   8:../src/tensorflow_lite/tensorflow/lite/micro/kernels/pad.cc **** 
   9:../src/tensorflow_lite/tensorflow/lite/micro/kernels/pad.cc **** Unless required by applicable law or agreed to in writing, software
  10:../src/tensorflow_lite/tensorflow/lite/micro/kernels/pad.cc **** distributed under the License is distributed on an "AS IS" BASIS,
  11:../src/tensorflow_lite/tensorflow/lite/micro/kernels/pad.cc **** WITHOUT WARRANTIES OR CONDITIONS OF ANY KIND, either express or implied.
  12:../src/tensorflow_lite/tensorflow/lite/micro/kernels/pad.cc **** See the License for the specific language governing permissions and
  13:../src/tensorflow_lite/tensorflow/lite/micro/kernels/pad.cc **** limitations under the License.
  14:../src/tensorflow_lite/tensorflow/lite/micro/kernels/pad.cc **** ==============================================================================*/
  15:../src/tensorflow_lite/tensorflow/lite/micro/kernels/pad.cc **** #include "tensorflow/lite/kernels/internal/reference/pad.h"
  16:../src/tensorflow_lite/tensorflow/lite/micro/kernels/pad.cc **** 
  17:../src/tensorflow_lite/tensorflow/lite/micro/kernels/pad.cc **** #include <string.h>
  18:../src/tensorflow_lite/tensorflow/lite/micro/kernels/pad.cc **** 
  19:../src/tensorflow_lite/tensorflow/lite/micro/kernels/pad.cc **** #include "tensorflow/lite/c/builtin_op_data.h"
  20:../src/tensorflow_lite/tensorflow/lite/micro/kernels/pad.cc **** #include "tensorflow/lite/c/common.h"
  21:../src/tensorflow_lite/tensorflow/lite/micro/kernels/pad.cc **** #include "tensorflow/lite/kernels/internal/portable_tensor.h"
  22:../src/tensorflow_lite/tensorflow/lite/micro/kernels/pad.cc **** #include "tensorflow/lite/kernels/internal/types.h"
  23:../src/tensorflow_lite/tensorflow/lite/micro/kernels/pad.cc **** #include "tensorflow/lite/kernels/kernel_util.h"
  24:../src/tensorflow_lite/tensorflow/lite/micro/kernels/pad.cc **** #include "tensorflow/lite/kernels/op_macros.h"
  25:../src/tensorflow_lite/tensorflow/lite/micro/kernels/pad.cc **** #include "tensorflow/lite/micro/kernels/kernel_util.h"
  26:../src/tensorflow_lite/tensorflow/lite/micro/kernels/pad.cc **** 
  27:../src/tensorflow_lite/tensorflow/lite/micro/kernels/pad.cc **** namespace tflite {
  28:../src/tensorflow_lite/tensorflow/lite/micro/kernels/pad.cc **** namespace ops {
  29:../src/tensorflow_lite/tensorflow/lite/micro/kernels/pad.cc **** namespace micro {
  30:../src/tensorflow_lite/tensorflow/lite/micro/kernels/pad.cc **** namespace pad {
  31:../src/tensorflow_lite/tensorflow/lite/micro/kernels/pad.cc **** namespace {
  32:../src/tensorflow_lite/tensorflow/lite/micro/kernels/pad.cc **** 
  33:../src/tensorflow_lite/tensorflow/lite/micro/kernels/pad.cc **** struct OpData {
  34:../src/tensorflow_lite/tensorflow/lite/micro/kernels/pad.cc ****   PadParams params;
  35:../src/tensorflow_lite/tensorflow/lite/micro/kernels/pad.cc ****   int32_t output_zero_point;
  36:../src/tensorflow_lite/tensorflow/lite/micro/kernels/pad.cc **** };
  37:../src/tensorflow_lite/tensorflow/lite/micro/kernels/pad.cc **** 
  38:../src/tensorflow_lite/tensorflow/lite/micro/kernels/pad.cc **** }  // namespace
  39:../src/tensorflow_lite/tensorflow/lite/micro/kernels/pad.cc **** 
  40:../src/tensorflow_lite/tensorflow/lite/micro/kernels/pad.cc **** void* Init(TfLiteContext* context, const char* buffer, size_t length) {
  27              		.loc 1 40 0
  28              		.cfi_startproc
  29              		@ args = 0, pretend = 0, frame = 0
  30              		@ frame_needed = 0, uses_anonymous_args = 0
  31              	.LVL0:
  41:../src/tensorflow_lite/tensorflow/lite/micro/kernels/pad.cc ****   TFLITE_DCHECK(context->AllocatePersistentBuffer != nullptr);
  32              		.loc 1 41 0
  33 0000 383090E5 		ldr	r3, [r0, #56]
  34 0004 000053E3 		cmp	r3, #0
  35 0008 0100000A 		beq	.L7
  42:../src/tensorflow_lite/tensorflow/lite/micro/kernels/pad.cc ****   return context->AllocatePersistentBuffer(context, sizeof(OpData));
  36              		.loc 1 42 0
  37 000c 3810A0E3 		mov	r1, #56
  38              	.LVL1:
  39 0010 13FF2FE1 		bx	r3
  40              	.LVL2:
  41              	.L7:
  40:../src/tensorflow_lite/tensorflow/lite/micro/kernels/pad.cc ****   TFLITE_DCHECK(context->AllocatePersistentBuffer != nullptr);
  42              		.loc 1 40 0 discriminator 1
  43 0014 10402DE9 		push	{r4, lr}
  44              		.save {r4, lr}
  45              		.cfi_def_cfa_offset 8
  46              		.cfi_offset 4, -8
  47              		.cfi_offset 14, -4
  41:../src/tensorflow_lite/tensorflow/lite/micro/kernels/pad.cc ****   TFLITE_DCHECK(context->AllocatePersistentBuffer != nullptr);
  48              		.loc 1 41 0 discriminator 1
  49 0018 FEFFFFEB 		bl	abort
  50              	.LVL3:
  51              		.cfi_endproc
  52              	.LFE1319:
  53              		.fnend
  55              		.section	.text._ZN6tflite3ops5micro3pad7PrepareEP13TfLiteContextP10TfLiteNode,"ax",%progbits
  56              		.align	2
  57              		.global	_ZN6tflite3ops5micro3pad7PrepareEP13TfLiteContextP10TfLiteNode
  58              		.syntax unified
  59              		.arm
  60              		.fpu neon
  62              	_ZN6tflite3ops5micro3pad7PrepareEP13TfLiteContextP10TfLiteNode:
  63              		.fnstart
  64              	.LFB1320:
  43:../src/tensorflow_lite/tensorflow/lite/micro/kernels/pad.cc **** }
  44:../src/tensorflow_lite/tensorflow/lite/micro/kernels/pad.cc **** 
  45:../src/tensorflow_lite/tensorflow/lite/micro/kernels/pad.cc **** TfLiteStatus Prepare(TfLiteContext* context, TfLiteNode* node) {
  65              		.loc 1 45 0
  66              		.cfi_startproc
  67              		.cfi_personality 0,__gxx_personality_v0
  68              		.cfi_lsda 0,.LLSDA1320
  69              		@ args = 0, pretend = 0, frame = 104
  70              		@ frame_needed = 0, uses_anonymous_args = 0
  71              	.LVL4:
  72 0000 F04F2DE9 		push	{r4, r5, r6, r7, r8, r9, r10, fp, lr}
  73              		.save {r4, r5, r6, r7, r8, r9, r10, fp, lr}
  74              		.cfi_def_cfa_offset 36
  75              		.cfi_offset 4, -36
  76              		.cfi_offset 5, -32
  77              		.cfi_offset 6, -28
  78              		.cfi_offset 7, -24
  79              		.cfi_offset 8, -20
  80              		.cfi_offset 9, -16
  81              		.cfi_offset 10, -12
  82              		.cfi_offset 11, -8
  83              		.cfi_offset 14, -4
  84              		.pad #132
  85 0004 84D04DE2 		sub	sp, sp, #132
  86              		.cfi_def_cfa_offset 168
  46:../src/tensorflow_lite/tensorflow/lite/micro/kernels/pad.cc ****   TFLITE_DCHECK(node->user_data != nullptr);
  87              		.loc 1 46 0
  88 0008 10B091E5 		ldr	fp, [r1, #16]
  45:../src/tensorflow_lite/tensorflow/lite/micro/kernels/pad.cc ****   TFLITE_DCHECK(node->user_data != nullptr);
  89              		.loc 1 45 0
  90 000c 18008DE5 		str	r0, [sp, #24]
  91              		.loc 1 46 0
  92 0010 00005BE3 		cmp	fp, #0
  93 0014 AD03000A 		beq	.L178
  94              	.LBB461:
  95              	.LBB462:
  96              		.file 2 "C:/Renesas/e2studio_2021_01_workspace_RZA2M_ANPR/ANPR_RZA2M_GR_MANGO/src/tensorflow_lite/
   1:C:/Renesas/e2studio_2021_01_workspace_RZA2M_ANPR/ANPR_RZA2M_GR_MANGO/src/tensorflow_lite/tensorflow/lite/kernels\kernel_util.h **** /* Copyright 2017 The TensorFlow Authors. All Rights Reserved.
   2:C:/Renesas/e2studio_2021_01_workspace_RZA2M_ANPR/ANPR_RZA2M_GR_MANGO/src/tensorflow_lite/tensorflow/lite/kernels\kernel_util.h **** 
   3:C:/Renesas/e2studio_2021_01_workspace_RZA2M_ANPR/ANPR_RZA2M_GR_MANGO/src/tensorflow_lite/tensorflow/lite/kernels\kernel_util.h **** Licensed under the Apache License, Version 2.0 (the "License");
   4:C:/Renesas/e2studio_2021_01_workspace_RZA2M_ANPR/ANPR_RZA2M_GR_MANGO/src/tensorflow_lite/tensorflow/lite/kernels\kernel_util.h **** you may not use this file except in compliance with the License.
   5:C:/Renesas/e2studio_2021_01_workspace_RZA2M_ANPR/ANPR_RZA2M_GR_MANGO/src/tensorflow_lite/tensorflow/lite/kernels\kernel_util.h **** You may obtain a copy of the License at
   6:C:/Renesas/e2studio_2021_01_workspace_RZA2M_ANPR/ANPR_RZA2M_GR_MANGO/src/tensorflow_lite/tensorflow/lite/kernels\kernel_util.h **** 
   7:C:/Renesas/e2studio_2021_01_workspace_RZA2M_ANPR/ANPR_RZA2M_GR_MANGO/src/tensorflow_lite/tensorflow/lite/kernels\kernel_util.h ****     http://www.apache.org/licenses/LICENSE-2.0
   8:C:/Renesas/e2studio_2021_01_workspace_RZA2M_ANPR/ANPR_RZA2M_GR_MANGO/src/tensorflow_lite/tensorflow/lite/kernels\kernel_util.h **** 
   9:C:/Renesas/e2studio_2021_01_workspace_RZA2M_ANPR/ANPR_RZA2M_GR_MANGO/src/tensorflow_lite/tensorflow/lite/kernels\kernel_util.h **** Unless required by applicable law or agreed to in writing, software
  10:C:/Renesas/e2studio_2021_01_workspace_RZA2M_ANPR/ANPR_RZA2M_GR_MANGO/src/tensorflow_lite/tensorflow/lite/kernels\kernel_util.h **** distributed under the License is distributed on an "AS IS" BASIS,
  11:C:/Renesas/e2studio_2021_01_workspace_RZA2M_ANPR/ANPR_RZA2M_GR_MANGO/src/tensorflow_lite/tensorflow/lite/kernels\kernel_util.h **** WITHOUT WARRANTIES OR CONDITIONS OF ANY KIND, either express or implied.
  12:C:/Renesas/e2studio_2021_01_workspace_RZA2M_ANPR/ANPR_RZA2M_GR_MANGO/src/tensorflow_lite/tensorflow/lite/kernels\kernel_util.h **** See the License for the specific language governing permissions and
  13:C:/Renesas/e2studio_2021_01_workspace_RZA2M_ANPR/ANPR_RZA2M_GR_MANGO/src/tensorflow_lite/tensorflow/lite/kernels\kernel_util.h **** limitations under the License.
  14:C:/Renesas/e2studio_2021_01_workspace_RZA2M_ANPR/ANPR_RZA2M_GR_MANGO/src/tensorflow_lite/tensorflow/lite/kernels\kernel_util.h **** ==============================================================================*/
  15:C:/Renesas/e2studio_2021_01_workspace_RZA2M_ANPR/ANPR_RZA2M_GR_MANGO/src/tensorflow_lite/tensorflow/lite/kernels\kernel_util.h **** #ifndef TENSORFLOW_LITE_KERNELS_KERNEL_UTIL_H_
  16:C:/Renesas/e2studio_2021_01_workspace_RZA2M_ANPR/ANPR_RZA2M_GR_MANGO/src/tensorflow_lite/tensorflow/lite/kernels\kernel_util.h **** #define TENSORFLOW_LITE_KERNELS_KERNEL_UTIL_H_
  17:C:/Renesas/e2studio_2021_01_workspace_RZA2M_ANPR/ANPR_RZA2M_GR_MANGO/src/tensorflow_lite/tensorflow/lite/kernels\kernel_util.h **** 
  18:C:/Renesas/e2studio_2021_01_workspace_RZA2M_ANPR/ANPR_RZA2M_GR_MANGO/src/tensorflow_lite/tensorflow/lite/kernels\kernel_util.h **** #include <stdint.h>
  19:C:/Renesas/e2studio_2021_01_workspace_RZA2M_ANPR/ANPR_RZA2M_GR_MANGO/src/tensorflow_lite/tensorflow/lite/kernels\kernel_util.h **** 
  20:C:/Renesas/e2studio_2021_01_workspace_RZA2M_ANPR/ANPR_RZA2M_GR_MANGO/src/tensorflow_lite/tensorflow/lite/kernels\kernel_util.h **** #include <limits>
  21:C:/Renesas/e2studio_2021_01_workspace_RZA2M_ANPR/ANPR_RZA2M_GR_MANGO/src/tensorflow_lite/tensorflow/lite/kernels\kernel_util.h **** 
  22:C:/Renesas/e2studio_2021_01_workspace_RZA2M_ANPR/ANPR_RZA2M_GR_MANGO/src/tensorflow_lite/tensorflow/lite/kernels\kernel_util.h **** #include "tensorflow/lite/c/builtin_op_data.h"
  23:C:/Renesas/e2studio_2021_01_workspace_RZA2M_ANPR/ANPR_RZA2M_GR_MANGO/src/tensorflow_lite/tensorflow/lite/kernels\kernel_util.h **** #include "tensorflow/lite/c/common.h"
  24:C:/Renesas/e2studio_2021_01_workspace_RZA2M_ANPR/ANPR_RZA2M_GR_MANGO/src/tensorflow_lite/tensorflow/lite/kernels\kernel_util.h **** 
  25:C:/Renesas/e2studio_2021_01_workspace_RZA2M_ANPR/ANPR_RZA2M_GR_MANGO/src/tensorflow_lite/tensorflow/lite/kernels\kernel_util.h **** namespace tflite {
  26:C:/Renesas/e2studio_2021_01_workspace_RZA2M_ANPR/ANPR_RZA2M_GR_MANGO/src/tensorflow_lite/tensorflow/lite/kernels\kernel_util.h **** 
  27:C:/Renesas/e2studio_2021_01_workspace_RZA2M_ANPR/ANPR_RZA2M_GR_MANGO/src/tensorflow_lite/tensorflow/lite/kernels\kernel_util.h **** // A fair number of functions in this header have historically been inline.
  28:C:/Renesas/e2studio_2021_01_workspace_RZA2M_ANPR/ANPR_RZA2M_GR_MANGO/src/tensorflow_lite/tensorflow/lite/kernels\kernel_util.h **** // It is ok to change functions to not be inline if the latency with
  29:C:/Renesas/e2studio_2021_01_workspace_RZA2M_ANPR/ANPR_RZA2M_GR_MANGO/src/tensorflow_lite/tensorflow/lite/kernels\kernel_util.h **** // benchmark_model for MobileNet + MobileBERT is unaffected. If such a change is
  30:C:/Renesas/e2studio_2021_01_workspace_RZA2M_ANPR/ANPR_RZA2M_GR_MANGO/src/tensorflow_lite/tensorflow/lite/kernels\kernel_util.h **** // made, move the newly non-inlined function declarations to the top of this
  31:C:/Renesas/e2studio_2021_01_workspace_RZA2M_ANPR/ANPR_RZA2M_GR_MANGO/src/tensorflow_lite/tensorflow/lite/kernels\kernel_util.h **** // header file.
  32:C:/Renesas/e2studio_2021_01_workspace_RZA2M_ANPR/ANPR_RZA2M_GR_MANGO/src/tensorflow_lite/tensorflow/lite/kernels\kernel_util.h **** 
  33:C:/Renesas/e2studio_2021_01_workspace_RZA2M_ANPR/ANPR_RZA2M_GR_MANGO/src/tensorflow_lite/tensorflow/lite/kernels\kernel_util.h **** // Note: You must check if result is not null:
  34:C:/Renesas/e2studio_2021_01_workspace_RZA2M_ANPR/ANPR_RZA2M_GR_MANGO/src/tensorflow_lite/tensorflow/lite/kernels\kernel_util.h **** //
  35:C:/Renesas/e2studio_2021_01_workspace_RZA2M_ANPR/ANPR_RZA2M_GR_MANGO/src/tensorflow_lite/tensorflow/lite/kernels\kernel_util.h **** //   TfLiteTensor* my_tensor = GetInput(context, node, kMyTensorIdx);
  36:C:/Renesas/e2studio_2021_01_workspace_RZA2M_ANPR/ANPR_RZA2M_GR_MANGO/src/tensorflow_lite/tensorflow/lite/kernels\kernel_util.h **** //   TF_LITE_ENSURE(context, my_tensor != nullptr);
  37:C:/Renesas/e2studio_2021_01_workspace_RZA2M_ANPR/ANPR_RZA2M_GR_MANGO/src/tensorflow_lite/tensorflow/lite/kernels\kernel_util.h **** //
  38:C:/Renesas/e2studio_2021_01_workspace_RZA2M_ANPR/ANPR_RZA2M_GR_MANGO/src/tensorflow_lite/tensorflow/lite/kernels\kernel_util.h **** // This is because the index might point to the optional tensor constant
  39:C:/Renesas/e2studio_2021_01_workspace_RZA2M_ANPR/ANPR_RZA2M_GR_MANGO/src/tensorflow_lite/tensorflow/lite/kernels\kernel_util.h **** // (kTfLiteOptionalTensor) in which case there is no tensor to return.
  40:C:/Renesas/e2studio_2021_01_workspace_RZA2M_ANPR/ANPR_RZA2M_GR_MANGO/src/tensorflow_lite/tensorflow/lite/kernels\kernel_util.h **** const TfLiteTensor* GetInput(const TfLiteContext* context,
  41:C:/Renesas/e2studio_2021_01_workspace_RZA2M_ANPR/ANPR_RZA2M_GR_MANGO/src/tensorflow_lite/tensorflow/lite/kernels\kernel_util.h ****                              const TfLiteNode* node, int index);
  42:C:/Renesas/e2studio_2021_01_workspace_RZA2M_ANPR/ANPR_RZA2M_GR_MANGO/src/tensorflow_lite/tensorflow/lite/kernels\kernel_util.h **** 
  43:C:/Renesas/e2studio_2021_01_workspace_RZA2M_ANPR/ANPR_RZA2M_GR_MANGO/src/tensorflow_lite/tensorflow/lite/kernels\kernel_util.h **** // Same as `GetInput` but returns boolean and uses output argument for tensor.
  44:C:/Renesas/e2studio_2021_01_workspace_RZA2M_ANPR/ANPR_RZA2M_GR_MANGO/src/tensorflow_lite/tensorflow/lite/kernels\kernel_util.h **** //
  45:C:/Renesas/e2studio_2021_01_workspace_RZA2M_ANPR/ANPR_RZA2M_GR_MANGO/src/tensorflow_lite/tensorflow/lite/kernels\kernel_util.h **** //   TfLiteTensor* my_tensor;
  46:C:/Renesas/e2studio_2021_01_workspace_RZA2M_ANPR/ANPR_RZA2M_GR_MANGO/src/tensorflow_lite/tensorflow/lite/kernels\kernel_util.h **** //   TF_LITE_ENSURE_OK(context,
  47:C:/Renesas/e2studio_2021_01_workspace_RZA2M_ANPR/ANPR_RZA2M_GR_MANGO/src/tensorflow_lite/tensorflow/lite/kernels\kernel_util.h **** //                     GetInputSafe(context, node, kMyTensorIdx, &my_tensor));
  48:C:/Renesas/e2studio_2021_01_workspace_RZA2M_ANPR/ANPR_RZA2M_GR_MANGO/src/tensorflow_lite/tensorflow/lite/kernels\kernel_util.h **** //   // can use my_tensor directly from here onwards, it is not nullptr
  49:C:/Renesas/e2studio_2021_01_workspace_RZA2M_ANPR/ANPR_RZA2M_GR_MANGO/src/tensorflow_lite/tensorflow/lite/kernels\kernel_util.h **** //
  50:C:/Renesas/e2studio_2021_01_workspace_RZA2M_ANPR/ANPR_RZA2M_GR_MANGO/src/tensorflow_lite/tensorflow/lite/kernels\kernel_util.h **** // Should be used in cases where the binary size is too large.
  51:C:/Renesas/e2studio_2021_01_workspace_RZA2M_ANPR/ANPR_RZA2M_GR_MANGO/src/tensorflow_lite/tensorflow/lite/kernels\kernel_util.h **** TfLiteStatus GetInputSafe(const TfLiteContext* context, const TfLiteNode* node,
  52:C:/Renesas/e2studio_2021_01_workspace_RZA2M_ANPR/ANPR_RZA2M_GR_MANGO/src/tensorflow_lite/tensorflow/lite/kernels\kernel_util.h ****                           int index, const TfLiteTensor** tensor);
  53:C:/Renesas/e2studio_2021_01_workspace_RZA2M_ANPR/ANPR_RZA2M_GR_MANGO/src/tensorflow_lite/tensorflow/lite/kernels\kernel_util.h **** 
  54:C:/Renesas/e2studio_2021_01_workspace_RZA2M_ANPR/ANPR_RZA2M_GR_MANGO/src/tensorflow_lite/tensorflow/lite/kernels\kernel_util.h **** // Note: You must check if result is not null:
  55:C:/Renesas/e2studio_2021_01_workspace_RZA2M_ANPR/ANPR_RZA2M_GR_MANGO/src/tensorflow_lite/tensorflow/lite/kernels\kernel_util.h **** //
  56:C:/Renesas/e2studio_2021_01_workspace_RZA2M_ANPR/ANPR_RZA2M_GR_MANGO/src/tensorflow_lite/tensorflow/lite/kernels\kernel_util.h **** //   TfLiteTensor* my_tensor = GetVariableInput(context, node, kMyTensorIdx);
  57:C:/Renesas/e2studio_2021_01_workspace_RZA2M_ANPR/ANPR_RZA2M_GR_MANGO/src/tensorflow_lite/tensorflow/lite/kernels\kernel_util.h **** //   TF_LITE_ENSURE(context, my_tensor != nullptr);
  58:C:/Renesas/e2studio_2021_01_workspace_RZA2M_ANPR/ANPR_RZA2M_GR_MANGO/src/tensorflow_lite/tensorflow/lite/kernels\kernel_util.h **** //
  59:C:/Renesas/e2studio_2021_01_workspace_RZA2M_ANPR/ANPR_RZA2M_GR_MANGO/src/tensorflow_lite/tensorflow/lite/kernels\kernel_util.h **** // This is because the index might point to the optional tensor constant
  60:C:/Renesas/e2studio_2021_01_workspace_RZA2M_ANPR/ANPR_RZA2M_GR_MANGO/src/tensorflow_lite/tensorflow/lite/kernels\kernel_util.h **** // (kTfLiteOptionalTensor) in which case there is no tensor to return.
  61:C:/Renesas/e2studio_2021_01_workspace_RZA2M_ANPR/ANPR_RZA2M_GR_MANGO/src/tensorflow_lite/tensorflow/lite/kernels\kernel_util.h **** TfLiteTensor* GetVariableInput(TfLiteContext* context, const TfLiteNode* node,
  62:C:/Renesas/e2studio_2021_01_workspace_RZA2M_ANPR/ANPR_RZA2M_GR_MANGO/src/tensorflow_lite/tensorflow/lite/kernels\kernel_util.h ****                                int index);
  63:C:/Renesas/e2studio_2021_01_workspace_RZA2M_ANPR/ANPR_RZA2M_GR_MANGO/src/tensorflow_lite/tensorflow/lite/kernels\kernel_util.h **** 
  64:C:/Renesas/e2studio_2021_01_workspace_RZA2M_ANPR/ANPR_RZA2M_GR_MANGO/src/tensorflow_lite/tensorflow/lite/kernels\kernel_util.h **** // Note: You must check if result is not null:
  65:C:/Renesas/e2studio_2021_01_workspace_RZA2M_ANPR/ANPR_RZA2M_GR_MANGO/src/tensorflow_lite/tensorflow/lite/kernels\kernel_util.h **** //
  66:C:/Renesas/e2studio_2021_01_workspace_RZA2M_ANPR/ANPR_RZA2M_GR_MANGO/src/tensorflow_lite/tensorflow/lite/kernels\kernel_util.h **** //   TfLiteTensor* my_tensor = GetOutput(context, node, kMyTensorIdx);
  67:C:/Renesas/e2studio_2021_01_workspace_RZA2M_ANPR/ANPR_RZA2M_GR_MANGO/src/tensorflow_lite/tensorflow/lite/kernels\kernel_util.h **** //   TF_LITE_ENSURE(context, my_tensor != nullptr);
  68:C:/Renesas/e2studio_2021_01_workspace_RZA2M_ANPR/ANPR_RZA2M_GR_MANGO/src/tensorflow_lite/tensorflow/lite/kernels\kernel_util.h **** //
  69:C:/Renesas/e2studio_2021_01_workspace_RZA2M_ANPR/ANPR_RZA2M_GR_MANGO/src/tensorflow_lite/tensorflow/lite/kernels\kernel_util.h **** // This is because the index might point to the optional tensor constant
  70:C:/Renesas/e2studio_2021_01_workspace_RZA2M_ANPR/ANPR_RZA2M_GR_MANGO/src/tensorflow_lite/tensorflow/lite/kernels\kernel_util.h **** // (kTfLiteOptionalTensor) in which case there is no tensor to return.
  71:C:/Renesas/e2studio_2021_01_workspace_RZA2M_ANPR/ANPR_RZA2M_GR_MANGO/src/tensorflow_lite/tensorflow/lite/kernels\kernel_util.h **** TfLiteTensor* GetOutput(TfLiteContext* context, const TfLiteNode* node,
  72:C:/Renesas/e2studio_2021_01_workspace_RZA2M_ANPR/ANPR_RZA2M_GR_MANGO/src/tensorflow_lite/tensorflow/lite/kernels\kernel_util.h ****                         int index);
  73:C:/Renesas/e2studio_2021_01_workspace_RZA2M_ANPR/ANPR_RZA2M_GR_MANGO/src/tensorflow_lite/tensorflow/lite/kernels\kernel_util.h **** 
  74:C:/Renesas/e2studio_2021_01_workspace_RZA2M_ANPR/ANPR_RZA2M_GR_MANGO/src/tensorflow_lite/tensorflow/lite/kernels\kernel_util.h **** // Same as `GetOutput` but returns boolean and uses output argument for tensor.
  75:C:/Renesas/e2studio_2021_01_workspace_RZA2M_ANPR/ANPR_RZA2M_GR_MANGO/src/tensorflow_lite/tensorflow/lite/kernels\kernel_util.h **** //
  76:C:/Renesas/e2studio_2021_01_workspace_RZA2M_ANPR/ANPR_RZA2M_GR_MANGO/src/tensorflow_lite/tensorflow/lite/kernels\kernel_util.h **** //   TfLiteTensor* my_tensor;
  77:C:/Renesas/e2studio_2021_01_workspace_RZA2M_ANPR/ANPR_RZA2M_GR_MANGO/src/tensorflow_lite/tensorflow/lite/kernels\kernel_util.h **** //   TF_LITE_ENSURE_OK(context,
  78:C:/Renesas/e2studio_2021_01_workspace_RZA2M_ANPR/ANPR_RZA2M_GR_MANGO/src/tensorflow_lite/tensorflow/lite/kernels\kernel_util.h **** //                     GetOutputSafe(context, node, kMyTensorIdx, &my_tensor));
  79:C:/Renesas/e2studio_2021_01_workspace_RZA2M_ANPR/ANPR_RZA2M_GR_MANGO/src/tensorflow_lite/tensorflow/lite/kernels\kernel_util.h **** //   // can use my_tensor directly from here onwards, it is not nullptr
  80:C:/Renesas/e2studio_2021_01_workspace_RZA2M_ANPR/ANPR_RZA2M_GR_MANGO/src/tensorflow_lite/tensorflow/lite/kernels\kernel_util.h **** //
  81:C:/Renesas/e2studio_2021_01_workspace_RZA2M_ANPR/ANPR_RZA2M_GR_MANGO/src/tensorflow_lite/tensorflow/lite/kernels\kernel_util.h **** // Should be used in cases where the binary size is too large.
  82:C:/Renesas/e2studio_2021_01_workspace_RZA2M_ANPR/ANPR_RZA2M_GR_MANGO/src/tensorflow_lite/tensorflow/lite/kernels\kernel_util.h **** TfLiteStatus GetOutputSafe(const TfLiteContext* context, const TfLiteNode* node,
  83:C:/Renesas/e2studio_2021_01_workspace_RZA2M_ANPR/ANPR_RZA2M_GR_MANGO/src/tensorflow_lite/tensorflow/lite/kernels\kernel_util.h ****                            int index, TfLiteTensor** tensor);
  84:C:/Renesas/e2studio_2021_01_workspace_RZA2M_ANPR/ANPR_RZA2M_GR_MANGO/src/tensorflow_lite/tensorflow/lite/kernels\kernel_util.h **** 
  85:C:/Renesas/e2studio_2021_01_workspace_RZA2M_ANPR/ANPR_RZA2M_GR_MANGO/src/tensorflow_lite/tensorflow/lite/kernels\kernel_util.h **** // Note: You must check if result is not null:
  86:C:/Renesas/e2studio_2021_01_workspace_RZA2M_ANPR/ANPR_RZA2M_GR_MANGO/src/tensorflow_lite/tensorflow/lite/kernels\kernel_util.h **** //
  87:C:/Renesas/e2studio_2021_01_workspace_RZA2M_ANPR/ANPR_RZA2M_GR_MANGO/src/tensorflow_lite/tensorflow/lite/kernels\kernel_util.h **** //   TfLiteTensor* my_tensor = GetOptionalInputTensor(context, node, kIdx);
  88:C:/Renesas/e2studio_2021_01_workspace_RZA2M_ANPR/ANPR_RZA2M_GR_MANGO/src/tensorflow_lite/tensorflow/lite/kernels\kernel_util.h **** //   TF_LITE_ENSURE(context, my_tensor != nullptr);
  89:C:/Renesas/e2studio_2021_01_workspace_RZA2M_ANPR/ANPR_RZA2M_GR_MANGO/src/tensorflow_lite/tensorflow/lite/kernels\kernel_util.h **** //
  90:C:/Renesas/e2studio_2021_01_workspace_RZA2M_ANPR/ANPR_RZA2M_GR_MANGO/src/tensorflow_lite/tensorflow/lite/kernels\kernel_util.h **** // This is because the index might point to the optional tensor constant
  91:C:/Renesas/e2studio_2021_01_workspace_RZA2M_ANPR/ANPR_RZA2M_GR_MANGO/src/tensorflow_lite/tensorflow/lite/kernels\kernel_util.h **** // (kTfLiteOptionalTensor) in which case there is no tensor to return.
  92:C:/Renesas/e2studio_2021_01_workspace_RZA2M_ANPR/ANPR_RZA2M_GR_MANGO/src/tensorflow_lite/tensorflow/lite/kernels\kernel_util.h **** //
  93:C:/Renesas/e2studio_2021_01_workspace_RZA2M_ANPR/ANPR_RZA2M_GR_MANGO/src/tensorflow_lite/tensorflow/lite/kernels\kernel_util.h **** // Deprecated. GetInput has the same functionality.
  94:C:/Renesas/e2studio_2021_01_workspace_RZA2M_ANPR/ANPR_RZA2M_GR_MANGO/src/tensorflow_lite/tensorflow/lite/kernels\kernel_util.h **** const TfLiteTensor* GetOptionalInputTensor(const TfLiteContext* context,
  95:C:/Renesas/e2studio_2021_01_workspace_RZA2M_ANPR/ANPR_RZA2M_GR_MANGO/src/tensorflow_lite/tensorflow/lite/kernels\kernel_util.h ****                                            const TfLiteNode* node, int index);
  96:C:/Renesas/e2studio_2021_01_workspace_RZA2M_ANPR/ANPR_RZA2M_GR_MANGO/src/tensorflow_lite/tensorflow/lite/kernels\kernel_util.h **** 
  97:C:/Renesas/e2studio_2021_01_workspace_RZA2M_ANPR/ANPR_RZA2M_GR_MANGO/src/tensorflow_lite/tensorflow/lite/kernels\kernel_util.h **** #ifndef TF_LITE_STATIC_MEMORY
  98:C:/Renesas/e2studio_2021_01_workspace_RZA2M_ANPR/ANPR_RZA2M_GR_MANGO/src/tensorflow_lite/tensorflow/lite/kernels\kernel_util.h **** // Note: You must check if result is not null:
  99:C:/Renesas/e2studio_2021_01_workspace_RZA2M_ANPR/ANPR_RZA2M_GR_MANGO/src/tensorflow_lite/tensorflow/lite/kernels\kernel_util.h **** //
 100:C:/Renesas/e2studio_2021_01_workspace_RZA2M_ANPR/ANPR_RZA2M_GR_MANGO/src/tensorflow_lite/tensorflow/lite/kernels\kernel_util.h **** //   TfLiteTensor* my_tensor = GetTemporary(context, node, kMyTensorIdx);
 101:C:/Renesas/e2studio_2021_01_workspace_RZA2M_ANPR/ANPR_RZA2M_GR_MANGO/src/tensorflow_lite/tensorflow/lite/kernels\kernel_util.h **** //   TF_LITE_ENSURE(context, my_tensor != nullptr);
 102:C:/Renesas/e2studio_2021_01_workspace_RZA2M_ANPR/ANPR_RZA2M_GR_MANGO/src/tensorflow_lite/tensorflow/lite/kernels\kernel_util.h **** //
 103:C:/Renesas/e2studio_2021_01_workspace_RZA2M_ANPR/ANPR_RZA2M_GR_MANGO/src/tensorflow_lite/tensorflow/lite/kernels\kernel_util.h **** // This is because the index might point to the optional tensor constant
 104:C:/Renesas/e2studio_2021_01_workspace_RZA2M_ANPR/ANPR_RZA2M_GR_MANGO/src/tensorflow_lite/tensorflow/lite/kernels\kernel_util.h **** // (kTfLiteOptionalTensor) in which case there is no tensor to return.
 105:C:/Renesas/e2studio_2021_01_workspace_RZA2M_ANPR/ANPR_RZA2M_GR_MANGO/src/tensorflow_lite/tensorflow/lite/kernels\kernel_util.h **** TfLiteTensor* GetTemporary(TfLiteContext* context, const TfLiteNode* node,
 106:C:/Renesas/e2studio_2021_01_workspace_RZA2M_ANPR/ANPR_RZA2M_GR_MANGO/src/tensorflow_lite/tensorflow/lite/kernels\kernel_util.h ****                            int index);
 107:C:/Renesas/e2studio_2021_01_workspace_RZA2M_ANPR/ANPR_RZA2M_GR_MANGO/src/tensorflow_lite/tensorflow/lite/kernels\kernel_util.h **** 
 108:C:/Renesas/e2studio_2021_01_workspace_RZA2M_ANPR/ANPR_RZA2M_GR_MANGO/src/tensorflow_lite/tensorflow/lite/kernels\kernel_util.h **** // Same as `GetTemporary` but returns boolean and uses output argument for
 109:C:/Renesas/e2studio_2021_01_workspace_RZA2M_ANPR/ANPR_RZA2M_GR_MANGO/src/tensorflow_lite/tensorflow/lite/kernels\kernel_util.h **** // tensor.
 110:C:/Renesas/e2studio_2021_01_workspace_RZA2M_ANPR/ANPR_RZA2M_GR_MANGO/src/tensorflow_lite/tensorflow/lite/kernels\kernel_util.h **** //
 111:C:/Renesas/e2studio_2021_01_workspace_RZA2M_ANPR/ANPR_RZA2M_GR_MANGO/src/tensorflow_lite/tensorflow/lite/kernels\kernel_util.h **** //   TfLiteTensor* my_tensor;
 112:C:/Renesas/e2studio_2021_01_workspace_RZA2M_ANPR/ANPR_RZA2M_GR_MANGO/src/tensorflow_lite/tensorflow/lite/kernels\kernel_util.h **** //   TF_LITE_ENSURE_OK(context,
 113:C:/Renesas/e2studio_2021_01_workspace_RZA2M_ANPR/ANPR_RZA2M_GR_MANGO/src/tensorflow_lite/tensorflow/lite/kernels\kernel_util.h **** //                     GetTemporarySafe(context, node, kMyTensorIdx,
 114:C:/Renesas/e2studio_2021_01_workspace_RZA2M_ANPR/ANPR_RZA2M_GR_MANGO/src/tensorflow_lite/tensorflow/lite/kernels\kernel_util.h **** //                     &my_tensor));
 115:C:/Renesas/e2studio_2021_01_workspace_RZA2M_ANPR/ANPR_RZA2M_GR_MANGO/src/tensorflow_lite/tensorflow/lite/kernels\kernel_util.h **** //   // can use my_tensor directly from here onwards, it is not nullptr
 116:C:/Renesas/e2studio_2021_01_workspace_RZA2M_ANPR/ANPR_RZA2M_GR_MANGO/src/tensorflow_lite/tensorflow/lite/kernels\kernel_util.h **** //
 117:C:/Renesas/e2studio_2021_01_workspace_RZA2M_ANPR/ANPR_RZA2M_GR_MANGO/src/tensorflow_lite/tensorflow/lite/kernels\kernel_util.h **** // Should be used in cases where the binary size is too large.
 118:C:/Renesas/e2studio_2021_01_workspace_RZA2M_ANPR/ANPR_RZA2M_GR_MANGO/src/tensorflow_lite/tensorflow/lite/kernels\kernel_util.h **** TfLiteStatus GetTemporarySafe(const TfLiteContext* context,
 119:C:/Renesas/e2studio_2021_01_workspace_RZA2M_ANPR/ANPR_RZA2M_GR_MANGO/src/tensorflow_lite/tensorflow/lite/kernels\kernel_util.h ****                               const TfLiteNode* node, int index,
 120:C:/Renesas/e2studio_2021_01_workspace_RZA2M_ANPR/ANPR_RZA2M_GR_MANGO/src/tensorflow_lite/tensorflow/lite/kernels\kernel_util.h ****                               TfLiteTensor** tensor);
 121:C:/Renesas/e2studio_2021_01_workspace_RZA2M_ANPR/ANPR_RZA2M_GR_MANGO/src/tensorflow_lite/tensorflow/lite/kernels\kernel_util.h **** 
 122:C:/Renesas/e2studio_2021_01_workspace_RZA2M_ANPR/ANPR_RZA2M_GR_MANGO/src/tensorflow_lite/tensorflow/lite/kernels\kernel_util.h **** // Note: You must check if result is not null:
 123:C:/Renesas/e2studio_2021_01_workspace_RZA2M_ANPR/ANPR_RZA2M_GR_MANGO/src/tensorflow_lite/tensorflow/lite/kernels\kernel_util.h **** //
 124:C:/Renesas/e2studio_2021_01_workspace_RZA2M_ANPR/ANPR_RZA2M_GR_MANGO/src/tensorflow_lite/tensorflow/lite/kernels\kernel_util.h **** //   TfLiteTensor* my_tensor = GetIntermediates(context, node, kMyTensorIdx);
 125:C:/Renesas/e2studio_2021_01_workspace_RZA2M_ANPR/ANPR_RZA2M_GR_MANGO/src/tensorflow_lite/tensorflow/lite/kernels\kernel_util.h **** //   TF_LITE_ENSURE(context, my_tensor != nullptr);
 126:C:/Renesas/e2studio_2021_01_workspace_RZA2M_ANPR/ANPR_RZA2M_GR_MANGO/src/tensorflow_lite/tensorflow/lite/kernels\kernel_util.h **** //
 127:C:/Renesas/e2studio_2021_01_workspace_RZA2M_ANPR/ANPR_RZA2M_GR_MANGO/src/tensorflow_lite/tensorflow/lite/kernels\kernel_util.h **** // This is because the index might point to the optional tensor constant
 128:C:/Renesas/e2studio_2021_01_workspace_RZA2M_ANPR/ANPR_RZA2M_GR_MANGO/src/tensorflow_lite/tensorflow/lite/kernels\kernel_util.h **** // (kTfLiteOptionalTensor) in which case there is no tensor to return.
 129:C:/Renesas/e2studio_2021_01_workspace_RZA2M_ANPR/ANPR_RZA2M_GR_MANGO/src/tensorflow_lite/tensorflow/lite/kernels\kernel_util.h **** const TfLiteTensor* GetIntermediates(TfLiteContext* context,
 130:C:/Renesas/e2studio_2021_01_workspace_RZA2M_ANPR/ANPR_RZA2M_GR_MANGO/src/tensorflow_lite/tensorflow/lite/kernels\kernel_util.h ****                                      const TfLiteNode* node, int index);
 131:C:/Renesas/e2studio_2021_01_workspace_RZA2M_ANPR/ANPR_RZA2M_GR_MANGO/src/tensorflow_lite/tensorflow/lite/kernels\kernel_util.h **** 
 132:C:/Renesas/e2studio_2021_01_workspace_RZA2M_ANPR/ANPR_RZA2M_GR_MANGO/src/tensorflow_lite/tensorflow/lite/kernels\kernel_util.h **** // Same as `GetIntermediates` but returns boolean and uses output argument for
 133:C:/Renesas/e2studio_2021_01_workspace_RZA2M_ANPR/ANPR_RZA2M_GR_MANGO/src/tensorflow_lite/tensorflow/lite/kernels\kernel_util.h **** // tensor.
 134:C:/Renesas/e2studio_2021_01_workspace_RZA2M_ANPR/ANPR_RZA2M_GR_MANGO/src/tensorflow_lite/tensorflow/lite/kernels\kernel_util.h **** //
 135:C:/Renesas/e2studio_2021_01_workspace_RZA2M_ANPR/ANPR_RZA2M_GR_MANGO/src/tensorflow_lite/tensorflow/lite/kernels\kernel_util.h **** //   TfLiteTensor* my_tensor;
 136:C:/Renesas/e2studio_2021_01_workspace_RZA2M_ANPR/ANPR_RZA2M_GR_MANGO/src/tensorflow_lite/tensorflow/lite/kernels\kernel_util.h **** //   TF_LITE_ENSURE_OK(context,
 137:C:/Renesas/e2studio_2021_01_workspace_RZA2M_ANPR/ANPR_RZA2M_GR_MANGO/src/tensorflow_lite/tensorflow/lite/kernels\kernel_util.h **** //                     GetIntermediatesSafe(context, node, kMyTensorIdx,
 138:C:/Renesas/e2studio_2021_01_workspace_RZA2M_ANPR/ANPR_RZA2M_GR_MANGO/src/tensorflow_lite/tensorflow/lite/kernels\kernel_util.h **** //                     &my_tensor));
 139:C:/Renesas/e2studio_2021_01_workspace_RZA2M_ANPR/ANPR_RZA2M_GR_MANGO/src/tensorflow_lite/tensorflow/lite/kernels\kernel_util.h **** //   // can use my_tensor directly from here onwards, it is not nullptr
 140:C:/Renesas/e2studio_2021_01_workspace_RZA2M_ANPR/ANPR_RZA2M_GR_MANGO/src/tensorflow_lite/tensorflow/lite/kernels\kernel_util.h **** //
 141:C:/Renesas/e2studio_2021_01_workspace_RZA2M_ANPR/ANPR_RZA2M_GR_MANGO/src/tensorflow_lite/tensorflow/lite/kernels\kernel_util.h **** // Should be used in cases where the binary size is too large.
 142:C:/Renesas/e2studio_2021_01_workspace_RZA2M_ANPR/ANPR_RZA2M_GR_MANGO/src/tensorflow_lite/tensorflow/lite/kernels\kernel_util.h **** TfLiteStatus GetIntermediatesSafe(const TfLiteContext* context,
 143:C:/Renesas/e2studio_2021_01_workspace_RZA2M_ANPR/ANPR_RZA2M_GR_MANGO/src/tensorflow_lite/tensorflow/lite/kernels\kernel_util.h ****                                   const TfLiteNode* node, int index,
 144:C:/Renesas/e2studio_2021_01_workspace_RZA2M_ANPR/ANPR_RZA2M_GR_MANGO/src/tensorflow_lite/tensorflow/lite/kernels\kernel_util.h ****                                   TfLiteTensor** tensor);
 145:C:/Renesas/e2studio_2021_01_workspace_RZA2M_ANPR/ANPR_RZA2M_GR_MANGO/src/tensorflow_lite/tensorflow/lite/kernels\kernel_util.h **** #endif  // TF_LITE_STATIC_MEMORY
 146:C:/Renesas/e2studio_2021_01_workspace_RZA2M_ANPR/ANPR_RZA2M_GR_MANGO/src/tensorflow_lite/tensorflow/lite/kernels\kernel_util.h **** 
 147:C:/Renesas/e2studio_2021_01_workspace_RZA2M_ANPR/ANPR_RZA2M_GR_MANGO/src/tensorflow_lite/tensorflow/lite/kernels\kernel_util.h **** inline int NumDimensions(const TfLiteTensor* t) { return t->dims->size; }
 148:C:/Renesas/e2studio_2021_01_workspace_RZA2M_ANPR/ANPR_RZA2M_GR_MANGO/src/tensorflow_lite/tensorflow/lite/kernels\kernel_util.h **** inline int SizeOfDimension(const TfLiteTensor* t, int dim) {
 149:C:/Renesas/e2studio_2021_01_workspace_RZA2M_ANPR/ANPR_RZA2M_GR_MANGO/src/tensorflow_lite/tensorflow/lite/kernels\kernel_util.h ****   return t->dims->data[dim];
 150:C:/Renesas/e2studio_2021_01_workspace_RZA2M_ANPR/ANPR_RZA2M_GR_MANGO/src/tensorflow_lite/tensorflow/lite/kernels\kernel_util.h **** }
 151:C:/Renesas/e2studio_2021_01_workspace_RZA2M_ANPR/ANPR_RZA2M_GR_MANGO/src/tensorflow_lite/tensorflow/lite/kernels\kernel_util.h **** 
 152:C:/Renesas/e2studio_2021_01_workspace_RZA2M_ANPR/ANPR_RZA2M_GR_MANGO/src/tensorflow_lite/tensorflow/lite/kernels\kernel_util.h **** inline int NumInputs(const TfLiteNode* node) { return node->inputs->size; }
  97              		.loc 2 152 0
  98 0018 003091E5 		ldr	r3, [r1]
  99 001c 0140A0E1 		mov	r4, r1
 100              	.LVL5:
 101              	.LBE462:
 102              	.LBE461:
  47:../src/tensorflow_lite/tensorflow/lite/micro/kernels/pad.cc ****   OpData* data = static_cast<OpData*>(node->user_data);
  48:../src/tensorflow_lite/tensorflow/lite/micro/kernels/pad.cc **** 
  49:../src/tensorflow_lite/tensorflow/lite/micro/kernels/pad.cc ****   TF_LITE_ENSURE(context, NumInputs(node) == 2 || NumInputs(node) == 3);
 103              		.loc 1 49 0
 104 0020 003093E5 		ldr	r3, [r3]
 105 0024 023043E2 		sub	r3, r3, #2
 106 0028 010053E3 		cmp	r3, #1
 107 002c 0C00009A 		bls	.L179
 108 0030 003000E3 		movw	r3, #:lower16:.LC27
 109 0034 002000E3 		movw	r2, #:lower16:.LC1
 110 0038 003040E3 		movt	r3, #:upper16:.LC27
 111 003c 001000E3 		movw	r1, #:lower16:.LC5
 112              	.LVL6:
 113 0040 144090E5 		ldr	r4, [r0, #20]
 114              	.LVL7:
 115 0044 002040E3 		movt	r2, #:upper16:.LC1
 116 0048 00308DE5 		str	r3, [sp]
 117 004c 001040E3 		movt	r1, #:upper16:.LC5
 118 0050 3130A0E3 		mov	r3, #49
 119              	.LEHB0:
 120 0054 34FF2FE1 		blx	r4
 121              	.LVL8:
 122 0058 0100A0E3 		mov	r0, #1
 123              	.LVL9:
 124              	.L169:
  50:../src/tensorflow_lite/tensorflow/lite/micro/kernels/pad.cc ****   TF_LITE_ENSURE_EQ(context, NumOutputs(node), 1);
  51:../src/tensorflow_lite/tensorflow/lite/micro/kernels/pad.cc **** 
  52:../src/tensorflow_lite/tensorflow/lite/micro/kernels/pad.cc ****   const TfLiteTensor* input = GetInput(context, node, /*index=*/0);
  53:../src/tensorflow_lite/tensorflow/lite/micro/kernels/pad.cc ****   TF_LITE_ENSURE(context, input != nullptr);
  54:../src/tensorflow_lite/tensorflow/lite/micro/kernels/pad.cc ****   const TfLiteTensor* paddings = GetInput(context, node, /*index=*/1);
  55:../src/tensorflow_lite/tensorflow/lite/micro/kernels/pad.cc ****   TF_LITE_ENSURE(context, paddings != nullptr);
  56:../src/tensorflow_lite/tensorflow/lite/micro/kernels/pad.cc ****   const TfLiteTensor* constant_values =
  57:../src/tensorflow_lite/tensorflow/lite/micro/kernels/pad.cc ****       NumInputs(node) == 3 ? GetInput(context, node, /*index=*/2) : nullptr;
  58:../src/tensorflow_lite/tensorflow/lite/micro/kernels/pad.cc ****   TfLiteTensor* output = GetOutput(context, node, /*index=*/0);
  59:../src/tensorflow_lite/tensorflow/lite/micro/kernels/pad.cc ****   TF_LITE_ENSURE(context, output != nullptr);
  60:../src/tensorflow_lite/tensorflow/lite/micro/kernels/pad.cc **** 
  61:../src/tensorflow_lite/tensorflow/lite/micro/kernels/pad.cc ****   TF_LITE_ENSURE_EQ(context, input->type, output->type);
  62:../src/tensorflow_lite/tensorflow/lite/micro/kernels/pad.cc **** 
  63:../src/tensorflow_lite/tensorflow/lite/micro/kernels/pad.cc ****   // Current implementations rely on the inputs being <= 4D.
  64:../src/tensorflow_lite/tensorflow/lite/micro/kernels/pad.cc ****   TF_LITE_ENSURE(context, NumDimensions(input) <=
  65:../src/tensorflow_lite/tensorflow/lite/micro/kernels/pad.cc ****                               reference_ops::PadKernelMaxDimensionCount());
  66:../src/tensorflow_lite/tensorflow/lite/micro/kernels/pad.cc **** 
  67:../src/tensorflow_lite/tensorflow/lite/micro/kernels/pad.cc ****   if (constant_values != nullptr) {
  68:../src/tensorflow_lite/tensorflow/lite/micro/kernels/pad.cc ****     TF_LITE_ENSURE_EQ(context, input->type, constant_values->type);
  69:../src/tensorflow_lite/tensorflow/lite/micro/kernels/pad.cc ****     // Ensure that constant_values is a scalar.
  70:../src/tensorflow_lite/tensorflow/lite/micro/kernels/pad.cc ****     TF_LITE_ENSURE_EQ(context, NumElements(constant_values), 1);
  71:../src/tensorflow_lite/tensorflow/lite/micro/kernels/pad.cc ****   }
  72:../src/tensorflow_lite/tensorflow/lite/micro/kernels/pad.cc **** 
  73:../src/tensorflow_lite/tensorflow/lite/micro/kernels/pad.cc ****   // There must be a pair of paddings for each output dimension.
  74:../src/tensorflow_lite/tensorflow/lite/micro/kernels/pad.cc ****   TF_LITE_ENSURE_EQ(context, GetTensorShape(paddings).FlatSize(),
  75:../src/tensorflow_lite/tensorflow/lite/micro/kernels/pad.cc ****                     output->dims->size * 2);
  76:../src/tensorflow_lite/tensorflow/lite/micro/kernels/pad.cc **** 
  77:../src/tensorflow_lite/tensorflow/lite/micro/kernels/pad.cc ****   // On Micro, outputs must be properly sized by the converter.
  78:../src/tensorflow_lite/tensorflow/lite/micro/kernels/pad.cc ****   // NOTE: This data is only available because the paddings buffer is stored in
  79:../src/tensorflow_lite/tensorflow/lite/micro/kernels/pad.cc ****   // the flatbuffer:
  80:../src/tensorflow_lite/tensorflow/lite/micro/kernels/pad.cc ****   TF_LITE_ENSURE(context, IsConstantTensor(paddings));
  81:../src/tensorflow_lite/tensorflow/lite/micro/kernels/pad.cc ****   const int32_t* paddings_data = GetTensorData<int32_t>(paddings);
  82:../src/tensorflow_lite/tensorflow/lite/micro/kernels/pad.cc ****   for (int i = 0; i < output->dims->size; i++) {
  83:../src/tensorflow_lite/tensorflow/lite/micro/kernels/pad.cc ****     int output_dim = output->dims->data[i];
  84:../src/tensorflow_lite/tensorflow/lite/micro/kernels/pad.cc ****     int expected_dim =
  85:../src/tensorflow_lite/tensorflow/lite/micro/kernels/pad.cc ****         input->dims->data[i] + paddings_data[i * 2] + paddings_data[i * 2 + 1];
  86:../src/tensorflow_lite/tensorflow/lite/micro/kernels/pad.cc ****     TF_LITE_ENSURE_EQ(context, output_dim, expected_dim);
  87:../src/tensorflow_lite/tensorflow/lite/micro/kernels/pad.cc ****   }
  88:../src/tensorflow_lite/tensorflow/lite/micro/kernels/pad.cc **** 
  89:../src/tensorflow_lite/tensorflow/lite/micro/kernels/pad.cc ****   // Calculate OpData:
  90:../src/tensorflow_lite/tensorflow/lite/micro/kernels/pad.cc ****   data->params.resizing_category = ResizingCategory::kGenericResize;
  91:../src/tensorflow_lite/tensorflow/lite/micro/kernels/pad.cc ****   const int paddings_total = GetTensorShape(paddings).FlatSize();
  92:../src/tensorflow_lite/tensorflow/lite/micro/kernels/pad.cc ****   if (paddings_total == 8 && (paddings_data[0] == 0 && paddings_data[1] == 0) &&
  93:../src/tensorflow_lite/tensorflow/lite/micro/kernels/pad.cc ****       (paddings_data[6] == 0 && paddings_data[7] == 0)) {
  94:../src/tensorflow_lite/tensorflow/lite/micro/kernels/pad.cc ****     data->params.resizing_category = ResizingCategory::kImageStyle;
  95:../src/tensorflow_lite/tensorflow/lite/micro/kernels/pad.cc ****   }
  96:../src/tensorflow_lite/tensorflow/lite/micro/kernels/pad.cc **** 
  97:../src/tensorflow_lite/tensorflow/lite/micro/kernels/pad.cc ****   const int num_input_dimensions = NumDimensions(input);
  98:../src/tensorflow_lite/tensorflow/lite/micro/kernels/pad.cc ****   data->params.left_padding_count = num_input_dimensions;
  99:../src/tensorflow_lite/tensorflow/lite/micro/kernels/pad.cc ****   data->params.right_padding_count = num_input_dimensions;
 100:../src/tensorflow_lite/tensorflow/lite/micro/kernels/pad.cc **** 
 101:../src/tensorflow_lite/tensorflow/lite/micro/kernels/pad.cc ****   for (int idx = num_input_dimensions - 1; idx >= 0; --idx) {
 102:../src/tensorflow_lite/tensorflow/lite/micro/kernels/pad.cc ****     data->params.left_padding[idx] = paddings_data[idx * 2];
 103:../src/tensorflow_lite/tensorflow/lite/micro/kernels/pad.cc ****     data->params.right_padding[idx] = paddings_data[idx * 2 + 1];
 104:../src/tensorflow_lite/tensorflow/lite/micro/kernels/pad.cc ****   }
 105:../src/tensorflow_lite/tensorflow/lite/micro/kernels/pad.cc **** 
 106:../src/tensorflow_lite/tensorflow/lite/micro/kernels/pad.cc ****   if (input->type == kTfLiteInt8 || input->type == kTfLiteUInt8) {
 107:../src/tensorflow_lite/tensorflow/lite/micro/kernels/pad.cc ****     if (constant_values == nullptr) {
 108:../src/tensorflow_lite/tensorflow/lite/micro/kernels/pad.cc ****       // Quantized Pad requires that 0 is represented in the quantized
 109:../src/tensorflow_lite/tensorflow/lite/micro/kernels/pad.cc ****       // range.
 110:../src/tensorflow_lite/tensorflow/lite/micro/kernels/pad.cc ****       if (input->type == kTfLiteUInt8) {
 111:../src/tensorflow_lite/tensorflow/lite/micro/kernels/pad.cc ****         TF_LITE_ENSURE(context, output->params.zero_point >=
 112:../src/tensorflow_lite/tensorflow/lite/micro/kernels/pad.cc ****                                     std::numeric_limits<uint8_t>::min());
 113:../src/tensorflow_lite/tensorflow/lite/micro/kernels/pad.cc ****         TF_LITE_ENSURE(context, output->params.zero_point <=
 114:../src/tensorflow_lite/tensorflow/lite/micro/kernels/pad.cc ****                                     std::numeric_limits<uint8_t>::max());
 115:../src/tensorflow_lite/tensorflow/lite/micro/kernels/pad.cc ****       } else {
 116:../src/tensorflow_lite/tensorflow/lite/micro/kernels/pad.cc ****         TF_LITE_ENSURE(context, output->params.zero_point >=
 117:../src/tensorflow_lite/tensorflow/lite/micro/kernels/pad.cc ****                                     std::numeric_limits<int8_t>::min());
 118:../src/tensorflow_lite/tensorflow/lite/micro/kernels/pad.cc ****         TF_LITE_ENSURE(context, output->params.zero_point <=
 119:../src/tensorflow_lite/tensorflow/lite/micro/kernels/pad.cc ****                                     std::numeric_limits<int8_t>::max());
 120:../src/tensorflow_lite/tensorflow/lite/micro/kernels/pad.cc ****       }
 121:../src/tensorflow_lite/tensorflow/lite/micro/kernels/pad.cc ****     } else {
 122:../src/tensorflow_lite/tensorflow/lite/micro/kernels/pad.cc ****       // Quantized Pad requires that 'constant_values' is represented in the
 123:../src/tensorflow_lite/tensorflow/lite/micro/kernels/pad.cc ****       // same quantized range as the input and output tensors.
 124:../src/tensorflow_lite/tensorflow/lite/micro/kernels/pad.cc ****       TF_LITE_ENSURE_EQ(context, output->params.zero_point,
 125:../src/tensorflow_lite/tensorflow/lite/micro/kernels/pad.cc ****                         constant_values->params.zero_point);
 126:../src/tensorflow_lite/tensorflow/lite/micro/kernels/pad.cc ****       TF_LITE_ENSURE_EQ(context, static_cast<double>(output->params.scale),
 127:../src/tensorflow_lite/tensorflow/lite/micro/kernels/pad.cc ****                         static_cast<double>(constant_values->params.scale));
 128:../src/tensorflow_lite/tensorflow/lite/micro/kernels/pad.cc ****     }
 129:../src/tensorflow_lite/tensorflow/lite/micro/kernels/pad.cc ****     data->output_zero_point = output->params.zero_point;
 130:../src/tensorflow_lite/tensorflow/lite/micro/kernels/pad.cc ****   }
 131:../src/tensorflow_lite/tensorflow/lite/micro/kernels/pad.cc **** 
 132:../src/tensorflow_lite/tensorflow/lite/micro/kernels/pad.cc ****   return kTfLiteOk;
 133:../src/tensorflow_lite/tensorflow/lite/micro/kernels/pad.cc **** }
 125              		.loc 1 133 0
 126 005c 84D08DE2 		add	sp, sp, #132
 127              		.cfi_remember_state
 128              		.cfi_def_cfa_offset 36
 129              		@ sp needed
 130 0060 F08FBDE8 		pop	{r4, r5, r6, r7, r8, r9, r10, fp, pc}
 131              	.LVL10:
 132              	.L179:
 133              		.cfi_restore_state
 134              	.LBB463:
 135              	.LBB464:
 153:C:/Renesas/e2studio_2021_01_workspace_RZA2M_ANPR/ANPR_RZA2M_GR_MANGO/src/tensorflow_lite/tensorflow/lite/kernels\kernel_util.h **** inline int NumOutputs(const TfLiteNode* node) { return node->outputs->size; }
 136              		.loc 2 153 0
 137 0064 043091E5 		ldr	r3, [r1, #4]
 138 0068 00A093E5 		ldr	r10, [r3]
 139              	.LBE464:
 140              	.LBE463:
  50:../src/tensorflow_lite/tensorflow/lite/micro/kernels/pad.cc ****   TF_LITE_ENSURE_EQ(context, NumOutputs(node), 1);
 141              		.loc 1 50 0
 142 006c 01005AE3 		cmp	r10, #1
 143 0070 1200000A 		beq	.L180
 144              	.LVL11:
  50:../src/tensorflow_lite/tensorflow/lite/micro/kernels/pad.cc ****   TF_LITE_ENSURE_EQ(context, NumOutputs(node), 1);
 145              		.loc 1 50 0 is_stmt 0 discriminator 1
 146 0074 00C000E3 		movw	ip, #:lower16:.LC3
 147 0078 003000E3 		movw	r3, #:lower16:.LC4
 148 007c 00C040E3 		movt	ip, #:upper16:.LC3
 149 0080 0140A0E3 		mov	r4, #1
 150 0084 003040E3 		movt	r3, #:upper16:.LC4
 151 0088 002000E3 		movw	r2, #:lower16:.LC1
 152 008c 001000E3 		movw	r1, #:lower16:.LC2
 153              	.LVL12:
 154 0090 08A08DE5 		str	r10, [sp, #8]
 155 0094 002040E3 		movt	r2, #:upper16:.LC1
 156 0098 145090E5 		ldr	r5, [r0, #20]
 157 009c 001040E3 		movt	r1, #:upper16:.LC2
 158 00a0 00308DE5 		str	r3, [sp]
 159 00a4 04C08DE5 		str	ip, [sp, #4]
 160 00a8 3230A0E3 		mov	r3, #50
 161 00ac 0C408DE5 		str	r4, [sp, #12]
 162 00b0 35FF2FE1 		blx	r5
 163              	.LVL13:
 164 00b4 0400A0E1 		mov	r0, r4
 165              		.loc 1 133 0 is_stmt 1 discriminator 1
 166 00b8 84D08DE2 		add	sp, sp, #132
 167              		.cfi_remember_state
 168              		.cfi_def_cfa_offset 36
 169              		@ sp needed
 170 00bc F08FBDE8 		pop	{r4, r5, r6, r7, r8, r9, r10, fp, pc}
 171              	.LVL14:
 172              	.L180:
 173              		.cfi_restore_state
  52:../src/tensorflow_lite/tensorflow/lite/micro/kernels/pad.cc ****   TF_LITE_ENSURE(context, input != nullptr);
 174              		.loc 1 52 0
 175 00c0 0020A0E3 		mov	r2, #0
 176 00c4 FEFFFFEB 		bl	_ZN6tflite8GetInputEPK13TfLiteContextPK10TfLiteNodei
 177              	.LVL15:
  53:../src/tensorflow_lite/tensorflow/lite/micro/kernels/pad.cc ****   const TfLiteTensor* paddings = GetInput(context, node, /*index=*/1);
 178              		.loc 1 53 0
 179 00c8 003050E2 		subs	r3, r0, #0
 180 00cc 1C308DE5 		str	r3, [sp, #28]
 181 00d0 1A02000A 		beq	.L181
  54:../src/tensorflow_lite/tensorflow/lite/micro/kernels/pad.cc ****   TF_LITE_ENSURE(context, paddings != nullptr);
 182              		.loc 1 54 0
 183 00d4 0A20A0E1 		mov	r2, r10
 184 00d8 0410A0E1 		mov	r1, r4
 185 00dc 18009DE5 		ldr	r0, [sp, #24]
 186              	.LVL16:
 187 00e0 FEFFFFEB 		bl	_ZN6tflite8GetInputEPK13TfLiteContextPK10TfLiteNodei
 188              	.LVL17:
  55:../src/tensorflow_lite/tensorflow/lite/micro/kernels/pad.cc ****   const TfLiteTensor* constant_values =
 189              		.loc 1 55 0
 190 00e4 003050E2 		subs	r3, r0, #0
 191 00e8 28308DE5 		str	r3, [sp, #40]
 192 00ec 2102000A 		beq	.L182
 193              	.LVL18:
 194              	.LBB465:
 195              	.LBB466:
 152:C:/Renesas/e2studio_2021_01_workspace_RZA2M_ANPR/ANPR_RZA2M_GR_MANGO/src/tensorflow_lite/tensorflow/lite/kernels\kernel_util.h **** inline int NumOutputs(const TfLiteNode* node) { return node->outputs->size; }
 196              		.loc 2 152 0
 197 00f0 003094E5 		ldr	r3, [r4]
 198              	.LBE466:
 199              	.LBE465:
  57:../src/tensorflow_lite/tensorflow/lite/micro/kernels/pad.cc ****   TfLiteTensor* output = GetOutput(context, node, /*index=*/0);
 200              		.loc 1 57 0
 201 00f4 003093E5 		ldr	r3, [r3]
 202 00f8 030053E3 		cmp	r3, #3
 203 00fc 0030A013 		movne	r3, #0
 204 0100 24308D15 		strne	r3, [sp, #36]
 205 0104 F901000A 		beq	.L183
 206              	.LVL19:
 207              	.L15:
  58:../src/tensorflow_lite/tensorflow/lite/micro/kernels/pad.cc ****   TF_LITE_ENSURE(context, output != nullptr);
 208              		.loc 1 58 0 discriminator 4
 209 0108 0410A0E1 		mov	r1, r4
 210 010c 0020A0E3 		mov	r2, #0
 211 0110 18009DE5 		ldr	r0, [sp, #24]
 212 0114 FEFFFFEB 		bl	_ZN6tflite9GetOutputEP13TfLiteContextPK10TfLiteNodei
 213              	.LVL20:
  59:../src/tensorflow_lite/tensorflow/lite/micro/kernels/pad.cc **** 
 214              		.loc 1 59 0 discriminator 4
 215 0118 003050E2 		subs	r3, r0, #0
 216 011c 20308DE5 		str	r3, [sp, #32]
 217 0120 2202000A 		beq	.L184
 218 0124 0320A0E1 		mov	r2, r3
  61:../src/tensorflow_lite/tensorflow/lite/micro/kernels/pad.cc **** 
 219              		.loc 1 61 0
 220 0128 1C309DE5 		ldr	r3, [sp, #28]
 221 012c 0000D2E5 		ldrb	r0, [r2]	@ zero_extendqisi2
 222              	.LVL21:
 223 0130 0030D3E5 		ldrb	r3, [r3]	@ zero_extendqisi2
 224 0134 000053E1 		cmp	r3, r0
 225 0138 D100001A 		bne	.L185
 226              	.LVL22:
 227              	.LBB467:
 228              	.LBB468:
 147:C:/Renesas/e2studio_2021_01_workspace_RZA2M_ANPR/ANPR_RZA2M_GR_MANGO/src/tensorflow_lite/tensorflow/lite/kernels\kernel_util.h **** inline int SizeOfDimension(const TfLiteTensor* t, int dim) {
 229              		.loc 2 147 0
 230 013c 1C209DE5 		ldr	r2, [sp, #28]
 231              	.LVL23:
 232 0140 082092E5 		ldr	r2, [r2, #8]
 233              	.LBE468:
 234              	.LBE467:
  64:../src/tensorflow_lite/tensorflow/lite/micro/kernels/pad.cc ****                               reference_ops::PadKernelMaxDimensionCount());
 235              		.loc 1 64 0
 236 0144 002092E5 		ldr	r2, [r2]
 237 0148 050052E3 		cmp	r2, #5
 238 014c ED0100CA 		bgt	.L186
  67:../src/tensorflow_lite/tensorflow/lite/micro/kernels/pad.cc ****     TF_LITE_ENSURE_EQ(context, input->type, constant_values->type);
 239              		.loc 1 67 0
 240 0150 24209DE5 		ldr	r2, [sp, #36]
 241 0154 000052E3 		cmp	r2, #0
 242 0158 DC00000A 		beq	.L19
  68:../src/tensorflow_lite/tensorflow/lite/micro/kernels/pad.cc ****     // Ensure that constant_values is a scalar.
 243              		.loc 1 68 0
 244 015c 0000D2E5 		ldrb	r0, [r2]	@ zero_extendqisi2
 245 0160 000053E1 		cmp	r3, r0
 246 0164 CE01001A 		bne	.L187
 247 0168 083092E5 		ldr	r3, [r2, #8]
 248 016c 0320A0E1 		mov	r2, r3
 249 0170 30308DE5 		str	r3, [sp, #48]
 250              	.LVL24:
 251              	.LBB469:
 252              	.LBB470:
 253              	.LBB471:
 254              	.LBB472:
 154:C:/Renesas/e2studio_2021_01_workspace_RZA2M_ANPR/ANPR_RZA2M_GR_MANGO/src/tensorflow_lite/tensorflow/lite/kernels\kernel_util.h **** 
 155:C:/Renesas/e2studio_2021_01_workspace_RZA2M_ANPR/ANPR_RZA2M_GR_MANGO/src/tensorflow_lite/tensorflow/lite/kernels\kernel_util.h **** #ifndef TF_LITE_STATIC_MEMORY
 156:C:/Renesas/e2studio_2021_01_workspace_RZA2M_ANPR/ANPR_RZA2M_GR_MANGO/src/tensorflow_lite/tensorflow/lite/kernels\kernel_util.h **** inline int NumIntermediates(const TfLiteNode* node) {
 157:C:/Renesas/e2studio_2021_01_workspace_RZA2M_ANPR/ANPR_RZA2M_GR_MANGO/src/tensorflow_lite/tensorflow/lite/kernels\kernel_util.h ****   return node->intermediates->size;
 158:C:/Renesas/e2studio_2021_01_workspace_RZA2M_ANPR/ANPR_RZA2M_GR_MANGO/src/tensorflow_lite/tensorflow/lite/kernels\kernel_util.h **** }
 159:C:/Renesas/e2studio_2021_01_workspace_RZA2M_ANPR/ANPR_RZA2M_GR_MANGO/src/tensorflow_lite/tensorflow/lite/kernels\kernel_util.h **** #endif  // TF_LITE_STATIC_MEMORY
 160:C:/Renesas/e2studio_2021_01_workspace_RZA2M_ANPR/ANPR_RZA2M_GR_MANGO/src/tensorflow_lite/tensorflow/lite/kernels\kernel_util.h **** 
 161:C:/Renesas/e2studio_2021_01_workspace_RZA2M_ANPR/ANPR_RZA2M_GR_MANGO/src/tensorflow_lite/tensorflow/lite/kernels\kernel_util.h **** inline int64_t NumElements(const TfLiteIntArray* dims) {
 162:C:/Renesas/e2studio_2021_01_workspace_RZA2M_ANPR/ANPR_RZA2M_GR_MANGO/src/tensorflow_lite/tensorflow/lite/kernels\kernel_util.h ****   int64_t count = 1;
 163:C:/Renesas/e2studio_2021_01_workspace_RZA2M_ANPR/ANPR_RZA2M_GR_MANGO/src/tensorflow_lite/tensorflow/lite/kernels\kernel_util.h ****   for (int i = 0; i < dims->size; ++i) {
 255              		.loc 2 163 0
 256 0174 003093E5 		ldr	r3, [r3]
 257 0178 000053E3 		cmp	r3, #0
 258 017c 2C308DE5 		str	r3, [sp, #44]
 259 0180 D20000DA 		ble	.L19
 260 0184 080053E3 		cmp	r3, #8
 261 0188 F90200DA 		ble	.L103
 262 018c 093043E2 		sub	r3, r3, #9
 263 0190 A4E082E2 		add	lr, r2, #164
 264 0194 0730C3E3 		bic	r3, r3, #7
 265 0198 0020A0E3 		mov	r2, #0
 266              	.LVL25:
 267 019c 083083E2 		add	r3, r3, #8
 268 01a0 34B08DE5 		str	fp, [sp, #52]
 269 01a4 0100A0E3 		mov	r0, #1
 270 01a8 0AB0A0E1 		mov	fp, r10
 271              	.LVL26:
 272 01ac 0010A0E3 		mov	r1, #0
 273 01b0 02C0A0E1 		mov	ip, r2
 274 01b4 03A0A0E1 		mov	r10, r3
 275              	.LVL27:
 276              	.L22:
 164:C:/Renesas/e2studio_2021_01_workspace_RZA2M_ANPR/ANPR_RZA2M_GR_MANGO/src/tensorflow_lite/tensorflow/lite/kernels\kernel_util.h ****     count *= dims->data[i];
 277              		.loc 2 164 0
 278 01b8 A0201EE5 		ldr	r2, [lr, #-160]
 279 01bc 08C08CE2 		add	ip, ip, #8
 280 01c0 9C901EE5 		ldr	r9, [lr, #-156]
 281 01c4 0A005CE1 		cmp	ip, r10
 282 01c8 98401EE5 		ldr	r4, [lr, #-152]
 283 01cc 94501EE5 		ldr	r5, [lr, #-148]
 284 01d0 920101E0 		mul	r1, r2, r1
 285 01d4 C27FA0E1 		asr	r7, r2, #31
 286 01d8 90801EE5 		ldr	r8, [lr, #-144]
 287 01dc 922083E0 		umull	r2, r3, r2, r0
 288 01e0 00F0DEF5 		pld	[lr]
 289 01e4 20E08EE2 		add	lr, lr, #32
 290 01e8 901721E0 		mla	r1, r0, r7, r1
 291 01ec C97FA0E1 		asr	r7, r9, #31
 292 01f0 033081E0 		add	r3, r1, r3
 293              	.LVL28:
 294 01f4 990281E0 		umull	r0, r1, r9, r2
 295 01f8 990306E0 		mul	r6, r9, r3
 296 01fc C43FA0E1 		asr	r3, r4, #31
 297 0200 926726E0 		mla	r6, r2, r7, r6
 298 0204 AC201EE5 		ldr	r2, [lr, #-172]
 299              	.LVL29:
 300 0208 C57FA0E1 		asr	r7, r5, #31
 301 020c 011086E0 		add	r1, r6, r1
 302              	.LVL30:
 303 0210 940109E0 		mul	r9, r4, r1
 304 0214 909329E0 		mla	r9, r0, r3, r9
 305 0218 A8301EE5 		ldr	r3, [lr, #-168]
 306 021c 940081E0 		umull	r0, r1, r4, r0
 307              	.LVL31:
 308 0220 011089E0 		add	r1, r9, r1
 309              	.LVL32:
 310 0224 C39FA0E1 		asr	r9, r3, #31
 311 0228 950106E0 		mul	r6, r5, r1
 312 022c C81FA0E1 		asr	r1, r8, #31
 313 0230 954085E0 		umull	r4, r5, r5, r0
 314 0234 906726E0 		mla	r6, r0, r7, r6
 315 0238 A4001EE5 		ldr	r0, [lr, #-164]
 316              	.LVL33:
 317 023c C27FA0E1 		asr	r7, r2, #31
 318 0240 055086E0 		add	r5, r6, r5
 319              	.LVL34:
 320 0244 980505E0 		mul	r5, r8, r5
 321 0248 945121E0 		mla	r1, r4, r1, r5
 322 024c 984485E0 		umull	r4, r5, r8, r4
 323              	.LVL35:
 324 0250 0380A0E1 		mov	r8, r3
 325 0254 055081E0 		add	r5, r1, r5
 326              	.LVL36:
 327 0258 920501E0 		mul	r1, r2, r5
 328 025c 941721E0 		mla	r1, r4, r7, r1
 329 0260 924485E0 		umull	r4, r5, r2, r4
 330              	.LVL37:
 331 0264 C07FA0E1 		asr	r7, r0, #31
 332 0268 055081E0 		add	r5, r1, r5
 333              	.LVL38:
 334 026c 930502E0 		mul	r2, r3, r5
 335 0270 942922E0 		mla	r2, r4, r9, r2
 336 0274 934485E0 		umull	r4, r5, r3, r4
 337              	.LVL39:
 338 0278 055082E0 		add	r5, r2, r5
 339              	.LVL40:
 340 027c 900503E0 		mul	r3, r0, r5
 341 0280 900481E0 		umull	r0, r1, r0, r4
 342 0284 943724E0 		mla	r4, r4, r7, r3
 343              	.LVL41:
 344 0288 011084E0 		add	r1, r4, r1
 345              	.LVL42:
 346 028c C9FFFF1A 		bne	.L22
 347 0290 0BA0A0E1 		mov	r10, fp
 348 0294 34B09DE5 		ldr	fp, [sp, #52]
 349 0298 0C30A0E1 		mov	r3, ip
 350              	.LVL43:
 351              	.L21:
 352 029c 01C083E2 		add	ip, r3, #1
 353 02a0 30309DE5 		ldr	r3, [sp, #48]
 354 02a4 2CE09DE5 		ldr	lr, [sp, #44]
 355 02a8 0C4183E0 		add	r4, r3, ip, lsl #2
 356 02ac 000000EA 		b	.L24
 357              	.LVL44:
 358              	.L188:
 359 02b0 01C08CE2 		add	ip, ip, #1
 360              	.LVL45:
 361              	.L24:
 362 02b4 042094E4 		ldr	r2, [r4], #4
 163:C:/Renesas/e2studio_2021_01_workspace_RZA2M_ANPR/ANPR_RZA2M_GR_MANGO/src/tensorflow_lite/tensorflow/lite/kernels\kernel_util.h ****     count *= dims->data[i];
 363              		.loc 2 163 0
 364 02b8 0C005EE1 		cmp	lr, ip
 365              		.loc 2 164 0
 366 02bc 0260A0E1 		mov	r6, r2
 367 02c0 C27FA0E1 		asr	r7, r2, #31
 368 02c4 900703E0 		mul	r3, r0, r7
 369 02c8 923123E0 		mla	r3, r2, r1, r3
 370 02cc 900281E0 		umull	r0, r1, r0, r2
 371              	.LVL46:
 372 02d0 011083E0 		add	r1, r3, r1
 373              	.LVL47:
 163:C:/Renesas/e2studio_2021_01_workspace_RZA2M_ANPR/ANPR_RZA2M_GR_MANGO/src/tensorflow_lite/tensorflow/lite/kernels\kernel_util.h ****     count *= dims->data[i];
 374              		.loc 2 163 0
 375 02d4 F5FFFFCA 		bgt	.L188
 376              	.LVL48:
 377              	.LBE472:
 378              	.LBE471:
 379              	.LBE470:
 380              	.LBE469:
  70:../src/tensorflow_lite/tensorflow/lite/micro/kernels/pad.cc ****   }
 381              		.loc 1 70 0
 382 02d8 000051E3 		cmp	r1, #0
 383 02dc 01005003 		cmpeq	r0, #1
 384 02e0 7A00000A 		beq	.L19
 385 02e4 2C309DE5 		ldr	r3, [sp, #44]
 386 02e8 080053E3 		cmp	r3, #8
 387 02ec 18309DE5 		ldr	r3, [sp, #24]
 388 02f0 01A0A0D3 		movle	r10, #1
 389 02f4 00B0A0D3 		movle	fp, #0
 390 02f8 0080A0D3 		movle	r8, #0
 391 02fc 143093E5 		ldr	r3, [r3, #20]
 392 0300 1C308DE5 		str	r3, [sp, #28]
 393              	.LVL49:
 394 0304 3E0000DA 		ble	.L28
 395 0308 2C309DE5 		ldr	r3, [sp, #44]
 396 030c 01A0A0E3 		mov	r10, #1
 397 0310 30209DE5 		ldr	r2, [sp, #48]
 398 0314 00B0A0E3 		mov	fp, #0
 399 0318 0080A0E3 		mov	r8, #0
 400 031c 093043E2 		sub	r3, r3, #9
 401 0320 0730C3E3 		bic	r3, r3, #7
 402 0324 A4E082E2 		add	lr, r2, #164
 403 0328 083083E2 		add	r3, r3, #8
 404 032c 0390A0E1 		mov	r9, r3
 405              	.LVL50:
 406              	.L27:
 407              	.LBB476:
 408              	.LBB477:
 409              	.LBB478:
 410              	.LBB479:
 411              		.loc 2 164 0
 412 0330 A0601EE5 		ldr	r6, [lr, #-160]
 413 0334 088088E2 		add	r8, r8, #8
 414 0338 9CC01EE5 		ldr	ip, [lr, #-156]
 415 033c 090058E1 		cmp	r8, r9
 416 0340 98401EE5 		ldr	r4, [lr, #-152]
 417 0344 00F0DEF5 		pld	[lr]
 418 0348 20E08EE2 		add	lr, lr, #32
 419 034c 960B00E0 		mul	r0, r6, fp
 420 0350 C61FA0E1 		asr	r1, r6, #31
 421 0354 CC7FA0E1 		asr	r7, ip, #31
 422 0358 962A83E0 		umull	r2, r3, r6, r10
 423 035c 9A012AE0 		mla	r10, r10, r1, r0
 424              	.LVL51:
 425 0360 B4001EE5 		ldr	r0, [lr, #-180]
 426 0364 B0101EE5 		ldr	r1, [lr, #-176]
 427 0368 03308AE0 		add	r3, r10, r3
 428              	.LVL52:
 429 036c A4A01EE5 		ldr	r10, [lr, #-164]
 430 0370 9C0305E0 		mul	r5, ip, r3
 431 0374 C43FA0E1 		asr	r3, r4, #31
 432 0378 925725E0 		mla	r5, r2, r7, r5
 433 037c 9C6287E0 		umull	r6, r7, ip, r2
 434 0380 AC201EE5 		ldr	r2, [lr, #-172]
 435              	.LVL53:
 436 0384 077085E0 		add	r7, r5, r7
 437              	.LVL54:
 438 0388 94070CE0 		mul	ip, r4, r7
 439 038c C07FA0E1 		asr	r7, r0, #31
 440 0390 944685E0 		umull	r4, r5, r4, r6
 441 0394 96C32CE0 		mla	ip, r6, r3, ip
 442 0398 A8301EE5 		ldr	r3, [lr, #-168]
 443 039c 05508CE0 		add	r5, ip, r5
 444              	.LVL55:
 445 03a0 90050CE0 		mul	ip, r0, r5
 446 03a4 94C72CE0 		mla	ip, r4, r7, ip
 447 03a8 904485E0 		umull	r4, r5, r0, r4
 448              	.LVL56:
 449 03ac C17FA0E1 		asr	r7, r1, #31
 450 03b0 05508CE0 		add	r5, ip, r5
 451              	.LVL57:
 452 03b4 91050CE0 		mul	ip, r1, r5
 453 03b8 C25FA0E1 		asr	r5, r2, #31
 454 03bc 910481E0 		umull	r0, r1, r1, r4
 455 03c0 94C72CE0 		mla	ip, r4, r7, ip
 456 03c4 C37FA0E1 		asr	r7, r3, #31
 457 03c8 01108CE0 		add	r1, ip, r1
 458              	.LVL58:
 459 03cc 92010CE0 		mul	ip, r2, r1
 460 03d0 90C52CE0 		mla	ip, r0, r5, ip
 461 03d4 920081E0 		umull	r0, r1, r2, r0
 462              	.LVL59:
 463 03d8 CA5FA0E1 		asr	r5, r10, #31
 464 03dc 01108CE0 		add	r1, ip, r1
 465              	.LVL60:
 466 03e0 930102E0 		mul	r2, r3, r1
 467 03e4 902722E0 		mla	r2, r0, r7, r2
 468 03e8 930081E0 		umull	r0, r1, r3, r0
 469              	.LVL61:
 470 03ec 011082E0 		add	r1, r2, r1
 471              	.LVL62:
 472 03f0 9A0103E0 		mul	r3, r10, r1
 473 03f4 9AA08BE0 		umull	r10, fp, r10, r0
 474 03f8 903520E0 		mla	r0, r0, r5, r3
 475              	.LVL63:
 476 03fc 0BB080E0 		add	fp, r0, fp
 477              	.LVL64:
 478 0400 CAFFFF1A 		bne	.L27
 479              	.LVL65:
 480              	.L28:
 481 0404 30309DE5 		ldr	r3, [sp, #48]
 482 0408 018088E2 		add	r8, r8, #1
 483 040c 2CE09DE5 		ldr	lr, [sp, #44]
 484 0410 08C183E0 		add	ip, r3, r8, lsl #2
 485 0414 000000EA 		b	.L26
 486              	.LVL66:
 487              	.L189:
 488 0418 018088E2 		add	r8, r8, #1
 489              	.LVL67:
 490              	.L26:
 491 041c 04209CE4 		ldr	r2, [ip], #4
 163:C:/Renesas/e2studio_2021_01_workspace_RZA2M_ANPR/ANPR_RZA2M_GR_MANGO/src/tensorflow_lite/tensorflow/lite/kernels\kernel_util.h ****     count *= dims->data[i];
 492              		.loc 2 163 0
 493 0420 08005EE1 		cmp	lr, r8
 494              		.loc 2 164 0
 495 0424 C21FA0E1 		asr	r1, r2, #31
 496 0428 9A0103E0 		mul	r3, r10, r1
 497 042c 923B23E0 		mla	r3, r2, fp, r3
 498 0430 9AA28BE0 		umull	r10, fp, r10, r2
 499              	.LVL68:
 500 0434 0BB083E0 		add	fp, r3, fp
 501              	.LVL69:
 163:C:/Renesas/e2studio_2021_01_workspace_RZA2M_ANPR/ANPR_RZA2M_GR_MANGO/src/tensorflow_lite/tensorflow/lite/kernels\kernel_util.h ****     count *= dims->data[i];
 502              		.loc 2 163 0
 503 0438 F6FFFFCA 		bgt	.L189
 504              	.LVL70:
 505              	.LBE479:
 506              	.LBE478:
 507              	.LBE477:
 508              	.LBE476:
  70:../src/tensorflow_lite/tensorflow/lite/micro/kernels/pad.cc ****   }
 509              		.loc 1 70 0
 510 043c 00C000E3 		movw	ip, #:lower16:.LC3
 511 0440 003000E3 		movw	r3, #:lower16:.LC13
 512 0444 00C040E3 		movt	ip, #:upper16:.LC3
 513 0448 003040E3 		movt	r3, #:upper16:.LC13
 514 044c 0140A0E3 		mov	r4, #1
 515 0450 002000E3 		movw	r2, #:lower16:.LC1
 516 0454 001000E3 		movw	r1, #:lower16:.LC2
 517 0458 08108DE8 		stm	sp, {r3, ip}
 518 045c 18009DE5 		ldr	r0, [sp, #24]
 519 0460 002040E3 		movt	r2, #:upper16:.LC1
 520 0464 F8A0CDE1 		strd	r10, [sp, #8]
 521 0468 001040E3 		movt	r1, #:upper16:.LC2
 522 046c 10408DE5 		str	r4, [sp, #16]
 523 0470 4630A0E3 		mov	r3, #70
 524 0474 1CC09DE5 		ldr	ip, [sp, #28]
 525 0478 3CFF2FE1 		blx	ip
 526              	.LVL71:
 527 047c 0400A0E1 		mov	r0, r4
 528 0480 F5FEFFEA 		b	.L169
 529              	.LVL72:
 530              	.L185:
  61:../src/tensorflow_lite/tensorflow/lite/micro/kernels/pad.cc **** 
 531              		.loc 1 61 0 discriminator 1
 532 0484 00E000E3 		movw	lr, #:lower16:.LC9
 533 0488 00C000E3 		movw	ip, #:lower16:.LC10
 534 048c 00E040E3 		movt	lr, #:upper16:.LC9
 535 0490 00C040E3 		movt	ip, #:upper16:.LC10
 536 0494 04E08DE5 		str	lr, [sp, #4]
 537 0498 002000E3 		movw	r2, #:lower16:.LC1
 538              	.LVL73:
 539 049c 18E09DE5 		ldr	lr, [sp, #24]
 540 04a0 001000E3 		movw	r1, #:lower16:.LC2
 541 04a4 0C008DE5 		str	r0, [sp, #12]
 542 04a8 002040E3 		movt	r2, #:upper16:.LC1
 543 04ac 08308DE5 		str	r3, [sp, #8]
 544 04b0 001040E3 		movt	r1, #:upper16:.LC2
 545 04b4 0E00A0E1 		mov	r0, lr
 546 04b8 00C08DE5 		str	ip, [sp]
 547 04bc 3D30A0E3 		mov	r3, #61
 548 04c0 14409EE5 		ldr	r4, [lr, #20]
 549              	.LVL74:
 550 04c4 34FF2FE1 		blx	r4
 551              	.LVL75:
 552 04c8 0100A0E3 		mov	r0, #1
 553 04cc E2FEFFEA 		b	.L169
 554              	.LVL76:
 555              	.L19:
 556              	.LBB480:
 557              	.LBB481:
 558              		.file 3 "C:/Renesas/e2studio_2021_01_workspace_RZA2M_ANPR/ANPR_RZA2M_GR_MANGO/src/tensorflow_lite/
   1:C:/Renesas/e2studio_2021_01_workspace_RZA2M_ANPR/ANPR_RZA2M_GR_MANGO/src/tensorflow_lite/tensorflow/lite/kernels/internal\tensor_ctypes.h **** /* Copyright 2017 The TensorFlow Authors. All Rights Reserved.
   2:C:/Renesas/e2studio_2021_01_workspace_RZA2M_ANPR/ANPR_RZA2M_GR_MANGO/src/tensorflow_lite/tensorflow/lite/kernels/internal\tensor_ctypes.h **** 
   3:C:/Renesas/e2studio_2021_01_workspace_RZA2M_ANPR/ANPR_RZA2M_GR_MANGO/src/tensorflow_lite/tensorflow/lite/kernels/internal\tensor_ctypes.h **** Licensed under the Apache License, Version 2.0 (the "License");
   4:C:/Renesas/e2studio_2021_01_workspace_RZA2M_ANPR/ANPR_RZA2M_GR_MANGO/src/tensorflow_lite/tensorflow/lite/kernels/internal\tensor_ctypes.h **** you may not use this file except in compliance with the License.
   5:C:/Renesas/e2studio_2021_01_workspace_RZA2M_ANPR/ANPR_RZA2M_GR_MANGO/src/tensorflow_lite/tensorflow/lite/kernels/internal\tensor_ctypes.h **** You may obtain a copy of the License at
   6:C:/Renesas/e2studio_2021_01_workspace_RZA2M_ANPR/ANPR_RZA2M_GR_MANGO/src/tensorflow_lite/tensorflow/lite/kernels/internal\tensor_ctypes.h **** 
   7:C:/Renesas/e2studio_2021_01_workspace_RZA2M_ANPR/ANPR_RZA2M_GR_MANGO/src/tensorflow_lite/tensorflow/lite/kernels/internal\tensor_ctypes.h ****     http://www.apache.org/licenses/LICENSE-2.0
   8:C:/Renesas/e2studio_2021_01_workspace_RZA2M_ANPR/ANPR_RZA2M_GR_MANGO/src/tensorflow_lite/tensorflow/lite/kernels/internal\tensor_ctypes.h **** 
   9:C:/Renesas/e2studio_2021_01_workspace_RZA2M_ANPR/ANPR_RZA2M_GR_MANGO/src/tensorflow_lite/tensorflow/lite/kernels/internal\tensor_ctypes.h **** Unless required by applicable law or agreed to in writing, software
  10:C:/Renesas/e2studio_2021_01_workspace_RZA2M_ANPR/ANPR_RZA2M_GR_MANGO/src/tensorflow_lite/tensorflow/lite/kernels/internal\tensor_ctypes.h **** distributed under the License is distributed on an "AS IS" BASIS,
  11:C:/Renesas/e2studio_2021_01_workspace_RZA2M_ANPR/ANPR_RZA2M_GR_MANGO/src/tensorflow_lite/tensorflow/lite/kernels/internal\tensor_ctypes.h **** WITHOUT WARRANTIES OR CONDITIONS OF ANY KIND, either express or implied.
  12:C:/Renesas/e2studio_2021_01_workspace_RZA2M_ANPR/ANPR_RZA2M_GR_MANGO/src/tensorflow_lite/tensorflow/lite/kernels/internal\tensor_ctypes.h **** See the License for the specific language governing permissions and
  13:C:/Renesas/e2studio_2021_01_workspace_RZA2M_ANPR/ANPR_RZA2M_GR_MANGO/src/tensorflow_lite/tensorflow/lite/kernels/internal\tensor_ctypes.h **** limitations under the License.
  14:C:/Renesas/e2studio_2021_01_workspace_RZA2M_ANPR/ANPR_RZA2M_GR_MANGO/src/tensorflow_lite/tensorflow/lite/kernels/internal\tensor_ctypes.h **** ==============================================================================*/
  15:C:/Renesas/e2studio_2021_01_workspace_RZA2M_ANPR/ANPR_RZA2M_GR_MANGO/src/tensorflow_lite/tensorflow/lite/kernels/internal\tensor_ctypes.h **** #ifndef TENSORFLOW_LITE_KERNELS_INTERNAL_TENSOR_CTYPES_H_
  16:C:/Renesas/e2studio_2021_01_workspace_RZA2M_ANPR/ANPR_RZA2M_GR_MANGO/src/tensorflow_lite/tensorflow/lite/kernels/internal\tensor_ctypes.h **** #define TENSORFLOW_LITE_KERNELS_INTERNAL_TENSOR_CTYPES_H_
  17:C:/Renesas/e2studio_2021_01_workspace_RZA2M_ANPR/ANPR_RZA2M_GR_MANGO/src/tensorflow_lite/tensorflow/lite/kernels/internal\tensor_ctypes.h **** 
  18:C:/Renesas/e2studio_2021_01_workspace_RZA2M_ANPR/ANPR_RZA2M_GR_MANGO/src/tensorflow_lite/tensorflow/lite/kernels/internal\tensor_ctypes.h **** #include "tensorflow/lite/c/common.h"
  19:C:/Renesas/e2studio_2021_01_workspace_RZA2M_ANPR/ANPR_RZA2M_GR_MANGO/src/tensorflow_lite/tensorflow/lite/kernels/internal\tensor_ctypes.h **** #include "tensorflow/lite/kernels/internal/types.h"
  20:C:/Renesas/e2studio_2021_01_workspace_RZA2M_ANPR/ANPR_RZA2M_GR_MANGO/src/tensorflow_lite/tensorflow/lite/kernels/internal\tensor_ctypes.h **** 
  21:C:/Renesas/e2studio_2021_01_workspace_RZA2M_ANPR/ANPR_RZA2M_GR_MANGO/src/tensorflow_lite/tensorflow/lite/kernels/internal\tensor_ctypes.h **** namespace tflite {
  22:C:/Renesas/e2studio_2021_01_workspace_RZA2M_ANPR/ANPR_RZA2M_GR_MANGO/src/tensorflow_lite/tensorflow/lite/kernels/internal\tensor_ctypes.h **** 
  23:C:/Renesas/e2studio_2021_01_workspace_RZA2M_ANPR/ANPR_RZA2M_GR_MANGO/src/tensorflow_lite/tensorflow/lite/kernels/internal\tensor_ctypes.h **** template <typename T>
  24:C:/Renesas/e2studio_2021_01_workspace_RZA2M_ANPR/ANPR_RZA2M_GR_MANGO/src/tensorflow_lite/tensorflow/lite/kernels/internal\tensor_ctypes.h **** inline T* GetTensorData(TfLiteTensor* tensor) {
  25:C:/Renesas/e2studio_2021_01_workspace_RZA2M_ANPR/ANPR_RZA2M_GR_MANGO/src/tensorflow_lite/tensorflow/lite/kernels/internal\tensor_ctypes.h ****   return tensor != nullptr ? reinterpret_cast<T*>(tensor->data.raw) : nullptr;
  26:C:/Renesas/e2studio_2021_01_workspace_RZA2M_ANPR/ANPR_RZA2M_GR_MANGO/src/tensorflow_lite/tensorflow/lite/kernels/internal\tensor_ctypes.h **** }
  27:C:/Renesas/e2studio_2021_01_workspace_RZA2M_ANPR/ANPR_RZA2M_GR_MANGO/src/tensorflow_lite/tensorflow/lite/kernels/internal\tensor_ctypes.h **** 
  28:C:/Renesas/e2studio_2021_01_workspace_RZA2M_ANPR/ANPR_RZA2M_GR_MANGO/src/tensorflow_lite/tensorflow/lite/kernels/internal\tensor_ctypes.h **** template <typename T>
  29:C:/Renesas/e2studio_2021_01_workspace_RZA2M_ANPR/ANPR_RZA2M_GR_MANGO/src/tensorflow_lite/tensorflow/lite/kernels/internal\tensor_ctypes.h **** inline const T* GetTensorData(const TfLiteTensor* tensor) {
  30:C:/Renesas/e2studio_2021_01_workspace_RZA2M_ANPR/ANPR_RZA2M_GR_MANGO/src/tensorflow_lite/tensorflow/lite/kernels/internal\tensor_ctypes.h ****   return tensor != nullptr ? reinterpret_cast<const T*>(tensor->data.raw)
  31:C:/Renesas/e2studio_2021_01_workspace_RZA2M_ANPR/ANPR_RZA2M_GR_MANGO/src/tensorflow_lite/tensorflow/lite/kernels/internal\tensor_ctypes.h ****                            : nullptr;
  32:C:/Renesas/e2studio_2021_01_workspace_RZA2M_ANPR/ANPR_RZA2M_GR_MANGO/src/tensorflow_lite/tensorflow/lite/kernels/internal\tensor_ctypes.h **** }
  33:C:/Renesas/e2studio_2021_01_workspace_RZA2M_ANPR/ANPR_RZA2M_GR_MANGO/src/tensorflow_lite/tensorflow/lite/kernels/internal\tensor_ctypes.h **** 
  34:C:/Renesas/e2studio_2021_01_workspace_RZA2M_ANPR/ANPR_RZA2M_GR_MANGO/src/tensorflow_lite/tensorflow/lite/kernels/internal\tensor_ctypes.h **** inline RuntimeShape GetTensorShape(const TfLiteTensor* tensor) {
  35:C:/Renesas/e2studio_2021_01_workspace_RZA2M_ANPR/ANPR_RZA2M_GR_MANGO/src/tensorflow_lite/tensorflow/lite/kernels/internal\tensor_ctypes.h ****   if (tensor == nullptr) {
  36:C:/Renesas/e2studio_2021_01_workspace_RZA2M_ANPR/ANPR_RZA2M_GR_MANGO/src/tensorflow_lite/tensorflow/lite/kernels/internal\tensor_ctypes.h ****     return RuntimeShape();
  37:C:/Renesas/e2studio_2021_01_workspace_RZA2M_ANPR/ANPR_RZA2M_GR_MANGO/src/tensorflow_lite/tensorflow/lite/kernels/internal\tensor_ctypes.h ****   }
  38:C:/Renesas/e2studio_2021_01_workspace_RZA2M_ANPR/ANPR_RZA2M_GR_MANGO/src/tensorflow_lite/tensorflow/lite/kernels/internal\tensor_ctypes.h **** 
  39:C:/Renesas/e2studio_2021_01_workspace_RZA2M_ANPR/ANPR_RZA2M_GR_MANGO/src/tensorflow_lite/tensorflow/lite/kernels/internal\tensor_ctypes.h ****   TfLiteIntArray* dims = tensor->dims;
 559              		.loc 3 39 0
 560 04d0 28309DE5 		ldr	r3, [sp, #40]
 561 04d4 085093E5 		ldr	r5, [r3, #8]
 562              	.LVL77:
  40:C:/Renesas/e2studio_2021_01_workspace_RZA2M_ANPR/ANPR_RZA2M_GR_MANGO/src/tensorflow_lite/tensorflow/lite/kernels/internal\tensor_ctypes.h ****   const int dims_size = dims->size;
 563              		.loc 3 40 0
 564 04d8 002095E5 		ldr	r2, [r5]
 565              	.LVL78:
 566              	.LBB482:
 567              	.LBB483:
 568              	.LBB484:
 569              	.LBB485:
 570              	.LBB486:
 571              		.file 4 "C:/Renesas/e2studio_2021_01_workspace_RZA2M_ANPR/ANPR_RZA2M_GR_MANGO/src/tensorflow_lite/
   1:C:/Renesas/e2studio_2021_01_workspace_RZA2M_ANPR/ANPR_RZA2M_GR_MANGO/src/tensorflow_lite/tensorflow/lite/kernels/internal\types.h **** /* Copyright 2018 The TensorFlow Authors. All Rights Reserved.
   2:C:/Renesas/e2studio_2021_01_workspace_RZA2M_ANPR/ANPR_RZA2M_GR_MANGO/src/tensorflow_lite/tensorflow/lite/kernels/internal\types.h **** 
   3:C:/Renesas/e2studio_2021_01_workspace_RZA2M_ANPR/ANPR_RZA2M_GR_MANGO/src/tensorflow_lite/tensorflow/lite/kernels/internal\types.h **** Licensed under the Apache License, Version 2.0 (the "License");
   4:C:/Renesas/e2studio_2021_01_workspace_RZA2M_ANPR/ANPR_RZA2M_GR_MANGO/src/tensorflow_lite/tensorflow/lite/kernels/internal\types.h **** you may not use this file except in compliance with the License.
   5:C:/Renesas/e2studio_2021_01_workspace_RZA2M_ANPR/ANPR_RZA2M_GR_MANGO/src/tensorflow_lite/tensorflow/lite/kernels/internal\types.h **** You may obtain a copy of the License at
   6:C:/Renesas/e2studio_2021_01_workspace_RZA2M_ANPR/ANPR_RZA2M_GR_MANGO/src/tensorflow_lite/tensorflow/lite/kernels/internal\types.h **** 
   7:C:/Renesas/e2studio_2021_01_workspace_RZA2M_ANPR/ANPR_RZA2M_GR_MANGO/src/tensorflow_lite/tensorflow/lite/kernels/internal\types.h ****     http://www.apache.org/licenses/LICENSE-2.0
   8:C:/Renesas/e2studio_2021_01_workspace_RZA2M_ANPR/ANPR_RZA2M_GR_MANGO/src/tensorflow_lite/tensorflow/lite/kernels/internal\types.h **** 
   9:C:/Renesas/e2studio_2021_01_workspace_RZA2M_ANPR/ANPR_RZA2M_GR_MANGO/src/tensorflow_lite/tensorflow/lite/kernels/internal\types.h **** Unless required by applicable law or agreed to in writing, software
  10:C:/Renesas/e2studio_2021_01_workspace_RZA2M_ANPR/ANPR_RZA2M_GR_MANGO/src/tensorflow_lite/tensorflow/lite/kernels/internal\types.h **** distributed under the License is distributed on an "AS IS" BASIS,
  11:C:/Renesas/e2studio_2021_01_workspace_RZA2M_ANPR/ANPR_RZA2M_GR_MANGO/src/tensorflow_lite/tensorflow/lite/kernels/internal\types.h **** WITHOUT WARRANTIES OR CONDITIONS OF ANY KIND, either express or implied.
  12:C:/Renesas/e2studio_2021_01_workspace_RZA2M_ANPR/ANPR_RZA2M_GR_MANGO/src/tensorflow_lite/tensorflow/lite/kernels/internal\types.h **** See the License for the specific language governing permissions and
  13:C:/Renesas/e2studio_2021_01_workspace_RZA2M_ANPR/ANPR_RZA2M_GR_MANGO/src/tensorflow_lite/tensorflow/lite/kernels/internal\types.h **** limitations under the License.
  14:C:/Renesas/e2studio_2021_01_workspace_RZA2M_ANPR/ANPR_RZA2M_GR_MANGO/src/tensorflow_lite/tensorflow/lite/kernels/internal\types.h **** ==============================================================================*/
  15:C:/Renesas/e2studio_2021_01_workspace_RZA2M_ANPR/ANPR_RZA2M_GR_MANGO/src/tensorflow_lite/tensorflow/lite/kernels/internal\types.h **** #ifndef TENSORFLOW_LITE_KERNELS_INTERNAL_TYPES_H_
  16:C:/Renesas/e2studio_2021_01_workspace_RZA2M_ANPR/ANPR_RZA2M_GR_MANGO/src/tensorflow_lite/tensorflow/lite/kernels/internal\types.h **** #define TENSORFLOW_LITE_KERNELS_INTERNAL_TYPES_H_
  17:C:/Renesas/e2studio_2021_01_workspace_RZA2M_ANPR/ANPR_RZA2M_GR_MANGO/src/tensorflow_lite/tensorflow/lite/kernels/internal\types.h **** 
  18:C:/Renesas/e2studio_2021_01_workspace_RZA2M_ANPR/ANPR_RZA2M_GR_MANGO/src/tensorflow_lite/tensorflow/lite/kernels/internal\types.h **** #include <algorithm>
  19:C:/Renesas/e2studio_2021_01_workspace_RZA2M_ANPR/ANPR_RZA2M_GR_MANGO/src/tensorflow_lite/tensorflow/lite/kernels/internal\types.h **** #include <cstdint>
  20:C:/Renesas/e2studio_2021_01_workspace_RZA2M_ANPR/ANPR_RZA2M_GR_MANGO/src/tensorflow_lite/tensorflow/lite/kernels/internal\types.h **** #include <cstring>
  21:C:/Renesas/e2studio_2021_01_workspace_RZA2M_ANPR/ANPR_RZA2M_GR_MANGO/src/tensorflow_lite/tensorflow/lite/kernels/internal\types.h **** #include <initializer_list>
  22:C:/Renesas/e2studio_2021_01_workspace_RZA2M_ANPR/ANPR_RZA2M_GR_MANGO/src/tensorflow_lite/tensorflow/lite/kernels/internal\types.h **** 
  23:C:/Renesas/e2studio_2021_01_workspace_RZA2M_ANPR/ANPR_RZA2M_GR_MANGO/src/tensorflow_lite/tensorflow/lite/kernels/internal\types.h **** #include "tensorflow/lite/kernels/internal/compatibility.h"
  24:C:/Renesas/e2studio_2021_01_workspace_RZA2M_ANPR/ANPR_RZA2M_GR_MANGO/src/tensorflow_lite/tensorflow/lite/kernels/internal\types.h **** 
  25:C:/Renesas/e2studio_2021_01_workspace_RZA2M_ANPR/ANPR_RZA2M_GR_MANGO/src/tensorflow_lite/tensorflow/lite/kernels/internal\types.h **** namespace tflite {
  26:C:/Renesas/e2studio_2021_01_workspace_RZA2M_ANPR/ANPR_RZA2M_GR_MANGO/src/tensorflow_lite/tensorflow/lite/kernels/internal\types.h **** 
  27:C:/Renesas/e2studio_2021_01_workspace_RZA2M_ANPR/ANPR_RZA2M_GR_MANGO/src/tensorflow_lite/tensorflow/lite/kernels/internal\types.h **** enum class FusedActivationFunctionType : uint8_t {
  28:C:/Renesas/e2studio_2021_01_workspace_RZA2M_ANPR/ANPR_RZA2M_GR_MANGO/src/tensorflow_lite/tensorflow/lite/kernels/internal\types.h ****   kNone,
  29:C:/Renesas/e2studio_2021_01_workspace_RZA2M_ANPR/ANPR_RZA2M_GR_MANGO/src/tensorflow_lite/tensorflow/lite/kernels/internal\types.h ****   kRelu6,
  30:C:/Renesas/e2studio_2021_01_workspace_RZA2M_ANPR/ANPR_RZA2M_GR_MANGO/src/tensorflow_lite/tensorflow/lite/kernels/internal\types.h ****   kRelu1,
  31:C:/Renesas/e2studio_2021_01_workspace_RZA2M_ANPR/ANPR_RZA2M_GR_MANGO/src/tensorflow_lite/tensorflow/lite/kernels/internal\types.h ****   kRelu
  32:C:/Renesas/e2studio_2021_01_workspace_RZA2M_ANPR/ANPR_RZA2M_GR_MANGO/src/tensorflow_lite/tensorflow/lite/kernels/internal\types.h **** };
  33:C:/Renesas/e2studio_2021_01_workspace_RZA2M_ANPR/ANPR_RZA2M_GR_MANGO/src/tensorflow_lite/tensorflow/lite/kernels/internal\types.h **** enum class PaddingType : uint8_t { kNone, kSame, kValid };
  34:C:/Renesas/e2studio_2021_01_workspace_RZA2M_ANPR/ANPR_RZA2M_GR_MANGO/src/tensorflow_lite/tensorflow/lite/kernels/internal\types.h **** 
  35:C:/Renesas/e2studio_2021_01_workspace_RZA2M_ANPR/ANPR_RZA2M_GR_MANGO/src/tensorflow_lite/tensorflow/lite/kernels/internal\types.h **** struct PaddingValues {
  36:C:/Renesas/e2studio_2021_01_workspace_RZA2M_ANPR/ANPR_RZA2M_GR_MANGO/src/tensorflow_lite/tensorflow/lite/kernels/internal\types.h ****   int16_t width;
  37:C:/Renesas/e2studio_2021_01_workspace_RZA2M_ANPR/ANPR_RZA2M_GR_MANGO/src/tensorflow_lite/tensorflow/lite/kernels/internal\types.h ****   int16_t height;
  38:C:/Renesas/e2studio_2021_01_workspace_RZA2M_ANPR/ANPR_RZA2M_GR_MANGO/src/tensorflow_lite/tensorflow/lite/kernels/internal\types.h ****   // offset is used for calculating "remaining" padding, for example, `width`
  39:C:/Renesas/e2studio_2021_01_workspace_RZA2M_ANPR/ANPR_RZA2M_GR_MANGO/src/tensorflow_lite/tensorflow/lite/kernels/internal\types.h ****   // is 1 and `width_offset` is 1, so padding_left is 1 while padding_right is
  40:C:/Renesas/e2studio_2021_01_workspace_RZA2M_ANPR/ANPR_RZA2M_GR_MANGO/src/tensorflow_lite/tensorflow/lite/kernels/internal\types.h ****   // 1 + 1 = 2.
  41:C:/Renesas/e2studio_2021_01_workspace_RZA2M_ANPR/ANPR_RZA2M_GR_MANGO/src/tensorflow_lite/tensorflow/lite/kernels/internal\types.h ****   int16_t width_offset;
  42:C:/Renesas/e2studio_2021_01_workspace_RZA2M_ANPR/ANPR_RZA2M_GR_MANGO/src/tensorflow_lite/tensorflow/lite/kernels/internal\types.h ****   // Same as width_offset except it's over the height dimension.
  43:C:/Renesas/e2studio_2021_01_workspace_RZA2M_ANPR/ANPR_RZA2M_GR_MANGO/src/tensorflow_lite/tensorflow/lite/kernels/internal\types.h ****   int16_t height_offset;
  44:C:/Renesas/e2studio_2021_01_workspace_RZA2M_ANPR/ANPR_RZA2M_GR_MANGO/src/tensorflow_lite/tensorflow/lite/kernels/internal\types.h **** };
  45:C:/Renesas/e2studio_2021_01_workspace_RZA2M_ANPR/ANPR_RZA2M_GR_MANGO/src/tensorflow_lite/tensorflow/lite/kernels/internal\types.h **** 
  46:C:/Renesas/e2studio_2021_01_workspace_RZA2M_ANPR/ANPR_RZA2M_GR_MANGO/src/tensorflow_lite/tensorflow/lite/kernels/internal\types.h **** struct Padding3DValues {
  47:C:/Renesas/e2studio_2021_01_workspace_RZA2M_ANPR/ANPR_RZA2M_GR_MANGO/src/tensorflow_lite/tensorflow/lite/kernels/internal\types.h ****   int16_t width;
  48:C:/Renesas/e2studio_2021_01_workspace_RZA2M_ANPR/ANPR_RZA2M_GR_MANGO/src/tensorflow_lite/tensorflow/lite/kernels/internal\types.h ****   int16_t height;
  49:C:/Renesas/e2studio_2021_01_workspace_RZA2M_ANPR/ANPR_RZA2M_GR_MANGO/src/tensorflow_lite/tensorflow/lite/kernels/internal\types.h ****   int16_t depth;
  50:C:/Renesas/e2studio_2021_01_workspace_RZA2M_ANPR/ANPR_RZA2M_GR_MANGO/src/tensorflow_lite/tensorflow/lite/kernels/internal\types.h ****   // offset is used for calculating "remaining" padding, for example, `width`
  51:C:/Renesas/e2studio_2021_01_workspace_RZA2M_ANPR/ANPR_RZA2M_GR_MANGO/src/tensorflow_lite/tensorflow/lite/kernels/internal\types.h ****   // is 1 and `width_offset` is 1, so padding_left is 1 while padding_right is
  52:C:/Renesas/e2studio_2021_01_workspace_RZA2M_ANPR/ANPR_RZA2M_GR_MANGO/src/tensorflow_lite/tensorflow/lite/kernels/internal\types.h ****   // 1 + 1 = 2.
  53:C:/Renesas/e2studio_2021_01_workspace_RZA2M_ANPR/ANPR_RZA2M_GR_MANGO/src/tensorflow_lite/tensorflow/lite/kernels/internal\types.h ****   int16_t width_offset;
  54:C:/Renesas/e2studio_2021_01_workspace_RZA2M_ANPR/ANPR_RZA2M_GR_MANGO/src/tensorflow_lite/tensorflow/lite/kernels/internal\types.h ****   // Same as width_offset except it's over the height dimension.
  55:C:/Renesas/e2studio_2021_01_workspace_RZA2M_ANPR/ANPR_RZA2M_GR_MANGO/src/tensorflow_lite/tensorflow/lite/kernels/internal\types.h ****   int16_t height_offset;
  56:C:/Renesas/e2studio_2021_01_workspace_RZA2M_ANPR/ANPR_RZA2M_GR_MANGO/src/tensorflow_lite/tensorflow/lite/kernels/internal\types.h ****   // Same as width_offset except it's over the depth dimension.
  57:C:/Renesas/e2studio_2021_01_workspace_RZA2M_ANPR/ANPR_RZA2M_GR_MANGO/src/tensorflow_lite/tensorflow/lite/kernels/internal\types.h ****   int16_t depth_offset;
  58:C:/Renesas/e2studio_2021_01_workspace_RZA2M_ANPR/ANPR_RZA2M_GR_MANGO/src/tensorflow_lite/tensorflow/lite/kernels/internal\types.h **** };
  59:C:/Renesas/e2studio_2021_01_workspace_RZA2M_ANPR/ANPR_RZA2M_GR_MANGO/src/tensorflow_lite/tensorflow/lite/kernels/internal\types.h **** 
  60:C:/Renesas/e2studio_2021_01_workspace_RZA2M_ANPR/ANPR_RZA2M_GR_MANGO/src/tensorflow_lite/tensorflow/lite/kernels/internal\types.h **** // This enumeration allows for non-default formats for the weights array
  61:C:/Renesas/e2studio_2021_01_workspace_RZA2M_ANPR/ANPR_RZA2M_GR_MANGO/src/tensorflow_lite/tensorflow/lite/kernels/internal\types.h **** // of a fully-connected operator, allowing the use of special optimized
  62:C:/Renesas/e2studio_2021_01_workspace_RZA2M_ANPR/ANPR_RZA2M_GR_MANGO/src/tensorflow_lite/tensorflow/lite/kernels/internal\types.h **** // runtime paths.
  63:C:/Renesas/e2studio_2021_01_workspace_RZA2M_ANPR/ANPR_RZA2M_GR_MANGO/src/tensorflow_lite/tensorflow/lite/kernels/internal\types.h **** enum class FullyConnectedWeightsFormat : uint8_t {
  64:C:/Renesas/e2studio_2021_01_workspace_RZA2M_ANPR/ANPR_RZA2M_GR_MANGO/src/tensorflow_lite/tensorflow/lite/kernels/internal\types.h ****   // Default format (flat 2D layout, the inner contiguous dimension
  65:C:/Renesas/e2studio_2021_01_workspace_RZA2M_ANPR/ANPR_RZA2M_GR_MANGO/src/tensorflow_lite/tensorflow/lite/kernels/internal\types.h ****   // is input_depth, the outer non-contiguous dimension is output_depth)
  66:C:/Renesas/e2studio_2021_01_workspace_RZA2M_ANPR/ANPR_RZA2M_GR_MANGO/src/tensorflow_lite/tensorflow/lite/kernels/internal\types.h ****   kDefault,
  67:C:/Renesas/e2studio_2021_01_workspace_RZA2M_ANPR/ANPR_RZA2M_GR_MANGO/src/tensorflow_lite/tensorflow/lite/kernels/internal\types.h ****   // Summary: optimized layout for fast CPU runtime implementation,
  68:C:/Renesas/e2studio_2021_01_workspace_RZA2M_ANPR/ANPR_RZA2M_GR_MANGO/src/tensorflow_lite/tensorflow/lite/kernels/internal\types.h ****   // aimed specifically at ARM CPUs at the moment, and specialized for
  69:C:/Renesas/e2studio_2021_01_workspace_RZA2M_ANPR/ANPR_RZA2M_GR_MANGO/src/tensorflow_lite/tensorflow/lite/kernels/internal\types.h ****   // 8-bit quantized layers.
  70:C:/Renesas/e2studio_2021_01_workspace_RZA2M_ANPR/ANPR_RZA2M_GR_MANGO/src/tensorflow_lite/tensorflow/lite/kernels/internal\types.h ****   //
  71:C:/Renesas/e2studio_2021_01_workspace_RZA2M_ANPR/ANPR_RZA2M_GR_MANGO/src/tensorflow_lite/tensorflow/lite/kernels/internal\types.h ****   // The use case we're concerned with here is: 8-bit quantization,
  72:C:/Renesas/e2studio_2021_01_workspace_RZA2M_ANPR/ANPR_RZA2M_GR_MANGO/src/tensorflow_lite/tensorflow/lite/kernels/internal\types.h ****   // large weights matrix that doesn't fit in cache (e.g. 4096x2048 in
  73:C:/Renesas/e2studio_2021_01_workspace_RZA2M_ANPR/ANPR_RZA2M_GR_MANGO/src/tensorflow_lite/tensorflow/lite/kernels/internal\types.h ****   // a key application that drove this), very small batch size (e.g. 1 -- 4).
  74:C:/Renesas/e2studio_2021_01_workspace_RZA2M_ANPR/ANPR_RZA2M_GR_MANGO/src/tensorflow_lite/tensorflow/lite/kernels/internal\types.h ****   //
  75:C:/Renesas/e2studio_2021_01_workspace_RZA2M_ANPR/ANPR_RZA2M_GR_MANGO/src/tensorflow_lite/tensorflow/lite/kernels/internal\types.h ****   // Even with 8-bit quantization of weights, the performance of memory
  76:C:/Renesas/e2studio_2021_01_workspace_RZA2M_ANPR/ANPR_RZA2M_GR_MANGO/src/tensorflow_lite/tensorflow/lite/kernels/internal\types.h ****   // accesses to the weights can become the dominant issue when
  77:C:/Renesas/e2studio_2021_01_workspace_RZA2M_ANPR/ANPR_RZA2M_GR_MANGO/src/tensorflow_lite/tensorflow/lite/kernels/internal\types.h ****   // the batch size is small, so each weight value is used in only a few
  78:C:/Renesas/e2studio_2021_01_workspace_RZA2M_ANPR/ANPR_RZA2M_GR_MANGO/src/tensorflow_lite/tensorflow/lite/kernels/internal\types.h ****   // arithmetic ops, i.e. the fully-connected node has a low arithmetic
  79:C:/Renesas/e2studio_2021_01_workspace_RZA2M_ANPR/ANPR_RZA2M_GR_MANGO/src/tensorflow_lite/tensorflow/lite/kernels/internal\types.h ****   // intensity. The specific issues that arise are of three kinds:
  80:C:/Renesas/e2studio_2021_01_workspace_RZA2M_ANPR/ANPR_RZA2M_GR_MANGO/src/tensorflow_lite/tensorflow/lite/kernels/internal\types.h ****   // (1) One may, ideally, max out DRAM bandwidth, i.e. be truly memory
  81:C:/Renesas/e2studio_2021_01_workspace_RZA2M_ANPR/ANPR_RZA2M_GR_MANGO/src/tensorflow_lite/tensorflow/lite/kernels/internal\types.h ****   //     bound. That's the "good" issue to run into.
  82:C:/Renesas/e2studio_2021_01_workspace_RZA2M_ANPR/ANPR_RZA2M_GR_MANGO/src/tensorflow_lite/tensorflow/lite/kernels/internal\types.h ****   // (2) One may run into sub-optimal pre-fetching: the data hasn't been
  83:C:/Renesas/e2studio_2021_01_workspace_RZA2M_ANPR/ANPR_RZA2M_GR_MANGO/src/tensorflow_lite/tensorflow/lite/kernels/internal\types.h ****   //     prefetched into the cache by the time we need it.
  84:C:/Renesas/e2studio_2021_01_workspace_RZA2M_ANPR/ANPR_RZA2M_GR_MANGO/src/tensorflow_lite/tensorflow/lite/kernels/internal\types.h ****   // (3) One may run into cache aliasing: multiple values that are
  85:C:/Renesas/e2studio_2021_01_workspace_RZA2M_ANPR/ANPR_RZA2M_GR_MANGO/src/tensorflow_lite/tensorflow/lite/kernels/internal\types.h ****   //     pre-fetched, alias each other in the L1 cache (which typically
  86:C:/Renesas/e2studio_2021_01_workspace_RZA2M_ANPR/ANPR_RZA2M_GR_MANGO/src/tensorflow_lite/tensorflow/lite/kernels/internal\types.h ****   //     has only 4-way set associativity in ARM CPUs) and thus evict
  87:C:/Renesas/e2studio_2021_01_workspace_RZA2M_ANPR/ANPR_RZA2M_GR_MANGO/src/tensorflow_lite/tensorflow/lite/kernels/internal\types.h ****   //     each other before we get to using them.
  88:C:/Renesas/e2studio_2021_01_workspace_RZA2M_ANPR/ANPR_RZA2M_GR_MANGO/src/tensorflow_lite/tensorflow/lite/kernels/internal\types.h ****   //
  89:C:/Renesas/e2studio_2021_01_workspace_RZA2M_ANPR/ANPR_RZA2M_GR_MANGO/src/tensorflow_lite/tensorflow/lite/kernels/internal\types.h ****   // The point of this shuffling is to avoid issues (2) and (3) so that
  90:C:/Renesas/e2studio_2021_01_workspace_RZA2M_ANPR/ANPR_RZA2M_GR_MANGO/src/tensorflow_lite/tensorflow/lite/kernels/internal\types.h ****   // we get as fast as possible given only the hard constraint (1).
  91:C:/Renesas/e2studio_2021_01_workspace_RZA2M_ANPR/ANPR_RZA2M_GR_MANGO/src/tensorflow_lite/tensorflow/lite/kernels/internal\types.h ****   // This is achieved by turning the difficulty into a solution: the
  92:C:/Renesas/e2studio_2021_01_workspace_RZA2M_ANPR/ANPR_RZA2M_GR_MANGO/src/tensorflow_lite/tensorflow/lite/kernels/internal\types.h ****   // difficulty, that each value loaded from memory is used only in
  93:C:/Renesas/e2studio_2021_01_workspace_RZA2M_ANPR/ANPR_RZA2M_GR_MANGO/src/tensorflow_lite/tensorflow/lite/kernels/internal\types.h ****   // one kernel iteration, making this operation memory-intensive, hints at
  94:C:/Renesas/e2studio_2021_01_workspace_RZA2M_ANPR/ANPR_RZA2M_GR_MANGO/src/tensorflow_lite/tensorflow/lite/kernels/internal\types.h ****   // the solution, of shuffling the weights so that they are stored in the
  95:C:/Renesas/e2studio_2021_01_workspace_RZA2M_ANPR/ANPR_RZA2M_GR_MANGO/src/tensorflow_lite/tensorflow/lite/kernels/internal\types.h ****   // exact order as the kernel needs to load them, so that the memory
  96:C:/Renesas/e2studio_2021_01_workspace_RZA2M_ANPR/ANPR_RZA2M_GR_MANGO/src/tensorflow_lite/tensorflow/lite/kernels/internal\types.h ****   // accesses made by the kernel are trivial. This solves (2) because the
  97:C:/Renesas/e2studio_2021_01_workspace_RZA2M_ANPR/ANPR_RZA2M_GR_MANGO/src/tensorflow_lite/tensorflow/lite/kernels/internal\types.h ****   // trivial memory access pattern allows the CPU's automatic prefetching
  98:C:/Renesas/e2studio_2021_01_workspace_RZA2M_ANPR/ANPR_RZA2M_GR_MANGO/src/tensorflow_lite/tensorflow/lite/kernels/internal\types.h ****   // to perform very well (no need even for preload instructions), and this
  99:C:/Renesas/e2studio_2021_01_workspace_RZA2M_ANPR/ANPR_RZA2M_GR_MANGO/src/tensorflow_lite/tensorflow/lite/kernels/internal\types.h ****   // solves (3) because the values being loaded concurrently are now
 100:C:/Renesas/e2studio_2021_01_workspace_RZA2M_ANPR/ANPR_RZA2M_GR_MANGO/src/tensorflow_lite/tensorflow/lite/kernels/internal\types.h ****   // contiguous in the address space, thus don't alias each other in the cache.
 101:C:/Renesas/e2studio_2021_01_workspace_RZA2M_ANPR/ANPR_RZA2M_GR_MANGO/src/tensorflow_lite/tensorflow/lite/kernels/internal\types.h ****   //
 102:C:/Renesas/e2studio_2021_01_workspace_RZA2M_ANPR/ANPR_RZA2M_GR_MANGO/src/tensorflow_lite/tensorflow/lite/kernels/internal\types.h ****   // On ARM, we typically want our kernel to process a 4x16 block of weights
 103:C:/Renesas/e2studio_2021_01_workspace_RZA2M_ANPR/ANPR_RZA2M_GR_MANGO/src/tensorflow_lite/tensorflow/lite/kernels/internal\types.h ****   // at a time, because:
 104:C:/Renesas/e2studio_2021_01_workspace_RZA2M_ANPR/ANPR_RZA2M_GR_MANGO/src/tensorflow_lite/tensorflow/lite/kernels/internal\types.h ****   //   - 16 is the number of bytes in a NEON register.
 105:C:/Renesas/e2studio_2021_01_workspace_RZA2M_ANPR/ANPR_RZA2M_GR_MANGO/src/tensorflow_lite/tensorflow/lite/kernels/internal\types.h ****   //   - 4 is how many rows we need to handle concurrently in the kernel in
 106:C:/Renesas/e2studio_2021_01_workspace_RZA2M_ANPR/ANPR_RZA2M_GR_MANGO/src/tensorflow_lite/tensorflow/lite/kernels/internal\types.h ****   //     order to have sufficient mutual independence of instructions to
 107:C:/Renesas/e2studio_2021_01_workspace_RZA2M_ANPR/ANPR_RZA2M_GR_MANGO/src/tensorflow_lite/tensorflow/lite/kernels/internal\types.h ****   //     maximize arithmetic throughput.
 108:C:/Renesas/e2studio_2021_01_workspace_RZA2M_ANPR/ANPR_RZA2M_GR_MANGO/src/tensorflow_lite/tensorflow/lite/kernels/internal\types.h ****   //
 109:C:/Renesas/e2studio_2021_01_workspace_RZA2M_ANPR/ANPR_RZA2M_GR_MANGO/src/tensorflow_lite/tensorflow/lite/kernels/internal\types.h ****   // Finally, the 'Int8' part in the name refers to the fact that this
 110:C:/Renesas/e2studio_2021_01_workspace_RZA2M_ANPR/ANPR_RZA2M_GR_MANGO/src/tensorflow_lite/tensorflow/lite/kernels/internal\types.h ****   // weights format has each weights value encoded as a signed int8_t value,
 111:C:/Renesas/e2studio_2021_01_workspace_RZA2M_ANPR/ANPR_RZA2M_GR_MANGO/src/tensorflow_lite/tensorflow/lite/kernels/internal\types.h ****   // even if the data type of the weights buffer is uint8_t.  This is intended
 112:C:/Renesas/e2studio_2021_01_workspace_RZA2M_ANPR/ANPR_RZA2M_GR_MANGO/src/tensorflow_lite/tensorflow/lite/kernels/internal\types.h ****   // to save runtime kernels the effort to have to XOR the top bit of these
 113:C:/Renesas/e2studio_2021_01_workspace_RZA2M_ANPR/ANPR_RZA2M_GR_MANGO/src/tensorflow_lite/tensorflow/lite/kernels/internal\types.h ****   // bytes before using them in signed arithmetic, see this file for more
 114:C:/Renesas/e2studio_2021_01_workspace_RZA2M_ANPR/ANPR_RZA2M_GR_MANGO/src/tensorflow_lite/tensorflow/lite/kernels/internal\types.h ****   // explanations on the 'signed int8_t trick' in matrix multiplication kernels:
 115:C:/Renesas/e2studio_2021_01_workspace_RZA2M_ANPR/ANPR_RZA2M_GR_MANGO/src/tensorflow_lite/tensorflow/lite/kernels/internal\types.h ****   //
 116:C:/Renesas/e2studio_2021_01_workspace_RZA2M_ANPR/ANPR_RZA2M_GR_MANGO/src/tensorflow_lite/tensorflow/lite/kernels/internal\types.h ****   //   tensorflow/lite/toco/graph_transformations/ensure_uint8_weights_safe_for_fast_int8_kernels.c
 117:C:/Renesas/e2studio_2021_01_workspace_RZA2M_ANPR/ANPR_RZA2M_GR_MANGO/src/tensorflow_lite/tensorflow/lite/kernels/internal\types.h ****   //
 118:C:/Renesas/e2studio_2021_01_workspace_RZA2M_ANPR/ANPR_RZA2M_GR_MANGO/src/tensorflow_lite/tensorflow/lite/kernels/internal\types.h ****   kShuffled4x16Int8,
 119:C:/Renesas/e2studio_2021_01_workspace_RZA2M_ANPR/ANPR_RZA2M_GR_MANGO/src/tensorflow_lite/tensorflow/lite/kernels/internal\types.h **** };
 120:C:/Renesas/e2studio_2021_01_workspace_RZA2M_ANPR/ANPR_RZA2M_GR_MANGO/src/tensorflow_lite/tensorflow/lite/kernels/internal\types.h **** 
 121:C:/Renesas/e2studio_2021_01_workspace_RZA2M_ANPR/ANPR_RZA2M_GR_MANGO/src/tensorflow_lite/tensorflow/lite/kernels/internal\types.h **** // Quantization parameters, determining the mapping of quantized values
 122:C:/Renesas/e2studio_2021_01_workspace_RZA2M_ANPR/ANPR_RZA2M_GR_MANGO/src/tensorflow_lite/tensorflow/lite/kernels/internal\types.h **** // to real values (i.e. determining how quantized values are mathematically
 123:C:/Renesas/e2studio_2021_01_workspace_RZA2M_ANPR/ANPR_RZA2M_GR_MANGO/src/tensorflow_lite/tensorflow/lite/kernels/internal\types.h **** // interpreted).
 124:C:/Renesas/e2studio_2021_01_workspace_RZA2M_ANPR/ANPR_RZA2M_GR_MANGO/src/tensorflow_lite/tensorflow/lite/kernels/internal\types.h **** //
 125:C:/Renesas/e2studio_2021_01_workspace_RZA2M_ANPR/ANPR_RZA2M_GR_MANGO/src/tensorflow_lite/tensorflow/lite/kernels/internal\types.h **** // The correspondence is as follows:
 126:C:/Renesas/e2studio_2021_01_workspace_RZA2M_ANPR/ANPR_RZA2M_GR_MANGO/src/tensorflow_lite/tensorflow/lite/kernels/internal\types.h **** //
 127:C:/Renesas/e2studio_2021_01_workspace_RZA2M_ANPR/ANPR_RZA2M_GR_MANGO/src/tensorflow_lite/tensorflow/lite/kernels/internal\types.h **** //   real_value = scale * (quantized_value - zero_point);
 128:C:/Renesas/e2studio_2021_01_workspace_RZA2M_ANPR/ANPR_RZA2M_GR_MANGO/src/tensorflow_lite/tensorflow/lite/kernels/internal\types.h **** //
 129:C:/Renesas/e2studio_2021_01_workspace_RZA2M_ANPR/ANPR_RZA2M_GR_MANGO/src/tensorflow_lite/tensorflow/lite/kernels/internal\types.h **** // In other words, zero_point designates which quantized value corresponds to
 130:C:/Renesas/e2studio_2021_01_workspace_RZA2M_ANPR/ANPR_RZA2M_GR_MANGO/src/tensorflow_lite/tensorflow/lite/kernels/internal\types.h **** // the real 0 value, and scale designates the difference between the real values
 131:C:/Renesas/e2studio_2021_01_workspace_RZA2M_ANPR/ANPR_RZA2M_GR_MANGO/src/tensorflow_lite/tensorflow/lite/kernels/internal\types.h **** // corresponding to consecutive quantized values differing by 1.
 132:C:/Renesas/e2studio_2021_01_workspace_RZA2M_ANPR/ANPR_RZA2M_GR_MANGO/src/tensorflow_lite/tensorflow/lite/kernels/internal\types.h **** struct QuantizationParams {
 133:C:/Renesas/e2studio_2021_01_workspace_RZA2M_ANPR/ANPR_RZA2M_GR_MANGO/src/tensorflow_lite/tensorflow/lite/kernels/internal\types.h ****   int32_t zero_point = 0;
 134:C:/Renesas/e2studio_2021_01_workspace_RZA2M_ANPR/ANPR_RZA2M_GR_MANGO/src/tensorflow_lite/tensorflow/lite/kernels/internal\types.h ****   double scale = 0.0;
 135:C:/Renesas/e2studio_2021_01_workspace_RZA2M_ANPR/ANPR_RZA2M_GR_MANGO/src/tensorflow_lite/tensorflow/lite/kernels/internal\types.h **** };
 136:C:/Renesas/e2studio_2021_01_workspace_RZA2M_ANPR/ANPR_RZA2M_GR_MANGO/src/tensorflow_lite/tensorflow/lite/kernels/internal\types.h **** 
 137:C:/Renesas/e2studio_2021_01_workspace_RZA2M_ANPR/ANPR_RZA2M_GR_MANGO/src/tensorflow_lite/tensorflow/lite/kernels/internal\types.h **** inline bool operator==(const QuantizationParams& qp1,
 138:C:/Renesas/e2studio_2021_01_workspace_RZA2M_ANPR/ANPR_RZA2M_GR_MANGO/src/tensorflow_lite/tensorflow/lite/kernels/internal\types.h ****                        const QuantizationParams& qp2) {
 139:C:/Renesas/e2studio_2021_01_workspace_RZA2M_ANPR/ANPR_RZA2M_GR_MANGO/src/tensorflow_lite/tensorflow/lite/kernels/internal\types.h ****   return qp1.zero_point == qp2.zero_point && qp1.scale == qp2.scale;
 140:C:/Renesas/e2studio_2021_01_workspace_RZA2M_ANPR/ANPR_RZA2M_GR_MANGO/src/tensorflow_lite/tensorflow/lite/kernels/internal\types.h **** }
 141:C:/Renesas/e2studio_2021_01_workspace_RZA2M_ANPR/ANPR_RZA2M_GR_MANGO/src/tensorflow_lite/tensorflow/lite/kernels/internal\types.h **** 
 142:C:/Renesas/e2studio_2021_01_workspace_RZA2M_ANPR/ANPR_RZA2M_GR_MANGO/src/tensorflow_lite/tensorflow/lite/kernels/internal\types.h **** template <int N>
 143:C:/Renesas/e2studio_2021_01_workspace_RZA2M_ANPR/ANPR_RZA2M_GR_MANGO/src/tensorflow_lite/tensorflow/lite/kernels/internal\types.h **** struct Dims {
 144:C:/Renesas/e2studio_2021_01_workspace_RZA2M_ANPR/ANPR_RZA2M_GR_MANGO/src/tensorflow_lite/tensorflow/lite/kernels/internal\types.h ****   int sizes[N];
 145:C:/Renesas/e2studio_2021_01_workspace_RZA2M_ANPR/ANPR_RZA2M_GR_MANGO/src/tensorflow_lite/tensorflow/lite/kernels/internal\types.h ****   int strides[N];
 146:C:/Renesas/e2studio_2021_01_workspace_RZA2M_ANPR/ANPR_RZA2M_GR_MANGO/src/tensorflow_lite/tensorflow/lite/kernels/internal\types.h **** };
 147:C:/Renesas/e2studio_2021_01_workspace_RZA2M_ANPR/ANPR_RZA2M_GR_MANGO/src/tensorflow_lite/tensorflow/lite/kernels/internal\types.h **** 
 148:C:/Renesas/e2studio_2021_01_workspace_RZA2M_ANPR/ANPR_RZA2M_GR_MANGO/src/tensorflow_lite/tensorflow/lite/kernels/internal\types.h **** class RuntimeShape {
 149:C:/Renesas/e2studio_2021_01_workspace_RZA2M_ANPR/ANPR_RZA2M_GR_MANGO/src/tensorflow_lite/tensorflow/lite/kernels/internal\types.h ****  public:
 150:C:/Renesas/e2studio_2021_01_workspace_RZA2M_ANPR/ANPR_RZA2M_GR_MANGO/src/tensorflow_lite/tensorflow/lite/kernels/internal\types.h ****   // Shapes with dimensions up to 5 are stored directly in the structure, while
 151:C:/Renesas/e2studio_2021_01_workspace_RZA2M_ANPR/ANPR_RZA2M_GR_MANGO/src/tensorflow_lite/tensorflow/lite/kernels/internal\types.h ****   // larger shapes are separately allocated.
 152:C:/Renesas/e2studio_2021_01_workspace_RZA2M_ANPR/ANPR_RZA2M_GR_MANGO/src/tensorflow_lite/tensorflow/lite/kernels/internal\types.h ****   static constexpr int kMaxSmallSize = 5;
 153:C:/Renesas/e2studio_2021_01_workspace_RZA2M_ANPR/ANPR_RZA2M_GR_MANGO/src/tensorflow_lite/tensorflow/lite/kernels/internal\types.h **** 
 154:C:/Renesas/e2studio_2021_01_workspace_RZA2M_ANPR/ANPR_RZA2M_GR_MANGO/src/tensorflow_lite/tensorflow/lite/kernels/internal\types.h ****   RuntimeShape& operator=(RuntimeShape const&) = delete;
 155:C:/Renesas/e2studio_2021_01_workspace_RZA2M_ANPR/ANPR_RZA2M_GR_MANGO/src/tensorflow_lite/tensorflow/lite/kernels/internal\types.h **** 
 156:C:/Renesas/e2studio_2021_01_workspace_RZA2M_ANPR/ANPR_RZA2M_GR_MANGO/src/tensorflow_lite/tensorflow/lite/kernels/internal\types.h ****   RuntimeShape() : size_(0) {}
 157:C:/Renesas/e2studio_2021_01_workspace_RZA2M_ANPR/ANPR_RZA2M_GR_MANGO/src/tensorflow_lite/tensorflow/lite/kernels/internal\types.h **** 
 158:C:/Renesas/e2studio_2021_01_workspace_RZA2M_ANPR/ANPR_RZA2M_GR_MANGO/src/tensorflow_lite/tensorflow/lite/kernels/internal\types.h ****   explicit RuntimeShape(int dimensions_count) : size_(dimensions_count) {
 159:C:/Renesas/e2studio_2021_01_workspace_RZA2M_ANPR/ANPR_RZA2M_GR_MANGO/src/tensorflow_lite/tensorflow/lite/kernels/internal\types.h ****     if (dimensions_count > kMaxSmallSize) {
 160:C:/Renesas/e2studio_2021_01_workspace_RZA2M_ANPR/ANPR_RZA2M_GR_MANGO/src/tensorflow_lite/tensorflow/lite/kernels/internal\types.h **** #ifdef TF_LITE_STATIC_MEMORY
 161:C:/Renesas/e2studio_2021_01_workspace_RZA2M_ANPR/ANPR_RZA2M_GR_MANGO/src/tensorflow_lite/tensorflow/lite/kernels/internal\types.h ****       TFLITE_CHECK(false && "No shape resizing supported on this platform");
 162:C:/Renesas/e2studio_2021_01_workspace_RZA2M_ANPR/ANPR_RZA2M_GR_MANGO/src/tensorflow_lite/tensorflow/lite/kernels/internal\types.h **** #else  // TF_LITE_STATIC_MEMORY
 163:C:/Renesas/e2studio_2021_01_workspace_RZA2M_ANPR/ANPR_RZA2M_GR_MANGO/src/tensorflow_lite/tensorflow/lite/kernels/internal\types.h ****       dims_pointer_ = new int32_t[dimensions_count];
 164:C:/Renesas/e2studio_2021_01_workspace_RZA2M_ANPR/ANPR_RZA2M_GR_MANGO/src/tensorflow_lite/tensorflow/lite/kernels/internal\types.h **** #endif  // TF_LITE_STATIC_MEMORY
 165:C:/Renesas/e2studio_2021_01_workspace_RZA2M_ANPR/ANPR_RZA2M_GR_MANGO/src/tensorflow_lite/tensorflow/lite/kernels/internal\types.h ****     }
 166:C:/Renesas/e2studio_2021_01_workspace_RZA2M_ANPR/ANPR_RZA2M_GR_MANGO/src/tensorflow_lite/tensorflow/lite/kernels/internal\types.h ****   }
 167:C:/Renesas/e2studio_2021_01_workspace_RZA2M_ANPR/ANPR_RZA2M_GR_MANGO/src/tensorflow_lite/tensorflow/lite/kernels/internal\types.h **** 
 168:C:/Renesas/e2studio_2021_01_workspace_RZA2M_ANPR/ANPR_RZA2M_GR_MANGO/src/tensorflow_lite/tensorflow/lite/kernels/internal\types.h ****   RuntimeShape(int shape_size, int32_t value) : size_(0) {
 169:C:/Renesas/e2studio_2021_01_workspace_RZA2M_ANPR/ANPR_RZA2M_GR_MANGO/src/tensorflow_lite/tensorflow/lite/kernels/internal\types.h ****     Resize(shape_size);
 170:C:/Renesas/e2studio_2021_01_workspace_RZA2M_ANPR/ANPR_RZA2M_GR_MANGO/src/tensorflow_lite/tensorflow/lite/kernels/internal\types.h ****     for (int i = 0; i < shape_size; ++i) {
 171:C:/Renesas/e2studio_2021_01_workspace_RZA2M_ANPR/ANPR_RZA2M_GR_MANGO/src/tensorflow_lite/tensorflow/lite/kernels/internal\types.h ****       SetDim(i, value);
 172:C:/Renesas/e2studio_2021_01_workspace_RZA2M_ANPR/ANPR_RZA2M_GR_MANGO/src/tensorflow_lite/tensorflow/lite/kernels/internal\types.h ****     }
 173:C:/Renesas/e2studio_2021_01_workspace_RZA2M_ANPR/ANPR_RZA2M_GR_MANGO/src/tensorflow_lite/tensorflow/lite/kernels/internal\types.h ****   }
 174:C:/Renesas/e2studio_2021_01_workspace_RZA2M_ANPR/ANPR_RZA2M_GR_MANGO/src/tensorflow_lite/tensorflow/lite/kernels/internal\types.h **** 
 175:C:/Renesas/e2studio_2021_01_workspace_RZA2M_ANPR/ANPR_RZA2M_GR_MANGO/src/tensorflow_lite/tensorflow/lite/kernels/internal\types.h ****   RuntimeShape(int dimensions_count, const int32_t* dims_data) : size_(0) {
 176:C:/Renesas/e2studio_2021_01_workspace_RZA2M_ANPR/ANPR_RZA2M_GR_MANGO/src/tensorflow_lite/tensorflow/lite/kernels/internal\types.h ****     ReplaceWith(dimensions_count, dims_data);
 177:C:/Renesas/e2studio_2021_01_workspace_RZA2M_ANPR/ANPR_RZA2M_GR_MANGO/src/tensorflow_lite/tensorflow/lite/kernels/internal\types.h ****   }
 178:C:/Renesas/e2studio_2021_01_workspace_RZA2M_ANPR/ANPR_RZA2M_GR_MANGO/src/tensorflow_lite/tensorflow/lite/kernels/internal\types.h **** 
 179:C:/Renesas/e2studio_2021_01_workspace_RZA2M_ANPR/ANPR_RZA2M_GR_MANGO/src/tensorflow_lite/tensorflow/lite/kernels/internal\types.h ****   RuntimeShape(const std::initializer_list<int> init_list) : size_(0) {
 180:C:/Renesas/e2studio_2021_01_workspace_RZA2M_ANPR/ANPR_RZA2M_GR_MANGO/src/tensorflow_lite/tensorflow/lite/kernels/internal\types.h ****     BuildFrom(init_list);
 181:C:/Renesas/e2studio_2021_01_workspace_RZA2M_ANPR/ANPR_RZA2M_GR_MANGO/src/tensorflow_lite/tensorflow/lite/kernels/internal\types.h ****   }
 182:C:/Renesas/e2studio_2021_01_workspace_RZA2M_ANPR/ANPR_RZA2M_GR_MANGO/src/tensorflow_lite/tensorflow/lite/kernels/internal\types.h **** 
 183:C:/Renesas/e2studio_2021_01_workspace_RZA2M_ANPR/ANPR_RZA2M_GR_MANGO/src/tensorflow_lite/tensorflow/lite/kernels/internal\types.h ****   // Avoid using this constructor.  We should be able to delete it when C++17
 184:C:/Renesas/e2studio_2021_01_workspace_RZA2M_ANPR/ANPR_RZA2M_GR_MANGO/src/tensorflow_lite/tensorflow/lite/kernels/internal\types.h ****   // rolls out.
 185:C:/Renesas/e2studio_2021_01_workspace_RZA2M_ANPR/ANPR_RZA2M_GR_MANGO/src/tensorflow_lite/tensorflow/lite/kernels/internal\types.h ****   RuntimeShape(RuntimeShape const& other) : size_(other.DimensionsCount()) {
 186:C:/Renesas/e2studio_2021_01_workspace_RZA2M_ANPR/ANPR_RZA2M_GR_MANGO/src/tensorflow_lite/tensorflow/lite/kernels/internal\types.h ****     if (size_ > kMaxSmallSize) {
 187:C:/Renesas/e2studio_2021_01_workspace_RZA2M_ANPR/ANPR_RZA2M_GR_MANGO/src/tensorflow_lite/tensorflow/lite/kernels/internal\types.h **** #ifdef TF_LITE_STATIC_MEMORY
 188:C:/Renesas/e2studio_2021_01_workspace_RZA2M_ANPR/ANPR_RZA2M_GR_MANGO/src/tensorflow_lite/tensorflow/lite/kernels/internal\types.h ****       TFLITE_CHECK(false && "No shape resizing supported on this platform");
 189:C:/Renesas/e2studio_2021_01_workspace_RZA2M_ANPR/ANPR_RZA2M_GR_MANGO/src/tensorflow_lite/tensorflow/lite/kernels/internal\types.h **** #else
 190:C:/Renesas/e2studio_2021_01_workspace_RZA2M_ANPR/ANPR_RZA2M_GR_MANGO/src/tensorflow_lite/tensorflow/lite/kernels/internal\types.h ****       dims_pointer_ = new int32_t[size_];
 191:C:/Renesas/e2studio_2021_01_workspace_RZA2M_ANPR/ANPR_RZA2M_GR_MANGO/src/tensorflow_lite/tensorflow/lite/kernels/internal\types.h **** #endif
 192:C:/Renesas/e2studio_2021_01_workspace_RZA2M_ANPR/ANPR_RZA2M_GR_MANGO/src/tensorflow_lite/tensorflow/lite/kernels/internal\types.h ****     }
 193:C:/Renesas/e2studio_2021_01_workspace_RZA2M_ANPR/ANPR_RZA2M_GR_MANGO/src/tensorflow_lite/tensorflow/lite/kernels/internal\types.h ****     std::memcpy(DimsData(), other.DimsData(), sizeof(int32_t) * size_);
 194:C:/Renesas/e2studio_2021_01_workspace_RZA2M_ANPR/ANPR_RZA2M_GR_MANGO/src/tensorflow_lite/tensorflow/lite/kernels/internal\types.h ****   }
 195:C:/Renesas/e2studio_2021_01_workspace_RZA2M_ANPR/ANPR_RZA2M_GR_MANGO/src/tensorflow_lite/tensorflow/lite/kernels/internal\types.h **** 
 196:C:/Renesas/e2studio_2021_01_workspace_RZA2M_ANPR/ANPR_RZA2M_GR_MANGO/src/tensorflow_lite/tensorflow/lite/kernels/internal\types.h ****   bool operator==(const RuntimeShape& comp) const {
 197:C:/Renesas/e2studio_2021_01_workspace_RZA2M_ANPR/ANPR_RZA2M_GR_MANGO/src/tensorflow_lite/tensorflow/lite/kernels/internal\types.h ****     return this->size_ == comp.size_ &&
 198:C:/Renesas/e2studio_2021_01_workspace_RZA2M_ANPR/ANPR_RZA2M_GR_MANGO/src/tensorflow_lite/tensorflow/lite/kernels/internal\types.h ****            std::memcmp(DimsData(), comp.DimsData(), size_ * sizeof(int32_t)) ==
 199:C:/Renesas/e2studio_2021_01_workspace_RZA2M_ANPR/ANPR_RZA2M_GR_MANGO/src/tensorflow_lite/tensorflow/lite/kernels/internal\types.h ****                0;
 200:C:/Renesas/e2studio_2021_01_workspace_RZA2M_ANPR/ANPR_RZA2M_GR_MANGO/src/tensorflow_lite/tensorflow/lite/kernels/internal\types.h ****   }
 201:C:/Renesas/e2studio_2021_01_workspace_RZA2M_ANPR/ANPR_RZA2M_GR_MANGO/src/tensorflow_lite/tensorflow/lite/kernels/internal\types.h **** 
 202:C:/Renesas/e2studio_2021_01_workspace_RZA2M_ANPR/ANPR_RZA2M_GR_MANGO/src/tensorflow_lite/tensorflow/lite/kernels/internal\types.h ****   ~RuntimeShape() {
 203:C:/Renesas/e2studio_2021_01_workspace_RZA2M_ANPR/ANPR_RZA2M_GR_MANGO/src/tensorflow_lite/tensorflow/lite/kernels/internal\types.h ****     if (size_ > kMaxSmallSize) {
 204:C:/Renesas/e2studio_2021_01_workspace_RZA2M_ANPR/ANPR_RZA2M_GR_MANGO/src/tensorflow_lite/tensorflow/lite/kernels/internal\types.h **** #ifdef TF_LITE_STATIC_MEMORY
 205:C:/Renesas/e2studio_2021_01_workspace_RZA2M_ANPR/ANPR_RZA2M_GR_MANGO/src/tensorflow_lite/tensorflow/lite/kernels/internal\types.h ****       TFLITE_CHECK(false && "No shape resizing supported on this platform");
 206:C:/Renesas/e2studio_2021_01_workspace_RZA2M_ANPR/ANPR_RZA2M_GR_MANGO/src/tensorflow_lite/tensorflow/lite/kernels/internal\types.h **** #else  // TF_LITE_STATIC_MEMORY
 207:C:/Renesas/e2studio_2021_01_workspace_RZA2M_ANPR/ANPR_RZA2M_GR_MANGO/src/tensorflow_lite/tensorflow/lite/kernels/internal\types.h ****       delete[] dims_pointer_;
 208:C:/Renesas/e2studio_2021_01_workspace_RZA2M_ANPR/ANPR_RZA2M_GR_MANGO/src/tensorflow_lite/tensorflow/lite/kernels/internal\types.h **** #endif  // TF_LITE_STATIC_MEMORY
 209:C:/Renesas/e2studio_2021_01_workspace_RZA2M_ANPR/ANPR_RZA2M_GR_MANGO/src/tensorflow_lite/tensorflow/lite/kernels/internal\types.h ****     }
 210:C:/Renesas/e2studio_2021_01_workspace_RZA2M_ANPR/ANPR_RZA2M_GR_MANGO/src/tensorflow_lite/tensorflow/lite/kernels/internal\types.h ****   }
 211:C:/Renesas/e2studio_2021_01_workspace_RZA2M_ANPR/ANPR_RZA2M_GR_MANGO/src/tensorflow_lite/tensorflow/lite/kernels/internal\types.h **** 
 212:C:/Renesas/e2studio_2021_01_workspace_RZA2M_ANPR/ANPR_RZA2M_GR_MANGO/src/tensorflow_lite/tensorflow/lite/kernels/internal\types.h ****   inline int32_t DimensionsCount() const { return size_; }
 213:C:/Renesas/e2studio_2021_01_workspace_RZA2M_ANPR/ANPR_RZA2M_GR_MANGO/src/tensorflow_lite/tensorflow/lite/kernels/internal\types.h ****   inline int32_t Dims(int i) const {
 214:C:/Renesas/e2studio_2021_01_workspace_RZA2M_ANPR/ANPR_RZA2M_GR_MANGO/src/tensorflow_lite/tensorflow/lite/kernels/internal\types.h ****     TFLITE_DCHECK_GE(i, 0);
 215:C:/Renesas/e2studio_2021_01_workspace_RZA2M_ANPR/ANPR_RZA2M_GR_MANGO/src/tensorflow_lite/tensorflow/lite/kernels/internal\types.h ****     TFLITE_DCHECK_LT(i, size_);
 216:C:/Renesas/e2studio_2021_01_workspace_RZA2M_ANPR/ANPR_RZA2M_GR_MANGO/src/tensorflow_lite/tensorflow/lite/kernels/internal\types.h ****     return size_ > kMaxSmallSize ? dims_pointer_[i] : dims_[i];
 217:C:/Renesas/e2studio_2021_01_workspace_RZA2M_ANPR/ANPR_RZA2M_GR_MANGO/src/tensorflow_lite/tensorflow/lite/kernels/internal\types.h ****   }
 218:C:/Renesas/e2studio_2021_01_workspace_RZA2M_ANPR/ANPR_RZA2M_GR_MANGO/src/tensorflow_lite/tensorflow/lite/kernels/internal\types.h ****   inline void SetDim(int i, int32_t val) {
 219:C:/Renesas/e2studio_2021_01_workspace_RZA2M_ANPR/ANPR_RZA2M_GR_MANGO/src/tensorflow_lite/tensorflow/lite/kernels/internal\types.h ****     TFLITE_DCHECK_GE(i, 0);
 220:C:/Renesas/e2studio_2021_01_workspace_RZA2M_ANPR/ANPR_RZA2M_GR_MANGO/src/tensorflow_lite/tensorflow/lite/kernels/internal\types.h ****     TFLITE_DCHECK_LT(i, size_);
 221:C:/Renesas/e2studio_2021_01_workspace_RZA2M_ANPR/ANPR_RZA2M_GR_MANGO/src/tensorflow_lite/tensorflow/lite/kernels/internal\types.h ****     if (size_ > kMaxSmallSize) {
 222:C:/Renesas/e2studio_2021_01_workspace_RZA2M_ANPR/ANPR_RZA2M_GR_MANGO/src/tensorflow_lite/tensorflow/lite/kernels/internal\types.h ****       dims_pointer_[i] = val;
 223:C:/Renesas/e2studio_2021_01_workspace_RZA2M_ANPR/ANPR_RZA2M_GR_MANGO/src/tensorflow_lite/tensorflow/lite/kernels/internal\types.h ****     } else {
 224:C:/Renesas/e2studio_2021_01_workspace_RZA2M_ANPR/ANPR_RZA2M_GR_MANGO/src/tensorflow_lite/tensorflow/lite/kernels/internal\types.h ****       dims_[i] = val;
 225:C:/Renesas/e2studio_2021_01_workspace_RZA2M_ANPR/ANPR_RZA2M_GR_MANGO/src/tensorflow_lite/tensorflow/lite/kernels/internal\types.h ****     }
 226:C:/Renesas/e2studio_2021_01_workspace_RZA2M_ANPR/ANPR_RZA2M_GR_MANGO/src/tensorflow_lite/tensorflow/lite/kernels/internal\types.h ****   }
 227:C:/Renesas/e2studio_2021_01_workspace_RZA2M_ANPR/ANPR_RZA2M_GR_MANGO/src/tensorflow_lite/tensorflow/lite/kernels/internal\types.h **** 
 228:C:/Renesas/e2studio_2021_01_workspace_RZA2M_ANPR/ANPR_RZA2M_GR_MANGO/src/tensorflow_lite/tensorflow/lite/kernels/internal\types.h ****   inline int32_t* DimsData() {
 229:C:/Renesas/e2studio_2021_01_workspace_RZA2M_ANPR/ANPR_RZA2M_GR_MANGO/src/tensorflow_lite/tensorflow/lite/kernels/internal\types.h ****     return size_ > kMaxSmallSize ? dims_pointer_ : dims_;
 230:C:/Renesas/e2studio_2021_01_workspace_RZA2M_ANPR/ANPR_RZA2M_GR_MANGO/src/tensorflow_lite/tensorflow/lite/kernels/internal\types.h ****   }
 231:C:/Renesas/e2studio_2021_01_workspace_RZA2M_ANPR/ANPR_RZA2M_GR_MANGO/src/tensorflow_lite/tensorflow/lite/kernels/internal\types.h ****   inline const int32_t* DimsData() const {
 232:C:/Renesas/e2studio_2021_01_workspace_RZA2M_ANPR/ANPR_RZA2M_GR_MANGO/src/tensorflow_lite/tensorflow/lite/kernels/internal\types.h ****     return size_ > kMaxSmallSize ? dims_pointer_ : dims_;
 233:C:/Renesas/e2studio_2021_01_workspace_RZA2M_ANPR/ANPR_RZA2M_GR_MANGO/src/tensorflow_lite/tensorflow/lite/kernels/internal\types.h ****   }
 234:C:/Renesas/e2studio_2021_01_workspace_RZA2M_ANPR/ANPR_RZA2M_GR_MANGO/src/tensorflow_lite/tensorflow/lite/kernels/internal\types.h ****   // The caller must ensure that the shape is no bigger than 5-D.
 235:C:/Renesas/e2studio_2021_01_workspace_RZA2M_ANPR/ANPR_RZA2M_GR_MANGO/src/tensorflow_lite/tensorflow/lite/kernels/internal\types.h ****   inline const int32_t* DimsDataUpTo5D() const { return dims_; }
 236:C:/Renesas/e2studio_2021_01_workspace_RZA2M_ANPR/ANPR_RZA2M_GR_MANGO/src/tensorflow_lite/tensorflow/lite/kernels/internal\types.h **** 
 237:C:/Renesas/e2studio_2021_01_workspace_RZA2M_ANPR/ANPR_RZA2M_GR_MANGO/src/tensorflow_lite/tensorflow/lite/kernels/internal\types.h ****   inline void Resize(int dimensions_count) {
 238:C:/Renesas/e2studio_2021_01_workspace_RZA2M_ANPR/ANPR_RZA2M_GR_MANGO/src/tensorflow_lite/tensorflow/lite/kernels/internal\types.h ****     if (size_ > kMaxSmallSize) {
 239:C:/Renesas/e2studio_2021_01_workspace_RZA2M_ANPR/ANPR_RZA2M_GR_MANGO/src/tensorflow_lite/tensorflow/lite/kernels/internal\types.h **** #ifdef TF_LITE_STATIC_MEMORY
 240:C:/Renesas/e2studio_2021_01_workspace_RZA2M_ANPR/ANPR_RZA2M_GR_MANGO/src/tensorflow_lite/tensorflow/lite/kernels/internal\types.h ****       TFLITE_CHECK(false && "No shape resizing supported on this platform");
 241:C:/Renesas/e2studio_2021_01_workspace_RZA2M_ANPR/ANPR_RZA2M_GR_MANGO/src/tensorflow_lite/tensorflow/lite/kernels/internal\types.h **** #else  // TF_LITE_STATIC_MEMORY
 242:C:/Renesas/e2studio_2021_01_workspace_RZA2M_ANPR/ANPR_RZA2M_GR_MANGO/src/tensorflow_lite/tensorflow/lite/kernels/internal\types.h ****       delete[] dims_pointer_;
 243:C:/Renesas/e2studio_2021_01_workspace_RZA2M_ANPR/ANPR_RZA2M_GR_MANGO/src/tensorflow_lite/tensorflow/lite/kernels/internal\types.h **** #endif  // TF_LITE_STATIC_MEMORY
 244:C:/Renesas/e2studio_2021_01_workspace_RZA2M_ANPR/ANPR_RZA2M_GR_MANGO/src/tensorflow_lite/tensorflow/lite/kernels/internal\types.h ****     }
 245:C:/Renesas/e2studio_2021_01_workspace_RZA2M_ANPR/ANPR_RZA2M_GR_MANGO/src/tensorflow_lite/tensorflow/lite/kernels/internal\types.h ****     size_ = dimensions_count;
 246:C:/Renesas/e2studio_2021_01_workspace_RZA2M_ANPR/ANPR_RZA2M_GR_MANGO/src/tensorflow_lite/tensorflow/lite/kernels/internal\types.h ****     if (dimensions_count > kMaxSmallSize) {
 572              		.loc 4 246 0
 573 04dc 050052E3 		cmp	r2, #5
 245:C:/Renesas/e2studio_2021_01_workspace_RZA2M_ANPR/ANPR_RZA2M_GR_MANGO/src/tensorflow_lite/tensorflow/lite/kernels/internal\types.h ****     if (dimensions_count > kMaxSmallSize) {
 574              		.loc 4 245 0
 575 04e0 38208DE5 		str	r2, [sp, #56]
 576              		.loc 4 246 0
 577 04e4 410100DA 		ble	.L29
 578              	.LVL79:
 579              	.LBB487:
 580              	.LBB488:
 247:C:/Renesas/e2studio_2021_01_workspace_RZA2M_ANPR/ANPR_RZA2M_GR_MANGO/src/tensorflow_lite/tensorflow/lite/kernels/internal\types.h **** #ifdef TF_LITE_STATIC_MEMORY
 248:C:/Renesas/e2studio_2021_01_workspace_RZA2M_ANPR/ANPR_RZA2M_GR_MANGO/src/tensorflow_lite/tensorflow/lite/kernels/internal\types.h ****       TFLITE_CHECK(false && "No shape resizing supported on this platform");
 249:C:/Renesas/e2studio_2021_01_workspace_RZA2M_ANPR/ANPR_RZA2M_GR_MANGO/src/tensorflow_lite/tensorflow/lite/kernels/internal\types.h **** #else  // TF_LITE_STATIC_MEMORY
 250:C:/Renesas/e2studio_2021_01_workspace_RZA2M_ANPR/ANPR_RZA2M_GR_MANGO/src/tensorflow_lite/tensorflow/lite/kernels/internal\types.h ****       dims_pointer_ = new int32_t[dimensions_count];
 581              		.loc 4 250 0
 582 04e8 2E0272E3 		cmn	r2, #-536870910
 583 04ec D50200CA 		bgt	.L30
 584 04f0 0241A0E1 		lsl	r4, r2, #2
 585 04f4 0400A0E1 		mov	r0, r4
 586 04f8 FEFFFFEB 		bl	_Znaj
 587              	.LVL80:
 588 04fc 3C008DE5 		str	r0, [sp, #60]
 589              	.LVL81:
 590              	.L31:
 591              	.LBE488:
 592              	.LBE487:
 593              	.LBE486:
 594              	.LBE485:
 251:C:/Renesas/e2studio_2021_01_workspace_RZA2M_ANPR/ANPR_RZA2M_GR_MANGO/src/tensorflow_lite/tensorflow/lite/kernels/internal\types.h **** #endif  // TF_LITE_STATIC_MEMORY
 252:C:/Renesas/e2studio_2021_01_workspace_RZA2M_ANPR/ANPR_RZA2M_GR_MANGO/src/tensorflow_lite/tensorflow/lite/kernels/internal\types.h ****     }
 253:C:/Renesas/e2studio_2021_01_workspace_RZA2M_ANPR/ANPR_RZA2M_GR_MANGO/src/tensorflow_lite/tensorflow/lite/kernels/internal\types.h ****   }
 254:C:/Renesas/e2studio_2021_01_workspace_RZA2M_ANPR/ANPR_RZA2M_GR_MANGO/src/tensorflow_lite/tensorflow/lite/kernels/internal\types.h **** 
 255:C:/Renesas/e2studio_2021_01_workspace_RZA2M_ANPR/ANPR_RZA2M_GR_MANGO/src/tensorflow_lite/tensorflow/lite/kernels/internal\types.h ****   inline void ReplaceWith(int dimensions_count, const int32_t* dims_data) {
 256:C:/Renesas/e2studio_2021_01_workspace_RZA2M_ANPR/ANPR_RZA2M_GR_MANGO/src/tensorflow_lite/tensorflow/lite/kernels/internal\types.h ****     Resize(dimensions_count);
 257:C:/Renesas/e2studio_2021_01_workspace_RZA2M_ANPR/ANPR_RZA2M_GR_MANGO/src/tensorflow_lite/tensorflow/lite/kernels/internal\types.h ****     int32_t* dst_dims = DimsData();
 258:C:/Renesas/e2studio_2021_01_workspace_RZA2M_ANPR/ANPR_RZA2M_GR_MANGO/src/tensorflow_lite/tensorflow/lite/kernels/internal\types.h ****     std::memcpy(dst_dims, dims_data, dimensions_count * sizeof(int32_t));
 595              		.loc 4 258 0
 596 0500 041085E2 		add	r1, r5, #4
 597 0504 0420A0E1 		mov	r2, r4
 598 0508 FEFFFFEB 		bl	memcpy
 599              	.LVL82:
 600              	.LBE484:
 601              	.LBE483:
 602              	.LBE482:
 603              	.LBE481:
 604              	.LBE480:
 605              	.LBB503:
 606              	.LBB504:
 607              	.LBB505:
 608              	.LBB506:
 232:C:/Renesas/e2studio_2021_01_workspace_RZA2M_ANPR/ANPR_RZA2M_GR_MANGO/src/tensorflow_lite/tensorflow/lite/kernels/internal\types.h ****   }
 609              		.loc 4 232 0
 610 050c 38109DE5 		ldr	r1, [sp, #56]
 611 0510 050051E3 		cmp	r1, #5
 612 0514 330100CA 		bgt	.L100
 613              	.LVL83:
 614              	.LBE506:
 615              	.LBE505:
 616              	.LBB510:
 259:C:/Renesas/e2studio_2021_01_workspace_RZA2M_ANPR/ANPR_RZA2M_GR_MANGO/src/tensorflow_lite/tensorflow/lite/kernels/internal\types.h ****   }
 260:C:/Renesas/e2studio_2021_01_workspace_RZA2M_ANPR/ANPR_RZA2M_GR_MANGO/src/tensorflow_lite/tensorflow/lite/kernels/internal\types.h **** 
 261:C:/Renesas/e2studio_2021_01_workspace_RZA2M_ANPR/ANPR_RZA2M_GR_MANGO/src/tensorflow_lite/tensorflow/lite/kernels/internal\types.h ****   template <typename T>
 262:C:/Renesas/e2studio_2021_01_workspace_RZA2M_ANPR/ANPR_RZA2M_GR_MANGO/src/tensorflow_lite/tensorflow/lite/kernels/internal\types.h ****   inline void BuildFrom(const T& src_iterable) {
 263:C:/Renesas/e2studio_2021_01_workspace_RZA2M_ANPR/ANPR_RZA2M_GR_MANGO/src/tensorflow_lite/tensorflow/lite/kernels/internal\types.h ****     const int dimensions_count =
 264:C:/Renesas/e2studio_2021_01_workspace_RZA2M_ANPR/ANPR_RZA2M_GR_MANGO/src/tensorflow_lite/tensorflow/lite/kernels/internal\types.h ****         std::distance(src_iterable.begin(), src_iterable.end());
 265:C:/Renesas/e2studio_2021_01_workspace_RZA2M_ANPR/ANPR_RZA2M_GR_MANGO/src/tensorflow_lite/tensorflow/lite/kernels/internal\types.h ****     Resize(dimensions_count);
 266:C:/Renesas/e2studio_2021_01_workspace_RZA2M_ANPR/ANPR_RZA2M_GR_MANGO/src/tensorflow_lite/tensorflow/lite/kernels/internal\types.h ****     int32_t* data = DimsData();
 267:C:/Renesas/e2studio_2021_01_workspace_RZA2M_ANPR/ANPR_RZA2M_GR_MANGO/src/tensorflow_lite/tensorflow/lite/kernels/internal\types.h ****     for (auto it : src_iterable) {
 268:C:/Renesas/e2studio_2021_01_workspace_RZA2M_ANPR/ANPR_RZA2M_GR_MANGO/src/tensorflow_lite/tensorflow/lite/kernels/internal\types.h ****       *data = it;
 269:C:/Renesas/e2studio_2021_01_workspace_RZA2M_ANPR/ANPR_RZA2M_GR_MANGO/src/tensorflow_lite/tensorflow/lite/kernels/internal\types.h ****       ++data;
 270:C:/Renesas/e2studio_2021_01_workspace_RZA2M_ANPR/ANPR_RZA2M_GR_MANGO/src/tensorflow_lite/tensorflow/lite/kernels/internal\types.h ****     }
 271:C:/Renesas/e2studio_2021_01_workspace_RZA2M_ANPR/ANPR_RZA2M_GR_MANGO/src/tensorflow_lite/tensorflow/lite/kernels/internal\types.h ****   }
 272:C:/Renesas/e2studio_2021_01_workspace_RZA2M_ANPR/ANPR_RZA2M_GR_MANGO/src/tensorflow_lite/tensorflow/lite/kernels/internal\types.h **** 
 273:C:/Renesas/e2studio_2021_01_workspace_RZA2M_ANPR/ANPR_RZA2M_GR_MANGO/src/tensorflow_lite/tensorflow/lite/kernels/internal\types.h ****   // This will probably be factored out. Old code made substantial use of 4-D
 274:C:/Renesas/e2studio_2021_01_workspace_RZA2M_ANPR/ANPR_RZA2M_GR_MANGO/src/tensorflow_lite/tensorflow/lite/kernels/internal\types.h ****   // shapes, and so this function is used to extend smaller shapes. Note that
 275:C:/Renesas/e2studio_2021_01_workspace_RZA2M_ANPR/ANPR_RZA2M_GR_MANGO/src/tensorflow_lite/tensorflow/lite/kernels/internal\types.h ****   // (a) as Dims<4>-dependent code is eliminated, the reliance on this should be
 276:C:/Renesas/e2studio_2021_01_workspace_RZA2M_ANPR/ANPR_RZA2M_GR_MANGO/src/tensorflow_lite/tensorflow/lite/kernels/internal\types.h ****   // reduced, and (b) some kernels are stricly 4-D, but then the shapes of their
 277:C:/Renesas/e2studio_2021_01_workspace_RZA2M_ANPR/ANPR_RZA2M_GR_MANGO/src/tensorflow_lite/tensorflow/lite/kernels/internal\types.h ****   // inputs should already be 4-D, so this function should not be needed.
 278:C:/Renesas/e2studio_2021_01_workspace_RZA2M_ANPR/ANPR_RZA2M_GR_MANGO/src/tensorflow_lite/tensorflow/lite/kernels/internal\types.h ****   inline static RuntimeShape ExtendedShape(int new_shape_size,
 279:C:/Renesas/e2studio_2021_01_workspace_RZA2M_ANPR/ANPR_RZA2M_GR_MANGO/src/tensorflow_lite/tensorflow/lite/kernels/internal\types.h ****                                            const RuntimeShape& shape) {
 280:C:/Renesas/e2studio_2021_01_workspace_RZA2M_ANPR/ANPR_RZA2M_GR_MANGO/src/tensorflow_lite/tensorflow/lite/kernels/internal\types.h ****     return RuntimeShape(new_shape_size, shape, 1);
 281:C:/Renesas/e2studio_2021_01_workspace_RZA2M_ANPR/ANPR_RZA2M_GR_MANGO/src/tensorflow_lite/tensorflow/lite/kernels/internal\types.h ****   }
 282:C:/Renesas/e2studio_2021_01_workspace_RZA2M_ANPR/ANPR_RZA2M_GR_MANGO/src/tensorflow_lite/tensorflow/lite/kernels/internal\types.h **** 
 283:C:/Renesas/e2studio_2021_01_workspace_RZA2M_ANPR/ANPR_RZA2M_GR_MANGO/src/tensorflow_lite/tensorflow/lite/kernels/internal\types.h ****   inline void BuildFrom(const std::initializer_list<int> init_list) {
 284:C:/Renesas/e2studio_2021_01_workspace_RZA2M_ANPR/ANPR_RZA2M_GR_MANGO/src/tensorflow_lite/tensorflow/lite/kernels/internal\types.h ****     BuildFrom<const std::initializer_list<int>>(init_list);
 285:C:/Renesas/e2studio_2021_01_workspace_RZA2M_ANPR/ANPR_RZA2M_GR_MANGO/src/tensorflow_lite/tensorflow/lite/kernels/internal\types.h ****   }
 286:C:/Renesas/e2studio_2021_01_workspace_RZA2M_ANPR/ANPR_RZA2M_GR_MANGO/src/tensorflow_lite/tensorflow/lite/kernels/internal\types.h **** 
 287:C:/Renesas/e2studio_2021_01_workspace_RZA2M_ANPR/ANPR_RZA2M_GR_MANGO/src/tensorflow_lite/tensorflow/lite/kernels/internal\types.h ****   // Returns the total count of elements, that is the size when flattened into a
 288:C:/Renesas/e2studio_2021_01_workspace_RZA2M_ANPR/ANPR_RZA2M_GR_MANGO/src/tensorflow_lite/tensorflow/lite/kernels/internal\types.h ****   // vector.
 289:C:/Renesas/e2studio_2021_01_workspace_RZA2M_ANPR/ANPR_RZA2M_GR_MANGO/src/tensorflow_lite/tensorflow/lite/kernels/internal\types.h ****   inline int FlatSize() const {
 290:C:/Renesas/e2studio_2021_01_workspace_RZA2M_ANPR/ANPR_RZA2M_GR_MANGO/src/tensorflow_lite/tensorflow/lite/kernels/internal\types.h ****     int buffer_size = 1;
 291:C:/Renesas/e2studio_2021_01_workspace_RZA2M_ANPR/ANPR_RZA2M_GR_MANGO/src/tensorflow_lite/tensorflow/lite/kernels/internal\types.h ****     const int* dims_data = reinterpret_cast<const int*>(DimsData());
 292:C:/Renesas/e2studio_2021_01_workspace_RZA2M_ANPR/ANPR_RZA2M_GR_MANGO/src/tensorflow_lite/tensorflow/lite/kernels/internal\types.h ****     for (int i = 0; i < size_; i++) {
 617              		.loc 4 292 0
 618 0518 000051E3 		cmp	r1, #0
 619              	.LBE510:
 620              	.LBB511:
 621              	.LBB507:
 232:C:/Renesas/e2studio_2021_01_workspace_RZA2M_ANPR/ANPR_RZA2M_GR_MANGO/src/tensorflow_lite/tensorflow/lite/kernels/internal\types.h ****   }
 622              		.loc 4 232 0
 623 051c 3C208DC2 		addgt	r2, sp, #60
 624              	.LBE507:
 625              	.LBE511:
 626              	.LBB512:
 627              		.loc 4 292 0
 628 0520 4A0200DA 		ble	.L190
 629              	.L97:
 630 0524 010051E3 		cmp	r1, #1
 631 0528 5231A0E7 		sbfx	r3, r2, #2, #1
 632 052c 0160A0A1 		movge	r6, r1
 633 0530 0160A0B3 		movlt	r6, #1
 634 0534 033003E2 		and	r3, r3, #3
 635 0538 060053E1 		cmp	r3, r6
 636 053c 0630A021 		movcs	r3, r6
 637 0540 080056E3 		cmp	r6, #8
 638              	.LBE512:
 639              	.LBB513:
 640              	.LBB508:
 232:C:/Renesas/e2studio_2021_01_workspace_RZA2M_ANPR/ANPR_RZA2M_GR_MANGO/src/tensorflow_lite/tensorflow/lite/kernels/internal\types.h ****   }
 641              		.loc 4 232 0
 642 0544 0630A0D1 		movle	r3, r6
 643 0548 0D0200CA 		bgt	.L191
 644              	.L32:
 645 054c 010053E3 		cmp	r3, #1
 646              	.LBE508:
 647              	.LBE513:
 648              	.LBB514:
 293:C:/Renesas/e2studio_2021_01_workspace_RZA2M_ANPR/ANPR_RZA2M_GR_MANGO/src/tensorflow_lite/tensorflow/lite/kernels/internal\types.h ****       buffer_size *= dims_data[i];
 649              		.loc 4 293 0
 650 0550 004092E5 		ldr	r4, [r2]
 651              	.LVL84:
 652 0554 2801000A 		beq	.L112
 653 0558 040092E5 		ldr	r0, [r2, #4]
 654 055c 020053E3 		cmp	r3, #2
 655 0560 900404E0 		mul	r4, r0, r4
 656              	.LVL85:
 657 0564 2401000A 		beq	.L112
 658 0568 080092E5 		ldr	r0, [r2, #8]
 659 056c 030053E3 		cmp	r3, #3
 660 0570 900404E0 		mul	r4, r0, r4
 661              	.LVL86:
 662 0574 2001000A 		beq	.L112
 663 0578 0C0092E5 		ldr	r0, [r2, #12]
 664 057c 040053E3 		cmp	r3, #4
 665 0580 900404E0 		mul	r4, r0, r4
 666              	.LVL87:
 667 0584 1C01000A 		beq	.L112
 668 0588 100092E5 		ldr	r0, [r2, #16]
 669 058c 050053E3 		cmp	r3, #5
 670 0590 900404E0 		mul	r4, r0, r4
 671              	.LVL88:
 672 0594 1801000A 		beq	.L112
 673 0598 140092E5 		ldr	r0, [r2, #20]
 674 059c 060053E3 		cmp	r3, #6
 675 05a0 900404E0 		mul	r4, r0, r4
 676              	.LVL89:
 677 05a4 1401000A 		beq	.L112
 678 05a8 180092E5 		ldr	r0, [r2, #24]
 679 05ac 070053E3 		cmp	r3, #7
 680 05b0 900404E0 		mul	r4, r0, r4
 681              	.LVL90:
 682 05b4 1001000A 		beq	.L112
 683 05b8 1CC092E5 		ldr	ip, [r2, #28]
 292:C:/Renesas/e2studio_2021_01_workspace_RZA2M_ANPR/ANPR_RZA2M_GR_MANGO/src/tensorflow_lite/tensorflow/lite/kernels/internal\types.h ****       buffer_size *= dims_data[i];
 684              		.loc 4 292 0
 685 05bc 0800A0E3 		mov	r0, #8
 686              		.loc 4 293 0
 687 05c0 9C0404E0 		mul	r4, ip, r4
 688              	.LVL91:
 689              	.L34:
 690 05c4 030056E1 		cmp	r6, r3
 691 05c8 2A00000A 		beq	.L35
 692              	.LVL92:
 693              	.L33:
 694 05cc 000051E3 		cmp	r1, #0
 695 05d0 036046E0 		sub	r6, r6, r3
 696 05d4 01E041C2 		subgt	lr, r1, #1
 697 05d8 00E0A0D3 		movle	lr, #0
 698 05dc 04C046E2 		sub	ip, r6, #4
 699 05e0 2CC1A0E1 		lsr	ip, ip, #2
 700 05e4 03E04EE0 		sub	lr, lr, r3
 701 05e8 02005EE3 		cmp	lr, #2
 702 05ec 01C08CE2 		add	ip, ip, #1
 703 05f0 0C51A0E1 		lsl	r5, ip, #2
 704 05f4 1200009A 		bls	.L36
 705 05f8 033182E0 		add	r3, r2, r3, lsl #2
 292:C:/Renesas/e2studio_2021_01_workspace_RZA2M_ANPR/ANPR_RZA2M_GR_MANGO/src/tensorflow_lite/tensorflow/lite/kernels/internal\types.h ****       buffer_size *= dims_data[i];
 706              		.loc 4 292 0
 707 05fc 5100C0F2 		vmov.i32	q8, #1  @ v4si
 708 0600 00E0A0E3 		mov	lr, #0
 709              	.L38:
 710 0604 01E08EE2 		add	lr, lr, #1
 711              		.loc 4 293 0
 712 0608 DF2A63F4 		vld1.64	{d18-d19}, [r3:64]
 713 060c 0E005CE1 		cmp	ip, lr
 714 0610 103083E2 		add	r3, r3, #16
 715 0614 F20960F2 		vmul.i32	q8, q8, q9
 716 0618 F9FFFF8A 		bhi	.L38
 717 061c 050056E1 		cmp	r6, r5
 718 0620 050080E0 		add	r0, r0, r5
 719 0624 5020C0F2 		vmov.i32	q9, #0  @ v4si
 720 0628 E248F0F2 		vext.32	q10, q8, q9, #2
 721 062c F40960F2 		vmul.i32	q8, q8, q10
 722 0630 E224F0F2 		vext.32	q9, q8, q9, #1
 723 0634 F20960F2 		vmul.i32	q8, q8, q9
 724 0638 903B10EE 		vmov.32	r3, d16[0]
 725 063c 930404E0 		mul	r4, r3, r4
 726 0640 0C00000A 		beq	.L35
 727              	.L36:
 728              	.LVL93:
 729 0644 00C192E7 		ldr	ip, [r2, r0, lsl #2]
 292:C:/Renesas/e2studio_2021_01_workspace_RZA2M_ANPR/ANPR_RZA2M_GR_MANGO/src/tensorflow_lite/tensorflow/lite/kernels/internal\types.h ****       buffer_size *= dims_data[i];
 730              		.loc 4 292 0
 731 0648 013080E2 		add	r3, r0, #1
 732 064c 010053E1 		cmp	r3, r1
 733              		.loc 4 293 0
 734 0650 0031A0E1 		lsl	r3, r0, #2
 735 0654 9C0404E0 		mul	r4, ip, r4
 736              	.LVL94:
 292:C:/Renesas/e2studio_2021_01_workspace_RZA2M_ANPR/ANPR_RZA2M_GR_MANGO/src/tensorflow_lite/tensorflow/lite/kernels/internal\types.h ****       buffer_size *= dims_data[i];
 737              		.loc 4 292 0
 738 0658 060000AA 		bge	.L35
 739              		.loc 4 293 0
 740 065c 032082E0 		add	r2, r2, r3
 292:C:/Renesas/e2studio_2021_01_workspace_RZA2M_ANPR/ANPR_RZA2M_GR_MANGO/src/tensorflow_lite/tensorflow/lite/kernels/internal\types.h ****       buffer_size *= dims_data[i];
 741              		.loc 4 292 0
 742 0660 020080E2 		add	r0, r0, #2
 743              		.loc 4 293 0
 744 0664 043092E5 		ldr	r3, [r2, #4]
 292:C:/Renesas/e2studio_2021_01_workspace_RZA2M_ANPR/ANPR_RZA2M_GR_MANGO/src/tensorflow_lite/tensorflow/lite/kernels/internal\types.h ****       buffer_size *= dims_data[i];
 745              		.loc 4 292 0
 746 0668 010050E1 		cmp	r0, r1
 747              		.loc 4 293 0
 748 066c 930404E0 		mul	r4, r3, r4
 749              	.LVL95:
 292:C:/Renesas/e2studio_2021_01_workspace_RZA2M_ANPR/ANPR_RZA2M_GR_MANGO/src/tensorflow_lite/tensorflow/lite/kernels/internal\types.h ****       buffer_size *= dims_data[i];
 750              		.loc 4 292 0
 751              		.loc 4 293 0
 752 0670 083092B5 		ldrlt	r3, [r2, #8]
 753 0674 930404B0 		mullt	r4, r3, r4
 754              	.LVL96:
 755              	.L35:
 756              	.LBE514:
 757              	.LBE504:
 758              	.LBE503:
  74:../src/tensorflow_lite/tensorflow/lite/micro/kernels/pad.cc ****                     output->dims->size * 2);
 759              		.loc 1 74 0
 760 0678 20309DE5 		ldr	r3, [sp, #32]
 761              	.LBB522:
 762              	.LBB523:
 203:C:/Renesas/e2studio_2021_01_workspace_RZA2M_ANPR/ANPR_RZA2M_GR_MANGO/src/tensorflow_lite/tensorflow/lite/kernels/internal\types.h **** #ifdef TF_LITE_STATIC_MEMORY
 763              		.loc 4 203 0
 764 067c 050051E3 		cmp	r1, #5
 765              	.LBE523:
 766              	.LBE522:
  74:../src/tensorflow_lite/tensorflow/lite/micro/kernels/pad.cc ****                     output->dims->size * 2);
 767              		.loc 1 74 0
 768 0680 083093E5 		ldr	r3, [r3, #8]
 769 0684 005093E5 		ldr	r5, [r3]
 770 0688 8550A0E1 		lsl	r5, r5, #1
 771              	.LVL97:
 772              	.LBB525:
 773              	.LBB524:
 203:C:/Renesas/e2studio_2021_01_workspace_RZA2M_ANPR/ANPR_RZA2M_GR_MANGO/src/tensorflow_lite/tensorflow/lite/kernels/internal\types.h **** #ifdef TF_LITE_STATIC_MEMORY
 774              		.loc 4 203 0
 775 068c 030000DA 		ble	.L42
 207:C:/Renesas/e2studio_2021_01_workspace_RZA2M_ANPR/ANPR_RZA2M_GR_MANGO/src/tensorflow_lite/tensorflow/lite/kernels/internal\types.h **** #endif  // TF_LITE_STATIC_MEMORY
 776              		.loc 4 207 0
 777 0690 3C009DE5 		ldr	r0, [sp, #60]
 778 0694 000050E3 		cmp	r0, #0
 779 0698 0000000A 		beq	.L42
 780 069c FEFFFFEB 		bl	_ZdaPv
 781              	.LVL98:
 782              	.L42:
 783              	.LBE524:
 784              	.LBE525:
  74:../src/tensorflow_lite/tensorflow/lite/micro/kernels/pad.cc ****                     output->dims->size * 2);
 785              		.loc 1 74 0
 786 06a0 040055E1 		cmp	r5, r4
 787              	.LBB526:
 788              	.LBB527:
  39:C:/Renesas/e2studio_2021_01_workspace_RZA2M_ANPR/ANPR_RZA2M_GR_MANGO/src/tensorflow_lite/tensorflow/lite/kernels/internal\tensor_ctypes.h ****   const int dims_size = dims->size;
 789              		.loc 3 39 0
 790 06a4 28309DE5 		ldr	r3, [sp, #40]
 791              	.LBE527:
 792              	.LBE526:
  74:../src/tensorflow_lite/tensorflow/lite/micro/kernels/pad.cc ****                     output->dims->size * 2);
 793              		.loc 1 74 0
 794 06a8 D500000A 		beq	.L43
 795              	.LBB544:
 796              	.LBB540:
  39:C:/Renesas/e2studio_2021_01_workspace_RZA2M_ANPR/ANPR_RZA2M_GR_MANGO/src/tensorflow_lite/tensorflow/lite/kernels/internal\tensor_ctypes.h ****   const int dims_size = dims->size;
 797              		.loc 3 39 0 discriminator 1
 798 06ac 086093E5 		ldr	r6, [r3, #8]
 799              	.LBE540:
 800              	.LBE544:
  74:../src/tensorflow_lite/tensorflow/lite/micro/kernels/pad.cc ****                     output->dims->size * 2);
 801              		.loc 1 74 0 discriminator 1
 802 06b0 18309DE5 		ldr	r3, [sp, #24]
 803              	.LBB545:
 804              	.LBB541:
 805              		.loc 3 40 0 discriminator 1
 806 06b4 002096E5 		ldr	r2, [r6]
 807              	.LBE541:
 808              	.LBE545:
  74:../src/tensorflow_lite/tensorflow/lite/micro/kernels/pad.cc ****                     output->dims->size * 2);
 809              		.loc 1 74 0 discriminator 1
 810 06b8 145093E5 		ldr	r5, [r3, #20]
 811              	.LVL99:
 812              	.LBB546:
 813              	.LBB542:
 814              	.LBB528:
 815              	.LBB529:
 816              	.LBB530:
 817              	.LBB531:
 818              	.LBB532:
 246:C:/Renesas/e2studio_2021_01_workspace_RZA2M_ANPR/ANPR_RZA2M_GR_MANGO/src/tensorflow_lite/tensorflow/lite/kernels/internal\types.h **** #ifdef TF_LITE_STATIC_MEMORY
 819              		.loc 4 246 0 discriminator 1
 820 06bc 050052E3 		cmp	r2, #5
 245:C:/Renesas/e2studio_2021_01_workspace_RZA2M_ANPR/ANPR_RZA2M_GR_MANGO/src/tensorflow_lite/tensorflow/lite/kernels/internal\types.h ****     if (dimensions_count > kMaxSmallSize) {
 821              		.loc 4 245 0 discriminator 1
 822 06c0 50208DE5 		str	r2, [sp, #80]
 246:C:/Renesas/e2studio_2021_01_workspace_RZA2M_ANPR/ANPR_RZA2M_GR_MANGO/src/tensorflow_lite/tensorflow/lite/kernels/internal\types.h **** #ifdef TF_LITE_STATIC_MEMORY
 823              		.loc 4 246 0 discriminator 1
 824 06c4 B30100DA 		ble	.L44
 825              	.LVL100:
 826              	.LBB533:
 827              	.LBB534:
 250:C:/Renesas/e2studio_2021_01_workspace_RZA2M_ANPR/ANPR_RZA2M_GR_MANGO/src/tensorflow_lite/tensorflow/lite/kernels/internal\types.h **** #endif  // TF_LITE_STATIC_MEMORY
 828              		.loc 4 250 0
 829 06c8 2E0272E3 		cmn	r2, #-536870910
 830 06cc 5D0200CA 		bgt	.L30
 831 06d0 0241A0E1 		lsl	r4, r2, #2
 832 06d4 0400A0E1 		mov	r0, r4
 833 06d8 FEFFFFEB 		bl	_Znaj
 834              	.LVL101:
 835              	.LEHE0:
 836 06dc 54008DE5 		str	r0, [sp, #84]
 837              	.LVL102:
 838              	.L45:
 839              	.LBE534:
 840              	.LBE533:
 841              	.LBE532:
 842              	.LBE531:
 258:C:/Renesas/e2studio_2021_01_workspace_RZA2M_ANPR/ANPR_RZA2M_GR_MANGO/src/tensorflow_lite/tensorflow/lite/kernels/internal\types.h ****   }
 843              		.loc 4 258 0
 844 06e0 0420A0E1 		mov	r2, r4
 845 06e4 041086E2 		add	r1, r6, #4
 846 06e8 FEFFFFEB 		bl	memcpy
 847              	.LVL103:
 848              	.LBE530:
 849              	.LBE529:
 850              	.LBE528:
 851              	.LBE542:
 852              	.LBE546:
 853              	.LBB547:
 854              	.LBB548:
 855              	.LBB549:
 856              	.LBB550:
 232:C:/Renesas/e2studio_2021_01_workspace_RZA2M_ANPR/ANPR_RZA2M_GR_MANGO/src/tensorflow_lite/tensorflow/lite/kernels/internal\types.h ****   }
 857              		.loc 4 232 0
 858 06ec 50409DE5 		ldr	r4, [sp, #80]
 859 06f0 050054E3 		cmp	r4, #5
 860 06f4 B80100DA 		ble	.L46
 861 06f8 54009DE5 		ldr	r0, [sp, #84]
 862              	.LVL104:
 863              	.L47:
 864 06fc 5031A0E7 		sbfx	r3, r0, #2, #1
 865 0700 033003E2 		and	r3, r3, #3
 866 0704 040053E1 		cmp	r3, r4
 867 0708 0430A021 		movcs	r3, r4
 868 070c 080054E3 		cmp	r4, #8
 869 0710 0430A0D1 		movle	r3, r4
 870 0714 C90100CA 		bgt	.L192
 871              	.L49:
 872 0718 010053E3 		cmp	r3, #1
 873              	.LBE550:
 874              	.LBE549:
 875              	.LBB552:
 876              		.loc 4 293 0
 877 071c 00A090E5 		ldr	r10, [r0]
 878              	.LVL105:
 879 0720 B101000A 		beq	.L121
 880 0724 042090E5 		ldr	r2, [r0, #4]
 881 0728 020053E3 		cmp	r3, #2
 882 072c 920A0AE0 		mul	r10, r2, r10
 883              	.LVL106:
 884 0730 AD01000A 		beq	.L121
 885 0734 082090E5 		ldr	r2, [r0, #8]
 886              	.LVL107:
 887 0738 030053E3 		cmp	r3, #3
 888 073c 920A0AE0 		mul	r10, r2, r10
 889              	.LVL108:
 890 0740 A901000A 		beq	.L121
 891 0744 0C2090E5 		ldr	r2, [r0, #12]
 892              	.LVL109:
 893 0748 040053E3 		cmp	r3, #4
 894 074c 920A0AE0 		mul	r10, r2, r10
 895              	.LVL110:
 896 0750 A501000A 		beq	.L121
 897 0754 102090E5 		ldr	r2, [r0, #16]
 898              	.LVL111:
 899 0758 050053E3 		cmp	r3, #5
 900 075c 920A0AE0 		mul	r10, r2, r10
 901              	.LVL112:
 902 0760 A101000A 		beq	.L121
 903 0764 142090E5 		ldr	r2, [r0, #20]
 904              	.LVL113:
 905 0768 060053E3 		cmp	r3, #6
 906 076c 920A0AE0 		mul	r10, r2, r10
 907              	.LVL114:
 908 0770 9D01000A 		beq	.L121
 909 0774 182090E5 		ldr	r2, [r0, #24]
 910              	.LVL115:
 911 0778 070053E3 		cmp	r3, #7
 912 077c 920A0AE0 		mul	r10, r2, r10
 913              	.LVL116:
 914 0780 9901000A 		beq	.L121
 915 0784 1C1090E5 		ldr	r1, [r0, #28]
 916              	.LVL117:
 292:C:/Renesas/e2studio_2021_01_workspace_RZA2M_ANPR/ANPR_RZA2M_GR_MANGO/src/tensorflow_lite/tensorflow/lite/kernels/internal\types.h ****       buffer_size *= dims_data[i];
 917              		.loc 4 292 0
 918 0788 0820A0E3 		mov	r2, #8
 919              		.loc 4 293 0
 920 078c 910A0AE0 		mul	r10, r1, r10
 921              	.LVL118:
 922              	.L51:
 923 0790 030054E1 		cmp	r4, r3
 924 0794 2800000A 		beq	.L48
 925              	.L50:
 926 0798 03E044E0 		sub	lr, r4, r3
 927 079c 01C044E2 		sub	ip, r4, #1
 928 07a0 04104EE2 		sub	r1, lr, #4
 929 07a4 03C04CE0 		sub	ip, ip, r3
 930 07a8 2111A0E1 		lsr	r1, r1, #2
 931 07ac 02005CE3 		cmp	ip, #2
 932 07b0 011081E2 		add	r1, r1, #1
 933 07b4 0161A0E1 		lsl	r6, r1, #2
 934 07b8 1200009A 		bls	.L53
 935 07bc 033180E0 		add	r3, r0, r3, lsl #2
 292:C:/Renesas/e2studio_2021_01_workspace_RZA2M_ANPR/ANPR_RZA2M_GR_MANGO/src/tensorflow_lite/tensorflow/lite/kernels/internal\types.h ****       buffer_size *= dims_data[i];
 936              		.loc 4 292 0
 937 07c0 5120C0F2 		vmov.i32	q9, #1  @ v4si
 938 07c4 00C0A0E3 		mov	ip, #0
 939              	.L55:
 940 07c8 01C08CE2 		add	ip, ip, #1
 941              		.loc 4 293 0
 942 07cc DF0A63F4 		vld1.64	{d16-d17}, [r3:64]
 943 07d0 0C0051E1 		cmp	r1, ip
 944 07d4 103083E2 		add	r3, r3, #16
 945 07d8 F02962F2 		vmul.i32	q9, q9, q8
 946 07dc F9FFFF8A 		bhi	.L55
 947 07e0 0E0056E1 		cmp	r6, lr
 948 07e4 062082E0 		add	r2, r2, r6
 949 07e8 5000C0F2 		vmov.i32	q8, #0  @ v4si
 950 07ec E048F2F2 		vext.32	q10, q9, q8, #2
 951 07f0 F22964F2 		vmul.i32	q9, q10, q9
 952 07f4 E004F2F2 		vext.32	q8, q9, q8, #1
 953 07f8 F20960F2 		vmul.i32	q8, q8, q9
 954 07fc 903B10EE 		vmov.32	r3, d16[0]
 955 0800 930A0AE0 		mul	r10, r3, r10
 956 0804 0C00000A 		beq	.L48
 957              	.L53:
 958 0808 021190E7 		ldr	r1, [r0, r2, lsl #2]
 959              	.LVL119:
 292:C:/Renesas/e2studio_2021_01_workspace_RZA2M_ANPR/ANPR_RZA2M_GR_MANGO/src/tensorflow_lite/tensorflow/lite/kernels/internal\types.h ****       buffer_size *= dims_data[i];
 960              		.loc 4 292 0
 961 080c 013082E2 		add	r3, r2, #1
 962 0810 030054E1 		cmp	r4, r3
 963              		.loc 4 293 0
 964 0814 0231A0E1 		lsl	r3, r2, #2
 965 0818 910A0AE0 		mul	r10, r1, r10
 966              	.LVL120:
 292:C:/Renesas/e2studio_2021_01_workspace_RZA2M_ANPR/ANPR_RZA2M_GR_MANGO/src/tensorflow_lite/tensorflow/lite/kernels/internal\types.h ****       buffer_size *= dims_data[i];
 967              		.loc 4 292 0
 968 081c 060000DA 		ble	.L48
 969              		.loc 4 293 0
 970 0820 033080E0 		add	r3, r0, r3
 292:C:/Renesas/e2studio_2021_01_workspace_RZA2M_ANPR/ANPR_RZA2M_GR_MANGO/src/tensorflow_lite/tensorflow/lite/kernels/internal\types.h ****       buffer_size *= dims_data[i];
 971              		.loc 4 292 0
 972 0824 022082E2 		add	r2, r2, #2
 973              		.loc 4 293 0
 974 0828 041093E5 		ldr	r1, [r3, #4]
 975              	.LVL121:
 292:C:/Renesas/e2studio_2021_01_workspace_RZA2M_ANPR/ANPR_RZA2M_GR_MANGO/src/tensorflow_lite/tensorflow/lite/kernels/internal\types.h ****       buffer_size *= dims_data[i];
 976              		.loc 4 292 0
 977 082c 040052E1 		cmp	r2, r4
 978              		.loc 4 293 0
 979 0830 910A0AE0 		mul	r10, r1, r10
 980              	.LVL122:
 292:C:/Renesas/e2studio_2021_01_workspace_RZA2M_ANPR/ANPR_RZA2M_GR_MANGO/src/tensorflow_lite/tensorflow/lite/kernels/internal\types.h ****       buffer_size *= dims_data[i];
 981              		.loc 4 292 0
 982              		.loc 4 293 0
 983 0834 083093B5 		ldrlt	r3, [r3, #8]
 984              	.LVL123:
 985 0838 930A0AB0 		mullt	r10, r3, r10
 986              	.LVL124:
 987              	.L48:
 988              	.LBE552:
 989              	.LBE548:
 990              	.LBE547:
  74:../src/tensorflow_lite/tensorflow/lite/micro/kernels/pad.cc ****                     output->dims->size * 2);
 991              		.loc 1 74 0
 992 083c 20309DE5 		ldr	r3, [sp, #32]
 993 0840 00E000E3 		movw	lr, #:lower16:.LC14
 994 0844 00E040E3 		movt	lr, #:upper16:.LC14
 995 0848 18009DE5 		ldr	r0, [sp, #24]
 996 084c 001000E3 		movw	r1, #:lower16:.LC2
 997 0850 082093E5 		ldr	r2, [r3, #8]
 998 0854 003000E3 		movw	r3, #:lower16:.LC15
 999 0858 003040E3 		movt	r3, #:upper16:.LC15
 1000 085c 001040E3 		movt	r1, #:upper16:.LC2
 1001 0860 00C092E5 		ldr	ip, [r2]
 1002 0864 002000E3 		movw	r2, #:lower16:.LC1
 1003 0868 08408DE8 		stm	sp, {r3, lr}
 1004 086c 002040E3 		movt	r2, #:upper16:.LC1
 1005 0870 08A08DE5 		str	r10, [sp, #8]
 1006 0874 4B30A0E3 		mov	r3, #75
 1007 0878 8CC0A0E1 		lsl	ip, ip, #1
 1008 087c 0CC08DE5 		str	ip, [sp, #12]
 1009              	.LEHB1:
 1010 0880 35FF2FE1 		blx	r5
 1011              	.LVL125:
 1012              	.LEHE1:
 1013              	.LBB559:
 1014              	.LBB560:
 203:C:/Renesas/e2studio_2021_01_workspace_RZA2M_ANPR/ANPR_RZA2M_GR_MANGO/src/tensorflow_lite/tensorflow/lite/kernels/internal\types.h **** #ifdef TF_LITE_STATIC_MEMORY
 1015              		.loc 4 203 0
 1016 0884 050054E3 		cmp	r4, #5
 1017 0888 030000DA 		ble	.L174
 207:C:/Renesas/e2studio_2021_01_workspace_RZA2M_ANPR/ANPR_RZA2M_GR_MANGO/src/tensorflow_lite/tensorflow/lite/kernels/internal\types.h **** #endif  // TF_LITE_STATIC_MEMORY
 1018              		.loc 4 207 0
 1019 088c 54009DE5 		ldr	r0, [sp, #84]
 1020 0890 000050E3 		cmp	r0, #0
 1021 0894 0000000A 		beq	.L174
 1022 0898 FEFFFFEB 		bl	_ZdaPv
 1023              	.LVL126:
 1024              	.L174:
 1025              	.LBE560:
 1026              	.LBE559:
 126:../src/tensorflow_lite/tensorflow/lite/micro/kernels/pad.cc ****                         static_cast<double>(constant_values->params.scale));
 1027              		.loc 1 126 0 discriminator 1
 1028 089c 0100A0E3 		mov	r0, #1
 1029 08a0 EDFDFFEA 		b	.L169
 1030              	.LVL127:
 1031              	.L187:
  68:../src/tensorflow_lite/tensorflow/lite/micro/kernels/pad.cc ****     // Ensure that constant_values is a scalar.
 1032              		.loc 1 68 0 discriminator 1
 1033 08a4 00E000E3 		movw	lr, #:lower16:.LC12
 1034 08a8 00C000E3 		movw	ip, #:lower16:.LC10
 1035 08ac 00E040E3 		movt	lr, #:upper16:.LC12
 1036 08b0 00C040E3 		movt	ip, #:upper16:.LC10
 1037 08b4 04E08DE5 		str	lr, [sp, #4]
 1038 08b8 002000E3 		movw	r2, #:lower16:.LC1
 1039 08bc 18E09DE5 		ldr	lr, [sp, #24]
 1040 08c0 001000E3 		movw	r1, #:lower16:.LC2
 1041 08c4 0C008DE5 		str	r0, [sp, #12]
 1042 08c8 002040E3 		movt	r2, #:upper16:.LC1
 1043 08cc 08308DE5 		str	r3, [sp, #8]
 1044 08d0 001040E3 		movt	r1, #:upper16:.LC2
 1045 08d4 0E00A0E1 		mov	r0, lr
 1046 08d8 00C08DE5 		str	ip, [sp]
 1047 08dc 4430A0E3 		mov	r3, #68
 1048 08e0 14409EE5 		ldr	r4, [lr, #20]
 1049              	.LVL128:
 1050              	.LEHB2:
 1051 08e4 34FF2FE1 		blx	r4
 1052              	.LVL129:
 1053 08e8 0100A0E3 		mov	r0, #1
 1054 08ec DAFDFFEA 		b	.L169
 1055              	.LVL130:
 1056              	.L183:
  57:../src/tensorflow_lite/tensorflow/lite/micro/kernels/pad.cc ****   TfLiteTensor* output = GetOutput(context, node, /*index=*/0);
 1057              		.loc 1 57 0 discriminator 1
 1058 08f0 0220A0E3 		mov	r2, #2
 1059 08f4 0410A0E1 		mov	r1, r4
 1060 08f8 18009DE5 		ldr	r0, [sp, #24]
 1061              	.LVL131:
 1062 08fc FEFFFFEB 		bl	_ZN6tflite8GetInputEPK13TfLiteContextPK10TfLiteNodei
 1063              	.LVL132:
 1064 0900 24008DE5 		str	r0, [sp, #36]
 1065 0904 FFFDFFEA 		b	.L15
 1066              	.LVL133:
 1067              	.L186:
  64:../src/tensorflow_lite/tensorflow/lite/micro/kernels/pad.cc ****                               reference_ops::PadKernelMaxDimensionCount());
 1068              		.loc 1 64 0 discriminator 1
 1069 0908 003000E3 		movw	r3, #:lower16:.LC11
 1070 090c 002000E3 		movw	r2, #:lower16:.LC1
 1071 0910 003040E3 		movt	r3, #:upper16:.LC11
 1072 0914 001000E3 		movw	r1, #:lower16:.LC5
 1073 0918 00308DE5 		str	r3, [sp]
 1074 091c 002040E3 		movt	r2, #:upper16:.LC1
 1075 0920 18309DE5 		ldr	r3, [sp, #24]
 1076 0924 001040E3 		movt	r1, #:upper16:.LC5
 1077 0928 0300A0E1 		mov	r0, r3
 1078 092c 144093E5 		ldr	r4, [r3, #20]
 1079              	.LVL134:
 1080 0930 4130A0E3 		mov	r3, #65
 1081 0934 34FF2FE1 		blx	r4
 1082              	.LVL135:
 1083 0938 0100A0E3 		mov	r0, #1
 1084 093c C6FDFFEA 		b	.L169
 1085              	.LVL136:
 1086              	.L181:
  53:../src/tensorflow_lite/tensorflow/lite/micro/kernels/pad.cc ****   const TfLiteTensor* paddings = GetInput(context, node, /*index=*/1);
 1087              		.loc 1 53 0 discriminator 1
 1088 0940 003000E3 		movw	r3, #:lower16:.LC6
 1089 0944 002000E3 		movw	r2, #:lower16:.LC1
 1090 0948 003040E3 		movt	r3, #:upper16:.LC6
 1091 094c 001000E3 		movw	r1, #:lower16:.LC5
 1092 0950 00308DE5 		str	r3, [sp]
 1093 0954 002040E3 		movt	r2, #:upper16:.LC1
 1094 0958 18309DE5 		ldr	r3, [sp, #24]
 1095 095c 001040E3 		movt	r1, #:upper16:.LC5
 1096 0960 0300A0E1 		mov	r0, r3
 1097              	.LVL137:
 1098 0964 144093E5 		ldr	r4, [r3, #20]
 1099              	.LVL138:
 1100 0968 3530A0E3 		mov	r3, #53
 1101 096c 34FF2FE1 		blx	r4
 1102              	.LVL139:
 1103 0970 0A00A0E1 		mov	r0, r10
 1104 0974 B8FDFFEA 		b	.L169
 1105              	.LVL140:
 1106              	.L182:
  55:../src/tensorflow_lite/tensorflow/lite/micro/kernels/pad.cc ****   const TfLiteTensor* constant_values =
 1107              		.loc 1 55 0 discriminator 1
 1108 0978 003000E3 		movw	r3, #:lower16:.LC7
 1109 097c 002000E3 		movw	r2, #:lower16:.LC1
 1110 0980 003040E3 		movt	r3, #:upper16:.LC7
 1111 0984 001000E3 		movw	r1, #:lower16:.LC5
 1112 0988 00308DE5 		str	r3, [sp]
 1113 098c 002040E3 		movt	r2, #:upper16:.LC1
 1114 0990 18309DE5 		ldr	r3, [sp, #24]
 1115 0994 001040E3 		movt	r1, #:upper16:.LC5
 1116 0998 0300A0E1 		mov	r0, r3
 1117              	.LVL141:
 1118 099c 144093E5 		ldr	r4, [r3, #20]
 1119              	.LVL142:
 1120 09a0 3730A0E3 		mov	r3, #55
 1121 09a4 34FF2FE1 		blx	r4
 1122              	.LVL143:
 1123 09a8 0A00A0E1 		mov	r0, r10
 1124 09ac AAFDFFEA 		b	.L169
 1125              	.LVL144:
 1126              	.L184:
  59:../src/tensorflow_lite/tensorflow/lite/micro/kernels/pad.cc **** 
 1127              		.loc 1 59 0 discriminator 1
 1128 09b0 003000E3 		movw	r3, #:lower16:.LC8
 1129 09b4 002000E3 		movw	r2, #:lower16:.LC1
 1130 09b8 003040E3 		movt	r3, #:upper16:.LC8
 1131 09bc 001000E3 		movw	r1, #:lower16:.LC5
 1132 09c0 00308DE5 		str	r3, [sp]
 1133 09c4 002040E3 		movt	r2, #:upper16:.LC1
 1134 09c8 18309DE5 		ldr	r3, [sp, #24]
 1135 09cc 001040E3 		movt	r1, #:upper16:.LC5
 1136 09d0 0300A0E1 		mov	r0, r3
 1137              	.LVL145:
 1138 09d4 144093E5 		ldr	r4, [r3, #20]
 1139              	.LVL146:
 1140 09d8 3B30A0E3 		mov	r3, #59
 1141 09dc 34FF2FE1 		blx	r4
 1142              	.LVL147:
 1143 09e0 0100A0E3 		mov	r0, #1
 1144 09e4 9CFDFFEA 		b	.L169
 1145              	.LVL148:
 1146              	.L100:
 1147              	.LBB561:
 1148              	.LBB518:
 1149              	.LBB515:
 1150              	.LBB509:
 232:C:/Renesas/e2studio_2021_01_workspace_RZA2M_ANPR/ANPR_RZA2M_GR_MANGO/src/tensorflow_lite/tensorflow/lite/kernels/internal\types.h ****   }
 1151              		.loc 4 232 0
 1152 09e8 3C209DE5 		ldr	r2, [sp, #60]
 1153              	.LVL149:
 1154 09ec CCFEFFEA 		b	.L97
 1155              	.LVL150:
 1156              	.L29:
 1157 09f0 0241A0E1 		lsl	r4, r2, #2
 1158              	.LBE509:
 1159              	.LBE515:
 1160              	.LBE518:
 1161              	.LBE561:
 1162              	.LBB562:
 1163              	.LBB501:
 1164              	.LBB499:
 1165              	.LBB497:
 1166              	.LBB495:
 1167              	.LBB492:
 1168              	.LBB493:
 229:C:/Renesas/e2studio_2021_01_workspace_RZA2M_ANPR/ANPR_RZA2M_GR_MANGO/src/tensorflow_lite/tensorflow/lite/kernels/internal\types.h ****   }
 1169              		.loc 4 229 0
 1170 09f4 3C008DE2 		add	r0, sp, #60
 1171 09f8 C0FEFFEA 		b	.L31
 1172              	.LVL151:
 1173              	.L112:
 1174              	.LBE493:
 1175              	.LBE492:
 1176              	.LBE495:
 1177              	.LBE497:
 1178              	.LBE499:
 1179              	.LBE501:
 1180              	.LBE562:
 1181              	.LBB563:
 1182              	.LBB519:
 1183              	.LBB516:
 292:C:/Renesas/e2studio_2021_01_workspace_RZA2M_ANPR/ANPR_RZA2M_GR_MANGO/src/tensorflow_lite/tensorflow/lite/kernels/internal\types.h ****       buffer_size *= dims_data[i];
 1184              		.loc 4 292 0
 1185 09fc 0300A0E1 		mov	r0, r3
 1186 0a00 EFFEFFEA 		b	.L34
 1187              	.LVL152:
 1188              	.L43:
 1189              	.LBE516:
 1190              	.LBE519:
 1191              	.LBE563:
  80:../src/tensorflow_lite/tensorflow/lite/micro/kernels/pad.cc ****   const int32_t* paddings_data = GetTensorData<int32_t>(paddings);
 1192              		.loc 1 80 0
 1193 0a04 1430D3E5 		ldrb	r3, [r3, #20]	@ zero_extendqisi2
 1194 0a08 010053E3 		cmp	r3, #1
 1195 0a0c E400001A 		bne	.L193
 1196              	.LVL153:
 1197              	.LBB564:
  82:../src/tensorflow_lite/tensorflow/lite/micro/kernels/pad.cc ****     int output_dim = output->dims->data[i];
 1198              		.loc 1 82 0
 1199 0a10 20309DE5 		ldr	r3, [sp, #32]
 1200 0a14 08C093E5 		ldr	ip, [r3, #8]
 1201              	.LBE564:
 1202              	.LBB567:
 1203              	.LBB568:
  30:C:/Renesas/e2studio_2021_01_workspace_RZA2M_ANPR/ANPR_RZA2M_GR_MANGO/src/tensorflow_lite/tensorflow/lite/kernels/internal\tensor_ctypes.h ****                            : nullptr;
 1204              		.loc 3 30 0
 1205 0a18 28309DE5 		ldr	r3, [sp, #40]
 1206              	.LBE568:
 1207              	.LBE567:
 1208              	.LBB570:
  82:../src/tensorflow_lite/tensorflow/lite/micro/kernels/pad.cc ****     int output_dim = output->dims->data[i];
 1209              		.loc 1 82 0
 1210 0a1c 00509CE5 		ldr	r5, [ip]
 1211              	.LBE570:
 1212              	.LBB571:
 1213              	.LBB569:
  30:C:/Renesas/e2studio_2021_01_workspace_RZA2M_ANPR/ANPR_RZA2M_GR_MANGO/src/tensorflow_lite/tensorflow/lite/kernels/internal\tensor_ctypes.h ****                            : nullptr;
 1214              		.loc 3 30 0
 1215 0a20 047093E5 		ldr	r7, [r3, #4]
 1216              	.LVL154:
 1217              	.LBE569:
 1218              	.LBE571:
 1219              	.LBB572:
  82:../src/tensorflow_lite/tensorflow/lite/micro/kernels/pad.cc ****     int output_dim = output->dims->data[i];
 1220              		.loc 1 82 0
 1221 0a24 000055E3 		cmp	r5, #0
 1222 0a28 1A0000DA 		ble	.L61
 1223              	.LBB565:
  85:../src/tensorflow_lite/tensorflow/lite/micro/kernels/pad.cc ****     TF_LITE_ENSURE_EQ(context, output_dim, expected_dim);
 1224              		.loc 1 85 0
 1225 0a2c 1C309DE5 		ldr	r3, [sp, #28]
 1226 0a30 041097E5 		ldr	r1, [r7, #4]
  83:../src/tensorflow_lite/tensorflow/lite/micro/kernels/pad.cc ****     int expected_dim =
 1227              		.loc 1 83 0
 1228 0a34 04E09CE5 		ldr	lr, [ip, #4]
 1229              	.LVL155:
  85:../src/tensorflow_lite/tensorflow/lite/micro/kernels/pad.cc ****     TF_LITE_ENSURE_EQ(context, output_dim, expected_dim);
 1230              		.loc 1 85 0
 1231 0a38 084093E5 		ldr	r4, [r3, #8]
 1232 0a3c 003097E5 		ldr	r3, [r7]
 1233 0a40 042094E5 		ldr	r2, [r4, #4]
 1234 0a44 023083E0 		add	r3, r3, r2
 1235 0a48 013083E0 		add	r3, r3, r1
 1236              	.LVL156:
  86:../src/tensorflow_lite/tensorflow/lite/micro/kernels/pad.cc ****   }
 1237              		.loc 1 86 0
 1238 0a4c 0E0053E1 		cmp	r3, lr
 1239 0a50 08C08C02 		addeq	ip, ip, #8
 1240 0a54 08408402 		addeq	r4, r4, #8
 1241 0a58 0710A001 		moveq	r1, r7
 1242 0a5c 0000A003 		moveq	r0, #0
 1243 0a60 0900000A 		beq	.L64
 1244 0a64 E20000EA 		b	.L62
 1245              	.LVL157:
 1246              	.L65:
  85:../src/tensorflow_lite/tensorflow/lite/micro/kernels/pad.cc ****     TF_LITE_ENSURE_EQ(context, output_dim, expected_dim);
 1247              		.loc 1 85 0
 1248 0a68 086091E5 		ldr	r6, [r1, #8]
 1249 0a6c 081081E2 		add	r1, r1, #8
 1250 0a70 043094E4 		ldr	r3, [r4], #4
 1251              	.LVL158:
 1252 0a74 042091E5 		ldr	r2, [r1, #4]
  83:../src/tensorflow_lite/tensorflow/lite/micro/kernels/pad.cc ****     int expected_dim =
 1253              		.loc 1 83 0
 1254 0a78 04E09CE4 		ldr	lr, [ip], #4
 1255              	.LVL159:
  85:../src/tensorflow_lite/tensorflow/lite/micro/kernels/pad.cc ****     TF_LITE_ENSURE_EQ(context, output_dim, expected_dim);
 1256              		.loc 1 85 0
 1257 0a7c 063083E0 		add	r3, r3, r6
 1258              	.LVL160:
 1259 0a80 023083E0 		add	r3, r3, r2
 1260              	.LVL161:
  86:../src/tensorflow_lite/tensorflow/lite/micro/kernels/pad.cc ****   }
 1261              		.loc 1 86 0
 1262 0a84 03005EE1 		cmp	lr, r3
 1263 0a88 D900001A 		bne	.L62
 1264              	.LVL162:
 1265              	.L64:
 1266              	.LBE565:
  82:../src/tensorflow_lite/tensorflow/lite/micro/kernels/pad.cc ****     int output_dim = output->dims->data[i];
 1267              		.loc 1 82 0 discriminator 2
 1268 0a8c 010080E2 		add	r0, r0, #1
 1269              	.LVL163:
 1270 0a90 050050E1 		cmp	r0, r5
 1271 0a94 F3FFFF1A 		bne	.L65
 1272              	.LVL164:
 1273              	.L61:
 1274              	.LBE572:
 1275              	.LBB573:
 1276              	.LBB574:
  39:C:/Renesas/e2studio_2021_01_workspace_RZA2M_ANPR/ANPR_RZA2M_GR_MANGO/src/tensorflow_lite/tensorflow/lite/kernels/internal\tensor_ctypes.h ****   const int dims_size = dims->size;
 1277              		.loc 3 39 0
 1278 0a98 28309DE5 		ldr	r3, [sp, #40]
 1279 0a9c 085093E5 		ldr	r5, [r3, #8]
 1280              	.LBE574:
 1281              	.LBE573:
  90:../src/tensorflow_lite/tensorflow/lite/micro/kernels/pad.cc ****   const int paddings_total = GetTensorShape(paddings).FlatSize();
 1282              		.loc 1 90 0
 1283 0aa0 0230A0E3 		mov	r3, #2
 1284 0aa4 3030CBE5 		strb	r3, [fp, #48]
 1285              	.LVL165:
 1286              	.LBB589:
 1287              	.LBB587:
 1288              		.loc 3 40 0
 1289 0aa8 002095E5 		ldr	r2, [r5]
 1290              	.LVL166:
 1291              	.LBB575:
 1292              	.LBB576:
 1293              	.LBB577:
 1294              	.LBB578:
 1295              	.LBB579:
 246:C:/Renesas/e2studio_2021_01_workspace_RZA2M_ANPR/ANPR_RZA2M_GR_MANGO/src/tensorflow_lite/tensorflow/lite/kernels/internal\types.h **** #ifdef TF_LITE_STATIC_MEMORY
 1296              		.loc 4 246 0
 1297 0aac 050052E3 		cmp	r2, #5
 245:C:/Renesas/e2studio_2021_01_workspace_RZA2M_ANPR/ANPR_RZA2M_GR_MANGO/src/tensorflow_lite/tensorflow/lite/kernels/internal\types.h ****     if (dimensions_count > kMaxSmallSize) {
 1298              		.loc 4 245 0
 1299 0ab0 68208DE5 		str	r2, [sp, #104]
 246:C:/Renesas/e2studio_2021_01_workspace_RZA2M_ANPR/ANPR_RZA2M_GR_MANGO/src/tensorflow_lite/tensorflow/lite/kernels/internal\types.h **** #ifdef TF_LITE_STATIC_MEMORY
 1300              		.loc 4 246 0
 1301 0ab4 EB0000DA 		ble	.L66
 1302              	.LVL167:
 1303              	.LBB580:
 1304              	.LBB581:
 250:C:/Renesas/e2studio_2021_01_workspace_RZA2M_ANPR/ANPR_RZA2M_GR_MANGO/src/tensorflow_lite/tensorflow/lite/kernels/internal\types.h **** #endif  // TF_LITE_STATIC_MEMORY
 1305              		.loc 4 250 0
 1306 0ab8 2E0272E3 		cmn	r2, #-536870910
 1307 0abc 610100CA 		bgt	.L30
 1308 0ac0 1243A0E1 		lsl	r4, r2, r3
 1309 0ac4 0400A0E1 		mov	r0, r4
 1310 0ac8 FEFFFFEB 		bl	_Znaj
 1311              	.LVL168:
 1312 0acc 6C008DE5 		str	r0, [sp, #108]
 1313              	.LVL169:
 1314              	.L67:
 1315              	.LBE581:
 1316              	.LBE580:
 1317              	.LBE579:
 1318              	.LBE578:
 258:C:/Renesas/e2studio_2021_01_workspace_RZA2M_ANPR/ANPR_RZA2M_GR_MANGO/src/tensorflow_lite/tensorflow/lite/kernels/internal\types.h ****   }
 1319              		.loc 4 258 0
 1320 0ad0 041085E2 		add	r1, r5, #4
 1321 0ad4 0420A0E1 		mov	r2, r4
 1322 0ad8 FEFFFFEB 		bl	memcpy
 1323              	.LVL170:
 1324              	.LBE577:
 1325              	.LBE576:
 1326              	.LBE575:
 1327              	.LBE587:
 1328              	.LBE589:
 1329              	.LBB590:
 1330              	.LBB591:
 1331              	.LBB592:
 1332              	.LBB593:
 232:C:/Renesas/e2studio_2021_01_workspace_RZA2M_ANPR/ANPR_RZA2M_GR_MANGO/src/tensorflow_lite/tensorflow/lite/kernels/internal\types.h ****   }
 1333              		.loc 4 232 0
 1334 0adc 68109DE5 		ldr	r1, [sp, #104]
 1335 0ae0 050051E3 		cmp	r1, #5
 1336 0ae4 E20000DA 		ble	.L68
 1337 0ae8 6C209DE5 		ldr	r2, [sp, #108]
 1338              	.LVL171:
 1339              	.L99:
 1340 0aec 5231A0E7 		sbfx	r3, r2, #2, #1
 1341 0af0 033003E2 		and	r3, r3, #3
 1342 0af4 010053E1 		cmp	r3, r1
 1343 0af8 0130A021 		movcs	r3, r1
 1344 0afc 080051E3 		cmp	r1, #8
 1345 0b00 0130A091 		movls	r3, r1
 1346 0b04 000053E3 		cmp	r3, #0
 1347 0b08 DF00000A 		beq	.L122
 1348 0b0c 010053E3 		cmp	r3, #1
 1349              	.LBE593:
 1350              	.LBE592:
 1351              	.LBB595:
 1352              		.loc 4 293 0
 1353 0b10 004092E5 		ldr	r4, [r2]
 1354              	.LVL172:
 1355 0b14 1A00000A 		beq	.L71
 1356 0b18 040092E5 		ldr	r0, [r2, #4]
 1357 0b1c 020053E3 		cmp	r3, #2
 1358 0b20 900404E0 		mul	r4, r0, r4
 1359              	.LVL173:
 1360 0b24 D600000A 		beq	.L128
 1361 0b28 080092E5 		ldr	r0, [r2, #8]
 1362 0b2c 030053E3 		cmp	r3, #3
 1363 0b30 900404E0 		mul	r4, r0, r4
 1364              	.LVL174:
 1365 0b34 D200000A 		beq	.L128
 1366 0b38 0C0092E5 		ldr	r0, [r2, #12]
 1367 0b3c 040053E3 		cmp	r3, #4
 1368 0b40 900404E0 		mul	r4, r0, r4
 1369              	.LVL175:
 1370 0b44 CE00000A 		beq	.L128
 1371 0b48 100092E5 		ldr	r0, [r2, #16]
 1372 0b4c 050053E3 		cmp	r3, #5
 1373 0b50 900404E0 		mul	r4, r0, r4
 1374              	.LVL176:
 1375 0b54 CA00000A 		beq	.L128
 1376 0b58 140092E5 		ldr	r0, [r2, #20]
 1377 0b5c 060053E3 		cmp	r3, #6
 1378 0b60 900404E0 		mul	r4, r0, r4
 1379              	.LVL177:
 1380 0b64 C600000A 		beq	.L128
 1381 0b68 180092E5 		ldr	r0, [r2, #24]
 1382 0b6c 070053E3 		cmp	r3, #7
 1383 0b70 900404E0 		mul	r4, r0, r4
 1384              	.LVL178:
 1385 0b74 C200000A 		beq	.L128
 1386 0b78 1C0092E5 		ldr	r0, [r2, #28]
 292:C:/Renesas/e2studio_2021_01_workspace_RZA2M_ANPR/ANPR_RZA2M_GR_MANGO/src/tensorflow_lite/tensorflow/lite/kernels/internal\types.h ****       buffer_size *= dims_data[i];
 1387              		.loc 4 292 0
 1388 0b7c 08A0A0E3 		mov	r10, #8
 1389              		.loc 4 293 0
 1390 0b80 900404E0 		mul	r4, r0, r4
 1391              	.LVL179:
 1392              	.L71:
 1393 0b84 010053E1 		cmp	r3, r1
 1394 0b88 2800000A 		beq	.L72
 1395              	.LVL180:
 1396              	.L70:
 1397 0b8c 03E041E0 		sub	lr, r1, r3
 1398 0b90 01C041E2 		sub	ip, r1, #1
 1399 0b94 04004EE2 		sub	r0, lr, #4
 1400 0b98 03C04CE0 		sub	ip, ip, r3
 1401 0b9c 2001A0E1 		lsr	r0, r0, #2
 1402 0ba0 02005CE3 		cmp	ip, #2
 1403 0ba4 010080E2 		add	r0, r0, #1
 1404 0ba8 0051A0E1 		lsl	r5, r0, #2
 1405 0bac 1200009A 		bls	.L73
 1406 0bb0 033182E0 		add	r3, r2, r3, lsl #2
 292:C:/Renesas/e2studio_2021_01_workspace_RZA2M_ANPR/ANPR_RZA2M_GR_MANGO/src/tensorflow_lite/tensorflow/lite/kernels/internal\types.h ****       buffer_size *= dims_data[i];
 1407              		.loc 4 292 0
 1408 0bb4 5140C0F2 		vmov.i32	q10, #1  @ v4si
 1409 0bb8 00C0A0E3 		mov	ip, #0
 1410              	.L75:
 1411 0bbc 01C08CE2 		add	ip, ip, #1
 1412              		.loc 4 293 0
 1413 0bc0 DF0A63F4 		vld1.64	{d16-d17}, [r3:64]
 1414 0bc4 0C0050E1 		cmp	r0, ip
 1415 0bc8 103083E2 		add	r3, r3, #16
 1416 0bcc F04964F2 		vmul.i32	q10, q10, q8
 1417 0bd0 F9FFFF8A 		bhi	.L75
 1418 0bd4 0E0055E1 		cmp	r5, lr
 1419 0bd8 05A08AE0 		add	r10, r10, r5
 1420 0bdc 5000C0F2 		vmov.i32	q8, #0  @ v4si
 1421 0be0 E028F4F2 		vext.32	q9, q10, q8, #2
 1422 0be4 F42962F2 		vmul.i32	q9, q9, q10
 1423 0be8 E004F2F2 		vext.32	q8, q9, q8, #1
 1424 0bec F20960F2 		vmul.i32	q8, q8, q9
 1425 0bf0 903B10EE 		vmov.32	r3, d16[0]
 1426 0bf4 930404E0 		mul	r4, r3, r4
 1427 0bf8 0C00000A 		beq	.L72
 1428              	.L73:
 1429              	.LVL181:
 1430 0bfc 0A0192E7 		ldr	r0, [r2, r10, lsl #2]
 292:C:/Renesas/e2studio_2021_01_workspace_RZA2M_ANPR/ANPR_RZA2M_GR_MANGO/src/tensorflow_lite/tensorflow/lite/kernels/internal\types.h ****       buffer_size *= dims_data[i];
 1431              		.loc 4 292 0
 1432 0c00 01308AE2 		add	r3, r10, #1
 1433 0c04 030051E1 		cmp	r1, r3
 1434              		.loc 4 293 0
 1435 0c08 0A31A0E1 		lsl	r3, r10, #2
 1436 0c0c 900404E0 		mul	r4, r0, r4
 1437              	.LVL182:
 292:C:/Renesas/e2studio_2021_01_workspace_RZA2M_ANPR/ANPR_RZA2M_GR_MANGO/src/tensorflow_lite/tensorflow/lite/kernels/internal\types.h ****       buffer_size *= dims_data[i];
 1438              		.loc 4 292 0
 1439 0c10 060000DA 		ble	.L72
 1440              		.loc 4 293 0
 1441 0c14 032082E0 		add	r2, r2, r3
 292:C:/Renesas/e2studio_2021_01_workspace_RZA2M_ANPR/ANPR_RZA2M_GR_MANGO/src/tensorflow_lite/tensorflow/lite/kernels/internal\types.h ****       buffer_size *= dims_data[i];
 1442              		.loc 4 292 0
 1443 0c18 02A08AE2 		add	r10, r10, #2
 1444              		.loc 4 293 0
 1445 0c1c 043092E5 		ldr	r3, [r2, #4]
 292:C:/Renesas/e2studio_2021_01_workspace_RZA2M_ANPR/ANPR_RZA2M_GR_MANGO/src/tensorflow_lite/tensorflow/lite/kernels/internal\types.h ****       buffer_size *= dims_data[i];
 1446              		.loc 4 292 0
 1447 0c20 0A0051E1 		cmp	r1, r10
 1448              		.loc 4 293 0
 1449 0c24 930404E0 		mul	r4, r3, r4
 1450              	.LVL183:
 1451 0c28 083092C5 		ldrgt	r3, [r2, #8]
 1452 0c2c 930404C0 		mulgt	r4, r3, r4
 1453              	.LVL184:
 1454              	.L72:
 1455              	.LBE595:
 1456              	.LBE591:
 1457              	.LBE590:
 1458              	.LBB600:
 1459              	.LBB601:
 203:C:/Renesas/e2studio_2021_01_workspace_RZA2M_ANPR/ANPR_RZA2M_GR_MANGO/src/tensorflow_lite/tensorflow/lite/kernels/internal\types.h **** #ifdef TF_LITE_STATIC_MEMORY
 1460              		.loc 4 203 0
 1461 0c30 050051E3 		cmp	r1, #5
 1462 0c34 030000DA 		ble	.L79
 207:C:/Renesas/e2studio_2021_01_workspace_RZA2M_ANPR/ANPR_RZA2M_GR_MANGO/src/tensorflow_lite/tensorflow/lite/kernels/internal\types.h **** #endif  // TF_LITE_STATIC_MEMORY
 1463              		.loc 4 207 0
 1464 0c38 6C009DE5 		ldr	r0, [sp, #108]
 1465 0c3c 000050E3 		cmp	r0, #0
 1466 0c40 0000000A 		beq	.L79
 1467 0c44 FEFFFFEB 		bl	_ZdaPv
 1468              	.LVL185:
 1469              	.L79:
 1470              	.LBE601:
 1471              	.LBE600:
  92:../src/tensorflow_lite/tensorflow/lite/micro/kernels/pad.cc ****       (paddings_data[6] == 0 && paddings_data[7] == 0)) {
 1472              		.loc 1 92 0
 1473 0c48 080054E3 		cmp	r4, #8
 1474 0c4c 9100000A 		beq	.L194
 1475              	.L80:
 1476              	.LVL186:
 1477              	.LBB602:
 1478              	.LBB603:
 147:C:/Renesas/e2studio_2021_01_workspace_RZA2M_ANPR/ANPR_RZA2M_GR_MANGO/src/tensorflow_lite/tensorflow/lite/kernels\kernel_util.h **** inline int SizeOfDimension(const TfLiteTensor* t, int dim) {
 1479              		.loc 2 147 0
 1480 0c50 1C309DE5 		ldr	r3, [sp, #28]
 1481 0c54 083093E5 		ldr	r3, [r3, #8]
 1482 0c58 003093E5 		ldr	r3, [r3]
 1483              	.LVL187:
 1484              	.LBE603:
 1485              	.LBE602:
 1486              	.LBB604:
 101:../src/tensorflow_lite/tensorflow/lite/micro/kernels/pad.cc ****     data->params.left_padding[idx] = paddings_data[idx * 2];
 1487              		.loc 1 101 0
 1488 0c5c 012053E2 		subs	r2, r3, #1
 1489              	.LVL188:
 1490              	.LBE604:
  98:../src/tensorflow_lite/tensorflow/lite/micro/kernels/pad.cc ****   data->params.right_padding_count = num_input_dimensions;
 1491              		.loc 1 98 0
 1492 0c60 7310AFE6 		sxtb	r1, r3
 1493 0c64 0010CBE5 		strb	r1, [fp]
  99:../src/tensorflow_lite/tensorflow/lite/micro/kernels/pad.cc **** 
 1494              		.loc 1 99 0
 1495 0c68 1810CBE5 		strb	r1, [fp, #24]
 1496              	.LBB605:
 101:../src/tensorflow_lite/tensorflow/lite/micro/kernels/pad.cc ****     data->params.left_padding[idx] = paddings_data[idx * 2];
 1497              		.loc 1 101 0
 1498 0c6c 2500004A 		bmi	.L83
 102:../src/tensorflow_lite/tensorflow/lite/micro/kernels/pad.cc ****     data->params.right_padding[idx] = paddings_data[idx * 2 + 1];
 1499              		.loc 1 102 0
 1500 0c70 820197E7 		ldr	r0, [r7, r2, lsl #3]
 103:../src/tensorflow_lite/tensorflow/lite/micro/kernels/pad.cc ****   }
 1501              		.loc 1 103 0
 1502 0c74 827187E0 		add	r7, r7, r2, lsl #3
 1503 0c78 02218BE0 		add	r2, fp, r2, lsl #2
 1504              	.LVL189:
 101:../src/tensorflow_lite/tensorflow/lite/micro/kernels/pad.cc ****     data->params.left_padding[idx] = paddings_data[idx * 2];
 1505              		.loc 1 101 0
 1506 0c7c 021043E2 		sub	r1, r3, #2
 1507              	.LVL190:
 1508 0c80 010071E3 		cmn	r1, #1
 102:../src/tensorflow_lite/tensorflow/lite/micro/kernels/pad.cc ****     data->params.right_padding[idx] = paddings_data[idx * 2 + 1];
 1509              		.loc 1 102 0
 1510 0c84 040082E5 		str	r0, [r2, #4]
 103:../src/tensorflow_lite/tensorflow/lite/micro/kernels/pad.cc ****   }
 1511              		.loc 1 103 0
 1512 0c88 040097E5 		ldr	r0, [r7, #4]
 1513 0c8c 1C0082E5 		str	r0, [r2, #28]
 101:../src/tensorflow_lite/tensorflow/lite/micro/kernels/pad.cc ****     data->params.left_padding[idx] = paddings_data[idx * 2];
 1514              		.loc 1 101 0
 1515 0c90 1C00000A 		beq	.L83
 102:../src/tensorflow_lite/tensorflow/lite/micro/kernels/pad.cc ****     data->params.right_padding[idx] = paddings_data[idx * 2 + 1];
 1516              		.loc 1 102 0
 1517 0c94 080017E5 		ldr	r0, [r7, #-8]
 1518 0c98 01218BE0 		add	r2, fp, r1, lsl #2
 101:../src/tensorflow_lite/tensorflow/lite/micro/kernels/pad.cc ****     data->params.left_padding[idx] = paddings_data[idx * 2];
 1519              		.loc 1 101 0
 1520 0c9c 031043E2 		sub	r1, r3, #3
 1521              	.LVL191:
 1522 0ca0 010071E3 		cmn	r1, #1
 102:../src/tensorflow_lite/tensorflow/lite/micro/kernels/pad.cc ****     data->params.right_padding[idx] = paddings_data[idx * 2 + 1];
 1523              		.loc 1 102 0
 1524 0ca4 040082E5 		str	r0, [r2, #4]
 103:../src/tensorflow_lite/tensorflow/lite/micro/kernels/pad.cc ****   }
 1525              		.loc 1 103 0
 1526 0ca8 040017E5 		ldr	r0, [r7, #-4]
 1527 0cac 1C0082E5 		str	r0, [r2, #28]
 101:../src/tensorflow_lite/tensorflow/lite/micro/kernels/pad.cc ****     data->params.left_padding[idx] = paddings_data[idx * 2];
 1528              		.loc 1 101 0
 1529 0cb0 1400000A 		beq	.L83
 102:../src/tensorflow_lite/tensorflow/lite/micro/kernels/pad.cc ****     data->params.right_padding[idx] = paddings_data[idx * 2 + 1];
 1530              		.loc 1 102 0
 1531 0cb4 100017E5 		ldr	r0, [r7, #-16]
 1532 0cb8 01118BE0 		add	r1, fp, r1, lsl #2
 1533              	.LVL192:
 101:../src/tensorflow_lite/tensorflow/lite/micro/kernels/pad.cc ****     data->params.left_padding[idx] = paddings_data[idx * 2];
 1534              		.loc 1 101 0
 1535 0cbc 042043E2 		sub	r2, r3, #4
 1536              	.LVL193:
 1537 0cc0 010072E3 		cmn	r2, #1
 102:../src/tensorflow_lite/tensorflow/lite/micro/kernels/pad.cc ****     data->params.right_padding[idx] = paddings_data[idx * 2 + 1];
 1538              		.loc 1 102 0
 1539 0cc4 040081E5 		str	r0, [r1, #4]
 103:../src/tensorflow_lite/tensorflow/lite/micro/kernels/pad.cc ****   }
 1540              		.loc 1 103 0
 1541 0cc8 0C0017E5 		ldr	r0, [r7, #-12]
 1542 0ccc 1C0081E5 		str	r0, [r1, #28]
 101:../src/tensorflow_lite/tensorflow/lite/micro/kernels/pad.cc ****     data->params.left_padding[idx] = paddings_data[idx * 2];
 1543              		.loc 1 101 0
 1544 0cd0 0C00000A 		beq	.L83
 102:../src/tensorflow_lite/tensorflow/lite/micro/kernels/pad.cc ****     data->params.right_padding[idx] = paddings_data[idx * 2 + 1];
 1545              		.loc 1 102 0
 1546 0cd4 181017E5 		ldr	r1, [r7, #-24]
 1547 0cd8 02218BE0 		add	r2, fp, r2, lsl #2
 1548              	.LVL194:
 101:../src/tensorflow_lite/tensorflow/lite/micro/kernels/pad.cc ****     data->params.left_padding[idx] = paddings_data[idx * 2];
 1549              		.loc 1 101 0
 1550 0cdc 053043E2 		sub	r3, r3, #5
 1551              	.LVL195:
 1552 0ce0 010073E3 		cmn	r3, #1
 102:../src/tensorflow_lite/tensorflow/lite/micro/kernels/pad.cc ****     data->params.right_padding[idx] = paddings_data[idx * 2 + 1];
 1553              		.loc 1 102 0
 1554 0ce4 041082E5 		str	r1, [r2, #4]
 103:../src/tensorflow_lite/tensorflow/lite/micro/kernels/pad.cc ****   }
 1555              		.loc 1 103 0
 1556 0ce8 141017E5 		ldr	r1, [r7, #-20]
 1557 0cec 1C1082E5 		str	r1, [r2, #28]
 1558              	.LVL196:
 101:../src/tensorflow_lite/tensorflow/lite/micro/kernels/pad.cc ****     data->params.left_padding[idx] = paddings_data[idx * 2];
 1559              		.loc 1 101 0
 1560 0cf0 0400000A 		beq	.L83
 102:../src/tensorflow_lite/tensorflow/lite/micro/kernels/pad.cc ****     data->params.right_padding[idx] = paddings_data[idx * 2 + 1];
 1561              		.loc 1 102 0
 1562 0cf4 202017E5 		ldr	r2, [r7, #-32]
 1563 0cf8 03318BE0 		add	r3, fp, r3, lsl #2
 1564              	.LVL197:
 1565 0cfc 042083E5 		str	r2, [r3, #4]
 103:../src/tensorflow_lite/tensorflow/lite/micro/kernels/pad.cc ****   }
 1566              		.loc 1 103 0
 1567 0d00 1C2017E5 		ldr	r2, [r7, #-28]
 1568 0d04 1C2083E5 		str	r2, [r3, #28]
 1569              	.L83:
 1570              	.LBE605:
 106:../src/tensorflow_lite/tensorflow/lite/micro/kernels/pad.cc ****     if (constant_values == nullptr) {
 1571              		.loc 1 106 0
 1572 0d08 1C309DE5 		ldr	r3, [sp, #28]
 1573 0d0c 0030D3E5 		ldrb	r3, [r3]	@ zero_extendqisi2
 1574 0d10 030053E3 		cmp	r3, #3
 1575 0d14 09005313 		cmpne	r3, #9
 1576 0d18 00A0A013 		movne	r10, #0
 1577 0d1c 01A0A003 		moveq	r10, #1
 132:../src/tensorflow_lite/tensorflow/lite/micro/kernels/pad.cc **** }
 1578              		.loc 1 132 0
 1579 0d20 0A00A011 		movne	r0, r10
 106:../src/tensorflow_lite/tensorflow/lite/micro/kernels/pad.cc ****     if (constant_values == nullptr) {
 1580              		.loc 1 106 0
 1581 0d24 CCFCFF1A 		bne	.L169
 107:../src/tensorflow_lite/tensorflow/lite/micro/kernels/pad.cc ****       // Quantized Pad requires that 0 is represented in the quantized
 1582              		.loc 1 107 0
 1583 0d28 24209DE5 		ldr	r2, [sp, #36]
 1584 0d2c 000052E3 		cmp	r2, #0
 1585 0d30 7A00000A 		beq	.L195
 124:../src/tensorflow_lite/tensorflow/lite/micro/kernels/pad.cc ****                         constant_values->params.zero_point);
 1586              		.loc 1 124 0
 1587 0d34 20309DE5 		ldr	r3, [sp, #32]
 1588 0d38 24209DE5 		ldr	r2, [sp, #36]
 1589 0d3c 103093E5 		ldr	r3, [r3, #16]
 1590 0d40 10E092E5 		ldr	lr, [r2, #16]
 1591 0d44 0E0053E1 		cmp	r3, lr
 1592 0d48 6100001A 		bne	.L196
 126:../src/tensorflow_lite/tensorflow/lite/micro/kernels/pad.cc ****                         static_cast<double>(constant_values->params.scale));
 1593              		.loc 1 126 0
 1594 0d4c 20209DE5 		ldr	r2, [sp, #32]
 1595 0d50 037AD2ED 		vldr.32	s15, [r2, #12]
 1596 0d54 24209DE5 		ldr	r2, [sp, #36]
 1597 0d58 037A92ED 		vldr.32	s14, [r2, #12]
 1598 0d5c 477AF4EE 		vcmp.f32	s15, s14
 1599 0d60 10FAF1EE 		vmrs	APSR_nzcv, FPSCR
 1600 0d64 8300001A 		bne	.L197
 1601              	.L87:
 129:../src/tensorflow_lite/tensorflow/lite/micro/kernels/pad.cc ****   }
 1602              		.loc 1 129 0
 1603 0d68 34308BE5 		str	r3, [fp, #52]
 132:../src/tensorflow_lite/tensorflow/lite/micro/kernels/pad.cc **** }
 1604              		.loc 1 132 0
 1605 0d6c 0000A0E3 		mov	r0, #0
 1606 0d70 B9FCFFEA 		b	.L169
 1607              	.LVL198:
 1608              	.L103:
 1609              	.LBB606:
 1610              	.LBB475:
 1611              	.LBB474:
 1612              	.LBB473:
 163:C:/Renesas/e2studio_2021_01_workspace_RZA2M_ANPR/ANPR_RZA2M_GR_MANGO/src/tensorflow_lite/tensorflow/lite/kernels\kernel_util.h ****     count *= dims->data[i];
 1613              		.loc 2 163 0
 1614 0d74 0100A0E3 		mov	r0, #1
 1615 0d78 0010A0E3 		mov	r1, #0
 1616 0d7c 0030A0E3 		mov	r3, #0
 1617 0d80 45FDFFEA 		b	.L21
 1618              	.LVL199:
 1619              	.L191:
 1620 0d84 000053E3 		cmp	r3, #0
 1621              	.LBE473:
 1622              	.LBE474:
 1623              	.LBE475:
 1624              	.LBE606:
 1625              	.LBB607:
 1626              	.LBB520:
 1627              	.LBB517:
 292:C:/Renesas/e2studio_2021_01_workspace_RZA2M_ANPR/ANPR_RZA2M_GR_MANGO/src/tensorflow_lite/tensorflow/lite/kernels/internal\types.h ****       buffer_size *= dims_data[i];
 1628              		.loc 4 292 0
 1629 0d88 0140A003 		moveq	r4, #1
 1630 0d8c 0300A001 		moveq	r0, r3
 1631 0d90 0DFEFF0A 		beq	.L33
 1632 0d94 ECFDFFEA 		b	.L32
 1633              	.LVL200:
 1634              	.L44:
 1635 0d98 0241A0E1 		lsl	r4, r2, #2
 1636              	.LBE517:
 1637              	.LBE520:
 1638              	.LBE607:
 1639              	.LBB608:
 1640              	.LBB543:
 1641              	.LBB539:
 1642              	.LBB538:
 1643              	.LBB537:
 1644              	.LBB535:
 1645              	.LBB536:
 229:C:/Renesas/e2studio_2021_01_workspace_RZA2M_ANPR/ANPR_RZA2M_GR_MANGO/src/tensorflow_lite/tensorflow/lite/kernels/internal\types.h ****   }
 1646              		.loc 4 229 0
 1647 0d9c 54008DE2 		add	r0, sp, #84
 1648 0da0 4EFEFFEA 		b	.L45
 1649              	.LVL201:
 1650              	.L193:
 1651              	.LBE536:
 1652              	.LBE535:
 1653              	.LBE537:
 1654              	.LBE538:
 1655              	.LBE539:
 1656              	.LBE543:
 1657              	.LBE608:
  80:../src/tensorflow_lite/tensorflow/lite/micro/kernels/pad.cc ****   const int32_t* paddings_data = GetTensorData<int32_t>(paddings);
 1658              		.loc 1 80 0 discriminator 1
 1659 0da4 003000E3 		movw	r3, #:lower16:.LC16
 1660 0da8 002000E3 		movw	r2, #:lower16:.LC1
 1661 0dac 003040E3 		movt	r3, #:upper16:.LC16
 1662 0db0 001000E3 		movw	r1, #:lower16:.LC5
 1663 0db4 00308DE5 		str	r3, [sp]
 1664 0db8 002040E3 		movt	r2, #:upper16:.LC1
 1665 0dbc 18309DE5 		ldr	r3, [sp, #24]
 1666 0dc0 001040E3 		movt	r1, #:upper16:.LC5
 1667 0dc4 0300A0E1 		mov	r0, r3
 1668 0dc8 144093E5 		ldr	r4, [r3, #20]
 1669 0dcc 5030A0E3 		mov	r3, #80
 1670 0dd0 34FF2FE1 		blx	r4
 1671              	.LVL202:
 1672 0dd4 0100A0E3 		mov	r0, #1
 1673 0dd8 9FFCFFEA 		b	.L169
 1674              	.LVL203:
 1675              	.L46:
 1676              	.LBB609:
 1677              	.LBB557:
 1678              	.LBB553:
 292:C:/Renesas/e2studio_2021_01_workspace_RZA2M_ANPR/ANPR_RZA2M_GR_MANGO/src/tensorflow_lite/tensorflow/lite/kernels/internal\types.h ****       buffer_size *= dims_data[i];
 1679              		.loc 4 292 0
 1680 0ddc 000054E3 		cmp	r4, #0
 1681 0de0 95FEFFDA 		ble	.L48
 1682              	.LBE553:
 1683              	.LBB554:
 1684              	.LBB551:
 232:C:/Renesas/e2studio_2021_01_workspace_RZA2M_ANPR/ANPR_RZA2M_GR_MANGO/src/tensorflow_lite/tensorflow/lite/kernels/internal\types.h ****   }
 1685              		.loc 4 232 0
 1686 0de4 54008DE2 		add	r0, sp, #84
 1687 0de8 43FEFFEA 		b	.L47
 1688              	.LVL204:
 1689              	.L121:
 1690              	.LBE551:
 1691              	.LBE554:
 1692              	.LBB555:
 292:C:/Renesas/e2studio_2021_01_workspace_RZA2M_ANPR/ANPR_RZA2M_GR_MANGO/src/tensorflow_lite/tensorflow/lite/kernels/internal\types.h ****       buffer_size *= dims_data[i];
 1693              		.loc 4 292 0
 1694 0dec 0320A0E1 		mov	r2, r3
 1695 0df0 66FEFFEA 		b	.L51
 1696              	.LVL205:
 1697              	.L62:
 1698              	.LBE555:
 1699              	.LBE557:
 1700              	.LBE609:
 1701              	.LBB610:
 1702              	.LBB566:
  86:../src/tensorflow_lite/tensorflow/lite/micro/kernels/pad.cc ****   }
 1703              		.loc 1 86 0 discriminator 1
 1704 0df4 08E08DE5 		str	lr, [sp, #8]
 1705 0df8 000000E3 		movw	r0, #:lower16:.LC17
 1706 0dfc 18E09DE5 		ldr	lr, [sp, #24]
 1707              	.LVL206:
 1708 0e00 00C000E3 		movw	ip, #:lower16:.LC18
 1709 0e04 000040E3 		movt	r0, #:upper16:.LC17
 1710 0e08 00C040E3 		movt	ip, #:upper16:.LC18
 1711 0e0c 002000E3 		movw	r2, #:lower16:.LC1
 1712 0e10 001000E3 		movw	r1, #:lower16:.LC2
 1713 0e14 0C308DE5 		str	r3, [sp, #12]
 1714 0e18 002040E3 		movt	r2, #:upper16:.LC1
 1715 0e1c 04008DE5 		str	r0, [sp, #4]
 1716 0e20 001040E3 		movt	r1, #:upper16:.LC2
 1717 0e24 0E00A0E1 		mov	r0, lr
 1718 0e28 00C08DE5 		str	ip, [sp]
 1719 0e2c 5630A0E3 		mov	r3, #86
 1720              	.LVL207:
 1721 0e30 14409EE5 		ldr	r4, [lr, #20]
 1722 0e34 34FF2FE1 		blx	r4
 1723              	.LVL208:
 1724 0e38 0100A0E3 		mov	r0, #1
 1725 0e3c 86FCFFEA 		b	.L169
 1726              	.LVL209:
 1727              	.L192:
 1728 0e40 000053E3 		cmp	r3, #0
 1729              	.LBE566:
 1730              	.LBE610:
 1731              	.LBB611:
 1732              	.LBB558:
 1733              	.LBB556:
 292:C:/Renesas/e2studio_2021_01_workspace_RZA2M_ANPR/ANPR_RZA2M_GR_MANGO/src/tensorflow_lite/tensorflow/lite/kernels/internal\types.h ****       buffer_size *= dims_data[i];
 1734              		.loc 4 292 0
 1735 0e44 0320A001 		moveq	r2, r3
 1736 0e48 52FEFF0A 		beq	.L50
 1737 0e4c 31FEFFEA 		b	.L49
 1738              	.LVL210:
 1739              	.L190:
 1740              	.LBE556:
 1741              	.LBE558:
 1742              	.LBE611:
  74:../src/tensorflow_lite/tensorflow/lite/micro/kernels/pad.cc ****                     output->dims->size * 2);
 1743              		.loc 1 74 0
 1744 0e50 20309DE5 		ldr	r3, [sp, #32]
 1745              	.LBB612:
 1746              	.LBB521:
 290:C:/Renesas/e2studio_2021_01_workspace_RZA2M_ANPR/ANPR_RZA2M_GR_MANGO/src/tensorflow_lite/tensorflow/lite/kernels/internal\types.h ****     const int* dims_data = reinterpret_cast<const int*>(DimsData());
 1747              		.loc 4 290 0
 1748 0e54 0140A0E3 		mov	r4, #1
 1749              	.LBE521:
 1750              	.LBE612:
  74:../src/tensorflow_lite/tensorflow/lite/micro/kernels/pad.cc ****                     output->dims->size * 2);
 1751              		.loc 1 74 0
 1752 0e58 083093E5 		ldr	r3, [r3, #8]
 1753 0e5c 005093E5 		ldr	r5, [r3]
 1754 0e60 1554A0E1 		lsl	r5, r5, r4
 1755              	.LVL211:
 1756 0e64 0DFEFFEA 		b	.L42
 1757              	.LVL212:
 1758              	.L66:
 1759 0e68 0241A0E1 		lsl	r4, r2, #2
 1760              	.LBB613:
 1761              	.LBB588:
 1762              	.LBB586:
 1763              	.LBB585:
 1764              	.LBB584:
 1765              	.LBB582:
 1766              	.LBB583:
 229:C:/Renesas/e2studio_2021_01_workspace_RZA2M_ANPR/ANPR_RZA2M_GR_MANGO/src/tensorflow_lite/tensorflow/lite/kernels/internal\types.h ****   }
 1767              		.loc 4 229 0
 1768 0e6c 6C008DE2 		add	r0, sp, #108
 1769 0e70 16FFFFEA 		b	.L67
 1770              	.LVL213:
 1771              	.L68:
 1772              	.LBE583:
 1773              	.LBE582:
 1774              	.LBE584:
 1775              	.LBE585:
 1776              	.LBE586:
 1777              	.LBE588:
 1778              	.LBE613:
 1779              	.LBB614:
 1780              	.LBB599:
 1781              	.LBB596:
 292:C:/Renesas/e2studio_2021_01_workspace_RZA2M_ANPR/ANPR_RZA2M_GR_MANGO/src/tensorflow_lite/tensorflow/lite/kernels/internal\types.h ****       buffer_size *= dims_data[i];
 1782              		.loc 4 292 0
 1783 0e74 000051E3 		cmp	r1, #0
 1784 0e78 74FFFFDA 		ble	.L80
 1785              	.LBE596:
 1786              	.LBB597:
 1787              	.LBB594:
 232:C:/Renesas/e2studio_2021_01_workspace_RZA2M_ANPR/ANPR_RZA2M_GR_MANGO/src/tensorflow_lite/tensorflow/lite/kernels/internal\types.h ****   }
 1788              		.loc 4 232 0
 1789 0e7c 6C208DE2 		add	r2, sp, #108
 1790 0e80 19FFFFEA 		b	.L99
 1791              	.LVL214:
 1792              	.L128:
 1793              	.LBE594:
 1794              	.LBE597:
 1795              	.LBB598:
 292:C:/Renesas/e2studio_2021_01_workspace_RZA2M_ANPR/ANPR_RZA2M_GR_MANGO/src/tensorflow_lite/tensorflow/lite/kernels/internal\types.h ****       buffer_size *= dims_data[i];
 1796              		.loc 4 292 0
 1797 0e84 03A0A0E1 		mov	r10, r3
 1798 0e88 3DFFFFEA 		b	.L71
 1799              	.LVL215:
 1800              	.L122:
 1801 0e8c 0140A0E3 		mov	r4, #1
 1802 0e90 03A0A0E1 		mov	r10, r3
 1803 0e94 3CFFFFEA 		b	.L70
 1804              	.LVL216:
 1805              	.L194:
 1806              	.LBE598:
 1807              	.LBE599:
 1808              	.LBE614:
  92:../src/tensorflow_lite/tensorflow/lite/micro/kernels/pad.cc ****       (paddings_data[6] == 0 && paddings_data[7] == 0)) {
 1809              		.loc 1 92 0 discriminator 1
 1810 0e98 003097E5 		ldr	r3, [r7]
 1811 0e9c 000053E3 		cmp	r3, #0
 1812 0ea0 6AFFFF1A 		bne	.L80
  92:../src/tensorflow_lite/tensorflow/lite/micro/kernels/pad.cc ****       (paddings_data[6] == 0 && paddings_data[7] == 0)) {
 1813              		.loc 1 92 0 is_stmt 0 discriminator 2
 1814 0ea4 043097E5 		ldr	r3, [r7, #4]
 1815 0ea8 000053E3 		cmp	r3, #0
 1816 0eac 67FFFF1A 		bne	.L80
  92:../src/tensorflow_lite/tensorflow/lite/micro/kernels/pad.cc ****       (paddings_data[6] == 0 && paddings_data[7] == 0)) {
 1817              		.loc 1 92 0 discriminator 3
 1818 0eb0 183097E5 		ldr	r3, [r7, #24]
 1819 0eb4 000053E3 		cmp	r3, #0
 1820 0eb8 64FFFF1A 		bne	.L80
  93:../src/tensorflow_lite/tensorflow/lite/micro/kernels/pad.cc ****     data->params.resizing_category = ResizingCategory::kImageStyle;
 1821              		.loc 1 93 0 is_stmt 1
 1822 0ebc 1C3097E5 		ldr	r3, [r7, #28]
 1823 0ec0 000053E3 		cmp	r3, #0
  94:../src/tensorflow_lite/tensorflow/lite/micro/kernels/pad.cc ****   }
 1824              		.loc 1 94 0
 1825 0ec4 0130A003 		moveq	r3, #1
 1826 0ec8 3030CB05 		strbeq	r3, [fp, #48]
 1827 0ecc 5FFFFFEA 		b	.L80
 1828              	.LVL217:
 1829              	.L178:
  46:../src/tensorflow_lite/tensorflow/lite/micro/kernels/pad.cc ****   OpData* data = static_cast<OpData*>(node->user_data);
 1830              		.loc 1 46 0 discriminator 1
 1831 0ed0 FEFFFFEB 		bl	abort
 1832              	.LVL218:
 1833              	.L196:
 124:../src/tensorflow_lite/tensorflow/lite/micro/kernels/pad.cc ****                         constant_values->params.zero_point);
 1834              		.loc 1 124 0 discriminator 1
 1835 0ed4 0CE08DE5 		str	lr, [sp, #12]
 1836 0ed8 000000E3 		movw	r0, #:lower16:.LC23
 1837 0edc 18E09DE5 		ldr	lr, [sp, #24]
 1838 0ee0 00C000E3 		movw	ip, #:lower16:.LC24
 1839 0ee4 000040E3 		movt	r0, #:upper16:.LC23
 1840 0ee8 00C040E3 		movt	ip, #:upper16:.LC24
 1841 0eec 002000E3 		movw	r2, #:lower16:.LC1
 1842 0ef0 001000E3 		movw	r1, #:lower16:.LC2
 1843 0ef4 08308DE5 		str	r3, [sp, #8]
 1844 0ef8 002040E3 		movt	r2, #:upper16:.LC1
 1845 0efc 04008DE5 		str	r0, [sp, #4]
 1846 0f00 001040E3 		movt	r1, #:upper16:.LC2
 1847 0f04 0E00A0E1 		mov	r0, lr
 1848 0f08 00C08DE5 		str	ip, [sp]
 1849 0f0c 7D30A0E3 		mov	r3, #125
 1850 0f10 14409EE5 		ldr	r4, [lr, #20]
 1851 0f14 34FF2FE1 		blx	r4
 1852              	.LVL219:
 1853 0f18 0100A0E3 		mov	r0, #1
 1854 0f1c 4EFCFFEA 		b	.L169
 1855              	.L195:
 110:../src/tensorflow_lite/tensorflow/lite/micro/kernels/pad.cc ****         TF_LITE_ENSURE(context, output->params.zero_point >=
 1856              		.loc 1 110 0
 1857 0f20 030053E3 		cmp	r3, #3
 111:../src/tensorflow_lite/tensorflow/lite/micro/kernels/pad.cc ****                                     std::numeric_limits<uint8_t>::min());
 1858              		.loc 1 111 0
 1859 0f24 20309DE5 		ldr	r3, [sp, #32]
 1860 0f28 103093E5 		ldr	r3, [r3, #16]
 110:../src/tensorflow_lite/tensorflow/lite/micro/kernels/pad.cc ****         TF_LITE_ENSURE(context, output->params.zero_point >=
 1861              		.loc 1 110 0
 1862 0f2c 3300000A 		beq	.L198
 116:../src/tensorflow_lite/tensorflow/lite/micro/kernels/pad.cc ****                                     std::numeric_limits<int8_t>::min());
 1863              		.loc 1 116 0
 1864 0f30 800073E3 		cmn	r3, #128
 1865 0f34 230000BA 		blt	.L199
 118:../src/tensorflow_lite/tensorflow/lite/micro/kernels/pad.cc ****                                     std::numeric_limits<int8_t>::max());
 1866              		.loc 1 118 0
 1867 0f38 7F0053E3 		cmp	r3, #127
 1868 0f3c 89FFFFDA 		ble	.L87
 118:../src/tensorflow_lite/tensorflow/lite/micro/kernels/pad.cc ****                                     std::numeric_limits<int8_t>::max());
 1869              		.loc 1 118 0 is_stmt 0 discriminator 1
 1870 0f40 003000E3 		movw	r3, #:lower16:.LC22
 1871 0f44 002000E3 		movw	r2, #:lower16:.LC1
 1872 0f48 003040E3 		movt	r3, #:upper16:.LC22
 1873 0f4c 001000E3 		movw	r1, #:lower16:.LC5
 1874 0f50 00308DE5 		str	r3, [sp]
 1875 0f54 002040E3 		movt	r2, #:upper16:.LC1
 1876 0f58 18309DE5 		ldr	r3, [sp, #24]
 1877 0f5c 001040E3 		movt	r1, #:upper16:.LC5
 1878 0f60 0300A0E1 		mov	r0, r3
 1879 0f64 144093E5 		ldr	r4, [r3, #20]
 1880 0f68 7730A0E3 		mov	r3, #119
 1881 0f6c 34FF2FE1 		blx	r4
 1882              	.LVL220:
 1883 0f70 0100A0E3 		mov	r0, #1
 1884 0f74 38FCFFEA 		b	.L169
 1885              	.L197:
 126:../src/tensorflow_lite/tensorflow/lite/micro/kernels/pad.cc ****                         static_cast<double>(constant_values->params.scale));
 1886              		.loc 1 126 0 is_stmt 1 discriminator 1
 1887 0f78 C71AF7EE 		vcvt.f64.f32	d17, s14
 1888 0f7c 000000E3 		movw	r0, #:lower16:.LC25
 1889 0f80 E70AF7EE 		vcvt.f64.f32	d16, s15
 1890 0f84 003000E3 		movw	r3, #:lower16:.LC26
 1891 0f88 18C09DE5 		ldr	ip, [sp, #24]
 1892 0f8c 000040E3 		movt	r0, #:upper16:.LC25
 1893 0f90 003040E3 		movt	r3, #:upper16:.LC26
 1894 0f94 002000E3 		movw	r2, #:lower16:.LC1
 1895 0f98 001000E3 		movw	r1, #:lower16:.LC2
 1896 0f9c 04008DE5 		str	r0, [sp, #4]
 1897 0fa0 00308DE5 		str	r3, [sp]
 1898 0fa4 002040E3 		movt	r2, #:upper16:.LC1
 1899 0fa8 041BCDED 		vstr.64	d17, [sp, #16]
 1900 0fac 001040E3 		movt	r1, #:upper16:.LC2
 1901 0fb0 020BCDED 		vstr.64	d16, [sp, #8]
 1902 0fb4 0C00A0E1 		mov	r0, ip
 1903 0fb8 7F30A0E3 		mov	r3, #127
 1904 0fbc 14409CE5 		ldr	r4, [ip, #20]
 1905 0fc0 34FF2FE1 		blx	r4
 1906              	.LVL221:
 1907 0fc4 34FEFFEA 		b	.L174
 1908              	.L199:
 116:../src/tensorflow_lite/tensorflow/lite/micro/kernels/pad.cc ****                                     std::numeric_limits<int8_t>::min());
 1909              		.loc 1 116 0 discriminator 1
 1910 0fc8 003000E3 		movw	r3, #:lower16:.LC21
 1911 0fcc 002000E3 		movw	r2, #:lower16:.LC1
 1912 0fd0 003040E3 		movt	r3, #:upper16:.LC21
 1913 0fd4 001000E3 		movw	r1, #:lower16:.LC5
 1914 0fd8 00308DE5 		str	r3, [sp]
 1915 0fdc 002040E3 		movt	r2, #:upper16:.LC1
 1916 0fe0 18309DE5 		ldr	r3, [sp, #24]
 1917 0fe4 001040E3 		movt	r1, #:upper16:.LC5
 1918 0fe8 0300A0E1 		mov	r0, r3
 1919 0fec 144093E5 		ldr	r4, [r3, #20]
 1920 0ff0 7530A0E3 		mov	r3, #117
 1921 0ff4 34FF2FE1 		blx	r4
 1922              	.LVL222:
 1923 0ff8 0100A0E3 		mov	r0, #1
 1924 0ffc 16FCFFEA 		b	.L169
 1925              	.L198:
 111:../src/tensorflow_lite/tensorflow/lite/micro/kernels/pad.cc ****                                     std::numeric_limits<uint8_t>::min());
 1926              		.loc 1 111 0
 1927 1000 000053E3 		cmp	r3, #0
 1928 1004 170000BA 		blt	.L200
 113:../src/tensorflow_lite/tensorflow/lite/micro/kernels/pad.cc ****                                     std::numeric_limits<uint8_t>::max());
 1929              		.loc 1 113 0
 1930 1008 FF0053E3 		cmp	r3, #255
 1931 100c 55FFFFDA 		ble	.L87
 113:../src/tensorflow_lite/tensorflow/lite/micro/kernels/pad.cc ****                                     std::numeric_limits<uint8_t>::max());
 1932              		.loc 1 113 0 is_stmt 0 discriminator 1
 1933 1010 003000E3 		movw	r3, #:lower16:.LC20
 1934 1014 002000E3 		movw	r2, #:lower16:.LC1
 1935 1018 003040E3 		movt	r3, #:upper16:.LC20
 1936 101c 001000E3 		movw	r1, #:lower16:.LC5
 1937 1020 00308DE5 		str	r3, [sp]
 1938 1024 002040E3 		movt	r2, #:upper16:.LC1
 1939 1028 18309DE5 		ldr	r3, [sp, #24]
 1940 102c 001040E3 		movt	r1, #:upper16:.LC5
 1941 1030 0300A0E1 		mov	r0, r3
 1942 1034 144093E5 		ldr	r4, [r3, #20]
 1943 1038 7230A0E3 		mov	r3, #114
 1944 103c 34FF2FE1 		blx	r4
 1945              	.LVL223:
 1946 1040 0100A0E3 		mov	r0, #1
 1947 1044 04FCFFEA 		b	.L169
 1948              	.LVL224:
 1949              	.L30:
 1950              	.LBB615:
 1951              	.LBB502:
 1952              	.LBB500:
 1953              	.LBB498:
 1954              	.LBB496:
 1955              	.LBB494:
 1956              	.LBB491:
 1957              	.LBB490:
 1958              	.LBB489:
 250:C:/Renesas/e2studio_2021_01_workspace_RZA2M_ANPR/ANPR_RZA2M_GR_MANGO/src/tensorflow_lite/tensorflow/lite/kernels/internal\types.h **** #endif  // TF_LITE_STATIC_MEMORY
 1959              		.loc 4 250 0 is_stmt 1
 1960 1048 FEFFFFEB 		bl	__cxa_throw_bad_array_new_length
 1961              	.LVL225:
 1962              	.L129:
 1963              	.LBE489:
 1964              	.LBE490:
 1965              	.LBE491:
 1966              	.LBE494:
 1967              	.LBE496:
 1968              	.LBE498:
 1969              	.LBE500:
 1970              	.LBE502:
 1971              	.LBE615:
 1972              	.LBB616:
 1973              	.LBB617:
 203:C:/Renesas/e2studio_2021_01_workspace_RZA2M_ANPR/ANPR_RZA2M_GR_MANGO/src/tensorflow_lite/tensorflow/lite/kernels/internal\types.h **** #ifdef TF_LITE_STATIC_MEMORY
 1974              		.loc 4 203 0
 1975 104c 050054E3 		cmp	r4, #5
 1976 1050 030000DA 		ble	.L91
 207:C:/Renesas/e2studio_2021_01_workspace_RZA2M_ANPR/ANPR_RZA2M_GR_MANGO/src/tensorflow_lite/tensorflow/lite/kernels/internal\types.h **** #endif  // TF_LITE_STATIC_MEMORY
 1977              		.loc 4 207 0
 1978 1054 54009DE5 		ldr	r0, [sp, #84]
 1979 1058 000050E3 		cmp	r0, #0
 1980 105c 0000000A 		beq	.L91
 1981 1060 FEFFFFEB 		bl	_ZdaPv
 1982              	.LVL226:
 1983              	.L91:
 1984 1064 FEFFFFEB 		bl	__cxa_end_cleanup
 1985              	.LVL227:
 1986              	.L200:
 1987              	.LBE617:
 1988              	.LBE616:
 111:../src/tensorflow_lite/tensorflow/lite/micro/kernels/pad.cc ****                                     std::numeric_limits<uint8_t>::min());
 1989              		.loc 1 111 0 discriminator 1
 1990 1068 003000E3 		movw	r3, #:lower16:.LC19
 1991 106c 002000E3 		movw	r2, #:lower16:.LC1
 1992 1070 003040E3 		movt	r3, #:upper16:.LC19
 1993 1074 001000E3 		movw	r1, #:lower16:.LC5
 1994 1078 00308DE5 		str	r3, [sp]
 1995 107c 002040E3 		movt	r2, #:upper16:.LC1
 1996 1080 18309DE5 		ldr	r3, [sp, #24]
 1997 1084 001040E3 		movt	r1, #:upper16:.LC5
 1998 1088 0300A0E1 		mov	r0, r3
 1999 108c 144093E5 		ldr	r4, [r3, #20]
 2000 1090 7030A0E3 		mov	r3, #112
 2001 1094 34FF2FE1 		blx	r4
 2002              	.LVL228:
 2003              	.LEHE2:
 2004 1098 0100A0E3 		mov	r0, #1
 2005 109c EEFBFFEA 		b	.L169
 2006              		.cfi_endproc
 2007              	.LFE1320:
 2008              		.global	__gxx_personality_v0
 2009              		.personality	__gxx_personality_v0
 2010              		.handlerdata
 2011              	.LLSDA1320:
 2012 0008 FF       		.byte	0xff
 2013 0009 FF       		.byte	0xff
 2014 000a 01       		.byte	0x1
 2015 000b 11       		.uleb128 .LLSDACSE1320-.LLSDACSB1320
 2016              	.LLSDACSB1320:
 2017 000c 54       		.uleb128 .LEHB0-.LFB1320
 2018 000d 880D     		.uleb128 .LEHE0-.LEHB0
 2019 000f 00       		.uleb128 0
 2020 0010 00       		.uleb128 0
 2021 0011 8011     		.uleb128 .LEHB1-.LFB1320
 2022 0013 04       		.uleb128 .LEHE1-.LEHB1
 2023 0014 CC20     		.uleb128 .L129-.LFB1320
 2024 0016 00       		.uleb128 0
 2025 0017 E411     		.uleb128 .LEHB2-.LFB1320
 2026 0019 B40F     		.uleb128 .LEHE2-.LEHB2
 2027 001b 00       		.uleb128 0
 2028 001c 00       		.uleb128 0
 2029              	.LLSDACSE1320:
 2030              		.section	.text._ZN6tflite3ops5micro3pad7PrepareEP13TfLiteContextP10TfLiteNode
 2031              		.fnend
 2033              		.section	.text._ZN6tflite3ops5micro3pad4EvalEP13TfLiteContextP10TfLiteNode,"ax",%progbits
 2034              		.align	2
 2035              		.global	_ZN6tflite3ops5micro3pad4EvalEP13TfLiteContextP10TfLiteNode
 2036              		.syntax unified
 2037              		.arm
 2038              		.fpu neon
 2040              	_ZN6tflite3ops5micro3pad4EvalEP13TfLiteContextP10TfLiteNode:
 2041              		.fnstart
 2042              	.LFB1321:
 134:../src/tensorflow_lite/tensorflow/lite/micro/kernels/pad.cc **** 
 135:../src/tensorflow_lite/tensorflow/lite/micro/kernels/pad.cc **** TfLiteStatus Eval(TfLiteContext* context, TfLiteNode* node) {
 2043              		.loc 1 135 0
 2044              		.cfi_startproc
 2045              		.cfi_personality 0,__gxx_personality_v0
 2046              		.cfi_lsda 0,.LLSDA1321
 2047              		@ args = 0, pretend = 0, frame = 232
 2048              		@ frame_needed = 0, uses_anonymous_args = 0
 2049              	.LVL229:
 2050 0000 F04F2DE9 		push	{r4, r5, r6, r7, r8, r9, r10, fp, lr}
 2051              		.save {r4, r5, r6, r7, r8, r9, r10, fp, lr}
 2052              		.cfi_def_cfa_offset 36
 2053              		.cfi_offset 4, -36
 2054              		.cfi_offset 5, -32
 2055              		.cfi_offset 6, -28
 2056              		.cfi_offset 7, -24
 2057              		.cfi_offset 8, -20
 2058              		.cfi_offset 9, -16
 2059              		.cfi_offset 10, -12
 2060              		.cfi_offset 11, -8
 2061              		.cfi_offset 14, -4
 2062              		.pad #236
 2063 0004 ECD04DE2 		sub	sp, sp, #236
 2064              		.cfi_def_cfa_offset 272
 136:../src/tensorflow_lite/tensorflow/lite/micro/kernels/pad.cc ****   TFLITE_DCHECK(node->user_data != nullptr);
 2065              		.loc 1 136 0
 2066 0008 105091E5 		ldr	r5, [r1, #16]
 2067 000c 000055E3 		cmp	r5, #0
 2068 0010 2000000A 		beq	.L203
 2069              	.LBB1200:
 2070              	.LBB1201:
 2071              	.LBB1202:
 2072              		.file 5 "C:/Renesas/e2studio_2021_01_workspace_RZA2M_ANPR/ANPR_RZA2M_GR_MANGO/src/tensorflow_lite/
   1:C:/Renesas/e2studio_2021_01_workspace_RZA2M_ANPR/ANPR_RZA2M_GR_MANGO/src/tensorflow_lite/tensorflow/lite/micro/kernels\kernel_util.h **** /* Copyright 2020 The TensorFlow Authors. All Rights Reserved.
   2:C:/Renesas/e2studio_2021_01_workspace_RZA2M_ANPR/ANPR_RZA2M_GR_MANGO/src/tensorflow_lite/tensorflow/lite/micro/kernels\kernel_util.h **** 
   3:C:/Renesas/e2studio_2021_01_workspace_RZA2M_ANPR/ANPR_RZA2M_GR_MANGO/src/tensorflow_lite/tensorflow/lite/micro/kernels\kernel_util.h **** Licensed under the Apache License, Version 2.0 (the "License");
   4:C:/Renesas/e2studio_2021_01_workspace_RZA2M_ANPR/ANPR_RZA2M_GR_MANGO/src/tensorflow_lite/tensorflow/lite/micro/kernels\kernel_util.h **** you may not use this file except in compliance with the License.
   5:C:/Renesas/e2studio_2021_01_workspace_RZA2M_ANPR/ANPR_RZA2M_GR_MANGO/src/tensorflow_lite/tensorflow/lite/micro/kernels\kernel_util.h **** You may obtain a copy of the License at
   6:C:/Renesas/e2studio_2021_01_workspace_RZA2M_ANPR/ANPR_RZA2M_GR_MANGO/src/tensorflow_lite/tensorflow/lite/micro/kernels\kernel_util.h **** 
   7:C:/Renesas/e2studio_2021_01_workspace_RZA2M_ANPR/ANPR_RZA2M_GR_MANGO/src/tensorflow_lite/tensorflow/lite/micro/kernels\kernel_util.h ****     http://www.apache.org/licenses/LICENSE-2.0
   8:C:/Renesas/e2studio_2021_01_workspace_RZA2M_ANPR/ANPR_RZA2M_GR_MANGO/src/tensorflow_lite/tensorflow/lite/micro/kernels\kernel_util.h **** 
   9:C:/Renesas/e2studio_2021_01_workspace_RZA2M_ANPR/ANPR_RZA2M_GR_MANGO/src/tensorflow_lite/tensorflow/lite/micro/kernels\kernel_util.h **** Unless required by applicable law or agreed to in writing, software
  10:C:/Renesas/e2studio_2021_01_workspace_RZA2M_ANPR/ANPR_RZA2M_GR_MANGO/src/tensorflow_lite/tensorflow/lite/micro/kernels\kernel_util.h **** distributed under the License is distributed on an "AS IS" BASIS,
  11:C:/Renesas/e2studio_2021_01_workspace_RZA2M_ANPR/ANPR_RZA2M_GR_MANGO/src/tensorflow_lite/tensorflow/lite/micro/kernels\kernel_util.h **** WITHOUT WARRANTIES OR CONDITIONS OF ANY KIND, either express or implied.
  12:C:/Renesas/e2studio_2021_01_workspace_RZA2M_ANPR/ANPR_RZA2M_GR_MANGO/src/tensorflow_lite/tensorflow/lite/micro/kernels\kernel_util.h **** See the License for the specific language governing permissions and
  13:C:/Renesas/e2studio_2021_01_workspace_RZA2M_ANPR/ANPR_RZA2M_GR_MANGO/src/tensorflow_lite/tensorflow/lite/micro/kernels\kernel_util.h **** limitations under the License.
  14:C:/Renesas/e2studio_2021_01_workspace_RZA2M_ANPR/ANPR_RZA2M_GR_MANGO/src/tensorflow_lite/tensorflow/lite/micro/kernels\kernel_util.h **** ==============================================================================*/
  15:C:/Renesas/e2studio_2021_01_workspace_RZA2M_ANPR/ANPR_RZA2M_GR_MANGO/src/tensorflow_lite/tensorflow/lite/micro/kernels\kernel_util.h **** 
  16:C:/Renesas/e2studio_2021_01_workspace_RZA2M_ANPR/ANPR_RZA2M_GR_MANGO/src/tensorflow_lite/tensorflow/lite/micro/kernels\kernel_util.h **** #ifndef TENSORFLOW_LITE_MICRO_KERNELS_KERNEL_UTIL_H_
  17:C:/Renesas/e2studio_2021_01_workspace_RZA2M_ANPR/ANPR_RZA2M_GR_MANGO/src/tensorflow_lite/tensorflow/lite/micro/kernels\kernel_util.h **** #define TENSORFLOW_LITE_MICRO_KERNELS_KERNEL_UTIL_H_
  18:C:/Renesas/e2studio_2021_01_workspace_RZA2M_ANPR/ANPR_RZA2M_GR_MANGO/src/tensorflow_lite/tensorflow/lite/micro/kernels\kernel_util.h **** 
  19:C:/Renesas/e2studio_2021_01_workspace_RZA2M_ANPR/ANPR_RZA2M_GR_MANGO/src/tensorflow_lite/tensorflow/lite/micro/kernels\kernel_util.h **** #include <cstdint>
  20:C:/Renesas/e2studio_2021_01_workspace_RZA2M_ANPR/ANPR_RZA2M_GR_MANGO/src/tensorflow_lite/tensorflow/lite/micro/kernels\kernel_util.h **** 
  21:C:/Renesas/e2studio_2021_01_workspace_RZA2M_ANPR/ANPR_RZA2M_GR_MANGO/src/tensorflow_lite/tensorflow/lite/micro/kernels\kernel_util.h **** #include "tensorflow/lite/c/builtin_op_data.h"
  22:C:/Renesas/e2studio_2021_01_workspace_RZA2M_ANPR/ANPR_RZA2M_GR_MANGO/src/tensorflow_lite/tensorflow/lite/micro/kernels\kernel_util.h **** #include "tensorflow/lite/c/common.h"
  23:C:/Renesas/e2studio_2021_01_workspace_RZA2M_ANPR/ANPR_RZA2M_GR_MANGO/src/tensorflow_lite/tensorflow/lite/micro/kernels\kernel_util.h **** #include "tensorflow/lite/kernels/internal/compatibility.h"
  24:C:/Renesas/e2studio_2021_01_workspace_RZA2M_ANPR/ANPR_RZA2M_GR_MANGO/src/tensorflow_lite/tensorflow/lite/micro/kernels\kernel_util.h **** #include "tensorflow/lite/kernels/internal/types.h"
  25:C:/Renesas/e2studio_2021_01_workspace_RZA2M_ANPR/ANPR_RZA2M_GR_MANGO/src/tensorflow_lite/tensorflow/lite/micro/kernels\kernel_util.h **** 
  26:C:/Renesas/e2studio_2021_01_workspace_RZA2M_ANPR/ANPR_RZA2M_GR_MANGO/src/tensorflow_lite/tensorflow/lite/micro/kernels\kernel_util.h **** namespace tflite {
  27:C:/Renesas/e2studio_2021_01_workspace_RZA2M_ANPR/ANPR_RZA2M_GR_MANGO/src/tensorflow_lite/tensorflow/lite/micro/kernels\kernel_util.h **** namespace micro {
  28:C:/Renesas/e2studio_2021_01_workspace_RZA2M_ANPR/ANPR_RZA2M_GR_MANGO/src/tensorflow_lite/tensorflow/lite/micro/kernels\kernel_util.h **** 
  29:C:/Renesas/e2studio_2021_01_workspace_RZA2M_ANPR/ANPR_RZA2M_GR_MANGO/src/tensorflow_lite/tensorflow/lite/micro/kernels\kernel_util.h **** // Returns a mutable tensor for a given input index. is_variable must be checked
  30:C:/Renesas/e2studio_2021_01_workspace_RZA2M_ANPR/ANPR_RZA2M_GR_MANGO/src/tensorflow_lite/tensorflow/lite/micro/kernels\kernel_util.h **** // during prepare when the full TfLiteTensor is available.
  31:C:/Renesas/e2studio_2021_01_workspace_RZA2M_ANPR/ANPR_RZA2M_GR_MANGO/src/tensorflow_lite/tensorflow/lite/micro/kernels\kernel_util.h **** inline TfLiteEvalTensor* GetMutableEvalInput(const TfLiteContext* context,
  32:C:/Renesas/e2studio_2021_01_workspace_RZA2M_ANPR/ANPR_RZA2M_GR_MANGO/src/tensorflow_lite/tensorflow/lite/micro/kernels\kernel_util.h ****                                              const TfLiteNode* node,
  33:C:/Renesas/e2studio_2021_01_workspace_RZA2M_ANPR/ANPR_RZA2M_GR_MANGO/src/tensorflow_lite/tensorflow/lite/micro/kernels\kernel_util.h ****                                              int index) {
  34:C:/Renesas/e2studio_2021_01_workspace_RZA2M_ANPR/ANPR_RZA2M_GR_MANGO/src/tensorflow_lite/tensorflow/lite/micro/kernels\kernel_util.h ****   TFLITE_DCHECK(context != nullptr);
 2073              		.loc 5 34 0
 2074 0014 000050E3 		cmp	r0, #0
 2075 0018 0080A0E1 		mov	r8, r0
 2076              	.LVL230:
 2077 001c 1D00000A 		beq	.L203
  35:C:/Renesas/e2studio_2021_01_workspace_RZA2M_ANPR/ANPR_RZA2M_GR_MANGO/src/tensorflow_lite/tensorflow/lite/micro/kernels\kernel_util.h ****   TFLITE_DCHECK(node != nullptr);
  36:C:/Renesas/e2studio_2021_01_workspace_RZA2M_ANPR/ANPR_RZA2M_GR_MANGO/src/tensorflow_lite/tensorflow/lite/micro/kernels\kernel_util.h ****   return context->GetEvalTensor(context, node->inputs->data[index]);
 2078              		.loc 5 36 0
 2079 0020 002091E5 		ldr	r2, [r1]
 2080 0024 0160A0E1 		mov	r6, r1
 2081 0028 543090E5 		ldr	r3, [r0, #84]
 2082 002c 041092E5 		ldr	r1, [r2, #4]
 2083              	.LVL231:
 2084              	.LEHB3:
 2085 0030 33FF2FE1 		blx	r3
 2086              	.LVL232:
 2087 0034 003096E5 		ldr	r3, [r6]
 2088 0038 0070A0E1 		mov	r7, r0
 2089              	.LVL233:
 2090              	.LBE1202:
 2091              	.LBE1201:
 2092              	.LBE1200:
 137:../src/tensorflow_lite/tensorflow/lite/micro/kernels/pad.cc ****   const OpData* data = static_cast<const OpData*>(node->user_data);
 138:../src/tensorflow_lite/tensorflow/lite/micro/kernels/pad.cc **** 
 139:../src/tensorflow_lite/tensorflow/lite/micro/kernels/pad.cc ****   const TfLiteEvalTensor* input =
 140:../src/tensorflow_lite/tensorflow/lite/micro/kernels/pad.cc ****       tflite::micro::GetEvalInput(context, node, /*index=*/0);
 141:../src/tensorflow_lite/tensorflow/lite/micro/kernels/pad.cc ****   const TfLiteEvalTensor* constant_values =
 142:../src/tensorflow_lite/tensorflow/lite/micro/kernels/pad.cc ****       NumInputs(node) == 3
 143:../src/tensorflow_lite/tensorflow/lite/micro/kernels/pad.cc ****           ? tflite::micro::GetEvalInput(context, node, /*index=*/2)
 2093              		.loc 1 143 0
 2094 003c 002093E5 		ldr	r2, [r3]
 2095 0040 030052E3 		cmp	r2, #3
 2096 0044 4907000A 		beq	.L1463
 2097              	.LVL234:
 2098              	.LBB1203:
 2099              	.LBB1204:
  37:C:/Renesas/e2studio_2021_01_workspace_RZA2M_ANPR/ANPR_RZA2M_GR_MANGO/src/tensorflow_lite/tensorflow/lite/micro/kernels\kernel_util.h **** }
  38:C:/Renesas/e2studio_2021_01_workspace_RZA2M_ANPR/ANPR_RZA2M_GR_MANGO/src/tensorflow_lite/tensorflow/lite/micro/kernels\kernel_util.h **** 
  39:C:/Renesas/e2studio_2021_01_workspace_RZA2M_ANPR/ANPR_RZA2M_GR_MANGO/src/tensorflow_lite/tensorflow/lite/micro/kernels\kernel_util.h **** // Returns the TfLiteEvalTensor struct for a given input index in a node.
  40:C:/Renesas/e2studio_2021_01_workspace_RZA2M_ANPR/ANPR_RZA2M_GR_MANGO/src/tensorflow_lite/tensorflow/lite/micro/kernels\kernel_util.h **** inline const TfLiteEvalTensor* GetEvalInput(const TfLiteContext* context,
  41:C:/Renesas/e2studio_2021_01_workspace_RZA2M_ANPR/ANPR_RZA2M_GR_MANGO/src/tensorflow_lite/tensorflow/lite/micro/kernels\kernel_util.h ****                                             const TfLiteNode* node, int index) {
  42:C:/Renesas/e2studio_2021_01_workspace_RZA2M_ANPR/ANPR_RZA2M_GR_MANGO/src/tensorflow_lite/tensorflow/lite/micro/kernels\kernel_util.h ****   return GetMutableEvalInput(context, node, index);
  43:C:/Renesas/e2studio_2021_01_workspace_RZA2M_ANPR/ANPR_RZA2M_GR_MANGO/src/tensorflow_lite/tensorflow/lite/micro/kernels\kernel_util.h **** }
  44:C:/Renesas/e2studio_2021_01_workspace_RZA2M_ANPR/ANPR_RZA2M_GR_MANGO/src/tensorflow_lite/tensorflow/lite/micro/kernels\kernel_util.h **** 
  45:C:/Renesas/e2studio_2021_01_workspace_RZA2M_ANPR/ANPR_RZA2M_GR_MANGO/src/tensorflow_lite/tensorflow/lite/micro/kernels\kernel_util.h **** // Returns the TfLiteEvalTensor struct for a given output index in a node.
  46:C:/Renesas/e2studio_2021_01_workspace_RZA2M_ANPR/ANPR_RZA2M_GR_MANGO/src/tensorflow_lite/tensorflow/lite/micro/kernels\kernel_util.h **** inline TfLiteEvalTensor* GetEvalOutput(const TfLiteContext* context,
  47:C:/Renesas/e2studio_2021_01_workspace_RZA2M_ANPR/ANPR_RZA2M_GR_MANGO/src/tensorflow_lite/tensorflow/lite/micro/kernels\kernel_util.h ****                                        const TfLiteNode* node, int index) {
  48:C:/Renesas/e2studio_2021_01_workspace_RZA2M_ANPR/ANPR_RZA2M_GR_MANGO/src/tensorflow_lite/tensorflow/lite/micro/kernels\kernel_util.h ****   TFLITE_DCHECK(context != nullptr);
  49:C:/Renesas/e2studio_2021_01_workspace_RZA2M_ANPR/ANPR_RZA2M_GR_MANGO/src/tensorflow_lite/tensorflow/lite/micro/kernels\kernel_util.h ****   TFLITE_DCHECK(node != nullptr);
  50:C:/Renesas/e2studio_2021_01_workspace_RZA2M_ANPR/ANPR_RZA2M_GR_MANGO/src/tensorflow_lite/tensorflow/lite/micro/kernels\kernel_util.h ****   return context->GetEvalTensor(context, node->outputs->data[index]);
 2100              		.loc 5 50 0
 2101 0048 042096E5 		ldr	r2, [r6, #4]
 2102 004c 0800A0E1 		mov	r0, r8
 2103 0050 543098E5 		ldr	r3, [r8, #84]
 2104 0054 041092E5 		ldr	r1, [r2, #4]
 2105 0058 33FF2FE1 		blx	r3
 2106              	.LVL235:
 2107 005c 0090A0E1 		mov	r9, r0
 2108              	.LVL236:
 2109              	.LBE1204:
 2110              	.LBE1203:
 2111              	.LBB1207:
 144:../src/tensorflow_lite/tensorflow/lite/micro/kernels/pad.cc ****           : nullptr;
 145:../src/tensorflow_lite/tensorflow/lite/micro/kernels/pad.cc ****   TfLiteEvalTensor* output =
 146:../src/tensorflow_lite/tensorflow/lite/micro/kernels/pad.cc ****       tflite::micro::GetEvalOutput(context, node, /*index=*/0);
 147:../src/tensorflow_lite/tensorflow/lite/micro/kernels/pad.cc **** 
 148:../src/tensorflow_lite/tensorflow/lite/micro/kernels/pad.cc ****   switch (input->type) {
 2112              		.loc 1 148 0
 2113 0060 0800D7E5 		ldrb	r0, [r7, #8]	@ zero_extendqisi2
 2114 0064 013040E2 		sub	r3, r0, #1
 2115 0068 080053E3 		cmp	r3, #8
 2116 006c 03F19F97 		ldrls	pc, [pc, r3, asl #2]
 2117 0070 350700EA 		b	.L205
 2118              	.L688:
 2119 0074 E00D0000 		.word	.L762
 2120 0078 4C0D0000 		.word	.L763
 2121 007c 40010000 		.word	.L362
 2122 0080 4C1D0000 		.word	.L205
 2123 0084 4C1D0000 		.word	.L205
 2124 0088 4C1D0000 		.word	.L205
 2125 008c 4C1D0000 		.word	.L205
 2126 0090 4C1D0000 		.word	.L205
 2127 0094 9C000000 		.word	.L473
 2128              	.LVL237:
 2129              	.L203:
 2130              	.LBE1207:
 136:../src/tensorflow_lite/tensorflow/lite/micro/kernels/pad.cc ****   const OpData* data = static_cast<const OpData*>(node->user_data);
 2131              		.loc 1 136 0 discriminator 1
 2132 0098 FEFFFFEB 		bl	abort
 2133              	.LVL238:
 2134              	.L473:
 2135              	.LBB2421:
 2136              	.LBB1208:
 2137              	.LBB1209:
 149:../src/tensorflow_lite/tensorflow/lite/micro/kernels/pad.cc ****     case kTfLiteFloat32: {
 150:../src/tensorflow_lite/tensorflow/lite/micro/kernels/pad.cc ****       float pad_value =
 151:../src/tensorflow_lite/tensorflow/lite/micro/kernels/pad.cc ****           constant_values == nullptr
 152:../src/tensorflow_lite/tensorflow/lite/micro/kernels/pad.cc ****               ? 0.f
 153:../src/tensorflow_lite/tensorflow/lite/micro/kernels/pad.cc ****               : *tflite::micro::GetTensorData<float>(constant_values);
 154:../src/tensorflow_lite/tensorflow/lite/micro/kernels/pad.cc ****       if (data->params.resizing_category == ResizingCategory::kImageStyle) {
 155:../src/tensorflow_lite/tensorflow/lite/micro/kernels/pad.cc ****         reference_ops::PadImageStyle(
 156:../src/tensorflow_lite/tensorflow/lite/micro/kernels/pad.cc ****             data->params, tflite::micro::GetTensorShape(input),
 157:../src/tensorflow_lite/tensorflow/lite/micro/kernels/pad.cc ****             tflite::micro::GetTensorData<float>(input), &pad_value,
 158:../src/tensorflow_lite/tensorflow/lite/micro/kernels/pad.cc ****             tflite::micro::GetTensorShape(output),
 159:../src/tensorflow_lite/tensorflow/lite/micro/kernels/pad.cc ****             tflite::micro::GetTensorData<float>(output));
 160:../src/tensorflow_lite/tensorflow/lite/micro/kernels/pad.cc ****       } else {
 161:../src/tensorflow_lite/tensorflow/lite/micro/kernels/pad.cc ****         reference_ops::Pad(data->params, tflite::micro::GetTensorShape(input),
 162:../src/tensorflow_lite/tensorflow/lite/micro/kernels/pad.cc ****                            tflite::micro::GetTensorData<float>(input),
 163:../src/tensorflow_lite/tensorflow/lite/micro/kernels/pad.cc ****                            &pad_value, tflite::micro::GetTensorShape(output),
 164:../src/tensorflow_lite/tensorflow/lite/micro/kernels/pad.cc ****                            tflite::micro::GetTensorData<float>(output));
 165:../src/tensorflow_lite/tensorflow/lite/micro/kernels/pad.cc ****       }
 166:../src/tensorflow_lite/tensorflow/lite/micro/kernels/pad.cc ****     } break;
 167:../src/tensorflow_lite/tensorflow/lite/micro/kernels/pad.cc ****     case kTfLiteUInt8: {
 168:../src/tensorflow_lite/tensorflow/lite/micro/kernels/pad.cc ****       uint8_t pad_value;
 169:../src/tensorflow_lite/tensorflow/lite/micro/kernels/pad.cc ****       if (constant_values == nullptr) {
 170:../src/tensorflow_lite/tensorflow/lite/micro/kernels/pad.cc ****         pad_value = static_cast<uint8_t>(data->output_zero_point);
 171:../src/tensorflow_lite/tensorflow/lite/micro/kernels/pad.cc ****       } else {
 172:../src/tensorflow_lite/tensorflow/lite/micro/kernels/pad.cc ****         pad_value = *tflite::micro::GetTensorData<uint8_t>(constant_values);
 173:../src/tensorflow_lite/tensorflow/lite/micro/kernels/pad.cc ****       }
 174:../src/tensorflow_lite/tensorflow/lite/micro/kernels/pad.cc ****       if (data->params.resizing_category == ResizingCategory::kImageStyle) {
 175:../src/tensorflow_lite/tensorflow/lite/micro/kernels/pad.cc ****         reference_ops::PadImageStyle(
 176:../src/tensorflow_lite/tensorflow/lite/micro/kernels/pad.cc ****             data->params, tflite::micro::GetTensorShape(input),
 177:../src/tensorflow_lite/tensorflow/lite/micro/kernels/pad.cc ****             tflite::micro::GetTensorData<uint8_t>(input), &pad_value,
 178:../src/tensorflow_lite/tensorflow/lite/micro/kernels/pad.cc ****             tflite::micro::GetTensorShape(output),
 179:../src/tensorflow_lite/tensorflow/lite/micro/kernels/pad.cc ****             tflite::micro::GetTensorData<uint8_t>(output));
 180:../src/tensorflow_lite/tensorflow/lite/micro/kernels/pad.cc ****       } else {
 181:../src/tensorflow_lite/tensorflow/lite/micro/kernels/pad.cc ****         reference_ops::Pad(data->params, tflite::micro::GetTensorShape(input),
 182:../src/tensorflow_lite/tensorflow/lite/micro/kernels/pad.cc ****                            tflite::micro::GetTensorData<uint8_t>(input),
 183:../src/tensorflow_lite/tensorflow/lite/micro/kernels/pad.cc ****                            &pad_value, tflite::micro::GetTensorShape(output),
 184:../src/tensorflow_lite/tensorflow/lite/micro/kernels/pad.cc ****                            tflite::micro::GetTensorData<uint8_t>(output));
 185:../src/tensorflow_lite/tensorflow/lite/micro/kernels/pad.cc ****       }
 186:../src/tensorflow_lite/tensorflow/lite/micro/kernels/pad.cc ****     } break;
 187:../src/tensorflow_lite/tensorflow/lite/micro/kernels/pad.cc ****     case kTfLiteInt8: {
 188:../src/tensorflow_lite/tensorflow/lite/micro/kernels/pad.cc ****       int8_t pad_value;
 189:../src/tensorflow_lite/tensorflow/lite/micro/kernels/pad.cc ****       if (constant_values == nullptr) {
 190:../src/tensorflow_lite/tensorflow/lite/micro/kernels/pad.cc ****         pad_value = static_cast<uint8_t>(data->output_zero_point);
 2138              		.loc 1 190 0
 2139 009c D4A3D5E1 		ldrsb	r10, [r5, #52]
 2140              	.LVL239:
 2141              	.L474:
 191:../src/tensorflow_lite/tensorflow/lite/micro/kernels/pad.cc ****       } else {
 192:../src/tensorflow_lite/tensorflow/lite/micro/kernels/pad.cc ****         pad_value = *tflite::micro::GetTensorData<int8_t>(constant_values);
 193:../src/tensorflow_lite/tensorflow/lite/micro/kernels/pad.cc ****       }
 194:../src/tensorflow_lite/tensorflow/lite/micro/kernels/pad.cc ****       if (data->params.resizing_category == ResizingCategory::kImageStyle) {
 2142              		.loc 1 194 0
 2143 00a0 3030D5E5 		ldrb	r3, [r5, #48]	@ zero_extendqisi2
 2144 00a4 010053E3 		cmp	r3, #1
 2145 00a8 0203000A 		beq	.L1464
 195:../src/tensorflow_lite/tensorflow/lite/micro/kernels/pad.cc ****         reference_ops::PadImageStyle(
 196:../src/tensorflow_lite/tensorflow/lite/micro/kernels/pad.cc ****             data->params, tflite::micro::GetTensorShape(input),
 197:../src/tensorflow_lite/tensorflow/lite/micro/kernels/pad.cc ****             tflite::micro::GetTensorData<int8_t>(input), &pad_value,
 198:../src/tensorflow_lite/tensorflow/lite/micro/kernels/pad.cc ****             tflite::micro::GetTensorShape(output),
 199:../src/tensorflow_lite/tensorflow/lite/micro/kernels/pad.cc ****             tflite::micro::GetTensorData<int8_t>(output));
 200:../src/tensorflow_lite/tensorflow/lite/micro/kernels/pad.cc ****       } else {
 201:../src/tensorflow_lite/tensorflow/lite/micro/kernels/pad.cc ****         reference_ops::Pad(data->params, tflite::micro::GetTensorShape(input),
 2146              		.loc 1 201 0
 2147 00ac 0710A0E1 		mov	r1, r7
 2148 00b0 88008DE2 		add	r0, sp, #136
 2149 00b4 FEFFFFEB 		bl	_ZN6tflite5micro14GetTensorShapeEPK16TfLiteEvalTensor
 2150              	.LVL240:
 2151              	.LEHE3:
 2152              	.LBB1210:
 2153              	.LBB1211:
  51:C:/Renesas/e2studio_2021_01_workspace_RZA2M_ANPR/ANPR_RZA2M_GR_MANGO/src/tensorflow_lite/tensorflow/lite/micro/kernels\kernel_util.h **** }
  52:C:/Renesas/e2studio_2021_01_workspace_RZA2M_ANPR/ANPR_RZA2M_GR_MANGO/src/tensorflow_lite/tensorflow/lite/micro/kernels\kernel_util.h **** 
  53:C:/Renesas/e2studio_2021_01_workspace_RZA2M_ANPR/ANPR_RZA2M_GR_MANGO/src/tensorflow_lite/tensorflow/lite/micro/kernels\kernel_util.h **** // Returns data for a TfLiteEvalTensor struct.
  54:C:/Renesas/e2studio_2021_01_workspace_RZA2M_ANPR/ANPR_RZA2M_GR_MANGO/src/tensorflow_lite/tensorflow/lite/micro/kernels\kernel_util.h **** template <typename T>
  55:C:/Renesas/e2studio_2021_01_workspace_RZA2M_ANPR/ANPR_RZA2M_GR_MANGO/src/tensorflow_lite/tensorflow/lite/micro/kernels\kernel_util.h **** T* GetTensorData(TfLiteEvalTensor* tensor) {
  56:C:/Renesas/e2studio_2021_01_workspace_RZA2M_ANPR/ANPR_RZA2M_GR_MANGO/src/tensorflow_lite/tensorflow/lite/micro/kernels\kernel_util.h ****   return tensor != nullptr ? reinterpret_cast<T*>(tensor->data.raw) : nullptr;
  57:C:/Renesas/e2studio_2021_01_workspace_RZA2M_ANPR/ANPR_RZA2M_GR_MANGO/src/tensorflow_lite/tensorflow/lite/micro/kernels\kernel_util.h **** }
  58:C:/Renesas/e2studio_2021_01_workspace_RZA2M_ANPR/ANPR_RZA2M_GR_MANGO/src/tensorflow_lite/tensorflow/lite/micro/kernels\kernel_util.h **** 
  59:C:/Renesas/e2studio_2021_01_workspace_RZA2M_ANPR/ANPR_RZA2M_GR_MANGO/src/tensorflow_lite/tensorflow/lite/micro/kernels\kernel_util.h **** // Returns const data for a TfLiteEvalTensor struct.
  60:C:/Renesas/e2studio_2021_01_workspace_RZA2M_ANPR/ANPR_RZA2M_GR_MANGO/src/tensorflow_lite/tensorflow/lite/micro/kernels\kernel_util.h **** template <typename T>
  61:C:/Renesas/e2studio_2021_01_workspace_RZA2M_ANPR/ANPR_RZA2M_GR_MANGO/src/tensorflow_lite/tensorflow/lite/micro/kernels\kernel_util.h **** const T* GetTensorData(const TfLiteEvalTensor* tensor) {
  62:C:/Renesas/e2studio_2021_01_workspace_RZA2M_ANPR/ANPR_RZA2M_GR_MANGO/src/tensorflow_lite/tensorflow/lite/micro/kernels\kernel_util.h ****   TFLITE_DCHECK(tensor != nullptr);
  63:C:/Renesas/e2studio_2021_01_workspace_RZA2M_ANPR/ANPR_RZA2M_GR_MANGO/src/tensorflow_lite/tensorflow/lite/micro/kernels\kernel_util.h ****   return reinterpret_cast<const T*>(tensor->data.raw);
 2154              		.loc 5 63 0
 2155 00b8 003097E5 		ldr	r3, [r7]
 2156              	.LBE1211:
 2157              	.LBE1210:
 202:../src/tensorflow_lite/tensorflow/lite/micro/kernels/pad.cc ****                            tflite::micro::GetTensorData<int8_t>(input),
 203:../src/tensorflow_lite/tensorflow/lite/micro/kernels/pad.cc ****                            &pad_value, tflite::micro::GetTensorShape(output),
 2158              		.loc 1 203 0
 2159 00bc 0910A0E1 		mov	r1, r9
 2160 00c0 A0008DE2 		add	r0, sp, #160
 2161              	.LBB1213:
 2162              	.LBB1212:
 2163              		.loc 5 63 0
 2164 00c4 3C308DE5 		str	r3, [sp, #60]
 2165              	.LEHB4:
 2166              	.LBE1212:
 2167              	.LBE1213:
 2168              		.loc 1 203 0
 2169 00c8 FEFFFFEB 		bl	_ZN6tflite5micro14GetTensorShapeEPK16TfLiteEvalTensor
 2170              	.LVL241:
 2171              	.LEHE4:
 2172 00cc 88209DE5 		ldr	r2, [sp, #136]
 2173              	.LBB1214:
 2174              	.LBB1215:
  56:C:/Renesas/e2studio_2021_01_workspace_RZA2M_ANPR/ANPR_RZA2M_GR_MANGO/src/tensorflow_lite/tensorflow/lite/micro/kernels\kernel_util.h **** }
 2175              		.loc 5 56 0
 2176 00d0 000059E3 		cmp	r9, #0
 2177 00d4 00409915 		ldrne	r4, [r9]
 2178 00d8 0940A001 		moveq	r4, r9
 2179              	.LVL242:
 2180              	.LBE1215:
 2181              	.LBE1214:
 2182              	.LBB1216:
 2183              	.LBB1217:
 2184              	.LBB1218:
 2185              	.LBB1219:
 2186              	.LBB1220:
 2187              	.LBB1221:
 2188              	.LBB1222:
 294:C:/Renesas/e2studio_2021_01_workspace_RZA2M_ANPR/ANPR_RZA2M_GR_MANGO/src/tensorflow_lite/tensorflow/lite/kernels/internal\types.h ****     }
 295:C:/Renesas/e2studio_2021_01_workspace_RZA2M_ANPR/ANPR_RZA2M_GR_MANGO/src/tensorflow_lite/tensorflow/lite/kernels/internal\types.h ****     return buffer_size;
 296:C:/Renesas/e2studio_2021_01_workspace_RZA2M_ANPR/ANPR_RZA2M_GR_MANGO/src/tensorflow_lite/tensorflow/lite/kernels/internal\types.h ****   }
 297:C:/Renesas/e2studio_2021_01_workspace_RZA2M_ANPR/ANPR_RZA2M_GR_MANGO/src/tensorflow_lite/tensorflow/lite/kernels/internal\types.h **** 
 298:C:/Renesas/e2studio_2021_01_workspace_RZA2M_ANPR/ANPR_RZA2M_GR_MANGO/src/tensorflow_lite/tensorflow/lite/kernels/internal\types.h ****   bool operator!=(const RuntimeShape& comp) const { return !((*this) == comp); }
 299:C:/Renesas/e2studio_2021_01_workspace_RZA2M_ANPR/ANPR_RZA2M_GR_MANGO/src/tensorflow_lite/tensorflow/lite/kernels/internal\types.h **** 
 300:C:/Renesas/e2studio_2021_01_workspace_RZA2M_ANPR/ANPR_RZA2M_GR_MANGO/src/tensorflow_lite/tensorflow/lite/kernels/internal\types.h ****  private:
 301:C:/Renesas/e2studio_2021_01_workspace_RZA2M_ANPR/ANPR_RZA2M_GR_MANGO/src/tensorflow_lite/tensorflow/lite/kernels/internal\types.h ****   // For use only by ExtendedShape(), written to guarantee (return-value) copy
 302:C:/Renesas/e2studio_2021_01_workspace_RZA2M_ANPR/ANPR_RZA2M_GR_MANGO/src/tensorflow_lite/tensorflow/lite/kernels/internal\types.h ****   // elision in C++17.
 303:C:/Renesas/e2studio_2021_01_workspace_RZA2M_ANPR/ANPR_RZA2M_GR_MANGO/src/tensorflow_lite/tensorflow/lite/kernels/internal\types.h ****   // This creates a shape padded to the desired size with the specified value.
 304:C:/Renesas/e2studio_2021_01_workspace_RZA2M_ANPR/ANPR_RZA2M_GR_MANGO/src/tensorflow_lite/tensorflow/lite/kernels/internal\types.h ****   RuntimeShape(int new_shape_size, const RuntimeShape& shape, int pad_value)
 305:C:/Renesas/e2studio_2021_01_workspace_RZA2M_ANPR/ANPR_RZA2M_GR_MANGO/src/tensorflow_lite/tensorflow/lite/kernels/internal\types.h ****       : size_(0) {
 2189              		.loc 4 305 0
 2190 00dc 0030A0E3 		mov	r3, #0
 2191              	.LBB1223:
 306:C:/Renesas/e2studio_2021_01_workspace_RZA2M_ANPR/ANPR_RZA2M_GR_MANGO/src/tensorflow_lite/tensorflow/lite/kernels/internal\types.h ****     // If the following check fails, it is likely because a 4D-only kernel is
 307:C:/Renesas/e2studio_2021_01_workspace_RZA2M_ANPR/ANPR_RZA2M_GR_MANGO/src/tensorflow_lite/tensorflow/lite/kernels/internal\types.h ****     // being used with an array of larger dimension count.
 308:C:/Renesas/e2studio_2021_01_workspace_RZA2M_ANPR/ANPR_RZA2M_GR_MANGO/src/tensorflow_lite/tensorflow/lite/kernels/internal\types.h ****     TFLITE_CHECK_GE(new_shape_size, shape.DimensionsCount());
 2192              		.loc 4 308 0
 2193 00e0 050052E3 		cmp	r2, #5
 2194              	.LBE1223:
 305:C:/Renesas/e2studio_2021_01_workspace_RZA2M_ANPR/ANPR_RZA2M_GR_MANGO/src/tensorflow_lite/tensorflow/lite/kernels/internal\types.h ****     // If the following check fails, it is likely because a 4D-only kernel is
 2195              		.loc 4 305 0
 2196 00e4 B8308DE5 		str	r3, [sp, #184]
 2197              	.LBB1240:
 2198              		.loc 4 308 0
 2199 00e8 E20100CA 		bgt	.L1465
 2200              	.LVL243:
 2201              	.LBB1224:
 309:C:/Renesas/e2studio_2021_01_workspace_RZA2M_ANPR/ANPR_RZA2M_GR_MANGO/src/tensorflow_lite/tensorflow/lite/kernels/internal\types.h ****     Resize(new_shape_size);
 310:C:/Renesas/e2studio_2021_01_workspace_RZA2M_ANPR/ANPR_RZA2M_GR_MANGO/src/tensorflow_lite/tensorflow/lite/kernels/internal\types.h ****     const int size_increase = new_shape_size - shape.DimensionsCount();
 311:C:/Renesas/e2studio_2021_01_workspace_RZA2M_ANPR/ANPR_RZA2M_GR_MANGO/src/tensorflow_lite/tensorflow/lite/kernels/internal\types.h ****     for (int i = 0; i < size_increase; ++i) {
 2202              		.loc 4 311 0
 2203 00ec 050072E2 		rsbs	r0, r2, #5
 2204              	.LBE1224:
 2205              	.LBB1237:
 2206              	.LBB1238:
 245:C:/Renesas/e2studio_2021_01_workspace_RZA2M_ANPR/ANPR_RZA2M_GR_MANGO/src/tensorflow_lite/tensorflow/lite/kernels/internal\types.h ****     if (dimensions_count > kMaxSmallSize) {
 2207              		.loc 4 245 0
 2208 00f0 0530A0E3 		mov	r3, #5
 2209 00f4 B8308DE5 		str	r3, [sp, #184]
 2210              	.LVL244:
 2211              	.LBE1238:
 2212              	.LBE1237:
 2213              	.LBB1239:
 2214              		.loc 4 311 0
 2215 00f8 BF01000A 		beq	.L534
 2216              	.LVL245:
 2217 00fc 010050E3 		cmp	r0, #1
 2218              	.LBB1225:
 2219              	.LBB1226:
 224:C:/Renesas/e2studio_2021_01_workspace_RZA2M_ANPR/ANPR_RZA2M_GR_MANGO/src/tensorflow_lite/tensorflow/lite/kernels/internal\types.h ****     }
 2220              		.loc 4 224 0
 2221 0100 0130A0E3 		mov	r3, #1
 2222 0104 BC308DE5 		str	r3, [sp, #188]
 2223              	.LVL246:
 2224              	.LBE1226:
 2225              	.LBE1225:
 2226              		.loc 4 311 0
 2227 0108 BB01000A 		beq	.L534
 2228              	.LVL247:
 2229 010c 020050E3 		cmp	r0, #2
 2230              	.LBB1232:
 2231              	.LBB1227:
 224:C:/Renesas/e2studio_2021_01_workspace_RZA2M_ANPR/ANPR_RZA2M_GR_MANGO/src/tensorflow_lite/tensorflow/lite/kernels/internal\types.h ****     }
 2232              		.loc 4 224 0
 2233 0110 C0308DE5 		str	r3, [sp, #192]
 2234              	.LVL248:
 2235              	.LBE1227:
 2236              	.LBE1232:
 2237              		.loc 4 311 0
 2238 0114 B801000A 		beq	.L534
 2239              	.LVL249:
 2240 0118 030050E3 		cmp	r0, #3
 2241              	.LBB1233:
 2242              	.LBB1228:
 224:C:/Renesas/e2studio_2021_01_workspace_RZA2M_ANPR/ANPR_RZA2M_GR_MANGO/src/tensorflow_lite/tensorflow/lite/kernels/internal\types.h ****     }
 2243              		.loc 4 224 0
 2244 011c C4308DE5 		str	r3, [sp, #196]
 2245              	.LVL250:
 2246              	.LBE1228:
 2247              	.LBE1233:
 2248              		.loc 4 311 0
 2249 0120 B501000A 		beq	.L534
 2250              	.LVL251:
 2251 0124 040050E3 		cmp	r0, #4
 2252              	.LBB1234:
 2253              	.LBB1229:
 224:C:/Renesas/e2studio_2021_01_workspace_RZA2M_ANPR/ANPR_RZA2M_GR_MANGO/src/tensorflow_lite/tensorflow/lite/kernels/internal\types.h ****     }
 2254              		.loc 4 224 0
 2255 0128 C8308DE5 		str	r3, [sp, #200]
 2256              	.LVL252:
 2257              	.LBE1229:
 2258              	.LBE1234:
 2259              		.loc 4 311 0
 2260 012c B201000A 		beq	.L534
 2261              	.LVL253:
 2262 0130 050050E3 		cmp	r0, #5
 2263              	.LBB1235:
 2264              	.LBB1230:
 224:C:/Renesas/e2studio_2021_01_workspace_RZA2M_ANPR/ANPR_RZA2M_GR_MANGO/src/tensorflow_lite/tensorflow/lite/kernels/internal\types.h ****     }
 2265              		.loc 4 224 0
 2266 0134 CC308DE5 		str	r3, [sp, #204]
 2267              	.LVL254:
 2268              	.LBE1230:
 2269              	.LBE1235:
 2270              		.loc 4 311 0
 2271 0138 AF01000A 		beq	.L534
 2272              	.LVL255:
 2273              	.LEHB5:
 2274              	.LBB1236:
 2275              	.LBB1231:
 220:C:/Renesas/e2studio_2021_01_workspace_RZA2M_ANPR/ANPR_RZA2M_GR_MANGO/src/tensorflow_lite/tensorflow/lite/kernels/internal\types.h ****     if (size_ > kMaxSmallSize) {
 2276              		.loc 4 220 0
 2277 013c FEFFFFEB 		bl	abort
 2278              	.LVL256:
 2279              	.LEHE5:
 2280              	.L362:
 2281              	.LBE1231:
 2282              	.LBE1236:
 2283              	.LBE1239:
 2284              	.LBE1240:
 2285              	.LBE1222:
 2286              	.LBE1221:
 2287              	.LBE1220:
 2288              	.LBE1219:
 2289              	.LBE1218:
 2290              	.LBE1217:
 2291              	.LBE1216:
 2292              	.LBE1209:
 2293              	.LBB1545:
 170:../src/tensorflow_lite/tensorflow/lite/micro/kernels/pad.cc ****       } else {
 2294              		.loc 1 170 0
 2295 0140 34A0D5E5 		ldrb	r10, [r5, #52]	@ zero_extendqisi2
 2296              	.LVL257:
 2297              	.L363:
 174:../src/tensorflow_lite/tensorflow/lite/micro/kernels/pad.cc ****         reference_ops::PadImageStyle(
 2298              		.loc 1 174 0
 2299 0144 3030D5E5 		ldrb	r3, [r5, #48]	@ zero_extendqisi2
 2300 0148 010053E3 		cmp	r3, #1
 2301 014c 8501000A 		beq	.L1466
 181:../src/tensorflow_lite/tensorflow/lite/micro/kernels/pad.cc ****                            tflite::micro::GetTensorData<uint8_t>(input),
 2302              		.loc 1 181 0
 2303 0150 0710A0E1 		mov	r1, r7
 2304 0154 88008DE2 		add	r0, sp, #136
 2305              	.LEHB6:
 2306 0158 FEFFFFEB 		bl	_ZN6tflite5micro14GetTensorShapeEPK16TfLiteEvalTensor
 2307              	.LVL258:
 2308              	.LEHE6:
 2309              	.LBB1546:
 2310              	.LBB1547:
 2311              		.loc 5 63 0
 2312 015c 003097E5 		ldr	r3, [r7]
 2313              	.LBE1547:
 2314              	.LBE1546:
 183:../src/tensorflow_lite/tensorflow/lite/micro/kernels/pad.cc ****                            tflite::micro::GetTensorData<uint8_t>(output));
 2315              		.loc 1 183 0
 2316 0160 0910A0E1 		mov	r1, r9
 2317 0164 A0008DE2 		add	r0, sp, #160
 2318              	.LBB1549:
 2319              	.LBB1548:
 2320              		.loc 5 63 0
 2321 0168 40308DE5 		str	r3, [sp, #64]
 2322              	.LEHB7:
 2323              	.LBE1548:
 2324              	.LBE1549:
 183:../src/tensorflow_lite/tensorflow/lite/micro/kernels/pad.cc ****                            tflite::micro::GetTensorData<uint8_t>(output));
 2325              		.loc 1 183 0
 2326 016c FEFFFFEB 		bl	_ZN6tflite5micro14GetTensorShapeEPK16TfLiteEvalTensor
 2327              	.LVL259:
 2328              	.LEHE7:
 2329 0170 88209DE5 		ldr	r2, [sp, #136]
 2330              	.LBB1550:
 2331              	.LBB1551:
  56:C:/Renesas/e2studio_2021_01_workspace_RZA2M_ANPR/ANPR_RZA2M_GR_MANGO/src/tensorflow_lite/tensorflow/lite/micro/kernels\kernel_util.h **** }
 2332              		.loc 5 56 0
 2333 0174 000059E3 		cmp	r9, #0
 2334 0178 00409915 		ldrne	r4, [r9]
 2335 017c 0940A001 		moveq	r4, r9
 2336              	.LVL260:
 2337              	.LBE1551:
 2338              	.LBE1550:
 2339              	.LBB1552:
 2340              	.LBB1553:
 2341              	.LBB1554:
 2342              	.LBB1555:
 2343              	.LBB1556:
 2344              	.LBB1557:
 2345              	.LBB1558:
 305:C:/Renesas/e2studio_2021_01_workspace_RZA2M_ANPR/ANPR_RZA2M_GR_MANGO/src/tensorflow_lite/tensorflow/lite/kernels/internal\types.h ****     // If the following check fails, it is likely because a 4D-only kernel is
 2346              		.loc 4 305 0
 2347 0180 0030A0E3 		mov	r3, #0
 2348              	.LBB1559:
 308:C:/Renesas/e2studio_2021_01_workspace_RZA2M_ANPR/ANPR_RZA2M_GR_MANGO/src/tensorflow_lite/tensorflow/lite/kernels/internal\types.h ****     Resize(new_shape_size);
 2349              		.loc 4 308 0
 2350 0184 050052E3 		cmp	r2, #5
 2351              	.LBE1559:
 305:C:/Renesas/e2studio_2021_01_workspace_RZA2M_ANPR/ANPR_RZA2M_GR_MANGO/src/tensorflow_lite/tensorflow/lite/kernels/internal\types.h ****     // If the following check fails, it is likely because a 4D-only kernel is
 2352              		.loc 4 305 0
 2353 0188 B8308DE5 		str	r3, [sp, #184]
 2354              	.LBB1576:
 308:C:/Renesas/e2studio_2021_01_workspace_RZA2M_ANPR/ANPR_RZA2M_GR_MANGO/src/tensorflow_lite/tensorflow/lite/kernels/internal\types.h ****     Resize(new_shape_size);
 2355              		.loc 4 308 0
 2356 018c 430000CA 		bgt	.L1467
 2357              	.LVL261:
 2358              	.LBB1560:
 2359              		.loc 4 311 0
 2360 0190 050072E2 		rsbs	r0, r2, #5
 2361              	.LBE1560:
 2362              	.LBB1573:
 2363              	.LBB1574:
 245:C:/Renesas/e2studio_2021_01_workspace_RZA2M_ANPR/ANPR_RZA2M_GR_MANGO/src/tensorflow_lite/tensorflow/lite/kernels/internal\types.h ****     if (dimensions_count > kMaxSmallSize) {
 2364              		.loc 4 245 0
 2365 0194 0530A0E3 		mov	r3, #5
 2366 0198 B8308DE5 		str	r3, [sp, #184]
 2367              	.LVL262:
 2368              	.LBE1574:
 2369              	.LBE1573:
 2370              	.LBB1575:
 2371              		.loc 4 311 0
 2372 019c 2000000A 		beq	.L423
 2373              	.LVL263:
 2374 01a0 010050E3 		cmp	r0, #1
 2375              	.LBB1561:
 2376              	.LBB1562:
 224:C:/Renesas/e2studio_2021_01_workspace_RZA2M_ANPR/ANPR_RZA2M_GR_MANGO/src/tensorflow_lite/tensorflow/lite/kernels/internal\types.h ****     }
 2377              		.loc 4 224 0
 2378 01a4 0130A0E3 		mov	r3, #1
 2379 01a8 BC308DE5 		str	r3, [sp, #188]
 2380              	.LVL264:
 2381              	.LBE1562:
 2382              	.LBE1561:
 2383              		.loc 4 311 0
 2384 01ac 1C00000A 		beq	.L423
 2385              	.LVL265:
 2386 01b0 020050E3 		cmp	r0, #2
 2387              	.LBB1568:
 2388              	.LBB1563:
 224:C:/Renesas/e2studio_2021_01_workspace_RZA2M_ANPR/ANPR_RZA2M_GR_MANGO/src/tensorflow_lite/tensorflow/lite/kernels/internal\types.h ****     }
 2389              		.loc 4 224 0
 2390 01b4 C0308DE5 		str	r3, [sp, #192]
 2391              	.LVL266:
 2392              	.LBE1563:
 2393              	.LBE1568:
 2394              		.loc 4 311 0
 2395 01b8 1900000A 		beq	.L423
 2396              	.LVL267:
 2397 01bc 030050E3 		cmp	r0, #3
 2398              	.LBB1569:
 2399              	.LBB1564:
 224:C:/Renesas/e2studio_2021_01_workspace_RZA2M_ANPR/ANPR_RZA2M_GR_MANGO/src/tensorflow_lite/tensorflow/lite/kernels/internal\types.h ****     }
 2400              		.loc 4 224 0
 2401 01c0 C4308DE5 		str	r3, [sp, #196]
 2402              	.LVL268:
 2403              	.LBE1564:
 2404              	.LBE1569:
 2405              		.loc 4 311 0
 2406 01c4 1600000A 		beq	.L423
 2407              	.LVL269:
 2408 01c8 040050E3 		cmp	r0, #4
 2409              	.LBB1570:
 2410              	.LBB1565:
 224:C:/Renesas/e2studio_2021_01_workspace_RZA2M_ANPR/ANPR_RZA2M_GR_MANGO/src/tensorflow_lite/tensorflow/lite/kernels/internal\types.h ****     }
 2411              		.loc 4 224 0
 2412 01cc C8308DE5 		str	r3, [sp, #200]
 2413              	.LVL270:
 2414              	.LBE1565:
 2415              	.LBE1570:
 2416              		.loc 4 311 0
 2417 01d0 1300000A 		beq	.L423
 2418              	.LVL271:
 2419 01d4 050050E3 		cmp	r0, #5
 2420              	.LBB1571:
 2421              	.LBB1566:
 224:C:/Renesas/e2studio_2021_01_workspace_RZA2M_ANPR/ANPR_RZA2M_GR_MANGO/src/tensorflow_lite/tensorflow/lite/kernels/internal\types.h ****     }
 2422              		.loc 4 224 0
 2423 01d8 CC308DE5 		str	r3, [sp, #204]
 2424              	.LVL272:
 2425              	.LBE1566:
 2426              	.LBE1571:
 2427              		.loc 4 311 0
 2428 01dc 1000000A 		beq	.L423
 2429              	.LVL273:
 2430              	.LEHB8:
 2431              	.LBB1572:
 2432              	.LBB1567:
 220:C:/Renesas/e2studio_2021_01_workspace_RZA2M_ANPR/ANPR_RZA2M_GR_MANGO/src/tensorflow_lite/tensorflow/lite/kernels/internal\types.h ****     if (size_ > kMaxSmallSize) {
 2433              		.loc 4 220 0
 2434 01e0 FEFFFFEB 		bl	abort
 2435              	.LVL274:
 2436              	.LEHE8:
 2437              	.L775:
 2438              	.L656:
 2439              	.LBE1567:
 2440              	.LBE1572:
 2441              	.LBE1575:
 2442              	.LBE1576:
 2443              	.LBE1558:
 2444              	.LBE1557:
 2445              	.LBE1556:
 2446              	.LBE1555:
 2447              	.LBE1554:
 2448              	.LBE1553:
 2449              	.LBE1552:
 2450              	.LBE1545:
 2451              	.LBB1887:
 2452              	.LBB1888:
 2453              	.LBB1889:
 203:C:/Renesas/e2studio_2021_01_workspace_RZA2M_ANPR/ANPR_RZA2M_GR_MANGO/src/tensorflow_lite/tensorflow/lite/kernels/internal\types.h **** #ifdef TF_LITE_STATIC_MEMORY
 2454              		.loc 4 203 0
 2455 01e4 A0309DE5 		ldr	r3, [sp, #160]
 2456 01e8 050053E3 		cmp	r3, #5
 2457 01ec 030000DA 		ble	.L677
 207:C:/Renesas/e2studio_2021_01_workspace_RZA2M_ANPR/ANPR_RZA2M_GR_MANGO/src/tensorflow_lite/tensorflow/lite/kernels/internal\types.h **** #endif  // TF_LITE_STATIC_MEMORY
 2458              		.loc 4 207 0
 2459 01f0 A4009DE5 		ldr	r0, [sp, #164]
 2460 01f4 000050E3 		cmp	r0, #0
 2461 01f8 0000000A 		beq	.L677
 2462 01fc FEFFFFEB 		bl	_ZdaPv
 2463              	.LVL275:
 2464              	.L677:
 2465              	.LBE1889:
 2466              	.LBE1888:
 2467              	.LBB1890:
 2468              	.LBB1891:
 203:C:/Renesas/e2studio_2021_01_workspace_RZA2M_ANPR/ANPR_RZA2M_GR_MANGO/src/tensorflow_lite/tensorflow/lite/kernels/internal\types.h **** #ifdef TF_LITE_STATIC_MEMORY
 2469              		.loc 4 203 0 discriminator 2
 2470 0200 88309DE5 		ldr	r3, [sp, #136]
 2471 0204 050053E3 		cmp	r3, #5
 2472 0208 030000DA 		ble	.L678
 207:C:/Renesas/e2studio_2021_01_workspace_RZA2M_ANPR/ANPR_RZA2M_GR_MANGO/src/tensorflow_lite/tensorflow/lite/kernels/internal\types.h **** #endif  // TF_LITE_STATIC_MEMORY
 2473              		.loc 4 207 0
 2474 020c 8C009DE5 		ldr	r0, [sp, #140]
 2475 0210 000050E3 		cmp	r0, #0
 2476 0214 0000000A 		beq	.L678
 2477 0218 FEFFFFEB 		bl	_ZdaPv
 2478              	.LVL276:
 2479              	.L678:
 2480              	.LEHB9:
 2481 021c FEFFFFEB 		bl	__cxa_end_cleanup
 2482              	.LVL277:
 2483              	.LEHE9:
 2484              	.L771:
 2485 0220 EFFFFFEA 		b	.L656
 2486              	.LVL278:
 2487              	.L423:
 2488              	.LBE1891:
 2489              	.LBE1890:
 2490              	.LBE1887:
 2491              	.LBB2074:
 2492              	.LBB1716:
 2493              	.LBB1712:
 2494              	.LBB1708:
 2495              	.LBB1585:
 2496              	.LBB1583:
 2497              	.LBB1581:
 2498              	.LBB1579:
 2499              	.LBB1577:
 312:C:/Renesas/e2studio_2021_01_workspace_RZA2M_ANPR/ANPR_RZA2M_GR_MANGO/src/tensorflow_lite/tensorflow/lite/kernels/internal\types.h ****       SetDim(i, pad_value);
 313:C:/Renesas/e2studio_2021_01_workspace_RZA2M_ANPR/ANPR_RZA2M_GR_MANGO/src/tensorflow_lite/tensorflow/lite/kernels/internal\types.h ****     }
 314:C:/Renesas/e2studio_2021_01_workspace_RZA2M_ANPR/ANPR_RZA2M_GR_MANGO/src/tensorflow_lite/tensorflow/lite/kernels/internal\types.h ****     std::memcpy(DimsData() + size_increase, shape.DimsData(),
 315:C:/Renesas/e2studio_2021_01_workspace_RZA2M_ANPR/ANPR_RZA2M_GR_MANGO/src/tensorflow_lite/tensorflow/lite/kernels/internal\types.h ****                 sizeof(int32_t) * shape.DimensionsCount());
 2500              		.loc 4 315 0
 2501 0224 BC308DE2 		add	r3, sp, #188
 2502 0228 0221A0E1 		lsl	r2, r2, #2
 2503 022c 000183E0 		add	r0, r3, r0, lsl #2
 2504              	.LVL279:
 2505 0230 8C108DE2 		add	r1, sp, #140
 2506 0234 FEFFFFEB 		bl	memcpy
 2507              	.LVL280:
 2508 0238 A0209DE5 		ldr	r2, [sp, #160]
 2509              	.LVL281:
 2510              	.LBE1577:
 2511              	.LBE1579:
 2512              	.LBE1581:
 2513              	.LBE1583:
 2514              	.LBE1585:
 2515              	.LBB1586:
 2516              	.LBB1587:
 2517              	.LBB1588:
 2518              	.LBB1589:
 305:C:/Renesas/e2studio_2021_01_workspace_RZA2M_ANPR/ANPR_RZA2M_GR_MANGO/src/tensorflow_lite/tensorflow/lite/kernels/internal\types.h ****     // If the following check fails, it is likely because a 4D-only kernel is
 2519              		.loc 4 305 0
 2520 023c 0030A0E3 		mov	r3, #0
 2521 0240 D0308DE5 		str	r3, [sp, #208]
 2522              	.LBB1590:
 308:C:/Renesas/e2studio_2021_01_workspace_RZA2M_ANPR/ANPR_RZA2M_GR_MANGO/src/tensorflow_lite/tensorflow/lite/kernels/internal\types.h ****     Resize(new_shape_size);
 2523              		.loc 4 308 0
 2524 0244 050052E3 		cmp	r2, #5
 2525 0248 430100CA 		bgt	.L1468
 2526              	.LVL282:
 2527              	.LBB1591:
 311:C:/Renesas/e2studio_2021_01_workspace_RZA2M_ANPR/ANPR_RZA2M_GR_MANGO/src/tensorflow_lite/tensorflow/lite/kernels/internal\types.h ****       SetDim(i, pad_value);
 2528              		.loc 4 311 0
 2529 024c 050072E2 		rsbs	r0, r2, #5
 2530              	.LBE1591:
 2531              	.LBB1604:
 2532              	.LBB1605:
 245:C:/Renesas/e2studio_2021_01_workspace_RZA2M_ANPR/ANPR_RZA2M_GR_MANGO/src/tensorflow_lite/tensorflow/lite/kernels/internal\types.h ****     if (dimensions_count > kMaxSmallSize) {
 2533              		.loc 4 245 0
 2534 0250 0530A0E3 		mov	r3, #5
 2535 0254 D0308DE5 		str	r3, [sp, #208]
 2536              	.LVL283:
 2537              	.LBE1605:
 2538              	.LBE1604:
 2539              	.LBB1606:
 311:C:/Renesas/e2studio_2021_01_workspace_RZA2M_ANPR/ANPR_RZA2M_GR_MANGO/src/tensorflow_lite/tensorflow/lite/kernels/internal\types.h ****       SetDim(i, pad_value);
 2540              		.loc 4 311 0
 2541 0258 1900000A 		beq	.L428
 2542              	.LVL284:
 2543 025c 010050E3 		cmp	r0, #1
 2544              	.LBB1592:
 2545              	.LBB1593:
 224:C:/Renesas/e2studio_2021_01_workspace_RZA2M_ANPR/ANPR_RZA2M_GR_MANGO/src/tensorflow_lite/tensorflow/lite/kernels/internal\types.h ****     }
 2546              		.loc 4 224 0
 2547 0260 0130A0E3 		mov	r3, #1
 2548 0264 D4308DE5 		str	r3, [sp, #212]
 2549              	.LVL285:
 2550              	.LBE1593:
 2551              	.LBE1592:
 311:C:/Renesas/e2studio_2021_01_workspace_RZA2M_ANPR/ANPR_RZA2M_GR_MANGO/src/tensorflow_lite/tensorflow/lite/kernels/internal\types.h ****       SetDim(i, pad_value);
 2552              		.loc 4 311 0
 2553 0268 1500000A 		beq	.L428
 2554              	.LVL286:
 2555 026c 020050E3 		cmp	r0, #2
 2556              	.LBB1599:
 2557              	.LBB1594:
 224:C:/Renesas/e2studio_2021_01_workspace_RZA2M_ANPR/ANPR_RZA2M_GR_MANGO/src/tensorflow_lite/tensorflow/lite/kernels/internal\types.h ****     }
 2558              		.loc 4 224 0
