   1              		.cpu cortex-a9
   2              		.eabi_attribute 28, 1
   3              		.eabi_attribute 20, 1
   4              		.eabi_attribute 21, 1
   5              		.eabi_attribute 23, 3
   6              		.eabi_attribute 24, 1
   7              		.eabi_attribute 25, 1
   8              		.eabi_attribute 26, 1
   9              		.eabi_attribute 30, 2
  10              		.eabi_attribute 34, 0
  11              		.eabi_attribute 18, 4
  12              		.file	"pad.cc"
  13              		.text
  14              	.Ltext0:
  15              		.cfi_sections	.debug_frame
  16              		.section	.text._ZN6tflite3ops5micro3pad4InitEP13TfLiteContextPKcj,"ax",%progbits
  17              		.align	2
  18              		.global	_ZN6tflite3ops5micro3pad4InitEP13TfLiteContextPKcj
  19              		.syntax unified
  20              		.arm
  21              		.fpu neon
  23              	_ZN6tflite3ops5micro3pad4InitEP13TfLiteContextPKcj:
  24              		.fnstart
  25              	.LFB1319:
  26              		.file 1 "../src/tensorflow_lite/tensorflow/lite/micro/kernels/pad.cc"
   1:../src/tensorflow_lite/tensorflow/lite/micro/kernels/pad.cc **** /* Copyright 2019 The TensorFlow Authors. All Rights Reserved.
   2:../src/tensorflow_lite/tensorflow/lite/micro/kernels/pad.cc **** 
   3:../src/tensorflow_lite/tensorflow/lite/micro/kernels/pad.cc **** Licensed under the Apache License, Version 2.0 (the "License");
   4:../src/tensorflow_lite/tensorflow/lite/micro/kernels/pad.cc **** you may not use this file except in compliance with the License.
   5:../src/tensorflow_lite/tensorflow/lite/micro/kernels/pad.cc **** You may obtain a copy of the License at
   6:../src/tensorflow_lite/tensorflow/lite/micro/kernels/pad.cc **** 
   7:../src/tensorflow_lite/tensorflow/lite/micro/kernels/pad.cc ****     http://www.apache.org/licenses/LICENSE-2.0
   8:../src/tensorflow_lite/tensorflow/lite/micro/kernels/pad.cc **** 
   9:../src/tensorflow_lite/tensorflow/lite/micro/kernels/pad.cc **** Unless required by applicable law or agreed to in writing, software
  10:../src/tensorflow_lite/tensorflow/lite/micro/kernels/pad.cc **** distributed under the License is distributed on an "AS IS" BASIS,
  11:../src/tensorflow_lite/tensorflow/lite/micro/kernels/pad.cc **** WITHOUT WARRANTIES OR CONDITIONS OF ANY KIND, either express or implied.
  12:../src/tensorflow_lite/tensorflow/lite/micro/kernels/pad.cc **** See the License for the specific language governing permissions and
  13:../src/tensorflow_lite/tensorflow/lite/micro/kernels/pad.cc **** limitations under the License.
  14:../src/tensorflow_lite/tensorflow/lite/micro/kernels/pad.cc **** ==============================================================================*/
  15:../src/tensorflow_lite/tensorflow/lite/micro/kernels/pad.cc **** #include "tensorflow/lite/kernels/internal/reference/pad.h"
  16:../src/tensorflow_lite/tensorflow/lite/micro/kernels/pad.cc **** 
  17:../src/tensorflow_lite/tensorflow/lite/micro/kernels/pad.cc **** #include <string.h>
  18:../src/tensorflow_lite/tensorflow/lite/micro/kernels/pad.cc **** 
  19:../src/tensorflow_lite/tensorflow/lite/micro/kernels/pad.cc **** #include "tensorflow/lite/c/builtin_op_data.h"
  20:../src/tensorflow_lite/tensorflow/lite/micro/kernels/pad.cc **** #include "tensorflow/lite/c/common.h"
  21:../src/tensorflow_lite/tensorflow/lite/micro/kernels/pad.cc **** #include "tensorflow/lite/kernels/internal/portable_tensor.h"
  22:../src/tensorflow_lite/tensorflow/lite/micro/kernels/pad.cc **** #include "tensorflow/lite/kernels/internal/types.h"
  23:../src/tensorflow_lite/tensorflow/lite/micro/kernels/pad.cc **** #include "tensorflow/lite/kernels/kernel_util.h"
  24:../src/tensorflow_lite/tensorflow/lite/micro/kernels/pad.cc **** #include "tensorflow/lite/kernels/op_macros.h"
  25:../src/tensorflow_lite/tensorflow/lite/micro/kernels/pad.cc **** #include "tensorflow/lite/micro/kernels/kernel_util.h"
  26:../src/tensorflow_lite/tensorflow/lite/micro/kernels/pad.cc **** 
  27:../src/tensorflow_lite/tensorflow/lite/micro/kernels/pad.cc **** namespace tflite {
  28:../src/tensorflow_lite/tensorflow/lite/micro/kernels/pad.cc **** namespace ops {
  29:../src/tensorflow_lite/tensorflow/lite/micro/kernels/pad.cc **** namespace micro {
  30:../src/tensorflow_lite/tensorflow/lite/micro/kernels/pad.cc **** namespace pad {
  31:../src/tensorflow_lite/tensorflow/lite/micro/kernels/pad.cc **** namespace {
  32:../src/tensorflow_lite/tensorflow/lite/micro/kernels/pad.cc **** 
  33:../src/tensorflow_lite/tensorflow/lite/micro/kernels/pad.cc **** struct OpData {
  34:../src/tensorflow_lite/tensorflow/lite/micro/kernels/pad.cc ****   PadParams params;
  35:../src/tensorflow_lite/tensorflow/lite/micro/kernels/pad.cc ****   int32_t output_zero_point;
  36:../src/tensorflow_lite/tensorflow/lite/micro/kernels/pad.cc **** };
  37:../src/tensorflow_lite/tensorflow/lite/micro/kernels/pad.cc **** 
  38:../src/tensorflow_lite/tensorflow/lite/micro/kernels/pad.cc **** }  // namespace
  39:../src/tensorflow_lite/tensorflow/lite/micro/kernels/pad.cc **** 
  40:../src/tensorflow_lite/tensorflow/lite/micro/kernels/pad.cc **** void* Init(TfLiteContext* context, const char* buffer, size_t length) {
  27              		.loc 1 40 0
  28              		.cfi_startproc
  29              		@ args = 0, pretend = 0, frame = 0
  30              		@ frame_needed = 0, uses_anonymous_args = 0
  31              	.LVL0:
  41:../src/tensorflow_lite/tensorflow/lite/micro/kernels/pad.cc ****   TFLITE_DCHECK(context->AllocatePersistentBuffer != nullptr);
  32              		.loc 1 41 0
  33 0000 383090E5 		ldr	r3, [r0, #56]
  34 0004 000053E3 		cmp	r3, #0
  35 0008 0100000A 		beq	.L7
  42:../src/tensorflow_lite/tensorflow/lite/micro/kernels/pad.cc ****   return context->AllocatePersistentBuffer(context, sizeof(OpData));
  36              		.loc 1 42 0
  37 000c 3810A0E3 		mov	r1, #56
  38              	.LVL1:
  39 0010 13FF2FE1 		bx	r3
  40              	.LVL2:
  41              	.L7:
  40:../src/tensorflow_lite/tensorflow/lite/micro/kernels/pad.cc ****   TFLITE_DCHECK(context->AllocatePersistentBuffer != nullptr);
  42              		.loc 1 40 0 discriminator 1
  43 0014 10402DE9 		push	{r4, lr}
  44              		.save {r4, lr}
  45              		.cfi_def_cfa_offset 8
  46              		.cfi_offset 4, -8
  47              		.cfi_offset 14, -4
  41:../src/tensorflow_lite/tensorflow/lite/micro/kernels/pad.cc ****   TFLITE_DCHECK(context->AllocatePersistentBuffer != nullptr);
  48              		.loc 1 41 0 discriminator 1
  49 0018 FEFFFFEB 		bl	abort
  50              	.LVL3:
  51              		.cfi_endproc
  52              	.LFE1319:
  53              		.fnend
  55              		.section	.text._ZN6tflite3ops5micro3pad7PrepareEP13TfLiteContextP10TfLiteNode,"ax",%progbits
  56              		.align	2
  57              		.global	_ZN6tflite3ops5micro3pad7PrepareEP13TfLiteContextP10TfLiteNode
  58              		.syntax unified
  59              		.arm
  60              		.fpu neon
  62              	_ZN6tflite3ops5micro3pad7PrepareEP13TfLiteContextP10TfLiteNode:
  63              		.fnstart
  64              	.LFB1320:
  43:../src/tensorflow_lite/tensorflow/lite/micro/kernels/pad.cc **** }
  44:../src/tensorflow_lite/tensorflow/lite/micro/kernels/pad.cc **** 
  45:../src/tensorflow_lite/tensorflow/lite/micro/kernels/pad.cc **** TfLiteStatus Prepare(TfLiteContext* context, TfLiteNode* node) {
  65              		.loc 1 45 0
  66              		.cfi_startproc
  67              		.cfi_personality 0,__gxx_personality_v0
  68              		.cfi_lsda 0,.LLSDA1320
  69              		@ args = 0, pretend = 0, frame = 104
  70              		@ frame_needed = 0, uses_anonymous_args = 0
  71              	.LVL4:
  72 0000 F04F2DE9 		push	{r4, r5, r6, r7, r8, r9, r10, fp, lr}
  73              		.save {r4, r5, r6, r7, r8, r9, r10, fp, lr}
  74              		.cfi_def_cfa_offset 36
  75              		.cfi_offset 4, -36
  76              		.cfi_offset 5, -32
  77              		.cfi_offset 6, -28
  78              		.cfi_offset 7, -24
  79              		.cfi_offset 8, -20
  80              		.cfi_offset 9, -16
  81              		.cfi_offset 10, -12
  82              		.cfi_offset 11, -8
  83              		.cfi_offset 14, -4
  84              		.pad #132
  85 0004 84D04DE2 		sub	sp, sp, #132
  86              		.cfi_def_cfa_offset 168
  46:../src/tensorflow_lite/tensorflow/lite/micro/kernels/pad.cc ****   TFLITE_DCHECK(node->user_data != nullptr);
  87              		.loc 1 46 0
  88 0008 10B091E5 		ldr	fp, [r1, #16]
  45:../src/tensorflow_lite/tensorflow/lite/micro/kernels/pad.cc ****   TFLITE_DCHECK(node->user_data != nullptr);
  89              		.loc 1 45 0
  90 000c 18008DE5 		str	r0, [sp, #24]
  91              		.loc 1 46 0
  92 0010 00005BE3 		cmp	fp, #0
  93 0014 AD03000A 		beq	.L178
  94              	.LBB461:
  95              	.LBB462:
  96              		.file 2 "C:/Renesas/e2studio_2021_01_workspace_RZA2M_ANPR/ANPR_RZA2M_GR_MANGO/src/tensorflow_lite/
   1:C:/Renesas/e2studio_2021_01_workspace_RZA2M_ANPR/ANPR_RZA2M_GR_MANGO/src/tensorflow_lite/tensorflow/lite/kernels\kernel_util.h **** /* Copyright 2017 The TensorFlow Authors. All Rights Reserved.
   2:C:/Renesas/e2studio_2021_01_workspace_RZA2M_ANPR/ANPR_RZA2M_GR_MANGO/src/tensorflow_lite/tensorflow/lite/kernels\kernel_util.h **** 
   3:C:/Renesas/e2studio_2021_01_workspace_RZA2M_ANPR/ANPR_RZA2M_GR_MANGO/src/tensorflow_lite/tensorflow/lite/kernels\kernel_util.h **** Licensed under the Apache License, Version 2.0 (the "License");
   4:C:/Renesas/e2studio_2021_01_workspace_RZA2M_ANPR/ANPR_RZA2M_GR_MANGO/src/tensorflow_lite/tensorflow/lite/kernels\kernel_util.h **** you may not use this file except in compliance with the License.
   5:C:/Renesas/e2studio_2021_01_workspace_RZA2M_ANPR/ANPR_RZA2M_GR_MANGO/src/tensorflow_lite/tensorflow/lite/kernels\kernel_util.h **** You may obtain a copy of the License at
   6:C:/Renesas/e2studio_2021_01_workspace_RZA2M_ANPR/ANPR_RZA2M_GR_MANGO/src/tensorflow_lite/tensorflow/lite/kernels\kernel_util.h **** 
   7:C:/Renesas/e2studio_2021_01_workspace_RZA2M_ANPR/ANPR_RZA2M_GR_MANGO/src/tensorflow_lite/tensorflow/lite/kernels\kernel_util.h ****     http://www.apache.org/licenses/LICENSE-2.0
   8:C:/Renesas/e2studio_2021_01_workspace_RZA2M_ANPR/ANPR_RZA2M_GR_MANGO/src/tensorflow_lite/tensorflow/lite/kernels\kernel_util.h **** 
   9:C:/Renesas/e2studio_2021_01_workspace_RZA2M_ANPR/ANPR_RZA2M_GR_MANGO/src/tensorflow_lite/tensorflow/lite/kernels\kernel_util.h **** Unless required by applicable law or agreed to in writing, software
  10:C:/Renesas/e2studio_2021_01_workspace_RZA2M_ANPR/ANPR_RZA2M_GR_MANGO/src/tensorflow_lite/tensorflow/lite/kernels\kernel_util.h **** distributed under the License is distributed on an "AS IS" BASIS,
  11:C:/Renesas/e2studio_2021_01_workspace_RZA2M_ANPR/ANPR_RZA2M_GR_MANGO/src/tensorflow_lite/tensorflow/lite/kernels\kernel_util.h **** WITHOUT WARRANTIES OR CONDITIONS OF ANY KIND, either express or implied.
  12:C:/Renesas/e2studio_2021_01_workspace_RZA2M_ANPR/ANPR_RZA2M_GR_MANGO/src/tensorflow_lite/tensorflow/lite/kernels\kernel_util.h **** See the License for the specific language governing permissions and
  13:C:/Renesas/e2studio_2021_01_workspace_RZA2M_ANPR/ANPR_RZA2M_GR_MANGO/src/tensorflow_lite/tensorflow/lite/kernels\kernel_util.h **** limitations under the License.
  14:C:/Renesas/e2studio_2021_01_workspace_RZA2M_ANPR/ANPR_RZA2M_GR_MANGO/src/tensorflow_lite/tensorflow/lite/kernels\kernel_util.h **** ==============================================================================*/
  15:C:/Renesas/e2studio_2021_01_workspace_RZA2M_ANPR/ANPR_RZA2M_GR_MANGO/src/tensorflow_lite/tensorflow/lite/kernels\kernel_util.h **** #ifndef TENSORFLOW_LITE_KERNELS_KERNEL_UTIL_H_
  16:C:/Renesas/e2studio_2021_01_workspace_RZA2M_ANPR/ANPR_RZA2M_GR_MANGO/src/tensorflow_lite/tensorflow/lite/kernels\kernel_util.h **** #define TENSORFLOW_LITE_KERNELS_KERNEL_UTIL_H_
  17:C:/Renesas/e2studio_2021_01_workspace_RZA2M_ANPR/ANPR_RZA2M_GR_MANGO/src/tensorflow_lite/tensorflow/lite/kernels\kernel_util.h **** 
  18:C:/Renesas/e2studio_2021_01_workspace_RZA2M_ANPR/ANPR_RZA2M_GR_MANGO/src/tensorflow_lite/tensorflow/lite/kernels\kernel_util.h **** #include <stdint.h>
  19:C:/Renesas/e2studio_2021_01_workspace_RZA2M_ANPR/ANPR_RZA2M_GR_MANGO/src/tensorflow_lite/tensorflow/lite/kernels\kernel_util.h **** 
  20:C:/Renesas/e2studio_2021_01_workspace_RZA2M_ANPR/ANPR_RZA2M_GR_MANGO/src/tensorflow_lite/tensorflow/lite/kernels\kernel_util.h **** #include <limits>
  21:C:/Renesas/e2studio_2021_01_workspace_RZA2M_ANPR/ANPR_RZA2M_GR_MANGO/src/tensorflow_lite/tensorflow/lite/kernels\kernel_util.h **** 
  22:C:/Renesas/e2studio_2021_01_workspace_RZA2M_ANPR/ANPR_RZA2M_GR_MANGO/src/tensorflow_lite/tensorflow/lite/kernels\kernel_util.h **** #include "tensorflow/lite/c/builtin_op_data.h"
  23:C:/Renesas/e2studio_2021_01_workspace_RZA2M_ANPR/ANPR_RZA2M_GR_MANGO/src/tensorflow_lite/tensorflow/lite/kernels\kernel_util.h **** #include "tensorflow/lite/c/common.h"
  24:C:/Renesas/e2studio_2021_01_workspace_RZA2M_ANPR/ANPR_RZA2M_GR_MANGO/src/tensorflow_lite/tensorflow/lite/kernels\kernel_util.h **** 
  25:C:/Renesas/e2studio_2021_01_workspace_RZA2M_ANPR/ANPR_RZA2M_GR_MANGO/src/tensorflow_lite/tensorflow/lite/kernels\kernel_util.h **** namespace tflite {
  26:C:/Renesas/e2studio_2021_01_workspace_RZA2M_ANPR/ANPR_RZA2M_GR_MANGO/src/tensorflow_lite/tensorflow/lite/kernels\kernel_util.h **** 
  27:C:/Renesas/e2studio_2021_01_workspace_RZA2M_ANPR/ANPR_RZA2M_GR_MANGO/src/tensorflow_lite/tensorflow/lite/kernels\kernel_util.h **** // A fair number of functions in this header have historically been inline.
  28:C:/Renesas/e2studio_2021_01_workspace_RZA2M_ANPR/ANPR_RZA2M_GR_MANGO/src/tensorflow_lite/tensorflow/lite/kernels\kernel_util.h **** // It is ok to change functions to not be inline if the latency with
  29:C:/Renesas/e2studio_2021_01_workspace_RZA2M_ANPR/ANPR_RZA2M_GR_MANGO/src/tensorflow_lite/tensorflow/lite/kernels\kernel_util.h **** // benchmark_model for MobileNet + MobileBERT is unaffected. If such a change is
  30:C:/Renesas/e2studio_2021_01_workspace_RZA2M_ANPR/ANPR_RZA2M_GR_MANGO/src/tensorflow_lite/tensorflow/lite/kernels\kernel_util.h **** // made, move the newly non-inlined function declarations to the top of this
  31:C:/Renesas/e2studio_2021_01_workspace_RZA2M_ANPR/ANPR_RZA2M_GR_MANGO/src/tensorflow_lite/tensorflow/lite/kernels\kernel_util.h **** // header file.
  32:C:/Renesas/e2studio_2021_01_workspace_RZA2M_ANPR/ANPR_RZA2M_GR_MANGO/src/tensorflow_lite/tensorflow/lite/kernels\kernel_util.h **** 
  33:C:/Renesas/e2studio_2021_01_workspace_RZA2M_ANPR/ANPR_RZA2M_GR_MANGO/src/tensorflow_lite/tensorflow/lite/kernels\kernel_util.h **** // Note: You must check if result is not null:
  34:C:/Renesas/e2studio_2021_01_workspace_RZA2M_ANPR/ANPR_RZA2M_GR_MANGO/src/tensorflow_lite/tensorflow/lite/kernels\kernel_util.h **** //
  35:C:/Renesas/e2studio_2021_01_workspace_RZA2M_ANPR/ANPR_RZA2M_GR_MANGO/src/tensorflow_lite/tensorflow/lite/kernels\kernel_util.h **** //   TfLiteTensor* my_tensor = GetInput(context, node, kMyTensorIdx);
  36:C:/Renesas/e2studio_2021_01_workspace_RZA2M_ANPR/ANPR_RZA2M_GR_MANGO/src/tensorflow_lite/tensorflow/lite/kernels\kernel_util.h **** //   TF_LITE_ENSURE(context, my_tensor != nullptr);
  37:C:/Renesas/e2studio_2021_01_workspace_RZA2M_ANPR/ANPR_RZA2M_GR_MANGO/src/tensorflow_lite/tensorflow/lite/kernels\kernel_util.h **** //
  38:C:/Renesas/e2studio_2021_01_workspace_RZA2M_ANPR/ANPR_RZA2M_GR_MANGO/src/tensorflow_lite/tensorflow/lite/kernels\kernel_util.h **** // This is because the index might point to the optional tensor constant
  39:C:/Renesas/e2studio_2021_01_workspace_RZA2M_ANPR/ANPR_RZA2M_GR_MANGO/src/tensorflow_lite/tensorflow/lite/kernels\kernel_util.h **** // (kTfLiteOptionalTensor) in which case there is no tensor to return.
  40:C:/Renesas/e2studio_2021_01_workspace_RZA2M_ANPR/ANPR_RZA2M_GR_MANGO/src/tensorflow_lite/tensorflow/lite/kernels\kernel_util.h **** const TfLiteTensor* GetInput(const TfLiteContext* context,
  41:C:/Renesas/e2studio_2021_01_workspace_RZA2M_ANPR/ANPR_RZA2M_GR_MANGO/src/tensorflow_lite/tensorflow/lite/kernels\kernel_util.h ****                              const TfLiteNode* node, int index);
  42:C:/Renesas/e2studio_2021_01_workspace_RZA2M_ANPR/ANPR_RZA2M_GR_MANGO/src/tensorflow_lite/tensorflow/lite/kernels\kernel_util.h **** 
  43:C:/Renesas/e2studio_2021_01_workspace_RZA2M_ANPR/ANPR_RZA2M_GR_MANGO/src/tensorflow_lite/tensorflow/lite/kernels\kernel_util.h **** // Same as `GetInput` but returns boolean and uses output argument for tensor.
  44:C:/Renesas/e2studio_2021_01_workspace_RZA2M_ANPR/ANPR_RZA2M_GR_MANGO/src/tensorflow_lite/tensorflow/lite/kernels\kernel_util.h **** //
  45:C:/Renesas/e2studio_2021_01_workspace_RZA2M_ANPR/ANPR_RZA2M_GR_MANGO/src/tensorflow_lite/tensorflow/lite/kernels\kernel_util.h **** //   TfLiteTensor* my_tensor;
  46:C:/Renesas/e2studio_2021_01_workspace_RZA2M_ANPR/ANPR_RZA2M_GR_MANGO/src/tensorflow_lite/tensorflow/lite/kernels\kernel_util.h **** //   TF_LITE_ENSURE_OK(context,
  47:C:/Renesas/e2studio_2021_01_workspace_RZA2M_ANPR/ANPR_RZA2M_GR_MANGO/src/tensorflow_lite/tensorflow/lite/kernels\kernel_util.h **** //                     GetInputSafe(context, node, kMyTensorIdx, &my_tensor));
  48:C:/Renesas/e2studio_2021_01_workspace_RZA2M_ANPR/ANPR_RZA2M_GR_MANGO/src/tensorflow_lite/tensorflow/lite/kernels\kernel_util.h **** //   // can use my_tensor directly from here onwards, it is not nullptr
  49:C:/Renesas/e2studio_2021_01_workspace_RZA2M_ANPR/ANPR_RZA2M_GR_MANGO/src/tensorflow_lite/tensorflow/lite/kernels\kernel_util.h **** //
  50:C:/Renesas/e2studio_2021_01_workspace_RZA2M_ANPR/ANPR_RZA2M_GR_MANGO/src/tensorflow_lite/tensorflow/lite/kernels\kernel_util.h **** // Should be used in cases where the binary size is too large.
  51:C:/Renesas/e2studio_2021_01_workspace_RZA2M_ANPR/ANPR_RZA2M_GR_MANGO/src/tensorflow_lite/tensorflow/lite/kernels\kernel_util.h **** TfLiteStatus GetInputSafe(const TfLiteContext* context, const TfLiteNode* node,
  52:C:/Renesas/e2studio_2021_01_workspace_RZA2M_ANPR/ANPR_RZA2M_GR_MANGO/src/tensorflow_lite/tensorflow/lite/kernels\kernel_util.h ****                           int index, const TfLiteTensor** tensor);
  53:C:/Renesas/e2studio_2021_01_workspace_RZA2M_ANPR/ANPR_RZA2M_GR_MANGO/src/tensorflow_lite/tensorflow/lite/kernels\kernel_util.h **** 
  54:C:/Renesas/e2studio_2021_01_workspace_RZA2M_ANPR/ANPR_RZA2M_GR_MANGO/src/tensorflow_lite/tensorflow/lite/kernels\kernel_util.h **** // Note: You must check if result is not null:
  55:C:/Renesas/e2studio_2021_01_workspace_RZA2M_ANPR/ANPR_RZA2M_GR_MANGO/src/tensorflow_lite/tensorflow/lite/kernels\kernel_util.h **** //
  56:C:/Renesas/e2studio_2021_01_workspace_RZA2M_ANPR/ANPR_RZA2M_GR_MANGO/src/tensorflow_lite/tensorflow/lite/kernels\kernel_util.h **** //   TfLiteTensor* my_tensor = GetVariableInput(context, node, kMyTensorIdx);
  57:C:/Renesas/e2studio_2021_01_workspace_RZA2M_ANPR/ANPR_RZA2M_GR_MANGO/src/tensorflow_lite/tensorflow/lite/kernels\kernel_util.h **** //   TF_LITE_ENSURE(context, my_tensor != nullptr);
  58:C:/Renesas/e2studio_2021_01_workspace_RZA2M_ANPR/ANPR_RZA2M_GR_MANGO/src/tensorflow_lite/tensorflow/lite/kernels\kernel_util.h **** //
  59:C:/Renesas/e2studio_2021_01_workspace_RZA2M_ANPR/ANPR_RZA2M_GR_MANGO/src/tensorflow_lite/tensorflow/lite/kernels\kernel_util.h **** // This is because the index might point to the optional tensor constant
  60:C:/Renesas/e2studio_2021_01_workspace_RZA2M_ANPR/ANPR_RZA2M_GR_MANGO/src/tensorflow_lite/tensorflow/lite/kernels\kernel_util.h **** // (kTfLiteOptionalTensor) in which case there is no tensor to return.
  61:C:/Renesas/e2studio_2021_01_workspace_RZA2M_ANPR/ANPR_RZA2M_GR_MANGO/src/tensorflow_lite/tensorflow/lite/kernels\kernel_util.h **** TfLiteTensor* GetVariableInput(TfLiteContext* context, const TfLiteNode* node,
  62:C:/Renesas/e2studio_2021_01_workspace_RZA2M_ANPR/ANPR_RZA2M_GR_MANGO/src/tensorflow_lite/tensorflow/lite/kernels\kernel_util.h ****                                int index);
  63:C:/Renesas/e2studio_2021_01_workspace_RZA2M_ANPR/ANPR_RZA2M_GR_MANGO/src/tensorflow_lite/tensorflow/lite/kernels\kernel_util.h **** 
  64:C:/Renesas/e2studio_2021_01_workspace_RZA2M_ANPR/ANPR_RZA2M_GR_MANGO/src/tensorflow_lite/tensorflow/lite/kernels\kernel_util.h **** // Note: You must check if result is not null:
  65:C:/Renesas/e2studio_2021_01_workspace_RZA2M_ANPR/ANPR_RZA2M_GR_MANGO/src/tensorflow_lite/tensorflow/lite/kernels\kernel_util.h **** //
  66:C:/Renesas/e2studio_2021_01_workspace_RZA2M_ANPR/ANPR_RZA2M_GR_MANGO/src/tensorflow_lite/tensorflow/lite/kernels\kernel_util.h **** //   TfLiteTensor* my_tensor = GetOutput(context, node, kMyTensorIdx);
  67:C:/Renesas/e2studio_2021_01_workspace_RZA2M_ANPR/ANPR_RZA2M_GR_MANGO/src/tensorflow_lite/tensorflow/lite/kernels\kernel_util.h **** //   TF_LITE_ENSURE(context, my_tensor != nullptr);
  68:C:/Renesas/e2studio_2021_01_workspace_RZA2M_ANPR/ANPR_RZA2M_GR_MANGO/src/tensorflow_lite/tensorflow/lite/kernels\kernel_util.h **** //
  69:C:/Renesas/e2studio_2021_01_workspace_RZA2M_ANPR/ANPR_RZA2M_GR_MANGO/src/tensorflow_lite/tensorflow/lite/kernels\kernel_util.h **** // This is because the index might point to the optional tensor constant
  70:C:/Renesas/e2studio_2021_01_workspace_RZA2M_ANPR/ANPR_RZA2M_GR_MANGO/src/tensorflow_lite/tensorflow/lite/kernels\kernel_util.h **** // (kTfLiteOptionalTensor) in which case there is no tensor to return.
  71:C:/Renesas/e2studio_2021_01_workspace_RZA2M_ANPR/ANPR_RZA2M_GR_MANGO/src/tensorflow_lite/tensorflow/lite/kernels\kernel_util.h **** TfLiteTensor* GetOutput(TfLiteContext* context, const TfLiteNode* node,
  72:C:/Renesas/e2studio_2021_01_workspace_RZA2M_ANPR/ANPR_RZA2M_GR_MANGO/src/tensorflow_lite/tensorflow/lite/kernels\kernel_util.h ****                         int index);
  73:C:/Renesas/e2studio_2021_01_workspace_RZA2M_ANPR/ANPR_RZA2M_GR_MANGO/src/tensorflow_lite/tensorflow/lite/kernels\kernel_util.h **** 
  74:C:/Renesas/e2studio_2021_01_workspace_RZA2M_ANPR/ANPR_RZA2M_GR_MANGO/src/tensorflow_lite/tensorflow/lite/kernels\kernel_util.h **** // Same as `GetOutput` but returns boolean and uses output argument for tensor.
  75:C:/Renesas/e2studio_2021_01_workspace_RZA2M_ANPR/ANPR_RZA2M_GR_MANGO/src/tensorflow_lite/tensorflow/lite/kernels\kernel_util.h **** //
  76:C:/Renesas/e2studio_2021_01_workspace_RZA2M_ANPR/ANPR_RZA2M_GR_MANGO/src/tensorflow_lite/tensorflow/lite/kernels\kernel_util.h **** //   TfLiteTensor* my_tensor;
  77:C:/Renesas/e2studio_2021_01_workspace_RZA2M_ANPR/ANPR_RZA2M_GR_MANGO/src/tensorflow_lite/tensorflow/lite/kernels\kernel_util.h **** //   TF_LITE_ENSURE_OK(context,
  78:C:/Renesas/e2studio_2021_01_workspace_RZA2M_ANPR/ANPR_RZA2M_GR_MANGO/src/tensorflow_lite/tensorflow/lite/kernels\kernel_util.h **** //                     GetOutputSafe(context, node, kMyTensorIdx, &my_tensor));
  79:C:/Renesas/e2studio_2021_01_workspace_RZA2M_ANPR/ANPR_RZA2M_GR_MANGO/src/tensorflow_lite/tensorflow/lite/kernels\kernel_util.h **** //   // can use my_tensor directly from here onwards, it is not nullptr
  80:C:/Renesas/e2studio_2021_01_workspace_RZA2M_ANPR/ANPR_RZA2M_GR_MANGO/src/tensorflow_lite/tensorflow/lite/kernels\kernel_util.h **** //
  81:C:/Renesas/e2studio_2021_01_workspace_RZA2M_ANPR/ANPR_RZA2M_GR_MANGO/src/tensorflow_lite/tensorflow/lite/kernels\kernel_util.h **** // Should be used in cases where the binary size is too large.
  82:C:/Renesas/e2studio_2021_01_workspace_RZA2M_ANPR/ANPR_RZA2M_GR_MANGO/src/tensorflow_lite/tensorflow/lite/kernels\kernel_util.h **** TfLiteStatus GetOutputSafe(const TfLiteContext* context, const TfLiteNode* node,
  83:C:/Renesas/e2studio_2021_01_workspace_RZA2M_ANPR/ANPR_RZA2M_GR_MANGO/src/tensorflow_lite/tensorflow/lite/kernels\kernel_util.h ****                            int index, TfLiteTensor** tensor);
  84:C:/Renesas/e2studio_2021_01_workspace_RZA2M_ANPR/ANPR_RZA2M_GR_MANGO/src/tensorflow_lite/tensorflow/lite/kernels\kernel_util.h **** 
  85:C:/Renesas/e2studio_2021_01_workspace_RZA2M_ANPR/ANPR_RZA2M_GR_MANGO/src/tensorflow_lite/tensorflow/lite/kernels\kernel_util.h **** // Note: You must check if result is not null:
  86:C:/Renesas/e2studio_2021_01_workspace_RZA2M_ANPR/ANPR_RZA2M_GR_MANGO/src/tensorflow_lite/tensorflow/lite/kernels\kernel_util.h **** //
  87:C:/Renesas/e2studio_2021_01_workspace_RZA2M_ANPR/ANPR_RZA2M_GR_MANGO/src/tensorflow_lite/tensorflow/lite/kernels\kernel_util.h **** //   TfLiteTensor* my_tensor = GetOptionalInputTensor(context, node, kIdx);
  88:C:/Renesas/e2studio_2021_01_workspace_RZA2M_ANPR/ANPR_RZA2M_GR_MANGO/src/tensorflow_lite/tensorflow/lite/kernels\kernel_util.h **** //   TF_LITE_ENSURE(context, my_tensor != nullptr);
  89:C:/Renesas/e2studio_2021_01_workspace_RZA2M_ANPR/ANPR_RZA2M_GR_MANGO/src/tensorflow_lite/tensorflow/lite/kernels\kernel_util.h **** //
  90:C:/Renesas/e2studio_2021_01_workspace_RZA2M_ANPR/ANPR_RZA2M_GR_MANGO/src/tensorflow_lite/tensorflow/lite/kernels\kernel_util.h **** // This is because the index might point to the optional tensor constant
  91:C:/Renesas/e2studio_2021_01_workspace_RZA2M_ANPR/ANPR_RZA2M_GR_MANGO/src/tensorflow_lite/tensorflow/lite/kernels\kernel_util.h **** // (kTfLiteOptionalTensor) in which case there is no tensor to return.
  92:C:/Renesas/e2studio_2021_01_workspace_RZA2M_ANPR/ANPR_RZA2M_GR_MANGO/src/tensorflow_lite/tensorflow/lite/kernels\kernel_util.h **** //
  93:C:/Renesas/e2studio_2021_01_workspace_RZA2M_ANPR/ANPR_RZA2M_GR_MANGO/src/tensorflow_lite/tensorflow/lite/kernels\kernel_util.h **** // Deprecated. GetInput has the same functionality.
  94:C:/Renesas/e2studio_2021_01_workspace_RZA2M_ANPR/ANPR_RZA2M_GR_MANGO/src/tensorflow_lite/tensorflow/lite/kernels\kernel_util.h **** const TfLiteTensor* GetOptionalInputTensor(const TfLiteContext* context,
  95:C:/Renesas/e2studio_2021_01_workspace_RZA2M_ANPR/ANPR_RZA2M_GR_MANGO/src/tensorflow_lite/tensorflow/lite/kernels\kernel_util.h ****                                            const TfLiteNode* node, int index);
  96:C:/Renesas/e2studio_2021_01_workspace_RZA2M_ANPR/ANPR_RZA2M_GR_MANGO/src/tensorflow_lite/tensorflow/lite/kernels\kernel_util.h **** 
  97:C:/Renesas/e2studio_2021_01_workspace_RZA2M_ANPR/ANPR_RZA2M_GR_MANGO/src/tensorflow_lite/tensorflow/lite/kernels\kernel_util.h **** #ifndef TF_LITE_STATIC_MEMORY
  98:C:/Renesas/e2studio_2021_01_workspace_RZA2M_ANPR/ANPR_RZA2M_GR_MANGO/src/tensorflow_lite/tensorflow/lite/kernels\kernel_util.h **** // Note: You must check if result is not null:
  99:C:/Renesas/e2studio_2021_01_workspace_RZA2M_ANPR/ANPR_RZA2M_GR_MANGO/src/tensorflow_lite/tensorflow/lite/kernels\kernel_util.h **** //
 100:C:/Renesas/e2studio_2021_01_workspace_RZA2M_ANPR/ANPR_RZA2M_GR_MANGO/src/tensorflow_lite/tensorflow/lite/kernels\kernel_util.h **** //   TfLiteTensor* my_tensor = GetTemporary(context, node, kMyTensorIdx);
 101:C:/Renesas/e2studio_2021_01_workspace_RZA2M_ANPR/ANPR_RZA2M_GR_MANGO/src/tensorflow_lite/tensorflow/lite/kernels\kernel_util.h **** //   TF_LITE_ENSURE(context, my_tensor != nullptr);
 102:C:/Renesas/e2studio_2021_01_workspace_RZA2M_ANPR/ANPR_RZA2M_GR_MANGO/src/tensorflow_lite/tensorflow/lite/kernels\kernel_util.h **** //
 103:C:/Renesas/e2studio_2021_01_workspace_RZA2M_ANPR/ANPR_RZA2M_GR_MANGO/src/tensorflow_lite/tensorflow/lite/kernels\kernel_util.h **** // This is because the index might point to the optional tensor constant
 104:C:/Renesas/e2studio_2021_01_workspace_RZA2M_ANPR/ANPR_RZA2M_GR_MANGO/src/tensorflow_lite/tensorflow/lite/kernels\kernel_util.h **** // (kTfLiteOptionalTensor) in which case there is no tensor to return.
 105:C:/Renesas/e2studio_2021_01_workspace_RZA2M_ANPR/ANPR_RZA2M_GR_MANGO/src/tensorflow_lite/tensorflow/lite/kernels\kernel_util.h **** TfLiteTensor* GetTemporary(TfLiteContext* context, const TfLiteNode* node,
 106:C:/Renesas/e2studio_2021_01_workspace_RZA2M_ANPR/ANPR_RZA2M_GR_MANGO/src/tensorflow_lite/tensorflow/lite/kernels\kernel_util.h ****                            int index);
 107:C:/Renesas/e2studio_2021_01_workspace_RZA2M_ANPR/ANPR_RZA2M_GR_MANGO/src/tensorflow_lite/tensorflow/lite/kernels\kernel_util.h **** 
 108:C:/Renesas/e2studio_2021_01_workspace_RZA2M_ANPR/ANPR_RZA2M_GR_MANGO/src/tensorflow_lite/tensorflow/lite/kernels\kernel_util.h **** // Same as `GetTemporary` but returns boolean and uses output argument for
 109:C:/Renesas/e2studio_2021_01_workspace_RZA2M_ANPR/ANPR_RZA2M_GR_MANGO/src/tensorflow_lite/tensorflow/lite/kernels\kernel_util.h **** // tensor.
 110:C:/Renesas/e2studio_2021_01_workspace_RZA2M_ANPR/ANPR_RZA2M_GR_MANGO/src/tensorflow_lite/tensorflow/lite/kernels\kernel_util.h **** //
 111:C:/Renesas/e2studio_2021_01_workspace_RZA2M_ANPR/ANPR_RZA2M_GR_MANGO/src/tensorflow_lite/tensorflow/lite/kernels\kernel_util.h **** //   TfLiteTensor* my_tensor;
 112:C:/Renesas/e2studio_2021_01_workspace_RZA2M_ANPR/ANPR_RZA2M_GR_MANGO/src/tensorflow_lite/tensorflow/lite/kernels\kernel_util.h **** //   TF_LITE_ENSURE_OK(context,
 113:C:/Renesas/e2studio_2021_01_workspace_RZA2M_ANPR/ANPR_RZA2M_GR_MANGO/src/tensorflow_lite/tensorflow/lite/kernels\kernel_util.h **** //                     GetTemporarySafe(context, node, kMyTensorIdx,
 114:C:/Renesas/e2studio_2021_01_workspace_RZA2M_ANPR/ANPR_RZA2M_GR_MANGO/src/tensorflow_lite/tensorflow/lite/kernels\kernel_util.h **** //                     &my_tensor));
 115:C:/Renesas/e2studio_2021_01_workspace_RZA2M_ANPR/ANPR_RZA2M_GR_MANGO/src/tensorflow_lite/tensorflow/lite/kernels\kernel_util.h **** //   // can use my_tensor directly from here onwards, it is not nullptr
 116:C:/Renesas/e2studio_2021_01_workspace_RZA2M_ANPR/ANPR_RZA2M_GR_MANGO/src/tensorflow_lite/tensorflow/lite/kernels\kernel_util.h **** //
 117:C:/Renesas/e2studio_2021_01_workspace_RZA2M_ANPR/ANPR_RZA2M_GR_MANGO/src/tensorflow_lite/tensorflow/lite/kernels\kernel_util.h **** // Should be used in cases where the binary size is too large.
 118:C:/Renesas/e2studio_2021_01_workspace_RZA2M_ANPR/ANPR_RZA2M_GR_MANGO/src/tensorflow_lite/tensorflow/lite/kernels\kernel_util.h **** TfLiteStatus GetTemporarySafe(const TfLiteContext* context,
 119:C:/Renesas/e2studio_2021_01_workspace_RZA2M_ANPR/ANPR_RZA2M_GR_MANGO/src/tensorflow_lite/tensorflow/lite/kernels\kernel_util.h ****                               const TfLiteNode* node, int index,
 120:C:/Renesas/e2studio_2021_01_workspace_RZA2M_ANPR/ANPR_RZA2M_GR_MANGO/src/tensorflow_lite/tensorflow/lite/kernels\kernel_util.h ****                               TfLiteTensor** tensor);
 121:C:/Renesas/e2studio_2021_01_workspace_RZA2M_ANPR/ANPR_RZA2M_GR_MANGO/src/tensorflow_lite/tensorflow/lite/kernels\kernel_util.h **** 
 122:C:/Renesas/e2studio_2021_01_workspace_RZA2M_ANPR/ANPR_RZA2M_GR_MANGO/src/tensorflow_lite/tensorflow/lite/kernels\kernel_util.h **** // Note: You must check if result is not null:
 123:C:/Renesas/e2studio_2021_01_workspace_RZA2M_ANPR/ANPR_RZA2M_GR_MANGO/src/tensorflow_lite/tensorflow/lite/kernels\kernel_util.h **** //
 124:C:/Renesas/e2studio_2021_01_workspace_RZA2M_ANPR/ANPR_RZA2M_GR_MANGO/src/tensorflow_lite/tensorflow/lite/kernels\kernel_util.h **** //   TfLiteTensor* my_tensor = GetIntermediates(context, node, kMyTensorIdx);
 125:C:/Renesas/e2studio_2021_01_workspace_RZA2M_ANPR/ANPR_RZA2M_GR_MANGO/src/tensorflow_lite/tensorflow/lite/kernels\kernel_util.h **** //   TF_LITE_ENSURE(context, my_tensor != nullptr);
 126:C:/Renesas/e2studio_2021_01_workspace_RZA2M_ANPR/ANPR_RZA2M_GR_MANGO/src/tensorflow_lite/tensorflow/lite/kernels\kernel_util.h **** //
 127:C:/Renesas/e2studio_2021_01_workspace_RZA2M_ANPR/ANPR_RZA2M_GR_MANGO/src/tensorflow_lite/tensorflow/lite/kernels\kernel_util.h **** // This is because the index might point to the optional tensor constant
 128:C:/Renesas/e2studio_2021_01_workspace_RZA2M_ANPR/ANPR_RZA2M_GR_MANGO/src/tensorflow_lite/tensorflow/lite/kernels\kernel_util.h **** // (kTfLiteOptionalTensor) in which case there is no tensor to return.
 129:C:/Renesas/e2studio_2021_01_workspace_RZA2M_ANPR/ANPR_RZA2M_GR_MANGO/src/tensorflow_lite/tensorflow/lite/kernels\kernel_util.h **** const TfLiteTensor* GetIntermediates(TfLiteContext* context,
 130:C:/Renesas/e2studio_2021_01_workspace_RZA2M_ANPR/ANPR_RZA2M_GR_MANGO/src/tensorflow_lite/tensorflow/lite/kernels\kernel_util.h ****                                      const TfLiteNode* node, int index);
 131:C:/Renesas/e2studio_2021_01_workspace_RZA2M_ANPR/ANPR_RZA2M_GR_MANGO/src/tensorflow_lite/tensorflow/lite/kernels\kernel_util.h **** 
 132:C:/Renesas/e2studio_2021_01_workspace_RZA2M_ANPR/ANPR_RZA2M_GR_MANGO/src/tensorflow_lite/tensorflow/lite/kernels\kernel_util.h **** // Same as `GetIntermediates` but returns boolean and uses output argument for
 133:C:/Renesas/e2studio_2021_01_workspace_RZA2M_ANPR/ANPR_RZA2M_GR_MANGO/src/tensorflow_lite/tensorflow/lite/kernels\kernel_util.h **** // tensor.
 134:C:/Renesas/e2studio_2021_01_workspace_RZA2M_ANPR/ANPR_RZA2M_GR_MANGO/src/tensorflow_lite/tensorflow/lite/kernels\kernel_util.h **** //
 135:C:/Renesas/e2studio_2021_01_workspace_RZA2M_ANPR/ANPR_RZA2M_GR_MANGO/src/tensorflow_lite/tensorflow/lite/kernels\kernel_util.h **** //   TfLiteTensor* my_tensor;
 136:C:/Renesas/e2studio_2021_01_workspace_RZA2M_ANPR/ANPR_RZA2M_GR_MANGO/src/tensorflow_lite/tensorflow/lite/kernels\kernel_util.h **** //   TF_LITE_ENSURE_OK(context,
 137:C:/Renesas/e2studio_2021_01_workspace_RZA2M_ANPR/ANPR_RZA2M_GR_MANGO/src/tensorflow_lite/tensorflow/lite/kernels\kernel_util.h **** //                     GetIntermediatesSafe(context, node, kMyTensorIdx,
 138:C:/Renesas/e2studio_2021_01_workspace_RZA2M_ANPR/ANPR_RZA2M_GR_MANGO/src/tensorflow_lite/tensorflow/lite/kernels\kernel_util.h **** //                     &my_tensor));
 139:C:/Renesas/e2studio_2021_01_workspace_RZA2M_ANPR/ANPR_RZA2M_GR_MANGO/src/tensorflow_lite/tensorflow/lite/kernels\kernel_util.h **** //   // can use my_tensor directly from here onwards, it is not nullptr
 140:C:/Renesas/e2studio_2021_01_workspace_RZA2M_ANPR/ANPR_RZA2M_GR_MANGO/src/tensorflow_lite/tensorflow/lite/kernels\kernel_util.h **** //
 141:C:/Renesas/e2studio_2021_01_workspace_RZA2M_ANPR/ANPR_RZA2M_GR_MANGO/src/tensorflow_lite/tensorflow/lite/kernels\kernel_util.h **** // Should be used in cases where the binary size is too large.
 142:C:/Renesas/e2studio_2021_01_workspace_RZA2M_ANPR/ANPR_RZA2M_GR_MANGO/src/tensorflow_lite/tensorflow/lite/kernels\kernel_util.h **** TfLiteStatus GetIntermediatesSafe(const TfLiteContext* context,
 143:C:/Renesas/e2studio_2021_01_workspace_RZA2M_ANPR/ANPR_RZA2M_GR_MANGO/src/tensorflow_lite/tensorflow/lite/kernels\kernel_util.h ****                                   const TfLiteNode* node, int index,
 144:C:/Renesas/e2studio_2021_01_workspace_RZA2M_ANPR/ANPR_RZA2M_GR_MANGO/src/tensorflow_lite/tensorflow/lite/kernels\kernel_util.h ****                                   TfLiteTensor** tensor);
 145:C:/Renesas/e2studio_2021_01_workspace_RZA2M_ANPR/ANPR_RZA2M_GR_MANGO/src/tensorflow_lite/tensorflow/lite/kernels\kernel_util.h **** #endif  // TF_LITE_STATIC_MEMORY
 146:C:/Renesas/e2studio_2021_01_workspace_RZA2M_ANPR/ANPR_RZA2M_GR_MANGO/src/tensorflow_lite/tensorflow/lite/kernels\kernel_util.h **** 
 147:C:/Renesas/e2studio_2021_01_workspace_RZA2M_ANPR/ANPR_RZA2M_GR_MANGO/src/tensorflow_lite/tensorflow/lite/kernels\kernel_util.h **** inline int NumDimensions(const TfLiteTensor* t) { return t->dims->size; }
 148:C:/Renesas/e2studio_2021_01_workspace_RZA2M_ANPR/ANPR_RZA2M_GR_MANGO/src/tensorflow_lite/tensorflow/lite/kernels\kernel_util.h **** inline int SizeOfDimension(const TfLiteTensor* t, int dim) {
 149:C:/Renesas/e2studio_2021_01_workspace_RZA2M_ANPR/ANPR_RZA2M_GR_MANGO/src/tensorflow_lite/tensorflow/lite/kernels\kernel_util.h ****   return t->dims->data[dim];
 150:C:/Renesas/e2studio_2021_01_workspace_RZA2M_ANPR/ANPR_RZA2M_GR_MANGO/src/tensorflow_lite/tensorflow/lite/kernels\kernel_util.h **** }
 151:C:/Renesas/e2studio_2021_01_workspace_RZA2M_ANPR/ANPR_RZA2M_GR_MANGO/src/tensorflow_lite/tensorflow/lite/kernels\kernel_util.h **** 
 152:C:/Renesas/e2studio_2021_01_workspace_RZA2M_ANPR/ANPR_RZA2M_GR_MANGO/src/tensorflow_lite/tensorflow/lite/kernels\kernel_util.h **** inline int NumInputs(const TfLiteNode* node) { return node->inputs->size; }
  97              		.loc 2 152 0
  98 0018 003091E5 		ldr	r3, [r1]
  99 001c 0140A0E1 		mov	r4, r1
 100              	.LVL5:
 101              	.LBE462:
 102              	.LBE461:
  47:../src/tensorflow_lite/tensorflow/lite/micro/kernels/pad.cc ****   OpData* data = static_cast<OpData*>(node->user_data);
  48:../src/tensorflow_lite/tensorflow/lite/micro/kernels/pad.cc **** 
  49:../src/tensorflow_lite/tensorflow/lite/micro/kernels/pad.cc ****   TF_LITE_ENSURE(context, NumInputs(node) == 2 || NumInputs(node) == 3);
 103              		.loc 1 49 0
 104 0020 003093E5 		ldr	r3, [r3]
 105 0024 023043E2 		sub	r3, r3, #2
 106 0028 010053E3 		cmp	r3, #1
 107 002c 0C00009A 		bls	.L179
 108 0030 003000E3 		movw	r3, #:lower16:.LC27
 109 0034 002000E3 		movw	r2, #:lower16:.LC1
 110 0038 003040E3 		movt	r3, #:upper16:.LC27
 111 003c 001000E3 		movw	r1, #:lower16:.LC5
 112              	.LVL6:
 113 0040 144090E5 		ldr	r4, [r0, #20]
 114              	.LVL7:
 115 0044 002040E3 		movt	r2, #:upper16:.LC1
 116 0048 00308DE5 		str	r3, [sp]
 117 004c 001040E3 		movt	r1, #:upper16:.LC5
 118 0050 3130A0E3 		mov	r3, #49
 119              	.LEHB0:
 120 0054 34FF2FE1 		blx	r4
 121              	.LVL8:
 122 0058 0100A0E3 		mov	r0, #1
 123              	.LVL9:
 124              	.L169:
  50:../src/tensorflow_lite/tensorflow/lite/micro/kernels/pad.cc ****   TF_LITE_ENSURE_EQ(context, NumOutputs(node), 1);
  51:../src/tensorflow_lite/tensorflow/lite/micro/kernels/pad.cc **** 
  52:../src/tensorflow_lite/tensorflow/lite/micro/kernels/pad.cc ****   const TfLiteTensor* input = GetInput(context, node, /*index=*/0);
  53:../src/tensorflow_lite/tensorflow/lite/micro/kernels/pad.cc ****   TF_LITE_ENSURE(context, input != nullptr);
  54:../src/tensorflow_lite/tensorflow/lite/micro/kernels/pad.cc ****   const TfLiteTensor* paddings = GetInput(context, node, /*index=*/1);
  55:../src/tensorflow_lite/tensorflow/lite/micro/kernels/pad.cc ****   TF_LITE_ENSURE(context, paddings != nullptr);
  56:../src/tensorflow_lite/tensorflow/lite/micro/kernels/pad.cc ****   const TfLiteTensor* constant_values =
  57:../src/tensorflow_lite/tensorflow/lite/micro/kernels/pad.cc ****       NumInputs(node) == 3 ? GetInput(context, node, /*index=*/2) : nullptr;
  58:../src/tensorflow_lite/tensorflow/lite/micro/kernels/pad.cc ****   TfLiteTensor* output = GetOutput(context, node, /*index=*/0);
  59:../src/tensorflow_lite/tensorflow/lite/micro/kernels/pad.cc ****   TF_LITE_ENSURE(context, output != nullptr);
  60:../src/tensorflow_lite/tensorflow/lite/micro/kernels/pad.cc **** 
  61:../src/tensorflow_lite/tensorflow/lite/micro/kernels/pad.cc ****   TF_LITE_ENSURE_EQ(context, input->type, output->type);
  62:../src/tensorflow_lite/tensorflow/lite/micro/kernels/pad.cc **** 
  63:../src/tensorflow_lite/tensorflow/lite/micro/kernels/pad.cc ****   // Current implementations rely on the inputs being <= 4D.
  64:../src/tensorflow_lite/tensorflow/lite/micro/kernels/pad.cc ****   TF_LITE_ENSURE(context, NumDimensions(input) <=
  65:../src/tensorflow_lite/tensorflow/lite/micro/kernels/pad.cc ****                               reference_ops::PadKernelMaxDimensionCount());
  66:../src/tensorflow_lite/tensorflow/lite/micro/kernels/pad.cc **** 
  67:../src/tensorflow_lite/tensorflow/lite/micro/kernels/pad.cc ****   if (constant_values != nullptr) {
  68:../src/tensorflow_lite/tensorflow/lite/micro/kernels/pad.cc ****     TF_LITE_ENSURE_EQ(context, input->type, constant_values->type);
  69:../src/tensorflow_lite/tensorflow/lite/micro/kernels/pad.cc ****     // Ensure that constant_values is a scalar.
  70:../src/tensorflow_lite/tensorflow/lite/micro/kernels/pad.cc ****     TF_LITE_ENSURE_EQ(context, NumElements(constant_values), 1);
  71:../src/tensorflow_lite/tensorflow/lite/micro/kernels/pad.cc ****   }
  72:../src/tensorflow_lite/tensorflow/lite/micro/kernels/pad.cc **** 
  73:../src/tensorflow_lite/tensorflow/lite/micro/kernels/pad.cc ****   // There must be a pair of paddings for each output dimension.
  74:../src/tensorflow_lite/tensorflow/lite/micro/kernels/pad.cc ****   TF_LITE_ENSURE_EQ(context, GetTensorShape(paddings).FlatSize(),
  75:../src/tensorflow_lite/tensorflow/lite/micro/kernels/pad.cc ****                     output->dims->size * 2);
  76:../src/tensorflow_lite/tensorflow/lite/micro/kernels/pad.cc **** 
  77:../src/tensorflow_lite/tensorflow/lite/micro/kernels/pad.cc ****   // On Micro, outputs must be properly sized by the converter.
  78:../src/tensorflow_lite/tensorflow/lite/micro/kernels/pad.cc ****   // NOTE: This data is only available because the paddings buffer is stored in
  79:../src/tensorflow_lite/tensorflow/lite/micro/kernels/pad.cc ****   // the flatbuffer:
  80:../src/tensorflow_lite/tensorflow/lite/micro/kernels/pad.cc ****   TF_LITE_ENSURE(context, IsConstantTensor(paddings));
  81:../src/tensorflow_lite/tensorflow/lite/micro/kernels/pad.cc ****   const int32_t* paddings_data = GetTensorData<int32_t>(paddings);
  82:../src/tensorflow_lite/tensorflow/lite/micro/kernels/pad.cc ****   for (int i = 0; i < output->dims->size; i++) {
  83:../src/tensorflow_lite/tensorflow/lite/micro/kernels/pad.cc ****     int output_dim = output->dims->data[i];
  84:../src/tensorflow_lite/tensorflow/lite/micro/kernels/pad.cc ****     int expected_dim =
  85:../src/tensorflow_lite/tensorflow/lite/micro/kernels/pad.cc ****         input->dims->data[i] + paddings_data[i * 2] + paddings_data[i * 2 + 1];
  86:../src/tensorflow_lite/tensorflow/lite/micro/kernels/pad.cc ****     TF_LITE_ENSURE_EQ(context, output_dim, expected_dim);
  87:../src/tensorflow_lite/tensorflow/lite/micro/kernels/pad.cc ****   }
  88:../src/tensorflow_lite/tensorflow/lite/micro/kernels/pad.cc **** 
  89:../src/tensorflow_lite/tensorflow/lite/micro/kernels/pad.cc ****   // Calculate OpData:
  90:../src/tensorflow_lite/tensorflow/lite/micro/kernels/pad.cc ****   data->params.resizing_category = ResizingCategory::kGenericResize;
  91:../src/tensorflow_lite/tensorflow/lite/micro/kernels/pad.cc ****   const int paddings_total = GetTensorShape(paddings).FlatSize();
  92:../src/tensorflow_lite/tensorflow/lite/micro/kernels/pad.cc ****   if (paddings_total == 8 && (paddings_data[0] == 0 && paddings_data[1] == 0) &&
  93:../src/tensorflow_lite/tensorflow/lite/micro/kernels/pad.cc ****       (paddings_data[6] == 0 && paddings_data[7] == 0)) {
  94:../src/tensorflow_lite/tensorflow/lite/micro/kernels/pad.cc ****     data->params.resizing_category = ResizingCategory::kImageStyle;
  95:../src/tensorflow_lite/tensorflow/lite/micro/kernels/pad.cc ****   }
  96:../src/tensorflow_lite/tensorflow/lite/micro/kernels/pad.cc **** 
  97:../src/tensorflow_lite/tensorflow/lite/micro/kernels/pad.cc ****   const int num_input_dimensions = NumDimensions(input);
  98:../src/tensorflow_lite/tensorflow/lite/micro/kernels/pad.cc ****   data->params.left_padding_count = num_input_dimensions;
  99:../src/tensorflow_lite/tensorflow/lite/micro/kernels/pad.cc ****   data->params.right_padding_count = num_input_dimensions;
 100:../src/tensorflow_lite/tensorflow/lite/micro/kernels/pad.cc **** 
 101:../src/tensorflow_lite/tensorflow/lite/micro/kernels/pad.cc ****   for (int idx = num_input_dimensions - 1; idx >= 0; --idx) {
 102:../src/tensorflow_lite/tensorflow/lite/micro/kernels/pad.cc ****     data->params.left_padding[idx] = paddings_data[idx * 2];
 103:../src/tensorflow_lite/tensorflow/lite/micro/kernels/pad.cc ****     data->params.right_padding[idx] = paddings_data[idx * 2 + 1];
 104:../src/tensorflow_lite/tensorflow/lite/micro/kernels/pad.cc ****   }
 105:../src/tensorflow_lite/tensorflow/lite/micro/kernels/pad.cc **** 
 106:../src/tensorflow_lite/tensorflow/lite/micro/kernels/pad.cc ****   if (input->type == kTfLiteInt8 || input->type == kTfLiteUInt8) {
 107:../src/tensorflow_lite/tensorflow/lite/micro/kernels/pad.cc ****     if (constant_values == nullptr) {
 108:../src/tensorflow_lite/tensorflow/lite/micro/kernels/pad.cc ****       // Quantized Pad requires that 0 is represented in the quantized
 109:../src/tensorflow_lite/tensorflow/lite/micro/kernels/pad.cc ****       // range.
 110:../src/tensorflow_lite/tensorflow/lite/micro/kernels/pad.cc ****       if (input->type == kTfLiteUInt8) {
 111:../src/tensorflow_lite/tensorflow/lite/micro/kernels/pad.cc ****         TF_LITE_ENSURE(context, output->params.zero_point >=
 112:../src/tensorflow_lite/tensorflow/lite/micro/kernels/pad.cc ****                                     std::numeric_limits<uint8_t>::min());
 113:../src/tensorflow_lite/tensorflow/lite/micro/kernels/pad.cc ****         TF_LITE_ENSURE(context, output->params.zero_point <=
 114:../src/tensorflow_lite/tensorflow/lite/micro/kernels/pad.cc ****                                     std::numeric_limits<uint8_t>::max());
 115:../src/tensorflow_lite/tensorflow/lite/micro/kernels/pad.cc ****       } else {
 116:../src/tensorflow_lite/tensorflow/lite/micro/kernels/pad.cc ****         TF_LITE_ENSURE(context, output->params.zero_point >=
 117:../src/tensorflow_lite/tensorflow/lite/micro/kernels/pad.cc ****                                     std::numeric_limits<int8_t>::min());
 118:../src/tensorflow_lite/tensorflow/lite/micro/kernels/pad.cc ****         TF_LITE_ENSURE(context, output->params.zero_point <=
 119:../src/tensorflow_lite/tensorflow/lite/micro/kernels/pad.cc ****                                     std::numeric_limits<int8_t>::max());
 120:../src/tensorflow_lite/tensorflow/lite/micro/kernels/pad.cc ****       }
 121:../src/tensorflow_lite/tensorflow/lite/micro/kernels/pad.cc ****     } else {
 122:../src/tensorflow_lite/tensorflow/lite/micro/kernels/pad.cc ****       // Quantized Pad requires that 'constant_values' is represented in the
 123:../src/tensorflow_lite/tensorflow/lite/micro/kernels/pad.cc ****       // same quantized range as the input and output tensors.
 124:../src/tensorflow_lite/tensorflow/lite/micro/kernels/pad.cc ****       TF_LITE_ENSURE_EQ(context, output->params.zero_point,
 125:../src/tensorflow_lite/tensorflow/lite/micro/kernels/pad.cc ****                         constant_values->params.zero_point);
 126:../src/tensorflow_lite/tensorflow/lite/micro/kernels/pad.cc ****       TF_LITE_ENSURE_EQ(context, static_cast<double>(output->params.scale),
 127:../src/tensorflow_lite/tensorflow/lite/micro/kernels/pad.cc ****                         static_cast<double>(constant_values->params.scale));
 128:../src/tensorflow_lite/tensorflow/lite/micro/kernels/pad.cc ****     }
 129:../src/tensorflow_lite/tensorflow/lite/micro/kernels/pad.cc ****     data->output_zero_point = output->params.zero_point;
 130:../src/tensorflow_lite/tensorflow/lite/micro/kernels/pad.cc ****   }
 131:../src/tensorflow_lite/tensorflow/lite/micro/kernels/pad.cc **** 
 132:../src/tensorflow_lite/tensorflow/lite/micro/kernels/pad.cc ****   return kTfLiteOk;
 133:../src/tensorflow_lite/tensorflow/lite/micro/kernels/pad.cc **** }
 125              		.loc 1 133 0
 126 005c 84D08DE2 		add	sp, sp, #132
 127              		.cfi_remember_state
 128              		.cfi_def_cfa_offset 36
 129              		@ sp needed
 130 0060 F08FBDE8 		pop	{r4, r5, r6, r7, r8, r9, r10, fp, pc}
 131              	.LVL10:
 132              	.L179:
 133              		.cfi_restore_state
 134              	.LBB463:
 135              	.LBB464:
 153:C:/Renesas/e2studio_2021_01_workspace_RZA2M_ANPR/ANPR_RZA2M_GR_MANGO/src/tensorflow_lite/tensorflow/lite/kernels\kernel_util.h **** inline int NumOutputs(const TfLiteNode* node) { return node->outputs->size; }
 136              		.loc 2 153 0
 137 0064 043091E5 		ldr	r3, [r1, #4]
 138 0068 00A093E5 		ldr	r10, [r3]
 139              	.LBE464:
 140              	.LBE463:
  50:../src/tensorflow_lite/tensorflow/lite/micro/kernels/pad.cc ****   TF_LITE_ENSURE_EQ(context, NumOutputs(node), 1);
 141              		.loc 1 50 0
 142 006c 01005AE3 		cmp	r10, #1
 143 0070 1200000A 		beq	.L180
 144              	.LVL11:
  50:../src/tensorflow_lite/tensorflow/lite/micro/kernels/pad.cc ****   TF_LITE_ENSURE_EQ(context, NumOutputs(node), 1);
 145              		.loc 1 50 0 is_stmt 0 discriminator 1
 146 0074 00C000E3 		movw	ip, #:lower16:.LC3
 147 0078 003000E3 		movw	r3, #:lower16:.LC4
 148 007c 00C040E3 		movt	ip, #:upper16:.LC3
 149 0080 0140A0E3 		mov	r4, #1
 150 0084 003040E3 		movt	r3, #:upper16:.LC4
 151 0088 002000E3 		movw	r2, #:lower16:.LC1
 152 008c 001000E3 		movw	r1, #:lower16:.LC2
 153              	.LVL12:
 154 0090 08A08DE5 		str	r10, [sp, #8]
 155 0094 002040E3 		movt	r2, #:upper16:.LC1
 156 0098 145090E5 		ldr	r5, [r0, #20]
 157 009c 001040E3 		movt	r1, #:upper16:.LC2
 158 00a0 00308DE5 		str	r3, [sp]
 159 00a4 04C08DE5 		str	ip, [sp, #4]
 160 00a8 3230A0E3 		mov	r3, #50
 161 00ac 0C408DE5 		str	r4, [sp, #12]
 162 00b0 35FF2FE1 		blx	r5
 163              	.LVL13:
 164 00b4 0400A0E1 		mov	r0, r4
 165              		.loc 1 133 0 is_stmt 1 discriminator 1
 166 00b8 84D08DE2 		add	sp, sp, #132
 167              		.cfi_remember_state
 168              		.cfi_def_cfa_offset 36
 169              		@ sp needed
 170 00bc F08FBDE8 		pop	{r4, r5, r6, r7, r8, r9, r10, fp, pc}
 171              	.LVL14:
 172              	.L180:
 173              		.cfi_restore_state
  52:../src/tensorflow_lite/tensorflow/lite/micro/kernels/pad.cc ****   TF_LITE_ENSURE(context, input != nullptr);
 174              		.loc 1 52 0
 175 00c0 0020A0E3 		mov	r2, #0
 176 00c4 FEFFFFEB 		bl	_ZN6tflite8GetInputEPK13TfLiteContextPK10TfLiteNodei
 177              	.LVL15:
  53:../src/tensorflow_lite/tensorflow/lite/micro/kernels/pad.cc ****   const TfLiteTensor* paddings = GetInput(context, node, /*index=*/1);
 178              		.loc 1 53 0
 179 00c8 003050E2 		subs	r3, r0, #0
 180 00cc 1C308DE5 		str	r3, [sp, #28]
 181 00d0 1A02000A 		beq	.L181
  54:../src/tensorflow_lite/tensorflow/lite/micro/kernels/pad.cc ****   TF_LITE_ENSURE(context, paddings != nullptr);
 182              		.loc 1 54 0
 183 00d4 0A20A0E1 		mov	r2, r10
 184 00d8 0410A0E1 		mov	r1, r4
 185 00dc 18009DE5 		ldr	r0, [sp, #24]
 186              	.LVL16:
 187 00e0 FEFFFFEB 		bl	_ZN6tflite8GetInputEPK13TfLiteContextPK10TfLiteNodei
 188              	.LVL17:
  55:../src/tensorflow_lite/tensorflow/lite/micro/kernels/pad.cc ****   const TfLiteTensor* constant_values =
 189              		.loc 1 55 0
 190 00e4 003050E2 		subs	r3, r0, #0
 191 00e8 28308DE5 		str	r3, [sp, #40]
 192 00ec 2102000A 		beq	.L182
 193              	.LVL18:
 194              	.LBB465:
 195              	.LBB466:
 152:C:/Renesas/e2studio_2021_01_workspace_RZA2M_ANPR/ANPR_RZA2M_GR_MANGO/src/tensorflow_lite/tensorflow/lite/kernels\kernel_util.h **** inline int NumOutputs(const TfLiteNode* node) { return node->outputs->size; }
 196              		.loc 2 152 0
 197 00f0 003094E5 		ldr	r3, [r4]
 198              	.LBE466:
 199              	.LBE465:
  57:../src/tensorflow_lite/tensorflow/lite/micro/kernels/pad.cc ****   TfLiteTensor* output = GetOutput(context, node, /*index=*/0);
 200              		.loc 1 57 0
 201 00f4 003093E5 		ldr	r3, [r3]
 202 00f8 030053E3 		cmp	r3, #3
 203 00fc 0030A013 		movne	r3, #0
 204 0100 24308D15 		strne	r3, [sp, #36]
 205 0104 F901000A 		beq	.L183
 206              	.LVL19:
 207              	.L15:
  58:../src/tensorflow_lite/tensorflow/lite/micro/kernels/pad.cc ****   TF_LITE_ENSURE(context, output != nullptr);
 208              		.loc 1 58 0 discriminator 4
 209 0108 0410A0E1 		mov	r1, r4
 210 010c 0020A0E3 		mov	r2, #0
 211 0110 18009DE5 		ldr	r0, [sp, #24]
 212 0114 FEFFFFEB 		bl	_ZN6tflite9GetOutputEP13TfLiteContextPK10TfLiteNodei
 213              	.LVL20:
  59:../src/tensorflow_lite/tensorflow/lite/micro/kernels/pad.cc **** 
 214              		.loc 1 59 0 discriminator 4
 215 0118 003050E2 		subs	r3, r0, #0
 216 011c 20308DE5 		str	r3, [sp, #32]
 217 0120 2202000A 		beq	.L184
 218 0124 0320A0E1 		mov	r2, r3
  61:../src/tensorflow_lite/tensorflow/lite/micro/kernels/pad.cc **** 
 219              		.loc 1 61 0
 220 0128 1C309DE5 		ldr	r3, [sp, #28]
 221 012c 0000D2E5 		ldrb	r0, [r2]	@ zero_extendqisi2
 222              	.LVL21:
 223 0130 0030D3E5 		ldrb	r3, [r3]	@ zero_extendqisi2
 224 0134 000053E1 		cmp	r3, r0
 225 0138 D100001A 		bne	.L185
 226              	.LVL22:
 227              	.LBB467:
 228              	.LBB468:
 147:C:/Renesas/e2studio_2021_01_workspace_RZA2M_ANPR/ANPR_RZA2M_GR_MANGO/src/tensorflow_lite/tensorflow/lite/kernels\kernel_util.h **** inline int SizeOfDimension(const TfLiteTensor* t, int dim) {
 229              		.loc 2 147 0
 230 013c 1C209DE5 		ldr	r2, [sp, #28]
 231              	.LVL23:
 232 0140 082092E5 		ldr	r2, [r2, #8]
 233              	.LBE468:
 234              	.LBE467:
  64:../src/tensorflow_lite/tensorflow/lite/micro/kernels/pad.cc ****                               reference_ops::PadKernelMaxDimensionCount());
 235              		.loc 1 64 0
 236 0144 002092E5 		ldr	r2, [r2]
 237 0148 050052E3 		cmp	r2, #5
 238 014c ED0100CA 		bgt	.L186
  67:../src/tensorflow_lite/tensorflow/lite/micro/kernels/pad.cc ****     TF_LITE_ENSURE_EQ(context, input->type, constant_values->type);
 239              		.loc 1 67 0
 240 0150 24209DE5 		ldr	r2, [sp, #36]
 241 0154 000052E3 		cmp	r2, #0
 242 0158 DC00000A 		beq	.L19
  68:../src/tensorflow_lite/tensorflow/lite/micro/kernels/pad.cc ****     // Ensure that constant_values is a scalar.
 243              		.loc 1 68 0
 244 015c 0000D2E5 		ldrb	r0, [r2]	@ zero_extendqisi2
 245 0160 000053E1 		cmp	r3, r0
 246 0164 CE01001A 		bne	.L187
 247 0168 083092E5 		ldr	r3, [r2, #8]
 248 016c 0320A0E1 		mov	r2, r3
 249 0170 30308DE5 		str	r3, [sp, #48]
 250              	.LVL24:
 251              	.LBB469:
 252              	.LBB470:
 253              	.LBB471:
 254              	.LBB472:
 154:C:/Renesas/e2studio_2021_01_workspace_RZA2M_ANPR/ANPR_RZA2M_GR_MANGO/src/tensorflow_lite/tensorflow/lite/kernels\kernel_util.h **** 
 155:C:/Renesas/e2studio_2021_01_workspace_RZA2M_ANPR/ANPR_RZA2M_GR_MANGO/src/tensorflow_lite/tensorflow/lite/kernels\kernel_util.h **** #ifndef TF_LITE_STATIC_MEMORY
 156:C:/Renesas/e2studio_2021_01_workspace_RZA2M_ANPR/ANPR_RZA2M_GR_MANGO/src/tensorflow_lite/tensorflow/lite/kernels\kernel_util.h **** inline int NumIntermediates(const TfLiteNode* node) {
 157:C:/Renesas/e2studio_2021_01_workspace_RZA2M_ANPR/ANPR_RZA2M_GR_MANGO/src/tensorflow_lite/tensorflow/lite/kernels\kernel_util.h ****   return node->intermediates->size;
 158:C:/Renesas/e2studio_2021_01_workspace_RZA2M_ANPR/ANPR_RZA2M_GR_MANGO/src/tensorflow_lite/tensorflow/lite/kernels\kernel_util.h **** }
 159:C:/Renesas/e2studio_2021_01_workspace_RZA2M_ANPR/ANPR_RZA2M_GR_MANGO/src/tensorflow_lite/tensorflow/lite/kernels\kernel_util.h **** #endif  // TF_LITE_STATIC_MEMORY
 160:C:/Renesas/e2studio_2021_01_workspace_RZA2M_ANPR/ANPR_RZA2M_GR_MANGO/src/tensorflow_lite/tensorflow/lite/kernels\kernel_util.h **** 
 161:C:/Renesas/e2studio_2021_01_workspace_RZA2M_ANPR/ANPR_RZA2M_GR_MANGO/src/tensorflow_lite/tensorflow/lite/kernels\kernel_util.h **** inline int64_t NumElements(const TfLiteIntArray* dims) {
 162:C:/Renesas/e2studio_2021_01_workspace_RZA2M_ANPR/ANPR_RZA2M_GR_MANGO/src/tensorflow_lite/tensorflow/lite/kernels\kernel_util.h ****   int64_t count = 1;
 163:C:/Renesas/e2studio_2021_01_workspace_RZA2M_ANPR/ANPR_RZA2M_GR_MANGO/src/tensorflow_lite/tensorflow/lite/kernels\kernel_util.h ****   for (int i = 0; i < dims->size; ++i) {
 255              		.loc 2 163 0
 256 0174 003093E5 		ldr	r3, [r3]
 257 0178 000053E3 		cmp	r3, #0
 258 017c 2C308DE5 		str	r3, [sp, #44]
 259 0180 D20000DA 		ble	.L19
 260 0184 080053E3 		cmp	r3, #8
 261 0188 F90200DA 		ble	.L103
 262 018c 093043E2 		sub	r3, r3, #9
 263 0190 A4E082E2 		add	lr, r2, #164
 264 0194 0730C3E3 		bic	r3, r3, #7
 265 0198 0020A0E3 		mov	r2, #0
 266              	.LVL25:
 267 019c 083083E2 		add	r3, r3, #8
 268 01a0 34B08DE5 		str	fp, [sp, #52]
 269 01a4 0100A0E3 		mov	r0, #1
 270 01a8 0AB0A0E1 		mov	fp, r10
 271              	.LVL26:
 272 01ac 0010A0E3 		mov	r1, #0
 273 01b0 02C0A0E1 		mov	ip, r2
 274 01b4 03A0A0E1 		mov	r10, r3
 275              	.LVL27:
 276              	.L22:
 164:C:/Renesas/e2studio_2021_01_workspace_RZA2M_ANPR/ANPR_RZA2M_GR_MANGO/src/tensorflow_lite/tensorflow/lite/kernels\kernel_util.h ****     count *= dims->data[i];
 277              		.loc 2 164 0
 278 01b8 A0201EE5 		ldr	r2, [lr, #-160]
 279 01bc 08C08CE2 		add	ip, ip, #8
 280 01c0 9C901EE5 		ldr	r9, [lr, #-156]
 281 01c4 0A005CE1 		cmp	ip, r10
 282 01c8 98401EE5 		ldr	r4, [lr, #-152]
 283 01cc 94501EE5 		ldr	r5, [lr, #-148]
 284 01d0 920101E0 		mul	r1, r2, r1
 285 01d4 C27FA0E1 		asr	r7, r2, #31
 286 01d8 90801EE5 		ldr	r8, [lr, #-144]
 287 01dc 922083E0 		umull	r2, r3, r2, r0
 288 01e0 00F0DEF5 		pld	[lr]
 289 01e4 20E08EE2 		add	lr, lr, #32
 290 01e8 901721E0 		mla	r1, r0, r7, r1
 291 01ec C97FA0E1 		asr	r7, r9, #31
 292 01f0 033081E0 		add	r3, r1, r3
 293              	.LVL28:
 294 01f4 990281E0 		umull	r0, r1, r9, r2
 295 01f8 990306E0 		mul	r6, r9, r3
 296 01fc C43FA0E1 		asr	r3, r4, #31
 297 0200 926726E0 		mla	r6, r2, r7, r6
 298 0204 AC201EE5 		ldr	r2, [lr, #-172]
 299              	.LVL29:
 300 0208 C57FA0E1 		asr	r7, r5, #31
 301 020c 011086E0 		add	r1, r6, r1
 302              	.LVL30:
 303 0210 940109E0 		mul	r9, r4, r1
 304 0214 909329E0 		mla	r9, r0, r3, r9
 305 0218 A8301EE5 		ldr	r3, [lr, #-168]
 306 021c 940081E0 		umull	r0, r1, r4, r0
 307              	.LVL31:
 308 0220 011089E0 		add	r1, r9, r1
 309              	.LVL32:
 310 0224 C39FA0E1 		asr	r9, r3, #31
 311 0228 950106E0 		mul	r6, r5, r1
 312 022c C81FA0E1 		asr	r1, r8, #31
 313 0230 954085E0 		umull	r4, r5, r5, r0
 314 0234 906726E0 		mla	r6, r0, r7, r6
 315 0238 A4001EE5 		ldr	r0, [lr, #-164]
 316              	.LVL33:
 317 023c C27FA0E1 		asr	r7, r2, #31
 318 0240 055086E0 		add	r5, r6, r5
 319              	.LVL34:
 320 0244 980505E0 		mul	r5, r8, r5
 321 0248 945121E0 		mla	r1, r4, r1, r5
 322 024c 984485E0 		umull	r4, r5, r8, r4
 323              	.LVL35:
 324 0250 0380A0E1 		mov	r8, r3
 325 0254 055081E0 		add	r5, r1, r5
 326              	.LVL36:
 327 0258 920501E0 		mul	r1, r2, r5
 328 025c 941721E0 		mla	r1, r4, r7, r1
 329 0260 924485E0 		umull	r4, r5, r2, r4
 330              	.LVL37:
 331 0264 C07FA0E1 		asr	r7, r0, #31
 332 0268 055081E0 		add	r5, r1, r5
 333              	.LVL38:
 334 026c 930502E0 		mul	r2, r3, r5
 335 0270 942922E0 		mla	r2, r4, r9, r2
 336 0274 934485E0 		umull	r4, r5, r3, r4
 337              	.LVL39:
 338 0278 055082E0 		add	r5, r2, r5
 339              	.LVL40:
 340 027c 900503E0 		mul	r3, r0, r5
 341 0280 900481E0 		umull	r0, r1, r0, r4
 342 0284 943724E0 		mla	r4, r4, r7, r3
 343              	.LVL41:
 344 0288 011084E0 		add	r1, r4, r1
 345              	.LVL42:
 346 028c C9FFFF1A 		bne	.L22
 347 0290 0BA0A0E1 		mov	r10, fp
 348 0294 34B09DE5 		ldr	fp, [sp, #52]
 349 0298 0C30A0E1 		mov	r3, ip
 350              	.LVL43:
 351              	.L21:
 352 029c 01C083E2 		add	ip, r3, #1
 353 02a0 30309DE5 		ldr	r3, [sp, #48]
 354 02a4 2CE09DE5 		ldr	lr, [sp, #44]
 355 02a8 0C4183E0 		add	r4, r3, ip, lsl #2
 356 02ac 000000EA 		b	.L24
 357              	.LVL44:
 358              	.L188:
 359 02b0 01C08CE2 		add	ip, ip, #1
 360              	.LVL45:
 361              	.L24:
 362 02b4 042094E4 		ldr	r2, [r4], #4
 163:C:/Renesas/e2studio_2021_01_workspace_RZA2M_ANPR/ANPR_RZA2M_GR_MANGO/src/tensorflow_lite/tensorflow/lite/kernels\kernel_util.h ****     count *= dims->data[i];
 363              		.loc 2 163 0
 364 02b8 0C005EE1 		cmp	lr, ip
 365              		.loc 2 164 0
 366 02bc 0260A0E1 		mov	r6, r2
 367 02c0 C27FA0E1 		asr	r7, r2, #31
 368 02c4 900703E0 		mul	r3, r0, r7
 369 02c8 923123E0 		mla	r3, r2, r1, r3
 370 02cc 900281E0 		umull	r0, r1, r0, r2
 371              	.LVL46:
 372 02d0 011083E0 		add	r1, r3, r1
 373              	.LVL47:
 163:C:/Renesas/e2studio_2021_01_workspace_RZA2M_ANPR/ANPR_RZA2M_GR_MANGO/src/tensorflow_lite/tensorflow/lite/kernels\kernel_util.h ****     count *= dims->data[i];
 374              		.loc 2 163 0
 375 02d4 F5FFFFCA 		bgt	.L188
 376              	.LVL48:
 377              	.LBE472:
 378              	.LBE471:
 379              	.LBE470:
 380              	.LBE469:
  70:../src/tensorflow_lite/tensorflow/lite/micro/kernels/pad.cc ****   }
 381              		.loc 1 70 0
 382 02d8 000051E3 		cmp	r1, #0
 383 02dc 01005003 		cmpeq	r0, #1
 384 02e0 7A00000A 		beq	.L19
 385 02e4 2C309DE5 		ldr	r3, [sp, #44]
 386 02e8 080053E3 		cmp	r3, #8
 387 02ec 18309DE5 		ldr	r3, [sp, #24]
 388 02f0 01A0A0D3 		movle	r10, #1
 389 02f4 00B0A0D3 		movle	fp, #0
 390 02f8 0080A0D3 		movle	r8, #0
 391 02fc 143093E5 		ldr	r3, [r3, #20]
 392 0300 1C308DE5 		str	r3, [sp, #28]
 393              	.LVL49:
 394 0304 3E0000DA 		ble	.L28
 395 0308 2C309DE5 		ldr	r3, [sp, #44]
 396 030c 01A0A0E3 		mov	r10, #1
 397 0310 30209DE5 		ldr	r2, [sp, #48]
 398 0314 00B0A0E3 		mov	fp, #0
 399 0318 0080A0E3 		mov	r8, #0
 400 031c 093043E2 		sub	r3, r3, #9
 401 0320 0730C3E3 		bic	r3, r3, #7
 402 0324 A4E082E2 		add	lr, r2, #164
 403 0328 083083E2 		add	r3, r3, #8
 404 032c 0390A0E1 		mov	r9, r3
 405              	.LVL50:
 406              	.L27:
 407              	.LBB476:
 408              	.LBB477:
 409              	.LBB478:
 410              	.LBB479:
 411              		.loc 2 164 0
 412 0330 A0601EE5 		ldr	r6, [lr, #-160]
 413 0334 088088E2 		add	r8, r8, #8
 414 0338 9CC01EE5 		ldr	ip, [lr, #-156]
 415 033c 090058E1 		cmp	r8, r9
 416 0340 98401EE5 		ldr	r4, [lr, #-152]
 417 0344 00F0DEF5 		pld	[lr]
 418 0348 20E08EE2 		add	lr, lr, #32
 419 034c 960B00E0 		mul	r0, r6, fp
 420 0350 C61FA0E1 		asr	r1, r6, #31
 421 0354 CC7FA0E1 		asr	r7, ip, #31
 422 0358 962A83E0 		umull	r2, r3, r6, r10
 423 035c 9A012AE0 		mla	r10, r10, r1, r0
 424              	.LVL51:
 425 0360 B4001EE5 		ldr	r0, [lr, #-180]
 426 0364 B0101EE5 		ldr	r1, [lr, #-176]
 427 0368 03308AE0 		add	r3, r10, r3
 428              	.LVL52:
 429 036c A4A01EE5 		ldr	r10, [lr, #-164]
 430 0370 9C0305E0 		mul	r5, ip, r3
 431 0374 C43FA0E1 		asr	r3, r4, #31
 432 0378 925725E0 		mla	r5, r2, r7, r5
 433 037c 9C6287E0 		umull	r6, r7, ip, r2
 434 0380 AC201EE5 		ldr	r2, [lr, #-172]
 435              	.LVL53:
 436 0384 077085E0 		add	r7, r5, r7
 437              	.LVL54:
 438 0388 94070CE0 		mul	ip, r4, r7
 439 038c C07FA0E1 		asr	r7, r0, #31
 440 0390 944685E0 		umull	r4, r5, r4, r6
 441 0394 96C32CE0 		mla	ip, r6, r3, ip
 442 0398 A8301EE5 		ldr	r3, [lr, #-168]
 443 039c 05508CE0 		add	r5, ip, r5
 444              	.LVL55:
 445 03a0 90050CE0 		mul	ip, r0, r5
 446 03a4 94C72CE0 		mla	ip, r4, r7, ip
 447 03a8 904485E0 		umull	r4, r5, r0, r4
 448              	.LVL56:
 449 03ac C17FA0E1 		asr	r7, r1, #31
 450 03b0 05508CE0 		add	r5, ip, r5
 451              	.LVL57:
 452 03b4 91050CE0 		mul	ip, r1, r5
 453 03b8 C25FA0E1 		asr	r5, r2, #31
 454 03bc 910481E0 		umull	r0, r1, r1, r4
 455 03c0 94C72CE0 		mla	ip, r4, r7, ip
 456 03c4 C37FA0E1 		asr	r7, r3, #31
 457 03c8 01108CE0 		add	r1, ip, r1
 458              	.LVL58:
 459 03cc 92010CE0 		mul	ip, r2, r1
 460 03d0 90C52CE0 		mla	ip, r0, r5, ip
 461 03d4 920081E0 		umull	r0, r1, r2, r0
 462              	.LVL59:
 463 03d8 CA5FA0E1 		asr	r5, r10, #31
 464 03dc 01108CE0 		add	r1, ip, r1
 465              	.LVL60:
 466 03e0 930102E0 		mul	r2, r3, r1
 467 03e4 902722E0 		mla	r2, r0, r7, r2
 468 03e8 930081E0 		umull	r0, r1, r3, r0
 469              	.LVL61:
 470 03ec 011082E0 		add	r1, r2, r1
 471              	.LVL62:
 472 03f0 9A0103E0 		mul	r3, r10, r1
 473 03f4 9AA08BE0 		umull	r10, fp, r10, r0
 474 03f8 903520E0 		mla	r0, r0, r5, r3
 475              	.LVL63:
 476 03fc 0BB080E0 		add	fp, r0, fp
 477              	.LVL64:
 478 0400 CAFFFF1A 		bne	.L27
 479              	.LVL65:
 480              	.L28:
 481 0404 30309DE5 		ldr	r3, [sp, #48]
 482 0408 018088E2 		add	r8, r8, #1
 483 040c 2CE09DE5 		ldr	lr, [sp, #44]
 484 0410 08C183E0 		add	ip, r3, r8, lsl #2
 485 0414 000000EA 		b	.L26
 486              	.LVL66:
 487              	.L189:
 488 0418 018088E2 		add	r8, r8, #1
 489              	.LVL67:
 490              	.L26:
 491 041c 04209CE4 		ldr	r2, [ip], #4
 163:C:/Renesas/e2studio_2021_01_workspace_RZA2M_ANPR/ANPR_RZA2M_GR_MANGO/src/tensorflow_lite/tensorflow/lite/kernels\kernel_util.h ****     count *= dims->data[i];
 492              		.loc 2 163 0
 493 0420 08005EE1 		cmp	lr, r8
 494              		.loc 2 164 0
 495 0424 C21FA0E1 		asr	r1, r2, #31
 496 0428 9A0103E0 		mul	r3, r10, r1
 497 042c 923B23E0 		mla	r3, r2, fp, r3
 498 0430 9AA28BE0 		umull	r10, fp, r10, r2
 499              	.LVL68:
 500 0434 0BB083E0 		add	fp, r3, fp
 501              	.LVL69:
 163:C:/Renesas/e2studio_2021_01_workspace_RZA2M_ANPR/ANPR_RZA2M_GR_MANGO/src/tensorflow_lite/tensorflow/lite/kernels\kernel_util.h ****     count *= dims->data[i];
 502              		.loc 2 163 0
 503 0438 F6FFFFCA 		bgt	.L189
 504              	.LVL70:
 505              	.LBE479:
 506              	.LBE478:
 507              	.LBE477:
 508              	.LBE476:
  70:../src/tensorflow_lite/tensorflow/lite/micro/kernels/pad.cc ****   }
 509              		.loc 1 70 0
 510 043c 00C000E3 		movw	ip, #:lower16:.LC3
 511 0440 003000E3 		movw	r3, #:lower16:.LC13
 512 0444 00C040E3 		movt	ip, #:upper16:.LC3
 513 0448 003040E3 		movt	r3, #:upper16:.LC13
 514 044c 0140A0E3 		mov	r4, #1
 515 0450 002000E3 		movw	r2, #:lower16:.LC1
 516 0454 001000E3 		movw	r1, #:lower16:.LC2
 517 0458 08108DE8 		stm	sp, {r3, ip}
 518 045c 18009DE5 		ldr	r0, [sp, #24]
 519 0460 002040E3 		movt	r2, #:upper16:.LC1
 520 0464 F8A0CDE1 		strd	r10, [sp, #8]
 521 0468 001040E3 		movt	r1, #:upper16:.LC2
 522 046c 10408DE5 		str	r4, [sp, #16]
 523 0470 4630A0E3 		mov	r3, #70
 524 0474 1CC09DE5 		ldr	ip, [sp, #28]
 525 0478 3CFF2FE1 		blx	ip
 526              	.LVL71:
 527 047c 0400A0E1 		mov	r0, r4
 528 0480 F5FEFFEA 		b	.L169
 529              	.LVL72:
 530              	.L185:
  61:../src/tensorflow_lite/tensorflow/lite/micro/kernels/pad.cc **** 
 531              		.loc 1 61 0 discriminator 1
 532 0484 00E000E3 		movw	lr, #:lower16:.LC9
 533 0488 00C000E3 		movw	ip, #:lower16:.LC10
 534 048c 00E040E3 		movt	lr, #:upper16:.LC9
 535 0490 00C040E3 		movt	ip, #:upper16:.LC10
 536 0494 04E08DE5 		str	lr, [sp, #4]
 537 0498 002000E3 		movw	r2, #:lower16:.LC1
 538              	.LVL73:
 539 049c 18E09DE5 		ldr	lr, [sp, #24]
 540 04a0 001000E3 		movw	r1, #:lower16:.LC2
 541 04a4 0C008DE5 		str	r0, [sp, #12]
 542 04a8 002040E3 		movt	r2, #:upper16:.LC1
 543 04ac 08308DE5 		str	r3, [sp, #8]
 544 04b0 001040E3 		movt	r1, #:upper16:.LC2
 545 04b4 0E00A0E1 		mov	r0, lr
 546 04b8 00C08DE5 		str	ip, [sp]
 547 04bc 3D30A0E3 		mov	r3, #61
 548 04c0 14409EE5 		ldr	r4, [lr, #20]
 549              	.LVL74:
 550 04c4 34FF2FE1 		blx	r4
 551              	.LVL75:
 552 04c8 0100A0E3 		mov	r0, #1
 553 04cc E2FEFFEA 		b	.L169
 554              	.LVL76:
 555              	.L19:
 556              	.LBB480:
 557              	.LBB481:
 558              		.file 3 "C:/Renesas/e2studio_2021_01_workspace_RZA2M_ANPR/ANPR_RZA2M_GR_MANGO/src/tensorflow_lite/
   1:C:/Renesas/e2studio_2021_01_workspace_RZA2M_ANPR/ANPR_RZA2M_GR_MANGO/src/tensorflow_lite/tensorflow/lite/kernels/internal\tensor_ctypes.h **** /* Copyright 2017 The TensorFlow Authors. All Rights Reserved.
   2:C:/Renesas/e2studio_2021_01_workspace_RZA2M_ANPR/ANPR_RZA2M_GR_MANGO/src/tensorflow_lite/tensorflow/lite/kernels/internal\tensor_ctypes.h **** 
   3:C:/Renesas/e2studio_2021_01_workspace_RZA2M_ANPR/ANPR_RZA2M_GR_MANGO/src/tensorflow_lite/tensorflow/lite/kernels/internal\tensor_ctypes.h **** Licensed under the Apache License, Version 2.0 (the "License");
   4:C:/Renesas/e2studio_2021_01_workspace_RZA2M_ANPR/ANPR_RZA2M_GR_MANGO/src/tensorflow_lite/tensorflow/lite/kernels/internal\tensor_ctypes.h **** you may not use this file except in compliance with the License.
   5:C:/Renesas/e2studio_2021_01_workspace_RZA2M_ANPR/ANPR_RZA2M_GR_MANGO/src/tensorflow_lite/tensorflow/lite/kernels/internal\tensor_ctypes.h **** You may obtain a copy of the License at
   6:C:/Renesas/e2studio_2021_01_workspace_RZA2M_ANPR/ANPR_RZA2M_GR_MANGO/src/tensorflow_lite/tensorflow/lite/kernels/internal\tensor_ctypes.h **** 
   7:C:/Renesas/e2studio_2021_01_workspace_RZA2M_ANPR/ANPR_RZA2M_GR_MANGO/src/tensorflow_lite/tensorflow/lite/kernels/internal\tensor_ctypes.h ****     http://www.apache.org/licenses/LICENSE-2.0
   8:C:/Renesas/e2studio_2021_01_workspace_RZA2M_ANPR/ANPR_RZA2M_GR_MANGO/src/tensorflow_lite/tensorflow/lite/kernels/internal\tensor_ctypes.h **** 
   9:C:/Renesas/e2studio_2021_01_workspace_RZA2M_ANPR/ANPR_RZA2M_GR_MANGO/src/tensorflow_lite/tensorflow/lite/kernels/internal\tensor_ctypes.h **** Unless required by applicable law or agreed to in writing, software
  10:C:/Renesas/e2studio_2021_01_workspace_RZA2M_ANPR/ANPR_RZA2M_GR_MANGO/src/tensorflow_lite/tensorflow/lite/kernels/internal\tensor_ctypes.h **** distributed under the License is distributed on an "AS IS" BASIS,
  11:C:/Renesas/e2studio_2021_01_workspace_RZA2M_ANPR/ANPR_RZA2M_GR_MANGO/src/tensorflow_lite/tensorflow/lite/kernels/internal\tensor_ctypes.h **** WITHOUT WARRANTIES OR CONDITIONS OF ANY KIND, either express or implied.
  12:C:/Renesas/e2studio_2021_01_workspace_RZA2M_ANPR/ANPR_RZA2M_GR_MANGO/src/tensorflow_lite/tensorflow/lite/kernels/internal\tensor_ctypes.h **** See the License for the specific language governing permissions and
  13:C:/Renesas/e2studio_2021_01_workspace_RZA2M_ANPR/ANPR_RZA2M_GR_MANGO/src/tensorflow_lite/tensorflow/lite/kernels/internal\tensor_ctypes.h **** limitations under the License.
  14:C:/Renesas/e2studio_2021_01_workspace_RZA2M_ANPR/ANPR_RZA2M_GR_MANGO/src/tensorflow_lite/tensorflow/lite/kernels/internal\tensor_ctypes.h **** ==============================================================================*/
  15:C:/Renesas/e2studio_2021_01_workspace_RZA2M_ANPR/ANPR_RZA2M_GR_MANGO/src/tensorflow_lite/tensorflow/lite/kernels/internal\tensor_ctypes.h **** #ifndef TENSORFLOW_LITE_KERNELS_INTERNAL_TENSOR_CTYPES_H_
  16:C:/Renesas/e2studio_2021_01_workspace_RZA2M_ANPR/ANPR_RZA2M_GR_MANGO/src/tensorflow_lite/tensorflow/lite/kernels/internal\tensor_ctypes.h **** #define TENSORFLOW_LITE_KERNELS_INTERNAL_TENSOR_CTYPES_H_
  17:C:/Renesas/e2studio_2021_01_workspace_RZA2M_ANPR/ANPR_RZA2M_GR_MANGO/src/tensorflow_lite/tensorflow/lite/kernels/internal\tensor_ctypes.h **** 
  18:C:/Renesas/e2studio_2021_01_workspace_RZA2M_ANPR/ANPR_RZA2M_GR_MANGO/src/tensorflow_lite/tensorflow/lite/kernels/internal\tensor_ctypes.h **** #include "tensorflow/lite/c/common.h"
  19:C:/Renesas/e2studio_2021_01_workspace_RZA2M_ANPR/ANPR_RZA2M_GR_MANGO/src/tensorflow_lite/tensorflow/lite/kernels/internal\tensor_ctypes.h **** #include "tensorflow/lite/kernels/internal/types.h"
  20:C:/Renesas/e2studio_2021_01_workspace_RZA2M_ANPR/ANPR_RZA2M_GR_MANGO/src/tensorflow_lite/tensorflow/lite/kernels/internal\tensor_ctypes.h **** 
  21:C:/Renesas/e2studio_2021_01_workspace_RZA2M_ANPR/ANPR_RZA2M_GR_MANGO/src/tensorflow_lite/tensorflow/lite/kernels/internal\tensor_ctypes.h **** namespace tflite {
  22:C:/Renesas/e2studio_2021_01_workspace_RZA2M_ANPR/ANPR_RZA2M_GR_MANGO/src/tensorflow_lite/tensorflow/lite/kernels/internal\tensor_ctypes.h **** 
  23:C:/Renesas/e2studio_2021_01_workspace_RZA2M_ANPR/ANPR_RZA2M_GR_MANGO/src/tensorflow_lite/tensorflow/lite/kernels/internal\tensor_ctypes.h **** template <typename T>
  24:C:/Renesas/e2studio_2021_01_workspace_RZA2M_ANPR/ANPR_RZA2M_GR_MANGO/src/tensorflow_lite/tensorflow/lite/kernels/internal\tensor_ctypes.h **** inline T* GetTensorData(TfLiteTensor* tensor) {
  25:C:/Renesas/e2studio_2021_01_workspace_RZA2M_ANPR/ANPR_RZA2M_GR_MANGO/src/tensorflow_lite/tensorflow/lite/kernels/internal\tensor_ctypes.h ****   return tensor != nullptr ? reinterpret_cast<T*>(tensor->data.raw) : nullptr;
  26:C:/Renesas/e2studio_2021_01_workspace_RZA2M_ANPR/ANPR_RZA2M_GR_MANGO/src/tensorflow_lite/tensorflow/lite/kernels/internal\tensor_ctypes.h **** }
  27:C:/Renesas/e2studio_2021_01_workspace_RZA2M_ANPR/ANPR_RZA2M_GR_MANGO/src/tensorflow_lite/tensorflow/lite/kernels/internal\tensor_ctypes.h **** 
  28:C:/Renesas/e2studio_2021_01_workspace_RZA2M_ANPR/ANPR_RZA2M_GR_MANGO/src/tensorflow_lite/tensorflow/lite/kernels/internal\tensor_ctypes.h **** template <typename T>
  29:C:/Renesas/e2studio_2021_01_workspace_RZA2M_ANPR/ANPR_RZA2M_GR_MANGO/src/tensorflow_lite/tensorflow/lite/kernels/internal\tensor_ctypes.h **** inline const T* GetTensorData(const TfLiteTensor* tensor) {
  30:C:/Renesas/e2studio_2021_01_workspace_RZA2M_ANPR/ANPR_RZA2M_GR_MANGO/src/tensorflow_lite/tensorflow/lite/kernels/internal\tensor_ctypes.h ****   return tensor != nullptr ? reinterpret_cast<const T*>(tensor->data.raw)
  31:C:/Renesas/e2studio_2021_01_workspace_RZA2M_ANPR/ANPR_RZA2M_GR_MANGO/src/tensorflow_lite/tensorflow/lite/kernels/internal\tensor_ctypes.h ****                            : nullptr;
  32:C:/Renesas/e2studio_2021_01_workspace_RZA2M_ANPR/ANPR_RZA2M_GR_MANGO/src/tensorflow_lite/tensorflow/lite/kernels/internal\tensor_ctypes.h **** }
  33:C:/Renesas/e2studio_2021_01_workspace_RZA2M_ANPR/ANPR_RZA2M_GR_MANGO/src/tensorflow_lite/tensorflow/lite/kernels/internal\tensor_ctypes.h **** 
  34:C:/Renesas/e2studio_2021_01_workspace_RZA2M_ANPR/ANPR_RZA2M_GR_MANGO/src/tensorflow_lite/tensorflow/lite/kernels/internal\tensor_ctypes.h **** inline RuntimeShape GetTensorShape(const TfLiteTensor* tensor) {
  35:C:/Renesas/e2studio_2021_01_workspace_RZA2M_ANPR/ANPR_RZA2M_GR_MANGO/src/tensorflow_lite/tensorflow/lite/kernels/internal\tensor_ctypes.h ****   if (tensor == nullptr) {
  36:C:/Renesas/e2studio_2021_01_workspace_RZA2M_ANPR/ANPR_RZA2M_GR_MANGO/src/tensorflow_lite/tensorflow/lite/kernels/internal\tensor_ctypes.h ****     return RuntimeShape();
  37:C:/Renesas/e2studio_2021_01_workspace_RZA2M_ANPR/ANPR_RZA2M_GR_MANGO/src/tensorflow_lite/tensorflow/lite/kernels/internal\tensor_ctypes.h ****   }
  38:C:/Renesas/e2studio_2021_01_workspace_RZA2M_ANPR/ANPR_RZA2M_GR_MANGO/src/tensorflow_lite/tensorflow/lite/kernels/internal\tensor_ctypes.h **** 
  39:C:/Renesas/e2studio_2021_01_workspace_RZA2M_ANPR/ANPR_RZA2M_GR_MANGO/src/tensorflow_lite/tensorflow/lite/kernels/internal\tensor_ctypes.h ****   TfLiteIntArray* dims = tensor->dims;
 559              		.loc 3 39 0
 560 04d0 28309DE5 		ldr	r3, [sp, #40]
 561 04d4 085093E5 		ldr	r5, [r3, #8]
 562              	.LVL77:
  40:C:/Renesas/e2studio_2021_01_workspace_RZA2M_ANPR/ANPR_RZA2M_GR_MANGO/src/tensorflow_lite/tensorflow/lite/kernels/internal\tensor_ctypes.h ****   const int dims_size = dims->size;
 563              		.loc 3 40 0
 564 04d8 002095E5 		ldr	r2, [r5]
 565              	.LVL78:
 566              	.LBB482:
 567              	.LBB483:
 568              	.LBB484:
 569              	.LBB485:
 570              	.LBB486:
 571              		.file 4 "C:/Renesas/e2studio_2021_01_workspace_RZA2M_ANPR/ANPR_RZA2M_GR_MANGO/src/tensorflow_lite/
   1:C:/Renesas/e2studio_2021_01_workspace_RZA2M_ANPR/ANPR_RZA2M_GR_MANGO/src/tensorflow_lite/tensorflow/lite/kernels/internal\types.h **** /* Copyright 2018 The TensorFlow Authors. All Rights Reserved.
   2:C:/Renesas/e2studio_2021_01_workspace_RZA2M_ANPR/ANPR_RZA2M_GR_MANGO/src/tensorflow_lite/tensorflow/lite/kernels/internal\types.h **** 
   3:C:/Renesas/e2studio_2021_01_workspace_RZA2M_ANPR/ANPR_RZA2M_GR_MANGO/src/tensorflow_lite/tensorflow/lite/kernels/internal\types.h **** Licensed under the Apache License, Version 2.0 (the "License");
   4:C:/Renesas/e2studio_2021_01_workspace_RZA2M_ANPR/ANPR_RZA2M_GR_MANGO/src/tensorflow_lite/tensorflow/lite/kernels/internal\types.h **** you may not use this file except in compliance with the License.
   5:C:/Renesas/e2studio_2021_01_workspace_RZA2M_ANPR/ANPR_RZA2M_GR_MANGO/src/tensorflow_lite/tensorflow/lite/kernels/internal\types.h **** You may obtain a copy of the License at
   6:C:/Renesas/e2studio_2021_01_workspace_RZA2M_ANPR/ANPR_RZA2M_GR_MANGO/src/tensorflow_lite/tensorflow/lite/kernels/internal\types.h **** 
   7:C:/Renesas/e2studio_2021_01_workspace_RZA2M_ANPR/ANPR_RZA2M_GR_MANGO/src/tensorflow_lite/tensorflow/lite/kernels/internal\types.h ****     http://www.apache.org/licenses/LICENSE-2.0
   8:C:/Renesas/e2studio_2021_01_workspace_RZA2M_ANPR/ANPR_RZA2M_GR_MANGO/src/tensorflow_lite/tensorflow/lite/kernels/internal\types.h **** 
   9:C:/Renesas/e2studio_2021_01_workspace_RZA2M_ANPR/ANPR_RZA2M_GR_MANGO/src/tensorflow_lite/tensorflow/lite/kernels/internal\types.h **** Unless required by applicable law or agreed to in writing, software
  10:C:/Renesas/e2studio_2021_01_workspace_RZA2M_ANPR/ANPR_RZA2M_GR_MANGO/src/tensorflow_lite/tensorflow/lite/kernels/internal\types.h **** distributed under the License is distributed on an "AS IS" BASIS,
  11:C:/Renesas/e2studio_2021_01_workspace_RZA2M_ANPR/ANPR_RZA2M_GR_MANGO/src/tensorflow_lite/tensorflow/lite/kernels/internal\types.h **** WITHOUT WARRANTIES OR CONDITIONS OF ANY KIND, either express or implied.
  12:C:/Renesas/e2studio_2021_01_workspace_RZA2M_ANPR/ANPR_RZA2M_GR_MANGO/src/tensorflow_lite/tensorflow/lite/kernels/internal\types.h **** See the License for the specific language governing permissions and
  13:C:/Renesas/e2studio_2021_01_workspace_RZA2M_ANPR/ANPR_RZA2M_GR_MANGO/src/tensorflow_lite/tensorflow/lite/kernels/internal\types.h **** limitations under the License.
  14:C:/Renesas/e2studio_2021_01_workspace_RZA2M_ANPR/ANPR_RZA2M_GR_MANGO/src/tensorflow_lite/tensorflow/lite/kernels/internal\types.h **** ==============================================================================*/
  15:C:/Renesas/e2studio_2021_01_workspace_RZA2M_ANPR/ANPR_RZA2M_GR_MANGO/src/tensorflow_lite/tensorflow/lite/kernels/internal\types.h **** #ifndef TENSORFLOW_LITE_KERNELS_INTERNAL_TYPES_H_
  16:C:/Renesas/e2studio_2021_01_workspace_RZA2M_ANPR/ANPR_RZA2M_GR_MANGO/src/tensorflow_lite/tensorflow/lite/kernels/internal\types.h **** #define TENSORFLOW_LITE_KERNELS_INTERNAL_TYPES_H_
  17:C:/Renesas/e2studio_2021_01_workspace_RZA2M_ANPR/ANPR_RZA2M_GR_MANGO/src/tensorflow_lite/tensorflow/lite/kernels/internal\types.h **** 
  18:C:/Renesas/e2studio_2021_01_workspace_RZA2M_ANPR/ANPR_RZA2M_GR_MANGO/src/tensorflow_lite/tensorflow/lite/kernels/internal\types.h **** #include <algorithm>
  19:C:/Renesas/e2studio_2021_01_workspace_RZA2M_ANPR/ANPR_RZA2M_GR_MANGO/src/tensorflow_lite/tensorflow/lite/kernels/internal\types.h **** #include <cstdint>
  20:C:/Renesas/e2studio_2021_01_workspace_RZA2M_ANPR/ANPR_RZA2M_GR_MANGO/src/tensorflow_lite/tensorflow/lite/kernels/internal\types.h **** #include <cstring>
  21:C:/Renesas/e2studio_2021_01_workspace_RZA2M_ANPR/ANPR_RZA2M_GR_MANGO/src/tensorflow_lite/tensorflow/lite/kernels/internal\types.h **** #include <initializer_list>
  22:C:/Renesas/e2studio_2021_01_workspace_RZA2M_ANPR/ANPR_RZA2M_GR_MANGO/src/tensorflow_lite/tensorflow/lite/kernels/internal\types.h **** 
  23:C:/Renesas/e2studio_2021_01_workspace_RZA2M_ANPR/ANPR_RZA2M_GR_MANGO/src/tensorflow_lite/tensorflow/lite/kernels/internal\types.h **** #include "tensorflow/lite/kernels/internal/compatibility.h"
  24:C:/Renesas/e2studio_2021_01_workspace_RZA2M_ANPR/ANPR_RZA2M_GR_MANGO/src/tensorflow_lite/tensorflow/lite/kernels/internal\types.h **** 
  25:C:/Renesas/e2studio_2021_01_workspace_RZA2M_ANPR/ANPR_RZA2M_GR_MANGO/src/tensorflow_lite/tensorflow/lite/kernels/internal\types.h **** namespace tflite {
  26:C:/Renesas/e2studio_2021_01_workspace_RZA2M_ANPR/ANPR_RZA2M_GR_MANGO/src/tensorflow_lite/tensorflow/lite/kernels/internal\types.h **** 
  27:C:/Renesas/e2studio_2021_01_workspace_RZA2M_ANPR/ANPR_RZA2M_GR_MANGO/src/tensorflow_lite/tensorflow/lite/kernels/internal\types.h **** enum class FusedActivationFunctionType : uint8_t {
  28:C:/Renesas/e2studio_2021_01_workspace_RZA2M_ANPR/ANPR_RZA2M_GR_MANGO/src/tensorflow_lite/tensorflow/lite/kernels/internal\types.h ****   kNone,
  29:C:/Renesas/e2studio_2021_01_workspace_RZA2M_ANPR/ANPR_RZA2M_GR_MANGO/src/tensorflow_lite/tensorflow/lite/kernels/internal\types.h ****   kRelu6,
  30:C:/Renesas/e2studio_2021_01_workspace_RZA2M_ANPR/ANPR_RZA2M_GR_MANGO/src/tensorflow_lite/tensorflow/lite/kernels/internal\types.h ****   kRelu1,
  31:C:/Renesas/e2studio_2021_01_workspace_RZA2M_ANPR/ANPR_RZA2M_GR_MANGO/src/tensorflow_lite/tensorflow/lite/kernels/internal\types.h ****   kRelu
  32:C:/Renesas/e2studio_2021_01_workspace_RZA2M_ANPR/ANPR_RZA2M_GR_MANGO/src/tensorflow_lite/tensorflow/lite/kernels/internal\types.h **** };
  33:C:/Renesas/e2studio_2021_01_workspace_RZA2M_ANPR/ANPR_RZA2M_GR_MANGO/src/tensorflow_lite/tensorflow/lite/kernels/internal\types.h **** enum class PaddingType : uint8_t { kNone, kSame, kValid };
  34:C:/Renesas/e2studio_2021_01_workspace_RZA2M_ANPR/ANPR_RZA2M_GR_MANGO/src/tensorflow_lite/tensorflow/lite/kernels/internal\types.h **** 
  35:C:/Renesas/e2studio_2021_01_workspace_RZA2M_ANPR/ANPR_RZA2M_GR_MANGO/src/tensorflow_lite/tensorflow/lite/kernels/internal\types.h **** struct PaddingValues {
  36:C:/Renesas/e2studio_2021_01_workspace_RZA2M_ANPR/ANPR_RZA2M_GR_MANGO/src/tensorflow_lite/tensorflow/lite/kernels/internal\types.h ****   int16_t width;
  37:C:/Renesas/e2studio_2021_01_workspace_RZA2M_ANPR/ANPR_RZA2M_GR_MANGO/src/tensorflow_lite/tensorflow/lite/kernels/internal\types.h ****   int16_t height;
  38:C:/Renesas/e2studio_2021_01_workspace_RZA2M_ANPR/ANPR_RZA2M_GR_MANGO/src/tensorflow_lite/tensorflow/lite/kernels/internal\types.h ****   // offset is used for calculating "remaining" padding, for example, `width`
  39:C:/Renesas/e2studio_2021_01_workspace_RZA2M_ANPR/ANPR_RZA2M_GR_MANGO/src/tensorflow_lite/tensorflow/lite/kernels/internal\types.h ****   // is 1 and `width_offset` is 1, so padding_left is 1 while padding_right is
  40:C:/Renesas/e2studio_2021_01_workspace_RZA2M_ANPR/ANPR_RZA2M_GR_MANGO/src/tensorflow_lite/tensorflow/lite/kernels/internal\types.h ****   // 1 + 1 = 2.
  41:C:/Renesas/e2studio_2021_01_workspace_RZA2M_ANPR/ANPR_RZA2M_GR_MANGO/src/tensorflow_lite/tensorflow/lite/kernels/internal\types.h ****   int16_t width_offset;
  42:C:/Renesas/e2studio_2021_01_workspace_RZA2M_ANPR/ANPR_RZA2M_GR_MANGO/src/tensorflow_lite/tensorflow/lite/kernels/internal\types.h ****   // Same as width_offset except it's over the height dimension.
  43:C:/Renesas/e2studio_2021_01_workspace_RZA2M_ANPR/ANPR_RZA2M_GR_MANGO/src/tensorflow_lite/tensorflow/lite/kernels/internal\types.h ****   int16_t height_offset;
  44:C:/Renesas/e2studio_2021_01_workspace_RZA2M_ANPR/ANPR_RZA2M_GR_MANGO/src/tensorflow_lite/tensorflow/lite/kernels/internal\types.h **** };
  45:C:/Renesas/e2studio_2021_01_workspace_RZA2M_ANPR/ANPR_RZA2M_GR_MANGO/src/tensorflow_lite/tensorflow/lite/kernels/internal\types.h **** 
  46:C:/Renesas/e2studio_2021_01_workspace_RZA2M_ANPR/ANPR_RZA2M_GR_MANGO/src/tensorflow_lite/tensorflow/lite/kernels/internal\types.h **** struct Padding3DValues {
  47:C:/Renesas/e2studio_2021_01_workspace_RZA2M_ANPR/ANPR_RZA2M_GR_MANGO/src/tensorflow_lite/tensorflow/lite/kernels/internal\types.h ****   int16_t width;
  48:C:/Renesas/e2studio_2021_01_workspace_RZA2M_ANPR/ANPR_RZA2M_GR_MANGO/src/tensorflow_lite/tensorflow/lite/kernels/internal\types.h ****   int16_t height;
  49:C:/Renesas/e2studio_2021_01_workspace_RZA2M_ANPR/ANPR_RZA2M_GR_MANGO/src/tensorflow_lite/tensorflow/lite/kernels/internal\types.h ****   int16_t depth;
  50:C:/Renesas/e2studio_2021_01_workspace_RZA2M_ANPR/ANPR_RZA2M_GR_MANGO/src/tensorflow_lite/tensorflow/lite/kernels/internal\types.h ****   // offset is used for calculating "remaining" padding, for example, `width`
  51:C:/Renesas/e2studio_2021_01_workspace_RZA2M_ANPR/ANPR_RZA2M_GR_MANGO/src/tensorflow_lite/tensorflow/lite/kernels/internal\types.h ****   // is 1 and `width_offset` is 1, so padding_left is 1 while padding_right is
  52:C:/Renesas/e2studio_2021_01_workspace_RZA2M_ANPR/ANPR_RZA2M_GR_MANGO/src/tensorflow_lite/tensorflow/lite/kernels/internal\types.h ****   // 1 + 1 = 2.
  53:C:/Renesas/e2studio_2021_01_workspace_RZA2M_ANPR/ANPR_RZA2M_GR_MANGO/src/tensorflow_lite/tensorflow/lite/kernels/internal\types.h ****   int16_t width_offset;
  54:C:/Renesas/e2studio_2021_01_workspace_RZA2M_ANPR/ANPR_RZA2M_GR_MANGO/src/tensorflow_lite/tensorflow/lite/kernels/internal\types.h ****   // Same as width_offset except it's over the height dimension.
  55:C:/Renesas/e2studio_2021_01_workspace_RZA2M_ANPR/ANPR_RZA2M_GR_MANGO/src/tensorflow_lite/tensorflow/lite/kernels/internal\types.h ****   int16_t height_offset;
  56:C:/Renesas/e2studio_2021_01_workspace_RZA2M_ANPR/ANPR_RZA2M_GR_MANGO/src/tensorflow_lite/tensorflow/lite/kernels/internal\types.h ****   // Same as width_offset except it's over the depth dimension.
  57:C:/Renesas/e2studio_2021_01_workspace_RZA2M_ANPR/ANPR_RZA2M_GR_MANGO/src/tensorflow_lite/tensorflow/lite/kernels/internal\types.h ****   int16_t depth_offset;
  58:C:/Renesas/e2studio_2021_01_workspace_RZA2M_ANPR/ANPR_RZA2M_GR_MANGO/src/tensorflow_lite/tensorflow/lite/kernels/internal\types.h **** };
  59:C:/Renesas/e2studio_2021_01_workspace_RZA2M_ANPR/ANPR_RZA2M_GR_MANGO/src/tensorflow_lite/tensorflow/lite/kernels/internal\types.h **** 
  60:C:/Renesas/e2studio_2021_01_workspace_RZA2M_ANPR/ANPR_RZA2M_GR_MANGO/src/tensorflow_lite/tensorflow/lite/kernels/internal\types.h **** // This enumeration allows for non-default formats for the weights array
  61:C:/Renesas/e2studio_2021_01_workspace_RZA2M_ANPR/ANPR_RZA2M_GR_MANGO/src/tensorflow_lite/tensorflow/lite/kernels/internal\types.h **** // of a fully-connected operator, allowing the use of special optimized
  62:C:/Renesas/e2studio_2021_01_workspace_RZA2M_ANPR/ANPR_RZA2M_GR_MANGO/src/tensorflow_lite/tensorflow/lite/kernels/internal\types.h **** // runtime paths.
  63:C:/Renesas/e2studio_2021_01_workspace_RZA2M_ANPR/ANPR_RZA2M_GR_MANGO/src/tensorflow_lite/tensorflow/lite/kernels/internal\types.h **** enum class FullyConnectedWeightsFormat : uint8_t {
  64:C:/Renesas/e2studio_2021_01_workspace_RZA2M_ANPR/ANPR_RZA2M_GR_MANGO/src/tensorflow_lite/tensorflow/lite/kernels/internal\types.h ****   // Default format (flat 2D layout, the inner contiguous dimension
  65:C:/Renesas/e2studio_2021_01_workspace_RZA2M_ANPR/ANPR_RZA2M_GR_MANGO/src/tensorflow_lite/tensorflow/lite/kernels/internal\types.h ****   // is input_depth, the outer non-contiguous dimension is output_depth)
  66:C:/Renesas/e2studio_2021_01_workspace_RZA2M_ANPR/ANPR_RZA2M_GR_MANGO/src/tensorflow_lite/tensorflow/lite/kernels/internal\types.h ****   kDefault,
  67:C:/Renesas/e2studio_2021_01_workspace_RZA2M_ANPR/ANPR_RZA2M_GR_MANGO/src/tensorflow_lite/tensorflow/lite/kernels/internal\types.h ****   // Summary: optimized layout for fast CPU runtime implementation,
  68:C:/Renesas/e2studio_2021_01_workspace_RZA2M_ANPR/ANPR_RZA2M_GR_MANGO/src/tensorflow_lite/tensorflow/lite/kernels/internal\types.h ****   // aimed specifically at ARM CPUs at the moment, and specialized for
  69:C:/Renesas/e2studio_2021_01_workspace_RZA2M_ANPR/ANPR_RZA2M_GR_MANGO/src/tensorflow_lite/tensorflow/lite/kernels/internal\types.h ****   // 8-bit quantized layers.
  70:C:/Renesas/e2studio_2021_01_workspace_RZA2M_ANPR/ANPR_RZA2M_GR_MANGO/src/tensorflow_lite/tensorflow/lite/kernels/internal\types.h ****   //
  71:C:/Renesas/e2studio_2021_01_workspace_RZA2M_ANPR/ANPR_RZA2M_GR_MANGO/src/tensorflow_lite/tensorflow/lite/kernels/internal\types.h ****   // The use case we're concerned with here is: 8-bit quantization,
  72:C:/Renesas/e2studio_2021_01_workspace_RZA2M_ANPR/ANPR_RZA2M_GR_MANGO/src/tensorflow_lite/tensorflow/lite/kernels/internal\types.h ****   // large weights matrix that doesn't fit in cache (e.g. 4096x2048 in
  73:C:/Renesas/e2studio_2021_01_workspace_RZA2M_ANPR/ANPR_RZA2M_GR_MANGO/src/tensorflow_lite/tensorflow/lite/kernels/internal\types.h ****   // a key application that drove this), very small batch size (e.g. 1 -- 4).
  74:C:/Renesas/e2studio_2021_01_workspace_RZA2M_ANPR/ANPR_RZA2M_GR_MANGO/src/tensorflow_lite/tensorflow/lite/kernels/internal\types.h ****   //
  75:C:/Renesas/e2studio_2021_01_workspace_RZA2M_ANPR/ANPR_RZA2M_GR_MANGO/src/tensorflow_lite/tensorflow/lite/kernels/internal\types.h ****   // Even with 8-bit quantization of weights, the performance of memory
  76:C:/Renesas/e2studio_2021_01_workspace_RZA2M_ANPR/ANPR_RZA2M_GR_MANGO/src/tensorflow_lite/tensorflow/lite/kernels/internal\types.h ****   // accesses to the weights can become the dominant issue when
  77:C:/Renesas/e2studio_2021_01_workspace_RZA2M_ANPR/ANPR_RZA2M_GR_MANGO/src/tensorflow_lite/tensorflow/lite/kernels/internal\types.h ****   // the batch size is small, so each weight value is used in only a few
  78:C:/Renesas/e2studio_2021_01_workspace_RZA2M_ANPR/ANPR_RZA2M_GR_MANGO/src/tensorflow_lite/tensorflow/lite/kernels/internal\types.h ****   // arithmetic ops, i.e. the fully-connected node has a low arithmetic
  79:C:/Renesas/e2studio_2021_01_workspace_RZA2M_ANPR/ANPR_RZA2M_GR_MANGO/src/tensorflow_lite/tensorflow/lite/kernels/internal\types.h ****   // intensity. The specific issues that arise are of three kinds:
  80:C:/Renesas/e2studio_2021_01_workspace_RZA2M_ANPR/ANPR_RZA2M_GR_MANGO/src/tensorflow_lite/tensorflow/lite/kernels/internal\types.h ****   // (1) One may, ideally, max out DRAM bandwidth, i.e. be truly memory
  81:C:/Renesas/e2studio_2021_01_workspace_RZA2M_ANPR/ANPR_RZA2M_GR_MANGO/src/tensorflow_lite/tensorflow/lite/kernels/internal\types.h ****   //     bound. That's the "good" issue to run into.
  82:C:/Renesas/e2studio_2021_01_workspace_RZA2M_ANPR/ANPR_RZA2M_GR_MANGO/src/tensorflow_lite/tensorflow/lite/kernels/internal\types.h ****   // (2) One may run into sub-optimal pre-fetching: the data hasn't been
  83:C:/Renesas/e2studio_2021_01_workspace_RZA2M_ANPR/ANPR_RZA2M_GR_MANGO/src/tensorflow_lite/tensorflow/lite/kernels/internal\types.h ****   //     prefetched into the cache by the time we need it.
  84:C:/Renesas/e2studio_2021_01_workspace_RZA2M_ANPR/ANPR_RZA2M_GR_MANGO/src/tensorflow_lite/tensorflow/lite/kernels/internal\types.h ****   // (3) One may run into cache aliasing: multiple values that are
  85:C:/Renesas/e2studio_2021_01_workspace_RZA2M_ANPR/ANPR_RZA2M_GR_MANGO/src/tensorflow_lite/tensorflow/lite/kernels/internal\types.h ****   //     pre-fetched, alias each other in the L1 cache (which typically
  86:C:/Renesas/e2studio_2021_01_workspace_RZA2M_ANPR/ANPR_RZA2M_GR_MANGO/src/tensorflow_lite/tensorflow/lite/kernels/internal\types.h ****   //     has only 4-way set associativity in ARM CPUs) and thus evict
  87:C:/Renesas/e2studio_2021_01_workspace_RZA2M_ANPR/ANPR_RZA2M_GR_MANGO/src/tensorflow_lite/tensorflow/lite/kernels/internal\types.h ****   //     each other before we get to using them.
  88:C:/Renesas/e2studio_2021_01_workspace_RZA2M_ANPR/ANPR_RZA2M_GR_MANGO/src/tensorflow_lite/tensorflow/lite/kernels/internal\types.h ****   //
  89:C:/Renesas/e2studio_2021_01_workspace_RZA2M_ANPR/ANPR_RZA2M_GR_MANGO/src/tensorflow_lite/tensorflow/lite/kernels/internal\types.h ****   // The point of this shuffling is to avoid issues (2) and (3) so that
  90:C:/Renesas/e2studio_2021_01_workspace_RZA2M_ANPR/ANPR_RZA2M_GR_MANGO/src/tensorflow_lite/tensorflow/lite/kernels/internal\types.h ****   // we get as fast as possible given only the hard constraint (1).
  91:C:/Renesas/e2studio_2021_01_workspace_RZA2M_ANPR/ANPR_RZA2M_GR_MANGO/src/tensorflow_lite/tensorflow/lite/kernels/internal\types.h ****   // This is achieved by turning the difficulty into a solution: the
  92:C:/Renesas/e2studio_2021_01_workspace_RZA2M_ANPR/ANPR_RZA2M_GR_MANGO/src/tensorflow_lite/tensorflow/lite/kernels/internal\types.h ****   // difficulty, that each value loaded from memory is used only in
  93:C:/Renesas/e2studio_2021_01_workspace_RZA2M_ANPR/ANPR_RZA2M_GR_MANGO/src/tensorflow_lite/tensorflow/lite/kernels/internal\types.h ****   // one kernel iteration, making this operation memory-intensive, hints at
  94:C:/Renesas/e2studio_2021_01_workspace_RZA2M_ANPR/ANPR_RZA2M_GR_MANGO/src/tensorflow_lite/tensorflow/lite/kernels/internal\types.h ****   // the solution, of shuffling the weights so that they are stored in the
  95:C:/Renesas/e2studio_2021_01_workspace_RZA2M_ANPR/ANPR_RZA2M_GR_MANGO/src/tensorflow_lite/tensorflow/lite/kernels/internal\types.h ****   // exact order as the kernel needs to load them, so that the memory
  96:C:/Renesas/e2studio_2021_01_workspace_RZA2M_ANPR/ANPR_RZA2M_GR_MANGO/src/tensorflow_lite/tensorflow/lite/kernels/internal\types.h ****   // accesses made by the kernel are trivial. This solves (2) because the
  97:C:/Renesas/e2studio_2021_01_workspace_RZA2M_ANPR/ANPR_RZA2M_GR_MANGO/src/tensorflow_lite/tensorflow/lite/kernels/internal\types.h ****   // trivial memory access pattern allows the CPU's automatic prefetching
  98:C:/Renesas/e2studio_2021_01_workspace_RZA2M_ANPR/ANPR_RZA2M_GR_MANGO/src/tensorflow_lite/tensorflow/lite/kernels/internal\types.h ****   // to perform very well (no need even for preload instructions), and this
  99:C:/Renesas/e2studio_2021_01_workspace_RZA2M_ANPR/ANPR_RZA2M_GR_MANGO/src/tensorflow_lite/tensorflow/lite/kernels/internal\types.h ****   // solves (3) because the values being loaded concurrently are now
 100:C:/Renesas/e2studio_2021_01_workspace_RZA2M_ANPR/ANPR_RZA2M_GR_MANGO/src/tensorflow_lite/tensorflow/lite/kernels/internal\types.h ****   // contiguous in the address space, thus don't alias each other in the cache.
 101:C:/Renesas/e2studio_2021_01_workspace_RZA2M_ANPR/ANPR_RZA2M_GR_MANGO/src/tensorflow_lite/tensorflow/lite/kernels/internal\types.h ****   //
 102:C:/Renesas/e2studio_2021_01_workspace_RZA2M_ANPR/ANPR_RZA2M_GR_MANGO/src/tensorflow_lite/tensorflow/lite/kernels/internal\types.h ****   // On ARM, we typically want our kernel to process a 4x16 block of weights
 103:C:/Renesas/e2studio_2021_01_workspace_RZA2M_ANPR/ANPR_RZA2M_GR_MANGO/src/tensorflow_lite/tensorflow/lite/kernels/internal\types.h ****   // at a time, because:
 104:C:/Renesas/e2studio_2021_01_workspace_RZA2M_ANPR/ANPR_RZA2M_GR_MANGO/src/tensorflow_lite/tensorflow/lite/kernels/internal\types.h ****   //   - 16 is the number of bytes in a NEON register.
 105:C:/Renesas/e2studio_2021_01_workspace_RZA2M_ANPR/ANPR_RZA2M_GR_MANGO/src/tensorflow_lite/tensorflow/lite/kernels/internal\types.h ****   //   - 4 is how many rows we need to handle concurrently in the kernel in
 106:C:/Renesas/e2studio_2021_01_workspace_RZA2M_ANPR/ANPR_RZA2M_GR_MANGO/src/tensorflow_lite/tensorflow/lite/kernels/internal\types.h ****   //     order to have sufficient mutual independence of instructions to
 107:C:/Renesas/e2studio_2021_01_workspace_RZA2M_ANPR/ANPR_RZA2M_GR_MANGO/src/tensorflow_lite/tensorflow/lite/kernels/internal\types.h ****   //     maximize arithmetic throughput.
 108:C:/Renesas/e2studio_2021_01_workspace_RZA2M_ANPR/ANPR_RZA2M_GR_MANGO/src/tensorflow_lite/tensorflow/lite/kernels/internal\types.h ****   //
 109:C:/Renesas/e2studio_2021_01_workspace_RZA2M_ANPR/ANPR_RZA2M_GR_MANGO/src/tensorflow_lite/tensorflow/lite/kernels/internal\types.h ****   // Finally, the 'Int8' part in the name refers to the fact that this
 110:C:/Renesas/e2studio_2021_01_workspace_RZA2M_ANPR/ANPR_RZA2M_GR_MANGO/src/tensorflow_lite/tensorflow/lite/kernels/internal\types.h ****   // weights format has each weights value encoded as a signed int8_t value,
 111:C:/Renesas/e2studio_2021_01_workspace_RZA2M_ANPR/ANPR_RZA2M_GR_MANGO/src/tensorflow_lite/tensorflow/lite/kernels/internal\types.h ****   // even if the data type of the weights buffer is uint8_t.  This is intended
 112:C:/Renesas/e2studio_2021_01_workspace_RZA2M_ANPR/ANPR_RZA2M_GR_MANGO/src/tensorflow_lite/tensorflow/lite/kernels/internal\types.h ****   // to save runtime kernels the effort to have to XOR the top bit of these
 113:C:/Renesas/e2studio_2021_01_workspace_RZA2M_ANPR/ANPR_RZA2M_GR_MANGO/src/tensorflow_lite/tensorflow/lite/kernels/internal\types.h ****   // bytes before using them in signed arithmetic, see this file for more
 114:C:/Renesas/e2studio_2021_01_workspace_RZA2M_ANPR/ANPR_RZA2M_GR_MANGO/src/tensorflow_lite/tensorflow/lite/kernels/internal\types.h ****   // explanations on the 'signed int8_t trick' in matrix multiplication kernels:
 115:C:/Renesas/e2studio_2021_01_workspace_RZA2M_ANPR/ANPR_RZA2M_GR_MANGO/src/tensorflow_lite/tensorflow/lite/kernels/internal\types.h ****   //
 116:C:/Renesas/e2studio_2021_01_workspace_RZA2M_ANPR/ANPR_RZA2M_GR_MANGO/src/tensorflow_lite/tensorflow/lite/kernels/internal\types.h ****   //   tensorflow/lite/toco/graph_transformations/ensure_uint8_weights_safe_for_fast_int8_kernels.c
 117:C:/Renesas/e2studio_2021_01_workspace_RZA2M_ANPR/ANPR_RZA2M_GR_MANGO/src/tensorflow_lite/tensorflow/lite/kernels/internal\types.h ****   //
 118:C:/Renesas/e2studio_2021_01_workspace_RZA2M_ANPR/ANPR_RZA2M_GR_MANGO/src/tensorflow_lite/tensorflow/lite/kernels/internal\types.h ****   kShuffled4x16Int8,
 119:C:/Renesas/e2studio_2021_01_workspace_RZA2M_ANPR/ANPR_RZA2M_GR_MANGO/src/tensorflow_lite/tensorflow/lite/kernels/internal\types.h **** };
 120:C:/Renesas/e2studio_2021_01_workspace_RZA2M_ANPR/ANPR_RZA2M_GR_MANGO/src/tensorflow_lite/tensorflow/lite/kernels/internal\types.h **** 
 121:C:/Renesas/e2studio_2021_01_workspace_RZA2M_ANPR/ANPR_RZA2M_GR_MANGO/src/tensorflow_lite/tensorflow/lite/kernels/internal\types.h **** // Quantization parameters, determining the mapping of quantized values
 122:C:/Renesas/e2studio_2021_01_workspace_RZA2M_ANPR/ANPR_RZA2M_GR_MANGO/src/tensorflow_lite/tensorflow/lite/kernels/internal\types.h **** // to real values (i.e. determining how quantized values are mathematically
 123:C:/Renesas/e2studio_2021_01_workspace_RZA2M_ANPR/ANPR_RZA2M_GR_MANGO/src/tensorflow_lite/tensorflow/lite/kernels/internal\types.h **** // interpreted).
 124:C:/Renesas/e2studio_2021_01_workspace_RZA2M_ANPR/ANPR_RZA2M_GR_MANGO/src/tensorflow_lite/tensorflow/lite/kernels/internal\types.h **** //
 125:C:/Renesas/e2studio_2021_01_workspace_RZA2M_ANPR/ANPR_RZA2M_GR_MANGO/src/tensorflow_lite/tensorflow/lite/kernels/internal\types.h **** // The correspondence is as follows:
 126:C:/Renesas/e2studio_2021_01_workspace_RZA2M_ANPR/ANPR_RZA2M_GR_MANGO/src/tensorflow_lite/tensorflow/lite/kernels/internal\types.h **** //
 127:C:/Renesas/e2studio_2021_01_workspace_RZA2M_ANPR/ANPR_RZA2M_GR_MANGO/src/tensorflow_lite/tensorflow/lite/kernels/internal\types.h **** //   real_value = scale * (quantized_value - zero_point);
 128:C:/Renesas/e2studio_2021_01_workspace_RZA2M_ANPR/ANPR_RZA2M_GR_MANGO/src/tensorflow_lite/tensorflow/lite/kernels/internal\types.h **** //
 129:C:/Renesas/e2studio_2021_01_workspace_RZA2M_ANPR/ANPR_RZA2M_GR_MANGO/src/tensorflow_lite/tensorflow/lite/kernels/internal\types.h **** // In other words, zero_point designates which quantized value corresponds to
 130:C:/Renesas/e2studio_2021_01_workspace_RZA2M_ANPR/ANPR_RZA2M_GR_MANGO/src/tensorflow_lite/tensorflow/lite/kernels/internal\types.h **** // the real 0 value, and scale designates the difference between the real values
 131:C:/Renesas/e2studio_2021_01_workspace_RZA2M_ANPR/ANPR_RZA2M_GR_MANGO/src/tensorflow_lite/tensorflow/lite/kernels/internal\types.h **** // corresponding to consecutive quantized values differing by 1.
 132:C:/Renesas/e2studio_2021_01_workspace_RZA2M_ANPR/ANPR_RZA2M_GR_MANGO/src/tensorflow_lite/tensorflow/lite/kernels/internal\types.h **** struct QuantizationParams {
 133:C:/Renesas/e2studio_2021_01_workspace_RZA2M_ANPR/ANPR_RZA2M_GR_MANGO/src/tensorflow_lite/tensorflow/lite/kernels/internal\types.h ****   int32_t zero_point = 0;
 134:C:/Renesas/e2studio_2021_01_workspace_RZA2M_ANPR/ANPR_RZA2M_GR_MANGO/src/tensorflow_lite/tensorflow/lite/kernels/internal\types.h ****   double scale = 0.0;
 135:C:/Renesas/e2studio_2021_01_workspace_RZA2M_ANPR/ANPR_RZA2M_GR_MANGO/src/tensorflow_lite/tensorflow/lite/kernels/internal\types.h **** };
 136:C:/Renesas/e2studio_2021_01_workspace_RZA2M_ANPR/ANPR_RZA2M_GR_MANGO/src/tensorflow_lite/tensorflow/lite/kernels/internal\types.h **** 
 137:C:/Renesas/e2studio_2021_01_workspace_RZA2M_ANPR/ANPR_RZA2M_GR_MANGO/src/tensorflow_lite/tensorflow/lite/kernels/internal\types.h **** inline bool operator==(const QuantizationParams& qp1,
 138:C:/Renesas/e2studio_2021_01_workspace_RZA2M_ANPR/ANPR_RZA2M_GR_MANGO/src/tensorflow_lite/tensorflow/lite/kernels/internal\types.h ****                        const QuantizationParams& qp2) {
 139:C:/Renesas/e2studio_2021_01_workspace_RZA2M_ANPR/ANPR_RZA2M_GR_MANGO/src/tensorflow_lite/tensorflow/lite/kernels/internal\types.h ****   return qp1.zero_point == qp2.zero_point && qp1.scale == qp2.scale;
 140:C:/Renesas/e2studio_2021_01_workspace_RZA2M_ANPR/ANPR_RZA2M_GR_MANGO/src/tensorflow_lite/tensorflow/lite/kernels/internal\types.h **** }
 141:C:/Renesas/e2studio_2021_01_workspace_RZA2M_ANPR/ANPR_RZA2M_GR_MANGO/src/tensorflow_lite/tensorflow/lite/kernels/internal\types.h **** 
 142:C:/Renesas/e2studio_2021_01_workspace_RZA2M_ANPR/ANPR_RZA2M_GR_MANGO/src/tensorflow_lite/tensorflow/lite/kernels/internal\types.h **** template <int N>
 143:C:/Renesas/e2studio_2021_01_workspace_RZA2M_ANPR/ANPR_RZA2M_GR_MANGO/src/tensorflow_lite/tensorflow/lite/kernels/internal\types.h **** struct Dims {
 144:C:/Renesas/e2studio_2021_01_workspace_RZA2M_ANPR/ANPR_RZA2M_GR_MANGO/src/tensorflow_lite/tensorflow/lite/kernels/internal\types.h ****   int sizes[N];
 145:C:/Renesas/e2studio_2021_01_workspace_RZA2M_ANPR/ANPR_RZA2M_GR_MANGO/src/tensorflow_lite/tensorflow/lite/kernels/internal\types.h ****   int strides[N];
 146:C:/Renesas/e2studio_2021_01_workspace_RZA2M_ANPR/ANPR_RZA2M_GR_MANGO/src/tensorflow_lite/tensorflow/lite/kernels/internal\types.h **** };
 147:C:/Renesas/e2studio_2021_01_workspace_RZA2M_ANPR/ANPR_RZA2M_GR_MANGO/src/tensorflow_lite/tensorflow/lite/kernels/internal\types.h **** 
 148:C:/Renesas/e2studio_2021_01_workspace_RZA2M_ANPR/ANPR_RZA2M_GR_MANGO/src/tensorflow_lite/tensorflow/lite/kernels/internal\types.h **** class RuntimeShape {
 149:C:/Renesas/e2studio_2021_01_workspace_RZA2M_ANPR/ANPR_RZA2M_GR_MANGO/src/tensorflow_lite/tensorflow/lite/kernels/internal\types.h ****  public:
 150:C:/Renesas/e2studio_2021_01_workspace_RZA2M_ANPR/ANPR_RZA2M_GR_MANGO/src/tensorflow_lite/tensorflow/lite/kernels/internal\types.h ****   // Shapes with dimensions up to 5 are stored directly in the structure, while
 151:C:/Renesas/e2studio_2021_01_workspace_RZA2M_ANPR/ANPR_RZA2M_GR_MANGO/src/tensorflow_lite/tensorflow/lite/kernels/internal\types.h ****   // larger shapes are separately allocated.
 152:C:/Renesas/e2studio_2021_01_workspace_RZA2M_ANPR/ANPR_RZA2M_GR_MANGO/src/tensorflow_lite/tensorflow/lite/kernels/internal\types.h ****   static constexpr int kMaxSmallSize = 5;
 153:C:/Renesas/e2studio_2021_01_workspace_RZA2M_ANPR/ANPR_RZA2M_GR_MANGO/src/tensorflow_lite/tensorflow/lite/kernels/internal\types.h **** 
 154:C:/Renesas/e2studio_2021_01_workspace_RZA2M_ANPR/ANPR_RZA2M_GR_MANGO/src/tensorflow_lite/tensorflow/lite/kernels/internal\types.h ****   RuntimeShape& operator=(RuntimeShape const&) = delete;
 155:C:/Renesas/e2studio_2021_01_workspace_RZA2M_ANPR/ANPR_RZA2M_GR_MANGO/src/tensorflow_lite/tensorflow/lite/kernels/internal\types.h **** 
 156:C:/Renesas/e2studio_2021_01_workspace_RZA2M_ANPR/ANPR_RZA2M_GR_MANGO/src/tensorflow_lite/tensorflow/lite/kernels/internal\types.h ****   RuntimeShape() : size_(0) {}
 157:C:/Renesas/e2studio_2021_01_workspace_RZA2M_ANPR/ANPR_RZA2M_GR_MANGO/src/tensorflow_lite/tensorflow/lite/kernels/internal\types.h **** 
 158:C:/Renesas/e2studio_2021_01_workspace_RZA2M_ANPR/ANPR_RZA2M_GR_MANGO/src/tensorflow_lite/tensorflow/lite/kernels/internal\types.h ****   explicit RuntimeShape(int dimensions_count) : size_(dimensions_count) {
 159:C:/Renesas/e2studio_2021_01_workspace_RZA2M_ANPR/ANPR_RZA2M_GR_MANGO/src/tensorflow_lite/tensorflow/lite/kernels/internal\types.h ****     if (dimensions_count > kMaxSmallSize) {
 160:C:/Renesas/e2studio_2021_01_workspace_RZA2M_ANPR/ANPR_RZA2M_GR_MANGO/src/tensorflow_lite/tensorflow/lite/kernels/internal\types.h **** #ifdef TF_LITE_STATIC_MEMORY
 161:C:/Renesas/e2studio_2021_01_workspace_RZA2M_ANPR/ANPR_RZA2M_GR_MANGO/src/tensorflow_lite/tensorflow/lite/kernels/internal\types.h ****       TFLITE_CHECK(false && "No shape resizing supported on this platform");
 162:C:/Renesas/e2studio_2021_01_workspace_RZA2M_ANPR/ANPR_RZA2M_GR_MANGO/src/tensorflow_lite/tensorflow/lite/kernels/internal\types.h **** #else  // TF_LITE_STATIC_MEMORY
 163:C:/Renesas/e2studio_2021_01_workspace_RZA2M_ANPR/ANPR_RZA2M_GR_MANGO/src/tensorflow_lite/tensorflow/lite/kernels/internal\types.h ****       dims_pointer_ = new int32_t[dimensions_count];
 164:C:/Renesas/e2studio_2021_01_workspace_RZA2M_ANPR/ANPR_RZA2M_GR_MANGO/src/tensorflow_lite/tensorflow/lite/kernels/internal\types.h **** #endif  // TF_LITE_STATIC_MEMORY
 165:C:/Renesas/e2studio_2021_01_workspace_RZA2M_ANPR/ANPR_RZA2M_GR_MANGO/src/tensorflow_lite/tensorflow/lite/kernels/internal\types.h ****     }
 166:C:/Renesas/e2studio_2021_01_workspace_RZA2M_ANPR/ANPR_RZA2M_GR_MANGO/src/tensorflow_lite/tensorflow/lite/kernels/internal\types.h ****   }
 167:C:/Renesas/e2studio_2021_01_workspace_RZA2M_ANPR/ANPR_RZA2M_GR_MANGO/src/tensorflow_lite/tensorflow/lite/kernels/internal\types.h **** 
 168:C:/Renesas/e2studio_2021_01_workspace_RZA2M_ANPR/ANPR_RZA2M_GR_MANGO/src/tensorflow_lite/tensorflow/lite/kernels/internal\types.h ****   RuntimeShape(int shape_size, int32_t value) : size_(0) {
 169:C:/Renesas/e2studio_2021_01_workspace_RZA2M_ANPR/ANPR_RZA2M_GR_MANGO/src/tensorflow_lite/tensorflow/lite/kernels/internal\types.h ****     Resize(shape_size);
 170:C:/Renesas/e2studio_2021_01_workspace_RZA2M_ANPR/ANPR_RZA2M_GR_MANGO/src/tensorflow_lite/tensorflow/lite/kernels/internal\types.h ****     for (int i = 0; i < shape_size; ++i) {
 171:C:/Renesas/e2studio_2021_01_workspace_RZA2M_ANPR/ANPR_RZA2M_GR_MANGO/src/tensorflow_lite/tensorflow/lite/kernels/internal\types.h ****       SetDim(i, value);
 172:C:/Renesas/e2studio_2021_01_workspace_RZA2M_ANPR/ANPR_RZA2M_GR_MANGO/src/tensorflow_lite/tensorflow/lite/kernels/internal\types.h ****     }
 173:C:/Renesas/e2studio_2021_01_workspace_RZA2M_ANPR/ANPR_RZA2M_GR_MANGO/src/tensorflow_lite/tensorflow/lite/kernels/internal\types.h ****   }
 174:C:/Renesas/e2studio_2021_01_workspace_RZA2M_ANPR/ANPR_RZA2M_GR_MANGO/src/tensorflow_lite/tensorflow/lite/kernels/internal\types.h **** 
 175:C:/Renesas/e2studio_2021_01_workspace_RZA2M_ANPR/ANPR_RZA2M_GR_MANGO/src/tensorflow_lite/tensorflow/lite/kernels/internal\types.h ****   RuntimeShape(int dimensions_count, const int32_t* dims_data) : size_(0) {
 176:C:/Renesas/e2studio_2021_01_workspace_RZA2M_ANPR/ANPR_RZA2M_GR_MANGO/src/tensorflow_lite/tensorflow/lite/kernels/internal\types.h ****     ReplaceWith(dimensions_count, dims_data);
 177:C:/Renesas/e2studio_2021_01_workspace_RZA2M_ANPR/ANPR_RZA2M_GR_MANGO/src/tensorflow_lite/tensorflow/lite/kernels/internal\types.h ****   }
 178:C:/Renesas/e2studio_2021_01_workspace_RZA2M_ANPR/ANPR_RZA2M_GR_MANGO/src/tensorflow_lite/tensorflow/lite/kernels/internal\types.h **** 
 179:C:/Renesas/e2studio_2021_01_workspace_RZA2M_ANPR/ANPR_RZA2M_GR_MANGO/src/tensorflow_lite/tensorflow/lite/kernels/internal\types.h ****   RuntimeShape(const std::initializer_list<int> init_list) : size_(0) {
 180:C:/Renesas/e2studio_2021_01_workspace_RZA2M_ANPR/ANPR_RZA2M_GR_MANGO/src/tensorflow_lite/tensorflow/lite/kernels/internal\types.h ****     BuildFrom(init_list);
 181:C:/Renesas/e2studio_2021_01_workspace_RZA2M_ANPR/ANPR_RZA2M_GR_MANGO/src/tensorflow_lite/tensorflow/lite/kernels/internal\types.h ****   }
 182:C:/Renesas/e2studio_2021_01_workspace_RZA2M_ANPR/ANPR_RZA2M_GR_MANGO/src/tensorflow_lite/tensorflow/lite/kernels/internal\types.h **** 
 183:C:/Renesas/e2studio_2021_01_workspace_RZA2M_ANPR/ANPR_RZA2M_GR_MANGO/src/tensorflow_lite/tensorflow/lite/kernels/internal\types.h ****   // Avoid using this constructor.  We should be able to delete it when C++17
 184:C:/Renesas/e2studio_2021_01_workspace_RZA2M_ANPR/ANPR_RZA2M_GR_MANGO/src/tensorflow_lite/tensorflow/lite/kernels/internal\types.h ****   // rolls out.
 185:C:/Renesas/e2studio_2021_01_workspace_RZA2M_ANPR/ANPR_RZA2M_GR_MANGO/src/tensorflow_lite/tensorflow/lite/kernels/internal\types.h ****   RuntimeShape(RuntimeShape const& other) : size_(other.DimensionsCount()) {
 186:C:/Renesas/e2studio_2021_01_workspace_RZA2M_ANPR/ANPR_RZA2M_GR_MANGO/src/tensorflow_lite/tensorflow/lite/kernels/internal\types.h ****     if (size_ > kMaxSmallSize) {
 187:C:/Renesas/e2studio_2021_01_workspace_RZA2M_ANPR/ANPR_RZA2M_GR_MANGO/src/tensorflow_lite/tensorflow/lite/kernels/internal\types.h **** #ifdef TF_LITE_STATIC_MEMORY
 188:C:/Renesas/e2studio_2021_01_workspace_RZA2M_ANPR/ANPR_RZA2M_GR_MANGO/src/tensorflow_lite/tensorflow/lite/kernels/internal\types.h ****       TFLITE_CHECK(false && "No shape resizing supported on this platform");
 189:C:/Renesas/e2studio_2021_01_workspace_RZA2M_ANPR/ANPR_RZA2M_GR_MANGO/src/tensorflow_lite/tensorflow/lite/kernels/internal\types.h **** #else
 190:C:/Renesas/e2studio_2021_01_workspace_RZA2M_ANPR/ANPR_RZA2M_GR_MANGO/src/tensorflow_lite/tensorflow/lite/kernels/internal\types.h ****       dims_pointer_ = new int32_t[size_];
 191:C:/Renesas/e2studio_2021_01_workspace_RZA2M_ANPR/ANPR_RZA2M_GR_MANGO/src/tensorflow_lite/tensorflow/lite/kernels/internal\types.h **** #endif
 192:C:/Renesas/e2studio_2021_01_workspace_RZA2M_ANPR/ANPR_RZA2M_GR_MANGO/src/tensorflow_lite/tensorflow/lite/kernels/internal\types.h ****     }
 193:C:/Renesas/e2studio_2021_01_workspace_RZA2M_ANPR/ANPR_RZA2M_GR_MANGO/src/tensorflow_lite/tensorflow/lite/kernels/internal\types.h ****     std::memcpy(DimsData(), other.DimsData(), sizeof(int32_t) * size_);
 194:C:/Renesas/e2studio_2021_01_workspace_RZA2M_ANPR/ANPR_RZA2M_GR_MANGO/src/tensorflow_lite/tensorflow/lite/kernels/internal\types.h ****   }
 195:C:/Renesas/e2studio_2021_01_workspace_RZA2M_ANPR/ANPR_RZA2M_GR_MANGO/src/tensorflow_lite/tensorflow/lite/kernels/internal\types.h **** 
 196:C:/Renesas/e2studio_2021_01_workspace_RZA2M_ANPR/ANPR_RZA2M_GR_MANGO/src/tensorflow_lite/tensorflow/lite/kernels/internal\types.h ****   bool operator==(const RuntimeShape& comp) const {
 197:C:/Renesas/e2studio_2021_01_workspace_RZA2M_ANPR/ANPR_RZA2M_GR_MANGO/src/tensorflow_lite/tensorflow/lite/kernels/internal\types.h ****     return this->size_ == comp.size_ &&
 198:C:/Renesas/e2studio_2021_01_workspace_RZA2M_ANPR/ANPR_RZA2M_GR_MANGO/src/tensorflow_lite/tensorflow/lite/kernels/internal\types.h ****            std::memcmp(DimsData(), comp.DimsData(), size_ * sizeof(int32_t)) ==
 199:C:/Renesas/e2studio_2021_01_workspace_RZA2M_ANPR/ANPR_RZA2M_GR_MANGO/src/tensorflow_lite/tensorflow/lite/kernels/internal\types.h ****                0;
 200:C:/Renesas/e2studio_2021_01_workspace_RZA2M_ANPR/ANPR_RZA2M_GR_MANGO/src/tensorflow_lite/tensorflow/lite/kernels/internal\types.h ****   }
 201:C:/Renesas/e2studio_2021_01_workspace_RZA2M_ANPR/ANPR_RZA2M_GR_MANGO/src/tensorflow_lite/tensorflow/lite/kernels/internal\types.h **** 
 202:C:/Renesas/e2studio_2021_01_workspace_RZA2M_ANPR/ANPR_RZA2M_GR_MANGO/src/tensorflow_lite/tensorflow/lite/kernels/internal\types.h ****   ~RuntimeShape() {
 203:C:/Renesas/e2studio_2021_01_workspace_RZA2M_ANPR/ANPR_RZA2M_GR_MANGO/src/tensorflow_lite/tensorflow/lite/kernels/internal\types.h ****     if (size_ > kMaxSmallSize) {
 204:C:/Renesas/e2studio_2021_01_workspace_RZA2M_ANPR/ANPR_RZA2M_GR_MANGO/src/tensorflow_lite/tensorflow/lite/kernels/internal\types.h **** #ifdef TF_LITE_STATIC_MEMORY
 205:C:/Renesas/e2studio_2021_01_workspace_RZA2M_ANPR/ANPR_RZA2M_GR_MANGO/src/tensorflow_lite/tensorflow/lite/kernels/internal\types.h ****       TFLITE_CHECK(false && "No shape resizing supported on this platform");
 206:C:/Renesas/e2studio_2021_01_workspace_RZA2M_ANPR/ANPR_RZA2M_GR_MANGO/src/tensorflow_lite/tensorflow/lite/kernels/internal\types.h **** #else  // TF_LITE_STATIC_MEMORY
 207:C:/Renesas/e2studio_2021_01_workspace_RZA2M_ANPR/ANPR_RZA2M_GR_MANGO/src/tensorflow_lite/tensorflow/lite/kernels/internal\types.h ****       delete[] dims_pointer_;
 208:C:/Renesas/e2studio_2021_01_workspace_RZA2M_ANPR/ANPR_RZA2M_GR_MANGO/src/tensorflow_lite/tensorflow/lite/kernels/internal\types.h **** #endif  // TF_LITE_STATIC_MEMORY
 209:C:/Renesas/e2studio_2021_01_workspace_RZA2M_ANPR/ANPR_RZA2M_GR_MANGO/src/tensorflow_lite/tensorflow/lite/kernels/internal\types.h ****     }
 210:C:/Renesas/e2studio_2021_01_workspace_RZA2M_ANPR/ANPR_RZA2M_GR_MANGO/src/tensorflow_lite/tensorflow/lite/kernels/internal\types.h ****   }
 211:C:/Renesas/e2studio_2021_01_workspace_RZA2M_ANPR/ANPR_RZA2M_GR_MANGO/src/tensorflow_lite/tensorflow/lite/kernels/internal\types.h **** 
 212:C:/Renesas/e2studio_2021_01_workspace_RZA2M_ANPR/ANPR_RZA2M_GR_MANGO/src/tensorflow_lite/tensorflow/lite/kernels/internal\types.h ****   inline int32_t DimensionsCount() const { return size_; }
 213:C:/Renesas/e2studio_2021_01_workspace_RZA2M_ANPR/ANPR_RZA2M_GR_MANGO/src/tensorflow_lite/tensorflow/lite/kernels/internal\types.h ****   inline int32_t Dims(int i) const {
 214:C:/Renesas/e2studio_2021_01_workspace_RZA2M_ANPR/ANPR_RZA2M_GR_MANGO/src/tensorflow_lite/tensorflow/lite/kernels/internal\types.h ****     TFLITE_DCHECK_GE(i, 0);
 215:C:/Renesas/e2studio_2021_01_workspace_RZA2M_ANPR/ANPR_RZA2M_GR_MANGO/src/tensorflow_lite/tensorflow/lite/kernels/internal\types.h ****     TFLITE_DCHECK_LT(i, size_);
 216:C:/Renesas/e2studio_2021_01_workspace_RZA2M_ANPR/ANPR_RZA2M_GR_MANGO/src/tensorflow_lite/tensorflow/lite/kernels/internal\types.h ****     return size_ > kMaxSmallSize ? dims_pointer_[i] : dims_[i];
 217:C:/Renesas/e2studio_2021_01_workspace_RZA2M_ANPR/ANPR_RZA2M_GR_MANGO/src/tensorflow_lite/tensorflow/lite/kernels/internal\types.h ****   }
 218:C:/Renesas/e2studio_2021_01_workspace_RZA2M_ANPR/ANPR_RZA2M_GR_MANGO/src/tensorflow_lite/tensorflow/lite/kernels/internal\types.h ****   inline void SetDim(int i, int32_t val) {
 219:C:/Renesas/e2studio_2021_01_workspace_RZA2M_ANPR/ANPR_RZA2M_GR_MANGO/src/tensorflow_lite/tensorflow/lite/kernels/internal\types.h ****     TFLITE_DCHECK_GE(i, 0);
 220:C:/Renesas/e2studio_2021_01_workspace_RZA2M_ANPR/ANPR_RZA2M_GR_MANGO/src/tensorflow_lite/tensorflow/lite/kernels/internal\types.h ****     TFLITE_DCHECK_LT(i, size_);
 221:C:/Renesas/e2studio_2021_01_workspace_RZA2M_ANPR/ANPR_RZA2M_GR_MANGO/src/tensorflow_lite/tensorflow/lite/kernels/internal\types.h ****     if (size_ > kMaxSmallSize) {
 222:C:/Renesas/e2studio_2021_01_workspace_RZA2M_ANPR/ANPR_RZA2M_GR_MANGO/src/tensorflow_lite/tensorflow/lite/kernels/internal\types.h ****       dims_pointer_[i] = val;
 223:C:/Renesas/e2studio_2021_01_workspace_RZA2M_ANPR/ANPR_RZA2M_GR_MANGO/src/tensorflow_lite/tensorflow/lite/kernels/internal\types.h ****     } else {
 224:C:/Renesas/e2studio_2021_01_workspace_RZA2M_ANPR/ANPR_RZA2M_GR_MANGO/src/tensorflow_lite/tensorflow/lite/kernels/internal\types.h ****       dims_[i] = val;
 225:C:/Renesas/e2studio_2021_01_workspace_RZA2M_ANPR/ANPR_RZA2M_GR_MANGO/src/tensorflow_lite/tensorflow/lite/kernels/internal\types.h ****     }
 226:C:/Renesas/e2studio_2021_01_workspace_RZA2M_ANPR/ANPR_RZA2M_GR_MANGO/src/tensorflow_lite/tensorflow/lite/kernels/internal\types.h ****   }
 227:C:/Renesas/e2studio_2021_01_workspace_RZA2M_ANPR/ANPR_RZA2M_GR_MANGO/src/tensorflow_lite/tensorflow/lite/kernels/internal\types.h **** 
 228:C:/Renesas/e2studio_2021_01_workspace_RZA2M_ANPR/ANPR_RZA2M_GR_MANGO/src/tensorflow_lite/tensorflow/lite/kernels/internal\types.h ****   inline int32_t* DimsData() {
 229:C:/Renesas/e2studio_2021_01_workspace_RZA2M_ANPR/ANPR_RZA2M_GR_MANGO/src/tensorflow_lite/tensorflow/lite/kernels/internal\types.h ****     return size_ > kMaxSmallSize ? dims_pointer_ : dims_;
 230:C:/Renesas/e2studio_2021_01_workspace_RZA2M_ANPR/ANPR_RZA2M_GR_MANGO/src/tensorflow_lite/tensorflow/lite/kernels/internal\types.h ****   }
 231:C:/Renesas/e2studio_2021_01_workspace_RZA2M_ANPR/ANPR_RZA2M_GR_MANGO/src/tensorflow_lite/tensorflow/lite/kernels/internal\types.h ****   inline const int32_t* DimsData() const {
 232:C:/Renesas/e2studio_2021_01_workspace_RZA2M_ANPR/ANPR_RZA2M_GR_MANGO/src/tensorflow_lite/tensorflow/lite/kernels/internal\types.h ****     return size_ > kMaxSmallSize ? dims_pointer_ : dims_;
 233:C:/Renesas/e2studio_2021_01_workspace_RZA2M_ANPR/ANPR_RZA2M_GR_MANGO/src/tensorflow_lite/tensorflow/lite/kernels/internal\types.h ****   }
 234:C:/Renesas/e2studio_2021_01_workspace_RZA2M_ANPR/ANPR_RZA2M_GR_MANGO/src/tensorflow_lite/tensorflow/lite/kernels/internal\types.h ****   // The caller must ensure that the shape is no bigger than 5-D.
 235:C:/Renesas/e2studio_2021_01_workspace_RZA2M_ANPR/ANPR_RZA2M_GR_MANGO/src/tensorflow_lite/tensorflow/lite/kernels/internal\types.h ****   inline const int32_t* DimsDataUpTo5D() const { return dims_; }
 236:C:/Renesas/e2studio_2021_01_workspace_RZA2M_ANPR/ANPR_RZA2M_GR_MANGO/src/tensorflow_lite/tensorflow/lite/kernels/internal\types.h **** 
 237:C:/Renesas/e2studio_2021_01_workspace_RZA2M_ANPR/ANPR_RZA2M_GR_MANGO/src/tensorflow_lite/tensorflow/lite/kernels/internal\types.h ****   inline void Resize(int dimensions_count) {
 238:C:/Renesas/e2studio_2021_01_workspace_RZA2M_ANPR/ANPR_RZA2M_GR_MANGO/src/tensorflow_lite/tensorflow/lite/kernels/internal\types.h ****     if (size_ > kMaxSmallSize) {
 239:C:/Renesas/e2studio_2021_01_workspace_RZA2M_ANPR/ANPR_RZA2M_GR_MANGO/src/tensorflow_lite/tensorflow/lite/kernels/internal\types.h **** #ifdef TF_LITE_STATIC_MEMORY
 240:C:/Renesas/e2studio_2021_01_workspace_RZA2M_ANPR/ANPR_RZA2M_GR_MANGO/src/tensorflow_lite/tensorflow/lite/kernels/internal\types.h ****       TFLITE_CHECK(false && "No shape resizing supported on this platform");
 241:C:/Renesas/e2studio_2021_01_workspace_RZA2M_ANPR/ANPR_RZA2M_GR_MANGO/src/tensorflow_lite/tensorflow/lite/kernels/internal\types.h **** #else  // TF_LITE_STATIC_MEMORY
 242:C:/Renesas/e2studio_2021_01_workspace_RZA2M_ANPR/ANPR_RZA2M_GR_MANGO/src/tensorflow_lite/tensorflow/lite/kernels/internal\types.h ****       delete[] dims_pointer_;
 243:C:/Renesas/e2studio_2021_01_workspace_RZA2M_ANPR/ANPR_RZA2M_GR_MANGO/src/tensorflow_lite/tensorflow/lite/kernels/internal\types.h **** #endif  // TF_LITE_STATIC_MEMORY
 244:C:/Renesas/e2studio_2021_01_workspace_RZA2M_ANPR/ANPR_RZA2M_GR_MANGO/src/tensorflow_lite/tensorflow/lite/kernels/internal\types.h ****     }
 245:C:/Renesas/e2studio_2021_01_workspace_RZA2M_ANPR/ANPR_RZA2M_GR_MANGO/src/tensorflow_lite/tensorflow/lite/kernels/internal\types.h ****     size_ = dimensions_count;
 246:C:/Renesas/e2studio_2021_01_workspace_RZA2M_ANPR/ANPR_RZA2M_GR_MANGO/src/tensorflow_lite/tensorflow/lite/kernels/internal\types.h ****     if (dimensions_count > kMaxSmallSize) {
 572              		.loc 4 246 0
 573 04dc 050052E3 		cmp	r2, #5
 245:C:/Renesas/e2studio_2021_01_workspace_RZA2M_ANPR/ANPR_RZA2M_GR_MANGO/src/tensorflow_lite/tensorflow/lite/kernels/internal\types.h ****     if (dimensions_count > kMaxSmallSize) {
 574              		.loc 4 245 0
 575 04e0 38208DE5 		str	r2, [sp, #56]
 576              		.loc 4 246 0
 577 04e4 410100DA 		ble	.L29
 578              	.LVL79:
 579              	.LBB487:
 580              	.LBB488:
 247:C:/Renesas/e2studio_2021_01_workspace_RZA2M_ANPR/ANPR_RZA2M_GR_MANGO/src/tensorflow_lite/tensorflow/lite/kernels/internal\types.h **** #ifdef TF_LITE_STATIC_MEMORY
 248:C:/Renesas/e2studio_2021_01_workspace_RZA2M_ANPR/ANPR_RZA2M_GR_MANGO/src/tensorflow_lite/tensorflow/lite/kernels/internal\types.h ****       TFLITE_CHECK(false && "No shape resizing supported on this platform");
 249:C:/Renesas/e2studio_2021_01_workspace_RZA2M_ANPR/ANPR_RZA2M_GR_MANGO/src/tensorflow_lite/tensorflow/lite/kernels/internal\types.h **** #else  // TF_LITE_STATIC_MEMORY
 250:C:/Renesas/e2studio_2021_01_workspace_RZA2M_ANPR/ANPR_RZA2M_GR_MANGO/src/tensorflow_lite/tensorflow/lite/kernels/internal\types.h ****       dims_pointer_ = new int32_t[dimensions_count];
 581              		.loc 4 250 0
 582 04e8 2E0272E3 		cmn	r2, #-536870910
 583 04ec D50200CA 		bgt	.L30
 584 04f0 0241A0E1 		lsl	r4, r2, #2
 585 04f4 0400A0E1 		mov	r0, r4
 586 04f8 FEFFFFEB 		bl	_Znaj
 587              	.LVL80:
 588 04fc 3C008DE5 		str	r0, [sp, #60]
 589              	.LVL81:
 590              	.L31:
 591              	.LBE488:
 592              	.LBE487:
 593              	.LBE486:
 594              	.LBE485:
 251:C:/Renesas/e2studio_2021_01_workspace_RZA2M_ANPR/ANPR_RZA2M_GR_MANGO/src/tensorflow_lite/tensorflow/lite/kernels/internal\types.h **** #endif  // TF_LITE_STATIC_MEMORY
 252:C:/Renesas/e2studio_2021_01_workspace_RZA2M_ANPR/ANPR_RZA2M_GR_MANGO/src/tensorflow_lite/tensorflow/lite/kernels/internal\types.h ****     }
 253:C:/Renesas/e2studio_2021_01_workspace_RZA2M_ANPR/ANPR_RZA2M_GR_MANGO/src/tensorflow_lite/tensorflow/lite/kernels/internal\types.h ****   }
 254:C:/Renesas/e2studio_2021_01_workspace_RZA2M_ANPR/ANPR_RZA2M_GR_MANGO/src/tensorflow_lite/tensorflow/lite/kernels/internal\types.h **** 
 255:C:/Renesas/e2studio_2021_01_workspace_RZA2M_ANPR/ANPR_RZA2M_GR_MANGO/src/tensorflow_lite/tensorflow/lite/kernels/internal\types.h ****   inline void ReplaceWith(int dimensions_count, const int32_t* dims_data) {
 256:C:/Renesas/e2studio_2021_01_workspace_RZA2M_ANPR/ANPR_RZA2M_GR_MANGO/src/tensorflow_lite/tensorflow/lite/kernels/internal\types.h ****     Resize(dimensions_count);
 257:C:/Renesas/e2studio_2021_01_workspace_RZA2M_ANPR/ANPR_RZA2M_GR_MANGO/src/tensorflow_lite/tensorflow/lite/kernels/internal\types.h ****     int32_t* dst_dims = DimsData();
 258:C:/Renesas/e2studio_2021_01_workspace_RZA2M_ANPR/ANPR_RZA2M_GR_MANGO/src/tensorflow_lite/tensorflow/lite/kernels/internal\types.h ****     std::memcpy(dst_dims, dims_data, dimensions_count * sizeof(int32_t));
 595              		.loc 4 258 0
 596 0500 041085E2 		add	r1, r5, #4
 597 0504 0420A0E1 		mov	r2, r4
 598 0508 FEFFFFEB 		bl	memcpy
 599              	.LVL82:
 600              	.LBE484:
 601              	.LBE483:
 602              	.LBE482:
 603              	.LBE481:
 604              	.LBE480:
 605              	.LBB503:
 606              	.LBB504:
 607              	.LBB505:
 608              	.LBB506:
 232:C:/Renesas/e2studio_2021_01_workspace_RZA2M_ANPR/ANPR_RZA2M_GR_MANGO/src/tensorflow_lite/tensorflow/lite/kernels/internal\types.h ****   }
 609              		.loc 4 232 0
 610 050c 38109DE5 		ldr	r1, [sp, #56]
 611 0510 050051E3 		cmp	r1, #5
 612 0514 330100CA 		bgt	.L100
 613              	.LVL83:
 614              	.LBE506:
 615              	.LBE505:
 616              	.LBB510:
 259:C:/Renesas/e2studio_2021_01_workspace_RZA2M_ANPR/ANPR_RZA2M_GR_MANGO/src/tensorflow_lite/tensorflow/lite/kernels/internal\types.h ****   }
 260:C:/Renesas/e2studio_2021_01_workspace_RZA2M_ANPR/ANPR_RZA2M_GR_MANGO/src/tensorflow_lite/tensorflow/lite/kernels/internal\types.h **** 
 261:C:/Renesas/e2studio_2021_01_workspace_RZA2M_ANPR/ANPR_RZA2M_GR_MANGO/src/tensorflow_lite/tensorflow/lite/kernels/internal\types.h ****   template <typename T>
 262:C:/Renesas/e2studio_2021_01_workspace_RZA2M_ANPR/ANPR_RZA2M_GR_MANGO/src/tensorflow_lite/tensorflow/lite/kernels/internal\types.h ****   inline void BuildFrom(const T& src_iterable) {
 263:C:/Renesas/e2studio_2021_01_workspace_RZA2M_ANPR/ANPR_RZA2M_GR_MANGO/src/tensorflow_lite/tensorflow/lite/kernels/internal\types.h ****     const int dimensions_count =
 264:C:/Renesas/e2studio_2021_01_workspace_RZA2M_ANPR/ANPR_RZA2M_GR_MANGO/src/tensorflow_lite/tensorflow/lite/kernels/internal\types.h ****         std::distance(src_iterable.begin(), src_iterable.end());
 265:C:/Renesas/e2studio_2021_01_workspace_RZA2M_ANPR/ANPR_RZA2M_GR_MANGO/src/tensorflow_lite/tensorflow/lite/kernels/internal\types.h ****     Resize(dimensions_count);
 266:C:/Renesas/e2studio_2021_01_workspace_RZA2M_ANPR/ANPR_RZA2M_GR_MANGO/src/tensorflow_lite/tensorflow/lite/kernels/internal\types.h ****     int32_t* data = DimsData();
 267:C:/Renesas/e2studio_2021_01_workspace_RZA2M_ANPR/ANPR_RZA2M_GR_MANGO/src/tensorflow_lite/tensorflow/lite/kernels/internal\types.h ****     for (auto it : src_iterable) {
 268:C:/Renesas/e2studio_2021_01_workspace_RZA2M_ANPR/ANPR_RZA2M_GR_MANGO/src/tensorflow_lite/tensorflow/lite/kernels/internal\types.h ****       *data = it;
 269:C:/Renesas/e2studio_2021_01_workspace_RZA2M_ANPR/ANPR_RZA2M_GR_MANGO/src/tensorflow_lite/tensorflow/lite/kernels/internal\types.h ****       ++data;
 270:C:/Renesas/e2studio_2021_01_workspace_RZA2M_ANPR/ANPR_RZA2M_GR_MANGO/src/tensorflow_lite/tensorflow/lite/kernels/internal\types.h ****     }
 271:C:/Renesas/e2studio_2021_01_workspace_RZA2M_ANPR/ANPR_RZA2M_GR_MANGO/src/tensorflow_lite/tensorflow/lite/kernels/internal\types.h ****   }
 272:C:/Renesas/e2studio_2021_01_workspace_RZA2M_ANPR/ANPR_RZA2M_GR_MANGO/src/tensorflow_lite/tensorflow/lite/kernels/internal\types.h **** 
 273:C:/Renesas/e2studio_2021_01_workspace_RZA2M_ANPR/ANPR_RZA2M_GR_MANGO/src/tensorflow_lite/tensorflow/lite/kernels/internal\types.h ****   // This will probably be factored out. Old code made substantial use of 4-D
 274:C:/Renesas/e2studio_2021_01_workspace_RZA2M_ANPR/ANPR_RZA2M_GR_MANGO/src/tensorflow_lite/tensorflow/lite/kernels/internal\types.h ****   // shapes, and so this function is used to extend smaller shapes. Note that
 275:C:/Renesas/e2studio_2021_01_workspace_RZA2M_ANPR/ANPR_RZA2M_GR_MANGO/src/tensorflow_lite/tensorflow/lite/kernels/internal\types.h ****   // (a) as Dims<4>-dependent code is eliminated, the reliance on this should be
 276:C:/Renesas/e2studio_2021_01_workspace_RZA2M_ANPR/ANPR_RZA2M_GR_MANGO/src/tensorflow_lite/tensorflow/lite/kernels/internal\types.h ****   // reduced, and (b) some kernels are stricly 4-D, but then the shapes of their
 277:C:/Renesas/e2studio_2021_01_workspace_RZA2M_ANPR/ANPR_RZA2M_GR_MANGO/src/tensorflow_lite/tensorflow/lite/kernels/internal\types.h ****   // inputs should already be 4-D, so this function should not be needed.
 278:C:/Renesas/e2studio_2021_01_workspace_RZA2M_ANPR/ANPR_RZA2M_GR_MANGO/src/tensorflow_lite/tensorflow/lite/kernels/internal\types.h ****   inline static RuntimeShape ExtendedShape(int new_shape_size,
 279:C:/Renesas/e2studio_2021_01_workspace_RZA2M_ANPR/ANPR_RZA2M_GR_MANGO/src/tensorflow_lite/tensorflow/lite/kernels/internal\types.h ****                                            const RuntimeShape& shape) {
 280:C:/Renesas/e2studio_2021_01_workspace_RZA2M_ANPR/ANPR_RZA2M_GR_MANGO/src/tensorflow_lite/tensorflow/lite/kernels/internal\types.h ****     return RuntimeShape(new_shape_size, shape, 1);
 281:C:/Renesas/e2studio_2021_01_workspace_RZA2M_ANPR/ANPR_RZA2M_GR_MANGO/src/tensorflow_lite/tensorflow/lite/kernels/internal\types.h ****   }
 282:C:/Renesas/e2studio_2021_01_workspace_RZA2M_ANPR/ANPR_RZA2M_GR_MANGO/src/tensorflow_lite/tensorflow/lite/kernels/internal\types.h **** 
 283:C:/Renesas/e2studio_2021_01_workspace_RZA2M_ANPR/ANPR_RZA2M_GR_MANGO/src/tensorflow_lite/tensorflow/lite/kernels/internal\types.h ****   inline void BuildFrom(const std::initializer_list<int> init_list) {
 284:C:/Renesas/e2studio_2021_01_workspace_RZA2M_ANPR/ANPR_RZA2M_GR_MANGO/src/tensorflow_lite/tensorflow/lite/kernels/internal\types.h ****     BuildFrom<const std::initializer_list<int>>(init_list);
 285:C:/Renesas/e2studio_2021_01_workspace_RZA2M_ANPR/ANPR_RZA2M_GR_MANGO/src/tensorflow_lite/tensorflow/lite/kernels/internal\types.h ****   }
 286:C:/Renesas/e2studio_2021_01_workspace_RZA2M_ANPR/ANPR_RZA2M_GR_MANGO/src/tensorflow_lite/tensorflow/lite/kernels/internal\types.h **** 
 287:C:/Renesas/e2studio_2021_01_workspace_RZA2M_ANPR/ANPR_RZA2M_GR_MANGO/src/tensorflow_lite/tensorflow/lite/kernels/internal\types.h ****   // Returns the total count of elements, that is the size when flattened into a
 288:C:/Renesas/e2studio_2021_01_workspace_RZA2M_ANPR/ANPR_RZA2M_GR_MANGO/src/tensorflow_lite/tensorflow/lite/kernels/internal\types.h ****   // vector.
 289:C:/Renesas/e2studio_2021_01_workspace_RZA2M_ANPR/ANPR_RZA2M_GR_MANGO/src/tensorflow_lite/tensorflow/lite/kernels/internal\types.h ****   inline int FlatSize() const {
 290:C:/Renesas/e2studio_2021_01_workspace_RZA2M_ANPR/ANPR_RZA2M_GR_MANGO/src/tensorflow_lite/tensorflow/lite/kernels/internal\types.h ****     int buffer_size = 1;
 291:C:/Renesas/e2studio_2021_01_workspace_RZA2M_ANPR/ANPR_RZA2M_GR_MANGO/src/tensorflow_lite/tensorflow/lite/kernels/internal\types.h ****     const int* dims_data = reinterpret_cast<const int*>(DimsData());
 292:C:/Renesas/e2studio_2021_01_workspace_RZA2M_ANPR/ANPR_RZA2M_GR_MANGO/src/tensorflow_lite/tensorflow/lite/kernels/internal\types.h ****     for (int i = 0; i < size_; i++) {
 617              		.loc 4 292 0
 618 0518 000051E3 		cmp	r1, #0
 619              	.LBE510:
 620              	.LBB511:
 621              	.LBB507:
 232:C:/Renesas/e2studio_2021_01_workspace_RZA2M_ANPR/ANPR_RZA2M_GR_MANGO/src/tensorflow_lite/tensorflow/lite/kernels/internal\types.h ****   }
 622              		.loc 4 232 0
 623 051c 3C208DC2 		addgt	r2, sp, #60
 624              	.LBE507:
 625              	.LBE511:
 626              	.LBB512:
 627              		.loc 4 292 0
 628 0520 4A0200DA 		ble	.L190
 629              	.L97:
 630 0524 010051E3 		cmp	r1, #1
 631 0528 5231A0E7 		sbfx	r3, r2, #2, #1
 632 052c 0160A0A1 		movge	r6, r1
 633 0530 0160A0B3 		movlt	r6, #1
 634 0534 033003E2 		and	r3, r3, #3
 635 0538 060053E1 		cmp	r3, r6
 636 053c 0630A021 		movcs	r3, r6
 637 0540 080056E3 		cmp	r6, #8
 638              	.LBE512:
 639              	.LBB513:
 640              	.LBB508:
 232:C:/Renesas/e2studio_2021_01_workspace_RZA2M_ANPR/ANPR_RZA2M_GR_MANGO/src/tensorflow_lite/tensorflow/lite/kernels/internal\types.h ****   }
 641              		.loc 4 232 0
 642 0544 0630A0D1 		movle	r3, r6
 643 0548 0D0200CA 		bgt	.L191
 644              	.L32:
 645 054c 010053E3 		cmp	r3, #1
 646              	.LBE508:
 647              	.LBE513:
 648              	.LBB514:
 293:C:/Renesas/e2studio_2021_01_workspace_RZA2M_ANPR/ANPR_RZA2M_GR_MANGO/src/tensorflow_lite/tensorflow/lite/kernels/internal\types.h ****       buffer_size *= dims_data[i];
 649              		.loc 4 293 0
 650 0550 004092E5 		ldr	r4, [r2]
 651              	.LVL84:
 652 0554 2801000A 		beq	.L112
 653 0558 040092E5 		ldr	r0, [r2, #4]
 654 055c 020053E3 		cmp	r3, #2
 655 0560 900404E0 		mul	r4, r0, r4
 656              	.LVL85:
 657 0564 2401000A 		beq	.L112
 658 0568 080092E5 		ldr	r0, [r2, #8]
 659 056c 030053E3 		cmp	r3, #3
 660 0570 900404E0 		mul	r4, r0, r4
 661              	.LVL86:
 662 0574 2001000A 		beq	.L112
 663 0578 0C0092E5 		ldr	r0, [r2, #12]
 664 057c 040053E3 		cmp	r3, #4
 665 0580 900404E0 		mul	r4, r0, r4
 666              	.LVL87:
 667 0584 1C01000A 		beq	.L112
 668 0588 100092E5 		ldr	r0, [r2, #16]
 669 058c 050053E3 		cmp	r3, #5
 670 0590 900404E0 		mul	r4, r0, r4
 671              	.LVL88:
 672 0594 1801000A 		beq	.L112
 673 0598 140092E5 		ldr	r0, [r2, #20]
 674 059c 060053E3 		cmp	r3, #6
 675 05a0 900404E0 		mul	r4, r0, r4
 676              	.LVL89:
 677 05a4 1401000A 		beq	.L112
 678 05a8 180092E5 		ldr	r0, [r2, #24]
 679 05ac 070053E3 		cmp	r3, #7
 680 05b0 900404E0 		mul	r4, r0, r4
 681              	.LVL90:
 682 05b4 1001000A 		beq	.L112
 683 05b8 1CC092E5 		ldr	ip, [r2, #28]
 292:C:/Renesas/e2studio_2021_01_workspace_RZA2M_ANPR/ANPR_RZA2M_GR_MANGO/src/tensorflow_lite/tensorflow/lite/kernels/internal\types.h ****       buffer_size *= dims_data[i];
 684              		.loc 4 292 0
 685 05bc 0800A0E3 		mov	r0, #8
 686              		.loc 4 293 0
 687 05c0 9C0404E0 		mul	r4, ip, r4
 688              	.LVL91:
 689              	.L34:
 690 05c4 030056E1 		cmp	r6, r3
 691 05c8 2A00000A 		beq	.L35
 692              	.LVL92:
 693              	.L33:
 694 05cc 000051E3 		cmp	r1, #0
 695 05d0 036046E0 		sub	r6, r6, r3
 696 05d4 01E041C2 		subgt	lr, r1, #1
 697 05d8 00E0A0D3 		movle	lr, #0
 698 05dc 04C046E2 		sub	ip, r6, #4
 699 05e0 2CC1A0E1 		lsr	ip, ip, #2
 700 05e4 03E04EE0 		sub	lr, lr, r3
 701 05e8 02005EE3 		cmp	lr, #2
 702 05ec 01C08CE2 		add	ip, ip, #1
 703 05f0 0C51A0E1 		lsl	r5, ip, #2
 704 05f4 1200009A 		bls	.L36
 705 05f8 033182E0 		add	r3, r2, r3, lsl #2
 292:C:/Renesas/e2studio_2021_01_workspace_RZA2M_ANPR/ANPR_RZA2M_GR_MANGO/src/tensorflow_lite/tensorflow/lite/kernels/internal\types.h ****       buffer_size *= dims_data[i];
 706              		.loc 4 292 0
 707 05fc 5100C0F2 		vmov.i32	q8, #1  @ v4si
 708 0600 00E0A0E3 		mov	lr, #0
 709              	.L38:
 710 0604 01E08EE2 		add	lr, lr, #1
 711              		.loc 4 293 0
 712 0608 DF2A63F4 		vld1.64	{d18-d19}, [r3:64]
 713 060c 0E005CE1 		cmp	ip, lr
 714 0610 103083E2 		add	r3, r3, #16
 715 0614 F20960F2 		vmul.i32	q8, q8, q9
 716 0618 F9FFFF8A 		bhi	.L38
 717 061c 050056E1 		cmp	r6, r5
 718 0620 050080E0 		add	r0, r0, r5
 719 0624 5020C0F2 		vmov.i32	q9, #0  @ v4si
 720 0628 E248F0F2 		vext.32	q10, q8, q9, #2
 721 062c F40960F2 		vmul.i32	q8, q8, q10
 722 0630 E224F0F2 		vext.32	q9, q8, q9, #1
 723 0634 F20960F2 		vmul.i32	q8, q8, q9
 724 0638 903B10EE 		vmov.32	r3, d16[0]
 725 063c 930404E0 		mul	r4, r3, r4
 726 0640 0C00000A 		beq	.L35
 727              	.L36:
 728              	.LVL93:
 729 0644 00C192E7 		ldr	ip, [r2, r0, lsl #2]
 292:C:/Renesas/e2studio_2021_01_workspace_RZA2M_ANPR/ANPR_RZA2M_GR_MANGO/src/tensorflow_lite/tensorflow/lite/kernels/internal\types.h ****       buffer_size *= dims_data[i];
 730              		.loc 4 292 0
 731 0648 013080E2 		add	r3, r0, #1
 732 064c 010053E1 		cmp	r3, r1
 733              		.loc 4 293 0
 734 0650 0031A0E1 		lsl	r3, r0, #2
 735 0654 9C0404E0 		mul	r4, ip, r4
 736              	.LVL94:
 292:C:/Renesas/e2studio_2021_01_workspace_RZA2M_ANPR/ANPR_RZA2M_GR_MANGO/src/tensorflow_lite/tensorflow/lite/kernels/internal\types.h ****       buffer_size *= dims_data[i];
 737              		.loc 4 292 0
 738 0658 060000AA 		bge	.L35
 739              		.loc 4 293 0
 740 065c 032082E0 		add	r2, r2, r3
 292:C:/Renesas/e2studio_2021_01_workspace_RZA2M_ANPR/ANPR_RZA2M_GR_MANGO/src/tensorflow_lite/tensorflow/lite/kernels/internal\types.h ****       buffer_size *= dims_data[i];
 741              		.loc 4 292 0
 742 0660 020080E2 		add	r0, r0, #2
 743              		.loc 4 293 0
 744 0664 043092E5 		ldr	r3, [r2, #4]
 292:C:/Renesas/e2studio_2021_01_workspace_RZA2M_ANPR/ANPR_RZA2M_GR_MANGO/src/tensorflow_lite/tensorflow/lite/kernels/internal\types.h ****       buffer_size *= dims_data[i];
 745              		.loc 4 292 0
 746 0668 010050E1 		cmp	r0, r1
 747              		.loc 4 293 0
 748 066c 930404E0 		mul	r4, r3, r4
 749              	.LVL95:
 292:C:/Renesas/e2studio_2021_01_workspace_RZA2M_ANPR/ANPR_RZA2M_GR_MANGO/src/tensorflow_lite/tensorflow/lite/kernels/internal\types.h ****       buffer_size *= dims_data[i];
 750              		.loc 4 292 0
 751              		.loc 4 293 0
 752 0670 083092B5 		ldrlt	r3, [r2, #8]
 753 0674 930404B0 		mullt	r4, r3, r4
 754              	.LVL96:
 755              	.L35:
 756              	.LBE514:
 757              	.LBE504:
 758              	.LBE503:
  74:../src/tensorflow_lite/tensorflow/lite/micro/kernels/pad.cc ****                     output->dims->size * 2);
 759              		.loc 1 74 0
 760 0678 20309DE5 		ldr	r3, [sp, #32]
 761              	.LBB522:
 762              	.LBB523:
 203:C:/Renesas/e2studio_2021_01_workspace_RZA2M_ANPR/ANPR_RZA2M_GR_MANGO/src/tensorflow_lite/tensorflow/lite/kernels/internal\types.h **** #ifdef TF_LITE_STATIC_MEMORY
 763              		.loc 4 203 0
 764 067c 050051E3 		cmp	r1, #5
 765              	.LBE523:
 766              	.LBE522:
  74:../src/tensorflow_lite/tensorflow/lite/micro/kernels/pad.cc ****                     output->dims->size * 2);
 767              		.loc 1 74 0
 768 0680 083093E5 		ldr	r3, [r3, #8]
 769 0684 005093E5 		ldr	r5, [r3]
 770 0688 8550A0E1 		lsl	r5, r5, #1
 771              	.LVL97:
 772              	.LBB525:
 773              	.LBB524:
 203:C:/Renesas/e2studio_2021_01_workspace_RZA2M_ANPR/ANPR_RZA2M_GR_MANGO/src/tensorflow_lite/tensorflow/lite/kernels/internal\types.h **** #ifdef TF_LITE_STATIC_MEMORY
 774              		.loc 4 203 0
 775 068c 030000DA 		ble	.L42
 207:C:/Renesas/e2studio_2021_01_workspace_RZA2M_ANPR/ANPR_RZA2M_GR_MANGO/src/tensorflow_lite/tensorflow/lite/kernels/internal\types.h **** #endif  // TF_LITE_STATIC_MEMORY
 776              		.loc 4 207 0
 777 0690 3C009DE5 		ldr	r0, [sp, #60]
 778 0694 000050E3 		cmp	r0, #0
 779 0698 0000000A 		beq	.L42
 780 069c FEFFFFEB 		bl	_ZdaPv
 781              	.LVL98:
 782              	.L42:
 783              	.LBE524:
 784              	.LBE525:
  74:../src/tensorflow_lite/tensorflow/lite/micro/kernels/pad.cc ****                     output->dims->size * 2);
 785              		.loc 1 74 0
 786 06a0 040055E1 		cmp	r5, r4
 787              	.LBB526:
 788              	.LBB527:
  39:C:/Renesas/e2studio_2021_01_workspace_RZA2M_ANPR/ANPR_RZA2M_GR_MANGO/src/tensorflow_lite/tensorflow/lite/kernels/internal\tensor_ctypes.h ****   const int dims_size = dims->size;
 789              		.loc 3 39 0
 790 06a4 28309DE5 		ldr	r3, [sp, #40]
 791              	.LBE527:
 792              	.LBE526:
  74:../src/tensorflow_lite/tensorflow/lite/micro/kernels/pad.cc ****                     output->dims->size * 2);
 793              		.loc 1 74 0
 794 06a8 D500000A 		beq	.L43
 795              	.LBB544:
 796              	.LBB540:
  39:C:/Renesas/e2studio_2021_01_workspace_RZA2M_ANPR/ANPR_RZA2M_GR_MANGO/src/tensorflow_lite/tensorflow/lite/kernels/internal\tensor_ctypes.h ****   const int dims_size = dims->size;
 797              		.loc 3 39 0 discriminator 1
 798 06ac 086093E5 		ldr	r6, [r3, #8]
 799              	.LBE540:
 800              	.LBE544:
  74:../src/tensorflow_lite/tensorflow/lite/micro/kernels/pad.cc ****                     output->dims->size * 2);
 801              		.loc 1 74 0 discriminator 1
 802 06b0 18309DE5 		ldr	r3, [sp, #24]
 803              	.LBB545:
 804              	.LBB541:
 805              		.loc 3 40 0 discriminator 1
 806 06b4 002096E5 		ldr	r2, [r6]
 807              	.LBE541:
 808              	.LBE545:
  74:../src/tensorflow_lite/tensorflow/lite/micro/kernels/pad.cc ****                     output->dims->size * 2);
 809              		.loc 1 74 0 discriminator 1
 810 06b8 145093E5 		ldr	r5, [r3, #20]
 811              	.LVL99:
 812              	.LBB546:
 813              	.LBB542:
 814              	.LBB528:
 815              	.LBB529:
 816              	.LBB530:
 817              	.LBB531:
 818              	.LBB532:
 246:C:/Renesas/e2studio_2021_01_workspace_RZA2M_ANPR/ANPR_RZA2M_GR_MANGO/src/tensorflow_lite/tensorflow/lite/kernels/internal\types.h **** #ifdef TF_LITE_STATIC_MEMORY
 819              		.loc 4 246 0 discriminator 1
 820 06bc 050052E3 		cmp	r2, #5
 245:C:/Renesas/e2studio_2021_01_workspace_RZA2M_ANPR/ANPR_RZA2M_GR_MANGO/src/tensorflow_lite/tensorflow/lite/kernels/internal\types.h ****     if (dimensions_count > kMaxSmallSize) {
 821              		.loc 4 245 0 discriminator 1
 822 06c0 50208DE5 		str	r2, [sp, #80]
 246:C:/Renesas/e2studio_2021_01_workspace_RZA2M_ANPR/ANPR_RZA2M_GR_MANGO/src/tensorflow_lite/tensorflow/lite/kernels/internal\types.h **** #ifdef TF_LITE_STATIC_MEMORY
 823              		.loc 4 246 0 discriminator 1
 824 06c4 B30100DA 		ble	.L44
 825              	.LVL100:
 826              	.LBB533:
 827              	.LBB534:
 250:C:/Renesas/e2studio_2021_01_workspace_RZA2M_ANPR/ANPR_RZA2M_GR_MANGO/src/tensorflow_lite/tensorflow/lite/kernels/internal\types.h **** #endif  // TF_LITE_STATIC_MEMORY
 828              		.loc 4 250 0
 829 06c8 2E0272E3 		cmn	r2, #-536870910
 830 06cc 5D0200CA 		bgt	.L30
 831 06d0 0241A0E1 		lsl	r4, r2, #2
 832 06d4 0400A0E1 		mov	r0, r4
 833 06d8 FEFFFFEB 		bl	_Znaj
 834              	.LVL101:
 835              	.LEHE0:
 836 06dc 54008DE5 		str	r0, [sp, #84]
 837              	.LVL102:
 838              	.L45:
 839              	.LBE534:
 840              	.LBE533:
 841              	.LBE532:
 842              	.LBE531:
 258:C:/Renesas/e2studio_2021_01_workspace_RZA2M_ANPR/ANPR_RZA2M_GR_MANGO/src/tensorflow_lite/tensorflow/lite/kernels/internal\types.h ****   }
 843              		.loc 4 258 0
 844 06e0 0420A0E1 		mov	r2, r4
 845 06e4 041086E2 		add	r1, r6, #4
 846 06e8 FEFFFFEB 		bl	memcpy
 847              	.LVL103:
 848              	.LBE530:
 849              	.LBE529:
 850              	.LBE528:
 851              	.LBE542:
 852              	.LBE546:
 853              	.LBB547:
 854              	.LBB548:
 855              	.LBB549:
 856              	.LBB550:
 232:C:/Renesas/e2studio_2021_01_workspace_RZA2M_ANPR/ANPR_RZA2M_GR_MANGO/src/tensorflow_lite/tensorflow/lite/kernels/internal\types.h ****   }
 857              		.loc 4 232 0
 858 06ec 50409DE5 		ldr	r4, [sp, #80]
 859 06f0 050054E3 		cmp	r4, #5
 860 06f4 B80100DA 		ble	.L46
 861 06f8 54009DE5 		ldr	r0, [sp, #84]
 862              	.LVL104:
 863              	.L47:
 864 06fc 5031A0E7 		sbfx	r3, r0, #2, #1
 865 0700 033003E2 		and	r3, r3, #3
 866 0704 040053E1 		cmp	r3, r4
 867 0708 0430A021 		movcs	r3, r4
 868 070c 080054E3 		cmp	r4, #8
 869 0710 0430A0D1 		movle	r3, r4
 870 0714 C90100CA 		bgt	.L192
 871              	.L49:
 872 0718 010053E3 		cmp	r3, #1
 873              	.LBE550:
 874              	.LBE549:
 875              	.LBB552:
 876              		.loc 4 293 0
 877 071c 00A090E5 		ldr	r10, [r0]
 878              	.LVL105:
 879 0720 B101000A 		beq	.L121
 880 0724 042090E5 		ldr	r2, [r0, #4]
 881 0728 020053E3 		cmp	r3, #2
 882 072c 920A0AE0 		mul	r10, r2, r10
 883              	.LVL106:
 884 0730 AD01000A 		beq	.L121
 885 0734 082090E5 		ldr	r2, [r0, #8]
 886              	.LVL107:
 887 0738 030053E3 		cmp	r3, #3
 888 073c 920A0AE0 		mul	r10, r2, r10
 889              	.LVL108:
 890 0740 A901000A 		beq	.L121
 891 0744 0C2090E5 		ldr	r2, [r0, #12]
 892              	.LVL109:
 893 0748 040053E3 		cmp	r3, #4
 894 074c 920A0AE0 		mul	r10, r2, r10
 895              	.LVL110:
 896 0750 A501000A 		beq	.L121
 897 0754 102090E5 		ldr	r2, [r0, #16]
 898              	.LVL111:
 899 0758 050053E3 		cmp	r3, #5
 900 075c 920A0AE0 		mul	r10, r2, r10
 901              	.LVL112:
 902 0760 A101000A 		beq	.L121
 903 0764 142090E5 		ldr	r2, [r0, #20]
 904              	.LVL113:
 905 0768 060053E3 		cmp	r3, #6
 906 076c 920A0AE0 		mul	r10, r2, r10
 907              	.LVL114:
 908 0770 9D01000A 		beq	.L121
 909 0774 182090E5 		ldr	r2, [r0, #24]
 910              	.LVL115:
 911 0778 070053E3 		cmp	r3, #7
 912 077c 920A0AE0 		mul	r10, r2, r10
 913              	.LVL116:
 914 0780 9901000A 		beq	.L121
 915 0784 1C1090E5 		ldr	r1, [r0, #28]
 916              	.LVL117:
 292:C:/Renesas/e2studio_2021_01_workspace_RZA2M_ANPR/ANPR_RZA2M_GR_MANGO/src/tensorflow_lite/tensorflow/lite/kernels/internal\types.h ****       buffer_size *= dims_data[i];
 917              		.loc 4 292 0
 918 0788 0820A0E3 		mov	r2, #8
 919              		.loc 4 293 0
 920 078c 910A0AE0 		mul	r10, r1, r10
 921              	.LVL118:
 922              	.L51:
 923 0790 030054E1 		cmp	r4, r3
 924 0794 2800000A 		beq	.L48
 925              	.L50:
 926 0798 03E044E0 		sub	lr, r4, r3
 927 079c 01C044E2 		sub	ip, r4, #1
 928 07a0 04104EE2 		sub	r1, lr, #4
 929 07a4 03C04CE0 		sub	ip, ip, r3
 930 07a8 2111A0E1 		lsr	r1, r1, #2
 931 07ac 02005CE3 		cmp	ip, #2
 932 07b0 011081E2 		add	r1, r1, #1
 933 07b4 0161A0E1 		lsl	r6, r1, #2
 934 07b8 1200009A 		bls	.L53
 935 07bc 033180E0 		add	r3, r0, r3, lsl #2
 292:C:/Renesas/e2studio_2021_01_workspace_RZA2M_ANPR/ANPR_RZA2M_GR_MANGO/src/tensorflow_lite/tensorflow/lite/kernels/internal\types.h ****       buffer_size *= dims_data[i];
 936              		.loc 4 292 0
 937 07c0 5120C0F2 		vmov.i32	q9, #1  @ v4si
 938 07c4 00C0A0E3 		mov	ip, #0
 939              	.L55:
 940 07c8 01C08CE2 		add	ip, ip, #1
 941              		.loc 4 293 0
 942 07cc DF0A63F4 		vld1.64	{d16-d17}, [r3:64]
 943 07d0 0C0051E1 		cmp	r1, ip
 944 07d4 103083E2 		add	r3, r3, #16
 945 07d8 F02962F2 		vmul.i32	q9, q9, q8
 946 07dc F9FFFF8A 		bhi	.L55
 947 07e0 0E0056E1 		cmp	r6, lr
 948 07e4 062082E0 		add	r2, r2, r6
 949 07e8 5000C0F2 		vmov.i32	q8, #0  @ v4si
 950 07ec E048F2F2 		vext.32	q10, q9, q8, #2
 951 07f0 F22964F2 		vmul.i32	q9, q10, q9
 952 07f4 E004F2F2 		vext.32	q8, q9, q8, #1
 953 07f8 F20960F2 		vmul.i32	q8, q8, q9
 954 07fc 903B10EE 		vmov.32	r3, d16[0]
 955 0800 930A0AE0 		mul	r10, r3, r10
 956 0804 0C00000A 		beq	.L48
 957              	.L53:
 958 0808 021190E7 		ldr	r1, [r0, r2, lsl #2]
 959              	.LVL119:
 292:C:/Renesas/e2studio_2021_01_workspace_RZA2M_ANPR/ANPR_RZA2M_GR_MANGO/src/tensorflow_lite/tensorflow/lite/kernels/internal\types.h ****       buffer_size *= dims_data[i];
 960              		.loc 4 292 0
 961 080c 013082E2 		add	r3, r2, #1
 962 0810 030054E1 		cmp	r4, r3
 963              		.loc 4 293 0
 964 0814 0231A0E1 		lsl	r3, r2, #2
 965 0818 910A0AE0 		mul	r10, r1, r10
 966              	.LVL120:
 292:C:/Renesas/e2studio_2021_01_workspace_RZA2M_ANPR/ANPR_RZA2M_GR_MANGO/src/tensorflow_lite/tensorflow/lite/kernels/internal\types.h ****       buffer_size *= dims_data[i];
 967              		.loc 4 292 0
 968 081c 060000DA 		ble	.L48
 969              		.loc 4 293 0
 970 0820 033080E0 		add	r3, r0, r3
 292:C:/Renesas/e2studio_2021_01_workspace_RZA2M_ANPR/ANPR_RZA2M_GR_MANGO/src/tensorflow_lite/tensorflow/lite/kernels/internal\types.h ****       buffer_size *= dims_data[i];
 971              		.loc 4 292 0
 972 0824 022082E2 		add	r2, r2, #2
 973              		.loc 4 293 0
 974 0828 041093E5 		ldr	r1, [r3, #4]
 975              	.LVL121:
 292:C:/Renesas/e2studio_2021_01_workspace_RZA2M_ANPR/ANPR_RZA2M_GR_MANGO/src/tensorflow_lite/tensorflow/lite/kernels/internal\types.h ****       buffer_size *= dims_data[i];
 976              		.loc 4 292 0
 977 082c 040052E1 		cmp	r2, r4
 978              		.loc 4 293 0
 979 0830 910A0AE0 		mul	r10, r1, r10
 980              	.LVL122:
 292:C:/Renesas/e2studio_2021_01_workspace_RZA2M_ANPR/ANPR_RZA2M_GR_MANGO/src/tensorflow_lite/tensorflow/lite/kernels/internal\types.h ****       buffer_size *= dims_data[i];
 981              		.loc 4 292 0
 982              		.loc 4 293 0
 983 0834 083093B5 		ldrlt	r3, [r3, #8]
 984              	.LVL123:
 985 0838 930A0AB0 		mullt	r10, r3, r10
 986              	.LVL124:
 987              	.L48:
 988              	.LBE552:
 989              	.LBE548:
 990              	.LBE547:
  74:../src/tensorflow_lite/tensorflow/lite/micro/kernels/pad.cc ****                     output->dims->size * 2);
 991              		.loc 1 74 0
 992 083c 20309DE5 		ldr	r3, [sp, #32]
 993 0840 00E000E3 		movw	lr, #:lower16:.LC14
 994 0844 00E040E3 		movt	lr, #:upper16:.LC14
 995 0848 18009DE5 		ldr	r0, [sp, #24]
 996 084c 001000E3 		movw	r1, #:lower16:.LC2
 997 0850 082093E5 		ldr	r2, [r3, #8]
 998 0854 003000E3 		movw	r3, #:lower16:.LC15
 999 0858 003040E3 		movt	r3, #:upper16:.LC15
 1000 085c 001040E3 		movt	r1, #:upper16:.LC2
 1001 0860 00C092E5 		ldr	ip, [r2]
 1002 0864 002000E3 		movw	r2, #:lower16:.LC1
 1003 0868 08408DE8 		stm	sp, {r3, lr}
 1004 086c 002040E3 		movt	r2, #:upper16:.LC1
 1005 0870 08A08DE5 		str	r10, [sp, #8]
 1006 0874 4B30A0E3 		mov	r3, #75
 1007 0878 8CC0A0E1 		lsl	ip, ip, #1
 1008 087c 0CC08DE5 		str	ip, [sp, #12]
 1009              	.LEHB1:
 1010 0880 35FF2FE1 		blx	r5
 1011              	.LVL125:
 1012              	.LEHE1:
 1013              	.LBB559:
 1014              	.LBB560:
 203:C:/Renesas/e2studio_2021_01_workspace_RZA2M_ANPR/ANPR_RZA2M_GR_MANGO/src/tensorflow_lite/tensorflow/lite/kernels/internal\types.h **** #ifdef TF_LITE_STATIC_MEMORY
 1015              		.loc 4 203 0
 1016 0884 050054E3 		cmp	r4, #5
 1017 0888 030000DA 		ble	.L174
 207:C:/Renesas/e2studio_2021_01_workspace_RZA2M_ANPR/ANPR_RZA2M_GR_MANGO/src/tensorflow_lite/tensorflow/lite/kernels/internal\types.h **** #endif  // TF_LITE_STATIC_MEMORY
 1018              		.loc 4 207 0
 1019 088c 54009DE5 		ldr	r0, [sp, #84]
 1020 0890 000050E3 		cmp	r0, #0
 1021 0894 0000000A 		beq	.L174
 1022 0898 FEFFFFEB 		bl	_ZdaPv
 1023              	.LVL126:
 1024              	.L174:
 1025              	.LBE560:
 1026              	.LBE559:
 126:../src/tensorflow_lite/tensorflow/lite/micro/kernels/pad.cc ****                         static_cast<double>(constant_values->params.scale));
 1027              		.loc 1 126 0 discriminator 1
 1028 089c 0100A0E3 		mov	r0, #1
 1029 08a0 EDFDFFEA 		b	.L169
 1030              	.LVL127:
 1031              	.L187:
  68:../src/tensorflow_lite/tensorflow/lite/micro/kernels/pad.cc ****     // Ensure that constant_values is a scalar.
 1032              		.loc 1 68 0 discriminator 1
 1033 08a4 00E000E3 		movw	lr, #:lower16:.LC12
 1034 08a8 00C000E3 		movw	ip, #:lower16:.LC10
 1035 08ac 00E040E3 		movt	lr, #:upper16:.LC12
 1036 08b0 00C040E3 		movt	ip, #:upper16:.LC10
 1037 08b4 04E08DE5 		str	lr, [sp, #4]
 1038 08b8 002000E3 		movw	r2, #:lower16:.LC1
 1039 08bc 18E09DE5 		ldr	lr, [sp, #24]
 1040 08c0 001000E3 		movw	r1, #:lower16:.LC2
 1041 08c4 0C008DE5 		str	r0, [sp, #12]
 1042 08c8 002040E3 		movt	r2, #:upper16:.LC1
 1043 08cc 08308DE5 		str	r3, [sp, #8]
 1044 08d0 001040E3 		movt	r1, #:upper16:.LC2
 1045 08d4 0E00A0E1 		mov	r0, lr
 1046 08d8 00C08DE5 		str	ip, [sp]
 1047 08dc 4430A0E3 		mov	r3, #68
 1048 08e0 14409EE5 		ldr	r4, [lr, #20]
 1049              	.LVL128:
 1050              	.LEHB2:
 1051 08e4 34FF2FE1 		blx	r4
 1052              	.LVL129:
 1053 08e8 0100A0E3 		mov	r0, #1
 1054 08ec DAFDFFEA 		b	.L169
 1055              	.LVL130:
 1056              	.L183:
  57:../src/tensorflow_lite/tensorflow/lite/micro/kernels/pad.cc ****   TfLiteTensor* output = GetOutput(context, node, /*index=*/0);
 1057              		.loc 1 57 0 discriminator 1
 1058 08f0 0220A0E3 		mov	r2, #2
 1059 08f4 0410A0E1 		mov	r1, r4
 1060 08f8 18009DE5 		ldr	r0, [sp, #24]
 1061              	.LVL131:
 1062 08fc FEFFFFEB 		bl	_ZN6tflite8GetInputEPK13TfLiteContextPK10TfLiteNodei
 1063              	.LVL132:
 1064 0900 24008DE5 		str	r0, [sp, #36]
 1065 0904 FFFDFFEA 		b	.L15
 1066              	.LVL133:
 1067              	.L186:
  64:../src/tensorflow_lite/tensorflow/lite/micro/kernels/pad.cc ****                               reference_ops::PadKernelMaxDimensionCount());
 1068              		.loc 1 64 0 discriminator 1
 1069 0908 003000E3 		movw	r3, #:lower16:.LC11
 1070 090c 002000E3 		movw	r2, #:lower16:.LC1
 1071 0910 003040E3 		movt	r3, #:upper16:.LC11
 1072 0914 001000E3 		movw	r1, #:lower16:.LC5
 1073 0918 00308DE5 		str	r3, [sp]
 1074 091c 002040E3 		movt	r2, #:upper16:.LC1
 1075 0920 18309DE5 		ldr	r3, [sp, #24]
 1076 0924 001040E3 		movt	r1, #:upper16:.LC5
 1077 0928 0300A0E1 		mov	r0, r3
 1078 092c 144093E5 		ldr	r4, [r3, #20]
 1079              	.LVL134:
 1080 0930 4130A0E3 		mov	r3, #65
 1081 0934 34FF2FE1 		blx	r4
 1082              	.LVL135:
 1083 0938 0100A0E3 		mov	r0, #1
 1084 093c C6FDFFEA 		b	.L169
 1085              	.LVL136:
 1086              	.L181:
  53:../src/tensorflow_lite/tensorflow/lite/micro/kernels/pad.cc ****   const TfLiteTensor* paddings = GetInput(context, node, /*index=*/1);
 1087              		.loc 1 53 0 discriminator 1
 1088 0940 003000E3 		movw	r3, #:lower16:.LC6
 1089 0944 002000E3 		movw	r2, #:lower16:.LC1
 1090 0948 003040E3 		movt	r3, #:upper16:.LC6
 1091 094c 001000E3 		movw	r1, #:lower16:.LC5
 1092 0950 00308DE5 		str	r3, [sp]
 1093 0954 002040E3 		movt	r2, #:upper16:.LC1
 1094 0958 18309DE5 		ldr	r3, [sp, #24]
 1095 095c 001040E3 		movt	r1, #:upper16:.LC5
 1096 0960 0300A0E1 		mov	r0, r3
 1097              	.LVL137:
 1098 0964 144093E5 		ldr	r4, [r3, #20]
 1099              	.LVL138:
 1100 0968 3530A0E3 		mov	r3, #53
 1101 096c 34FF2FE1 		blx	r4
 1102              	.LVL139:
 1103 0970 0A00A0E1 		mov	r0, r10
 1104 0974 B8FDFFEA 		b	.L169
 1105              	.LVL140:
 1106              	.L182:
  55:../src/tensorflow_lite/tensorflow/lite/micro/kernels/pad.cc ****   const TfLiteTensor* constant_values =
 1107              		.loc 1 55 0 discriminator 1
 1108 0978 003000E3 		movw	r3, #:lower16:.LC7
 1109 097c 002000E3 		movw	r2, #:lower16:.LC1
 1110 0980 003040E3 		movt	r3, #:upper16:.LC7
 1111 0984 001000E3 		movw	r1, #:lower16:.LC5
 1112 0988 00308DE5 		str	r3, [sp]
 1113 098c 002040E3 		movt	r2, #:upper16:.LC1
 1114 0990 18309DE5 		ldr	r3, [sp, #24]
 1115 0994 001040E3 		movt	r1, #:upper16:.LC5
 1116 0998 0300A0E1 		mov	r0, r3
 1117              	.LVL141:
 1118 099c 144093E5 		ldr	r4, [r3, #20]
 1119              	.LVL142:
 1120 09a0 3730A0E3 		mov	r3, #55
 1121 09a4 34FF2FE1 		blx	r4
 1122              	.LVL143:
 1123 09a8 0A00A0E1 		mov	r0, r10
 1124 09ac AAFDFFEA 		b	.L169
 1125              	.LVL144:
 1126              	.L184:
  59:../src/tensorflow_lite/tensorflow/lite/micro/kernels/pad.cc **** 
 1127              		.loc 1 59 0 discriminator 1
 1128 09b0 003000E3 		movw	r3, #:lower16:.LC8
 1129 09b4 002000E3 		movw	r2, #:lower16:.LC1
 1130 09b8 003040E3 		movt	r3, #:upper16:.LC8
 1131 09bc 001000E3 		movw	r1, #:lower16:.LC5
 1132 09c0 00308DE5 		str	r3, [sp]
 1133 09c4 002040E3 		movt	r2, #:upper16:.LC1
 1134 09c8 18309DE5 		ldr	r3, [sp, #24]
 1135 09cc 001040E3 		movt	r1, #:upper16:.LC5
 1136 09d0 0300A0E1 		mov	r0, r3
 1137              	.LVL145:
 1138 09d4 144093E5 		ldr	r4, [r3, #20]
 1139              	.LVL146:
 1140 09d8 3B30A0E3 		mov	r3, #59
 1141 09dc 34FF2FE1 		blx	r4
 1142              	.LVL147:
 1143 09e0 0100A0E3 		mov	r0, #1
 1144 09e4 9CFDFFEA 		b	.L169
 1145              	.LVL148:
 1146              	.L100:
 1147              	.LBB561:
 1148              	.LBB518:
 1149              	.LBB515:
 1150              	.LBB509:
 232:C:/Renesas/e2studio_2021_01_workspace_RZA2M_ANPR/ANPR_RZA2M_GR_MANGO/src/tensorflow_lite/tensorflow/lite/kernels/internal\types.h ****   }
 1151              		.loc 4 232 0
 1152 09e8 3C209DE5 		ldr	r2, [sp, #60]
 1153              	.LVL149:
 1154 09ec CCFEFFEA 		b	.L97
 1155              	.LVL150:
 1156              	.L29:
 1157 09f0 0241A0E1 		lsl	r4, r2, #2
 1158              	.LBE509:
 1159              	.LBE515:
 1160              	.LBE518:
 1161              	.LBE561:
 1162              	.LBB562:
 1163              	.LBB501:
 1164              	.LBB499:
 1165              	.LBB497:
 1166              	.LBB495:
 1167              	.LBB492:
 1168              	.LBB493:
 229:C:/Renesas/e2studio_2021_01_workspace_RZA2M_ANPR/ANPR_RZA2M_GR_MANGO/src/tensorflow_lite/tensorflow/lite/kernels/internal\types.h ****   }
 1169              		.loc 4 229 0
 1170 09f4 3C008DE2 		add	r0, sp, #60
 1171 09f8 C0FEFFEA 		b	.L31
 1172              	.LVL151:
 1173              	.L112:
 1174              	.LBE493:
 1175              	.LBE492:
 1176              	.LBE495:
 1177              	.LBE497:
 1178              	.LBE499:
 1179              	.LBE501:
 1180              	.LBE562:
 1181              	.LBB563:
 1182              	.LBB519:
 1183              	.LBB516:
 292:C:/Renesas/e2studio_2021_01_workspace_RZA2M_ANPR/ANPR_RZA2M_GR_MANGO/src/tensorflow_lite/tensorflow/lite/kernels/internal\types.h ****       buffer_size *= dims_data[i];
 1184              		.loc 4 292 0
 1185 09fc 0300A0E1 		mov	r0, r3
 1186 0a00 EFFEFFEA 		b	.L34
 1187              	.LVL152:
 1188              	.L43:
 1189              	.LBE516:
 1190              	.LBE519:
 1191              	.LBE563:
  80:../src/tensorflow_lite/tensorflow/lite/micro/kernels/pad.cc ****   const int32_t* paddings_data = GetTensorData<int32_t>(paddings);
 1192              		.loc 1 80 0
 1193 0a04 1430D3E5 		ldrb	r3, [r3, #20]	@ zero_extendqisi2
 1194 0a08 010053E3 		cmp	r3, #1
 1195 0a0c E400001A 		bne	.L193
 1196              	.LVL153:
 1197              	.LBB564:
  82:../src/tensorflow_lite/tensorflow/lite/micro/kernels/pad.cc ****     int output_dim = output->dims->data[i];
 1198              		.loc 1 82 0
 1199 0a10 20309DE5 		ldr	r3, [sp, #32]
 1200 0a14 08C093E5 		ldr	ip, [r3, #8]
 1201              	.LBE564:
 1202              	.LBB567:
 1203              	.LBB568:
  30:C:/Renesas/e2studio_2021_01_workspace_RZA2M_ANPR/ANPR_RZA2M_GR_MANGO/src/tensorflow_lite/tensorflow/lite/kernels/internal\tensor_ctypes.h ****                            : nullptr;
 1204              		.loc 3 30 0
 1205 0a18 28309DE5 		ldr	r3, [sp, #40]
 1206              	.LBE568:
 1207              	.LBE567:
 1208              	.LBB570:
  82:../src/tensorflow_lite/tensorflow/lite/micro/kernels/pad.cc ****     int output_dim = output->dims->data[i];
 1209              		.loc 1 82 0
 1210 0a1c 00509CE5 		ldr	r5, [ip]
 1211              	.LBE570:
 1212              	.LBB571:
 1213              	.LBB569:
  30:C:/Renesas/e2studio_2021_01_workspace_RZA2M_ANPR/ANPR_RZA2M_GR_MANGO/src/tensorflow_lite/tensorflow/lite/kernels/internal\tensor_ctypes.h ****                            : nullptr;
 1214              		.loc 3 30 0
 1215 0a20 047093E5 		ldr	r7, [r3, #4]
 1216              	.LVL154:
 1217              	.LBE569:
 1218              	.LBE571:
 1219              	.LBB572:
  82:../src/tensorflow_lite/tensorflow/lite/micro/kernels/pad.cc ****     int output_dim = output->dims->data[i];
 1220              		.loc 1 82 0
 1221 0a24 000055E3 		cmp	r5, #0
 1222 0a28 1A0000DA 		ble	.L61
 1223              	.LBB565:
  85:../src/tensorflow_lite/tensorflow/lite/micro/kernels/pad.cc ****     TF_LITE_ENSURE_EQ(context, output_dim, expected_dim);
 1224              		.loc 1 85 0
 1225 0a2c 1C309DE5 		ldr	r3, [sp, #28]
 1226 0a30 041097E5 		ldr	r1, [r7, #4]
  83:../src/tensorflow_lite/tensorflow/lite/micro/kernels/pad.cc ****     int expected_dim =
 1227              		.loc 1 83 0
 1228 0a34 04E09CE5 		ldr	lr, [ip, #4]
 1229              	.LVL155:
  85:../src/tensorflow_lite/tensorflow/lite/micro/kernels/pad.cc ****     TF_LITE_ENSURE_EQ(context, output_dim, expected_dim);
 1230              		.loc 1 85 0
 1231 0a38 084093E5 		ldr	r4, [r3, #8]
 1232 0a3c 003097E5 		ldr	r3, [r7]
 1233 0a40 042094E5 		ldr	r2, [r4, #4]
 1234 0a44 023083E0 		add	r3, r3, r2
 1235 0a48 013083E0 		add	r3, r3, r1
 1236              	.LVL156:
  86:../src/tensorflow_lite/tensorflow/lite/micro/kernels/pad.cc ****   }
 1237              		.loc 1 86 0
 1238 0a4c 0E0053E1 		cmp	r3, lr
 1239 0a50 08C08C02 		addeq	ip, ip, #8
 1240 0a54 08408402 		addeq	r4, r4, #8
 1241 0a58 0710A001 		moveq	r1, r7
 1242 0a5c 0000A003 		moveq	r0, #0
 1243 0a60 0900000A 		beq	.L64
 1244 0a64 E20000EA 		b	.L62
 1245              	.LVL157:
 1246              	.L65:
  85:../src/tensorflow_lite/tensorflow/lite/micro/kernels/pad.cc ****     TF_LITE_ENSURE_EQ(context, output_dim, expected_dim);
 1247              		.loc 1 85 0
 1248 0a68 086091E5 		ldr	r6, [r1, #8]
 1249 0a6c 081081E2 		add	r1, r1, #8
 1250 0a70 043094E4 		ldr	r3, [r4], #4
 1251              	.LVL158:
 1252 0a74 042091E5 		ldr	r2, [r1, #4]
  83:../src/tensorflow_lite/tensorflow/lite/micro/kernels/pad.cc ****     int expected_dim =
 1253              		.loc 1 83 0
 1254 0a78 04E09CE4 		ldr	lr, [ip], #4
 1255              	.LVL159:
  85:../src/tensorflow_lite/tensorflow/lite/micro/kernels/pad.cc ****     TF_LITE_ENSURE_EQ(context, output_dim, expected_dim);
 1256              		.loc 1 85 0
 1257 0a7c 063083E0 		add	r3, r3, r6
 1258              	.LVL160:
 1259 0a80 023083E0 		add	r3, r3, r2
 1260              	.LVL161:
  86:../src/tensorflow_lite/tensorflow/lite/micro/kernels/pad.cc ****   }
 1261              		.loc 1 86 0
 1262 0a84 03005EE1 		cmp	lr, r3
 1263 0a88 D900001A 		bne	.L62
 1264              	.LVL162:
 1265              	.L64:
 1266              	.LBE565:
  82:../src/tensorflow_lite/tensorflow/lite/micro/kernels/pad.cc ****     int output_dim = output->dims->data[i];
 1267              		.loc 1 82 0 discriminator 2
 1268 0a8c 010080E2 		add	r0, r0, #1
 1269              	.LVL163:
 1270 0a90 050050E1 		cmp	r0, r5
 1271 0a94 F3FFFF1A 		bne	.L65
 1272              	.LVL164:
 1273              	.L61:
 1274              	.LBE572:
 1275              	.LBB573:
 1276              	.LBB574:
  39:C:/Renesas/e2studio_2021_01_workspace_RZA2M_ANPR/ANPR_RZA2M_GR_MANGO/src/tensorflow_lite/tensorflow/lite/kernels/internal\tensor_ctypes.h ****   const int dims_size = dims->size;
 1277              		.loc 3 39 0
 1278 0a98 28309DE5 		ldr	r3, [sp, #40]
 1279 0a9c 085093E5 		ldr	r5, [r3, #8]
 1280              	.LBE574:
 1281              	.LBE573:
  90:../src/tensorflow_lite/tensorflow/lite/micro/kernels/pad.cc ****   const int paddings_total = GetTensorShape(paddings).FlatSize();
 1282              		.loc 1 90 0
 1283 0aa0 0230A0E3 		mov	r3, #2
 1284 0aa4 3030CBE5 		strb	r3, [fp, #48]
 1285              	.LVL165:
 1286              	.LBB589:
 1287              	.LBB587:
 1288              		.loc 3 40 0
 1289 0aa8 002095E5 		ldr	r2, [r5]
 1290              	.LVL166:
 1291              	.LBB575:
 1292              	.LBB576:
 1293              	.LBB577:
 1294              	.LBB578:
 1295              	.LBB579:
 246:C:/Renesas/e2studio_2021_01_workspace_RZA2M_ANPR/ANPR_RZA2M_GR_MANGO/src/tensorflow_lite/tensorflow/lite/kernels/internal\types.h **** #ifdef TF_LITE_STATIC_MEMORY
 1296              		.loc 4 246 0
 1297 0aac 050052E3 		cmp	r2, #5
 245:C:/Renesas/e2studio_2021_01_workspace_RZA2M_ANPR/ANPR_RZA2M_GR_MANGO/src/tensorflow_lite/tensorflow/lite/kernels/internal\types.h ****     if (dimensions_count > kMaxSmallSize) {
 1298              		.loc 4 245 0
 1299 0ab0 68208DE5 		str	r2, [sp, #104]
 246:C:/Renesas/e2studio_2021_01_workspace_RZA2M_ANPR/ANPR_RZA2M_GR_MANGO/src/tensorflow_lite/tensorflow/lite/kernels/internal\types.h **** #ifdef TF_LITE_STATIC_MEMORY
 1300              		.loc 4 246 0
 1301 0ab4 EB0000DA 		ble	.L66
 1302              	.LVL167:
 1303              	.LBB580:
 1304              	.LBB581:
 250:C:/Renesas/e2studio_2021_01_workspace_RZA2M_ANPR/ANPR_RZA2M_GR_MANGO/src/tensorflow_lite/tensorflow/lite/kernels/internal\types.h **** #endif  // TF_LITE_STATIC_MEMORY
 1305              		.loc 4 250 0
 1306 0ab8 2E0272E3 		cmn	r2, #-536870910
 1307 0abc 610100CA 		bgt	.L30
 1308 0ac0 1243A0E1 		lsl	r4, r2, r3
 1309 0ac4 0400A0E1 		mov	r0, r4
 1310 0ac8 FEFFFFEB 		bl	_Znaj
 1311              	.LVL168:
 1312 0acc 6C008DE5 		str	r0, [sp, #108]
 1313              	.LVL169:
 1314              	.L67:
 1315              	.LBE581:
 1316              	.LBE580:
 1317              	.LBE579:
 1318              	.LBE578:
 258:C:/Renesas/e2studio_2021_01_workspace_RZA2M_ANPR/ANPR_RZA2M_GR_MANGO/src/tensorflow_lite/tensorflow/lite/kernels/internal\types.h ****   }
 1319              		.loc 4 258 0
 1320 0ad0 041085E2 		add	r1, r5, #4
 1321 0ad4 0420A0E1 		mov	r2, r4
 1322 0ad8 FEFFFFEB 		bl	memcpy
 1323              	.LVL170:
 1324              	.LBE577:
 1325              	.LBE576:
 1326              	.LBE575:
 1327              	.LBE587:
 1328              	.LBE589:
 1329              	.LBB590:
 1330              	.LBB591:
 1331              	.LBB592:
 1332              	.LBB593:
 232:C:/Renesas/e2studio_2021_01_workspace_RZA2M_ANPR/ANPR_RZA2M_GR_MANGO/src/tensorflow_lite/tensorflow/lite/kernels/internal\types.h ****   }
 1333              		.loc 4 232 0
 1334 0adc 68109DE5 		ldr	r1, [sp, #104]
 1335 0ae0 050051E3 		cmp	r1, #5
 1336 0ae4 E20000DA 		ble	.L68
 1337 0ae8 6C209DE5 		ldr	r2, [sp, #108]
 1338              	.LVL171:
 1339              	.L99:
 1340 0aec 5231A0E7 		sbfx	r3, r2, #2, #1
 1341 0af0 033003E2 		and	r3, r3, #3
 1342 0af4 010053E1 		cmp	r3, r1
 1343 0af8 0130A021 		movcs	r3, r1
 1344 0afc 080051E3 		cmp	r1, #8
 1345 0b00 0130A091 		movls	r3, r1
 1346 0b04 000053E3 		cmp	r3, #0
 1347 0b08 DF00000A 		beq	.L122
 1348 0b0c 010053E3 		cmp	r3, #1
 1349              	.LBE593:
 1350              	.LBE592:
 1351              	.LBB595:
 1352              		.loc 4 293 0
 1353 0b10 004092E5 		ldr	r4, [r2]
 1354              	.LVL172:
 1355 0b14 1A00000A 		beq	.L71
 1356 0b18 040092E5 		ldr	r0, [r2, #4]
 1357 0b1c 020053E3 		cmp	r3, #2
 1358 0b20 900404E0 		mul	r4, r0, r4
 1359              	.LVL173:
 1360 0b24 D600000A 		beq	.L128
 1361 0b28 080092E5 		ldr	r0, [r2, #8]
 1362 0b2c 030053E3 		cmp	r3, #3
 1363 0b30 900404E0 		mul	r4, r0, r4
 1364              	.LVL174:
 1365 0b34 D200000A 		beq	.L128
 1366 0b38 0C0092E5 		ldr	r0, [r2, #12]
 1367 0b3c 040053E3 		cmp	r3, #4
 1368 0b40 900404E0 		mul	r4, r0, r4
 1369              	.LVL175:
 1370 0b44 CE00000A 		beq	.L128
 1371 0b48 100092E5 		ldr	r0, [r2, #16]
 1372 0b4c 050053E3 		cmp	r3, #5
 1373 0b50 900404E0 		mul	r4, r0, r4
 1374              	.LVL176:
 1375 0b54 CA00000A 		beq	.L128
 1376 0b58 140092E5 		ldr	r0, [r2, #20]
 1377 0b5c 060053E3 		cmp	r3, #6
 1378 0b60 900404E0 		mul	r4, r0, r4
 1379              	.LVL177:
 1380 0b64 C600000A 		beq	.L128
 1381 0b68 180092E5 		ldr	r0, [r2, #24]
 1382 0b6c 070053E3 		cmp	r3, #7
 1383 0b70 900404E0 		mul	r4, r0, r4
 1384              	.LVL178:
 1385 0b74 C200000A 		beq	.L128
 1386 0b78 1C0092E5 		ldr	r0, [r2, #28]
 292:C:/Renesas/e2studio_2021_01_workspace_RZA2M_ANPR/ANPR_RZA2M_GR_MANGO/src/tensorflow_lite/tensorflow/lite/kernels/internal\types.h ****       buffer_size *= dims_data[i];
 1387              		.loc 4 292 0
 1388 0b7c 08A0A0E3 		mov	r10, #8
 1389              		.loc 4 293 0
 1390 0b80 900404E0 		mul	r4, r0, r4
 1391              	.LVL179:
 1392              	.L71:
 1393 0b84 010053E1 		cmp	r3, r1
 1394 0b88 2800000A 		beq	.L72
 1395              	.LVL180:
 1396              	.L70:
 1397 0b8c 03E041E0 		sub	lr, r1, r3
 1398 0b90 01C041E2 		sub	ip, r1, #1
 1399 0b94 04004EE2 		sub	r0, lr, #4
 1400 0b98 03C04CE0 		sub	ip, ip, r3
 1401 0b9c 2001A0E1 		lsr	r0, r0, #2
 1402 0ba0 02005CE3 		cmp	ip, #2
 1403 0ba4 010080E2 		add	r0, r0, #1
 1404 0ba8 0051A0E1 		lsl	r5, r0, #2
 1405 0bac 1200009A 		bls	.L73
 1406 0bb0 033182E0 		add	r3, r2, r3, lsl #2
 292:C:/Renesas/e2studio_2021_01_workspace_RZA2M_ANPR/ANPR_RZA2M_GR_MANGO/src/tensorflow_lite/tensorflow/lite/kernels/internal\types.h ****       buffer_size *= dims_data[i];
 1407              		.loc 4 292 0
 1408 0bb4 5140C0F2 		vmov.i32	q10, #1  @ v4si
 1409 0bb8 00C0A0E3 		mov	ip, #0
 1410              	.L75:
 1411 0bbc 01C08CE2 		add	ip, ip, #1
 1412              		.loc 4 293 0
 1413 0bc0 DF0A63F4 		vld1.64	{d16-d17}, [r3:64]
 1414 0bc4 0C0050E1 		cmp	r0, ip
 1415 0bc8 103083E2 		add	r3, r3, #16
 1416 0bcc F04964F2 		vmul.i32	q10, q10, q8
 1417 0bd0 F9FFFF8A 		bhi	.L75
 1418 0bd4 0E0055E1 		cmp	r5, lr
 1419 0bd8 05A08AE0 		add	r10, r10, r5
 1420 0bdc 5000C0F2 		vmov.i32	q8, #0  @ v4si
 1421 0be0 E028F4F2 		vext.32	q9, q10, q8, #2
 1422 0be4 F42962F2 		vmul.i32	q9, q9, q10
 1423 0be8 E004F2F2 		vext.32	q8, q9, q8, #1
 1424 0bec F20960F2 		vmul.i32	q8, q8, q9
 1425 0bf0 903B10EE 		vmov.32	r3, d16[0]
 1426 0bf4 930404E0 		mul	r4, r3, r4
 1427 0bf8 0C00000A 		beq	.L72
 1428              	.L73:
 1429              	.LVL181:
 1430 0bfc 0A0192E7 		ldr	r0, [r2, r10, lsl #2]
 292:C:/Renesas/e2studio_2021_01_workspace_RZA2M_ANPR/ANPR_RZA2M_GR_MANGO/src/tensorflow_lite/tensorflow/lite/kernels/internal\types.h ****       buffer_size *= dims_data[i];
 1431              		.loc 4 292 0
 1432 0c00 01308AE2 		add	r3, r10, #1
 1433 0c04 030051E1 		cmp	r1, r3
 1434              		.loc 4 293 0
 1435 0c08 0A31A0E1 		lsl	r3, r10, #2
 1436 0c0c 900404E0 		mul	r4, r0, r4
 1437              	.LVL182:
 292:C:/Renesas/e2studio_2021_01_workspace_RZA2M_ANPR/ANPR_RZA2M_GR_MANGO/src/tensorflow_lite/tensorflow/lite/kernels/internal\types.h ****       buffer_size *= dims_data[i];
 1438              		.loc 4 292 0
 1439 0c10 060000DA 		ble	.L72
 1440              		.loc 4 293 0
 1441 0c14 032082E0 		add	r2, r2, r3
 292:C:/Renesas/e2studio_2021_01_workspace_RZA2M_ANPR/ANPR_RZA2M_GR_MANGO/src/tensorflow_lite/tensorflow/lite/kernels/internal\types.h ****       buffer_size *= dims_data[i];
 1442              		.loc 4 292 0
 1443 0c18 02A08AE2 		add	r10, r10, #2
 1444              		.loc 4 293 0
 1445 0c1c 043092E5 		ldr	r3, [r2, #4]
 292:C:/Renesas/e2studio_2021_01_workspace_RZA2M_ANPR/ANPR_RZA2M_GR_MANGO/src/tensorflow_lite/tensorflow/lite/kernels/internal\types.h ****       buffer_size *= dims_data[i];
 1446              		.loc 4 292 0
 1447 0c20 0A0051E1 		cmp	r1, r10
 1448              		.loc 4 293 0
 1449 0c24 930404E0 		mul	r4, r3, r4
 1450              	.LVL183:
 1451 0c28 083092C5 		ldrgt	r3, [r2, #8]
 1452 0c2c 930404C0 		mulgt	r4, r3, r4
 1453              	.LVL184:
 1454              	.L72:
 1455              	.LBE595:
 1456              	.LBE591:
 1457              	.LBE590:
 1458              	.LBB600:
 1459              	.LBB601:
 203:C:/Renesas/e2studio_2021_01_workspace_RZA2M_ANPR/ANPR_RZA2M_GR_MANGO/src/tensorflow_lite/tensorflow/lite/kernels/internal\types.h **** #ifdef TF_LITE_STATIC_MEMORY
 1460              		.loc 4 203 0
 1461 0c30 050051E3 		cmp	r1, #5
 1462 0c34 030000DA 		ble	.L79
 207:C:/Renesas/e2studio_2021_01_workspace_RZA2M_ANPR/ANPR_RZA2M_GR_MANGO/src/tensorflow_lite/tensorflow/lite/kernels/internal\types.h **** #endif  // TF_LITE_STATIC_MEMORY
 1463              		.loc 4 207 0
 1464 0c38 6C009DE5 		ldr	r0, [sp, #108]
 1465 0c3c 000050E3 		cmp	r0, #0
 1466 0c40 0000000A 		beq	.L79
 1467 0c44 FEFFFFEB 		bl	_ZdaPv
 1468              	.LVL185:
 1469              	.L79:
 1470              	.LBE601:
 1471              	.LBE600:
  92:../src/tensorflow_lite/tensorflow/lite/micro/kernels/pad.cc ****       (paddings_data[6] == 0 && paddings_data[7] == 0)) {
 1472              		.loc 1 92 0
 1473 0c48 080054E3 		cmp	r4, #8
 1474 0c4c 9100000A 		beq	.L194
 1475              	.L80:
 1476              	.LVL186:
 1477              	.LBB602:
 1478              	.LBB603:
 147:C:/Renesas/e2studio_2021_01_workspace_RZA2M_ANPR/ANPR_RZA2M_GR_MANGO/src/tensorflow_lite/tensorflow/lite/kernels\kernel_util.h **** inline int SizeOfDimension(const TfLiteTensor* t, int dim) {
 1479              		.loc 2 147 0
 1480 0c50 1C309DE5 		ldr	r3, [sp, #28]
 1481 0c54 083093E5 		ldr	r3, [r3, #8]
 1482 0c58 003093E5 		ldr	r3, [r3]
 1483              	.LVL187:
 1484              	.LBE603:
 1485              	.LBE602:
 1486              	.LBB604:
 101:../src/tensorflow_lite/tensorflow/lite/micro/kernels/pad.cc ****     data->params.left_padding[idx] = paddings_data[idx * 2];
 1487              		.loc 1 101 0
 1488 0c5c 012053E2 		subs	r2, r3, #1
 1489              	.LVL188:
 1490              	.LBE604:
  98:../src/tensorflow_lite/tensorflow/lite/micro/kernels/pad.cc ****   data->params.right_padding_count = num_input_dimensions;
 1491              		.loc 1 98 0
 1492 0c60 7310AFE6 		sxtb	r1, r3
 1493 0c64 0010CBE5 		strb	r1, [fp]
  99:../src/tensorflow_lite/tensorflow/lite/micro/kernels/pad.cc **** 
 1494              		.loc 1 99 0
 1495 0c68 1810CBE5 		strb	r1, [fp, #24]
 1496              	.LBB605:
 101:../src/tensorflow_lite/tensorflow/lite/micro/kernels/pad.cc ****     data->params.left_padding[idx] = paddings_data[idx * 2];
 1497              		.loc 1 101 0
 1498 0c6c 2500004A 		bmi	.L83
 102:../src/tensorflow_lite/tensorflow/lite/micro/kernels/pad.cc ****     data->params.right_padding[idx] = paddings_data[idx * 2 + 1];
 1499              		.loc 1 102 0
 1500 0c70 820197E7 		ldr	r0, [r7, r2, lsl #3]
 103:../src/tensorflow_lite/tensorflow/lite/micro/kernels/pad.cc ****   }
 1501              		.loc 1 103 0
 1502 0c74 827187E0 		add	r7, r7, r2, lsl #3
 1503 0c78 02218BE0 		add	r2, fp, r2, lsl #2
 1504              	.LVL189:
 101:../src/tensorflow_lite/tensorflow/lite/micro/kernels/pad.cc ****     data->params.left_padding[idx] = paddings_data[idx * 2];
 1505              		.loc 1 101 0
 1506 0c7c 021043E2 		sub	r1, r3, #2
 1507              	.LVL190:
 1508 0c80 010071E3 		cmn	r1, #1
 102:../src/tensorflow_lite/tensorflow/lite/micro/kernels/pad.cc ****     data->params.right_padding[idx] = paddings_data[idx * 2 + 1];
 1509              		.loc 1 102 0
 1510 0c84 040082E5 		str	r0, [r2, #4]
 103:../src/tensorflow_lite/tensorflow/lite/micro/kernels/pad.cc ****   }
 1511              		.loc 1 103 0
 1512 0c88 040097E5 		ldr	r0, [r7, #4]
 1513 0c8c 1C0082E5 		str	r0, [r2, #28]
 101:../src/tensorflow_lite/tensorflow/lite/micro/kernels/pad.cc ****     data->params.left_padding[idx] = paddings_data[idx * 2];
 1514              		.loc 1 101 0
 1515 0c90 1C00000A 		beq	.L83
 102:../src/tensorflow_lite/tensorflow/lite/micro/kernels/pad.cc ****     data->params.right_padding[idx] = paddings_data[idx * 2 + 1];
 1516              		.loc 1 102 0
 1517 0c94 080017E5 		ldr	r0, [r7, #-8]
 1518 0c98 01218BE0 		add	r2, fp, r1, lsl #2
 101:../src/tensorflow_lite/tensorflow/lite/micro/kernels/pad.cc ****     data->params.left_padding[idx] = paddings_data[idx * 2];
 1519              		.loc 1 101 0
 1520 0c9c 031043E2 		sub	r1, r3, #3
 1521              	.LVL191:
 1522 0ca0 010071E3 		cmn	r1, #1
 102:../src/tensorflow_lite/tensorflow/lite/micro/kernels/pad.cc ****     data->params.right_padding[idx] = paddings_data[idx * 2 + 1];
 1523              		.loc 1 102 0
 1524 0ca4 040082E5 		str	r0, [r2, #4]
 103:../src/tensorflow_lite/tensorflow/lite/micro/kernels/pad.cc ****   }
 1525              		.loc 1 103 0
 1526 0ca8 040017E5 		ldr	r0, [r7, #-4]
 1527 0cac 1C0082E5 		str	r0, [r2, #28]
 101:../src/tensorflow_lite/tensorflow/lite/micro/kernels/pad.cc ****     data->params.left_padding[idx] = paddings_data[idx * 2];
 1528              		.loc 1 101 0
 1529 0cb0 1400000A 		beq	.L83
 102:../src/tensorflow_lite/tensorflow/lite/micro/kernels/pad.cc ****     data->params.right_padding[idx] = paddings_data[idx * 2 + 1];
 1530              		.loc 1 102 0
 1531 0cb4 100017E5 		ldr	r0, [r7, #-16]
 1532 0cb8 01118BE0 		add	r1, fp, r1, lsl #2
 1533              	.LVL192:
 101:../src/tensorflow_lite/tensorflow/lite/micro/kernels/pad.cc ****     data->params.left_padding[idx] = paddings_data[idx * 2];
 1534              		.loc 1 101 0
 1535 0cbc 042043E2 		sub	r2, r3, #4
 1536              	.LVL193:
 1537 0cc0 010072E3 		cmn	r2, #1
 102:../src/tensorflow_lite/tensorflow/lite/micro/kernels/pad.cc ****     data->params.right_padding[idx] = paddings_data[idx * 2 + 1];
 1538              		.loc 1 102 0
 1539 0cc4 040081E5 		str	r0, [r1, #4]
 103:../src/tensorflow_lite/tensorflow/lite/micro/kernels/pad.cc ****   }
 1540              		.loc 1 103 0
 1541 0cc8 0C0017E5 		ldr	r0, [r7, #-12]
 1542 0ccc 1C0081E5 		str	r0, [r1, #28]
 101:../src/tensorflow_lite/tensorflow/lite/micro/kernels/pad.cc ****     data->params.left_padding[idx] = paddings_data[idx * 2];
 1543              		.loc 1 101 0
 1544 0cd0 0C00000A 		beq	.L83
 102:../src/tensorflow_lite/tensorflow/lite/micro/kernels/pad.cc ****     data->params.right_padding[idx] = paddings_data[idx * 2 + 1];
 1545              		.loc 1 102 0
 1546 0cd4 181017E5 		ldr	r1, [r7, #-24]
 1547 0cd8 02218BE0 		add	r2, fp, r2, lsl #2
 1548              	.LVL194:
 101:../src/tensorflow_lite/tensorflow/lite/micro/kernels/pad.cc ****     data->params.left_padding[idx] = paddings_data[idx * 2];
 1549              		.loc 1 101 0
 1550 0cdc 053043E2 		sub	r3, r3, #5
 1551              	.LVL195:
 1552 0ce0 010073E3 		cmn	r3, #1
 102:../src/tensorflow_lite/tensorflow/lite/micro/kernels/pad.cc ****     data->params.right_padding[idx] = paddings_data[idx * 2 + 1];
 1553              		.loc 1 102 0
 1554 0ce4 041082E5 		str	r1, [r2, #4]
 103:../src/tensorflow_lite/tensorflow/lite/micro/kernels/pad.cc ****   }
 1555              		.loc 1 103 0
 1556 0ce8 141017E5 		ldr	r1, [r7, #-20]
 1557 0cec 1C1082E5 		str	r1, [r2, #28]
 1558              	.LVL196:
 101:../src/tensorflow_lite/tensorflow/lite/micro/kernels/pad.cc ****     data->params.left_padding[idx] = paddings_data[idx * 2];
 1559              		.loc 1 101 0
 1560 0cf0 0400000A 		beq	.L83
 102:../src/tensorflow_lite/tensorflow/lite/micro/kernels/pad.cc ****     data->params.right_padding[idx] = paddings_data[idx * 2 + 1];
 1561              		.loc 1 102 0
 1562 0cf4 202017E5 		ldr	r2, [r7, #-32]
 1563 0cf8 03318BE0 		add	r3, fp, r3, lsl #2
 1564              	.LVL197:
 1565 0cfc 042083E5 		str	r2, [r3, #4]
 103:../src/tensorflow_lite/tensorflow/lite/micro/kernels/pad.cc ****   }
 1566              		.loc 1 103 0
 1567 0d00 1C2017E5 		ldr	r2, [r7, #-28]
 1568 0d04 1C2083E5 		str	r2, [r3, #28]
 1569              	.L83:
 1570              	.LBE605:
 106:../src/tensorflow_lite/tensorflow/lite/micro/kernels/pad.cc ****     if (constant_values == nullptr) {
 1571              		.loc 1 106 0
 1572 0d08 1C309DE5 		ldr	r3, [sp, #28]
 1573 0d0c 0030D3E5 		ldrb	r3, [r3]	@ zero_extendqisi2
 1574 0d10 030053E3 		cmp	r3, #3
 1575 0d14 09005313 		cmpne	r3, #9
 1576 0d18 00A0A013 		movne	r10, #0
 1577 0d1c 01A0A003 		moveq	r10, #1
 132:../src/tensorflow_lite/tensorflow/lite/micro/kernels/pad.cc **** }
 1578              		.loc 1 132 0
 1579 0d20 0A00A011 		movne	r0, r10
 106:../src/tensorflow_lite/tensorflow/lite/micro/kernels/pad.cc ****     if (constant_values == nullptr) {
 1580              		.loc 1 106 0
 1581 0d24 CCFCFF1A 		bne	.L169
 107:../src/tensorflow_lite/tensorflow/lite/micro/kernels/pad.cc ****       // Quantized Pad requires that 0 is represented in the quantized
 1582              		.loc 1 107 0
 1583 0d28 24209DE5 		ldr	r2, [sp, #36]
 1584 0d2c 000052E3 		cmp	r2, #0
 1585 0d30 7A00000A 		beq	.L195
 124:../src/tensorflow_lite/tensorflow/lite/micro/kernels/pad.cc ****                         constant_values->params.zero_point);
 1586              		.loc 1 124 0
 1587 0d34 20309DE5 		ldr	r3, [sp, #32]
 1588 0d38 24209DE5 		ldr	r2, [sp, #36]
 1589 0d3c 103093E5 		ldr	r3, [r3, #16]
 1590 0d40 10E092E5 		ldr	lr, [r2, #16]
 1591 0d44 0E0053E1 		cmp	r3, lr
 1592 0d48 6100001A 		bne	.L196
 126:../src/tensorflow_lite/tensorflow/lite/micro/kernels/pad.cc ****                         static_cast<double>(constant_values->params.scale));
 1593              		.loc 1 126 0
 1594 0d4c 20209DE5 		ldr	r2, [sp, #32]
 1595 0d50 037AD2ED 		vldr.32	s15, [r2, #12]
 1596 0d54 24209DE5 		ldr	r2, [sp, #36]
 1597 0d58 037A92ED 		vldr.32	s14, [r2, #12]
 1598 0d5c 477AF4EE 		vcmp.f32	s15, s14
 1599 0d60 10FAF1EE 		vmrs	APSR_nzcv, FPSCR
 1600 0d64 8300001A 		bne	.L197
 1601              	.L87:
 129:../src/tensorflow_lite/tensorflow/lite/micro/kernels/pad.cc ****   }
 1602              		.loc 1 129 0
 1603 0d68 34308BE5 		str	r3, [fp, #52]
 132:../src/tensorflow_lite/tensorflow/lite/micro/kernels/pad.cc **** }
 1604              		.loc 1 132 0
 1605 0d6c 0000A0E3 		mov	r0, #0
 1606 0d70 B9FCFFEA 		b	.L169
 1607              	.LVL198:
 1608              	.L103:
 1609              	.LBB606:
 1610              	.LBB475:
 1611              	.LBB474:
 1612              	.LBB473:
 163:C:/Renesas/e2studio_2021_01_workspace_RZA2M_ANPR/ANPR_RZA2M_GR_MANGO/src/tensorflow_lite/tensorflow/lite/kernels\kernel_util.h ****     count *= dims->data[i];
 1613              		.loc 2 163 0
 1614 0d74 0100A0E3 		mov	r0, #1
 1615 0d78 0010A0E3 		mov	r1, #0
 1616 0d7c 0030A0E3 		mov	r3, #0
 1617 0d80 45FDFFEA 		b	.L21
 1618              	.LVL199:
 1619              	.L191:
 1620 0d84 000053E3 		cmp	r3, #0
 1621              	.LBE473:
 1622              	.LBE474:
 1623              	.LBE475:
 1624              	.LBE606:
 1625              	.LBB607:
 1626              	.LBB520:
 1627              	.LBB517:
 292:C:/Renesas/e2studio_2021_01_workspace_RZA2M_ANPR/ANPR_RZA2M_GR_MANGO/src/tensorflow_lite/tensorflow/lite/kernels/internal\types.h ****       buffer_size *= dims_data[i];
 1628              		.loc 4 292 0
 1629 0d88 0140A003 		moveq	r4, #1
 1630 0d8c 0300A001 		moveq	r0, r3
 1631 0d90 0DFEFF0A 		beq	.L33
 1632 0d94 ECFDFFEA 		b	.L32
 1633              	.LVL200:
 1634              	.L44:
 1635 0d98 0241A0E1 		lsl	r4, r2, #2
 1636              	.LBE517:
 1637              	.LBE520:
 1638              	.LBE607:
 1639              	.LBB608:
 1640              	.LBB543:
 1641              	.LBB539:
 1642              	.LBB538:
 1643              	.LBB537:
 1644              	.LBB535:
 1645              	.LBB536:
 229:C:/Renesas/e2studio_2021_01_workspace_RZA2M_ANPR/ANPR_RZA2M_GR_MANGO/src/tensorflow_lite/tensorflow/lite/kernels/internal\types.h ****   }
 1646              		.loc 4 229 0
 1647 0d9c 54008DE2 		add	r0, sp, #84
 1648 0da0 4EFEFFEA 		b	.L45
 1649              	.LVL201:
 1650              	.L193:
 1651              	.LBE536:
 1652              	.LBE535:
 1653              	.LBE537:
 1654              	.LBE538:
 1655              	.LBE539:
 1656              	.LBE543:
 1657              	.LBE608:
  80:../src/tensorflow_lite/tensorflow/lite/micro/kernels/pad.cc ****   const int32_t* paddings_data = GetTensorData<int32_t>(paddings);
 1658              		.loc 1 80 0 discriminator 1
 1659 0da4 003000E3 		movw	r3, #:lower16:.LC16
 1660 0da8 002000E3 		movw	r2, #:lower16:.LC1
 1661 0dac 003040E3 		movt	r3, #:upper16:.LC16
 1662 0db0 001000E3 		movw	r1, #:lower16:.LC5
 1663 0db4 00308DE5 		str	r3, [sp]
 1664 0db8 002040E3 		movt	r2, #:upper16:.LC1
 1665 0dbc 18309DE5 		ldr	r3, [sp, #24]
 1666 0dc0 001040E3 		movt	r1, #:upper16:.LC5
 1667 0dc4 0300A0E1 		mov	r0, r3
 1668 0dc8 144093E5 		ldr	r4, [r3, #20]
 1669 0dcc 5030A0E3 		mov	r3, #80
 1670 0dd0 34FF2FE1 		blx	r4
 1671              	.LVL202:
 1672 0dd4 0100A0E3 		mov	r0, #1
 1673 0dd8 9FFCFFEA 		b	.L169
 1674              	.LVL203:
 1675              	.L46:
 1676              	.LBB609:
 1677              	.LBB557:
 1678              	.LBB553:
 292:C:/Renesas/e2studio_2021_01_workspace_RZA2M_ANPR/ANPR_RZA2M_GR_MANGO/src/tensorflow_lite/tensorflow/lite/kernels/internal\types.h ****       buffer_size *= dims_data[i];
 1679              		.loc 4 292 0
 1680 0ddc 000054E3 		cmp	r4, #0
 1681 0de0 95FEFFDA 		ble	.L48
 1682              	.LBE553:
 1683              	.LBB554:
 1684              	.LBB551:
 232:C:/Renesas/e2studio_2021_01_workspace_RZA2M_ANPR/ANPR_RZA2M_GR_MANGO/src/tensorflow_lite/tensorflow/lite/kernels/internal\types.h ****   }
 1685              		.loc 4 232 0
 1686 0de4 54008DE2 		add	r0, sp, #84
 1687 0de8 43FEFFEA 		b	.L47
 1688              	.LVL204:
 1689              	.L121:
 1690              	.LBE551:
 1691              	.LBE554:
 1692              	.LBB555:
 292:C:/Renesas/e2studio_2021_01_workspace_RZA2M_ANPR/ANPR_RZA2M_GR_MANGO/src/tensorflow_lite/tensorflow/lite/kernels/internal\types.h ****       buffer_size *= dims_data[i];
 1693              		.loc 4 292 0
 1694 0dec 0320A0E1 		mov	r2, r3
 1695 0df0 66FEFFEA 		b	.L51
 1696              	.LVL205:
 1697              	.L62:
 1698              	.LBE555:
 1699              	.LBE557:
 1700              	.LBE609:
 1701              	.LBB610:
 1702              	.LBB566:
  86:../src/tensorflow_lite/tensorflow/lite/micro/kernels/pad.cc ****   }
 1703              		.loc 1 86 0 discriminator 1
 1704 0df4 08E08DE5 		str	lr, [sp, #8]
 1705 0df8 000000E3 		movw	r0, #:lower16:.LC17
 1706 0dfc 18E09DE5 		ldr	lr, [sp, #24]
 1707              	.LVL206:
 1708 0e00 00C000E3 		movw	ip, #:lower16:.LC18
 1709 0e04 000040E3 		movt	r0, #:upper16:.LC17
 1710 0e08 00C040E3 		movt	ip, #:upper16:.LC18
 1711 0e0c 002000E3 		movw	r2, #:lower16:.LC1
 1712 0e10 001000E3 		movw	r1, #:lower16:.LC2
 1713 0e14 0C308DE5 		str	r3, [sp, #12]
 1714 0e18 002040E3 		movt	r2, #:upper16:.LC1
 1715 0e1c 04008DE5 		str	r0, [sp, #4]
 1716 0e20 001040E3 		movt	r1, #:upper16:.LC2
 1717 0e24 0E00A0E1 		mov	r0, lr
 1718 0e28 00C08DE5 		str	ip, [sp]
 1719 0e2c 5630A0E3 		mov	r3, #86
 1720              	.LVL207:
 1721 0e30 14409EE5 		ldr	r4, [lr, #20]
 1722 0e34 34FF2FE1 		blx	r4
 1723              	.LVL208:
 1724 0e38 0100A0E3 		mov	r0, #1
 1725 0e3c 86FCFFEA 		b	.L169
 1726              	.LVL209:
 1727              	.L192:
 1728 0e40 000053E3 		cmp	r3, #0
 1729              	.LBE566:
 1730              	.LBE610:
 1731              	.LBB611:
 1732              	.LBB558:
 1733              	.LBB556:
 292:C:/Renesas/e2studio_2021_01_workspace_RZA2M_ANPR/ANPR_RZA2M_GR_MANGO/src/tensorflow_lite/tensorflow/lite/kernels/internal\types.h ****       buffer_size *= dims_data[i];
 1734              		.loc 4 292 0
 1735 0e44 0320A001 		moveq	r2, r3
 1736 0e48 52FEFF0A 		beq	.L50
 1737 0e4c 31FEFFEA 		b	.L49
 1738              	.LVL210:
 1739              	.L190:
 1740              	.LBE556:
 1741              	.LBE558:
 1742              	.LBE611:
  74:../src/tensorflow_lite/tensorflow/lite/micro/kernels/pad.cc ****                     output->dims->size * 2);
 1743              		.loc 1 74 0
 1744 0e50 20309DE5 		ldr	r3, [sp, #32]
 1745              	.LBB612:
 1746              	.LBB521:
 290:C:/Renesas/e2studio_2021_01_workspace_RZA2M_ANPR/ANPR_RZA2M_GR_MANGO/src/tensorflow_lite/tensorflow/lite/kernels/internal\types.h ****     const int* dims_data = reinterpret_cast<const int*>(DimsData());
 1747              		.loc 4 290 0
 1748 0e54 0140A0E3 		mov	r4, #1
 1749              	.LBE521:
 1750              	.LBE612:
  74:../src/tensorflow_lite/tensorflow/lite/micro/kernels/pad.cc ****                     output->dims->size * 2);
 1751              		.loc 1 74 0
 1752 0e58 083093E5 		ldr	r3, [r3, #8]
 1753 0e5c 005093E5 		ldr	r5, [r3]
 1754 0e60 1554A0E1 		lsl	r5, r5, r4
 1755              	.LVL211:
 1756 0e64 0DFEFFEA 		b	.L42
 1757              	.LVL212:
 1758              	.L66:
 1759 0e68 0241A0E1 		lsl	r4, r2, #2
 1760              	.LBB613:
 1761              	.LBB588:
 1762              	.LBB586:
 1763              	.LBB585:
 1764              	.LBB584:
 1765              	.LBB582:
 1766              	.LBB583:
 229:C:/Renesas/e2studio_2021_01_workspace_RZA2M_ANPR/ANPR_RZA2M_GR_MANGO/src/tensorflow_lite/tensorflow/lite/kernels/internal\types.h ****   }
 1767              		.loc 4 229 0
 1768 0e6c 6C008DE2 		add	r0, sp, #108
 1769 0e70 16FFFFEA 		b	.L67
 1770              	.LVL213:
 1771              	.L68:
 1772              	.LBE583:
 1773              	.LBE582:
 1774              	.LBE584:
 1775              	.LBE585:
 1776              	.LBE586:
 1777              	.LBE588:
 1778              	.LBE613:
 1779              	.LBB614:
 1780              	.LBB599:
 1781              	.LBB596:
 292:C:/Renesas/e2studio_2021_01_workspace_RZA2M_ANPR/ANPR_RZA2M_GR_MANGO/src/tensorflow_lite/tensorflow/lite/kernels/internal\types.h ****       buffer_size *= dims_data[i];
 1782              		.loc 4 292 0
 1783 0e74 000051E3 		cmp	r1, #0
 1784 0e78 74FFFFDA 		ble	.L80
 1785              	.LBE596:
 1786              	.LBB597:
 1787              	.LBB594:
 232:C:/Renesas/e2studio_2021_01_workspace_RZA2M_ANPR/ANPR_RZA2M_GR_MANGO/src/tensorflow_lite/tensorflow/lite/kernels/internal\types.h ****   }
 1788              		.loc 4 232 0
 1789 0e7c 6C208DE2 		add	r2, sp, #108
 1790 0e80 19FFFFEA 		b	.L99
 1791              	.LVL214:
 1792              	.L128:
 1793              	.LBE594:
 1794              	.LBE597:
 1795              	.LBB598:
 292:C:/Renesas/e2studio_2021_01_workspace_RZA2M_ANPR/ANPR_RZA2M_GR_MANGO/src/tensorflow_lite/tensorflow/lite/kernels/internal\types.h ****       buffer_size *= dims_data[i];
 1796              		.loc 4 292 0
 1797 0e84 03A0A0E1 		mov	r10, r3
 1798 0e88 3DFFFFEA 		b	.L71
 1799              	.LVL215:
 1800              	.L122:
 1801 0e8c 0140A0E3 		mov	r4, #1
 1802 0e90 03A0A0E1 		mov	r10, r3
 1803 0e94 3CFFFFEA 		b	.L70
 1804              	.LVL216:
 1805              	.L194:
 1806              	.LBE598:
 1807              	.LBE599:
 1808              	.LBE614:
  92:../src/tensorflow_lite/tensorflow/lite/micro/kernels/pad.cc ****       (paddings_data[6] == 0 && paddings_data[7] == 0)) {
 1809              		.loc 1 92 0 discriminator 1
 1810 0e98 003097E5 		ldr	r3, [r7]
 1811 0e9c 000053E3 		cmp	r3, #0
 1812 0ea0 6AFFFF1A 		bne	.L80
  92:../src/tensorflow_lite/tensorflow/lite/micro/kernels/pad.cc ****       (paddings_data[6] == 0 && paddings_data[7] == 0)) {
 1813              		.loc 1 92 0 is_stmt 0 discriminator 2
 1814 0ea4 043097E5 		ldr	r3, [r7, #4]
 1815 0ea8 000053E3 		cmp	r3, #0
 1816 0eac 67FFFF1A 		bne	.L80
  92:../src/tensorflow_lite/tensorflow/lite/micro/kernels/pad.cc ****       (paddings_data[6] == 0 && paddings_data[7] == 0)) {
 1817              		.loc 1 92 0 discriminator 3
 1818 0eb0 183097E5 		ldr	r3, [r7, #24]
 1819 0eb4 000053E3 		cmp	r3, #0
 1820 0eb8 64FFFF1A 		bne	.L80
  93:../src/tensorflow_lite/tensorflow/lite/micro/kernels/pad.cc ****     data->params.resizing_category = ResizingCategory::kImageStyle;
 1821              		.loc 1 93 0 is_stmt 1
 1822 0ebc 1C3097E5 		ldr	r3, [r7, #28]
 1823 0ec0 000053E3 		cmp	r3, #0
  94:../src/tensorflow_lite/tensorflow/lite/micro/kernels/pad.cc ****   }
 1824              		.loc 1 94 0
 1825 0ec4 0130A003 		moveq	r3, #1
 1826 0ec8 3030CB05 		strbeq	r3, [fp, #48]
 1827 0ecc 5FFFFFEA 		b	.L80
 1828              	.LVL217:
 1829              	.L178:
  46:../src/tensorflow_lite/tensorflow/lite/micro/kernels/pad.cc ****   OpData* data = static_cast<OpData*>(node->user_data);
 1830              		.loc 1 46 0 discriminator 1
 1831 0ed0 FEFFFFEB 		bl	abort
 1832              	.LVL218:
 1833              	.L196:
 124:../src/tensorflow_lite/tensorflow/lite/micro/kernels/pad.cc ****                         constant_values->params.zero_point);
 1834              		.loc 1 124 0 discriminator 1
 1835 0ed4 0CE08DE5 		str	lr, [sp, #12]
 1836 0ed8 000000E3 		movw	r0, #:lower16:.LC23
 1837 0edc 18E09DE5 		ldr	lr, [sp, #24]
 1838 0ee0 00C000E3 		movw	ip, #:lower16:.LC24
 1839 0ee4 000040E3 		movt	r0, #:upper16:.LC23
 1840 0ee8 00C040E3 		movt	ip, #:upper16:.LC24
 1841 0eec 002000E3 		movw	r2, #:lower16:.LC1
 1842 0ef0 001000E3 		movw	r1, #:lower16:.LC2
 1843 0ef4 08308DE5 		str	r3, [sp, #8]
 1844 0ef8 002040E3 		movt	r2, #:upper16:.LC1
 1845 0efc 04008DE5 		str	r0, [sp, #4]
 1846 0f00 001040E3 		movt	r1, #:upper16:.LC2
 1847 0f04 0E00A0E1 		mov	r0, lr
 1848 0f08 00C08DE5 		str	ip, [sp]
 1849 0f0c 7D30A0E3 		mov	r3, #125
 1850 0f10 14409EE5 		ldr	r4, [lr, #20]
 1851 0f14 34FF2FE1 		blx	r4
 1852              	.LVL219:
 1853 0f18 0100A0E3 		mov	r0, #1
 1854 0f1c 4EFCFFEA 		b	.L169
 1855              	.L195:
 110:../src/tensorflow_lite/tensorflow/lite/micro/kernels/pad.cc ****         TF_LITE_ENSURE(context, output->params.zero_point >=
 1856              		.loc 1 110 0
 1857 0f20 030053E3 		cmp	r3, #3
 111:../src/tensorflow_lite/tensorflow/lite/micro/kernels/pad.cc ****                                     std::numeric_limits<uint8_t>::min());
 1858              		.loc 1 111 0
 1859 0f24 20309DE5 		ldr	r3, [sp, #32]
 1860 0f28 103093E5 		ldr	r3, [r3, #16]
 110:../src/tensorflow_lite/tensorflow/lite/micro/kernels/pad.cc ****         TF_LITE_ENSURE(context, output->params.zero_point >=
 1861              		.loc 1 110 0
 1862 0f2c 3300000A 		beq	.L198
 116:../src/tensorflow_lite/tensorflow/lite/micro/kernels/pad.cc ****                                     std::numeric_limits<int8_t>::min());
 1863              		.loc 1 116 0
 1864 0f30 800073E3 		cmn	r3, #128
 1865 0f34 230000BA 		blt	.L199
 118:../src/tensorflow_lite/tensorflow/lite/micro/kernels/pad.cc ****                                     std::numeric_limits<int8_t>::max());
 1866              		.loc 1 118 0
 1867 0f38 7F0053E3 		cmp	r3, #127
 1868 0f3c 89FFFFDA 		ble	.L87
 118:../src/tensorflow_lite/tensorflow/lite/micro/kernels/pad.cc ****                                     std::numeric_limits<int8_t>::max());
 1869              		.loc 1 118 0 is_stmt 0 discriminator 1
 1870 0f40 003000E3 		movw	r3, #:lower16:.LC22
 1871 0f44 002000E3 		movw	r2, #:lower16:.LC1
 1872 0f48 003040E3 		movt	r3, #:upper16:.LC22
 1873 0f4c 001000E3 		movw	r1, #:lower16:.LC5
 1874 0f50 00308DE5 		str	r3, [sp]
 1875 0f54 002040E3 		movt	r2, #:upper16:.LC1
 1876 0f58 18309DE5 		ldr	r3, [sp, #24]
 1877 0f5c 001040E3 		movt	r1, #:upper16:.LC5
 1878 0f60 0300A0E1 		mov	r0, r3
 1879 0f64 144093E5 		ldr	r4, [r3, #20]
 1880 0f68 7730A0E3 		mov	r3, #119
 1881 0f6c 34FF2FE1 		blx	r4
 1882              	.LVL220:
 1883 0f70 0100A0E3 		mov	r0, #1
 1884 0f74 38FCFFEA 		b	.L169
 1885              	.L197:
 126:../src/tensorflow_lite/tensorflow/lite/micro/kernels/pad.cc ****                         static_cast<double>(constant_values->params.scale));
 1886              		.loc 1 126 0 is_stmt 1 discriminator 1
 1887 0f78 C71AF7EE 		vcvt.f64.f32	d17, s14
 1888 0f7c 000000E3 		movw	r0, #:lower16:.LC25
 1889 0f80 E70AF7EE 		vcvt.f64.f32	d16, s15
 1890 0f84 003000E3 		movw	r3, #:lower16:.LC26
 1891 0f88 18C09DE5 		ldr	ip, [sp, #24]
 1892 0f8c 000040E3 		movt	r0, #:upper16:.LC25
 1893 0f90 003040E3 		movt	r3, #:upper16:.LC26
 1894 0f94 002000E3 		movw	r2, #:lower16:.LC1
 1895 0f98 001000E3 		movw	r1, #:lower16:.LC2
 1896 0f9c 04008DE5 		str	r0, [sp, #4]
 1897 0fa0 00308DE5 		str	r3, [sp]
 1898 0fa4 002040E3 		movt	r2, #:upper16:.LC1
 1899 0fa8 041BCDED 		vstr.64	d17, [sp, #16]
 1900 0fac 001040E3 		movt	r1, #:upper16:.LC2
 1901 0fb0 020BCDED 		vstr.64	d16, [sp, #8]
 1902 0fb4 0C00A0E1 		mov	r0, ip
 1903 0fb8 7F30A0E3 		mov	r3, #127
 1904 0fbc 14409CE5 		ldr	r4, [ip, #20]
 1905 0fc0 34FF2FE1 		blx	r4
 1906              	.LVL221:
 1907 0fc4 34FEFFEA 		b	.L174
 1908              	.L199:
 116:../src/tensorflow_lite/tensorflow/lite/micro/kernels/pad.cc ****                                     std::numeric_limits<int8_t>::min());
 1909              		.loc 1 116 0 discriminator 1
 1910 0fc8 003000E3 		movw	r3, #:lower16:.LC21
 1911 0fcc 002000E3 		movw	r2, #:lower16:.LC1
 1912 0fd0 003040E3 		movt	r3, #:upper16:.LC21
 1913 0fd4 001000E3 		movw	r1, #:lower16:.LC5
 1914 0fd8 00308DE5 		str	r3, [sp]
 1915 0fdc 002040E3 		movt	r2, #:upper16:.LC1
 1916 0fe0 18309DE5 		ldr	r3, [sp, #24]
 1917 0fe4 001040E3 		movt	r1, #:upper16:.LC5
 1918 0fe8 0300A0E1 		mov	r0, r3
 1919 0fec 144093E5 		ldr	r4, [r3, #20]
 1920 0ff0 7530A0E3 		mov	r3, #117
 1921 0ff4 34FF2FE1 		blx	r4
 1922              	.LVL222:
 1923 0ff8 0100A0E3 		mov	r0, #1
 1924 0ffc 16FCFFEA 		b	.L169
 1925              	.L198:
 111:../src/tensorflow_lite/tensorflow/lite/micro/kernels/pad.cc ****                                     std::numeric_limits<uint8_t>::min());
 1926              		.loc 1 111 0
 1927 1000 000053E3 		cmp	r3, #0
 1928 1004 170000BA 		blt	.L200
 113:../src/tensorflow_lite/tensorflow/lite/micro/kernels/pad.cc ****                                     std::numeric_limits<uint8_t>::max());
 1929              		.loc 1 113 0
 1930 1008 FF0053E3 		cmp	r3, #255
 1931 100c 55FFFFDA 		ble	.L87
 113:../src/tensorflow_lite/tensorflow/lite/micro/kernels/pad.cc ****                                     std::numeric_limits<uint8_t>::max());
 1932              		.loc 1 113 0 is_stmt 0 discriminator 1
 1933 1010 003000E3 		movw	r3, #:lower16:.LC20
 1934 1014 002000E3 		movw	r2, #:lower16:.LC1
 1935 1018 003040E3 		movt	r3, #:upper16:.LC20
 1936 101c 001000E3 		movw	r1, #:lower16:.LC5
 1937 1020 00308DE5 		str	r3, [sp]
 1938 1024 002040E3 		movt	r2, #:upper16:.LC1
 1939 1028 18309DE5 		ldr	r3, [sp, #24]
 1940 102c 001040E3 		movt	r1, #:upper16:.LC5
 1941 1030 0300A0E1 		mov	r0, r3
 1942 1034 144093E5 		ldr	r4, [r3, #20]
 1943 1038 7230A0E3 		mov	r3, #114
 1944 103c 34FF2FE1 		blx	r4
 1945              	.LVL223:
 1946 1040 0100A0E3 		mov	r0, #1
 1947 1044 04FCFFEA 		b	.L169
 1948              	.LVL224:
 1949              	.L30:
 1950              	.LBB615:
 1951              	.LBB502:
 1952              	.LBB500:
 1953              	.LBB498:
 1954              	.LBB496:
 1955              	.LBB494:
 1956              	.LBB491:
 1957              	.LBB490:
 1958              	.LBB489:
 250:C:/Renesas/e2studio_2021_01_workspace_RZA2M_ANPR/ANPR_RZA2M_GR_MANGO/src/tensorflow_lite/tensorflow/lite/kernels/internal\types.h **** #endif  // TF_LITE_STATIC_MEMORY
 1959              		.loc 4 250 0 is_stmt 1
 1960 1048 FEFFFFEB 		bl	__cxa_throw_bad_array_new_length
 1961              	.LVL225:
 1962              	.L129:
 1963              	.LBE489:
 1964              	.LBE490:
 1965              	.LBE491:
 1966              	.LBE494:
 1967              	.LBE496:
 1968              	.LBE498:
 1969              	.LBE500:
 1970              	.LBE502:
 1971              	.LBE615:
 1972              	.LBB616:
 1973              	.LBB617:
 203:C:/Renesas/e2studio_2021_01_workspace_RZA2M_ANPR/ANPR_RZA2M_GR_MANGO/src/tensorflow_lite/tensorflow/lite/kernels/internal\types.h **** #ifdef TF_LITE_STATIC_MEMORY
 1974              		.loc 4 203 0
 1975 104c 050054E3 		cmp	r4, #5
 1976 1050 030000DA 		ble	.L91
 207:C:/Renesas/e2studio_2021_01_workspace_RZA2M_ANPR/ANPR_RZA2M_GR_MANGO/src/tensorflow_lite/tensorflow/lite/kernels/internal\types.h **** #endif  // TF_LITE_STATIC_MEMORY
 1977              		.loc 4 207 0
 1978 1054 54009DE5 		ldr	r0, [sp, #84]
 1979 1058 000050E3 		cmp	r0, #0
 1980 105c 0000000A 		beq	.L91
 1981 1060 FEFFFFEB 		bl	_ZdaPv
 1982              	.LVL226:
 1983              	.L91:
 1984 1064 FEFFFFEB 		bl	__cxa_end_cleanup
 1985              	.LVL227:
 1986              	.L200:
 1987              	.LBE617:
 1988              	.LBE616:
 111:../src/tensorflow_lite/tensorflow/lite/micro/kernels/pad.cc ****                                     std::numeric_limits<uint8_t>::min());
 1989              		.loc 1 111 0 discriminator 1
 1990 1068 003000E3 		movw	r3, #:lower16:.LC19
 1991 106c 002000E3 		movw	r2, #:lower16:.LC1
 1992 1070 003040E3 		movt	r3, #:upper16:.LC19
 1993 1074 001000E3 		movw	r1, #:lower16:.LC5
 1994 1078 00308DE5 		str	r3, [sp]
 1995 107c 002040E3 		movt	r2, #:upper16:.LC1
 1996 1080 18309DE5 		ldr	r3, [sp, #24]
 1997 1084 001040E3 		movt	r1, #:upper16:.LC5
 1998 1088 0300A0E1 		mov	r0, r3
 1999 108c 144093E5 		ldr	r4, [r3, #20]
 2000 1090 7030A0E3 		mov	r3, #112
 2001 1094 34FF2FE1 		blx	r4
 2002              	.LVL228:
 2003              	.LEHE2:
 2004 1098 0100A0E3 		mov	r0, #1
 2005 109c EEFBFFEA 		b	.L169
 2006              		.cfi_endproc
 2007              	.LFE1320:
 2008              		.global	__gxx_personality_v0
 2009              		.personality	__gxx_personality_v0
 2010              		.handlerdata
 2011              	.LLSDA1320:
 2012 0008 FF       		.byte	0xff
 2013 0009 FF       		.byte	0xff
 2014 000a 01       		.byte	0x1
 2015 000b 11       		.uleb128 .LLSDACSE1320-.LLSDACSB1320
 2016              	.LLSDACSB1320:
 2017 000c 54       		.uleb128 .LEHB0-.LFB1320
 2018 000d 880D     		.uleb128 .LEHE0-.LEHB0
 2019 000f 00       		.uleb128 0
 2020 0010 00       		.uleb128 0
 2021 0011 8011     		.uleb128 .LEHB1-.LFB1320
 2022 0013 04       		.uleb128 .LEHE1-.LEHB1
 2023 0014 CC20     		.uleb128 .L129-.LFB1320
 2024 0016 00       		.uleb128 0
 2025 0017 E411     		.uleb128 .LEHB2-.LFB1320
 2026 0019 B40F     		.uleb128 .LEHE2-.LEHB2
 2027 001b 00       		.uleb128 0
 2028 001c 00       		.uleb128 0
 2029              	.LLSDACSE1320:
 2030              		.section	.text._ZN6tflite3ops5micro3pad7PrepareEP13TfLiteContextP10TfLiteNode
 2031              		.fnend
 2033              		.section	.text._ZN6tflite3ops5micro3pad4EvalEP13TfLiteContextP10TfLiteNode,"ax",%progbits
 2034              		.align	2
 2035              		.global	_ZN6tflite3ops5micro3pad4EvalEP13TfLiteContextP10TfLiteNode
 2036              		.syntax unified
 2037              		.arm
 2038              		.fpu neon
 2040              	_ZN6tflite3ops5micro3pad4EvalEP13TfLiteContextP10TfLiteNode:
 2041              		.fnstart
 2042              	.LFB1321:
 134:../src/tensorflow_lite/tensorflow/lite/micro/kernels/pad.cc **** 
 135:../src/tensorflow_lite/tensorflow/lite/micro/kernels/pad.cc **** TfLiteStatus Eval(TfLiteContext* context, TfLiteNode* node) {
 2043              		.loc 1 135 0
 2044              		.cfi_startproc
 2045              		.cfi_personality 0,__gxx_personality_v0
 2046              		.cfi_lsda 0,.LLSDA1321
 2047              		@ args = 0, pretend = 0, frame = 232
 2048              		@ frame_needed = 0, uses_anonymous_args = 0
 2049              	.LVL229:
 2050 0000 F04F2DE9 		push	{r4, r5, r6, r7, r8, r9, r10, fp, lr}
 2051              		.save {r4, r5, r6, r7, r8, r9, r10, fp, lr}
 2052              		.cfi_def_cfa_offset 36
 2053              		.cfi_offset 4, -36
 2054              		.cfi_offset 5, -32
 2055              		.cfi_offset 6, -28
 2056              		.cfi_offset 7, -24
 2057              		.cfi_offset 8, -20
 2058              		.cfi_offset 9, -16
 2059              		.cfi_offset 10, -12
 2060              		.cfi_offset 11, -8
 2061              		.cfi_offset 14, -4
 2062              		.pad #236
 2063 0004 ECD04DE2 		sub	sp, sp, #236
 2064              		.cfi_def_cfa_offset 272
 136:../src/tensorflow_lite/tensorflow/lite/micro/kernels/pad.cc ****   TFLITE_DCHECK(node->user_data != nullptr);
 2065              		.loc 1 136 0
 2066 0008 105091E5 		ldr	r5, [r1, #16]
 2067 000c 000055E3 		cmp	r5, #0
 2068 0010 2000000A 		beq	.L203
 2069              	.LBB1200:
 2070              	.LBB1201:
 2071              	.LBB1202:
 2072              		.file 5 "C:/Renesas/e2studio_2021_01_workspace_RZA2M_ANPR/ANPR_RZA2M_GR_MANGO/src/tensorflow_lite/
   1:C:/Renesas/e2studio_2021_01_workspace_RZA2M_ANPR/ANPR_RZA2M_GR_MANGO/src/tensorflow_lite/tensorflow/lite/micro/kernels\kernel_util.h **** /* Copyright 2020 The TensorFlow Authors. All Rights Reserved.
   2:C:/Renesas/e2studio_2021_01_workspace_RZA2M_ANPR/ANPR_RZA2M_GR_MANGO/src/tensorflow_lite/tensorflow/lite/micro/kernels\kernel_util.h **** 
   3:C:/Renesas/e2studio_2021_01_workspace_RZA2M_ANPR/ANPR_RZA2M_GR_MANGO/src/tensorflow_lite/tensorflow/lite/micro/kernels\kernel_util.h **** Licensed under the Apache License, Version 2.0 (the "License");
   4:C:/Renesas/e2studio_2021_01_workspace_RZA2M_ANPR/ANPR_RZA2M_GR_MANGO/src/tensorflow_lite/tensorflow/lite/micro/kernels\kernel_util.h **** you may not use this file except in compliance with the License.
   5:C:/Renesas/e2studio_2021_01_workspace_RZA2M_ANPR/ANPR_RZA2M_GR_MANGO/src/tensorflow_lite/tensorflow/lite/micro/kernels\kernel_util.h **** You may obtain a copy of the License at
   6:C:/Renesas/e2studio_2021_01_workspace_RZA2M_ANPR/ANPR_RZA2M_GR_MANGO/src/tensorflow_lite/tensorflow/lite/micro/kernels\kernel_util.h **** 
   7:C:/Renesas/e2studio_2021_01_workspace_RZA2M_ANPR/ANPR_RZA2M_GR_MANGO/src/tensorflow_lite/tensorflow/lite/micro/kernels\kernel_util.h ****     http://www.apache.org/licenses/LICENSE-2.0
   8:C:/Renesas/e2studio_2021_01_workspace_RZA2M_ANPR/ANPR_RZA2M_GR_MANGO/src/tensorflow_lite/tensorflow/lite/micro/kernels\kernel_util.h **** 
   9:C:/Renesas/e2studio_2021_01_workspace_RZA2M_ANPR/ANPR_RZA2M_GR_MANGO/src/tensorflow_lite/tensorflow/lite/micro/kernels\kernel_util.h **** Unless required by applicable law or agreed to in writing, software
  10:C:/Renesas/e2studio_2021_01_workspace_RZA2M_ANPR/ANPR_RZA2M_GR_MANGO/src/tensorflow_lite/tensorflow/lite/micro/kernels\kernel_util.h **** distributed under the License is distributed on an "AS IS" BASIS,
  11:C:/Renesas/e2studio_2021_01_workspace_RZA2M_ANPR/ANPR_RZA2M_GR_MANGO/src/tensorflow_lite/tensorflow/lite/micro/kernels\kernel_util.h **** WITHOUT WARRANTIES OR CONDITIONS OF ANY KIND, either express or implied.
  12:C:/Renesas/e2studio_2021_01_workspace_RZA2M_ANPR/ANPR_RZA2M_GR_MANGO/src/tensorflow_lite/tensorflow/lite/micro/kernels\kernel_util.h **** See the License for the specific language governing permissions and
  13:C:/Renesas/e2studio_2021_01_workspace_RZA2M_ANPR/ANPR_RZA2M_GR_MANGO/src/tensorflow_lite/tensorflow/lite/micro/kernels\kernel_util.h **** limitations under the License.
  14:C:/Renesas/e2studio_2021_01_workspace_RZA2M_ANPR/ANPR_RZA2M_GR_MANGO/src/tensorflow_lite/tensorflow/lite/micro/kernels\kernel_util.h **** ==============================================================================*/
  15:C:/Renesas/e2studio_2021_01_workspace_RZA2M_ANPR/ANPR_RZA2M_GR_MANGO/src/tensorflow_lite/tensorflow/lite/micro/kernels\kernel_util.h **** 
  16:C:/Renesas/e2studio_2021_01_workspace_RZA2M_ANPR/ANPR_RZA2M_GR_MANGO/src/tensorflow_lite/tensorflow/lite/micro/kernels\kernel_util.h **** #ifndef TENSORFLOW_LITE_MICRO_KERNELS_KERNEL_UTIL_H_
  17:C:/Renesas/e2studio_2021_01_workspace_RZA2M_ANPR/ANPR_RZA2M_GR_MANGO/src/tensorflow_lite/tensorflow/lite/micro/kernels\kernel_util.h **** #define TENSORFLOW_LITE_MICRO_KERNELS_KERNEL_UTIL_H_
  18:C:/Renesas/e2studio_2021_01_workspace_RZA2M_ANPR/ANPR_RZA2M_GR_MANGO/src/tensorflow_lite/tensorflow/lite/micro/kernels\kernel_util.h **** 
  19:C:/Renesas/e2studio_2021_01_workspace_RZA2M_ANPR/ANPR_RZA2M_GR_MANGO/src/tensorflow_lite/tensorflow/lite/micro/kernels\kernel_util.h **** #include <cstdint>
  20:C:/Renesas/e2studio_2021_01_workspace_RZA2M_ANPR/ANPR_RZA2M_GR_MANGO/src/tensorflow_lite/tensorflow/lite/micro/kernels\kernel_util.h **** 
  21:C:/Renesas/e2studio_2021_01_workspace_RZA2M_ANPR/ANPR_RZA2M_GR_MANGO/src/tensorflow_lite/tensorflow/lite/micro/kernels\kernel_util.h **** #include "tensorflow/lite/c/builtin_op_data.h"
  22:C:/Renesas/e2studio_2021_01_workspace_RZA2M_ANPR/ANPR_RZA2M_GR_MANGO/src/tensorflow_lite/tensorflow/lite/micro/kernels\kernel_util.h **** #include "tensorflow/lite/c/common.h"
  23:C:/Renesas/e2studio_2021_01_workspace_RZA2M_ANPR/ANPR_RZA2M_GR_MANGO/src/tensorflow_lite/tensorflow/lite/micro/kernels\kernel_util.h **** #include "tensorflow/lite/kernels/internal/compatibility.h"
  24:C:/Renesas/e2studio_2021_01_workspace_RZA2M_ANPR/ANPR_RZA2M_GR_MANGO/src/tensorflow_lite/tensorflow/lite/micro/kernels\kernel_util.h **** #include "tensorflow/lite/kernels/internal/types.h"
  25:C:/Renesas/e2studio_2021_01_workspace_RZA2M_ANPR/ANPR_RZA2M_GR_MANGO/src/tensorflow_lite/tensorflow/lite/micro/kernels\kernel_util.h **** 
  26:C:/Renesas/e2studio_2021_01_workspace_RZA2M_ANPR/ANPR_RZA2M_GR_MANGO/src/tensorflow_lite/tensorflow/lite/micro/kernels\kernel_util.h **** namespace tflite {
  27:C:/Renesas/e2studio_2021_01_workspace_RZA2M_ANPR/ANPR_RZA2M_GR_MANGO/src/tensorflow_lite/tensorflow/lite/micro/kernels\kernel_util.h **** namespace micro {
  28:C:/Renesas/e2studio_2021_01_workspace_RZA2M_ANPR/ANPR_RZA2M_GR_MANGO/src/tensorflow_lite/tensorflow/lite/micro/kernels\kernel_util.h **** 
  29:C:/Renesas/e2studio_2021_01_workspace_RZA2M_ANPR/ANPR_RZA2M_GR_MANGO/src/tensorflow_lite/tensorflow/lite/micro/kernels\kernel_util.h **** // Returns a mutable tensor for a given input index. is_variable must be checked
  30:C:/Renesas/e2studio_2021_01_workspace_RZA2M_ANPR/ANPR_RZA2M_GR_MANGO/src/tensorflow_lite/tensorflow/lite/micro/kernels\kernel_util.h **** // during prepare when the full TfLiteTensor is available.
  31:C:/Renesas/e2studio_2021_01_workspace_RZA2M_ANPR/ANPR_RZA2M_GR_MANGO/src/tensorflow_lite/tensorflow/lite/micro/kernels\kernel_util.h **** inline TfLiteEvalTensor* GetMutableEvalInput(const TfLiteContext* context,
  32:C:/Renesas/e2studio_2021_01_workspace_RZA2M_ANPR/ANPR_RZA2M_GR_MANGO/src/tensorflow_lite/tensorflow/lite/micro/kernels\kernel_util.h ****                                              const TfLiteNode* node,
  33:C:/Renesas/e2studio_2021_01_workspace_RZA2M_ANPR/ANPR_RZA2M_GR_MANGO/src/tensorflow_lite/tensorflow/lite/micro/kernels\kernel_util.h ****                                              int index) {
  34:C:/Renesas/e2studio_2021_01_workspace_RZA2M_ANPR/ANPR_RZA2M_GR_MANGO/src/tensorflow_lite/tensorflow/lite/micro/kernels\kernel_util.h ****   TFLITE_DCHECK(context != nullptr);
 2073              		.loc 5 34 0
 2074 0014 000050E3 		cmp	r0, #0
 2075 0018 0080A0E1 		mov	r8, r0
 2076              	.LVL230:
 2077 001c 1D00000A 		beq	.L203
  35:C:/Renesas/e2studio_2021_01_workspace_RZA2M_ANPR/ANPR_RZA2M_GR_MANGO/src/tensorflow_lite/tensorflow/lite/micro/kernels\kernel_util.h ****   TFLITE_DCHECK(node != nullptr);
  36:C:/Renesas/e2studio_2021_01_workspace_RZA2M_ANPR/ANPR_RZA2M_GR_MANGO/src/tensorflow_lite/tensorflow/lite/micro/kernels\kernel_util.h ****   return context->GetEvalTensor(context, node->inputs->data[index]);
 2078              		.loc 5 36 0
 2079 0020 002091E5 		ldr	r2, [r1]
 2080 0024 0160A0E1 		mov	r6, r1
 2081 0028 543090E5 		ldr	r3, [r0, #84]
 2082 002c 041092E5 		ldr	r1, [r2, #4]
 2083              	.LVL231:
 2084              	.LEHB3:
 2085 0030 33FF2FE1 		blx	r3
 2086              	.LVL232:
 2087 0034 003096E5 		ldr	r3, [r6]
 2088 0038 0070A0E1 		mov	r7, r0
 2089              	.LVL233:
 2090              	.LBE1202:
 2091              	.LBE1201:
 2092              	.LBE1200:
 137:../src/tensorflow_lite/tensorflow/lite/micro/kernels/pad.cc ****   const OpData* data = static_cast<const OpData*>(node->user_data);
 138:../src/tensorflow_lite/tensorflow/lite/micro/kernels/pad.cc **** 
 139:../src/tensorflow_lite/tensorflow/lite/micro/kernels/pad.cc ****   const TfLiteEvalTensor* input =
 140:../src/tensorflow_lite/tensorflow/lite/micro/kernels/pad.cc ****       tflite::micro::GetEvalInput(context, node, /*index=*/0);
 141:../src/tensorflow_lite/tensorflow/lite/micro/kernels/pad.cc ****   const TfLiteEvalTensor* constant_values =
 142:../src/tensorflow_lite/tensorflow/lite/micro/kernels/pad.cc ****       NumInputs(node) == 3
 143:../src/tensorflow_lite/tensorflow/lite/micro/kernels/pad.cc ****           ? tflite::micro::GetEvalInput(context, node, /*index=*/2)
 2093              		.loc 1 143 0
 2094 003c 002093E5 		ldr	r2, [r3]
 2095 0040 030052E3 		cmp	r2, #3
 2096 0044 4907000A 		beq	.L1463
 2097              	.LVL234:
 2098              	.LBB1203:
 2099              	.LBB1204:
  37:C:/Renesas/e2studio_2021_01_workspace_RZA2M_ANPR/ANPR_RZA2M_GR_MANGO/src/tensorflow_lite/tensorflow/lite/micro/kernels\kernel_util.h **** }
  38:C:/Renesas/e2studio_2021_01_workspace_RZA2M_ANPR/ANPR_RZA2M_GR_MANGO/src/tensorflow_lite/tensorflow/lite/micro/kernels\kernel_util.h **** 
  39:C:/Renesas/e2studio_2021_01_workspace_RZA2M_ANPR/ANPR_RZA2M_GR_MANGO/src/tensorflow_lite/tensorflow/lite/micro/kernels\kernel_util.h **** // Returns the TfLiteEvalTensor struct for a given input index in a node.
  40:C:/Renesas/e2studio_2021_01_workspace_RZA2M_ANPR/ANPR_RZA2M_GR_MANGO/src/tensorflow_lite/tensorflow/lite/micro/kernels\kernel_util.h **** inline const TfLiteEvalTensor* GetEvalInput(const TfLiteContext* context,
  41:C:/Renesas/e2studio_2021_01_workspace_RZA2M_ANPR/ANPR_RZA2M_GR_MANGO/src/tensorflow_lite/tensorflow/lite/micro/kernels\kernel_util.h ****                                             const TfLiteNode* node, int index) {
  42:C:/Renesas/e2studio_2021_01_workspace_RZA2M_ANPR/ANPR_RZA2M_GR_MANGO/src/tensorflow_lite/tensorflow/lite/micro/kernels\kernel_util.h ****   return GetMutableEvalInput(context, node, index);
  43:C:/Renesas/e2studio_2021_01_workspace_RZA2M_ANPR/ANPR_RZA2M_GR_MANGO/src/tensorflow_lite/tensorflow/lite/micro/kernels\kernel_util.h **** }
  44:C:/Renesas/e2studio_2021_01_workspace_RZA2M_ANPR/ANPR_RZA2M_GR_MANGO/src/tensorflow_lite/tensorflow/lite/micro/kernels\kernel_util.h **** 
  45:C:/Renesas/e2studio_2021_01_workspace_RZA2M_ANPR/ANPR_RZA2M_GR_MANGO/src/tensorflow_lite/tensorflow/lite/micro/kernels\kernel_util.h **** // Returns the TfLiteEvalTensor struct for a given output index in a node.
  46:C:/Renesas/e2studio_2021_01_workspace_RZA2M_ANPR/ANPR_RZA2M_GR_MANGO/src/tensorflow_lite/tensorflow/lite/micro/kernels\kernel_util.h **** inline TfLiteEvalTensor* GetEvalOutput(const TfLiteContext* context,
  47:C:/Renesas/e2studio_2021_01_workspace_RZA2M_ANPR/ANPR_RZA2M_GR_MANGO/src/tensorflow_lite/tensorflow/lite/micro/kernels\kernel_util.h ****                                        const TfLiteNode* node, int index) {
  48:C:/Renesas/e2studio_2021_01_workspace_RZA2M_ANPR/ANPR_RZA2M_GR_MANGO/src/tensorflow_lite/tensorflow/lite/micro/kernels\kernel_util.h ****   TFLITE_DCHECK(context != nullptr);
  49:C:/Renesas/e2studio_2021_01_workspace_RZA2M_ANPR/ANPR_RZA2M_GR_MANGO/src/tensorflow_lite/tensorflow/lite/micro/kernels\kernel_util.h ****   TFLITE_DCHECK(node != nullptr);
  50:C:/Renesas/e2studio_2021_01_workspace_RZA2M_ANPR/ANPR_RZA2M_GR_MANGO/src/tensorflow_lite/tensorflow/lite/micro/kernels\kernel_util.h ****   return context->GetEvalTensor(context, node->outputs->data[index]);
 2100              		.loc 5 50 0
 2101 0048 042096E5 		ldr	r2, [r6, #4]
 2102 004c 0800A0E1 		mov	r0, r8
 2103 0050 543098E5 		ldr	r3, [r8, #84]
 2104 0054 041092E5 		ldr	r1, [r2, #4]
 2105 0058 33FF2FE1 		blx	r3
 2106              	.LVL235:
 2107 005c 0090A0E1 		mov	r9, r0
 2108              	.LVL236:
 2109              	.LBE1204:
 2110              	.LBE1203:
 2111              	.LBB1207:
 144:../src/tensorflow_lite/tensorflow/lite/micro/kernels/pad.cc ****           : nullptr;
 145:../src/tensorflow_lite/tensorflow/lite/micro/kernels/pad.cc ****   TfLiteEvalTensor* output =
 146:../src/tensorflow_lite/tensorflow/lite/micro/kernels/pad.cc ****       tflite::micro::GetEvalOutput(context, node, /*index=*/0);
 147:../src/tensorflow_lite/tensorflow/lite/micro/kernels/pad.cc **** 
 148:../src/tensorflow_lite/tensorflow/lite/micro/kernels/pad.cc ****   switch (input->type) {
 2112              		.loc 1 148 0
 2113 0060 0800D7E5 		ldrb	r0, [r7, #8]	@ zero_extendqisi2
 2114 0064 013040E2 		sub	r3, r0, #1
 2115 0068 080053E3 		cmp	r3, #8
 2116 006c 03F19F97 		ldrls	pc, [pc, r3, asl #2]
 2117 0070 350700EA 		b	.L205
 2118              	.L688:
 2119 0074 E00D0000 		.word	.L762
 2120 0078 4C0D0000 		.word	.L763
 2121 007c 40010000 		.word	.L362
 2122 0080 4C1D0000 		.word	.L205
 2123 0084 4C1D0000 		.word	.L205
 2124 0088 4C1D0000 		.word	.L205
 2125 008c 4C1D0000 		.word	.L205
 2126 0090 4C1D0000 		.word	.L205
 2127 0094 9C000000 		.word	.L473
 2128              	.LVL237:
 2129              	.L203:
 2130              	.LBE1207:
 136:../src/tensorflow_lite/tensorflow/lite/micro/kernels/pad.cc ****   const OpData* data = static_cast<const OpData*>(node->user_data);
 2131              		.loc 1 136 0 discriminator 1
 2132 0098 FEFFFFEB 		bl	abort
 2133              	.LVL238:
 2134              	.L473:
 2135              	.LBB2421:
 2136              	.LBB1208:
 2137              	.LBB1209:
 149:../src/tensorflow_lite/tensorflow/lite/micro/kernels/pad.cc ****     case kTfLiteFloat32: {
 150:../src/tensorflow_lite/tensorflow/lite/micro/kernels/pad.cc ****       float pad_value =
 151:../src/tensorflow_lite/tensorflow/lite/micro/kernels/pad.cc ****           constant_values == nullptr
 152:../src/tensorflow_lite/tensorflow/lite/micro/kernels/pad.cc ****               ? 0.f
 153:../src/tensorflow_lite/tensorflow/lite/micro/kernels/pad.cc ****               : *tflite::micro::GetTensorData<float>(constant_values);
 154:../src/tensorflow_lite/tensorflow/lite/micro/kernels/pad.cc ****       if (data->params.resizing_category == ResizingCategory::kImageStyle) {
 155:../src/tensorflow_lite/tensorflow/lite/micro/kernels/pad.cc ****         reference_ops::PadImageStyle(
 156:../src/tensorflow_lite/tensorflow/lite/micro/kernels/pad.cc ****             data->params, tflite::micro::GetTensorShape(input),
 157:../src/tensorflow_lite/tensorflow/lite/micro/kernels/pad.cc ****             tflite::micro::GetTensorData<float>(input), &pad_value,
 158:../src/tensorflow_lite/tensorflow/lite/micro/kernels/pad.cc ****             tflite::micro::GetTensorShape(output),
 159:../src/tensorflow_lite/tensorflow/lite/micro/kernels/pad.cc ****             tflite::micro::GetTensorData<float>(output));
 160:../src/tensorflow_lite/tensorflow/lite/micro/kernels/pad.cc ****       } else {
 161:../src/tensorflow_lite/tensorflow/lite/micro/kernels/pad.cc ****         reference_ops::Pad(data->params, tflite::micro::GetTensorShape(input),
 162:../src/tensorflow_lite/tensorflow/lite/micro/kernels/pad.cc ****                            tflite::micro::GetTensorData<float>(input),
 163:../src/tensorflow_lite/tensorflow/lite/micro/kernels/pad.cc ****                            &pad_value, tflite::micro::GetTensorShape(output),
 164:../src/tensorflow_lite/tensorflow/lite/micro/kernels/pad.cc ****                            tflite::micro::GetTensorData<float>(output));
 165:../src/tensorflow_lite/tensorflow/lite/micro/kernels/pad.cc ****       }
 166:../src/tensorflow_lite/tensorflow/lite/micro/kernels/pad.cc ****     } break;
 167:../src/tensorflow_lite/tensorflow/lite/micro/kernels/pad.cc ****     case kTfLiteUInt8: {
 168:../src/tensorflow_lite/tensorflow/lite/micro/kernels/pad.cc ****       uint8_t pad_value;
 169:../src/tensorflow_lite/tensorflow/lite/micro/kernels/pad.cc ****       if (constant_values == nullptr) {
 170:../src/tensorflow_lite/tensorflow/lite/micro/kernels/pad.cc ****         pad_value = static_cast<uint8_t>(data->output_zero_point);
 171:../src/tensorflow_lite/tensorflow/lite/micro/kernels/pad.cc ****       } else {
 172:../src/tensorflow_lite/tensorflow/lite/micro/kernels/pad.cc ****         pad_value = *tflite::micro::GetTensorData<uint8_t>(constant_values);
 173:../src/tensorflow_lite/tensorflow/lite/micro/kernels/pad.cc ****       }
 174:../src/tensorflow_lite/tensorflow/lite/micro/kernels/pad.cc ****       if (data->params.resizing_category == ResizingCategory::kImageStyle) {
 175:../src/tensorflow_lite/tensorflow/lite/micro/kernels/pad.cc ****         reference_ops::PadImageStyle(
 176:../src/tensorflow_lite/tensorflow/lite/micro/kernels/pad.cc ****             data->params, tflite::micro::GetTensorShape(input),
 177:../src/tensorflow_lite/tensorflow/lite/micro/kernels/pad.cc ****             tflite::micro::GetTensorData<uint8_t>(input), &pad_value,
 178:../src/tensorflow_lite/tensorflow/lite/micro/kernels/pad.cc ****             tflite::micro::GetTensorShape(output),
 179:../src/tensorflow_lite/tensorflow/lite/micro/kernels/pad.cc ****             tflite::micro::GetTensorData<uint8_t>(output));
 180:../src/tensorflow_lite/tensorflow/lite/micro/kernels/pad.cc ****       } else {
 181:../src/tensorflow_lite/tensorflow/lite/micro/kernels/pad.cc ****         reference_ops::Pad(data->params, tflite::micro::GetTensorShape(input),
 182:../src/tensorflow_lite/tensorflow/lite/micro/kernels/pad.cc ****                            tflite::micro::GetTensorData<uint8_t>(input),
 183:../src/tensorflow_lite/tensorflow/lite/micro/kernels/pad.cc ****                            &pad_value, tflite::micro::GetTensorShape(output),
 184:../src/tensorflow_lite/tensorflow/lite/micro/kernels/pad.cc ****                            tflite::micro::GetTensorData<uint8_t>(output));
 185:../src/tensorflow_lite/tensorflow/lite/micro/kernels/pad.cc ****       }
 186:../src/tensorflow_lite/tensorflow/lite/micro/kernels/pad.cc ****     } break;
 187:../src/tensorflow_lite/tensorflow/lite/micro/kernels/pad.cc ****     case kTfLiteInt8: {
 188:../src/tensorflow_lite/tensorflow/lite/micro/kernels/pad.cc ****       int8_t pad_value;
 189:../src/tensorflow_lite/tensorflow/lite/micro/kernels/pad.cc ****       if (constant_values == nullptr) {
 190:../src/tensorflow_lite/tensorflow/lite/micro/kernels/pad.cc ****         pad_value = static_cast<uint8_t>(data->output_zero_point);
 2138              		.loc 1 190 0
 2139 009c D4A3D5E1 		ldrsb	r10, [r5, #52]
 2140              	.LVL239:
 2141              	.L474:
 191:../src/tensorflow_lite/tensorflow/lite/micro/kernels/pad.cc ****       } else {
 192:../src/tensorflow_lite/tensorflow/lite/micro/kernels/pad.cc ****         pad_value = *tflite::micro::GetTensorData<int8_t>(constant_values);
 193:../src/tensorflow_lite/tensorflow/lite/micro/kernels/pad.cc ****       }
 194:../src/tensorflow_lite/tensorflow/lite/micro/kernels/pad.cc ****       if (data->params.resizing_category == ResizingCategory::kImageStyle) {
 2142              		.loc 1 194 0
 2143 00a0 3030D5E5 		ldrb	r3, [r5, #48]	@ zero_extendqisi2
 2144 00a4 010053E3 		cmp	r3, #1
 2145 00a8 0203000A 		beq	.L1464
 195:../src/tensorflow_lite/tensorflow/lite/micro/kernels/pad.cc ****         reference_ops::PadImageStyle(
 196:../src/tensorflow_lite/tensorflow/lite/micro/kernels/pad.cc ****             data->params, tflite::micro::GetTensorShape(input),
 197:../src/tensorflow_lite/tensorflow/lite/micro/kernels/pad.cc ****             tflite::micro::GetTensorData<int8_t>(input), &pad_value,
 198:../src/tensorflow_lite/tensorflow/lite/micro/kernels/pad.cc ****             tflite::micro::GetTensorShape(output),
 199:../src/tensorflow_lite/tensorflow/lite/micro/kernels/pad.cc ****             tflite::micro::GetTensorData<int8_t>(output));
 200:../src/tensorflow_lite/tensorflow/lite/micro/kernels/pad.cc ****       } else {
 201:../src/tensorflow_lite/tensorflow/lite/micro/kernels/pad.cc ****         reference_ops::Pad(data->params, tflite::micro::GetTensorShape(input),
 2146              		.loc 1 201 0
 2147 00ac 0710A0E1 		mov	r1, r7
 2148 00b0 88008DE2 		add	r0, sp, #136
 2149 00b4 FEFFFFEB 		bl	_ZN6tflite5micro14GetTensorShapeEPK16TfLiteEvalTensor
 2150              	.LVL240:
 2151              	.LEHE3:
 2152              	.LBB1210:
 2153              	.LBB1211:
  51:C:/Renesas/e2studio_2021_01_workspace_RZA2M_ANPR/ANPR_RZA2M_GR_MANGO/src/tensorflow_lite/tensorflow/lite/micro/kernels\kernel_util.h **** }
  52:C:/Renesas/e2studio_2021_01_workspace_RZA2M_ANPR/ANPR_RZA2M_GR_MANGO/src/tensorflow_lite/tensorflow/lite/micro/kernels\kernel_util.h **** 
  53:C:/Renesas/e2studio_2021_01_workspace_RZA2M_ANPR/ANPR_RZA2M_GR_MANGO/src/tensorflow_lite/tensorflow/lite/micro/kernels\kernel_util.h **** // Returns data for a TfLiteEvalTensor struct.
  54:C:/Renesas/e2studio_2021_01_workspace_RZA2M_ANPR/ANPR_RZA2M_GR_MANGO/src/tensorflow_lite/tensorflow/lite/micro/kernels\kernel_util.h **** template <typename T>
  55:C:/Renesas/e2studio_2021_01_workspace_RZA2M_ANPR/ANPR_RZA2M_GR_MANGO/src/tensorflow_lite/tensorflow/lite/micro/kernels\kernel_util.h **** T* GetTensorData(TfLiteEvalTensor* tensor) {
  56:C:/Renesas/e2studio_2021_01_workspace_RZA2M_ANPR/ANPR_RZA2M_GR_MANGO/src/tensorflow_lite/tensorflow/lite/micro/kernels\kernel_util.h ****   return tensor != nullptr ? reinterpret_cast<T*>(tensor->data.raw) : nullptr;
  57:C:/Renesas/e2studio_2021_01_workspace_RZA2M_ANPR/ANPR_RZA2M_GR_MANGO/src/tensorflow_lite/tensorflow/lite/micro/kernels\kernel_util.h **** }
  58:C:/Renesas/e2studio_2021_01_workspace_RZA2M_ANPR/ANPR_RZA2M_GR_MANGO/src/tensorflow_lite/tensorflow/lite/micro/kernels\kernel_util.h **** 
  59:C:/Renesas/e2studio_2021_01_workspace_RZA2M_ANPR/ANPR_RZA2M_GR_MANGO/src/tensorflow_lite/tensorflow/lite/micro/kernels\kernel_util.h **** // Returns const data for a TfLiteEvalTensor struct.
  60:C:/Renesas/e2studio_2021_01_workspace_RZA2M_ANPR/ANPR_RZA2M_GR_MANGO/src/tensorflow_lite/tensorflow/lite/micro/kernels\kernel_util.h **** template <typename T>
  61:C:/Renesas/e2studio_2021_01_workspace_RZA2M_ANPR/ANPR_RZA2M_GR_MANGO/src/tensorflow_lite/tensorflow/lite/micro/kernels\kernel_util.h **** const T* GetTensorData(const TfLiteEvalTensor* tensor) {
  62:C:/Renesas/e2studio_2021_01_workspace_RZA2M_ANPR/ANPR_RZA2M_GR_MANGO/src/tensorflow_lite/tensorflow/lite/micro/kernels\kernel_util.h ****   TFLITE_DCHECK(tensor != nullptr);
  63:C:/Renesas/e2studio_2021_01_workspace_RZA2M_ANPR/ANPR_RZA2M_GR_MANGO/src/tensorflow_lite/tensorflow/lite/micro/kernels\kernel_util.h ****   return reinterpret_cast<const T*>(tensor->data.raw);
 2154              		.loc 5 63 0
 2155 00b8 003097E5 		ldr	r3, [r7]
 2156              	.LBE1211:
 2157              	.LBE1210:
 202:../src/tensorflow_lite/tensorflow/lite/micro/kernels/pad.cc ****                            tflite::micro::GetTensorData<int8_t>(input),
 203:../src/tensorflow_lite/tensorflow/lite/micro/kernels/pad.cc ****                            &pad_value, tflite::micro::GetTensorShape(output),
 2158              		.loc 1 203 0
 2159 00bc 0910A0E1 		mov	r1, r9
 2160 00c0 A0008DE2 		add	r0, sp, #160
 2161              	.LBB1213:
 2162              	.LBB1212:
 2163              		.loc 5 63 0
 2164 00c4 3C308DE5 		str	r3, [sp, #60]
 2165              	.LEHB4:
 2166              	.LBE1212:
 2167              	.LBE1213:
 2168              		.loc 1 203 0
 2169 00c8 FEFFFFEB 		bl	_ZN6tflite5micro14GetTensorShapeEPK16TfLiteEvalTensor
 2170              	.LVL241:
 2171              	.LEHE4:
 2172 00cc 88209DE5 		ldr	r2, [sp, #136]
 2173              	.LBB1214:
 2174              	.LBB1215:
  56:C:/Renesas/e2studio_2021_01_workspace_RZA2M_ANPR/ANPR_RZA2M_GR_MANGO/src/tensorflow_lite/tensorflow/lite/micro/kernels\kernel_util.h **** }
 2175              		.loc 5 56 0
 2176 00d0 000059E3 		cmp	r9, #0
 2177 00d4 00409915 		ldrne	r4, [r9]
 2178 00d8 0940A001 		moveq	r4, r9
 2179              	.LVL242:
 2180              	.LBE1215:
 2181              	.LBE1214:
 2182              	.LBB1216:
 2183              	.LBB1217:
 2184              	.LBB1218:
 2185              	.LBB1219:
 2186              	.LBB1220:
 2187              	.LBB1221:
 2188              	.LBB1222:
 294:C:/Renesas/e2studio_2021_01_workspace_RZA2M_ANPR/ANPR_RZA2M_GR_MANGO/src/tensorflow_lite/tensorflow/lite/kernels/internal\types.h ****     }
 295:C:/Renesas/e2studio_2021_01_workspace_RZA2M_ANPR/ANPR_RZA2M_GR_MANGO/src/tensorflow_lite/tensorflow/lite/kernels/internal\types.h ****     return buffer_size;
 296:C:/Renesas/e2studio_2021_01_workspace_RZA2M_ANPR/ANPR_RZA2M_GR_MANGO/src/tensorflow_lite/tensorflow/lite/kernels/internal\types.h ****   }
 297:C:/Renesas/e2studio_2021_01_workspace_RZA2M_ANPR/ANPR_RZA2M_GR_MANGO/src/tensorflow_lite/tensorflow/lite/kernels/internal\types.h **** 
 298:C:/Renesas/e2studio_2021_01_workspace_RZA2M_ANPR/ANPR_RZA2M_GR_MANGO/src/tensorflow_lite/tensorflow/lite/kernels/internal\types.h ****   bool operator!=(const RuntimeShape& comp) const { return !((*this) == comp); }
 299:C:/Renesas/e2studio_2021_01_workspace_RZA2M_ANPR/ANPR_RZA2M_GR_MANGO/src/tensorflow_lite/tensorflow/lite/kernels/internal\types.h **** 
 300:C:/Renesas/e2studio_2021_01_workspace_RZA2M_ANPR/ANPR_RZA2M_GR_MANGO/src/tensorflow_lite/tensorflow/lite/kernels/internal\types.h ****  private:
 301:C:/Renesas/e2studio_2021_01_workspace_RZA2M_ANPR/ANPR_RZA2M_GR_MANGO/src/tensorflow_lite/tensorflow/lite/kernels/internal\types.h ****   // For use only by ExtendedShape(), written to guarantee (return-value) copy
 302:C:/Renesas/e2studio_2021_01_workspace_RZA2M_ANPR/ANPR_RZA2M_GR_MANGO/src/tensorflow_lite/tensorflow/lite/kernels/internal\types.h ****   // elision in C++17.
 303:C:/Renesas/e2studio_2021_01_workspace_RZA2M_ANPR/ANPR_RZA2M_GR_MANGO/src/tensorflow_lite/tensorflow/lite/kernels/internal\types.h ****   // This creates a shape padded to the desired size with the specified value.
 304:C:/Renesas/e2studio_2021_01_workspace_RZA2M_ANPR/ANPR_RZA2M_GR_MANGO/src/tensorflow_lite/tensorflow/lite/kernels/internal\types.h ****   RuntimeShape(int new_shape_size, const RuntimeShape& shape, int pad_value)
 305:C:/Renesas/e2studio_2021_01_workspace_RZA2M_ANPR/ANPR_RZA2M_GR_MANGO/src/tensorflow_lite/tensorflow/lite/kernels/internal\types.h ****       : size_(0) {
 2189              		.loc 4 305 0
 2190 00dc 0030A0E3 		mov	r3, #0
 2191              	.LBB1223:
 306:C:/Renesas/e2studio_2021_01_workspace_RZA2M_ANPR/ANPR_RZA2M_GR_MANGO/src/tensorflow_lite/tensorflow/lite/kernels/internal\types.h ****     // If the following check fails, it is likely because a 4D-only kernel is
 307:C:/Renesas/e2studio_2021_01_workspace_RZA2M_ANPR/ANPR_RZA2M_GR_MANGO/src/tensorflow_lite/tensorflow/lite/kernels/internal\types.h ****     // being used with an array of larger dimension count.
 308:C:/Renesas/e2studio_2021_01_workspace_RZA2M_ANPR/ANPR_RZA2M_GR_MANGO/src/tensorflow_lite/tensorflow/lite/kernels/internal\types.h ****     TFLITE_CHECK_GE(new_shape_size, shape.DimensionsCount());
 2192              		.loc 4 308 0
 2193 00e0 050052E3 		cmp	r2, #5
 2194              	.LBE1223:
 305:C:/Renesas/e2studio_2021_01_workspace_RZA2M_ANPR/ANPR_RZA2M_GR_MANGO/src/tensorflow_lite/tensorflow/lite/kernels/internal\types.h ****     // If the following check fails, it is likely because a 4D-only kernel is
 2195              		.loc 4 305 0
 2196 00e4 B8308DE5 		str	r3, [sp, #184]
 2197              	.LBB1240:
 2198              		.loc 4 308 0
 2199 00e8 E20100CA 		bgt	.L1465
 2200              	.LVL243:
 2201              	.LBB1224:
 309:C:/Renesas/e2studio_2021_01_workspace_RZA2M_ANPR/ANPR_RZA2M_GR_MANGO/src/tensorflow_lite/tensorflow/lite/kernels/internal\types.h ****     Resize(new_shape_size);
 310:C:/Renesas/e2studio_2021_01_workspace_RZA2M_ANPR/ANPR_RZA2M_GR_MANGO/src/tensorflow_lite/tensorflow/lite/kernels/internal\types.h ****     const int size_increase = new_shape_size - shape.DimensionsCount();
 311:C:/Renesas/e2studio_2021_01_workspace_RZA2M_ANPR/ANPR_RZA2M_GR_MANGO/src/tensorflow_lite/tensorflow/lite/kernels/internal\types.h ****     for (int i = 0; i < size_increase; ++i) {
 2202              		.loc 4 311 0
 2203 00ec 050072E2 		rsbs	r0, r2, #5
 2204              	.LBE1224:
 2205              	.LBB1237:
 2206              	.LBB1238:
 245:C:/Renesas/e2studio_2021_01_workspace_RZA2M_ANPR/ANPR_RZA2M_GR_MANGO/src/tensorflow_lite/tensorflow/lite/kernels/internal\types.h ****     if (dimensions_count > kMaxSmallSize) {
 2207              		.loc 4 245 0
 2208 00f0 0530A0E3 		mov	r3, #5
 2209 00f4 B8308DE5 		str	r3, [sp, #184]
 2210              	.LVL244:
 2211              	.LBE1238:
 2212              	.LBE1237:
 2213              	.LBB1239:
 2214              		.loc 4 311 0
 2215 00f8 BF01000A 		beq	.L534
 2216              	.LVL245:
 2217 00fc 010050E3 		cmp	r0, #1
 2218              	.LBB1225:
 2219              	.LBB1226:
 224:C:/Renesas/e2studio_2021_01_workspace_RZA2M_ANPR/ANPR_RZA2M_GR_MANGO/src/tensorflow_lite/tensorflow/lite/kernels/internal\types.h ****     }
 2220              		.loc 4 224 0
 2221 0100 0130A0E3 		mov	r3, #1
 2222 0104 BC308DE5 		str	r3, [sp, #188]
 2223              	.LVL246:
 2224              	.LBE1226:
 2225              	.LBE1225:
 2226              		.loc 4 311 0
 2227 0108 BB01000A 		beq	.L534
 2228              	.LVL247:
 2229 010c 020050E3 		cmp	r0, #2
 2230              	.LBB1232:
 2231              	.LBB1227:
 224:C:/Renesas/e2studio_2021_01_workspace_RZA2M_ANPR/ANPR_RZA2M_GR_MANGO/src/tensorflow_lite/tensorflow/lite/kernels/internal\types.h ****     }
 2232              		.loc 4 224 0
 2233 0110 C0308DE5 		str	r3, [sp, #192]
 2234              	.LVL248:
 2235              	.LBE1227:
 2236              	.LBE1232:
 2237              		.loc 4 311 0
 2238 0114 B801000A 		beq	.L534
 2239              	.LVL249:
 2240 0118 030050E3 		cmp	r0, #3
 2241              	.LBB1233:
 2242              	.LBB1228:
 224:C:/Renesas/e2studio_2021_01_workspace_RZA2M_ANPR/ANPR_RZA2M_GR_MANGO/src/tensorflow_lite/tensorflow/lite/kernels/internal\types.h ****     }
 2243              		.loc 4 224 0
 2244 011c C4308DE5 		str	r3, [sp, #196]
 2245              	.LVL250:
 2246              	.LBE1228:
 2247              	.LBE1233:
 2248              		.loc 4 311 0
 2249 0120 B501000A 		beq	.L534
 2250              	.LVL251:
 2251 0124 040050E3 		cmp	r0, #4
 2252              	.LBB1234:
 2253              	.LBB1229:
 224:C:/Renesas/e2studio_2021_01_workspace_RZA2M_ANPR/ANPR_RZA2M_GR_MANGO/src/tensorflow_lite/tensorflow/lite/kernels/internal\types.h ****     }
 2254              		.loc 4 224 0
 2255 0128 C8308DE5 		str	r3, [sp, #200]
 2256              	.LVL252:
 2257              	.LBE1229:
 2258              	.LBE1234:
 2259              		.loc 4 311 0
 2260 012c B201000A 		beq	.L534
 2261              	.LVL253:
 2262 0130 050050E3 		cmp	r0, #5
 2263              	.LBB1235:
 2264              	.LBB1230:
 224:C:/Renesas/e2studio_2021_01_workspace_RZA2M_ANPR/ANPR_RZA2M_GR_MANGO/src/tensorflow_lite/tensorflow/lite/kernels/internal\types.h ****     }
 2265              		.loc 4 224 0
 2266 0134 CC308DE5 		str	r3, [sp, #204]
 2267              	.LVL254:
 2268              	.LBE1230:
 2269              	.LBE1235:
 2270              		.loc 4 311 0
 2271 0138 AF01000A 		beq	.L534
 2272              	.LVL255:
 2273              	.LEHB5:
 2274              	.LBB1236:
 2275              	.LBB1231:
 220:C:/Renesas/e2studio_2021_01_workspace_RZA2M_ANPR/ANPR_RZA2M_GR_MANGO/src/tensorflow_lite/tensorflow/lite/kernels/internal\types.h ****     if (size_ > kMaxSmallSize) {
 2276              		.loc 4 220 0
 2277 013c FEFFFFEB 		bl	abort
 2278              	.LVL256:
 2279              	.LEHE5:
 2280              	.L362:
 2281              	.LBE1231:
 2282              	.LBE1236:
 2283              	.LBE1239:
 2284              	.LBE1240:
 2285              	.LBE1222:
 2286              	.LBE1221:
 2287              	.LBE1220:
 2288              	.LBE1219:
 2289              	.LBE1218:
 2290              	.LBE1217:
 2291              	.LBE1216:
 2292              	.LBE1209:
 2293              	.LBB1545:
 170:../src/tensorflow_lite/tensorflow/lite/micro/kernels/pad.cc ****       } else {
 2294              		.loc 1 170 0
 2295 0140 34A0D5E5 		ldrb	r10, [r5, #52]	@ zero_extendqisi2
 2296              	.LVL257:
 2297              	.L363:
 174:../src/tensorflow_lite/tensorflow/lite/micro/kernels/pad.cc ****         reference_ops::PadImageStyle(
 2298              		.loc 1 174 0
 2299 0144 3030D5E5 		ldrb	r3, [r5, #48]	@ zero_extendqisi2
 2300 0148 010053E3 		cmp	r3, #1
 2301 014c 8501000A 		beq	.L1466
 181:../src/tensorflow_lite/tensorflow/lite/micro/kernels/pad.cc ****                            tflite::micro::GetTensorData<uint8_t>(input),
 2302              		.loc 1 181 0
 2303 0150 0710A0E1 		mov	r1, r7
 2304 0154 88008DE2 		add	r0, sp, #136
 2305              	.LEHB6:
 2306 0158 FEFFFFEB 		bl	_ZN6tflite5micro14GetTensorShapeEPK16TfLiteEvalTensor
 2307              	.LVL258:
 2308              	.LEHE6:
 2309              	.LBB1546:
 2310              	.LBB1547:
 2311              		.loc 5 63 0
 2312 015c 003097E5 		ldr	r3, [r7]
 2313              	.LBE1547:
 2314              	.LBE1546:
 183:../src/tensorflow_lite/tensorflow/lite/micro/kernels/pad.cc ****                            tflite::micro::GetTensorData<uint8_t>(output));
 2315              		.loc 1 183 0
 2316 0160 0910A0E1 		mov	r1, r9
 2317 0164 A0008DE2 		add	r0, sp, #160
 2318              	.LBB1549:
 2319              	.LBB1548:
 2320              		.loc 5 63 0
 2321 0168 40308DE5 		str	r3, [sp, #64]
 2322              	.LEHB7:
 2323              	.LBE1548:
 2324              	.LBE1549:
 183:../src/tensorflow_lite/tensorflow/lite/micro/kernels/pad.cc ****                            tflite::micro::GetTensorData<uint8_t>(output));
 2325              		.loc 1 183 0
 2326 016c FEFFFFEB 		bl	_ZN6tflite5micro14GetTensorShapeEPK16TfLiteEvalTensor
 2327              	.LVL259:
 2328              	.LEHE7:
 2329 0170 88209DE5 		ldr	r2, [sp, #136]
 2330              	.LBB1550:
 2331              	.LBB1551:
  56:C:/Renesas/e2studio_2021_01_workspace_RZA2M_ANPR/ANPR_RZA2M_GR_MANGO/src/tensorflow_lite/tensorflow/lite/micro/kernels\kernel_util.h **** }
 2332              		.loc 5 56 0
 2333 0174 000059E3 		cmp	r9, #0
 2334 0178 00409915 		ldrne	r4, [r9]
 2335 017c 0940A001 		moveq	r4, r9
 2336              	.LVL260:
 2337              	.LBE1551:
 2338              	.LBE1550:
 2339              	.LBB1552:
 2340              	.LBB1553:
 2341              	.LBB1554:
 2342              	.LBB1555:
 2343              	.LBB1556:
 2344              	.LBB1557:
 2345              	.LBB1558:
 305:C:/Renesas/e2studio_2021_01_workspace_RZA2M_ANPR/ANPR_RZA2M_GR_MANGO/src/tensorflow_lite/tensorflow/lite/kernels/internal\types.h ****     // If the following check fails, it is likely because a 4D-only kernel is
 2346              		.loc 4 305 0
 2347 0180 0030A0E3 		mov	r3, #0
 2348              	.LBB1559:
 308:C:/Renesas/e2studio_2021_01_workspace_RZA2M_ANPR/ANPR_RZA2M_GR_MANGO/src/tensorflow_lite/tensorflow/lite/kernels/internal\types.h ****     Resize(new_shape_size);
 2349              		.loc 4 308 0
 2350 0184 050052E3 		cmp	r2, #5
 2351              	.LBE1559:
 305:C:/Renesas/e2studio_2021_01_workspace_RZA2M_ANPR/ANPR_RZA2M_GR_MANGO/src/tensorflow_lite/tensorflow/lite/kernels/internal\types.h ****     // If the following check fails, it is likely because a 4D-only kernel is
 2352              		.loc 4 305 0
 2353 0188 B8308DE5 		str	r3, [sp, #184]
 2354              	.LBB1576:
 308:C:/Renesas/e2studio_2021_01_workspace_RZA2M_ANPR/ANPR_RZA2M_GR_MANGO/src/tensorflow_lite/tensorflow/lite/kernels/internal\types.h ****     Resize(new_shape_size);
 2355              		.loc 4 308 0
 2356 018c 430000CA 		bgt	.L1467
 2357              	.LVL261:
 2358              	.LBB1560:
 2359              		.loc 4 311 0
 2360 0190 050072E2 		rsbs	r0, r2, #5
 2361              	.LBE1560:
 2362              	.LBB1573:
 2363              	.LBB1574:
 245:C:/Renesas/e2studio_2021_01_workspace_RZA2M_ANPR/ANPR_RZA2M_GR_MANGO/src/tensorflow_lite/tensorflow/lite/kernels/internal\types.h ****     if (dimensions_count > kMaxSmallSize) {
 2364              		.loc 4 245 0
 2365 0194 0530A0E3 		mov	r3, #5
 2366 0198 B8308DE5 		str	r3, [sp, #184]
 2367              	.LVL262:
 2368              	.LBE1574:
 2369              	.LBE1573:
 2370              	.LBB1575:
 2371              		.loc 4 311 0
 2372 019c 2000000A 		beq	.L423
 2373              	.LVL263:
 2374 01a0 010050E3 		cmp	r0, #1
 2375              	.LBB1561:
 2376              	.LBB1562:
 224:C:/Renesas/e2studio_2021_01_workspace_RZA2M_ANPR/ANPR_RZA2M_GR_MANGO/src/tensorflow_lite/tensorflow/lite/kernels/internal\types.h ****     }
 2377              		.loc 4 224 0
 2378 01a4 0130A0E3 		mov	r3, #1
 2379 01a8 BC308DE5 		str	r3, [sp, #188]
 2380              	.LVL264:
 2381              	.LBE1562:
 2382              	.LBE1561:
 2383              		.loc 4 311 0
 2384 01ac 1C00000A 		beq	.L423
 2385              	.LVL265:
 2386 01b0 020050E3 		cmp	r0, #2
 2387              	.LBB1568:
 2388              	.LBB1563:
 224:C:/Renesas/e2studio_2021_01_workspace_RZA2M_ANPR/ANPR_RZA2M_GR_MANGO/src/tensorflow_lite/tensorflow/lite/kernels/internal\types.h ****     }
 2389              		.loc 4 224 0
 2390 01b4 C0308DE5 		str	r3, [sp, #192]
 2391              	.LVL266:
 2392              	.LBE1563:
 2393              	.LBE1568:
 2394              		.loc 4 311 0
 2395 01b8 1900000A 		beq	.L423
 2396              	.LVL267:
 2397 01bc 030050E3 		cmp	r0, #3
 2398              	.LBB1569:
 2399              	.LBB1564:
 224:C:/Renesas/e2studio_2021_01_workspace_RZA2M_ANPR/ANPR_RZA2M_GR_MANGO/src/tensorflow_lite/tensorflow/lite/kernels/internal\types.h ****     }
 2400              		.loc 4 224 0
 2401 01c0 C4308DE5 		str	r3, [sp, #196]
 2402              	.LVL268:
 2403              	.LBE1564:
 2404              	.LBE1569:
 2405              		.loc 4 311 0
 2406 01c4 1600000A 		beq	.L423
 2407              	.LVL269:
 2408 01c8 040050E3 		cmp	r0, #4
 2409              	.LBB1570:
 2410              	.LBB1565:
 224:C:/Renesas/e2studio_2021_01_workspace_RZA2M_ANPR/ANPR_RZA2M_GR_MANGO/src/tensorflow_lite/tensorflow/lite/kernels/internal\types.h ****     }
 2411              		.loc 4 224 0
 2412 01cc C8308DE5 		str	r3, [sp, #200]
 2413              	.LVL270:
 2414              	.LBE1565:
 2415              	.LBE1570:
 2416              		.loc 4 311 0
 2417 01d0 1300000A 		beq	.L423
 2418              	.LVL271:
 2419 01d4 050050E3 		cmp	r0, #5
 2420              	.LBB1571:
 2421              	.LBB1566:
 224:C:/Renesas/e2studio_2021_01_workspace_RZA2M_ANPR/ANPR_RZA2M_GR_MANGO/src/tensorflow_lite/tensorflow/lite/kernels/internal\types.h ****     }
 2422              		.loc 4 224 0
 2423 01d8 CC308DE5 		str	r3, [sp, #204]
 2424              	.LVL272:
 2425              	.LBE1566:
 2426              	.LBE1571:
 2427              		.loc 4 311 0
 2428 01dc 1000000A 		beq	.L423
 2429              	.LVL273:
 2430              	.LEHB8:
 2431              	.LBB1572:
 2432              	.LBB1567:
 220:C:/Renesas/e2studio_2021_01_workspace_RZA2M_ANPR/ANPR_RZA2M_GR_MANGO/src/tensorflow_lite/tensorflow/lite/kernels/internal\types.h ****     if (size_ > kMaxSmallSize) {
 2433              		.loc 4 220 0
 2434 01e0 FEFFFFEB 		bl	abort
 2435              	.LVL274:
 2436              	.LEHE8:
 2437              	.L775:
 2438              	.L656:
 2439              	.LBE1567:
 2440              	.LBE1572:
 2441              	.LBE1575:
 2442              	.LBE1576:
 2443              	.LBE1558:
 2444              	.LBE1557:
 2445              	.LBE1556:
 2446              	.LBE1555:
 2447              	.LBE1554:
 2448              	.LBE1553:
 2449              	.LBE1552:
 2450              	.LBE1545:
 2451              	.LBB1887:
 2452              	.LBB1888:
 2453              	.LBB1889:
 203:C:/Renesas/e2studio_2021_01_workspace_RZA2M_ANPR/ANPR_RZA2M_GR_MANGO/src/tensorflow_lite/tensorflow/lite/kernels/internal\types.h **** #ifdef TF_LITE_STATIC_MEMORY
 2454              		.loc 4 203 0
 2455 01e4 A0309DE5 		ldr	r3, [sp, #160]
 2456 01e8 050053E3 		cmp	r3, #5
 2457 01ec 030000DA 		ble	.L677
 207:C:/Renesas/e2studio_2021_01_workspace_RZA2M_ANPR/ANPR_RZA2M_GR_MANGO/src/tensorflow_lite/tensorflow/lite/kernels/internal\types.h **** #endif  // TF_LITE_STATIC_MEMORY
 2458              		.loc 4 207 0
 2459 01f0 A4009DE5 		ldr	r0, [sp, #164]
 2460 01f4 000050E3 		cmp	r0, #0
 2461 01f8 0000000A 		beq	.L677
 2462 01fc FEFFFFEB 		bl	_ZdaPv
 2463              	.LVL275:
 2464              	.L677:
 2465              	.LBE1889:
 2466              	.LBE1888:
 2467              	.LBB1890:
 2468              	.LBB1891:
 203:C:/Renesas/e2studio_2021_01_workspace_RZA2M_ANPR/ANPR_RZA2M_GR_MANGO/src/tensorflow_lite/tensorflow/lite/kernels/internal\types.h **** #ifdef TF_LITE_STATIC_MEMORY
 2469              		.loc 4 203 0 discriminator 2
 2470 0200 88309DE5 		ldr	r3, [sp, #136]
 2471 0204 050053E3 		cmp	r3, #5
 2472 0208 030000DA 		ble	.L678
 207:C:/Renesas/e2studio_2021_01_workspace_RZA2M_ANPR/ANPR_RZA2M_GR_MANGO/src/tensorflow_lite/tensorflow/lite/kernels/internal\types.h **** #endif  // TF_LITE_STATIC_MEMORY
 2473              		.loc 4 207 0
 2474 020c 8C009DE5 		ldr	r0, [sp, #140]
 2475 0210 000050E3 		cmp	r0, #0
 2476 0214 0000000A 		beq	.L678
 2477 0218 FEFFFFEB 		bl	_ZdaPv
 2478              	.LVL276:
 2479              	.L678:
 2480              	.LEHB9:
 2481 021c FEFFFFEB 		bl	__cxa_end_cleanup
 2482              	.LVL277:
 2483              	.LEHE9:
 2484              	.L771:
 2485 0220 EFFFFFEA 		b	.L656
 2486              	.LVL278:
 2487              	.L423:
 2488              	.LBE1891:
 2489              	.LBE1890:
 2490              	.LBE1887:
 2491              	.LBB2074:
 2492              	.LBB1716:
 2493              	.LBB1712:
 2494              	.LBB1708:
 2495              	.LBB1585:
 2496              	.LBB1583:
 2497              	.LBB1581:
 2498              	.LBB1579:
 2499              	.LBB1577:
 312:C:/Renesas/e2studio_2021_01_workspace_RZA2M_ANPR/ANPR_RZA2M_GR_MANGO/src/tensorflow_lite/tensorflow/lite/kernels/internal\types.h ****       SetDim(i, pad_value);
 313:C:/Renesas/e2studio_2021_01_workspace_RZA2M_ANPR/ANPR_RZA2M_GR_MANGO/src/tensorflow_lite/tensorflow/lite/kernels/internal\types.h ****     }
 314:C:/Renesas/e2studio_2021_01_workspace_RZA2M_ANPR/ANPR_RZA2M_GR_MANGO/src/tensorflow_lite/tensorflow/lite/kernels/internal\types.h ****     std::memcpy(DimsData() + size_increase, shape.DimsData(),
 315:C:/Renesas/e2studio_2021_01_workspace_RZA2M_ANPR/ANPR_RZA2M_GR_MANGO/src/tensorflow_lite/tensorflow/lite/kernels/internal\types.h ****                 sizeof(int32_t) * shape.DimensionsCount());
 2500              		.loc 4 315 0
 2501 0224 BC308DE2 		add	r3, sp, #188
 2502 0228 0221A0E1 		lsl	r2, r2, #2
 2503 022c 000183E0 		add	r0, r3, r0, lsl #2
 2504              	.LVL279:
 2505 0230 8C108DE2 		add	r1, sp, #140
 2506 0234 FEFFFFEB 		bl	memcpy
 2507              	.LVL280:
 2508 0238 A0209DE5 		ldr	r2, [sp, #160]
 2509              	.LVL281:
 2510              	.LBE1577:
 2511              	.LBE1579:
 2512              	.LBE1581:
 2513              	.LBE1583:
 2514              	.LBE1585:
 2515              	.LBB1586:
 2516              	.LBB1587:
 2517              	.LBB1588:
 2518              	.LBB1589:
 305:C:/Renesas/e2studio_2021_01_workspace_RZA2M_ANPR/ANPR_RZA2M_GR_MANGO/src/tensorflow_lite/tensorflow/lite/kernels/internal\types.h ****     // If the following check fails, it is likely because a 4D-only kernel is
 2519              		.loc 4 305 0
 2520 023c 0030A0E3 		mov	r3, #0
 2521 0240 D0308DE5 		str	r3, [sp, #208]
 2522              	.LBB1590:
 308:C:/Renesas/e2studio_2021_01_workspace_RZA2M_ANPR/ANPR_RZA2M_GR_MANGO/src/tensorflow_lite/tensorflow/lite/kernels/internal\types.h ****     Resize(new_shape_size);
 2523              		.loc 4 308 0
 2524 0244 050052E3 		cmp	r2, #5
 2525 0248 430100CA 		bgt	.L1468
 2526              	.LVL282:
 2527              	.LBB1591:
 311:C:/Renesas/e2studio_2021_01_workspace_RZA2M_ANPR/ANPR_RZA2M_GR_MANGO/src/tensorflow_lite/tensorflow/lite/kernels/internal\types.h ****       SetDim(i, pad_value);
 2528              		.loc 4 311 0
 2529 024c 050072E2 		rsbs	r0, r2, #5
 2530              	.LBE1591:
 2531              	.LBB1604:
 2532              	.LBB1605:
 245:C:/Renesas/e2studio_2021_01_workspace_RZA2M_ANPR/ANPR_RZA2M_GR_MANGO/src/tensorflow_lite/tensorflow/lite/kernels/internal\types.h ****     if (dimensions_count > kMaxSmallSize) {
 2533              		.loc 4 245 0
 2534 0250 0530A0E3 		mov	r3, #5
 2535 0254 D0308DE5 		str	r3, [sp, #208]
 2536              	.LVL283:
 2537              	.LBE1605:
 2538              	.LBE1604:
 2539              	.LBB1606:
 311:C:/Renesas/e2studio_2021_01_workspace_RZA2M_ANPR/ANPR_RZA2M_GR_MANGO/src/tensorflow_lite/tensorflow/lite/kernels/internal\types.h ****       SetDim(i, pad_value);
 2540              		.loc 4 311 0
 2541 0258 1900000A 		beq	.L428
 2542              	.LVL284:
 2543 025c 010050E3 		cmp	r0, #1
 2544              	.LBB1592:
 2545              	.LBB1593:
 224:C:/Renesas/e2studio_2021_01_workspace_RZA2M_ANPR/ANPR_RZA2M_GR_MANGO/src/tensorflow_lite/tensorflow/lite/kernels/internal\types.h ****     }
 2546              		.loc 4 224 0
 2547 0260 0130A0E3 		mov	r3, #1
 2548 0264 D4308DE5 		str	r3, [sp, #212]
 2549              	.LVL285:
 2550              	.LBE1593:
 2551              	.LBE1592:
 311:C:/Renesas/e2studio_2021_01_workspace_RZA2M_ANPR/ANPR_RZA2M_GR_MANGO/src/tensorflow_lite/tensorflow/lite/kernels/internal\types.h ****       SetDim(i, pad_value);
 2552              		.loc 4 311 0
 2553 0268 1500000A 		beq	.L428
 2554              	.LVL286:
 2555 026c 020050E3 		cmp	r0, #2
 2556              	.LBB1599:
 2557              	.LBB1594:
 224:C:/Renesas/e2studio_2021_01_workspace_RZA2M_ANPR/ANPR_RZA2M_GR_MANGO/src/tensorflow_lite/tensorflow/lite/kernels/internal\types.h ****     }
 2558              		.loc 4 224 0
 2559 0270 D8308DE5 		str	r3, [sp, #216]
 2560              	.LVL287:
 2561              	.LBE1594:
 2562              	.LBE1599:
 311:C:/Renesas/e2studio_2021_01_workspace_RZA2M_ANPR/ANPR_RZA2M_GR_MANGO/src/tensorflow_lite/tensorflow/lite/kernels/internal\types.h ****       SetDim(i, pad_value);
 2563              		.loc 4 311 0
 2564 0274 1200000A 		beq	.L428
 2565              	.LVL288:
 2566 0278 030050E3 		cmp	r0, #3
 2567              	.LBB1600:
 2568              	.LBB1595:
 224:C:/Renesas/e2studio_2021_01_workspace_RZA2M_ANPR/ANPR_RZA2M_GR_MANGO/src/tensorflow_lite/tensorflow/lite/kernels/internal\types.h ****     }
 2569              		.loc 4 224 0
 2570 027c DC308DE5 		str	r3, [sp, #220]
 2571              	.LVL289:
 2572              	.LBE1595:
 2573              	.LBE1600:
 311:C:/Renesas/e2studio_2021_01_workspace_RZA2M_ANPR/ANPR_RZA2M_GR_MANGO/src/tensorflow_lite/tensorflow/lite/kernels/internal\types.h ****       SetDim(i, pad_value);
 2574              		.loc 4 311 0
 2575 0280 0F00000A 		beq	.L428
 2576              	.LVL290:
 2577 0284 040050E3 		cmp	r0, #4
 2578              	.LBB1601:
 2579              	.LBB1596:
 224:C:/Renesas/e2studio_2021_01_workspace_RZA2M_ANPR/ANPR_RZA2M_GR_MANGO/src/tensorflow_lite/tensorflow/lite/kernels/internal\types.h ****     }
 2580              		.loc 4 224 0
 2581 0288 E0308DE5 		str	r3, [sp, #224]
 2582              	.LVL291:
 2583              	.LBE1596:
 2584              	.LBE1601:
 311:C:/Renesas/e2studio_2021_01_workspace_RZA2M_ANPR/ANPR_RZA2M_GR_MANGO/src/tensorflow_lite/tensorflow/lite/kernels/internal\types.h ****       SetDim(i, pad_value);
 2585              		.loc 4 311 0
 2586 028c 0C00000A 		beq	.L428
 2587              	.LVL292:
 2588 0290 050050E3 		cmp	r0, #5
 2589              	.LBB1602:
 2590              	.LBB1597:
 224:C:/Renesas/e2studio_2021_01_workspace_RZA2M_ANPR/ANPR_RZA2M_GR_MANGO/src/tensorflow_lite/tensorflow/lite/kernels/internal\types.h ****     }
 2591              		.loc 4 224 0
 2592 0294 E4308DE5 		str	r3, [sp, #228]
 2593              	.LVL293:
 2594              	.LBE1597:
 2595              	.LBE1602:
 311:C:/Renesas/e2studio_2021_01_workspace_RZA2M_ANPR/ANPR_RZA2M_GR_MANGO/src/tensorflow_lite/tensorflow/lite/kernels/internal\types.h ****       SetDim(i, pad_value);
 2596              		.loc 4 311 0
 2597 0298 0900000A 		beq	.L428
 2598              	.LVL294:
 2599              	.LEHB10:
 2600              	.LBB1603:
 2601              	.LBB1598:
 220:C:/Renesas/e2studio_2021_01_workspace_RZA2M_ANPR/ANPR_RZA2M_GR_MANGO/src/tensorflow_lite/tensorflow/lite/kernels/internal\types.h ****     if (size_ > kMaxSmallSize) {
 2602              		.loc 4 220 0
 2603 029c FEFFFFEB 		bl	abort
 2604              	.LVL295:
 2605              	.LEHE10:
 2606              	.L1467:
 2607              	.LEHB11:
 2608              	.LBE1598:
 2609              	.LBE1603:
 2610              	.LBE1606:
 2611              	.LBE1590:
 2612              	.LBE1589:
 2613              	.LBE1588:
 2614              	.LBE1587:
 2615              	.LBE1586:
 2616              	.LBB1615:
 2617              	.LBB1584:
 2618              	.LBB1582:
 2619              	.LBB1580:
 2620              	.LBB1578:
 308:C:/Renesas/e2studio_2021_01_workspace_RZA2M_ANPR/ANPR_RZA2M_GR_MANGO/src/tensorflow_lite/tensorflow/lite/kernels/internal\types.h ****     Resize(new_shape_size);
 2621              		.loc 4 308 0
 2622 02a0 FEFFFFEB 		bl	abort
 2623              	.LVL296:
 2624              	.LEHE11:
 2625              	.L784:
 2626              	.L654:
 2627              	.LBE1578:
 2628              	.LBE1580:
 2629              	.LBE1582:
 2630              	.LBE1584:
 2631              	.LBE1615:
 2632              	.LBE1708:
 2633              	.LBE1712:
 2634              	.LBE1716:
 2635              	.LBE2074:
 2636              	.LBB2075:
 2637              	.LBB1892:
 2638              	.LBB1893:
 2639              	.LBB1894:
 2640              	.LBB1895:
 2641              	.LBB1896:
 203:C:/Renesas/e2studio_2021_01_workspace_RZA2M_ANPR/ANPR_RZA2M_GR_MANGO/src/tensorflow_lite/tensorflow/lite/kernels/internal\types.h **** #ifdef TF_LITE_STATIC_MEMORY
 2642              		.loc 4 203 0
 2643 02a4 B8309DE5 		ldr	r3, [sp, #184]
 2644 02a8 050053E3 		cmp	r3, #5
 2645 02ac CCFFFFDA 		ble	.L656
 207:C:/Renesas/e2studio_2021_01_workspace_RZA2M_ANPR/ANPR_RZA2M_GR_MANGO/src/tensorflow_lite/tensorflow/lite/kernels/internal\types.h **** #endif  // TF_LITE_STATIC_MEMORY
 2646              		.loc 4 207 0
 2647 02b0 BC009DE5 		ldr	r0, [sp, #188]
 2648 02b4 000050E3 		cmp	r0, #0
 2649 02b8 C9FFFF0A 		beq	.L656
 2650 02bc FEFFFFEB 		bl	_ZdaPv
 2651              	.LVL297:
 2652 02c0 C7FFFFEA 		b	.L656
 2653              	.LVL298:
 2654              	.L428:
 2655              	.LBE1896:
 2656              	.LBE1895:
 2657              	.LBE1894:
 2658              	.LBE1893:
 2659              	.LBE1892:
 2660              	.LBE2075:
 2661              	.LBB2076:
 2662              	.LBB1717:
 2663              	.LBB1713:
 2664              	.LBB1709:
 2665              	.LBB1616:
 2666              	.LBB1613:
 2667              	.LBB1611:
 2668              	.LBB1609:
 2669              	.LBB1607:
 2670              		.loc 4 315 0
 2671 02c4 D4308DE2 		add	r3, sp, #212
 2672 02c8 0221A0E1 		lsl	r2, r2, #2
 2673 02cc 000183E0 		add	r0, r3, r0, lsl #2
 2674              	.LVL299:
 2675 02d0 A4108DE2 		add	r1, sp, #164
 2676 02d4 FEFFFFEB 		bl	memcpy
 2677              	.LVL300:
 2678              	.LBE1607:
 2679              	.LBE1609:
 2680              	.LBE1611:
 2681              	.LBE1613:
 2682              	.LBE1616:
 2683              		.file 6 "C:/Renesas/e2studio_2021_01_workspace_RZA2M_ANPR/ANPR_RZA2M_GR_MANGO/src/tensorflow_lite/
   1:C:/Renesas/e2studio_2021_01_workspace_RZA2M_ANPR/ANPR_RZA2M_GR_MANGO/src/tensorflow_lite/tensorflow/lite/kernels/internal/reference\pad.h **** /* Copyright 2019 The TensorFlow Authors. All Rights Reserved.
   2:C:/Renesas/e2studio_2021_01_workspace_RZA2M_ANPR/ANPR_RZA2M_GR_MANGO/src/tensorflow_lite/tensorflow/lite/kernels/internal/reference\pad.h **** 
   3:C:/Renesas/e2studio_2021_01_workspace_RZA2M_ANPR/ANPR_RZA2M_GR_MANGO/src/tensorflow_lite/tensorflow/lite/kernels/internal/reference\pad.h **** Licensed under the Apache License, Version 2.0 (the "License");
   4:C:/Renesas/e2studio_2021_01_workspace_RZA2M_ANPR/ANPR_RZA2M_GR_MANGO/src/tensorflow_lite/tensorflow/lite/kernels/internal/reference\pad.h **** you may not use this file except in compliance with the License.
   5:C:/Renesas/e2studio_2021_01_workspace_RZA2M_ANPR/ANPR_RZA2M_GR_MANGO/src/tensorflow_lite/tensorflow/lite/kernels/internal/reference\pad.h **** You may obtain a copy of the License at
   6:C:/Renesas/e2studio_2021_01_workspace_RZA2M_ANPR/ANPR_RZA2M_GR_MANGO/src/tensorflow_lite/tensorflow/lite/kernels/internal/reference\pad.h **** 
   7:C:/Renesas/e2studio_2021_01_workspace_RZA2M_ANPR/ANPR_RZA2M_GR_MANGO/src/tensorflow_lite/tensorflow/lite/kernels/internal/reference\pad.h ****     http://www.apache.org/licenses/LICENSE-2.0
   8:C:/Renesas/e2studio_2021_01_workspace_RZA2M_ANPR/ANPR_RZA2M_GR_MANGO/src/tensorflow_lite/tensorflow/lite/kernels/internal/reference\pad.h **** 
   9:C:/Renesas/e2studio_2021_01_workspace_RZA2M_ANPR/ANPR_RZA2M_GR_MANGO/src/tensorflow_lite/tensorflow/lite/kernels/internal/reference\pad.h **** Unless required by applicable law or agreed to in writing, software
  10:C:/Renesas/e2studio_2021_01_workspace_RZA2M_ANPR/ANPR_RZA2M_GR_MANGO/src/tensorflow_lite/tensorflow/lite/kernels/internal/reference\pad.h **** distributed under the License is distributed on an "AS IS" BASIS,
  11:C:/Renesas/e2studio_2021_01_workspace_RZA2M_ANPR/ANPR_RZA2M_GR_MANGO/src/tensorflow_lite/tensorflow/lite/kernels/internal/reference\pad.h **** WITHOUT WARRANTIES OR CONDITIONS OF ANY KIND, either express or implied.
  12:C:/Renesas/e2studio_2021_01_workspace_RZA2M_ANPR/ANPR_RZA2M_GR_MANGO/src/tensorflow_lite/tensorflow/lite/kernels/internal/reference\pad.h **** See the License for the specific language governing permissions and
  13:C:/Renesas/e2studio_2021_01_workspace_RZA2M_ANPR/ANPR_RZA2M_GR_MANGO/src/tensorflow_lite/tensorflow/lite/kernels/internal/reference\pad.h **** limitations under the License.
  14:C:/Renesas/e2studio_2021_01_workspace_RZA2M_ANPR/ANPR_RZA2M_GR_MANGO/src/tensorflow_lite/tensorflow/lite/kernels/internal/reference\pad.h **** ==============================================================================*/
  15:C:/Renesas/e2studio_2021_01_workspace_RZA2M_ANPR/ANPR_RZA2M_GR_MANGO/src/tensorflow_lite/tensorflow/lite/kernels/internal/reference\pad.h **** 
  16:C:/Renesas/e2studio_2021_01_workspace_RZA2M_ANPR/ANPR_RZA2M_GR_MANGO/src/tensorflow_lite/tensorflow/lite/kernels/internal/reference\pad.h **** #ifndef TENSORFLOW_LITE_KERNELS_INTERNAL_REFERENCE_PAD_H_
  17:C:/Renesas/e2studio_2021_01_workspace_RZA2M_ANPR/ANPR_RZA2M_GR_MANGO/src/tensorflow_lite/tensorflow/lite/kernels/internal/reference\pad.h **** #define TENSORFLOW_LITE_KERNELS_INTERNAL_REFERENCE_PAD_H_
  18:C:/Renesas/e2studio_2021_01_workspace_RZA2M_ANPR/ANPR_RZA2M_GR_MANGO/src/tensorflow_lite/tensorflow/lite/kernels/internal/reference\pad.h **** 
  19:C:/Renesas/e2studio_2021_01_workspace_RZA2M_ANPR/ANPR_RZA2M_GR_MANGO/src/tensorflow_lite/tensorflow/lite/kernels/internal/reference\pad.h **** #include <vector>
  20:C:/Renesas/e2studio_2021_01_workspace_RZA2M_ANPR/ANPR_RZA2M_GR_MANGO/src/tensorflow_lite/tensorflow/lite/kernels/internal/reference\pad.h **** 
  21:C:/Renesas/e2studio_2021_01_workspace_RZA2M_ANPR/ANPR_RZA2M_GR_MANGO/src/tensorflow_lite/tensorflow/lite/kernels/internal/reference\pad.h **** #include "tensorflow/lite/kernels/internal/types.h"
  22:C:/Renesas/e2studio_2021_01_workspace_RZA2M_ANPR/ANPR_RZA2M_GR_MANGO/src/tensorflow_lite/tensorflow/lite/kernels/internal/reference\pad.h **** 
  23:C:/Renesas/e2studio_2021_01_workspace_RZA2M_ANPR/ANPR_RZA2M_GR_MANGO/src/tensorflow_lite/tensorflow/lite/kernels/internal/reference\pad.h **** namespace tflite {
  24:C:/Renesas/e2studio_2021_01_workspace_RZA2M_ANPR/ANPR_RZA2M_GR_MANGO/src/tensorflow_lite/tensorflow/lite/kernels/internal/reference\pad.h **** 
  25:C:/Renesas/e2studio_2021_01_workspace_RZA2M_ANPR/ANPR_RZA2M_GR_MANGO/src/tensorflow_lite/tensorflow/lite/kernels/internal/reference\pad.h **** namespace reference_ops {
  26:C:/Renesas/e2studio_2021_01_workspace_RZA2M_ANPR/ANPR_RZA2M_GR_MANGO/src/tensorflow_lite/tensorflow/lite/kernels/internal/reference\pad.h **** 
  27:C:/Renesas/e2studio_2021_01_workspace_RZA2M_ANPR/ANPR_RZA2M_GR_MANGO/src/tensorflow_lite/tensorflow/lite/kernels/internal/reference\pad.h **** // TFLite Pad supports activation tensors with up to 5 dimensions.
  28:C:/Renesas/e2studio_2021_01_workspace_RZA2M_ANPR/ANPR_RZA2M_GR_MANGO/src/tensorflow_lite/tensorflow/lite/kernels/internal/reference\pad.h **** constexpr int PadKernelMaxDimensionCount() { return 5; }
  29:C:/Renesas/e2studio_2021_01_workspace_RZA2M_ANPR/ANPR_RZA2M_GR_MANGO/src/tensorflow_lite/tensorflow/lite/kernels/internal/reference\pad.h **** 
  30:C:/Renesas/e2studio_2021_01_workspace_RZA2M_ANPR/ANPR_RZA2M_GR_MANGO/src/tensorflow_lite/tensorflow/lite/kernels/internal/reference\pad.h **** // There are two versions of pad: Pad and PadV2.  In PadV2 there is a second
  31:C:/Renesas/e2studio_2021_01_workspace_RZA2M_ANPR/ANPR_RZA2M_GR_MANGO/src/tensorflow_lite/tensorflow/lite/kernels/internal/reference\pad.h **** // scalar input that provides the padding value.  Therefore pad_value_ptr can be
  32:C:/Renesas/e2studio_2021_01_workspace_RZA2M_ANPR/ANPR_RZA2M_GR_MANGO/src/tensorflow_lite/tensorflow/lite/kernels/internal/reference\pad.h **** // equivalent to a simple input1_data.  For Pad, it should point to a zero
  33:C:/Renesas/e2studio_2021_01_workspace_RZA2M_ANPR/ANPR_RZA2M_GR_MANGO/src/tensorflow_lite/tensorflow/lite/kernels/internal/reference\pad.h **** // value.
  34:C:/Renesas/e2studio_2021_01_workspace_RZA2M_ANPR/ANPR_RZA2M_GR_MANGO/src/tensorflow_lite/tensorflow/lite/kernels/internal/reference\pad.h **** //
  35:C:/Renesas/e2studio_2021_01_workspace_RZA2M_ANPR/ANPR_RZA2M_GR_MANGO/src/tensorflow_lite/tensorflow/lite/kernels/internal/reference\pad.h **** // Note that two typenames are required, so that T=P=int32_t is considered a
  36:C:/Renesas/e2studio_2021_01_workspace_RZA2M_ANPR/ANPR_RZA2M_GR_MANGO/src/tensorflow_lite/tensorflow/lite/kernels/internal/reference\pad.h **** // specialization distinct from P=int32_t.
  37:C:/Renesas/e2studio_2021_01_workspace_RZA2M_ANPR/ANPR_RZA2M_GR_MANGO/src/tensorflow_lite/tensorflow/lite/kernels/internal/reference\pad.h **** template <typename T, typename P>
  38:C:/Renesas/e2studio_2021_01_workspace_RZA2M_ANPR/ANPR_RZA2M_GR_MANGO/src/tensorflow_lite/tensorflow/lite/kernels/internal/reference\pad.h **** inline void PadImpl(const tflite::PadParams& op_params,
  39:C:/Renesas/e2studio_2021_01_workspace_RZA2M_ANPR/ANPR_RZA2M_GR_MANGO/src/tensorflow_lite/tensorflow/lite/kernels/internal/reference\pad.h ****                     const RuntimeShape& input_shape, const T* input_data,
  40:C:/Renesas/e2studio_2021_01_workspace_RZA2M_ANPR/ANPR_RZA2M_GR_MANGO/src/tensorflow_lite/tensorflow/lite/kernels/internal/reference\pad.h ****                     const P* pad_value_ptr, const RuntimeShape& output_shape,
  41:C:/Renesas/e2studio_2021_01_workspace_RZA2M_ANPR/ANPR_RZA2M_GR_MANGO/src/tensorflow_lite/tensorflow/lite/kernels/internal/reference\pad.h ****                     T* output_data) {
  42:C:/Renesas/e2studio_2021_01_workspace_RZA2M_ANPR/ANPR_RZA2M_GR_MANGO/src/tensorflow_lite/tensorflow/lite/kernels/internal/reference\pad.h ****   const RuntimeShape ext_input_shape =
  43:C:/Renesas/e2studio_2021_01_workspace_RZA2M_ANPR/ANPR_RZA2M_GR_MANGO/src/tensorflow_lite/tensorflow/lite/kernels/internal/reference\pad.h ****       RuntimeShape::ExtendedShape(PadKernelMaxDimensionCount(), input_shape);
  44:C:/Renesas/e2studio_2021_01_workspace_RZA2M_ANPR/ANPR_RZA2M_GR_MANGO/src/tensorflow_lite/tensorflow/lite/kernels/internal/reference\pad.h ****   const RuntimeShape ext_output_shape =
  45:C:/Renesas/e2studio_2021_01_workspace_RZA2M_ANPR/ANPR_RZA2M_GR_MANGO/src/tensorflow_lite/tensorflow/lite/kernels/internal/reference\pad.h ****       RuntimeShape::ExtendedShape(PadKernelMaxDimensionCount(), output_shape);
  46:C:/Renesas/e2studio_2021_01_workspace_RZA2M_ANPR/ANPR_RZA2M_GR_MANGO/src/tensorflow_lite/tensorflow/lite/kernels/internal/reference\pad.h ****   TFLITE_DCHECK_LE(op_params.left_padding_count, PadKernelMaxDimensionCount());
 2684              		.loc 6 46 0
 2685 02d8 D020D5E1 		ldrsb	r2, [r5]
 2686 02dc 050052E3 		cmp	r2, #5
 2687 02e0 1C0100CA 		bgt	.L1469
  47:C:/Renesas/e2studio_2021_01_workspace_RZA2M_ANPR/ANPR_RZA2M_GR_MANGO/src/tensorflow_lite/tensorflow/lite/kernels/internal/reference\pad.h ****   TFLITE_DCHECK_LE(op_params.right_padding_count, PadKernelMaxDimensionCount());
 2688              		.loc 6 47 0
 2689 02e4 D861D5E1 		ldrsb	r6, [r5, #24]
 2690              	.LVL301:
 2691 02e8 050056E3 		cmp	r6, #5
 2692 02ec EA0000CA 		bgt	.L430
 2693              	.LVL302:
 2694              	.LBB1617:
  48:C:/Renesas/e2studio_2021_01_workspace_RZA2M_ANPR/ANPR_RZA2M_GR_MANGO/src/tensorflow_lite/tensorflow/lite/kernels/internal/reference\pad.h **** 
  49:C:/Renesas/e2studio_2021_01_workspace_RZA2M_ANPR/ANPR_RZA2M_GR_MANGO/src/tensorflow_lite/tensorflow/lite/kernels/internal/reference\pad.h ****   // Runtime calls are currently fixed at 5 dimensions. Copy inputs so we can
  50:C:/Renesas/e2studio_2021_01_workspace_RZA2M_ANPR/ANPR_RZA2M_GR_MANGO/src/tensorflow_lite/tensorflow/lite/kernels/internal/reference\pad.h ****   // pad them to 5 dims (yes, we are "padding the padding").
  51:C:/Renesas/e2studio_2021_01_workspace_RZA2M_ANPR/ANPR_RZA2M_GR_MANGO/src/tensorflow_lite/tensorflow/lite/kernels/internal/reference\pad.h ****   int left_padding_copy[PadKernelMaxDimensionCount()];
  52:C:/Renesas/e2studio_2021_01_workspace_RZA2M_ANPR/ANPR_RZA2M_GR_MANGO/src/tensorflow_lite/tensorflow/lite/kernels/internal/reference\pad.h ****   for (int i = 0; i < PadKernelMaxDimensionCount(); i++) {
  53:C:/Renesas/e2studio_2021_01_workspace_RZA2M_ANPR/ANPR_RZA2M_GR_MANGO/src/tensorflow_lite/tensorflow/lite/kernels/internal/reference\pad.h ****     left_padding_copy[i] = 0;
  54:C:/Renesas/e2studio_2021_01_workspace_RZA2M_ANPR/ANPR_RZA2M_GR_MANGO/src/tensorflow_lite/tensorflow/lite/kernels/internal/reference\pad.h ****   }
  55:C:/Renesas/e2studio_2021_01_workspace_RZA2M_ANPR/ANPR_RZA2M_GR_MANGO/src/tensorflow_lite/tensorflow/lite/kernels/internal/reference\pad.h ****   for (int i = 0; i < op_params.left_padding_count; ++i) {
 2695              		.loc 6 55 0
 2696 02f0 000052E3 		cmp	r2, #0
 2697              	.LBE1617:
 2698              	.LBB1618:
  53:C:/Renesas/e2studio_2021_01_workspace_RZA2M_ANPR/ANPR_RZA2M_GR_MANGO/src/tensorflow_lite/tensorflow/lite/kernels/internal/reference\pad.h ****   }
 2699              		.loc 6 53 0
 2700 02f4 0030A0E3 		mov	r3, #0
 2701 02f8 60308DE5 		str	r3, [sp, #96]
 2702              	.LVL303:
 2703 02fc 64308DE5 		str	r3, [sp, #100]
 2704              	.LVL304:
 2705 0300 68308DE5 		str	r3, [sp, #104]
 2706              	.LVL305:
 2707 0304 6C308DE5 		str	r3, [sp, #108]
 2708              	.LVL306:
 2709 0308 70308DE5 		str	r3, [sp, #112]
 2710              	.LVL307:
 2711              	.LBE1618:
 2712              	.LBB1619:
 2713              		.loc 6 55 0
 2714 030c 050000DA 		ble	.L431
  56:C:/Renesas/e2studio_2021_01_workspace_RZA2M_ANPR/ANPR_RZA2M_GR_MANGO/src/tensorflow_lite/tensorflow/lite/kernels/internal/reference\pad.h ****     left_padding_copy[i + PadKernelMaxDimensionCount() -
 2715              		.loc 6 56 0
 2716 0310 E8308DE2 		add	r3, sp, #232
 2717 0314 041085E2 		add	r1, r5, #4
 2718 0318 020143E0 		sub	r0, r3, r2, lsl #2
 2719 031c 0221A0E1 		lsl	r2, r2, #2
 2720 0320 740040E2 		sub	r0, r0, #116
 2721 0324 FEFFFFEB 		bl	memcpy
 2722              	.LVL308:
 2723              	.L431:
 2724              	.LBE1619:
 2725              	.LBB1620:
  57:C:/Renesas/e2studio_2021_01_workspace_RZA2M_ANPR/ANPR_RZA2M_GR_MANGO/src/tensorflow_lite/tensorflow/lite/kernels/internal/reference\pad.h ****                       op_params.left_padding_count] = op_params.left_padding[i];
  58:C:/Renesas/e2studio_2021_01_workspace_RZA2M_ANPR/ANPR_RZA2M_GR_MANGO/src/tensorflow_lite/tensorflow/lite/kernels/internal/reference\pad.h ****   }
  59:C:/Renesas/e2studio_2021_01_workspace_RZA2M_ANPR/ANPR_RZA2M_GR_MANGO/src/tensorflow_lite/tensorflow/lite/kernels/internal/reference\pad.h ****   int right_padding_copy[PadKernelMaxDimensionCount()];
  60:C:/Renesas/e2studio_2021_01_workspace_RZA2M_ANPR/ANPR_RZA2M_GR_MANGO/src/tensorflow_lite/tensorflow/lite/kernels/internal/reference\pad.h ****   for (int i = 0; i < PadKernelMaxDimensionCount(); i++) {
  61:C:/Renesas/e2studio_2021_01_workspace_RZA2M_ANPR/ANPR_RZA2M_GR_MANGO/src/tensorflow_lite/tensorflow/lite/kernels/internal/reference\pad.h ****     right_padding_copy[i] = 0;
  62:C:/Renesas/e2studio_2021_01_workspace_RZA2M_ANPR/ANPR_RZA2M_GR_MANGO/src/tensorflow_lite/tensorflow/lite/kernels/internal/reference\pad.h ****   }
  63:C:/Renesas/e2studio_2021_01_workspace_RZA2M_ANPR/ANPR_RZA2M_GR_MANGO/src/tensorflow_lite/tensorflow/lite/kernels/internal/reference\pad.h ****   for (int i = 0; i < op_params.right_padding_count; ++i) {
 2726              		.loc 6 63 0
 2727 0328 000056E3 		cmp	r6, #0
 2728              	.LBE1620:
 2729              	.LBB1621:
  61:C:/Renesas/e2studio_2021_01_workspace_RZA2M_ANPR/ANPR_RZA2M_GR_MANGO/src/tensorflow_lite/tensorflow/lite/kernels/internal/reference\pad.h ****   }
 2730              		.loc 6 61 0
 2731 032c 0030A0E3 		mov	r3, #0
 2732 0330 74308DE5 		str	r3, [sp, #116]
 2733              	.LVL309:
 2734 0334 78308DE5 		str	r3, [sp, #120]
 2735              	.LVL310:
 2736 0338 7C308DE5 		str	r3, [sp, #124]
 2737              	.LVL311:
 2738 033c 80308DE5 		str	r3, [sp, #128]
 2739              	.LVL312:
 2740 0340 84308DE5 		str	r3, [sp, #132]
 2741              	.LVL313:
 2742              	.LBE1621:
 2743              	.LBB1622:
 2744              		.loc 6 63 0
 2745 0344 050000DA 		ble	.L438
  64:C:/Renesas/e2studio_2021_01_workspace_RZA2M_ANPR/ANPR_RZA2M_GR_MANGO/src/tensorflow_lite/tensorflow/lite/kernels/internal/reference\pad.h ****     right_padding_copy[i + PadKernelMaxDimensionCount() -
 2746              		.loc 6 64 0
 2747 0348 E8308DE2 		add	r3, sp, #232
 2748 034c 1C1085E2 		add	r1, r5, #28
 2749 0350 060143E0 		sub	r0, r3, r6, lsl #2
 2750 0354 0621A0E1 		lsl	r2, r6, #2
 2751 0358 600040E2 		sub	r0, r0, #96
 2752 035c FEFFFFEB 		bl	memcpy
 2753              	.LVL314:
 2754              	.L438:
 2755              	.LBE1622:
 2756              	.LBB1623:
 2757              	.LBB1624:
 215:C:/Renesas/e2studio_2021_01_workspace_RZA2M_ANPR/ANPR_RZA2M_GR_MANGO/src/tensorflow_lite/tensorflow/lite/kernels/internal\types.h ****     return size_ > kMaxSmallSize ? dims_pointer_[i] : dims_[i];
 2758              		.loc 4 215 0
 2759 0360 D0309DE5 		ldr	r3, [sp, #208]
 2760 0364 000053E3 		cmp	r3, #0
 2761 0368 2C308DE5 		str	r3, [sp, #44]
 2762 036c F80000DA 		ble	.L1470
 216:C:/Renesas/e2studio_2021_01_workspace_RZA2M_ANPR/ANPR_RZA2M_GR_MANGO/src/tensorflow_lite/tensorflow/lite/kernels/internal\types.h ****   }
 2763              		.loc 4 216 0
 2764 0370 050053E3 		cmp	r3, #5
 2765 0374 D60000CA 		bgt	.L1471
 2766              	.LBE1624:
 2767              	.LBE1623:
 2768              	.LBB1630:
 2769              	.LBB1631:
 215:C:/Renesas/e2studio_2021_01_workspace_RZA2M_ANPR/ANPR_RZA2M_GR_MANGO/src/tensorflow_lite/tensorflow/lite/kernels/internal\types.h ****     return size_ > kMaxSmallSize ? dims_pointer_[i] : dims_[i];
 2770              		.loc 4 215 0
 2771 0378 010053E3 		cmp	r3, #1
 2772              	.LBE1631:
 2773              	.LBE1630:
 2774              	.LBB1638:
 2775              	.LBB1625:
 216:C:/Renesas/e2studio_2021_01_workspace_RZA2M_ANPR/ANPR_RZA2M_GR_MANGO/src/tensorflow_lite/tensorflow/lite/kernels/internal\types.h ****   }
 2776              		.loc 4 216 0
 2777 037c D4309DE5 		ldr	r3, [sp, #212]
 2778 0380 30308DE5 		str	r3, [sp, #48]
 2779              	.LVL315:
 2780              	.LBE1625:
 2781              	.LBE1638:
 2782              	.LBB1639:
 2783              	.LBB1632:
 215:C:/Renesas/e2studio_2021_01_workspace_RZA2M_ANPR/ANPR_RZA2M_GR_MANGO/src/tensorflow_lite/tensorflow/lite/kernels/internal\types.h ****     return size_ > kMaxSmallSize ? dims_pointer_[i] : dims_[i];
 2784              		.loc 4 215 0
 2785 0384 D000000A 		beq	.L1472
 2786              	.LBE1632:
 2787              	.LBE1639:
 2788              	.LBB1640:
 2789              	.LBB1641:
 2790 0388 2C309DE5 		ldr	r3, [sp, #44]
 2791              	.LBE1641:
 2792              	.LBE1640:
 2793              	.LBB1648:
 2794              	.LBB1633:
 216:C:/Renesas/e2studio_2021_01_workspace_RZA2M_ANPR/ANPR_RZA2M_GR_MANGO/src/tensorflow_lite/tensorflow/lite/kernels/internal\types.h ****   }
 2795              		.loc 4 216 0
 2796 038c D8209DE5 		ldr	r2, [sp, #216]
 2797              	.LBE1633:
 2798              	.LBE1648:
 2799              	.LBB1649:
 2800              	.LBB1642:
 215:C:/Renesas/e2studio_2021_01_workspace_RZA2M_ANPR/ANPR_RZA2M_GR_MANGO/src/tensorflow_lite/tensorflow/lite/kernels/internal\types.h ****     return size_ > kMaxSmallSize ? dims_pointer_[i] : dims_[i];
 2801              		.loc 4 215 0
 2802 0390 020053E3 		cmp	r3, #2
 2803              	.LBE1642:
 2804              	.LBE1649:
 2805              	.LBB1650:
 2806              	.LBB1634:
 216:C:/Renesas/e2studio_2021_01_workspace_RZA2M_ANPR/ANPR_RZA2M_GR_MANGO/src/tensorflow_lite/tensorflow/lite/kernels/internal\types.h ****   }
 2807              		.loc 4 216 0
 2808 0394 1C208DE5 		str	r2, [sp, #28]
 2809              	.LVL316:
 2810              	.LBE1634:
 2811              	.LBE1650:
 2812              	.LBB1651:
 2813              	.LBB1643:
 215:C:/Renesas/e2studio_2021_01_workspace_RZA2M_ANPR/ANPR_RZA2M_GR_MANGO/src/tensorflow_lite/tensorflow/lite/kernels/internal\types.h ****     return size_ > kMaxSmallSize ? dims_pointer_[i] : dims_[i];
 2814              		.loc 4 215 0
 2815 0398 C100000A 		beq	.L701
 216:C:/Renesas/e2studio_2021_01_workspace_RZA2M_ANPR/ANPR_RZA2M_GR_MANGO/src/tensorflow_lite/tensorflow/lite/kernels/internal\types.h ****   }
 2816              		.loc 4 216 0
 2817 039c DC209DE5 		ldr	r2, [sp, #220]
 2818              	.LBE1643:
 2819              	.LBE1651:
 2820              	.LBB1652:
 2821              	.LBB1653:
 215:C:/Renesas/e2studio_2021_01_workspace_RZA2M_ANPR/ANPR_RZA2M_GR_MANGO/src/tensorflow_lite/tensorflow/lite/kernels/internal\types.h ****     return size_ > kMaxSmallSize ? dims_pointer_[i] : dims_[i];
 2822              		.loc 4 215 0
 2823 03a0 030053E3 		cmp	r3, #3
 2824              	.LBE1653:
 2825              	.LBE1652:
 2826              	.LBB1658:
 2827              	.LBB1644:
 216:C:/Renesas/e2studio_2021_01_workspace_RZA2M_ANPR/ANPR_RZA2M_GR_MANGO/src/tensorflow_lite/tensorflow/lite/kernels/internal\types.h ****   }
 2828              		.loc 4 216 0
 2829 03a4 14208DE5 		str	r2, [sp, #20]
 2830              	.LVL317:
 2831              	.LBE1644:
 2832              	.LBE1658:
 2833              	.LBB1659:
 2834              	.LBB1654:
 215:C:/Renesas/e2studio_2021_01_workspace_RZA2M_ANPR/ANPR_RZA2M_GR_MANGO/src/tensorflow_lite/tensorflow/lite/kernels/internal\types.h ****     return size_ > kMaxSmallSize ? dims_pointer_[i] : dims_[i];
 2835              		.loc 4 215 0
 2836 03a8 BE00000A 		beq	.L702
 2837              	.LBE1654:
 2838              	.LBE1659:
 2839              	.LBB1660:
 2840              	.LBB1661:
 2841 03ac 040053E3 		cmp	r3, #4
 2842              	.LBE1661:
 2843              	.LBE1660:
 2844              	.LBB1666:
 2845              	.LBB1655:
 216:C:/Renesas/e2studio_2021_01_workspace_RZA2M_ANPR/ANPR_RZA2M_GR_MANGO/src/tensorflow_lite/tensorflow/lite/kernels/internal\types.h ****   }
 2846              		.loc 4 216 0
 2847 03b0 E0709DE5 		ldr	r7, [sp, #224]
 2848              	.LVL318:
 2849              	.LBE1655:
 2850              	.LBE1666:
 2851              	.LBB1667:
 2852              	.LBB1662:
 215:C:/Renesas/e2studio_2021_01_workspace_RZA2M_ANPR/ANPR_RZA2M_GR_MANGO/src/tensorflow_lite/tensorflow/lite/kernels/internal\types.h ****     return size_ > kMaxSmallSize ? dims_pointer_[i] : dims_[i];
 2853              		.loc 4 215 0
 2854 03b4 B900000A 		beq	.L1473
 2855              	.LBE1662:
 2856              	.LBE1667:
  65:C:/Renesas/e2studio_2021_01_workspace_RZA2M_ANPR/ANPR_RZA2M_GR_MANGO/src/tensorflow_lite/tensorflow/lite/kernels/internal/reference\pad.h ****                        op_params.right_padding_count] =
  66:C:/Renesas/e2studio_2021_01_workspace_RZA2M_ANPR/ANPR_RZA2M_GR_MANGO/src/tensorflow_lite/tensorflow/lite/kernels/internal/reference\pad.h ****         op_params.right_padding[i];
  67:C:/Renesas/e2studio_2021_01_workspace_RZA2M_ANPR/ANPR_RZA2M_GR_MANGO/src/tensorflow_lite/tensorflow/lite/kernels/internal/reference\pad.h ****   }
  68:C:/Renesas/e2studio_2021_01_workspace_RZA2M_ANPR/ANPR_RZA2M_GR_MANGO/src/tensorflow_lite/tensorflow/lite/kernels/internal/reference\pad.h **** 
  69:C:/Renesas/e2studio_2021_01_workspace_RZA2M_ANPR/ANPR_RZA2M_GR_MANGO/src/tensorflow_lite/tensorflow/lite/kernels/internal/reference\pad.h ****   const int output_batch = ext_output_shape.Dims(0);
  70:C:/Renesas/e2studio_2021_01_workspace_RZA2M_ANPR/ANPR_RZA2M_GR_MANGO/src/tensorflow_lite/tensorflow/lite/kernels/internal/reference\pad.h ****   const int output_plane = ext_output_shape.Dims(1);
  71:C:/Renesas/e2studio_2021_01_workspace_RZA2M_ANPR/ANPR_RZA2M_GR_MANGO/src/tensorflow_lite/tensorflow/lite/kernels/internal/reference\pad.h ****   const int output_height = ext_output_shape.Dims(2);
  72:C:/Renesas/e2studio_2021_01_workspace_RZA2M_ANPR/ANPR_RZA2M_GR_MANGO/src/tensorflow_lite/tensorflow/lite/kernels/internal/reference\pad.h ****   const int output_width = ext_output_shape.Dims(3);
  73:C:/Renesas/e2studio_2021_01_workspace_RZA2M_ANPR/ANPR_RZA2M_GR_MANGO/src/tensorflow_lite/tensorflow/lite/kernels/internal/reference\pad.h ****   const int output_depth = ext_output_shape.Dims(4);
  74:C:/Renesas/e2studio_2021_01_workspace_RZA2M_ANPR/ANPR_RZA2M_GR_MANGO/src/tensorflow_lite/tensorflow/lite/kernels/internal/reference\pad.h **** 
  75:C:/Renesas/e2studio_2021_01_workspace_RZA2M_ANPR/ANPR_RZA2M_GR_MANGO/src/tensorflow_lite/tensorflow/lite/kernels/internal/reference\pad.h ****   const int left_b_padding = left_padding_copy[0];
 2857              		.loc 6 75 0
 2858 03b8 60209DE5 		ldr	r2, [sp, #96]
 2859              	.LBB1668:
  76:C:/Renesas/e2studio_2021_01_workspace_RZA2M_ANPR/ANPR_RZA2M_GR_MANGO/src/tensorflow_lite/tensorflow/lite/kernels/internal/reference\pad.h ****   const int left_p_padding = left_padding_copy[1];
  77:C:/Renesas/e2studio_2021_01_workspace_RZA2M_ANPR/ANPR_RZA2M_GR_MANGO/src/tensorflow_lite/tensorflow/lite/kernels/internal/reference\pad.h ****   const int left_h_padding = left_padding_copy[2];
  78:C:/Renesas/e2studio_2021_01_workspace_RZA2M_ANPR/ANPR_RZA2M_GR_MANGO/src/tensorflow_lite/tensorflow/lite/kernels/internal/reference\pad.h ****   const int left_w_padding = left_padding_copy[3];
  79:C:/Renesas/e2studio_2021_01_workspace_RZA2M_ANPR/ANPR_RZA2M_GR_MANGO/src/tensorflow_lite/tensorflow/lite/kernels/internal/reference\pad.h ****   const int left_d_padding = left_padding_copy[4];
  80:C:/Renesas/e2studio_2021_01_workspace_RZA2M_ANPR/ANPR_RZA2M_GR_MANGO/src/tensorflow_lite/tensorflow/lite/kernels/internal/reference\pad.h **** 
  81:C:/Renesas/e2studio_2021_01_workspace_RZA2M_ANPR/ANPR_RZA2M_GR_MANGO/src/tensorflow_lite/tensorflow/lite/kernels/internal/reference\pad.h ****   const int right_b_padding = right_padding_copy[0];
  82:C:/Renesas/e2studio_2021_01_workspace_RZA2M_ANPR/ANPR_RZA2M_GR_MANGO/src/tensorflow_lite/tensorflow/lite/kernels/internal/reference\pad.h ****   const int right_p_padding = right_padding_copy[1];
  83:C:/Renesas/e2studio_2021_01_workspace_RZA2M_ANPR/ANPR_RZA2M_GR_MANGO/src/tensorflow_lite/tensorflow/lite/kernels/internal/reference\pad.h ****   const int right_h_padding = right_padding_copy[2];
  84:C:/Renesas/e2studio_2021_01_workspace_RZA2M_ANPR/ANPR_RZA2M_GR_MANGO/src/tensorflow_lite/tensorflow/lite/kernels/internal/reference\pad.h ****   const int right_w_padding = right_padding_copy[3];
  85:C:/Renesas/e2studio_2021_01_workspace_RZA2M_ANPR/ANPR_RZA2M_GR_MANGO/src/tensorflow_lite/tensorflow/lite/kernels/internal/reference\pad.h ****   const int right_d_padding = right_padding_copy[4];
  86:C:/Renesas/e2studio_2021_01_workspace_RZA2M_ANPR/ANPR_RZA2M_GR_MANGO/src/tensorflow_lite/tensorflow/lite/kernels/internal/reference\pad.h **** 
  87:C:/Renesas/e2studio_2021_01_workspace_RZA2M_ANPR/ANPR_RZA2M_GR_MANGO/src/tensorflow_lite/tensorflow/lite/kernels/internal/reference\pad.h ****   const T pad_value = *pad_value_ptr;
  88:C:/Renesas/e2studio_2021_01_workspace_RZA2M_ANPR/ANPR_RZA2M_GR_MANGO/src/tensorflow_lite/tensorflow/lite/kernels/internal/reference\pad.h **** 
  89:C:/Renesas/e2studio_2021_01_workspace_RZA2M_ANPR/ANPR_RZA2M_GR_MANGO/src/tensorflow_lite/tensorflow/lite/kernels/internal/reference\pad.h ****   const T* in_ptr = input_data;
  90:C:/Renesas/e2studio_2021_01_workspace_RZA2M_ANPR/ANPR_RZA2M_GR_MANGO/src/tensorflow_lite/tensorflow/lite/kernels/internal/reference\pad.h ****   T* out_ptr = output_data;
  91:C:/Renesas/e2studio_2021_01_workspace_RZA2M_ANPR/ANPR_RZA2M_GR_MANGO/src/tensorflow_lite/tensorflow/lite/kernels/internal/reference\pad.h ****   for (int out_b = 0; out_b < output_batch; ++out_b) {
 2860              		.loc 6 91 0
 2861 03bc 30309DE5 		ldr	r3, [sp, #48]
 2862              	.LBE1668:
 2863              	.LBB1685:
 2864              	.LBB1663:
 216:C:/Renesas/e2studio_2021_01_workspace_RZA2M_ANPR/ANPR_RZA2M_GR_MANGO/src/tensorflow_lite/tensorflow/lite/kernels/internal\types.h ****   }
 2865              		.loc 4 216 0
 2866 03c0 E4909DE5 		ldr	r9, [sp, #228]
 2867              	.LVL319:
 2868              	.LBE1663:
 2869              	.LBE1685:
  75:C:/Renesas/e2studio_2021_01_workspace_RZA2M_ANPR/ANPR_RZA2M_GR_MANGO/src/tensorflow_lite/tensorflow/lite/kernels/internal/reference\pad.h ****   const int left_p_padding = left_padding_copy[1];
 2870              		.loc 6 75 0
 2871 03c4 08208DE5 		str	r2, [sp, #8]
 2872              	.LVL320:
  76:C:/Renesas/e2studio_2021_01_workspace_RZA2M_ANPR/ANPR_RZA2M_GR_MANGO/src/tensorflow_lite/tensorflow/lite/kernels/internal/reference\pad.h ****   const int left_p_padding = left_padding_copy[1];
 2873              		.loc 6 76 0
 2874 03c8 64209DE5 		ldr	r2, [sp, #100]
 2875              	.LVL321:
 2876              	.LBB1686:
 2877              		.loc 6 91 0
 2878 03cc 000053E3 		cmp	r3, #0
 2879              	.LBE1686:
  76:C:/Renesas/e2studio_2021_01_workspace_RZA2M_ANPR/ANPR_RZA2M_GR_MANGO/src/tensorflow_lite/tensorflow/lite/kernels/internal/reference\pad.h ****   const int left_p_padding = left_padding_copy[1];
 2880              		.loc 6 76 0
 2881 03d0 48208DE5 		str	r2, [sp, #72]
 2882              	.LVL322:
  77:C:/Renesas/e2studio_2021_01_workspace_RZA2M_ANPR/ANPR_RZA2M_GR_MANGO/src/tensorflow_lite/tensorflow/lite/kernels/internal/reference\pad.h ****   const int left_w_padding = left_padding_copy[3];
 2883              		.loc 6 77 0
 2884 03d4 68209DE5 		ldr	r2, [sp, #104]
 2885              	.LVL323:
 2886 03d8 20208DE5 		str	r2, [sp, #32]
 2887              	.LVL324:
  78:C:/Renesas/e2studio_2021_01_workspace_RZA2M_ANPR/ANPR_RZA2M_GR_MANGO/src/tensorflow_lite/tensorflow/lite/kernels/internal/reference\pad.h ****   const int left_d_padding = left_padding_copy[4];
 2888              		.loc 6 78 0
 2889 03dc 6C209DE5 		ldr	r2, [sp, #108]
 2890              	.LVL325:
 2891 03e0 04208DE5 		str	r2, [sp, #4]
 2892              	.LVL326:
  79:C:/Renesas/e2studio_2021_01_workspace_RZA2M_ANPR/ANPR_RZA2M_GR_MANGO/src/tensorflow_lite/tensorflow/lite/kernels/internal/reference\pad.h **** 
 2893              		.loc 6 79 0
 2894 03e4 70209DE5 		ldr	r2, [sp, #112]
 2895              	.LVL327:
 2896 03e8 38208DE5 		str	r2, [sp, #56]
 2897              	.LVL328:
  81:C:/Renesas/e2studio_2021_01_workspace_RZA2M_ANPR/ANPR_RZA2M_GR_MANGO/src/tensorflow_lite/tensorflow/lite/kernels/internal/reference\pad.h ****   const int right_p_padding = right_padding_copy[1];
 2898              		.loc 6 81 0
 2899 03ec 74209DE5 		ldr	r2, [sp, #116]
 2900              	.LVL329:
 2901 03f0 44208DE5 		str	r2, [sp, #68]
 2902              	.LVL330:
  82:C:/Renesas/e2studio_2021_01_workspace_RZA2M_ANPR/ANPR_RZA2M_GR_MANGO/src/tensorflow_lite/tensorflow/lite/kernels/internal/reference\pad.h ****   const int right_h_padding = right_padding_copy[2];
 2903              		.loc 6 82 0
 2904 03f4 78209DE5 		ldr	r2, [sp, #120]
 2905              	.LVL331:
 2906 03f8 24208DE5 		str	r2, [sp, #36]
 2907              	.LVL332:
  83:C:/Renesas/e2studio_2021_01_workspace_RZA2M_ANPR/ANPR_RZA2M_GR_MANGO/src/tensorflow_lite/tensorflow/lite/kernels/internal/reference\pad.h ****   const int right_w_padding = right_padding_copy[3];
 2908              		.loc 6 83 0
 2909 03fc 7C209DE5 		ldr	r2, [sp, #124]
 2910              	.LVL333:
 2911 0400 28208DE5 		str	r2, [sp, #40]
 2912              	.LVL334:
  84:C:/Renesas/e2studio_2021_01_workspace_RZA2M_ANPR/ANPR_RZA2M_GR_MANGO/src/tensorflow_lite/tensorflow/lite/kernels/internal/reference\pad.h ****   const int right_d_padding = right_padding_copy[4];
 2913              		.loc 6 84 0
 2914 0404 80209DE5 		ldr	r2, [sp, #128]
 2915              	.LVL335:
 2916 0408 34208DE5 		str	r2, [sp, #52]
 2917              	.LVL336:
  85:C:/Renesas/e2studio_2021_01_workspace_RZA2M_ANPR/ANPR_RZA2M_GR_MANGO/src/tensorflow_lite/tensorflow/lite/kernels/internal/reference\pad.h **** 
 2918              		.loc 6 85 0
 2919 040c 84209DE5 		ldr	r2, [sp, #132]
 2920              	.LVL337:
 2921              	.LBB1687:
 2922              		.loc 6 91 0
 2923 0410 760000DA 		ble	.L609
 2924 0414 3C308DE5 		str	r3, [sp, #60]
 2925              	.L441:
 2926 0418 1C309DE5 		ldr	r3, [sp, #28]
 2927 041c 000053E3 		cmp	r3, #0
 2928 0420 6A0000DA 		ble	.L444
 2929              	.LBB1669:
 2930              	.LBB1670:
 2931              	.LBB1671:
 2932              	.LBB1672:
  92:C:/Renesas/e2studio_2021_01_workspace_RZA2M_ANPR/ANPR_RZA2M_GR_MANGO/src/tensorflow_lite/tensorflow/lite/kernels/internal/reference\pad.h ****     for (int out_p = 0; out_p < output_plane; ++out_p) {
  93:C:/Renesas/e2studio_2021_01_workspace_RZA2M_ANPR/ANPR_RZA2M_GR_MANGO/src/tensorflow_lite/tensorflow/lite/kernels/internal/reference\pad.h ****       for (int out_h = 0; out_h < output_height; ++out_h) {
  94:C:/Renesas/e2studio_2021_01_workspace_RZA2M_ANPR/ANPR_RZA2M_GR_MANGO/src/tensorflow_lite/tensorflow/lite/kernels/internal/reference\pad.h ****         for (int out_w = 0; out_w < output_width; ++out_w) {
  95:C:/Renesas/e2studio_2021_01_workspace_RZA2M_ANPR/ANPR_RZA2M_GR_MANGO/src/tensorflow_lite/tensorflow/lite/kernels/internal/reference\pad.h ****           for (int out_d = 0; out_d < output_depth; ++out_d) {
  96:C:/Renesas/e2studio_2021_01_workspace_RZA2M_ANPR/ANPR_RZA2M_GR_MANGO/src/tensorflow_lite/tensorflow/lite/kernels/internal/reference\pad.h ****             if (out_b < left_b_padding ||
  97:C:/Renesas/e2studio_2021_01_workspace_RZA2M_ANPR/ANPR_RZA2M_GR_MANGO/src/tensorflow_lite/tensorflow/lite/kernels/internal/reference\pad.h ****                 out_b >= output_batch - right_b_padding ||
  98:C:/Renesas/e2studio_2021_01_workspace_RZA2M_ANPR/ANPR_RZA2M_GR_MANGO/src/tensorflow_lite/tensorflow/lite/kernels/internal/reference\pad.h ****                 out_p < left_p_padding ||
  99:C:/Renesas/e2studio_2021_01_workspace_RZA2M_ANPR/ANPR_RZA2M_GR_MANGO/src/tensorflow_lite/tensorflow/lite/kernels/internal/reference\pad.h ****                 out_p >= output_plane - right_p_padding ||
 100:C:/Renesas/e2studio_2021_01_workspace_RZA2M_ANPR/ANPR_RZA2M_GR_MANGO/src/tensorflow_lite/tensorflow/lite/kernels/internal/reference\pad.h ****                 out_h < left_h_padding ||
 101:C:/Renesas/e2studio_2021_01_workspace_RZA2M_ANPR/ANPR_RZA2M_GR_MANGO/src/tensorflow_lite/tensorflow/lite/kernels/internal/reference\pad.h ****                 out_h >= output_height - right_h_padding ||
 102:C:/Renesas/e2studio_2021_01_workspace_RZA2M_ANPR/ANPR_RZA2M_GR_MANGO/src/tensorflow_lite/tensorflow/lite/kernels/internal/reference\pad.h ****                 out_w < left_w_padding ||
 103:C:/Renesas/e2studio_2021_01_workspace_RZA2M_ANPR/ANPR_RZA2M_GR_MANGO/src/tensorflow_lite/tensorflow/lite/kernels/internal/reference\pad.h ****                 out_w >= output_width - right_w_padding ||
 104:C:/Renesas/e2studio_2021_01_workspace_RZA2M_ANPR/ANPR_RZA2M_GR_MANGO/src/tensorflow_lite/tensorflow/lite/kernels/internal/reference\pad.h ****                 out_d < left_d_padding ||
 105:C:/Renesas/e2studio_2021_01_workspace_RZA2M_ANPR/ANPR_RZA2M_GR_MANGO/src/tensorflow_lite/tensorflow/lite/kernels/internal/reference\pad.h ****                 out_d >= output_depth - right_d_padding) {
 2933              		.loc 6 105 0
 2934 0424 023049E0 		sub	r3, r9, r2
 2935              	.LBE1672:
 2936              	.LBE1671:
 2937              	.LBE1670:
 2938              	.LBE1669:
  91:C:/Renesas/e2studio_2021_01_workspace_RZA2M_ANPR/ANPR_RZA2M_GR_MANGO/src/tensorflow_lite/tensorflow/lite/kernels/internal/reference\pad.h ****     for (int out_p = 0; out_p < output_plane; ++out_p) {
 2939              		.loc 6 91 0
 2940 0428 00B0A0E3 		mov	fp, #0
 2941              	.LBB1682:
 2942              	.LBB1679:
 2943              	.LBB1676:
 2944              	.LBB1673:
 2945              		.loc 6 105 0
 2946 042c 4C308DE5 		str	r3, [sp, #76]
 2947              	.LBE1673:
 2948              	.LBE1676:
 2949              	.LBE1679:
 2950              	.LBE1682:
  91:C:/Renesas/e2studio_2021_01_workspace_RZA2M_ANPR/ANPR_RZA2M_GR_MANGO/src/tensorflow_lite/tensorflow/lite/kernels/internal/reference\pad.h ****     for (int out_p = 0; out_p < output_plane; ++out_p) {
 2951              		.loc 6 91 0
 2952 0430 0430A0E1 		mov	r3, r4
 2953 0434 0B40A0E1 		mov	r4, fp
 2954              	.LVL338:
 2955 0438 03B0A0E1 		mov	fp, r3
 2956              	.LVL339:
 2957              	.L459:
 2958 043c 0030A0E3 		mov	r3, #0
 2959 0440 18308DE5 		str	r3, [sp, #24]
 2960              	.LVL340:
 2961              	.L458:
 2962              	.LBB1683:
 2963              	.LBB1680:
  93:C:/Renesas/e2studio_2021_01_workspace_RZA2M_ANPR/ANPR_RZA2M_GR_MANGO/src/tensorflow_lite/tensorflow/lite/kernels/internal/reference\pad.h ****         for (int out_w = 0; out_w < output_width; ++out_w) {
 2964              		.loc 6 93 0
 2965 0444 14309DE5 		ldr	r3, [sp, #20]
 2966 0448 000053E3 		cmp	r3, #0
 2967 044c 550000DA 		ble	.L445
 2968              	.LBB1677:
 2969              	.LBB1674:
  97:C:/Renesas/e2studio_2021_01_workspace_RZA2M_ANPR/ANPR_RZA2M_GR_MANGO/src/tensorflow_lite/tensorflow/lite/kernels/internal/reference\pad.h ****                 out_p < left_p_padding ||
 2970              		.loc 6 97 0
 2971 0450 30309DE5 		ldr	r3, [sp, #48]
  96:C:/Renesas/e2studio_2021_01_workspace_RZA2M_ANPR/ANPR_RZA2M_GR_MANGO/src/tensorflow_lite/tensorflow/lite/kernels/internal/reference\pad.h ****                 out_b >= output_batch - right_b_padding ||
 2972              		.loc 6 96 0
 2973 0454 0060A0E3 		mov	r6, #0
  97:C:/Renesas/e2studio_2021_01_workspace_RZA2M_ANPR/ANPR_RZA2M_GR_MANGO/src/tensorflow_lite/tensorflow/lite/kernels/internal/reference\pad.h ****                 out_p < left_p_padding ||
 2974              		.loc 6 97 0
 2975 0458 44209DE5 		ldr	r2, [sp, #68]
 2976 045c 48109DE5 		ldr	r1, [sp, #72]
 2977 0460 022043E0 		sub	r2, r3, r2
 2978 0464 18309DE5 		ldr	r3, [sp, #24]
 2979 0468 010053E1 		cmp	r3, r1
 2980 046c 0010A0A3 		movge	r1, #0
 2981 0470 0110A0B3 		movlt	r1, #1
 2982 0474 020054E1 		cmp	r4, r2
 2983 0478 011081A3 		orrge	r1, r1, #1
 2984 047c 0C108DE5 		str	r1, [sp, #12]
 2985              	.LVL341:
 2986              	.L457:
 2987              	.LBE1674:
  94:C:/Renesas/e2studio_2021_01_workspace_RZA2M_ANPR/ANPR_RZA2M_GR_MANGO/src/tensorflow_lite/tensorflow/lite/kernels/internal/reference\pad.h ****           for (int out_d = 0; out_d < output_depth; ++out_d) {
 2988              		.loc 6 94 0
 2989 0480 000057E3 		cmp	r7, #0
 2990 0484 430000DA 		ble	.L446
 2991              	.LBB1675:
  99:C:/Renesas/e2studio_2021_01_workspace_RZA2M_ANPR/ANPR_RZA2M_GR_MANGO/src/tensorflow_lite/tensorflow/lite/kernels/internal/reference\pad.h ****                 out_h < left_h_padding ||
 2992              		.loc 6 99 0
 2993 0488 1C309DE5 		ldr	r3, [sp, #28]
  98:C:/Renesas/e2studio_2021_01_workspace_RZA2M_ANPR/ANPR_RZA2M_GR_MANGO/src/tensorflow_lite/tensorflow/lite/kernels/internal/reference\pad.h ****                 out_p >= output_plane - right_p_padding ||
 2994              		.loc 6 98 0
 2995 048c 0050A0E3 		mov	r5, #0
  99:C:/Renesas/e2studio_2021_01_workspace_RZA2M_ANPR/ANPR_RZA2M_GR_MANGO/src/tensorflow_lite/tensorflow/lite/kernels/internal/reference\pad.h ****                 out_h < left_h_padding ||
 2996              		.loc 6 99 0
 2997 0490 24209DE5 		ldr	r2, [sp, #36]
 2998 0494 022043E0 		sub	r2, r3, r2
 2999 0498 20309DE5 		ldr	r3, [sp, #32]
 3000 049c 030056E1 		cmp	r6, r3
 3001 04a0 18309DE5 		ldr	r3, [sp, #24]
 3002 04a4 0010A0A3 		movge	r1, #0
 3003 04a8 0110A0B3 		movlt	r1, #1
 3004 04ac 020053E1 		cmp	r3, r2
 3005 04b0 011081A3 		orrge	r1, r1, #1
 101:C:/Renesas/e2studio_2021_01_workspace_RZA2M_ANPR/ANPR_RZA2M_GR_MANGO/src/tensorflow_lite/tensorflow/lite/kernels/internal/reference\pad.h ****                 out_w < left_w_padding ||
 3006              		.loc 6 101 0
 3007 04b4 14309DE5 		ldr	r3, [sp, #20]
 3008 04b8 28209DE5 		ldr	r2, [sp, #40]
 3009 04bc 10108DE5 		str	r1, [sp, #16]
 3010 04c0 028043E0 		sub	r8, r3, r2
 3011 04c4 0830A0E1 		mov	r3, r8
 3012 04c8 0B80A0E1 		mov	r8, fp
 3013 04cc 03B0A0E1 		mov	fp, r3
 3014              	.LVL342:
 3015              	.L456:
  95:C:/Renesas/e2studio_2021_01_workspace_RZA2M_ANPR/ANPR_RZA2M_GR_MANGO/src/tensorflow_lite/tensorflow/lite/kernels/internal/reference\pad.h ****             if (out_b < left_b_padding ||
 3016              		.loc 6 95 0
 3017 04d0 000059E3 		cmp	r9, #0
 3018 04d4 2B0000DA 		ble	.L447
 3019 04d8 04309DE5 		ldr	r3, [sp, #4]
 3020 04dc 030055E1 		cmp	r5, r3
 3021 04e0 06005BA1 		cmpge	fp, r6
 3022 04e4 08309DE5 		ldr	r3, [sp, #8]
 3023 04e8 0120A0D3 		movle	r2, #1
 3024 04ec 0020A0C3 		movgt	r2, #0
 3025 04f0 030054E1 		cmp	r4, r3
 3026 04f4 1E0000BA 		blt	.L448
 3027 04f8 0C309DE5 		ldr	r3, [sp, #12]
 3028 04fc 000053E3 		cmp	r3, #0
 3029 0500 5200001A 		bne	.L449
 3030 0504 000052E3 		cmp	r2, #0
 3031 0508 10309DE5 		ldr	r3, [sp, #16]
 3032 050c 5800001A 		bne	.L450
 3033 0510 000053E3 		cmp	r3, #0
 3034 0514 4D00001A 		bne	.L449
 100:C:/Renesas/e2studio_2021_01_workspace_RZA2M_ANPR/ANPR_RZA2M_GR_MANGO/src/tensorflow_lite/tensorflow/lite/kernels/internal/reference\pad.h ****                 out_h >= output_height - right_h_padding ||
 3035              		.loc 6 100 0
 3036 0518 0320A0E1 		mov	r2, r3
 3037 051c 34309DE5 		ldr	r3, [sp, #52]
 3038 0520 011088E2 		add	r1, r8, #1
 3039 0524 38009DE5 		ldr	r0, [sp, #56]
 3040 0528 03C047E0 		sub	ip, r7, r3
 3041 052c 0B0000EA 		b	.L453
 3042              	.LVL343:
 3043              	.L1475:
 104:C:/Renesas/e2studio_2021_01_workspace_RZA2M_ANPR/ANPR_RZA2M_GR_MANGO/src/tensorflow_lite/tensorflow/lite/kernels/internal/reference\pad.h ****                 out_d >= output_depth - right_d_padding) {
 3044              		.loc 6 104 0
 3045 0530 4C309DE5 		ldr	r3, [sp, #76]
 3046 0534 030052E1 		cmp	r2, r3
 3047 0538 0B0000AA 		bge	.L743
 3048              	.LVL344:
 106:C:/Renesas/e2studio_2021_01_workspace_RZA2M_ANPR/ANPR_RZA2M_GR_MANGO/src/tensorflow_lite/tensorflow/lite/kernels/internal/reference\pad.h ****               *out_ptr++ = pad_value;
 107:C:/Renesas/e2studio_2021_01_workspace_RZA2M_ANPR/ANPR_RZA2M_GR_MANGO/src/tensorflow_lite/tensorflow/lite/kernels/internal/reference\pad.h ****             } else {
 108:C:/Renesas/e2studio_2021_01_workspace_RZA2M_ANPR/ANPR_RZA2M_GR_MANGO/src/tensorflow_lite/tensorflow/lite/kernels/internal/reference\pad.h ****               *out_ptr++ = *in_ptr++;
 3049              		.loc 6 108 0
 3050 053c 40E09DE5 		ldr	lr, [sp, #64]
 3051 0540 0030DEE5 		ldrb	r3, [lr]	@ zero_extendqisi2
 3052 0544 01E08EE2 		add	lr, lr, #1
 3053              	.LVL345:
 3054 0548 40E08DE5 		str	lr, [sp, #64]
 3055              	.LVL346:
 3056              	.L452:
  95:C:/Renesas/e2studio_2021_01_workspace_RZA2M_ANPR/ANPR_RZA2M_GR_MANGO/src/tensorflow_lite/tensorflow/lite/kernels/internal/reference\pad.h ****             if (out_b < left_b_padding ||
 3057              		.loc 6 95 0
 3058 054c 012082E2 		add	r2, r2, #1
 3059              	.LVL347:
 3060 0550 013041E5 		strb	r3, [r1, #-1]
 3061              	.LVL348:
 3062 0554 020059E1 		cmp	r9, r2
 3063 0558 011081E2 		add	r1, r1, #1
 3064 055c 4900000A 		beq	.L1474
 3065              	.LVL349:
 3066              	.L453:
 103:C:/Renesas/e2studio_2021_01_workspace_RZA2M_ANPR/ANPR_RZA2M_GR_MANGO/src/tensorflow_lite/tensorflow/lite/kernels/internal/reference\pad.h ****                 out_d < left_d_padding ||
 3067              		.loc 6 103 0
 3068 0560 020050E1 		cmp	r0, r2
 3069 0564 0C0055D1 		cmple	r5, ip
 3070 0568 F0FFFFBA 		blt	.L1475
 3071              	.L743:
 106:C:/Renesas/e2studio_2021_01_workspace_RZA2M_ANPR/ANPR_RZA2M_GR_MANGO/src/tensorflow_lite/tensorflow/lite/kernels/internal/reference\pad.h ****               *out_ptr++ = pad_value;
 3072              		.loc 6 106 0
 3073 056c 0A30A0E1 		mov	r3, r10
 3074 0570 F5FFFFEA 		b	.L452
 3075              	.LVL350:
 3076              	.L448:
 3077 0574 0800A0E1 		mov	r0, r8
 3078 0578 0920A0E1 		mov	r2, r9
 3079 057c 098088E0 		add	r8, r8, r9
 3080              	.LVL351:
 3081 0580 0A10A0E1 		mov	r1, r10
 3082              	.L1315:
 3083 0584 FEFFFFEB 		bl	memset
 3084              	.LVL352:
 3085              	.L447:
 3086              	.LBE1675:
  94:C:/Renesas/e2studio_2021_01_workspace_RZA2M_ANPR/ANPR_RZA2M_GR_MANGO/src/tensorflow_lite/tensorflow/lite/kernels/internal/reference\pad.h ****           for (int out_d = 0; out_d < output_depth; ++out_d) {
 3087              		.loc 6 94 0
 3088 0588 015085E2 		add	r5, r5, #1
 3089              	.LVL353:
 3090 058c 070055E1 		cmp	r5, r7
 3091 0590 CEFFFF1A 		bne	.L456
 3092              	.LVL354:
 3093              	.L1476:
 3094 0594 08B0A0E1 		mov	fp, r8
 3095              	.LVL355:
 3096              	.L446:
 3097              	.LBE1677:
  93:C:/Renesas/e2studio_2021_01_workspace_RZA2M_ANPR/ANPR_RZA2M_GR_MANGO/src/tensorflow_lite/tensorflow/lite/kernels/internal/reference\pad.h ****         for (int out_w = 0; out_w < output_width; ++out_w) {
 3098              		.loc 6 93 0
 3099 0598 14309DE5 		ldr	r3, [sp, #20]
 3100 059c 016086E2 		add	r6, r6, #1
 3101              	.LVL356:
 3102 05a0 030056E1 		cmp	r6, r3
 3103 05a4 B5FFFF1A 		bne	.L457
 3104              	.LVL357:
 3105              	.L445:
 3106              	.LBE1680:
  92:C:/Renesas/e2studio_2021_01_workspace_RZA2M_ANPR/ANPR_RZA2M_GR_MANGO/src/tensorflow_lite/tensorflow/lite/kernels/internal/reference\pad.h ****       for (int out_h = 0; out_h < output_height; ++out_h) {
 3107              		.loc 6 92 0
 3108 05a8 18309DE5 		ldr	r3, [sp, #24]
 3109 05ac 1C209DE5 		ldr	r2, [sp, #28]
 3110 05b0 013083E2 		add	r3, r3, #1
 3111 05b4 020053E1 		cmp	r3, r2
 3112 05b8 18308DE5 		str	r3, [sp, #24]
 3113              	.LVL358:
 3114 05bc A0FFFF1A 		bne	.L458
 3115              	.LBE1683:
  91:C:/Renesas/e2studio_2021_01_workspace_RZA2M_ANPR/ANPR_RZA2M_GR_MANGO/src/tensorflow_lite/tensorflow/lite/kernels/internal/reference\pad.h ****     for (int out_p = 0; out_p < output_plane; ++out_p) {
 3116              		.loc 6 91 0
 3117 05c0 30309DE5 		ldr	r3, [sp, #48]
 3118              	.LVL359:
 3119 05c4 014084E2 		add	r4, r4, #1
 3120              	.LVL360:
 3121 05c8 030054E1 		cmp	r4, r3
 3122 05cc 9AFFFFBA 		blt	.L459
 3123              	.LVL361:
 3124              	.L444:
 3125              	.LBE1687:
 3126              	.LBB1688:
 3127              	.LBB1689:
 203:C:/Renesas/e2studio_2021_01_workspace_RZA2M_ANPR/ANPR_RZA2M_GR_MANGO/src/tensorflow_lite/tensorflow/lite/kernels/internal\types.h **** #ifdef TF_LITE_STATIC_MEMORY
 3128              		.loc 4 203 0
 3129 05d0 2C309DE5 		ldr	r3, [sp, #44]
 3130 05d4 050053E3 		cmp	r3, #5
 3131 05d8 0400000A 		beq	.L609
 3132              	.LVL362:
 3133              	.L440:
 207:C:/Renesas/e2studio_2021_01_workspace_RZA2M_ANPR/ANPR_RZA2M_GR_MANGO/src/tensorflow_lite/tensorflow/lite/kernels/internal\types.h **** #endif  // TF_LITE_STATIC_MEMORY
 3134              		.loc 4 207 0
 3135 05dc 3C309DE5 		ldr	r3, [sp, #60]
 3136 05e0 000053E3 		cmp	r3, #0
 3137 05e4 0100000A 		beq	.L609
 3138              	.LVL363:
 3139              	.L1400:
 3140              	.LBE1689:
 3141              	.LBE1688:
 3142              	.LBE1709:
 3143              	.LBE1713:
 3144              	.LBE1717:
 3145              	.LBE2076:
 3146              	.LBB2077:
 3147              	.LBB2058:
 3148              	.LBB2052:
 3149              	.LBB2046:
 3150              	.LBB1897:
 3151              	.LBB1898:
 3152 05e8 0300A0E1 		mov	r0, r3
 3153 05ec FEFFFFEB 		bl	_ZdaPv
 3154              	.LVL364:
 3155              	.L609:
 3156              	.LBE1898:
 3157              	.LBE1897:
 3158              	.LBB1901:
 3159              	.LBB1902:
 203:C:/Renesas/e2studio_2021_01_workspace_RZA2M_ANPR/ANPR_RZA2M_GR_MANGO/src/tensorflow_lite/tensorflow/lite/kernels/internal\types.h **** #ifdef TF_LITE_STATIC_MEMORY
 3160              		.loc 4 203 0
 3161 05f0 B8309DE5 		ldr	r3, [sp, #184]
 3162 05f4 050053E3 		cmp	r3, #5
 3163 05f8 030000DA 		ble	.L647
 207:C:/Renesas/e2studio_2021_01_workspace_RZA2M_ANPR/ANPR_RZA2M_GR_MANGO/src/tensorflow_lite/tensorflow/lite/kernels/internal\types.h **** #endif  // TF_LITE_STATIC_MEMORY
 3164              		.loc 4 207 0
 3165 05fc BC009DE5 		ldr	r0, [sp, #188]
 3166 0600 000050E3 		cmp	r0, #0
 3167 0604 0000000A 		beq	.L647
 3168 0608 FEFFFFEB 		bl	_ZdaPv
 3169              	.LVL365:
 3170              	.L647:
 3171              	.LBE1902:
 3172              	.LBE1901:
 3173              	.LBE2046:
 3174              	.LBE2052:
 3175              	.LBE2058:
 3176              	.LBB2059:
 3177              	.LBB2060:
 203:C:/Renesas/e2studio_2021_01_workspace_RZA2M_ANPR/ANPR_RZA2M_GR_MANGO/src/tensorflow_lite/tensorflow/lite/kernels/internal\types.h **** #ifdef TF_LITE_STATIC_MEMORY
 3178              		.loc 4 203 0
 3179 060c A0309DE5 		ldr	r3, [sp, #160]
 3180 0610 050053E3 		cmp	r3, #5
 3181 0614 030000DA 		ble	.L649
 207:C:/Renesas/e2studio_2021_01_workspace_RZA2M_ANPR/ANPR_RZA2M_GR_MANGO/src/tensorflow_lite/tensorflow/lite/kernels/internal\types.h **** #endif  // TF_LITE_STATIC_MEMORY
 3182              		.loc 4 207 0
 3183 0618 A4009DE5 		ldr	r0, [sp, #164]
 3184 061c 000050E3 		cmp	r0, #0
 3185 0620 0000000A 		beq	.L649
 3186 0624 FEFFFFEB 		bl	_ZdaPv
 3187              	.LVL366:
 3188              	.L649:
 3189              	.LBE2060:
 3190              	.LBE2059:
 3191              	.LBB2061:
 3192              	.LBB2062:
 203:C:/Renesas/e2studio_2021_01_workspace_RZA2M_ANPR/ANPR_RZA2M_GR_MANGO/src/tensorflow_lite/tensorflow/lite/kernels/internal\types.h **** #ifdef TF_LITE_STATIC_MEMORY
 3193              		.loc 4 203 0
 3194 0628 88309DE5 		ldr	r3, [sp, #136]
 3195 062c 050053E3 		cmp	r3, #5
 3196 0630 030000DA 		ble	.L657
 207:C:/Renesas/e2studio_2021_01_workspace_RZA2M_ANPR/ANPR_RZA2M_GR_MANGO/src/tensorflow_lite/tensorflow/lite/kernels/internal\types.h **** #endif  // TF_LITE_STATIC_MEMORY
 3197              		.loc 4 207 0
 3198 0634 8C009DE5 		ldr	r0, [sp, #140]
 3199 0638 000050E3 		cmp	r0, #0
 3200 063c 0000000A 		beq	.L657
 3201 0640 FEFFFFEB 		bl	_ZdaPv
 3202              	.LVL367:
 3203              	.L657:
 3204              	.LBE2062:
 3205              	.LBE2061:
 3206              	.LBE2077:
 3207              	.LBE1208:
 3208              	.LBE2421:
 204:../src/tensorflow_lite/tensorflow/lite/micro/kernels/pad.cc ****                            tflite::micro::GetTensorData<int8_t>(output));
 205:../src/tensorflow_lite/tensorflow/lite/micro/kernels/pad.cc ****       }
 206:../src/tensorflow_lite/tensorflow/lite/micro/kernels/pad.cc ****     } break;
 207:../src/tensorflow_lite/tensorflow/lite/micro/kernels/pad.cc ****     case kTfLiteInt32: {
 208:../src/tensorflow_lite/tensorflow/lite/micro/kernels/pad.cc ****       int32_t pad_value =
 209:../src/tensorflow_lite/tensorflow/lite/micro/kernels/pad.cc ****           constant_values == nullptr
 210:../src/tensorflow_lite/tensorflow/lite/micro/kernels/pad.cc ****               ? 0
 211:../src/tensorflow_lite/tensorflow/lite/micro/kernels/pad.cc ****               : *tflite::micro::GetTensorData<int32_t>(constant_values);
 212:../src/tensorflow_lite/tensorflow/lite/micro/kernels/pad.cc ****       reference_ops::Pad(data->params, tflite::micro::GetTensorShape(input),
 213:../src/tensorflow_lite/tensorflow/lite/micro/kernels/pad.cc ****                          tflite::micro::GetTensorData<int32_t>(input),
 214:../src/tensorflow_lite/tensorflow/lite/micro/kernels/pad.cc ****                          &pad_value, tflite::micro::GetTensorShape(output),
 215:../src/tensorflow_lite/tensorflow/lite/micro/kernels/pad.cc ****                          tflite::micro::GetTensorData<int32_t>(output));
 216:../src/tensorflow_lite/tensorflow/lite/micro/kernels/pad.cc ****     } break;
 217:../src/tensorflow_lite/tensorflow/lite/micro/kernels/pad.cc ****     default:
 218:../src/tensorflow_lite/tensorflow/lite/micro/kernels/pad.cc **** 
 219:../src/tensorflow_lite/tensorflow/lite/micro/kernels/pad.cc ****       TF_LITE_KERNEL_LOG(context, "Type %s not currently supported by Pad.",
 220:../src/tensorflow_lite/tensorflow/lite/micro/kernels/pad.cc ****                          TfLiteTypeGetName(input->type));
 221:../src/tensorflow_lite/tensorflow/lite/micro/kernels/pad.cc ****       return kTfLiteError;
 222:../src/tensorflow_lite/tensorflow/lite/micro/kernels/pad.cc ****   }
 223:../src/tensorflow_lite/tensorflow/lite/micro/kernels/pad.cc **** #undef TF_LITE_PAD
 224:../src/tensorflow_lite/tensorflow/lite/micro/kernels/pad.cc ****   return kTfLiteOk;
 3209              		.loc 1 224 0
 3210 0644 0000A0E3 		mov	r0, #0
 3211              	.L1258:
 225:../src/tensorflow_lite/tensorflow/lite/micro/kernels/pad.cc **** }
 3212              		.loc 1 225 0
 3213 0648 ECD08DE2 		add	sp, sp, #236
 3214              		.cfi_remember_state
 3215              		.cfi_def_cfa_offset 36
 3216              		@ sp needed
 3217 064c F08FBDE8 		pop	{r4, r5, r6, r7, r8, r9, r10, fp, pc}
 3218              	.LVL368:
 3219              	.L449:
 3220              		.cfi_restore_state
 3221 0650 0800A0E1 		mov	r0, r8
 3222 0654 0920A0E1 		mov	r2, r9
 3223 0658 0A10A0E1 		mov	r1, r10
 3224              	.LBB2422:
 3225              	.LBB2419:
 3226              	.LBB2078:
 3227              	.LBB1718:
 3228              	.LBB1714:
 3229              	.LBB1710:
 3230              	.LBB1690:
 3231              	.LBB1684:
 3232              	.LBB1681:
 3233              	.LBB1678:
  94:C:/Renesas/e2studio_2021_01_workspace_RZA2M_ANPR/ANPR_RZA2M_GR_MANGO/src/tensorflow_lite/tensorflow/lite/kernels/internal/reference\pad.h ****           for (int out_d = 0; out_d < output_depth; ++out_d) {
 3234              		.loc 6 94 0
 3235 065c 015085E2 		add	r5, r5, #1
 3236              	.LVL369:
 3237 0660 FEFFFFEB 		bl	memset
 3238              	.LVL370:
 3239 0664 070055E1 		cmp	r5, r7
 3240 0668 098088E0 		add	r8, r8, r9
 3241              	.LVL371:
 3242 066c 97FFFF1A 		bne	.L456
 3243 0670 C7FFFFEA 		b	.L1476
 3244              	.L450:
 3245 0674 0800A0E1 		mov	r0, r8
 3246 0678 0920A0E1 		mov	r2, r9
 3247 067c 0A10A0E1 		mov	r1, r10
 3248 0680 098088E0 		add	r8, r8, r9
 3249              	.LVL372:
 3250 0684 BEFFFFEA 		b	.L1315
 3251              	.LVL373:
 3252              	.L1474:
 3253 0688 015085E2 		add	r5, r5, #1
 3254              	.LVL374:
 3255 068c 098088E0 		add	r8, r8, r9
 3256              	.LVL375:
 3257 0690 070055E1 		cmp	r5, r7
 3258 0694 8DFFFF1A 		bne	.L456
 3259 0698 BDFFFFEA 		b	.L1476
 3260              	.LVL376:
 3261              	.L430:
 3262              	.LEHB12:
 3263              	.LBE1678:
 3264              	.LBE1681:
 3265              	.LBE1684:
 3266              	.LBE1690:
  47:C:/Renesas/e2studio_2021_01_workspace_RZA2M_ANPR/ANPR_RZA2M_GR_MANGO/src/tensorflow_lite/tensorflow/lite/kernels/internal/reference\pad.h **** 
 3267              		.loc 6 47 0
 3268 069c FEFFFFEB 		bl	abort
 3269              	.LVL377:
 3270              	.LEHE12:
 3271              	.L1473:
 3272              	.LEHB13:
 3273              	.LBB1691:
 3274              	.LBB1664:
 215:C:/Renesas/e2studio_2021_01_workspace_RZA2M_ANPR/ANPR_RZA2M_GR_MANGO/src/tensorflow_lite/tensorflow/lite/kernels/internal\types.h ****     return size_ > kMaxSmallSize ? dims_pointer_[i] : dims_[i];
 3275              		.loc 4 215 0
 3276 06a0 FEFFFFEB 		bl	abort
 3277              	.LVL378:
 3278              	.L701:
 3279              	.LBE1664:
 3280              	.LBE1691:
 3281              	.LBB1692:
 3282              	.LBB1645:
 3283 06a4 FEFFFFEB 		bl	abort
 3284              	.LVL379:
 3285              	.L702:
 3286              	.LBE1645:
 3287              	.LBE1692:
 3288              	.LBB1693:
 3289              	.LBB1656:
 3290 06a8 FEFFFFEB 		bl	abort
 3291              	.LVL380:
 3292              	.L799:
 3293              	.L1322:
 3294 06ac D0309DE5 		ldr	r3, [sp, #208]
 3295              	.LVL381:
 3296              	.LBE1656:
 3297              	.LBE1693:
 3298              	.LBE1710:
 3299              	.LBE1714:
 3300              	.LBE1718:
 3301              	.LBE2078:
 3302              	.LBB2079:
 3303              	.LBB2063:
 3304              	.LBB2053:
 3305              	.LBB2047:
 3306              	.LBB1903:
 3307              	.LBB1904:
 203:C:/Renesas/e2studio_2021_01_workspace_RZA2M_ANPR/ANPR_RZA2M_GR_MANGO/src/tensorflow_lite/tensorflow/lite/kernels/internal\types.h **** #ifdef TF_LITE_STATIC_MEMORY
 3308              		.loc 4 203 0
 3309 06b0 050053E3 		cmp	r3, #5
 3310 06b4 FAFEFFDA 		ble	.L654
 207:C:/Renesas/e2studio_2021_01_workspace_RZA2M_ANPR/ANPR_RZA2M_GR_MANGO/src/tensorflow_lite/tensorflow/lite/kernels/internal\types.h **** #endif  // TF_LITE_STATIC_MEMORY
 3311              		.loc 4 207 0
 3312 06b8 D4009DE5 		ldr	r0, [sp, #212]
 3313 06bc 000050E3 		cmp	r0, #0
 3314 06c0 F7FEFF0A 		beq	.L654
 3315 06c4 FEFFFFEB 		bl	_ZdaPv
 3316              	.LVL382:
 3317 06c8 F5FEFFEA 		b	.L654
 3318              	.LVL383:
 3319              	.L1472:
 3320              	.LBE1904:
 3321              	.LBE1903:
 3322              	.LBE2047:
 3323              	.LBE2053:
 3324              	.LBE2063:
 3325              	.LBE2079:
 3326              	.LBB2080:
 3327              	.LBB1719:
 3328              	.LBB1715:
 3329              	.LBB1711:
 3330              	.LBB1694:
 3331              	.LBB1635:
 215:C:/Renesas/e2studio_2021_01_workspace_RZA2M_ANPR/ANPR_RZA2M_GR_MANGO/src/tensorflow_lite/tensorflow/lite/kernels/internal\types.h ****     return size_ > kMaxSmallSize ? dims_pointer_[i] : dims_[i];
 3332              		.loc 4 215 0
 3333 06cc FEFFFFEB 		bl	abort
 3334              	.LVL384:
 3335              	.L785:
 3336 06d0 F3FEFFEA 		b	.L654
 3337              	.LVL385:
 3338              	.L1471:
 3339              	.LBE1635:
 3340              	.LBE1694:
  75:C:/Renesas/e2studio_2021_01_workspace_RZA2M_ANPR/ANPR_RZA2M_GR_MANGO/src/tensorflow_lite/tensorflow/lite/kernels/internal/reference\pad.h ****   const int left_p_padding = left_padding_copy[1];
 3341              		.loc 6 75 0
 3342 06d4 60309DE5 		ldr	r3, [sp, #96]
 3343              	.LBB1695:
 3344              	.LBB1626:
 216:C:/Renesas/e2studio_2021_01_workspace_RZA2M_ANPR/ANPR_RZA2M_GR_MANGO/src/tensorflow_lite/tensorflow/lite/kernels/internal\types.h ****   }
 3345              		.loc 4 216 0
 3346 06d8 D4209DE5 		ldr	r2, [sp, #212]
 3347              	.LBE1626:
 3348              	.LBE1695:
  75:C:/Renesas/e2studio_2021_01_workspace_RZA2M_ANPR/ANPR_RZA2M_GR_MANGO/src/tensorflow_lite/tensorflow/lite/kernels/internal/reference\pad.h ****   const int left_p_padding = left_padding_copy[1];
 3349              		.loc 6 75 0
 3350 06dc 08308DE5 		str	r3, [sp, #8]
  76:C:/Renesas/e2studio_2021_01_workspace_RZA2M_ANPR/ANPR_RZA2M_GR_MANGO/src/tensorflow_lite/tensorflow/lite/kernels/internal/reference\pad.h ****   const int left_h_padding = left_padding_copy[2];
 3351              		.loc 6 76 0
 3352 06e0 64309DE5 		ldr	r3, [sp, #100]
 3353              	.LBB1696:
 3354              	.LBB1636:
 216:C:/Renesas/e2studio_2021_01_workspace_RZA2M_ANPR/ANPR_RZA2M_GR_MANGO/src/tensorflow_lite/tensorflow/lite/kernels/internal\types.h ****   }
 3355              		.loc 4 216 0
 3356 06e4 041092E5 		ldr	r1, [r2, #4]
 3357 06e8 3C208DE5 		str	r2, [sp, #60]
 3358              	.LBE1636:
 3359              	.LBE1696:
  76:C:/Renesas/e2studio_2021_01_workspace_RZA2M_ANPR/ANPR_RZA2M_GR_MANGO/src/tensorflow_lite/tensorflow/lite/kernels/internal/reference\pad.h ****   const int left_h_padding = left_padding_copy[2];
 3360              		.loc 6 76 0
 3361 06ec 48308DE5 		str	r3, [sp, #72]
 3362              	.LBB1697:
 3363              	.LBB1627:
 216:C:/Renesas/e2studio_2021_01_workspace_RZA2M_ANPR/ANPR_RZA2M_GR_MANGO/src/tensorflow_lite/tensorflow/lite/kernels/internal\types.h ****   }
 3364              		.loc 4 216 0
 3365 06f0 003092E5 		ldr	r3, [r2]
 3366              	.LBE1627:
 3367              	.LBE1697:
 3368              	.LBB1698:
 3369              	.LBB1665:
 3370 06f4 109092E5 		ldr	r9, [r2, #16]
 3371              	.LBE1665:
 3372              	.LBE1698:
 3373              	.LBB1699:
 3374              	.LBB1657:
 3375 06f8 0C7092E5 		ldr	r7, [r2, #12]
 3376              	.LBE1657:
 3377              	.LBE1699:
 3378              	.LBB1700:
 3379              	.LBB1628:
 3380 06fc 30308DE5 		str	r3, [sp, #48]
 3381              	.LVL386:
 3382              	.LBE1628:
 3383              	.LBE1700:
 3384              	.LBB1701:
  91:C:/Renesas/e2studio_2021_01_workspace_RZA2M_ANPR/ANPR_RZA2M_GR_MANGO/src/tensorflow_lite/tensorflow/lite/kernels/internal/reference\pad.h ****     for (int out_p = 0; out_p < output_plane; ++out_p) {
 3385              		.loc 6 91 0
 3386 0700 000053E3 		cmp	r3, #0
 3387              	.LBE1701:
 3388              	.LBB1702:
 3389              	.LBB1646:
 216:C:/Renesas/e2studio_2021_01_workspace_RZA2M_ANPR/ANPR_RZA2M_GR_MANGO/src/tensorflow_lite/tensorflow/lite/kernels/internal\types.h ****   }
 3390              		.loc 4 216 0
 3391 0704 083092E5 		ldr	r3, [r2, #8]
 3392              	.LBE1646:
 3393              	.LBE1702:
 3394              	.LBB1703:
 3395              	.LBB1637:
 3396 0708 1C108DE5 		str	r1, [sp, #28]
 3397              	.LVL387:
 3398              	.LBE1637:
 3399              	.LBE1703:
  85:C:/Renesas/e2studio_2021_01_workspace_RZA2M_ANPR/ANPR_RZA2M_GR_MANGO/src/tensorflow_lite/tensorflow/lite/kernels/internal/reference\pad.h **** 
 3400              		.loc 6 85 0
 3401 070c 84209DE5 		ldr	r2, [sp, #132]
 3402              	.LBB1704:
 3403              	.LBB1647:
 216:C:/Renesas/e2studio_2021_01_workspace_RZA2M_ANPR/ANPR_RZA2M_GR_MANGO/src/tensorflow_lite/tensorflow/lite/kernels/internal\types.h ****   }
 3404              		.loc 4 216 0
 3405 0710 14308DE5 		str	r3, [sp, #20]
 3406              	.LVL388:
 3407              	.LBE1647:
 3408              	.LBE1704:
  77:C:/Renesas/e2studio_2021_01_workspace_RZA2M_ANPR/ANPR_RZA2M_GR_MANGO/src/tensorflow_lite/tensorflow/lite/kernels/internal/reference\pad.h ****   const int left_w_padding = left_padding_copy[3];
 3409              		.loc 6 77 0
 3410 0714 68309DE5 		ldr	r3, [sp, #104]
 3411 0718 20308DE5 		str	r3, [sp, #32]
 3412              	.LVL389:
  78:C:/Renesas/e2studio_2021_01_workspace_RZA2M_ANPR/ANPR_RZA2M_GR_MANGO/src/tensorflow_lite/tensorflow/lite/kernels/internal/reference\pad.h ****   const int left_d_padding = left_padding_copy[4];
 3413              		.loc 6 78 0
 3414 071c 6C309DE5 		ldr	r3, [sp, #108]
 3415              	.LVL390:
 3416 0720 04308DE5 		str	r3, [sp, #4]
 3417              	.LVL391:
  79:C:/Renesas/e2studio_2021_01_workspace_RZA2M_ANPR/ANPR_RZA2M_GR_MANGO/src/tensorflow_lite/tensorflow/lite/kernels/internal/reference\pad.h **** 
 3418              		.loc 6 79 0
 3419 0724 70309DE5 		ldr	r3, [sp, #112]
 3420              	.LVL392:
 3421 0728 38308DE5 		str	r3, [sp, #56]
 3422              	.LVL393:
  81:C:/Renesas/e2studio_2021_01_workspace_RZA2M_ANPR/ANPR_RZA2M_GR_MANGO/src/tensorflow_lite/tensorflow/lite/kernels/internal/reference\pad.h ****   const int right_p_padding = right_padding_copy[1];
 3423              		.loc 6 81 0
 3424 072c 74309DE5 		ldr	r3, [sp, #116]
 3425              	.LVL394:
 3426 0730 44308DE5 		str	r3, [sp, #68]
 3427              	.LVL395:
  82:C:/Renesas/e2studio_2021_01_workspace_RZA2M_ANPR/ANPR_RZA2M_GR_MANGO/src/tensorflow_lite/tensorflow/lite/kernels/internal/reference\pad.h ****   const int right_h_padding = right_padding_copy[2];
 3428              		.loc 6 82 0
 3429 0734 78309DE5 		ldr	r3, [sp, #120]
 3430              	.LVL396:
 3431 0738 24308DE5 		str	r3, [sp, #36]
 3432              	.LVL397:
  83:C:/Renesas/e2studio_2021_01_workspace_RZA2M_ANPR/ANPR_RZA2M_GR_MANGO/src/tensorflow_lite/tensorflow/lite/kernels/internal/reference\pad.h ****   const int right_w_padding = right_padding_copy[3];
 3433              		.loc 6 83 0
 3434 073c 7C309DE5 		ldr	r3, [sp, #124]
 3435              	.LVL398:
 3436 0740 28308DE5 		str	r3, [sp, #40]
 3437              	.LVL399:
  84:C:/Renesas/e2studio_2021_01_workspace_RZA2M_ANPR/ANPR_RZA2M_GR_MANGO/src/tensorflow_lite/tensorflow/lite/kernels/internal/reference\pad.h ****   const int right_d_padding = right_padding_copy[4];
 3438              		.loc 6 84 0
 3439 0744 80309DE5 		ldr	r3, [sp, #128]
 3440              	.LVL400:
 3441 0748 34308DE5 		str	r3, [sp, #52]
 3442              	.LVL401:
 3443              	.LBB1705:
  91:C:/Renesas/e2studio_2021_01_workspace_RZA2M_ANPR/ANPR_RZA2M_GR_MANGO/src/tensorflow_lite/tensorflow/lite/kernels/internal/reference\pad.h ****     for (int out_p = 0; out_p < output_plane; ++out_p) {
 3444              		.loc 6 91 0
 3445 074c 31FFFFCA 		bgt	.L441
 3446 0750 A1FFFFEA 		b	.L440
 3447              	.LVL402:
 3448              	.L1470:
 3449              	.LBE1705:
 3450              	.LBB1706:
 3451              	.LBB1629:
 215:C:/Renesas/e2studio_2021_01_workspace_RZA2M_ANPR/ANPR_RZA2M_GR_MANGO/src/tensorflow_lite/tensorflow/lite/kernels/internal\types.h ****     return size_ > kMaxSmallSize ? dims_pointer_[i] : dims_[i];
 3452              		.loc 4 215 0
 3453 0754 FEFFFFEB 		bl	abort
 3454              	.LVL403:
 3455              	.LEHE13:
 3456              	.L1469:
 3457              	.LEHB14:
 3458              	.LBE1629:
 3459              	.LBE1706:
  46:C:/Renesas/e2studio_2021_01_workspace_RZA2M_ANPR/ANPR_RZA2M_GR_MANGO/src/tensorflow_lite/tensorflow/lite/kernels/internal/reference\pad.h ****   TFLITE_DCHECK_LE(op_params.right_padding_count, PadKernelMaxDimensionCount());
 3460              		.loc 6 46 0
 3461 0758 FEFFFFEB 		bl	abort
 3462              	.LVL404:
 3463              	.LEHE14:
 3464              	.L1468:
 3465              	.LEHB15:
 3466              	.LBB1707:
 3467              	.LBB1614:
 3468              	.LBB1612:
 3469              	.LBB1610:
 3470              	.LBB1608:
 308:C:/Renesas/e2studio_2021_01_workspace_RZA2M_ANPR/ANPR_RZA2M_GR_MANGO/src/tensorflow_lite/tensorflow/lite/kernels/internal\types.h ****     Resize(new_shape_size);
 3471              		.loc 4 308 0
 3472 075c FEFFFFEB 		bl	abort
 3473              	.LVL405:
 3474              	.LEHE15:
 3475              	.L798:
 3476 0760 D1FFFFEA 		b	.L1322
 3477              	.LVL406:
 3478              	.L770:
 3479 0764 A5FEFFEA 		b	.L677
 3480              	.LVL407:
 3481              	.L1466:
 3482              	.LBE1608:
 3483              	.LBE1610:
 3484              	.LBE1612:
 3485              	.LBE1614:
 3486              	.LBE1707:
 3487              	.LBE1711:
 3488              	.LBE1715:
 3489              	.LBE1719:
 176:../src/tensorflow_lite/tensorflow/lite/micro/kernels/pad.cc ****             tflite::micro::GetTensorData<uint8_t>(input), &pad_value,
 3490              		.loc 1 176 0
 3491 0768 0710A0E1 		mov	r1, r7
 3492 076c 88008DE2 		add	r0, sp, #136
 3493              	.LEHB16:
 3494 0770 FEFFFFEB 		bl	_ZN6tflite5micro14GetTensorShapeEPK16TfLiteEvalTensor
 3495              	.LVL408:
 3496              	.LEHE16:
 3497              	.LBB1720:
 3498              	.LBB1721:
 3499              		.loc 5 63 0
 3500 0774 003097E5 		ldr	r3, [r7]
 3501              	.LBE1721:
 3502              	.LBE1720:
 178:../src/tensorflow_lite/tensorflow/lite/micro/kernels/pad.cc ****             tflite::micro::GetTensorData<uint8_t>(output));
 3503              		.loc 1 178 0
 3504 0778 0910A0E1 		mov	r1, r9
 3505 077c A0008DE2 		add	r0, sp, #160
 3506              	.LBB1723:
 3507              	.LBB1722:
 3508              		.loc 5 63 0
 3509 0780 44308DE5 		str	r3, [sp, #68]
 3510              	.LEHB17:
 3511              	.LBE1722:
 3512              	.LBE1723:
 178:../src/tensorflow_lite/tensorflow/lite/micro/kernels/pad.cc ****             tflite::micro::GetTensorData<uint8_t>(output));
 3513              		.loc 1 178 0
 3514 0784 FEFFFFEB 		bl	_ZN6tflite5micro14GetTensorShapeEPK16TfLiteEvalTensor
 3515              	.LVL409:
 3516              	.LEHE17:
 3517 0788 88209DE5 		ldr	r2, [sp, #136]
 3518              	.LBB1724:
 3519              	.LBB1725:
  56:C:/Renesas/e2studio_2021_01_workspace_RZA2M_ANPR/ANPR_RZA2M_GR_MANGO/src/tensorflow_lite/tensorflow/lite/micro/kernels\kernel_util.h **** }
 3520              		.loc 5 56 0
 3521 078c 000059E3 		cmp	r9, #0
 3522 0790 00409915 		ldrne	r4, [r9]
 3523 0794 0940A001 		moveq	r4, r9
 3524              	.LVL410:
 3525              	.LBE1725:
 3526              	.LBE1724:
 3527              	.LBB1726:
 3528              	.LBB1727:
 3529              	.LBB1728:
 3530              	.LBB1729:
 3531              	.LBB1730:
 3532              	.LBB1731:
 3533              	.LBB1732:
 3534              	.LBB1733:
 305:C:/Renesas/e2studio_2021_01_workspace_RZA2M_ANPR/ANPR_RZA2M_GR_MANGO/src/tensorflow_lite/tensorflow/lite/kernels/internal\types.h ****     // If the following check fails, it is likely because a 4D-only kernel is
 3535              		.loc 4 305 0
 3536 0798 0030A0E3 		mov	r3, #0
 3537              	.LBB1734:
 308:C:/Renesas/e2studio_2021_01_workspace_RZA2M_ANPR/ANPR_RZA2M_GR_MANGO/src/tensorflow_lite/tensorflow/lite/kernels/internal\types.h ****     Resize(new_shape_size);
 3538              		.loc 4 308 0
 3539 079c 050052E3 		cmp	r2, #5
 3540              	.LBE1734:
 305:C:/Renesas/e2studio_2021_01_workspace_RZA2M_ANPR/ANPR_RZA2M_GR_MANGO/src/tensorflow_lite/tensorflow/lite/kernels/internal\types.h ****     // If the following check fails, it is likely because a 4D-only kernel is
 3541              		.loc 4 305 0
 3542 07a0 B8308DE5 		str	r3, [sp, #184]
 3543              	.LBB1751:
 308:C:/Renesas/e2studio_2021_01_workspace_RZA2M_ANPR/ANPR_RZA2M_GR_MANGO/src/tensorflow_lite/tensorflow/lite/kernels/internal\types.h ****     Resize(new_shape_size);
 3544              		.loc 4 308 0
 3545 07a4 8E0700CA 		bgt	.L1477
 3546              	.LVL411:
 3547              	.LBB1735:
 311:C:/Renesas/e2studio_2021_01_workspace_RZA2M_ANPR/ANPR_RZA2M_GR_MANGO/src/tensorflow_lite/tensorflow/lite/kernels/internal\types.h ****       SetDim(i, pad_value);
 3548              		.loc 4 311 0
 3549 07a8 050072E2 		rsbs	r0, r2, #5
 3550              	.LBE1735:
 3551              	.LBB1748:
 3552              	.LBB1749:
 245:C:/Renesas/e2studio_2021_01_workspace_RZA2M_ANPR/ANPR_RZA2M_GR_MANGO/src/tensorflow_lite/tensorflow/lite/kernels/internal\types.h ****     if (dimensions_count > kMaxSmallSize) {
 3553              		.loc 4 245 0
 3554 07ac 0530A0E3 		mov	r3, #5
 3555 07b0 B8308DE5 		str	r3, [sp, #184]
 3556              	.LVL412:
 3557              	.LBE1749:
 3558              	.LBE1748:
 3559              	.LBB1750:
 311:C:/Renesas/e2studio_2021_01_workspace_RZA2M_ANPR/ANPR_RZA2M_GR_MANGO/src/tensorflow_lite/tensorflow/lite/kernels/internal\types.h ****       SetDim(i, pad_value);
 3560              		.loc 4 311 0
 3561 07b4 6B07000A 		beq	.L369
 3562              	.LVL413:
 3563 07b8 010050E3 		cmp	r0, #1
 3564              	.LBB1736:
 3565              	.LBB1737:
 224:C:/Renesas/e2studio_2021_01_workspace_RZA2M_ANPR/ANPR_RZA2M_GR_MANGO/src/tensorflow_lite/tensorflow/lite/kernels/internal\types.h ****     }
 3566              		.loc 4 224 0
 3567 07bc 0130A0E3 		mov	r3, #1
 3568 07c0 BC308DE5 		str	r3, [sp, #188]
 3569              	.LVL414:
 3570              	.LBE1737:
 3571              	.LBE1736:
 311:C:/Renesas/e2studio_2021_01_workspace_RZA2M_ANPR/ANPR_RZA2M_GR_MANGO/src/tensorflow_lite/tensorflow/lite/kernels/internal\types.h ****       SetDim(i, pad_value);
 3572              		.loc 4 311 0
 3573 07c4 6707000A 		beq	.L369
 3574              	.LVL415:
 3575 07c8 020050E3 		cmp	r0, #2
 3576              	.LBB1743:
 3577              	.LBB1738:
 224:C:/Renesas/e2studio_2021_01_workspace_RZA2M_ANPR/ANPR_RZA2M_GR_MANGO/src/tensorflow_lite/tensorflow/lite/kernels/internal\types.h ****     }
 3578              		.loc 4 224 0
 3579 07cc C0308DE5 		str	r3, [sp, #192]
 3580              	.LVL416:
 3581              	.LBE1738:
 3582              	.LBE1743:
 311:C:/Renesas/e2studio_2021_01_workspace_RZA2M_ANPR/ANPR_RZA2M_GR_MANGO/src/tensorflow_lite/tensorflow/lite/kernels/internal\types.h ****       SetDim(i, pad_value);
 3583              		.loc 4 311 0
 3584 07d0 6407000A 		beq	.L369
 3585              	.LVL417:
 3586 07d4 030050E3 		cmp	r0, #3
 3587              	.LBB1744:
 3588              	.LBB1739:
 224:C:/Renesas/e2studio_2021_01_workspace_RZA2M_ANPR/ANPR_RZA2M_GR_MANGO/src/tensorflow_lite/tensorflow/lite/kernels/internal\types.h ****     }
 3589              		.loc 4 224 0
 3590 07d8 C4308DE5 		str	r3, [sp, #196]
 3591              	.LVL418:
 3592              	.LBE1739:
 3593              	.LBE1744:
 311:C:/Renesas/e2studio_2021_01_workspace_RZA2M_ANPR/ANPR_RZA2M_GR_MANGO/src/tensorflow_lite/tensorflow/lite/kernels/internal\types.h ****       SetDim(i, pad_value);
 3594              		.loc 4 311 0
 3595 07dc 6107000A 		beq	.L369
 3596              	.LVL419:
 3597 07e0 040050E3 		cmp	r0, #4
 3598              	.LBB1745:
 3599              	.LBB1740:
 224:C:/Renesas/e2studio_2021_01_workspace_RZA2M_ANPR/ANPR_RZA2M_GR_MANGO/src/tensorflow_lite/tensorflow/lite/kernels/internal\types.h ****     }
 3600              		.loc 4 224 0
 3601 07e4 C8308DE5 		str	r3, [sp, #200]
 3602              	.LVL420:
 3603              	.LBE1740:
 3604              	.LBE1745:
 311:C:/Renesas/e2studio_2021_01_workspace_RZA2M_ANPR/ANPR_RZA2M_GR_MANGO/src/tensorflow_lite/tensorflow/lite/kernels/internal\types.h ****       SetDim(i, pad_value);
 3605              		.loc 4 311 0
 3606 07e8 5E07000A 		beq	.L369
 3607              	.LVL421:
 3608 07ec 050050E3 		cmp	r0, #5
 3609              	.LBB1746:
 3610              	.LBB1741:
 224:C:/Renesas/e2studio_2021_01_workspace_RZA2M_ANPR/ANPR_RZA2M_GR_MANGO/src/tensorflow_lite/tensorflow/lite/kernels/internal\types.h ****     }
 3611              		.loc 4 224 0
 3612 07f0 CC308DE5 		str	r3, [sp, #204]
 3613              	.LVL422:
 3614              	.LBE1741:
 3615              	.LBE1746:
 311:C:/Renesas/e2studio_2021_01_workspace_RZA2M_ANPR/ANPR_RZA2M_GR_MANGO/src/tensorflow_lite/tensorflow/lite/kernels/internal\types.h ****       SetDim(i, pad_value);
 3616              		.loc 4 311 0
 3617 07f4 5B07000A 		beq	.L369
 3618              	.LVL423:
 3619              	.LEHB18:
 3620              	.LBB1747:
 3621              	.LBB1742:
 220:C:/Renesas/e2studio_2021_01_workspace_RZA2M_ANPR/ANPR_RZA2M_GR_MANGO/src/tensorflow_lite/tensorflow/lite/kernels/internal\types.h ****     if (size_ > kMaxSmallSize) {
 3622              		.loc 4 220 0
 3623 07f8 FEFFFFEB 		bl	abort
 3624              	.LVL424:
 3625              	.LEHE18:
 3626              	.L534:
 3627              	.LBE1742:
 3628              	.LBE1747:
 3629              	.LBE1750:
 3630              	.LBE1751:
 3631              	.LBE1733:
 3632              	.LBE1732:
 3633              	.LBE1731:
 3634              	.LBE1730:
 3635              	.LBE1729:
 3636              	.LBE1728:
 3637              	.LBE1727:
 3638              	.LBE1726:
 3639              	.LBE2080:
 3640              	.LBB2081:
 3641              	.LBB1376:
 3642              	.LBB1374:
 3643              	.LBB1372:
 3644              	.LBB1249:
 3645              	.LBB1247:
 3646              	.LBB1245:
 3647              	.LBB1243:
 3648              	.LBB1241:
 3649              		.loc 4 315 0
 3650 07fc BC308DE2 		add	r3, sp, #188
 3651 0800 0221A0E1 		lsl	r2, r2, #2
 3652 0804 000183E0 		add	r0, r3, r0, lsl #2
 3653              	.LVL425:
 3654 0808 8C108DE2 		add	r1, sp, #140
 3655 080c FEFFFFEB 		bl	memcpy
 3656              	.LVL426:
 3657 0810 A0209DE5 		ldr	r2, [sp, #160]
 3658              	.LVL427:
 3659              	.LBE1241:
 3660              	.LBE1243:
 3661              	.LBE1245:
 3662              	.LBE1247:
 3663              	.LBE1249:
 3664              	.LBB1250:
 3665              	.LBB1251:
 3666              	.LBB1252:
 3667              	.LBB1253:
 305:C:/Renesas/e2studio_2021_01_workspace_RZA2M_ANPR/ANPR_RZA2M_GR_MANGO/src/tensorflow_lite/tensorflow/lite/kernels/internal\types.h ****     // If the following check fails, it is likely because a 4D-only kernel is
 3668              		.loc 4 305 0
 3669 0814 0030A0E3 		mov	r3, #0
 3670 0818 D0308DE5 		str	r3, [sp, #208]
 3671              	.LBB1254:
 308:C:/Renesas/e2studio_2021_01_workspace_RZA2M_ANPR/ANPR_RZA2M_GR_MANGO/src/tensorflow_lite/tensorflow/lite/kernels/internal\types.h ****     Resize(new_shape_size);
 3672              		.loc 4 308 0
 3673 081c 050052E3 		cmp	r2, #5
 3674 0820 210100CA 		bgt	.L1478
 3675              	.LVL428:
 3676              	.LBB1255:
 311:C:/Renesas/e2studio_2021_01_workspace_RZA2M_ANPR/ANPR_RZA2M_GR_MANGO/src/tensorflow_lite/tensorflow/lite/kernels/internal\types.h ****       SetDim(i, pad_value);
 3677              		.loc 4 311 0
 3678 0824 050072E2 		rsbs	r0, r2, #5
 3679              	.LBE1255:
 3680              	.LBB1268:
 3681              	.LBB1269:
 245:C:/Renesas/e2studio_2021_01_workspace_RZA2M_ANPR/ANPR_RZA2M_GR_MANGO/src/tensorflow_lite/tensorflow/lite/kernels/internal\types.h ****     if (dimensions_count > kMaxSmallSize) {
 3682              		.loc 4 245 0
 3683 0828 0530A0E3 		mov	r3, #5
 3684 082c D0308DE5 		str	r3, [sp, #208]
 3685              	.LVL429:
 3686              	.LBE1269:
 3687              	.LBE1268:
 3688              	.LBB1270:
 311:C:/Renesas/e2studio_2021_01_workspace_RZA2M_ANPR/ANPR_RZA2M_GR_MANGO/src/tensorflow_lite/tensorflow/lite/kernels/internal\types.h ****       SetDim(i, pad_value);
 3689              		.loc 4 311 0
 3690 0830 1200000A 		beq	.L539
 3691              	.LVL430:
 3692 0834 010050E3 		cmp	r0, #1
 3693              	.LBB1256:
 3694              	.LBB1257:
 224:C:/Renesas/e2studio_2021_01_workspace_RZA2M_ANPR/ANPR_RZA2M_GR_MANGO/src/tensorflow_lite/tensorflow/lite/kernels/internal\types.h ****     }
 3695              		.loc 4 224 0
 3696 0838 0130A0E3 		mov	r3, #1
 3697 083c D4308DE5 		str	r3, [sp, #212]
 3698              	.LVL431:
 3699              	.LBE1257:
 3700              	.LBE1256:
 311:C:/Renesas/e2studio_2021_01_workspace_RZA2M_ANPR/ANPR_RZA2M_GR_MANGO/src/tensorflow_lite/tensorflow/lite/kernels/internal\types.h ****       SetDim(i, pad_value);
 3701              		.loc 4 311 0
 3702 0840 0E00000A 		beq	.L539
 3703              	.LVL432:
 3704 0844 020050E3 		cmp	r0, #2
 3705              	.LBB1263:
 3706              	.LBB1258:
 224:C:/Renesas/e2studio_2021_01_workspace_RZA2M_ANPR/ANPR_RZA2M_GR_MANGO/src/tensorflow_lite/tensorflow/lite/kernels/internal\types.h ****     }
 3707              		.loc 4 224 0
 3708 0848 D8308DE5 		str	r3, [sp, #216]
 3709              	.LVL433:
 3710              	.LBE1258:
 3711              	.LBE1263:
 311:C:/Renesas/e2studio_2021_01_workspace_RZA2M_ANPR/ANPR_RZA2M_GR_MANGO/src/tensorflow_lite/tensorflow/lite/kernels/internal\types.h ****       SetDim(i, pad_value);
 3712              		.loc 4 311 0
 3713 084c 0B00000A 		beq	.L539
 3714              	.LVL434:
 3715 0850 030050E3 		cmp	r0, #3
 3716              	.LBB1264:
 3717              	.LBB1259:
 224:C:/Renesas/e2studio_2021_01_workspace_RZA2M_ANPR/ANPR_RZA2M_GR_MANGO/src/tensorflow_lite/tensorflow/lite/kernels/internal\types.h ****     }
 3718              		.loc 4 224 0
 3719 0854 DC308DE5 		str	r3, [sp, #220]
 3720              	.LVL435:
 3721              	.LBE1259:
 3722              	.LBE1264:
 311:C:/Renesas/e2studio_2021_01_workspace_RZA2M_ANPR/ANPR_RZA2M_GR_MANGO/src/tensorflow_lite/tensorflow/lite/kernels/internal\types.h ****       SetDim(i, pad_value);
 3723              		.loc 4 311 0
 3724 0858 0800000A 		beq	.L539
 3725              	.LVL436:
 3726 085c 040050E3 		cmp	r0, #4
 3727              	.LBB1265:
 3728              	.LBB1260:
 224:C:/Renesas/e2studio_2021_01_workspace_RZA2M_ANPR/ANPR_RZA2M_GR_MANGO/src/tensorflow_lite/tensorflow/lite/kernels/internal\types.h ****     }
 3729              		.loc 4 224 0
 3730 0860 E0308DE5 		str	r3, [sp, #224]
 3731              	.LVL437:
 3732              	.LBE1260:
 3733              	.LBE1265:
 311:C:/Renesas/e2studio_2021_01_workspace_RZA2M_ANPR/ANPR_RZA2M_GR_MANGO/src/tensorflow_lite/tensorflow/lite/kernels/internal\types.h ****       SetDim(i, pad_value);
 3734              		.loc 4 311 0
 3735 0864 0500000A 		beq	.L539
 3736              	.LVL438:
 3737 0868 050050E3 		cmp	r0, #5
 3738              	.LBB1266:
 3739              	.LBB1261:
 224:C:/Renesas/e2studio_2021_01_workspace_RZA2M_ANPR/ANPR_RZA2M_GR_MANGO/src/tensorflow_lite/tensorflow/lite/kernels/internal\types.h ****     }
 3740              		.loc 4 224 0
 3741 086c E4308DE5 		str	r3, [sp, #228]
 3742              	.LVL439:
 3743              	.LBE1261:
 3744              	.LBE1266:
 311:C:/Renesas/e2studio_2021_01_workspace_RZA2M_ANPR/ANPR_RZA2M_GR_MANGO/src/tensorflow_lite/tensorflow/lite/kernels/internal\types.h ****       SetDim(i, pad_value);
 3745              		.loc 4 311 0
 3746 0870 0200000A 		beq	.L539
 3747              	.LVL440:
 3748              	.LEHB19:
 3749              	.LBB1267:
 3750              	.LBB1262:
 220:C:/Renesas/e2studio_2021_01_workspace_RZA2M_ANPR/ANPR_RZA2M_GR_MANGO/src/tensorflow_lite/tensorflow/lite/kernels/internal\types.h ****     if (size_ > kMaxSmallSize) {
 3751              		.loc 4 220 0
 3752 0874 FEFFFFEB 		bl	abort
 3753              	.LVL441:
 3754              	.LEHE19:
 3755              	.L1465:
 3756              	.LEHB20:
 3757              	.LBE1262:
 3758              	.LBE1267:
 3759              	.LBE1270:
 3760              	.LBE1254:
 3761              	.LBE1253:
 3762              	.LBE1252:
 3763              	.LBE1251:
 3764              	.LBE1250:
 3765              	.LBB1279:
 3766              	.LBB1248:
 3767              	.LBB1246:
 3768              	.LBB1244:
 3769              	.LBB1242:
 308:C:/Renesas/e2studio_2021_01_workspace_RZA2M_ANPR/ANPR_RZA2M_GR_MANGO/src/tensorflow_lite/tensorflow/lite/kernels/internal\types.h ****     Resize(new_shape_size);
 3770              		.loc 4 308 0
 3771 0878 FEFFFFEB 		bl	abort
 3772              	.LVL442:
 3773              	.LEHE20:
 3774              	.L788:
 3775 087c 88FEFFEA 		b	.L654
 3776              	.LVL443:
 3777              	.L539:
 3778              	.LBE1242:
 3779              	.LBE1244:
 3780              	.LBE1246:
 3781              	.LBE1248:
 3782              	.LBE1279:
 3783              	.LBB1280:
 3784              	.LBB1277:
 3785              	.LBB1275:
 3786              	.LBB1273:
 3787              	.LBB1271:
 3788              		.loc 4 315 0
 3789 0880 D4308DE2 		add	r3, sp, #212
 3790 0884 0221A0E1 		lsl	r2, r2, #2
 3791 0888 000183E0 		add	r0, r3, r0, lsl #2
 3792              	.LVL444:
 3793 088c A4108DE2 		add	r1, sp, #164
 3794 0890 FEFFFFEB 		bl	memcpy
 3795              	.LVL445:
 3796              	.LBE1271:
 3797              	.LBE1273:
 3798              	.LBE1275:
 3799              	.LBE1277:
 3800              	.LBE1280:
  46:C:/Renesas/e2studio_2021_01_workspace_RZA2M_ANPR/ANPR_RZA2M_GR_MANGO/src/tensorflow_lite/tensorflow/lite/kernels/internal/reference\pad.h ****   TFLITE_DCHECK_LE(op_params.right_padding_count, PadKernelMaxDimensionCount());
 3801              		.loc 6 46 0
 3802 0894 D020D5E1 		ldrsb	r2, [r5]
 3803 0898 050052E3 		cmp	r2, #5
 3804 089c 010100CA 		bgt	.L1479
  47:C:/Renesas/e2studio_2021_01_workspace_RZA2M_ANPR/ANPR_RZA2M_GR_MANGO/src/tensorflow_lite/tensorflow/lite/kernels/internal/reference\pad.h **** 
 3805              		.loc 6 47 0
 3806 08a0 D861D5E1 		ldrsb	r6, [r5, #24]
 3807              	.LVL446:
 3808 08a4 050056E3 		cmp	r6, #5
 3809 08a8 DB0000CA 		bgt	.L541
 3810              	.LVL447:
 3811              	.LBB1281:
  55:C:/Renesas/e2studio_2021_01_workspace_RZA2M_ANPR/ANPR_RZA2M_GR_MANGO/src/tensorflow_lite/tensorflow/lite/kernels/internal/reference\pad.h ****     left_padding_copy[i + PadKernelMaxDimensionCount() -
 3812              		.loc 6 55 0
 3813 08ac 000052E3 		cmp	r2, #0
 3814              	.LBE1281:
 3815              	.LBB1282:
  53:C:/Renesas/e2studio_2021_01_workspace_RZA2M_ANPR/ANPR_RZA2M_GR_MANGO/src/tensorflow_lite/tensorflow/lite/kernels/internal/reference\pad.h ****   }
 3816              		.loc 6 53 0
 3817 08b0 0030A0E3 		mov	r3, #0
 3818 08b4 60308DE5 		str	r3, [sp, #96]
 3819              	.LVL448:
 3820 08b8 64308DE5 		str	r3, [sp, #100]
 3821              	.LVL449:
 3822 08bc 68308DE5 		str	r3, [sp, #104]
 3823              	.LVL450:
 3824 08c0 6C308DE5 		str	r3, [sp, #108]
 3825              	.LVL451:
 3826 08c4 70308DE5 		str	r3, [sp, #112]
 3827              	.LVL452:
 3828              	.LBE1282:
 3829              	.LBB1283:
  55:C:/Renesas/e2studio_2021_01_workspace_RZA2M_ANPR/ANPR_RZA2M_GR_MANGO/src/tensorflow_lite/tensorflow/lite/kernels/internal/reference\pad.h ****     left_padding_copy[i + PadKernelMaxDimensionCount() -
 3830              		.loc 6 55 0
 3831 08c8 050000DA 		ble	.L542
  56:C:/Renesas/e2studio_2021_01_workspace_RZA2M_ANPR/ANPR_RZA2M_GR_MANGO/src/tensorflow_lite/tensorflow/lite/kernels/internal/reference\pad.h ****                       op_params.left_padding_count] = op_params.left_padding[i];
 3832              		.loc 6 56 0
 3833 08cc E8308DE2 		add	r3, sp, #232
 3834 08d0 041085E2 		add	r1, r5, #4
 3835 08d4 020143E0 		sub	r0, r3, r2, lsl #2
 3836 08d8 0221A0E1 		lsl	r2, r2, #2
 3837 08dc 740040E2 		sub	r0, r0, #116
 3838 08e0 FEFFFFEB 		bl	memcpy
 3839              	.LVL453:
 3840              	.L542:
 3841              	.LBE1283:
 3842              	.LBB1284:
  63:C:/Renesas/e2studio_2021_01_workspace_RZA2M_ANPR/ANPR_RZA2M_GR_MANGO/src/tensorflow_lite/tensorflow/lite/kernels/internal/reference\pad.h ****     right_padding_copy[i + PadKernelMaxDimensionCount() -
 3843              		.loc 6 63 0
 3844 08e4 000056E3 		cmp	r6, #0
 3845              	.LBE1284:
 3846              	.LBB1285:
  61:C:/Renesas/e2studio_2021_01_workspace_RZA2M_ANPR/ANPR_RZA2M_GR_MANGO/src/tensorflow_lite/tensorflow/lite/kernels/internal/reference\pad.h ****   }
 3847              		.loc 6 61 0
 3848 08e8 0030A0E3 		mov	r3, #0
 3849 08ec 74308DE5 		str	r3, [sp, #116]
 3850              	.LVL454:
 3851 08f0 78308DE5 		str	r3, [sp, #120]
 3852              	.LVL455:
 3853 08f4 7C308DE5 		str	r3, [sp, #124]
 3854              	.LVL456:
 3855 08f8 80308DE5 		str	r3, [sp, #128]
 3856              	.LVL457:
 3857 08fc 84308DE5 		str	r3, [sp, #132]
 3858              	.LVL458:
 3859              	.LBE1285:
 3860              	.LBB1286:
  63:C:/Renesas/e2studio_2021_01_workspace_RZA2M_ANPR/ANPR_RZA2M_GR_MANGO/src/tensorflow_lite/tensorflow/lite/kernels/internal/reference\pad.h ****     right_padding_copy[i + PadKernelMaxDimensionCount() -
 3861              		.loc 6 63 0
 3862 0900 050000DA 		ble	.L549
  64:C:/Renesas/e2studio_2021_01_workspace_RZA2M_ANPR/ANPR_RZA2M_GR_MANGO/src/tensorflow_lite/tensorflow/lite/kernels/internal/reference\pad.h ****                        op_params.right_padding_count] =
 3863              		.loc 6 64 0
 3864 0904 E8308DE2 		add	r3, sp, #232
 3865 0908 1C1085E2 		add	r1, r5, #28
 3866 090c 060143E0 		sub	r0, r3, r6, lsl #2
 3867 0910 0621A0E1 		lsl	r2, r6, #2
 3868 0914 600040E2 		sub	r0, r0, #96
 3869 0918 FEFFFFEB 		bl	memcpy
 3870              	.LVL459:
 3871              	.L549:
 3872              	.LBE1286:
 3873              	.LBB1287:
 3874              	.LBB1288:
 215:C:/Renesas/e2studio_2021_01_workspace_RZA2M_ANPR/ANPR_RZA2M_GR_MANGO/src/tensorflow_lite/tensorflow/lite/kernels/internal\types.h ****     return size_ > kMaxSmallSize ? dims_pointer_[i] : dims_[i];
 3875              		.loc 4 215 0
 3876 091c D0309DE5 		ldr	r3, [sp, #208]
 3877 0920 000053E3 		cmp	r3, #0
 3878 0924 34308DE5 		str	r3, [sp, #52]
 3879 0928 DC0000DA 		ble	.L1480
 216:C:/Renesas/e2studio_2021_01_workspace_RZA2M_ANPR/ANPR_RZA2M_GR_MANGO/src/tensorflow_lite/tensorflow/lite/kernels/internal\types.h ****   }
 3880              		.loc 4 216 0
 3881 092c 050053E3 		cmp	r3, #5
 3882 0930 BA0000CA 		bgt	.L1481
 3883              	.LBE1288:
 3884              	.LBE1287:
 3885              	.LBB1294:
 3886              	.LBB1295:
 215:C:/Renesas/e2studio_2021_01_workspace_RZA2M_ANPR/ANPR_RZA2M_GR_MANGO/src/tensorflow_lite/tensorflow/lite/kernels/internal\types.h ****     return size_ > kMaxSmallSize ? dims_pointer_[i] : dims_[i];
 3887              		.loc 4 215 0
 3888 0934 010053E3 		cmp	r3, #1
 3889              	.LBE1295:
 3890              	.LBE1294:
 3891              	.LBB1302:
 3892              	.LBB1289:
 216:C:/Renesas/e2studio_2021_01_workspace_RZA2M_ANPR/ANPR_RZA2M_GR_MANGO/src/tensorflow_lite/tensorflow/lite/kernels/internal\types.h ****   }
 3893              		.loc 4 216 0
 3894 0938 D4309DE5 		ldr	r3, [sp, #212]
 3895 093c 38308DE5 		str	r3, [sp, #56]
 3896              	.LVL460:
 3897              	.LBE1289:
 3898              	.LBE1302:
 3899              	.LBB1303:
 3900              	.LBB1296:
 215:C:/Renesas/e2studio_2021_01_workspace_RZA2M_ANPR/ANPR_RZA2M_GR_MANGO/src/tensorflow_lite/tensorflow/lite/kernels/internal\types.h ****     return size_ > kMaxSmallSize ? dims_pointer_[i] : dims_[i];
 3901              		.loc 4 215 0
 3902 0940 B400000A 		beq	.L1482
 3903              	.LBE1296:
 3904              	.LBE1303:
 3905              	.LBB1304:
 3906              	.LBB1305:
 3907 0944 34309DE5 		ldr	r3, [sp, #52]
 3908              	.LBE1305:
 3909              	.LBE1304:
 3910              	.LBB1312:
 3911              	.LBB1297:
 216:C:/Renesas/e2studio_2021_01_workspace_RZA2M_ANPR/ANPR_RZA2M_GR_MANGO/src/tensorflow_lite/tensorflow/lite/kernels/internal\types.h ****   }
 3912              		.loc 4 216 0
 3913 0948 D8209DE5 		ldr	r2, [sp, #216]
 3914              	.LBE1297:
 3915              	.LBE1312:
 3916              	.LBB1313:
 3917              	.LBB1306:
 215:C:/Renesas/e2studio_2021_01_workspace_RZA2M_ANPR/ANPR_RZA2M_GR_MANGO/src/tensorflow_lite/tensorflow/lite/kernels/internal\types.h ****     return size_ > kMaxSmallSize ? dims_pointer_[i] : dims_[i];
 3918              		.loc 4 215 0
 3919 094c 020053E3 		cmp	r3, #2
 3920              	.LBE1306:
 3921              	.LBE1313:
 3922              	.LBB1314:
 3923              	.LBB1298:
 216:C:/Renesas/e2studio_2021_01_workspace_RZA2M_ANPR/ANPR_RZA2M_GR_MANGO/src/tensorflow_lite/tensorflow/lite/kernels/internal\types.h ****   }
 3924              		.loc 4 216 0
 3925 0950 1C208DE5 		str	r2, [sp, #28]
 3926              	.LVL461:
 3927              	.LBE1298:
 3928              	.LBE1314:
 3929              	.LBB1315:
 3930              	.LBB1307:
 215:C:/Renesas/e2studio_2021_01_workspace_RZA2M_ANPR/ANPR_RZA2M_GR_MANGO/src/tensorflow_lite/tensorflow/lite/kernels/internal\types.h ****     return size_ > kMaxSmallSize ? dims_pointer_[i] : dims_[i];
 3931              		.loc 4 215 0
 3932 0954 AE00000A 		beq	.L709
 216:C:/Renesas/e2studio_2021_01_workspace_RZA2M_ANPR/ANPR_RZA2M_GR_MANGO/src/tensorflow_lite/tensorflow/lite/kernels/internal\types.h ****   }
 3933              		.loc 4 216 0
 3934 0958 DC209DE5 		ldr	r2, [sp, #220]
 3935              	.LBE1307:
 3936              	.LBE1315:
 3937              	.LBB1316:
 3938              	.LBB1317:
 215:C:/Renesas/e2studio_2021_01_workspace_RZA2M_ANPR/ANPR_RZA2M_GR_MANGO/src/tensorflow_lite/tensorflow/lite/kernels/internal\types.h ****     return size_ > kMaxSmallSize ? dims_pointer_[i] : dims_[i];
 3939              		.loc 4 215 0
 3940 095c 030053E3 		cmp	r3, #3
 3941              	.LBE1317:
 3942              	.LBE1316:
 3943              	.LBB1322:
 3944              	.LBB1308:
 216:C:/Renesas/e2studio_2021_01_workspace_RZA2M_ANPR/ANPR_RZA2M_GR_MANGO/src/tensorflow_lite/tensorflow/lite/kernels/internal\types.h ****   }
 3945              		.loc 4 216 0
 3946 0960 14208DE5 		str	r2, [sp, #20]
 3947              	.LVL462:
 3948              	.LBE1308:
 3949              	.LBE1322:
 3950              	.LBB1323:
 3951              	.LBB1318:
 215:C:/Renesas/e2studio_2021_01_workspace_RZA2M_ANPR/ANPR_RZA2M_GR_MANGO/src/tensorflow_lite/tensorflow/lite/kernels/internal\types.h ****     return size_ > kMaxSmallSize ? dims_pointer_[i] : dims_[i];
 3952              		.loc 4 215 0
 3953 0964 A800000A 		beq	.L710
 3954              	.LBE1318:
 3955              	.LBE1323:
 3956              	.LBB1324:
 3957              	.LBB1325:
 3958 0968 040053E3 		cmp	r3, #4
 3959              	.LBE1325:
 3960              	.LBE1324:
 3961              	.LBB1330:
 3962              	.LBB1319:
 216:C:/Renesas/e2studio_2021_01_workspace_RZA2M_ANPR/ANPR_RZA2M_GR_MANGO/src/tensorflow_lite/tensorflow/lite/kernels/internal\types.h ****   }
 3963              		.loc 4 216 0
 3964 096c E0709DE5 		ldr	r7, [sp, #224]
 3965              	.LVL463:
 3966              	.LBE1319:
 3967              	.LBE1330:
 3968              	.LBB1331:
 3969              	.LBB1326:
 215:C:/Renesas/e2studio_2021_01_workspace_RZA2M_ANPR/ANPR_RZA2M_GR_MANGO/src/tensorflow_lite/tensorflow/lite/kernels/internal\types.h ****     return size_ > kMaxSmallSize ? dims_pointer_[i] : dims_[i];
 3970              		.loc 4 215 0
 3971 0970 A400000A 		beq	.L1483
 3972              	.LBE1326:
 3973              	.LBE1331:
  75:C:/Renesas/e2studio_2021_01_workspace_RZA2M_ANPR/ANPR_RZA2M_GR_MANGO/src/tensorflow_lite/tensorflow/lite/kernels/internal/reference\pad.h ****   const int left_p_padding = left_padding_copy[1];
 3974              		.loc 6 75 0
 3975 0974 60209DE5 		ldr	r2, [sp, #96]
 3976              	.LBB1332:
  91:C:/Renesas/e2studio_2021_01_workspace_RZA2M_ANPR/ANPR_RZA2M_GR_MANGO/src/tensorflow_lite/tensorflow/lite/kernels/internal/reference\pad.h ****     for (int out_p = 0; out_p < output_plane; ++out_p) {
 3977              		.loc 6 91 0
 3978 0978 38309DE5 		ldr	r3, [sp, #56]
 3979              	.LBE1332:
 3980              	.LBB1349:
 3981              	.LBB1327:
 216:C:/Renesas/e2studio_2021_01_workspace_RZA2M_ANPR/ANPR_RZA2M_GR_MANGO/src/tensorflow_lite/tensorflow/lite/kernels/internal\types.h ****   }
 3982              		.loc 4 216 0
 3983 097c E4909DE5 		ldr	r9, [sp, #228]
 3984              	.LVL464:
 3985              	.LBE1327:
 3986              	.LBE1349:
  75:C:/Renesas/e2studio_2021_01_workspace_RZA2M_ANPR/ANPR_RZA2M_GR_MANGO/src/tensorflow_lite/tensorflow/lite/kernels/internal/reference\pad.h ****   const int left_p_padding = left_padding_copy[1];
 3987              		.loc 6 75 0
 3988 0980 04208DE5 		str	r2, [sp, #4]
 3989              	.LVL465:
  76:C:/Renesas/e2studio_2021_01_workspace_RZA2M_ANPR/ANPR_RZA2M_GR_MANGO/src/tensorflow_lite/tensorflow/lite/kernels/internal/reference\pad.h ****   const int left_h_padding = left_padding_copy[2];
 3990              		.loc 6 76 0
 3991 0984 64209DE5 		ldr	r2, [sp, #100]
 3992              	.LVL466:
 3993              	.LBB1350:
  91:C:/Renesas/e2studio_2021_01_workspace_RZA2M_ANPR/ANPR_RZA2M_GR_MANGO/src/tensorflow_lite/tensorflow/lite/kernels/internal/reference\pad.h ****     for (int out_p = 0; out_p < output_plane; ++out_p) {
 3994              		.loc 6 91 0
 3995 0988 000053E3 		cmp	r3, #0
 3996              	.LBE1350:
  76:C:/Renesas/e2studio_2021_01_workspace_RZA2M_ANPR/ANPR_RZA2M_GR_MANGO/src/tensorflow_lite/tensorflow/lite/kernels/internal/reference\pad.h ****   const int left_h_padding = left_padding_copy[2];
 3997              		.loc 6 76 0
 3998 098c 44208DE5 		str	r2, [sp, #68]
 3999              	.LVL467:
  77:C:/Renesas/e2studio_2021_01_workspace_RZA2M_ANPR/ANPR_RZA2M_GR_MANGO/src/tensorflow_lite/tensorflow/lite/kernels/internal/reference\pad.h ****   const int left_w_padding = left_padding_copy[3];
 4000              		.loc 6 77 0
 4001 0990 68209DE5 		ldr	r2, [sp, #104]
 4002              	.LVL468:
 4003 0994 28208DE5 		str	r2, [sp, #40]
 4004              	.LVL469:
  78:C:/Renesas/e2studio_2021_01_workspace_RZA2M_ANPR/ANPR_RZA2M_GR_MANGO/src/tensorflow_lite/tensorflow/lite/kernels/internal/reference\pad.h ****   const int left_d_padding = left_padding_copy[4];
 4005              		.loc 6 78 0
 4006 0998 6C209DE5 		ldr	r2, [sp, #108]
 4007              	.LVL470:
 4008 099c 08208DE5 		str	r2, [sp, #8]
 4009              	.LVL471:
  79:C:/Renesas/e2studio_2021_01_workspace_RZA2M_ANPR/ANPR_RZA2M_GR_MANGO/src/tensorflow_lite/tensorflow/lite/kernels/internal/reference\pad.h **** 
 4010              		.loc 6 79 0
 4011 09a0 70209DE5 		ldr	r2, [sp, #112]
 4012              	.LVL472:
 4013 09a4 2C208DE5 		str	r2, [sp, #44]
 4014              	.LVL473:
  81:C:/Renesas/e2studio_2021_01_workspace_RZA2M_ANPR/ANPR_RZA2M_GR_MANGO/src/tensorflow_lite/tensorflow/lite/kernels/internal/reference\pad.h ****   const int right_p_padding = right_padding_copy[1];
 4015              		.loc 6 81 0
 4016 09a8 74209DE5 		ldr	r2, [sp, #116]
 4017              	.LVL474:
 4018 09ac 40208DE5 		str	r2, [sp, #64]
 4019              	.LVL475:
  82:C:/Renesas/e2studio_2021_01_workspace_RZA2M_ANPR/ANPR_RZA2M_GR_MANGO/src/tensorflow_lite/tensorflow/lite/kernels/internal/reference\pad.h ****   const int right_h_padding = right_padding_copy[2];
 4020              		.loc 6 82 0
 4021 09b0 78209DE5 		ldr	r2, [sp, #120]
 4022              	.LVL476:
 4023 09b4 20208DE5 		str	r2, [sp, #32]
 4024              	.LVL477:
  83:C:/Renesas/e2studio_2021_01_workspace_RZA2M_ANPR/ANPR_RZA2M_GR_MANGO/src/tensorflow_lite/tensorflow/lite/kernels/internal/reference\pad.h ****   const int right_w_padding = right_padding_copy[3];
 4025              		.loc 6 83 0
 4026 09b8 7C209DE5 		ldr	r2, [sp, #124]
 4027              	.LVL478:
 4028 09bc 24208DE5 		str	r2, [sp, #36]
 4029              	.LVL479:
  84:C:/Renesas/e2studio_2021_01_workspace_RZA2M_ANPR/ANPR_RZA2M_GR_MANGO/src/tensorflow_lite/tensorflow/lite/kernels/internal/reference\pad.h ****   const int right_d_padding = right_padding_copy[4];
 4030              		.loc 6 84 0
 4031 09c0 80209DE5 		ldr	r2, [sp, #128]
 4032              	.LVL480:
 4033 09c4 30208DE5 		str	r2, [sp, #48]
 4034              	.LVL481:
  85:C:/Renesas/e2studio_2021_01_workspace_RZA2M_ANPR/ANPR_RZA2M_GR_MANGO/src/tensorflow_lite/tensorflow/lite/kernels/internal/reference\pad.h **** 
 4035              		.loc 6 85 0
 4036 09c8 84209DE5 		ldr	r2, [sp, #132]
 4037              	.LVL482:
 4038              	.LBB1351:
  91:C:/Renesas/e2studio_2021_01_workspace_RZA2M_ANPR/ANPR_RZA2M_GR_MANGO/src/tensorflow_lite/tensorflow/lite/kernels/internal/reference\pad.h ****     for (int out_p = 0; out_p < output_plane; ++out_p) {
 4039              		.loc 6 91 0
 4040 09cc 07FFFFDA 		ble	.L609
 4041 09d0 48308DE5 		str	r3, [sp, #72]
 4042              	.L552:
 4043 09d4 1C309DE5 		ldr	r3, [sp, #28]
 4044 09d8 000053E3 		cmp	r3, #0
 4045 09dc 6F0000DA 		ble	.L555
 4046              	.LBB1333:
 4047              	.LBB1334:
 4048              	.LBB1335:
 4049              	.LBB1336:
 105:C:/Renesas/e2studio_2021_01_workspace_RZA2M_ANPR/ANPR_RZA2M_GR_MANGO/src/tensorflow_lite/tensorflow/lite/kernels/internal/reference\pad.h ****               *out_ptr++ = pad_value;
 4050              		.loc 6 105 0
 4051 09e0 023049E0 		sub	r3, r9, r2
 4052              	.LBE1336:
 4053              	.LBE1335:
 4054              	.LBE1334:
 4055              	.LBE1333:
  91:C:/Renesas/e2studio_2021_01_workspace_RZA2M_ANPR/ANPR_RZA2M_GR_MANGO/src/tensorflow_lite/tensorflow/lite/kernels/internal/reference\pad.h ****     for (int out_p = 0; out_p < output_plane; ++out_p) {
 4056              		.loc 6 91 0
 4057 09e4 00B0A0E3 		mov	fp, #0
 4058              	.LBB1346:
 4059              	.LBB1343:
 4060              	.LBB1340:
 4061              	.LBB1337:
 105:C:/Renesas/e2studio_2021_01_workspace_RZA2M_ANPR/ANPR_RZA2M_GR_MANGO/src/tensorflow_lite/tensorflow/lite/kernels/internal/reference\pad.h ****               *out_ptr++ = pad_value;
 4062              		.loc 6 105 0
 4063 09e8 4C308DE5 		str	r3, [sp, #76]
 4064              	.LBE1337:
 4065              	.LBE1340:
 4066              	.LBE1343:
 4067              	.LBE1346:
  91:C:/Renesas/e2studio_2021_01_workspace_RZA2M_ANPR/ANPR_RZA2M_GR_MANGO/src/tensorflow_lite/tensorflow/lite/kernels/internal/reference\pad.h ****     for (int out_p = 0; out_p < output_plane; ++out_p) {
 4068              		.loc 6 91 0
 4069 09ec 0430A0E1 		mov	r3, r4
 4070 09f0 0B40A0E1 		mov	r4, fp
 4071              	.LVL483:
 4072 09f4 03B0A0E1 		mov	fp, r3
 4073              	.LVL484:
 4074              	.L570:
 4075 09f8 0030A0E3 		mov	r3, #0
 4076 09fc 18308DE5 		str	r3, [sp, #24]
 4077              	.LVL485:
 4078              	.L569:
 4079              	.LBB1347:
 4080              	.LBB1344:
  93:C:/Renesas/e2studio_2021_01_workspace_RZA2M_ANPR/ANPR_RZA2M_GR_MANGO/src/tensorflow_lite/tensorflow/lite/kernels/internal/reference\pad.h ****         for (int out_w = 0; out_w < output_width; ++out_w) {
 4081              		.loc 6 93 0
 4082 0a00 14309DE5 		ldr	r3, [sp, #20]
 4083 0a04 000053E3 		cmp	r3, #0
 4084 0a08 5A0000DA 		ble	.L556
 4085              	.LBB1341:
 4086              	.LBB1338:
  97:C:/Renesas/e2studio_2021_01_workspace_RZA2M_ANPR/ANPR_RZA2M_GR_MANGO/src/tensorflow_lite/tensorflow/lite/kernels/internal/reference\pad.h ****                 out_p < left_p_padding ||
 4087              		.loc 6 97 0
 4088 0a0c 38309DE5 		ldr	r3, [sp, #56]
  96:C:/Renesas/e2studio_2021_01_workspace_RZA2M_ANPR/ANPR_RZA2M_GR_MANGO/src/tensorflow_lite/tensorflow/lite/kernels/internal/reference\pad.h ****                 out_b >= output_batch - right_b_padding ||
 4089              		.loc 6 96 0
 4090 0a10 0060A0E3 		mov	r6, #0
  97:C:/Renesas/e2studio_2021_01_workspace_RZA2M_ANPR/ANPR_RZA2M_GR_MANGO/src/tensorflow_lite/tensorflow/lite/kernels/internal/reference\pad.h ****                 out_p < left_p_padding ||
 4091              		.loc 6 97 0
 4092 0a14 40209DE5 		ldr	r2, [sp, #64]
 4093 0a18 44109DE5 		ldr	r1, [sp, #68]
 4094 0a1c 022043E0 		sub	r2, r3, r2
 4095 0a20 18309DE5 		ldr	r3, [sp, #24]
 4096 0a24 010053E1 		cmp	r3, r1
 4097 0a28 040052A1 		cmpge	r2, r4
 4098 0a2c 0130A0D3 		movle	r3, #1
 4099 0a30 0030A0C3 		movgt	r3, #0
 4100 0a34 0C308DE5 		str	r3, [sp, #12]
 4101 0a38 0B30A0E1 		mov	r3, fp
 4102 0a3c 04B0A0E1 		mov	fp, r4
 4103              	.LVL486:
 4104 0a40 0340A0E1 		mov	r4, r3
 4105              	.LVL487:
 4106              	.L568:
 4107              	.LBE1338:
  94:C:/Renesas/e2studio_2021_01_workspace_RZA2M_ANPR/ANPR_RZA2M_GR_MANGO/src/tensorflow_lite/tensorflow/lite/kernels/internal/reference\pad.h ****           for (int out_d = 0; out_d < output_depth; ++out_d) {
 4108              		.loc 6 94 0
 4109 0a44 000057E3 		cmp	r7, #0
 4110 0a48 430000DA 		ble	.L557
 4111              	.LBB1339:
  99:C:/Renesas/e2studio_2021_01_workspace_RZA2M_ANPR/ANPR_RZA2M_GR_MANGO/src/tensorflow_lite/tensorflow/lite/kernels/internal/reference\pad.h ****                 out_h < left_h_padding ||
 4112              		.loc 6 99 0
 4113 0a4c 1C309DE5 		ldr	r3, [sp, #28]
  98:C:/Renesas/e2studio_2021_01_workspace_RZA2M_ANPR/ANPR_RZA2M_GR_MANGO/src/tensorflow_lite/tensorflow/lite/kernels/internal/reference\pad.h ****                 out_p >= output_plane - right_p_padding ||
 4114              		.loc 6 98 0
 4115 0a50 0050A0E3 		mov	r5, #0
  99:C:/Renesas/e2studio_2021_01_workspace_RZA2M_ANPR/ANPR_RZA2M_GR_MANGO/src/tensorflow_lite/tensorflow/lite/kernels/internal/reference\pad.h ****                 out_h < left_h_padding ||
 4116              		.loc 6 99 0
 4117 0a54 20209DE5 		ldr	r2, [sp, #32]
 4118 0a58 022043E0 		sub	r2, r3, r2
 4119 0a5c 28309DE5 		ldr	r3, [sp, #40]
 4120 0a60 030056E1 		cmp	r6, r3
 4121 0a64 18309DE5 		ldr	r3, [sp, #24]
 4122 0a68 0010A0A3 		movge	r1, #0
 4123 0a6c 0110A0B3 		movlt	r1, #1
 4124 0a70 020053E1 		cmp	r3, r2
 4125 0a74 011081A3 		orrge	r1, r1, #1
 101:C:/Renesas/e2studio_2021_01_workspace_RZA2M_ANPR/ANPR_RZA2M_GR_MANGO/src/tensorflow_lite/tensorflow/lite/kernels/internal/reference\pad.h ****                 out_w < left_w_padding ||
 4126              		.loc 6 101 0
 4127 0a78 14309DE5 		ldr	r3, [sp, #20]
 4128 0a7c 24209DE5 		ldr	r2, [sp, #36]
 4129 0a80 10108DE5 		str	r1, [sp, #16]
 4130 0a84 028043E0 		sub	r8, r3, r2
 4131 0a88 0830A0E1 		mov	r3, r8
 4132 0a8c 0480A0E1 		mov	r8, r4
 4133 0a90 0340A0E1 		mov	r4, r3
 4134              	.LVL488:
 4135              	.L567:
  95:C:/Renesas/e2studio_2021_01_workspace_RZA2M_ANPR/ANPR_RZA2M_GR_MANGO/src/tensorflow_lite/tensorflow/lite/kernels/internal/reference\pad.h ****             if (out_b < left_b_padding ||
 4136              		.loc 6 95 0
 4137 0a94 000059E3 		cmp	r9, #0
 4138 0a98 2B0000DA 		ble	.L558
 4139 0a9c 08309DE5 		ldr	r3, [sp, #8]
 4140 0aa0 030055E1 		cmp	r5, r3
 4141 0aa4 060054A1 		cmpge	r4, r6
 4142 0aa8 04309DE5 		ldr	r3, [sp, #4]
 4143 0aac 0120A0D3 		movle	r2, #1
 4144 0ab0 0020A0C3 		movgt	r2, #0
 4145 0ab4 03005BE1 		cmp	fp, r3
 4146 0ab8 1E0000BA 		blt	.L559
 4147 0abc 0C309DE5 		ldr	r3, [sp, #12]
 4148 0ac0 000053E3 		cmp	r3, #0
 4149 0ac4 3C00001A 		bne	.L560
 4150 0ac8 000052E3 		cmp	r2, #0
 4151 0acc 10309DE5 		ldr	r3, [sp, #16]
 4152 0ad0 4200001A 		bne	.L561
 4153 0ad4 000053E3 		cmp	r3, #0
 4154 0ad8 3700001A 		bne	.L560
 100:C:/Renesas/e2studio_2021_01_workspace_RZA2M_ANPR/ANPR_RZA2M_GR_MANGO/src/tensorflow_lite/tensorflow/lite/kernels/internal/reference\pad.h ****                 out_h >= output_height - right_h_padding ||
 4155              		.loc 6 100 0
 4156 0adc 0320A0E1 		mov	r2, r3
 4157 0ae0 30309DE5 		ldr	r3, [sp, #48]
 4158 0ae4 011088E2 		add	r1, r8, #1
 4159 0ae8 2C009DE5 		ldr	r0, [sp, #44]
 4160 0aec 03C047E0 		sub	ip, r7, r3
 4161 0af0 0B0000EA 		b	.L564
 4162              	.LVL489:
 4163              	.L1485:
 104:C:/Renesas/e2studio_2021_01_workspace_RZA2M_ANPR/ANPR_RZA2M_GR_MANGO/src/tensorflow_lite/tensorflow/lite/kernels/internal/reference\pad.h ****                 out_d >= output_depth - right_d_padding) {
 4164              		.loc 6 104 0
 4165 0af4 4C309DE5 		ldr	r3, [sp, #76]
 4166 0af8 030052E1 		cmp	r2, r3
 4167 0afc 0B0000AA 		bge	.L751
 4168              	.LVL490:
 4169              		.loc 6 108 0
 4170 0b00 3CE09DE5 		ldr	lr, [sp, #60]
 4171 0b04 D030DEE1 		ldrsb	r3, [lr]
 4172 0b08 01E08EE2 		add	lr, lr, #1
 4173              	.LVL491:
 4174 0b0c 3CE08DE5 		str	lr, [sp, #60]
 4175              	.LVL492:
 4176              	.L563:
  95:C:/Renesas/e2studio_2021_01_workspace_RZA2M_ANPR/ANPR_RZA2M_GR_MANGO/src/tensorflow_lite/tensorflow/lite/kernels/internal/reference\pad.h ****             if (out_b < left_b_padding ||
 4177              		.loc 6 95 0
 4178 0b10 012082E2 		add	r2, r2, #1
 4179              	.LVL493:
 4180 0b14 013041E5 		strb	r3, [r1, #-1]
 4181              	.LVL494:
 4182 0b18 020059E1 		cmp	r9, r2
 4183 0b1c 011081E2 		add	r1, r1, #1
 4184 0b20 3300000A 		beq	.L1484
 4185              	.LVL495:
 4186              	.L564:
 103:C:/Renesas/e2studio_2021_01_workspace_RZA2M_ANPR/ANPR_RZA2M_GR_MANGO/src/tensorflow_lite/tensorflow/lite/kernels/internal/reference\pad.h ****                 out_d < left_d_padding ||
 4187              		.loc 6 103 0
 4188 0b24 020050E1 		cmp	r0, r2
 4189 0b28 0C0055D1 		cmple	r5, ip
 4190 0b2c F0FFFFBA 		blt	.L1485
 4191              	.L751:
 106:C:/Renesas/e2studio_2021_01_workspace_RZA2M_ANPR/ANPR_RZA2M_GR_MANGO/src/tensorflow_lite/tensorflow/lite/kernels/internal/reference\pad.h ****             } else {
 4192              		.loc 6 106 0
 4193 0b30 0A30A0E1 		mov	r3, r10
 4194 0b34 F5FFFFEA 		b	.L563
 4195              	.LVL496:
 4196              	.L559:
 4197 0b38 0800A0E1 		mov	r0, r8
 4198 0b3c 0920A0E1 		mov	r2, r9
 4199 0b40 098088E0 		add	r8, r8, r9
 4200              	.LVL497:
 4201 0b44 0A10A0E1 		mov	r1, r10
 4202              	.L1319:
 4203 0b48 FEFFFFEB 		bl	memset
 4204              	.LVL498:
 4205              	.L558:
 4206              	.LBE1339:
  94:C:/Renesas/e2studio_2021_01_workspace_RZA2M_ANPR/ANPR_RZA2M_GR_MANGO/src/tensorflow_lite/tensorflow/lite/kernels/internal/reference\pad.h ****           for (int out_d = 0; out_d < output_depth; ++out_d) {
 4207              		.loc 6 94 0
 4208 0b4c 015085E2 		add	r5, r5, #1
 4209              	.LVL499:
 4210 0b50 070055E1 		cmp	r5, r7
 4211 0b54 CEFFFF1A 		bne	.L567
 4212              	.LVL500:
 4213              	.L1486:
 4214 0b58 0840A0E1 		mov	r4, r8
 4215              	.LVL501:
 4216              	.L557:
 4217              	.LBE1341:
  93:C:/Renesas/e2studio_2021_01_workspace_RZA2M_ANPR/ANPR_RZA2M_GR_MANGO/src/tensorflow_lite/tensorflow/lite/kernels/internal/reference\pad.h ****         for (int out_w = 0; out_w < output_width; ++out_w) {
 4218              		.loc 6 93 0
 4219 0b5c 14309DE5 		ldr	r3, [sp, #20]
 4220 0b60 016086E2 		add	r6, r6, #1
 4221              	.LVL502:
 4222 0b64 030056E1 		cmp	r6, r3
 4223 0b68 B5FFFF1A 		bne	.L568
 4224 0b6c 0430A0E1 		mov	r3, r4
 4225 0b70 0B40A0E1 		mov	r4, fp
 4226              	.LVL503:
 4227 0b74 03B0A0E1 		mov	fp, r3
 4228              	.LVL504:
 4229              	.L556:
 4230              	.LBE1344:
  92:C:/Renesas/e2studio_2021_01_workspace_RZA2M_ANPR/ANPR_RZA2M_GR_MANGO/src/tensorflow_lite/tensorflow/lite/kernels/internal/reference\pad.h ****       for (int out_h = 0; out_h < output_height; ++out_h) {
 4231              		.loc 6 92 0
 4232 0b78 18309DE5 		ldr	r3, [sp, #24]
 4233 0b7c 1C209DE5 		ldr	r2, [sp, #28]
 4234 0b80 013083E2 		add	r3, r3, #1
 4235 0b84 020053E1 		cmp	r3, r2
 4236 0b88 18308DE5 		str	r3, [sp, #24]
 4237              	.LVL505:
 4238 0b8c 9BFFFF1A 		bne	.L569
 4239              	.LBE1347:
  91:C:/Renesas/e2studio_2021_01_workspace_RZA2M_ANPR/ANPR_RZA2M_GR_MANGO/src/tensorflow_lite/tensorflow/lite/kernels/internal/reference\pad.h ****     for (int out_p = 0; out_p < output_plane; ++out_p) {
 4240              		.loc 6 91 0
 4241 0b90 38309DE5 		ldr	r3, [sp, #56]
 4242              	.LVL506:
 4243 0b94 014084E2 		add	r4, r4, #1
 4244              	.LVL507:
 4245 0b98 030054E1 		cmp	r4, r3
 4246 0b9c 95FFFFBA 		blt	.L570
 4247              	.LVL508:
 4248              	.L555:
 4249              	.LBE1351:
 4250              	.LBB1352:
 4251              	.LBB1353:
 203:C:/Renesas/e2studio_2021_01_workspace_RZA2M_ANPR/ANPR_RZA2M_GR_MANGO/src/tensorflow_lite/tensorflow/lite/kernels/internal\types.h **** #ifdef TF_LITE_STATIC_MEMORY
 4252              		.loc 4 203 0
 4253 0ba0 34309DE5 		ldr	r3, [sp, #52]
 4254 0ba4 050053E3 		cmp	r3, #5
 4255 0ba8 90FEFF0A 		beq	.L609
 4256              	.LVL509:
 4257              	.L606:
 4258              	.LBE1353:
 4259              	.LBE1352:
 4260              	.LBE1372:
 4261              	.LBE1374:
 4262              	.LBE1376:
 4263              	.LBE2081:
 4264              	.LBB2082:
 4265              	.LBB2064:
 4266              	.LBB2054:
 4267              	.LBB2048:
 4268              	.LBB1905:
 4269              	.LBB1899:
 207:C:/Renesas/e2studio_2021_01_workspace_RZA2M_ANPR/ANPR_RZA2M_GR_MANGO/src/tensorflow_lite/tensorflow/lite/kernels/internal\types.h **** #endif  // TF_LITE_STATIC_MEMORY
 4270              		.loc 4 207 0
 4271 0bac 48309DE5 		ldr	r3, [sp, #72]
 4272 0bb0 000053E3 		cmp	r3, #0
 4273 0bb4 8BFEFF1A 		bne	.L1400
 4274 0bb8 8CFEFFEA 		b	.L609
 4275              	.LVL510:
 4276              	.L560:
 4277 0bbc 0800A0E1 		mov	r0, r8
 4278 0bc0 0920A0E1 		mov	r2, r9
 4279 0bc4 0A10A0E1 		mov	r1, r10
 4280              	.LBE1899:
 4281              	.LBE1905:
 4282              	.LBE2048:
 4283              	.LBE2054:
 4284              	.LBE2064:
 4285              	.LBE2082:
 4286              	.LBB2083:
 4287              	.LBB1377:
 4288              	.LBB1375:
 4289              	.LBB1373:
 4290              	.LBB1354:
 4291              	.LBB1348:
 4292              	.LBB1345:
 4293              	.LBB1342:
  94:C:/Renesas/e2studio_2021_01_workspace_RZA2M_ANPR/ANPR_RZA2M_GR_MANGO/src/tensorflow_lite/tensorflow/lite/kernels/internal/reference\pad.h ****           for (int out_d = 0; out_d < output_depth; ++out_d) {
 4294              		.loc 6 94 0
 4295 0bc8 015085E2 		add	r5, r5, #1
 4296              	.LVL511:
 4297 0bcc FEFFFFEB 		bl	memset
 4298              	.LVL512:
 4299 0bd0 070055E1 		cmp	r5, r7
 4300 0bd4 098088E0 		add	r8, r8, r9
 4301              	.LVL513:
 4302 0bd8 ADFFFF1A 		bne	.L567
 4303 0bdc DDFFFFEA 		b	.L1486
 4304              	.L561:
 4305 0be0 0800A0E1 		mov	r0, r8
 4306 0be4 0920A0E1 		mov	r2, r9
 4307 0be8 0A10A0E1 		mov	r1, r10
 4308 0bec 098088E0 		add	r8, r8, r9
 4309              	.LVL514:
 4310 0bf0 D4FFFFEA 		b	.L1319
 4311              	.LVL515:
 4312              	.L1484:
 4313 0bf4 015085E2 		add	r5, r5, #1
 4314              	.LVL516:
 4315 0bf8 098088E0 		add	r8, r8, r9
 4316              	.LVL517:
 4317 0bfc 070055E1 		cmp	r5, r7
 4318 0c00 A3FFFF1A 		bne	.L567
 4319 0c04 D3FFFFEA 		b	.L1486
 4320              	.LVL518:
 4321              	.L1483:
 4322              	.LEHB21:
 4323              	.LBE1342:
 4324              	.LBE1345:
 4325              	.LBE1348:
 4326              	.LBE1354:
 4327              	.LBB1355:
 4328              	.LBB1328:
 215:C:/Renesas/e2studio_2021_01_workspace_RZA2M_ANPR/ANPR_RZA2M_GR_MANGO/src/tensorflow_lite/tensorflow/lite/kernels/internal\types.h ****     return size_ > kMaxSmallSize ? dims_pointer_[i] : dims_[i];
 4329              		.loc 4 215 0
 4330 0c08 FEFFFFEB 		bl	abort
 4331              	.LVL519:
 4332              	.L710:
 4333              	.LBE1328:
 4334              	.LBE1355:
 4335              	.LBB1356:
 4336              	.LBB1320:
 4337 0c0c FEFFFFEB 		bl	abort
 4338              	.LVL520:
 4339              	.L789:
 4340 0c10 A3FDFFEA 		b	.L654
 4341              	.LVL521:
 4342              	.L709:
 4343              	.LBE1320:
 4344              	.LBE1356:
 4345              	.LBB1357:
 4346              	.LBB1309:
 4347 0c14 FEFFFFEB 		bl	abort
 4348              	.LVL522:
 4349              	.L1482:
 4350              	.LBE1309:
 4351              	.LBE1357:
 4352              	.LBB1358:
 4353              	.LBB1299:
 4354 0c18 FEFFFFEB 		bl	abort
 4355              	.LVL523:
 4356              	.LEHE21:
 4357              	.L541:
 4358              	.LEHB22:
 4359              	.LBE1299:
 4360              	.LBE1358:
  47:C:/Renesas/e2studio_2021_01_workspace_RZA2M_ANPR/ANPR_RZA2M_GR_MANGO/src/tensorflow_lite/tensorflow/lite/kernels/internal/reference\pad.h **** 
 4361              		.loc 6 47 0
 4362 0c1c FEFFFFEB 		bl	abort
 4363              	.LVL524:
 4364              	.LEHE22:
 4365              	.L1481:
  75:C:/Renesas/e2studio_2021_01_workspace_RZA2M_ANPR/ANPR_RZA2M_GR_MANGO/src/tensorflow_lite/tensorflow/lite/kernels/internal/reference\pad.h ****   const int left_p_padding = left_padding_copy[1];
 4366              		.loc 6 75 0
 4367 0c20 60309DE5 		ldr	r3, [sp, #96]
 4368              	.LBB1359:
 4369              	.LBB1290:
 216:C:/Renesas/e2studio_2021_01_workspace_RZA2M_ANPR/ANPR_RZA2M_GR_MANGO/src/tensorflow_lite/tensorflow/lite/kernels/internal\types.h ****   }
 4370              		.loc 4 216 0
 4371 0c24 D4209DE5 		ldr	r2, [sp, #212]
 4372              	.LBE1290:
 4373              	.LBE1359:
  75:C:/Renesas/e2studio_2021_01_workspace_RZA2M_ANPR/ANPR_RZA2M_GR_MANGO/src/tensorflow_lite/tensorflow/lite/kernels/internal/reference\pad.h ****   const int left_p_padding = left_padding_copy[1];
 4374              		.loc 6 75 0
 4375 0c28 04308DE5 		str	r3, [sp, #4]
  76:C:/Renesas/e2studio_2021_01_workspace_RZA2M_ANPR/ANPR_RZA2M_GR_MANGO/src/tensorflow_lite/tensorflow/lite/kernels/internal/reference\pad.h ****   const int left_h_padding = left_padding_copy[2];
 4376              		.loc 6 76 0
 4377 0c2c 64309DE5 		ldr	r3, [sp, #100]
 4378              	.LBB1360:
 4379              	.LBB1300:
 216:C:/Renesas/e2studio_2021_01_workspace_RZA2M_ANPR/ANPR_RZA2M_GR_MANGO/src/tensorflow_lite/tensorflow/lite/kernels/internal\types.h ****   }
 4380              		.loc 4 216 0
 4381 0c30 041092E5 		ldr	r1, [r2, #4]
 4382 0c34 48208DE5 		str	r2, [sp, #72]
 4383              	.LBE1300:
 4384              	.LBE1360:
  76:C:/Renesas/e2studio_2021_01_workspace_RZA2M_ANPR/ANPR_RZA2M_GR_MANGO/src/tensorflow_lite/tensorflow/lite/kernels/internal/reference\pad.h ****   const int left_h_padding = left_padding_copy[2];
 4385              		.loc 6 76 0
 4386 0c38 44308DE5 		str	r3, [sp, #68]
 4387              	.LBB1361:
 4388              	.LBB1291:
 216:C:/Renesas/e2studio_2021_01_workspace_RZA2M_ANPR/ANPR_RZA2M_GR_MANGO/src/tensorflow_lite/tensorflow/lite/kernels/internal\types.h ****   }
 4389              		.loc 4 216 0
 4390 0c3c 003092E5 		ldr	r3, [r2]
 4391              	.LBE1291:
 4392              	.LBE1361:
 4393              	.LBB1362:
 4394              	.LBB1329:
 4395 0c40 109092E5 		ldr	r9, [r2, #16]
 4396              	.LBE1329:
 4397              	.LBE1362:
 4398              	.LBB1363:
 4399              	.LBB1321:
 4400 0c44 0C7092E5 		ldr	r7, [r2, #12]
 4401              	.LBE1321:
 4402              	.LBE1363:
 4403              	.LBB1364:
 4404              	.LBB1292:
 4405 0c48 38308DE5 		str	r3, [sp, #56]
 4406              	.LVL525:
 4407              	.LBE1292:
 4408              	.LBE1364:
 4409              	.LBB1365:
  91:C:/Renesas/e2studio_2021_01_workspace_RZA2M_ANPR/ANPR_RZA2M_GR_MANGO/src/tensorflow_lite/tensorflow/lite/kernels/internal/reference\pad.h ****     for (int out_p = 0; out_p < output_plane; ++out_p) {
 4410              		.loc 6 91 0
 4411 0c4c 000053E3 		cmp	r3, #0
 4412              	.LBE1365:
 4413              	.LBB1366:
 4414              	.LBB1310:
 216:C:/Renesas/e2studio_2021_01_workspace_RZA2M_ANPR/ANPR_RZA2M_GR_MANGO/src/tensorflow_lite/tensorflow/lite/kernels/internal\types.h ****   }
 4415              		.loc 4 216 0
 4416 0c50 083092E5 		ldr	r3, [r2, #8]
 4417              	.LBE1310:
 4418              	.LBE1366:
 4419              	.LBB1367:
 4420              	.LBB1301:
 4421 0c54 1C108DE5 		str	r1, [sp, #28]
 4422              	.LVL526:
 4423              	.LBE1301:
 4424              	.LBE1367:
  85:C:/Renesas/e2studio_2021_01_workspace_RZA2M_ANPR/ANPR_RZA2M_GR_MANGO/src/tensorflow_lite/tensorflow/lite/kernels/internal/reference\pad.h **** 
 4425              		.loc 6 85 0
 4426 0c58 84209DE5 		ldr	r2, [sp, #132]
 4427              	.LBB1368:
 4428              	.LBB1311:
 216:C:/Renesas/e2studio_2021_01_workspace_RZA2M_ANPR/ANPR_RZA2M_GR_MANGO/src/tensorflow_lite/tensorflow/lite/kernels/internal\types.h ****   }
 4429              		.loc 4 216 0
 4430 0c5c 14308DE5 		str	r3, [sp, #20]
 4431              	.LVL527:
 4432              	.LBE1311:
 4433              	.LBE1368:
  77:C:/Renesas/e2studio_2021_01_workspace_RZA2M_ANPR/ANPR_RZA2M_GR_MANGO/src/tensorflow_lite/tensorflow/lite/kernels/internal/reference\pad.h ****   const int left_w_padding = left_padding_copy[3];
 4434              		.loc 6 77 0
 4435 0c60 68309DE5 		ldr	r3, [sp, #104]
 4436 0c64 28308DE5 		str	r3, [sp, #40]
 4437              	.LVL528:
  78:C:/Renesas/e2studio_2021_01_workspace_RZA2M_ANPR/ANPR_RZA2M_GR_MANGO/src/tensorflow_lite/tensorflow/lite/kernels/internal/reference\pad.h ****   const int left_d_padding = left_padding_copy[4];
 4438              		.loc 6 78 0
 4439 0c68 6C309DE5 		ldr	r3, [sp, #108]
 4440              	.LVL529:
 4441 0c6c 08308DE5 		str	r3, [sp, #8]
 4442              	.LVL530:
  79:C:/Renesas/e2studio_2021_01_workspace_RZA2M_ANPR/ANPR_RZA2M_GR_MANGO/src/tensorflow_lite/tensorflow/lite/kernels/internal/reference\pad.h **** 
 4443              		.loc 6 79 0
 4444 0c70 70309DE5 		ldr	r3, [sp, #112]
 4445              	.LVL531:
 4446 0c74 2C308DE5 		str	r3, [sp, #44]
 4447              	.LVL532:
  81:C:/Renesas/e2studio_2021_01_workspace_RZA2M_ANPR/ANPR_RZA2M_GR_MANGO/src/tensorflow_lite/tensorflow/lite/kernels/internal/reference\pad.h ****   const int right_p_padding = right_padding_copy[1];
 4448              		.loc 6 81 0
 4449 0c78 74309DE5 		ldr	r3, [sp, #116]
 4450              	.LVL533:
 4451 0c7c 40308DE5 		str	r3, [sp, #64]
 4452              	.LVL534:
  82:C:/Renesas/e2studio_2021_01_workspace_RZA2M_ANPR/ANPR_RZA2M_GR_MANGO/src/tensorflow_lite/tensorflow/lite/kernels/internal/reference\pad.h ****   const int right_h_padding = right_padding_copy[2];
 4453              		.loc 6 82 0
 4454 0c80 78309DE5 		ldr	r3, [sp, #120]
 4455              	.LVL535:
 4456 0c84 20308DE5 		str	r3, [sp, #32]
 4457              	.LVL536:
  83:C:/Renesas/e2studio_2021_01_workspace_RZA2M_ANPR/ANPR_RZA2M_GR_MANGO/src/tensorflow_lite/tensorflow/lite/kernels/internal/reference\pad.h ****   const int right_w_padding = right_padding_copy[3];
 4458              		.loc 6 83 0
 4459 0c88 7C309DE5 		ldr	r3, [sp, #124]
 4460              	.LVL537:
 4461 0c8c 24308DE5 		str	r3, [sp, #36]
 4462              	.LVL538:
  84:C:/Renesas/e2studio_2021_01_workspace_RZA2M_ANPR/ANPR_RZA2M_GR_MANGO/src/tensorflow_lite/tensorflow/lite/kernels/internal/reference\pad.h ****   const int right_d_padding = right_padding_copy[4];
 4463              		.loc 6 84 0
 4464 0c90 80309DE5 		ldr	r3, [sp, #128]
 4465              	.LVL539:
 4466 0c94 30308DE5 		str	r3, [sp, #48]
 4467              	.LVL540:
 4468              	.LBB1369:
  91:C:/Renesas/e2studio_2021_01_workspace_RZA2M_ANPR/ANPR_RZA2M_GR_MANGO/src/tensorflow_lite/tensorflow/lite/kernels/internal/reference\pad.h ****     for (int out_p = 0; out_p < output_plane; ++out_p) {
 4469              		.loc 6 91 0
 4470 0c98 4DFFFFCA 		bgt	.L552
 4471 0c9c C2FFFFEA 		b	.L606
 4472              	.LVL541:
 4473              	.L1480:
 4474              	.LEHB23:
 4475              	.LBE1369:
 4476              	.LBB1370:
 4477              	.LBB1293:
 215:C:/Renesas/e2studio_2021_01_workspace_RZA2M_ANPR/ANPR_RZA2M_GR_MANGO/src/tensorflow_lite/tensorflow/lite/kernels/internal\types.h ****     return size_ > kMaxSmallSize ? dims_pointer_[i] : dims_[i];
 4478              		.loc 4 215 0
 4479 0ca0 FEFFFFEB 		bl	abort
 4480              	.LVL542:
 4481              	.LEHE23:
 4482              	.L803:
 4483 0ca4 80FEFFEA 		b	.L1322
 4484              	.LVL543:
 4485              	.L1479:
 4486              	.LEHB24:
 4487              	.LBE1293:
 4488              	.LBE1370:
  46:C:/Renesas/e2studio_2021_01_workspace_RZA2M_ANPR/ANPR_RZA2M_GR_MANGO/src/tensorflow_lite/tensorflow/lite/kernels/internal/reference\pad.h ****   TFLITE_DCHECK_LE(op_params.right_padding_count, PadKernelMaxDimensionCount());
 4489              		.loc 6 46 0
 4490 0ca8 FEFFFFEB 		bl	abort
 4491              	.LVL544:
 4492              	.LEHE24:
 4493              	.L1478:
 4494              	.LEHB25:
 4495              	.LBB1371:
 4496              	.LBB1278:
 4497              	.LBB1276:
 4498              	.LBB1274:
 4499              	.LBB1272:
 308:C:/Renesas/e2studio_2021_01_workspace_RZA2M_ANPR/ANPR_RZA2M_GR_MANGO/src/tensorflow_lite/tensorflow/lite/kernels/internal\types.h ****     Resize(new_shape_size);
 4500              		.loc 4 308 0
 4501 0cac FEFFFFEB 		bl	abort
 4502              	.LVL545:
 4503              	.LEHE25:
 4504              	.L802:
 4505 0cb0 7DFEFFEA 		b	.L1322
 4506              	.LVL546:
 4507              	.L774:
 4508 0cb4 51FDFFEA 		b	.L677
 4509              	.LVL547:
 4510              	.L1464:
 4511              	.LBE1272:
 4512              	.LBE1274:
 4513              	.LBE1276:
 4514              	.LBE1278:
 4515              	.LBE1371:
 4516              	.LBE1373:
 4517              	.LBE1375:
 4518              	.LBE1377:
 196:../src/tensorflow_lite/tensorflow/lite/micro/kernels/pad.cc ****             tflite::micro::GetTensorData<int8_t>(input), &pad_value,
 4519              		.loc 1 196 0
 4520 0cb8 0710A0E1 		mov	r1, r7
 4521 0cbc 88008DE2 		add	r0, sp, #136
 4522              	.LEHB26:
 4523 0cc0 FEFFFFEB 		bl	_ZN6tflite5micro14GetTensorShapeEPK16TfLiteEvalTensor
 4524              	.LVL548:
 4525              	.LEHE26:
 4526              	.LBB1378:
 4527              	.LBB1379:
 4528              		.loc 5 63 0
 4529 0cc4 003097E5 		ldr	r3, [r7]
 4530              	.LBE1379:
 4531              	.LBE1378:
 198:../src/tensorflow_lite/tensorflow/lite/micro/kernels/pad.cc ****             tflite::micro::GetTensorData<int8_t>(output));
 4532              		.loc 1 198 0
 4533 0cc8 0910A0E1 		mov	r1, r9
 4534 0ccc A0008DE2 		add	r0, sp, #160
 4535              	.LBB1381:
 4536              	.LBB1380:
 4537              		.loc 5 63 0
 4538 0cd0 48308DE5 		str	r3, [sp, #72]
 4539              	.LEHB27:
 4540              	.LBE1380:
 4541              	.LBE1381:
 198:../src/tensorflow_lite/tensorflow/lite/micro/kernels/pad.cc ****             tflite::micro::GetTensorData<int8_t>(output));
 4542              		.loc 1 198 0
 4543 0cd4 FEFFFFEB 		bl	_ZN6tflite5micro14GetTensorShapeEPK16TfLiteEvalTensor
 4544              	.LVL549:
 4545              	.LEHE27:
 4546 0cd8 88209DE5 		ldr	r2, [sp, #136]
 4547              	.LBB1382:
 4548              	.LBB1383:
  56:C:/Renesas/e2studio_2021_01_workspace_RZA2M_ANPR/ANPR_RZA2M_GR_MANGO/src/tensorflow_lite/tensorflow/lite/micro/kernels\kernel_util.h **** }
 4549              		.loc 5 56 0
 4550 0cdc 000059E3 		cmp	r9, #0
 4551 0ce0 00609915 		ldrne	r6, [r9]
 4552              	.LVL550:
 4553 0ce4 0960A001 		moveq	r6, r9
 4554              	.LVL551:
 4555              	.LBE1383:
 4556              	.LBE1382:
 4557              	.LBB1384:
 4558              	.LBB1385:
 4559              	.LBB1386:
 4560              	.LBB1387:
 4561              	.LBB1388:
 4562              	.LBB1389:
 4563              	.LBB1390:
 4564              	.LBB1391:
 305:C:/Renesas/e2studio_2021_01_workspace_RZA2M_ANPR/ANPR_RZA2M_GR_MANGO/src/tensorflow_lite/tensorflow/lite/kernels/internal\types.h ****     // If the following check fails, it is likely because a 4D-only kernel is
 4565              		.loc 4 305 0
 4566 0ce8 0030A0E3 		mov	r3, #0
 4567              	.LBB1392:
 308:C:/Renesas/e2studio_2021_01_workspace_RZA2M_ANPR/ANPR_RZA2M_GR_MANGO/src/tensorflow_lite/tensorflow/lite/kernels/internal\types.h ****     Resize(new_shape_size);
 4568              		.loc 4 308 0
 4569 0cec 050052E3 		cmp	r2, #5
 4570              	.LBE1392:
 305:C:/Renesas/e2studio_2021_01_workspace_RZA2M_ANPR/ANPR_RZA2M_GR_MANGO/src/tensorflow_lite/tensorflow/lite/kernels/internal\types.h ****     // If the following check fails, it is likely because a 4D-only kernel is
 4571              		.loc 4 305 0
 4572 0cf0 B8308DE5 		str	r3, [sp, #184]
 4573              	.LBB1409:
 308:C:/Renesas/e2studio_2021_01_workspace_RZA2M_ANPR/ANPR_RZA2M_GR_MANGO/src/tensorflow_lite/tensorflow/lite/kernels/internal\types.h ****     Resize(new_shape_size);
 4574              		.loc 4 308 0
 4575 0cf4 3A0700CA 		bgt	.L1487
 4576              	.LVL552:
 4577              	.LBB1393:
 311:C:/Renesas/e2studio_2021_01_workspace_RZA2M_ANPR/ANPR_RZA2M_GR_MANGO/src/tensorflow_lite/tensorflow/lite/kernels/internal\types.h ****       SetDim(i, pad_value);
 4578              		.loc 4 311 0
 4579 0cf8 050072E2 		rsbs	r0, r2, #5
 4580              	.LBE1393:
 4581              	.LBB1406:
 4582              	.LBB1407:
 245:C:/Renesas/e2studio_2021_01_workspace_RZA2M_ANPR/ANPR_RZA2M_GR_MANGO/src/tensorflow_lite/tensorflow/lite/kernels/internal\types.h ****     if (dimensions_count > kMaxSmallSize) {
 4583              		.loc 4 245 0
 4584 0cfc 0530A0E3 		mov	r3, #5
 4585 0d00 B8308DE5 		str	r3, [sp, #184]
 4586              	.LVL553:
 4587              	.LBE1407:
 4588              	.LBE1406:
 4589              	.LBB1408:
 311:C:/Renesas/e2studio_2021_01_workspace_RZA2M_ANPR/ANPR_RZA2M_GR_MANGO/src/tensorflow_lite/tensorflow/lite/kernels/internal\types.h ****       SetDim(i, pad_value);
 4590              		.loc 4 311 0
 4591 0d04 1707000A 		beq	.L480
 4592              	.LVL554:
 4593 0d08 010050E3 		cmp	r0, #1
 4594              	.LBB1394:
 4595              	.LBB1395:
 224:C:/Renesas/e2studio_2021_01_workspace_RZA2M_ANPR/ANPR_RZA2M_GR_MANGO/src/tensorflow_lite/tensorflow/lite/kernels/internal\types.h ****     }
 4596              		.loc 4 224 0
 4597 0d0c 0130A0E3 		mov	r3, #1
 4598 0d10 BC308DE5 		str	r3, [sp, #188]
 4599              	.LVL555:
 4600              	.LBE1395:
 4601              	.LBE1394:
 311:C:/Renesas/e2studio_2021_01_workspace_RZA2M_ANPR/ANPR_RZA2M_GR_MANGO/src/tensorflow_lite/tensorflow/lite/kernels/internal\types.h ****       SetDim(i, pad_value);
 4602              		.loc 4 311 0
 4603 0d14 1307000A 		beq	.L480
 4604              	.LVL556:
 4605 0d18 020050E3 		cmp	r0, #2
 4606              	.LBB1401:
 4607              	.LBB1396:
 224:C:/Renesas/e2studio_2021_01_workspace_RZA2M_ANPR/ANPR_RZA2M_GR_MANGO/src/tensorflow_lite/tensorflow/lite/kernels/internal\types.h ****     }
 4608              		.loc 4 224 0
 4609 0d1c C0308DE5 		str	r3, [sp, #192]
 4610              	.LVL557:
 4611              	.LBE1396:
 4612              	.LBE1401:
 311:C:/Renesas/e2studio_2021_01_workspace_RZA2M_ANPR/ANPR_RZA2M_GR_MANGO/src/tensorflow_lite/tensorflow/lite/kernels/internal\types.h ****       SetDim(i, pad_value);
 4613              		.loc 4 311 0
 4614 0d20 1007000A 		beq	.L480
 4615              	.LVL558:
 4616 0d24 030050E3 		cmp	r0, #3
 4617              	.LBB1402:
 4618              	.LBB1397:
 224:C:/Renesas/e2studio_2021_01_workspace_RZA2M_ANPR/ANPR_RZA2M_GR_MANGO/src/tensorflow_lite/tensorflow/lite/kernels/internal\types.h ****     }
 4619              		.loc 4 224 0
 4620 0d28 C4308DE5 		str	r3, [sp, #196]
 4621              	.LVL559:
 4622              	.LBE1397:
 4623              	.LBE1402:
 311:C:/Renesas/e2studio_2021_01_workspace_RZA2M_ANPR/ANPR_RZA2M_GR_MANGO/src/tensorflow_lite/tensorflow/lite/kernels/internal\types.h ****       SetDim(i, pad_value);
 4624              		.loc 4 311 0
 4625 0d2c 0D07000A 		beq	.L480
 4626              	.LVL560:
 4627 0d30 040050E3 		cmp	r0, #4
 4628              	.LBB1403:
 4629              	.LBB1398:
 224:C:/Renesas/e2studio_2021_01_workspace_RZA2M_ANPR/ANPR_RZA2M_GR_MANGO/src/tensorflow_lite/tensorflow/lite/kernels/internal\types.h ****     }
 4630              		.loc 4 224 0
 4631 0d34 C8308DE5 		str	r3, [sp, #200]
 4632              	.LVL561:
 4633              	.LBE1398:
 4634              	.LBE1403:
 311:C:/Renesas/e2studio_2021_01_workspace_RZA2M_ANPR/ANPR_RZA2M_GR_MANGO/src/tensorflow_lite/tensorflow/lite/kernels/internal\types.h ****       SetDim(i, pad_value);
 4635              		.loc 4 311 0
 4636 0d38 0A07000A 		beq	.L480
 4637              	.LVL562:
 4638 0d3c 050050E3 		cmp	r0, #5
 4639              	.LBB1404:
 4640              	.LBB1399:
 224:C:/Renesas/e2studio_2021_01_workspace_RZA2M_ANPR/ANPR_RZA2M_GR_MANGO/src/tensorflow_lite/tensorflow/lite/kernels/internal\types.h ****     }
 4641              		.loc 4 224 0
 4642 0d40 CC308DE5 		str	r3, [sp, #204]
 4643              	.LVL563:
 4644              	.LBE1399:
 4645              	.LBE1404:
 311:C:/Renesas/e2studio_2021_01_workspace_RZA2M_ANPR/ANPR_RZA2M_GR_MANGO/src/tensorflow_lite/tensorflow/lite/kernels/internal\types.h ****       SetDim(i, pad_value);
 4646              		.loc 4 311 0
 4647 0d44 0707000A 		beq	.L480
 4648              	.LVL564:
 4649              	.LEHB28:
 4650              	.LBB1405:
 4651              	.LBB1400:
 220:C:/Renesas/e2studio_2021_01_workspace_RZA2M_ANPR/ANPR_RZA2M_GR_MANGO/src/tensorflow_lite/tensorflow/lite/kernels/internal\types.h ****     if (size_ > kMaxSmallSize) {
 4652              		.loc 4 220 0
 4653 0d48 FEFFFFEB 		bl	abort
 4654              	.LVL565:
 4655              	.LEHE28:
 4656              	.L763:
 4657              	.LBE1400:
 4658              	.LBE1405:
 4659              	.LBE1408:
 4660              	.LBE1409:
 4661              	.LBE1391:
 4662              	.LBE1390:
 4663              	.LBE1389:
 4664              	.LBE1388:
 4665              	.LBE1387:
 4666              	.LBE1386:
 4667              	.LBE1385:
 4668              	.LBE1384:
 4669              	.LBE2083:
 4670              	.LBB2084:
 210:../src/tensorflow_lite/tensorflow/lite/micro/kernels/pad.cc ****               : *tflite::micro::GetTensorData<int32_t>(constant_values);
 4671              		.loc 1 210 0
 4672 0d4c 0040A0E3 		mov	r4, #0
 4673              	.LVL566:
 4674              	.L583:
 212:../src/tensorflow_lite/tensorflow/lite/micro/kernels/pad.cc ****                          tflite::micro::GetTensorData<int32_t>(input),
 4675              		.loc 1 212 0
 4676 0d50 0710A0E1 		mov	r1, r7
 4677 0d54 88008DE2 		add	r0, sp, #136
 4678              	.LEHB29:
 4679 0d58 FEFFFFEB 		bl	_ZN6tflite5micro14GetTensorShapeEPK16TfLiteEvalTensor
 4680              	.LVL567:
 4681              	.LEHE29:
 4682              	.LBB2065:
 4683              	.LBB2066:
 4684              		.loc 5 63 0
 4685 0d5c 003097E5 		ldr	r3, [r7]
 4686              	.LBE2066:
 4687              	.LBE2065:
 214:../src/tensorflow_lite/tensorflow/lite/micro/kernels/pad.cc ****                          tflite::micro::GetTensorData<int32_t>(output));
 4688              		.loc 1 214 0
 4689 0d60 0910A0E1 		mov	r1, r9
 4690 0d64 A0008DE2 		add	r0, sp, #160
 4691              	.LBB2068:
 4692              	.LBB2067:
 4693              		.loc 5 63 0
 4694 0d68 54308DE5 		str	r3, [sp, #84]
 4695              	.LEHB30:
 4696              	.LBE2067:
 4697              	.LBE2068:
 214:../src/tensorflow_lite/tensorflow/lite/micro/kernels/pad.cc ****                          tflite::micro::GetTensorData<int32_t>(output));
 4698              		.loc 1 214 0
 4699 0d6c FEFFFFEB 		bl	_ZN6tflite5micro14GetTensorShapeEPK16TfLiteEvalTensor
 4700              	.LVL568:
 4701              	.LEHE30:
 4702 0d70 88209DE5 		ldr	r2, [sp, #136]
 4703              	.LBB2069:
 4704              	.LBB2070:
  56:C:/Renesas/e2studio_2021_01_workspace_RZA2M_ANPR/ANPR_RZA2M_GR_MANGO/src/tensorflow_lite/tensorflow/lite/micro/kernels\kernel_util.h **** }
 4705              		.loc 5 56 0
 4706 0d74 000059E3 		cmp	r9, #0
 4707 0d78 00909915 		ldrne	r9, [r9]
 4708              	.LVL569:
 4709              	.LBE2070:
 4710              	.LBE2069:
 4711              	.LBB2071:
 4712              	.LBB2055:
 4713              	.LBB2049:
 4714              	.LBB1906:
 4715              	.LBB1907:
 4716              	.LBB1908:
 4717              	.LBB1909:
 305:C:/Renesas/e2studio_2021_01_workspace_RZA2M_ANPR/ANPR_RZA2M_GR_MANGO/src/tensorflow_lite/tensorflow/lite/kernels/internal\types.h ****     // If the following check fails, it is likely because a 4D-only kernel is
 4718              		.loc 4 305 0
 4719 0d7c 0030A0E3 		mov	r3, #0
 4720 0d80 B8308DE5 		str	r3, [sp, #184]
 4721              	.LBB1910:
 308:C:/Renesas/e2studio_2021_01_workspace_RZA2M_ANPR/ANPR_RZA2M_GR_MANGO/src/tensorflow_lite/tensorflow/lite/kernels/internal\types.h ****     Resize(new_shape_size);
 4722              		.loc 4 308 0
 4723 0d84 050052E3 		cmp	r2, #5
 4724 0d88 ED0300CA 		bgt	.L1488
 4725              	.LVL570:
 4726              	.LBB1911:
 311:C:/Renesas/e2studio_2021_01_workspace_RZA2M_ANPR/ANPR_RZA2M_GR_MANGO/src/tensorflow_lite/tensorflow/lite/kernels/internal\types.h ****       SetDim(i, pad_value);
 4727              		.loc 4 311 0
 4728 0d8c 050072E2 		rsbs	r0, r2, #5
 4729              	.LBE1911:
 4730              	.LBB1924:
 4731              	.LBB1925:
 245:C:/Renesas/e2studio_2021_01_workspace_RZA2M_ANPR/ANPR_RZA2M_GR_MANGO/src/tensorflow_lite/tensorflow/lite/kernels/internal\types.h ****     if (dimensions_count > kMaxSmallSize) {
 4732              		.loc 4 245 0
 4733 0d90 0530A0E3 		mov	r3, #5
 4734 0d94 B8308DE5 		str	r3, [sp, #184]
 4735              	.LVL571:
 4736              	.LBE1925:
 4737              	.LBE1924:
 4738              	.LBB1926:
 311:C:/Renesas/e2studio_2021_01_workspace_RZA2M_ANPR/ANPR_RZA2M_GR_MANGO/src/tensorflow_lite/tensorflow/lite/kernels/internal\types.h ****       SetDim(i, pad_value);
 4739              		.loc 4 311 0
 4740 0d98 3900000A 		beq	.L589
 4741              	.LVL572:
 4742 0d9c 010050E3 		cmp	r0, #1
 4743              	.LBB1912:
 4744              	.LBB1913:
 224:C:/Renesas/e2studio_2021_01_workspace_RZA2M_ANPR/ANPR_RZA2M_GR_MANGO/src/tensorflow_lite/tensorflow/lite/kernels/internal\types.h ****     }
 4745              		.loc 4 224 0
 4746 0da0 0130A0E3 		mov	r3, #1
 4747 0da4 BC308DE5 		str	r3, [sp, #188]
 4748              	.LVL573:
 4749              	.LBE1913:
 4750              	.LBE1912:
 311:C:/Renesas/e2studio_2021_01_workspace_RZA2M_ANPR/ANPR_RZA2M_GR_MANGO/src/tensorflow_lite/tensorflow/lite/kernels/internal\types.h ****       SetDim(i, pad_value);
 4751              		.loc 4 311 0
 4752 0da8 3500000A 		beq	.L589
 4753              	.LVL574:
 4754 0dac 020050E3 		cmp	r0, #2
 4755              	.LBB1919:
 4756              	.LBB1914:
 224:C:/Renesas/e2studio_2021_01_workspace_RZA2M_ANPR/ANPR_RZA2M_GR_MANGO/src/tensorflow_lite/tensorflow/lite/kernels/internal\types.h ****     }
 4757              		.loc 4 224 0
 4758 0db0 C0308DE5 		str	r3, [sp, #192]
 4759              	.LVL575:
 4760              	.LBE1914:
 4761              	.LBE1919:
 311:C:/Renesas/e2studio_2021_01_workspace_RZA2M_ANPR/ANPR_RZA2M_GR_MANGO/src/tensorflow_lite/tensorflow/lite/kernels/internal\types.h ****       SetDim(i, pad_value);
 4762              		.loc 4 311 0
 4763 0db4 3200000A 		beq	.L589
 4764              	.LVL576:
 4765 0db8 030050E3 		cmp	r0, #3
 4766              	.LBB1920:
 4767              	.LBB1915:
 224:C:/Renesas/e2studio_2021_01_workspace_RZA2M_ANPR/ANPR_RZA2M_GR_MANGO/src/tensorflow_lite/tensorflow/lite/kernels/internal\types.h ****     }
 4768              		.loc 4 224 0
 4769 0dbc C4308DE5 		str	r3, [sp, #196]
 4770              	.LVL577:
 4771              	.LBE1915:
 4772              	.LBE1920:
 311:C:/Renesas/e2studio_2021_01_workspace_RZA2M_ANPR/ANPR_RZA2M_GR_MANGO/src/tensorflow_lite/tensorflow/lite/kernels/internal\types.h ****       SetDim(i, pad_value);
 4773              		.loc 4 311 0
 4774 0dc0 2F00000A 		beq	.L589
 4775              	.LVL578:
 4776 0dc4 040050E3 		cmp	r0, #4
 4777              	.LBB1921:
 4778              	.LBB1916:
 224:C:/Renesas/e2studio_2021_01_workspace_RZA2M_ANPR/ANPR_RZA2M_GR_MANGO/src/tensorflow_lite/tensorflow/lite/kernels/internal\types.h ****     }
 4779              		.loc 4 224 0
 4780 0dc8 C8308DE5 		str	r3, [sp, #200]
 4781              	.LVL579:
 4782              	.LBE1916:
 4783              	.LBE1921:
 311:C:/Renesas/e2studio_2021_01_workspace_RZA2M_ANPR/ANPR_RZA2M_GR_MANGO/src/tensorflow_lite/tensorflow/lite/kernels/internal\types.h ****       SetDim(i, pad_value);
 4784              		.loc 4 311 0
 4785 0dcc 2C00000A 		beq	.L589
 4786              	.LVL580:
 4787 0dd0 050050E3 		cmp	r0, #5
 4788              	.LBB1922:
 4789              	.LBB1917:
 224:C:/Renesas/e2studio_2021_01_workspace_RZA2M_ANPR/ANPR_RZA2M_GR_MANGO/src/tensorflow_lite/tensorflow/lite/kernels/internal\types.h ****     }
 4790              		.loc 4 224 0
 4791 0dd4 CC308DE5 		str	r3, [sp, #204]
 4792              	.LVL581:
 4793              	.LBE1917:
 4794              	.LBE1922:
 311:C:/Renesas/e2studio_2021_01_workspace_RZA2M_ANPR/ANPR_RZA2M_GR_MANGO/src/tensorflow_lite/tensorflow/lite/kernels/internal\types.h ****       SetDim(i, pad_value);
 4795              		.loc 4 311 0
 4796 0dd8 2900000A 		beq	.L589
 4797              	.LVL582:
 4798              	.LEHB31:
 4799              	.LBB1923:
 4800              	.LBB1918:
 220:C:/Renesas/e2studio_2021_01_workspace_RZA2M_ANPR/ANPR_RZA2M_GR_MANGO/src/tensorflow_lite/tensorflow/lite/kernels/internal\types.h ****     if (size_ > kMaxSmallSize) {
 4801              		.loc 4 220 0
 4802 0ddc FEFFFFEB 		bl	abort
 4803              	.LVL583:
 4804              	.LEHE31:
 4805              	.L762:
 4806              	.LBE1918:
 4807              	.LBE1923:
 4808              	.LBE1926:
 4809              	.LBE1910:
 4810              	.LBE1909:
 4811              	.LBE1908:
 4812              	.LBE1907:
 4813              	.LBE1906:
 4814              	.LBE2049:
 4815              	.LBE2055:
 4816              	.LBE2071:
 4817              	.LBE2084:
 4818              	.LBB2085:
 152:../src/tensorflow_lite/tensorflow/lite/micro/kernels/pad.cc ****               : *tflite::micro::GetTensorData<float>(constant_values);
 4819              		.loc 1 152 0
 4820 0de0 0040A0E3 		mov	r4, #0
 4821              	.L211:
 4822              	.LVL584:
 154:../src/tensorflow_lite/tensorflow/lite/micro/kernels/pad.cc ****         reference_ops::PadImageStyle(
 4823              		.loc 1 154 0
 4824 0de4 3030D5E5 		ldrb	r3, [r5, #48]	@ zero_extendqisi2
 4825 0de8 010053E3 		cmp	r3, #1
 4826 0dec B003000A 		beq	.L1489
 161:../src/tensorflow_lite/tensorflow/lite/micro/kernels/pad.cc ****                            tflite::micro::GetTensorData<float>(input),
 4827              		.loc 1 161 0
 4828 0df0 0710A0E1 		mov	r1, r7
 4829 0df4 88008DE2 		add	r0, sp, #136
 4830              	.LEHB32:
 4831 0df8 FEFFFFEB 		bl	_ZN6tflite5micro14GetTensorShapeEPK16TfLiteEvalTensor
 4832              	.LVL585:
 4833              	.LEHE32:
 4834              	.LBB2086:
 4835              	.LBB2087:
 4836              		.loc 5 63 0
 4837 0dfc 003097E5 		ldr	r3, [r7]
 4838              	.LBE2087:
 4839              	.LBE2086:
 163:../src/tensorflow_lite/tensorflow/lite/micro/kernels/pad.cc ****                            tflite::micro::GetTensorData<float>(output));
 4840              		.loc 1 163 0
 4841 0e00 0910A0E1 		mov	r1, r9
 4842 0e04 A0008DE2 		add	r0, sp, #160
 4843              	.LBB2089:
 4844              	.LBB2088:
 4845              		.loc 5 63 0
 4846 0e08 50308DE5 		str	r3, [sp, #80]
 4847              	.LEHB33:
 4848              	.LBE2088:
 4849              	.LBE2089:
 163:../src/tensorflow_lite/tensorflow/lite/micro/kernels/pad.cc ****                            tflite::micro::GetTensorData<float>(output));
 4850              		.loc 1 163 0
 4851 0e0c FEFFFFEB 		bl	_ZN6tflite5micro14GetTensorShapeEPK16TfLiteEvalTensor
 4852              	.LVL586:
 4853              	.LEHE33:
 4854 0e10 88209DE5 		ldr	r2, [sp, #136]
 4855              	.LBB2090:
 4856              	.LBB2091:
  56:C:/Renesas/e2studio_2021_01_workspace_RZA2M_ANPR/ANPR_RZA2M_GR_MANGO/src/tensorflow_lite/tensorflow/lite/micro/kernels\kernel_util.h **** }
 4857              		.loc 5 56 0
 4858 0e14 000059E3 		cmp	r9, #0
 4859 0e18 00909915 		ldrne	r9, [r9]
 4860              	.LVL587:
 4861              	.LBE2091:
 4862              	.LBE2090:
 4863              	.LBB2092:
 4864              	.LBB2093:
 4865              	.LBB2094:
 4866              	.LBB2095:
 4867              	.LBB2096:
 4868              	.LBB2097:
 4869              	.LBB2098:
 305:C:/Renesas/e2studio_2021_01_workspace_RZA2M_ANPR/ANPR_RZA2M_GR_MANGO/src/tensorflow_lite/tensorflow/lite/kernels/internal\types.h ****     // If the following check fails, it is likely because a 4D-only kernel is
 4870              		.loc 4 305 0
 4871 0e1c 0030A0E3 		mov	r3, #0
 4872 0e20 B8308DE5 		str	r3, [sp, #184]
 4873              	.LBB2099:
 308:C:/Renesas/e2studio_2021_01_workspace_RZA2M_ANPR/ANPR_RZA2M_GR_MANGO/src/tensorflow_lite/tensorflow/lite/kernels/internal\types.h ****     Resize(new_shape_size);
 4874              		.loc 4 308 0
 4875 0e24 050052E3 		cmp	r2, #5
 4876 0e28 F90100CA 		bgt	.L1490
 4877              	.LVL588:
 4878              	.LBB2100:
 311:C:/Renesas/e2studio_2021_01_workspace_RZA2M_ANPR/ANPR_RZA2M_GR_MANGO/src/tensorflow_lite/tensorflow/lite/kernels/internal\types.h ****       SetDim(i, pad_value);
 4879              		.loc 4 311 0
 4880 0e2c 050072E2 		rsbs	r0, r2, #5
 4881              	.LBE2100:
 4882              	.LBB2113:
 4883              	.LBB2114:
 245:C:/Renesas/e2studio_2021_01_workspace_RZA2M_ANPR/ANPR_RZA2M_GR_MANGO/src/tensorflow_lite/tensorflow/lite/kernels/internal\types.h ****     if (dimensions_count > kMaxSmallSize) {
 4884              		.loc 4 245 0
 4885 0e30 0530A0E3 		mov	r3, #5
 4886 0e34 B8308DE5 		str	r3, [sp, #184]
 4887              	.LVL589:
 4888              	.LBE2114:
 4889              	.LBE2113:
 4890              	.LBB2115:
 311:C:/Renesas/e2studio_2021_01_workspace_RZA2M_ANPR/ANPR_RZA2M_GR_MANGO/src/tensorflow_lite/tensorflow/lite/kernels/internal\types.h ****       SetDim(i, pad_value);
 4891              		.loc 4 311 0
 4892 0e38 D601000A 		beq	.L292
 4893              	.LVL590:
 4894 0e3c 010050E3 		cmp	r0, #1
 4895              	.LBB2101:
 4896              	.LBB2102:
 224:C:/Renesas/e2studio_2021_01_workspace_RZA2M_ANPR/ANPR_RZA2M_GR_MANGO/src/tensorflow_lite/tensorflow/lite/kernels/internal\types.h ****     }
 4897              		.loc 4 224 0
 4898 0e40 0130A0E3 		mov	r3, #1
 4899 0e44 BC308DE5 		str	r3, [sp, #188]
 4900              	.LVL591:
 4901              	.LBE2102:
 4902              	.LBE2101:
 311:C:/Renesas/e2studio_2021_01_workspace_RZA2M_ANPR/ANPR_RZA2M_GR_MANGO/src/tensorflow_lite/tensorflow/lite/kernels/internal\types.h ****       SetDim(i, pad_value);
 4903              		.loc 4 311 0
 4904 0e48 D201000A 		beq	.L292
 4905              	.LVL592:
 4906 0e4c 020050E3 		cmp	r0, #2
 4907              	.LBB2108:
 4908              	.LBB2103:
 224:C:/Renesas/e2studio_2021_01_workspace_RZA2M_ANPR/ANPR_RZA2M_GR_MANGO/src/tensorflow_lite/tensorflow/lite/kernels/internal\types.h ****     }
 4909              		.loc 4 224 0
 4910 0e50 C0308DE5 		str	r3, [sp, #192]
 4911              	.LVL593:
 4912              	.LBE2103:
 4913              	.LBE2108:
 311:C:/Renesas/e2studio_2021_01_workspace_RZA2M_ANPR/ANPR_RZA2M_GR_MANGO/src/tensorflow_lite/tensorflow/lite/kernels/internal\types.h ****       SetDim(i, pad_value);
 4914              		.loc 4 311 0
 4915 0e54 CF01000A 		beq	.L292
 4916              	.LVL594:
 4917 0e58 030050E3 		cmp	r0, #3
 4918              	.LBB2109:
 4919              	.LBB2104:
 224:C:/Renesas/e2studio_2021_01_workspace_RZA2M_ANPR/ANPR_RZA2M_GR_MANGO/src/tensorflow_lite/tensorflow/lite/kernels/internal\types.h ****     }
 4920              		.loc 4 224 0
 4921 0e5c C4308DE5 		str	r3, [sp, #196]
 4922              	.LVL595:
 4923              	.LBE2104:
 4924              	.LBE2109:
 311:C:/Renesas/e2studio_2021_01_workspace_RZA2M_ANPR/ANPR_RZA2M_GR_MANGO/src/tensorflow_lite/tensorflow/lite/kernels/internal\types.h ****       SetDim(i, pad_value);
 4925              		.loc 4 311 0
 4926 0e60 CC01000A 		beq	.L292
 4927              	.LVL596:
 4928 0e64 040050E3 		cmp	r0, #4
 4929              	.LBB2110:
 4930              	.LBB2105:
 224:C:/Renesas/e2studio_2021_01_workspace_RZA2M_ANPR/ANPR_RZA2M_GR_MANGO/src/tensorflow_lite/tensorflow/lite/kernels/internal\types.h ****     }
 4931              		.loc 4 224 0
 4932 0e68 C8308DE5 		str	r3, [sp, #200]
 4933              	.LVL597:
 4934              	.LBE2105:
 4935              	.LBE2110:
 311:C:/Renesas/e2studio_2021_01_workspace_RZA2M_ANPR/ANPR_RZA2M_GR_MANGO/src/tensorflow_lite/tensorflow/lite/kernels/internal\types.h ****       SetDim(i, pad_value);
 4936              		.loc 4 311 0
 4937 0e6c C901000A 		beq	.L292
 4938              	.LVL598:
 4939 0e70 050050E3 		cmp	r0, #5
 4940              	.LBB2111:
 4941              	.LBB2106:
 224:C:/Renesas/e2studio_2021_01_workspace_RZA2M_ANPR/ANPR_RZA2M_GR_MANGO/src/tensorflow_lite/tensorflow/lite/kernels/internal\types.h ****     }
 4942              		.loc 4 224 0
 4943 0e74 CC308DE5 		str	r3, [sp, #204]
 4944              	.LVL599:
 4945              	.LBE2106:
 4946              	.LBE2111:
 311:C:/Renesas/e2studio_2021_01_workspace_RZA2M_ANPR/ANPR_RZA2M_GR_MANGO/src/tensorflow_lite/tensorflow/lite/kernels/internal\types.h ****       SetDim(i, pad_value);
 4947              		.loc 4 311 0
 4948 0e78 C601000A 		beq	.L292
 4949              	.LVL600:
 4950              	.LEHB34:
 4951              	.LBB2112:
 4952              	.LBB2107:
 220:C:/Renesas/e2studio_2021_01_workspace_RZA2M_ANPR/ANPR_RZA2M_GR_MANGO/src/tensorflow_lite/tensorflow/lite/kernels/internal\types.h ****     if (size_ > kMaxSmallSize) {
 4953              		.loc 4 220 0
 4954 0e7c FEFFFFEB 		bl	abort
 4955              	.LVL601:
 4956              	.LEHE34:
 4957              	.L777:
 4958 0e80 D7FCFFEA 		b	.L656
 4959              	.LVL602:
 4960              	.L589:
 4961              	.LBE2107:
 4962              	.LBE2112:
 4963              	.LBE2115:
 4964              	.LBE2099:
 4965              	.LBE2098:
 4966              	.LBE2097:
 4967              	.LBE2096:
 4968              	.LBE2095:
 4969              	.LBE2094:
 4970              	.LBE2093:
 4971              	.LBE2092:
 4972              	.LBE2085:
 4973              	.LBB2408:
 4974              	.LBB2072:
 4975              	.LBB2056:
 4976              	.LBB2050:
 4977              	.LBB1935:
 4978              	.LBB1933:
 4979              	.LBB1931:
 4980              	.LBB1929:
 4981              	.LBB1927:
 4982              		.loc 4 315 0
 4983 0e84 BC308DE2 		add	r3, sp, #188
 4984 0e88 0221A0E1 		lsl	r2, r2, #2
 4985 0e8c 000183E0 		add	r0, r3, r0, lsl #2
 4986              	.LVL603:
 4987 0e90 8C108DE2 		add	r1, sp, #140
 4988 0e94 FEFFFFEB 		bl	memcpy
 4989              	.LVL604:
 4990 0e98 A0209DE5 		ldr	r2, [sp, #160]
 4991              	.LVL605:
 4992              	.LBE1927:
 4993              	.LBE1929:
 4994              	.LBE1931:
 4995              	.LBE1933:
 4996              	.LBE1935:
 4997              	.LBB1936:
 4998              	.LBB1937:
 4999              	.LBB1938:
 5000              	.LBB1939:
 305:C:/Renesas/e2studio_2021_01_workspace_RZA2M_ANPR/ANPR_RZA2M_GR_MANGO/src/tensorflow_lite/tensorflow/lite/kernels/internal\types.h ****     // If the following check fails, it is likely because a 4D-only kernel is
 5001              		.loc 4 305 0
 5002 0e9c 0030A0E3 		mov	r3, #0
 5003 0ea0 D0308DE5 		str	r3, [sp, #208]
 5004              	.LBB1940:
 308:C:/Renesas/e2studio_2021_01_workspace_RZA2M_ANPR/ANPR_RZA2M_GR_MANGO/src/tensorflow_lite/tensorflow/lite/kernels/internal\types.h ****     Resize(new_shape_size);
 5005              		.loc 4 308 0
 5006 0ea4 050052E3 		cmp	r2, #5
 5007 0ea8 B60100CA 		bgt	.L1491
 5008              	.LVL606:
 5009              	.LBB1941:
 311:C:/Renesas/e2studio_2021_01_workspace_RZA2M_ANPR/ANPR_RZA2M_GR_MANGO/src/tensorflow_lite/tensorflow/lite/kernels/internal\types.h ****       SetDim(i, pad_value);
 5010              		.loc 4 311 0
 5011 0eac 050072E2 		rsbs	r0, r2, #5
 5012              	.LBE1941:
 5013              	.LBB1954:
 5014              	.LBB1955:
 245:C:/Renesas/e2studio_2021_01_workspace_RZA2M_ANPR/ANPR_RZA2M_GR_MANGO/src/tensorflow_lite/tensorflow/lite/kernels/internal\types.h ****     if (dimensions_count > kMaxSmallSize) {
 5015              		.loc 4 245 0
 5016 0eb0 0530A0E3 		mov	r3, #5
 5017 0eb4 D0308DE5 		str	r3, [sp, #208]
 5018              	.LVL607:
 5019              	.LBE1955:
 5020              	.LBE1954:
 5021              	.LBB1956:
 311:C:/Renesas/e2studio_2021_01_workspace_RZA2M_ANPR/ANPR_RZA2M_GR_MANGO/src/tensorflow_lite/tensorflow/lite/kernels/internal\types.h ****       SetDim(i, pad_value);
 5022              		.loc 4 311 0
 5023 0eb8 1200000A 		beq	.L594
 5024              	.LVL608:
 5025 0ebc 010050E3 		cmp	r0, #1
 5026              	.LBB1942:
 5027              	.LBB1943:
 224:C:/Renesas/e2studio_2021_01_workspace_RZA2M_ANPR/ANPR_RZA2M_GR_MANGO/src/tensorflow_lite/tensorflow/lite/kernels/internal\types.h ****     }
 5028              		.loc 4 224 0
 5029 0ec0 0130A0E3 		mov	r3, #1
 5030 0ec4 D4308DE5 		str	r3, [sp, #212]
 5031              	.LVL609:
 5032              	.LBE1943:
 5033              	.LBE1942:
 311:C:/Renesas/e2studio_2021_01_workspace_RZA2M_ANPR/ANPR_RZA2M_GR_MANGO/src/tensorflow_lite/tensorflow/lite/kernels/internal\types.h ****       SetDim(i, pad_value);
 5034              		.loc 4 311 0
 5035 0ec8 0E00000A 		beq	.L594
 5036              	.LVL610:
 5037 0ecc 020050E3 		cmp	r0, #2
 5038              	.LBB1949:
 5039              	.LBB1944:
 224:C:/Renesas/e2studio_2021_01_workspace_RZA2M_ANPR/ANPR_RZA2M_GR_MANGO/src/tensorflow_lite/tensorflow/lite/kernels/internal\types.h ****     }
 5040              		.loc 4 224 0
 5041 0ed0 D8308DE5 		str	r3, [sp, #216]
 5042              	.LVL611:
 5043              	.LBE1944:
 5044              	.LBE1949:
 311:C:/Renesas/e2studio_2021_01_workspace_RZA2M_ANPR/ANPR_RZA2M_GR_MANGO/src/tensorflow_lite/tensorflow/lite/kernels/internal\types.h ****       SetDim(i, pad_value);
 5045              		.loc 4 311 0
 5046 0ed4 0B00000A 		beq	.L594
 5047              	.LVL612:
 5048 0ed8 030050E3 		cmp	r0, #3
 5049              	.LBB1950:
 5050              	.LBB1945:
 224:C:/Renesas/e2studio_2021_01_workspace_RZA2M_ANPR/ANPR_RZA2M_GR_MANGO/src/tensorflow_lite/tensorflow/lite/kernels/internal\types.h ****     }
 5051              		.loc 4 224 0
 5052 0edc DC308DE5 		str	r3, [sp, #220]
 5053              	.LVL613:
 5054              	.LBE1945:
 5055              	.LBE1950:
 311:C:/Renesas/e2studio_2021_01_workspace_RZA2M_ANPR/ANPR_RZA2M_GR_MANGO/src/tensorflow_lite/tensorflow/lite/kernels/internal\types.h ****       SetDim(i, pad_value);
 5056              		.loc 4 311 0
 5057 0ee0 0800000A 		beq	.L594
 5058              	.LVL614:
 5059 0ee4 040050E3 		cmp	r0, #4
 5060              	.LBB1951:
 5061              	.LBB1946:
 224:C:/Renesas/e2studio_2021_01_workspace_RZA2M_ANPR/ANPR_RZA2M_GR_MANGO/src/tensorflow_lite/tensorflow/lite/kernels/internal\types.h ****     }
 5062              		.loc 4 224 0
 5063 0ee8 E0308DE5 		str	r3, [sp, #224]
 5064              	.LVL615:
 5065              	.LBE1946:
 5066              	.LBE1951:
 311:C:/Renesas/e2studio_2021_01_workspace_RZA2M_ANPR/ANPR_RZA2M_GR_MANGO/src/tensorflow_lite/tensorflow/lite/kernels/internal\types.h ****       SetDim(i, pad_value);
 5067              		.loc 4 311 0
 5068 0eec 0500000A 		beq	.L594
 5069              	.LVL616:
 5070 0ef0 050050E3 		cmp	r0, #5
 5071              	.LBB1952:
 5072              	.LBB1947:
 224:C:/Renesas/e2studio_2021_01_workspace_RZA2M_ANPR/ANPR_RZA2M_GR_MANGO/src/tensorflow_lite/tensorflow/lite/kernels/internal\types.h ****     }
 5073              		.loc 4 224 0
 5074 0ef4 E4308DE5 		str	r3, [sp, #228]
 5075              	.LVL617:
 5076              	.LBE1947:
 5077              	.LBE1952:
 311:C:/Renesas/e2studio_2021_01_workspace_RZA2M_ANPR/ANPR_RZA2M_GR_MANGO/src/tensorflow_lite/tensorflow/lite/kernels/internal\types.h ****       SetDim(i, pad_value);
 5078              		.loc 4 311 0
 5079 0ef8 0200000A 		beq	.L594
 5080              	.LVL618:
 5081              	.LEHB35:
 5082              	.LBB1953:
 5083              	.LBB1948:
 220:C:/Renesas/e2studio_2021_01_workspace_RZA2M_ANPR/ANPR_RZA2M_GR_MANGO/src/tensorflow_lite/tensorflow/lite/kernels/internal\types.h ****     if (size_ > kMaxSmallSize) {
 5084              		.loc 4 220 0
 5085 0efc FEFFFFEB 		bl	abort
 5086              	.LVL619:
 5087              	.LEHE35:
 5088              	.L767:
 5089 0f00 B7FCFFEA 		b	.L656
 5090              	.LVL620:
 5091              	.L790:
 5092 0f04 E6FCFFEA 		b	.L654
 5093              	.LVL621:
 5094              	.L594:
 5095              	.LBE1948:
 5096              	.LBE1953:
 5097              	.LBE1956:
 5098              		.loc 4 315 0
 5099 0f08 D4308DE2 		add	r3, sp, #212
 5100 0f0c 0221A0E1 		lsl	r2, r2, #2
 5101 0f10 000183E0 		add	r0, r3, r0, lsl #2
 5102              	.LVL622:
 5103 0f14 A4108DE2 		add	r1, sp, #164
 5104 0f18 FEFFFFEB 		bl	memcpy
 5105              	.LVL623:
 5106              	.LBE1940:
 5107              	.LBE1939:
 5108              	.LBE1938:
 5109              	.LBE1937:
 5110              	.LBE1936:
  46:C:/Renesas/e2studio_2021_01_workspace_RZA2M_ANPR/ANPR_RZA2M_GR_MANGO/src/tensorflow_lite/tensorflow/lite/kernels/internal/reference\pad.h ****   TFLITE_DCHECK_LE(op_params.right_padding_count, PadKernelMaxDimensionCount());
 5111              		.loc 6 46 0
 5112 0f1c D020D5E1 		ldrsb	r2, [r5]
 5113 0f20 050052E3 		cmp	r2, #5
 5114 0f24 960100CA 		bgt	.L1492
  47:C:/Renesas/e2studio_2021_01_workspace_RZA2M_ANPR/ANPR_RZA2M_GR_MANGO/src/tensorflow_lite/tensorflow/lite/kernels/internal/reference\pad.h **** 
 5115              		.loc 6 47 0
 5116 0f28 D861D5E1 		ldrsb	r6, [r5, #24]
 5117              	.LVL624:
 5118 0f2c 050056E3 		cmp	r6, #5
 5119 0f30 960100CA 		bgt	.L596
 5120              	.LVL625:
 5121              	.LBB1961:
  55:C:/Renesas/e2studio_2021_01_workspace_RZA2M_ANPR/ANPR_RZA2M_GR_MANGO/src/tensorflow_lite/tensorflow/lite/kernels/internal/reference\pad.h ****     left_padding_copy[i + PadKernelMaxDimensionCount() -
 5122              		.loc 6 55 0
 5123 0f34 000052E3 		cmp	r2, #0
 5124              	.LBE1961:
 5125              	.LBB1962:
  53:C:/Renesas/e2studio_2021_01_workspace_RZA2M_ANPR/ANPR_RZA2M_GR_MANGO/src/tensorflow_lite/tensorflow/lite/kernels/internal/reference\pad.h ****   }
 5126              		.loc 6 53 0
 5127 0f38 0030A0E3 		mov	r3, #0
 5128 0f3c 60308DE5 		str	r3, [sp, #96]
 5129              	.LVL626:
 5130 0f40 64308DE5 		str	r3, [sp, #100]
 5131              	.LVL627:
 5132 0f44 68308DE5 		str	r3, [sp, #104]
 5133              	.LVL628:
 5134 0f48 6C308DE5 		str	r3, [sp, #108]
 5135              	.LVL629:
 5136 0f4c 70308DE5 		str	r3, [sp, #112]
 5137              	.LVL630:
 5138              	.LBE1962:
 5139              	.LBB1963:
  55:C:/Renesas/e2studio_2021_01_workspace_RZA2M_ANPR/ANPR_RZA2M_GR_MANGO/src/tensorflow_lite/tensorflow/lite/kernels/internal/reference\pad.h ****     left_padding_copy[i + PadKernelMaxDimensionCount() -
 5140              		.loc 6 55 0
 5141 0f50 050000DA 		ble	.L597
  56:C:/Renesas/e2studio_2021_01_workspace_RZA2M_ANPR/ANPR_RZA2M_GR_MANGO/src/tensorflow_lite/tensorflow/lite/kernels/internal/reference\pad.h ****                       op_params.left_padding_count] = op_params.left_padding[i];
 5142              		.loc 6 56 0
 5143 0f54 E8308DE2 		add	r3, sp, #232
 5144 0f58 041085E2 		add	r1, r5, #4
 5145 0f5c 020143E0 		sub	r0, r3, r2, lsl #2
 5146 0f60 0221A0E1 		lsl	r2, r2, #2
 5147 0f64 740040E2 		sub	r0, r0, #116
 5148 0f68 FEFFFFEB 		bl	memcpy
 5149              	.LVL631:
 5150              	.L597:
 5151              	.LBE1963:
 5152              	.LBB1964:
  63:C:/Renesas/e2studio_2021_01_workspace_RZA2M_ANPR/ANPR_RZA2M_GR_MANGO/src/tensorflow_lite/tensorflow/lite/kernels/internal/reference\pad.h ****     right_padding_copy[i + PadKernelMaxDimensionCount() -
 5153              		.loc 6 63 0
 5154 0f6c 000056E3 		cmp	r6, #0
 5155              	.LBE1964:
 5156              	.LBB1965:
  61:C:/Renesas/e2studio_2021_01_workspace_RZA2M_ANPR/ANPR_RZA2M_GR_MANGO/src/tensorflow_lite/tensorflow/lite/kernels/internal/reference\pad.h ****   }
 5157              		.loc 6 61 0
 5158 0f70 0030A0E3 		mov	r3, #0
 5159 0f74 74308DE5 		str	r3, [sp, #116]
 5160              	.LVL632:
 5161 0f78 78308DE5 		str	r3, [sp, #120]
 5162              	.LVL633:
 5163 0f7c 7C308DE5 		str	r3, [sp, #124]
 5164              	.LVL634:
 5165 0f80 80308DE5 		str	r3, [sp, #128]
 5166              	.LVL635:
 5167 0f84 84308DE5 		str	r3, [sp, #132]
 5168              	.LVL636:
 5169              	.LBE1965:
 5170              	.LBB1966:
  63:C:/Renesas/e2studio_2021_01_workspace_RZA2M_ANPR/ANPR_RZA2M_GR_MANGO/src/tensorflow_lite/tensorflow/lite/kernels/internal/reference\pad.h ****     right_padding_copy[i + PadKernelMaxDimensionCount() -
 5171              		.loc 6 63 0
 5172 0f88 050000DA 		ble	.L604
  64:C:/Renesas/e2studio_2021_01_workspace_RZA2M_ANPR/ANPR_RZA2M_GR_MANGO/src/tensorflow_lite/tensorflow/lite/kernels/internal/reference\pad.h ****                        op_params.right_padding_count] =
 5173              		.loc 6 64 0
 5174 0f8c E8308DE2 		add	r3, sp, #232
 5175 0f90 1C1085E2 		add	r1, r5, #28
 5176 0f94 060143E0 		sub	r0, r3, r6, lsl #2
 5177 0f98 0621A0E1 		lsl	r2, r6, #2
 5178 0f9c 600040E2 		sub	r0, r0, #96
 5179 0fa0 FEFFFFEB 		bl	memcpy
 5180              	.LVL637:
 5181              	.L604:
 5182              	.LBE1966:
 5183              	.LBB1967:
 5184              	.LBB1968:
 215:C:/Renesas/e2studio_2021_01_workspace_RZA2M_ANPR/ANPR_RZA2M_GR_MANGO/src/tensorflow_lite/tensorflow/lite/kernels/internal\types.h ****     return size_ > kMaxSmallSize ? dims_pointer_[i] : dims_[i];
 5185              		.loc 4 215 0
 5186 0fa4 D0309DE5 		ldr	r3, [sp, #208]
 5187 0fa8 000053E3 		cmp	r3, #0
 5188 0fac 40308DE5 		str	r3, [sp, #64]
 5189 0fb0 720100DA 		ble	.L1493
 216:C:/Renesas/e2studio_2021_01_workspace_RZA2M_ANPR/ANPR_RZA2M_GR_MANGO/src/tensorflow_lite/tensorflow/lite/kernels/internal\types.h ****   }
 5190              		.loc 4 216 0
 5191 0fb4 050053E3 		cmp	r3, #5
 5192 0fb8 510100CA 		bgt	.L1494
 5193              	.LBE1968:
 5194              	.LBE1967:
 5195              	.LBB1974:
 5196              	.LBB1975:
 215:C:/Renesas/e2studio_2021_01_workspace_RZA2M_ANPR/ANPR_RZA2M_GR_MANGO/src/tensorflow_lite/tensorflow/lite/kernels/internal\types.h ****     return size_ > kMaxSmallSize ? dims_pointer_[i] : dims_[i];
 5197              		.loc 4 215 0
 5198 0fbc 010053E3 		cmp	r3, #1
 5199              	.LBE1975:
 5200              	.LBE1974:
 5201              	.LBB1982:
 5202              	.LBB1969:
 216:C:/Renesas/e2studio_2021_01_workspace_RZA2M_ANPR/ANPR_RZA2M_GR_MANGO/src/tensorflow_lite/tensorflow/lite/kernels/internal\types.h ****   }
 5203              		.loc 4 216 0
 5204 0fc0 D4309DE5 		ldr	r3, [sp, #212]
 5205 0fc4 44308DE5 		str	r3, [sp, #68]
 5206              	.LVL638:
 5207              	.LBE1969:
 5208              	.LBE1982:
 5209              	.LBB1983:
 5210              	.LBB1976:
 215:C:/Renesas/e2studio_2021_01_workspace_RZA2M_ANPR/ANPR_RZA2M_GR_MANGO/src/tensorflow_lite/tensorflow/lite/kernels/internal\types.h ****     return size_ > kMaxSmallSize ? dims_pointer_[i] : dims_[i];
 5211              		.loc 4 215 0
 5212 0fc8 4C01000A 		beq	.L1495
 5213              	.LBE1976:
 5214              	.LBE1983:
 5215              	.LBB1984:
 5216              	.LBB1985:
 5217 0fcc 40309DE5 		ldr	r3, [sp, #64]
 5218              	.LBE1985:
 5219              	.LBE1984:
 5220              	.LBB1992:
 5221              	.LBB1977:
 216:C:/Renesas/e2studio_2021_01_workspace_RZA2M_ANPR/ANPR_RZA2M_GR_MANGO/src/tensorflow_lite/tensorflow/lite/kernels/internal\types.h ****   }
 5222              		.loc 4 216 0
 5223 0fd0 D8209DE5 		ldr	r2, [sp, #216]
 5224              	.LBE1977:
 5225              	.LBE1992:
 5226              	.LBB1993:
 5227              	.LBB1986:
 215:C:/Renesas/e2studio_2021_01_workspace_RZA2M_ANPR/ANPR_RZA2M_GR_MANGO/src/tensorflow_lite/tensorflow/lite/kernels/internal\types.h ****     return size_ > kMaxSmallSize ? dims_pointer_[i] : dims_[i];
 5228              		.loc 4 215 0
 5229 0fd4 020053E3 		cmp	r3, #2
 5230              	.LBE1986:
 5231              	.LBE1993:
 5232              	.LBB1994:
 5233              	.LBB1978:
 216:C:/Renesas/e2studio_2021_01_workspace_RZA2M_ANPR/ANPR_RZA2M_GR_MANGO/src/tensorflow_lite/tensorflow/lite/kernels/internal\types.h ****   }
 5234              		.loc 4 216 0
 5235 0fd8 1C208DE5 		str	r2, [sp, #28]
 5236              	.LVL639:
 5237              	.LBE1978:
 5238              	.LBE1994:
 5239              	.LBB1995:
 5240              	.LBB1987:
 215:C:/Renesas/e2studio_2021_01_workspace_RZA2M_ANPR/ANPR_RZA2M_GR_MANGO/src/tensorflow_lite/tensorflow/lite/kernels/internal\types.h ****     return size_ > kMaxSmallSize ? dims_pointer_[i] : dims_[i];
 5241              		.loc 4 215 0
 5242 0fdc 4601000A 		beq	.L713
 216:C:/Renesas/e2studio_2021_01_workspace_RZA2M_ANPR/ANPR_RZA2M_GR_MANGO/src/tensorflow_lite/tensorflow/lite/kernels/internal\types.h ****   }
 5243              		.loc 4 216 0
 5244 0fe0 DC209DE5 		ldr	r2, [sp, #220]
 5245              	.LBE1987:
 5246              	.LBE1995:
 5247              	.LBB1996:
 5248              	.LBB1997:
 215:C:/Renesas/e2studio_2021_01_workspace_RZA2M_ANPR/ANPR_RZA2M_GR_MANGO/src/tensorflow_lite/tensorflow/lite/kernels/internal\types.h ****     return size_ > kMaxSmallSize ? dims_pointer_[i] : dims_[i];
 5249              		.loc 4 215 0
 5250 0fe4 030053E3 		cmp	r3, #3
 5251              	.LBE1997:
 5252              	.LBE1996:
 5253              	.LBB2002:
 5254              	.LBB1988:
 216:C:/Renesas/e2studio_2021_01_workspace_RZA2M_ANPR/ANPR_RZA2M_GR_MANGO/src/tensorflow_lite/tensorflow/lite/kernels/internal\types.h ****   }
 5255              		.loc 4 216 0
 5256 0fe8 10208DE5 		str	r2, [sp, #16]
 5257              	.LVL640:
 5258              	.LBE1988:
 5259              	.LBE2002:
 5260              	.LBB2003:
 5261              	.LBB1998:
 215:C:/Renesas/e2studio_2021_01_workspace_RZA2M_ANPR/ANPR_RZA2M_GR_MANGO/src/tensorflow_lite/tensorflow/lite/kernels/internal\types.h ****     return size_ > kMaxSmallSize ? dims_pointer_[i] : dims_[i];
 5262              		.loc 4 215 0
 5263 0fec 4001000A 		beq	.L714
 5264              	.LBE1998:
 5265              	.LBE2003:
 5266              	.LBB2004:
 5267              	.LBB2005:
 5268 0ff0 040053E3 		cmp	r3, #4
 5269              	.LBE2005:
 5270              	.LBE2004:
 5271              	.LBB2010:
 5272              	.LBB1999:
 216:C:/Renesas/e2studio_2021_01_workspace_RZA2M_ANPR/ANPR_RZA2M_GR_MANGO/src/tensorflow_lite/tensorflow/lite/kernels/internal\types.h ****   }
 5273              		.loc 4 216 0
 5274 0ff4 E0A09DE5 		ldr	r10, [sp, #224]
 5275              	.LVL641:
 5276              	.LBE1999:
 5277              	.LBE2010:
 5278              	.LBB2011:
 5279              	.LBB2006:
 215:C:/Renesas/e2studio_2021_01_workspace_RZA2M_ANPR/ANPR_RZA2M_GR_MANGO/src/tensorflow_lite/tensorflow/lite/kernels/internal\types.h ****     return size_ > kMaxSmallSize ? dims_pointer_[i] : dims_[i];
 5280              		.loc 4 215 0
 5281 0ff8 3C01000A 		beq	.L1496
 5282              	.LBE2006:
 5283              	.LBE2011:
  76:C:/Renesas/e2studio_2021_01_workspace_RZA2M_ANPR/ANPR_RZA2M_GR_MANGO/src/tensorflow_lite/tensorflow/lite/kernels/internal/reference\pad.h ****   const int left_h_padding = left_padding_copy[2];
 5284              		.loc 6 76 0
 5285 0ffc 64209DE5 		ldr	r2, [sp, #100]
 5286              	.LBB2012:
  91:C:/Renesas/e2studio_2021_01_workspace_RZA2M_ANPR/ANPR_RZA2M_GR_MANGO/src/tensorflow_lite/tensorflow/lite/kernels/internal/reference\pad.h ****     for (int out_p = 0; out_p < output_plane; ++out_p) {
 5287              		.loc 6 91 0
 5288 1000 44309DE5 		ldr	r3, [sp, #68]
 5289              	.LBE2012:
 5290              	.LBB2023:
 5291              	.LBB2007:
 216:C:/Renesas/e2studio_2021_01_workspace_RZA2M_ANPR/ANPR_RZA2M_GR_MANGO/src/tensorflow_lite/tensorflow/lite/kernels/internal\types.h ****   }
 5292              		.loc 4 216 0
 5293 1004 E4109DE5 		ldr	r1, [sp, #228]
 5294              	.LVL642:
 5295              	.LBE2007:
 5296              	.LBE2023:
  76:C:/Renesas/e2studio_2021_01_workspace_RZA2M_ANPR/ANPR_RZA2M_GR_MANGO/src/tensorflow_lite/tensorflow/lite/kernels/internal/reference\pad.h ****   const int left_h_padding = left_padding_copy[2];
 5297              		.loc 6 76 0
 5298 1008 4C208DE5 		str	r2, [sp, #76]
  77:C:/Renesas/e2studio_2021_01_workspace_RZA2M_ANPR/ANPR_RZA2M_GR_MANGO/src/tensorflow_lite/tensorflow/lite/kernels/internal/reference\pad.h ****   const int left_w_padding = left_padding_copy[3];
 5299              		.loc 6 77 0
 5300 100c 68209DE5 		ldr	r2, [sp, #104]
 5301              	.LBB2024:
  91:C:/Renesas/e2studio_2021_01_workspace_RZA2M_ANPR/ANPR_RZA2M_GR_MANGO/src/tensorflow_lite/tensorflow/lite/kernels/internal/reference\pad.h ****     for (int out_p = 0; out_p < output_plane; ++out_p) {
 5302              		.loc 6 91 0
 5303 1010 000053E3 		cmp	r3, #0
 5304              	.LBE2024:
  75:C:/Renesas/e2studio_2021_01_workspace_RZA2M_ANPR/ANPR_RZA2M_GR_MANGO/src/tensorflow_lite/tensorflow/lite/kernels/internal/reference\pad.h ****   const int left_p_padding = left_padding_copy[1];
 5305              		.loc 6 75 0
 5306 1014 60709DE5 		ldr	r7, [sp, #96]
 5307              	.LVL643:
  78:C:/Renesas/e2studio_2021_01_workspace_RZA2M_ANPR/ANPR_RZA2M_GR_MANGO/src/tensorflow_lite/tensorflow/lite/kernels/internal/reference\pad.h ****   const int left_d_padding = left_padding_copy[4];
 5308              		.loc 6 78 0
 5309 1018 6C609DE5 		ldr	r6, [sp, #108]
  77:C:/Renesas/e2studio_2021_01_workspace_RZA2M_ANPR/ANPR_RZA2M_GR_MANGO/src/tensorflow_lite/tensorflow/lite/kernels/internal/reference\pad.h ****   const int left_w_padding = left_padding_copy[3];
 5310              		.loc 6 77 0
 5311 101c 20208DE5 		str	r2, [sp, #32]
 5312              	.LVL644:
  79:C:/Renesas/e2studio_2021_01_workspace_RZA2M_ANPR/ANPR_RZA2M_GR_MANGO/src/tensorflow_lite/tensorflow/lite/kernels/internal/reference\pad.h **** 
 5313              		.loc 6 79 0
 5314 1020 70209DE5 		ldr	r2, [sp, #112]
 5315              	.LVL645:
 5316 1024 3C208DE5 		str	r2, [sp, #60]
 5317              	.LVL646:
  81:C:/Renesas/e2studio_2021_01_workspace_RZA2M_ANPR/ANPR_RZA2M_GR_MANGO/src/tensorflow_lite/tensorflow/lite/kernels/internal/reference\pad.h ****   const int right_p_padding = right_padding_copy[1];
 5318              		.loc 6 81 0
 5319 1028 74209DE5 		ldr	r2, [sp, #116]
 5320              	.LVL647:
 5321 102c 50208DE5 		str	r2, [sp, #80]
 5322              	.LVL648:
  82:C:/Renesas/e2studio_2021_01_workspace_RZA2M_ANPR/ANPR_RZA2M_GR_MANGO/src/tensorflow_lite/tensorflow/lite/kernels/internal/reference\pad.h ****   const int right_h_padding = right_padding_copy[2];
 5323              		.loc 6 82 0
 5324 1030 78209DE5 		ldr	r2, [sp, #120]
 5325              	.LVL649:
 5326 1034 24208DE5 		str	r2, [sp, #36]
 5327              	.LVL650:
  83:C:/Renesas/e2studio_2021_01_workspace_RZA2M_ANPR/ANPR_RZA2M_GR_MANGO/src/tensorflow_lite/tensorflow/lite/kernels/internal/reference\pad.h ****   const int right_w_padding = right_padding_copy[3];
 5328              		.loc 6 83 0
 5329 1038 7C209DE5 		ldr	r2, [sp, #124]
 5330              	.LVL651:
 5331 103c 2C208DE5 		str	r2, [sp, #44]
 5332              	.LVL652:
  84:C:/Renesas/e2studio_2021_01_workspace_RZA2M_ANPR/ANPR_RZA2M_GR_MANGO/src/tensorflow_lite/tensorflow/lite/kernels/internal/reference\pad.h ****   const int right_d_padding = right_padding_copy[4];
 5333              		.loc 6 84 0
 5334 1040 80209DE5 		ldr	r2, [sp, #128]
 5335              	.LVL653:
 5336 1044 28208DE5 		str	r2, [sp, #40]
 5337              	.LVL654:
  85:C:/Renesas/e2studio_2021_01_workspace_RZA2M_ANPR/ANPR_RZA2M_GR_MANGO/src/tensorflow_lite/tensorflow/lite/kernels/internal/reference\pad.h **** 
 5338              		.loc 6 85 0
 5339 1048 84209DE5 		ldr	r2, [sp, #132]
 5340              	.LVL655:
 5341 104c 58208DE5 		str	r2, [sp, #88]
 5342              	.LVL656:
 5343              	.LBB2025:
  91:C:/Renesas/e2studio_2021_01_workspace_RZA2M_ANPR/ANPR_RZA2M_GR_MANGO/src/tensorflow_lite/tensorflow/lite/kernels/internal/reference\pad.h ****     for (int out_p = 0; out_p < output_plane; ++out_p) {
 5344              		.loc 6 91 0
 5345 1050 66FDFFDA 		ble	.L609
 5346 1054 48308DE5 		str	r3, [sp, #72]
 5347              	.LVL657:
 5348              	.L607:
 5349 1058 1C309DE5 		ldr	r3, [sp, #28]
 5350 105c 000053E3 		cmp	r3, #0
 5351 1060 770000DA 		ble	.L610
 5352 1064 0131A0E1 		lsl	r3, r1, #2
 5353 1068 090041E2 		sub	r0, r1, #9
 5354 106c 0080A0E3 		mov	r8, #0
 5355              	.LVL658:
 5356 1070 04308DE5 		str	r3, [sp, #4]
 5357 1074 0700C0E3 		bic	r0, r0, #7
 5358 1078 0A30A0E1 		mov	r3, r10
 5359 107c 080080E2 		add	r0, r0, #8
 5360 1080 08A0A0E1 		mov	r10, r8
 5361 1084 0680A0E1 		mov	r8, r6
 5362 1088 0760A0E1 		mov	r6, r7
 5363              	.LVL659:
 5364 108c 0370A0E1 		mov	r7, r3
 5365              	.LVL660:
 5366              	.L645:
 5367 1090 0030A0E3 		mov	r3, #0
 5368 1094 18308DE5 		str	r3, [sp, #24]
 5369              	.LVL661:
 5370              	.L644:
 5371              	.LBB2013:
 5372              	.LBB2014:
  93:C:/Renesas/e2studio_2021_01_workspace_RZA2M_ANPR/ANPR_RZA2M_GR_MANGO/src/tensorflow_lite/tensorflow/lite/kernels/internal/reference\pad.h ****         for (int out_w = 0; out_w < output_width; ++out_w) {
 5373              		.loc 6 93 0
 5374 1098 10309DE5 		ldr	r3, [sp, #16]
 5375 109c 000053E3 		cmp	r3, #0
 5376 10a0 5D0000DA 		ble	.L611
 5377              	.LBB2015:
 5378              	.LBB2016:
  97:C:/Renesas/e2studio_2021_01_workspace_RZA2M_ANPR/ANPR_RZA2M_GR_MANGO/src/tensorflow_lite/tensorflow/lite/kernels/internal/reference\pad.h ****                 out_p < left_p_padding ||
 5379              		.loc 6 97 0
 5380 10a4 50209DE5 		ldr	r2, [sp, #80]
  96:C:/Renesas/e2studio_2021_01_workspace_RZA2M_ANPR/ANPR_RZA2M_GR_MANGO/src/tensorflow_lite/tensorflow/lite/kernels/internal/reference\pad.h ****                 out_b >= output_batch - right_b_padding ||
 5381              		.loc 6 96 0
 5382 10a8 00E0A0E3 		mov	lr, #0
  97:C:/Renesas/e2studio_2021_01_workspace_RZA2M_ANPR/ANPR_RZA2M_GR_MANGO/src/tensorflow_lite/tensorflow/lite/kernels/internal/reference\pad.h ****                 out_p < left_p_padding ||
 5383              		.loc 6 97 0
 5384 10ac 44309DE5 		ldr	r3, [sp, #68]
 5385 10b0 4CC09DE5 		ldr	ip, [sp, #76]
 5386 10b4 023043E0 		sub	r3, r3, r2
 5387 10b8 18209DE5 		ldr	r2, [sp, #24]
 5388 10bc 0C0052E1 		cmp	r2, ip
 5389 10c0 0020A0A3 		movge	r2, #0
 5390 10c4 0120A0B3 		movlt	r2, #1
 5391 10c8 03005AE1 		cmp	r10, r3
 5392 10cc 012082A3 		orrge	r2, r2, #1
 105:C:/Renesas/e2studio_2021_01_workspace_RZA2M_ANPR/ANPR_RZA2M_GR_MANGO/src/tensorflow_lite/tensorflow/lite/kernels/internal/reference\pad.h ****               *out_ptr++ = pad_value;
 5393              		.loc 6 105 0
 5394 10d0 58309DE5 		ldr	r3, [sp, #88]
 5395 10d4 08208DE5 		str	r2, [sp, #8]
 5396 10d8 033041E0 		sub	r3, r1, r3
 5397 10dc 5C308DE5 		str	r3, [sp, #92]
 5398              	.LVL662:
 5399              	.L643:
 5400              	.LBE2016:
  94:C:/Renesas/e2studio_2021_01_workspace_RZA2M_ANPR/ANPR_RZA2M_GR_MANGO/src/tensorflow_lite/tensorflow/lite/kernels/internal/reference\pad.h ****           for (int out_d = 0; out_d < output_depth; ++out_d) {
 5401              		.loc 6 94 0
 5402 10e0 000057E3 		cmp	r7, #0
 5403 10e4 480000DA 		ble	.L612
 5404              	.LBB2017:
  99:C:/Renesas/e2studio_2021_01_workspace_RZA2M_ANPR/ANPR_RZA2M_GR_MANGO/src/tensorflow_lite/tensorflow/lite/kernels/internal/reference\pad.h ****                 out_h < left_h_padding ||
 5405              		.loc 6 99 0
 5406 10e8 24209DE5 		ldr	r2, [sp, #36]
 5407 10ec 1C309DE5 		ldr	r3, [sp, #28]
 5408 10f0 18C09DE5 		ldr	ip, [sp, #24]
 5409 10f4 023043E0 		sub	r3, r3, r2
 5410 10f8 20209DE5 		ldr	r2, [sp, #32]
 5411 10fc 02005EE1 		cmp	lr, r2
 5412 1100 0020A0A3 		movge	r2, #0
 5413 1104 0120A0B3 		movlt	r2, #1
 5414 1108 03005CE1 		cmp	ip, r3
 5415 110c 012082A3 		orrge	r2, r2, #1
 101:C:/Renesas/e2studio_2021_01_workspace_RZA2M_ANPR/ANPR_RZA2M_GR_MANGO/src/tensorflow_lite/tensorflow/lite/kernels/internal/reference\pad.h ****                 out_w < left_w_padding ||
 5416              		.loc 6 101 0
 5417 1110 10309DE5 		ldr	r3, [sp, #16]
 5418 1114 0C208DE5 		str	r2, [sp, #12]
  98:C:/Renesas/e2studio_2021_01_workspace_RZA2M_ANPR/ANPR_RZA2M_GR_MANGO/src/tensorflow_lite/tensorflow/lite/kernels/internal/reference\pad.h ****                 out_p >= output_plane - right_p_padding ||
 5419              		.loc 6 98 0
 5420 1118 00C0A0E3 		mov	ip, #0
 101:C:/Renesas/e2studio_2021_01_workspace_RZA2M_ANPR/ANPR_RZA2M_GR_MANGO/src/tensorflow_lite/tensorflow/lite/kernels/internal/reference\pad.h ****                 out_w < left_w_padding ||
 5421              		.loc 6 101 0
 5422 111c 2C209DE5 		ldr	r2, [sp, #44]
 5423 1120 025043E0 		sub	r5, r3, r2
 5424 1124 28309DE5 		ldr	r3, [sp, #40]
 5425 1128 033047E0 		sub	r3, r7, r3
 5426 112c 14308DE5 		str	r3, [sp, #20]
 5427              	.LVL663:
 5428              	.L642:
  95:C:/Renesas/e2studio_2021_01_workspace_RZA2M_ANPR/ANPR_RZA2M_GR_MANGO/src/tensorflow_lite/tensorflow/lite/kernels/internal/reference\pad.h ****             if (out_b < left_b_padding ||
 5429              		.loc 6 95 0
 5430 1130 000051E3 		cmp	r1, #0
 5431 1134 310000DA 		ble	.L613
 5432 1138 08005CE1 		cmp	ip, r8
 5433 113c 0E0055A1 		cmpge	r5, lr
 5434 1140 0130A0D3 		movle	r3, #1
 5435 1144 0030A0C3 		movgt	r3, #0
 5436 1148 06005AE1 		cmp	r10, r6
 5437 114c 400000BA 		blt	.L614
 5438 1150 08209DE5 		ldr	r2, [sp, #8]
 5439 1154 000052E3 		cmp	r2, #0
 5440 1158 5400001A 		bne	.L615
 5441 115c 000053E3 		cmp	r3, #0
 5442 1160 6D00001A 		bne	.L616
 5443 1164 0C309DE5 		ldr	r3, [sp, #12]
 5444 1168 000053E3 		cmp	r3, #0
 5445 116c A200001A 		bne	.L617
 5446 1170 04B089E2 		add	fp, r9, #4
 100:C:/Renesas/e2studio_2021_01_workspace_RZA2M_ANPR/ANPR_RZA2M_GR_MANGO/src/tensorflow_lite/tensorflow/lite/kernels/internal/reference\pad.h ****                 out_h >= output_height - right_h_padding ||
 5447              		.loc 6 100 0
 5448 1174 30A08DE5 		str	r10, [sp, #48]
 5449 1178 34908DE5 		str	r9, [sp, #52]
 5450 117c 14A09DE5 		ldr	r10, [sp, #20]
 5451 1180 3C909DE5 		ldr	r9, [sp, #60]
 5452              	.LVL664:
 5453 1184 38008DE5 		str	r0, [sp, #56]
 5454 1188 0B0000EA 		b	.L619
 5455              	.LVL665:
 5456              	.L1498:
 104:C:/Renesas/e2studio_2021_01_workspace_RZA2M_ANPR/ANPR_RZA2M_GR_MANGO/src/tensorflow_lite/tensorflow/lite/kernels/internal/reference\pad.h ****                 out_d >= output_depth - right_d_padding) {
 5457              		.loc 6 104 0
 5458 118c 5C209DE5 		ldr	r2, [sp, #92]
 5459 1190 030052E1 		cmp	r2, r3
 5460 1194 0F0000DA 		ble	.L756
 5461              	.LVL666:
 5462              		.loc 6 108 0
 5463 1198 54009DE5 		ldr	r0, [sp, #84]
 5464 119c 002090E5 		ldr	r2, [r0]
 5465 11a0 040080E2 		add	r0, r0, #4
 5466              	.LVL667:
 5467 11a4 54008DE5 		str	r0, [sp, #84]
 5468              	.LVL668:
 5469              	.L618:
  95:C:/Renesas/e2studio_2021_01_workspace_RZA2M_ANPR/ANPR_RZA2M_GR_MANGO/src/tensorflow_lite/tensorflow/lite/kernels/internal/reference\pad.h ****             if (out_b < left_b_padding ||
 5470              		.loc 6 95 0
 5471 11a8 013083E2 		add	r3, r3, #1
 5472              	.LVL669:
 5473 11ac 04200BE5 		str	r2, [fp, #-4]
 5474              	.LVL670:
 5475 11b0 010053E1 		cmp	r3, r1
 5476 11b4 04B08BE2 		add	fp, fp, #4
 5477 11b8 A900000A 		beq	.L1497
 5478              	.LVL671:
 5479              	.L619:
 103:C:/Renesas/e2studio_2021_01_workspace_RZA2M_ANPR/ANPR_RZA2M_GR_MANGO/src/tensorflow_lite/tensorflow/lite/kernels/internal/reference\pad.h ****                 out_d < left_d_padding ||
 5480              		.loc 6 103 0
 5481 11bc 090053E1 		cmp	r3, r9
 5482 11c0 0020A0A3 		movge	r2, #0
 5483 11c4 0120A0B3 		movlt	r2, #1
 5484 11c8 0A005CE1 		cmp	ip, r10
 5485 11cc 012082A3 		orrge	r2, r2, #1
 5486 11d0 000052E3 		cmp	r2, #0
 5487 11d4 ECFFFF0A 		beq	.L1498
 5488              	.L756:
 106:C:/Renesas/e2studio_2021_01_workspace_RZA2M_ANPR/ANPR_RZA2M_GR_MANGO/src/tensorflow_lite/tensorflow/lite/kernels/internal/reference\pad.h ****             } else {
 5489              		.loc 6 106 0
 5490 11d8 0420A0E1 		mov	r2, r4
 5491 11dc F1FFFFEA 		b	.L618
 5492              	.LVL672:
 5493              	.L761:
 100:C:/Renesas/e2studio_2021_01_workspace_RZA2M_ANPR/ANPR_RZA2M_GR_MANGO/src/tensorflow_lite/tensorflow/lite/kernels/internal/reference\pad.h ****                 out_h >= output_height - right_h_padding ||
 5494              		.loc 6 100 0
 5495 11e0 09B0A0E1 		mov	fp, r9
 5496 11e4 0020A0E3 		mov	r2, #0
 5497              	.LVL673:
 5498              	.L641:
  95:C:/Renesas/e2studio_2021_01_workspace_RZA2M_ANPR/ANPR_RZA2M_GR_MANGO/src/tensorflow_lite/tensorflow/lite/kernels/internal/reference\pad.h ****             if (out_b < left_b_padding ||
 5499              		.loc 6 95 0
 5500 11e8 012082E2 		add	r2, r2, #1
 5501              	.LVL674:
 5502 11ec 04408BE4 		str	r4, [fp], #4
 5503              	.LVL675:
 5504 11f0 020051E1 		cmp	r1, r2
 5505 11f4 FBFFFFCA 		bgt	.L641
 5506              	.L1321:
 5507 11f8 04309DE5 		ldr	r3, [sp, #4]
 5508 11fc 039089E0 		add	r9, r9, r3
 5509              	.LVL676:
 5510              	.L613:
 5511              	.LBE2017:
  94:C:/Renesas/e2studio_2021_01_workspace_RZA2M_ANPR/ANPR_RZA2M_GR_MANGO/src/tensorflow_lite/tensorflow/lite/kernels/internal/reference\pad.h ****           for (int out_d = 0; out_d < output_depth; ++out_d) {
 5512              		.loc 6 94 0
 5513 1200 01C08CE2 		add	ip, ip, #1
 5514              	.LVL677:
 5515 1204 07005CE1 		cmp	ip, r7
 5516 1208 C8FFFF1A 		bne	.L642
 5517              	.LVL678:
 5518              	.L612:
 5519              	.LBE2015:
  93:C:/Renesas/e2studio_2021_01_workspace_RZA2M_ANPR/ANPR_RZA2M_GR_MANGO/src/tensorflow_lite/tensorflow/lite/kernels/internal/reference\pad.h ****         for (int out_w = 0; out_w < output_width; ++out_w) {
 5520              		.loc 6 93 0
 5521 120c 10309DE5 		ldr	r3, [sp, #16]
 5522 1210 01E08EE2 		add	lr, lr, #1
 5523              	.LVL679:
 5524 1214 03005EE1 		cmp	lr, r3
 5525 1218 B0FFFF1A 		bne	.L643
 5526              	.LVL680:
 5527              	.L611:
 5528              	.LBE2014:
  92:C:/Renesas/e2studio_2021_01_workspace_RZA2M_ANPR/ANPR_RZA2M_GR_MANGO/src/tensorflow_lite/tensorflow/lite/kernels/internal/reference\pad.h ****       for (int out_h = 0; out_h < output_height; ++out_h) {
 5529              		.loc 6 92 0
 5530 121c 18309DE5 		ldr	r3, [sp, #24]
 5531 1220 1C209DE5 		ldr	r2, [sp, #28]
 5532 1224 013083E2 		add	r3, r3, #1
 5533 1228 020053E1 		cmp	r3, r2
 5534 122c 18308DE5 		str	r3, [sp, #24]
 5535              	.LVL681:
 5536 1230 98FFFF1A 		bne	.L644
 5537              	.LBE2013:
  91:C:/Renesas/e2studio_2021_01_workspace_RZA2M_ANPR/ANPR_RZA2M_GR_MANGO/src/tensorflow_lite/tensorflow/lite/kernels/internal/reference\pad.h ****     for (int out_p = 0; out_p < output_plane; ++out_p) {
 5538              		.loc 6 91 0
 5539 1234 44309DE5 		ldr	r3, [sp, #68]
 5540              	.LVL682:
 5541 1238 01A08AE2 		add	r10, r10, #1
 5542              	.LVL683:
 5543 123c 03005AE1 		cmp	r10, r3
 5544 1240 92FFFFBA 		blt	.L645
 5545              	.LVL684:
 5546              	.L610:
 5547              	.LBE2025:
 5548              	.LBB2026:
 5549              	.LBB1900:
 203:C:/Renesas/e2studio_2021_01_workspace_RZA2M_ANPR/ANPR_RZA2M_GR_MANGO/src/tensorflow_lite/tensorflow/lite/kernels/internal\types.h **** #ifdef TF_LITE_STATIC_MEMORY
 5550              		.loc 4 203 0
 5551 1244 40309DE5 		ldr	r3, [sp, #64]
 5552 1248 050053E3 		cmp	r3, #5
 5553 124c E7FCFF0A 		beq	.L609
 5554 1250 55FEFFEA 		b	.L606
 5555              	.LVL685:
 5556              	.L614:
 5557 1254 080051E3 		cmp	r1, #8
 5558 1258 E0FFFFDA 		ble	.L761
 5559 125c 203089E2 		add	r3, r9, #32
 5560              	.LBE1900:
 5561              	.LBE2026:
 5562              	.LBB2027:
 5563              	.LBB2022:
 5564              	.LBB2021:
 5565              	.LBB2020:
 5566              	.LBB2018:
 100:C:/Renesas/e2studio_2021_01_workspace_RZA2M_ANPR/ANPR_RZA2M_GR_MANGO/src/tensorflow_lite/tensorflow/lite/kernels/internal/reference\pad.h ****                 out_h >= output_height - right_h_padding ||
 5567              		.loc 6 100 0
 5568 1260 0020A0E3 		mov	r2, #0
 5569              	.LVL686:
 5570              	.L639:
 5571 1264 082082E2 		add	r2, r2, #8
 5572              	.LVL687:
 5573 1268 80F0D3F5 		pld	[r3, #128]
 5574 126c 000052E1 		cmp	r2, r0
 5575 1270 204003E5 		str	r4, [r3, #-32]
 5576              	.LVL688:
 5577 1274 1C4003E5 		str	r4, [r3, #-28]
 5578              	.LVL689:
 5579 1278 03B0A0E1 		mov	fp, r3
 5580 127c 184003E5 		str	r4, [r3, #-24]
 5581              	.LVL690:
 5582 1280 203083E2 		add	r3, r3, #32
 5583              	.LVL691:
 5584 1284 344003E5 		str	r4, [r3, #-52]
 5585              	.LVL692:
 5586 1288 304003E5 		str	r4, [r3, #-48]
 5587 128c 2C4003E5 		str	r4, [r3, #-44]
 5588 1290 284003E5 		str	r4, [r3, #-40]
 5589 1294 244003E5 		str	r4, [r3, #-36]
 5590              	.LVL693:
 5591 1298 F1FFFF1A 		bne	.L639
 5592              	.LVL694:
  95:C:/Renesas/e2studio_2021_01_workspace_RZA2M_ANPR/ANPR_RZA2M_GR_MANGO/src/tensorflow_lite/tensorflow/lite/kernels/internal/reference\pad.h ****             if (out_b < left_b_padding ||
 5593              		.loc 6 95 0
 5594 129c 012082E2 		add	r2, r2, #1
 5595              	.LVL695:
 5596 12a0 04408BE4 		str	r4, [fp], #4
 5597              	.LVL696:
 5598 12a4 020051E1 		cmp	r1, r2
 5599 12a8 CEFFFFCA 		bgt	.L641
 5600 12ac D1FFFFEA 		b	.L1321
 5601              	.LVL697:
 5602              	.L615:
 5603 12b0 080051E3 		cmp	r1, #8
 5604 12b4 730000DA 		ble	.L760
 5605 12b8 203089E2 		add	r3, r9, #32
 100:C:/Renesas/e2studio_2021_01_workspace_RZA2M_ANPR/ANPR_RZA2M_GR_MANGO/src/tensorflow_lite/tensorflow/lite/kernels/internal/reference\pad.h ****                 out_h >= output_height - right_h_padding ||
 5606              		.loc 6 100 0
 5607 12bc 0020A0E3 		mov	r2, #0
 5608              	.LVL698:
 5609              	.L635:
 5610 12c0 082082E2 		add	r2, r2, #8
 5611              	.LVL699:
 5612 12c4 80F0D3F5 		pld	[r3, #128]
 5613 12c8 000052E1 		cmp	r2, r0
 5614 12cc 204003E5 		str	r4, [r3, #-32]
 5615              	.LVL700:
 5616 12d0 1C4003E5 		str	r4, [r3, #-28]
 5617              	.LVL701:
 5618 12d4 03B0A0E1 		mov	fp, r3
 5619 12d8 184003E5 		str	r4, [r3, #-24]
 5620              	.LVL702:
 5621 12dc 203083E2 		add	r3, r3, #32
 5622              	.LVL703:
 5623 12e0 344003E5 		str	r4, [r3, #-52]
 5624              	.LVL704:
 5625 12e4 304003E5 		str	r4, [r3, #-48]
 5626 12e8 2C4003E5 		str	r4, [r3, #-44]
 5627 12ec 284003E5 		str	r4, [r3, #-40]
 5628 12f0 244003E5 		str	r4, [r3, #-36]
 5629              	.LVL705:
 5630 12f4 F1FFFF1A 		bne	.L635
 5631              	.L637:
 5632              	.LVL706:
  95:C:/Renesas/e2studio_2021_01_workspace_RZA2M_ANPR/ANPR_RZA2M_GR_MANGO/src/tensorflow_lite/tensorflow/lite/kernels/internal/reference\pad.h ****             if (out_b < left_b_padding ||
 5633              		.loc 6 95 0
 5634 12f8 012082E2 		add	r2, r2, #1
 5635              	.LVL707:
 5636 12fc 04408BE4 		str	r4, [fp], #4
 5637              	.LVL708:
 5638 1300 020051E1 		cmp	r1, r2
 5639 1304 BBFFFFDA 		ble	.L1321
 5640              	.L1451:
 5641 1308 012082E2 		add	r2, r2, #1
 5642              	.LVL709:
 5643 130c 04408BE4 		str	r4, [fp], #4
 5644              	.LVL710:
 5645 1310 020051E1 		cmp	r1, r2
 5646 1314 F7FFFFCA 		bgt	.L637
 5647 1318 B6FFFFEA 		b	.L1321
 5648              	.LVL711:
 5649              	.L616:
 5650 131c 0C209DE5 		ldr	r2, [sp, #12]
 5651 1320 000052E3 		cmp	r2, #0
 5652 1324 1900001A 		bne	.L625
 5653 1328 080051E3 		cmp	r1, #8
 5654 132c 690000DA 		ble	.L758
 5655 1330 203089E2 		add	r3, r9, #32
 5656              	.LVL712:
 5657              	.L627:
 5658 1334 082082E2 		add	r2, r2, #8
 5659              	.LVL713:
 5660 1338 80F0D3F5 		pld	[r3, #128]
 5661 133c 020050E1 		cmp	r0, r2
 5662 1340 204003E5 		str	r4, [r3, #-32]
 5663              	.LVL714:
 5664 1344 1C4003E5 		str	r4, [r3, #-28]
 5665              	.LVL715:
 5666 1348 03B0A0E1 		mov	fp, r3
 5667 134c 184003E5 		str	r4, [r3, #-24]
 5668              	.LVL716:
 5669 1350 203083E2 		add	r3, r3, #32
 5670              	.LVL717:
 5671 1354 344003E5 		str	r4, [r3, #-52]
 5672              	.LVL718:
 5673 1358 304003E5 		str	r4, [r3, #-48]
 5674 135c 2C4003E5 		str	r4, [r3, #-44]
 5675 1360 284003E5 		str	r4, [r3, #-40]
 5676 1364 244003E5 		str	r4, [r3, #-36]
 5677              	.LVL719:
 5678 1368 F1FFFF1A 		bne	.L627
 5679              	.L629:
 5680              	.LVL720:
 5681 136c 012082E2 		add	r2, r2, #1
 5682              	.LVL721:
 5683 1370 04408BE4 		str	r4, [fp], #4
 5684              	.LVL722:
 5685 1374 020051E1 		cmp	r1, r2
 5686 1378 9EFFFFDA 		ble	.L1321
 5687              	.L1452:
 5688 137c 012082E2 		add	r2, r2, #1
 5689              	.LVL723:
 5690 1380 04408BE4 		str	r4, [fp], #4
 5691              	.LVL724:
 5692 1384 020051E1 		cmp	r1, r2
 5693 1388 F7FFFFCA 		bgt	.L629
 5694 138c 99FFFFEA 		b	.L1321
 5695              	.LVL725:
 5696              	.L625:
 5697 1390 080051E3 		cmp	r1, #8
 5698 1394 480000DA 		ble	.L759
 100:C:/Renesas/e2studio_2021_01_workspace_RZA2M_ANPR/ANPR_RZA2M_GR_MANGO/src/tensorflow_lite/tensorflow/lite/kernels/internal/reference\pad.h ****                 out_h >= output_height - right_h_padding ||
 5699              		.loc 6 100 0
 5700 1398 08209DE5 		ldr	r2, [sp, #8]
 5701 139c 203089E2 		add	r3, r9, #32
 5702              	.LVL726:
 5703              	.L631:
 5704 13a0 082082E2 		add	r2, r2, #8
 5705              	.LVL727:
 5706 13a4 80F0D3F5 		pld	[r3, #128]
 5707 13a8 000052E1 		cmp	r2, r0
 5708 13ac 204003E5 		str	r4, [r3, #-32]
 5709              	.LVL728:
 5710 13b0 1C4003E5 		str	r4, [r3, #-28]
 5711              	.LVL729:
 5712 13b4 03B0A0E1 		mov	fp, r3
 5713 13b8 184003E5 		str	r4, [r3, #-24]
 5714              	.LVL730:
 5715 13bc 203083E2 		add	r3, r3, #32
 5716              	.LVL731:
 5717 13c0 344003E5 		str	r4, [r3, #-52]
 5718              	.LVL732:
 5719 13c4 304003E5 		str	r4, [r3, #-48]
 5720 13c8 2C4003E5 		str	r4, [r3, #-44]
 5721 13cc 284003E5 		str	r4, [r3, #-40]
 5722 13d0 244003E5 		str	r4, [r3, #-36]
 5723              	.LVL733:
 5724 13d4 F1FFFF1A 		bne	.L631
 5725              	.L633:
 5726              	.LVL734:
  95:C:/Renesas/e2studio_2021_01_workspace_RZA2M_ANPR/ANPR_RZA2M_GR_MANGO/src/tensorflow_lite/tensorflow/lite/kernels/internal/reference\pad.h ****             if (out_b < left_b_padding ||
 5727              		.loc 6 95 0
 5728 13d8 012082E2 		add	r2, r2, #1
 5729              	.LVL735:
 5730 13dc 04408BE4 		str	r4, [fp], #4
 5731              	.LVL736:
 5732 13e0 020051E1 		cmp	r1, r2
 5733 13e4 83FFFFDA 		ble	.L1321
 5734              	.L1453:
 5735 13e8 012082E2 		add	r2, r2, #1
 5736              	.LVL737:
 5737 13ec 04408BE4 		str	r4, [fp], #4
 5738              	.LVL738:
 5739 13f0 020051E1 		cmp	r1, r2
 5740 13f4 F7FFFFCA 		bgt	.L633
 5741 13f8 7EFFFFEA 		b	.L1321
 5742              	.LVL739:
 5743              	.L617:
 5744 13fc 080051E3 		cmp	r1, #8
 5745 1400 270000DA 		ble	.L757
 5746 1404 203089E2 		add	r3, r9, #32
 5747              	.LVL740:
 5748              	.L622:
 5749 1408 082082E2 		add	r2, r2, #8
 5750              	.LVL741:
 5751 140c 80F0D3F5 		pld	[r3, #128]
 5752 1410 020050E1 		cmp	r0, r2
 5753 1414 204003E5 		str	r4, [r3, #-32]
 5754              	.LVL742:
 5755 1418 1C4003E5 		str	r4, [r3, #-28]
 5756              	.LVL743:
 5757 141c 03B0A0E1 		mov	fp, r3
 5758 1420 184003E5 		str	r4, [r3, #-24]
 5759              	.LVL744:
 5760 1424 203083E2 		add	r3, r3, #32
 5761              	.LVL745:
 5762 1428 344003E5 		str	r4, [r3, #-52]
 5763              	.LVL746:
 5764 142c 304003E5 		str	r4, [r3, #-48]
 5765 1430 2C4003E5 		str	r4, [r3, #-44]
 5766 1434 284003E5 		str	r4, [r3, #-40]
 5767 1438 244003E5 		str	r4, [r3, #-36]
 5768              	.LVL747:
 5769 143c F1FFFF1A 		bne	.L622
 5770              	.L624:
 5771              	.LVL748:
 5772 1440 012082E2 		add	r2, r2, #1
 5773              	.LVL749:
 5774 1444 04408BE4 		str	r4, [fp], #4
 5775              	.LVL750:
 5776 1448 020051E1 		cmp	r1, r2
 5777 144c 69FFFFDA 		ble	.L1321
 5778              	.L1454:
 5779 1450 012082E2 		add	r2, r2, #1
 5780              	.LVL751:
 5781 1454 04408BE4 		str	r4, [fp], #4
 5782              	.LVL752:
 5783 1458 020051E1 		cmp	r1, r2
 5784 145c F7FFFFCA 		bgt	.L624
 5785 1460 64FFFFEA 		b	.L1321
 5786              	.LVL753:
 5787              	.L1497:
 5788 1464 34909DE5 		ldr	r9, [sp, #52]
 5789              	.LBE2018:
  94:C:/Renesas/e2studio_2021_01_workspace_RZA2M_ANPR/ANPR_RZA2M_GR_MANGO/src/tensorflow_lite/tensorflow/lite/kernels/internal/reference\pad.h ****           for (int out_d = 0; out_d < output_depth; ++out_d) {
 5790              		.loc 6 94 0
 5791 1468 01C08CE2 		add	ip, ip, #1
 5792              	.LVL754:
 5793 146c 04309DE5 		ldr	r3, [sp, #4]
 5794              	.LVL755:
 5795 1470 07005CE1 		cmp	ip, r7
 5796 1474 30A09DE5 		ldr	r10, [sp, #48]
 5797 1478 38009DE5 		ldr	r0, [sp, #56]
 5798 147c 039089E0 		add	r9, r9, r3
 5799              	.LVL756:
 5800 1480 2AFFFF1A 		bne	.L642
 5801 1484 60FFFFEA 		b	.L612
 5802              	.LVL757:
 5803              	.L760:
 5804              	.LBB2019:
 100:C:/Renesas/e2studio_2021_01_workspace_RZA2M_ANPR/ANPR_RZA2M_GR_MANGO/src/tensorflow_lite/tensorflow/lite/kernels/internal/reference\pad.h ****                 out_h >= output_height - right_h_padding ||
 5805              		.loc 6 100 0
 5806 1488 0020A0E3 		mov	r2, #0
 5807              	.LVL758:
 5808 148c 09B0A0E1 		mov	fp, r9
 5809              	.LVL759:
  95:C:/Renesas/e2studio_2021_01_workspace_RZA2M_ANPR/ANPR_RZA2M_GR_MANGO/src/tensorflow_lite/tensorflow/lite/kernels/internal/reference\pad.h ****             if (out_b < left_b_padding ||
 5810              		.loc 6 95 0
 5811 1490 012082E2 		add	r2, r2, #1
 5812              	.LVL760:
 5813 1494 04408BE4 		str	r4, [fp], #4
 5814              	.LVL761:
 5815 1498 020051E1 		cmp	r1, r2
 5816 149c 99FFFFCA 		bgt	.L1451
 5817 14a0 54FFFFEA 		b	.L1321
 5818              	.LVL762:
 5819              	.L757:
 5820 14a4 012082E2 		add	r2, r2, #1
 100:C:/Renesas/e2studio_2021_01_workspace_RZA2M_ANPR/ANPR_RZA2M_GR_MANGO/src/tensorflow_lite/tensorflow/lite/kernels/internal/reference\pad.h ****                 out_h >= output_height - right_h_padding ||
 5821              		.loc 6 100 0
 5822 14a8 09B0A0E1 		mov	fp, r9
 5823              	.LVL763:
  95:C:/Renesas/e2studio_2021_01_workspace_RZA2M_ANPR/ANPR_RZA2M_GR_MANGO/src/tensorflow_lite/tensorflow/lite/kernels/internal/reference\pad.h ****             if (out_b < left_b_padding ||
 5824              		.loc 6 95 0
 5825 14ac 020051E1 		cmp	r1, r2
 5826 14b0 04408BE4 		str	r4, [fp], #4
 5827              	.LVL764:
 5828 14b4 E5FFFFCA 		bgt	.L1454
 5829 14b8 4EFFFFEA 		b	.L1321
 5830              	.LVL765:
 5831              	.L759:
 100:C:/Renesas/e2studio_2021_01_workspace_RZA2M_ANPR/ANPR_RZA2M_GR_MANGO/src/tensorflow_lite/tensorflow/lite/kernels/internal/reference\pad.h ****                 out_h >= output_height - right_h_padding ||
 5832              		.loc 6 100 0
 5833 14bc 08209DE5 		ldr	r2, [sp, #8]
 5834              	.LVL766:
 5835 14c0 09B0A0E1 		mov	fp, r9
 5836              	.LVL767:
 5837 14c4 04408BE4 		str	r4, [fp], #4
 5838              	.LVL768:
  95:C:/Renesas/e2studio_2021_01_workspace_RZA2M_ANPR/ANPR_RZA2M_GR_MANGO/src/tensorflow_lite/tensorflow/lite/kernels/internal/reference\pad.h ****             if (out_b < left_b_padding ||
 5839              		.loc 6 95 0
 5840 14c8 012082E2 		add	r2, r2, #1
 5841              	.LVL769:
 5842 14cc 020051E1 		cmp	r1, r2
 5843 14d0 C4FFFFCA 		bgt	.L1453
 5844 14d4 47FFFFEA 		b	.L1321
 5845              	.LVL770:
 5846              	.L758:
 5847 14d8 012082E2 		add	r2, r2, #1
 100:C:/Renesas/e2studio_2021_01_workspace_RZA2M_ANPR/ANPR_RZA2M_GR_MANGO/src/tensorflow_lite/tensorflow/lite/kernels/internal/reference\pad.h ****                 out_h >= output_height - right_h_padding ||
 5848              		.loc 6 100 0
 5849 14dc 09B0A0E1 		mov	fp, r9
 5850              	.LVL771:
  95:C:/Renesas/e2studio_2021_01_workspace_RZA2M_ANPR/ANPR_RZA2M_GR_MANGO/src/tensorflow_lite/tensorflow/lite/kernels/internal/reference\pad.h ****             if (out_b < left_b_padding ||
 5851              		.loc 6 95 0
 5852 14e0 020051E1 		cmp	r1, r2
 5853 14e4 04408BE4 		str	r4, [fp], #4
 5854              	.LVL772:
 5855 14e8 A3FFFFCA 		bgt	.L1452
 5856 14ec 41FFFFEA 		b	.L1321
 5857              	.LVL773:
 5858              	.L1496:
 5859              	.LEHB36:
 5860              	.LBE2019:
 5861              	.LBE2020:
 5862              	.LBE2021:
 5863              	.LBE2022:
 5864              	.LBE2027:
 5865              	.LBB2028:
 5866              	.LBB2008:
 215:C:/Renesas/e2studio_2021_01_workspace_RZA2M_ANPR/ANPR_RZA2M_GR_MANGO/src/tensorflow_lite/tensorflow/lite/kernels/internal\types.h ****     return size_ > kMaxSmallSize ? dims_pointer_[i] : dims_[i];
 5867              		.loc 4 215 0
 5868 14f0 FEFFFFEB 		bl	abort
 5869              	.LVL774:
 5870              	.L714:
 5871              	.LBE2008:
 5872              	.LBE2028:
 5873              	.LBB2029:
 5874              	.LBB2000:
 5875 14f4 FEFFFFEB 		bl	abort
 5876              	.LVL775:
 5877              	.L791:
 5878 14f8 69FBFFEA 		b	.L654
 5879              	.LVL776:
 5880              	.L713:
 5881              	.LBE2000:
 5882              	.LBE2029:
 5883              	.LBB2030:
 5884              	.LBB1989:
 5885 14fc FEFFFFEB 		bl	abort
 5886              	.LVL777:
 5887              	.L1495:
 5888              	.LBE1989:
 5889              	.LBE2030:
 5890              	.LBB2031:
 5891              	.LBB1979:
 5892 1500 FEFFFFEB 		bl	abort
 5893              	.LVL778:
 5894              	.L1494:
 5895              	.LBE1979:
 5896              	.LBE2031:
 5897              	.LBB2032:
 5898              	.LBB1970:
 216:C:/Renesas/e2studio_2021_01_workspace_RZA2M_ANPR/ANPR_RZA2M_GR_MANGO/src/tensorflow_lite/tensorflow/lite/kernels/internal\types.h ****   }
 5899              		.loc 4 216 0
 5900 1504 D4309DE5 		ldr	r3, [sp, #212]
 5901              	.LBE1970:
 5902              	.LBE2032:
  76:C:/Renesas/e2studio_2021_01_workspace_RZA2M_ANPR/ANPR_RZA2M_GR_MANGO/src/tensorflow_lite/tensorflow/lite/kernels/internal/reference\pad.h ****   const int left_h_padding = left_padding_copy[2];
 5903              		.loc 6 76 0
 5904 1508 64209DE5 		ldr	r2, [sp, #100]
  75:C:/Renesas/e2studio_2021_01_workspace_RZA2M_ANPR/ANPR_RZA2M_GR_MANGO/src/tensorflow_lite/tensorflow/lite/kernels/internal/reference\pad.h ****   const int left_p_padding = left_padding_copy[1];
 5905              		.loc 6 75 0
 5906 150c 60709DE5 		ldr	r7, [sp, #96]
 5907              	.LBB2033:
 5908              	.LBB1980:
 216:C:/Renesas/e2studio_2021_01_workspace_RZA2M_ANPR/ANPR_RZA2M_GR_MANGO/src/tensorflow_lite/tensorflow/lite/kernels/internal\types.h ****   }
 5909              		.loc 4 216 0
 5910 1510 040093E5 		ldr	r0, [r3, #4]
 5911              	.LBE1980:
 5912              	.LBE2033:
  76:C:/Renesas/e2studio_2021_01_workspace_RZA2M_ANPR/ANPR_RZA2M_GR_MANGO/src/tensorflow_lite/tensorflow/lite/kernels/internal/reference\pad.h ****   const int left_h_padding = left_padding_copy[2];
 5913              		.loc 6 76 0
 5914 1514 4C208DE5 		str	r2, [sp, #76]
 5915              	.LBB2034:
 5916              	.LBB1971:
 216:C:/Renesas/e2studio_2021_01_workspace_RZA2M_ANPR/ANPR_RZA2M_GR_MANGO/src/tensorflow_lite/tensorflow/lite/kernels/internal\types.h ****   }
 5917              		.loc 4 216 0
 5918 1518 002093E5 		ldr	r2, [r3]
 5919 151c 48308DE5 		str	r3, [sp, #72]
 5920              	.LBE1971:
 5921              	.LBE2034:
 5922              	.LBB2035:
 5923              	.LBB2009:
 5924 1520 101093E5 		ldr	r1, [r3, #16]
 5925              	.LBE2009:
 5926              	.LBE2035:
 5927              	.LBB2036:
 5928              	.LBB1972:
 5929 1524 44208DE5 		str	r2, [sp, #68]
 5930              	.LVL779:
 5931              	.LBE1972:
 5932              	.LBE2036:
 5933              	.LBB2037:
  91:C:/Renesas/e2studio_2021_01_workspace_RZA2M_ANPR/ANPR_RZA2M_GR_MANGO/src/tensorflow_lite/tensorflow/lite/kernels/internal/reference\pad.h ****     for (int out_p = 0; out_p < output_plane; ++out_p) {
 5934              		.loc 6 91 0
 5935 1528 000052E3 		cmp	r2, #0
 5936              	.LBE2037:
 5937              	.LBB2038:
 5938              	.LBB2001:
 216:C:/Renesas/e2studio_2021_01_workspace_RZA2M_ANPR/ANPR_RZA2M_GR_MANGO/src/tensorflow_lite/tensorflow/lite/kernels/internal\types.h ****   }
 5939              		.loc 4 216 0
 5940 152c 0CA093E5 		ldr	r10, [r3, #12]
 5941              	.LBE2001:
 5942              	.LBE2038:
 5943              	.LBB2039:
 5944              	.LBB1990:
 5945 1530 082093E5 		ldr	r2, [r3, #8]
 5946              	.LBE1990:
 5947              	.LBE2039:
  77:C:/Renesas/e2studio_2021_01_workspace_RZA2M_ANPR/ANPR_RZA2M_GR_MANGO/src/tensorflow_lite/tensorflow/lite/kernels/internal/reference\pad.h ****   const int left_w_padding = left_padding_copy[3];
 5948              		.loc 6 77 0
 5949 1534 68309DE5 		ldr	r3, [sp, #104]
 5950              	.LBB2040:
 5951              	.LBB1981:
 216:C:/Renesas/e2studio_2021_01_workspace_RZA2M_ANPR/ANPR_RZA2M_GR_MANGO/src/tensorflow_lite/tensorflow/lite/kernels/internal\types.h ****   }
 5952              		.loc 4 216 0
 5953 1538 1C008DE5 		str	r0, [sp, #28]
 5954              	.LVL780:
 5955              	.LBE1981:
 5956              	.LBE2040:
 5957              	.LBB2041:
 5958              	.LBB1991:
 5959 153c 10208DE5 		str	r2, [sp, #16]
 5960              	.LVL781:
 5961              	.LBE1991:
 5962              	.LBE2041:
  77:C:/Renesas/e2studio_2021_01_workspace_RZA2M_ANPR/ANPR_RZA2M_GR_MANGO/src/tensorflow_lite/tensorflow/lite/kernels/internal/reference\pad.h ****   const int left_w_padding = left_padding_copy[3];
 5963              		.loc 6 77 0
 5964 1540 20308DE5 		str	r3, [sp, #32]
 5965              	.LVL782:
  79:C:/Renesas/e2studio_2021_01_workspace_RZA2M_ANPR/ANPR_RZA2M_GR_MANGO/src/tensorflow_lite/tensorflow/lite/kernels/internal/reference\pad.h **** 
 5966              		.loc 6 79 0
 5967 1544 70309DE5 		ldr	r3, [sp, #112]
 5968              	.LVL783:
  78:C:/Renesas/e2studio_2021_01_workspace_RZA2M_ANPR/ANPR_RZA2M_GR_MANGO/src/tensorflow_lite/tensorflow/lite/kernels/internal/reference\pad.h ****   const int left_d_padding = left_padding_copy[4];
 5969              		.loc 6 78 0
 5970 1548 6C609DE5 		ldr	r6, [sp, #108]
 5971              	.LVL784:
  79:C:/Renesas/e2studio_2021_01_workspace_RZA2M_ANPR/ANPR_RZA2M_GR_MANGO/src/tensorflow_lite/tensorflow/lite/kernels/internal/reference\pad.h **** 
 5972              		.loc 6 79 0
 5973 154c 3C308DE5 		str	r3, [sp, #60]
 5974              	.LVL785:
  81:C:/Renesas/e2studio_2021_01_workspace_RZA2M_ANPR/ANPR_RZA2M_GR_MANGO/src/tensorflow_lite/tensorflow/lite/kernels/internal/reference\pad.h ****   const int right_p_padding = right_padding_copy[1];
 5975              		.loc 6 81 0
 5976 1550 74309DE5 		ldr	r3, [sp, #116]
 5977              	.LVL786:
 5978 1554 50308DE5 		str	r3, [sp, #80]
 5979              	.LVL787:
  82:C:/Renesas/e2studio_2021_01_workspace_RZA2M_ANPR/ANPR_RZA2M_GR_MANGO/src/tensorflow_lite/tensorflow/lite/kernels/internal/reference\pad.h ****   const int right_h_padding = right_padding_copy[2];
 5980              		.loc 6 82 0
 5981 1558 78309DE5 		ldr	r3, [sp, #120]
 5982              	.LVL788:
 5983 155c 24308DE5 		str	r3, [sp, #36]
 5984              	.LVL789:
  83:C:/Renesas/e2studio_2021_01_workspace_RZA2M_ANPR/ANPR_RZA2M_GR_MANGO/src/tensorflow_lite/tensorflow/lite/kernels/internal/reference\pad.h ****   const int right_w_padding = right_padding_copy[3];
 5985              		.loc 6 83 0
 5986 1560 7C309DE5 		ldr	r3, [sp, #124]
 5987              	.LVL790:
 5988 1564 2C308DE5 		str	r3, [sp, #44]
 5989              	.LVL791:
  84:C:/Renesas/e2studio_2021_01_workspace_RZA2M_ANPR/ANPR_RZA2M_GR_MANGO/src/tensorflow_lite/tensorflow/lite/kernels/internal/reference\pad.h ****   const int right_d_padding = right_padding_copy[4];
 5990              		.loc 6 84 0
 5991 1568 80309DE5 		ldr	r3, [sp, #128]
 5992              	.LVL792:
 5993 156c 28308DE5 		str	r3, [sp, #40]
 5994              	.LVL793:
  85:C:/Renesas/e2studio_2021_01_workspace_RZA2M_ANPR/ANPR_RZA2M_GR_MANGO/src/tensorflow_lite/tensorflow/lite/kernels/internal/reference\pad.h **** 
 5995              		.loc 6 85 0
 5996 1570 84309DE5 		ldr	r3, [sp, #132]
 5997              	.LVL794:
 5998 1574 58308DE5 		str	r3, [sp, #88]
 5999              	.LVL795:
 6000              	.LBB2042:
  91:C:/Renesas/e2studio_2021_01_workspace_RZA2M_ANPR/ANPR_RZA2M_GR_MANGO/src/tensorflow_lite/tensorflow/lite/kernels/internal/reference\pad.h ****     for (int out_p = 0; out_p < output_plane; ++out_p) {
 6001              		.loc 6 91 0
 6002 1578 B6FEFFCA 		bgt	.L607
 6003 157c 8AFDFFEA 		b	.L606
 6004              	.LVL796:
 6005              	.L1493:
 6006              	.LBE2042:
 6007              	.LBB2043:
 6008              	.LBB1973:
 215:C:/Renesas/e2studio_2021_01_workspace_RZA2M_ANPR/ANPR_RZA2M_GR_MANGO/src/tensorflow_lite/tensorflow/lite/kernels/internal\types.h ****     return size_ > kMaxSmallSize ? dims_pointer_[i] : dims_[i];
 6009              		.loc 4 215 0
 6010 1580 FEFFFFEB 		bl	abort
 6011              	.LVL797:
 6012              	.LEHE36:
 6013              	.L1492:
 6014              	.LEHB37:
 6015              	.LBE1973:
 6016              	.LBE2043:
  46:C:/Renesas/e2studio_2021_01_workspace_RZA2M_ANPR/ANPR_RZA2M_GR_MANGO/src/tensorflow_lite/tensorflow/lite/kernels/internal/reference\pad.h ****   TFLITE_DCHECK_LE(op_params.right_padding_count, PadKernelMaxDimensionCount());
 6017              		.loc 6 46 0
 6018 1584 FEFFFFEB 		bl	abort
 6019              	.LVL798:
 6020              	.LEHE37:
 6021              	.L1491:
 6022              	.LEHB38:
 6023              	.LBB2044:
 6024              	.LBB1960:
 6025              	.LBB1959:
 6026              	.LBB1958:
 6027              	.LBB1957:
 308:C:/Renesas/e2studio_2021_01_workspace_RZA2M_ANPR/ANPR_RZA2M_GR_MANGO/src/tensorflow_lite/tensorflow/lite/kernels/internal\types.h ****     Resize(new_shape_size);
 6028              		.loc 4 308 0
 6029 1588 FEFFFFEB 		bl	abort
 6030              	.LVL799:
 6031              	.LEHE38:
 6032              	.L804:
 6033 158c 46FCFFEA 		b	.L1322
 6034              	.LVL800:
 6035              	.L596:
 6036              	.LEHB39:
 6037              	.LBE1957:
 6038              	.LBE1958:
 6039              	.LBE1959:
 6040              	.LBE1960:
 6041              	.LBE2044:
  47:C:/Renesas/e2studio_2021_01_workspace_RZA2M_ANPR/ANPR_RZA2M_GR_MANGO/src/tensorflow_lite/tensorflow/lite/kernels/internal/reference\pad.h **** 
 6042              		.loc 6 47 0
 6043 1590 FEFFFFEB 		bl	abort
 6044              	.LVL801:
 6045              	.LEHE39:
 6046              	.L805:
 6047 1594 44FCFFEA 		b	.L1322
 6048              	.LVL802:
 6049              	.L292:
 6050              	.LBE2050:
 6051              	.LBE2056:
 6052              	.LBE2072:
 6053              	.LBE2408:
 6054              	.LBB2409:
 6055              	.LBB2243:
 6056              	.LBB2242:
 6057              	.LBB2241:
 6058              	.LBB2124:
 6059              	.LBB2122:
 6060              	.LBB2120:
 6061              	.LBB2118:
 6062              	.LBB2116:
 6063              		.loc 4 315 0
 6064 1598 BC308DE2 		add	r3, sp, #188
 6065 159c 0221A0E1 		lsl	r2, r2, #2
 6066 15a0 000183E0 		add	r0, r3, r0, lsl #2
 6067              	.LVL803:
 6068 15a4 8C108DE2 		add	r1, sp, #140
 6069 15a8 FEFFFFEB 		bl	memcpy
 6070              	.LVL804:
 6071 15ac A0209DE5 		ldr	r2, [sp, #160]
 6072              	.LVL805:
 6073              	.LBE2116:
 6074              	.LBE2118:
 6075              	.LBE2120:
 6076              	.LBE2122:
 6077              	.LBE2124:
 6078              	.LBB2125:
 6079              	.LBB2126:
 6080              	.LBB2127:
 6081              	.LBB2128:
 305:C:/Renesas/e2studio_2021_01_workspace_RZA2M_ANPR/ANPR_RZA2M_GR_MANGO/src/tensorflow_lite/tensorflow/lite/kernels/internal\types.h ****     // If the following check fails, it is likely because a 4D-only kernel is
 6082              		.loc 4 305 0
 6083 15b0 0030A0E3 		mov	r3, #0
 6084 15b4 D0308DE5 		str	r3, [sp, #208]
 6085              	.LBB2129:
 308:C:/Renesas/e2studio_2021_01_workspace_RZA2M_ANPR/ANPR_RZA2M_GR_MANGO/src/tensorflow_lite/tensorflow/lite/kernels/internal\types.h ****     Resize(new_shape_size);
 6086              		.loc 4 308 0
 6087 15b8 050052E3 		cmp	r2, #5
 6088 15bc B90100CA 		bgt	.L1499
 6089              	.LVL806:
 6090              	.LBB2130:
 311:C:/Renesas/e2studio_2021_01_workspace_RZA2M_ANPR/ANPR_RZA2M_GR_MANGO/src/tensorflow_lite/tensorflow/lite/kernels/internal\types.h ****       SetDim(i, pad_value);
 6091              		.loc 4 311 0
 6092 15c0 050072E2 		rsbs	r0, r2, #5
 6093              	.LBE2130:
 6094              	.LBB2143:
 6095              	.LBB2144:
 245:C:/Renesas/e2studio_2021_01_workspace_RZA2M_ANPR/ANPR_RZA2M_GR_MANGO/src/tensorflow_lite/tensorflow/lite/kernels/internal\types.h ****     if (dimensions_count > kMaxSmallSize) {
 6096              		.loc 4 245 0
 6097 15c4 0530A0E3 		mov	r3, #5
 6098 15c8 D0308DE5 		str	r3, [sp, #208]
 6099              	.LVL807:
 6100              	.LBE2144:
 6101              	.LBE2143:
 6102              	.LBB2145:
 311:C:/Renesas/e2studio_2021_01_workspace_RZA2M_ANPR/ANPR_RZA2M_GR_MANGO/src/tensorflow_lite/tensorflow/lite/kernels/internal\types.h ****       SetDim(i, pad_value);
 6103              		.loc 4 311 0
 6104 15cc 1200000A 		beq	.L297
 6105              	.LVL808:
 6106 15d0 010050E3 		cmp	r0, #1
 6107              	.LBB2131:
 6108              	.LBB2132:
 224:C:/Renesas/e2studio_2021_01_workspace_RZA2M_ANPR/ANPR_RZA2M_GR_MANGO/src/tensorflow_lite/tensorflow/lite/kernels/internal\types.h ****     }
 6109              		.loc 4 224 0
 6110 15d4 0130A0E3 		mov	r3, #1
 6111 15d8 D4308DE5 		str	r3, [sp, #212]
 6112              	.LVL809:
 6113              	.LBE2132:
 6114              	.LBE2131:
 311:C:/Renesas/e2studio_2021_01_workspace_RZA2M_ANPR/ANPR_RZA2M_GR_MANGO/src/tensorflow_lite/tensorflow/lite/kernels/internal\types.h ****       SetDim(i, pad_value);
 6115              		.loc 4 311 0
 6116 15dc 0E00000A 		beq	.L297
 6117              	.LVL810:
 6118 15e0 020050E3 		cmp	r0, #2
 6119              	.LBB2138:
 6120              	.LBB2133:
 224:C:/Renesas/e2studio_2021_01_workspace_RZA2M_ANPR/ANPR_RZA2M_GR_MANGO/src/tensorflow_lite/tensorflow/lite/kernels/internal\types.h ****     }
 6121              		.loc 4 224 0
 6122 15e4 D8308DE5 		str	r3, [sp, #216]
 6123              	.LVL811:
 6124              	.LBE2133:
 6125              	.LBE2138:
 311:C:/Renesas/e2studio_2021_01_workspace_RZA2M_ANPR/ANPR_RZA2M_GR_MANGO/src/tensorflow_lite/tensorflow/lite/kernels/internal\types.h ****       SetDim(i, pad_value);
 6126              		.loc 4 311 0
 6127 15e8 0B00000A 		beq	.L297
 6128              	.LVL812:
 6129 15ec 030050E3 		cmp	r0, #3
 6130              	.LBB2139:
 6131              	.LBB2134:
 224:C:/Renesas/e2studio_2021_01_workspace_RZA2M_ANPR/ANPR_RZA2M_GR_MANGO/src/tensorflow_lite/tensorflow/lite/kernels/internal\types.h ****     }
 6132              		.loc 4 224 0
 6133 15f0 DC308DE5 		str	r3, [sp, #220]
 6134              	.LVL813:
 6135              	.LBE2134:
 6136              	.LBE2139:
 311:C:/Renesas/e2studio_2021_01_workspace_RZA2M_ANPR/ANPR_RZA2M_GR_MANGO/src/tensorflow_lite/tensorflow/lite/kernels/internal\types.h ****       SetDim(i, pad_value);
 6137              		.loc 4 311 0
 6138 15f4 0800000A 		beq	.L297
 6139              	.LVL814:
 6140 15f8 040050E3 		cmp	r0, #4
 6141              	.LBB2140:
 6142              	.LBB2135:
 224:C:/Renesas/e2studio_2021_01_workspace_RZA2M_ANPR/ANPR_RZA2M_GR_MANGO/src/tensorflow_lite/tensorflow/lite/kernels/internal\types.h ****     }
 6143              		.loc 4 224 0
 6144 15fc E0308DE5 		str	r3, [sp, #224]
 6145              	.LVL815:
 6146              	.LBE2135:
 6147              	.LBE2140:
 311:C:/Renesas/e2studio_2021_01_workspace_RZA2M_ANPR/ANPR_RZA2M_GR_MANGO/src/tensorflow_lite/tensorflow/lite/kernels/internal\types.h ****       SetDim(i, pad_value);
 6148              		.loc 4 311 0
 6149 1600 0500000A 		beq	.L297
 6150              	.LVL816:
 6151 1604 050050E3 		cmp	r0, #5
 6152              	.LBB2141:
 6153              	.LBB2136:
 224:C:/Renesas/e2studio_2021_01_workspace_RZA2M_ANPR/ANPR_RZA2M_GR_MANGO/src/tensorflow_lite/tensorflow/lite/kernels/internal\types.h ****     }
 6154              		.loc 4 224 0
 6155 1608 E4308DE5 		str	r3, [sp, #228]
 6156              	.LVL817:
 6157              	.LBE2136:
 6158              	.LBE2141:
 311:C:/Renesas/e2studio_2021_01_workspace_RZA2M_ANPR/ANPR_RZA2M_GR_MANGO/src/tensorflow_lite/tensorflow/lite/kernels/internal\types.h ****       SetDim(i, pad_value);
 6159              		.loc 4 311 0
 6160 160c 0200000A 		beq	.L297
 6161              	.LVL818:
 6162              	.LEHB40:
 6163              	.LBB2142:
 6164              	.LBB2137:
 220:C:/Renesas/e2studio_2021_01_workspace_RZA2M_ANPR/ANPR_RZA2M_GR_MANGO/src/tensorflow_lite/tensorflow/lite/kernels/internal\types.h ****     if (size_ > kMaxSmallSize) {
 6165              		.loc 4 220 0
 6166 1610 FEFFFFEB 		bl	abort
 6167              	.LVL819:
 6168              	.LEHE40:
 6169              	.L1490:
 6170              	.LEHB41:
 6171              	.LBE2137:
 6172              	.LBE2142:
 6173              	.LBE2145:
 6174              	.LBE2129:
 6175              	.LBE2128:
 6176              	.LBE2127:
 6177              	.LBE2126:
 6178              	.LBE2125:
 6179              	.LBB2154:
 6180              	.LBB2123:
 6181              	.LBB2121:
 6182              	.LBB2119:
 6183              	.LBB2117:
 308:C:/Renesas/e2studio_2021_01_workspace_RZA2M_ANPR/ANPR_RZA2M_GR_MANGO/src/tensorflow_lite/tensorflow/lite/kernels/internal\types.h ****     Resize(new_shape_size);
 6184              		.loc 4 308 0
 6185 1614 FEFFFFEB 		bl	abort
 6186              	.LVL820:
 6187              	.LEHE41:
 6188              	.L780:
 6189 1618 21FBFFEA 		b	.L654
 6190              	.LVL821:
 6191              	.L297:
 6192              	.LBE2117:
 6193              	.LBE2119:
 6194              	.LBE2121:
 6195              	.LBE2123:
 6196              	.LBE2154:
 6197              	.LBB2155:
 6198              	.LBB2152:
 6199              	.LBB2150:
 6200              	.LBB2148:
 6201              	.LBB2146:
 6202              		.loc 4 315 0
 6203 161c D4308DE2 		add	r3, sp, #212
 6204 1620 0221A0E1 		lsl	r2, r2, #2
 6205 1624 000183E0 		add	r0, r3, r0, lsl #2
 6206              	.LVL822:
 6207 1628 A4108DE2 		add	r1, sp, #164
 6208 162c FEFFFFEB 		bl	memcpy
 6209              	.LVL823:
 6210              	.LBE2146:
 6211              	.LBE2148:
 6212              	.LBE2150:
 6213              	.LBE2152:
 6214              	.LBE2155:
  46:C:/Renesas/e2studio_2021_01_workspace_RZA2M_ANPR/ANPR_RZA2M_GR_MANGO/src/tensorflow_lite/tensorflow/lite/kernels/internal/reference\pad.h ****   TFLITE_DCHECK_LE(op_params.right_padding_count, PadKernelMaxDimensionCount());
 6215              		.loc 6 46 0
 6216 1630 D020D5E1 		ldrsb	r2, [r5]
 6217 1634 050052E3 		cmp	r2, #5
 6218 1638 990100CA 		bgt	.L1500
  47:C:/Renesas/e2studio_2021_01_workspace_RZA2M_ANPR/ANPR_RZA2M_GR_MANGO/src/tensorflow_lite/tensorflow/lite/kernels/internal/reference\pad.h **** 
 6219              		.loc 6 47 0
 6220 163c D861D5E1 		ldrsb	r6, [r5, #24]
 6221              	.LVL824:
 6222 1640 050056E3 		cmp	r6, #5
 6223 1644 8F0100CA 		bgt	.L299
 6224              	.LVL825:
 6225              	.LBB2156:
  55:C:/Renesas/e2studio_2021_01_workspace_RZA2M_ANPR/ANPR_RZA2M_GR_MANGO/src/tensorflow_lite/tensorflow/lite/kernels/internal/reference\pad.h ****     left_padding_copy[i + PadKernelMaxDimensionCount() -
 6226              		.loc 6 55 0
 6227 1648 000052E3 		cmp	r2, #0
 6228              	.LBE2156:
 6229              	.LBB2157:
  53:C:/Renesas/e2studio_2021_01_workspace_RZA2M_ANPR/ANPR_RZA2M_GR_MANGO/src/tensorflow_lite/tensorflow/lite/kernels/internal/reference\pad.h ****   }
 6230              		.loc 6 53 0
 6231 164c 0030A0E3 		mov	r3, #0
 6232 1650 60308DE5 		str	r3, [sp, #96]
 6233              	.LVL826:
 6234 1654 64308DE5 		str	r3, [sp, #100]
 6235              	.LVL827:
 6236 1658 68308DE5 		str	r3, [sp, #104]
 6237              	.LVL828:
 6238 165c 6C308DE5 		str	r3, [sp, #108]
 6239              	.LVL829:
 6240 1660 70308DE5 		str	r3, [sp, #112]
 6241              	.LVL830:
 6242              	.LBE2157:
 6243              	.LBB2158:
  55:C:/Renesas/e2studio_2021_01_workspace_RZA2M_ANPR/ANPR_RZA2M_GR_MANGO/src/tensorflow_lite/tensorflow/lite/kernels/internal/reference\pad.h ****     left_padding_copy[i + PadKernelMaxDimensionCount() -
 6244              		.loc 6 55 0
 6245 1664 050000DA 		ble	.L300
  56:C:/Renesas/e2studio_2021_01_workspace_RZA2M_ANPR/ANPR_RZA2M_GR_MANGO/src/tensorflow_lite/tensorflow/lite/kernels/internal/reference\pad.h ****                       op_params.left_padding_count] = op_params.left_padding[i];
 6246              		.loc 6 56 0
 6247 1668 E8308DE2 		add	r3, sp, #232
 6248 166c 041085E2 		add	r1, r5, #4
 6249 1670 020143E0 		sub	r0, r3, r2, lsl #2
 6250 1674 0221A0E1 		lsl	r2, r2, #2
 6251 1678 740040E2 		sub	r0, r0, #116
 6252 167c FEFFFFEB 		bl	memcpy
 6253              	.LVL831:
 6254              	.L300:
 6255              	.LBE2158:
 6256              	.LBB2159:
  63:C:/Renesas/e2studio_2021_01_workspace_RZA2M_ANPR/ANPR_RZA2M_GR_MANGO/src/tensorflow_lite/tensorflow/lite/kernels/internal/reference\pad.h ****     right_padding_copy[i + PadKernelMaxDimensionCount() -
 6257              		.loc 6 63 0
 6258 1680 000056E3 		cmp	r6, #0
 6259              	.LBE2159:
 6260              	.LBB2160:
  61:C:/Renesas/e2studio_2021_01_workspace_RZA2M_ANPR/ANPR_RZA2M_GR_MANGO/src/tensorflow_lite/tensorflow/lite/kernels/internal/reference\pad.h ****   }
 6261              		.loc 6 61 0
 6262 1684 0030A0E3 		mov	r3, #0
 6263 1688 74308DE5 		str	r3, [sp, #116]
 6264              	.LVL832:
 6265 168c 78308DE5 		str	r3, [sp, #120]
 6266              	.LVL833:
 6267 1690 7C308DE5 		str	r3, [sp, #124]
 6268              	.LVL834:
 6269 1694 80308DE5 		str	r3, [sp, #128]
 6270              	.LVL835:
 6271 1698 84308DE5 		str	r3, [sp, #132]
 6272              	.LVL836:
 6273              	.LBE2160:
 6274              	.LBB2161:
  63:C:/Renesas/e2studio_2021_01_workspace_RZA2M_ANPR/ANPR_RZA2M_GR_MANGO/src/tensorflow_lite/tensorflow/lite/kernels/internal/reference\pad.h ****     right_padding_copy[i + PadKernelMaxDimensionCount() -
 6275              		.loc 6 63 0
 6276 169c 050000DA 		ble	.L307
  64:C:/Renesas/e2studio_2021_01_workspace_RZA2M_ANPR/ANPR_RZA2M_GR_MANGO/src/tensorflow_lite/tensorflow/lite/kernels/internal/reference\pad.h ****                        op_params.right_padding_count] =
 6277              		.loc 6 64 0
 6278 16a0 E8308DE2 		add	r3, sp, #232
 6279 16a4 1C1085E2 		add	r1, r5, #28
 6280 16a8 060143E0 		sub	r0, r3, r6, lsl #2
 6281 16ac 0621A0E1 		lsl	r2, r6, #2
 6282 16b0 600040E2 		sub	r0, r0, #96
 6283 16b4 FEFFFFEB 		bl	memcpy
 6284              	.LVL837:
 6285              	.L307:
 6286              	.LBE2161:
 6287              	.LBB2162:
 6288              	.LBB2163:
 215:C:/Renesas/e2studio_2021_01_workspace_RZA2M_ANPR/ANPR_RZA2M_GR_MANGO/src/tensorflow_lite/tensorflow/lite/kernels/internal\types.h ****     return size_ > kMaxSmallSize ? dims_pointer_[i] : dims_[i];
 6289              		.loc 4 215 0
 6290 16b8 D0309DE5 		ldr	r3, [sp, #208]
 6291 16bc 000053E3 		cmp	r3, #0
 6292 16c0 3C308DE5 		str	r3, [sp, #60]
 6293 16c4 6E0100DA 		ble	.L1501
 216:C:/Renesas/e2studio_2021_01_workspace_RZA2M_ANPR/ANPR_RZA2M_GR_MANGO/src/tensorflow_lite/tensorflow/lite/kernels/internal\types.h ****   }
 6294              		.loc 4 216 0
 6295 16c8 050053E3 		cmp	r3, #5
 6296 16cc 4D0100CA 		bgt	.L1502
 6297              	.LBE2163:
 6298              	.LBE2162:
 6299              	.LBB2169:
 6300              	.LBB2170:
 215:C:/Renesas/e2studio_2021_01_workspace_RZA2M_ANPR/ANPR_RZA2M_GR_MANGO/src/tensorflow_lite/tensorflow/lite/kernels/internal\types.h ****     return size_ > kMaxSmallSize ? dims_pointer_[i] : dims_[i];
 6301              		.loc 4 215 0
 6302 16d0 010053E3 		cmp	r3, #1
 6303              	.LBE2170:
 6304              	.LBE2169:
 6305              	.LBB2177:
 6306              	.LBB2164:
 216:C:/Renesas/e2studio_2021_01_workspace_RZA2M_ANPR/ANPR_RZA2M_GR_MANGO/src/tensorflow_lite/tensorflow/lite/kernels/internal\types.h ****   }
 6307              		.loc 4 216 0
 6308 16d4 D4309DE5 		ldr	r3, [sp, #212]
 6309 16d8 40308DE5 		str	r3, [sp, #64]
 6310              	.LVL838:
 6311              	.LBE2164:
 6312              	.LBE2177:
 6313              	.LBB2178:
 6314              	.LBB2171:
 215:C:/Renesas/e2studio_2021_01_workspace_RZA2M_ANPR/ANPR_RZA2M_GR_MANGO/src/tensorflow_lite/tensorflow/lite/kernels/internal\types.h ****     return size_ > kMaxSmallSize ? dims_pointer_[i] : dims_[i];
 6315              		.loc 4 215 0
 6316 16dc 6F01000A 		beq	.L1503
 6317              	.LBE2171:
 6318              	.LBE2178:
 6319              	.LBB2179:
 6320              	.LBB2180:
 6321 16e0 3C309DE5 		ldr	r3, [sp, #60]
 6322              	.LBE2180:
 6323              	.LBE2179:
 6324              	.LBB2187:
 6325              	.LBB2172:
 216:C:/Renesas/e2studio_2021_01_workspace_RZA2M_ANPR/ANPR_RZA2M_GR_MANGO/src/tensorflow_lite/tensorflow/lite/kernels/internal\types.h ****   }
 6326              		.loc 4 216 0
 6327 16e4 D8209DE5 		ldr	r2, [sp, #216]
 6328              	.LBE2172:
 6329              	.LBE2187:
 6330              	.LBB2188:
 6331              	.LBB2181:
 215:C:/Renesas/e2studio_2021_01_workspace_RZA2M_ANPR/ANPR_RZA2M_GR_MANGO/src/tensorflow_lite/tensorflow/lite/kernels/internal\types.h ****     return size_ > kMaxSmallSize ? dims_pointer_[i] : dims_[i];
 6332              		.loc 4 215 0
 6333 16e8 020053E3 		cmp	r3, #2
 6334              	.LBE2181:
 6335              	.LBE2188:
 6336              	.LBB2189:
 6337              	.LBB2173:
 216:C:/Renesas/e2studio_2021_01_workspace_RZA2M_ANPR/ANPR_RZA2M_GR_MANGO/src/tensorflow_lite/tensorflow/lite/kernels/internal\types.h ****   }
 6338              		.loc 4 216 0
 6339 16ec 18208DE5 		str	r2, [sp, #24]
 6340              	.LVL839:
 6341              	.LBE2173:
 6342              	.LBE2189:
 6343              	.LBB2190:
 6344              	.LBB2182:
 215:C:/Renesas/e2studio_2021_01_workspace_RZA2M_ANPR/ANPR_RZA2M_GR_MANGO/src/tensorflow_lite/tensorflow/lite/kernels/internal\types.h ****     return size_ > kMaxSmallSize ? dims_pointer_[i] : dims_[i];
 6345              		.loc 4 215 0
 6346 16f0 6901000A 		beq	.L693
 216:C:/Renesas/e2studio_2021_01_workspace_RZA2M_ANPR/ANPR_RZA2M_GR_MANGO/src/tensorflow_lite/tensorflow/lite/kernels/internal\types.h ****   }
 6347              		.loc 4 216 0
 6348 16f4 DC209DE5 		ldr	r2, [sp, #220]
 6349              	.LBE2182:
 6350              	.LBE2190:
 6351              	.LBB2191:
 6352              	.LBB2192:
 215:C:/Renesas/e2studio_2021_01_workspace_RZA2M_ANPR/ANPR_RZA2M_GR_MANGO/src/tensorflow_lite/tensorflow/lite/kernels/internal\types.h ****     return size_ > kMaxSmallSize ? dims_pointer_[i] : dims_[i];
 6353              		.loc 4 215 0
 6354 16f8 030053E3 		cmp	r3, #3
 6355              	.LBE2192:
 6356              	.LBE2191:
 6357              	.LBB2197:
 6358              	.LBB2183:
 216:C:/Renesas/e2studio_2021_01_workspace_RZA2M_ANPR/ANPR_RZA2M_GR_MANGO/src/tensorflow_lite/tensorflow/lite/kernels/internal\types.h ****   }
 6359              		.loc 4 216 0
 6360 16fc 10208DE5 		str	r2, [sp, #16]
 6361              	.LVL840:
 6362              	.LBE2183:
 6363              	.LBE2197:
 6364              	.LBB2198:
 6365              	.LBB2193:
 215:C:/Renesas/e2studio_2021_01_workspace_RZA2M_ANPR/ANPR_RZA2M_GR_MANGO/src/tensorflow_lite/tensorflow/lite/kernels/internal\types.h ****     return size_ > kMaxSmallSize ? dims_pointer_[i] : dims_[i];
 6366              		.loc 4 215 0
 6367 1700 6401000A 		beq	.L694
 6368              	.LBE2193:
 6369              	.LBE2198:
 6370              	.LBB2199:
 6371              	.LBB2200:
 6372 1704 040053E3 		cmp	r3, #4
 6373              	.LBE2200:
 6374              	.LBE2199:
 6375              	.LBB2205:
 6376              	.LBB2194:
 216:C:/Renesas/e2studio_2021_01_workspace_RZA2M_ANPR/ANPR_RZA2M_GR_MANGO/src/tensorflow_lite/tensorflow/lite/kernels/internal\types.h ****   }
 6377              		.loc 4 216 0
 6378 1708 E0A09DE5 		ldr	r10, [sp, #224]
 6379              	.LVL841:
 6380              	.LBE2194:
 6381              	.LBE2205:
 6382              	.LBB2206:
 6383              	.LBB2201:
 215:C:/Renesas/e2studio_2021_01_workspace_RZA2M_ANPR/ANPR_RZA2M_GR_MANGO/src/tensorflow_lite/tensorflow/lite/kernels/internal\types.h ****     return size_ > kMaxSmallSize ? dims_pointer_[i] : dims_[i];
 6384              		.loc 4 215 0
 6385 170c 6001000A 		beq	.L1504
 6386              	.LBE2201:
 6387              	.LBE2206:
  76:C:/Renesas/e2studio_2021_01_workspace_RZA2M_ANPR/ANPR_RZA2M_GR_MANGO/src/tensorflow_lite/tensorflow/lite/kernels/internal/reference\pad.h ****   const int left_h_padding = left_padding_copy[2];
 6388              		.loc 6 76 0
 6389 1710 64209DE5 		ldr	r2, [sp, #100]
 6390              	.LBB2207:
  91:C:/Renesas/e2studio_2021_01_workspace_RZA2M_ANPR/ANPR_RZA2M_GR_MANGO/src/tensorflow_lite/tensorflow/lite/kernels/internal/reference\pad.h ****     for (int out_p = 0; out_p < output_plane; ++out_p) {
 6391              		.loc 6 91 0
 6392 1714 40309DE5 		ldr	r3, [sp, #64]
 6393              	.LBE2207:
 6394              	.LBB2218:
 6395              	.LBB2202:
 216:C:/Renesas/e2studio_2021_01_workspace_RZA2M_ANPR/ANPR_RZA2M_GR_MANGO/src/tensorflow_lite/tensorflow/lite/kernels/internal\types.h ****   }
 6396              		.loc 4 216 0
 6397 1718 E4109DE5 		ldr	r1, [sp, #228]
 6398              	.LVL842:
 6399              	.LBE2202:
 6400              	.LBE2218:
  76:C:/Renesas/e2studio_2021_01_workspace_RZA2M_ANPR/ANPR_RZA2M_GR_MANGO/src/tensorflow_lite/tensorflow/lite/kernels/internal/reference\pad.h ****   const int left_h_padding = left_padding_copy[2];
 6401              		.loc 6 76 0
 6402 171c 54208DE5 		str	r2, [sp, #84]
  77:C:/Renesas/e2studio_2021_01_workspace_RZA2M_ANPR/ANPR_RZA2M_GR_MANGO/src/tensorflow_lite/tensorflow/lite/kernels/internal/reference\pad.h ****   const int left_w_padding = left_padding_copy[3];
 6403              		.loc 6 77 0
 6404 1720 68209DE5 		ldr	r2, [sp, #104]
 6405              	.LBB2219:
  91:C:/Renesas/e2studio_2021_01_workspace_RZA2M_ANPR/ANPR_RZA2M_GR_MANGO/src/tensorflow_lite/tensorflow/lite/kernels/internal/reference\pad.h ****     for (int out_p = 0; out_p < output_plane; ++out_p) {
 6406              		.loc 6 91 0
 6407 1724 000053E3 		cmp	r3, #0
 6408              	.LBE2219:
  75:C:/Renesas/e2studio_2021_01_workspace_RZA2M_ANPR/ANPR_RZA2M_GR_MANGO/src/tensorflow_lite/tensorflow/lite/kernels/internal/reference\pad.h ****   const int left_p_padding = left_padding_copy[1];
 6409              		.loc 6 75 0
 6410 1728 60609DE5 		ldr	r6, [sp, #96]
 6411              	.LVL843:
  78:C:/Renesas/e2studio_2021_01_workspace_RZA2M_ANPR/ANPR_RZA2M_GR_MANGO/src/tensorflow_lite/tensorflow/lite/kernels/internal/reference\pad.h ****   const int left_d_padding = left_padding_copy[4];
 6412              		.loc 6 78 0
 6413 172c 6C709DE5 		ldr	r7, [sp, #108]
  77:C:/Renesas/e2studio_2021_01_workspace_RZA2M_ANPR/ANPR_RZA2M_GR_MANGO/src/tensorflow_lite/tensorflow/lite/kernels/internal/reference\pad.h ****   const int left_w_padding = left_padding_copy[3];
 6414              		.loc 6 77 0
 6415 1730 20208DE5 		str	r2, [sp, #32]
 6416              	.LVL844:
  79:C:/Renesas/e2studio_2021_01_workspace_RZA2M_ANPR/ANPR_RZA2M_GR_MANGO/src/tensorflow_lite/tensorflow/lite/kernels/internal/reference\pad.h **** 
 6417              		.loc 6 79 0
 6418 1734 70209DE5 		ldr	r2, [sp, #112]
 6419              	.LVL845:
 6420 1738 44208DE5 		str	r2, [sp, #68]
 6421              	.LVL846:
  81:C:/Renesas/e2studio_2021_01_workspace_RZA2M_ANPR/ANPR_RZA2M_GR_MANGO/src/tensorflow_lite/tensorflow/lite/kernels/internal/reference\pad.h ****   const int right_p_padding = right_padding_copy[1];
 6422              		.loc 6 81 0
 6423 173c 74209DE5 		ldr	r2, [sp, #116]
 6424              	.LVL847:
 6425 1740 58208DE5 		str	r2, [sp, #88]
 6426              	.LVL848:
  82:C:/Renesas/e2studio_2021_01_workspace_RZA2M_ANPR/ANPR_RZA2M_GR_MANGO/src/tensorflow_lite/tensorflow/lite/kernels/internal/reference\pad.h ****   const int right_h_padding = right_padding_copy[2];
 6427              		.loc 6 82 0
 6428 1744 78209DE5 		ldr	r2, [sp, #120]
 6429              	.LVL849:
 6430 1748 2C208DE5 		str	r2, [sp, #44]
 6431              	.LVL850:
  83:C:/Renesas/e2studio_2021_01_workspace_RZA2M_ANPR/ANPR_RZA2M_GR_MANGO/src/tensorflow_lite/tensorflow/lite/kernels/internal/reference\pad.h ****   const int right_w_padding = right_padding_copy[3];
 6432              		.loc 6 83 0
 6433 174c 7C209DE5 		ldr	r2, [sp, #124]
 6434              	.LVL851:
 6435 1750 28208DE5 		str	r2, [sp, #40]
 6436              	.LVL852:
  84:C:/Renesas/e2studio_2021_01_workspace_RZA2M_ANPR/ANPR_RZA2M_GR_MANGO/src/tensorflow_lite/tensorflow/lite/kernels/internal/reference\pad.h ****   const int right_d_padding = right_padding_copy[4];
 6437              		.loc 6 84 0
 6438 1754 80209DE5 		ldr	r2, [sp, #128]
 6439              	.LVL853:
 6440 1758 24208DE5 		str	r2, [sp, #36]
 6441              	.LVL854:
  85:C:/Renesas/e2studio_2021_01_workspace_RZA2M_ANPR/ANPR_RZA2M_GR_MANGO/src/tensorflow_lite/tensorflow/lite/kernels/internal/reference\pad.h **** 
 6442              		.loc 6 85 0
 6443 175c 84209DE5 		ldr	r2, [sp, #132]
 6444              	.LVL855:
 6445 1760 4C208DE5 		str	r2, [sp, #76]
 6446              	.LVL856:
 6447              	.LBB2220:
  91:C:/Renesas/e2studio_2021_01_workspace_RZA2M_ANPR/ANPR_RZA2M_GR_MANGO/src/tensorflow_lite/tensorflow/lite/kernels/internal/reference\pad.h ****     for (int out_p = 0; out_p < output_plane; ++out_p) {
 6448              		.loc 6 91 0
 6449 1764 A1FBFFDA 		ble	.L609
 6450 1768 48308DE5 		str	r3, [sp, #72]
 6451              	.LVL857:
 6452              	.L310:
 6453 176c 18309DE5 		ldr	r3, [sp, #24]
 6454 1770 000053E3 		cmp	r3, #0
 6455 1774 750000DA 		ble	.L313
 6456 1778 0131A0E1 		lsl	r3, r1, #2
 6457 177c 090041E2 		sub	r0, r1, #9
 6458 1780 0700C0E3 		bic	r0, r0, #7
 6459 1784 04308DE5 		str	r3, [sp, #4]
 6460 1788 0630A0E1 		mov	r3, r6
 6461 178c 080080E2 		add	r0, r0, #8
 6462 1790 0A60A0E1 		mov	r6, r10
 6463              	.LVL858:
 6464 1794 0080A0E3 		mov	r8, #0
 6465              	.LVL859:
 6466 1798 07A0A0E1 		mov	r10, r7
 6467 179c 0370A0E1 		mov	r7, r3
 6468              	.LVL860:
 6469              	.L348:
 6470 17a0 0030A0E3 		mov	r3, #0
 6471 17a4 14308DE5 		str	r3, [sp, #20]
 6472 17a8 0730A0E1 		mov	r3, r7
 6473 17ac 0A70A0E1 		mov	r7, r10
 6474              	.LVL861:
 6475 17b0 03A0A0E1 		mov	r10, r3
 6476              	.LVL862:
 6477              	.L347:
 6478              	.LBB2208:
 6479              	.LBB2209:
  93:C:/Renesas/e2studio_2021_01_workspace_RZA2M_ANPR/ANPR_RZA2M_GR_MANGO/src/tensorflow_lite/tensorflow/lite/kernels/internal/reference\pad.h ****         for (int out_w = 0; out_w < output_width; ++out_w) {
 6480              		.loc 6 93 0
 6481 17b4 10309DE5 		ldr	r3, [sp, #16]
 6482 17b8 000053E3 		cmp	r3, #0
 6483 17bc 560000DA 		ble	.L314
 6484              	.LBB2210:
 6485              	.LBB2211:
  97:C:/Renesas/e2studio_2021_01_workspace_RZA2M_ANPR/ANPR_RZA2M_GR_MANGO/src/tensorflow_lite/tensorflow/lite/kernels/internal/reference\pad.h ****                 out_p < left_p_padding ||
 6486              		.loc 6 97 0
 6487 17c0 58209DE5 		ldr	r2, [sp, #88]
  96:C:/Renesas/e2studio_2021_01_workspace_RZA2M_ANPR/ANPR_RZA2M_GR_MANGO/src/tensorflow_lite/tensorflow/lite/kernels/internal/reference\pad.h ****                 out_b >= output_batch - right_b_padding ||
 6488              		.loc 6 96 0
 6489 17c4 00E0A0E3 		mov	lr, #0
  97:C:/Renesas/e2studio_2021_01_workspace_RZA2M_ANPR/ANPR_RZA2M_GR_MANGO/src/tensorflow_lite/tensorflow/lite/kernels/internal/reference\pad.h ****                 out_p < left_p_padding ||
 6490              		.loc 6 97 0
 6491 17c8 40309DE5 		ldr	r3, [sp, #64]
 6492 17cc 54C09DE5 		ldr	ip, [sp, #84]
 6493 17d0 023043E0 		sub	r3, r3, r2
 6494 17d4 14209DE5 		ldr	r2, [sp, #20]
 6495 17d8 0C0052E1 		cmp	r2, ip
 6496 17dc 080053A1 		cmpge	r3, r8
 6497 17e0 0130A0D3 		movle	r3, #1
 6498 17e4 0030A0C3 		movgt	r3, #0
 6499 17e8 08308DE5 		str	r3, [sp, #8]
 105:C:/Renesas/e2studio_2021_01_workspace_RZA2M_ANPR/ANPR_RZA2M_GR_MANGO/src/tensorflow_lite/tensorflow/lite/kernels/internal/reference\pad.h ****               *out_ptr++ = pad_value;
 6500              		.loc 6 105 0
 6501 17ec 4C309DE5 		ldr	r3, [sp, #76]
 6502 17f0 033041E0 		sub	r3, r1, r3
 6503 17f4 5C308DE5 		str	r3, [sp, #92]
 6504              	.LVL863:
 6505              	.L346:
 6506              	.LBE2211:
  94:C:/Renesas/e2studio_2021_01_workspace_RZA2M_ANPR/ANPR_RZA2M_GR_MANGO/src/tensorflow_lite/tensorflow/lite/kernels/internal/reference\pad.h ****           for (int out_d = 0; out_d < output_depth; ++out_d) {
 6507              		.loc 6 94 0
 6508 17f8 000056E3 		cmp	r6, #0
 6509 17fc 420000DA 		ble	.L315
 6510              	.LBB2212:
  99:C:/Renesas/e2studio_2021_01_workspace_RZA2M_ANPR/ANPR_RZA2M_GR_MANGO/src/tensorflow_lite/tensorflow/lite/kernels/internal/reference\pad.h ****                 out_h < left_h_padding ||
 6511              		.loc 6 99 0
 6512 1800 2C209DE5 		ldr	r2, [sp, #44]
  98:C:/Renesas/e2studio_2021_01_workspace_RZA2M_ANPR/ANPR_RZA2M_GR_MANGO/src/tensorflow_lite/tensorflow/lite/kernels/internal/reference\pad.h ****                 out_p >= output_plane - right_p_padding ||
 6513              		.loc 6 98 0
 6514 1804 00C0A0E3 		mov	ip, #0
  99:C:/Renesas/e2studio_2021_01_workspace_RZA2M_ANPR/ANPR_RZA2M_GR_MANGO/src/tensorflow_lite/tensorflow/lite/kernels/internal/reference\pad.h ****                 out_h < left_h_padding ||
 6515              		.loc 6 99 0
 6516 1808 18309DE5 		ldr	r3, [sp, #24]
 6517 180c 20509DE5 		ldr	r5, [sp, #32]
 6518 1810 023043E0 		sub	r3, r3, r2
 6519 1814 14209DE5 		ldr	r2, [sp, #20]
 6520 1818 05005EE1 		cmp	lr, r5
 6521 181c 020053A1 		cmpge	r3, r2
 101:C:/Renesas/e2studio_2021_01_workspace_RZA2M_ANPR/ANPR_RZA2M_GR_MANGO/src/tensorflow_lite/tensorflow/lite/kernels/internal/reference\pad.h ****                 out_w < left_w_padding ||
 6522              		.loc 6 101 0
 6523 1820 28209DE5 		ldr	r2, [sp, #40]
 6524 1824 0130A0D3 		movle	r3, #1
 6525 1828 0030A0C3 		movgt	r3, #0
 6526 182c 0C308DE5 		str	r3, [sp, #12]
 6527 1830 10309DE5 		ldr	r3, [sp, #16]
 6528 1834 025043E0 		sub	r5, r3, r2
 6529 1838 24309DE5 		ldr	r3, [sp, #36]
 6530 183c 033046E0 		sub	r3, r6, r3
 6531 1840 1C308DE5 		str	r3, [sp, #28]
 6532              	.LVL864:
 6533              	.L345:
  95:C:/Renesas/e2studio_2021_01_workspace_RZA2M_ANPR/ANPR_RZA2M_GR_MANGO/src/tensorflow_lite/tensorflow/lite/kernels/internal/reference\pad.h ****             if (out_b < left_b_padding ||
 6534              		.loc 6 95 0
 6535 1844 000051E3 		cmp	r1, #0
 6536 1848 2C0000DA 		ble	.L316
 6537 184c 07005CE1 		cmp	ip, r7
 6538 1850 0E0055A1 		cmpge	r5, lr
 6539 1854 0130A0D3 		movle	r3, #1
 6540 1858 0030A0C3 		movgt	r3, #0
 6541 185c 0A0058E1 		cmp	r8, r10
 6542 1860 3E0000BA 		blt	.L317
 6543 1864 08209DE5 		ldr	r2, [sp, #8]
 6544 1868 000052E3 		cmp	r2, #0
 6545 186c 5700001A 		bne	.L318
 6546 1870 000053E3 		cmp	r3, #0
 6547 1874 7000001A 		bne	.L319
 6548 1878 0C309DE5 		ldr	r3, [sp, #12]
 6549 187c 000053E3 		cmp	r3, #0
 6550 1880 A500001A 		bne	.L320
 100:C:/Renesas/e2studio_2021_01_workspace_RZA2M_ANPR/ANPR_RZA2M_GR_MANGO/src/tensorflow_lite/tensorflow/lite/kernels/internal/reference\pad.h ****                 out_h >= output_height - right_h_padding ||
 6551              		.loc 6 100 0
 6552 1884 30708DE5 		str	r7, [sp, #48]
 6553 1888 0920A0E1 		mov	r2, r9
 6554 188c 34E08DE5 		str	lr, [sp, #52]
 6555 1890 44709DE5 		ldr	r7, [sp, #68]
 6556 1894 1CB09DE5 		ldr	fp, [sp, #28]
 6557 1898 38008DE5 		str	r0, [sp, #56]
 6558 189c 0A0000EA 		b	.L322
 6559              	.LVL865:
 6560              	.L1506:
 104:C:/Renesas/e2studio_2021_01_workspace_RZA2M_ANPR/ANPR_RZA2M_GR_MANGO/src/tensorflow_lite/tensorflow/lite/kernels/internal/reference\pad.h ****                 out_d >= output_depth - right_d_padding) {
 6561              		.loc 6 104 0
 6562 18a0 5C009DE5 		ldr	r0, [sp, #92]
 6563 18a4 030050E1 		cmp	r0, r3
 6564 18a8 0A0000DA 		ble	.L730
 6565              	.LVL866:
 6566              		.loc 6 108 0
 6567 18ac 50009DE5 		ldr	r0, [sp, #80]
  95:C:/Renesas/e2studio_2021_01_workspace_RZA2M_ANPR/ANPR_RZA2M_GR_MANGO/src/tensorflow_lite/tensorflow/lite/kernels/internal/reference\pad.h ****             if (out_b < left_b_padding ||
 6568              		.loc 6 95 0
 6569 18b0 013083E2 		add	r3, r3, #1
 6570              	.LVL867:
 6571 18b4 010053E1 		cmp	r3, r1
 6572              		.loc 6 108 0
 6573 18b8 00E090E5 		ldr	lr, [r0]	@ float
 6574 18bc 040080E2 		add	r0, r0, #4
 6575              	.LVL868:
 6576 18c0 50008DE5 		str	r0, [sp, #80]
 6577 18c4 04E082E4 		str	lr, [r2], #4	@ float
 6578              	.LVL869:
  95:C:/Renesas/e2studio_2021_01_workspace_RZA2M_ANPR/ANPR_RZA2M_GR_MANGO/src/tensorflow_lite/tensorflow/lite/kernels/internal/reference\pad.h ****             if (out_b < left_b_padding ||
 6579              		.loc 6 95 0
 6580 18c8 0700000A 		beq	.L1505
 6581              	.LVL870:
 6582              	.L322:
 103:C:/Renesas/e2studio_2021_01_workspace_RZA2M_ANPR/ANPR_RZA2M_GR_MANGO/src/tensorflow_lite/tensorflow/lite/kernels/internal/reference\pad.h ****                 out_d < left_d_padding ||
 6583              		.loc 6 103 0
 6584 18cc 070053E1 		cmp	r3, r7
 6585 18d0 0C005BA1 		cmpge	fp, ip
 6586 18d4 F1FFFFCA 		bgt	.L1506
 6587              	.L730:
  95:C:/Renesas/e2studio_2021_01_workspace_RZA2M_ANPR/ANPR_RZA2M_GR_MANGO/src/tensorflow_lite/tensorflow/lite/kernels/internal/reference\pad.h ****             if (out_b < left_b_padding ||
 6588              		.loc 6 95 0
 6589 18d8 013083E2 		add	r3, r3, #1
 6590              	.LVL871:
 106:C:/Renesas/e2studio_2021_01_workspace_RZA2M_ANPR/ANPR_RZA2M_GR_MANGO/src/tensorflow_lite/tensorflow/lite/kernels/internal/reference\pad.h ****             } else {
 6591              		.loc 6 106 0
 6592 18dc 04E0A0E1 		mov	lr, r4	@ float
  95:C:/Renesas/e2studio_2021_01_workspace_RZA2M_ANPR/ANPR_RZA2M_GR_MANGO/src/tensorflow_lite/tensorflow/lite/kernels/internal/reference\pad.h ****             if (out_b < left_b_padding ||
 6593              		.loc 6 95 0
 6594 18e0 010053E1 		cmp	r3, r1
 6595 18e4 04E082E4 		str	lr, [r2], #4	@ float
 6596              	.LVL872:
 6597 18e8 F7FFFF1A 		bne	.L322
 6598              	.L1505:
 6599 18ec 04309DE5 		ldr	r3, [sp, #4]
 6600              	.LVL873:
 6601 18f0 30709DE5 		ldr	r7, [sp, #48]
 6602 18f4 34E09DE5 		ldr	lr, [sp, #52]
 6603 18f8 38009DE5 		ldr	r0, [sp, #56]
 6604 18fc 039089E0 		add	r9, r9, r3
 6605              	.L316:
 6606              	.LBE2212:
  94:C:/Renesas/e2studio_2021_01_workspace_RZA2M_ANPR/ANPR_RZA2M_GR_MANGO/src/tensorflow_lite/tensorflow/lite/kernels/internal/reference\pad.h ****           for (int out_d = 0; out_d < output_depth; ++out_d) {
 6607              		.loc 6 94 0
 6608 1900 01C08CE2 		add	ip, ip, #1
 6609              	.LVL874:
 6610 1904 06005CE1 		cmp	ip, r6
 6611 1908 CDFFFF1A 		bne	.L345
 6612              	.LVL875:
 6613              	.L315:
 6614              	.LBE2210:
  93:C:/Renesas/e2studio_2021_01_workspace_RZA2M_ANPR/ANPR_RZA2M_GR_MANGO/src/tensorflow_lite/tensorflow/lite/kernels/internal/reference\pad.h ****         for (int out_w = 0; out_w < output_width; ++out_w) {
 6615              		.loc 6 93 0
 6616 190c 10309DE5 		ldr	r3, [sp, #16]
 6617 1910 01E08EE2 		add	lr, lr, #1
 6618              	.LVL876:
 6619 1914 03005EE1 		cmp	lr, r3
 6620 1918 B6FFFF1A 		bne	.L346
 6621              	.LVL877:
 6622              	.L314:
 6623              	.LBE2209:
  92:C:/Renesas/e2studio_2021_01_workspace_RZA2M_ANPR/ANPR_RZA2M_GR_MANGO/src/tensorflow_lite/tensorflow/lite/kernels/internal/reference\pad.h ****       for (int out_h = 0; out_h < output_height; ++out_h) {
 6624              		.loc 6 92 0
 6625 191c 14309DE5 		ldr	r3, [sp, #20]
 6626 1920 18209DE5 		ldr	r2, [sp, #24]
 6627 1924 013083E2 		add	r3, r3, #1
 6628 1928 020053E1 		cmp	r3, r2
 6629 192c 14308DE5 		str	r3, [sp, #20]
 6630              	.LVL878:
 6631 1930 9FFFFF1A 		bne	.L347
 6632 1934 0A30A0E1 		mov	r3, r10
 6633              	.LVL879:
 6634 1938 07A0A0E1 		mov	r10, r7
 6635              	.LVL880:
 6636 193c 0370A0E1 		mov	r7, r3
 6637              	.LBE2208:
  91:C:/Renesas/e2studio_2021_01_workspace_RZA2M_ANPR/ANPR_RZA2M_GR_MANGO/src/tensorflow_lite/tensorflow/lite/kernels/internal/reference\pad.h ****     for (int out_p = 0; out_p < output_plane; ++out_p) {
 6638              		.loc 6 91 0
 6639 1940 40309DE5 		ldr	r3, [sp, #64]
 6640 1944 018088E2 		add	r8, r8, #1
 6641              	.LVL881:
 6642 1948 030058E1 		cmp	r8, r3
 6643 194c 93FFFFBA 		blt	.L348
 6644              	.LVL882:
 6645              	.L313:
 6646              	.LBE2220:
 6647              	.LBB2221:
 6648              	.LBB2222:
 203:C:/Renesas/e2studio_2021_01_workspace_RZA2M_ANPR/ANPR_RZA2M_GR_MANGO/src/tensorflow_lite/tensorflow/lite/kernels/internal\types.h **** #ifdef TF_LITE_STATIC_MEMORY
 6649              		.loc 4 203 0
 6650 1950 3C309DE5 		ldr	r3, [sp, #60]
 6651 1954 050053E3 		cmp	r3, #5
 6652 1958 24FBFF0A 		beq	.L609
 6653 195c 92FCFFEA 		b	.L606
 6654              	.LVL883:
 6655              	.L317:
 6656 1960 080051E3 		cmp	r1, #8
 6657 1964 860000DA 		ble	.L735
 6658 1968 203089E2 		add	r3, r9, #32
 6659              	.LBE2222:
 6660              	.LBE2221:
 6661              	.LBB2223:
 6662              	.LBB2217:
 6663              	.LBB2216:
 6664              	.LBB2215:
 6665              	.LBB2213:
 100:C:/Renesas/e2studio_2021_01_workspace_RZA2M_ANPR/ANPR_RZA2M_GR_MANGO/src/tensorflow_lite/tensorflow/lite/kernels/internal/reference\pad.h ****                 out_h >= output_height - right_h_padding ||
 6666              		.loc 6 100 0
 6667 196c 0020A0E3 		mov	r2, #0
 6668              	.LVL884:
 6669              	.L342:
 6670 1970 082082E2 		add	r2, r2, #8
 6671              	.LVL885:
 6672 1974 80F0D3F5 		pld	[r3, #128]
 6673 1978 020050E1 		cmp	r0, r2
 6674 197c 204003E5 		str	r4, [r3, #-32]	@ float
 6675              	.LVL886:
 6676 1980 1C4003E5 		str	r4, [r3, #-28]	@ float
 6677              	.LVL887:
 6678 1984 03B0A0E1 		mov	fp, r3
 6679 1988 184003E5 		str	r4, [r3, #-24]	@ float
 6680              	.LVL888:
 6681 198c 203083E2 		add	r3, r3, #32
 6682              	.LVL889:
 6683 1990 344003E5 		str	r4, [r3, #-52]	@ float
 6684              	.LVL890:
 6685 1994 304003E5 		str	r4, [r3, #-48]	@ float
 6686 1998 2C4003E5 		str	r4, [r3, #-44]	@ float
 6687 199c 284003E5 		str	r4, [r3, #-40]	@ float
 6688 19a0 244003E5 		str	r4, [r3, #-36]	@ float
 6689              	.LVL891:
 6690 19a4 F1FFFF1A 		bne	.L342
 6691              	.L344:
 6692              	.LVL892:
  95:C:/Renesas/e2studio_2021_01_workspace_RZA2M_ANPR/ANPR_RZA2M_GR_MANGO/src/tensorflow_lite/tensorflow/lite/kernels/internal/reference\pad.h ****             if (out_b < left_b_padding ||
 6693              		.loc 6 95 0
 6694 19a8 012082E2 		add	r2, r2, #1
 6695              	.LVL893:
 6696 19ac 04408BE4 		str	r4, [fp], #4	@ float
 6697              	.LVL894:
 6698 19b0 020051E1 		cmp	r1, r2
 6699 19b4 FBFFFFCA 		bgt	.L344
 6700              	.L1311:
 6701 19b8 04309DE5 		ldr	r3, [sp, #4]
 6702              	.LBE2213:
  94:C:/Renesas/e2studio_2021_01_workspace_RZA2M_ANPR/ANPR_RZA2M_GR_MANGO/src/tensorflow_lite/tensorflow/lite/kernels/internal/reference\pad.h ****           for (int out_d = 0; out_d < output_depth; ++out_d) {
 6703              		.loc 6 94 0
 6704 19bc 01C08CE2 		add	ip, ip, #1
 6705              	.LVL895:
 6706 19c0 06005CE1 		cmp	ip, r6
 6707 19c4 039089E0 		add	r9, r9, r3
 6708              	.LVL896:
 6709 19c8 9DFFFF1A 		bne	.L345
 6710 19cc CEFFFFEA 		b	.L315
 6711              	.LVL897:
 6712              	.L318:
 6713 19d0 080051E3 		cmp	r1, #8
 6714 19d4 710000DA 		ble	.L734
 6715 19d8 203089E2 		add	r3, r9, #32
 6716              	.LBB2214:
 100:C:/Renesas/e2studio_2021_01_workspace_RZA2M_ANPR/ANPR_RZA2M_GR_MANGO/src/tensorflow_lite/tensorflow/lite/kernels/internal/reference\pad.h ****                 out_h >= output_height - right_h_padding ||
 6717              		.loc 6 100 0
 6718 19dc 0020A0E3 		mov	r2, #0
 6719              	.LVL898:
 6720              	.L338:
 6721 19e0 082082E2 		add	r2, r2, #8
 6722              	.LVL899:
 6723 19e4 80F0D3F5 		pld	[r3, #128]
 6724 19e8 020050E1 		cmp	r0, r2
 6725 19ec 204003E5 		str	r4, [r3, #-32]	@ float
 6726              	.LVL900:
 6727 19f0 1C4003E5 		str	r4, [r3, #-28]	@ float
 6728              	.LVL901:
 6729 19f4 03B0A0E1 		mov	fp, r3
 6730 19f8 184003E5 		str	r4, [r3, #-24]	@ float
 6731              	.LVL902:
 6732 19fc 203083E2 		add	r3, r3, #32
 6733              	.LVL903:
 6734 1a00 344003E5 		str	r4, [r3, #-52]	@ float
 6735              	.LVL904:
 6736 1a04 304003E5 		str	r4, [r3, #-48]	@ float
 6737 1a08 2C4003E5 		str	r4, [r3, #-44]	@ float
 6738 1a0c 284003E5 		str	r4, [r3, #-40]	@ float
 6739 1a10 244003E5 		str	r4, [r3, #-36]	@ float
 6740              	.LVL905:
 6741 1a14 F1FFFF1A 		bne	.L338
 6742              	.L340:
 6743              	.LVL906:
  95:C:/Renesas/e2studio_2021_01_workspace_RZA2M_ANPR/ANPR_RZA2M_GR_MANGO/src/tensorflow_lite/tensorflow/lite/kernels/internal/reference\pad.h ****             if (out_b < left_b_padding ||
 6744              		.loc 6 95 0
 6745 1a18 012082E2 		add	r2, r2, #1
 6746              	.LVL907:
 6747 1a1c 04408BE4 		str	r4, [fp], #4	@ float
 6748              	.LVL908:
 6749 1a20 020051E1 		cmp	r1, r2
 6750 1a24 E3FFFFDA 		ble	.L1311
 6751              	.L1455:
 6752 1a28 012082E2 		add	r2, r2, #1
 6753              	.LVL909:
 6754 1a2c 04408BE4 		str	r4, [fp], #4	@ float
 6755              	.LVL910:
 6756 1a30 020051E1 		cmp	r1, r2
 6757 1a34 F7FFFFCA 		bgt	.L340
 6758 1a38 DEFFFFEA 		b	.L1311
 6759              	.LVL911:
 6760              	.L319:
 6761 1a3c 0C209DE5 		ldr	r2, [sp, #12]
 6762 1a40 000052E3 		cmp	r2, #0
 6763 1a44 1900001A 		bne	.L328
 6764 1a48 080051E3 		cmp	r1, #8
 6765 1a4c 670000DA 		ble	.L732
 6766 1a50 203089E2 		add	r3, r9, #32
 6767              	.LVL912:
 6768              	.L330:
 6769 1a54 082082E2 		add	r2, r2, #8
 6770              	.LVL913:
 6771 1a58 80F0D3F5 		pld	[r3, #128]
 6772 1a5c 020050E1 		cmp	r0, r2
 6773 1a60 204003E5 		str	r4, [r3, #-32]	@ float
 6774              	.LVL914:
 6775 1a64 1C4003E5 		str	r4, [r3, #-28]	@ float
 6776              	.LVL915:
 6777 1a68 03B0A0E1 		mov	fp, r3
 6778 1a6c 184003E5 		str	r4, [r3, #-24]	@ float
 6779              	.LVL916:
 6780 1a70 203083E2 		add	r3, r3, #32
 6781              	.LVL917:
 6782 1a74 344003E5 		str	r4, [r3, #-52]	@ float
 6783              	.LVL918:
 6784 1a78 304003E5 		str	r4, [r3, #-48]	@ float
 6785 1a7c 2C4003E5 		str	r4, [r3, #-44]	@ float
 6786 1a80 284003E5 		str	r4, [r3, #-40]	@ float
 6787 1a84 244003E5 		str	r4, [r3, #-36]	@ float
 6788              	.LVL919:
 6789 1a88 F1FFFF1A 		bne	.L330
 6790              	.L332:
 6791              	.LVL920:
 6792 1a8c 012082E2 		add	r2, r2, #1
 6793              	.LVL921:
 6794 1a90 04408BE4 		str	r4, [fp], #4	@ float
 6795              	.LVL922:
 6796 1a94 020051E1 		cmp	r1, r2
 6797 1a98 C6FFFFDA 		ble	.L1311
 6798              	.L1456:
 6799 1a9c 012082E2 		add	r2, r2, #1
 6800              	.LVL923:
 6801 1aa0 04408BE4 		str	r4, [fp], #4	@ float
 6802              	.LVL924:
 6803 1aa4 020051E1 		cmp	r1, r2
 6804 1aa8 F7FFFFCA 		bgt	.L332
 6805 1aac C1FFFFEA 		b	.L1311
 6806              	.LVL925:
 6807              	.L328:
 6808 1ab0 080051E3 		cmp	r1, #8
 6809 1ab4 460000DA 		ble	.L733
 100:C:/Renesas/e2studio_2021_01_workspace_RZA2M_ANPR/ANPR_RZA2M_GR_MANGO/src/tensorflow_lite/tensorflow/lite/kernels/internal/reference\pad.h ****                 out_h >= output_height - right_h_padding ||
 6810              		.loc 6 100 0
 6811 1ab8 08209DE5 		ldr	r2, [sp, #8]
 6812 1abc 203089E2 		add	r3, r9, #32
 6813              	.LVL926:
 6814              	.L334:
 6815 1ac0 082082E2 		add	r2, r2, #8
 6816              	.LVL927:
 6817 1ac4 80F0D3F5 		pld	[r3, #128]
 6818 1ac8 020050E1 		cmp	r0, r2
 6819 1acc 204003E5 		str	r4, [r3, #-32]	@ float
 6820              	.LVL928:
 6821 1ad0 1C4003E5 		str	r4, [r3, #-28]	@ float
 6822              	.LVL929:
 6823 1ad4 03B0A0E1 		mov	fp, r3
 6824 1ad8 184003E5 		str	r4, [r3, #-24]	@ float
 6825              	.LVL930:
 6826 1adc 203083E2 		add	r3, r3, #32
 6827              	.LVL931:
 6828 1ae0 344003E5 		str	r4, [r3, #-52]	@ float
 6829              	.LVL932:
 6830 1ae4 304003E5 		str	r4, [r3, #-48]	@ float
 6831 1ae8 2C4003E5 		str	r4, [r3, #-44]	@ float
 6832 1aec 284003E5 		str	r4, [r3, #-40]	@ float
 6833 1af0 244003E5 		str	r4, [r3, #-36]	@ float
 6834              	.LVL933:
 6835 1af4 F1FFFF1A 		bne	.L334
 6836              	.L336:
 6837              	.LVL934:
  95:C:/Renesas/e2studio_2021_01_workspace_RZA2M_ANPR/ANPR_RZA2M_GR_MANGO/src/tensorflow_lite/tensorflow/lite/kernels/internal/reference\pad.h ****             if (out_b < left_b_padding ||
 6838              		.loc 6 95 0
 6839 1af8 012082E2 		add	r2, r2, #1
 6840              	.LVL935:
 6841 1afc 04408BE4 		str	r4, [fp], #4	@ float
 6842              	.LVL936:
 6843 1b00 020051E1 		cmp	r1, r2
 6844 1b04 ABFFFFDA 		ble	.L1311
 6845              	.L1457:
 6846 1b08 012082E2 		add	r2, r2, #1
 6847              	.LVL937:
 6848 1b0c 04408BE4 		str	r4, [fp], #4	@ float
 6849              	.LVL938:
 6850 1b10 020051E1 		cmp	r1, r2
 6851 1b14 F7FFFFCA 		bgt	.L336
 6852 1b18 A6FFFFEA 		b	.L1311
 6853              	.LVL939:
 6854              	.L320:
 6855 1b1c 080051E3 		cmp	r1, #8
 6856 1b20 250000DA 		ble	.L731
 6857 1b24 203089E2 		add	r3, r9, #32
 6858              	.LVL940:
 6859              	.L325:
 6860 1b28 082082E2 		add	r2, r2, #8
 6861              	.LVL941:
 6862 1b2c 80F0D3F5 		pld	[r3, #128]
 6863 1b30 020050E1 		cmp	r0, r2
 6864 1b34 204003E5 		str	r4, [r3, #-32]	@ float
 6865              	.LVL942:
 6866 1b38 1C4003E5 		str	r4, [r3, #-28]	@ float
 6867              	.LVL943:
 6868 1b3c 03B0A0E1 		mov	fp, r3
 6869 1b40 184003E5 		str	r4, [r3, #-24]	@ float
 6870              	.LVL944:
 6871 1b44 203083E2 		add	r3, r3, #32
 6872              	.LVL945:
 6873 1b48 344003E5 		str	r4, [r3, #-52]	@ float
 6874              	.LVL946:
 6875 1b4c 304003E5 		str	r4, [r3, #-48]	@ float
 6876 1b50 2C4003E5 		str	r4, [r3, #-44]	@ float
 6877 1b54 284003E5 		str	r4, [r3, #-40]	@ float
 6878 1b58 244003E5 		str	r4, [r3, #-36]	@ float
 6879              	.LVL947:
 6880 1b5c F1FFFF1A 		bne	.L325
 6881              	.L327:
 6882              	.LVL948:
 6883 1b60 012082E2 		add	r2, r2, #1
 6884              	.LVL949:
 6885 1b64 04408BE4 		str	r4, [fp], #4	@ float
 6886              	.LVL950:
 6887 1b68 020051E1 		cmp	r1, r2
 6888 1b6c 91FFFFDA 		ble	.L1311
 6889              	.L1458:
 6890 1b70 012082E2 		add	r2, r2, #1
 6891              	.LVL951:
 6892 1b74 04408BE4 		str	r4, [fp], #4	@ float
 6893              	.LVL952:
 6894 1b78 020051E1 		cmp	r1, r2
 6895 1b7c F7FFFFCA 		bgt	.L327
 6896 1b80 8CFFFFEA 		b	.L1311
 6897              	.LVL953:
 6898              	.L735:
 100:C:/Renesas/e2studio_2021_01_workspace_RZA2M_ANPR/ANPR_RZA2M_GR_MANGO/src/tensorflow_lite/tensorflow/lite/kernels/internal/reference\pad.h ****                 out_h >= output_height - right_h_padding ||
 6899              		.loc 6 100 0
 6900 1b84 0020A0E3 		mov	r2, #0
 6901              	.LVL954:
 6902 1b88 09B0A0E1 		mov	fp, r9
 6903              	.LVL955:
  95:C:/Renesas/e2studio_2021_01_workspace_RZA2M_ANPR/ANPR_RZA2M_GR_MANGO/src/tensorflow_lite/tensorflow/lite/kernels/internal/reference\pad.h ****             if (out_b < left_b_padding ||
 6904              		.loc 6 95 0
 6905 1b8c 012082E2 		add	r2, r2, #1
 6906              	.LVL956:
 6907 1b90 04408BE4 		str	r4, [fp], #4	@ float
 6908              	.LVL957:
 6909 1b94 020051E1 		cmp	r1, r2
 6910 1b98 82FFFFCA 		bgt	.L344
 6911 1b9c 85FFFFEA 		b	.L1311
 6912              	.LVL958:
 6913              	.L734:
 100:C:/Renesas/e2studio_2021_01_workspace_RZA2M_ANPR/ANPR_RZA2M_GR_MANGO/src/tensorflow_lite/tensorflow/lite/kernels/internal/reference\pad.h ****                 out_h >= output_height - right_h_padding ||
 6914              		.loc 6 100 0
 6915 1ba0 0020A0E3 		mov	r2, #0
 6916              	.LVL959:
 6917 1ba4 09B0A0E1 		mov	fp, r9
 6918              	.LVL960:
  95:C:/Renesas/e2studio_2021_01_workspace_RZA2M_ANPR/ANPR_RZA2M_GR_MANGO/src/tensorflow_lite/tensorflow/lite/kernels/internal/reference\pad.h ****             if (out_b < left_b_padding ||
 6919              		.loc 6 95 0
 6920 1ba8 012082E2 		add	r2, r2, #1
 6921              	.LVL961:
 6922 1bac 04408BE4 		str	r4, [fp], #4	@ float
 6923              	.LVL962:
 6924 1bb0 020051E1 		cmp	r1, r2
 6925 1bb4 9BFFFFCA 		bgt	.L1455
 6926 1bb8 7EFFFFEA 		b	.L1311
 6927              	.LVL963:
 6928              	.L731:
 6929 1bbc 012082E2 		add	r2, r2, #1
 100:C:/Renesas/e2studio_2021_01_workspace_RZA2M_ANPR/ANPR_RZA2M_GR_MANGO/src/tensorflow_lite/tensorflow/lite/kernels/internal/reference\pad.h ****                 out_h >= output_height - right_h_padding ||
 6930              		.loc 6 100 0
 6931 1bc0 09B0A0E1 		mov	fp, r9
 6932              	.LVL964:
  95:C:/Renesas/e2studio_2021_01_workspace_RZA2M_ANPR/ANPR_RZA2M_GR_MANGO/src/tensorflow_lite/tensorflow/lite/kernels/internal/reference\pad.h ****             if (out_b < left_b_padding ||
 6933              		.loc 6 95 0
 6934 1bc4 020051E1 		cmp	r1, r2
 6935 1bc8 04408BE4 		str	r4, [fp], #4	@ float
 6936              	.LVL965:
 6937 1bcc E7FFFFCA 		bgt	.L1458
 6938 1bd0 78FFFFEA 		b	.L1311
 6939              	.LVL966:
 6940              	.L733:
 100:C:/Renesas/e2studio_2021_01_workspace_RZA2M_ANPR/ANPR_RZA2M_GR_MANGO/src/tensorflow_lite/tensorflow/lite/kernels/internal/reference\pad.h ****                 out_h >= output_height - right_h_padding ||
 6941              		.loc 6 100 0
 6942 1bd4 08209DE5 		ldr	r2, [sp, #8]
 6943              	.LVL967:
 6944 1bd8 09B0A0E1 		mov	fp, r9
 6945              	.LVL968:
 6946 1bdc 04408BE4 		str	r4, [fp], #4	@ float
 6947              	.LVL969:
  95:C:/Renesas/e2studio_2021_01_workspace_RZA2M_ANPR/ANPR_RZA2M_GR_MANGO/src/tensorflow_lite/tensorflow/lite/kernels/internal/reference\pad.h ****             if (out_b < left_b_padding ||
 6948              		.loc 6 95 0
 6949 1be0 012082E2 		add	r2, r2, #1
 6950              	.LVL970:
 6951 1be4 020051E1 		cmp	r1, r2
 6952 1be8 C6FFFFCA 		bgt	.L1457
 6953 1bec 71FFFFEA 		b	.L1311
 6954              	.LVL971:
 6955              	.L732:
 6956 1bf0 012082E2 		add	r2, r2, #1
 100:C:/Renesas/e2studio_2021_01_workspace_RZA2M_ANPR/ANPR_RZA2M_GR_MANGO/src/tensorflow_lite/tensorflow/lite/kernels/internal/reference\pad.h ****                 out_h >= output_height - right_h_padding ||
 6957              		.loc 6 100 0
 6958 1bf4 09B0A0E1 		mov	fp, r9
 6959              	.LVL972:
  95:C:/Renesas/e2studio_2021_01_workspace_RZA2M_ANPR/ANPR_RZA2M_GR_MANGO/src/tensorflow_lite/tensorflow/lite/kernels/internal/reference\pad.h ****             if (out_b < left_b_padding ||
 6960              		.loc 6 95 0
 6961 1bf8 020051E1 		cmp	r1, r2
 6962 1bfc 04408BE4 		str	r4, [fp], #4	@ float
 6963              	.LVL973:
 6964 1c00 A5FFFFCA 		bgt	.L1456
 6965 1c04 6BFFFFEA 		b	.L1311
 6966              	.LVL974:
 6967              	.L1502:
 6968              	.LBE2214:
 6969              	.LBE2215:
 6970              	.LBE2216:
 6971              	.LBE2217:
 6972              	.LBE2223:
 6973              	.LBB2224:
 6974              	.LBB2165:
 216:C:/Renesas/e2studio_2021_01_workspace_RZA2M_ANPR/ANPR_RZA2M_GR_MANGO/src/tensorflow_lite/tensorflow/lite/kernels/internal\types.h ****   }
 6975              		.loc 4 216 0
 6976 1c08 D4309DE5 		ldr	r3, [sp, #212]
 6977              	.LBE2165:
 6978              	.LBE2224:
  76:C:/Renesas/e2studio_2021_01_workspace_RZA2M_ANPR/ANPR_RZA2M_GR_MANGO/src/tensorflow_lite/tensorflow/lite/kernels/internal/reference\pad.h ****   const int left_h_padding = left_padding_copy[2];
 6979              		.loc 6 76 0
 6980 1c0c 64209DE5 		ldr	r2, [sp, #100]
  75:C:/Renesas/e2studio_2021_01_workspace_RZA2M_ANPR/ANPR_RZA2M_GR_MANGO/src/tensorflow_lite/tensorflow/lite/kernels/internal/reference\pad.h ****   const int left_p_padding = left_padding_copy[1];
 6981              		.loc 6 75 0
 6982 1c10 60609DE5 		ldr	r6, [sp, #96]
 6983              	.LBB2225:
 6984              	.LBB2174:
 216:C:/Renesas/e2studio_2021_01_workspace_RZA2M_ANPR/ANPR_RZA2M_GR_MANGO/src/tensorflow_lite/tensorflow/lite/kernels/internal\types.h ****   }
 6985              		.loc 4 216 0
 6986 1c14 040093E5 		ldr	r0, [r3, #4]
 6987              	.LBE2174:
 6988              	.LBE2225:
  76:C:/Renesas/e2studio_2021_01_workspace_RZA2M_ANPR/ANPR_RZA2M_GR_MANGO/src/tensorflow_lite/tensorflow/lite/kernels/internal/reference\pad.h ****   const int left_h_padding = left_padding_copy[2];
 6989              		.loc 6 76 0
 6990 1c18 54208DE5 		str	r2, [sp, #84]
 6991              	.LBB2226:
 6992              	.LBB2166:
 216:C:/Renesas/e2studio_2021_01_workspace_RZA2M_ANPR/ANPR_RZA2M_GR_MANGO/src/tensorflow_lite/tensorflow/lite/kernels/internal\types.h ****   }
 6993              		.loc 4 216 0
 6994 1c1c 002093E5 		ldr	r2, [r3]
 6995 1c20 48308DE5 		str	r3, [sp, #72]
 6996              	.LBE2166:
 6997              	.LBE2226:
 6998              	.LBB2227:
 6999              	.LBB2203:
 7000 1c24 101093E5 		ldr	r1, [r3, #16]
 7001              	.LBE2203:
 7002              	.LBE2227:
 7003              	.LBB2228:
 7004              	.LBB2167:
 7005 1c28 40208DE5 		str	r2, [sp, #64]
 7006              	.LVL975:
 7007              	.LBE2167:
 7008              	.LBE2228:
 7009              	.LBB2229:
  91:C:/Renesas/e2studio_2021_01_workspace_RZA2M_ANPR/ANPR_RZA2M_GR_MANGO/src/tensorflow_lite/tensorflow/lite/kernels/internal/reference\pad.h ****     for (int out_p = 0; out_p < output_plane; ++out_p) {
 7010              		.loc 6 91 0
 7011 1c2c 000052E3 		cmp	r2, #0
 7012              	.LBE2229:
 7013              	.LBB2230:
 7014              	.LBB2195:
 216:C:/Renesas/e2studio_2021_01_workspace_RZA2M_ANPR/ANPR_RZA2M_GR_MANGO/src/tensorflow_lite/tensorflow/lite/kernels/internal\types.h ****   }
 7015              		.loc 4 216 0
 7016 1c30 0CA093E5 		ldr	r10, [r3, #12]
 7017              	.LBE2195:
 7018              	.LBE2230:
 7019              	.LBB2231:
 7020              	.LBB2184:
 7021 1c34 082093E5 		ldr	r2, [r3, #8]
 7022              	.LBE2184:
 7023              	.LBE2231:
  77:C:/Renesas/e2studio_2021_01_workspace_RZA2M_ANPR/ANPR_RZA2M_GR_MANGO/src/tensorflow_lite/tensorflow/lite/kernels/internal/reference\pad.h ****   const int left_w_padding = left_padding_copy[3];
 7024              		.loc 6 77 0
 7025 1c38 68309DE5 		ldr	r3, [sp, #104]
 7026              	.LBB2232:
 7027              	.LBB2175:
 216:C:/Renesas/e2studio_2021_01_workspace_RZA2M_ANPR/ANPR_RZA2M_GR_MANGO/src/tensorflow_lite/tensorflow/lite/kernels/internal\types.h ****   }
 7028              		.loc 4 216 0
 7029 1c3c 18008DE5 		str	r0, [sp, #24]
 7030              	.LVL976:
 7031              	.LBE2175:
 7032              	.LBE2232:
 7033              	.LBB2233:
 7034              	.LBB2185:
 7035 1c40 10208DE5 		str	r2, [sp, #16]
 7036              	.LVL977:
 7037              	.LBE2185:
 7038              	.LBE2233:
  77:C:/Renesas/e2studio_2021_01_workspace_RZA2M_ANPR/ANPR_RZA2M_GR_MANGO/src/tensorflow_lite/tensorflow/lite/kernels/internal/reference\pad.h ****   const int left_w_padding = left_padding_copy[3];
 7039              		.loc 6 77 0
 7040 1c44 20308DE5 		str	r3, [sp, #32]
 7041              	.LVL978:
  79:C:/Renesas/e2studio_2021_01_workspace_RZA2M_ANPR/ANPR_RZA2M_GR_MANGO/src/tensorflow_lite/tensorflow/lite/kernels/internal/reference\pad.h **** 
 7042              		.loc 6 79 0
 7043 1c48 70309DE5 		ldr	r3, [sp, #112]
 7044              	.LVL979:
  78:C:/Renesas/e2studio_2021_01_workspace_RZA2M_ANPR/ANPR_RZA2M_GR_MANGO/src/tensorflow_lite/tensorflow/lite/kernels/internal/reference\pad.h ****   const int left_d_padding = left_padding_copy[4];
 7045              		.loc 6 78 0
 7046 1c4c 6C709DE5 		ldr	r7, [sp, #108]
 7047              	.LVL980:
  79:C:/Renesas/e2studio_2021_01_workspace_RZA2M_ANPR/ANPR_RZA2M_GR_MANGO/src/tensorflow_lite/tensorflow/lite/kernels/internal/reference\pad.h **** 
 7048              		.loc 6 79 0
 7049 1c50 44308DE5 		str	r3, [sp, #68]
 7050              	.LVL981:
  81:C:/Renesas/e2studio_2021_01_workspace_RZA2M_ANPR/ANPR_RZA2M_GR_MANGO/src/tensorflow_lite/tensorflow/lite/kernels/internal/reference\pad.h ****   const int right_p_padding = right_padding_copy[1];
 7051              		.loc 6 81 0
 7052 1c54 74309DE5 		ldr	r3, [sp, #116]
 7053              	.LVL982:
 7054 1c58 58308DE5 		str	r3, [sp, #88]
 7055              	.LVL983:
  82:C:/Renesas/e2studio_2021_01_workspace_RZA2M_ANPR/ANPR_RZA2M_GR_MANGO/src/tensorflow_lite/tensorflow/lite/kernels/internal/reference\pad.h ****   const int right_h_padding = right_padding_copy[2];
 7056              		.loc 6 82 0
 7057 1c5c 78309DE5 		ldr	r3, [sp, #120]
 7058              	.LVL984:
 7059 1c60 2C308DE5 		str	r3, [sp, #44]
 7060              	.LVL985:
  83:C:/Renesas/e2studio_2021_01_workspace_RZA2M_ANPR/ANPR_RZA2M_GR_MANGO/src/tensorflow_lite/tensorflow/lite/kernels/internal/reference\pad.h ****   const int right_w_padding = right_padding_copy[3];
 7061              		.loc 6 83 0
 7062 1c64 7C309DE5 		ldr	r3, [sp, #124]
 7063              	.LVL986:
 7064 1c68 28308DE5 		str	r3, [sp, #40]
 7065              	.LVL987:
  84:C:/Renesas/e2studio_2021_01_workspace_RZA2M_ANPR/ANPR_RZA2M_GR_MANGO/src/tensorflow_lite/tensorflow/lite/kernels/internal/reference\pad.h ****   const int right_d_padding = right_padding_copy[4];
 7066              		.loc 6 84 0
 7067 1c6c 80309DE5 		ldr	r3, [sp, #128]
 7068              	.LVL988:
 7069 1c70 24308DE5 		str	r3, [sp, #36]
 7070              	.LVL989:
  85:C:/Renesas/e2studio_2021_01_workspace_RZA2M_ANPR/ANPR_RZA2M_GR_MANGO/src/tensorflow_lite/tensorflow/lite/kernels/internal/reference\pad.h **** 
 7071              		.loc 6 85 0
 7072 1c74 84309DE5 		ldr	r3, [sp, #132]
 7073              	.LVL990:
 7074 1c78 4C308DE5 		str	r3, [sp, #76]
 7075              	.LVL991:
 7076              	.LBB2234:
  91:C:/Renesas/e2studio_2021_01_workspace_RZA2M_ANPR/ANPR_RZA2M_GR_MANGO/src/tensorflow_lite/tensorflow/lite/kernels/internal/reference\pad.h ****     for (int out_p = 0; out_p < output_plane; ++out_p) {
 7077              		.loc 6 91 0
 7078 1c7c BAFEFFCA 		bgt	.L310
 7079 1c80 C9FBFFEA 		b	.L606
 7080              	.LVL992:
 7081              	.L1501:
 7082              	.LEHB42:
 7083              	.LBE2234:
 7084              	.LBB2235:
 7085              	.LBB2168:
 215:C:/Renesas/e2studio_2021_01_workspace_RZA2M_ANPR/ANPR_RZA2M_GR_MANGO/src/tensorflow_lite/tensorflow/lite/kernels/internal\types.h ****     return size_ > kMaxSmallSize ? dims_pointer_[i] : dims_[i];
 7086              		.loc 4 215 0
 7087 1c84 FEFFFFEB 		bl	abort
 7088              	.LVL993:
 7089              	.LEHE42:
 7090              	.L299:
 7091              	.LEHB43:
 7092              	.LBE2168:
 7093              	.LBE2235:
  47:C:/Renesas/e2studio_2021_01_workspace_RZA2M_ANPR/ANPR_RZA2M_GR_MANGO/src/tensorflow_lite/tensorflow/lite/kernels/internal/reference\pad.h **** 
 7094              		.loc 6 47 0
 7095 1c88 FEFFFFEB 		bl	abort
 7096              	.LVL994:
 7097              	.LEHE43:
 7098              	.L781:
 7099 1c8c 84F9FFEA 		b	.L654
 7100              	.LVL995:
 7101              	.L795:
 7102 1c90 85FAFFEA 		b	.L1322
 7103              	.LVL996:
 7104              	.L1504:
 7105              	.LEHB44:
 7106              	.LBB2236:
 7107              	.LBB2204:
 215:C:/Renesas/e2studio_2021_01_workspace_RZA2M_ANPR/ANPR_RZA2M_GR_MANGO/src/tensorflow_lite/tensorflow/lite/kernels/internal\types.h ****     return size_ > kMaxSmallSize ? dims_pointer_[i] : dims_[i];
 7108              		.loc 4 215 0
 7109 1c94 FEFFFFEB 		bl	abort
 7110              	.LVL997:
 7111              	.L694:
 7112              	.LBE2204:
 7113              	.LBE2236:
 7114              	.LBB2237:
 7115              	.LBB2196:
 7116 1c98 FEFFFFEB 		bl	abort
 7117              	.LVL998:
 7118              	.L693:
 7119              	.LBE2196:
 7120              	.LBE2237:
 7121              	.LBB2238:
 7122              	.LBB2186:
 7123 1c9c FEFFFFEB 		bl	abort
 7124              	.LVL999:
 7125              	.L1503:
 7126              	.LBE2186:
 7127              	.LBE2238:
 7128              	.LBB2239:
 7129              	.LBB2176:
 7130 1ca0 FEFFFFEB 		bl	abort
 7131              	.LVL1000:
 7132              	.LEHE44:
 7133              	.L1500:
 7134              	.LEHB45:
 7135              	.LBE2176:
 7136              	.LBE2239:
  46:C:/Renesas/e2studio_2021_01_workspace_RZA2M_ANPR/ANPR_RZA2M_GR_MANGO/src/tensorflow_lite/tensorflow/lite/kernels/internal/reference\pad.h ****   TFLITE_DCHECK_LE(op_params.right_padding_count, PadKernelMaxDimensionCount());
 7137              		.loc 6 46 0
 7138 1ca4 FEFFFFEB 		bl	abort
 7139              	.LVL1001:
 7140              	.LEHE45:
 7141              	.L1499:
 7142              	.LEHB46:
 7143              	.LBB2240:
 7144              	.LBB2153:
 7145              	.LBB2151:
 7146              	.LBB2149:
 7147              	.LBB2147:
 308:C:/Renesas/e2studio_2021_01_workspace_RZA2M_ANPR/ANPR_RZA2M_GR_MANGO/src/tensorflow_lite/tensorflow/lite/kernels/internal\types.h ****     Resize(new_shape_size);
 7148              		.loc 4 308 0
 7149 1ca8 FEFFFFEB 		bl	abort
 7150              	.LVL1002:
 7151              	.LEHE46:
 7152              	.L794:
 7153 1cac 7EFAFFEA 		b	.L1322
 7154              	.LVL1003:
 7155              	.L766:
 7156 1cb0 52F9FFEA 		b	.L677
 7157              	.LVL1004:
 7158              	.L1489:
 7159              	.LBE2147:
 7160              	.LBE2149:
 7161              	.LBE2151:
 7162              	.LBE2153:
 7163              	.LBE2240:
 7164              	.LBE2241:
 7165              	.LBE2242:
 7166              	.LBE2243:
 156:../src/tensorflow_lite/tensorflow/lite/micro/kernels/pad.cc ****             tflite::micro::GetTensorData<float>(input), &pad_value,
 7167              		.loc 1 156 0
 7168 1cb4 0710A0E1 		mov	r1, r7
 7169 1cb8 88008DE2 		add	r0, sp, #136
 7170              	.LEHB47:
 7171 1cbc FEFFFFEB 		bl	_ZN6tflite5micro14GetTensorShapeEPK16TfLiteEvalTensor
 7172              	.LVL1005:
 7173              	.LEHE47:
 7174              	.LBB2244:
 7175              	.LBB2245:
 7176              		.loc 5 63 0
 7177 1cc0 003097E5 		ldr	r3, [r7]
 7178              	.LBE2245:
 7179              	.LBE2244:
 158:../src/tensorflow_lite/tensorflow/lite/micro/kernels/pad.cc ****             tflite::micro::GetTensorData<float>(output));
 7180              		.loc 1 158 0
 7181 1cc4 0910A0E1 		mov	r1, r9
 7182 1cc8 A0008DE2 		add	r0, sp, #160
 7183              	.LBB2247:
 7184              	.LBB2246:
 7185              		.loc 5 63 0
 7186 1ccc 34308DE5 		str	r3, [sp, #52]
 7187              	.LEHB48:
 7188              	.LBE2246:
 7189              	.LBE2247:
 158:../src/tensorflow_lite/tensorflow/lite/micro/kernels/pad.cc ****             tflite::micro::GetTensorData<float>(output));
 7190              		.loc 1 158 0
 7191 1cd0 FEFFFFEB 		bl	_ZN6tflite5micro14GetTensorShapeEPK16TfLiteEvalTensor
 7192              	.LVL1006:
 7193              	.LEHE48:
 7194 1cd4 88209DE5 		ldr	r2, [sp, #136]
 7195              	.LBB2248:
 7196              	.LBB2249:
  56:C:/Renesas/e2studio_2021_01_workspace_RZA2M_ANPR/ANPR_RZA2M_GR_MANGO/src/tensorflow_lite/tensorflow/lite/micro/kernels\kernel_util.h **** }
 7197              		.loc 5 56 0
 7198 1cd8 000059E3 		cmp	r9, #0
 7199 1cdc 00909915 		ldrne	r9, [r9]
 7200              	.LVL1007:
 7201              	.LBE2249:
 7202              	.LBE2248:
 7203              	.LBB2250:
 7204              	.LBB2251:
 7205              	.LBB2252:
 7206              	.LBB2253:
 7207              	.LBB2254:
 7208              	.LBB2255:
 7209              	.LBB2256:
 7210              	.LBB2257:
 305:C:/Renesas/e2studio_2021_01_workspace_RZA2M_ANPR/ANPR_RZA2M_GR_MANGO/src/tensorflow_lite/tensorflow/lite/kernels/internal\types.h ****     // If the following check fails, it is likely because a 4D-only kernel is
 7211              		.loc 4 305 0
 7212 1ce0 0030A0E3 		mov	r3, #0
 7213 1ce4 B8308DE5 		str	r3, [sp, #184]
 7214              	.LBB2258:
 308:C:/Renesas/e2studio_2021_01_workspace_RZA2M_ANPR/ANPR_RZA2M_GR_MANGO/src/tensorflow_lite/tensorflow/lite/kernels/internal\types.h ****     Resize(new_shape_size);
 7215              		.loc 4 308 0
 7216 1ce8 050052E3 		cmp	r2, #5
 7217 1cec 580000CA 		bgt	.L1507
 7218              	.LVL1008:
 7219              	.LBB2259:
 311:C:/Renesas/e2studio_2021_01_workspace_RZA2M_ANPR/ANPR_RZA2M_GR_MANGO/src/tensorflow_lite/tensorflow/lite/kernels/internal\types.h ****       SetDim(i, pad_value);
 7220              		.loc 4 311 0
 7221 1cf0 050072E2 		rsbs	r0, r2, #5
 7222              	.LBE2259:
 7223              	.LBB2272:
 7224              	.LBB2273:
 245:C:/Renesas/e2studio_2021_01_workspace_RZA2M_ANPR/ANPR_RZA2M_GR_MANGO/src/tensorflow_lite/tensorflow/lite/kernels/internal\types.h ****     if (dimensions_count > kMaxSmallSize) {
 7225              		.loc 4 245 0
 7226 1cf4 0530A0E3 		mov	r3, #5
 7227 1cf8 B8308DE5 		str	r3, [sp, #184]
 7228              	.LVL1009:
 7229              	.LBE2273:
 7230              	.LBE2272:
 7231              	.LBB2274:
 311:C:/Renesas/e2studio_2021_01_workspace_RZA2M_ANPR/ANPR_RZA2M_GR_MANGO/src/tensorflow_lite/tensorflow/lite/kernels/internal\types.h ****       SetDim(i, pad_value);
 7232              		.loc 4 311 0
 7233 1cfc 3500000A 		beq	.L217
 7234              	.LVL1010:
 7235 1d00 010050E3 		cmp	r0, #1
 7236              	.LBB2260:
 7237              	.LBB2261:
 224:C:/Renesas/e2studio_2021_01_workspace_RZA2M_ANPR/ANPR_RZA2M_GR_MANGO/src/tensorflow_lite/tensorflow/lite/kernels/internal\types.h ****     }
 7238              		.loc 4 224 0
 7239 1d04 0130A0E3 		mov	r3, #1
 7240 1d08 BC308DE5 		str	r3, [sp, #188]
 7241              	.LVL1011:
 7242              	.LBE2261:
 7243              	.LBE2260:
 311:C:/Renesas/e2studio_2021_01_workspace_RZA2M_ANPR/ANPR_RZA2M_GR_MANGO/src/tensorflow_lite/tensorflow/lite/kernels/internal\types.h ****       SetDim(i, pad_value);
 7244              		.loc 4 311 0
 7245 1d0c 3100000A 		beq	.L217
 7246              	.LVL1012:
 7247 1d10 020050E3 		cmp	r0, #2
 7248              	.LBB2267:
 7249              	.LBB2262:
 224:C:/Renesas/e2studio_2021_01_workspace_RZA2M_ANPR/ANPR_RZA2M_GR_MANGO/src/tensorflow_lite/tensorflow/lite/kernels/internal\types.h ****     }
 7250              		.loc 4 224 0
 7251 1d14 C0308DE5 		str	r3, [sp, #192]
 7252              	.LVL1013:
 7253              	.LBE2262:
 7254              	.LBE2267:
 311:C:/Renesas/e2studio_2021_01_workspace_RZA2M_ANPR/ANPR_RZA2M_GR_MANGO/src/tensorflow_lite/tensorflow/lite/kernels/internal\types.h ****       SetDim(i, pad_value);
 7255              		.loc 4 311 0
 7256 1d18 2E00000A 		beq	.L217
 7257              	.LVL1014:
 7258 1d1c 030050E3 		cmp	r0, #3
 7259              	.LBB2268:
 7260              	.LBB2263:
 224:C:/Renesas/e2studio_2021_01_workspace_RZA2M_ANPR/ANPR_RZA2M_GR_MANGO/src/tensorflow_lite/tensorflow/lite/kernels/internal\types.h ****     }
 7261              		.loc 4 224 0
 7262 1d20 C4308DE5 		str	r3, [sp, #196]
 7263              	.LVL1015:
 7264              	.LBE2263:
 7265              	.LBE2268:
 311:C:/Renesas/e2studio_2021_01_workspace_RZA2M_ANPR/ANPR_RZA2M_GR_MANGO/src/tensorflow_lite/tensorflow/lite/kernels/internal\types.h ****       SetDim(i, pad_value);
 7266              		.loc 4 311 0
 7267 1d24 2B00000A 		beq	.L217
 7268              	.LVL1016:
 7269 1d28 040050E3 		cmp	r0, #4
 7270              	.LBB2269:
 7271              	.LBB2264:
 224:C:/Renesas/e2studio_2021_01_workspace_RZA2M_ANPR/ANPR_RZA2M_GR_MANGO/src/tensorflow_lite/tensorflow/lite/kernels/internal\types.h ****     }
 7272              		.loc 4 224 0
 7273 1d2c C8308DE5 		str	r3, [sp, #200]
 7274              	.LVL1017:
 7275              	.LBE2264:
 7276              	.LBE2269:
 311:C:/Renesas/e2studio_2021_01_workspace_RZA2M_ANPR/ANPR_RZA2M_GR_MANGO/src/tensorflow_lite/tensorflow/lite/kernels/internal\types.h ****       SetDim(i, pad_value);
 7277              		.loc 4 311 0
 7278 1d30 2800000A 		beq	.L217
 7279              	.LVL1018:
 7280 1d34 050050E3 		cmp	r0, #5
 7281              	.LBB2270:
 7282              	.LBB2265:
 224:C:/Renesas/e2studio_2021_01_workspace_RZA2M_ANPR/ANPR_RZA2M_GR_MANGO/src/tensorflow_lite/tensorflow/lite/kernels/internal\types.h ****     }
 7283              		.loc 4 224 0
 7284 1d38 CC308DE5 		str	r3, [sp, #204]
 7285              	.LVL1019:
 7286              	.LBE2265:
 7287              	.LBE2270:
 311:C:/Renesas/e2studio_2021_01_workspace_RZA2M_ANPR/ANPR_RZA2M_GR_MANGO/src/tensorflow_lite/tensorflow/lite/kernels/internal\types.h ****       SetDim(i, pad_value);
 7288              		.loc 4 311 0
 7289 1d3c 2500000A 		beq	.L217
 7290              	.LVL1020:
 7291              	.LEHB49:
 7292              	.LBB2271:
 7293              	.LBB2266:
 220:C:/Renesas/e2studio_2021_01_workspace_RZA2M_ANPR/ANPR_RZA2M_GR_MANGO/src/tensorflow_lite/tensorflow/lite/kernels/internal\types.h ****     if (size_ > kMaxSmallSize) {
 7294              		.loc 4 220 0
 7295 1d40 FEFFFFEB 		bl	abort
 7296              	.LVL1021:
 7297              	.LEHE49:
 7298              	.L1488:
 7299              	.LEHB50:
 7300              	.LBE2266:
 7301              	.LBE2271:
 7302              	.LBE2274:
 7303              	.LBE2258:
 7304              	.LBE2257:
 7305              	.LBE2256:
 7306              	.LBE2255:
 7307              	.LBE2254:
 7308              	.LBE2253:
 7309              	.LBE2252:
 7310              	.LBE2251:
 7311              	.LBE2250:
 7312              	.LBE2409:
 7313              	.LBB2410:
 7314              	.LBB2073:
 7315              	.LBB2057:
 7316              	.LBB2051:
 7317              	.LBB2045:
 7318              	.LBB1934:
 7319              	.LBB1932:
 7320              	.LBB1930:
 7321              	.LBB1928:
 308:C:/Renesas/e2studio_2021_01_workspace_RZA2M_ANPR/ANPR_RZA2M_GR_MANGO/src/tensorflow_lite/tensorflow/lite/kernels/internal\types.h ****     Resize(new_shape_size);
 7322              		.loc 4 308 0
 7323 1d44 FEFFFFEB 		bl	abort
 7324              	.LVL1022:
 7325              	.LEHE50:
 7326              	.L776:
 7327 1d48 2CF9FFEA 		b	.L677
 7328              	.LVL1023:
 7329              	.L205:
 7330              	.LBE1928:
 7331              	.LBE1930:
 7332              	.LBE1932:
 7333              	.LBE1934:
 7334              	.LBE2045:
 7335              	.LBE2051:
 7336              	.LBE2057:
 7337              	.LBE2073:
 7338              	.LBE2410:
 219:../src/tensorflow_lite/tensorflow/lite/micro/kernels/pad.cc ****                          TfLiteTypeGetName(input->type));
 7339              		.loc 1 219 0
 7340 1d4c 144098E5 		ldr	r4, [r8, #20]
 7341              	.LEHB51:
 7342 1d50 FEFFFFEB 		bl	TfLiteTypeGetName
 7343              	.LVL1024:
 7344 1d54 001000E3 		movw	r1, #:lower16:.LC28
 7345 1d58 0020A0E1 		mov	r2, r0
 7346 1d5c 001040E3 		movt	r1, #:upper16:.LC28
 7347 1d60 0800A0E1 		mov	r0, r8
 7348 1d64 34FF2FE1 		blx	r4
 7349              	.LVL1025:
 221:../src/tensorflow_lite/tensorflow/lite/micro/kernels/pad.cc ****   }
 7350              		.loc 1 221 0
 7351 1d68 0100A0E3 		mov	r0, #1
 7352 1d6c 35FAFFEA 		b	.L1258
 7353              	.L1463:
 7354              	.LVL1026:
 7355              	.LBE2419:
 7356              	.LBE2422:
 7357              	.LBB2423:
 7358              	.LBB2424:
 7359              	.LBB2425:
  36:C:/Renesas/e2studio_2021_01_workspace_RZA2M_ANPR/ANPR_RZA2M_GR_MANGO/src/tensorflow_lite/tensorflow/lite/micro/kernels\kernel_util.h **** }
 7360              		.loc 5 36 0
 7361 1d70 0C1093E5 		ldr	r1, [r3, #12]
 7362 1d74 0800A0E1 		mov	r0, r8
 7363 1d78 543098E5 		ldr	r3, [r8, #84]
 7364 1d7c 33FF2FE1 		blx	r3
 7365              	.LVL1027:
 7366              	.LBE2425:
 7367              	.LBE2424:
 7368              	.LBE2423:
 7369              	.LBB2428:
 7370              	.LBB1205:
  50:C:/Renesas/e2studio_2021_01_workspace_RZA2M_ANPR/ANPR_RZA2M_GR_MANGO/src/tensorflow_lite/tensorflow/lite/micro/kernels\kernel_util.h **** }
 7371              		.loc 5 50 0
 7372 1d80 042096E5 		ldr	r2, [r6, #4]
 7373              	.LBE1205:
 7374              	.LBE2428:
 7375              	.LBB2429:
 7376              	.LBB2427:
 7377              	.LBB2426:
  36:C:/Renesas/e2studio_2021_01_workspace_RZA2M_ANPR/ANPR_RZA2M_GR_MANGO/src/tensorflow_lite/tensorflow/lite/micro/kernels\kernel_util.h **** }
 7378              		.loc 5 36 0
 7379 1d84 0040A0E1 		mov	r4, r0
 7380              	.LVL1028:
 7381              	.LBE2426:
 7382              	.LBE2427:
 7383              	.LBE2429:
 7384              	.LBB2430:
 7385              	.LBB1206:
  50:C:/Renesas/e2studio_2021_01_workspace_RZA2M_ANPR/ANPR_RZA2M_GR_MANGO/src/tensorflow_lite/tensorflow/lite/micro/kernels\kernel_util.h **** }
 7386              		.loc 5 50 0
 7387 1d88 543098E5 		ldr	r3, [r8, #84]
 7388 1d8c 0800A0E1 		mov	r0, r8
 7389              	.LVL1029:
 7390 1d90 041092E5 		ldr	r1, [r2, #4]
 7391 1d94 33FF2FE1 		blx	r3
 7392              	.LVL1030:
 7393              	.LEHE51:
 7394 1d98 0090A0E1 		mov	r9, r0
 7395              	.LVL1031:
 7396              	.LBE1206:
 7397              	.LBE2430:
 7398              	.LBB2431:
 148:../src/tensorflow_lite/tensorflow/lite/micro/kernels/pad.cc ****     case kTfLiteFloat32: {
 7399              		.loc 1 148 0
 7400 1d9c 0800D7E5 		ldrb	r0, [r7, #8]	@ zero_extendqisi2
 7401 1da0 013040E2 		sub	r3, r0, #1
 7402 1da4 080053E3 		cmp	r3, #8
 7403 1da8 03F19F97 		ldrls	pc, [pc, r3, asl #2]
 7404 1dac E6FFFFEA 		b	.L205
 7405              	.L207:
 7406 1db0 BC240000 		.word	.L206
 7407 1db4 AC240000 		.word	.L208
 7408 1db8 98240000 		.word	.L209
 7409 1dbc 4C1D0000 		.word	.L205
 7410 1dc0 4C1D0000 		.word	.L205
 7411 1dc4 4C1D0000 		.word	.L205
 7412 1dc8 4C1D0000 		.word	.L205
 7413 1dcc 4C1D0000 		.word	.L205
 7414 1dd0 84240000 		.word	.L210
 7415              	.LVL1032:
 7416              	.L765:
 7417 1dd4 02F9FFEA 		b	.L656
 7418              	.LVL1033:
 7419              	.L217:
 7420              	.LBB2420:
 7421              	.LBB2411:
 7422              	.LBB2406:
 7423              	.LBB2404:
 7424              	.LBB2402:
 7425              	.LBB2400:
 7426              	.LBB2283:
 7427              	.LBB2281:
 7428              	.LBB2279:
 7429              	.LBB2277:
 7430              	.LBB2275:
 7431              		.loc 4 315 0
 7432 1dd8 BC308DE2 		add	r3, sp, #188
 7433 1ddc 0221A0E1 		lsl	r2, r2, #2
 7434 1de0 000183E0 		add	r0, r3, r0, lsl #2
 7435              	.LVL1034:
 7436 1de4 8C108DE2 		add	r1, sp, #140
 7437 1de8 FEFFFFEB 		bl	memcpy
 7438              	.LVL1035:
 7439 1dec A0209DE5 		ldr	r2, [sp, #160]
 7440              	.LVL1036:
 7441              	.LBE2275:
 7442              	.LBE2277:
 7443              	.LBE2279:
 7444              	.LBE2281:
 7445              	.LBE2283:
 7446              	.LBB2284:
 7447              	.LBB2285:
 7448              	.LBB2286:
 7449              	.LBB2287:
 305:C:/Renesas/e2studio_2021_01_workspace_RZA2M_ANPR/ANPR_RZA2M_GR_MANGO/src/tensorflow_lite/tensorflow/lite/kernels/internal\types.h ****     // If the following check fails, it is likely because a 4D-only kernel is
 7450              		.loc 4 305 0
 7451 1df0 0030A0E3 		mov	r3, #0
 7452 1df4 D0308DE5 		str	r3, [sp, #208]
 7453              	.LBB2288:
 308:C:/Renesas/e2studio_2021_01_workspace_RZA2M_ANPR/ANPR_RZA2M_GR_MANGO/src/tensorflow_lite/tensorflow/lite/kernels/internal\types.h ****     Resize(new_shape_size);
 7454              		.loc 4 308 0
 7455 1df8 050052E3 		cmp	r2, #5
 7456 1dfc 9D0100CA 		bgt	.L1508
 7457              	.LVL1037:
 7458              	.LBB2289:
 311:C:/Renesas/e2studio_2021_01_workspace_RZA2M_ANPR/ANPR_RZA2M_GR_MANGO/src/tensorflow_lite/tensorflow/lite/kernels/internal\types.h ****       SetDim(i, pad_value);
 7459              		.loc 4 311 0
 7460 1e00 050072E2 		rsbs	r0, r2, #5
 7461              	.LBE2289:
 7462              	.LBB2302:
 7463              	.LBB2303:
 245:C:/Renesas/e2studio_2021_01_workspace_RZA2M_ANPR/ANPR_RZA2M_GR_MANGO/src/tensorflow_lite/tensorflow/lite/kernels/internal\types.h ****     if (dimensions_count > kMaxSmallSize) {
 7464              		.loc 4 245 0
 7465 1e04 0530A0E3 		mov	r3, #5
 7466 1e08 D0308DE5 		str	r3, [sp, #208]
 7467              	.LVL1038:
 7468              	.LBE2303:
 7469              	.LBE2302:
 7470              	.LBB2304:
 311:C:/Renesas/e2studio_2021_01_workspace_RZA2M_ANPR/ANPR_RZA2M_GR_MANGO/src/tensorflow_lite/tensorflow/lite/kernels/internal\types.h ****       SetDim(i, pad_value);
 7471              		.loc 4 311 0
 7472 1e0c 1300000A 		beq	.L222
 7473              	.LVL1039:
 7474 1e10 010050E3 		cmp	r0, #1
 7475              	.LBB2290:
 7476              	.LBB2291:
 224:C:/Renesas/e2studio_2021_01_workspace_RZA2M_ANPR/ANPR_RZA2M_GR_MANGO/src/tensorflow_lite/tensorflow/lite/kernels/internal\types.h ****     }
 7477              		.loc 4 224 0
 7478 1e14 0130A0E3 		mov	r3, #1
 7479 1e18 D4308DE5 		str	r3, [sp, #212]
 7480              	.LVL1040:
 7481              	.LBE2291:
 7482              	.LBE2290:
 311:C:/Renesas/e2studio_2021_01_workspace_RZA2M_ANPR/ANPR_RZA2M_GR_MANGO/src/tensorflow_lite/tensorflow/lite/kernels/internal\types.h ****       SetDim(i, pad_value);
 7483              		.loc 4 311 0
 7484 1e1c 0F00000A 		beq	.L222
 7485              	.LVL1041:
 7486 1e20 020050E3 		cmp	r0, #2
 7487              	.LBB2297:
 7488              	.LBB2292:
 224:C:/Renesas/e2studio_2021_01_workspace_RZA2M_ANPR/ANPR_RZA2M_GR_MANGO/src/tensorflow_lite/tensorflow/lite/kernels/internal\types.h ****     }
 7489              		.loc 4 224 0
 7490 1e24 D8308DE5 		str	r3, [sp, #216]
 7491              	.LVL1042:
 7492              	.LBE2292:
 7493              	.LBE2297:
 311:C:/Renesas/e2studio_2021_01_workspace_RZA2M_ANPR/ANPR_RZA2M_GR_MANGO/src/tensorflow_lite/tensorflow/lite/kernels/internal\types.h ****       SetDim(i, pad_value);
 7494              		.loc 4 311 0
 7495 1e28 0C00000A 		beq	.L222
 7496              	.LVL1043:
 7497 1e2c 030050E3 		cmp	r0, #3
 7498              	.LBB2298:
 7499              	.LBB2293:
 224:C:/Renesas/e2studio_2021_01_workspace_RZA2M_ANPR/ANPR_RZA2M_GR_MANGO/src/tensorflow_lite/tensorflow/lite/kernels/internal\types.h ****     }
 7500              		.loc 4 224 0
 7501 1e30 DC308DE5 		str	r3, [sp, #220]
 7502              	.LVL1044:
 7503              	.LBE2293:
 7504              	.LBE2298:
 311:C:/Renesas/e2studio_2021_01_workspace_RZA2M_ANPR/ANPR_RZA2M_GR_MANGO/src/tensorflow_lite/tensorflow/lite/kernels/internal\types.h ****       SetDim(i, pad_value);
 7505              		.loc 4 311 0
 7506 1e34 0900000A 		beq	.L222
 7507              	.LVL1045:
 7508 1e38 040050E3 		cmp	r0, #4
 7509              	.LBB2299:
 7510              	.LBB2294:
 224:C:/Renesas/e2studio_2021_01_workspace_RZA2M_ANPR/ANPR_RZA2M_GR_MANGO/src/tensorflow_lite/tensorflow/lite/kernels/internal\types.h ****     }
 7511              		.loc 4 224 0
 7512 1e3c E0308DE5 		str	r3, [sp, #224]
 7513              	.LVL1046:
 7514              	.LBE2294:
 7515              	.LBE2299:
 311:C:/Renesas/e2studio_2021_01_workspace_RZA2M_ANPR/ANPR_RZA2M_GR_MANGO/src/tensorflow_lite/tensorflow/lite/kernels/internal\types.h ****       SetDim(i, pad_value);
 7516              		.loc 4 311 0
 7517 1e40 0600000A 		beq	.L222
 7518              	.LVL1047:
 7519 1e44 050050E3 		cmp	r0, #5
 7520              	.LBB2300:
 7521              	.LBB2295:
 224:C:/Renesas/e2studio_2021_01_workspace_RZA2M_ANPR/ANPR_RZA2M_GR_MANGO/src/tensorflow_lite/tensorflow/lite/kernels/internal\types.h ****     }
 7522              		.loc 4 224 0
 7523 1e48 E4308DE5 		str	r3, [sp, #228]
 7524              	.LVL1048:
 7525              	.LBE2295:
 7526              	.LBE2300:
 311:C:/Renesas/e2studio_2021_01_workspace_RZA2M_ANPR/ANPR_RZA2M_GR_MANGO/src/tensorflow_lite/tensorflow/lite/kernels/internal\types.h ****       SetDim(i, pad_value);
 7527              		.loc 4 311 0
 7528 1e4c 0300000A 		beq	.L222
 7529              	.LVL1049:
 7530              	.LEHB52:
 7531              	.LBB2301:
 7532              	.LBB2296:
 220:C:/Renesas/e2studio_2021_01_workspace_RZA2M_ANPR/ANPR_RZA2M_GR_MANGO/src/tensorflow_lite/tensorflow/lite/kernels/internal\types.h ****     if (size_ > kMaxSmallSize) {
 7533              		.loc 4 220 0
 7534 1e50 FEFFFFEB 		bl	abort
 7535              	.LVL1050:
 7536              	.LEHE52:
 7537              	.L1507:
 7538              	.LEHB53:
 7539              	.LBE2296:
 7540              	.LBE2301:
 7541              	.LBE2304:
 7542              	.LBE2288:
 7543              	.LBE2287:
 7544              	.LBE2286:
 7545              	.LBE2285:
 7546              	.LBE2284:
 7547              	.LBB2313:
 7548              	.LBB2282:
 7549              	.LBB2280:
 7550              	.LBB2278:
 7551              	.LBB2276:
 308:C:/Renesas/e2studio_2021_01_workspace_RZA2M_ANPR/ANPR_RZA2M_GR_MANGO/src/tensorflow_lite/tensorflow/lite/kernels/internal\types.h ****     Resize(new_shape_size);
 7552              		.loc 4 308 0
 7553 1e54 FEFFFFEB 		bl	abort
 7554              	.LVL1051:
 7555              	.LEHE53:
 7556              	.L764:
 7557 1e58 E8F8FFEA 		b	.L677
 7558              	.LVL1052:
 7559              	.L778:
 7560 1e5c 10F9FFEA 		b	.L654
 7561              	.LVL1053:
 7562              	.L222:
 7563              	.LBE2276:
 7564              	.LBE2278:
 7565              	.LBE2280:
 7566              	.LBE2282:
 7567              	.LBE2313:
 7568              	.LBB2314:
 7569              	.LBB2311:
 7570              	.LBB2309:
 7571              	.LBB2307:
 7572              	.LBB2305:
 7573              		.loc 4 315 0
 7574 1e60 D4308DE2 		add	r3, sp, #212
 7575 1e64 0221A0E1 		lsl	r2, r2, #2
 7576 1e68 000183E0 		add	r0, r3, r0, lsl #2
 7577              	.LVL1054:
 7578 1e6c A4108DE2 		add	r1, sp, #164
 7579 1e70 FEFFFFEB 		bl	memcpy
 7580              	.LVL1055:
 7581              	.LBE2305:
 7582              	.LBE2307:
 7583              	.LBE2309:
 7584              	.LBE2311:
 7585              	.LBE2314:
  46:C:/Renesas/e2studio_2021_01_workspace_RZA2M_ANPR/ANPR_RZA2M_GR_MANGO/src/tensorflow_lite/tensorflow/lite/kernels/internal/reference\pad.h ****   TFLITE_DCHECK_LE(op_params.right_padding_count, PadKernelMaxDimensionCount());
 7586              		.loc 6 46 0
 7587 1e74 D020D5E1 		ldrsb	r2, [r5]
 7588 1e78 050052E3 		cmp	r2, #5
 7589 1e7c 7C0100CA 		bgt	.L1509
  47:C:/Renesas/e2studio_2021_01_workspace_RZA2M_ANPR/ANPR_RZA2M_GR_MANGO/src/tensorflow_lite/tensorflow/lite/kernels/internal/reference\pad.h **** 
 7590              		.loc 6 47 0
 7591 1e80 D861D5E1 		ldrsb	r6, [r5, #24]
 7592              	.LVL1056:
 7593 1e84 050056E3 		cmp	r6, #5
 7594 1e88 780100CA 		bgt	.L224
 7595              	.LVL1057:
 7596              	.LBB2315:
  55:C:/Renesas/e2studio_2021_01_workspace_RZA2M_ANPR/ANPR_RZA2M_GR_MANGO/src/tensorflow_lite/tensorflow/lite/kernels/internal/reference\pad.h ****     left_padding_copy[i + PadKernelMaxDimensionCount() -
 7597              		.loc 6 55 0
 7598 1e8c 000052E3 		cmp	r2, #0
 7599              	.LBE2315:
 7600              	.LBB2316:
  53:C:/Renesas/e2studio_2021_01_workspace_RZA2M_ANPR/ANPR_RZA2M_GR_MANGO/src/tensorflow_lite/tensorflow/lite/kernels/internal/reference\pad.h ****   }
 7601              		.loc 6 53 0
 7602 1e90 0030A0E3 		mov	r3, #0
 7603 1e94 60308DE5 		str	r3, [sp, #96]
 7604              	.LVL1058:
 7605 1e98 64308DE5 		str	r3, [sp, #100]
 7606              	.LVL1059:
 7607 1e9c 68308DE5 		str	r3, [sp, #104]
 7608              	.LVL1060:
 7609 1ea0 6C308DE5 		str	r3, [sp, #108]
 7610              	.LVL1061:
 7611 1ea4 70308DE5 		str	r3, [sp, #112]
 7612              	.LVL1062:
 7613              	.LBE2316:
 7614              	.LBB2317:
  55:C:/Renesas/e2studio_2021_01_workspace_RZA2M_ANPR/ANPR_RZA2M_GR_MANGO/src/tensorflow_lite/tensorflow/lite/kernels/internal/reference\pad.h ****     left_padding_copy[i + PadKernelMaxDimensionCount() -
 7615              		.loc 6 55 0
 7616 1ea8 050000DA 		ble	.L225
  56:C:/Renesas/e2studio_2021_01_workspace_RZA2M_ANPR/ANPR_RZA2M_GR_MANGO/src/tensorflow_lite/tensorflow/lite/kernels/internal/reference\pad.h ****                       op_params.left_padding_count] = op_params.left_padding[i];
 7617              		.loc 6 56 0
 7618 1eac E8308DE2 		add	r3, sp, #232
 7619 1eb0 041085E2 		add	r1, r5, #4
 7620 1eb4 020143E0 		sub	r0, r3, r2, lsl #2
 7621 1eb8 0221A0E1 		lsl	r2, r2, #2
 7622 1ebc 740040E2 		sub	r0, r0, #116
 7623 1ec0 FEFFFFEB 		bl	memcpy
 7624              	.LVL1063:
 7625              	.L225:
 7626              	.LBE2317:
 7627              	.LBB2318:
  63:C:/Renesas/e2studio_2021_01_workspace_RZA2M_ANPR/ANPR_RZA2M_GR_MANGO/src/tensorflow_lite/tensorflow/lite/kernels/internal/reference\pad.h ****     right_padding_copy[i + PadKernelMaxDimensionCount() -
 7628              		.loc 6 63 0
 7629 1ec4 000056E3 		cmp	r6, #0
 7630              	.LBE2318:
 7631              	.LBB2319:
  61:C:/Renesas/e2studio_2021_01_workspace_RZA2M_ANPR/ANPR_RZA2M_GR_MANGO/src/tensorflow_lite/tensorflow/lite/kernels/internal/reference\pad.h ****   }
 7632              		.loc 6 61 0
 7633 1ec8 0030A0E3 		mov	r3, #0
 7634 1ecc 74308DE5 		str	r3, [sp, #116]
 7635              	.LVL1064:
 7636 1ed0 78308DE5 		str	r3, [sp, #120]
 7637              	.LVL1065:
 7638 1ed4 7C308DE5 		str	r3, [sp, #124]
 7639              	.LVL1066:
 7640 1ed8 80308DE5 		str	r3, [sp, #128]
 7641              	.LVL1067:
 7642 1edc 84308DE5 		str	r3, [sp, #132]
 7643              	.LVL1068:
 7644              	.LBE2319:
 7645              	.LBB2320:
  63:C:/Renesas/e2studio_2021_01_workspace_RZA2M_ANPR/ANPR_RZA2M_GR_MANGO/src/tensorflow_lite/tensorflow/lite/kernels/internal/reference\pad.h ****     right_padding_copy[i + PadKernelMaxDimensionCount() -
 7646              		.loc 6 63 0
 7647 1ee0 050000DA 		ble	.L232
  64:C:/Renesas/e2studio_2021_01_workspace_RZA2M_ANPR/ANPR_RZA2M_GR_MANGO/src/tensorflow_lite/tensorflow/lite/kernels/internal/reference\pad.h ****                        op_params.right_padding_count] =
 7648              		.loc 6 64 0
 7649 1ee4 E8308DE2 		add	r3, sp, #232
 7650 1ee8 1C1085E2 		add	r1, r5, #28
 7651 1eec 060143E0 		sub	r0, r3, r6, lsl #2
 7652 1ef0 0621A0E1 		lsl	r2, r6, #2
 7653 1ef4 600040E2 		sub	r0, r0, #96
 7654 1ef8 FEFFFFEB 		bl	memcpy
 7655              	.LVL1069:
 7656              	.L232:
 7657              	.LBE2320:
 7658              	.LBB2321:
 7659              	.LBB2322:
 215:C:/Renesas/e2studio_2021_01_workspace_RZA2M_ANPR/ANPR_RZA2M_GR_MANGO/src/tensorflow_lite/tensorflow/lite/kernels/internal\types.h ****     return size_ > kMaxSmallSize ? dims_pointer_[i] : dims_[i];
 7660              		.loc 4 215 0
 7661 1efc D0309DE5 		ldr	r3, [sp, #208]
 7662 1f00 000053E3 		cmp	r3, #0
 7663 1f04 1C308DE5 		str	r3, [sp, #28]
 7664 1f08 940100DA 		ble	.L1510
 216:C:/Renesas/e2studio_2021_01_workspace_RZA2M_ANPR/ANPR_RZA2M_GR_MANGO/src/tensorflow_lite/tensorflow/lite/kernels/internal\types.h ****   }
 7665              		.loc 4 216 0
 7666 1f0c 050053E3 		cmp	r3, #5
 7667 1f10 730100CA 		bgt	.L1511
 7668              	.LBE2322:
 7669              	.LBE2321:
 7670              	.LBB2328:
 7671              	.LBB2329:
 215:C:/Renesas/e2studio_2021_01_workspace_RZA2M_ANPR/ANPR_RZA2M_GR_MANGO/src/tensorflow_lite/tensorflow/lite/kernels/internal\types.h ****     return size_ > kMaxSmallSize ? dims_pointer_[i] : dims_[i];
 7672              		.loc 4 215 0
 7673 1f14 010053E3 		cmp	r3, #1
 7674              	.LBE2329:
 7675              	.LBE2328:
 7676              	.LBB2336:
 7677              	.LBB2323:
 216:C:/Renesas/e2studio_2021_01_workspace_RZA2M_ANPR/ANPR_RZA2M_GR_MANGO/src/tensorflow_lite/tensorflow/lite/kernels/internal\types.h ****   }
 7678              		.loc 4 216 0
 7679 1f18 D4309DE5 		ldr	r3, [sp, #212]
 7680 1f1c 20308DE5 		str	r3, [sp, #32]
 7681              	.LVL1070:
 7682              	.LBE2323:
 7683              	.LBE2336:
 7684              	.LBB2337:
 7685              	.LBB2330:
 215:C:/Renesas/e2studio_2021_01_workspace_RZA2M_ANPR/ANPR_RZA2M_GR_MANGO/src/tensorflow_lite/tensorflow/lite/kernels/internal\types.h ****     return size_ > kMaxSmallSize ? dims_pointer_[i] : dims_[i];
 7686              		.loc 4 215 0
 7687 1f20 6E01000A 		beq	.L1512
 7688              	.LBE2330:
 7689              	.LBE2337:
 7690              	.LBB2338:
 7691              	.LBB2339:
 7692 1f24 1C309DE5 		ldr	r3, [sp, #28]
 7693              	.LBE2339:
 7694              	.LBE2338:
 7695              	.LBB2346:
 7696              	.LBB2331:
 216:C:/Renesas/e2studio_2021_01_workspace_RZA2M_ANPR/ANPR_RZA2M_GR_MANGO/src/tensorflow_lite/tensorflow/lite/kernels/internal\types.h ****   }
 7697              		.loc 4 216 0
 7698 1f28 D8209DE5 		ldr	r2, [sp, #216]
 7699              	.LBE2331:
 7700              	.LBE2346:
 7701              	.LBB2347:
 7702              	.LBB2340:
 215:C:/Renesas/e2studio_2021_01_workspace_RZA2M_ANPR/ANPR_RZA2M_GR_MANGO/src/tensorflow_lite/tensorflow/lite/kernels/internal\types.h ****     return size_ > kMaxSmallSize ? dims_pointer_[i] : dims_[i];
 7703              		.loc 4 215 0
 7704 1f2c 020053E3 		cmp	r3, #2
 7705              	.LBE2340:
 7706              	.LBE2347:
 7707              	.LBB2348:
 7708              	.LBB2332:
 216:C:/Renesas/e2studio_2021_01_workspace_RZA2M_ANPR/ANPR_RZA2M_GR_MANGO/src/tensorflow_lite/tensorflow/lite/kernels/internal\types.h ****   }
 7709              		.loc 4 216 0
 7710 1f30 18208DE5 		str	r2, [sp, #24]
 7711              	.LVL1071:
 7712              	.LBE2332:
 7713              	.LBE2348:
 7714              	.LBB2349:
 7715              	.LBB2341:
 215:C:/Renesas/e2studio_2021_01_workspace_RZA2M_ANPR/ANPR_RZA2M_GR_MANGO/src/tensorflow_lite/tensorflow/lite/kernels/internal\types.h ****     return size_ > kMaxSmallSize ? dims_pointer_[i] : dims_[i];
 7716              		.loc 4 215 0
 7717 1f34 6801000A 		beq	.L689
 216:C:/Renesas/e2studio_2021_01_workspace_RZA2M_ANPR/ANPR_RZA2M_GR_MANGO/src/tensorflow_lite/tensorflow/lite/kernels/internal\types.h ****   }
 7718              		.loc 4 216 0
 7719 1f38 DC209DE5 		ldr	r2, [sp, #220]
 7720              	.LBE2341:
 7721              	.LBE2349:
 7722              	.LBB2350:
 7723              	.LBB2351:
 215:C:/Renesas/e2studio_2021_01_workspace_RZA2M_ANPR/ANPR_RZA2M_GR_MANGO/src/tensorflow_lite/tensorflow/lite/kernels/internal\types.h ****     return size_ > kMaxSmallSize ? dims_pointer_[i] : dims_[i];
 7724              		.loc 4 215 0
 7725 1f3c 030053E3 		cmp	r3, #3
 7726              	.LBE2351:
 7727              	.LBE2350:
 7728              	.LBB2356:
 7729              	.LBB2342:
 216:C:/Renesas/e2studio_2021_01_workspace_RZA2M_ANPR/ANPR_RZA2M_GR_MANGO/src/tensorflow_lite/tensorflow/lite/kernels/internal\types.h ****   }
 7730              		.loc 4 216 0
 7731 1f40 0C208DE5 		str	r2, [sp, #12]
 7732              	.LVL1072:
 7733              	.LBE2342:
 7734              	.LBE2356:
 7735              	.LBB2357:
 7736              	.LBB2352:
 215:C:/Renesas/e2studio_2021_01_workspace_RZA2M_ANPR/ANPR_RZA2M_GR_MANGO/src/tensorflow_lite/tensorflow/lite/kernels/internal\types.h ****     return size_ > kMaxSmallSize ? dims_pointer_[i] : dims_[i];
 7737              		.loc 4 215 0
 7738 1f44 6201000A 		beq	.L690
 7739              	.LBE2352:
 7740              	.LBE2357:
 7741              	.LBB2358:
 7742              	.LBB2359:
 7743 1f48 040053E3 		cmp	r3, #4
 7744              	.LBE2359:
 7745              	.LBE2358:
 7746              	.LBB2364:
 7747              	.LBB2353:
 216:C:/Renesas/e2studio_2021_01_workspace_RZA2M_ANPR/ANPR_RZA2M_GR_MANGO/src/tensorflow_lite/tensorflow/lite/kernels/internal\types.h ****   }
 7748              		.loc 4 216 0
 7749 1f4c E0A09DE5 		ldr	r10, [sp, #224]
 7750              	.LVL1073:
 7751              	.LBE2353:
 7752              	.LBE2364:
 7753              	.LBB2365:
 7754              	.LBB2360:
 215:C:/Renesas/e2studio_2021_01_workspace_RZA2M_ANPR/ANPR_RZA2M_GR_MANGO/src/tensorflow_lite/tensorflow/lite/kernels/internal\types.h ****     return size_ > kMaxSmallSize ? dims_pointer_[i] : dims_[i];
 7755              		.loc 4 215 0
 7756 1f50 5E01000A 		beq	.L1513
 7757              	.LBE2360:
 7758              	.LBE2365:
  76:C:/Renesas/e2studio_2021_01_workspace_RZA2M_ANPR/ANPR_RZA2M_GR_MANGO/src/tensorflow_lite/tensorflow/lite/kernels/internal/reference\pad.h ****   const int left_h_padding = left_padding_copy[2];
 7759              		.loc 6 76 0
 7760 1f54 64209DE5 		ldr	r2, [sp, #100]
 7761              	.LBB2366:
  91:C:/Renesas/e2studio_2021_01_workspace_RZA2M_ANPR/ANPR_RZA2M_GR_MANGO/src/tensorflow_lite/tensorflow/lite/kernels/internal/reference\pad.h ****     for (int out_p = 0; out_p < output_plane; ++out_p) {
 7762              		.loc 6 91 0
 7763 1f58 20309DE5 		ldr	r3, [sp, #32]
 7764              	.LBE2366:
 7765              	.LBB2377:
 7766              	.LBB2361:
 216:C:/Renesas/e2studio_2021_01_workspace_RZA2M_ANPR/ANPR_RZA2M_GR_MANGO/src/tensorflow_lite/tensorflow/lite/kernels/internal\types.h ****   }
 7767              		.loc 4 216 0
 7768 1f5c E4109DE5 		ldr	r1, [sp, #228]
 7769              	.LVL1074:
 7770              	.LBE2361:
 7771              	.LBE2377:
  76:C:/Renesas/e2studio_2021_01_workspace_RZA2M_ANPR/ANPR_RZA2M_GR_MANGO/src/tensorflow_lite/tensorflow/lite/kernels/internal/reference\pad.h ****   const int left_h_padding = left_padding_copy[2];
 7772              		.loc 6 76 0
 7773 1f60 48208DE5 		str	r2, [sp, #72]
  77:C:/Renesas/e2studio_2021_01_workspace_RZA2M_ANPR/ANPR_RZA2M_GR_MANGO/src/tensorflow_lite/tensorflow/lite/kernels/internal/reference\pad.h ****   const int left_w_padding = left_padding_copy[3];
 7774              		.loc 6 77 0
 7775 1f64 68209DE5 		ldr	r2, [sp, #104]
 7776              	.LBB2378:
  91:C:/Renesas/e2studio_2021_01_workspace_RZA2M_ANPR/ANPR_RZA2M_GR_MANGO/src/tensorflow_lite/tensorflow/lite/kernels/internal/reference\pad.h ****     for (int out_p = 0; out_p < output_plane; ++out_p) {
 7777              		.loc 6 91 0
 7778 1f68 000053E3 		cmp	r3, #0
 7779              	.LBE2378:
  75:C:/Renesas/e2studio_2021_01_workspace_RZA2M_ANPR/ANPR_RZA2M_GR_MANGO/src/tensorflow_lite/tensorflow/lite/kernels/internal/reference\pad.h ****   const int left_p_padding = left_padding_copy[1];
 7780              		.loc 6 75 0
 7781 1f6c 60609DE5 		ldr	r6, [sp, #96]
 7782              	.LVL1075:
  78:C:/Renesas/e2studio_2021_01_workspace_RZA2M_ANPR/ANPR_RZA2M_GR_MANGO/src/tensorflow_lite/tensorflow/lite/kernels/internal/reference\pad.h ****   const int left_d_padding = left_padding_copy[4];
 7783              		.loc 6 78 0
 7784 1f70 6C809DE5 		ldr	r8, [sp, #108]
 7785              	.LVL1076:
  77:C:/Renesas/e2studio_2021_01_workspace_RZA2M_ANPR/ANPR_RZA2M_GR_MANGO/src/tensorflow_lite/tensorflow/lite/kernels/internal/reference\pad.h ****   const int left_w_padding = left_padding_copy[3];
 7786              		.loc 6 77 0
 7787 1f74 30208DE5 		str	r2, [sp, #48]
 7788              	.LVL1077:
  79:C:/Renesas/e2studio_2021_01_workspace_RZA2M_ANPR/ANPR_RZA2M_GR_MANGO/src/tensorflow_lite/tensorflow/lite/kernels/internal/reference\pad.h **** 
 7789              		.loc 6 79 0
 7790 1f78 70209DE5 		ldr	r2, [sp, #112]
 7791              	.LVL1078:
 7792 1f7c 3C208DE5 		str	r2, [sp, #60]
 7793              	.LVL1079:
  81:C:/Renesas/e2studio_2021_01_workspace_RZA2M_ANPR/ANPR_RZA2M_GR_MANGO/src/tensorflow_lite/tensorflow/lite/kernels/internal/reference\pad.h ****   const int right_p_padding = right_padding_copy[1];
 7794              		.loc 6 81 0
 7795 1f80 74209DE5 		ldr	r2, [sp, #116]
 7796              	.LVL1080:
 7797 1f84 44208DE5 		str	r2, [sp, #68]
 7798              	.LVL1081:
  82:C:/Renesas/e2studio_2021_01_workspace_RZA2M_ANPR/ANPR_RZA2M_GR_MANGO/src/tensorflow_lite/tensorflow/lite/kernels/internal/reference\pad.h ****   const int right_h_padding = right_padding_copy[2];
 7799              		.loc 6 82 0
 7800 1f88 78209DE5 		ldr	r2, [sp, #120]
 7801              	.LVL1082:
 7802 1f8c 24208DE5 		str	r2, [sp, #36]
 7803              	.LVL1083:
  83:C:/Renesas/e2studio_2021_01_workspace_RZA2M_ANPR/ANPR_RZA2M_GR_MANGO/src/tensorflow_lite/tensorflow/lite/kernels/internal/reference\pad.h ****   const int right_w_padding = right_padding_copy[3];
 7804              		.loc 6 83 0
 7805 1f90 7C209DE5 		ldr	r2, [sp, #124]
 7806              	.LVL1084:
 7807 1f94 2C208DE5 		str	r2, [sp, #44]
 7808              	.LVL1085:
  84:C:/Renesas/e2studio_2021_01_workspace_RZA2M_ANPR/ANPR_RZA2M_GR_MANGO/src/tensorflow_lite/tensorflow/lite/kernels/internal/reference\pad.h ****   const int right_d_padding = right_padding_copy[4];
 7809              		.loc 6 84 0
 7810 1f98 80209DE5 		ldr	r2, [sp, #128]
 7811              	.LVL1086:
 7812 1f9c 28208DE5 		str	r2, [sp, #40]
 7813              	.LVL1087:
  85:C:/Renesas/e2studio_2021_01_workspace_RZA2M_ANPR/ANPR_RZA2M_GR_MANGO/src/tensorflow_lite/tensorflow/lite/kernels/internal/reference\pad.h **** 
 7814              		.loc 6 85 0
 7815 1fa0 84209DE5 		ldr	r2, [sp, #132]
 7816              	.LVL1088:
 7817 1fa4 40208DE5 		str	r2, [sp, #64]
 7818              	.LVL1089:
 7819              	.LBB2379:
  91:C:/Renesas/e2studio_2021_01_workspace_RZA2M_ANPR/ANPR_RZA2M_GR_MANGO/src/tensorflow_lite/tensorflow/lite/kernels/internal/reference\pad.h ****     for (int out_p = 0; out_p < output_plane; ++out_p) {
 7820              		.loc 6 91 0
 7821 1fa8 90F9FFDA 		ble	.L609
 7822 1fac 38308DE5 		str	r3, [sp, #56]
 7823              	.LVL1090:
 7824              	.L235:
 7825 1fb0 18309DE5 		ldr	r3, [sp, #24]
 7826 1fb4 000053E3 		cmp	r3, #0
 7827 1fb8 7B0000DA 		ble	.L238
 7828 1fbc 0131A0E1 		lsl	r3, r1, #2
 7829 1fc0 090041E2 		sub	r0, r1, #9
 7830 1fc4 0070A0E3 		mov	r7, #0
 7831 1fc8 0A20A0E1 		mov	r2, r10
 7832 1fcc 04308DE5 		str	r3, [sp, #4]
 7833 1fd0 0700C0E3 		bic	r0, r0, #7
 7834 1fd4 0830A0E1 		mov	r3, r8
 7835 1fd8 07A0A0E1 		mov	r10, r7
 7836 1fdc 0680A0E1 		mov	r8, r6
 7837              	.LVL1091:
 7838 1fe0 080080E2 		add	r0, r0, #8
 7839 1fe4 0360A0E1 		mov	r6, r3
 7840              	.LVL1092:
 7841 1fe8 0270A0E1 		mov	r7, r2
 7842              	.LVL1093:
 7843              	.L273:
 7844 1fec 0030A0E3 		mov	r3, #0
 7845 1ff0 14308DE5 		str	r3, [sp, #20]
 7846 1ff4 0630A0E1 		mov	r3, r6
 7847 1ff8 0860A0E1 		mov	r6, r8
 7848              	.LVL1094:
 7849 1ffc 0380A0E1 		mov	r8, r3
 7850              	.LVL1095:
 7851              	.L272:
 7852              	.LBB2367:
 7853              	.LBB2368:
  93:C:/Renesas/e2studio_2021_01_workspace_RZA2M_ANPR/ANPR_RZA2M_GR_MANGO/src/tensorflow_lite/tensorflow/lite/kernels/internal/reference\pad.h ****         for (int out_w = 0; out_w < output_width; ++out_w) {
 7854              		.loc 6 93 0
 7855 2000 0C309DE5 		ldr	r3, [sp, #12]
 7856 2004 000053E3 		cmp	r3, #0
 7857 2008 5A0000DA 		ble	.L239
 7858              	.LBB2369:
 7859              	.LBB2370:
  97:C:/Renesas/e2studio_2021_01_workspace_RZA2M_ANPR/ANPR_RZA2M_GR_MANGO/src/tensorflow_lite/tensorflow/lite/kernels/internal/reference\pad.h ****                 out_p < left_p_padding ||
 7860              		.loc 6 97 0
 7861 200c 44209DE5 		ldr	r2, [sp, #68]
  96:C:/Renesas/e2studio_2021_01_workspace_RZA2M_ANPR/ANPR_RZA2M_GR_MANGO/src/tensorflow_lite/tensorflow/lite/kernels/internal/reference\pad.h ****                 out_b >= output_batch - right_b_padding ||
 7862              		.loc 6 96 0
 7863 2010 00E0A0E3 		mov	lr, #0
  97:C:/Renesas/e2studio_2021_01_workspace_RZA2M_ANPR/ANPR_RZA2M_GR_MANGO/src/tensorflow_lite/tensorflow/lite/kernels/internal/reference\pad.h ****                 out_p < left_p_padding ||
 7864              		.loc 6 97 0
 7865 2014 20309DE5 		ldr	r3, [sp, #32]
 7866 2018 48C09DE5 		ldr	ip, [sp, #72]
 7867 201c 023043E0 		sub	r3, r3, r2
 7868 2020 14209DE5 		ldr	r2, [sp, #20]
 7869 2024 0C0052E1 		cmp	r2, ip
 7870 2028 0A0053A1 		cmpge	r3, r10
 7871 202c 0130A0D3 		movle	r3, #1
 7872 2030 0030A0C3 		movgt	r3, #0
 7873 2034 08308DE5 		str	r3, [sp, #8]
 105:C:/Renesas/e2studio_2021_01_workspace_RZA2M_ANPR/ANPR_RZA2M_GR_MANGO/src/tensorflow_lite/tensorflow/lite/kernels/internal/reference\pad.h ****               *out_ptr++ = pad_value;
 7874              		.loc 6 105 0
 7875 2038 40309DE5 		ldr	r3, [sp, #64]
 7876 203c 033041E0 		sub	r3, r1, r3
 7877 2040 50308DE5 		str	r3, [sp, #80]
 7878              	.LVL1096:
 7879              	.L271:
 7880              	.LBE2370:
  94:C:/Renesas/e2studio_2021_01_workspace_RZA2M_ANPR/ANPR_RZA2M_GR_MANGO/src/tensorflow_lite/tensorflow/lite/kernels/internal/reference\pad.h ****           for (int out_d = 0; out_d < output_depth; ++out_d) {
 7881              		.loc 6 94 0
 7882 2044 000057E3 		cmp	r7, #0
 7883 2048 460000DA 		ble	.L240
 7884              	.LBB2371:
  99:C:/Renesas/e2studio_2021_01_workspace_RZA2M_ANPR/ANPR_RZA2M_GR_MANGO/src/tensorflow_lite/tensorflow/lite/kernels/internal/reference\pad.h ****                 out_h < left_h_padding ||
 7885              		.loc 6 99 0
 7886 204c 24209DE5 		ldr	r2, [sp, #36]
  98:C:/Renesas/e2studio_2021_01_workspace_RZA2M_ANPR/ANPR_RZA2M_GR_MANGO/src/tensorflow_lite/tensorflow/lite/kernels/internal/reference\pad.h ****                 out_p >= output_plane - right_p_padding ||
 7887              		.loc 6 98 0
 7888 2050 00C0A0E3 		mov	ip, #0
  99:C:/Renesas/e2studio_2021_01_workspace_RZA2M_ANPR/ANPR_RZA2M_GR_MANGO/src/tensorflow_lite/tensorflow/lite/kernels/internal/reference\pad.h ****                 out_h < left_h_padding ||
 7889              		.loc 6 99 0
 7890 2054 18309DE5 		ldr	r3, [sp, #24]
 7891 2058 30509DE5 		ldr	r5, [sp, #48]
 7892 205c 023043E0 		sub	r3, r3, r2
 7893 2060 14209DE5 		ldr	r2, [sp, #20]
 7894 2064 05005EE1 		cmp	lr, r5
 7895 2068 020053A1 		cmpge	r3, r2
 101:C:/Renesas/e2studio_2021_01_workspace_RZA2M_ANPR/ANPR_RZA2M_GR_MANGO/src/tensorflow_lite/tensorflow/lite/kernels/internal/reference\pad.h ****                 out_w < left_w_padding ||
 7896              		.loc 6 101 0
 7897 206c 2C209DE5 		ldr	r2, [sp, #44]
 7898 2070 0130A0D3 		movle	r3, #1
 7899 2074 0030A0C3 		movgt	r3, #0
 7900 2078 10308DE5 		str	r3, [sp, #16]
 7901 207c 0C309DE5 		ldr	r3, [sp, #12]
 7902 2080 025043E0 		sub	r5, r3, r2
 7903 2084 28309DE5 		ldr	r3, [sp, #40]
 7904 2088 033047E0 		sub	r3, r7, r3
 7905 208c 4C308DE5 		str	r3, [sp, #76]
 7906              	.LVL1097:
 7907              	.L270:
  95:C:/Renesas/e2studio_2021_01_workspace_RZA2M_ANPR/ANPR_RZA2M_GR_MANGO/src/tensorflow_lite/tensorflow/lite/kernels/internal/reference\pad.h ****             if (out_b < left_b_padding ||
 7908              		.loc 6 95 0
 7909 2090 000051E3 		cmp	r1, #0
 7910 2094 300000DA 		ble	.L241
 7911 2098 08005CE1 		cmp	ip, r8
 7912 209c 0E0055A1 		cmpge	r5, lr
 7913 20a0 0130A0D3 		movle	r3, #1
 7914 20a4 0030A0C3 		movgt	r3, #0
 7915 20a8 06005AE1 		cmp	r10, r6
 7916 20ac 450000BA 		blt	.L242
 7917 20b0 08209DE5 		ldr	r2, [sp, #8]
 7918 20b4 000052E3 		cmp	r2, #0
 7919 20b8 5E00001A 		bne	.L243
 7920 20bc 000053E3 		cmp	r3, #0
 7921 20c0 7700001A 		bne	.L244
 7922 20c4 10309DE5 		ldr	r3, [sp, #16]
 7923 20c8 000053E3 		cmp	r3, #0
 7924 20cc AC00001A 		bne	.L245
 7925 20d0 09B0A0E1 		mov	fp, r9
 100:C:/Renesas/e2studio_2021_01_workspace_RZA2M_ANPR/ANPR_RZA2M_GR_MANGO/src/tensorflow_lite/tensorflow/lite/kernels/internal/reference\pad.h ****                 out_h >= output_height - right_h_padding ||
 7926              		.loc 6 100 0
 7927 20d4 54908DE5 		str	r9, [sp, #84]
 7928 20d8 58E08DE5 		str	lr, [sp, #88]
 7929 20dc 4C909DE5 		ldr	r9, [sp, #76]
 7930              	.LVL1098:
 7931 20e0 3CE09DE5 		ldr	lr, [sp, #60]
 7932 20e4 5C008DE5 		str	r0, [sp, #92]
 7933 20e8 0A0000EA 		b	.L247
 7934              	.LVL1099:
 7935              	.L1515:
 104:C:/Renesas/e2studio_2021_01_workspace_RZA2M_ANPR/ANPR_RZA2M_GR_MANGO/src/tensorflow_lite/tensorflow/lite/kernels/internal/reference\pad.h ****                 out_d >= output_depth - right_d_padding) {
 7936              		.loc 6 104 0
 7937 20ec 50209DE5 		ldr	r2, [sp, #80]
 7938 20f0 020053E1 		cmp	r3, r2
 7939 20f4 0E0000AA 		bge	.L721
 7940              	.LVL1100:
 7941              		.loc 6 108 0
 7942 20f8 34009DE5 		ldr	r0, [sp, #52]
  95:C:/Renesas/e2studio_2021_01_workspace_RZA2M_ANPR/ANPR_RZA2M_GR_MANGO/src/tensorflow_lite/tensorflow/lite/kernels/internal/reference\pad.h ****             if (out_b < left_b_padding ||
 7943              		.loc 6 95 0
 7944 20fc 013083E2 		add	r3, r3, #1
 7945              	.LVL1101:
 7946 2100 010053E1 		cmp	r3, r1
 7947              		.loc 6 108 0
 7948 2104 002090E5 		ldr	r2, [r0]	@ float
 7949 2108 040080E2 		add	r0, r0, #4
 7950              	.LVL1102:
 7951 210c 34008DE5 		str	r0, [sp, #52]
 7952 2110 04208BE4 		str	r2, [fp], #4	@ float
 7953              	.LVL1103:
  95:C:/Renesas/e2studio_2021_01_workspace_RZA2M_ANPR/ANPR_RZA2M_GR_MANGO/src/tensorflow_lite/tensorflow/lite/kernels/internal/reference\pad.h ****             if (out_b < left_b_padding ||
 7954              		.loc 6 95 0
 7955 2114 0B00000A 		beq	.L1514
 7956              	.LVL1104:
 7957              	.L247:
 103:C:/Renesas/e2studio_2021_01_workspace_RZA2M_ANPR/ANPR_RZA2M_GR_MANGO/src/tensorflow_lite/tensorflow/lite/kernels/internal/reference\pad.h ****                 out_d < left_d_padding ||
 7958              		.loc 6 103 0
 7959 2118 0E0053E1 		cmp	r3, lr
 7960 211c 0020A0A3 		movge	r2, #0
 7961 2120 0120A0B3 		movlt	r2, #1
 7962 2124 09005CE1 		cmp	ip, r9
 7963 2128 012082A3 		orrge	r2, r2, #1
 7964 212c 000052E3 		cmp	r2, #0
 7965 2130 EDFFFF0A 		beq	.L1515
 7966              	.L721:
  95:C:/Renesas/e2studio_2021_01_workspace_RZA2M_ANPR/ANPR_RZA2M_GR_MANGO/src/tensorflow_lite/tensorflow/lite/kernels/internal/reference\pad.h ****             if (out_b < left_b_padding ||
 7967              		.loc 6 95 0
 7968 2134 013083E2 		add	r3, r3, #1
 7969              	.LVL1105:
 106:C:/Renesas/e2studio_2021_01_workspace_RZA2M_ANPR/ANPR_RZA2M_GR_MANGO/src/tensorflow_lite/tensorflow/lite/kernels/internal/reference\pad.h ****             } else {
 7970              		.loc 6 106 0
 7971 2138 0420A0E1 		mov	r2, r4	@ float
  95:C:/Renesas/e2studio_2021_01_workspace_RZA2M_ANPR/ANPR_RZA2M_GR_MANGO/src/tensorflow_lite/tensorflow/lite/kernels/internal/reference\pad.h ****             if (out_b < left_b_padding ||
 7972              		.loc 6 95 0
 7973 213c 010053E1 		cmp	r3, r1
 7974 2140 04208BE4 		str	r2, [fp], #4	@ float
 7975              	.LVL1106:
 7976 2144 F3FFFF1A 		bne	.L247
 7977              	.L1514:
 7978 2148 54909DE5 		ldr	r9, [sp, #84]
 7979 214c 04309DE5 		ldr	r3, [sp, #4]
 7980              	.LVL1107:
 7981 2150 58E09DE5 		ldr	lr, [sp, #88]
 7982 2154 5C009DE5 		ldr	r0, [sp, #92]
 7983 2158 039089E0 		add	r9, r9, r3
 7984              	.L241:
 7985              	.LBE2371:
  94:C:/Renesas/e2studio_2021_01_workspace_RZA2M_ANPR/ANPR_RZA2M_GR_MANGO/src/tensorflow_lite/tensorflow/lite/kernels/internal/reference\pad.h ****           for (int out_d = 0; out_d < output_depth; ++out_d) {
 7986              		.loc 6 94 0
 7987 215c 01C08CE2 		add	ip, ip, #1
 7988              	.LVL1108:
 7989 2160 07005CE1 		cmp	ip, r7
 7990 2164 C9FFFF1A 		bne	.L270
 7991              	.LVL1109:
 7992              	.L240:
 7993              	.LBE2369:
  93:C:/Renesas/e2studio_2021_01_workspace_RZA2M_ANPR/ANPR_RZA2M_GR_MANGO/src/tensorflow_lite/tensorflow/lite/kernels/internal/reference\pad.h ****         for (int out_w = 0; out_w < output_width; ++out_w) {
 7994              		.loc 6 93 0
 7995 2168 0C309DE5 		ldr	r3, [sp, #12]
 7996 216c 01E08EE2 		add	lr, lr, #1
 7997              	.LVL1110:
 7998 2170 03005EE1 		cmp	lr, r3
 7999 2174 B2FFFF1A 		bne	.L271
 8000              	.LVL1111:
 8001              	.L239:
 8002              	.LBE2368:
  92:C:/Renesas/e2studio_2021_01_workspace_RZA2M_ANPR/ANPR_RZA2M_GR_MANGO/src/tensorflow_lite/tensorflow/lite/kernels/internal/reference\pad.h ****       for (int out_h = 0; out_h < output_height; ++out_h) {
 8003              		.loc 6 92 0
 8004 2178 14309DE5 		ldr	r3, [sp, #20]
 8005 217c 18209DE5 		ldr	r2, [sp, #24]
 8006 2180 013083E2 		add	r3, r3, #1
 8007 2184 020053E1 		cmp	r3, r2
 8008 2188 14308DE5 		str	r3, [sp, #20]
 8009              	.LVL1112:
 8010 218c 9BFFFF1A 		bne	.L272
 8011 2190 0830A0E1 		mov	r3, r8
 8012              	.LVL1113:
 8013 2194 0680A0E1 		mov	r8, r6
 8014              	.LVL1114:
 8015 2198 0360A0E1 		mov	r6, r3
 8016              	.LVL1115:
 8017              	.LBE2367:
  91:C:/Renesas/e2studio_2021_01_workspace_RZA2M_ANPR/ANPR_RZA2M_GR_MANGO/src/tensorflow_lite/tensorflow/lite/kernels/internal/reference\pad.h ****     for (int out_p = 0; out_p < output_plane; ++out_p) {
 8018              		.loc 6 91 0
 8019 219c 20309DE5 		ldr	r3, [sp, #32]
 8020 21a0 01A08AE2 		add	r10, r10, #1
 8021              	.LVL1116:
 8022 21a4 03005AE1 		cmp	r10, r3
 8023 21a8 8FFFFFBA 		blt	.L273
 8024              	.LVL1117:
 8025              	.L238:
 8026              	.LBE2379:
 8027              	.LBB2380:
 8028              	.LBB2381:
 203:C:/Renesas/e2studio_2021_01_workspace_RZA2M_ANPR/ANPR_RZA2M_GR_MANGO/src/tensorflow_lite/tensorflow/lite/kernels/internal\types.h **** #ifdef TF_LITE_STATIC_MEMORY
 8029              		.loc 4 203 0
 8030 21ac 1C309DE5 		ldr	r3, [sp, #28]
 8031 21b0 050053E3 		cmp	r3, #5
 8032 21b4 0DF9FF0A 		beq	.L609
 8033              	.LVL1118:
 8034              	.L234:
 207:C:/Renesas/e2studio_2021_01_workspace_RZA2M_ANPR/ANPR_RZA2M_GR_MANGO/src/tensorflow_lite/tensorflow/lite/kernels/internal\types.h **** #endif  // TF_LITE_STATIC_MEMORY
 8035              		.loc 4 207 0
 8036 21b8 38309DE5 		ldr	r3, [sp, #56]
 8037 21bc 000053E3 		cmp	r3, #0
 8038 21c0 08F9FF1A 		bne	.L1400
 8039 21c4 09F9FFEA 		b	.L609
 8040              	.LVL1119:
 8041              	.L242:
 8042 21c8 080051E3 		cmp	r1, #8
 8043 21cc 860000DA 		ble	.L726
 8044 21d0 203089E2 		add	r3, r9, #32
 8045              	.LBE2381:
 8046              	.LBE2380:
 8047              	.LBB2382:
 8048              	.LBB2376:
 8049              	.LBB2375:
 8050              	.LBB2374:
 8051              	.LBB2372:
 100:C:/Renesas/e2studio_2021_01_workspace_RZA2M_ANPR/ANPR_RZA2M_GR_MANGO/src/tensorflow_lite/tensorflow/lite/kernels/internal/reference\pad.h ****                 out_h >= output_height - right_h_padding ||
 8052              		.loc 6 100 0
 8053 21d4 0020A0E3 		mov	r2, #0
 8054              	.LVL1120:
 8055              	.L267:
 8056 21d8 082082E2 		add	r2, r2, #8
 8057              	.LVL1121:
 8058 21dc 80F0D3F5 		pld	[r3, #128]
 8059 21e0 020050E1 		cmp	r0, r2
 8060 21e4 204003E5 		str	r4, [r3, #-32]	@ float
 8061              	.LVL1122:
 8062 21e8 1C4003E5 		str	r4, [r3, #-28]	@ float
 8063              	.LVL1123:
 8064 21ec 03B0A0E1 		mov	fp, r3
 8065 21f0 184003E5 		str	r4, [r3, #-24]	@ float
 8066              	.LVL1124:
 8067 21f4 203083E2 		add	r3, r3, #32
 8068              	.LVL1125:
 8069 21f8 344003E5 		str	r4, [r3, #-52]	@ float
 8070              	.LVL1126:
 8071 21fc 304003E5 		str	r4, [r3, #-48]	@ float
 8072 2200 2C4003E5 		str	r4, [r3, #-44]	@ float
 8073 2204 284003E5 		str	r4, [r3, #-40]	@ float
 8074 2208 244003E5 		str	r4, [r3, #-36]	@ float
 8075              	.LVL1127:
 8076 220c F1FFFF1A 		bne	.L267
 8077              	.L269:
 8078              	.LVL1128:
  95:C:/Renesas/e2studio_2021_01_workspace_RZA2M_ANPR/ANPR_RZA2M_GR_MANGO/src/tensorflow_lite/tensorflow/lite/kernels/internal/reference\pad.h ****             if (out_b < left_b_padding ||
 8079              		.loc 6 95 0
 8080 2210 012082E2 		add	r2, r2, #1
 8081              	.LVL1129:
 8082 2214 04408BE4 		str	r4, [fp], #4	@ float
 8083              	.LVL1130:
 8084 2218 020051E1 		cmp	r1, r2
 8085 221c FBFFFFCA 		bgt	.L269
 8086              	.L1309:
 8087 2220 04309DE5 		ldr	r3, [sp, #4]
 8088              	.LBE2372:
  94:C:/Renesas/e2studio_2021_01_workspace_RZA2M_ANPR/ANPR_RZA2M_GR_MANGO/src/tensorflow_lite/tensorflow/lite/kernels/internal/reference\pad.h ****           for (int out_d = 0; out_d < output_depth; ++out_d) {
 8089              		.loc 6 94 0
 8090 2224 01C08CE2 		add	ip, ip, #1
 8091              	.LVL1131:
 8092 2228 07005CE1 		cmp	ip, r7
 8093 222c 039089E0 		add	r9, r9, r3
 8094              	.LVL1132:
 8095 2230 96FFFF1A 		bne	.L270
 8096 2234 CBFFFFEA 		b	.L240
 8097              	.LVL1133:
 8098              	.L243:
 8099 2238 080051E3 		cmp	r1, #8
 8100 223c 710000DA 		ble	.L725
 8101 2240 203089E2 		add	r3, r9, #32
 8102              	.LBB2373:
 100:C:/Renesas/e2studio_2021_01_workspace_RZA2M_ANPR/ANPR_RZA2M_GR_MANGO/src/tensorflow_lite/tensorflow/lite/kernels/internal/reference\pad.h ****                 out_h >= output_height - right_h_padding ||
 8103              		.loc 6 100 0
 8104 2244 0020A0E3 		mov	r2, #0
 8105              	.LVL1134:
 8106              	.L263:
 8107 2248 082082E2 		add	r2, r2, #8
 8108              	.LVL1135:
 8109 224c 80F0D3F5 		pld	[r3, #128]
 8110 2250 020050E1 		cmp	r0, r2
 8111 2254 204003E5 		str	r4, [r3, #-32]	@ float
 8112              	.LVL1136:
 8113 2258 1C4003E5 		str	r4, [r3, #-28]	@ float
 8114              	.LVL1137:
 8115 225c 03B0A0E1 		mov	fp, r3
 8116 2260 184003E5 		str	r4, [r3, #-24]	@ float
 8117              	.LVL1138:
 8118 2264 203083E2 		add	r3, r3, #32
 8119              	.LVL1139:
 8120 2268 344003E5 		str	r4, [r3, #-52]	@ float
 8121              	.LVL1140:
 8122 226c 304003E5 		str	r4, [r3, #-48]	@ float
 8123 2270 2C4003E5 		str	r4, [r3, #-44]	@ float
 8124 2274 284003E5 		str	r4, [r3, #-40]	@ float
 8125 2278 244003E5 		str	r4, [r3, #-36]	@ float
 8126              	.LVL1141:
 8127 227c F1FFFF1A 		bne	.L263
 8128              	.L265:
 8129              	.LVL1142:
  95:C:/Renesas/e2studio_2021_01_workspace_RZA2M_ANPR/ANPR_RZA2M_GR_MANGO/src/tensorflow_lite/tensorflow/lite/kernels/internal/reference\pad.h ****             if (out_b < left_b_padding ||
 8130              		.loc 6 95 0
 8131 2280 012082E2 		add	r2, r2, #1
 8132              	.LVL1143:
 8133 2284 04408BE4 		str	r4, [fp], #4	@ float
 8134              	.LVL1144:
 8135 2288 020051E1 		cmp	r1, r2
 8136 228c E3FFFFDA 		ble	.L1309
 8137              	.L1459:
 8138 2290 012082E2 		add	r2, r2, #1
 8139              	.LVL1145:
 8140 2294 04408BE4 		str	r4, [fp], #4	@ float
 8141              	.LVL1146:
 8142 2298 020051E1 		cmp	r1, r2
 8143 229c F7FFFFCA 		bgt	.L265
 8144 22a0 DEFFFFEA 		b	.L1309
 8145              	.LVL1147:
 8146              	.L244:
 8147 22a4 10209DE5 		ldr	r2, [sp, #16]
 8148 22a8 000052E3 		cmp	r2, #0
 8149 22ac 1900001A 		bne	.L253
 8150 22b0 080051E3 		cmp	r1, #8
 8151 22b4 610000DA 		ble	.L723
 8152 22b8 203089E2 		add	r3, r9, #32
 8153              	.LVL1148:
 8154              	.L255:
 8155 22bc 082082E2 		add	r2, r2, #8
 8156              	.LVL1149:
 8157 22c0 80F0D3F5 		pld	[r3, #128]
 8158 22c4 020050E1 		cmp	r0, r2
 8159 22c8 204003E5 		str	r4, [r3, #-32]	@ float
 8160              	.LVL1150:
 8161 22cc 1C4003E5 		str	r4, [r3, #-28]	@ float
 8162              	.LVL1151:
 8163 22d0 03B0A0E1 		mov	fp, r3
 8164 22d4 184003E5 		str	r4, [r3, #-24]	@ float
 8165              	.LVL1152:
 8166 22d8 203083E2 		add	r3, r3, #32
 8167              	.LVL1153:
 8168 22dc 344003E5 		str	r4, [r3, #-52]	@ float
 8169              	.LVL1154:
 8170 22e0 304003E5 		str	r4, [r3, #-48]	@ float
 8171 22e4 2C4003E5 		str	r4, [r3, #-44]	@ float
 8172 22e8 284003E5 		str	r4, [r3, #-40]	@ float
 8173 22ec 244003E5 		str	r4, [r3, #-36]	@ float
 8174              	.LVL1155:
 8175 22f0 F1FFFF1A 		bne	.L255
 8176              	.L257:
 8177              	.LVL1156:
 8178 22f4 012082E2 		add	r2, r2, #1
 8179              	.LVL1157:
 8180 22f8 04408BE4 		str	r4, [fp], #4	@ float
 8181              	.LVL1158:
 8182 22fc 010052E1 		cmp	r2, r1
 8183 2300 C6FFFFAA 		bge	.L1309
 8184              	.L1460:
 8185 2304 012082E2 		add	r2, r2, #1
 8186              	.LVL1159:
 8187 2308 04408BE4 		str	r4, [fp], #4	@ float
 8188              	.LVL1160:
 8189 230c 010052E1 		cmp	r2, r1
 8190 2310 F7FFFFBA 		blt	.L257
 8191 2314 C1FFFFEA 		b	.L1309
 8192              	.LVL1161:
 8193              	.L253:
 8194 2318 080051E3 		cmp	r1, #8
 8195 231c 400000DA 		ble	.L724
 100:C:/Renesas/e2studio_2021_01_workspace_RZA2M_ANPR/ANPR_RZA2M_GR_MANGO/src/tensorflow_lite/tensorflow/lite/kernels/internal/reference\pad.h ****                 out_h >= output_height - right_h_padding ||
 8196              		.loc 6 100 0
 8197 2320 08209DE5 		ldr	r2, [sp, #8]
 8198 2324 203089E2 		add	r3, r9, #32
 8199              	.LVL1162:
 8200              	.L259:
 8201 2328 082082E2 		add	r2, r2, #8
 8202              	.LVL1163:
 8203 232c 80F0D3F5 		pld	[r3, #128]
 8204 2330 020050E1 		cmp	r0, r2
 8205 2334 204003E5 		str	r4, [r3, #-32]	@ float
 8206              	.LVL1164:
 8207 2338 1C4003E5 		str	r4, [r3, #-28]	@ float
 8208              	.LVL1165:
 8209 233c 03B0A0E1 		mov	fp, r3
 8210 2340 184003E5 		str	r4, [r3, #-24]	@ float
 8211              	.LVL1166:
 8212 2344 203083E2 		add	r3, r3, #32
 8213              	.LVL1167:
 8214 2348 344003E5 		str	r4, [r3, #-52]	@ float
 8215              	.LVL1168:
 8216 234c 304003E5 		str	r4, [r3, #-48]	@ float
 8217 2350 2C4003E5 		str	r4, [r3, #-44]	@ float
 8218 2354 284003E5 		str	r4, [r3, #-40]	@ float
 8219 2358 244003E5 		str	r4, [r3, #-36]	@ float
 8220              	.LVL1169:
 8221 235c F1FFFF1A 		bne	.L259
 8222              	.L261:
 8223              	.LVL1170:
  95:C:/Renesas/e2studio_2021_01_workspace_RZA2M_ANPR/ANPR_RZA2M_GR_MANGO/src/tensorflow_lite/tensorflow/lite/kernels/internal/reference\pad.h ****             if (out_b < left_b_padding ||
 8224              		.loc 6 95 0
 8225 2360 012082E2 		add	r2, r2, #1
 8226              	.LVL1171:
 8227 2364 04408BE4 		str	r4, [fp], #4	@ float
 8228              	.LVL1172:
 8229 2368 020051E1 		cmp	r1, r2
 8230 236c ABFFFFDA 		ble	.L1309
 8231              	.L1461:
 8232 2370 012082E2 		add	r2, r2, #1
 8233              	.LVL1173:
 8234 2374 04408BE4 		str	r4, [fp], #4	@ float
 8235              	.LVL1174:
 8236 2378 020051E1 		cmp	r1, r2
 8237 237c F7FFFFCA 		bgt	.L261
 8238 2380 A6FFFFEA 		b	.L1309
 8239              	.LVL1175:
 8240              	.L245:
 8241 2384 080051E3 		cmp	r1, #8
 8242 2388 320000DA 		ble	.L722
 8243 238c 203089E2 		add	r3, r9, #32
 8244              	.LVL1176:
 8245              	.L250:
 8246 2390 082082E2 		add	r2, r2, #8
 8247              	.LVL1177:
 8248 2394 80F0D3F5 		pld	[r3, #128]
 8249 2398 020050E1 		cmp	r0, r2
 8250 239c 204003E5 		str	r4, [r3, #-32]	@ float
 8251              	.LVL1178:
 8252 23a0 1C4003E5 		str	r4, [r3, #-28]	@ float
 8253              	.LVL1179:
 8254 23a4 03B0A0E1 		mov	fp, r3
 8255 23a8 184003E5 		str	r4, [r3, #-24]	@ float
 8256              	.LVL1180:
 8257 23ac 203083E2 		add	r3, r3, #32
 8258              	.LVL1181:
 8259 23b0 344003E5 		str	r4, [r3, #-52]	@ float
 8260              	.LVL1182:
 8261 23b4 304003E5 		str	r4, [r3, #-48]	@ float
 8262 23b8 2C4003E5 		str	r4, [r3, #-44]	@ float
 8263 23bc 284003E5 		str	r4, [r3, #-40]	@ float
 8264 23c0 244003E5 		str	r4, [r3, #-36]	@ float
 8265              	.LVL1183:
 8266 23c4 F1FFFF1A 		bne	.L250
 8267              	.L252:
 8268              	.LVL1184:
 8269 23c8 012082E2 		add	r2, r2, #1
 8270              	.LVL1185:
 8271 23cc 04408BE4 		str	r4, [fp], #4	@ float
 8272              	.LVL1186:
 8273 23d0 020051E1 		cmp	r1, r2
 8274 23d4 91FFFFDA 		ble	.L1309
 8275              	.L1462:
 8276 23d8 012082E2 		add	r2, r2, #1
 8277              	.LVL1187:
 8278 23dc 04408BE4 		str	r4, [fp], #4	@ float
 8279              	.LVL1188:
 8280 23e0 020051E1 		cmp	r1, r2
 8281 23e4 F7FFFFCA 		bgt	.L252
 8282 23e8 8CFFFFEA 		b	.L1309
 8283              	.LVL1189:
 8284              	.L726:
 100:C:/Renesas/e2studio_2021_01_workspace_RZA2M_ANPR/ANPR_RZA2M_GR_MANGO/src/tensorflow_lite/tensorflow/lite/kernels/internal/reference\pad.h ****                 out_h >= output_height - right_h_padding ||
 8285              		.loc 6 100 0
 8286 23ec 0020A0E3 		mov	r2, #0
 8287              	.LVL1190:
 8288 23f0 09B0A0E1 		mov	fp, r9
 8289              	.LVL1191:
  95:C:/Renesas/e2studio_2021_01_workspace_RZA2M_ANPR/ANPR_RZA2M_GR_MANGO/src/tensorflow_lite/tensorflow/lite/kernels/internal/reference\pad.h ****             if (out_b < left_b_padding ||
 8290              		.loc 6 95 0
 8291 23f4 012082E2 		add	r2, r2, #1
 8292              	.LVL1192:
 8293 23f8 04408BE4 		str	r4, [fp], #4	@ float
 8294              	.LVL1193:
 8295 23fc 020051E1 		cmp	r1, r2
 8296 2400 82FFFFCA 		bgt	.L269
 8297 2404 85FFFFEA 		b	.L1309
 8298              	.LVL1194:
 8299              	.L725:
 100:C:/Renesas/e2studio_2021_01_workspace_RZA2M_ANPR/ANPR_RZA2M_GR_MANGO/src/tensorflow_lite/tensorflow/lite/kernels/internal/reference\pad.h ****                 out_h >= output_height - right_h_padding ||
 8300              		.loc 6 100 0
 8301 2408 0020A0E3 		mov	r2, #0
 8302              	.LVL1195:
 8303 240c 09B0A0E1 		mov	fp, r9
 8304              	.LVL1196:
  95:C:/Renesas/e2studio_2021_01_workspace_RZA2M_ANPR/ANPR_RZA2M_GR_MANGO/src/tensorflow_lite/tensorflow/lite/kernels/internal/reference\pad.h ****             if (out_b < left_b_padding ||
 8305              		.loc 6 95 0
 8306 2410 012082E2 		add	r2, r2, #1
 8307              	.LVL1197:
 8308 2414 04408BE4 		str	r4, [fp], #4	@ float
 8309              	.LVL1198:
 8310 2418 020051E1 		cmp	r1, r2
 8311 241c 9BFFFFCA 		bgt	.L1459
 8312 2420 7EFFFFEA 		b	.L1309
 8313              	.LVL1199:
 8314              	.L724:
 100:C:/Renesas/e2studio_2021_01_workspace_RZA2M_ANPR/ANPR_RZA2M_GR_MANGO/src/tensorflow_lite/tensorflow/lite/kernels/internal/reference\pad.h ****                 out_h >= output_height - right_h_padding ||
 8315              		.loc 6 100 0
 8316 2424 08209DE5 		ldr	r2, [sp, #8]
 8317              	.LVL1200:
 8318 2428 09B0A0E1 		mov	fp, r9
 8319              	.LVL1201:
 8320 242c 04408BE4 		str	r4, [fp], #4	@ float
 8321              	.LVL1202:
  95:C:/Renesas/e2studio_2021_01_workspace_RZA2M_ANPR/ANPR_RZA2M_GR_MANGO/src/tensorflow_lite/tensorflow/lite/kernels/internal/reference\pad.h ****             if (out_b < left_b_padding ||
 8322              		.loc 6 95 0
 8323 2430 012082E2 		add	r2, r2, #1
 8324              	.LVL1203:
 8325 2434 020051E1 		cmp	r1, r2
 8326 2438 CCFFFFCA 		bgt	.L1461
 8327 243c 77FFFFEA 		b	.L1309
 8328              	.LVL1204:
 8329              	.L723:
 8330 2440 012082E2 		add	r2, r2, #1
 100:C:/Renesas/e2studio_2021_01_workspace_RZA2M_ANPR/ANPR_RZA2M_GR_MANGO/src/tensorflow_lite/tensorflow/lite/kernels/internal/reference\pad.h ****                 out_h >= output_height - right_h_padding ||
 8331              		.loc 6 100 0
 8332 2444 09B0A0E1 		mov	fp, r9
 8333              	.LVL1205:
  95:C:/Renesas/e2studio_2021_01_workspace_RZA2M_ANPR/ANPR_RZA2M_GR_MANGO/src/tensorflow_lite/tensorflow/lite/kernels/internal/reference\pad.h ****             if (out_b < left_b_padding ||
 8334              		.loc 6 95 0
 8335 2448 010052E1 		cmp	r2, r1
 8336 244c 04408BE4 		str	r4, [fp], #4	@ float
 8337              	.LVL1206:
 8338 2450 ABFFFFBA 		blt	.L1460
 8339 2454 71FFFFEA 		b	.L1309
 8340              	.LVL1207:
 8341              	.L722:
 8342 2458 012082E2 		add	r2, r2, #1
 100:C:/Renesas/e2studio_2021_01_workspace_RZA2M_ANPR/ANPR_RZA2M_GR_MANGO/src/tensorflow_lite/tensorflow/lite/kernels/internal/reference\pad.h ****                 out_h >= output_height - right_h_padding ||
 8343              		.loc 6 100 0
 8344 245c 09B0A0E1 		mov	fp, r9
 8345              	.LVL1208:
  95:C:/Renesas/e2studio_2021_01_workspace_RZA2M_ANPR/ANPR_RZA2M_GR_MANGO/src/tensorflow_lite/tensorflow/lite/kernels/internal/reference\pad.h ****             if (out_b < left_b_padding ||
 8346              		.loc 6 95 0
 8347 2460 020051E1 		cmp	r1, r2
 8348 2464 04408BE4 		str	r4, [fp], #4	@ float
 8349              	.LVL1209:
 8350 2468 DAFFFFCA 		bgt	.L1462
 8351 246c 6BFFFFEA 		b	.L1309
 8352              	.LVL1210:
 8353              	.L224:
 8354              	.LEHB54:
 8355              	.LBE2373:
 8356              	.LBE2374:
 8357              	.LBE2375:
 8358              	.LBE2376:
 8359              	.LBE2382:
  47:C:/Renesas/e2studio_2021_01_workspace_RZA2M_ANPR/ANPR_RZA2M_GR_MANGO/src/tensorflow_lite/tensorflow/lite/kernels/internal/reference\pad.h **** 
 8360              		.loc 6 47 0
 8361 2470 FEFFFFEB 		bl	abort
 8362              	.LVL1211:
 8363              	.LEHE54:
 8364              	.L1509:
 8365              	.LEHB55:
  46:C:/Renesas/e2studio_2021_01_workspace_RZA2M_ANPR/ANPR_RZA2M_GR_MANGO/src/tensorflow_lite/tensorflow/lite/kernels/internal/reference\pad.h ****   TFLITE_DCHECK_LE(op_params.right_padding_count, PadKernelMaxDimensionCount());
 8366              		.loc 6 46 0
 8367 2474 FEFFFFEB 		bl	abort
 8368              	.LVL1212:
 8369              	.LEHE55:
 8370              	.L1508:
 8371              	.LEHB56:
 8372              	.LBB2383:
 8373              	.LBB2312:
 8374              	.LBB2310:
 8375              	.LBB2308:
 8376              	.LBB2306:
 308:C:/Renesas/e2studio_2021_01_workspace_RZA2M_ANPR/ANPR_RZA2M_GR_MANGO/src/tensorflow_lite/tensorflow/lite/kernels/internal\types.h ****     Resize(new_shape_size);
 8377              		.loc 4 308 0
 8378 2478 FEFFFFEB 		bl	abort
 8379              	.LVL1213:
 8380              	.LEHE56:
 8381              	.L793:
 8382 247c 8AF8FFEA 		b	.L1322
 8383              	.LVL1214:
 8384              	.L792:
 8385 2480 89F8FFEA 		b	.L1322
 8386              	.LVL1215:
 8387              	.L210:
 8388              	.LBE2306:
 8389              	.LBE2308:
 8390              	.LBE2310:
 8391              	.LBE2312:
 8392              	.LBE2383:
 8393              	.LBE2400:
 8394              	.LBE2402:
 8395              	.LBE2404:
 8396              	.LBE2406:
 8397              	.LBE2411:
 8398              	.LBB2412:
 189:../src/tensorflow_lite/tensorflow/lite/micro/kernels/pad.cc ****         pad_value = static_cast<uint8_t>(data->output_zero_point);
 8399              		.loc 1 189 0
 8400 2484 000054E3 		cmp	r4, #0
 8401 2488 03F7FF0A 		beq	.L473
 192:../src/tensorflow_lite/tensorflow/lite/micro/kernels/pad.cc ****       }
 8402              		.loc 1 192 0
 8403 248c 003094E5 		ldr	r3, [r4]
 8404 2490 D0A0D3E1 		ldrsb	r10, [r3]
 8405              	.LVL1216:
 8406 2494 01F7FFEA 		b	.L474
 8407              	.LVL1217:
 8408              	.L209:
 8409              	.LBE2412:
 8410              	.LBB2413:
 169:../src/tensorflow_lite/tensorflow/lite/micro/kernels/pad.cc ****         pad_value = static_cast<uint8_t>(data->output_zero_point);
 8411              		.loc 1 169 0
 8412 2498 000054E3 		cmp	r4, #0
 8413 249c 27F7FF0A 		beq	.L362
 172:../src/tensorflow_lite/tensorflow/lite/micro/kernels/pad.cc ****       }
 8414              		.loc 1 172 0
 8415 24a0 003094E5 		ldr	r3, [r4]
 8416 24a4 00A0D3E5 		ldrb	r10, [r3]	@ zero_extendqisi2
 8417              	.LVL1218:
 8418 24a8 25F7FFEA 		b	.L363
 8419              	.LVL1219:
 8420              	.L208:
 8421              	.LBE2413:
 8422              	.LBB2414:
 210:../src/tensorflow_lite/tensorflow/lite/micro/kernels/pad.cc ****               : *tflite::micro::GetTensorData<int32_t>(constant_values);
 8423              		.loc 1 210 0
 8424 24ac 000054E3 		cmp	r4, #0
 8425 24b0 00309415 		ldrne	r3, [r4]
 8426 24b4 00409315 		ldrne	r4, [r3]
 8427              	.LVL1220:
 8428 24b8 24FAFFEA 		b	.L583
 8429              	.LVL1221:
 8430              	.L206:
 8431              	.LBE2414:
 8432              	.LBB2415:
 152:../src/tensorflow_lite/tensorflow/lite/micro/kernels/pad.cc ****               : *tflite::micro::GetTensorData<float>(constant_values);
 8433              		.loc 1 152 0
 8434 24bc 000054E3 		cmp	r4, #0
 8435 24c0 46FAFF0A 		beq	.L762
 8436 24c4 003094E5 		ldr	r3, [r4]
 8437 24c8 004093E5 		ldr	r4, [r3]	@ float
 8438              	.LVL1222:
 8439 24cc 44FAFFEA 		b	.L211
 8440              	.LVL1223:
 8441              	.L1513:
 8442              	.LEHB57:
 8443              	.LBB2407:
 8444              	.LBB2405:
 8445              	.LBB2403:
 8446              	.LBB2401:
 8447              	.LBB2384:
 8448              	.LBB2362:
 215:C:/Renesas/e2studio_2021_01_workspace_RZA2M_ANPR/ANPR_RZA2M_GR_MANGO/src/tensorflow_lite/tensorflow/lite/kernels/internal\types.h ****     return size_ > kMaxSmallSize ? dims_pointer_[i] : dims_[i];
 8449              		.loc 4 215 0
 8450 24d0 FEFFFFEB 		bl	abort
 8451              	.LVL1224:
 8452              	.L690:
 8453              	.LBE2362:
 8454              	.LBE2384:
 8455              	.LBB2385:
 8456              	.LBB2354:
 8457 24d4 FEFFFFEB 		bl	abort
 8458              	.LVL1225:
 8459              	.L779:
 8460 24d8 71F7FFEA 		b	.L654
 8461              	.LVL1226:
 8462              	.L689:
 8463              	.LBE2354:
 8464              	.LBE2385:
 8465              	.LBB2386:
 8466              	.LBB2343:
 8467 24dc FEFFFFEB 		bl	abort
 8468              	.LVL1227:
 8469              	.L1512:
 8470              	.LBE2343:
 8471              	.LBE2386:
 8472              	.LBB2387:
 8473              	.LBB2333:
 8474 24e0 FEFFFFEB 		bl	abort
 8475              	.LVL1228:
 8476              	.L1511:
 8477              	.LBE2333:
 8478              	.LBE2387:
 8479              	.LBB2388:
 8480              	.LBB2324:
 216:C:/Renesas/e2studio_2021_01_workspace_RZA2M_ANPR/ANPR_RZA2M_GR_MANGO/src/tensorflow_lite/tensorflow/lite/kernels/internal\types.h ****   }
 8481              		.loc 4 216 0
 8482 24e4 D4309DE5 		ldr	r3, [sp, #212]
 8483              	.LBE2324:
 8484              	.LBE2388:
  76:C:/Renesas/e2studio_2021_01_workspace_RZA2M_ANPR/ANPR_RZA2M_GR_MANGO/src/tensorflow_lite/tensorflow/lite/kernels/internal/reference\pad.h ****   const int left_h_padding = left_padding_copy[2];
 8485              		.loc 6 76 0
 8486 24e8 64209DE5 		ldr	r2, [sp, #100]
  75:C:/Renesas/e2studio_2021_01_workspace_RZA2M_ANPR/ANPR_RZA2M_GR_MANGO/src/tensorflow_lite/tensorflow/lite/kernels/internal/reference\pad.h ****   const int left_p_padding = left_padding_copy[1];
 8487              		.loc 6 75 0
 8488 24ec 60609DE5 		ldr	r6, [sp, #96]
 8489              	.LBB2389:
 8490              	.LBB2334:
 216:C:/Renesas/e2studio_2021_01_workspace_RZA2M_ANPR/ANPR_RZA2M_GR_MANGO/src/tensorflow_lite/tensorflow/lite/kernels/internal\types.h ****   }
 8491              		.loc 4 216 0
 8492 24f0 040093E5 		ldr	r0, [r3, #4]
 8493              	.LBE2334:
 8494              	.LBE2389:
  76:C:/Renesas/e2studio_2021_01_workspace_RZA2M_ANPR/ANPR_RZA2M_GR_MANGO/src/tensorflow_lite/tensorflow/lite/kernels/internal/reference\pad.h ****   const int left_h_padding = left_padding_copy[2];
 8495              		.loc 6 76 0
 8496 24f4 48208DE5 		str	r2, [sp, #72]
 8497              	.LBB2390:
 8498              	.LBB2325:
 216:C:/Renesas/e2studio_2021_01_workspace_RZA2M_ANPR/ANPR_RZA2M_GR_MANGO/src/tensorflow_lite/tensorflow/lite/kernels/internal\types.h ****   }
 8499              		.loc 4 216 0
 8500 24f8 002093E5 		ldr	r2, [r3]
 8501 24fc 38308DE5 		str	r3, [sp, #56]
 8502              	.LBE2325:
 8503              	.LBE2390:
 8504              	.LBB2391:
 8505              	.LBB2363:
 8506 2500 101093E5 		ldr	r1, [r3, #16]
 8507              	.LBE2363:
 8508              	.LBE2391:
 8509              	.LBB2392:
 8510              	.LBB2326:
 8511 2504 20208DE5 		str	r2, [sp, #32]
 8512              	.LVL1229:
 8513              	.LBE2326:
 8514              	.LBE2392:
 8515              	.LBB2393:
  91:C:/Renesas/e2studio_2021_01_workspace_RZA2M_ANPR/ANPR_RZA2M_GR_MANGO/src/tensorflow_lite/tensorflow/lite/kernels/internal/reference\pad.h ****     for (int out_p = 0; out_p < output_plane; ++out_p) {
 8516              		.loc 6 91 0
 8517 2508 000052E3 		cmp	r2, #0
 8518              	.LBE2393:
 8519              	.LBB2394:
 8520              	.LBB2355:
 216:C:/Renesas/e2studio_2021_01_workspace_RZA2M_ANPR/ANPR_RZA2M_GR_MANGO/src/tensorflow_lite/tensorflow/lite/kernels/internal\types.h ****   }
 8521              		.loc 4 216 0
 8522 250c 0CA093E5 		ldr	r10, [r3, #12]
 8523              	.LBE2355:
 8524              	.LBE2394:
 8525              	.LBB2395:
 8526              	.LBB2344:
 8527 2510 082093E5 		ldr	r2, [r3, #8]
 8528              	.LBE2344:
 8529              	.LBE2395:
  77:C:/Renesas/e2studio_2021_01_workspace_RZA2M_ANPR/ANPR_RZA2M_GR_MANGO/src/tensorflow_lite/tensorflow/lite/kernels/internal/reference\pad.h ****   const int left_w_padding = left_padding_copy[3];
 8530              		.loc 6 77 0
 8531 2514 68309DE5 		ldr	r3, [sp, #104]
 8532              	.LBB2396:
 8533              	.LBB2335:
 216:C:/Renesas/e2studio_2021_01_workspace_RZA2M_ANPR/ANPR_RZA2M_GR_MANGO/src/tensorflow_lite/tensorflow/lite/kernels/internal\types.h ****   }
 8534              		.loc 4 216 0
 8535 2518 18008DE5 		str	r0, [sp, #24]
 8536              	.LVL1230:
 8537              	.LBE2335:
 8538              	.LBE2396:
 8539              	.LBB2397:
 8540              	.LBB2345:
 8541 251c 0C208DE5 		str	r2, [sp, #12]
 8542              	.LVL1231:
 8543              	.LBE2345:
 8544              	.LBE2397:
  77:C:/Renesas/e2studio_2021_01_workspace_RZA2M_ANPR/ANPR_RZA2M_GR_MANGO/src/tensorflow_lite/tensorflow/lite/kernels/internal/reference\pad.h ****   const int left_w_padding = left_padding_copy[3];
 8545              		.loc 6 77 0
 8546 2520 30308DE5 		str	r3, [sp, #48]
 8547              	.LVL1232:
  79:C:/Renesas/e2studio_2021_01_workspace_RZA2M_ANPR/ANPR_RZA2M_GR_MANGO/src/tensorflow_lite/tensorflow/lite/kernels/internal/reference\pad.h **** 
 8548              		.loc 6 79 0
 8549 2524 70309DE5 		ldr	r3, [sp, #112]
 8550              	.LVL1233:
  78:C:/Renesas/e2studio_2021_01_workspace_RZA2M_ANPR/ANPR_RZA2M_GR_MANGO/src/tensorflow_lite/tensorflow/lite/kernels/internal/reference\pad.h ****   const int left_d_padding = left_padding_copy[4];
 8551              		.loc 6 78 0
 8552 2528 6C809DE5 		ldr	r8, [sp, #108]
 8553              	.LVL1234:
  79:C:/Renesas/e2studio_2021_01_workspace_RZA2M_ANPR/ANPR_RZA2M_GR_MANGO/src/tensorflow_lite/tensorflow/lite/kernels/internal/reference\pad.h **** 
 8554              		.loc 6 79 0
 8555 252c 3C308DE5 		str	r3, [sp, #60]
 8556              	.LVL1235:
  81:C:/Renesas/e2studio_2021_01_workspace_RZA2M_ANPR/ANPR_RZA2M_GR_MANGO/src/tensorflow_lite/tensorflow/lite/kernels/internal/reference\pad.h ****   const int right_p_padding = right_padding_copy[1];
 8557              		.loc 6 81 0
 8558 2530 74309DE5 		ldr	r3, [sp, #116]
 8559              	.LVL1236:
 8560 2534 44308DE5 		str	r3, [sp, #68]
 8561              	.LVL1237:
  82:C:/Renesas/e2studio_2021_01_workspace_RZA2M_ANPR/ANPR_RZA2M_GR_MANGO/src/tensorflow_lite/tensorflow/lite/kernels/internal/reference\pad.h ****   const int right_h_padding = right_padding_copy[2];
 8562              		.loc 6 82 0
 8563 2538 78309DE5 		ldr	r3, [sp, #120]
 8564              	.LVL1238:
 8565 253c 24308DE5 		str	r3, [sp, #36]
 8566              	.LVL1239:
  83:C:/Renesas/e2studio_2021_01_workspace_RZA2M_ANPR/ANPR_RZA2M_GR_MANGO/src/tensorflow_lite/tensorflow/lite/kernels/internal/reference\pad.h ****   const int right_w_padding = right_padding_copy[3];
 8567              		.loc 6 83 0
 8568 2540 7C309DE5 		ldr	r3, [sp, #124]
 8569              	.LVL1240:
 8570 2544 2C308DE5 		str	r3, [sp, #44]
 8571              	.LVL1241:
  84:C:/Renesas/e2studio_2021_01_workspace_RZA2M_ANPR/ANPR_RZA2M_GR_MANGO/src/tensorflow_lite/tensorflow/lite/kernels/internal/reference\pad.h ****   const int right_d_padding = right_padding_copy[4];
 8572              		.loc 6 84 0
 8573 2548 80309DE5 		ldr	r3, [sp, #128]
 8574              	.LVL1242:
 8575 254c 28308DE5 		str	r3, [sp, #40]
 8576              	.LVL1243:
  85:C:/Renesas/e2studio_2021_01_workspace_RZA2M_ANPR/ANPR_RZA2M_GR_MANGO/src/tensorflow_lite/tensorflow/lite/kernels/internal/reference\pad.h **** 
 8577              		.loc 6 85 0
 8578 2550 84309DE5 		ldr	r3, [sp, #132]
 8579              	.LVL1244:
 8580 2554 40308DE5 		str	r3, [sp, #64]
 8581              	.LVL1245:
 8582              	.LBB2398:
  91:C:/Renesas/e2studio_2021_01_workspace_RZA2M_ANPR/ANPR_RZA2M_GR_MANGO/src/tensorflow_lite/tensorflow/lite/kernels/internal/reference\pad.h ****     for (int out_p = 0; out_p < output_plane; ++out_p) {
 8583              		.loc 6 91 0
 8584 2558 94FEFFCA 		bgt	.L235
 8585 255c 15FFFFEA 		b	.L234
 8586              	.LVL1246:
 8587              	.L1510:
 8588              	.LBE2398:
 8589              	.LBB2399:
 8590              	.LBB2327:
 215:C:/Renesas/e2studio_2021_01_workspace_RZA2M_ANPR/ANPR_RZA2M_GR_MANGO/src/tensorflow_lite/tensorflow/lite/kernels/internal\types.h ****     return size_ > kMaxSmallSize ? dims_pointer_[i] : dims_[i];
 8591              		.loc 4 215 0
 8592 2560 FEFFFFEB 		bl	abort
 8593              	.LVL1247:
 8594              	.LEHE57:
 8595              	.L769:
 8596 2564 1EF7FFEA 		b	.L656
 8597              	.LVL1248:
 8598              	.L369:
 8599              	.LBE2327:
 8600              	.LBE2399:
 8601              	.LBE2401:
 8602              	.LBE2403:
 8603              	.LBE2405:
 8604              	.LBE2407:
 8605              	.LBE2415:
 8606              	.LBB2416:
 8607              	.LBB1885:
 8608              	.LBB1883:
 8609              	.LBB1881:
 8610              	.LBB1879:
 8611              	.LBB1760:
 8612              	.LBB1758:
 8613              	.LBB1756:
 8614              	.LBB1754:
 8615              	.LBB1752:
 8616              		.loc 4 315 0
 8617 2568 BC308DE2 		add	r3, sp, #188
 8618 256c 0221A0E1 		lsl	r2, r2, #2
 8619 2570 000183E0 		add	r0, r3, r0, lsl #2
 8620              	.LVL1249:
 8621 2574 8C108DE2 		add	r1, sp, #140
 8622 2578 FEFFFFEB 		bl	memcpy
 8623              	.LVL1250:
 8624 257c A0209DE5 		ldr	r2, [sp, #160]
 8625              	.LVL1251:
 8626              	.LBE1752:
 8627              	.LBE1754:
 8628              	.LBE1756:
 8629              	.LBE1758:
 8630              	.LBE1760:
 8631              	.LBB1761:
 8632              	.LBB1762:
 8633              	.LBB1763:
 8634              	.LBB1764:
 305:C:/Renesas/e2studio_2021_01_workspace_RZA2M_ANPR/ANPR_RZA2M_GR_MANGO/src/tensorflow_lite/tensorflow/lite/kernels/internal\types.h ****     // If the following check fails, it is likely because a 4D-only kernel is
 8635              		.loc 4 305 0
 8636 2580 0030A0E3 		mov	r3, #0
 8637 2584 D0308DE5 		str	r3, [sp, #208]
 8638              	.LBB1765:
 308:C:/Renesas/e2studio_2021_01_workspace_RZA2M_ANPR/ANPR_RZA2M_GR_MANGO/src/tensorflow_lite/tensorflow/lite/kernels/internal\types.h ****     Resize(new_shape_size);
 8639              		.loc 4 308 0
 8640 2588 050052E3 		cmp	r2, #5
 8641 258c F10000CA 		bgt	.L1516
 8642              	.LVL1252:
 8643              	.LBB1766:
 311:C:/Renesas/e2studio_2021_01_workspace_RZA2M_ANPR/ANPR_RZA2M_GR_MANGO/src/tensorflow_lite/tensorflow/lite/kernels/internal\types.h ****       SetDim(i, pad_value);
 8644              		.loc 4 311 0
 8645 2590 050072E2 		rsbs	r0, r2, #5
 8646              	.LBE1766:
 8647              	.LBB1779:
 8648              	.LBB1780:
 245:C:/Renesas/e2studio_2021_01_workspace_RZA2M_ANPR/ANPR_RZA2M_GR_MANGO/src/tensorflow_lite/tensorflow/lite/kernels/internal\types.h ****     if (dimensions_count > kMaxSmallSize) {
 8649              		.loc 4 245 0
 8650 2594 0530A0E3 		mov	r3, #5
 8651 2598 D0308DE5 		str	r3, [sp, #208]
 8652              	.LVL1253:
 8653              	.LBE1780:
 8654              	.LBE1779:
 8655              	.LBB1781:
 311:C:/Renesas/e2studio_2021_01_workspace_RZA2M_ANPR/ANPR_RZA2M_GR_MANGO/src/tensorflow_lite/tensorflow/lite/kernels/internal\types.h ****       SetDim(i, pad_value);
 8656              		.loc 4 311 0
 8657 259c 1300000A 		beq	.L374
 8658              	.LVL1254:
 8659 25a0 010050E3 		cmp	r0, #1
 8660              	.LBB1767:
 8661              	.LBB1768:
 224:C:/Renesas/e2studio_2021_01_workspace_RZA2M_ANPR/ANPR_RZA2M_GR_MANGO/src/tensorflow_lite/tensorflow/lite/kernels/internal\types.h ****     }
 8662              		.loc 4 224 0
 8663 25a4 0130A0E3 		mov	r3, #1
 8664 25a8 D4308DE5 		str	r3, [sp, #212]
 8665              	.LVL1255:
 8666              	.LBE1768:
 8667              	.LBE1767:
 311:C:/Renesas/e2studio_2021_01_workspace_RZA2M_ANPR/ANPR_RZA2M_GR_MANGO/src/tensorflow_lite/tensorflow/lite/kernels/internal\types.h ****       SetDim(i, pad_value);
 8668              		.loc 4 311 0
 8669 25ac 0F00000A 		beq	.L374
 8670              	.LVL1256:
 8671 25b0 020050E3 		cmp	r0, #2
 8672              	.LBB1774:
 8673              	.LBB1769:
 224:C:/Renesas/e2studio_2021_01_workspace_RZA2M_ANPR/ANPR_RZA2M_GR_MANGO/src/tensorflow_lite/tensorflow/lite/kernels/internal\types.h ****     }
 8674              		.loc 4 224 0
 8675 25b4 D8308DE5 		str	r3, [sp, #216]
 8676              	.LVL1257:
 8677              	.LBE1769:
 8678              	.LBE1774:
 311:C:/Renesas/e2studio_2021_01_workspace_RZA2M_ANPR/ANPR_RZA2M_GR_MANGO/src/tensorflow_lite/tensorflow/lite/kernels/internal\types.h ****       SetDim(i, pad_value);
 8679              		.loc 4 311 0
 8680 25b8 0C00000A 		beq	.L374
 8681              	.LVL1258:
 8682 25bc 030050E3 		cmp	r0, #3
 8683              	.LBB1775:
 8684              	.LBB1770:
 224:C:/Renesas/e2studio_2021_01_workspace_RZA2M_ANPR/ANPR_RZA2M_GR_MANGO/src/tensorflow_lite/tensorflow/lite/kernels/internal\types.h ****     }
 8685              		.loc 4 224 0
 8686 25c0 DC308DE5 		str	r3, [sp, #220]
 8687              	.LVL1259:
 8688              	.LBE1770:
 8689              	.LBE1775:
 311:C:/Renesas/e2studio_2021_01_workspace_RZA2M_ANPR/ANPR_RZA2M_GR_MANGO/src/tensorflow_lite/tensorflow/lite/kernels/internal\types.h ****       SetDim(i, pad_value);
 8690              		.loc 4 311 0
 8691 25c4 0900000A 		beq	.L374
 8692              	.LVL1260:
 8693 25c8 040050E3 		cmp	r0, #4
 8694              	.LBB1776:
 8695              	.LBB1771:
 224:C:/Renesas/e2studio_2021_01_workspace_RZA2M_ANPR/ANPR_RZA2M_GR_MANGO/src/tensorflow_lite/tensorflow/lite/kernels/internal\types.h ****     }
 8696              		.loc 4 224 0
 8697 25cc E0308DE5 		str	r3, [sp, #224]
 8698              	.LVL1261:
 8699              	.LBE1771:
 8700              	.LBE1776:
 311:C:/Renesas/e2studio_2021_01_workspace_RZA2M_ANPR/ANPR_RZA2M_GR_MANGO/src/tensorflow_lite/tensorflow/lite/kernels/internal\types.h ****       SetDim(i, pad_value);
 8701              		.loc 4 311 0
 8702 25d0 0600000A 		beq	.L374
 8703              	.LVL1262:
 8704 25d4 050050E3 		cmp	r0, #5
 8705              	.LBB1777:
 8706              	.LBB1772:
 224:C:/Renesas/e2studio_2021_01_workspace_RZA2M_ANPR/ANPR_RZA2M_GR_MANGO/src/tensorflow_lite/tensorflow/lite/kernels/internal\types.h ****     }
 8707              		.loc 4 224 0
 8708 25d8 E4308DE5 		str	r3, [sp, #228]
 8709              	.LVL1263:
 8710              	.LBE1772:
 8711              	.LBE1777:
 311:C:/Renesas/e2studio_2021_01_workspace_RZA2M_ANPR/ANPR_RZA2M_GR_MANGO/src/tensorflow_lite/tensorflow/lite/kernels/internal\types.h ****       SetDim(i, pad_value);
 8712              		.loc 4 311 0
 8713 25dc 0300000A 		beq	.L374
 8714              	.LVL1264:
 8715              	.LEHB58:
 8716              	.LBB1778:
 8717              	.LBB1773:
 220:C:/Renesas/e2studio_2021_01_workspace_RZA2M_ANPR/ANPR_RZA2M_GR_MANGO/src/tensorflow_lite/tensorflow/lite/kernels/internal\types.h ****     if (size_ > kMaxSmallSize) {
 8718              		.loc 4 220 0
 8719 25e0 FEFFFFEB 		bl	abort
 8720              	.LVL1265:
 8721              	.LEHE58:
 8722              	.L1477:
 8723              	.LEHB59:
 8724              	.LBE1773:
 8725              	.LBE1778:
 8726              	.LBE1781:
 8727              	.LBE1765:
 8728              	.LBE1764:
 8729              	.LBE1763:
 8730              	.LBE1762:
 8731              	.LBE1761:
 8732              	.LBB1790:
 8733              	.LBB1759:
 8734              	.LBB1757:
 8735              	.LBB1755:
 8736              	.LBB1753:
 308:C:/Renesas/e2studio_2021_01_workspace_RZA2M_ANPR/ANPR_RZA2M_GR_MANGO/src/tensorflow_lite/tensorflow/lite/kernels/internal\types.h ****     Resize(new_shape_size);
 8737              		.loc 4 308 0
 8738 25e4 FEFFFFEB 		bl	abort
 8739              	.LVL1266:
 8740              	.LEHE59:
 8741              	.L768:
 8742 25e8 04F7FFEA 		b	.L677
 8743              	.LVL1267:
 8744              	.L782:
 8745 25ec 2CF7FFEA 		b	.L654
 8746              	.LVL1268:
 8747              	.L374:
 8748              	.LBE1753:
 8749              	.LBE1755:
 8750              	.LBE1757:
 8751              	.LBE1759:
 8752              	.LBE1790:
 8753              	.LBB1791:
 8754              	.LBB1788:
 8755              	.LBB1786:
 8756              	.LBB1784:
 8757              	.LBB1782:
 8758              		.loc 4 315 0
 8759 25f0 D4308DE2 		add	r3, sp, #212
 8760 25f4 0221A0E1 		lsl	r2, r2, #2
 8761 25f8 000183E0 		add	r0, r3, r0, lsl #2
 8762              	.LVL1269:
 8763 25fc A4108DE2 		add	r1, sp, #164
 8764 2600 FEFFFFEB 		bl	memcpy
 8765              	.LVL1270:
 8766              	.LBE1782:
 8767              	.LBE1784:
 8768              	.LBE1786:
 8769              	.LBE1788:
 8770              	.LBE1791:
  46:C:/Renesas/e2studio_2021_01_workspace_RZA2M_ANPR/ANPR_RZA2M_GR_MANGO/src/tensorflow_lite/tensorflow/lite/kernels/internal/reference\pad.h ****   TFLITE_DCHECK_LE(op_params.right_padding_count, PadKernelMaxDimensionCount());
 8771              		.loc 6 46 0
 8772 2604 D020D5E1 		ldrsb	r2, [r5]
 8773 2608 050052E3 		cmp	r2, #5
 8774 260c D00000CA 		bgt	.L1517
  47:C:/Renesas/e2studio_2021_01_workspace_RZA2M_ANPR/ANPR_RZA2M_GR_MANGO/src/tensorflow_lite/tensorflow/lite/kernels/internal/reference\pad.h **** 
 8775              		.loc 6 47 0
 8776 2610 D861D5E1 		ldrsb	r6, [r5, #24]
 8777              	.LVL1271:
 8778 2614 050056E3 		cmp	r6, #5
 8779 2618 CC0000CA 		bgt	.L376
 8780              	.LVL1272:
 8781              	.LBB1792:
  55:C:/Renesas/e2studio_2021_01_workspace_RZA2M_ANPR/ANPR_RZA2M_GR_MANGO/src/tensorflow_lite/tensorflow/lite/kernels/internal/reference\pad.h ****     left_padding_copy[i + PadKernelMaxDimensionCount() -
 8782              		.loc 6 55 0
 8783 261c 000052E3 		cmp	r2, #0
 8784              	.LBE1792:
 8785              	.LBB1793:
  53:C:/Renesas/e2studio_2021_01_workspace_RZA2M_ANPR/ANPR_RZA2M_GR_MANGO/src/tensorflow_lite/tensorflow/lite/kernels/internal/reference\pad.h ****   }
 8786              		.loc 6 53 0
 8787 2620 0030A0E3 		mov	r3, #0
 8788 2624 60308DE5 		str	r3, [sp, #96]
 8789              	.LVL1273:
 8790 2628 64308DE5 		str	r3, [sp, #100]
 8791              	.LVL1274:
 8792 262c 68308DE5 		str	r3, [sp, #104]
 8793              	.LVL1275:
 8794 2630 6C308DE5 		str	r3, [sp, #108]
 8795              	.LVL1276:
 8796 2634 70308DE5 		str	r3, [sp, #112]
 8797              	.LVL1277:
 8798              	.LBE1793:
 8799              	.LBB1794:
  55:C:/Renesas/e2studio_2021_01_workspace_RZA2M_ANPR/ANPR_RZA2M_GR_MANGO/src/tensorflow_lite/tensorflow/lite/kernels/internal/reference\pad.h ****     left_padding_copy[i + PadKernelMaxDimensionCount() -
 8800              		.loc 6 55 0
 8801 2638 050000DA 		ble	.L377
  56:C:/Renesas/e2studio_2021_01_workspace_RZA2M_ANPR/ANPR_RZA2M_GR_MANGO/src/tensorflow_lite/tensorflow/lite/kernels/internal/reference\pad.h ****                       op_params.left_padding_count] = op_params.left_padding[i];
 8802              		.loc 6 56 0
 8803 263c E8308DE2 		add	r3, sp, #232
 8804 2640 041085E2 		add	r1, r5, #4
 8805 2644 020143E0 		sub	r0, r3, r2, lsl #2
 8806 2648 0221A0E1 		lsl	r2, r2, #2
 8807 264c 740040E2 		sub	r0, r0, #116
 8808 2650 FEFFFFEB 		bl	memcpy
 8809              	.LVL1278:
 8810              	.L377:
 8811              	.LBE1794:
 8812              	.LBB1795:
  63:C:/Renesas/e2studio_2021_01_workspace_RZA2M_ANPR/ANPR_RZA2M_GR_MANGO/src/tensorflow_lite/tensorflow/lite/kernels/internal/reference\pad.h ****     right_padding_copy[i + PadKernelMaxDimensionCount() -
 8813              		.loc 6 63 0
 8814 2654 000056E3 		cmp	r6, #0
 8815              	.LBE1795:
 8816              	.LBB1796:
  61:C:/Renesas/e2studio_2021_01_workspace_RZA2M_ANPR/ANPR_RZA2M_GR_MANGO/src/tensorflow_lite/tensorflow/lite/kernels/internal/reference\pad.h ****   }
 8817              		.loc 6 61 0
 8818 2658 0030A0E3 		mov	r3, #0
 8819 265c 74308DE5 		str	r3, [sp, #116]
 8820              	.LVL1279:
 8821 2660 78308DE5 		str	r3, [sp, #120]
 8822              	.LVL1280:
 8823 2664 7C308DE5 		str	r3, [sp, #124]
 8824              	.LVL1281:
 8825 2668 80308DE5 		str	r3, [sp, #128]
 8826              	.LVL1282:
 8827 266c 84308DE5 		str	r3, [sp, #132]
 8828              	.LVL1283:
 8829              	.LBE1796:
 8830              	.LBB1797:
  63:C:/Renesas/e2studio_2021_01_workspace_RZA2M_ANPR/ANPR_RZA2M_GR_MANGO/src/tensorflow_lite/tensorflow/lite/kernels/internal/reference\pad.h ****     right_padding_copy[i + PadKernelMaxDimensionCount() -
 8831              		.loc 6 63 0
 8832 2670 050000DA 		ble	.L384
  64:C:/Renesas/e2studio_2021_01_workspace_RZA2M_ANPR/ANPR_RZA2M_GR_MANGO/src/tensorflow_lite/tensorflow/lite/kernels/internal/reference\pad.h ****                        op_params.right_padding_count] =
 8833              		.loc 6 64 0
 8834 2674 E8308DE2 		add	r3, sp, #232
 8835 2678 1C1085E2 		add	r1, r5, #28
 8836 267c 060143E0 		sub	r0, r3, r6, lsl #2
 8837 2680 0621A0E1 		lsl	r2, r6, #2
 8838 2684 600040E2 		sub	r0, r0, #96
 8839 2688 FEFFFFEB 		bl	memcpy
 8840              	.LVL1284:
 8841              	.L384:
 8842              	.LBE1797:
 8843              	.LBB1798:
 8844              	.LBB1799:
 215:C:/Renesas/e2studio_2021_01_workspace_RZA2M_ANPR/ANPR_RZA2M_GR_MANGO/src/tensorflow_lite/tensorflow/lite/kernels/internal\types.h ****     return size_ > kMaxSmallSize ? dims_pointer_[i] : dims_[i];
 8845              		.loc 4 215 0
 8846 268c D0309DE5 		ldr	r3, [sp, #208]
 8847 2690 000053E3 		cmp	r3, #0
 8848 2694 20308DE5 		str	r3, [sp, #32]
 8849 2698 050200DA 		ble	.L1518
 216:C:/Renesas/e2studio_2021_01_workspace_RZA2M_ANPR/ANPR_RZA2M_GR_MANGO/src/tensorflow_lite/tensorflow/lite/kernels/internal\types.h ****   }
 8850              		.loc 4 216 0
 8851 269c 050053E3 		cmp	r3, #5
 8852 26a0 E30100CA 		bgt	.L1519
 8853              	.LBE1799:
 8854              	.LBE1798:
 8855              	.LBB1805:
 8856              	.LBB1806:
 215:C:/Renesas/e2studio_2021_01_workspace_RZA2M_ANPR/ANPR_RZA2M_GR_MANGO/src/tensorflow_lite/tensorflow/lite/kernels/internal\types.h ****     return size_ > kMaxSmallSize ? dims_pointer_[i] : dims_[i];
 8857              		.loc 4 215 0
 8858 26a4 010053E3 		cmp	r3, #1
 8859              	.LBE1806:
 8860              	.LBE1805:
 8861              	.LBB1813:
 8862              	.LBB1800:
 216:C:/Renesas/e2studio_2021_01_workspace_RZA2M_ANPR/ANPR_RZA2M_GR_MANGO/src/tensorflow_lite/tensorflow/lite/kernels/internal\types.h ****   }
 8863              		.loc 4 216 0
 8864 26a8 D4309DE5 		ldr	r3, [sp, #212]
 8865 26ac 24308DE5 		str	r3, [sp, #36]
 8866              	.LVL1285:
 8867              	.LBE1800:
 8868              	.LBE1813:
 8869              	.LBB1814:
 8870              	.LBB1807:
 215:C:/Renesas/e2studio_2021_01_workspace_RZA2M_ANPR/ANPR_RZA2M_GR_MANGO/src/tensorflow_lite/tensorflow/lite/kernels/internal\types.h ****     return size_ > kMaxSmallSize ? dims_pointer_[i] : dims_[i];
 8871              		.loc 4 215 0
 8872 26b0 DE01000A 		beq	.L1520
 8873              	.LBE1807:
 8874              	.LBE1814:
 8875              	.LBB1815:
 8876              	.LBB1816:
 8877 26b4 20309DE5 		ldr	r3, [sp, #32]
 8878              	.LBE1816:
 8879              	.LBE1815:
 8880              	.LBB1823:
 8881              	.LBB1808:
 216:C:/Renesas/e2studio_2021_01_workspace_RZA2M_ANPR/ANPR_RZA2M_GR_MANGO/src/tensorflow_lite/tensorflow/lite/kernels/internal\types.h ****   }
 8882              		.loc 4 216 0
 8883 26b8 D8209DE5 		ldr	r2, [sp, #216]
 8884              	.LBE1808:
 8885              	.LBE1823:
 8886              	.LBB1824:
 8887              	.LBB1817:
 215:C:/Renesas/e2studio_2021_01_workspace_RZA2M_ANPR/ANPR_RZA2M_GR_MANGO/src/tensorflow_lite/tensorflow/lite/kernels/internal\types.h ****     return size_ > kMaxSmallSize ? dims_pointer_[i] : dims_[i];
 8888              		.loc 4 215 0
 8889 26bc 020053E3 		cmp	r3, #2
 8890              	.LBE1817:
 8891              	.LBE1824:
 8892              	.LBB1825:
 8893              	.LBB1809:
 216:C:/Renesas/e2studio_2021_01_workspace_RZA2M_ANPR/ANPR_RZA2M_GR_MANGO/src/tensorflow_lite/tensorflow/lite/kernels/internal\types.h ****   }
 8894              		.loc 4 216 0
 8895 26c0 1C208DE5 		str	r2, [sp, #28]
 8896              	.LVL1286:
 8897              	.LBE1809:
 8898              	.LBE1825:
 8899              	.LBB1826:
 8900              	.LBB1818:
 215:C:/Renesas/e2studio_2021_01_workspace_RZA2M_ANPR/ANPR_RZA2M_GR_MANGO/src/tensorflow_lite/tensorflow/lite/kernels/internal\types.h ****     return size_ > kMaxSmallSize ? dims_pointer_[i] : dims_[i];
 8901              		.loc 4 215 0
 8902 26c4 D801000A 		beq	.L697
 216:C:/Renesas/e2studio_2021_01_workspace_RZA2M_ANPR/ANPR_RZA2M_GR_MANGO/src/tensorflow_lite/tensorflow/lite/kernels/internal\types.h ****   }
 8903              		.loc 4 216 0
 8904 26c8 DC209DE5 		ldr	r2, [sp, #220]
 8905              	.LBE1818:
 8906              	.LBE1826:
 8907              	.LBB1827:
 8908              	.LBB1828:
 215:C:/Renesas/e2studio_2021_01_workspace_RZA2M_ANPR/ANPR_RZA2M_GR_MANGO/src/tensorflow_lite/tensorflow/lite/kernels/internal\types.h ****     return size_ > kMaxSmallSize ? dims_pointer_[i] : dims_[i];
 8909              		.loc 4 215 0
 8910 26cc 030053E3 		cmp	r3, #3
 8911              	.LBE1828:
 8912              	.LBE1827:
 8913              	.LBB1833:
 8914              	.LBB1819:
 216:C:/Renesas/e2studio_2021_01_workspace_RZA2M_ANPR/ANPR_RZA2M_GR_MANGO/src/tensorflow_lite/tensorflow/lite/kernels/internal\types.h ****   }
 8915              		.loc 4 216 0
 8916 26d0 10208DE5 		str	r2, [sp, #16]
 8917              	.LVL1287:
 8918              	.LBE1819:
 8919              	.LBE1833:
 8920              	.LBB1834:
 8921              	.LBB1829:
 215:C:/Renesas/e2studio_2021_01_workspace_RZA2M_ANPR/ANPR_RZA2M_GR_MANGO/src/tensorflow_lite/tensorflow/lite/kernels/internal\types.h ****     return size_ > kMaxSmallSize ? dims_pointer_[i] : dims_[i];
 8922              		.loc 4 215 0
 8923 26d4 D201000A 		beq	.L698
 8924              	.LBE1829:
 8925              	.LBE1834:
 8926              	.LBB1835:
 8927              	.LBB1836:
 8928 26d8 040053E3 		cmp	r3, #4
 8929              	.LBE1836:
 8930              	.LBE1835:
 8931              	.LBB1841:
 8932              	.LBB1830:
 216:C:/Renesas/e2studio_2021_01_workspace_RZA2M_ANPR/ANPR_RZA2M_GR_MANGO/src/tensorflow_lite/tensorflow/lite/kernels/internal\types.h ****   }
 8933              		.loc 4 216 0
 8934 26dc E0909DE5 		ldr	r9, [sp, #224]
 8935              	.LVL1288:
 8936              	.LBE1830:
 8937              	.LBE1841:
 8938              	.LBB1842:
 8939              	.LBB1837:
 215:C:/Renesas/e2studio_2021_01_workspace_RZA2M_ANPR/ANPR_RZA2M_GR_MANGO/src/tensorflow_lite/tensorflow/lite/kernels/internal\types.h ****     return size_ > kMaxSmallSize ? dims_pointer_[i] : dims_[i];
 8940              		.loc 4 215 0
 8941 26e0 CE01000A 		beq	.L1521
 8942              	.LBE1837:
 8943              	.LBE1842:
  75:C:/Renesas/e2studio_2021_01_workspace_RZA2M_ANPR/ANPR_RZA2M_GR_MANGO/src/tensorflow_lite/tensorflow/lite/kernels/internal/reference\pad.h ****   const int left_p_padding = left_padding_copy[1];
 8944              		.loc 6 75 0
 8945 26e4 60309DE5 		ldr	r3, [sp, #96]
 8946              	.LBB1843:
  91:C:/Renesas/e2studio_2021_01_workspace_RZA2M_ANPR/ANPR_RZA2M_GR_MANGO/src/tensorflow_lite/tensorflow/lite/kernels/internal/reference\pad.h ****     for (int out_p = 0; out_p < output_plane; ++out_p) {
 8947              		.loc 6 91 0
 8948 26e8 24209DE5 		ldr	r2, [sp, #36]
 8949              	.LBE1843:
 8950              	.LBB1856:
 8951              	.LBB1838:
 216:C:/Renesas/e2studio_2021_01_workspace_RZA2M_ANPR/ANPR_RZA2M_GR_MANGO/src/tensorflow_lite/tensorflow/lite/kernels/internal\types.h ****   }
 8952              		.loc 4 216 0
 8953 26ec E4B09DE5 		ldr	fp, [sp, #228]
 8954              	.LVL1289:
 8955              	.LBE1838:
 8956              	.LBE1856:
  75:C:/Renesas/e2studio_2021_01_workspace_RZA2M_ANPR/ANPR_RZA2M_GR_MANGO/src/tensorflow_lite/tensorflow/lite/kernels/internal/reference\pad.h ****   const int left_p_padding = left_padding_copy[1];
 8957              		.loc 6 75 0
 8958 26f0 04308DE5 		str	r3, [sp, #4]
 8959              	.LVL1290:
  76:C:/Renesas/e2studio_2021_01_workspace_RZA2M_ANPR/ANPR_RZA2M_GR_MANGO/src/tensorflow_lite/tensorflow/lite/kernels/internal/reference\pad.h ****   const int left_h_padding = left_padding_copy[2];
 8960              		.loc 6 76 0
 8961 26f4 64309DE5 		ldr	r3, [sp, #100]
 8962              	.LVL1291:
 8963              	.LBB1857:
  91:C:/Renesas/e2studio_2021_01_workspace_RZA2M_ANPR/ANPR_RZA2M_GR_MANGO/src/tensorflow_lite/tensorflow/lite/kernels/internal/reference\pad.h ****     for (int out_p = 0; out_p < output_plane; ++out_p) {
 8964              		.loc 6 91 0
 8965 26f8 000052E3 		cmp	r2, #0
 8966              	.LBE1857:
  76:C:/Renesas/e2studio_2021_01_workspace_RZA2M_ANPR/ANPR_RZA2M_GR_MANGO/src/tensorflow_lite/tensorflow/lite/kernels/internal/reference\pad.h ****   const int left_h_padding = left_padding_copy[2];
 8967              		.loc 6 76 0
 8968 26fc 48308DE5 		str	r3, [sp, #72]
 8969              	.LVL1292:
  77:C:/Renesas/e2studio_2021_01_workspace_RZA2M_ANPR/ANPR_RZA2M_GR_MANGO/src/tensorflow_lite/tensorflow/lite/kernels/internal/reference\pad.h ****   const int left_w_padding = left_padding_copy[3];
 8970              		.loc 6 77 0
 8971 2700 68309DE5 		ldr	r3, [sp, #104]
 8972              	.LVL1293:
 8973 2704 30308DE5 		str	r3, [sp, #48]
 8974              	.LVL1294:
  78:C:/Renesas/e2studio_2021_01_workspace_RZA2M_ANPR/ANPR_RZA2M_GR_MANGO/src/tensorflow_lite/tensorflow/lite/kernels/internal/reference\pad.h ****   const int left_d_padding = left_padding_copy[4];
 8975              		.loc 6 78 0
 8976 2708 6C309DE5 		ldr	r3, [sp, #108]
 8977              	.LVL1295:
 8978 270c 08308DE5 		str	r3, [sp, #8]
 8979              	.LVL1296:
  79:C:/Renesas/e2studio_2021_01_workspace_RZA2M_ANPR/ANPR_RZA2M_GR_MANGO/src/tensorflow_lite/tensorflow/lite/kernels/internal/reference\pad.h **** 
 8980              		.loc 6 79 0
 8981 2710 70309DE5 		ldr	r3, [sp, #112]
 8982              	.LVL1297:
 8983 2714 34308DE5 		str	r3, [sp, #52]
 8984              	.LVL1298:
  81:C:/Renesas/e2studio_2021_01_workspace_RZA2M_ANPR/ANPR_RZA2M_GR_MANGO/src/tensorflow_lite/tensorflow/lite/kernels/internal/reference\pad.h ****   const int right_p_padding = right_padding_copy[1];
 8985              		.loc 6 81 0
 8986 2718 74309DE5 		ldr	r3, [sp, #116]
 8987              	.LVL1299:
 8988 271c 3C308DE5 		str	r3, [sp, #60]
 8989              	.LVL1300:
  82:C:/Renesas/e2studio_2021_01_workspace_RZA2M_ANPR/ANPR_RZA2M_GR_MANGO/src/tensorflow_lite/tensorflow/lite/kernels/internal/reference\pad.h ****   const int right_h_padding = right_padding_copy[2];
 8990              		.loc 6 82 0
 8991 2720 78309DE5 		ldr	r3, [sp, #120]
 8992              	.LVL1301:
 8993 2724 28308DE5 		str	r3, [sp, #40]
 8994              	.LVL1302:
  83:C:/Renesas/e2studio_2021_01_workspace_RZA2M_ANPR/ANPR_RZA2M_GR_MANGO/src/tensorflow_lite/tensorflow/lite/kernels/internal/reference\pad.h ****   const int right_w_padding = right_padding_copy[3];
 8995              		.loc 6 83 0
 8996 2728 7C309DE5 		ldr	r3, [sp, #124]
 8997              	.LVL1303:
 8998 272c 2C308DE5 		str	r3, [sp, #44]
 8999              	.LVL1304:
  84:C:/Renesas/e2studio_2021_01_workspace_RZA2M_ANPR/ANPR_RZA2M_GR_MANGO/src/tensorflow_lite/tensorflow/lite/kernels/internal/reference\pad.h ****   const int right_d_padding = right_padding_copy[4];
 9000              		.loc 6 84 0
 9001 2730 80309DE5 		ldr	r3, [sp, #128]
 9002              	.LVL1305:
 9003 2734 38308DE5 		str	r3, [sp, #56]
 9004              	.LVL1306:
  85:C:/Renesas/e2studio_2021_01_workspace_RZA2M_ANPR/ANPR_RZA2M_GR_MANGO/src/tensorflow_lite/tensorflow/lite/kernels/internal/reference\pad.h **** 
 9005              		.loc 6 85 0
 9006 2738 84309DE5 		ldr	r3, [sp, #132]
 9007              	.LVL1307:
 9008              	.LBB1858:
  91:C:/Renesas/e2studio_2021_01_workspace_RZA2M_ANPR/ANPR_RZA2M_GR_MANGO/src/tensorflow_lite/tensorflow/lite/kernels/internal/reference\pad.h ****     for (int out_p = 0; out_p < output_plane; ++out_p) {
 9009              		.loc 6 91 0
 9010 273c ABF7FFDA 		ble	.L609
 9011 2740 40208DE5 		str	r2, [sp, #64]
 9012              	.L387:
 9013 2744 1C209DE5 		ldr	r2, [sp, #28]
 9014 2748 000052E3 		cmp	r2, #0
 9015 274c 640000DA 		ble	.L390
 9016 2750 0080A0E3 		mov	r8, #0
 9017              	.LVL1308:
 9018              	.LBB1844:
 9019              	.LBB1845:
 9020              	.LBB1846:
 9021              	.LBB1847:
 105:C:/Renesas/e2studio_2021_01_workspace_RZA2M_ANPR/ANPR_RZA2M_GR_MANGO/src/tensorflow_lite/tensorflow/lite/kernels/internal/reference\pad.h ****               *out_ptr++ = pad_value;
 9022              		.loc 6 105 0
 9023 2754 03304BE0 		sub	r3, fp, r3
 9024              	.LVL1309:
 9025 2758 4C308DE5 		str	r3, [sp, #76]
 9026              	.LVL1310:
 9027              	.L405:
 9028              	.LBE1847:
 9029              	.LBE1846:
 9030              	.LBE1845:
 9031              	.LBE1844:
  91:C:/Renesas/e2studio_2021_01_workspace_RZA2M_ANPR/ANPR_RZA2M_GR_MANGO/src/tensorflow_lite/tensorflow/lite/kernels/internal/reference\pad.h ****     for (int out_p = 0; out_p < output_plane; ++out_p) {
 9032              		.loc 6 91 0
 9033 275c 0030A0E3 		mov	r3, #0
 9034 2760 18308DE5 		str	r3, [sp, #24]
 9035              	.LVL1311:
 9036              	.L404:
 9037              	.LBB1854:
 9038              	.LBB1852:
  93:C:/Renesas/e2studio_2021_01_workspace_RZA2M_ANPR/ANPR_RZA2M_GR_MANGO/src/tensorflow_lite/tensorflow/lite/kernels/internal/reference\pad.h ****         for (int out_w = 0; out_w < output_width; ++out_w) {
 9039              		.loc 6 93 0
 9040 2764 10309DE5 		ldr	r3, [sp, #16]
 9041 2768 000053E3 		cmp	r3, #0
 9042 276c 520000DA 		ble	.L391
 9043              	.LBB1850:
 9044              	.LBB1848:
  97:C:/Renesas/e2studio_2021_01_workspace_RZA2M_ANPR/ANPR_RZA2M_GR_MANGO/src/tensorflow_lite/tensorflow/lite/kernels/internal/reference\pad.h ****                 out_p < left_p_padding ||
 9045              		.loc 6 97 0
 9046 2770 24309DE5 		ldr	r3, [sp, #36]
  96:C:/Renesas/e2studio_2021_01_workspace_RZA2M_ANPR/ANPR_RZA2M_GR_MANGO/src/tensorflow_lite/tensorflow/lite/kernels/internal/reference\pad.h ****                 out_b >= output_batch - right_b_padding ||
 9047              		.loc 6 96 0
 9048 2774 0060A0E3 		mov	r6, #0
  97:C:/Renesas/e2studio_2021_01_workspace_RZA2M_ANPR/ANPR_RZA2M_GR_MANGO/src/tensorflow_lite/tensorflow/lite/kernels/internal/reference\pad.h ****                 out_p < left_p_padding ||
 9049              		.loc 6 97 0
 9050 2778 3C209DE5 		ldr	r2, [sp, #60]
 9051 277c 48109DE5 		ldr	r1, [sp, #72]
 9052 2780 022043E0 		sub	r2, r3, r2
 9053 2784 18309DE5 		ldr	r3, [sp, #24]
 9054 2788 010053E1 		cmp	r3, r1
 9055 278c 080052A1 		cmpge	r2, r8
 9056 2790 0130A0D3 		movle	r3, #1
 9057 2794 0030A0C3 		movgt	r3, #0
 9058 2798 0C308DE5 		str	r3, [sp, #12]
 9059              	.LVL1312:
 9060              	.L403:
 9061              	.LBE1848:
  94:C:/Renesas/e2studio_2021_01_workspace_RZA2M_ANPR/ANPR_RZA2M_GR_MANGO/src/tensorflow_lite/tensorflow/lite/kernels/internal/reference\pad.h ****           for (int out_d = 0; out_d < output_depth; ++out_d) {
 9062              		.loc 6 94 0
 9063 279c 000059E3 		cmp	r9, #0
 9064 27a0 410000DA 		ble	.L392
 9065              	.LBB1849:
  99:C:/Renesas/e2studio_2021_01_workspace_RZA2M_ANPR/ANPR_RZA2M_GR_MANGO/src/tensorflow_lite/tensorflow/lite/kernels/internal/reference\pad.h ****                 out_h < left_h_padding ||
 9066              		.loc 6 99 0
 9067 27a4 1C309DE5 		ldr	r3, [sp, #28]
  98:C:/Renesas/e2studio_2021_01_workspace_RZA2M_ANPR/ANPR_RZA2M_GR_MANGO/src/tensorflow_lite/tensorflow/lite/kernels/internal/reference\pad.h ****                 out_p >= output_plane - right_p_padding ||
 9068              		.loc 6 98 0
 9069 27a8 0050A0E3 		mov	r5, #0
  99:C:/Renesas/e2studio_2021_01_workspace_RZA2M_ANPR/ANPR_RZA2M_GR_MANGO/src/tensorflow_lite/tensorflow/lite/kernels/internal/reference\pad.h ****                 out_h < left_h_padding ||
 9070              		.loc 6 99 0
 9071 27ac 28209DE5 		ldr	r2, [sp, #40]
 9072 27b0 30109DE5 		ldr	r1, [sp, #48]
 9073 27b4 022043E0 		sub	r2, r3, r2
 9074 27b8 18309DE5 		ldr	r3, [sp, #24]
 9075 27bc 010056E1 		cmp	r6, r1
 9076 27c0 030052A1 		cmpge	r2, r3
 101:C:/Renesas/e2studio_2021_01_workspace_RZA2M_ANPR/ANPR_RZA2M_GR_MANGO/src/tensorflow_lite/tensorflow/lite/kernels/internal/reference\pad.h ****                 out_w < left_w_padding ||
 9077              		.loc 6 101 0
 9078 27c4 2C209DE5 		ldr	r2, [sp, #44]
 9079 27c8 0130A0D3 		movle	r3, #1
 9080 27cc 0030A0C3 		movgt	r3, #0
 9081 27d0 14308DE5 		str	r3, [sp, #20]
 9082 27d4 10309DE5 		ldr	r3, [sp, #16]
 9083 27d8 027043E0 		sub	r7, r3, r2
 9084 27dc 0730A0E1 		mov	r3, r7
 9085 27e0 0470A0E1 		mov	r7, r4
 9086 27e4 0340A0E1 		mov	r4, r3
 9087              	.LVL1313:
 9088              	.L402:
  95:C:/Renesas/e2studio_2021_01_workspace_RZA2M_ANPR/ANPR_RZA2M_GR_MANGO/src/tensorflow_lite/tensorflow/lite/kernels/internal/reference\pad.h ****             if (out_b < left_b_padding ||
 9089              		.loc 6 95 0
 9090 27e8 00005BE3 		cmp	fp, #0
 9091 27ec 2A0000DA 		ble	.L393
 9092 27f0 08309DE5 		ldr	r3, [sp, #8]
 9093 27f4 030055E1 		cmp	r5, r3
 9094 27f8 060054A1 		cmpge	r4, r6
 9095 27fc 04309DE5 		ldr	r3, [sp, #4]
 9096 2800 0120A0D3 		movle	r2, #1
 9097 2804 0020A0C3 		movgt	r2, #0
 9098 2808 030058E1 		cmp	r8, r3
 9099 280c 1D0000BA 		blt	.L394
 9100 2810 0C309DE5 		ldr	r3, [sp, #12]
 9101 2814 000053E3 		cmp	r3, #0
 9102 2818 3800001A 		bne	.L395
 9103 281c 000052E3 		cmp	r2, #0
 9104 2820 14309DE5 		ldr	r3, [sp, #20]
 9105 2824 3E00001A 		bne	.L396
 9106 2828 000053E3 		cmp	r3, #0
 9107 282c 3300001A 		bne	.L395
 100:C:/Renesas/e2studio_2021_01_workspace_RZA2M_ANPR/ANPR_RZA2M_GR_MANGO/src/tensorflow_lite/tensorflow/lite/kernels/internal/reference\pad.h ****                 out_h >= output_height - right_h_padding ||
 9108              		.loc 6 100 0
 9109 2830 0320A0E1 		mov	r2, r3
 9110 2834 38309DE5 		ldr	r3, [sp, #56]
 9111 2838 011087E2 		add	r1, r7, #1
 9112 283c 34009DE5 		ldr	r0, [sp, #52]
 9113 2840 44E09DE5 		ldr	lr, [sp, #68]
 9114 2844 03C049E0 		sub	ip, r9, r3
 9115 2848 090000EA 		b	.L399
 9116              	.LVL1314:
 9117              	.L1523:
 104:C:/Renesas/e2studio_2021_01_workspace_RZA2M_ANPR/ANPR_RZA2M_GR_MANGO/src/tensorflow_lite/tensorflow/lite/kernels/internal/reference\pad.h ****                 out_d >= output_depth - right_d_padding) {
 9118              		.loc 6 104 0
 9119 284c 4C309DE5 		ldr	r3, [sp, #76]
 9120 2850 020053E1 		cmp	r3, r2
 9121 2854 090000DA 		ble	.L739
 9122              	.LVL1315:
 9123              		.loc 6 108 0
 9124 2858 0030DEE5 		ldrb	r3, [lr]	@ zero_extendqisi2
 9125 285c 01E08EE2 		add	lr, lr, #1
 9126              	.LVL1316:
 9127              	.L398:
  95:C:/Renesas/e2studio_2021_01_workspace_RZA2M_ANPR/ANPR_RZA2M_GR_MANGO/src/tensorflow_lite/tensorflow/lite/kernels/internal/reference\pad.h ****             if (out_b < left_b_padding ||
 9128              		.loc 6 95 0
 9129 2860 012082E2 		add	r2, r2, #1
 9130              	.LVL1317:
 9131 2864 013041E5 		strb	r3, [r1, #-1]
 9132              	.LVL1318:
 9133 2868 0B0052E1 		cmp	r2, fp
 9134 286c 011081E2 		add	r1, r1, #1
 9135 2870 3000000A 		beq	.L1522
 9136              	.LVL1319:
 9137              	.L399:
 103:C:/Renesas/e2studio_2021_01_workspace_RZA2M_ANPR/ANPR_RZA2M_GR_MANGO/src/tensorflow_lite/tensorflow/lite/kernels/internal/reference\pad.h ****                 out_d < left_d_padding ||
 9138              		.loc 6 103 0
 9139 2874 000052E1 		cmp	r2, r0
 9140 2878 05005CA1 		cmpge	ip, r5
 9141 287c F2FFFFCA 		bgt	.L1523
 9142              	.L739:
 106:C:/Renesas/e2studio_2021_01_workspace_RZA2M_ANPR/ANPR_RZA2M_GR_MANGO/src/tensorflow_lite/tensorflow/lite/kernels/internal/reference\pad.h ****             } else {
 9143              		.loc 6 106 0
 9144 2880 0A30A0E1 		mov	r3, r10
 9145 2884 F5FFFFEA 		b	.L398
 9146              	.LVL1320:
 9147              	.L394:
 9148 2888 0700A0E1 		mov	r0, r7
 9149 288c 0B20A0E1 		mov	r2, fp
 9150 2890 0B7087E0 		add	r7, r7, fp
 9151              	.LVL1321:
 9152 2894 0A10A0E1 		mov	r1, r10
 9153              	.L1313:
 9154 2898 FEFFFFEB 		bl	memset
 9155              	.LVL1322:
 9156              	.L393:
 9157              	.LBE1849:
  94:C:/Renesas/e2studio_2021_01_workspace_RZA2M_ANPR/ANPR_RZA2M_GR_MANGO/src/tensorflow_lite/tensorflow/lite/kernels/internal/reference\pad.h ****           for (int out_d = 0; out_d < output_depth; ++out_d) {
 9158              		.loc 6 94 0
 9159 289c 015085E2 		add	r5, r5, #1
 9160              	.LVL1323:
 9161 28a0 090055E1 		cmp	r5, r9
 9162 28a4 CFFFFF1A 		bne	.L402
 9163              	.LVL1324:
 9164              	.L1524:
 9165 28a8 0740A0E1 		mov	r4, r7
 9166              	.LVL1325:
 9167              	.L392:
 9168              	.LBE1850:
  93:C:/Renesas/e2studio_2021_01_workspace_RZA2M_ANPR/ANPR_RZA2M_GR_MANGO/src/tensorflow_lite/tensorflow/lite/kernels/internal/reference\pad.h ****         for (int out_w = 0; out_w < output_width; ++out_w) {
 9169              		.loc 6 93 0
 9170 28ac 10309DE5 		ldr	r3, [sp, #16]
 9171 28b0 016086E2 		add	r6, r6, #1
 9172              	.LVL1326:
 9173 28b4 030056E1 		cmp	r6, r3
 9174 28b8 B7FFFF1A 		bne	.L403
 9175              	.LVL1327:
 9176              	.L391:
 9177              	.LBE1852:
  92:C:/Renesas/e2studio_2021_01_workspace_RZA2M_ANPR/ANPR_RZA2M_GR_MANGO/src/tensorflow_lite/tensorflow/lite/kernels/internal/reference\pad.h ****       for (int out_h = 0; out_h < output_height; ++out_h) {
 9178              		.loc 6 92 0
 9179 28bc 18309DE5 		ldr	r3, [sp, #24]
 9180 28c0 1C209DE5 		ldr	r2, [sp, #28]
 9181 28c4 013083E2 		add	r3, r3, #1
 9182 28c8 020053E1 		cmp	r3, r2
 9183 28cc 18308DE5 		str	r3, [sp, #24]
 9184              	.LVL1328:
 9185 28d0 A3FFFF1A 		bne	.L404
 9186              	.LBE1854:
  91:C:/Renesas/e2studio_2021_01_workspace_RZA2M_ANPR/ANPR_RZA2M_GR_MANGO/src/tensorflow_lite/tensorflow/lite/kernels/internal/reference\pad.h ****     for (int out_p = 0; out_p < output_plane; ++out_p) {
 9187              		.loc 6 91 0
 9188 28d4 24309DE5 		ldr	r3, [sp, #36]
 9189              	.LVL1329:
 9190 28d8 018088E2 		add	r8, r8, #1
 9191              	.LVL1330:
 9192 28dc 030058E1 		cmp	r8, r3
 9193 28e0 9DFFFFBA 		blt	.L405
 9194              	.LVL1331:
 9195              	.L390:
 9196              	.LBE1858:
 9197              	.LBB1859:
 9198              	.LBB1860:
 203:C:/Renesas/e2studio_2021_01_workspace_RZA2M_ANPR/ANPR_RZA2M_GR_MANGO/src/tensorflow_lite/tensorflow/lite/kernels/internal\types.h **** #ifdef TF_LITE_STATIC_MEMORY
 9199              		.loc 4 203 0
 9200 28e4 20309DE5 		ldr	r3, [sp, #32]
 9201 28e8 050053E3 		cmp	r3, #5
 9202 28ec 3FF7FF0A 		beq	.L609
 9203              	.LVL1332:
 9204              	.L386:
 207:C:/Renesas/e2studio_2021_01_workspace_RZA2M_ANPR/ANPR_RZA2M_GR_MANGO/src/tensorflow_lite/tensorflow/lite/kernels/internal\types.h **** #endif  // TF_LITE_STATIC_MEMORY
 9205              		.loc 4 207 0
 9206 28f0 40309DE5 		ldr	r3, [sp, #64]
 9207 28f4 000053E3 		cmp	r3, #0
 9208 28f8 3AF7FF1A 		bne	.L1400
 9209 28fc 3BF7FFEA 		b	.L609
 9210              	.LVL1333:
 9211              	.L395:
 9212 2900 0700A0E1 		mov	r0, r7
 9213 2904 0B20A0E1 		mov	r2, fp
 9214 2908 0A10A0E1 		mov	r1, r10
 9215              	.LBE1860:
 9216              	.LBE1859:
 9217              	.LBB1861:
 9218              	.LBB1855:
 9219              	.LBB1853:
 9220              	.LBB1851:
  94:C:/Renesas/e2studio_2021_01_workspace_RZA2M_ANPR/ANPR_RZA2M_GR_MANGO/src/tensorflow_lite/tensorflow/lite/kernels/internal/reference\pad.h ****           for (int out_d = 0; out_d < output_depth; ++out_d) {
 9221              		.loc 6 94 0
 9222 290c 015085E2 		add	r5, r5, #1
 9223              	.LVL1334:
 9224 2910 FEFFFFEB 		bl	memset
 9225              	.LVL1335:
 9226 2914 090055E1 		cmp	r5, r9
 9227 2918 0B7087E0 		add	r7, r7, fp
 9228              	.LVL1336:
 9229 291c B1FFFF1A 		bne	.L402
 9230 2920 E0FFFFEA 		b	.L1524
 9231              	.L396:
 9232 2924 0700A0E1 		mov	r0, r7
 9233 2928 0B20A0E1 		mov	r2, fp
 9234 292c 0A10A0E1 		mov	r1, r10
 9235 2930 0B7087E0 		add	r7, r7, fp
 9236              	.LVL1337:
 9237 2934 D7FFFFEA 		b	.L1313
 9238              	.LVL1338:
 9239              	.L1522:
 9240 2938 015085E2 		add	r5, r5, #1
 9241              	.LVL1339:
 9242 293c 44E08DE5 		str	lr, [sp, #68]
 9243 2940 090055E1 		cmp	r5, r9
 9244 2944 0B7087E0 		add	r7, r7, fp
 9245              	.LVL1340:
 9246 2948 A6FFFF1A 		bne	.L402
 9247              	.LVL1341:
 9248 294c D5FFFFEA 		b	.L1524
 9249              	.LVL1342:
 9250              	.L376:
 9251              	.LEHB60:
 9252              	.LBE1851:
 9253              	.LBE1853:
 9254              	.LBE1855:
 9255              	.LBE1861:
  47:C:/Renesas/e2studio_2021_01_workspace_RZA2M_ANPR/ANPR_RZA2M_GR_MANGO/src/tensorflow_lite/tensorflow/lite/kernels/internal/reference\pad.h **** 
 9256              		.loc 6 47 0
 9257 2950 FEFFFFEB 		bl	abort
 9258              	.LVL1343:
 9259              	.LEHE60:
 9260              	.L1517:
 9261              	.LEHB61:
  46:C:/Renesas/e2studio_2021_01_workspace_RZA2M_ANPR/ANPR_RZA2M_GR_MANGO/src/tensorflow_lite/tensorflow/lite/kernels/internal/reference\pad.h ****   TFLITE_DCHECK_LE(op_params.right_padding_count, PadKernelMaxDimensionCount());
 9262              		.loc 6 46 0
 9263 2954 FEFFFFEB 		bl	abort
 9264              	.LVL1344:
 9265              	.LEHE61:
 9266              	.L1516:
 9267              	.LEHB62:
 9268              	.LBB1862:
 9269              	.LBB1789:
 9270              	.LBB1787:
 9271              	.LBB1785:
 9272              	.LBB1783:
 308:C:/Renesas/e2studio_2021_01_workspace_RZA2M_ANPR/ANPR_RZA2M_GR_MANGO/src/tensorflow_lite/tensorflow/lite/kernels/internal\types.h ****     Resize(new_shape_size);
 9273              		.loc 4 308 0
 9274 2958 FEFFFFEB 		bl	abort
 9275              	.LVL1345:
 9276              	.LEHE62:
 9277              	.L797:
 9278 295c 52F7FFEA 		b	.L1322
 9279              	.LVL1346:
 9280              	.L796:
 9281 2960 51F7FFEA 		b	.L1322
 9282              	.LVL1347:
 9283              	.L773:
 9284 2964 1EF6FFEA 		b	.L656
 9285              	.LVL1348:
 9286              	.L480:
 9287              	.LBE1783:
 9288              	.LBE1785:
 9289              	.LBE1787:
 9290              	.LBE1789:
 9291              	.LBE1862:
 9292              	.LBE1879:
 9293              	.LBE1881:
 9294              	.LBE1883:
 9295              	.LBE1885:
 9296              	.LBE2416:
 9297              	.LBB2417:
 9298              	.LBB1544:
 9299              	.LBB1543:
 9300              	.LBB1542:
 9301              	.LBB1541:
 9302              	.LBB1418:
 9303              	.LBB1416:
 9304              	.LBB1414:
 9305              	.LBB1412:
 9306              	.LBB1410:
 9307              		.loc 4 315 0
 9308 2968 BC308DE2 		add	r3, sp, #188
 9309 296c 0221A0E1 		lsl	r2, r2, #2
 9310 2970 000183E0 		add	r0, r3, r0, lsl #2
 9311              	.LVL1349:
 9312 2974 8C108DE2 		add	r1, sp, #140
 9313 2978 FEFFFFEB 		bl	memcpy
 9314              	.LVL1350:
 9315 297c A0209DE5 		ldr	r2, [sp, #160]
 9316              	.LVL1351:
 9317              	.LBE1410:
 9318              	.LBE1412:
 9319              	.LBE1414:
 9320              	.LBE1416:
 9321              	.LBE1418:
 9322              	.LBB1419:
 9323              	.LBB1420:
 9324              	.LBB1421:
 9325              	.LBB1422:
 305:C:/Renesas/e2studio_2021_01_workspace_RZA2M_ANPR/ANPR_RZA2M_GR_MANGO/src/tensorflow_lite/tensorflow/lite/kernels/internal\types.h ****     // If the following check fails, it is likely because a 4D-only kernel is
 9326              		.loc 4 305 0
 9327 2980 0030A0E3 		mov	r3, #0
 9328 2984 D0308DE5 		str	r3, [sp, #208]
 9329              	.LBB1423:
 308:C:/Renesas/e2studio_2021_01_workspace_RZA2M_ANPR/ANPR_RZA2M_GR_MANGO/src/tensorflow_lite/tensorflow/lite/kernels/internal\types.h ****     Resize(new_shape_size);
 9330              		.loc 4 308 0
 9331 2988 050052E3 		cmp	r2, #5
 9332 298c FA0000CA 		bgt	.L1525
 9333              	.LVL1352:
 9334              	.LBB1424:
 311:C:/Renesas/e2studio_2021_01_workspace_RZA2M_ANPR/ANPR_RZA2M_GR_MANGO/src/tensorflow_lite/tensorflow/lite/kernels/internal\types.h ****       SetDim(i, pad_value);
 9335              		.loc 4 311 0
 9336 2990 050072E2 		rsbs	r0, r2, #5
 9337              	.LBE1424:
 9338              	.LBB1437:
 9339              	.LBB1438:
 245:C:/Renesas/e2studio_2021_01_workspace_RZA2M_ANPR/ANPR_RZA2M_GR_MANGO/src/tensorflow_lite/tensorflow/lite/kernels/internal\types.h ****     if (dimensions_count > kMaxSmallSize) {
 9340              		.loc 4 245 0
 9341 2994 0530A0E3 		mov	r3, #5
 9342 2998 D0308DE5 		str	r3, [sp, #208]
 9343              	.LVL1353:
 9344              	.LBE1438:
 9345              	.LBE1437:
 9346              	.LBB1439:
 311:C:/Renesas/e2studio_2021_01_workspace_RZA2M_ANPR/ANPR_RZA2M_GR_MANGO/src/tensorflow_lite/tensorflow/lite/kernels/internal\types.h ****       SetDim(i, pad_value);
 9347              		.loc 4 311 0
 9348 299c 1300000A 		beq	.L485
 9349              	.LVL1354:
 9350 29a0 010050E3 		cmp	r0, #1
 9351              	.LBB1425:
 9352              	.LBB1426:
 224:C:/Renesas/e2studio_2021_01_workspace_RZA2M_ANPR/ANPR_RZA2M_GR_MANGO/src/tensorflow_lite/tensorflow/lite/kernels/internal\types.h ****     }
 9353              		.loc 4 224 0
 9354 29a4 0130A0E3 		mov	r3, #1
 9355 29a8 D4308DE5 		str	r3, [sp, #212]
 9356              	.LVL1355:
 9357              	.LBE1426:
 9358              	.LBE1425:
 311:C:/Renesas/e2studio_2021_01_workspace_RZA2M_ANPR/ANPR_RZA2M_GR_MANGO/src/tensorflow_lite/tensorflow/lite/kernels/internal\types.h ****       SetDim(i, pad_value);
 9359              		.loc 4 311 0
 9360 29ac 0F00000A 		beq	.L485
 9361              	.LVL1356:
 9362 29b0 020050E3 		cmp	r0, #2
 9363              	.LBB1432:
 9364              	.LBB1427:
 224:C:/Renesas/e2studio_2021_01_workspace_RZA2M_ANPR/ANPR_RZA2M_GR_MANGO/src/tensorflow_lite/tensorflow/lite/kernels/internal\types.h ****     }
 9365              		.loc 4 224 0
 9366 29b4 D8308DE5 		str	r3, [sp, #216]
 9367              	.LVL1357:
 9368              	.LBE1427:
 9369              	.LBE1432:
 311:C:/Renesas/e2studio_2021_01_workspace_RZA2M_ANPR/ANPR_RZA2M_GR_MANGO/src/tensorflow_lite/tensorflow/lite/kernels/internal\types.h ****       SetDim(i, pad_value);
 9370              		.loc 4 311 0
 9371 29b8 0C00000A 		beq	.L485
 9372              	.LVL1358:
 9373 29bc 030050E3 		cmp	r0, #3
 9374              	.LBB1433:
 9375              	.LBB1428:
 224:C:/Renesas/e2studio_2021_01_workspace_RZA2M_ANPR/ANPR_RZA2M_GR_MANGO/src/tensorflow_lite/tensorflow/lite/kernels/internal\types.h ****     }
 9376              		.loc 4 224 0
 9377 29c0 DC308DE5 		str	r3, [sp, #220]
 9378              	.LVL1359:
 9379              	.LBE1428:
 9380              	.LBE1433:
 311:C:/Renesas/e2studio_2021_01_workspace_RZA2M_ANPR/ANPR_RZA2M_GR_MANGO/src/tensorflow_lite/tensorflow/lite/kernels/internal\types.h ****       SetDim(i, pad_value);
 9381              		.loc 4 311 0
 9382 29c4 0900000A 		beq	.L485
 9383              	.LVL1360:
 9384 29c8 040050E3 		cmp	r0, #4
 9385              	.LBB1434:
 9386              	.LBB1429:
 224:C:/Renesas/e2studio_2021_01_workspace_RZA2M_ANPR/ANPR_RZA2M_GR_MANGO/src/tensorflow_lite/tensorflow/lite/kernels/internal\types.h ****     }
 9387              		.loc 4 224 0
 9388 29cc E0308DE5 		str	r3, [sp, #224]
 9389              	.LVL1361:
 9390              	.LBE1429:
 9391              	.LBE1434:
 311:C:/Renesas/e2studio_2021_01_workspace_RZA2M_ANPR/ANPR_RZA2M_GR_MANGO/src/tensorflow_lite/tensorflow/lite/kernels/internal\types.h ****       SetDim(i, pad_value);
 9392              		.loc 4 311 0
 9393 29d0 0600000A 		beq	.L485
 9394              	.LVL1362:
 9395 29d4 050050E3 		cmp	r0, #5
 9396              	.LBB1435:
 9397              	.LBB1430:
 224:C:/Renesas/e2studio_2021_01_workspace_RZA2M_ANPR/ANPR_RZA2M_GR_MANGO/src/tensorflow_lite/tensorflow/lite/kernels/internal\types.h ****     }
 9398              		.loc 4 224 0
 9399 29d8 E4308DE5 		str	r3, [sp, #228]
 9400              	.LVL1363:
 9401              	.LBE1430:
 9402              	.LBE1435:
 311:C:/Renesas/e2studio_2021_01_workspace_RZA2M_ANPR/ANPR_RZA2M_GR_MANGO/src/tensorflow_lite/tensorflow/lite/kernels/internal\types.h ****       SetDim(i, pad_value);
 9403              		.loc 4 311 0
 9404 29dc 0300000A 		beq	.L485
 9405              	.LVL1364:
 9406              	.LEHB63:
 9407              	.LBB1436:
 9408              	.LBB1431:
 220:C:/Renesas/e2studio_2021_01_workspace_RZA2M_ANPR/ANPR_RZA2M_GR_MANGO/src/tensorflow_lite/tensorflow/lite/kernels/internal\types.h ****     if (size_ > kMaxSmallSize) {
 9409              		.loc 4 220 0
 9410 29e0 FEFFFFEB 		bl	abort
 9411              	.LVL1365:
 9412              	.LEHE63:
 9413              	.L1487:
 9414              	.LEHB64:
 9415              	.LBE1431:
 9416              	.LBE1436:
 9417              	.LBE1439:
 9418              	.LBE1423:
 9419              	.LBE1422:
 9420              	.LBE1421:
 9421              	.LBE1420:
 9422              	.LBE1419:
 9423              	.LBB1448:
 9424              	.LBB1417:
 9425              	.LBB1415:
 9426              	.LBB1413:
 9427              	.LBB1411:
 308:C:/Renesas/e2studio_2021_01_workspace_RZA2M_ANPR/ANPR_RZA2M_GR_MANGO/src/tensorflow_lite/tensorflow/lite/kernels/internal\types.h ****     Resize(new_shape_size);
 9428              		.loc 4 308 0
 9429 29e4 FEFFFFEB 		bl	abort
 9430              	.LVL1366:
 9431              	.LEHE64:
 9432              	.L772:
 9433 29e8 04F6FFEA 		b	.L677
 9434              	.LVL1367:
 9435              	.L786:
 9436 29ec 2CF6FFEA 		b	.L654
 9437              	.LVL1368:
 9438              	.L485:
 9439              	.LBE1411:
 9440              	.LBE1413:
 9441              	.LBE1415:
 9442              	.LBE1417:
 9443              	.LBE1448:
 9444              	.LBB1449:
 9445              	.LBB1446:
 9446              	.LBB1444:
 9447              	.LBB1442:
 9448              	.LBB1440:
 9449              		.loc 4 315 0
 9450 29f0 D4308DE2 		add	r3, sp, #212
 9451 29f4 0221A0E1 		lsl	r2, r2, #2
 9452 29f8 000183E0 		add	r0, r3, r0, lsl #2
 9453              	.LVL1369:
 9454 29fc A4108DE2 		add	r1, sp, #164
 9455 2a00 FEFFFFEB 		bl	memcpy
 9456              	.LVL1370:
 9457              	.LBE1440:
 9458              	.LBE1442:
 9459              	.LBE1444:
 9460              	.LBE1446:
 9461              	.LBE1449:
  46:C:/Renesas/e2studio_2021_01_workspace_RZA2M_ANPR/ANPR_RZA2M_GR_MANGO/src/tensorflow_lite/tensorflow/lite/kernels/internal/reference\pad.h ****   TFLITE_DCHECK_LE(op_params.right_padding_count, PadKernelMaxDimensionCount());
 9462              		.loc 6 46 0
 9463 2a04 D020D5E1 		ldrsb	r2, [r5]
 9464 2a08 050052E3 		cmp	r2, #5
 9465 2a0c D90000CA 		bgt	.L1526
  47:C:/Renesas/e2studio_2021_01_workspace_RZA2M_ANPR/ANPR_RZA2M_GR_MANGO/src/tensorflow_lite/tensorflow/lite/kernels/internal/reference\pad.h **** 
 9466              		.loc 6 47 0
 9467 2a10 D841D5E1 		ldrsb	r4, [r5, #24]
 9468 2a14 050054E3 		cmp	r4, #5
 9469 2a18 D50000CA 		bgt	.L487
 9470              	.LVL1371:
 9471              	.LBB1450:
  55:C:/Renesas/e2studio_2021_01_workspace_RZA2M_ANPR/ANPR_RZA2M_GR_MANGO/src/tensorflow_lite/tensorflow/lite/kernels/internal/reference\pad.h ****     left_padding_copy[i + PadKernelMaxDimensionCount() -
 9472              		.loc 6 55 0
 9473 2a1c 000052E3 		cmp	r2, #0
 9474              	.LBE1450:
 9475              	.LBB1451:
  53:C:/Renesas/e2studio_2021_01_workspace_RZA2M_ANPR/ANPR_RZA2M_GR_MANGO/src/tensorflow_lite/tensorflow/lite/kernels/internal/reference\pad.h ****   }
 9476              		.loc 6 53 0
 9477 2a20 0030A0E3 		mov	r3, #0
 9478 2a24 60308DE5 		str	r3, [sp, #96]
 9479              	.LVL1372:
 9480 2a28 64308DE5 		str	r3, [sp, #100]
 9481              	.LVL1373:
 9482 2a2c 68308DE5 		str	r3, [sp, #104]
 9483              	.LVL1374:
 9484 2a30 6C308DE5 		str	r3, [sp, #108]
 9485              	.LVL1375:
 9486 2a34 70308DE5 		str	r3, [sp, #112]
 9487              	.LVL1376:
 9488              	.LBE1451:
 9489              	.LBB1452:
  55:C:/Renesas/e2studio_2021_01_workspace_RZA2M_ANPR/ANPR_RZA2M_GR_MANGO/src/tensorflow_lite/tensorflow/lite/kernels/internal/reference\pad.h ****     left_padding_copy[i + PadKernelMaxDimensionCount() -
 9490              		.loc 6 55 0
 9491 2a38 050000DA 		ble	.L488
  56:C:/Renesas/e2studio_2021_01_workspace_RZA2M_ANPR/ANPR_RZA2M_GR_MANGO/src/tensorflow_lite/tensorflow/lite/kernels/internal/reference\pad.h ****                       op_params.left_padding_count] = op_params.left_padding[i];
 9492              		.loc 6 56 0
 9493 2a3c E8308DE2 		add	r3, sp, #232
 9494 2a40 041085E2 		add	r1, r5, #4
 9495 2a44 020143E0 		sub	r0, r3, r2, lsl #2
 9496 2a48 0221A0E1 		lsl	r2, r2, #2
 9497 2a4c 740040E2 		sub	r0, r0, #116
 9498 2a50 FEFFFFEB 		bl	memcpy
 9499              	.LVL1377:
 9500              	.L488:
 9501              	.LBE1452:
 9502              	.LBB1453:
  63:C:/Renesas/e2studio_2021_01_workspace_RZA2M_ANPR/ANPR_RZA2M_GR_MANGO/src/tensorflow_lite/tensorflow/lite/kernels/internal/reference\pad.h ****     right_padding_copy[i + PadKernelMaxDimensionCount() -
 9503              		.loc 6 63 0
 9504 2a54 000054E3 		cmp	r4, #0
 9505              	.LBE1453:
 9506              	.LBB1454:
  61:C:/Renesas/e2studio_2021_01_workspace_RZA2M_ANPR/ANPR_RZA2M_GR_MANGO/src/tensorflow_lite/tensorflow/lite/kernels/internal/reference\pad.h ****   }
 9507              		.loc 6 61 0
 9508 2a58 0030A0E3 		mov	r3, #0
 9509 2a5c 74308DE5 		str	r3, [sp, #116]
 9510              	.LVL1378:
 9511 2a60 78308DE5 		str	r3, [sp, #120]
 9512              	.LVL1379:
 9513 2a64 7C308DE5 		str	r3, [sp, #124]
 9514              	.LVL1380:
 9515 2a68 80308DE5 		str	r3, [sp, #128]
 9516              	.LVL1381:
 9517 2a6c 84308DE5 		str	r3, [sp, #132]
 9518              	.LVL1382:
 9519              	.LBE1454:
 9520              	.LBB1455:
  63:C:/Renesas/e2studio_2021_01_workspace_RZA2M_ANPR/ANPR_RZA2M_GR_MANGO/src/tensorflow_lite/tensorflow/lite/kernels/internal/reference\pad.h ****     right_padding_copy[i + PadKernelMaxDimensionCount() -
 9521              		.loc 6 63 0
 9522 2a70 050000DA 		ble	.L495
  64:C:/Renesas/e2studio_2021_01_workspace_RZA2M_ANPR/ANPR_RZA2M_GR_MANGO/src/tensorflow_lite/tensorflow/lite/kernels/internal/reference\pad.h ****                        op_params.right_padding_count] =
 9523              		.loc 6 64 0
 9524 2a74 E8308DE2 		add	r3, sp, #232
 9525 2a78 1C1085E2 		add	r1, r5, #28
 9526 2a7c 040143E0 		sub	r0, r3, r4, lsl #2
 9527 2a80 0421A0E1 		lsl	r2, r4, #2
 9528 2a84 600040E2 		sub	r0, r0, #96
 9529 2a88 FEFFFFEB 		bl	memcpy
 9530              	.LVL1383:
 9531              	.L495:
 9532              	.LBE1455:
 9533              	.LBB1456:
 9534              	.LBB1457:
 215:C:/Renesas/e2studio_2021_01_workspace_RZA2M_ANPR/ANPR_RZA2M_GR_MANGO/src/tensorflow_lite/tensorflow/lite/kernels/internal\types.h ****     return size_ > kMaxSmallSize ? dims_pointer_[i] : dims_[i];
 9535              		.loc 4 215 0
 9536 2a8c D0309DE5 		ldr	r3, [sp, #208]
 9537 2a90 000053E3 		cmp	r3, #0
 9538 2a94 20308DE5 		str	r3, [sp, #32]
 9539 2a98 DF0000DA 		ble	.L1527
 216:C:/Renesas/e2studio_2021_01_workspace_RZA2M_ANPR/ANPR_RZA2M_GR_MANGO/src/tensorflow_lite/tensorflow/lite/kernels/internal\types.h ****   }
 9540              		.loc 4 216 0
 9541 2a9c 050053E3 		cmp	r3, #5
 9542 2aa0 BD0000CA 		bgt	.L1528
 9543              	.LBE1457:
 9544              	.LBE1456:
 9545              	.LBB1463:
 9546              	.LBB1464:
 215:C:/Renesas/e2studio_2021_01_workspace_RZA2M_ANPR/ANPR_RZA2M_GR_MANGO/src/tensorflow_lite/tensorflow/lite/kernels/internal\types.h ****     return size_ > kMaxSmallSize ? dims_pointer_[i] : dims_[i];
 9547              		.loc 4 215 0
 9548 2aa4 010053E3 		cmp	r3, #1
 9549              	.LBE1464:
 9550              	.LBE1463:
 9551              	.LBB1471:
 9552              	.LBB1458:
 216:C:/Renesas/e2studio_2021_01_workspace_RZA2M_ANPR/ANPR_RZA2M_GR_MANGO/src/tensorflow_lite/tensorflow/lite/kernels/internal\types.h ****   }
 9553              		.loc 4 216 0
 9554 2aa8 D4309DE5 		ldr	r3, [sp, #212]
 9555 2aac 24308DE5 		str	r3, [sp, #36]
 9556              	.LVL1384:
 9557              	.LBE1458:
 9558              	.LBE1471:
 9559              	.LBB1472:
 9560              	.LBB1465:
 215:C:/Renesas/e2studio_2021_01_workspace_RZA2M_ANPR/ANPR_RZA2M_GR_MANGO/src/tensorflow_lite/tensorflow/lite/kernels/internal\types.h ****     return size_ > kMaxSmallSize ? dims_pointer_[i] : dims_[i];
 9561              		.loc 4 215 0
 9562 2ab0 B800000A 		beq	.L1529
 9563              	.LBE1465:
 9564              	.LBE1472:
 9565              	.LBB1473:
 9566              	.LBB1474:
 9567 2ab4 20309DE5 		ldr	r3, [sp, #32]
 9568              	.LBE1474:
 9569              	.LBE1473:
 9570              	.LBB1481:
 9571              	.LBB1466:
 216:C:/Renesas/e2studio_2021_01_workspace_RZA2M_ANPR/ANPR_RZA2M_GR_MANGO/src/tensorflow_lite/tensorflow/lite/kernels/internal\types.h ****   }
 9572              		.loc 4 216 0
 9573 2ab8 D8209DE5 		ldr	r2, [sp, #216]
 9574              	.LBE1466:
 9575              	.LBE1481:
 9576              	.LBB1482:
 9577              	.LBB1475:
 215:C:/Renesas/e2studio_2021_01_workspace_RZA2M_ANPR/ANPR_RZA2M_GR_MANGO/src/tensorflow_lite/tensorflow/lite/kernels/internal\types.h ****     return size_ > kMaxSmallSize ? dims_pointer_[i] : dims_[i];
 9578              		.loc 4 215 0
 9579 2abc 020053E3 		cmp	r3, #2
 9580              	.LBE1475:
 9581              	.LBE1482:
 9582              	.LBB1483:
 9583              	.LBB1467:
 216:C:/Renesas/e2studio_2021_01_workspace_RZA2M_ANPR/ANPR_RZA2M_GR_MANGO/src/tensorflow_lite/tensorflow/lite/kernels/internal\types.h ****   }
 9584              		.loc 4 216 0
 9585 2ac0 1C208DE5 		str	r2, [sp, #28]
 9586              	.LVL1385:
 9587              	.LBE1467:
 9588              	.LBE1483:
 9589              	.LBB1484:
 9590              	.LBB1476:
 215:C:/Renesas/e2studio_2021_01_workspace_RZA2M_ANPR/ANPR_RZA2M_GR_MANGO/src/tensorflow_lite/tensorflow/lite/kernels/internal\types.h ****     return size_ > kMaxSmallSize ? dims_pointer_[i] : dims_[i];
 9591              		.loc 4 215 0
 9592 2ac4 B200000A 		beq	.L705
 216:C:/Renesas/e2studio_2021_01_workspace_RZA2M_ANPR/ANPR_RZA2M_GR_MANGO/src/tensorflow_lite/tensorflow/lite/kernels/internal\types.h ****   }
 9593              		.loc 4 216 0
 9594 2ac8 DC209DE5 		ldr	r2, [sp, #220]
 9595              	.LBE1476:
 9596              	.LBE1484:
 9597              	.LBB1485:
 9598              	.LBB1486:
 215:C:/Renesas/e2studio_2021_01_workspace_RZA2M_ANPR/ANPR_RZA2M_GR_MANGO/src/tensorflow_lite/tensorflow/lite/kernels/internal\types.h ****     return size_ > kMaxSmallSize ? dims_pointer_[i] : dims_[i];
 9599              		.loc 4 215 0
 9600 2acc 030053E3 		cmp	r3, #3
 9601              	.LBE1486:
 9602              	.LBE1485:
 9603              	.LBB1491:
 9604              	.LBB1477:
 216:C:/Renesas/e2studio_2021_01_workspace_RZA2M_ANPR/ANPR_RZA2M_GR_MANGO/src/tensorflow_lite/tensorflow/lite/kernels/internal\types.h ****   }
 9605              		.loc 4 216 0
 9606 2ad0 10208DE5 		str	r2, [sp, #16]
 9607              	.LVL1386:
 9608              	.LBE1477:
 9609              	.LBE1491:
 9610              	.LBB1492:
 9611              	.LBB1487:
 215:C:/Renesas/e2studio_2021_01_workspace_RZA2M_ANPR/ANPR_RZA2M_GR_MANGO/src/tensorflow_lite/tensorflow/lite/kernels/internal\types.h ****     return size_ > kMaxSmallSize ? dims_pointer_[i] : dims_[i];
 9612              		.loc 4 215 0
 9613 2ad4 AC00000A 		beq	.L706
 9614              	.LBE1487:
 9615              	.LBE1492:
 9616              	.LBB1493:
 9617              	.LBB1494:
 9618 2ad8 040053E3 		cmp	r3, #4
 9619              	.LBE1494:
 9620              	.LBE1493:
 9621              	.LBB1499:
 9622              	.LBB1488:
 216:C:/Renesas/e2studio_2021_01_workspace_RZA2M_ANPR/ANPR_RZA2M_GR_MANGO/src/tensorflow_lite/tensorflow/lite/kernels/internal\types.h ****   }
 9623              		.loc 4 216 0
 9624 2adc E0909DE5 		ldr	r9, [sp, #224]
 9625              	.LVL1387:
 9626              	.LBE1488:
 9627              	.LBE1499:
 9628              	.LBB1500:
 9629              	.LBB1495:
 215:C:/Renesas/e2studio_2021_01_workspace_RZA2M_ANPR/ANPR_RZA2M_GR_MANGO/src/tensorflow_lite/tensorflow/lite/kernels/internal\types.h ****     return size_ > kMaxSmallSize ? dims_pointer_[i] : dims_[i];
 9630              		.loc 4 215 0
 9631 2ae0 A800000A 		beq	.L1530
 9632              	.LBE1495:
 9633              	.LBE1500:
  75:C:/Renesas/e2studio_2021_01_workspace_RZA2M_ANPR/ANPR_RZA2M_GR_MANGO/src/tensorflow_lite/tensorflow/lite/kernels/internal/reference\pad.h ****   const int left_p_padding = left_padding_copy[1];
 9634              		.loc 6 75 0
 9635 2ae4 60309DE5 		ldr	r3, [sp, #96]
 9636              	.LBB1501:
  91:C:/Renesas/e2studio_2021_01_workspace_RZA2M_ANPR/ANPR_RZA2M_GR_MANGO/src/tensorflow_lite/tensorflow/lite/kernels/internal/reference\pad.h ****     for (int out_p = 0; out_p < output_plane; ++out_p) {
 9637              		.loc 6 91 0
 9638 2ae8 24209DE5 		ldr	r2, [sp, #36]
 9639              	.LBE1501:
 9640              	.LBB1518:
 9641              	.LBB1496:
 216:C:/Renesas/e2studio_2021_01_workspace_RZA2M_ANPR/ANPR_RZA2M_GR_MANGO/src/tensorflow_lite/tensorflow/lite/kernels/internal\types.h ****   }
 9642              		.loc 4 216 0
 9643 2aec E4B09DE5 		ldr	fp, [sp, #228]
 9644              	.LVL1388:
 9645              	.LBE1496:
 9646              	.LBE1518:
  75:C:/Renesas/e2studio_2021_01_workspace_RZA2M_ANPR/ANPR_RZA2M_GR_MANGO/src/tensorflow_lite/tensorflow/lite/kernels/internal/reference\pad.h ****   const int left_p_padding = left_padding_copy[1];
 9647              		.loc 6 75 0
 9648 2af0 08308DE5 		str	r3, [sp, #8]
 9649              	.LVL1389:
  76:C:/Renesas/e2studio_2021_01_workspace_RZA2M_ANPR/ANPR_RZA2M_GR_MANGO/src/tensorflow_lite/tensorflow/lite/kernels/internal/reference\pad.h ****   const int left_h_padding = left_padding_copy[2];
 9650              		.loc 6 76 0
 9651 2af4 64309DE5 		ldr	r3, [sp, #100]
 9652              	.LVL1390:
 9653              	.LBB1519:
  91:C:/Renesas/e2studio_2021_01_workspace_RZA2M_ANPR/ANPR_RZA2M_GR_MANGO/src/tensorflow_lite/tensorflow/lite/kernels/internal/reference\pad.h ****     for (int out_p = 0; out_p < output_plane; ++out_p) {
 9654              		.loc 6 91 0
 9655 2af8 000052E3 		cmp	r2, #0
 9656              	.LBE1519:
  76:C:/Renesas/e2studio_2021_01_workspace_RZA2M_ANPR/ANPR_RZA2M_GR_MANGO/src/tensorflow_lite/tensorflow/lite/kernels/internal/reference\pad.h ****   const int left_h_padding = left_padding_copy[2];
 9657              		.loc 6 76 0
 9658 2afc 3C308DE5 		str	r3, [sp, #60]
 9659              	.LVL1391:
  77:C:/Renesas/e2studio_2021_01_workspace_RZA2M_ANPR/ANPR_RZA2M_GR_MANGO/src/tensorflow_lite/tensorflow/lite/kernels/internal/reference\pad.h ****   const int left_w_padding = left_padding_copy[3];
 9660              		.loc 6 77 0
 9661 2b00 68309DE5 		ldr	r3, [sp, #104]
 9662              	.LVL1392:
 9663 2b04 30308DE5 		str	r3, [sp, #48]
 9664              	.LVL1393:
  78:C:/Renesas/e2studio_2021_01_workspace_RZA2M_ANPR/ANPR_RZA2M_GR_MANGO/src/tensorflow_lite/tensorflow/lite/kernels/internal/reference\pad.h ****   const int left_d_padding = left_padding_copy[4];
 9665              		.loc 6 78 0
 9666 2b08 6C309DE5 		ldr	r3, [sp, #108]
 9667              	.LVL1394:
 9668 2b0c 04308DE5 		str	r3, [sp, #4]
 9669              	.LVL1395:
  79:C:/Renesas/e2studio_2021_01_workspace_RZA2M_ANPR/ANPR_RZA2M_GR_MANGO/src/tensorflow_lite/tensorflow/lite/kernels/internal/reference\pad.h **** 
 9670              		.loc 6 79 0
 9671 2b10 70309DE5 		ldr	r3, [sp, #112]
 9672              	.LVL1396:
 9673 2b14 40308DE5 		str	r3, [sp, #64]
 9674              	.LVL1397:
  81:C:/Renesas/e2studio_2021_01_workspace_RZA2M_ANPR/ANPR_RZA2M_GR_MANGO/src/tensorflow_lite/tensorflow/lite/kernels/internal/reference\pad.h ****   const int right_p_padding = right_padding_copy[1];
 9675              		.loc 6 81 0
 9676 2b18 74309DE5 		ldr	r3, [sp, #116]
 9677              	.LVL1398:
 9678 2b1c 34308DE5 		str	r3, [sp, #52]
 9679              	.LVL1399:
  82:C:/Renesas/e2studio_2021_01_workspace_RZA2M_ANPR/ANPR_RZA2M_GR_MANGO/src/tensorflow_lite/tensorflow/lite/kernels/internal/reference\pad.h ****   const int right_h_padding = right_padding_copy[2];
 9680              		.loc 6 82 0
 9681 2b20 78309DE5 		ldr	r3, [sp, #120]
 9682              	.LVL1400:
 9683 2b24 28308DE5 		str	r3, [sp, #40]
 9684              	.LVL1401:
  83:C:/Renesas/e2studio_2021_01_workspace_RZA2M_ANPR/ANPR_RZA2M_GR_MANGO/src/tensorflow_lite/tensorflow/lite/kernels/internal/reference\pad.h ****   const int right_w_padding = right_padding_copy[3];
 9685              		.loc 6 83 0
 9686 2b28 7C309DE5 		ldr	r3, [sp, #124]
 9687              	.LVL1402:
 9688 2b2c 2C308DE5 		str	r3, [sp, #44]
 9689              	.LVL1403:
  84:C:/Renesas/e2studio_2021_01_workspace_RZA2M_ANPR/ANPR_RZA2M_GR_MANGO/src/tensorflow_lite/tensorflow/lite/kernels/internal/reference\pad.h ****   const int right_d_padding = right_padding_copy[4];
 9690              		.loc 6 84 0
 9691 2b30 80309DE5 		ldr	r3, [sp, #128]
 9692              	.LVL1404:
 9693 2b34 38308DE5 		str	r3, [sp, #56]
 9694              	.LVL1405:
  85:C:/Renesas/e2studio_2021_01_workspace_RZA2M_ANPR/ANPR_RZA2M_GR_MANGO/src/tensorflow_lite/tensorflow/lite/kernels/internal/reference\pad.h **** 
 9695              		.loc 6 85 0
 9696 2b38 84309DE5 		ldr	r3, [sp, #132]
 9697              	.LVL1406:
 9698              	.LBB1520:
  91:C:/Renesas/e2studio_2021_01_workspace_RZA2M_ANPR/ANPR_RZA2M_GR_MANGO/src/tensorflow_lite/tensorflow/lite/kernels/internal/reference\pad.h ****     for (int out_p = 0; out_p < output_plane; ++out_p) {
 9699              		.loc 6 91 0
 9700 2b3c ABF6FFDA 		ble	.L609
 9701 2b40 44208DE5 		str	r2, [sp, #68]
 9702              	.L498:
 9703 2b44 1C209DE5 		ldr	r2, [sp, #28]
 9704 2b48 000052E3 		cmp	r2, #0
 9705 2b4c 6D0000DA 		ble	.L501
 9706              	.LBB1502:
 9707              	.LBB1503:
 9708              	.LBB1504:
 9709              	.LBB1505:
 105:C:/Renesas/e2studio_2021_01_workspace_RZA2M_ANPR/ANPR_RZA2M_GR_MANGO/src/tensorflow_lite/tensorflow/lite/kernels/internal/reference\pad.h ****               *out_ptr++ = pad_value;
 9710              		.loc 6 105 0
 9711 2b50 03304BE0 		sub	r3, fp, r3
 9712              	.LVL1407:
 9713              	.LBE1505:
 9714              	.LBE1504:
 9715              	.LBE1503:
 9716              	.LBE1502:
  91:C:/Renesas/e2studio_2021_01_workspace_RZA2M_ANPR/ANPR_RZA2M_GR_MANGO/src/tensorflow_lite/tensorflow/lite/kernels/internal/reference\pad.h ****     for (int out_p = 0; out_p < output_plane; ++out_p) {
 9717              		.loc 6 91 0
 9718 2b54 0080A0E3 		mov	r8, #0
 9719              	.LVL1408:
 9720              	.LBB1515:
 9721              	.LBB1512:
 9722              	.LBB1509:
 9723              	.LBB1506:
 105:C:/Renesas/e2studio_2021_01_workspace_RZA2M_ANPR/ANPR_RZA2M_GR_MANGO/src/tensorflow_lite/tensorflow/lite/kernels/internal/reference\pad.h ****               *out_ptr++ = pad_value;
 9724              		.loc 6 105 0
 9725 2b58 4C308DE5 		str	r3, [sp, #76]
 9726              	.LBE1506:
 9727              	.LBE1509:
 9728              	.LBE1512:
 9729              	.LBE1515:
  91:C:/Renesas/e2studio_2021_01_workspace_RZA2M_ANPR/ANPR_RZA2M_GR_MANGO/src/tensorflow_lite/tensorflow/lite/kernels/internal/reference\pad.h ****     for (int out_p = 0; out_p < output_plane; ++out_p) {
 9730              		.loc 6 91 0
 9731 2b5c 0630A0E1 		mov	r3, r6
 9732 2b60 0860A0E1 		mov	r6, r8
 9733              	.LVL1409:
 9734 2b64 0380A0E1 		mov	r8, r3
 9735              	.LVL1410:
 9736              	.L516:
 9737 2b68 0030A0E3 		mov	r3, #0
 9738 2b6c 18308DE5 		str	r3, [sp, #24]
 9739              	.LVL1411:
 9740              	.L515:
 9741              	.LBB1516:
 9742              	.LBB1513:
  93:C:/Renesas/e2studio_2021_01_workspace_RZA2M_ANPR/ANPR_RZA2M_GR_MANGO/src/tensorflow_lite/tensorflow/lite/kernels/internal/reference\pad.h ****         for (int out_w = 0; out_w < output_width; ++out_w) {
 9743              		.loc 6 93 0
 9744 2b70 10309DE5 		ldr	r3, [sp, #16]
 9745 2b74 000053E3 		cmp	r3, #0
 9746 2b78 580000DA 		ble	.L502
 9747              	.LBB1510:
 9748              	.LBB1507:
  97:C:/Renesas/e2studio_2021_01_workspace_RZA2M_ANPR/ANPR_RZA2M_GR_MANGO/src/tensorflow_lite/tensorflow/lite/kernels/internal/reference\pad.h ****                 out_p < left_p_padding ||
 9749              		.loc 6 97 0
 9750 2b7c 24309DE5 		ldr	r3, [sp, #36]
  96:C:/Renesas/e2studio_2021_01_workspace_RZA2M_ANPR/ANPR_RZA2M_GR_MANGO/src/tensorflow_lite/tensorflow/lite/kernels/internal/reference\pad.h ****                 out_b >= output_batch - right_b_padding ||
 9751              		.loc 6 96 0
 9752 2b80 0050A0E3 		mov	r5, #0
  97:C:/Renesas/e2studio_2021_01_workspace_RZA2M_ANPR/ANPR_RZA2M_GR_MANGO/src/tensorflow_lite/tensorflow/lite/kernels/internal/reference\pad.h ****                 out_p < left_p_padding ||
 9753              		.loc 6 97 0
 9754 2b84 34209DE5 		ldr	r2, [sp, #52]
 9755 2b88 3C109DE5 		ldr	r1, [sp, #60]
 9756 2b8c 022043E0 		sub	r2, r3, r2
 9757 2b90 18309DE5 		ldr	r3, [sp, #24]
 9758 2b94 010053E1 		cmp	r3, r1
 9759 2b98 060052A1 		cmpge	r2, r6
 9760 2b9c 0130A0D3 		movle	r3, #1
 9761 2ba0 0030A0C3 		movgt	r3, #0
 9762 2ba4 0C308DE5 		str	r3, [sp, #12]
 9763 2ba8 0830A0E1 		mov	r3, r8
 9764 2bac 0680A0E1 		mov	r8, r6
 9765              	.LVL1412:
 9766 2bb0 0360A0E1 		mov	r6, r3
 9767              	.LVL1413:
 9768              	.L514:
 9769              	.LBE1507:
  94:C:/Renesas/e2studio_2021_01_workspace_RZA2M_ANPR/ANPR_RZA2M_GR_MANGO/src/tensorflow_lite/tensorflow/lite/kernels/internal/reference\pad.h ****           for (int out_d = 0; out_d < output_depth; ++out_d) {
 9770              		.loc 6 94 0
 9771 2bb4 000059E3 		cmp	r9, #0
 9772 2bb8 410000DA 		ble	.L503
 9773              	.LBB1508:
  99:C:/Renesas/e2studio_2021_01_workspace_RZA2M_ANPR/ANPR_RZA2M_GR_MANGO/src/tensorflow_lite/tensorflow/lite/kernels/internal/reference\pad.h ****                 out_h < left_h_padding ||
 9774              		.loc 6 99 0
 9775 2bbc 1C309DE5 		ldr	r3, [sp, #28]
  98:C:/Renesas/e2studio_2021_01_workspace_RZA2M_ANPR/ANPR_RZA2M_GR_MANGO/src/tensorflow_lite/tensorflow/lite/kernels/internal/reference\pad.h ****                 out_p >= output_plane - right_p_padding ||
 9776              		.loc 6 98 0
 9777 2bc0 0040A0E3 		mov	r4, #0
  99:C:/Renesas/e2studio_2021_01_workspace_RZA2M_ANPR/ANPR_RZA2M_GR_MANGO/src/tensorflow_lite/tensorflow/lite/kernels/internal/reference\pad.h ****                 out_h < left_h_padding ||
 9778              		.loc 6 99 0
 9779 2bc4 28209DE5 		ldr	r2, [sp, #40]
 9780 2bc8 30109DE5 		ldr	r1, [sp, #48]
 9781 2bcc 022043E0 		sub	r2, r3, r2
 9782 2bd0 18309DE5 		ldr	r3, [sp, #24]
 9783 2bd4 010055E1 		cmp	r5, r1
 9784 2bd8 030052A1 		cmpge	r2, r3
 101:C:/Renesas/e2studio_2021_01_workspace_RZA2M_ANPR/ANPR_RZA2M_GR_MANGO/src/tensorflow_lite/tensorflow/lite/kernels/internal/reference\pad.h ****                 out_w < left_w_padding ||
 9785              		.loc 6 101 0
 9786 2bdc 2C209DE5 		ldr	r2, [sp, #44]
 9787 2be0 0130A0D3 		movle	r3, #1
 9788 2be4 0030A0C3 		movgt	r3, #0
 9789 2be8 14308DE5 		str	r3, [sp, #20]
 9790 2bec 10309DE5 		ldr	r3, [sp, #16]
 9791 2bf0 027043E0 		sub	r7, r3, r2
 9792 2bf4 0730A0E1 		mov	r3, r7
 9793 2bf8 0670A0E1 		mov	r7, r6
 9794 2bfc 0360A0E1 		mov	r6, r3
 9795              	.LVL1414:
 9796              	.L513:
  95:C:/Renesas/e2studio_2021_01_workspace_RZA2M_ANPR/ANPR_RZA2M_GR_MANGO/src/tensorflow_lite/tensorflow/lite/kernels/internal/reference\pad.h ****             if (out_b < left_b_padding ||
 9797              		.loc 6 95 0
 9798 2c00 00005BE3 		cmp	fp, #0
 9799 2c04 2A0000DA 		ble	.L504
 9800 2c08 04309DE5 		ldr	r3, [sp, #4]
 9801 2c0c 030054E1 		cmp	r4, r3
 9802 2c10 050056A1 		cmpge	r6, r5
 9803 2c14 08309DE5 		ldr	r3, [sp, #8]
 9804 2c18 0120A0D3 		movle	r2, #1
 9805 2c1c 0020A0C3 		movgt	r2, #0
 9806 2c20 030058E1 		cmp	r8, r3
 9807 2c24 1D0000BA 		blt	.L505
 9808 2c28 0C309DE5 		ldr	r3, [sp, #12]
 9809 2c2c 000053E3 		cmp	r3, #0
 9810 2c30 3B00001A 		bne	.L506
 9811 2c34 000052E3 		cmp	r2, #0
 9812 2c38 14309DE5 		ldr	r3, [sp, #20]
 9813 2c3c 4100001A 		bne	.L507
 9814 2c40 000053E3 		cmp	r3, #0
 9815 2c44 3600001A 		bne	.L506
 100:C:/Renesas/e2studio_2021_01_workspace_RZA2M_ANPR/ANPR_RZA2M_GR_MANGO/src/tensorflow_lite/tensorflow/lite/kernels/internal/reference\pad.h ****                 out_h >= output_height - right_h_padding ||
 9816              		.loc 6 100 0
 9817 2c48 0320A0E1 		mov	r2, r3
 9818 2c4c 38309DE5 		ldr	r3, [sp, #56]
 9819 2c50 011087E2 		add	r1, r7, #1
 9820 2c54 40009DE5 		ldr	r0, [sp, #64]
 9821 2c58 48E09DE5 		ldr	lr, [sp, #72]
 9822 2c5c 03C049E0 		sub	ip, r9, r3
 9823 2c60 090000EA 		b	.L510
 9824              	.LVL1415:
 9825              	.L1532:
 104:C:/Renesas/e2studio_2021_01_workspace_RZA2M_ANPR/ANPR_RZA2M_GR_MANGO/src/tensorflow_lite/tensorflow/lite/kernels/internal/reference\pad.h ****                 out_d >= output_depth - right_d_padding) {
 9826              		.loc 6 104 0
 9827 2c64 4C309DE5 		ldr	r3, [sp, #76]
 9828 2c68 030052E1 		cmp	r2, r3
 9829 2c6c 090000AA 		bge	.L747
 9830              	.LVL1416:
 9831              		.loc 6 108 0
 9832 2c70 D030DEE1 		ldrsb	r3, [lr]
 9833 2c74 01E08EE2 		add	lr, lr, #1
 9834              	.LVL1417:
 9835              	.L509:
  95:C:/Renesas/e2studio_2021_01_workspace_RZA2M_ANPR/ANPR_RZA2M_GR_MANGO/src/tensorflow_lite/tensorflow/lite/kernels/internal/reference\pad.h ****             if (out_b < left_b_padding ||
 9836              		.loc 6 95 0
 9837 2c78 012082E2 		add	r2, r2, #1
 9838              	.LVL1418:
 9839 2c7c 013041E5 		strb	r3, [r1, #-1]
 9840              	.LVL1419:
 9841 2c80 02005BE1 		cmp	fp, r2
 9842 2c84 011081E2 		add	r1, r1, #1
 9843 2c88 3300000A 		beq	.L1531
 9844              	.LVL1420:
 9845              	.L510:
 103:C:/Renesas/e2studio_2021_01_workspace_RZA2M_ANPR/ANPR_RZA2M_GR_MANGO/src/tensorflow_lite/tensorflow/lite/kernels/internal/reference\pad.h ****                 out_d < left_d_padding ||
 9846              		.loc 6 103 0
 9847 2c8c 020050E1 		cmp	r0, r2
 9848 2c90 0C0054D1 		cmple	r4, ip
 9849 2c94 F2FFFFBA 		blt	.L1532
 9850              	.L747:
 106:C:/Renesas/e2studio_2021_01_workspace_RZA2M_ANPR/ANPR_RZA2M_GR_MANGO/src/tensorflow_lite/tensorflow/lite/kernels/internal/reference\pad.h ****             } else {
 9851              		.loc 6 106 0
 9852 2c98 0A30A0E1 		mov	r3, r10
 9853 2c9c F5FFFFEA 		b	.L509
 9854              	.LVL1421:
 9855              	.L505:
 9856 2ca0 0700A0E1 		mov	r0, r7
 9857 2ca4 0B20A0E1 		mov	r2, fp
 9858 2ca8 0B7087E0 		add	r7, r7, fp
 9859              	.LVL1422:
 9860 2cac 0A10A0E1 		mov	r1, r10
 9861              	.L1317:
 9862 2cb0 FEFFFFEB 		bl	memset
 9863              	.LVL1423:
 9864              	.L504:
 9865              	.LBE1508:
  94:C:/Renesas/e2studio_2021_01_workspace_RZA2M_ANPR/ANPR_RZA2M_GR_MANGO/src/tensorflow_lite/tensorflow/lite/kernels/internal/reference\pad.h ****           for (int out_d = 0; out_d < output_depth; ++out_d) {
 9866              		.loc 6 94 0
 9867 2cb4 014084E2 		add	r4, r4, #1
 9868              	.LVL1424:
 9869 2cb8 090054E1 		cmp	r4, r9
 9870 2cbc CFFFFF1A 		bne	.L513
 9871              	.LVL1425:
 9872              	.L1533:
 9873 2cc0 0760A0E1 		mov	r6, r7
 9874              	.LVL1426:
 9875              	.L503:
 9876              	.LBE1510:
  93:C:/Renesas/e2studio_2021_01_workspace_RZA2M_ANPR/ANPR_RZA2M_GR_MANGO/src/tensorflow_lite/tensorflow/lite/kernels/internal/reference\pad.h ****         for (int out_w = 0; out_w < output_width; ++out_w) {
 9877              		.loc 6 93 0
 9878 2cc4 10309DE5 		ldr	r3, [sp, #16]
 9879 2cc8 015085E2 		add	r5, r5, #1
 9880              	.LVL1427:
 9881 2ccc 030055E1 		cmp	r5, r3
 9882 2cd0 B7FFFF1A 		bne	.L514
 9883 2cd4 0630A0E1 		mov	r3, r6
 9884 2cd8 0860A0E1 		mov	r6, r8
 9885              	.LVL1428:
 9886 2cdc 0380A0E1 		mov	r8, r3
 9887              	.LVL1429:
 9888              	.L502:
 9889              	.LBE1513:
  92:C:/Renesas/e2studio_2021_01_workspace_RZA2M_ANPR/ANPR_RZA2M_GR_MANGO/src/tensorflow_lite/tensorflow/lite/kernels/internal/reference\pad.h ****       for (int out_h = 0; out_h < output_height; ++out_h) {
 9890              		.loc 6 92 0
 9891 2ce0 18309DE5 		ldr	r3, [sp, #24]
 9892 2ce4 1C209DE5 		ldr	r2, [sp, #28]
 9893 2ce8 013083E2 		add	r3, r3, #1
 9894 2cec 020053E1 		cmp	r3, r2
 9895 2cf0 18308DE5 		str	r3, [sp, #24]
 9896              	.LVL1430:
 9897 2cf4 9DFFFF1A 		bne	.L515
 9898              	.LBE1516:
  91:C:/Renesas/e2studio_2021_01_workspace_RZA2M_ANPR/ANPR_RZA2M_GR_MANGO/src/tensorflow_lite/tensorflow/lite/kernels/internal/reference\pad.h ****     for (int out_p = 0; out_p < output_plane; ++out_p) {
 9899              		.loc 6 91 0
 9900 2cf8 24309DE5 		ldr	r3, [sp, #36]
 9901              	.LVL1431:
 9902 2cfc 016086E2 		add	r6, r6, #1
 9903              	.LVL1432:
 9904 2d00 030056E1 		cmp	r6, r3
 9905 2d04 97FFFFBA 		blt	.L516
 9906              	.LVL1433:
 9907              	.L501:
 9908              	.LBE1520:
 9909              	.LBB1521:
 9910              	.LBB1522:
 203:C:/Renesas/e2studio_2021_01_workspace_RZA2M_ANPR/ANPR_RZA2M_GR_MANGO/src/tensorflow_lite/tensorflow/lite/kernels/internal\types.h **** #ifdef TF_LITE_STATIC_MEMORY
 9911              		.loc 4 203 0
 9912 2d08 20309DE5 		ldr	r3, [sp, #32]
 9913 2d0c 050053E3 		cmp	r3, #5
 9914 2d10 36F6FF0A 		beq	.L609
 9915              	.LVL1434:
 9916              	.L497:
 207:C:/Renesas/e2studio_2021_01_workspace_RZA2M_ANPR/ANPR_RZA2M_GR_MANGO/src/tensorflow_lite/tensorflow/lite/kernels/internal\types.h **** #endif  // TF_LITE_STATIC_MEMORY
 9917              		.loc 4 207 0
 9918 2d14 44309DE5 		ldr	r3, [sp, #68]
 9919 2d18 000053E3 		cmp	r3, #0
 9920 2d1c 31F6FF1A 		bne	.L1400
 9921 2d20 32F6FFEA 		b	.L609
 9922              	.LVL1435:
 9923              	.L506:
 9924 2d24 0700A0E1 		mov	r0, r7
 9925 2d28 0B20A0E1 		mov	r2, fp
 9926 2d2c 0A10A0E1 		mov	r1, r10
 9927              	.LBE1522:
 9928              	.LBE1521:
 9929              	.LBB1523:
 9930              	.LBB1517:
 9931              	.LBB1514:
 9932              	.LBB1511:
  94:C:/Renesas/e2studio_2021_01_workspace_RZA2M_ANPR/ANPR_RZA2M_GR_MANGO/src/tensorflow_lite/tensorflow/lite/kernels/internal/reference\pad.h ****           for (int out_d = 0; out_d < output_depth; ++out_d) {
 9933              		.loc 6 94 0
 9934 2d30 014084E2 		add	r4, r4, #1
 9935              	.LVL1436:
 9936 2d34 FEFFFFEB 		bl	memset
 9937              	.LVL1437:
 9938 2d38 090054E1 		cmp	r4, r9
 9939 2d3c 0B7087E0 		add	r7, r7, fp
 9940              	.LVL1438:
 9941 2d40 AEFFFF1A 		bne	.L513
 9942 2d44 DDFFFFEA 		b	.L1533
 9943              	.L507:
 9944 2d48 0700A0E1 		mov	r0, r7
 9945 2d4c 0B20A0E1 		mov	r2, fp
 9946 2d50 0A10A0E1 		mov	r1, r10
 9947 2d54 0B7087E0 		add	r7, r7, fp
 9948              	.LVL1439:
 9949 2d58 D4FFFFEA 		b	.L1317
 9950              	.LVL1440:
 9951              	.L1531:
 9952 2d5c 014084E2 		add	r4, r4, #1
 9953              	.LVL1441:
 9954 2d60 48E08DE5 		str	lr, [sp, #72]
 9955 2d64 090054E1 		cmp	r4, r9
 9956 2d68 0B7087E0 		add	r7, r7, fp
 9957              	.LVL1442:
 9958 2d6c A3FFFF1A 		bne	.L513
 9959              	.LVL1443:
 9960 2d70 D2FFFFEA 		b	.L1533
 9961              	.LVL1444:
 9962              	.L487:
 9963              	.LEHB65:
 9964              	.LBE1511:
 9965              	.LBE1514:
 9966              	.LBE1517:
 9967              	.LBE1523:
  47:C:/Renesas/e2studio_2021_01_workspace_RZA2M_ANPR/ANPR_RZA2M_GR_MANGO/src/tensorflow_lite/tensorflow/lite/kernels/internal/reference\pad.h **** 
 9968              		.loc 6 47 0
 9969 2d74 FEFFFFEB 		bl	abort
 9970              	.LVL1445:
 9971              	.LEHE65:
 9972              	.L1526:
 9973              	.LEHB66:
  46:C:/Renesas/e2studio_2021_01_workspace_RZA2M_ANPR/ANPR_RZA2M_GR_MANGO/src/tensorflow_lite/tensorflow/lite/kernels/internal/reference\pad.h ****   TFLITE_DCHECK_LE(op_params.right_padding_count, PadKernelMaxDimensionCount());
 9974              		.loc 6 46 0
 9975 2d78 FEFFFFEB 		bl	abort
 9976              	.LVL1446:
 9977              	.LEHE66:
 9978              	.L1525:
 9979              	.LEHB67:
 9980              	.LBB1524:
 9981              	.LBB1447:
 9982              	.LBB1445:
 9983              	.LBB1443:
 9984              	.LBB1441:
 308:C:/Renesas/e2studio_2021_01_workspace_RZA2M_ANPR/ANPR_RZA2M_GR_MANGO/src/tensorflow_lite/tensorflow/lite/kernels/internal\types.h ****     Resize(new_shape_size);
 9985              		.loc 4 308 0
 9986 2d7c FEFFFFEB 		bl	abort
 9987              	.LVL1447:
 9988              	.LEHE67:
 9989              	.L801:
 9990 2d80 49F6FFEA 		b	.L1322
 9991              	.L800:
 9992 2d84 48F6FFEA 		b	.L1322
 9993              	.LVL1448:
 9994              	.L1530:
 9995              	.LEHB68:
 9996              	.LBE1441:
 9997              	.LBE1443:
 9998              	.LBE1445:
 9999              	.LBE1447:
 10000              	.LBE1524:
 10001              	.LBB1525:
 10002              	.LBB1497:
 215:C:/Renesas/e2studio_2021_01_workspace_RZA2M_ANPR/ANPR_RZA2M_GR_MANGO/src/tensorflow_lite/tensorflow/lite/kernels/internal\types.h ****     return size_ > kMaxSmallSize ? dims_pointer_[i] : dims_[i];
 10003              		.loc 4 215 0
 10004 2d88 FEFFFFEB 		bl	abort
 10005              	.LVL1449:
 10006              	.L706:
 10007              	.LBE1497:
 10008              	.LBE1525:
 10009              	.LBB1526:
 10010              	.LBB1489:
 10011 2d8c FEFFFFEB 		bl	abort
 10012              	.LVL1450:
 10013              	.L787:
 10014 2d90 43F5FFEA 		b	.L654
 10015              	.LVL1451:
 10016              	.L705:
 10017              	.LBE1489:
 10018              	.LBE1526:
 10019              	.LBB1527:
 10020              	.LBB1478:
 10021 2d94 FEFFFFEB 		bl	abort
 10022              	.LVL1452:
 10023              	.L1529:
 10024              	.LBE1478:
 10025              	.LBE1527:
 10026              	.LBB1528:
 10027              	.LBB1468:
 10028 2d98 FEFFFFEB 		bl	abort
 10029              	.LVL1453:
 10030              	.L1528:
 10031              	.LBE1468:
 10032              	.LBE1528:
  75:C:/Renesas/e2studio_2021_01_workspace_RZA2M_ANPR/ANPR_RZA2M_GR_MANGO/src/tensorflow_lite/tensorflow/lite/kernels/internal/reference\pad.h ****   const int left_p_padding = left_padding_copy[1];
 10033              		.loc 6 75 0
 10034 2d9c 60209DE5 		ldr	r2, [sp, #96]
 10035              	.LBB1529:
 10036              	.LBB1459:
 216:C:/Renesas/e2studio_2021_01_workspace_RZA2M_ANPR/ANPR_RZA2M_GR_MANGO/src/tensorflow_lite/tensorflow/lite/kernels/internal\types.h ****   }
 10037              		.loc 4 216 0
 10038 2da0 D4309DE5 		ldr	r3, [sp, #212]
 10039              	.LBE1459:
 10040              	.LBE1529:
  75:C:/Renesas/e2studio_2021_01_workspace_RZA2M_ANPR/ANPR_RZA2M_GR_MANGO/src/tensorflow_lite/tensorflow/lite/kernels/internal/reference\pad.h ****   const int left_p_padding = left_padding_copy[1];
 10041              		.loc 6 75 0
 10042 2da4 08208DE5 		str	r2, [sp, #8]
  76:C:/Renesas/e2studio_2021_01_workspace_RZA2M_ANPR/ANPR_RZA2M_GR_MANGO/src/tensorflow_lite/tensorflow/lite/kernels/internal/reference\pad.h ****   const int left_h_padding = left_padding_copy[2];
 10043              		.loc 6 76 0
 10044 2da8 64209DE5 		ldr	r2, [sp, #100]
 10045              	.LBB1530:
 10046              	.LBB1469:
 216:C:/Renesas/e2studio_2021_01_workspace_RZA2M_ANPR/ANPR_RZA2M_GR_MANGO/src/tensorflow_lite/tensorflow/lite/kernels/internal\types.h ****   }
 10047              		.loc 4 216 0
 10048 2dac 041093E5 		ldr	r1, [r3, #4]
 10049 2db0 44308DE5 		str	r3, [sp, #68]
 10050              	.LBE1469:
 10051              	.LBE1530:
  76:C:/Renesas/e2studio_2021_01_workspace_RZA2M_ANPR/ANPR_RZA2M_GR_MANGO/src/tensorflow_lite/tensorflow/lite/kernels/internal/reference\pad.h ****   const int left_h_padding = left_padding_copy[2];
 10052              		.loc 6 76 0
 10053 2db4 3C208DE5 		str	r2, [sp, #60]
 10054              	.LBB1531:
 10055              	.LBB1460:
 216:C:/Renesas/e2studio_2021_01_workspace_RZA2M_ANPR/ANPR_RZA2M_GR_MANGO/src/tensorflow_lite/tensorflow/lite/kernels/internal\types.h ****   }
 10056              		.loc 4 216 0
 10057 2db8 002093E5 		ldr	r2, [r3]
 10058              	.LBE1460:
 10059              	.LBE1531:
 10060              	.LBB1532:
 10061              	.LBB1498:
 10062 2dbc 10B093E5 		ldr	fp, [r3, #16]
 10063              	.LBE1498:
 10064              	.LBE1532:
 10065              	.LBB1533:
 10066              	.LBB1490:
 10067 2dc0 0C9093E5 		ldr	r9, [r3, #12]
 10068              	.LBE1490:
 10069              	.LBE1533:
 10070              	.LBB1534:
 10071              	.LBB1461:
 10072 2dc4 24208DE5 		str	r2, [sp, #36]
 10073              	.LVL1454:
 10074              	.LBE1461:
 10075              	.LBE1534:
 10076              	.LBB1535:
  91:C:/Renesas/e2studio_2021_01_workspace_RZA2M_ANPR/ANPR_RZA2M_GR_MANGO/src/tensorflow_lite/tensorflow/lite/kernels/internal/reference\pad.h ****     for (int out_p = 0; out_p < output_plane; ++out_p) {
 10077              		.loc 6 91 0
 10078 2dc8 000052E3 		cmp	r2, #0
 10079              	.LBE1535:
 10080              	.LBB1536:
 10081              	.LBB1479:
 216:C:/Renesas/e2studio_2021_01_workspace_RZA2M_ANPR/ANPR_RZA2M_GR_MANGO/src/tensorflow_lite/tensorflow/lite/kernels/internal\types.h ****   }
 10082              		.loc 4 216 0
 10083 2dcc 082093E5 		ldr	r2, [r3, #8]
 10084              	.LBE1479:
 10085              	.LBE1536:
  77:C:/Renesas/e2studio_2021_01_workspace_RZA2M_ANPR/ANPR_RZA2M_GR_MANGO/src/tensorflow_lite/tensorflow/lite/kernels/internal/reference\pad.h ****   const int left_w_padding = left_padding_copy[3];
 10086              		.loc 6 77 0
 10087 2dd0 68309DE5 		ldr	r3, [sp, #104]
 10088              	.LBB1537:
 10089              	.LBB1470:
 216:C:/Renesas/e2studio_2021_01_workspace_RZA2M_ANPR/ANPR_RZA2M_GR_MANGO/src/tensorflow_lite/tensorflow/lite/kernels/internal\types.h ****   }
 10090              		.loc 4 216 0
 10091 2dd4 1C108DE5 		str	r1, [sp, #28]
 10092              	.LVL1455:
 10093              	.LBE1470:
 10094              	.LBE1537:
 10095              	.LBB1538:
 10096              	.LBB1480:
 10097 2dd8 10208DE5 		str	r2, [sp, #16]
 10098              	.LVL1456:
 10099              	.LBE1480:
 10100              	.LBE1538:
  77:C:/Renesas/e2studio_2021_01_workspace_RZA2M_ANPR/ANPR_RZA2M_GR_MANGO/src/tensorflow_lite/tensorflow/lite/kernels/internal/reference\pad.h ****   const int left_w_padding = left_padding_copy[3];
 10101              		.loc 6 77 0
 10102 2ddc 30308DE5 		str	r3, [sp, #48]
 10103              	.LVL1457:
  78:C:/Renesas/e2studio_2021_01_workspace_RZA2M_ANPR/ANPR_RZA2M_GR_MANGO/src/tensorflow_lite/tensorflow/lite/kernels/internal/reference\pad.h ****   const int left_d_padding = left_padding_copy[4];
 10104              		.loc 6 78 0
 10105 2de0 6C309DE5 		ldr	r3, [sp, #108]
 10106              	.LVL1458:
 10107 2de4 04308DE5 		str	r3, [sp, #4]
 10108              	.LVL1459:
  79:C:/Renesas/e2studio_2021_01_workspace_RZA2M_ANPR/ANPR_RZA2M_GR_MANGO/src/tensorflow_lite/tensorflow/lite/kernels/internal/reference\pad.h **** 
 10109              		.loc 6 79 0
 10110 2de8 70309DE5 		ldr	r3, [sp, #112]
 10111              	.LVL1460:
 10112 2dec 40308DE5 		str	r3, [sp, #64]
 10113              	.LVL1461:
  81:C:/Renesas/e2studio_2021_01_workspace_RZA2M_ANPR/ANPR_RZA2M_GR_MANGO/src/tensorflow_lite/tensorflow/lite/kernels/internal/reference\pad.h ****   const int right_p_padding = right_padding_copy[1];
 10114              		.loc 6 81 0
 10115 2df0 74309DE5 		ldr	r3, [sp, #116]
 10116              	.LVL1462:
 10117 2df4 34308DE5 		str	r3, [sp, #52]
 10118              	.LVL1463:
  82:C:/Renesas/e2studio_2021_01_workspace_RZA2M_ANPR/ANPR_RZA2M_GR_MANGO/src/tensorflow_lite/tensorflow/lite/kernels/internal/reference\pad.h ****   const int right_h_padding = right_padding_copy[2];
 10119              		.loc 6 82 0
 10120 2df8 78309DE5 		ldr	r3, [sp, #120]
 10121              	.LVL1464:
 10122 2dfc 28308DE5 		str	r3, [sp, #40]
 10123              	.LVL1465:
  83:C:/Renesas/e2studio_2021_01_workspace_RZA2M_ANPR/ANPR_RZA2M_GR_MANGO/src/tensorflow_lite/tensorflow/lite/kernels/internal/reference\pad.h ****   const int right_w_padding = right_padding_copy[3];
 10124              		.loc 6 83 0
 10125 2e00 7C309DE5 		ldr	r3, [sp, #124]
 10126              	.LVL1466:
 10127 2e04 2C308DE5 		str	r3, [sp, #44]
 10128              	.LVL1467:
  84:C:/Renesas/e2studio_2021_01_workspace_RZA2M_ANPR/ANPR_RZA2M_GR_MANGO/src/tensorflow_lite/tensorflow/lite/kernels/internal/reference\pad.h ****   const int right_d_padding = right_padding_copy[4];
 10129              		.loc 6 84 0
 10130 2e08 80309DE5 		ldr	r3, [sp, #128]
 10131              	.LVL1468:
 10132 2e0c 38308DE5 		str	r3, [sp, #56]
 10133              	.LVL1469:
  85:C:/Renesas/e2studio_2021_01_workspace_RZA2M_ANPR/ANPR_RZA2M_GR_MANGO/src/tensorflow_lite/tensorflow/lite/kernels/internal/reference\pad.h **** 
 10134              		.loc 6 85 0
 10135 2e10 84309DE5 		ldr	r3, [sp, #132]
 10136              	.LVL1470:
 10137              	.LBB1539:
  91:C:/Renesas/e2studio_2021_01_workspace_RZA2M_ANPR/ANPR_RZA2M_GR_MANGO/src/tensorflow_lite/tensorflow/lite/kernels/internal/reference\pad.h ****     for (int out_p = 0; out_p < output_plane; ++out_p) {
 10138              		.loc 6 91 0
 10139 2e14 4AFFFFCA 		bgt	.L498
 10140 2e18 BDFFFFEA 		b	.L497
 10141              	.LVL1471:
 10142              	.L1527:
 10143              	.LBE1539:
 10144              	.LBB1540:
 10145              	.LBB1462:
 215:C:/Renesas/e2studio_2021_01_workspace_RZA2M_ANPR/ANPR_RZA2M_GR_MANGO/src/tensorflow_lite/tensorflow/lite/kernels/internal\types.h ****     return size_ > kMaxSmallSize ? dims_pointer_[i] : dims_[i];
 10146              		.loc 4 215 0
 10147 2e1c FEFFFFEB 		bl	abort
 10148              	.LVL1472:
 10149              	.LEHE68:
 10150              	.L1521:
 10151              	.LEHB69:
 10152              	.LBE1462:
 10153              	.LBE1540:
 10154              	.LBE1541:
 10155              	.LBE1542:
 10156              	.LBE1543:
 10157              	.LBE1544:
 10158              	.LBE2417:
 10159              	.LBB2418:
 10160              	.LBB1886:
 10161              	.LBB1884:
 10162              	.LBB1882:
 10163              	.LBB1880:
 10164              	.LBB1863:
 10165              	.LBB1839:
 10166 2e20 FEFFFFEB 		bl	abort
 10167              	.LVL1473:
 10168              	.L698:
 10169              	.LBE1839:
 10170              	.LBE1863:
 10171              	.LBB1864:
 10172              	.LBB1831:
 10173 2e24 FEFFFFEB 		bl	abort
 10174              	.LVL1474:
 10175              	.L783:
 10176 2e28 1DF5FFEA 		b	.L654
 10177              	.LVL1475:
 10178              	.L697:
 10179              	.LBE1831:
 10180              	.LBE1864:
 10181              	.LBB1865:
 10182              	.LBB1820:
 10183 2e2c FEFFFFEB 		bl	abort
 10184              	.LVL1476:
 10185              	.L1520:
 10186              	.LBE1820:
 10187              	.LBE1865:
 10188              	.LBB1866:
 10189              	.LBB1810:
 10190 2e30 FEFFFFEB 		bl	abort
 10191              	.LVL1477:
 10192              	.L1519:
 10193              	.LBE1810:
 10194              	.LBE1866:
  75:C:/Renesas/e2studio_2021_01_workspace_RZA2M_ANPR/ANPR_RZA2M_GR_MANGO/src/tensorflow_lite/tensorflow/lite/kernels/internal/reference\pad.h ****   const int left_p_padding = left_padding_copy[1];
 10195              		.loc 6 75 0
 10196 2e34 60209DE5 		ldr	r2, [sp, #96]
 10197              	.LBB1867:
 10198              	.LBB1801:
 216:C:/Renesas/e2studio_2021_01_workspace_RZA2M_ANPR/ANPR_RZA2M_GR_MANGO/src/tensorflow_lite/tensorflow/lite/kernels/internal\types.h ****   }
 10199              		.loc 4 216 0
 10200 2e38 D4309DE5 		ldr	r3, [sp, #212]
 10201              	.LBE1801:
 10202              	.LBE1867:
  75:C:/Renesas/e2studio_2021_01_workspace_RZA2M_ANPR/ANPR_RZA2M_GR_MANGO/src/tensorflow_lite/tensorflow/lite/kernels/internal/reference\pad.h ****   const int left_p_padding = left_padding_copy[1];
 10203              		.loc 6 75 0
 10204 2e3c 04208DE5 		str	r2, [sp, #4]
  76:C:/Renesas/e2studio_2021_01_workspace_RZA2M_ANPR/ANPR_RZA2M_GR_MANGO/src/tensorflow_lite/tensorflow/lite/kernels/internal/reference\pad.h ****   const int left_h_padding = left_padding_copy[2];
 10205              		.loc 6 76 0
 10206 2e40 64209DE5 		ldr	r2, [sp, #100]
 10207              	.LBB1868:
 10208              	.LBB1811:
 216:C:/Renesas/e2studio_2021_01_workspace_RZA2M_ANPR/ANPR_RZA2M_GR_MANGO/src/tensorflow_lite/tensorflow/lite/kernels/internal\types.h ****   }
 10209              		.loc 4 216 0
 10210 2e44 041093E5 		ldr	r1, [r3, #4]
 10211 2e48 40308DE5 		str	r3, [sp, #64]
 10212              	.LBE1811:
 10213              	.LBE1868:
  76:C:/Renesas/e2studio_2021_01_workspace_RZA2M_ANPR/ANPR_RZA2M_GR_MANGO/src/tensorflow_lite/tensorflow/lite/kernels/internal/reference\pad.h ****   const int left_h_padding = left_padding_copy[2];
 10214              		.loc 6 76 0
 10215 2e4c 48208DE5 		str	r2, [sp, #72]
 10216              	.LBB1869:
 10217              	.LBB1802:
 216:C:/Renesas/e2studio_2021_01_workspace_RZA2M_ANPR/ANPR_RZA2M_GR_MANGO/src/tensorflow_lite/tensorflow/lite/kernels/internal\types.h ****   }
 10218              		.loc 4 216 0
 10219 2e50 002093E5 		ldr	r2, [r3]
 10220              	.LBE1802:
 10221              	.LBE1869:
 10222              	.LBB1870:
 10223              	.LBB1840:
 10224 2e54 10B093E5 		ldr	fp, [r3, #16]
 10225              	.LBE1840:
 10226              	.LBE1870:
 10227              	.LBB1871:
 10228              	.LBB1832:
 10229 2e58 0C9093E5 		ldr	r9, [r3, #12]
 10230              	.LBE1832:
 10231              	.LBE1871:
 10232              	.LBB1872:
 10233              	.LBB1803:
 10234 2e5c 24208DE5 		str	r2, [sp, #36]
 10235              	.LVL1478:
 10236              	.LBE1803:
 10237              	.LBE1872:
 10238              	.LBB1873:
  91:C:/Renesas/e2studio_2021_01_workspace_RZA2M_ANPR/ANPR_RZA2M_GR_MANGO/src/tensorflow_lite/tensorflow/lite/kernels/internal/reference\pad.h ****     for (int out_p = 0; out_p < output_plane; ++out_p) {
 10239              		.loc 6 91 0
 10240 2e60 000052E3 		cmp	r2, #0
 10241              	.LBE1873:
 10242              	.LBB1874:
 10243              	.LBB1821:
 216:C:/Renesas/e2studio_2021_01_workspace_RZA2M_ANPR/ANPR_RZA2M_GR_MANGO/src/tensorflow_lite/tensorflow/lite/kernels/internal\types.h ****   }
 10244              		.loc 4 216 0
 10245 2e64 082093E5 		ldr	r2, [r3, #8]
 10246              	.LBE1821:
 10247              	.LBE1874:
  77:C:/Renesas/e2studio_2021_01_workspace_RZA2M_ANPR/ANPR_RZA2M_GR_MANGO/src/tensorflow_lite/tensorflow/lite/kernels/internal/reference\pad.h ****   const int left_w_padding = left_padding_copy[3];
 10248              		.loc 6 77 0
 10249 2e68 68309DE5 		ldr	r3, [sp, #104]
 10250              	.LBB1875:
 10251              	.LBB1812:
 216:C:/Renesas/e2studio_2021_01_workspace_RZA2M_ANPR/ANPR_RZA2M_GR_MANGO/src/tensorflow_lite/tensorflow/lite/kernels/internal\types.h ****   }
 10252              		.loc 4 216 0
 10253 2e6c 1C108DE5 		str	r1, [sp, #28]
 10254              	.LVL1479:
 10255              	.LBE1812:
 10256              	.LBE1875:
 10257              	.LBB1876:
 10258              	.LBB1822:
 10259 2e70 10208DE5 		str	r2, [sp, #16]
 10260              	.LVL1480:
 10261              	.LBE1822:
 10262              	.LBE1876:
  77:C:/Renesas/e2studio_2021_01_workspace_RZA2M_ANPR/ANPR_RZA2M_GR_MANGO/src/tensorflow_lite/tensorflow/lite/kernels/internal/reference\pad.h ****   const int left_w_padding = left_padding_copy[3];
 10263              		.loc 6 77 0
 10264 2e74 30308DE5 		str	r3, [sp, #48]
 10265              	.LVL1481:
  78:C:/Renesas/e2studio_2021_01_workspace_RZA2M_ANPR/ANPR_RZA2M_GR_MANGO/src/tensorflow_lite/tensorflow/lite/kernels/internal/reference\pad.h ****   const int left_d_padding = left_padding_copy[4];
 10266              		.loc 6 78 0
 10267 2e78 6C309DE5 		ldr	r3, [sp, #108]
 10268              	.LVL1482:
 10269 2e7c 08308DE5 		str	r3, [sp, #8]
 10270              	.LVL1483:
  79:C:/Renesas/e2studio_2021_01_workspace_RZA2M_ANPR/ANPR_RZA2M_GR_MANGO/src/tensorflow_lite/tensorflow/lite/kernels/internal/reference\pad.h **** 
 10271              		.loc 6 79 0
 10272 2e80 70309DE5 		ldr	r3, [sp, #112]
 10273              	.LVL1484:
 10274 2e84 34308DE5 		str	r3, [sp, #52]
 10275              	.LVL1485:
  81:C:/Renesas/e2studio_2021_01_workspace_RZA2M_ANPR/ANPR_RZA2M_GR_MANGO/src/tensorflow_lite/tensorflow/lite/kernels/internal/reference\pad.h ****   const int right_p_padding = right_padding_copy[1];
 10276              		.loc 6 81 0
 10277 2e88 74309DE5 		ldr	r3, [sp, #116]
 10278              	.LVL1486:
 10279 2e8c 3C308DE5 		str	r3, [sp, #60]
 10280              	.LVL1487:
  82:C:/Renesas/e2studio_2021_01_workspace_RZA2M_ANPR/ANPR_RZA2M_GR_MANGO/src/tensorflow_lite/tensorflow/lite/kernels/internal/reference\pad.h ****   const int right_h_padding = right_padding_copy[2];
 10281              		.loc 6 82 0
 10282 2e90 78309DE5 		ldr	r3, [sp, #120]
 10283              	.LVL1488:
 10284 2e94 28308DE5 		str	r3, [sp, #40]
 10285              	.LVL1489:
  83:C:/Renesas/e2studio_2021_01_workspace_RZA2M_ANPR/ANPR_RZA2M_GR_MANGO/src/tensorflow_lite/tensorflow/lite/kernels/internal/reference\pad.h ****   const int right_w_padding = right_padding_copy[3];
 10286              		.loc 6 83 0
 10287 2e98 7C309DE5 		ldr	r3, [sp, #124]
 10288              	.LVL1490:
 10289 2e9c 2C308DE5 		str	r3, [sp, #44]
 10290              	.LVL1491:
  84:C:/Renesas/e2studio_2021_01_workspace_RZA2M_ANPR/ANPR_RZA2M_GR_MANGO/src/tensorflow_lite/tensorflow/lite/kernels/internal/reference\pad.h ****   const int right_d_padding = right_padding_copy[4];
 10291              		.loc 6 84 0
 10292 2ea0 80309DE5 		ldr	r3, [sp, #128]
 10293              	.LVL1492:
 10294 2ea4 38308DE5 		str	r3, [sp, #56]
 10295              	.LVL1493:
  85:C:/Renesas/e2studio_2021_01_workspace_RZA2M_ANPR/ANPR_RZA2M_GR_MANGO/src/tensorflow_lite/tensorflow/lite/kernels/internal/reference\pad.h **** 
 10296              		.loc 6 85 0
 10297 2ea8 84309DE5 		ldr	r3, [sp, #132]
 10298              	.LVL1494:
 10299              	.LBB1877:
  91:C:/Renesas/e2studio_2021_01_workspace_RZA2M_ANPR/ANPR_RZA2M_GR_MANGO/src/tensorflow_lite/tensorflow/lite/kernels/internal/reference\pad.h ****     for (int out_p = 0; out_p < output_plane; ++out_p) {
 10300              		.loc 6 91 0
 10301 2eac 24FEFFCA 		bgt	.L387
 10302 2eb0 8EFEFFEA 		b	.L386
 10303              	.LVL1495:
 10304              	.L1518:
 10305              	.LBE1877:
 10306              	.LBB1878:
 10307              	.LBB1804:
 215:C:/Renesas/e2studio_2021_01_workspace_RZA2M_ANPR/ANPR_RZA2M_GR_MANGO/src/tensorflow_lite/tensorflow/lite/kernels/internal\types.h ****     return size_ > kMaxSmallSize ? dims_pointer_[i] : dims_[i];
 10308              		.loc 4 215 0
 10309 2eb4 FEFFFFEB 		bl	abort
 10310              	.LVL1496:
 10311              	.LEHE69:
 10312              	.LBE1804:
 10313              	.LBE1878:
 10314              	.LBE1880:
 10315              	.LBE1882:
 10316              	.LBE1884:
 10317              	.LBE1886:
 10318              	.LBE2418:
 10319              	.LBE2420:
 10320              	.LBE2431:
 10321              		.cfi_endproc
 10322              	.LFE1321:
 10323              		.personality	__gxx_personality_v0
 10324              		.handlerdata
 10325              	.LLSDA1321:
 10326 0008 FF       		.byte	0xff
 10327 0009 FF       		.byte	0xff
 10328 000a 01       		.byte	0x1
 10329 000b 8E03     		.uleb128 .LLSDACSE1321-.LLSDACSB1321
 10330              	.LLSDACSB1321:
 10331 000d 30       		.uleb128 .LEHB3-.LFB1321
 10332 000e 8801     		.uleb128 .LEHE3-.LEHB3
 10333 0010 00       		.uleb128 0
 10334 0011 00       		.uleb128 0
 10335 0012 C801     		.uleb128 .LEHB4-.LFB1321
 10336 0014 04       		.uleb128 .LEHE4-.LEHB4
 10337 0015 B419     		.uleb128 .L774-.LFB1321
 10338 0017 00       		.uleb128 0
 10339 0018 BC02     		.uleb128 .LEHB5-.LFB1321
 10340 001a 04       		.uleb128 .LEHE5-.LEHB5
 10341 001b E403     		.uleb128 .L775-.LFB1321
 10342 001d 00       		.uleb128 0
 10343 001e D802     		.uleb128 .LEHB6-.LFB1321
 10344 0020 04       		.uleb128 .LEHE6-.LEHB6
 10345 0021 00       		.uleb128 0
 10346 0022 00       		.uleb128 0
 10347 0023 EC02     		.uleb128 .LEHB7-.LFB1321
 10348 0025 04       		.uleb128 .LEHE7-.LEHB7
 10349 0026 E40E     		.uleb128 .L770-.LFB1321
 10350 0028 00       		.uleb128 0
 10351 0029 E003     		.uleb128 .LEHB8-.LFB1321
 10352 002b 04       		.uleb128 .LEHE8-.LEHB8
 10353 002c A004     		.uleb128 .L771-.LFB1321
 10354 002e 00       		.uleb128 0
 10355 002f 9C04     		.uleb128 .LEHB9-.LFB1321
 10356 0031 04       		.uleb128 .LEHE9-.LEHB9
 10357 0032 00       		.uleb128 0
 10358 0033 00       		.uleb128 0
 10359 0034 9C05     		.uleb128 .LEHB10-.LFB1321
 10360 0036 04       		.uleb128 .LEHE10-.LEHB10
 10361 0037 A405     		.uleb128 .L784-.LFB1321
 10362 0039 00       		.uleb128 0
 10363 003a A005     		.uleb128 .LEHB11-.LFB1321
 10364 003c 04       		.uleb128 .LEHE11-.LEHB11
 10365 003d A004     		.uleb128 .L771-.LFB1321
 10366 003f 00       		.uleb128 0
 10367 0040 9C0D     		.uleb128 .LEHB12-.LFB1321
 10368 0042 04       		.uleb128 .LEHE12-.LEHB12
 10369 0043 AC0D     		.uleb128 .L799-.LFB1321
 10370 0045 00       		.uleb128 0
 10371 0046 A00D     		.uleb128 .LEHB13-.LFB1321
 10372 0048 B801     		.uleb128 .LEHE13-.LEHB13
 10373 004a D00D     		.uleb128 .L785-.LFB1321
 10374 004c 00       		.uleb128 0
 10375 004d D80E     		.uleb128 .LEHB14-.LFB1321
 10376 004f 04       		.uleb128 .LEHE14-.LEHB14
 10377 0050 E00E     		.uleb128 .L798-.LFB1321
 10378 0052 00       		.uleb128 0
 10379 0053 DC0E     		.uleb128 .LEHB15-.LFB1321
 10380 0055 04       		.uleb128 .LEHE15-.LEHB15
 10381 0056 A405     		.uleb128 .L784-.LFB1321
 10382 0058 00       		.uleb128 0
 10383 0059 F00E     		.uleb128 .LEHB16-.LFB1321
 10384 005b 04       		.uleb128 .LEHE16-.LEHB16
 10385 005c 00       		.uleb128 0
 10386 005d 00       		.uleb128 0
 10387 005e 840F     		.uleb128 .LEHB17-.LFB1321
 10388 0060 04       		.uleb128 .LEHE17-.LEHB17
 10389 0061 E84B     		.uleb128 .L768-.LFB1321
 10390 0063 00       		.uleb128 0
 10391 0064 F80F     		.uleb128 .LEHB18-.LFB1321
 10392 0066 04       		.uleb128 .LEHE18-.LEHB18
 10393 0067 E44A     		.uleb128 .L769-.LFB1321
 10394 0069 00       		.uleb128 0
 10395 006a F410     		.uleb128 .LEHB19-.LFB1321
 10396 006c 04       		.uleb128 .LEHE19-.LEHB19
 10397 006d FC10     		.uleb128 .L788-.LFB1321
 10398 006f 00       		.uleb128 0
 10399 0070 F810     		.uleb128 .LEHB20-.LFB1321
 10400 0072 04       		.uleb128 .LEHE20-.LEHB20
 10401 0073 E403     		.uleb128 .L775-.LFB1321
 10402 0075 00       		.uleb128 0
 10403 0076 8818     		.uleb128 .LEHB21-.LFB1321
 10404 0078 14       		.uleb128 .LEHE21-.LEHB21
 10405 0079 9018     		.uleb128 .L789-.LFB1321
 10406 007b 00       		.uleb128 0
 10407 007c 9C18     		.uleb128 .LEHB22-.LFB1321
 10408 007e 04       		.uleb128 .LEHE22-.LEHB22
 10409 007f A419     		.uleb128 .L803-.LFB1321
 10410 0081 00       		.uleb128 0
 10411 0082 A019     		.uleb128 .LEHB23-.LFB1321
 10412 0084 04       		.uleb128 .LEHE23-.LEHB23
 10413 0085 9018     		.uleb128 .L789-.LFB1321
 10414 0087 00       		.uleb128 0
 10415 0088 A819     		.uleb128 .LEHB24-.LFB1321
 10416 008a 04       		.uleb128 .LEHE24-.LEHB24
 10417 008b B019     		.uleb128 .L802-.LFB1321
 10418 008d 00       		.uleb128 0
 10419 008e AC19     		.uleb128 .LEHB25-.LFB1321
 10420 0090 04       		.uleb128 .LEHE25-.LEHB25
 10421 0091 FC10     		.uleb128 .L788-.LFB1321
 10422 0093 00       		.uleb128 0
 10423 0094 C019     		.uleb128 .LEHB26-.LFB1321
 10424 0096 04       		.uleb128 .LEHE26-.LEHB26
 10425 0097 00       		.uleb128 0
 10426 0098 00       		.uleb128 0
 10427 0099 D419     		.uleb128 .LEHB27-.LFB1321
 10428 009b 04       		.uleb128 .LEHE27-.LEHB27
 10429 009c E853     		.uleb128 .L772-.LFB1321
 10430 009e 00       		.uleb128 0
 10431 009f C81A     		.uleb128 .LEHB28-.LFB1321
 10432 00a1 04       		.uleb128 .LEHE28-.LEHB28
 10433 00a2 E452     		.uleb128 .L773-.LFB1321
 10434 00a4 00       		.uleb128 0
 10435 00a5 D81A     		.uleb128 .LEHB29-.LFB1321
 10436 00a7 04       		.uleb128 .LEHE29-.LEHB29
 10437 00a8 00       		.uleb128 0
 10438 00a9 00       		.uleb128 0
 10439 00aa EC1A     		.uleb128 .LEHB30-.LFB1321
 10440 00ac 04       		.uleb128 .LEHE30-.LEHB30
 10441 00ad C83A     		.uleb128 .L776-.LFB1321
 10442 00af 00       		.uleb128 0
 10443 00b0 DC1B     		.uleb128 .LEHB31-.LFB1321
 10444 00b2 04       		.uleb128 .LEHE31-.LEHB31
 10445 00b3 801D     		.uleb128 .L777-.LFB1321
 10446 00b5 00       		.uleb128 0
 10447 00b6 F81B     		.uleb128 .LEHB32-.LFB1321
 10448 00b8 04       		.uleb128 .LEHE32-.LEHB32
 10449 00b9 00       		.uleb128 0
 10450 00ba 00       		.uleb128 0
 10451 00bb 8C1C     		.uleb128 .LEHB33-.LFB1321
 10452 00bd 04       		.uleb128 .LEHE33-.LEHB33
 10453 00be B039     		.uleb128 .L766-.LFB1321
 10454 00c0 00       		.uleb128 0
 10455 00c1 FC1C     		.uleb128 .LEHB34-.LFB1321
 10456 00c3 04       		.uleb128 .LEHE34-.LEHB34
 10457 00c4 801E     		.uleb128 .L767-.LFB1321
 10458 00c6 00       		.uleb128 0
 10459 00c7 FC1D     		.uleb128 .LEHB35-.LFB1321
 10460 00c9 04       		.uleb128 .LEHE35-.LEHB35
 10461 00ca 841E     		.uleb128 .L790-.LFB1321
 10462 00cc 00       		.uleb128 0
 10463 00cd F029     		.uleb128 .LEHB36-.LFB1321
 10464 00cf 9401     		.uleb128 .LEHE36-.LEHB36
 10465 00d1 F829     		.uleb128 .L791-.LFB1321
 10466 00d3 00       		.uleb128 0
 10467 00d4 842B     		.uleb128 .LEHB37-.LFB1321
 10468 00d6 04       		.uleb128 .LEHE37-.LEHB37
 10469 00d7 8C2B     		.uleb128 .L804-.LFB1321
 10470 00d9 00       		.uleb128 0
 10471 00da 882B     		.uleb128 .LEHB38-.LFB1321
 10472 00dc 04       		.uleb128 .LEHE38-.LEHB38
 10473 00dd 841E     		.uleb128 .L790-.LFB1321
 10474 00df 00       		.uleb128 0
 10475 00e0 902B     		.uleb128 .LEHB39-.LFB1321
 10476 00e2 04       		.uleb128 .LEHE39-.LEHB39
 10477 00e3 942B     		.uleb128 .L805-.LFB1321
 10478 00e5 00       		.uleb128 0
 10479 00e6 902C     		.uleb128 .LEHB40-.LFB1321
 10480 00e8 04       		.uleb128 .LEHE40-.LEHB40
 10481 00e9 982C     		.uleb128 .L780-.LFB1321
 10482 00eb 00       		.uleb128 0
 10483 00ec 942C     		.uleb128 .LEHB41-.LFB1321
 10484 00ee 04       		.uleb128 .LEHE41-.LEHB41
 10485 00ef 801E     		.uleb128 .L767-.LFB1321
 10486 00f1 00       		.uleb128 0
 10487 00f2 8439     		.uleb128 .LEHB42-.LFB1321
 10488 00f4 04       		.uleb128 .LEHE42-.LEHB42
 10489 00f5 8C39     		.uleb128 .L781-.LFB1321
 10490 00f7 00       		.uleb128 0
 10491 00f8 8839     		.uleb128 .LEHB43-.LFB1321
 10492 00fa 04       		.uleb128 .LEHE43-.LEHB43
 10493 00fb 9039     		.uleb128 .L795-.LFB1321
 10494 00fd 00       		.uleb128 0
 10495 00fe 9439     		.uleb128 .LEHB44-.LFB1321
 10496 0100 10       		.uleb128 .LEHE44-.LEHB44
 10497 0101 8C39     		.uleb128 .L781-.LFB1321
 10498 0103 00       		.uleb128 0
 10499 0104 A439     		.uleb128 .LEHB45-.LFB1321
 10500 0106 04       		.uleb128 .LEHE45-.LEHB45
 10501 0107 AC39     		.uleb128 .L794-.LFB1321
 10502 0109 00       		.uleb128 0
 10503 010a A839     		.uleb128 .LEHB46-.LFB1321
 10504 010c 04       		.uleb128 .LEHE46-.LEHB46
 10505 010d 982C     		.uleb128 .L780-.LFB1321
 10506 010f 00       		.uleb128 0
 10507 0110 BC39     		.uleb128 .LEHB47-.LFB1321
 10508 0112 04       		.uleb128 .LEHE47-.LEHB47
 10509 0113 00       		.uleb128 0
 10510 0114 00       		.uleb128 0
 10511 0115 D039     		.uleb128 .LEHB48-.LFB1321
 10512 0117 04       		.uleb128 .LEHE48-.LEHB48
 10513 0118 D83C     		.uleb128 .L764-.LFB1321
 10514 011a 00       		.uleb128 0
 10515 011b C03A     		.uleb128 .LEHB49-.LFB1321
 10516 011d 04       		.uleb128 .LEHE49-.LEHB49
 10517 011e D43B     		.uleb128 .L765-.LFB1321
 10518 0120 00       		.uleb128 0
 10519 0121 C43A     		.uleb128 .LEHB50-.LFB1321
 10520 0123 04       		.uleb128 .LEHE50-.LEHB50
 10521 0124 801D     		.uleb128 .L777-.LFB1321
 10522 0126 00       		.uleb128 0
 10523 0127 D03A     		.uleb128 .LEHB51-.LFB1321
 10524 0129 48       		.uleb128 .LEHE51-.LEHB51
 10525 012a 00       		.uleb128 0
 10526 012b 00       		.uleb128 0
 10527 012c D03C     		.uleb128 .LEHB52-.LFB1321
 10528 012e 04       		.uleb128 .LEHE52-.LEHB52
 10529 012f DC3C     		.uleb128 .L778-.LFB1321
 10530 0131 00       		.uleb128 0
 10531 0132 D43C     		.uleb128 .LEHB53-.LFB1321
 10532 0134 04       		.uleb128 .LEHE53-.LEHB53
 10533 0135 D43B     		.uleb128 .L765-.LFB1321
 10534 0137 00       		.uleb128 0
 10535 0138 F048     		.uleb128 .LEHB54-.LFB1321
 10536 013a 04       		.uleb128 .LEHE54-.LEHB54
 10537 013b FC48     		.uleb128 .L793-.LFB1321
 10538 013d 00       		.uleb128 0
 10539 013e F448     		.uleb128 .LEHB55-.LFB1321
 10540 0140 04       		.uleb128 .LEHE55-.LEHB55
 10541 0141 8049     		.uleb128 .L792-.LFB1321
 10542 0143 00       		.uleb128 0
 10543 0144 F848     		.uleb128 .LEHB56-.LFB1321
 10544 0146 04       		.uleb128 .LEHE56-.LEHB56
 10545 0147 DC3C     		.uleb128 .L778-.LFB1321
 10546 0149 00       		.uleb128 0
 10547 014a D049     		.uleb128 .LEHB57-.LFB1321
 10548 014c 9401     		.uleb128 .LEHE57-.LEHB57
 10549 014e D849     		.uleb128 .L779-.LFB1321
 10550 0150 00       		.uleb128 0
 10551 0151 E04B     		.uleb128 .LEHB58-.LFB1321
 10552 0153 04       		.uleb128 .LEHE58-.LEHB58
 10553 0154 EC4B     		.uleb128 .L782-.LFB1321
 10554 0156 00       		.uleb128 0
 10555 0157 E44B     		.uleb128 .LEHB59-.LFB1321
 10556 0159 04       		.uleb128 .LEHE59-.LEHB59
 10557 015a E44A     		.uleb128 .L769-.LFB1321
 10558 015c 00       		.uleb128 0
 10559 015d D052     		.uleb128 .LEHB60-.LFB1321
 10560 015f 04       		.uleb128 .LEHE60-.LEHB60
 10561 0160 DC52     		.uleb128 .L797-.LFB1321
 10562 0162 00       		.uleb128 0
 10563 0163 D452     		.uleb128 .LEHB61-.LFB1321
 10564 0165 04       		.uleb128 .LEHE61-.LEHB61
 10565 0166 E052     		.uleb128 .L796-.LFB1321
 10566 0168 00       		.uleb128 0
 10567 0169 D852     		.uleb128 .LEHB62-.LFB1321
 10568 016b 04       		.uleb128 .LEHE62-.LEHB62
 10569 016c EC4B     		.uleb128 .L782-.LFB1321
 10570 016e 00       		.uleb128 0
 10571 016f E053     		.uleb128 .LEHB63-.LFB1321
 10572 0171 04       		.uleb128 .LEHE63-.LEHB63
 10573 0172 EC53     		.uleb128 .L786-.LFB1321
 10574 0174 00       		.uleb128 0
 10575 0175 E453     		.uleb128 .LEHB64-.LFB1321
 10576 0177 04       		.uleb128 .LEHE64-.LEHB64
 10577 0178 E452     		.uleb128 .L773-.LFB1321
 10578 017a 00       		.uleb128 0
 10579 017b F45A     		.uleb128 .LEHB65-.LFB1321
 10580 017d 04       		.uleb128 .LEHE65-.LEHB65
 10581 017e 805B     		.uleb128 .L801-.LFB1321
 10582 0180 00       		.uleb128 0
 10583 0181 F85A     		.uleb128 .LEHB66-.LFB1321
 10584 0183 04       		.uleb128 .LEHE66-.LEHB66
 10585 0184 845B     		.uleb128 .L800-.LFB1321
 10586 0186 00       		.uleb128 0
 10587 0187 FC5A     		.uleb128 .LEHB67-.LFB1321
 10588 0189 04       		.uleb128 .LEHE67-.LEHB67
 10589 018a EC53     		.uleb128 .L786-.LFB1321
 10590 018c 00       		.uleb128 0
 10591 018d 885B     		.uleb128 .LEHB68-.LFB1321
 10592 018f 9801     		.uleb128 .LEHE68-.LEHB68
 10593 0191 905B     		.uleb128 .L787-.LFB1321
 10594 0193 00       		.uleb128 0
 10595 0194 A05C     		.uleb128 .LEHB69-.LFB1321
 10596 0196 9801     		.uleb128 .LEHE69-.LEHB69
 10597 0198 A85C     		.uleb128 .L783-.LFB1321
 10598 019a 00       		.uleb128 0
 10599              	.LLSDACSE1321:
 10600              		.section	.text._ZN6tflite3ops5micro3pad4EvalEP13TfLiteContextP10TfLiteNode
 10601              		.fnend
 10603              		.section	.text._ZN6tflite3ops5micro12Register_PADEv,"ax",%progbits
 10604              		.align	2
 10605              		.global	_ZN6tflite3ops5micro12Register_PADEv
 10606              		.syntax unified
 10607              		.arm
 10608              		.fpu neon
 10610              	_ZN6tflite3ops5micro12Register_PADEv:
 10611              		.fnstart
 10612              	.LFB1730:
 10613              		.cfi_startproc
 10614              		@ args = 0, pretend = 0, frame = 0
 10615              		@ frame_needed = 0, uses_anonymous_args = 0
 10616 0000 00C000E3 		movw	ip, #:lower16:.LANCHOR0
 10617 0004 10402DE9 		push	{r4, lr}
 10618              		.cfi_def_cfa_offset 8
 10619              		.cfi_offset 4, -8
 10620              		.cfi_offset 14, -4
 10621 0008 00C040E3 		movt	ip, #:upper16:.LANCHOR0
 10622 000c 0040A0E1 		mov	r4, r0
 10623 0010 00E0A0E1 		mov	lr, r0
 10624 0014 0F00BCE8 		ldmia	ip!, {r0, r1, r2, r3}
 10625 0018 0F00AEE8 		stmia	lr!, {r0, r1, r2, r3}
 10626 001c 0F009CE8 		ldm	ip, {r0, r1, r2, r3}
 10627 0020 0F008EE8 		stm	lr, {r0, r1, r2, r3}
 10628 0024 0400A0E1 		mov	r0, r4
 10629 0028 1080BDE8 		pop	{r4, pc}
 10630              		.cfi_endproc
 10631              	.LFE1730:
 10632              		.cantunwind
 10633              		.fnend
 10635              		.section	.text._ZN6tflite3ops5micro14Register_PADV2Ev,"ax",%progbits
 10636              		.align	2
 10637              		.global	_ZN6tflite3ops5micro14Register_PADV2Ev
 10638              		.syntax unified
 10639              		.arm
 10640              		.fpu neon
 10642              	_ZN6tflite3ops5micro14Register_PADV2Ev:
 10643              		.fnstart
 10644              	.LFB1323:
 226:../src/tensorflow_lite/tensorflow/lite/micro/kernels/pad.cc **** 
 227:../src/tensorflow_lite/tensorflow/lite/micro/kernels/pad.cc **** }  // namespace pad
 228:../src/tensorflow_lite/tensorflow/lite/micro/kernels/pad.cc **** 
 229:../src/tensorflow_lite/tensorflow/lite/micro/kernels/pad.cc **** TfLiteRegistration Register_PAD() {
 230:../src/tensorflow_lite/tensorflow/lite/micro/kernels/pad.cc ****   return {/*init=*/pad::Init,
 231:../src/tensorflow_lite/tensorflow/lite/micro/kernels/pad.cc ****           /*free=*/nullptr,
 232:../src/tensorflow_lite/tensorflow/lite/micro/kernels/pad.cc ****           /*prepare=*/pad::Prepare,
 233:../src/tensorflow_lite/tensorflow/lite/micro/kernels/pad.cc ****           /*invoke=*/pad::Eval,
 234:../src/tensorflow_lite/tensorflow/lite/micro/kernels/pad.cc ****           /*profiling_string=*/nullptr,
 235:../src/tensorflow_lite/tensorflow/lite/micro/kernels/pad.cc ****           /*builtin_code=*/0,
 236:../src/tensorflow_lite/tensorflow/lite/micro/kernels/pad.cc ****           /*custom_name=*/nullptr,
 237:../src/tensorflow_lite/tensorflow/lite/micro/kernels/pad.cc ****           /*version=*/0};
 238:../src/tensorflow_lite/tensorflow/lite/micro/kernels/pad.cc **** }
 239:../src/tensorflow_lite/tensorflow/lite/micro/kernels/pad.cc **** 
 240:../src/tensorflow_lite/tensorflow/lite/micro/kernels/pad.cc **** // Also register Pad as PadV2.
 241:../src/tensorflow_lite/tensorflow/lite/micro/kernels/pad.cc **** TfLiteRegistration Register_PADV2() {
 10645              		.loc 1 241 0
 10646              		.cfi_startproc
 10647              		@ args = 0, pretend = 0, frame = 0
 10648              		@ frame_needed = 0, uses_anonymous_args = 0
 10649              	.LVL1497:
 242:../src/tensorflow_lite/tensorflow/lite/micro/kernels/pad.cc ****   return {/*init=*/pad::Init,
 243:../src/tensorflow_lite/tensorflow/lite/micro/kernels/pad.cc ****           /*free=*/nullptr,
 244:../src/tensorflow_lite/tensorflow/lite/micro/kernels/pad.cc ****           /*prepare=*/pad::Prepare,
 245:../src/tensorflow_lite/tensorflow/lite/micro/kernels/pad.cc ****           /*invoke=*/pad::Eval,
 246:../src/tensorflow_lite/tensorflow/lite/micro/kernels/pad.cc ****           /*profiling_string=*/nullptr,
 247:../src/tensorflow_lite/tensorflow/lite/micro/kernels/pad.cc ****           /*builtin_code=*/0,
 248:../src/tensorflow_lite/tensorflow/lite/micro/kernels/pad.cc ****           /*custom_name=*/nullptr,
 249:../src/tensorflow_lite/tensorflow/lite/micro/kernels/pad.cc ****           /*version=*/0};
 10650              		.loc 1 249 0
 10651 0000 00C000E3 		movw	ip, #:lower16:.LANCHOR0
 241:../src/tensorflow_lite/tensorflow/lite/micro/kernels/pad.cc ****   return {/*init=*/pad::Init,
 10652              		.loc 1 241 0
 10653 0004 10402DE9 		push	{r4, lr}
 10654              		.cfi_def_cfa_offset 8
 10655              		.cfi_offset 4, -8
 10656              		.cfi_offset 14, -4
 10657              		.loc 1 249 0
 10658 0008 00C040E3 		movt	ip, #:upper16:.LANCHOR0
 241:../src/tensorflow_lite/tensorflow/lite/micro/kernels/pad.cc ****   return {/*init=*/pad::Init,
 10659              		.loc 1 241 0
 10660 000c 0040A0E1 		mov	r4, r0
 10661              		.loc 1 249 0
 10662 0010 00E0A0E1 		mov	lr, r0
 10663 0014 0F00BCE8 		ldmia	ip!, {r0, r1, r2, r3}
 10664              	.LVL1498:
 10665 0018 0F00AEE8 		stmia	lr!, {r0, r1, r2, r3}
 10666 001c 0F009CE8 		ldm	ip, {r0, r1, r2, r3}
 10667 0020 0F008EE8 		stm	lr, {r0, r1, r2, r3}
 250:../src/tensorflow_lite/tensorflow/lite/micro/kernels/pad.cc **** }
 10668              		.loc 1 250 0
 10669 0024 0400A0E1 		mov	r0, r4
 10670 0028 1080BDE8 		pop	{r4, pc}
 10671              		.cfi_endproc
 10672              	.LFE1323:
 10673              		.cantunwind
 10674              		.fnend
 10676              		.section	.rodata
 10677              		.align	2
 10678              		.set	.LANCHOR0,. + 0
 10679              	.LC0:
 10680 0000 00000000 		.word	_ZN6tflite3ops5micro3pad4InitEP13TfLiteContextPKcj
 10681 0004 00000000 		.word	0
 10682 0008 00000000 		.word	_ZN6tflite3ops5micro3pad7PrepareEP13TfLiteContextP10TfLiteNode
 10683 000c 00000000 		.word	_ZN6tflite3ops5micro3pad4EvalEP13TfLiteContextP10TfLiteNode
 10684 0010 00000000 		.word	0
 10685 0014 00000000 		.word	0
 10686 0018 00000000 		.word	0
 10687 001c 00000000 		.word	0
 10688              		.section	.rodata._ZN6tflite3ops5micro3pad4EvalEP13TfLiteContextP10TfLiteNode.str1.4,"aMS",%progbit
 10689              		.align	2
 10690              	.LC28:
 10691 0000 54797065 		.ascii	"Type %s not currently supported by Pad.\000"
 10691      20257320 
 10691      6E6F7420 
 10691      63757272 
 10691      656E746C 
 10692              		.section	.rodata._ZN6tflite3ops5micro3pad7PrepareEP13TfLiteContextP10TfLiteNode.str1.4,"aMS",%prog
 10693              		.align	2
 10694              	.LC1:
 10695 0000 2E2E2F73 		.ascii	"../src/tensorflow_lite/tensorflow/lite/micro/kernel"
 10695      72632F74 
 10695      656E736F 
 10695      72666C6F 
 10695      775F6C69 
 10696 0033 732F7061 		.ascii	"s/pad.cc\000"
 10696      642E6363 
 10696      00
 10697              	.LC2:
 10698 003c 25733A25 		.ascii	"%s:%d %s != %s (%d != %d)\000"
 10698      64202573 
 10698      20213D20 
 10698      25732028 
 10698      25642021 
 10699 0056 0000     		.space	2
 10700              	.LC3:
 10701 0058 3100     		.ascii	"1\000"
 10702 005a 0000     		.space	2
 10703              	.LC4:
 10704 005c 4E756D4F 		.ascii	"NumOutputs(node)\000"
 10704      75747075 
 10704      7473286E 
 10704      6F646529 
 10704      00
 10705 006d 000000   		.space	3
 10706              	.LC5:
 10707 0070 25733A25 		.ascii	"%s:%d %s was not true.\000"
 10707      64202573 
 10707      20776173 
 10707      206E6F74 
 10707      20747275 
 10708 0087 00       		.space	1
 10709              	.LC6:
 10710 0088 696E7075 		.ascii	"input != nullptr\000"
 10710      7420213D 
 10710      206E756C 
 10710      6C707472 
 10710      00
 10711 0099 000000   		.space	3
 10712              	.LC7:
 10713 009c 70616464 		.ascii	"paddings != nullptr\000"
 10713      696E6773 
 10713      20213D20 
 10713      6E756C6C 
 10713      70747200 
 10714              	.LC8:
 10715 00b0 6F757470 		.ascii	"output != nullptr\000"
 10715      75742021 
 10715      3D206E75 
 10715      6C6C7074 
 10715      7200
 10716 00c2 0000     		.space	2
 10717              	.LC9:
 10718 00c4 6F757470 		.ascii	"output->type\000"
 10718      75742D3E 
 10718      74797065 
 10718      00
 10719 00d1 000000   		.space	3
 10720              	.LC10:
 10721 00d4 696E7075 		.ascii	"input->type\000"
 10721      742D3E74 
 10721      79706500 
 10722              	.LC11:
 10723 00e0 4E756D44 		.ascii	"NumDimensions(input) <= reference_ops::PadKernelMax"
 10723      696D656E 
 10723      73696F6E 
 10723      7328696E 
 10723      70757429 
 10724 0113 44696D65 		.ascii	"DimensionCount()\000"
 10724      6E73696F 
 10724      6E436F75 
 10724      6E742829 
 10724      00
 10725              	.LC12:
 10726 0124 636F6E73 		.ascii	"constant_values->type\000"
 10726      74616E74 
 10726      5F76616C 
 10726      7565732D 
 10726      3E747970 
 10727 013a 0000     		.space	2
 10728              	.LC13:
 10729 013c 4E756D45 		.ascii	"NumElements(constant_values)\000"
 10729      6C656D65 
 10729      6E747328 
 10729      636F6E73 
 10729      74616E74 
 10730 0159 000000   		.space	3
 10731              	.LC14:
 10732 015c 6F757470 		.ascii	"output->dims->size * 2\000"
 10732      75742D3E 
 10732      64696D73 
 10732      2D3E7369 
 10732      7A65202A 
 10733 0173 00       		.space	1
 10734              	.LC15:
 10735 0174 47657454 		.ascii	"GetTensorShape(paddings).FlatSize()\000"
 10735      656E736F 
 10735      72536861 
 10735      70652870 
 10735      61646469 
 10736              	.LC16:
 10737 0198 4973436F 		.ascii	"IsConstantTensor(paddings)\000"
 10737      6E737461 
 10737      6E745465 
 10737      6E736F72 
 10737      28706164 
 10738 01b3 00       		.space	1
 10739              	.LC17:
 10740 01b4 65787065 		.ascii	"expected_dim\000"
 10740      63746564 
 10740      5F64696D 
 10740      00
 10741 01c1 000000   		.space	3
 10742              	.LC18:
 10743 01c4 6F757470 		.ascii	"output_dim\000"
 10743      75745F64 
 10743      696D00
 10744 01cf 00       		.space	1
 10745              	.LC19:
 10746 01d0 6F757470 		.ascii	"output->params.zero_point >= std::numeric_limits<ui"
 10746      75742D3E 
 10746      70617261 
 10746      6D732E7A 
 10746      65726F5F 
 10747 0203 6E74385F 		.ascii	"nt8_t>::min()\000"
 10747      743E3A3A 
 10747      6D696E28 
 10747      2900
 10748 0211 000000   		.space	3
 10749              	.LC20:
 10750 0214 6F757470 		.ascii	"output->params.zero_point <= std::numeric_limits<ui"
 10750      75742D3E 
 10750      70617261 
 10750      6D732E7A 
 10750      65726F5F 
 10751 0247 6E74385F 		.ascii	"nt8_t>::max()\000"
 10751      743E3A3A 
 10751      6D617828 
 10751      2900
 10752 0255 000000   		.space	3
 10753              	.LC21:
 10754 0258 6F757470 		.ascii	"output->params.zero_point >= std::numeric_limits<in"
 10754      75742D3E 
 10754      70617261 
 10754      6D732E7A 
 10754      65726F5F 
 10755 028b 74385F74 		.ascii	"t8_t>::min()\000"
 10755      3E3A3A6D 
 10755      696E2829 
 10755      00
 10756              	.LC22:
 10757 0298 6F757470 		.ascii	"output->params.zero_point <= std::numeric_limits<in"
 10757      75742D3E 
 10757      70617261 
 10757      6D732E7A 
 10757      65726F5F 
 10758 02cb 74385F74 		.ascii	"t8_t>::max()\000"
 10758      3E3A3A6D 
 10758      61782829 
 10758      00
 10759              	.LC23:
 10760 02d8 636F6E73 		.ascii	"constant_values->params.zero_point\000"
 10760      74616E74 
 10760      5F76616C 
 10760      7565732D 
 10760      3E706172 
 10761 02fb 00       		.space	1
 10762              	.LC24:
 10763 02fc 6F757470 		.ascii	"output->params.zero_point\000"
 10763      75742D3E 
 10763      70617261 
 10763      6D732E7A 
 10763      65726F5F 
 10764 0316 0000     		.space	2
 10765              	.LC25:
 10766 0318 73746174 		.ascii	"static_cast<double>(constant_values->params.scale)\000"
 10766      69635F63 
 10766      6173743C 
 10766      646F7562 
 10766      6C653E28 
 10767 034b 00       		.space	1
 10768              	.LC26:
 10769 034c 73746174 		.ascii	"static_cast<double>(output->params.scale)\000"
 10769      69635F63 
 10769      6173743C 
 10769      646F7562 
 10769      6C653E28 
 10770 0376 0000     		.space	2
 10771              	.LC27:
 10772 0378 4E756D49 		.ascii	"NumInputs(node) == 2 || NumInputs(node) == 3\000"
 10772      6E707574 
 10772      73286E6F 
 10772      64652920 
 10772      3D3D2032 
 10773              		.text
 10774              	.Letext0:
 10775              		.file 7 "c:\\program files (x86)\\gnu tools arm embedded\\6 2017-q2-update\\arm-none-eabi\\include
 10776              		.file 8 "c:\\program files (x86)\\gnu tools arm embedded\\6 2017-q2-update\\arm-none-eabi\\include
 10777              		.file 9 "c:\\program files (x86)\\gnu tools arm embedded\\6 2017-q2-update\\arm-none-eabi\\include
 10778              		.file 10 "c:\\program files (x86)\\gnu tools arm embedded\\6 2017-q2-update\\arm-none-eabi\\includ
 10779              		.file 11 "c:\\program files (x86)\\gnu tools arm embedded\\6 2017-q2-update\\arm-none-eabi\\includ
 10780              		.file 12 "c:\\program files (x86)\\gnu tools arm embedded\\6 2017-q2-update\\arm-none-eabi\\includ
 10781              		.file 13 "c:\\program files (x86)\\gnu tools arm embedded\\6 2017-q2-update\\arm-none-eabi\\includ
 10782              		.file 14 "c:\\program files (x86)\\gnu tools arm embedded\\6 2017-q2-update\\arm-none-eabi\\includ
 10783              		.file 15 "c:\\program files (x86)\\gnu tools arm embedded\\6 2017-q2-update\\arm-none-eabi\\includ
 10784              		.file 16 "c:\\program files (x86)\\gnu tools arm embedded\\6 2017-q2-update\\arm-none-eabi\\includ
 10785              		.file 17 "c:\\program files (x86)\\gnu tools arm embedded\\6 2017-q2-update\\arm-none-eabi\\includ
 10786              		.file 18 "c:\\program files (x86)\\gnu tools arm embedded\\6 2017-q2-update\\arm-none-eabi\\includ
 10787              		.file 19 "c:\\program files (x86)\\gnu tools arm embedded\\6 2017-q2-update\\arm-none-eabi\\includ
 10788              		.file 20 "c:\\program files (x86)\\gnu tools arm embedded\\6 2017-q2-update\\arm-none-eabi\\includ
 10789              		.file 21 "c:\\program files (x86)\\gnu tools arm embedded\\6 2017-q2-update\\arm-none-eabi\\includ
 10790              		.file 22 "c:\\program files (x86)\\gnu tools arm embedded\\6 2017-q2-update\\arm-none-eabi\\includ
 10791              		.file 23 "c:\\program files (x86)\\gnu tools arm embedded\\6 2017-q2-update\\lib\\gcc\\arm-none-ea
 10792              		.file 24 "c:\\program files (x86)\\gnu tools arm embedded\\6 2017-q2-update\\arm-none-eabi\\includ
 10793              		.file 25 "c:\\program files (x86)\\gnu tools arm embedded\\6 2017-q2-update\\arm-none-eabi\\includ
 10794              		.file 26 "c:\\program files (x86)\\gnu tools arm embedded\\6 2017-q2-update\\arm-none-eabi\\includ
 10795              		.file 27 "c:\\program files (x86)\\gnu tools arm embedded\\6 2017-q2-update\\arm-none-eabi\\includ
 10796              		.file 28 "c:\\program files (x86)\\gnu tools arm embedded\\6 2017-q2-update\\arm-none-eabi\\includ
 10797              		.file 29 "c:\\program files (x86)\\gnu tools arm embedded\\6 2017-q2-update\\arm-none-eabi\\includ
 10798              		.file 30 "c:\\program files (x86)\\gnu tools arm embedded\\6 2017-q2-update\\arm-none-eabi\\includ
 10799              		.file 31 "c:\\program files (x86)\\gnu tools arm embedded\\6 2017-q2-update\\arm-none-eabi\\includ
 10800              		.file 32 "c:\\program files (x86)\\gnu tools arm embedded\\6 2017-q2-update\\arm-none-eabi\\includ
 10801              		.file 33 "<built-in>"
 10802              		.file 34 "C:/Renesas/e2studio_2021_01_workspace_RZA2M_ANPR/ANPR_RZA2M_GR_MANGO/src/tensorflow_lite
 10803              		.file 35 "C:/Renesas/e2studio_2021_01_workspace_RZA2M_ANPR/ANPR_RZA2M_GR_MANGO/src/tensorflow_lite
DEFINED SYMBOLS
                            *ABS*:00000000 pad.cc
C:\Users\a5050395\AppData\Local\Temp\ccAlNvga.s:17     .text._ZN6tflite3ops5micro3pad4InitEP13TfLiteContextPKcj:00000000 $a
C:\Users\a5050395\AppData\Local\Temp\ccAlNvga.s:23     .text._ZN6tflite3ops5micro3pad4InitEP13TfLiteContextPKcj:00000000 _ZN6tflite3ops5micro3pad4InitEP13TfLiteContextPKcj
.ARM.exidx.text._ZN6tflite3ops5micro3pad4InitEP13TfLiteContextPKcj:00000000 $d
C:\Users\a5050395\AppData\Local\Temp\ccAlNvga.s:56     .text._ZN6tflite3ops5micro3pad7PrepareEP13TfLiteContextP10TfLiteNode:00000000 $a
C:\Users\a5050395\AppData\Local\Temp\ccAlNvga.s:62     .text._ZN6tflite3ops5micro3pad7PrepareEP13TfLiteContextP10TfLiteNode:00000000 _ZN6tflite3ops5micro3pad7PrepareEP13TfLiteContextP10TfLiteNode
C:\Users\a5050395\AppData\Local\Temp\ccAlNvga.s:10771  .rodata._ZN6tflite3ops5micro3pad7PrepareEP13TfLiteContextP10TfLiteNode.str1.4:00000378 .LC27
C:\Users\a5050395\AppData\Local\Temp\ccAlNvga.s:10694  .rodata._ZN6tflite3ops5micro3pad7PrepareEP13TfLiteContextP10TfLiteNode.str1.4:00000000 .LC1
C:\Users\a5050395\AppData\Local\Temp\ccAlNvga.s:10706  .rodata._ZN6tflite3ops5micro3pad7PrepareEP13TfLiteContextP10TfLiteNode.str1.4:00000070 .LC5
C:\Users\a5050395\AppData\Local\Temp\ccAlNvga.s:10700  .rodata._ZN6tflite3ops5micro3pad7PrepareEP13TfLiteContextP10TfLiteNode.str1.4:00000058 .LC3
C:\Users\a5050395\AppData\Local\Temp\ccAlNvga.s:10703  .rodata._ZN6tflite3ops5micro3pad7PrepareEP13TfLiteContextP10TfLiteNode.str1.4:0000005c .LC4
C:\Users\a5050395\AppData\Local\Temp\ccAlNvga.s:10697  .rodata._ZN6tflite3ops5micro3pad7PrepareEP13TfLiteContextP10TfLiteNode.str1.4:0000003c .LC2
C:\Users\a5050395\AppData\Local\Temp\ccAlNvga.s:10728  .rodata._ZN6tflite3ops5micro3pad7PrepareEP13TfLiteContextP10TfLiteNode.str1.4:0000013c .LC13
C:\Users\a5050395\AppData\Local\Temp\ccAlNvga.s:10717  .rodata._ZN6tflite3ops5micro3pad7PrepareEP13TfLiteContextP10TfLiteNode.str1.4:000000c4 .LC9
C:\Users\a5050395\AppData\Local\Temp\ccAlNvga.s:10720  .rodata._ZN6tflite3ops5micro3pad7PrepareEP13TfLiteContextP10TfLiteNode.str1.4:000000d4 .LC10
C:\Users\a5050395\AppData\Local\Temp\ccAlNvga.s:10731  .rodata._ZN6tflite3ops5micro3pad7PrepareEP13TfLiteContextP10TfLiteNode.str1.4:0000015c .LC14
C:\Users\a5050395\AppData\Local\Temp\ccAlNvga.s:10734  .rodata._ZN6tflite3ops5micro3pad7PrepareEP13TfLiteContextP10TfLiteNode.str1.4:00000174 .LC15
C:\Users\a5050395\AppData\Local\Temp\ccAlNvga.s:10725  .rodata._ZN6tflite3ops5micro3pad7PrepareEP13TfLiteContextP10TfLiteNode.str1.4:00000124 .LC12
C:\Users\a5050395\AppData\Local\Temp\ccAlNvga.s:10722  .rodata._ZN6tflite3ops5micro3pad7PrepareEP13TfLiteContextP10TfLiteNode.str1.4:000000e0 .LC11
C:\Users\a5050395\AppData\Local\Temp\ccAlNvga.s:10709  .rodata._ZN6tflite3ops5micro3pad7PrepareEP13TfLiteContextP10TfLiteNode.str1.4:00000088 .LC6
C:\Users\a5050395\AppData\Local\Temp\ccAlNvga.s:10712  .rodata._ZN6tflite3ops5micro3pad7PrepareEP13TfLiteContextP10TfLiteNode.str1.4:0000009c .LC7
C:\Users\a5050395\AppData\Local\Temp\ccAlNvga.s:10714  .rodata._ZN6tflite3ops5micro3pad7PrepareEP13TfLiteContextP10TfLiteNode.str1.4:000000b0 .LC8
C:\Users\a5050395\AppData\Local\Temp\ccAlNvga.s:10736  .rodata._ZN6tflite3ops5micro3pad7PrepareEP13TfLiteContextP10TfLiteNode.str1.4:00000198 .LC16
C:\Users\a5050395\AppData\Local\Temp\ccAlNvga.s:10739  .rodata._ZN6tflite3ops5micro3pad7PrepareEP13TfLiteContextP10TfLiteNode.str1.4:000001b4 .LC17
C:\Users\a5050395\AppData\Local\Temp\ccAlNvga.s:10742  .rodata._ZN6tflite3ops5micro3pad7PrepareEP13TfLiteContextP10TfLiteNode.str1.4:000001c4 .LC18
C:\Users\a5050395\AppData\Local\Temp\ccAlNvga.s:10759  .rodata._ZN6tflite3ops5micro3pad7PrepareEP13TfLiteContextP10TfLiteNode.str1.4:000002d8 .LC23
C:\Users\a5050395\AppData\Local\Temp\ccAlNvga.s:10762  .rodata._ZN6tflite3ops5micro3pad7PrepareEP13TfLiteContextP10TfLiteNode.str1.4:000002fc .LC24
C:\Users\a5050395\AppData\Local\Temp\ccAlNvga.s:10756  .rodata._ZN6tflite3ops5micro3pad7PrepareEP13TfLiteContextP10TfLiteNode.str1.4:00000298 .LC22
C:\Users\a5050395\AppData\Local\Temp\ccAlNvga.s:10765  .rodata._ZN6tflite3ops5micro3pad7PrepareEP13TfLiteContextP10TfLiteNode.str1.4:00000318 .LC25
C:\Users\a5050395\AppData\Local\Temp\ccAlNvga.s:10768  .rodata._ZN6tflite3ops5micro3pad7PrepareEP13TfLiteContextP10TfLiteNode.str1.4:0000034c .LC26
C:\Users\a5050395\AppData\Local\Temp\ccAlNvga.s:10753  .rodata._ZN6tflite3ops5micro3pad7PrepareEP13TfLiteContextP10TfLiteNode.str1.4:00000258 .LC21
C:\Users\a5050395\AppData\Local\Temp\ccAlNvga.s:10749  .rodata._ZN6tflite3ops5micro3pad7PrepareEP13TfLiteContextP10TfLiteNode.str1.4:00000214 .LC20
C:\Users\a5050395\AppData\Local\Temp\ccAlNvga.s:10745  .rodata._ZN6tflite3ops5micro3pad7PrepareEP13TfLiteContextP10TfLiteNode.str1.4:000001d0 .LC19
.ARM.extab.text._ZN6tflite3ops5micro3pad7PrepareEP13TfLiteContextP10TfLiteNode:00000000 $d
.ARM.exidx.text._ZN6tflite3ops5micro3pad7PrepareEP13TfLiteContextP10TfLiteNode:00000000 $d
C:\Users\a5050395\AppData\Local\Temp\ccAlNvga.s:2034   .text._ZN6tflite3ops5micro3pad4EvalEP13TfLiteContextP10TfLiteNode:00000000 $a
C:\Users\a5050395\AppData\Local\Temp\ccAlNvga.s:2040   .text._ZN6tflite3ops5micro3pad4EvalEP13TfLiteContextP10TfLiteNode:00000000 _ZN6tflite3ops5micro3pad4EvalEP13TfLiteContextP10TfLiteNode
C:\Users\a5050395\AppData\Local\Temp\ccAlNvga.s:2119   .text._ZN6tflite3ops5micro3pad4EvalEP13TfLiteContextP10TfLiteNode:00000074 $d
C:\Users\a5050395\AppData\Local\Temp\ccAlNvga.s:2132   .text._ZN6tflite3ops5micro3pad4EvalEP13TfLiteContextP10TfLiteNode:00000098 $a
C:\Users\a5050395\AppData\Local\Temp\ccAlNvga.s:10690  .rodata._ZN6tflite3ops5micro3pad4EvalEP13TfLiteContextP10TfLiteNode.str1.4:00000000 .LC28
C:\Users\a5050395\AppData\Local\Temp\ccAlNvga.s:7406   .text._ZN6tflite3ops5micro3pad4EvalEP13TfLiteContextP10TfLiteNode:00001db0 $d
C:\Users\a5050395\AppData\Local\Temp\ccAlNvga.s:7417   .text._ZN6tflite3ops5micro3pad4EvalEP13TfLiteContextP10TfLiteNode:00001dd4 $a
.ARM.extab.text._ZN6tflite3ops5micro3pad4EvalEP13TfLiteContextP10TfLiteNode:00000000 $d
.ARM.exidx.text._ZN6tflite3ops5micro3pad4EvalEP13TfLiteContextP10TfLiteNode:00000000 $d
C:\Users\a5050395\AppData\Local\Temp\ccAlNvga.s:10604  .text._ZN6tflite3ops5micro12Register_PADEv:00000000 $a
C:\Users\a5050395\AppData\Local\Temp\ccAlNvga.s:10610  .text._ZN6tflite3ops5micro12Register_PADEv:00000000 _ZN6tflite3ops5micro12Register_PADEv
C:\Users\a5050395\AppData\Local\Temp\ccAlNvga.s:10678  .rodata:00000000 .LANCHOR0
.ARM.exidx.text._ZN6tflite3ops5micro12Register_PADEv:00000000 $d
C:\Users\a5050395\AppData\Local\Temp\ccAlNvga.s:10636  .text._ZN6tflite3ops5micro14Register_PADV2Ev:00000000 $a
C:\Users\a5050395\AppData\Local\Temp\ccAlNvga.s:10642  .text._ZN6tflite3ops5micro14Register_PADV2Ev:00000000 _ZN6tflite3ops5micro14Register_PADV2Ev
.ARM.exidx.text._ZN6tflite3ops5micro14Register_PADV2Ev:00000000 $d
C:\Users\a5050395\AppData\Local\Temp\ccAlNvga.s:10677  .rodata:00000000 $d
C:\Users\a5050395\AppData\Local\Temp\ccAlNvga.s:10689  .rodata._ZN6tflite3ops5micro3pad4EvalEP13TfLiteContextP10TfLiteNode.str1.4:00000000 $d
C:\Users\a5050395\AppData\Local\Temp\ccAlNvga.s:10693  .rodata._ZN6tflite3ops5micro3pad7PrepareEP13TfLiteContextP10TfLiteNode.str1.4:00000000 $d
                     .debug_frame:00000010 $d
                           .group:00000000 wm4.0.3e1481985cce1e923928453d8be0a65b
                           .group:00000000 wm4.cconfig.h.31.1472b8c7bd4952a63a52f3f4f718f872
                           .group:00000000 wm4.cpu_defines.h.31.54d44f9d3e7c42875c5a7fd49795eb93
                           .group:00000000 wm4.cconfig.h.515.5e729db314ae74226e291b4ae081e353
                           .group:00000000 wm4.exception_defines.h.31.ca6841b9be3287386aafc5c717935b2e
                           .group:00000000 wm4.cpp_type_traits.h.33.9f2bfd8c4471a9a299f6da3ec24c745c
                           .group:00000000 wm4.numeric_traits.h.30.aa01a98564b7e55086aad9e53c7e5c53
                           .group:00000000 wm4.concept_check.h.31.f19605d278e56917c68a56d378be308c
                           .group:00000000 wm4.type_traits.30.2c7323a483bcd7601e8b71d2546ae284
                           .group:00000000 wm4.move.h.152.41d7b9e6779674d169b7813982cfa003
                           .group:00000000 wm4.assertions.h.30.51d443923f0d242550e04246a7819b39
                           .group:00000000 wm4.stl_iterator.h.1250.45f349a262f1b0d836d8edbc4b7b98ff
                           .group:00000000 wm4.debug.h.30.5c1f223b12199e851d4d42805b788ccf
                           .group:00000000 wm4.stl_algobase.h.491.aa250b69c90aafa2a0a62b8c58cd5f30
                           .group:00000000 wm4.atomic_lockfree_defines.h.31.d5c6334fb1e95c9462b052951f1411df
                           .group:00000000 wm4.allocator.h.52.0ceafb36dc1b82dbfa6b05003082e3f5
                           .group:00000000 wm4.alloc_traits.h.31.c41c7c4789404962122a4e991dfa3abf
                           .group:00000000 wm4.functional_hash.h.98.3bf7680ffcc8d24d09fa83ac1339c79d
                           .group:00000000 wm4.cstdlib.44.52c5efdfb0f3c176bd11e611a0b94959
                           .group:00000000 wm4._newlib_version.h.4.3572908597b70d672d181fc7fc501c19
                           .group:00000000 wm4.newlib.h.21.59901f4bf241ab46c63694665baa7297
                           .group:00000000 wm4.features.h.22.37852b648068a281464730a5a4cc748e
                           .group:00000000 wm4.config.h.219.65a553ab5bef5482f0d7880b0d33015e
                           .group:00000000 wm4._ansi.h.23.1ee1144430bedaab1a14c7b57a6c8384
                           .group:00000000 wm4.stdlib.h.13.4ed386f5c1a80d71e72172885d946ef2
                           .group:00000000 wm4.stddef.h.187.e3ca1cb00044c044f8b956a6107cebb6
                           .group:00000000 wm4.stddef.h.39.60c5e3eb202f4a8f413509aeb6ad39fb
                           .group:00000000 wm4._default_types.h.6.959254cf5f09734ea7516c89e8bb21bd
                           .group:00000000 wm4.lock.h.2.1461d1fff82dffe8bfddc23307f6484f
                           .group:00000000 wm4._types.h.125.5cf8a495f1f7ef36777ad868a1e32068
                           .group:00000000 wm4.stddef.h.161.7e98c9c86da0ed2d27af2ef92af7d013
                           .group:00000000 wm4._types.h.183.c226d164ceca1f2ecb9ae9360c54a098
                           .group:00000000 wm4.reent.h.17.23b059516345f8f5abfa01ddc379570f
                           .group:00000000 wm4.cdefs.h.47.9bc8274c84fddbf05edd550eb0bf48cd
                           .group:00000000 wm4.stdlib.h.56.b4ddaf162082f284ba35b4444af99a9a
                           .group:00000000 wm4.cstdlib.76.ae666499c8f9b0ace1b4b23fe143da2c
                           .group:00000000 wm4.limits.38.55aefcf041805b6211ca3649dd2ab1b5
                           .group:00000000 wm4.stdint.h.4.659be5aa44c4ab4eb7c7cc2b24d8ceee
                           .group:00000000 wm4._intsup.h.10.cce27fed8484c08a33f522034c30d2b5
                           .group:00000000 wm4._stdint.h.10.c24fa3af3bc1706662bb5593a907e841
                           .group:00000000 wm4.stdint.h.23.d53047a68f4a85177f80b422d52785ed
                           .group:00000000 wm4.string.h.8.c4b8571ce60dff2817f43fec8b86aecd
                           .group:00000000 wm4.stddef.h.161.38688f2eb958a8ed58fdb61ffe554c94
                           .group:00000000 wm4.cstring.45.6ab09de7fb97b576e744347688ddc8d7
                           .group:00000000 wm4.stdio.h.27.3fc80220048df77954e38daec3bb9670
                           .group:00000000 wm4.stdarg.h.34.3a23a216c0c293b3d2ea2e89281481e6
                           .group:00000000 wm4.types.h.40.e8c16e7ec36ba55f133d0616070e25fc
                           .group:00000000 wm4.types.h.114.fb65732f4f5f288a036a25898de2c91f
                           .group:00000000 wm4.stdio.h.2.4aa87247282eca6c8f36f9de33d8df1a
                           .group:00000000 wm4.stdio.h.81.7ccf35811a8d906c9cfd8de381f5758a
                           .group:00000000 wm4.cstdio.45.ba8d321feb18bfc8923454067605c368
                           .group:00000000 wm4.op_macros.h.42.7b718cb416a067e7bb07e7699647769b
                           .group:00000000 wm4.compatibility.h.23.702d6356326ea59aded8ef5c6c4626d5
                           .group:00000000 wm4.stdbool.h.29.01580e438512fc255c0619569742ffd3
                           .group:00000000 wm4.c_api_types.h.20.9b09175981ed746180e205cc0b4b2bfd
                           .group:00000000 wm4.common.h.77.124de099ec0ac4f95ebf1618a5f42cf6

UNDEFINED SYMBOLS
abort
__aeabi_unwind_cpp_pr0
__gxx_personality_v0
_ZN6tflite8GetInputEPK13TfLiteContextPK10TfLiteNodei
_ZN6tflite9GetOutputEP13TfLiteContextPK10TfLiteNodei
_Znaj
memcpy
_ZdaPv
__cxa_throw_bad_array_new_length
__cxa_end_cleanup
_ZN6tflite5micro14GetTensorShapeEPK16TfLiteEvalTensor
memset
TfLiteTypeGetName
