   1              		.cpu cortex-a9
   2              		.eabi_attribute 28, 1
   3              		.eabi_attribute 20, 1
   4              		.eabi_attribute 21, 1
   5              		.eabi_attribute 23, 3
   6              		.eabi_attribute 24, 1
   7              		.eabi_attribute 25, 1
   8              		.eabi_attribute 26, 1
   9              		.eabi_attribute 30, 2
  10              		.eabi_attribute 34, 0
  11              		.eabi_attribute 18, 4
  12              		.file	"reduce.cc"
  13              		.text
  14              	.Ltext0:
  15              		.cfi_sections	.debug_frame
  16              		.section	.text._ZN6tflite3ops5micro6reduce10InitReduceEP13TfLiteContextPKcj,"ax",%progbits
  17              		.align	2
  18              		.global	_ZN6tflite3ops5micro6reduce10InitReduceEP13TfLiteContextPKcj
  19              		.syntax unified
  20              		.arm
  21              		.fpu neon
  23              	_ZN6tflite3ops5micro6reduce10InitReduceEP13TfLiteContextPKcj:
  24              		.fnstart
  25              	.LFB4191:
  26              		.file 1 "../src/tensorflow_lite/tensorflow/lite/micro/kernels/reduce.cc"
   1:../src/tensorflow_lite/tensorflow/lite/micro/kernels/reduce.cc **** /* Copyright 2019 The TensorFlow Authors. All Rights Reserved.
   2:../src/tensorflow_lite/tensorflow/lite/micro/kernels/reduce.cc **** 
   3:../src/tensorflow_lite/tensorflow/lite/micro/kernels/reduce.cc **** Licensed under the Apache License, Version 2.0 (the "License");
   4:../src/tensorflow_lite/tensorflow/lite/micro/kernels/reduce.cc **** you may not use this file except in compliance with the License.
   5:../src/tensorflow_lite/tensorflow/lite/micro/kernels/reduce.cc **** You may obtain a copy of the License at
   6:../src/tensorflow_lite/tensorflow/lite/micro/kernels/reduce.cc **** 
   7:../src/tensorflow_lite/tensorflow/lite/micro/kernels/reduce.cc ****     http://www.apache.org/licenses/LICENSE-2.0
   8:../src/tensorflow_lite/tensorflow/lite/micro/kernels/reduce.cc **** 
   9:../src/tensorflow_lite/tensorflow/lite/micro/kernels/reduce.cc **** Unless required by applicable law or agreed to in writing, software
  10:../src/tensorflow_lite/tensorflow/lite/micro/kernels/reduce.cc **** distributed under the License is distributed on an "AS IS" BASIS,
  11:../src/tensorflow_lite/tensorflow/lite/micro/kernels/reduce.cc **** WITHOUT WARRANTIES OR CONDITIONS OF ANY KIND, either express or implied.
  12:../src/tensorflow_lite/tensorflow/lite/micro/kernels/reduce.cc **** See the License for the specific language governing permissions and
  13:../src/tensorflow_lite/tensorflow/lite/micro/kernels/reduce.cc **** limitations under the License.
  14:../src/tensorflow_lite/tensorflow/lite/micro/kernels/reduce.cc **** ==============================================================================*/
  15:../src/tensorflow_lite/tensorflow/lite/micro/kernels/reduce.cc **** 
  16:../src/tensorflow_lite/tensorflow/lite/micro/kernels/reduce.cc **** #include "tensorflow/lite/kernels/internal/reference/reduce.h"
  17:../src/tensorflow_lite/tensorflow/lite/micro/kernels/reduce.cc **** 
  18:../src/tensorflow_lite/tensorflow/lite/micro/kernels/reduce.cc **** #include "tensorflow/lite/c/builtin_op_data.h"
  19:../src/tensorflow_lite/tensorflow/lite/micro/kernels/reduce.cc **** #include "tensorflow/lite/c/common.h"
  20:../src/tensorflow_lite/tensorflow/lite/micro/kernels/reduce.cc **** #include "tensorflow/lite/kernels/internal/quantization_util.h"
  21:../src/tensorflow_lite/tensorflow/lite/micro/kernels/reduce.cc **** #include "tensorflow/lite/kernels/internal/reference/integer_ops/mean.h"
  22:../src/tensorflow_lite/tensorflow/lite/micro/kernels/reduce.cc **** #include "tensorflow/lite/kernels/internal/tensor_ctypes.h"
  23:../src/tensorflow_lite/tensorflow/lite/micro/kernels/reduce.cc **** #include "tensorflow/lite/kernels/internal/types.h"
  24:../src/tensorflow_lite/tensorflow/lite/micro/kernels/reduce.cc **** #include "tensorflow/lite/kernels/kernel_util.h"
  25:../src/tensorflow_lite/tensorflow/lite/micro/kernels/reduce.cc **** #include "tensorflow/lite/micro/kernels/kernel_util.h"
  26:../src/tensorflow_lite/tensorflow/lite/micro/kernels/reduce.cc **** #include "tensorflow/lite/micro/micro_utils.h"
  27:../src/tensorflow_lite/tensorflow/lite/micro/kernels/reduce.cc **** 
  28:../src/tensorflow_lite/tensorflow/lite/micro/kernels/reduce.cc **** namespace tflite {
  29:../src/tensorflow_lite/tensorflow/lite/micro/kernels/reduce.cc **** namespace ops {
  30:../src/tensorflow_lite/tensorflow/lite/micro/kernels/reduce.cc **** namespace micro {
  31:../src/tensorflow_lite/tensorflow/lite/micro/kernels/reduce.cc **** namespace reduce {
  32:../src/tensorflow_lite/tensorflow/lite/micro/kernels/reduce.cc **** 
  33:../src/tensorflow_lite/tensorflow/lite/micro/kernels/reduce.cc **** constexpr int kMaxNumberOfAxis = 4;
  34:../src/tensorflow_lite/tensorflow/lite/micro/kernels/reduce.cc **** constexpr int kMaxNumberOfReducedAxis = 2;
  35:../src/tensorflow_lite/tensorflow/lite/micro/kernels/reduce.cc **** 
  36:../src/tensorflow_lite/tensorflow/lite/micro/kernels/reduce.cc **** struct OpData {
  37:../src/tensorflow_lite/tensorflow/lite/micro/kernels/reduce.cc ****   int32_t multiplier;
  38:../src/tensorflow_lite/tensorflow/lite/micro/kernels/reduce.cc ****   int shift;
  39:../src/tensorflow_lite/tensorflow/lite/micro/kernels/reduce.cc ****   int temp_buffer_idx;
  40:../src/tensorflow_lite/tensorflow/lite/micro/kernels/reduce.cc ****   int resolved_axis_idx;
  41:../src/tensorflow_lite/tensorflow/lite/micro/kernels/reduce.cc ****   int input_zp;
  42:../src/tensorflow_lite/tensorflow/lite/micro/kernels/reduce.cc ****   float input_scale;
  43:../src/tensorflow_lite/tensorflow/lite/micro/kernels/reduce.cc ****   int output_zp;
  44:../src/tensorflow_lite/tensorflow/lite/micro/kernels/reduce.cc ****   float output_scale;
  45:../src/tensorflow_lite/tensorflow/lite/micro/kernels/reduce.cc ****   int num_output_elements;
  46:../src/tensorflow_lite/tensorflow/lite/micro/kernels/reduce.cc **** };
  47:../src/tensorflow_lite/tensorflow/lite/micro/kernels/reduce.cc **** 
  48:../src/tensorflow_lite/tensorflow/lite/micro/kernels/reduce.cc **** void* InitReduce(TfLiteContext* context, const char* buffer, size_t length) {
  27              		.loc 1 48 0
  28              		.cfi_startproc
  29              		@ args = 0, pretend = 0, frame = 0
  30              		@ frame_needed = 0, uses_anonymous_args = 0
  31              		@ link register save eliminated.
  32              	.LVL0:
  49:../src/tensorflow_lite/tensorflow/lite/micro/kernels/reduce.cc ****   return context->AllocatePersistentBuffer(context, sizeof(OpData));
  33              		.loc 1 49 0
  34 0000 383090E5 		ldr	r3, [r0, #56]
  35 0004 2410A0E3 		mov	r1, #36
  36              	.LVL1:
  37 0008 13FF2FE1 		bx	r3
  38              	.LVL2:
  39              		.cfi_endproc
  40              	.LFE4191:
  41              		.cantunwind
  42              		.fnend
  44              		.section	.text._ZN6tflite3ops5micro6reduce10PrepareMaxEP13TfLiteContextP10TfLiteNode,"ax",%progbit
  45              		.align	2
  46              		.global	_ZN6tflite3ops5micro6reduce10PrepareMaxEP13TfLiteContextP10TfLiteNode
  47              		.syntax unified
  48              		.arm
  49              		.fpu neon
  51              	_ZN6tflite3ops5micro6reduce10PrepareMaxEP13TfLiteContextP10TfLiteNode:
  52              		.fnstart
  53              	.LFB4193:
  50:../src/tensorflow_lite/tensorflow/lite/micro/kernels/reduce.cc **** }
  51:../src/tensorflow_lite/tensorflow/lite/micro/kernels/reduce.cc **** 
  52:../src/tensorflow_lite/tensorflow/lite/micro/kernels/reduce.cc **** TfLiteStatus PrepareSimple(TfLiteContext* context, TfLiteNode* node) {
  53:../src/tensorflow_lite/tensorflow/lite/micro/kernels/reduce.cc ****   // Inputs Tensor (dtype depends on quantization):
  54:../src/tensorflow_lite/tensorflow/lite/micro/kernels/reduce.cc ****   // [0] = Input
  55:../src/tensorflow_lite/tensorflow/lite/micro/kernels/reduce.cc ****   // [1] = Axis
  56:../src/tensorflow_lite/tensorflow/lite/micro/kernels/reduce.cc ****   const TfLiteTensor* input = GetInput(context, node, 0);
  57:../src/tensorflow_lite/tensorflow/lite/micro/kernels/reduce.cc **** 
  58:../src/tensorflow_lite/tensorflow/lite/micro/kernels/reduce.cc ****   // Outputs Tensor (dtype depends on quantization):
  59:../src/tensorflow_lite/tensorflow/lite/micro/kernels/reduce.cc ****   // [0] = Output
  60:../src/tensorflow_lite/tensorflow/lite/micro/kernels/reduce.cc **** 
  61:../src/tensorflow_lite/tensorflow/lite/micro/kernels/reduce.cc ****   // Validate number of inputs and outputs
  62:../src/tensorflow_lite/tensorflow/lite/micro/kernels/reduce.cc ****   TF_LITE_ENSURE_EQ(context, node->inputs->size, 2);
  63:../src/tensorflow_lite/tensorflow/lite/micro/kernels/reduce.cc ****   TF_LITE_ENSURE_EQ(context, node->outputs->size, 1);
  64:../src/tensorflow_lite/tensorflow/lite/micro/kernels/reduce.cc **** 
  65:../src/tensorflow_lite/tensorflow/lite/micro/kernels/reduce.cc ****   // Validate axis type
  66:../src/tensorflow_lite/tensorflow/lite/micro/kernels/reduce.cc ****   const TfLiteTensor* axis = GetInput(context, node, 1);
  67:../src/tensorflow_lite/tensorflow/lite/micro/kernels/reduce.cc ****   TF_LITE_ENSURE(context, axis != nullptr);
  68:../src/tensorflow_lite/tensorflow/lite/micro/kernels/reduce.cc ****   TF_LITE_ENSURE_TYPES_EQ(context, axis->type, kTfLiteInt32);
  69:../src/tensorflow_lite/tensorflow/lite/micro/kernels/reduce.cc **** 
  70:../src/tensorflow_lite/tensorflow/lite/micro/kernels/reduce.cc ****   if (input->type == kTfLiteInt8) {
  71:../src/tensorflow_lite/tensorflow/lite/micro/kernels/reduce.cc ****     OpData* data = static_cast<OpData*>(node->user_data);
  72:../src/tensorflow_lite/tensorflow/lite/micro/kernels/reduce.cc ****     const TfLiteTensor* output = GetOutput(context, node, 0);
  73:../src/tensorflow_lite/tensorflow/lite/micro/kernels/reduce.cc ****     const double real_multiplier = static_cast<double>(input->params.scale) /
  74:../src/tensorflow_lite/tensorflow/lite/micro/kernels/reduce.cc ****                                    static_cast<double>(output->params.scale);
  75:../src/tensorflow_lite/tensorflow/lite/micro/kernels/reduce.cc ****     QuantizeMultiplier(real_multiplier, &data->multiplier, &data->shift);
  76:../src/tensorflow_lite/tensorflow/lite/micro/kernels/reduce.cc ****   }
  77:../src/tensorflow_lite/tensorflow/lite/micro/kernels/reduce.cc **** 
  78:../src/tensorflow_lite/tensorflow/lite/micro/kernels/reduce.cc ****   return kTfLiteOk;
  79:../src/tensorflow_lite/tensorflow/lite/micro/kernels/reduce.cc **** }
  80:../src/tensorflow_lite/tensorflow/lite/micro/kernels/reduce.cc **** 
  81:../src/tensorflow_lite/tensorflow/lite/micro/kernels/reduce.cc **** TfLiteStatus PrepareMax(TfLiteContext* context, TfLiteNode* node) {
  54              		.loc 1 81 0
  55              		.cfi_startproc
  56              		@ args = 0, pretend = 0, frame = 32
  57              		@ frame_needed = 0, uses_anonymous_args = 0
  58              	.LVL3:
  59 0000 F04F2DE9 		push	{r4, r5, r6, r7, r8, r9, r10, fp, lr}
  60              		.save {r4, r5, r6, r7, r8, r9, r10, fp, lr}
  61              		.cfi_def_cfa_offset 36
  62              		.cfi_offset 4, -36
  63              		.cfi_offset 5, -32
  64              		.cfi_offset 6, -28
  65              		.cfi_offset 7, -24
  66              		.cfi_offset 8, -20
  67              		.cfi_offset 9, -16
  68              		.cfi_offset 10, -12
  69              		.cfi_offset 11, -8
  70              		.cfi_offset 14, -4
  71              	.LBB586:
  72              	.LBB587:
  73              	.LBB588:
  56:../src/tensorflow_lite/tensorflow/lite/micro/kernels/reduce.cc **** 
  74              		.loc 1 56 0
  75 0004 0020A0E3 		mov	r2, #0
  76              	.LBE588:
  77              	.LBE587:
  78              	.LBE586:
  79              		.loc 1 81 0
  80              		.pad #52
  81 0008 34D04DE2 		sub	sp, sp, #52
  82              		.cfi_def_cfa_offset 88
  83              		.loc 1 81 0
  84 000c 0140A0E1 		mov	r4, r1
  85 0010 0050A0E1 		mov	r5, r0
  86 0014 14008DE5 		str	r0, [sp, #20]
  87              	.LVL4:
  88              	.LBB602:
  89              	.LBB597:
  90              	.LBB592:
  56:../src/tensorflow_lite/tensorflow/lite/micro/kernels/reduce.cc **** 
  91              		.loc 1 56 0
  92 0018 FEFFFFEB 		bl	_ZN6tflite8GetInputEPK13TfLiteContextPK10TfLiteNodei
  93              	.LVL5:
  62:../src/tensorflow_lite/tensorflow/lite/micro/kernels/reduce.cc ****   TF_LITE_ENSURE_EQ(context, node->outputs->size, 1);
  94              		.loc 1 62 0
  95 001c 003094E5 		ldr	r3, [r4]
  96 0020 006093E5 		ldr	r6, [r3]
  97 0024 020056E3 		cmp	r6, #2
  98 0028 AC00001A 		bne	.L22
  63:../src/tensorflow_lite/tensorflow/lite/micro/kernels/reduce.cc **** 
  99              		.loc 1 63 0
 100 002c 043094E5 		ldr	r3, [r4, #4]
 101 0030 005093E5 		ldr	r5, [r3]
 102              	.LVL6:
 103 0034 010055E3 		cmp	r5, #1
 104 0038 1300000A 		beq	.L5
 105 003c 003000E3 		movw	r3, #:lower16:.LC7
 106 0040 000000E3 		movw	r0, #:lower16:.LC6
 107              	.LVL7:
 108 0044 003040E3 		movt	r3, #:upper16:.LC7
 109 0048 000040E3 		movt	r0, #:upper16:.LC6
 110 004c 00308DE5 		str	r3, [sp]
 111 0050 0140A0E3 		mov	r4, #1
 112              	.LVL8:
 113 0054 14309DE5 		ldr	r3, [sp, #20]
 114 0058 002000E3 		movw	r2, #:lower16:.LC2
 115 005c 001000E3 		movw	r1, #:lower16:.LC3
 116 0060 21008DE9 		stmib	sp, {r0, r5}
 117 0064 0C408DE5 		str	r4, [sp, #12]
 118 0068 002040E3 		movt	r2, #:upper16:.LC2
 119 006c 0300A0E1 		mov	r0, r3
 120 0070 145093E5 		ldr	r5, [r3, #20]
 121 0074 001040E3 		movt	r1, #:upper16:.LC3
 122 0078 3F30A0E3 		mov	r3, #63
 123 007c 35FF2FE1 		blx	r5
 124              	.LVL9:
 125 0080 0400A0E1 		mov	r0, r4
 126              	.L17:
 127              	.LBE592:
 128              	.LBE597:
 129              	.LBE602:
  82:../src/tensorflow_lite/tensorflow/lite/micro/kernels/reduce.cc ****   TF_LITE_ENSURE_OK(context, PrepareSimple(context, node));
  83:../src/tensorflow_lite/tensorflow/lite/micro/kernels/reduce.cc **** 
  84:../src/tensorflow_lite/tensorflow/lite/micro/kernels/reduce.cc ****   OpData* op_data = static_cast<OpData*>(node->user_data);
  85:../src/tensorflow_lite/tensorflow/lite/micro/kernels/reduce.cc ****   const TfLiteTensor* input = GetInput(context, node, 0);
  86:../src/tensorflow_lite/tensorflow/lite/micro/kernels/reduce.cc ****   const TfLiteTensor* output = GetOutput(context, node, 0);
  87:../src/tensorflow_lite/tensorflow/lite/micro/kernels/reduce.cc ****   const TfLiteTensor* axis = GetInput(context, node, 1);
  88:../src/tensorflow_lite/tensorflow/lite/micro/kernels/reduce.cc **** 
  89:../src/tensorflow_lite/tensorflow/lite/micro/kernels/reduce.cc ****   op_data->input_scale = input->params.scale;
  90:../src/tensorflow_lite/tensorflow/lite/micro/kernels/reduce.cc ****   op_data->output_scale = output->params.scale;
  91:../src/tensorflow_lite/tensorflow/lite/micro/kernels/reduce.cc ****   op_data->num_output_elements = NumElements(output);
  92:../src/tensorflow_lite/tensorflow/lite/micro/kernels/reduce.cc **** 
  93:../src/tensorflow_lite/tensorflow/lite/micro/kernels/reduce.cc ****   context->RequestScratchBufferInArena(context, sizeof(int) * input->dims->size,
  94:../src/tensorflow_lite/tensorflow/lite/micro/kernels/reduce.cc ****                                        &op_data->temp_buffer_idx);
  95:../src/tensorflow_lite/tensorflow/lite/micro/kernels/reduce.cc ****   context->RequestScratchBufferInArena(
  96:../src/tensorflow_lite/tensorflow/lite/micro/kernels/reduce.cc ****       context, sizeof(int) * static_cast<int>(ElementCount(*axis->dims)),
  97:../src/tensorflow_lite/tensorflow/lite/micro/kernels/reduce.cc ****       &op_data->resolved_axis_idx);
  98:../src/tensorflow_lite/tensorflow/lite/micro/kernels/reduce.cc **** 
  99:../src/tensorflow_lite/tensorflow/lite/micro/kernels/reduce.cc ****   return kTfLiteOk;
 100:../src/tensorflow_lite/tensorflow/lite/micro/kernels/reduce.cc **** }
 130              		.loc 1 100 0
 131 0084 34D08DE2 		add	sp, sp, #52
 132              		.cfi_remember_state
 133              		.cfi_def_cfa_offset 36
 134              		@ sp needed
 135 0088 F08FBDE8 		pop	{r4, r5, r6, r7, r8, r9, r10, fp, pc}
 136              	.LVL10:
 137              	.L5:
 138              		.cfi_restore_state
 139 008c 0070A0E1 		mov	r7, r0
 140              	.LBB603:
 141              	.LBB598:
 142              	.LBB593:
  66:../src/tensorflow_lite/tensorflow/lite/micro/kernels/reduce.cc ****   TF_LITE_ENSURE(context, axis != nullptr);
 143              		.loc 1 66 0
 144 0090 0520A0E1 		mov	r2, r5
 145 0094 0410A0E1 		mov	r1, r4
 146 0098 14009DE5 		ldr	r0, [sp, #20]
 147              	.LVL11:
 148 009c FEFFFFEB 		bl	_ZN6tflite8GetInputEPK13TfLiteContextPK10TfLiteNodei
 149              	.LVL12:
  67:../src/tensorflow_lite/tensorflow/lite/micro/kernels/reduce.cc ****   TF_LITE_ENSURE_TYPES_EQ(context, axis->type, kTfLiteInt32);
 150              		.loc 1 67 0
 151 00a0 000050E3 		cmp	r0, #0
 152 00a4 C900000A 		beq	.L23
  68:../src/tensorflow_lite/tensorflow/lite/micro/kernels/reduce.cc **** 
 153              		.loc 1 68 0
 154 00a8 0000D0E5 		ldrb	r0, [r0]	@ zero_extendqisi2
 155              	.LVL13:
 156 00ac 020050E3 		cmp	r0, #2
 157 00b0 9D00001A 		bne	.L24
 158              	.LBB589:
  70:../src/tensorflow_lite/tensorflow/lite/micro/kernels/reduce.cc ****     OpData* data = static_cast<OpData*>(node->user_data);
 159              		.loc 1 70 0
 160 00b4 0030D7E5 		ldrb	r3, [r7]	@ zero_extendqisi2
 161 00b8 090053E3 		cmp	r3, #9
 162 00bc B500000A 		beq	.L25
 163              	.L8:
 164              	.LVL14:
 165              	.LBE589:
 166              	.LBE593:
 167              	.LBE598:
 168              	.LBE603:
 169              	.LBB604:
 170              	.LBB605:
  85:../src/tensorflow_lite/tensorflow/lite/micro/kernels/reduce.cc ****   const TfLiteTensor* output = GetOutput(context, node, 0);
 171              		.loc 1 85 0
 172 00c0 14809DE5 		ldr	r8, [sp, #20]
 173 00c4 0020A0E3 		mov	r2, #0
  84:../src/tensorflow_lite/tensorflow/lite/micro/kernels/reduce.cc ****   const TfLiteTensor* input = GetInput(context, node, 0);
 174              		.loc 1 84 0
 175 00c8 103094E5 		ldr	r3, [r4, #16]
  85:../src/tensorflow_lite/tensorflow/lite/micro/kernels/reduce.cc ****   const TfLiteTensor* output = GetOutput(context, node, 0);
 176              		.loc 1 85 0
 177 00cc 0410A0E1 		mov	r1, r4
 178 00d0 0800A0E1 		mov	r0, r8
  84:../src/tensorflow_lite/tensorflow/lite/micro/kernels/reduce.cc ****   const TfLiteTensor* input = GetInput(context, node, 0);
 179              		.loc 1 84 0
 180 00d4 0370A0E1 		mov	r7, r3
 181              	.LVL15:
 182 00d8 24308DE5 		str	r3, [sp, #36]
 183              	.LVL16:
  85:../src/tensorflow_lite/tensorflow/lite/micro/kernels/reduce.cc ****   const TfLiteTensor* output = GetOutput(context, node, 0);
 184              		.loc 1 85 0
 185 00dc FEFFFFEB 		bl	_ZN6tflite8GetInputEPK13TfLiteContextPK10TfLiteNodei
 186              	.LVL17:
  86:../src/tensorflow_lite/tensorflow/lite/micro/kernels/reduce.cc ****   const TfLiteTensor* axis = GetInput(context, node, 1);
 187              		.loc 1 86 0
 188 00e0 0020A0E3 		mov	r2, #0
  85:../src/tensorflow_lite/tensorflow/lite/micro/kernels/reduce.cc ****   const TfLiteTensor* output = GetOutput(context, node, 0);
 189              		.loc 1 85 0
 190 00e4 0090A0E1 		mov	r9, r0
 191 00e8 28008DE5 		str	r0, [sp, #40]
 192              	.LVL18:
  86:../src/tensorflow_lite/tensorflow/lite/micro/kernels/reduce.cc ****   const TfLiteTensor* axis = GetInput(context, node, 1);
 193              		.loc 1 86 0
 194 00ec 0410A0E1 		mov	r1, r4
 195 00f0 0800A0E1 		mov	r0, r8
 196              	.LVL19:
 197 00f4 FEFFFFEB 		bl	_ZN6tflite9GetOutputEP13TfLiteContextPK10TfLiteNodei
 198              	.LVL20:
  87:../src/tensorflow_lite/tensorflow/lite/micro/kernels/reduce.cc **** 
 199              		.loc 1 87 0
 200 00f8 0410A0E1 		mov	r1, r4
  86:../src/tensorflow_lite/tensorflow/lite/micro/kernels/reduce.cc ****   const TfLiteTensor* axis = GetInput(context, node, 1);
 201              		.loc 1 86 0
 202 00fc 0060A0E1 		mov	r6, r0
 203              	.LVL21:
  87:../src/tensorflow_lite/tensorflow/lite/micro/kernels/reduce.cc **** 
 204              		.loc 1 87 0
 205 0100 0120A0E3 		mov	r2, #1
 206 0104 0800A0E1 		mov	r0, r8
 207              	.LVL22:
 208 0108 FEFFFFEB 		bl	_ZN6tflite8GetInputEPK13TfLiteContextPK10TfLiteNodei
 209              	.LVL23:
 210 010c 083096E5 		ldr	r3, [r6, #8]
  89:../src/tensorflow_lite/tensorflow/lite/micro/kernels/reduce.cc ****   op_data->output_scale = output->params.scale;
 211              		.loc 1 89 0
 212 0110 0C2099E5 		ldr	r2, [r9, #12]	@ float
  87:../src/tensorflow_lite/tensorflow/lite/micro/kernels/reduce.cc **** 
 213              		.loc 1 87 0
 214 0114 2C008DE5 		str	r0, [sp, #44]
 215              	.LVL24:
 216 0118 0310A0E1 		mov	r1, r3
 217 011c 20308DE5 		str	r3, [sp, #32]
 218              	.LVL25:
 219              	.LBB606:
 220              	.LBB607:
 221              	.LBB608:
 222              	.LBB609:
 223              		.file 2 "C:/Renesas/e2studio_2021_01_workspace_RZA2M_ANPR/ANPR_RZA2M_GR_MANGO/src/tensorflow_lite/
   1:C:/Renesas/e2studio_2021_01_workspace_RZA2M_ANPR/ANPR_RZA2M_GR_MANGO/src/tensorflow_lite/tensorflow/lite/kernels\kernel_util.h **** /* Copyright 2017 The TensorFlow Authors. All Rights Reserved.
   2:C:/Renesas/e2studio_2021_01_workspace_RZA2M_ANPR/ANPR_RZA2M_GR_MANGO/src/tensorflow_lite/tensorflow/lite/kernels\kernel_util.h **** 
   3:C:/Renesas/e2studio_2021_01_workspace_RZA2M_ANPR/ANPR_RZA2M_GR_MANGO/src/tensorflow_lite/tensorflow/lite/kernels\kernel_util.h **** Licensed under the Apache License, Version 2.0 (the "License");
   4:C:/Renesas/e2studio_2021_01_workspace_RZA2M_ANPR/ANPR_RZA2M_GR_MANGO/src/tensorflow_lite/tensorflow/lite/kernels\kernel_util.h **** you may not use this file except in compliance with the License.
   5:C:/Renesas/e2studio_2021_01_workspace_RZA2M_ANPR/ANPR_RZA2M_GR_MANGO/src/tensorflow_lite/tensorflow/lite/kernels\kernel_util.h **** You may obtain a copy of the License at
   6:C:/Renesas/e2studio_2021_01_workspace_RZA2M_ANPR/ANPR_RZA2M_GR_MANGO/src/tensorflow_lite/tensorflow/lite/kernels\kernel_util.h **** 
   7:C:/Renesas/e2studio_2021_01_workspace_RZA2M_ANPR/ANPR_RZA2M_GR_MANGO/src/tensorflow_lite/tensorflow/lite/kernels\kernel_util.h ****     http://www.apache.org/licenses/LICENSE-2.0
   8:C:/Renesas/e2studio_2021_01_workspace_RZA2M_ANPR/ANPR_RZA2M_GR_MANGO/src/tensorflow_lite/tensorflow/lite/kernels\kernel_util.h **** 
   9:C:/Renesas/e2studio_2021_01_workspace_RZA2M_ANPR/ANPR_RZA2M_GR_MANGO/src/tensorflow_lite/tensorflow/lite/kernels\kernel_util.h **** Unless required by applicable law or agreed to in writing, software
  10:C:/Renesas/e2studio_2021_01_workspace_RZA2M_ANPR/ANPR_RZA2M_GR_MANGO/src/tensorflow_lite/tensorflow/lite/kernels\kernel_util.h **** distributed under the License is distributed on an "AS IS" BASIS,
  11:C:/Renesas/e2studio_2021_01_workspace_RZA2M_ANPR/ANPR_RZA2M_GR_MANGO/src/tensorflow_lite/tensorflow/lite/kernels\kernel_util.h **** WITHOUT WARRANTIES OR CONDITIONS OF ANY KIND, either express or implied.
  12:C:/Renesas/e2studio_2021_01_workspace_RZA2M_ANPR/ANPR_RZA2M_GR_MANGO/src/tensorflow_lite/tensorflow/lite/kernels\kernel_util.h **** See the License for the specific language governing permissions and
  13:C:/Renesas/e2studio_2021_01_workspace_RZA2M_ANPR/ANPR_RZA2M_GR_MANGO/src/tensorflow_lite/tensorflow/lite/kernels\kernel_util.h **** limitations under the License.
  14:C:/Renesas/e2studio_2021_01_workspace_RZA2M_ANPR/ANPR_RZA2M_GR_MANGO/src/tensorflow_lite/tensorflow/lite/kernels\kernel_util.h **** ==============================================================================*/
  15:C:/Renesas/e2studio_2021_01_workspace_RZA2M_ANPR/ANPR_RZA2M_GR_MANGO/src/tensorflow_lite/tensorflow/lite/kernels\kernel_util.h **** #ifndef TENSORFLOW_LITE_KERNELS_KERNEL_UTIL_H_
  16:C:/Renesas/e2studio_2021_01_workspace_RZA2M_ANPR/ANPR_RZA2M_GR_MANGO/src/tensorflow_lite/tensorflow/lite/kernels\kernel_util.h **** #define TENSORFLOW_LITE_KERNELS_KERNEL_UTIL_H_
  17:C:/Renesas/e2studio_2021_01_workspace_RZA2M_ANPR/ANPR_RZA2M_GR_MANGO/src/tensorflow_lite/tensorflow/lite/kernels\kernel_util.h **** 
  18:C:/Renesas/e2studio_2021_01_workspace_RZA2M_ANPR/ANPR_RZA2M_GR_MANGO/src/tensorflow_lite/tensorflow/lite/kernels\kernel_util.h **** #include <stdint.h>
  19:C:/Renesas/e2studio_2021_01_workspace_RZA2M_ANPR/ANPR_RZA2M_GR_MANGO/src/tensorflow_lite/tensorflow/lite/kernels\kernel_util.h **** 
  20:C:/Renesas/e2studio_2021_01_workspace_RZA2M_ANPR/ANPR_RZA2M_GR_MANGO/src/tensorflow_lite/tensorflow/lite/kernels\kernel_util.h **** #include <limits>
  21:C:/Renesas/e2studio_2021_01_workspace_RZA2M_ANPR/ANPR_RZA2M_GR_MANGO/src/tensorflow_lite/tensorflow/lite/kernels\kernel_util.h **** 
  22:C:/Renesas/e2studio_2021_01_workspace_RZA2M_ANPR/ANPR_RZA2M_GR_MANGO/src/tensorflow_lite/tensorflow/lite/kernels\kernel_util.h **** #include "tensorflow/lite/c/builtin_op_data.h"
  23:C:/Renesas/e2studio_2021_01_workspace_RZA2M_ANPR/ANPR_RZA2M_GR_MANGO/src/tensorflow_lite/tensorflow/lite/kernels\kernel_util.h **** #include "tensorflow/lite/c/common.h"
  24:C:/Renesas/e2studio_2021_01_workspace_RZA2M_ANPR/ANPR_RZA2M_GR_MANGO/src/tensorflow_lite/tensorflow/lite/kernels\kernel_util.h **** 
  25:C:/Renesas/e2studio_2021_01_workspace_RZA2M_ANPR/ANPR_RZA2M_GR_MANGO/src/tensorflow_lite/tensorflow/lite/kernels\kernel_util.h **** namespace tflite {
  26:C:/Renesas/e2studio_2021_01_workspace_RZA2M_ANPR/ANPR_RZA2M_GR_MANGO/src/tensorflow_lite/tensorflow/lite/kernels\kernel_util.h **** 
  27:C:/Renesas/e2studio_2021_01_workspace_RZA2M_ANPR/ANPR_RZA2M_GR_MANGO/src/tensorflow_lite/tensorflow/lite/kernels\kernel_util.h **** // A fair number of functions in this header have historically been inline.
  28:C:/Renesas/e2studio_2021_01_workspace_RZA2M_ANPR/ANPR_RZA2M_GR_MANGO/src/tensorflow_lite/tensorflow/lite/kernels\kernel_util.h **** // It is ok to change functions to not be inline if the latency with
  29:C:/Renesas/e2studio_2021_01_workspace_RZA2M_ANPR/ANPR_RZA2M_GR_MANGO/src/tensorflow_lite/tensorflow/lite/kernels\kernel_util.h **** // benchmark_model for MobileNet + MobileBERT is unaffected. If such a change is
  30:C:/Renesas/e2studio_2021_01_workspace_RZA2M_ANPR/ANPR_RZA2M_GR_MANGO/src/tensorflow_lite/tensorflow/lite/kernels\kernel_util.h **** // made, move the newly non-inlined function declarations to the top of this
  31:C:/Renesas/e2studio_2021_01_workspace_RZA2M_ANPR/ANPR_RZA2M_GR_MANGO/src/tensorflow_lite/tensorflow/lite/kernels\kernel_util.h **** // header file.
  32:C:/Renesas/e2studio_2021_01_workspace_RZA2M_ANPR/ANPR_RZA2M_GR_MANGO/src/tensorflow_lite/tensorflow/lite/kernels\kernel_util.h **** 
  33:C:/Renesas/e2studio_2021_01_workspace_RZA2M_ANPR/ANPR_RZA2M_GR_MANGO/src/tensorflow_lite/tensorflow/lite/kernels\kernel_util.h **** // Note: You must check if result is not null:
  34:C:/Renesas/e2studio_2021_01_workspace_RZA2M_ANPR/ANPR_RZA2M_GR_MANGO/src/tensorflow_lite/tensorflow/lite/kernels\kernel_util.h **** //
  35:C:/Renesas/e2studio_2021_01_workspace_RZA2M_ANPR/ANPR_RZA2M_GR_MANGO/src/tensorflow_lite/tensorflow/lite/kernels\kernel_util.h **** //   TfLiteTensor* my_tensor = GetInput(context, node, kMyTensorIdx);
  36:C:/Renesas/e2studio_2021_01_workspace_RZA2M_ANPR/ANPR_RZA2M_GR_MANGO/src/tensorflow_lite/tensorflow/lite/kernels\kernel_util.h **** //   TF_LITE_ENSURE(context, my_tensor != nullptr);
  37:C:/Renesas/e2studio_2021_01_workspace_RZA2M_ANPR/ANPR_RZA2M_GR_MANGO/src/tensorflow_lite/tensorflow/lite/kernels\kernel_util.h **** //
  38:C:/Renesas/e2studio_2021_01_workspace_RZA2M_ANPR/ANPR_RZA2M_GR_MANGO/src/tensorflow_lite/tensorflow/lite/kernels\kernel_util.h **** // This is because the index might point to the optional tensor constant
  39:C:/Renesas/e2studio_2021_01_workspace_RZA2M_ANPR/ANPR_RZA2M_GR_MANGO/src/tensorflow_lite/tensorflow/lite/kernels\kernel_util.h **** // (kTfLiteOptionalTensor) in which case there is no tensor to return.
  40:C:/Renesas/e2studio_2021_01_workspace_RZA2M_ANPR/ANPR_RZA2M_GR_MANGO/src/tensorflow_lite/tensorflow/lite/kernels\kernel_util.h **** const TfLiteTensor* GetInput(const TfLiteContext* context,
  41:C:/Renesas/e2studio_2021_01_workspace_RZA2M_ANPR/ANPR_RZA2M_GR_MANGO/src/tensorflow_lite/tensorflow/lite/kernels\kernel_util.h ****                              const TfLiteNode* node, int index);
  42:C:/Renesas/e2studio_2021_01_workspace_RZA2M_ANPR/ANPR_RZA2M_GR_MANGO/src/tensorflow_lite/tensorflow/lite/kernels\kernel_util.h **** 
  43:C:/Renesas/e2studio_2021_01_workspace_RZA2M_ANPR/ANPR_RZA2M_GR_MANGO/src/tensorflow_lite/tensorflow/lite/kernels\kernel_util.h **** // Same as `GetInput` but returns boolean and uses output argument for tensor.
  44:C:/Renesas/e2studio_2021_01_workspace_RZA2M_ANPR/ANPR_RZA2M_GR_MANGO/src/tensorflow_lite/tensorflow/lite/kernels\kernel_util.h **** //
  45:C:/Renesas/e2studio_2021_01_workspace_RZA2M_ANPR/ANPR_RZA2M_GR_MANGO/src/tensorflow_lite/tensorflow/lite/kernels\kernel_util.h **** //   TfLiteTensor* my_tensor;
  46:C:/Renesas/e2studio_2021_01_workspace_RZA2M_ANPR/ANPR_RZA2M_GR_MANGO/src/tensorflow_lite/tensorflow/lite/kernels\kernel_util.h **** //   TF_LITE_ENSURE_OK(context,
  47:C:/Renesas/e2studio_2021_01_workspace_RZA2M_ANPR/ANPR_RZA2M_GR_MANGO/src/tensorflow_lite/tensorflow/lite/kernels\kernel_util.h **** //                     GetInputSafe(context, node, kMyTensorIdx, &my_tensor));
  48:C:/Renesas/e2studio_2021_01_workspace_RZA2M_ANPR/ANPR_RZA2M_GR_MANGO/src/tensorflow_lite/tensorflow/lite/kernels\kernel_util.h **** //   // can use my_tensor directly from here onwards, it is not nullptr
  49:C:/Renesas/e2studio_2021_01_workspace_RZA2M_ANPR/ANPR_RZA2M_GR_MANGO/src/tensorflow_lite/tensorflow/lite/kernels\kernel_util.h **** //
  50:C:/Renesas/e2studio_2021_01_workspace_RZA2M_ANPR/ANPR_RZA2M_GR_MANGO/src/tensorflow_lite/tensorflow/lite/kernels\kernel_util.h **** // Should be used in cases where the binary size is too large.
  51:C:/Renesas/e2studio_2021_01_workspace_RZA2M_ANPR/ANPR_RZA2M_GR_MANGO/src/tensorflow_lite/tensorflow/lite/kernels\kernel_util.h **** TfLiteStatus GetInputSafe(const TfLiteContext* context, const TfLiteNode* node,
  52:C:/Renesas/e2studio_2021_01_workspace_RZA2M_ANPR/ANPR_RZA2M_GR_MANGO/src/tensorflow_lite/tensorflow/lite/kernels\kernel_util.h ****                           int index, const TfLiteTensor** tensor);
  53:C:/Renesas/e2studio_2021_01_workspace_RZA2M_ANPR/ANPR_RZA2M_GR_MANGO/src/tensorflow_lite/tensorflow/lite/kernels\kernel_util.h **** 
  54:C:/Renesas/e2studio_2021_01_workspace_RZA2M_ANPR/ANPR_RZA2M_GR_MANGO/src/tensorflow_lite/tensorflow/lite/kernels\kernel_util.h **** // Note: You must check if result is not null:
  55:C:/Renesas/e2studio_2021_01_workspace_RZA2M_ANPR/ANPR_RZA2M_GR_MANGO/src/tensorflow_lite/tensorflow/lite/kernels\kernel_util.h **** //
  56:C:/Renesas/e2studio_2021_01_workspace_RZA2M_ANPR/ANPR_RZA2M_GR_MANGO/src/tensorflow_lite/tensorflow/lite/kernels\kernel_util.h **** //   TfLiteTensor* my_tensor = GetVariableInput(context, node, kMyTensorIdx);
  57:C:/Renesas/e2studio_2021_01_workspace_RZA2M_ANPR/ANPR_RZA2M_GR_MANGO/src/tensorflow_lite/tensorflow/lite/kernels\kernel_util.h **** //   TF_LITE_ENSURE(context, my_tensor != nullptr);
  58:C:/Renesas/e2studio_2021_01_workspace_RZA2M_ANPR/ANPR_RZA2M_GR_MANGO/src/tensorflow_lite/tensorflow/lite/kernels\kernel_util.h **** //
  59:C:/Renesas/e2studio_2021_01_workspace_RZA2M_ANPR/ANPR_RZA2M_GR_MANGO/src/tensorflow_lite/tensorflow/lite/kernels\kernel_util.h **** // This is because the index might point to the optional tensor constant
  60:C:/Renesas/e2studio_2021_01_workspace_RZA2M_ANPR/ANPR_RZA2M_GR_MANGO/src/tensorflow_lite/tensorflow/lite/kernels\kernel_util.h **** // (kTfLiteOptionalTensor) in which case there is no tensor to return.
  61:C:/Renesas/e2studio_2021_01_workspace_RZA2M_ANPR/ANPR_RZA2M_GR_MANGO/src/tensorflow_lite/tensorflow/lite/kernels\kernel_util.h **** TfLiteTensor* GetVariableInput(TfLiteContext* context, const TfLiteNode* node,
  62:C:/Renesas/e2studio_2021_01_workspace_RZA2M_ANPR/ANPR_RZA2M_GR_MANGO/src/tensorflow_lite/tensorflow/lite/kernels\kernel_util.h ****                                int index);
  63:C:/Renesas/e2studio_2021_01_workspace_RZA2M_ANPR/ANPR_RZA2M_GR_MANGO/src/tensorflow_lite/tensorflow/lite/kernels\kernel_util.h **** 
  64:C:/Renesas/e2studio_2021_01_workspace_RZA2M_ANPR/ANPR_RZA2M_GR_MANGO/src/tensorflow_lite/tensorflow/lite/kernels\kernel_util.h **** // Note: You must check if result is not null:
  65:C:/Renesas/e2studio_2021_01_workspace_RZA2M_ANPR/ANPR_RZA2M_GR_MANGO/src/tensorflow_lite/tensorflow/lite/kernels\kernel_util.h **** //
  66:C:/Renesas/e2studio_2021_01_workspace_RZA2M_ANPR/ANPR_RZA2M_GR_MANGO/src/tensorflow_lite/tensorflow/lite/kernels\kernel_util.h **** //   TfLiteTensor* my_tensor = GetOutput(context, node, kMyTensorIdx);
  67:C:/Renesas/e2studio_2021_01_workspace_RZA2M_ANPR/ANPR_RZA2M_GR_MANGO/src/tensorflow_lite/tensorflow/lite/kernels\kernel_util.h **** //   TF_LITE_ENSURE(context, my_tensor != nullptr);
  68:C:/Renesas/e2studio_2021_01_workspace_RZA2M_ANPR/ANPR_RZA2M_GR_MANGO/src/tensorflow_lite/tensorflow/lite/kernels\kernel_util.h **** //
  69:C:/Renesas/e2studio_2021_01_workspace_RZA2M_ANPR/ANPR_RZA2M_GR_MANGO/src/tensorflow_lite/tensorflow/lite/kernels\kernel_util.h **** // This is because the index might point to the optional tensor constant
  70:C:/Renesas/e2studio_2021_01_workspace_RZA2M_ANPR/ANPR_RZA2M_GR_MANGO/src/tensorflow_lite/tensorflow/lite/kernels\kernel_util.h **** // (kTfLiteOptionalTensor) in which case there is no tensor to return.
  71:C:/Renesas/e2studio_2021_01_workspace_RZA2M_ANPR/ANPR_RZA2M_GR_MANGO/src/tensorflow_lite/tensorflow/lite/kernels\kernel_util.h **** TfLiteTensor* GetOutput(TfLiteContext* context, const TfLiteNode* node,
  72:C:/Renesas/e2studio_2021_01_workspace_RZA2M_ANPR/ANPR_RZA2M_GR_MANGO/src/tensorflow_lite/tensorflow/lite/kernels\kernel_util.h ****                         int index);
  73:C:/Renesas/e2studio_2021_01_workspace_RZA2M_ANPR/ANPR_RZA2M_GR_MANGO/src/tensorflow_lite/tensorflow/lite/kernels\kernel_util.h **** 
  74:C:/Renesas/e2studio_2021_01_workspace_RZA2M_ANPR/ANPR_RZA2M_GR_MANGO/src/tensorflow_lite/tensorflow/lite/kernels\kernel_util.h **** // Same as `GetOutput` but returns boolean and uses output argument for tensor.
  75:C:/Renesas/e2studio_2021_01_workspace_RZA2M_ANPR/ANPR_RZA2M_GR_MANGO/src/tensorflow_lite/tensorflow/lite/kernels\kernel_util.h **** //
  76:C:/Renesas/e2studio_2021_01_workspace_RZA2M_ANPR/ANPR_RZA2M_GR_MANGO/src/tensorflow_lite/tensorflow/lite/kernels\kernel_util.h **** //   TfLiteTensor* my_tensor;
  77:C:/Renesas/e2studio_2021_01_workspace_RZA2M_ANPR/ANPR_RZA2M_GR_MANGO/src/tensorflow_lite/tensorflow/lite/kernels\kernel_util.h **** //   TF_LITE_ENSURE_OK(context,
  78:C:/Renesas/e2studio_2021_01_workspace_RZA2M_ANPR/ANPR_RZA2M_GR_MANGO/src/tensorflow_lite/tensorflow/lite/kernels\kernel_util.h **** //                     GetOutputSafe(context, node, kMyTensorIdx, &my_tensor));
  79:C:/Renesas/e2studio_2021_01_workspace_RZA2M_ANPR/ANPR_RZA2M_GR_MANGO/src/tensorflow_lite/tensorflow/lite/kernels\kernel_util.h **** //   // can use my_tensor directly from here onwards, it is not nullptr
  80:C:/Renesas/e2studio_2021_01_workspace_RZA2M_ANPR/ANPR_RZA2M_GR_MANGO/src/tensorflow_lite/tensorflow/lite/kernels\kernel_util.h **** //
  81:C:/Renesas/e2studio_2021_01_workspace_RZA2M_ANPR/ANPR_RZA2M_GR_MANGO/src/tensorflow_lite/tensorflow/lite/kernels\kernel_util.h **** // Should be used in cases where the binary size is too large.
  82:C:/Renesas/e2studio_2021_01_workspace_RZA2M_ANPR/ANPR_RZA2M_GR_MANGO/src/tensorflow_lite/tensorflow/lite/kernels\kernel_util.h **** TfLiteStatus GetOutputSafe(const TfLiteContext* context, const TfLiteNode* node,
  83:C:/Renesas/e2studio_2021_01_workspace_RZA2M_ANPR/ANPR_RZA2M_GR_MANGO/src/tensorflow_lite/tensorflow/lite/kernels\kernel_util.h ****                            int index, TfLiteTensor** tensor);
  84:C:/Renesas/e2studio_2021_01_workspace_RZA2M_ANPR/ANPR_RZA2M_GR_MANGO/src/tensorflow_lite/tensorflow/lite/kernels\kernel_util.h **** 
  85:C:/Renesas/e2studio_2021_01_workspace_RZA2M_ANPR/ANPR_RZA2M_GR_MANGO/src/tensorflow_lite/tensorflow/lite/kernels\kernel_util.h **** // Note: You must check if result is not null:
  86:C:/Renesas/e2studio_2021_01_workspace_RZA2M_ANPR/ANPR_RZA2M_GR_MANGO/src/tensorflow_lite/tensorflow/lite/kernels\kernel_util.h **** //
  87:C:/Renesas/e2studio_2021_01_workspace_RZA2M_ANPR/ANPR_RZA2M_GR_MANGO/src/tensorflow_lite/tensorflow/lite/kernels\kernel_util.h **** //   TfLiteTensor* my_tensor = GetOptionalInputTensor(context, node, kIdx);
  88:C:/Renesas/e2studio_2021_01_workspace_RZA2M_ANPR/ANPR_RZA2M_GR_MANGO/src/tensorflow_lite/tensorflow/lite/kernels\kernel_util.h **** //   TF_LITE_ENSURE(context, my_tensor != nullptr);
  89:C:/Renesas/e2studio_2021_01_workspace_RZA2M_ANPR/ANPR_RZA2M_GR_MANGO/src/tensorflow_lite/tensorflow/lite/kernels\kernel_util.h **** //
  90:C:/Renesas/e2studio_2021_01_workspace_RZA2M_ANPR/ANPR_RZA2M_GR_MANGO/src/tensorflow_lite/tensorflow/lite/kernels\kernel_util.h **** // This is because the index might point to the optional tensor constant
  91:C:/Renesas/e2studio_2021_01_workspace_RZA2M_ANPR/ANPR_RZA2M_GR_MANGO/src/tensorflow_lite/tensorflow/lite/kernels\kernel_util.h **** // (kTfLiteOptionalTensor) in which case there is no tensor to return.
  92:C:/Renesas/e2studio_2021_01_workspace_RZA2M_ANPR/ANPR_RZA2M_GR_MANGO/src/tensorflow_lite/tensorflow/lite/kernels\kernel_util.h **** //
  93:C:/Renesas/e2studio_2021_01_workspace_RZA2M_ANPR/ANPR_RZA2M_GR_MANGO/src/tensorflow_lite/tensorflow/lite/kernels\kernel_util.h **** // Deprecated. GetInput has the same functionality.
  94:C:/Renesas/e2studio_2021_01_workspace_RZA2M_ANPR/ANPR_RZA2M_GR_MANGO/src/tensorflow_lite/tensorflow/lite/kernels\kernel_util.h **** const TfLiteTensor* GetOptionalInputTensor(const TfLiteContext* context,
  95:C:/Renesas/e2studio_2021_01_workspace_RZA2M_ANPR/ANPR_RZA2M_GR_MANGO/src/tensorflow_lite/tensorflow/lite/kernels\kernel_util.h ****                                            const TfLiteNode* node, int index);
  96:C:/Renesas/e2studio_2021_01_workspace_RZA2M_ANPR/ANPR_RZA2M_GR_MANGO/src/tensorflow_lite/tensorflow/lite/kernels\kernel_util.h **** 
  97:C:/Renesas/e2studio_2021_01_workspace_RZA2M_ANPR/ANPR_RZA2M_GR_MANGO/src/tensorflow_lite/tensorflow/lite/kernels\kernel_util.h **** #ifndef TF_LITE_STATIC_MEMORY
  98:C:/Renesas/e2studio_2021_01_workspace_RZA2M_ANPR/ANPR_RZA2M_GR_MANGO/src/tensorflow_lite/tensorflow/lite/kernels\kernel_util.h **** // Note: You must check if result is not null:
  99:C:/Renesas/e2studio_2021_01_workspace_RZA2M_ANPR/ANPR_RZA2M_GR_MANGO/src/tensorflow_lite/tensorflow/lite/kernels\kernel_util.h **** //
 100:C:/Renesas/e2studio_2021_01_workspace_RZA2M_ANPR/ANPR_RZA2M_GR_MANGO/src/tensorflow_lite/tensorflow/lite/kernels\kernel_util.h **** //   TfLiteTensor* my_tensor = GetTemporary(context, node, kMyTensorIdx);
 101:C:/Renesas/e2studio_2021_01_workspace_RZA2M_ANPR/ANPR_RZA2M_GR_MANGO/src/tensorflow_lite/tensorflow/lite/kernels\kernel_util.h **** //   TF_LITE_ENSURE(context, my_tensor != nullptr);
 102:C:/Renesas/e2studio_2021_01_workspace_RZA2M_ANPR/ANPR_RZA2M_GR_MANGO/src/tensorflow_lite/tensorflow/lite/kernels\kernel_util.h **** //
 103:C:/Renesas/e2studio_2021_01_workspace_RZA2M_ANPR/ANPR_RZA2M_GR_MANGO/src/tensorflow_lite/tensorflow/lite/kernels\kernel_util.h **** // This is because the index might point to the optional tensor constant
 104:C:/Renesas/e2studio_2021_01_workspace_RZA2M_ANPR/ANPR_RZA2M_GR_MANGO/src/tensorflow_lite/tensorflow/lite/kernels\kernel_util.h **** // (kTfLiteOptionalTensor) in which case there is no tensor to return.
 105:C:/Renesas/e2studio_2021_01_workspace_RZA2M_ANPR/ANPR_RZA2M_GR_MANGO/src/tensorflow_lite/tensorflow/lite/kernels\kernel_util.h **** TfLiteTensor* GetTemporary(TfLiteContext* context, const TfLiteNode* node,
 106:C:/Renesas/e2studio_2021_01_workspace_RZA2M_ANPR/ANPR_RZA2M_GR_MANGO/src/tensorflow_lite/tensorflow/lite/kernels\kernel_util.h ****                            int index);
 107:C:/Renesas/e2studio_2021_01_workspace_RZA2M_ANPR/ANPR_RZA2M_GR_MANGO/src/tensorflow_lite/tensorflow/lite/kernels\kernel_util.h **** 
 108:C:/Renesas/e2studio_2021_01_workspace_RZA2M_ANPR/ANPR_RZA2M_GR_MANGO/src/tensorflow_lite/tensorflow/lite/kernels\kernel_util.h **** // Same as `GetTemporary` but returns boolean and uses output argument for
 109:C:/Renesas/e2studio_2021_01_workspace_RZA2M_ANPR/ANPR_RZA2M_GR_MANGO/src/tensorflow_lite/tensorflow/lite/kernels\kernel_util.h **** // tensor.
 110:C:/Renesas/e2studio_2021_01_workspace_RZA2M_ANPR/ANPR_RZA2M_GR_MANGO/src/tensorflow_lite/tensorflow/lite/kernels\kernel_util.h **** //
 111:C:/Renesas/e2studio_2021_01_workspace_RZA2M_ANPR/ANPR_RZA2M_GR_MANGO/src/tensorflow_lite/tensorflow/lite/kernels\kernel_util.h **** //   TfLiteTensor* my_tensor;
 112:C:/Renesas/e2studio_2021_01_workspace_RZA2M_ANPR/ANPR_RZA2M_GR_MANGO/src/tensorflow_lite/tensorflow/lite/kernels\kernel_util.h **** //   TF_LITE_ENSURE_OK(context,
 113:C:/Renesas/e2studio_2021_01_workspace_RZA2M_ANPR/ANPR_RZA2M_GR_MANGO/src/tensorflow_lite/tensorflow/lite/kernels\kernel_util.h **** //                     GetTemporarySafe(context, node, kMyTensorIdx,
 114:C:/Renesas/e2studio_2021_01_workspace_RZA2M_ANPR/ANPR_RZA2M_GR_MANGO/src/tensorflow_lite/tensorflow/lite/kernels\kernel_util.h **** //                     &my_tensor));
 115:C:/Renesas/e2studio_2021_01_workspace_RZA2M_ANPR/ANPR_RZA2M_GR_MANGO/src/tensorflow_lite/tensorflow/lite/kernels\kernel_util.h **** //   // can use my_tensor directly from here onwards, it is not nullptr
 116:C:/Renesas/e2studio_2021_01_workspace_RZA2M_ANPR/ANPR_RZA2M_GR_MANGO/src/tensorflow_lite/tensorflow/lite/kernels\kernel_util.h **** //
 117:C:/Renesas/e2studio_2021_01_workspace_RZA2M_ANPR/ANPR_RZA2M_GR_MANGO/src/tensorflow_lite/tensorflow/lite/kernels\kernel_util.h **** // Should be used in cases where the binary size is too large.
 118:C:/Renesas/e2studio_2021_01_workspace_RZA2M_ANPR/ANPR_RZA2M_GR_MANGO/src/tensorflow_lite/tensorflow/lite/kernels\kernel_util.h **** TfLiteStatus GetTemporarySafe(const TfLiteContext* context,
 119:C:/Renesas/e2studio_2021_01_workspace_RZA2M_ANPR/ANPR_RZA2M_GR_MANGO/src/tensorflow_lite/tensorflow/lite/kernels\kernel_util.h ****                               const TfLiteNode* node, int index,
 120:C:/Renesas/e2studio_2021_01_workspace_RZA2M_ANPR/ANPR_RZA2M_GR_MANGO/src/tensorflow_lite/tensorflow/lite/kernels\kernel_util.h ****                               TfLiteTensor** tensor);
 121:C:/Renesas/e2studio_2021_01_workspace_RZA2M_ANPR/ANPR_RZA2M_GR_MANGO/src/tensorflow_lite/tensorflow/lite/kernels\kernel_util.h **** 
 122:C:/Renesas/e2studio_2021_01_workspace_RZA2M_ANPR/ANPR_RZA2M_GR_MANGO/src/tensorflow_lite/tensorflow/lite/kernels\kernel_util.h **** // Note: You must check if result is not null:
 123:C:/Renesas/e2studio_2021_01_workspace_RZA2M_ANPR/ANPR_RZA2M_GR_MANGO/src/tensorflow_lite/tensorflow/lite/kernels\kernel_util.h **** //
 124:C:/Renesas/e2studio_2021_01_workspace_RZA2M_ANPR/ANPR_RZA2M_GR_MANGO/src/tensorflow_lite/tensorflow/lite/kernels\kernel_util.h **** //   TfLiteTensor* my_tensor = GetIntermediates(context, node, kMyTensorIdx);
 125:C:/Renesas/e2studio_2021_01_workspace_RZA2M_ANPR/ANPR_RZA2M_GR_MANGO/src/tensorflow_lite/tensorflow/lite/kernels\kernel_util.h **** //   TF_LITE_ENSURE(context, my_tensor != nullptr);
 126:C:/Renesas/e2studio_2021_01_workspace_RZA2M_ANPR/ANPR_RZA2M_GR_MANGO/src/tensorflow_lite/tensorflow/lite/kernels\kernel_util.h **** //
 127:C:/Renesas/e2studio_2021_01_workspace_RZA2M_ANPR/ANPR_RZA2M_GR_MANGO/src/tensorflow_lite/tensorflow/lite/kernels\kernel_util.h **** // This is because the index might point to the optional tensor constant
 128:C:/Renesas/e2studio_2021_01_workspace_RZA2M_ANPR/ANPR_RZA2M_GR_MANGO/src/tensorflow_lite/tensorflow/lite/kernels\kernel_util.h **** // (kTfLiteOptionalTensor) in which case there is no tensor to return.
 129:C:/Renesas/e2studio_2021_01_workspace_RZA2M_ANPR/ANPR_RZA2M_GR_MANGO/src/tensorflow_lite/tensorflow/lite/kernels\kernel_util.h **** const TfLiteTensor* GetIntermediates(TfLiteContext* context,
 130:C:/Renesas/e2studio_2021_01_workspace_RZA2M_ANPR/ANPR_RZA2M_GR_MANGO/src/tensorflow_lite/tensorflow/lite/kernels\kernel_util.h ****                                      const TfLiteNode* node, int index);
 131:C:/Renesas/e2studio_2021_01_workspace_RZA2M_ANPR/ANPR_RZA2M_GR_MANGO/src/tensorflow_lite/tensorflow/lite/kernels\kernel_util.h **** 
 132:C:/Renesas/e2studio_2021_01_workspace_RZA2M_ANPR/ANPR_RZA2M_GR_MANGO/src/tensorflow_lite/tensorflow/lite/kernels\kernel_util.h **** // Same as `GetIntermediates` but returns boolean and uses output argument for
 133:C:/Renesas/e2studio_2021_01_workspace_RZA2M_ANPR/ANPR_RZA2M_GR_MANGO/src/tensorflow_lite/tensorflow/lite/kernels\kernel_util.h **** // tensor.
 134:C:/Renesas/e2studio_2021_01_workspace_RZA2M_ANPR/ANPR_RZA2M_GR_MANGO/src/tensorflow_lite/tensorflow/lite/kernels\kernel_util.h **** //
 135:C:/Renesas/e2studio_2021_01_workspace_RZA2M_ANPR/ANPR_RZA2M_GR_MANGO/src/tensorflow_lite/tensorflow/lite/kernels\kernel_util.h **** //   TfLiteTensor* my_tensor;
 136:C:/Renesas/e2studio_2021_01_workspace_RZA2M_ANPR/ANPR_RZA2M_GR_MANGO/src/tensorflow_lite/tensorflow/lite/kernels\kernel_util.h **** //   TF_LITE_ENSURE_OK(context,
 137:C:/Renesas/e2studio_2021_01_workspace_RZA2M_ANPR/ANPR_RZA2M_GR_MANGO/src/tensorflow_lite/tensorflow/lite/kernels\kernel_util.h **** //                     GetIntermediatesSafe(context, node, kMyTensorIdx,
 138:C:/Renesas/e2studio_2021_01_workspace_RZA2M_ANPR/ANPR_RZA2M_GR_MANGO/src/tensorflow_lite/tensorflow/lite/kernels\kernel_util.h **** //                     &my_tensor));
 139:C:/Renesas/e2studio_2021_01_workspace_RZA2M_ANPR/ANPR_RZA2M_GR_MANGO/src/tensorflow_lite/tensorflow/lite/kernels\kernel_util.h **** //   // can use my_tensor directly from here onwards, it is not nullptr
 140:C:/Renesas/e2studio_2021_01_workspace_RZA2M_ANPR/ANPR_RZA2M_GR_MANGO/src/tensorflow_lite/tensorflow/lite/kernels\kernel_util.h **** //
 141:C:/Renesas/e2studio_2021_01_workspace_RZA2M_ANPR/ANPR_RZA2M_GR_MANGO/src/tensorflow_lite/tensorflow/lite/kernels\kernel_util.h **** // Should be used in cases where the binary size is too large.
 142:C:/Renesas/e2studio_2021_01_workspace_RZA2M_ANPR/ANPR_RZA2M_GR_MANGO/src/tensorflow_lite/tensorflow/lite/kernels\kernel_util.h **** TfLiteStatus GetIntermediatesSafe(const TfLiteContext* context,
 143:C:/Renesas/e2studio_2021_01_workspace_RZA2M_ANPR/ANPR_RZA2M_GR_MANGO/src/tensorflow_lite/tensorflow/lite/kernels\kernel_util.h ****                                   const TfLiteNode* node, int index,
 144:C:/Renesas/e2studio_2021_01_workspace_RZA2M_ANPR/ANPR_RZA2M_GR_MANGO/src/tensorflow_lite/tensorflow/lite/kernels\kernel_util.h ****                                   TfLiteTensor** tensor);
 145:C:/Renesas/e2studio_2021_01_workspace_RZA2M_ANPR/ANPR_RZA2M_GR_MANGO/src/tensorflow_lite/tensorflow/lite/kernels\kernel_util.h **** #endif  // TF_LITE_STATIC_MEMORY
 146:C:/Renesas/e2studio_2021_01_workspace_RZA2M_ANPR/ANPR_RZA2M_GR_MANGO/src/tensorflow_lite/tensorflow/lite/kernels\kernel_util.h **** 
 147:C:/Renesas/e2studio_2021_01_workspace_RZA2M_ANPR/ANPR_RZA2M_GR_MANGO/src/tensorflow_lite/tensorflow/lite/kernels\kernel_util.h **** inline int NumDimensions(const TfLiteTensor* t) { return t->dims->size; }
 148:C:/Renesas/e2studio_2021_01_workspace_RZA2M_ANPR/ANPR_RZA2M_GR_MANGO/src/tensorflow_lite/tensorflow/lite/kernels\kernel_util.h **** inline int SizeOfDimension(const TfLiteTensor* t, int dim) {
 149:C:/Renesas/e2studio_2021_01_workspace_RZA2M_ANPR/ANPR_RZA2M_GR_MANGO/src/tensorflow_lite/tensorflow/lite/kernels\kernel_util.h ****   return t->dims->data[dim];
 150:C:/Renesas/e2studio_2021_01_workspace_RZA2M_ANPR/ANPR_RZA2M_GR_MANGO/src/tensorflow_lite/tensorflow/lite/kernels\kernel_util.h **** }
 151:C:/Renesas/e2studio_2021_01_workspace_RZA2M_ANPR/ANPR_RZA2M_GR_MANGO/src/tensorflow_lite/tensorflow/lite/kernels\kernel_util.h **** 
 152:C:/Renesas/e2studio_2021_01_workspace_RZA2M_ANPR/ANPR_RZA2M_GR_MANGO/src/tensorflow_lite/tensorflow/lite/kernels\kernel_util.h **** inline int NumInputs(const TfLiteNode* node) { return node->inputs->size; }
 153:C:/Renesas/e2studio_2021_01_workspace_RZA2M_ANPR/ANPR_RZA2M_GR_MANGO/src/tensorflow_lite/tensorflow/lite/kernels\kernel_util.h **** inline int NumOutputs(const TfLiteNode* node) { return node->outputs->size; }
 154:C:/Renesas/e2studio_2021_01_workspace_RZA2M_ANPR/ANPR_RZA2M_GR_MANGO/src/tensorflow_lite/tensorflow/lite/kernels\kernel_util.h **** 
 155:C:/Renesas/e2studio_2021_01_workspace_RZA2M_ANPR/ANPR_RZA2M_GR_MANGO/src/tensorflow_lite/tensorflow/lite/kernels\kernel_util.h **** #ifndef TF_LITE_STATIC_MEMORY
 156:C:/Renesas/e2studio_2021_01_workspace_RZA2M_ANPR/ANPR_RZA2M_GR_MANGO/src/tensorflow_lite/tensorflow/lite/kernels\kernel_util.h **** inline int NumIntermediates(const TfLiteNode* node) {
 157:C:/Renesas/e2studio_2021_01_workspace_RZA2M_ANPR/ANPR_RZA2M_GR_MANGO/src/tensorflow_lite/tensorflow/lite/kernels\kernel_util.h ****   return node->intermediates->size;
 158:C:/Renesas/e2studio_2021_01_workspace_RZA2M_ANPR/ANPR_RZA2M_GR_MANGO/src/tensorflow_lite/tensorflow/lite/kernels\kernel_util.h **** }
 159:C:/Renesas/e2studio_2021_01_workspace_RZA2M_ANPR/ANPR_RZA2M_GR_MANGO/src/tensorflow_lite/tensorflow/lite/kernels\kernel_util.h **** #endif  // TF_LITE_STATIC_MEMORY
 160:C:/Renesas/e2studio_2021_01_workspace_RZA2M_ANPR/ANPR_RZA2M_GR_MANGO/src/tensorflow_lite/tensorflow/lite/kernels\kernel_util.h **** 
 161:C:/Renesas/e2studio_2021_01_workspace_RZA2M_ANPR/ANPR_RZA2M_GR_MANGO/src/tensorflow_lite/tensorflow/lite/kernels\kernel_util.h **** inline int64_t NumElements(const TfLiteIntArray* dims) {
 162:C:/Renesas/e2studio_2021_01_workspace_RZA2M_ANPR/ANPR_RZA2M_GR_MANGO/src/tensorflow_lite/tensorflow/lite/kernels\kernel_util.h ****   int64_t count = 1;
 163:C:/Renesas/e2studio_2021_01_workspace_RZA2M_ANPR/ANPR_RZA2M_GR_MANGO/src/tensorflow_lite/tensorflow/lite/kernels\kernel_util.h ****   for (int i = 0; i < dims->size; ++i) {
 224              		.loc 2 163 0
 225 0120 001091E5 		ldr	r1, [r1]
 226              	.LVL26:
 227              	.LBE609:
 228              	.LBE608:
 229              	.LBE607:
 230              	.LBE606:
  90:../src/tensorflow_lite/tensorflow/lite/micro/kernels/reduce.cc ****   op_data->num_output_elements = NumElements(output);
 231              		.loc 1 90 0
 232 0124 0C3096E5 		ldr	r3, [r6, #12]	@ float
 233              	.LVL27:
  89:../src/tensorflow_lite/tensorflow/lite/micro/kernels/reduce.cc ****   op_data->output_scale = output->params.scale;
 234              		.loc 1 89 0
 235 0128 142087E5 		str	r2, [r7, #20]	@ float
 236              	.LBB619:
 237              	.LBB616:
 238              	.LBB613:
 239              	.LBB610:
 240              		.loc 2 163 0
 241 012c 0100A0E1 		mov	r0, r1
 242              	.LVL28:
 243 0130 1C108DE5 		str	r1, [sp, #28]
 244 0134 000050E3 		cmp	r0, #0
 245              	.LBE610:
 246              	.LBE613:
 247              	.LBE616:
 248              	.LBE619:
  90:../src/tensorflow_lite/tensorflow/lite/micro/kernels/reduce.cc ****   op_data->num_output_elements = NumElements(output);
 249              		.loc 1 90 0
 250 0138 1C3087E5 		str	r3, [r7, #28]	@ float
 251              	.LBB620:
 252              	.LBB617:
 253              	.LBB614:
 254              	.LBB611:
 255              		.loc 2 163 0
 256 013c 510000DA 		ble	.L12
 257 0140 080050E3 		cmp	r0, #8
 258 0144 0030A0E1 		mov	r3, r0
 259 0148 8D0000DA 		ble	.L14
 260 014c 20209DE5 		ldr	r2, [sp, #32]
 261 0150 093040E2 		sub	r3, r0, #9
 262 0154 0080A0E3 		mov	r8, #0
 263 0158 0730C3E3 		bic	r3, r3, #7
 264 015c 0100A0E3 		mov	r0, #1
 265 0160 0010A0E3 		mov	r1, #0
 266 0164 A4E082E2 		add	lr, r2, #164
 267 0168 08C0A0E1 		mov	ip, r8
 268 016c 083083E2 		add	r3, r3, #8
 269 0170 18308DE5 		str	r3, [sp, #24]
 270              	.LVL29:
 271              	.L10:
 164:C:/Renesas/e2studio_2021_01_workspace_RZA2M_ANPR/ANPR_RZA2M_GR_MANGO/src/tensorflow_lite/tensorflow/lite/kernels\kernel_util.h ****     count *= dims->data[i];
 272              		.loc 2 164 0
 273 0174 A0801EE5 		ldr	r8, [lr, #-160]
 274 0178 08C08CE2 		add	ip, ip, #8
 275 017c 18309DE5 		ldr	r3, [sp, #24]
 276 0180 9C601EE5 		ldr	r6, [lr, #-156]
 277 0184 98401EE5 		ldr	r4, [lr, #-152]
 278 0188 03005CE1 		cmp	ip, r3
 279 018c 980103E0 		mul	r3, r8, r1
 280 0190 C8BFA0E1 		asr	fp, r8, #31
 281 0194 94501EE5 		ldr	r5, [lr, #-148]
 282 0198 988089E0 		umull	r8, r9, r8, r0
 283 019c 8C201EE5 		ldr	r2, [lr, #-140]
 284 01a0 00F0DEF5 		pld	[lr]
 285 01a4 20E08EE2 		add	lr, lr, #32
 286 01a8 903B23E0 		mla	r3, r0, fp, r3
 287 01ac C6BFA0E1 		asr	fp, r6, #31
 288 01b0 960881E0 		umull	r0, r1, r6, r8
 289              	.LVL30:
 290 01b4 099083E0 		add	r9, r3, r9
 291              	.LVL31:
 292 01b8 B0301EE5 		ldr	r3, [lr, #-176]
 293 01bc 960907E0 		mul	r7, r6, r9
 294 01c0 C49FA0E1 		asr	r9, r4, #31
 295 01c4 987B27E0 		mla	r7, r8, fp, r7
 296 01c8 011087E0 		add	r1, r7, r1
 297              	.LVL32:
 298 01cc 946087E0 		umull	r6, r7, r4, r0
 299 01d0 94010AE0 		mul	r10, r4, r1
 300 01d4 A8101EE5 		ldr	r1, [lr, #-168]
 301 01d8 90A92AE0 		mla	r10, r0, r9, r10
 302 01dc A4001EE5 		ldr	r0, [lr, #-164]
 303              	.LVL33:
 304 01e0 C59FA0E1 		asr	r9, r5, #31
 305 01e4 07708AE0 		add	r7, r10, r7
 306              	.LVL34:
 307 01e8 950708E0 		mul	r8, r5, r7
 308 01ec C37FA0E1 		asr	r7, r3, #31
 309 01f0 954685E0 		umull	r4, r5, r5, r6
 310 01f4 968928E0 		mla	r8, r6, r9, r8
 311 01f8 C29FA0E1 		asr	r9, r2, #31
 312 01fc 055088E0 		add	r5, r8, r5
 313              	.LVL35:
 314 0200 93050AE0 		mul	r10, r3, r5
 315 0204 94A72AE0 		mla	r10, r4, r7, r10
 316 0208 934485E0 		umull	r4, r5, r3, r4
 317              	.LVL36:
 318 020c C17FA0E1 		asr	r7, r1, #31
 319 0210 05508AE0 		add	r5, r10, r5
 320              	.LVL37:
 321 0214 920506E0 		mul	r6, r2, r5
 322 0218 C05FA0E1 		asr	r5, r0, #31
 323 021c 922483E0 		umull	r2, r3, r2, r4
 324 0220 946926E0 		mla	r6, r4, r9, r6
 325 0224 033086E0 		add	r3, r6, r3
 326              	.LVL38:
 327 0228 910304E0 		mul	r4, r1, r3
 328 022c 924724E0 		mla	r4, r2, r7, r4
 329 0230 912283E0 		umull	r2, r3, r1, r2
 330              	.LVL39:
 331 0234 033084E0 		add	r3, r4, r3
 332              	.LVL40:
 333 0238 900303E0 		mul	r3, r0, r3
 334 023c 900281E0 		umull	r0, r1, r0, r2
 335 0240 923522E0 		mla	r2, r2, r5, r3
 336              	.LVL41:
 337 0244 011082E0 		add	r1, r2, r1
 338              	.LVL42:
 339 0248 C9FFFF1A 		bne	.L10
 340 024c 0C80A0E1 		mov	r8, ip
 341 0250 1CC09DE5 		ldr	ip, [sp, #28]
 342              	.LVL43:
 343              	.L9:
 344 0254 20309DE5 		ldr	r3, [sp, #32]
 345 0258 01E088E2 		add	lr, r8, #1
 346 025c 0E4183E0 		add	r4, r3, lr, lsl #2
 347              	.L11:
 348              	.LVL44:
 349 0260 042094E4 		ldr	r2, [r4], #4
 163:C:/Renesas/e2studio_2021_01_workspace_RZA2M_ANPR/ANPR_RZA2M_GR_MANGO/src/tensorflow_lite/tensorflow/lite/kernels\kernel_util.h ****     count *= dims->data[i];
 350              		.loc 2 163 0
 351 0264 0C005EE1 		cmp	lr, ip
 352 0268 01E08EE2 		add	lr, lr, #1
 353              		.loc 2 164 0
 354 026c C27FA0E1 		asr	r7, r2, #31
 355 0270 900703E0 		mul	r3, r0, r7
 356 0274 923123E0 		mla	r3, r2, r1, r3
 357 0278 900281E0 		umull	r0, r1, r0, r2
 358              	.LVL45:
 359 027c 011083E0 		add	r1, r3, r1
 360              	.LVL46:
 163:C:/Renesas/e2studio_2021_01_workspace_RZA2M_ANPR/ANPR_RZA2M_GR_MANGO/src/tensorflow_lite/tensorflow/lite/kernels\kernel_util.h ****     count *= dims->data[i];
 361              		.loc 2 163 0
 362 0280 F6FFFFBA 		blt	.L11
 363 0284 0050A0E1 		mov	r5, r0
 364              	.LVL47:
 365              	.L12:
 366              	.LBE611:
 367              	.LBE614:
 368              	.LBE617:
 369              	.LBE620:
  93:../src/tensorflow_lite/tensorflow/lite/micro/kernels/reduce.cc ****                                        &op_data->temp_buffer_idx);
 370              		.loc 1 93 0
 371 0288 28309DE5 		ldr	r3, [sp, #40]
  94:../src/tensorflow_lite/tensorflow/lite/micro/kernels/reduce.cc ****   context->RequestScratchBufferInArena(
 372              		.loc 1 94 0
 373 028c 24609DE5 		ldr	r6, [sp, #36]
  93:../src/tensorflow_lite/tensorflow/lite/micro/kernels/reduce.cc ****                                        &op_data->temp_buffer_idx);
 374              		.loc 1 93 0
 375 0290 081093E5 		ldr	r1, [r3, #8]
  91:../src/tensorflow_lite/tensorflow/lite/micro/kernels/reduce.cc **** 
 376              		.loc 1 91 0
 377 0294 205086E5 		str	r5, [r6, #32]
  94:../src/tensorflow_lite/tensorflow/lite/micro/kernels/reduce.cc ****   context->RequestScratchBufferInArena(
 378              		.loc 1 94 0
 379 0298 082086E2 		add	r2, r6, #8
 380 029c 14509DE5 		ldr	r5, [sp, #20]
  93:../src/tensorflow_lite/tensorflow/lite/micro/kernels/reduce.cc ****                                        &op_data->temp_buffer_idx);
 381              		.loc 1 93 0
 382 02a0 001091E5 		ldr	r1, [r1]
  94:../src/tensorflow_lite/tensorflow/lite/micro/kernels/reduce.cc ****   context->RequestScratchBufferInArena(
 383              		.loc 1 94 0
 384 02a4 403095E5 		ldr	r3, [r5, #64]
 385 02a8 0500A0E1 		mov	r0, r5
 386 02ac 0111A0E1 		lsl	r1, r1, #2
 387 02b0 33FF2FE1 		blx	r3
 388              	.LVL48:
  96:../src/tensorflow_lite/tensorflow/lite/micro/kernels/reduce.cc ****       &op_data->resolved_axis_idx);
 389              		.loc 1 96 0
 390 02b4 2C309DE5 		ldr	r3, [sp, #44]
  95:../src/tensorflow_lite/tensorflow/lite/micro/kernels/reduce.cc ****       context, sizeof(int) * static_cast<int>(ElementCount(*axis->dims)),
 391              		.loc 1 95 0
 392 02b8 404095E5 		ldr	r4, [r5, #64]
  96:../src/tensorflow_lite/tensorflow/lite/micro/kernels/reduce.cc ****       &op_data->resolved_axis_idx);
 393              		.loc 1 96 0
 394 02bc 080093E5 		ldr	r0, [r3, #8]
 395 02c0 FEFFFFEB 		bl	_ZN6tflite12ElementCountERK14TfLiteIntArray
 396              	.LVL49:
  97:../src/tensorflow_lite/tensorflow/lite/micro/kernels/reduce.cc **** 
 397              		.loc 1 97 0
 398 02c4 0C2086E2 		add	r2, r6, #12
 399 02c8 0011A0E1 		lsl	r1, r0, #2
 400 02cc 0500A0E1 		mov	r0, r5
 401 02d0 34FF2FE1 		blx	r4
 402              	.LVL50:
 403 02d4 0000A0E3 		mov	r0, #0
 404              	.LBE605:
 405              	.LBE604:
 406              		.loc 1 100 0
 407 02d8 34D08DE2 		add	sp, sp, #52
 408              		.cfi_remember_state
 409              		.cfi_def_cfa_offset 36
 410              		@ sp needed
 411 02dc F08FBDE8 		pop	{r4, r5, r6, r7, r8, r9, r10, fp, pc}
 412              	.LVL51:
 413              	.L22:
 414              		.cfi_restore_state
 415              	.LBB623:
 416              	.LBB599:
 417              	.LBB594:
  62:../src/tensorflow_lite/tensorflow/lite/micro/kernels/reduce.cc ****   TF_LITE_ENSURE_EQ(context, node->outputs->size, 1);
 418              		.loc 1 62 0
 419 02e0 000000E3 		movw	r0, #:lower16:.LC4
 420              	.LVL52:
 421 02e4 003000E3 		movw	r3, #:lower16:.LC5
 422 02e8 02C0A0E3 		mov	ip, #2
 423 02ec 000040E3 		movt	r0, #:upper16:.LC4
 424 02f0 003040E3 		movt	r3, #:upper16:.LC5
 425 02f4 002000E3 		movw	r2, #:lower16:.LC2
 426 02f8 001000E3 		movw	r1, #:lower16:.LC3
 427 02fc 41008DE9 		stmib	sp, {r0, r6}
 428 0300 00308DE5 		str	r3, [sp]
 429 0304 0500A0E1 		mov	r0, r5
 430 0308 0CC08DE5 		str	ip, [sp, #12]
 431 030c 002040E3 		movt	r2, #:upper16:.LC2
 432 0310 001040E3 		movt	r1, #:upper16:.LC3
 433 0314 144095E5 		ldr	r4, [r5, #20]
 434              	.LVL53:
 435 0318 3E30A0E3 		mov	r3, #62
 436 031c 34FF2FE1 		blx	r4
 437              	.LVL54:
 438 0320 0100A0E3 		mov	r0, #1
 439              	.LBE594:
 440              	.LBE599:
 441              	.LBE623:
 442              		.loc 1 100 0
 443 0324 34D08DE2 		add	sp, sp, #52
 444              		.cfi_remember_state
 445              		.cfi_def_cfa_offset 36
 446              		@ sp needed
 447 0328 F08FBDE8 		pop	{r4, r5, r6, r7, r8, r9, r10, fp, pc}
 448              	.LVL55:
 449              	.L24:
 450              		.cfi_restore_state
 451              	.LBB624:
 452              	.LBB600:
 453              	.LBB595:
  68:../src/tensorflow_lite/tensorflow/lite/micro/kernels/reduce.cc **** 
 454              		.loc 1 68 0
 455 032c 14809DE5 		ldr	r8, [sp, #20]
 456 0330 144098E5 		ldr	r4, [r8, #20]
 457              	.LVL56:
 458 0334 FEFFFFEB 		bl	TfLiteTypeGetName
 459              	.LVL57:
 460 0338 0070A0E1 		mov	r7, r0
 461              	.LVL58:
 462 033c 0600A0E1 		mov	r0, r6
 463 0340 FEFFFFEB 		bl	TfLiteTypeGetName
 464              	.LVL59:
 465 0344 00C000E3 		movw	ip, #:lower16:.LC11
 466 0348 003000E3 		movw	r3, #:lower16:.LC12
 467 034c 00C040E3 		movt	ip, #:upper16:.LC11
 468 0350 003040E3 		movt	r3, #:upper16:.LC12
 469 0354 002000E3 		movw	r2, #:lower16:.LC2
 470 0358 001000E3 		movw	r1, #:lower16:.LC10
 471 035c 0C008DE5 		str	r0, [sp, #12]
 472 0360 002040E3 		movt	r2, #:upper16:.LC2
 473 0364 0800A0E1 		mov	r0, r8
 474 0368 08108DE8 		stm	sp, {r3, ip}
 475 036c 08708DE5 		str	r7, [sp, #8]
 476 0370 001040E3 		movt	r1, #:upper16:.LC10
 477 0374 4430A0E3 		mov	r3, #68
 478 0378 34FF2FE1 		blx	r4
 479              	.LVL60:
 480 037c 0500A0E1 		mov	r0, r5
 481 0380 3FFFFFEA 		b	.L17
 482              	.LVL61:
 483              	.L14:
 484              	.LBE595:
 485              	.LBE600:
 486              	.LBE624:
 487              	.LBB625:
 488              	.LBB622:
 489              	.LBB621:
 490              	.LBB618:
 491              	.LBB615:
 492              	.LBB612:
 163:C:/Renesas/e2studio_2021_01_workspace_RZA2M_ANPR/ANPR_RZA2M_GR_MANGO/src/tensorflow_lite/tensorflow/lite/kernels\kernel_util.h ****     count *= dims->data[i];
 493              		.loc 2 163 0
 494 0384 0100A0E3 		mov	r0, #1
 495 0388 0010A0E3 		mov	r1, #0
 496 038c 0080A0E3 		mov	r8, #0
 497              	.LVL62:
 498 0390 03C0A0E1 		mov	ip, r3
 499 0394 AEFFFFEA 		b	.L9
 500              	.LVL63:
 501              	.L25:
 502              	.LBE612:
 503              	.LBE615:
 504              	.LBE618:
 505              	.LBE621:
 506              	.LBE622:
 507              	.LBE625:
 508              	.LBB626:
 509              	.LBB601:
 510              	.LBB596:
 511              	.LBB591:
 512              	.LBB590:
  72:../src/tensorflow_lite/tensorflow/lite/micro/kernels/reduce.cc ****     const double real_multiplier = static_cast<double>(input->params.scale) /
 513              		.loc 1 72 0
 514 0398 0410A0E1 		mov	r1, r4
 515 039c 0020A0E3 		mov	r2, #0
 516 03a0 14009DE5 		ldr	r0, [sp, #20]
  71:../src/tensorflow_lite/tensorflow/lite/micro/kernels/reduce.cc ****     const TfLiteTensor* output = GetOutput(context, node, 0);
 517              		.loc 1 71 0
 518 03a4 106094E5 		ldr	r6, [r4, #16]
 519              	.LVL64:
  72:../src/tensorflow_lite/tensorflow/lite/micro/kernels/reduce.cc ****     const double real_multiplier = static_cast<double>(input->params.scale) /
 520              		.loc 1 72 0
 521 03a8 FEFFFFEB 		bl	_ZN6tflite9GetOutputEP13TfLiteContextPK10TfLiteNodei
 522              	.LVL65:
  73:../src/tensorflow_lite/tensorflow/lite/micro/kernels/reduce.cc ****                                    static_cast<double>(output->params.scale);
 523              		.loc 1 73 0
 524 03ac 030A97ED 		vldr.32	s0, [r7, #12]
  74:../src/tensorflow_lite/tensorflow/lite/micro/kernels/reduce.cc ****     QuantizeMultiplier(real_multiplier, &data->multiplier, &data->shift);
 525              		.loc 1 74 0
 526 03b0 037AD0ED 		vldr.32	s15, [r0, #12]
  75:../src/tensorflow_lite/tensorflow/lite/micro/kernels/reduce.cc ****   }
 527              		.loc 1 75 0
 528 03b4 041086E2 		add	r1, r6, #4
 529 03b8 0600A0E1 		mov	r0, r6
 530              	.LVL66:
  73:../src/tensorflow_lite/tensorflow/lite/micro/kernels/reduce.cc ****                                    static_cast<double>(output->params.scale);
 531              		.loc 1 73 0
 532 03bc C00AB7EE 		vcvt.f64.f32	d0, s0
  74:../src/tensorflow_lite/tensorflow/lite/micro/kernels/reduce.cc ****     QuantizeMultiplier(real_multiplier, &data->multiplier, &data->shift);
 533              		.loc 1 74 0
 534 03c0 E70AF7EE 		vcvt.f64.f32	d16, s15
  75:../src/tensorflow_lite/tensorflow/lite/micro/kernels/reduce.cc ****   }
 535              		.loc 1 75 0
 536 03c4 200B80EE 		vdiv.f64	d0, d0, d16
 537              	.LVL67:
 538 03c8 FEFFFFEB 		bl	_ZN6tflite18QuantizeMultiplierEdPlPi
 539              	.LVL68:
 540 03cc 3BFFFFEA 		b	.L8
 541              	.LVL69:
 542              	.L23:
 543              	.LBE590:
 544              	.LBE591:
  67:../src/tensorflow_lite/tensorflow/lite/micro/kernels/reduce.cc ****   TF_LITE_ENSURE_TYPES_EQ(context, axis->type, kTfLiteInt32);
 545              		.loc 1 67 0
 546 03d0 003000E3 		movw	r3, #:lower16:.LC9
 547 03d4 002000E3 		movw	r2, #:lower16:.LC2
 548 03d8 003040E3 		movt	r3, #:upper16:.LC9
 549 03dc 001000E3 		movw	r1, #:lower16:.LC8
 550 03e0 00308DE5 		str	r3, [sp]
 551 03e4 002040E3 		movt	r2, #:upper16:.LC2
 552 03e8 14309DE5 		ldr	r3, [sp, #20]
 553 03ec 001040E3 		movt	r1, #:upper16:.LC8
 554 03f0 0300A0E1 		mov	r0, r3
 555              	.LVL70:
 556 03f4 144093E5 		ldr	r4, [r3, #20]
 557              	.LVL71:
 558 03f8 4330A0E3 		mov	r3, #67
 559 03fc 34FF2FE1 		blx	r4
 560              	.LVL72:
 561 0400 0500A0E1 		mov	r0, r5
 562 0404 1EFFFFEA 		b	.L17
 563              	.LBE596:
 564              	.LBE601:
 565              	.LBE626:
 566              		.cfi_endproc
 567              	.LFE4193:
 568              		.fnend
 570              		.global	__aeabi_uidiv
 571              		.section	.text._ZN6tflite3ops5micro6reduce7EvalMaxEP13TfLiteContextP10TfLiteNode,"ax",%progbits
 572              		.align	2
 573              		.global	_ZN6tflite3ops5micro6reduce7EvalMaxEP13TfLiteContextP10TfLiteNode
 574              		.syntax unified
 575              		.arm
 576              		.fpu neon
 578              	_ZN6tflite3ops5micro6reduce7EvalMaxEP13TfLiteContextP10TfLiteNode:
 579              		.fnstart
 580              	.LFB4197:
 101:../src/tensorflow_lite/tensorflow/lite/micro/kernels/reduce.cc **** 
 102:../src/tensorflow_lite/tensorflow/lite/micro/kernels/reduce.cc **** TfLiteStatus PrepareMeanOrSum(TfLiteContext* context, TfLiteNode* node) {
 103:../src/tensorflow_lite/tensorflow/lite/micro/kernels/reduce.cc ****   const TfLiteTensor* input = GetInput(context, node, 0);
 104:../src/tensorflow_lite/tensorflow/lite/micro/kernels/reduce.cc ****   OpData* op_data = reinterpret_cast<OpData*>(node->user_data);
 105:../src/tensorflow_lite/tensorflow/lite/micro/kernels/reduce.cc ****   const TfLiteTensor* output = GetOutput(context, node, 0);
 106:../src/tensorflow_lite/tensorflow/lite/micro/kernels/reduce.cc ****   if (input->type == kTfLiteInt8) {
 107:../src/tensorflow_lite/tensorflow/lite/micro/kernels/reduce.cc ****     const double real_multiplier = static_cast<double>(input->params.scale) /
 108:../src/tensorflow_lite/tensorflow/lite/micro/kernels/reduce.cc ****                                    static_cast<double>(output->params.scale);
 109:../src/tensorflow_lite/tensorflow/lite/micro/kernels/reduce.cc ****     QuantizeMultiplier(real_multiplier, &op_data->multiplier, &op_data->shift);
 110:../src/tensorflow_lite/tensorflow/lite/micro/kernels/reduce.cc ****   }
 111:../src/tensorflow_lite/tensorflow/lite/micro/kernels/reduce.cc **** 
 112:../src/tensorflow_lite/tensorflow/lite/micro/kernels/reduce.cc ****   int output_size = NumElements(output);
 113:../src/tensorflow_lite/tensorflow/lite/micro/kernels/reduce.cc ****   if (input->type == kTfLiteInt8 || input->type == kTfLiteUInt8) {
 114:../src/tensorflow_lite/tensorflow/lite/micro/kernels/reduce.cc ****     context->RequestScratchBufferInArena(context, output_size * sizeof(int32_t),
 115:../src/tensorflow_lite/tensorflow/lite/micro/kernels/reduce.cc ****                                          &op_data->temp_buffer_idx);
 116:../src/tensorflow_lite/tensorflow/lite/micro/kernels/reduce.cc ****     op_data->input_zp = input->params.zero_point;
 117:../src/tensorflow_lite/tensorflow/lite/micro/kernels/reduce.cc ****     op_data->input_scale = input->params.scale;
 118:../src/tensorflow_lite/tensorflow/lite/micro/kernels/reduce.cc ****     op_data->output_zp = output->params.zero_point;
 119:../src/tensorflow_lite/tensorflow/lite/micro/kernels/reduce.cc ****     op_data->output_scale = output->params.scale;
 120:../src/tensorflow_lite/tensorflow/lite/micro/kernels/reduce.cc ****   }
 121:../src/tensorflow_lite/tensorflow/lite/micro/kernels/reduce.cc **** 
 122:../src/tensorflow_lite/tensorflow/lite/micro/kernels/reduce.cc ****   TF_LITE_ENSURE_OK(context, PrepareSimple(context, node));
 123:../src/tensorflow_lite/tensorflow/lite/micro/kernels/reduce.cc ****   // TODO(b/144955155): Support uint8_t(b/144955155) and int8_t(b/144955018)
 124:../src/tensorflow_lite/tensorflow/lite/micro/kernels/reduce.cc ****   return kTfLiteOk;
 125:../src/tensorflow_lite/tensorflow/lite/micro/kernels/reduce.cc **** }
 126:../src/tensorflow_lite/tensorflow/lite/micro/kernels/reduce.cc **** 
 127:../src/tensorflow_lite/tensorflow/lite/micro/kernels/reduce.cc **** void ResolveAxis(const int* axis_data, int axis_count,
 128:../src/tensorflow_lite/tensorflow/lite/micro/kernels/reduce.cc ****                  tflite::MeanParams* op_params) {
 129:../src/tensorflow_lite/tensorflow/lite/micro/kernels/reduce.cc ****   int i = 0;
 130:../src/tensorflow_lite/tensorflow/lite/micro/kernels/reduce.cc ****   for (; i < axis_count; ++i) {
 131:../src/tensorflow_lite/tensorflow/lite/micro/kernels/reduce.cc ****     op_params->axis[i] = static_cast<int16_t>(axis_data[i]);
 132:../src/tensorflow_lite/tensorflow/lite/micro/kernels/reduce.cc ****   }
 133:../src/tensorflow_lite/tensorflow/lite/micro/kernels/reduce.cc ****   for (; i < 4; ++i) {
 134:../src/tensorflow_lite/tensorflow/lite/micro/kernels/reduce.cc ****     op_params->axis[i] = 1;
 135:../src/tensorflow_lite/tensorflow/lite/micro/kernels/reduce.cc ****   }
 136:../src/tensorflow_lite/tensorflow/lite/micro/kernels/reduce.cc ****   op_params->axis_count = axis_count;
 137:../src/tensorflow_lite/tensorflow/lite/micro/kernels/reduce.cc **** }
 138:../src/tensorflow_lite/tensorflow/lite/micro/kernels/reduce.cc **** 
 139:../src/tensorflow_lite/tensorflow/lite/micro/kernels/reduce.cc **** TfLiteStatus EvalMean(TfLiteContext* context, TfLiteNode* node) {
 140:../src/tensorflow_lite/tensorflow/lite/micro/kernels/reduce.cc ****   const TfLiteEvalTensor* input = tflite::micro::GetEvalInput(context, node, 0);
 141:../src/tensorflow_lite/tensorflow/lite/micro/kernels/reduce.cc ****   const TfLiteEvalTensor* axis = tflite::micro::GetEvalInput(context, node, 1);
 142:../src/tensorflow_lite/tensorflow/lite/micro/kernels/reduce.cc ****   TfLiteEvalTensor* output = tflite::micro::GetEvalOutput(context, node, 0);
 143:../src/tensorflow_lite/tensorflow/lite/micro/kernels/reduce.cc ****   TfLiteReducerParams* params =
 144:../src/tensorflow_lite/tensorflow/lite/micro/kernels/reduce.cc ****       reinterpret_cast<TfLiteReducerParams*>(node->builtin_data);
 145:../src/tensorflow_lite/tensorflow/lite/micro/kernels/reduce.cc ****   OpData* op_data = reinterpret_cast<OpData*>(node->user_data);
 146:../src/tensorflow_lite/tensorflow/lite/micro/kernels/reduce.cc **** 
 147:../src/tensorflow_lite/tensorflow/lite/micro/kernels/reduce.cc ****   int num_axis = static_cast<int>(ElementCount(*axis->dims));
 148:../src/tensorflow_lite/tensorflow/lite/micro/kernels/reduce.cc ****   int temp_index[kMaxNumberOfAxis];
 149:../src/tensorflow_lite/tensorflow/lite/micro/kernels/reduce.cc ****   int resolved_axis[kMaxNumberOfReducedAxis];
 150:../src/tensorflow_lite/tensorflow/lite/micro/kernels/reduce.cc **** 
 151:../src/tensorflow_lite/tensorflow/lite/micro/kernels/reduce.cc ****   tflite::MeanParams op_params;
 152:../src/tensorflow_lite/tensorflow/lite/micro/kernels/reduce.cc ****   ResolveAxis(tflite::micro::GetTensorData<int>(axis), num_axis, &op_params);
 153:../src/tensorflow_lite/tensorflow/lite/micro/kernels/reduce.cc **** 
 154:../src/tensorflow_lite/tensorflow/lite/micro/kernels/reduce.cc ****   // Special case mean implementation exists for 4D mean across axes 1 and 2.
 155:../src/tensorflow_lite/tensorflow/lite/micro/kernels/reduce.cc ****   bool special_case_4d_axes_1_and_2 =
 156:../src/tensorflow_lite/tensorflow/lite/micro/kernels/reduce.cc ****       input->dims->size == 4 && op_params.axis_count == 2 &&
 157:../src/tensorflow_lite/tensorflow/lite/micro/kernels/reduce.cc ****       ((op_params.axis[0] == 1 && op_params.axis[1] == 2) ||
 158:../src/tensorflow_lite/tensorflow/lite/micro/kernels/reduce.cc ****        (op_params.axis[0] == 2 && op_params.axis[1] == 1));
 159:../src/tensorflow_lite/tensorflow/lite/micro/kernels/reduce.cc **** 
 160:../src/tensorflow_lite/tensorflow/lite/micro/kernels/reduce.cc ****   switch (input->type) {
 161:../src/tensorflow_lite/tensorflow/lite/micro/kernels/reduce.cc ****     case kTfLiteFloat32: {
 162:../src/tensorflow_lite/tensorflow/lite/micro/kernels/reduce.cc ****       // Defer to specialized implementation for 4D Mean across axes 1 & 2.
 163:../src/tensorflow_lite/tensorflow/lite/micro/kernels/reduce.cc ****       if (params->keep_dims && special_case_4d_axes_1_and_2) {
 164:../src/tensorflow_lite/tensorflow/lite/micro/kernels/reduce.cc ****         reference_ops::Mean(op_params, tflite::micro::GetTensorShape(input),
 165:../src/tensorflow_lite/tensorflow/lite/micro/kernels/reduce.cc ****                             tflite::micro::GetTensorData<float>(input),
 166:../src/tensorflow_lite/tensorflow/lite/micro/kernels/reduce.cc ****                             tflite::micro::GetTensorShape(output),
 167:../src/tensorflow_lite/tensorflow/lite/micro/kernels/reduce.cc ****                             tflite::micro::GetTensorData<float>(output));
 168:../src/tensorflow_lite/tensorflow/lite/micro/kernels/reduce.cc ****       } else {
 169:../src/tensorflow_lite/tensorflow/lite/micro/kernels/reduce.cc ****         TF_LITE_ENSURE(
 170:../src/tensorflow_lite/tensorflow/lite/micro/kernels/reduce.cc ****             context,
 171:../src/tensorflow_lite/tensorflow/lite/micro/kernels/reduce.cc ****             reference_ops::Mean(
 172:../src/tensorflow_lite/tensorflow/lite/micro/kernels/reduce.cc ****                 tflite::micro::GetTensorData<float>(input), input->dims->data,
 173:../src/tensorflow_lite/tensorflow/lite/micro/kernels/reduce.cc ****                 input->dims->size, tflite::micro::GetTensorData<float>(output),
 174:../src/tensorflow_lite/tensorflow/lite/micro/kernels/reduce.cc ****                 output->dims->data, output->dims->size,
 175:../src/tensorflow_lite/tensorflow/lite/micro/kernels/reduce.cc ****                 tflite::micro::GetTensorData<int>(axis), num_axis,
 176:../src/tensorflow_lite/tensorflow/lite/micro/kernels/reduce.cc ****                 params->keep_dims, temp_index, resolved_axis,
 177:../src/tensorflow_lite/tensorflow/lite/micro/kernels/reduce.cc ****                 tflite::micro::GetTensorData<float>(output)));
 178:../src/tensorflow_lite/tensorflow/lite/micro/kernels/reduce.cc ****       }
 179:../src/tensorflow_lite/tensorflow/lite/micro/kernels/reduce.cc ****     } break;
 180:../src/tensorflow_lite/tensorflow/lite/micro/kernels/reduce.cc ****     case kTfLiteInt8: {
 181:../src/tensorflow_lite/tensorflow/lite/micro/kernels/reduce.cc ****       // Defer to specialized implementation for 4D Mean across axes 1 & 2.
 182:../src/tensorflow_lite/tensorflow/lite/micro/kernels/reduce.cc ****       if (params->keep_dims && special_case_4d_axes_1_and_2) {
 183:../src/tensorflow_lite/tensorflow/lite/micro/kernels/reduce.cc ****         reference_integer_ops::Mean(
 184:../src/tensorflow_lite/tensorflow/lite/micro/kernels/reduce.cc ****             op_params, op_data->multiplier, op_data->shift,
 185:../src/tensorflow_lite/tensorflow/lite/micro/kernels/reduce.cc ****             tflite::micro::GetTensorShape(input),
 186:../src/tensorflow_lite/tensorflow/lite/micro/kernels/reduce.cc ****             tflite::micro::GetTensorData<int8_t>(input), op_data->input_zp,
 187:../src/tensorflow_lite/tensorflow/lite/micro/kernels/reduce.cc ****             tflite::micro::GetTensorShape(output),
 188:../src/tensorflow_lite/tensorflow/lite/micro/kernels/reduce.cc ****             tflite::micro::GetTensorData<int8_t>(output), op_data->output_zp);
 189:../src/tensorflow_lite/tensorflow/lite/micro/kernels/reduce.cc ****       } else if (op_data->input_zp == op_data->output_zp &&
 190:../src/tensorflow_lite/tensorflow/lite/micro/kernels/reduce.cc ****                  op_data->input_scale == op_data->output_scale) {
 191:../src/tensorflow_lite/tensorflow/lite/micro/kernels/reduce.cc ****         int32_t* temp_buffer = static_cast<int32_t*>(
 192:../src/tensorflow_lite/tensorflow/lite/micro/kernels/reduce.cc ****             context->GetScratchBuffer(context, op_data->temp_buffer_idx));
 193:../src/tensorflow_lite/tensorflow/lite/micro/kernels/reduce.cc ****         TF_LITE_ENSURE(
 194:../src/tensorflow_lite/tensorflow/lite/micro/kernels/reduce.cc ****             context,
 195:../src/tensorflow_lite/tensorflow/lite/micro/kernels/reduce.cc ****             reference_ops::Mean(
 196:../src/tensorflow_lite/tensorflow/lite/micro/kernels/reduce.cc ****                 tflite::micro::GetTensorData<int8_t>(input), input->dims->data,
 197:../src/tensorflow_lite/tensorflow/lite/micro/kernels/reduce.cc ****                 input->dims->size, tflite::micro::GetTensorData<int8_t>(output),
 198:../src/tensorflow_lite/tensorflow/lite/micro/kernels/reduce.cc ****                 output->dims->data, output->dims->size,
 199:../src/tensorflow_lite/tensorflow/lite/micro/kernels/reduce.cc ****                 tflite::micro::GetTensorData<int>(axis), num_axis,
 200:../src/tensorflow_lite/tensorflow/lite/micro/kernels/reduce.cc ****                 params->keep_dims, temp_index, resolved_axis, temp_buffer));
 201:../src/tensorflow_lite/tensorflow/lite/micro/kernels/reduce.cc ****       } else {
 202:../src/tensorflow_lite/tensorflow/lite/micro/kernels/reduce.cc ****         int32_t* temp_buffer = static_cast<int32_t*>(
 203:../src/tensorflow_lite/tensorflow/lite/micro/kernels/reduce.cc ****             context->GetScratchBuffer(context, op_data->temp_buffer_idx));
 204:../src/tensorflow_lite/tensorflow/lite/micro/kernels/reduce.cc ****         TF_LITE_ENSURE(
 205:../src/tensorflow_lite/tensorflow/lite/micro/kernels/reduce.cc ****             context,
 206:../src/tensorflow_lite/tensorflow/lite/micro/kernels/reduce.cc ****             reference_ops::QuantizedMeanOrSum(
 207:../src/tensorflow_lite/tensorflow/lite/micro/kernels/reduce.cc ****                 tflite::micro::GetTensorData<int8_t>(input), op_data->input_zp,
 208:../src/tensorflow_lite/tensorflow/lite/micro/kernels/reduce.cc ****                 op_data->input_scale, input->dims->data, input->dims->size,
 209:../src/tensorflow_lite/tensorflow/lite/micro/kernels/reduce.cc ****                 tflite::micro::GetTensorData<int8_t>(output),
 210:../src/tensorflow_lite/tensorflow/lite/micro/kernels/reduce.cc ****                 op_data->output_zp, op_data->output_scale, output->dims->data,
 211:../src/tensorflow_lite/tensorflow/lite/micro/kernels/reduce.cc ****                 output->dims->size, tflite::micro::GetTensorData<int>(axis),
 212:../src/tensorflow_lite/tensorflow/lite/micro/kernels/reduce.cc ****                 num_axis, params->keep_dims, temp_index, resolved_axis,
 213:../src/tensorflow_lite/tensorflow/lite/micro/kernels/reduce.cc ****                 temp_buffer, false));
 214:../src/tensorflow_lite/tensorflow/lite/micro/kernels/reduce.cc ****       }
 215:../src/tensorflow_lite/tensorflow/lite/micro/kernels/reduce.cc ****     } break;
 216:../src/tensorflow_lite/tensorflow/lite/micro/kernels/reduce.cc ****     case kTfLiteUInt8: {
 217:../src/tensorflow_lite/tensorflow/lite/micro/kernels/reduce.cc ****       // Defer to specialized implementation for 4D Mean across axes 1 & 2.
 218:../src/tensorflow_lite/tensorflow/lite/micro/kernels/reduce.cc ****       if (params->keep_dims && special_case_4d_axes_1_and_2) {
 219:../src/tensorflow_lite/tensorflow/lite/micro/kernels/reduce.cc ****         reference_ops::Mean(op_params, tflite::micro::GetTensorShape(input),
 220:../src/tensorflow_lite/tensorflow/lite/micro/kernels/reduce.cc ****                             tflite::micro::GetTensorData<uint8_t>(input),
 221:../src/tensorflow_lite/tensorflow/lite/micro/kernels/reduce.cc ****                             op_data->input_zp, op_data->input_scale,
 222:../src/tensorflow_lite/tensorflow/lite/micro/kernels/reduce.cc ****                             tflite::micro::GetTensorShape(output),
 223:../src/tensorflow_lite/tensorflow/lite/micro/kernels/reduce.cc ****                             tflite::micro::GetTensorData<uint8_t>(output),
 224:../src/tensorflow_lite/tensorflow/lite/micro/kernels/reduce.cc ****                             op_data->output_zp, op_data->output_scale);
 225:../src/tensorflow_lite/tensorflow/lite/micro/kernels/reduce.cc ****       } else if (op_data->input_zp == op_data->output_zp &&
 226:../src/tensorflow_lite/tensorflow/lite/micro/kernels/reduce.cc ****                  op_data->input_scale == op_data->output_scale) {
 227:../src/tensorflow_lite/tensorflow/lite/micro/kernels/reduce.cc ****         uint32_t* temp_buffer = static_cast<uint32_t*>(
 228:../src/tensorflow_lite/tensorflow/lite/micro/kernels/reduce.cc ****             context->GetScratchBuffer(context, op_data->temp_buffer_idx));
 229:../src/tensorflow_lite/tensorflow/lite/micro/kernels/reduce.cc ****         TF_LITE_ENSURE(
 230:../src/tensorflow_lite/tensorflow/lite/micro/kernels/reduce.cc ****             context,
 231:../src/tensorflow_lite/tensorflow/lite/micro/kernels/reduce.cc ****             reference_ops::Mean(tflite::micro::GetTensorData<uint8_t>(input),
 232:../src/tensorflow_lite/tensorflow/lite/micro/kernels/reduce.cc ****                                 input->dims->data, input->dims->size,
 233:../src/tensorflow_lite/tensorflow/lite/micro/kernels/reduce.cc ****                                 tflite::micro::GetTensorData<uint8_t>(output),
 234:../src/tensorflow_lite/tensorflow/lite/micro/kernels/reduce.cc ****                                 output->dims->data, output->dims->size,
 235:../src/tensorflow_lite/tensorflow/lite/micro/kernels/reduce.cc ****                                 tflite::micro::GetTensorData<int>(axis),
 236:../src/tensorflow_lite/tensorflow/lite/micro/kernels/reduce.cc ****                                 num_axis, params->keep_dims, temp_index,
 237:../src/tensorflow_lite/tensorflow/lite/micro/kernels/reduce.cc ****                                 resolved_axis, temp_buffer));
 238:../src/tensorflow_lite/tensorflow/lite/micro/kernels/reduce.cc ****       } else {
 239:../src/tensorflow_lite/tensorflow/lite/micro/kernels/reduce.cc ****         uint32_t* temp_buffer = static_cast<uint32_t*>(
 240:../src/tensorflow_lite/tensorflow/lite/micro/kernels/reduce.cc ****             context->GetScratchBuffer(context, op_data->temp_buffer_idx));
 241:../src/tensorflow_lite/tensorflow/lite/micro/kernels/reduce.cc ****         TF_LITE_ENSURE(
 242:../src/tensorflow_lite/tensorflow/lite/micro/kernels/reduce.cc ****             context,
 243:../src/tensorflow_lite/tensorflow/lite/micro/kernels/reduce.cc ****             reference_ops::QuantizedMeanOrSum(
 244:../src/tensorflow_lite/tensorflow/lite/micro/kernels/reduce.cc ****                 tflite::micro::GetTensorData<uint8_t>(input), op_data->input_zp,
 245:../src/tensorflow_lite/tensorflow/lite/micro/kernels/reduce.cc ****                 op_data->input_scale, input->dims->data, input->dims->size,
 246:../src/tensorflow_lite/tensorflow/lite/micro/kernels/reduce.cc ****                 tflite::micro::GetTensorData<uint8_t>(output),
 247:../src/tensorflow_lite/tensorflow/lite/micro/kernels/reduce.cc ****                 op_data->output_zp, op_data->output_scale, output->dims->data,
 248:../src/tensorflow_lite/tensorflow/lite/micro/kernels/reduce.cc ****                 output->dims->size, tflite::micro::GetTensorData<int>(axis),
 249:../src/tensorflow_lite/tensorflow/lite/micro/kernels/reduce.cc ****                 num_axis, params->keep_dims, temp_index, resolved_axis,
 250:../src/tensorflow_lite/tensorflow/lite/micro/kernels/reduce.cc ****                 temp_buffer, false));
 251:../src/tensorflow_lite/tensorflow/lite/micro/kernels/reduce.cc ****       }
 252:../src/tensorflow_lite/tensorflow/lite/micro/kernels/reduce.cc ****     } break;
 253:../src/tensorflow_lite/tensorflow/lite/micro/kernels/reduce.cc ****     default:
 254:../src/tensorflow_lite/tensorflow/lite/micro/kernels/reduce.cc ****       TF_LITE_ENSURE_MSG(context, false,
 255:../src/tensorflow_lite/tensorflow/lite/micro/kernels/reduce.cc ****                          "Currently, only float32, int8 or uint8 input type "
 256:../src/tensorflow_lite/tensorflow/lite/micro/kernels/reduce.cc ****                          "is supported.");
 257:../src/tensorflow_lite/tensorflow/lite/micro/kernels/reduce.cc ****   }
 258:../src/tensorflow_lite/tensorflow/lite/micro/kernels/reduce.cc ****   return kTfLiteOk;
 259:../src/tensorflow_lite/tensorflow/lite/micro/kernels/reduce.cc **** }
 260:../src/tensorflow_lite/tensorflow/lite/micro/kernels/reduce.cc **** 
 261:../src/tensorflow_lite/tensorflow/lite/micro/kernels/reduce.cc **** TfLiteStatus EvalMax(TfLiteContext* context, TfLiteNode* node) {
 581              		.loc 1 261 0
 582              		.cfi_startproc
 583              		@ args = 0, pretend = 0, frame = 48
 584              		@ frame_needed = 0, uses_anonymous_args = 0
 585              	.LVL73:
 586 0000 F04F2DE9 		push	{r4, r5, r6, r7, r8, r9, r10, fp, lr}
 587              		.save {r4, r5, r6, r7, r8, r9, r10, fp, lr}
 588              		.cfi_def_cfa_offset 36
 589              		.cfi_offset 4, -36
 590              		.cfi_offset 5, -32
 591              		.cfi_offset 6, -28
 592              		.cfi_offset 7, -24
 593              		.cfi_offset 8, -20
 594              		.cfi_offset 9, -16
 595              		.cfi_offset 10, -12
 596              		.cfi_offset 11, -8
 597              		.cfi_offset 14, -4
 598              	.LBB763:
 599              	.LBB764:
 600              	.LBB765:
 601              		.file 3 "C:/Renesas/e2studio_2021_01_workspace_RZA2M_ANPR/ANPR_RZA2M_GR_MANGO/src/tensorflow_lite/
   1:C:/Renesas/e2studio_2021_01_workspace_RZA2M_ANPR/ANPR_RZA2M_GR_MANGO/src/tensorflow_lite/tensorflow/lite/micro/kernels\kernel_util.h **** /* Copyright 2020 The TensorFlow Authors. All Rights Reserved.
   2:C:/Renesas/e2studio_2021_01_workspace_RZA2M_ANPR/ANPR_RZA2M_GR_MANGO/src/tensorflow_lite/tensorflow/lite/micro/kernels\kernel_util.h **** 
   3:C:/Renesas/e2studio_2021_01_workspace_RZA2M_ANPR/ANPR_RZA2M_GR_MANGO/src/tensorflow_lite/tensorflow/lite/micro/kernels\kernel_util.h **** Licensed under the Apache License, Version 2.0 (the "License");
   4:C:/Renesas/e2studio_2021_01_workspace_RZA2M_ANPR/ANPR_RZA2M_GR_MANGO/src/tensorflow_lite/tensorflow/lite/micro/kernels\kernel_util.h **** you may not use this file except in compliance with the License.
   5:C:/Renesas/e2studio_2021_01_workspace_RZA2M_ANPR/ANPR_RZA2M_GR_MANGO/src/tensorflow_lite/tensorflow/lite/micro/kernels\kernel_util.h **** You may obtain a copy of the License at
   6:C:/Renesas/e2studio_2021_01_workspace_RZA2M_ANPR/ANPR_RZA2M_GR_MANGO/src/tensorflow_lite/tensorflow/lite/micro/kernels\kernel_util.h **** 
   7:C:/Renesas/e2studio_2021_01_workspace_RZA2M_ANPR/ANPR_RZA2M_GR_MANGO/src/tensorflow_lite/tensorflow/lite/micro/kernels\kernel_util.h ****     http://www.apache.org/licenses/LICENSE-2.0
   8:C:/Renesas/e2studio_2021_01_workspace_RZA2M_ANPR/ANPR_RZA2M_GR_MANGO/src/tensorflow_lite/tensorflow/lite/micro/kernels\kernel_util.h **** 
   9:C:/Renesas/e2studio_2021_01_workspace_RZA2M_ANPR/ANPR_RZA2M_GR_MANGO/src/tensorflow_lite/tensorflow/lite/micro/kernels\kernel_util.h **** Unless required by applicable law or agreed to in writing, software
  10:C:/Renesas/e2studio_2021_01_workspace_RZA2M_ANPR/ANPR_RZA2M_GR_MANGO/src/tensorflow_lite/tensorflow/lite/micro/kernels\kernel_util.h **** distributed under the License is distributed on an "AS IS" BASIS,
  11:C:/Renesas/e2studio_2021_01_workspace_RZA2M_ANPR/ANPR_RZA2M_GR_MANGO/src/tensorflow_lite/tensorflow/lite/micro/kernels\kernel_util.h **** WITHOUT WARRANTIES OR CONDITIONS OF ANY KIND, either express or implied.
  12:C:/Renesas/e2studio_2021_01_workspace_RZA2M_ANPR/ANPR_RZA2M_GR_MANGO/src/tensorflow_lite/tensorflow/lite/micro/kernels\kernel_util.h **** See the License for the specific language governing permissions and
  13:C:/Renesas/e2studio_2021_01_workspace_RZA2M_ANPR/ANPR_RZA2M_GR_MANGO/src/tensorflow_lite/tensorflow/lite/micro/kernels\kernel_util.h **** limitations under the License.
  14:C:/Renesas/e2studio_2021_01_workspace_RZA2M_ANPR/ANPR_RZA2M_GR_MANGO/src/tensorflow_lite/tensorflow/lite/micro/kernels\kernel_util.h **** ==============================================================================*/
  15:C:/Renesas/e2studio_2021_01_workspace_RZA2M_ANPR/ANPR_RZA2M_GR_MANGO/src/tensorflow_lite/tensorflow/lite/micro/kernels\kernel_util.h **** 
  16:C:/Renesas/e2studio_2021_01_workspace_RZA2M_ANPR/ANPR_RZA2M_GR_MANGO/src/tensorflow_lite/tensorflow/lite/micro/kernels\kernel_util.h **** #ifndef TENSORFLOW_LITE_MICRO_KERNELS_KERNEL_UTIL_H_
  17:C:/Renesas/e2studio_2021_01_workspace_RZA2M_ANPR/ANPR_RZA2M_GR_MANGO/src/tensorflow_lite/tensorflow/lite/micro/kernels\kernel_util.h **** #define TENSORFLOW_LITE_MICRO_KERNELS_KERNEL_UTIL_H_
  18:C:/Renesas/e2studio_2021_01_workspace_RZA2M_ANPR/ANPR_RZA2M_GR_MANGO/src/tensorflow_lite/tensorflow/lite/micro/kernels\kernel_util.h **** 
  19:C:/Renesas/e2studio_2021_01_workspace_RZA2M_ANPR/ANPR_RZA2M_GR_MANGO/src/tensorflow_lite/tensorflow/lite/micro/kernels\kernel_util.h **** #include <cstdint>
  20:C:/Renesas/e2studio_2021_01_workspace_RZA2M_ANPR/ANPR_RZA2M_GR_MANGO/src/tensorflow_lite/tensorflow/lite/micro/kernels\kernel_util.h **** 
  21:C:/Renesas/e2studio_2021_01_workspace_RZA2M_ANPR/ANPR_RZA2M_GR_MANGO/src/tensorflow_lite/tensorflow/lite/micro/kernels\kernel_util.h **** #include "tensorflow/lite/c/builtin_op_data.h"
  22:C:/Renesas/e2studio_2021_01_workspace_RZA2M_ANPR/ANPR_RZA2M_GR_MANGO/src/tensorflow_lite/tensorflow/lite/micro/kernels\kernel_util.h **** #include "tensorflow/lite/c/common.h"
  23:C:/Renesas/e2studio_2021_01_workspace_RZA2M_ANPR/ANPR_RZA2M_GR_MANGO/src/tensorflow_lite/tensorflow/lite/micro/kernels\kernel_util.h **** #include "tensorflow/lite/kernels/internal/compatibility.h"
  24:C:/Renesas/e2studio_2021_01_workspace_RZA2M_ANPR/ANPR_RZA2M_GR_MANGO/src/tensorflow_lite/tensorflow/lite/micro/kernels\kernel_util.h **** #include "tensorflow/lite/kernels/internal/types.h"
  25:C:/Renesas/e2studio_2021_01_workspace_RZA2M_ANPR/ANPR_RZA2M_GR_MANGO/src/tensorflow_lite/tensorflow/lite/micro/kernels\kernel_util.h **** 
  26:C:/Renesas/e2studio_2021_01_workspace_RZA2M_ANPR/ANPR_RZA2M_GR_MANGO/src/tensorflow_lite/tensorflow/lite/micro/kernels\kernel_util.h **** namespace tflite {
  27:C:/Renesas/e2studio_2021_01_workspace_RZA2M_ANPR/ANPR_RZA2M_GR_MANGO/src/tensorflow_lite/tensorflow/lite/micro/kernels\kernel_util.h **** namespace micro {
  28:C:/Renesas/e2studio_2021_01_workspace_RZA2M_ANPR/ANPR_RZA2M_GR_MANGO/src/tensorflow_lite/tensorflow/lite/micro/kernels\kernel_util.h **** 
  29:C:/Renesas/e2studio_2021_01_workspace_RZA2M_ANPR/ANPR_RZA2M_GR_MANGO/src/tensorflow_lite/tensorflow/lite/micro/kernels\kernel_util.h **** // Returns a mutable tensor for a given input index. is_variable must be checked
  30:C:/Renesas/e2studio_2021_01_workspace_RZA2M_ANPR/ANPR_RZA2M_GR_MANGO/src/tensorflow_lite/tensorflow/lite/micro/kernels\kernel_util.h **** // during prepare when the full TfLiteTensor is available.
  31:C:/Renesas/e2studio_2021_01_workspace_RZA2M_ANPR/ANPR_RZA2M_GR_MANGO/src/tensorflow_lite/tensorflow/lite/micro/kernels\kernel_util.h **** inline TfLiteEvalTensor* GetMutableEvalInput(const TfLiteContext* context,
  32:C:/Renesas/e2studio_2021_01_workspace_RZA2M_ANPR/ANPR_RZA2M_GR_MANGO/src/tensorflow_lite/tensorflow/lite/micro/kernels\kernel_util.h ****                                              const TfLiteNode* node,
  33:C:/Renesas/e2studio_2021_01_workspace_RZA2M_ANPR/ANPR_RZA2M_GR_MANGO/src/tensorflow_lite/tensorflow/lite/micro/kernels\kernel_util.h ****                                              int index) {
  34:C:/Renesas/e2studio_2021_01_workspace_RZA2M_ANPR/ANPR_RZA2M_GR_MANGO/src/tensorflow_lite/tensorflow/lite/micro/kernels\kernel_util.h ****   TFLITE_DCHECK(context != nullptr);
 602              		.loc 3 34 0
 603 0004 004050E2 		subs	r4, r0, #0
 604              	.LVL74:
 605              	.LBE765:
 606              	.LBE764:
 607              	.LBE763:
 608              		.loc 1 261 0
 609              		.pad #76
 610 0008 4CD04DE2 		sub	sp, sp, #76
 611              		.cfi_def_cfa_offset 112
 612              	.LBB772:
 613              	.LBB769:
 614              	.LBB766:
 615              		.loc 3 34 0
 616 000c FB02000A 		beq	.L28
  35:C:/Renesas/e2studio_2021_01_workspace_RZA2M_ANPR/ANPR_RZA2M_GR_MANGO/src/tensorflow_lite/tensorflow/lite/micro/kernels\kernel_util.h ****   TFLITE_DCHECK(node != nullptr);
 617              		.loc 3 35 0
 618 0010 000051E3 		cmp	r1, #0
 619 0014 0150A0E1 		mov	r5, r1
 620 0018 F802000A 		beq	.L28
  36:C:/Renesas/e2studio_2021_01_workspace_RZA2M_ANPR/ANPR_RZA2M_GR_MANGO/src/tensorflow_lite/tensorflow/lite/micro/kernels\kernel_util.h ****   return context->GetEvalTensor(context, node->inputs->data[index]);
 621              		.loc 3 36 0
 622 001c 002091E5 		ldr	r2, [r1]
 623 0020 543094E5 		ldr	r3, [r4, #84]
 624 0024 041092E5 		ldr	r1, [r2, #4]
 625              	.LVL75:
 626 0028 33FF2FE1 		blx	r3
 627              	.LVL76:
 628              	.LBE766:
 629              	.LBE769:
 630              	.LBE772:
 631              	.LBB773:
 632              	.LBB774:
 633              	.LBB775:
 634 002c 002095E5 		ldr	r2, [r5]
 635              	.LBE775:
 636              	.LBE774:
 637              	.LBE773:
 638              	.LBB780:
 639              	.LBB770:
 640              	.LBB767:
 641 0030 0070A0E1 		mov	r7, r0
 642              	.LVL77:
 643              	.LBE767:
 644              	.LBE770:
 645              	.LBE780:
 646              	.LBB781:
 647              	.LBB778:
 648              	.LBB776:
 649 0034 543094E5 		ldr	r3, [r4, #84]
 650 0038 0400A0E1 		mov	r0, r4
 651 003c 081092E5 		ldr	r1, [r2, #8]
 652 0040 33FF2FE1 		blx	r3
 653              	.LVL78:
 654              	.LBE776:
 655              	.LBE778:
 656              	.LBE781:
 657              	.LBB782:
 658              	.LBB783:
  37:C:/Renesas/e2studio_2021_01_workspace_RZA2M_ANPR/ANPR_RZA2M_GR_MANGO/src/tensorflow_lite/tensorflow/lite/micro/kernels\kernel_util.h **** }
  38:C:/Renesas/e2studio_2021_01_workspace_RZA2M_ANPR/ANPR_RZA2M_GR_MANGO/src/tensorflow_lite/tensorflow/lite/micro/kernels\kernel_util.h **** 
  39:C:/Renesas/e2studio_2021_01_workspace_RZA2M_ANPR/ANPR_RZA2M_GR_MANGO/src/tensorflow_lite/tensorflow/lite/micro/kernels\kernel_util.h **** // Returns the TfLiteEvalTensor struct for a given input index in a node.
  40:C:/Renesas/e2studio_2021_01_workspace_RZA2M_ANPR/ANPR_RZA2M_GR_MANGO/src/tensorflow_lite/tensorflow/lite/micro/kernels\kernel_util.h **** inline const TfLiteEvalTensor* GetEvalInput(const TfLiteContext* context,
  41:C:/Renesas/e2studio_2021_01_workspace_RZA2M_ANPR/ANPR_RZA2M_GR_MANGO/src/tensorflow_lite/tensorflow/lite/micro/kernels\kernel_util.h ****                                             const TfLiteNode* node, int index) {
  42:C:/Renesas/e2studio_2021_01_workspace_RZA2M_ANPR/ANPR_RZA2M_GR_MANGO/src/tensorflow_lite/tensorflow/lite/micro/kernels\kernel_util.h ****   return GetMutableEvalInput(context, node, index);
  43:C:/Renesas/e2studio_2021_01_workspace_RZA2M_ANPR/ANPR_RZA2M_GR_MANGO/src/tensorflow_lite/tensorflow/lite/micro/kernels\kernel_util.h **** }
  44:C:/Renesas/e2studio_2021_01_workspace_RZA2M_ANPR/ANPR_RZA2M_GR_MANGO/src/tensorflow_lite/tensorflow/lite/micro/kernels\kernel_util.h **** 
  45:C:/Renesas/e2studio_2021_01_workspace_RZA2M_ANPR/ANPR_RZA2M_GR_MANGO/src/tensorflow_lite/tensorflow/lite/micro/kernels\kernel_util.h **** // Returns the TfLiteEvalTensor struct for a given output index in a node.
  46:C:/Renesas/e2studio_2021_01_workspace_RZA2M_ANPR/ANPR_RZA2M_GR_MANGO/src/tensorflow_lite/tensorflow/lite/micro/kernels\kernel_util.h **** inline TfLiteEvalTensor* GetEvalOutput(const TfLiteContext* context,
  47:C:/Renesas/e2studio_2021_01_workspace_RZA2M_ANPR/ANPR_RZA2M_GR_MANGO/src/tensorflow_lite/tensorflow/lite/micro/kernels\kernel_util.h ****                                        const TfLiteNode* node, int index) {
  48:C:/Renesas/e2studio_2021_01_workspace_RZA2M_ANPR/ANPR_RZA2M_GR_MANGO/src/tensorflow_lite/tensorflow/lite/micro/kernels\kernel_util.h ****   TFLITE_DCHECK(context != nullptr);
  49:C:/Renesas/e2studio_2021_01_workspace_RZA2M_ANPR/ANPR_RZA2M_GR_MANGO/src/tensorflow_lite/tensorflow/lite/micro/kernels\kernel_util.h ****   TFLITE_DCHECK(node != nullptr);
  50:C:/Renesas/e2studio_2021_01_workspace_RZA2M_ANPR/ANPR_RZA2M_GR_MANGO/src/tensorflow_lite/tensorflow/lite/micro/kernels\kernel_util.h ****   return context->GetEvalTensor(context, node->outputs->data[index]);
 659              		.loc 3 50 0
 660 0044 042095E5 		ldr	r2, [r5, #4]
 661              	.LBE783:
 662              	.LBE782:
 663              	.LBB785:
 664              	.LBB779:
 665              	.LBB777:
  36:C:/Renesas/e2studio_2021_01_workspace_RZA2M_ANPR/ANPR_RZA2M_GR_MANGO/src/tensorflow_lite/tensorflow/lite/micro/kernels\kernel_util.h ****   return context->GetEvalTensor(context, node->inputs->data[index]);
 666              		.loc 3 36 0
 667 0048 0080A0E1 		mov	r8, r0
 668              	.LVL79:
 669              	.LBE777:
 670              	.LBE779:
 671              	.LBE785:
 672              	.LBB786:
 673              	.LBB784:
 674              		.loc 3 50 0
 675 004c 543094E5 		ldr	r3, [r4, #84]
 676 0050 0400A0E1 		mov	r0, r4
 677 0054 041092E5 		ldr	r1, [r2, #4]
 678 0058 33FF2FE1 		blx	r3
 679              	.LVL80:
 680 005c 0090A0E1 		mov	r9, r0
 681              	.LVL81:
 682              	.LBE784:
 683              	.LBE786:
 262:../src/tensorflow_lite/tensorflow/lite/micro/kernels/reduce.cc ****   const TfLiteEvalTensor* input = tflite::micro::GetEvalInput(context, node, 0);
 263:../src/tensorflow_lite/tensorflow/lite/micro/kernels/reduce.cc ****   const TfLiteEvalTensor* axis = tflite::micro::GetEvalInput(context, node, 1);
 264:../src/tensorflow_lite/tensorflow/lite/micro/kernels/reduce.cc ****   TfLiteEvalTensor* output = tflite::micro::GetEvalOutput(context, node, 0);
 265:../src/tensorflow_lite/tensorflow/lite/micro/kernels/reduce.cc ****   TF_LITE_ENSURE_TYPES_EQ(context, input->type, output->type);
 684              		.loc 1 265 0
 685 0060 0800D7E5 		ldrb	r0, [r7, #8]	@ zero_extendqisi2
 686 0064 0820D9E5 		ldrb	r2, [r9, #8]	@ zero_extendqisi2
 687 0068 000052E1 		cmp	r2, r0
 688 006c 1600000A 		beq	.L29
 689              		.loc 1 265 0 is_stmt 0 discriminator 1
 690 0070 145094E5 		ldr	r5, [r4, #20]
 691              	.LVL82:
 692 0074 FEFFFFEB 		bl	TfLiteTypeGetName
 693              	.LVL83:
 694 0078 0060A0E1 		mov	r6, r0
 695 007c 0800D9E5 		ldrb	r0, [r9, #8]	@ zero_extendqisi2
 696 0080 FEFFFFEB 		bl	TfLiteTypeGetName
 697              	.LVL84:
 698 0084 00C000E3 		movw	ip, #:lower16:.LC13
 699 0088 003000E3 		movw	r3, #:lower16:.LC14
 700 008c 00C040E3 		movt	ip, #:upper16:.LC13
 701 0090 003040E3 		movt	r3, #:upper16:.LC14
 702 0094 002000E3 		movw	r2, #:lower16:.LC2
 703 0098 001000E3 		movw	r1, #:lower16:.LC10
 704 009c 0C008DE5 		str	r0, [sp, #12]
 705 00a0 002040E3 		movt	r2, #:upper16:.LC2
 706 00a4 0400A0E1 		mov	r0, r4
 707 00a8 00308DE5 		str	r3, [sp]
 708 00ac 08608DE5 		str	r6, [sp, #8]
 709 00b0 001040E3 		movt	r1, #:upper16:.LC10
 710 00b4 04C08DE5 		str	ip, [sp, #4]
 711 00b8 093100E3 		movw	r3, #265
 712 00bc 35FF2FE1 		blx	r5
 713              	.LVL85:
 714 00c0 0100A0E3 		mov	r0, #1
 715              	.LVL86:
 716              	.L224:
 266:../src/tensorflow_lite/tensorflow/lite/micro/kernels/reduce.cc ****   TfLiteReducerParams* params =
 267:../src/tensorflow_lite/tensorflow/lite/micro/kernels/reduce.cc ****       static_cast<TfLiteReducerParams*>(node->builtin_data);
 268:../src/tensorflow_lite/tensorflow/lite/micro/kernels/reduce.cc ****   OpData* op_data = static_cast<OpData*>(node->user_data);
 269:../src/tensorflow_lite/tensorflow/lite/micro/kernels/reduce.cc **** 
 270:../src/tensorflow_lite/tensorflow/lite/micro/kernels/reduce.cc ****   // Interpret an axis tensor with null dimensions as a scalar
 271:../src/tensorflow_lite/tensorflow/lite/micro/kernels/reduce.cc ****   int num_axis = static_cast<int>(ElementCount(*axis->dims));
 272:../src/tensorflow_lite/tensorflow/lite/micro/kernels/reduce.cc ****   int* temp_buffer = static_cast<int*>(
 273:../src/tensorflow_lite/tensorflow/lite/micro/kernels/reduce.cc ****       context->GetScratchBuffer(context, op_data->temp_buffer_idx));
 274:../src/tensorflow_lite/tensorflow/lite/micro/kernels/reduce.cc ****   int* resolved_axis = static_cast<int*>(
 275:../src/tensorflow_lite/tensorflow/lite/micro/kernels/reduce.cc ****       context->GetScratchBuffer(context, op_data->resolved_axis_idx));
 276:../src/tensorflow_lite/tensorflow/lite/micro/kernels/reduce.cc ****   switch (input->type) {
 277:../src/tensorflow_lite/tensorflow/lite/micro/kernels/reduce.cc ****     case kTfLiteFloat32:
 278:../src/tensorflow_lite/tensorflow/lite/micro/kernels/reduce.cc ****       TF_LITE_ENSURE(
 279:../src/tensorflow_lite/tensorflow/lite/micro/kernels/reduce.cc ****           context,
 280:../src/tensorflow_lite/tensorflow/lite/micro/kernels/reduce.cc ****           reference_ops::ReduceGeneric<float>(
 281:../src/tensorflow_lite/tensorflow/lite/micro/kernels/reduce.cc ****               tflite::micro::GetTensorData<float>(input), input->dims->data,
 282:../src/tensorflow_lite/tensorflow/lite/micro/kernels/reduce.cc ****               input->dims->size, tflite::micro::GetTensorData<float>(output),
 283:../src/tensorflow_lite/tensorflow/lite/micro/kernels/reduce.cc ****               output->dims->data, output->dims->size,
 284:../src/tensorflow_lite/tensorflow/lite/micro/kernels/reduce.cc ****               tflite::micro::GetTensorData<int>(axis), num_axis,
 285:../src/tensorflow_lite/tensorflow/lite/micro/kernels/reduce.cc ****               params->keep_dims, temp_buffer, resolved_axis,
 286:../src/tensorflow_lite/tensorflow/lite/micro/kernels/reduce.cc ****               std::numeric_limits<float>::lowest(),
 287:../src/tensorflow_lite/tensorflow/lite/micro/kernels/reduce.cc ****               [](const float current, const float in) -> float {
 288:../src/tensorflow_lite/tensorflow/lite/micro/kernels/reduce.cc ****                 return (in > current) ? in : current;
 289:../src/tensorflow_lite/tensorflow/lite/micro/kernels/reduce.cc ****               }));
 290:../src/tensorflow_lite/tensorflow/lite/micro/kernels/reduce.cc ****       break;
 291:../src/tensorflow_lite/tensorflow/lite/micro/kernels/reduce.cc ****     case kTfLiteInt8:
 292:../src/tensorflow_lite/tensorflow/lite/micro/kernels/reduce.cc ****       TF_LITE_ENSURE_EQ(context, static_cast<double>(op_data->input_scale),
 293:../src/tensorflow_lite/tensorflow/lite/micro/kernels/reduce.cc ****                         static_cast<double>(op_data->output_scale));
 294:../src/tensorflow_lite/tensorflow/lite/micro/kernels/reduce.cc ****       TF_LITE_ENSURE_EQ(context, op_data->input_zp, op_data->output_zp);
 295:../src/tensorflow_lite/tensorflow/lite/micro/kernels/reduce.cc ****       TF_LITE_ENSURE(
 296:../src/tensorflow_lite/tensorflow/lite/micro/kernels/reduce.cc ****           context,
 297:../src/tensorflow_lite/tensorflow/lite/micro/kernels/reduce.cc ****           reference_ops::ReduceGeneric<int8_t>(
 298:../src/tensorflow_lite/tensorflow/lite/micro/kernels/reduce.cc ****               tflite::micro::GetTensorData<int8_t>(input), input->dims->data,
 299:../src/tensorflow_lite/tensorflow/lite/micro/kernels/reduce.cc ****               input->dims->size, tflite::micro::GetTensorData<int8_t>(output),
 300:../src/tensorflow_lite/tensorflow/lite/micro/kernels/reduce.cc ****               output->dims->data, output->dims->size,
 301:../src/tensorflow_lite/tensorflow/lite/micro/kernels/reduce.cc ****               tflite::micro::GetTensorData<int>(axis), num_axis,
 302:../src/tensorflow_lite/tensorflow/lite/micro/kernels/reduce.cc ****               params->keep_dims, temp_buffer, resolved_axis,
 303:../src/tensorflow_lite/tensorflow/lite/micro/kernels/reduce.cc ****               std::numeric_limits<int8_t>::lowest(),
 304:../src/tensorflow_lite/tensorflow/lite/micro/kernels/reduce.cc ****               [](const int8_t current, const int8_t in) -> int8_t {
 305:../src/tensorflow_lite/tensorflow/lite/micro/kernels/reduce.cc ****                 return (in > current) ? in : current;
 306:../src/tensorflow_lite/tensorflow/lite/micro/kernels/reduce.cc ****               }));
 307:../src/tensorflow_lite/tensorflow/lite/micro/kernels/reduce.cc ****       break;
 308:../src/tensorflow_lite/tensorflow/lite/micro/kernels/reduce.cc ****     default:
 309:../src/tensorflow_lite/tensorflow/lite/micro/kernels/reduce.cc ****       TF_LITE_KERNEL_LOG(context,
 310:../src/tensorflow_lite/tensorflow/lite/micro/kernels/reduce.cc ****                          "Only float32 and int8 types are supported.\n");
 311:../src/tensorflow_lite/tensorflow/lite/micro/kernels/reduce.cc ****       return kTfLiteError;
 312:../src/tensorflow_lite/tensorflow/lite/micro/kernels/reduce.cc ****   }
 313:../src/tensorflow_lite/tensorflow/lite/micro/kernels/reduce.cc ****   return kTfLiteOk;
 314:../src/tensorflow_lite/tensorflow/lite/micro/kernels/reduce.cc **** }
 717              		.loc 1 314 0 is_stmt 1
 718 00c4 4CD08DE2 		add	sp, sp, #76
 719              		.cfi_remember_state
 720              		.cfi_def_cfa_offset 36
 721              		@ sp needed
 722 00c8 F08FBDE8 		pop	{r4, r5, r6, r7, r8, r9, r10, fp, pc}
 723              	.LVL87:
 724              	.L29:
 725              		.cfi_restore_state
 268:../src/tensorflow_lite/tensorflow/lite/micro/kernels/reduce.cc **** 
 726              		.loc 1 268 0
 727 00cc 105095E5 		ldr	r5, [r5, #16]
 728              	.LVL88:
 271:../src/tensorflow_lite/tensorflow/lite/micro/kernels/reduce.cc ****   int* temp_buffer = static_cast<int*>(
 729              		.loc 1 271 0
 730 00d0 040098E5 		ldr	r0, [r8, #4]
 731 00d4 FEFFFFEB 		bl	_ZN6tflite12ElementCountERK14TfLiteIntArray
 732              	.LVL89:
 273:../src/tensorflow_lite/tensorflow/lite/micro/kernels/reduce.cc ****   int* resolved_axis = static_cast<int*>(
 733              		.loc 1 273 0
 734 00d8 081095E5 		ldr	r1, [r5, #8]
 271:../src/tensorflow_lite/tensorflow/lite/micro/kernels/reduce.cc ****   int* temp_buffer = static_cast<int*>(
 735              		.loc 1 271 0
 736 00dc 18008DE5 		str	r0, [sp, #24]
 737              	.LVL90:
 273:../src/tensorflow_lite/tensorflow/lite/micro/kernels/reduce.cc ****   int* resolved_axis = static_cast<int*>(
 738              		.loc 1 273 0
 739 00e0 0400A0E1 		mov	r0, r4
 740              	.LVL91:
 741 00e4 442094E5 		ldr	r2, [r4, #68]
 742 00e8 32FF2FE1 		blx	r2
 743              	.LVL92:
 275:../src/tensorflow_lite/tensorflow/lite/micro/kernels/reduce.cc ****   switch (input->type) {
 744              		.loc 1 275 0
 745 00ec 442094E5 		ldr	r2, [r4, #68]
 273:../src/tensorflow_lite/tensorflow/lite/micro/kernels/reduce.cc ****   int* resolved_axis = static_cast<int*>(
 746              		.loc 1 273 0
 747 00f0 00B0A0E1 		mov	fp, r0
 748              	.LVL93:
 275:../src/tensorflow_lite/tensorflow/lite/micro/kernels/reduce.cc ****   switch (input->type) {
 749              		.loc 1 275 0
 750 00f4 0C1095E5 		ldr	r1, [r5, #12]
 751 00f8 0400A0E1 		mov	r0, r4
 752              	.LVL94:
 753 00fc 32FF2FE1 		blx	r2
 754              	.LVL95:
 755              	.LBB787:
 276:../src/tensorflow_lite/tensorflow/lite/micro/kernels/reduce.cc ****     case kTfLiteFloat32:
 756              		.loc 1 276 0
 757 0100 0820D7E5 		ldrb	r2, [r7, #8]	@ zero_extendqisi2
 758              	.LBE787:
 275:../src/tensorflow_lite/tensorflow/lite/micro/kernels/reduce.cc ****   switch (input->type) {
 759              		.loc 1 275 0
 760 0104 0060A0E1 		mov	r6, r0
 761              	.LVL96:
 762              	.LBB1086:
 276:../src/tensorflow_lite/tensorflow/lite/micro/kernels/reduce.cc ****     case kTfLiteFloat32:
 763              		.loc 1 276 0
 764 0108 010052E3 		cmp	r2, #1
 765 010c 7100000A 		beq	.L32
 766 0110 090052E3 		cmp	r2, #9
 767 0114 6300001A 		bne	.L266
 768              	.LBB788:
 292:../src/tensorflow_lite/tensorflow/lite/micro/kernels/reduce.cc ****                         static_cast<double>(op_data->output_scale));
 769              		.loc 1 292 0
 770 0118 057AD5ED 		vldr.32	s15, [r5, #20]
 771 011c 077A95ED 		vldr.32	s14, [r5, #28]
 772 0120 477AF4EE 		vcmp.f32	s15, s14
 773 0124 10FAF1EE 		vmrs	APSR_nzcv, FPSCR
 774 0128 A501001A 		bne	.L267
 294:../src/tensorflow_lite/tensorflow/lite/micro/kernels/reduce.cc ****       TF_LITE_ENSURE(
 775              		.loc 1 294 0
 776 012c 10C095E5 		ldr	ip, [r5, #16]
 777 0130 180095E5 		ldr	r0, [r5, #24]
 778              	.LVL97:
 779 0134 00005CE1 		cmp	ip, r0
 780 0138 8201001A 		bne	.L268
 781              	.LBB789:
 295:../src/tensorflow_lite/tensorflow/lite/micro/kernels/reduce.cc ****           context,
 782              		.loc 1 295 0
 783 013c 043097E5 		ldr	r3, [r7, #4]
 784 0140 005093E5 		ldr	r5, [r3]
 785              	.LVL98:
 786 0144 042083E2 		add	r2, r3, #4
 787 0148 30308DE5 		str	r3, [sp, #48]
 788              	.LVL99:
 789 014c 2C208DE5 		str	r2, [sp, #44]
 790              	.LBB790:
 791              	.LBB791:
 792              	.LBB792:
 793              		.file 4 "C:/Renesas/e2studio_2021_01_workspace_RZA2M_ANPR/ANPR_RZA2M_GR_MANGO/src/tensorflow_lite/
   1:C:/Renesas/e2studio_2021_01_workspace_RZA2M_ANPR/ANPR_RZA2M_GR_MANGO/src/tensorflow_lite/tensorflow/lite/kernels/internal/reference\reduce.h **** /* Copyright 2019 The TensorFlow Authors. All Rights Reserved.
   2:C:/Renesas/e2studio_2021_01_workspace_RZA2M_ANPR/ANPR_RZA2M_GR_MANGO/src/tensorflow_lite/tensorflow/lite/kernels/internal/reference\reduce.h **** 
   3:C:/Renesas/e2studio_2021_01_workspace_RZA2M_ANPR/ANPR_RZA2M_GR_MANGO/src/tensorflow_lite/tensorflow/lite/kernels/internal/reference\reduce.h **** Licensed under the Apache License, Version 2.0 (the "License");
   4:C:/Renesas/e2studio_2021_01_workspace_RZA2M_ANPR/ANPR_RZA2M_GR_MANGO/src/tensorflow_lite/tensorflow/lite/kernels/internal/reference\reduce.h **** you may not use this file except in compliance with the License.
   5:C:/Renesas/e2studio_2021_01_workspace_RZA2M_ANPR/ANPR_RZA2M_GR_MANGO/src/tensorflow_lite/tensorflow/lite/kernels/internal/reference\reduce.h **** You may obtain a copy of the License at
   6:C:/Renesas/e2studio_2021_01_workspace_RZA2M_ANPR/ANPR_RZA2M_GR_MANGO/src/tensorflow_lite/tensorflow/lite/kernels/internal/reference\reduce.h **** 
   7:C:/Renesas/e2studio_2021_01_workspace_RZA2M_ANPR/ANPR_RZA2M_GR_MANGO/src/tensorflow_lite/tensorflow/lite/kernels/internal/reference\reduce.h ****     http://www.apache.org/licenses/LICENSE-2.0
   8:C:/Renesas/e2studio_2021_01_workspace_RZA2M_ANPR/ANPR_RZA2M_GR_MANGO/src/tensorflow_lite/tensorflow/lite/kernels/internal/reference\reduce.h **** 
   9:C:/Renesas/e2studio_2021_01_workspace_RZA2M_ANPR/ANPR_RZA2M_GR_MANGO/src/tensorflow_lite/tensorflow/lite/kernels/internal/reference\reduce.h **** Unless required by applicable law or agreed to in writing, software
  10:C:/Renesas/e2studio_2021_01_workspace_RZA2M_ANPR/ANPR_RZA2M_GR_MANGO/src/tensorflow_lite/tensorflow/lite/kernels/internal/reference\reduce.h **** distributed under the License is distributed on an "AS IS" BASIS,
  11:C:/Renesas/e2studio_2021_01_workspace_RZA2M_ANPR/ANPR_RZA2M_GR_MANGO/src/tensorflow_lite/tensorflow/lite/kernels/internal/reference\reduce.h **** WITHOUT WARRANTIES OR CONDITIONS OF ANY KIND, either express or implied.
  12:C:/Renesas/e2studio_2021_01_workspace_RZA2M_ANPR/ANPR_RZA2M_GR_MANGO/src/tensorflow_lite/tensorflow/lite/kernels/internal/reference\reduce.h **** See the License for the specific language governing permissions and
  13:C:/Renesas/e2studio_2021_01_workspace_RZA2M_ANPR/ANPR_RZA2M_GR_MANGO/src/tensorflow_lite/tensorflow/lite/kernels/internal/reference\reduce.h **** limitations under the License.
  14:C:/Renesas/e2studio_2021_01_workspace_RZA2M_ANPR/ANPR_RZA2M_GR_MANGO/src/tensorflow_lite/tensorflow/lite/kernels/internal/reference\reduce.h **** ==============================================================================*/
  15:C:/Renesas/e2studio_2021_01_workspace_RZA2M_ANPR/ANPR_RZA2M_GR_MANGO/src/tensorflow_lite/tensorflow/lite/kernels/internal/reference\reduce.h **** #ifndef TENSORFLOW_LITE_KERNELS_INTERNAL_REFERENCE_REDUCE_H_
  16:C:/Renesas/e2studio_2021_01_workspace_RZA2M_ANPR/ANPR_RZA2M_GR_MANGO/src/tensorflow_lite/tensorflow/lite/kernels/internal/reference\reduce.h **** #define TENSORFLOW_LITE_KERNELS_INTERNAL_REFERENCE_REDUCE_H_
  17:C:/Renesas/e2studio_2021_01_workspace_RZA2M_ANPR/ANPR_RZA2M_GR_MANGO/src/tensorflow_lite/tensorflow/lite/kernels/internal/reference\reduce.h **** 
  18:C:/Renesas/e2studio_2021_01_workspace_RZA2M_ANPR/ANPR_RZA2M_GR_MANGO/src/tensorflow_lite/tensorflow/lite/kernels/internal/reference\reduce.h **** #include "ruy/profiler/instrumentation.h"  // from @ruy
  19:C:/Renesas/e2studio_2021_01_workspace_RZA2M_ANPR/ANPR_RZA2M_GR_MANGO/src/tensorflow_lite/tensorflow/lite/kernels/internal/reference\reduce.h **** #include "tensorflow/lite/kernels/internal/common.h"
  20:C:/Renesas/e2studio_2021_01_workspace_RZA2M_ANPR/ANPR_RZA2M_GR_MANGO/src/tensorflow_lite/tensorflow/lite/kernels/internal/reference\reduce.h **** #include "tensorflow/lite/kernels/internal/cppmath.h"
  21:C:/Renesas/e2studio_2021_01_workspace_RZA2M_ANPR/ANPR_RZA2M_GR_MANGO/src/tensorflow_lite/tensorflow/lite/kernels/internal/reference\reduce.h **** #include "tensorflow/lite/kernels/internal/max.h"
  22:C:/Renesas/e2studio_2021_01_workspace_RZA2M_ANPR/ANPR_RZA2M_GR_MANGO/src/tensorflow_lite/tensorflow/lite/kernels/internal/reference\reduce.h **** #include "tensorflow/lite/kernels/internal/min.h"
  23:C:/Renesas/e2studio_2021_01_workspace_RZA2M_ANPR/ANPR_RZA2M_GR_MANGO/src/tensorflow_lite/tensorflow/lite/kernels/internal/reference\reduce.h **** #include "tensorflow/lite/kernels/internal/quantization_util.h"
  24:C:/Renesas/e2studio_2021_01_workspace_RZA2M_ANPR/ANPR_RZA2M_GR_MANGO/src/tensorflow_lite/tensorflow/lite/kernels/internal/reference\reduce.h **** #include "tensorflow/lite/kernels/internal/types.h"
  25:C:/Renesas/e2studio_2021_01_workspace_RZA2M_ANPR/ANPR_RZA2M_GR_MANGO/src/tensorflow_lite/tensorflow/lite/kernels/internal/reference\reduce.h **** 
  26:C:/Renesas/e2studio_2021_01_workspace_RZA2M_ANPR/ANPR_RZA2M_GR_MANGO/src/tensorflow_lite/tensorflow/lite/kernels/internal/reference\reduce.h **** namespace tflite {
  27:C:/Renesas/e2studio_2021_01_workspace_RZA2M_ANPR/ANPR_RZA2M_GR_MANGO/src/tensorflow_lite/tensorflow/lite/kernels/internal/reference\reduce.h **** 
  28:C:/Renesas/e2studio_2021_01_workspace_RZA2M_ANPR/ANPR_RZA2M_GR_MANGO/src/tensorflow_lite/tensorflow/lite/kernels/internal/reference\reduce.h **** namespace reference_ops {
  29:C:/Renesas/e2studio_2021_01_workspace_RZA2M_ANPR/ANPR_RZA2M_GR_MANGO/src/tensorflow_lite/tensorflow/lite/kernels/internal/reference\reduce.h **** 
  30:C:/Renesas/e2studio_2021_01_workspace_RZA2M_ANPR/ANPR_RZA2M_GR_MANGO/src/tensorflow_lite/tensorflow/lite/kernels/internal/reference\reduce.h **** // A generic reduce method that can be used for reduce_sum, reduce_mean, etc.
  31:C:/Renesas/e2studio_2021_01_workspace_RZA2M_ANPR/ANPR_RZA2M_GR_MANGO/src/tensorflow_lite/tensorflow/lite/kernels/internal/reference\reduce.h **** // This method iterates through input data and reduce elements along the
  32:C:/Renesas/e2studio_2021_01_workspace_RZA2M_ANPR/ANPR_RZA2M_GR_MANGO/src/tensorflow_lite/tensorflow/lite/kernels/internal/reference\reduce.h **** // dimensions given in axis.
  33:C:/Renesas/e2studio_2021_01_workspace_RZA2M_ANPR/ANPR_RZA2M_GR_MANGO/src/tensorflow_lite/tensorflow/lite/kernels/internal/reference\reduce.h **** template <typename In, typename Out>
  34:C:/Renesas/e2studio_2021_01_workspace_RZA2M_ANPR/ANPR_RZA2M_GR_MANGO/src/tensorflow_lite/tensorflow/lite/kernels/internal/reference\reduce.h **** inline bool Reduce(const In* input_data, const int* input_dims,
  35:C:/Renesas/e2studio_2021_01_workspace_RZA2M_ANPR/ANPR_RZA2M_GR_MANGO/src/tensorflow_lite/tensorflow/lite/kernels/internal/reference\reduce.h ****                    const int* output_dims, const int input_num_dims,
  36:C:/Renesas/e2studio_2021_01_workspace_RZA2M_ANPR/ANPR_RZA2M_GR_MANGO/src/tensorflow_lite/tensorflow/lite/kernels/internal/reference\reduce.h ****                    const int output_num_dims, const int* axis,
  37:C:/Renesas/e2studio_2021_01_workspace_RZA2M_ANPR/ANPR_RZA2M_GR_MANGO/src/tensorflow_lite/tensorflow/lite/kernels/internal/reference\reduce.h ****                    const int num_axis, int* input_iter,
  38:C:/Renesas/e2studio_2021_01_workspace_RZA2M_ANPR/ANPR_RZA2M_GR_MANGO/src/tensorflow_lite/tensorflow/lite/kernels/internal/reference\reduce.h ****                    Out reducer(const Out current, const In in),
  39:C:/Renesas/e2studio_2021_01_workspace_RZA2M_ANPR/ANPR_RZA2M_GR_MANGO/src/tensorflow_lite/tensorflow/lite/kernels/internal/reference\reduce.h ****                    Out* output_data) {
  40:C:/Renesas/e2studio_2021_01_workspace_RZA2M_ANPR/ANPR_RZA2M_GR_MANGO/src/tensorflow_lite/tensorflow/lite/kernels/internal/reference\reduce.h ****   // Reset input iterator.
  41:C:/Renesas/e2studio_2021_01_workspace_RZA2M_ANPR/ANPR_RZA2M_GR_MANGO/src/tensorflow_lite/tensorflow/lite/kernels/internal/reference\reduce.h ****   for (int idx = 0; idx < input_num_dims; ++idx) {
  42:C:/Renesas/e2studio_2021_01_workspace_RZA2M_ANPR/ANPR_RZA2M_GR_MANGO/src/tensorflow_lite/tensorflow/lite/kernels/internal/reference\reduce.h ****     input_iter[idx] = 0;
  43:C:/Renesas/e2studio_2021_01_workspace_RZA2M_ANPR/ANPR_RZA2M_GR_MANGO/src/tensorflow_lite/tensorflow/lite/kernels/internal/reference\reduce.h ****   }
  44:C:/Renesas/e2studio_2021_01_workspace_RZA2M_ANPR/ANPR_RZA2M_GR_MANGO/src/tensorflow_lite/tensorflow/lite/kernels/internal/reference\reduce.h ****   // Iterate through input_data.
  45:C:/Renesas/e2studio_2021_01_workspace_RZA2M_ANPR/ANPR_RZA2M_GR_MANGO/src/tensorflow_lite/tensorflow/lite/kernels/internal/reference\reduce.h ****   do {
  46:C:/Renesas/e2studio_2021_01_workspace_RZA2M_ANPR/ANPR_RZA2M_GR_MANGO/src/tensorflow_lite/tensorflow/lite/kernels/internal/reference\reduce.h ****     size_t input_offset =
  47:C:/Renesas/e2studio_2021_01_workspace_RZA2M_ANPR/ANPR_RZA2M_GR_MANGO/src/tensorflow_lite/tensorflow/lite/kernels/internal/reference\reduce.h ****         ReducedOutputOffset(input_num_dims, input_dims, input_iter, 0, nullptr);
  48:C:/Renesas/e2studio_2021_01_workspace_RZA2M_ANPR/ANPR_RZA2M_GR_MANGO/src/tensorflow_lite/tensorflow/lite/kernels/internal/reference\reduce.h ****     size_t output_offset = ReducedOutputOffset(input_num_dims, input_dims,
  49:C:/Renesas/e2studio_2021_01_workspace_RZA2M_ANPR/ANPR_RZA2M_GR_MANGO/src/tensorflow_lite/tensorflow/lite/kernels/internal/reference\reduce.h ****                                                input_iter, num_axis, axis);
  50:C:/Renesas/e2studio_2021_01_workspace_RZA2M_ANPR/ANPR_RZA2M_GR_MANGO/src/tensorflow_lite/tensorflow/lite/kernels/internal/reference\reduce.h ****     output_data[output_offset] =
  51:C:/Renesas/e2studio_2021_01_workspace_RZA2M_ANPR/ANPR_RZA2M_GR_MANGO/src/tensorflow_lite/tensorflow/lite/kernels/internal/reference\reduce.h ****         reducer(output_data[output_offset], input_data[input_offset]);
  52:C:/Renesas/e2studio_2021_01_workspace_RZA2M_ANPR/ANPR_RZA2M_GR_MANGO/src/tensorflow_lite/tensorflow/lite/kernels/internal/reference\reduce.h ****   } while (NextIndex(input_num_dims, input_dims, input_iter));
  53:C:/Renesas/e2studio_2021_01_workspace_RZA2M_ANPR/ANPR_RZA2M_GR_MANGO/src/tensorflow_lite/tensorflow/lite/kernels/internal/reference\reduce.h ****   return true;
  54:C:/Renesas/e2studio_2021_01_workspace_RZA2M_ANPR/ANPR_RZA2M_GR_MANGO/src/tensorflow_lite/tensorflow/lite/kernels/internal/reference\reduce.h **** }
  55:C:/Renesas/e2studio_2021_01_workspace_RZA2M_ANPR/ANPR_RZA2M_GR_MANGO/src/tensorflow_lite/tensorflow/lite/kernels/internal/reference\reduce.h **** 
  56:C:/Renesas/e2studio_2021_01_workspace_RZA2M_ANPR/ANPR_RZA2M_GR_MANGO/src/tensorflow_lite/tensorflow/lite/kernels/internal/reference\reduce.h **** // This method parses the input 'axis' to remove duplicates and handle negative
  57:C:/Renesas/e2studio_2021_01_workspace_RZA2M_ANPR/ANPR_RZA2M_GR_MANGO/src/tensorflow_lite/tensorflow/lite/kernels/internal/reference\reduce.h **** // values, and returns a valid 'out_axis'
  58:C:/Renesas/e2studio_2021_01_workspace_RZA2M_ANPR/ANPR_RZA2M_GR_MANGO/src/tensorflow_lite/tensorflow/lite/kernels/internal/reference\reduce.h **** inline bool ResolveAxis(const int num_dims, const int* axis,
  59:C:/Renesas/e2studio_2021_01_workspace_RZA2M_ANPR/ANPR_RZA2M_GR_MANGO/src/tensorflow_lite/tensorflow/lite/kernels/internal/reference\reduce.h ****                         const int64_t num_axis, int* out_axis,
  60:C:/Renesas/e2studio_2021_01_workspace_RZA2M_ANPR/ANPR_RZA2M_GR_MANGO/src/tensorflow_lite/tensorflow/lite/kernels/internal/reference\reduce.h ****                         int* out_num_axis) {
  61:C:/Renesas/e2studio_2021_01_workspace_RZA2M_ANPR/ANPR_RZA2M_GR_MANGO/src/tensorflow_lite/tensorflow/lite/kernels/internal/reference\reduce.h ****   *out_num_axis = 0;  // Just in case.
  62:C:/Renesas/e2studio_2021_01_workspace_RZA2M_ANPR/ANPR_RZA2M_GR_MANGO/src/tensorflow_lite/tensorflow/lite/kernels/internal/reference\reduce.h ****   // Short-circuit axis resolution for scalars; the axis will go unused.
  63:C:/Renesas/e2studio_2021_01_workspace_RZA2M_ANPR/ANPR_RZA2M_GR_MANGO/src/tensorflow_lite/tensorflow/lite/kernels/internal/reference\reduce.h ****   if (num_dims == 0) {
  64:C:/Renesas/e2studio_2021_01_workspace_RZA2M_ANPR/ANPR_RZA2M_GR_MANGO/src/tensorflow_lite/tensorflow/lite/kernels/internal/reference\reduce.h ****     return true;
  65:C:/Renesas/e2studio_2021_01_workspace_RZA2M_ANPR/ANPR_RZA2M_GR_MANGO/src/tensorflow_lite/tensorflow/lite/kernels/internal/reference\reduce.h ****   }
  66:C:/Renesas/e2studio_2021_01_workspace_RZA2M_ANPR/ANPR_RZA2M_GR_MANGO/src/tensorflow_lite/tensorflow/lite/kernels/internal/reference\reduce.h ****   // o(n^2) is fine since out_num_axis should be really small, mostly <= 4
  67:C:/Renesas/e2studio_2021_01_workspace_RZA2M_ANPR/ANPR_RZA2M_GR_MANGO/src/tensorflow_lite/tensorflow/lite/kernels/internal/reference\reduce.h ****   for (int64_t idx = 0; idx < num_axis; ++idx) {
  68:C:/Renesas/e2studio_2021_01_workspace_RZA2M_ANPR/ANPR_RZA2M_GR_MANGO/src/tensorflow_lite/tensorflow/lite/kernels/internal/reference\reduce.h ****     // Handle negative index. A positive index 'p_idx' can be represented as a
  69:C:/Renesas/e2studio_2021_01_workspace_RZA2M_ANPR/ANPR_RZA2M_GR_MANGO/src/tensorflow_lite/tensorflow/lite/kernels/internal/reference\reduce.h ****     // negative index 'n_idx' as: n_idx = p_idx-num_dims
  70:C:/Renesas/e2studio_2021_01_workspace_RZA2M_ANPR/ANPR_RZA2M_GR_MANGO/src/tensorflow_lite/tensorflow/lite/kernels/internal/reference\reduce.h ****     // eg: For num_dims=3, [0, 1, 2] is the same as [-3, -2, -1]  */
  71:C:/Renesas/e2studio_2021_01_workspace_RZA2M_ANPR/ANPR_RZA2M_GR_MANGO/src/tensorflow_lite/tensorflow/lite/kernels/internal/reference\reduce.h ****     int current = axis[idx] < 0 ? (axis[idx] + num_dims) : axis[idx];
  72:C:/Renesas/e2studio_2021_01_workspace_RZA2M_ANPR/ANPR_RZA2M_GR_MANGO/src/tensorflow_lite/tensorflow/lite/kernels/internal/reference\reduce.h ****     TFLITE_DCHECK(current >= 0 && current < num_dims);
  73:C:/Renesas/e2studio_2021_01_workspace_RZA2M_ANPR/ANPR_RZA2M_GR_MANGO/src/tensorflow_lite/tensorflow/lite/kernels/internal/reference\reduce.h ****     if (current < 0 || current >= num_dims) {
  74:C:/Renesas/e2studio_2021_01_workspace_RZA2M_ANPR/ANPR_RZA2M_GR_MANGO/src/tensorflow_lite/tensorflow/lite/kernels/internal/reference\reduce.h ****       return false;
  75:C:/Renesas/e2studio_2021_01_workspace_RZA2M_ANPR/ANPR_RZA2M_GR_MANGO/src/tensorflow_lite/tensorflow/lite/kernels/internal/reference\reduce.h ****     }
  76:C:/Renesas/e2studio_2021_01_workspace_RZA2M_ANPR/ANPR_RZA2M_GR_MANGO/src/tensorflow_lite/tensorflow/lite/kernels/internal/reference\reduce.h ****     bool is_dup = false;
  77:C:/Renesas/e2studio_2021_01_workspace_RZA2M_ANPR/ANPR_RZA2M_GR_MANGO/src/tensorflow_lite/tensorflow/lite/kernels/internal/reference\reduce.h ****     for (int j = 0; j < *out_num_axis; ++j) {
  78:C:/Renesas/e2studio_2021_01_workspace_RZA2M_ANPR/ANPR_RZA2M_GR_MANGO/src/tensorflow_lite/tensorflow/lite/kernels/internal/reference\reduce.h ****       if (out_axis[j] == current) {
  79:C:/Renesas/e2studio_2021_01_workspace_RZA2M_ANPR/ANPR_RZA2M_GR_MANGO/src/tensorflow_lite/tensorflow/lite/kernels/internal/reference\reduce.h ****         is_dup = true;
  80:C:/Renesas/e2studio_2021_01_workspace_RZA2M_ANPR/ANPR_RZA2M_GR_MANGO/src/tensorflow_lite/tensorflow/lite/kernels/internal/reference\reduce.h ****         break;
  81:C:/Renesas/e2studio_2021_01_workspace_RZA2M_ANPR/ANPR_RZA2M_GR_MANGO/src/tensorflow_lite/tensorflow/lite/kernels/internal/reference\reduce.h ****       }
  82:C:/Renesas/e2studio_2021_01_workspace_RZA2M_ANPR/ANPR_RZA2M_GR_MANGO/src/tensorflow_lite/tensorflow/lite/kernels/internal/reference\reduce.h ****     }
  83:C:/Renesas/e2studio_2021_01_workspace_RZA2M_ANPR/ANPR_RZA2M_GR_MANGO/src/tensorflow_lite/tensorflow/lite/kernels/internal/reference\reduce.h ****     if (!is_dup) {
  84:C:/Renesas/e2studio_2021_01_workspace_RZA2M_ANPR/ANPR_RZA2M_GR_MANGO/src/tensorflow_lite/tensorflow/lite/kernels/internal/reference\reduce.h ****       out_axis[*out_num_axis] = current;
  85:C:/Renesas/e2studio_2021_01_workspace_RZA2M_ANPR/ANPR_RZA2M_GR_MANGO/src/tensorflow_lite/tensorflow/lite/kernels/internal/reference\reduce.h ****       *out_num_axis += 1;
  86:C:/Renesas/e2studio_2021_01_workspace_RZA2M_ANPR/ANPR_RZA2M_GR_MANGO/src/tensorflow_lite/tensorflow/lite/kernels/internal/reference\reduce.h ****     }
  87:C:/Renesas/e2studio_2021_01_workspace_RZA2M_ANPR/ANPR_RZA2M_GR_MANGO/src/tensorflow_lite/tensorflow/lite/kernels/internal/reference\reduce.h ****   }
  88:C:/Renesas/e2studio_2021_01_workspace_RZA2M_ANPR/ANPR_RZA2M_GR_MANGO/src/tensorflow_lite/tensorflow/lite/kernels/internal/reference\reduce.h ****   return true;
  89:C:/Renesas/e2studio_2021_01_workspace_RZA2M_ANPR/ANPR_RZA2M_GR_MANGO/src/tensorflow_lite/tensorflow/lite/kernels/internal/reference\reduce.h **** }
  90:C:/Renesas/e2studio_2021_01_workspace_RZA2M_ANPR/ANPR_RZA2M_GR_MANGO/src/tensorflow_lite/tensorflow/lite/kernels/internal/reference\reduce.h **** 
  91:C:/Renesas/e2studio_2021_01_workspace_RZA2M_ANPR/ANPR_RZA2M_GR_MANGO/src/tensorflow_lite/tensorflow/lite/kernels/internal/reference\reduce.h **** // This method expects that output_data has been initialized.
  92:C:/Renesas/e2studio_2021_01_workspace_RZA2M_ANPR/ANPR_RZA2M_GR_MANGO/src/tensorflow_lite/tensorflow/lite/kernels/internal/reference\reduce.h **** template <typename In, typename Out>
  93:C:/Renesas/e2studio_2021_01_workspace_RZA2M_ANPR/ANPR_RZA2M_GR_MANGO/src/tensorflow_lite/tensorflow/lite/kernels/internal/reference\reduce.h **** inline bool ReduceSumImpl(const In* input_data, const int* input_dims,
  94:C:/Renesas/e2studio_2021_01_workspace_RZA2M_ANPR/ANPR_RZA2M_GR_MANGO/src/tensorflow_lite/tensorflow/lite/kernels/internal/reference\reduce.h ****                           const int* output_dims, const int input_num_dims,
  95:C:/Renesas/e2studio_2021_01_workspace_RZA2M_ANPR/ANPR_RZA2M_GR_MANGO/src/tensorflow_lite/tensorflow/lite/kernels/internal/reference\reduce.h ****                           const int output_num_dims, const int* axis,
  96:C:/Renesas/e2studio_2021_01_workspace_RZA2M_ANPR/ANPR_RZA2M_GR_MANGO/src/tensorflow_lite/tensorflow/lite/kernels/internal/reference\reduce.h ****                           const int num_axis, int* input_iter,
  97:C:/Renesas/e2studio_2021_01_workspace_RZA2M_ANPR/ANPR_RZA2M_GR_MANGO/src/tensorflow_lite/tensorflow/lite/kernels/internal/reference\reduce.h ****                           Out* output_data) {
  98:C:/Renesas/e2studio_2021_01_workspace_RZA2M_ANPR/ANPR_RZA2M_GR_MANGO/src/tensorflow_lite/tensorflow/lite/kernels/internal/reference\reduce.h ****   auto reducer = [](const Out current, const In in) -> Out {
  99:C:/Renesas/e2studio_2021_01_workspace_RZA2M_ANPR/ANPR_RZA2M_GR_MANGO/src/tensorflow_lite/tensorflow/lite/kernels/internal/reference\reduce.h ****     const Out actual_in = static_cast<Out>(in);
 100:C:/Renesas/e2studio_2021_01_workspace_RZA2M_ANPR/ANPR_RZA2M_GR_MANGO/src/tensorflow_lite/tensorflow/lite/kernels/internal/reference\reduce.h ****     return current + actual_in;
 101:C:/Renesas/e2studio_2021_01_workspace_RZA2M_ANPR/ANPR_RZA2M_GR_MANGO/src/tensorflow_lite/tensorflow/lite/kernels/internal/reference\reduce.h ****   };
 102:C:/Renesas/e2studio_2021_01_workspace_RZA2M_ANPR/ANPR_RZA2M_GR_MANGO/src/tensorflow_lite/tensorflow/lite/kernels/internal/reference\reduce.h ****   return Reduce<In, Out>(input_data, input_dims, output_dims, input_num_dims,
 103:C:/Renesas/e2studio_2021_01_workspace_RZA2M_ANPR/ANPR_RZA2M_GR_MANGO/src/tensorflow_lite/tensorflow/lite/kernels/internal/reference\reduce.h ****                          output_num_dims, axis, num_axis, input_iter, reducer,
 104:C:/Renesas/e2studio_2021_01_workspace_RZA2M_ANPR/ANPR_RZA2M_GR_MANGO/src/tensorflow_lite/tensorflow/lite/kernels/internal/reference\reduce.h ****                          output_data);
 105:C:/Renesas/e2studio_2021_01_workspace_RZA2M_ANPR/ANPR_RZA2M_GR_MANGO/src/tensorflow_lite/tensorflow/lite/kernels/internal/reference\reduce.h **** }
 106:C:/Renesas/e2studio_2021_01_workspace_RZA2M_ANPR/ANPR_RZA2M_GR_MANGO/src/tensorflow_lite/tensorflow/lite/kernels/internal/reference\reduce.h **** 
 107:C:/Renesas/e2studio_2021_01_workspace_RZA2M_ANPR/ANPR_RZA2M_GR_MANGO/src/tensorflow_lite/tensorflow/lite/kernels/internal/reference\reduce.h **** template <typename T>
 108:C:/Renesas/e2studio_2021_01_workspace_RZA2M_ANPR/ANPR_RZA2M_GR_MANGO/src/tensorflow_lite/tensorflow/lite/kernels/internal/reference\reduce.h **** inline bool InitTensorDataForReduce(const int* dims, const int num_dims,
 109:C:/Renesas/e2studio_2021_01_workspace_RZA2M_ANPR/ANPR_RZA2M_GR_MANGO/src/tensorflow_lite/tensorflow/lite/kernels/internal/reference\reduce.h ****                                     const T init_value, T* data) {
 110:C:/Renesas/e2studio_2021_01_workspace_RZA2M_ANPR/ANPR_RZA2M_GR_MANGO/src/tensorflow_lite/tensorflow/lite/kernels/internal/reference\reduce.h ****   size_t num_elements = 1;
 111:C:/Renesas/e2studio_2021_01_workspace_RZA2M_ANPR/ANPR_RZA2M_GR_MANGO/src/tensorflow_lite/tensorflow/lite/kernels/internal/reference\reduce.h ****   for (int idx = 0; idx < num_dims; ++idx) {
 112:C:/Renesas/e2studio_2021_01_workspace_RZA2M_ANPR/ANPR_RZA2M_GR_MANGO/src/tensorflow_lite/tensorflow/lite/kernels/internal/reference\reduce.h ****     size_t current = static_cast<size_t>(dims[idx]);
 113:C:/Renesas/e2studio_2021_01_workspace_RZA2M_ANPR/ANPR_RZA2M_GR_MANGO/src/tensorflow_lite/tensorflow/lite/kernels/internal/reference\reduce.h ****     // Overflow prevention.
 114:C:/Renesas/e2studio_2021_01_workspace_RZA2M_ANPR/ANPR_RZA2M_GR_MANGO/src/tensorflow_lite/tensorflow/lite/kernels/internal/reference\reduce.h ****     if (num_elements > std::numeric_limits<size_t>::max() / current) {
 115:C:/Renesas/e2studio_2021_01_workspace_RZA2M_ANPR/ANPR_RZA2M_GR_MANGO/src/tensorflow_lite/tensorflow/lite/kernels/internal/reference\reduce.h ****       return false;
 116:C:/Renesas/e2studio_2021_01_workspace_RZA2M_ANPR/ANPR_RZA2M_GR_MANGO/src/tensorflow_lite/tensorflow/lite/kernels/internal/reference\reduce.h ****     }
 117:C:/Renesas/e2studio_2021_01_workspace_RZA2M_ANPR/ANPR_RZA2M_GR_MANGO/src/tensorflow_lite/tensorflow/lite/kernels/internal/reference\reduce.h ****     num_elements *= current;
 118:C:/Renesas/e2studio_2021_01_workspace_RZA2M_ANPR/ANPR_RZA2M_GR_MANGO/src/tensorflow_lite/tensorflow/lite/kernels/internal/reference\reduce.h ****   }
 119:C:/Renesas/e2studio_2021_01_workspace_RZA2M_ANPR/ANPR_RZA2M_GR_MANGO/src/tensorflow_lite/tensorflow/lite/kernels/internal/reference\reduce.h ****   for (size_t idx = 0; idx < num_elements; ++idx) {
 120:C:/Renesas/e2studio_2021_01_workspace_RZA2M_ANPR/ANPR_RZA2M_GR_MANGO/src/tensorflow_lite/tensorflow/lite/kernels/internal/reference\reduce.h ****     data[idx] = init_value;
 121:C:/Renesas/e2studio_2021_01_workspace_RZA2M_ANPR/ANPR_RZA2M_GR_MANGO/src/tensorflow_lite/tensorflow/lite/kernels/internal/reference\reduce.h ****   }
 122:C:/Renesas/e2studio_2021_01_workspace_RZA2M_ANPR/ANPR_RZA2M_GR_MANGO/src/tensorflow_lite/tensorflow/lite/kernels/internal/reference\reduce.h ****   return true;
 123:C:/Renesas/e2studio_2021_01_workspace_RZA2M_ANPR/ANPR_RZA2M_GR_MANGO/src/tensorflow_lite/tensorflow/lite/kernels/internal/reference\reduce.h **** }
 124:C:/Renesas/e2studio_2021_01_workspace_RZA2M_ANPR/ANPR_RZA2M_GR_MANGO/src/tensorflow_lite/tensorflow/lite/kernels/internal/reference\reduce.h **** 
 125:C:/Renesas/e2studio_2021_01_workspace_RZA2M_ANPR/ANPR_RZA2M_GR_MANGO/src/tensorflow_lite/tensorflow/lite/kernels/internal/reference\reduce.h **** // Computes the generic value (i.e., sum/max/min/prod) of elements across
 126:C:/Renesas/e2studio_2021_01_workspace_RZA2M_ANPR/ANPR_RZA2M_GR_MANGO/src/tensorflow_lite/tensorflow/lite/kernels/internal/reference\reduce.h **** // dimensions given in axis. It needs to pass in init_value and reducer.
 127:C:/Renesas/e2studio_2021_01_workspace_RZA2M_ANPR/ANPR_RZA2M_GR_MANGO/src/tensorflow_lite/tensorflow/lite/kernels/internal/reference\reduce.h **** template <typename T>
 128:C:/Renesas/e2studio_2021_01_workspace_RZA2M_ANPR/ANPR_RZA2M_GR_MANGO/src/tensorflow_lite/tensorflow/lite/kernels/internal/reference\reduce.h **** inline bool ReduceGeneric(const T* input_data, const int* input_dims,
 129:C:/Renesas/e2studio_2021_01_workspace_RZA2M_ANPR/ANPR_RZA2M_GR_MANGO/src/tensorflow_lite/tensorflow/lite/kernels/internal/reference\reduce.h ****                           const int input_num_dims, T* output_data,
 130:C:/Renesas/e2studio_2021_01_workspace_RZA2M_ANPR/ANPR_RZA2M_GR_MANGO/src/tensorflow_lite/tensorflow/lite/kernels/internal/reference\reduce.h ****                           const int* output_dims, const int output_num_dims,
 131:C:/Renesas/e2studio_2021_01_workspace_RZA2M_ANPR/ANPR_RZA2M_GR_MANGO/src/tensorflow_lite/tensorflow/lite/kernels/internal/reference\reduce.h ****                           const int* axis, const int64_t num_axis_dimensions,
 132:C:/Renesas/e2studio_2021_01_workspace_RZA2M_ANPR/ANPR_RZA2M_GR_MANGO/src/tensorflow_lite/tensorflow/lite/kernels/internal/reference\reduce.h ****                           bool keep_dims, int* temp_index, int* resolved_axis,
 133:C:/Renesas/e2studio_2021_01_workspace_RZA2M_ANPR/ANPR_RZA2M_GR_MANGO/src/tensorflow_lite/tensorflow/lite/kernels/internal/reference\reduce.h ****                           T init_value,
 134:C:/Renesas/e2studio_2021_01_workspace_RZA2M_ANPR/ANPR_RZA2M_GR_MANGO/src/tensorflow_lite/tensorflow/lite/kernels/internal/reference\reduce.h ****                           T reducer(const T current, const T in)) {
 135:C:/Renesas/e2studio_2021_01_workspace_RZA2M_ANPR/ANPR_RZA2M_GR_MANGO/src/tensorflow_lite/tensorflow/lite/kernels/internal/reference\reduce.h ****   // Return early when input shape has zero dim.
 136:C:/Renesas/e2studio_2021_01_workspace_RZA2M_ANPR/ANPR_RZA2M_GR_MANGO/src/tensorflow_lite/tensorflow/lite/kernels/internal/reference\reduce.h ****   for (int i = 0; i < input_num_dims; ++i) {
 794              		.loc 4 136 0
 795 0150 000055E3 		cmp	r5, #0
 796 0154 0B0000DA 		ble	.L85
 137:C:/Renesas/e2studio_2021_01_workspace_RZA2M_ANPR/ANPR_RZA2M_GR_MANGO/src/tensorflow_lite/tensorflow/lite/kernels/internal/reference\reduce.h ****     if (input_dims[i] == 0) return true;
 797              		.loc 4 137 0
 798 0158 042093E5 		ldr	r2, [r3, #4]
 799              	.LVL100:
 800 015c 000052E3 		cmp	r2, #0
 801 0160 2C109D15 		ldrne	r1, [sp, #44]
 802 0164 0020A013 		movne	r2, #0
 803 0168 0300001A 		bne	.L89
 804 016c 560000EA 		b	.L35
 805              	.LVL101:
 806              	.L239:
 807 0170 0430B1E5 		ldr	r3, [r1, #4]!
 808 0174 000053E3 		cmp	r3, #0
 809 0178 5300000A 		beq	.L35
 810              	.LVL102:
 811              	.L89:
 136:C:/Renesas/e2studio_2021_01_workspace_RZA2M_ANPR/ANPR_RZA2M_GR_MANGO/src/tensorflow_lite/tensorflow/lite/kernels/internal/reference\reduce.h ****     if (input_dims[i] == 0) return true;
 812              		.loc 4 136 0
 813 017c 012082E2 		add	r2, r2, #1
 814              	.LVL103:
 815 0180 020055E1 		cmp	r5, r2
 816 0184 F9FFFF1A 		bne	.L239
 817              	.LVL104:
 818              	.L85:
 819              	.LBE792:
 820              	.LBE791:
 821              	.LBE790:
 822              	.LBB907:
 823              	.LBB908:
  51:C:/Renesas/e2studio_2021_01_workspace_RZA2M_ANPR/ANPR_RZA2M_GR_MANGO/src/tensorflow_lite/tensorflow/lite/micro/kernels\kernel_util.h **** }
  52:C:/Renesas/e2studio_2021_01_workspace_RZA2M_ANPR/ANPR_RZA2M_GR_MANGO/src/tensorflow_lite/tensorflow/lite/micro/kernels\kernel_util.h **** 
  53:C:/Renesas/e2studio_2021_01_workspace_RZA2M_ANPR/ANPR_RZA2M_GR_MANGO/src/tensorflow_lite/tensorflow/lite/micro/kernels\kernel_util.h **** // Returns data for a TfLiteEvalTensor struct.
  54:C:/Renesas/e2studio_2021_01_workspace_RZA2M_ANPR/ANPR_RZA2M_GR_MANGO/src/tensorflow_lite/tensorflow/lite/micro/kernels\kernel_util.h **** template <typename T>
  55:C:/Renesas/e2studio_2021_01_workspace_RZA2M_ANPR/ANPR_RZA2M_GR_MANGO/src/tensorflow_lite/tensorflow/lite/micro/kernels\kernel_util.h **** T* GetTensorData(TfLiteEvalTensor* tensor) {
  56:C:/Renesas/e2studio_2021_01_workspace_RZA2M_ANPR/ANPR_RZA2M_GR_MANGO/src/tensorflow_lite/tensorflow/lite/micro/kernels\kernel_util.h ****   return tensor != nullptr ? reinterpret_cast<T*>(tensor->data.raw) : nullptr;
  57:C:/Renesas/e2studio_2021_01_workspace_RZA2M_ANPR/ANPR_RZA2M_GR_MANGO/src/tensorflow_lite/tensorflow/lite/micro/kernels\kernel_util.h **** }
  58:C:/Renesas/e2studio_2021_01_workspace_RZA2M_ANPR/ANPR_RZA2M_GR_MANGO/src/tensorflow_lite/tensorflow/lite/micro/kernels\kernel_util.h **** 
  59:C:/Renesas/e2studio_2021_01_workspace_RZA2M_ANPR/ANPR_RZA2M_GR_MANGO/src/tensorflow_lite/tensorflow/lite/micro/kernels\kernel_util.h **** // Returns const data for a TfLiteEvalTensor struct.
  60:C:/Renesas/e2studio_2021_01_workspace_RZA2M_ANPR/ANPR_RZA2M_GR_MANGO/src/tensorflow_lite/tensorflow/lite/micro/kernels\kernel_util.h **** template <typename T>
  61:C:/Renesas/e2studio_2021_01_workspace_RZA2M_ANPR/ANPR_RZA2M_GR_MANGO/src/tensorflow_lite/tensorflow/lite/micro/kernels\kernel_util.h **** const T* GetTensorData(const TfLiteEvalTensor* tensor) {
  62:C:/Renesas/e2studio_2021_01_workspace_RZA2M_ANPR/ANPR_RZA2M_GR_MANGO/src/tensorflow_lite/tensorflow/lite/micro/kernels\kernel_util.h ****   TFLITE_DCHECK(tensor != nullptr);
  63:C:/Renesas/e2studio_2021_01_workspace_RZA2M_ANPR/ANPR_RZA2M_GR_MANGO/src/tensorflow_lite/tensorflow/lite/micro/kernels\kernel_util.h ****   return reinterpret_cast<const T*>(tensor->data.raw);
 824              		.loc 3 63 0
 825 0188 003097E5 		ldr	r3, [r7]
 826              	.LBE908:
 827              	.LBE907:
 295:../src/tensorflow_lite/tensorflow/lite/micro/kernels/reduce.cc ****           context,
 828              		.loc 1 295 0
 829 018c 042099E5 		ldr	r2, [r9, #4]
 830              	.LBB910:
 831              	.LBB911:
  56:C:/Renesas/e2studio_2021_01_workspace_RZA2M_ANPR/ANPR_RZA2M_GR_MANGO/src/tensorflow_lite/tensorflow/lite/micro/kernels\kernel_util.h **** }
 832              		.loc 3 56 0
 833 0190 001099E5 		ldr	r1, [r9]
 834              	.LBE911:
 835              	.LBE910:
 836              	.LBB913:
 837              	.LBB909:
 838              		.loc 3 63 0
 839 0194 28308DE5 		str	r3, [sp, #40]
 840              	.LBE909:
 841              	.LBE913:
 842              	.LBB914:
 843              	.LBB915:
 844 0198 003098E5 		ldr	r3, [r8]
 845              	.LBE915:
 846              	.LBE914:
 847              	.LBB917:
 848              	.LBB912:
  56:C:/Renesas/e2studio_2021_01_workspace_RZA2M_ANPR/ANPR_RZA2M_GR_MANGO/src/tensorflow_lite/tensorflow/lite/micro/kernels\kernel_util.h **** }
 849              		.loc 3 56 0
 850 019c 24108DE5 		str	r1, [sp, #36]
 851              	.LBE912:
 852              	.LBE917:
 853              	.LBB918:
 854              	.LBB916:
 855              		.loc 3 63 0
 856 01a0 38308DE5 		str	r3, [sp, #56]
 857              	.LVL105:
 858              	.LBE916:
 859              	.LBE918:
 295:../src/tensorflow_lite/tensorflow/lite/micro/kernels/reduce.cc ****           context,
 860              		.loc 1 295 0
 861 01a4 003092E5 		ldr	r3, [r2]
 862              	.LBB919:
 863              	.LBB900:
 864              	.LBB793:
 865              	.LBB794:
 866              	.LBB795:
 111:C:/Renesas/e2studio_2021_01_workspace_RZA2M_ANPR/ANPR_RZA2M_GR_MANGO/src/tensorflow_lite/tensorflow/lite/kernels/internal/reference\reduce.h ****     size_t current = static_cast<size_t>(dims[idx]);
 867              		.loc 4 111 0
 868 01a8 000053E3 		cmp	r3, #0
 869 01ac 980200DA 		ble	.L269
 870              	.LBB796:
 112:C:/Renesas/e2studio_2021_01_workspace_RZA2M_ANPR/ANPR_RZA2M_GR_MANGO/src/tensorflow_lite/tensorflow/lite/kernels/internal/reference\reduce.h ****     // Overflow prevention.
 871              		.loc 4 112 0
 872 01b0 0290A0E1 		mov	r9, r2
 873              	.LVL106:
 874 01b4 34508DE5 		str	r5, [sp, #52]
 875 01b8 04A0B9E5 		ldr	r10, [r9, #4]!
 876              	.LVL107:
 877 01bc 0170A0E3 		mov	r7, #1
 878              	.LVL108:
 879 01c0 0080A0E3 		mov	r8, #0
 880              	.LVL109:
 881 01c4 0950A0E1 		mov	r5, r9
 882              	.LVL110:
 883 01c8 0390A0E1 		mov	r9, r3
 884 01cc 050000EA 		b	.L91
 885              	.LVL111:
 886              	.L240:
 887 01d0 04A0B5E5 		ldr	r10, [r5, #4]!
 888              	.LVL112:
 114:C:/Renesas/e2studio_2021_01_workspace_RZA2M_ANPR/ANPR_RZA2M_GR_MANGO/src/tensorflow_lite/tensorflow/lite/kernels/internal/reference\reduce.h ****       return false;
 889              		.loc 4 114 0
 890 01d4 0000E0E3 		mvn	r0, #0
 891 01d8 0A10A0E1 		mov	r1, r10
 892 01dc FEFFFFEB 		bl	__aeabi_uidiv
 893              	.LVL113:
 894 01e0 070050E1 		cmp	r0, r7
 895 01e4 0602003A 		bcc	.L93
 896              	.LVL114:
 897              	.L91:
 898              	.LBE796:
 111:C:/Renesas/e2studio_2021_01_workspace_RZA2M_ANPR/ANPR_RZA2M_GR_MANGO/src/tensorflow_lite/tensorflow/lite/kernels/internal/reference\reduce.h ****     size_t current = static_cast<size_t>(dims[idx]);
 899              		.loc 4 111 0
 900 01e8 018088E2 		add	r8, r8, #1
 901              	.LVL115:
 902              	.LBB797:
 117:C:/Renesas/e2studio_2021_01_workspace_RZA2M_ANPR/ANPR_RZA2M_GR_MANGO/src/tensorflow_lite/tensorflow/lite/kernels/internal/reference\reduce.h ****   }
 903              		.loc 4 117 0
 904 01ec 9A0707E0 		mul	r7, r10, r7
 905              	.LVL116:
 906              	.LBE797:
 111:C:/Renesas/e2studio_2021_01_workspace_RZA2M_ANPR/ANPR_RZA2M_GR_MANGO/src/tensorflow_lite/tensorflow/lite/kernels/internal/reference\reduce.h ****     size_t current = static_cast<size_t>(dims[idx]);
 907              		.loc 4 111 0
 908 01f0 080059E1 		cmp	r9, r8
 909 01f4 F5FFFF1A 		bne	.L240
 910              	.LBE795:
 911              	.LBB798:
 119:C:/Renesas/e2studio_2021_01_workspace_RZA2M_ANPR/ANPR_RZA2M_GR_MANGO/src/tensorflow_lite/tensorflow/lite/kernels/internal/reference\reduce.h ****     data[idx] = init_value;
 912              		.loc 4 119 0
 913 01f8 000057E3 		cmp	r7, #0
 914 01fc 34509DE5 		ldr	r5, [sp, #52]
 915              	.LVL117:
 916 0200 0500000A 		beq	.L92
 917              	.LVL118:
 918              	.L87:
 120:C:/Renesas/e2studio_2021_01_workspace_RZA2M_ANPR/ANPR_RZA2M_GR_MANGO/src/tensorflow_lite/tensorflow/lite/kernels/internal/reference\reduce.h ****   }
 919              		.loc 4 120 0
 920 0204 000057E3 		cmp	r7, #0
 921 0208 8010A0E3 		mov	r1, #128
 922 020c 0720A011 		movne	r2, r7
 923 0210 0120A003 		moveq	r2, #1
 924 0214 24009DE5 		ldr	r0, [sp, #36]
 925 0218 FEFFFFEB 		bl	memset
 926              	.LVL119:
 927              	.L92:
 928              	.LBE798:
 929              	.LBE794:
 930              	.LBE793:
 931              	.LBB801:
 932              	.LBB802:
 933              	.LBB803:
 934              	.LBB804:
  63:C:/Renesas/e2studio_2021_01_workspace_RZA2M_ANPR/ANPR_RZA2M_GR_MANGO/src/tensorflow_lite/tensorflow/lite/kernels/internal/reference\reduce.h ****     return true;
 935              		.loc 4 63 0
 936 021c 000055E3 		cmp	r5, #0
 937              	.LBE804:
 938              	.LBE803:
 138:C:/Renesas/e2studio_2021_01_workspace_RZA2M_ANPR/ANPR_RZA2M_GR_MANGO/src/tensorflow_lite/tensorflow/lite/kernels/internal/reference\reduce.h ****   }
 139:C:/Renesas/e2studio_2021_01_workspace_RZA2M_ANPR/ANPR_RZA2M_GR_MANGO/src/tensorflow_lite/tensorflow/lite/kernels/internal/reference\reduce.h **** 
 140:C:/Renesas/e2studio_2021_01_workspace_RZA2M_ANPR/ANPR_RZA2M_GR_MANGO/src/tensorflow_lite/tensorflow/lite/kernels/internal/reference\reduce.h ****   // Reset output data.
 141:C:/Renesas/e2studio_2021_01_workspace_RZA2M_ANPR/ANPR_RZA2M_GR_MANGO/src/tensorflow_lite/tensorflow/lite/kernels/internal/reference\reduce.h ****   if (!InitTensorDataForReduce(output_dims, output_num_dims, init_value,
 142:C:/Renesas/e2studio_2021_01_workspace_RZA2M_ANPR/ANPR_RZA2M_GR_MANGO/src/tensorflow_lite/tensorflow/lite/kernels/internal/reference\reduce.h ****                                output_data)) {
 143:C:/Renesas/e2studio_2021_01_workspace_RZA2M_ANPR/ANPR_RZA2M_GR_MANGO/src/tensorflow_lite/tensorflow/lite/kernels/internal/reference\reduce.h ****     return false;
 144:C:/Renesas/e2studio_2021_01_workspace_RZA2M_ANPR/ANPR_RZA2M_GR_MANGO/src/tensorflow_lite/tensorflow/lite/kernels/internal/reference\reduce.h ****   }
 145:C:/Renesas/e2studio_2021_01_workspace_RZA2M_ANPR/ANPR_RZA2M_GR_MANGO/src/tensorflow_lite/tensorflow/lite/kernels/internal/reference\reduce.h **** 
 146:C:/Renesas/e2studio_2021_01_workspace_RZA2M_ANPR/ANPR_RZA2M_GR_MANGO/src/tensorflow_lite/tensorflow/lite/kernels/internal/reference\reduce.h ****   // Resolve axis.
 147:C:/Renesas/e2studio_2021_01_workspace_RZA2M_ANPR/ANPR_RZA2M_GR_MANGO/src/tensorflow_lite/tensorflow/lite/kernels/internal/reference\reduce.h ****   int num_resolved_axis = 0;
 939              		.loc 4 147 0
 940 0220 0570A001 		moveq	r7, r5
 941              	.LBB817:
 942              	.LBB813:
  63:C:/Renesas/e2studio_2021_01_workspace_RZA2M_ANPR/ANPR_RZA2M_GR_MANGO/src/tensorflow_lite/tensorflow/lite/kernels/internal/reference\reduce.h ****     return true;
 943              		.loc 4 63 0
 944 0224 3A02001A 		bne	.L270
 945              	.LVL120:
 946              	.L123:
 947              	.LBE813:
 948              	.LBE817:
 949              	.LBB818:
 950              	.LBB819:
 951              	.LBB820:
 952              	.LBB821:
 953              	.LBB822:
 954              	.LBB823:
 955              		.file 5 "C:/Renesas/e2studio_2021_01_workspace_RZA2M_ANPR/ANPR_RZA2M_GR_MANGO/src/tensorflow_lite/
   1:C:/Renesas/e2studio_2021_01_workspace_RZA2M_ANPR/ANPR_RZA2M_GR_MANGO/src/tensorflow_lite/tensorflow/lite/kernels/internal\types.h **** /* Copyright 2018 The TensorFlow Authors. All Rights Reserved.
   2:C:/Renesas/e2studio_2021_01_workspace_RZA2M_ANPR/ANPR_RZA2M_GR_MANGO/src/tensorflow_lite/tensorflow/lite/kernels/internal\types.h **** 
   3:C:/Renesas/e2studio_2021_01_workspace_RZA2M_ANPR/ANPR_RZA2M_GR_MANGO/src/tensorflow_lite/tensorflow/lite/kernels/internal\types.h **** Licensed under the Apache License, Version 2.0 (the "License");
   4:C:/Renesas/e2studio_2021_01_workspace_RZA2M_ANPR/ANPR_RZA2M_GR_MANGO/src/tensorflow_lite/tensorflow/lite/kernels/internal\types.h **** you may not use this file except in compliance with the License.
   5:C:/Renesas/e2studio_2021_01_workspace_RZA2M_ANPR/ANPR_RZA2M_GR_MANGO/src/tensorflow_lite/tensorflow/lite/kernels/internal\types.h **** You may obtain a copy of the License at
   6:C:/Renesas/e2studio_2021_01_workspace_RZA2M_ANPR/ANPR_RZA2M_GR_MANGO/src/tensorflow_lite/tensorflow/lite/kernels/internal\types.h **** 
   7:C:/Renesas/e2studio_2021_01_workspace_RZA2M_ANPR/ANPR_RZA2M_GR_MANGO/src/tensorflow_lite/tensorflow/lite/kernels/internal\types.h ****     http://www.apache.org/licenses/LICENSE-2.0
   8:C:/Renesas/e2studio_2021_01_workspace_RZA2M_ANPR/ANPR_RZA2M_GR_MANGO/src/tensorflow_lite/tensorflow/lite/kernels/internal\types.h **** 
   9:C:/Renesas/e2studio_2021_01_workspace_RZA2M_ANPR/ANPR_RZA2M_GR_MANGO/src/tensorflow_lite/tensorflow/lite/kernels/internal\types.h **** Unless required by applicable law or agreed to in writing, software
  10:C:/Renesas/e2studio_2021_01_workspace_RZA2M_ANPR/ANPR_RZA2M_GR_MANGO/src/tensorflow_lite/tensorflow/lite/kernels/internal\types.h **** distributed under the License is distributed on an "AS IS" BASIS,
  11:C:/Renesas/e2studio_2021_01_workspace_RZA2M_ANPR/ANPR_RZA2M_GR_MANGO/src/tensorflow_lite/tensorflow/lite/kernels/internal\types.h **** WITHOUT WARRANTIES OR CONDITIONS OF ANY KIND, either express or implied.
  12:C:/Renesas/e2studio_2021_01_workspace_RZA2M_ANPR/ANPR_RZA2M_GR_MANGO/src/tensorflow_lite/tensorflow/lite/kernels/internal\types.h **** See the License for the specific language governing permissions and
  13:C:/Renesas/e2studio_2021_01_workspace_RZA2M_ANPR/ANPR_RZA2M_GR_MANGO/src/tensorflow_lite/tensorflow/lite/kernels/internal\types.h **** limitations under the License.
  14:C:/Renesas/e2studio_2021_01_workspace_RZA2M_ANPR/ANPR_RZA2M_GR_MANGO/src/tensorflow_lite/tensorflow/lite/kernels/internal\types.h **** ==============================================================================*/
  15:C:/Renesas/e2studio_2021_01_workspace_RZA2M_ANPR/ANPR_RZA2M_GR_MANGO/src/tensorflow_lite/tensorflow/lite/kernels/internal\types.h **** #ifndef TENSORFLOW_LITE_KERNELS_INTERNAL_TYPES_H_
  16:C:/Renesas/e2studio_2021_01_workspace_RZA2M_ANPR/ANPR_RZA2M_GR_MANGO/src/tensorflow_lite/tensorflow/lite/kernels/internal\types.h **** #define TENSORFLOW_LITE_KERNELS_INTERNAL_TYPES_H_
  17:C:/Renesas/e2studio_2021_01_workspace_RZA2M_ANPR/ANPR_RZA2M_GR_MANGO/src/tensorflow_lite/tensorflow/lite/kernels/internal\types.h **** 
  18:C:/Renesas/e2studio_2021_01_workspace_RZA2M_ANPR/ANPR_RZA2M_GR_MANGO/src/tensorflow_lite/tensorflow/lite/kernels/internal\types.h **** #include <algorithm>
  19:C:/Renesas/e2studio_2021_01_workspace_RZA2M_ANPR/ANPR_RZA2M_GR_MANGO/src/tensorflow_lite/tensorflow/lite/kernels/internal\types.h **** #include <cstdint>
  20:C:/Renesas/e2studio_2021_01_workspace_RZA2M_ANPR/ANPR_RZA2M_GR_MANGO/src/tensorflow_lite/tensorflow/lite/kernels/internal\types.h **** #include <cstring>
  21:C:/Renesas/e2studio_2021_01_workspace_RZA2M_ANPR/ANPR_RZA2M_GR_MANGO/src/tensorflow_lite/tensorflow/lite/kernels/internal\types.h **** #include <initializer_list>
  22:C:/Renesas/e2studio_2021_01_workspace_RZA2M_ANPR/ANPR_RZA2M_GR_MANGO/src/tensorflow_lite/tensorflow/lite/kernels/internal\types.h **** 
  23:C:/Renesas/e2studio_2021_01_workspace_RZA2M_ANPR/ANPR_RZA2M_GR_MANGO/src/tensorflow_lite/tensorflow/lite/kernels/internal\types.h **** #include "tensorflow/lite/kernels/internal/compatibility.h"
  24:C:/Renesas/e2studio_2021_01_workspace_RZA2M_ANPR/ANPR_RZA2M_GR_MANGO/src/tensorflow_lite/tensorflow/lite/kernels/internal\types.h **** 
  25:C:/Renesas/e2studio_2021_01_workspace_RZA2M_ANPR/ANPR_RZA2M_GR_MANGO/src/tensorflow_lite/tensorflow/lite/kernels/internal\types.h **** namespace tflite {
  26:C:/Renesas/e2studio_2021_01_workspace_RZA2M_ANPR/ANPR_RZA2M_GR_MANGO/src/tensorflow_lite/tensorflow/lite/kernels/internal\types.h **** 
  27:C:/Renesas/e2studio_2021_01_workspace_RZA2M_ANPR/ANPR_RZA2M_GR_MANGO/src/tensorflow_lite/tensorflow/lite/kernels/internal\types.h **** enum class FusedActivationFunctionType : uint8_t {
  28:C:/Renesas/e2studio_2021_01_workspace_RZA2M_ANPR/ANPR_RZA2M_GR_MANGO/src/tensorflow_lite/tensorflow/lite/kernels/internal\types.h ****   kNone,
  29:C:/Renesas/e2studio_2021_01_workspace_RZA2M_ANPR/ANPR_RZA2M_GR_MANGO/src/tensorflow_lite/tensorflow/lite/kernels/internal\types.h ****   kRelu6,
  30:C:/Renesas/e2studio_2021_01_workspace_RZA2M_ANPR/ANPR_RZA2M_GR_MANGO/src/tensorflow_lite/tensorflow/lite/kernels/internal\types.h ****   kRelu1,
  31:C:/Renesas/e2studio_2021_01_workspace_RZA2M_ANPR/ANPR_RZA2M_GR_MANGO/src/tensorflow_lite/tensorflow/lite/kernels/internal\types.h ****   kRelu
  32:C:/Renesas/e2studio_2021_01_workspace_RZA2M_ANPR/ANPR_RZA2M_GR_MANGO/src/tensorflow_lite/tensorflow/lite/kernels/internal\types.h **** };
  33:C:/Renesas/e2studio_2021_01_workspace_RZA2M_ANPR/ANPR_RZA2M_GR_MANGO/src/tensorflow_lite/tensorflow/lite/kernels/internal\types.h **** enum class PaddingType : uint8_t { kNone, kSame, kValid };
  34:C:/Renesas/e2studio_2021_01_workspace_RZA2M_ANPR/ANPR_RZA2M_GR_MANGO/src/tensorflow_lite/tensorflow/lite/kernels/internal\types.h **** 
  35:C:/Renesas/e2studio_2021_01_workspace_RZA2M_ANPR/ANPR_RZA2M_GR_MANGO/src/tensorflow_lite/tensorflow/lite/kernels/internal\types.h **** struct PaddingValues {
  36:C:/Renesas/e2studio_2021_01_workspace_RZA2M_ANPR/ANPR_RZA2M_GR_MANGO/src/tensorflow_lite/tensorflow/lite/kernels/internal\types.h ****   int16_t width;
  37:C:/Renesas/e2studio_2021_01_workspace_RZA2M_ANPR/ANPR_RZA2M_GR_MANGO/src/tensorflow_lite/tensorflow/lite/kernels/internal\types.h ****   int16_t height;
  38:C:/Renesas/e2studio_2021_01_workspace_RZA2M_ANPR/ANPR_RZA2M_GR_MANGO/src/tensorflow_lite/tensorflow/lite/kernels/internal\types.h ****   // offset is used for calculating "remaining" padding, for example, `width`
  39:C:/Renesas/e2studio_2021_01_workspace_RZA2M_ANPR/ANPR_RZA2M_GR_MANGO/src/tensorflow_lite/tensorflow/lite/kernels/internal\types.h ****   // is 1 and `width_offset` is 1, so padding_left is 1 while padding_right is
  40:C:/Renesas/e2studio_2021_01_workspace_RZA2M_ANPR/ANPR_RZA2M_GR_MANGO/src/tensorflow_lite/tensorflow/lite/kernels/internal\types.h ****   // 1 + 1 = 2.
  41:C:/Renesas/e2studio_2021_01_workspace_RZA2M_ANPR/ANPR_RZA2M_GR_MANGO/src/tensorflow_lite/tensorflow/lite/kernels/internal\types.h ****   int16_t width_offset;
  42:C:/Renesas/e2studio_2021_01_workspace_RZA2M_ANPR/ANPR_RZA2M_GR_MANGO/src/tensorflow_lite/tensorflow/lite/kernels/internal\types.h ****   // Same as width_offset except it's over the height dimension.
  43:C:/Renesas/e2studio_2021_01_workspace_RZA2M_ANPR/ANPR_RZA2M_GR_MANGO/src/tensorflow_lite/tensorflow/lite/kernels/internal\types.h ****   int16_t height_offset;
  44:C:/Renesas/e2studio_2021_01_workspace_RZA2M_ANPR/ANPR_RZA2M_GR_MANGO/src/tensorflow_lite/tensorflow/lite/kernels/internal\types.h **** };
  45:C:/Renesas/e2studio_2021_01_workspace_RZA2M_ANPR/ANPR_RZA2M_GR_MANGO/src/tensorflow_lite/tensorflow/lite/kernels/internal\types.h **** 
  46:C:/Renesas/e2studio_2021_01_workspace_RZA2M_ANPR/ANPR_RZA2M_GR_MANGO/src/tensorflow_lite/tensorflow/lite/kernels/internal\types.h **** struct Padding3DValues {
  47:C:/Renesas/e2studio_2021_01_workspace_RZA2M_ANPR/ANPR_RZA2M_GR_MANGO/src/tensorflow_lite/tensorflow/lite/kernels/internal\types.h ****   int16_t width;
  48:C:/Renesas/e2studio_2021_01_workspace_RZA2M_ANPR/ANPR_RZA2M_GR_MANGO/src/tensorflow_lite/tensorflow/lite/kernels/internal\types.h ****   int16_t height;
  49:C:/Renesas/e2studio_2021_01_workspace_RZA2M_ANPR/ANPR_RZA2M_GR_MANGO/src/tensorflow_lite/tensorflow/lite/kernels/internal\types.h ****   int16_t depth;
  50:C:/Renesas/e2studio_2021_01_workspace_RZA2M_ANPR/ANPR_RZA2M_GR_MANGO/src/tensorflow_lite/tensorflow/lite/kernels/internal\types.h ****   // offset is used for calculating "remaining" padding, for example, `width`
  51:C:/Renesas/e2studio_2021_01_workspace_RZA2M_ANPR/ANPR_RZA2M_GR_MANGO/src/tensorflow_lite/tensorflow/lite/kernels/internal\types.h ****   // is 1 and `width_offset` is 1, so padding_left is 1 while padding_right is
  52:C:/Renesas/e2studio_2021_01_workspace_RZA2M_ANPR/ANPR_RZA2M_GR_MANGO/src/tensorflow_lite/tensorflow/lite/kernels/internal\types.h ****   // 1 + 1 = 2.
  53:C:/Renesas/e2studio_2021_01_workspace_RZA2M_ANPR/ANPR_RZA2M_GR_MANGO/src/tensorflow_lite/tensorflow/lite/kernels/internal\types.h ****   int16_t width_offset;
  54:C:/Renesas/e2studio_2021_01_workspace_RZA2M_ANPR/ANPR_RZA2M_GR_MANGO/src/tensorflow_lite/tensorflow/lite/kernels/internal\types.h ****   // Same as width_offset except it's over the height dimension.
  55:C:/Renesas/e2studio_2021_01_workspace_RZA2M_ANPR/ANPR_RZA2M_GR_MANGO/src/tensorflow_lite/tensorflow/lite/kernels/internal\types.h ****   int16_t height_offset;
  56:C:/Renesas/e2studio_2021_01_workspace_RZA2M_ANPR/ANPR_RZA2M_GR_MANGO/src/tensorflow_lite/tensorflow/lite/kernels/internal\types.h ****   // Same as width_offset except it's over the depth dimension.
  57:C:/Renesas/e2studio_2021_01_workspace_RZA2M_ANPR/ANPR_RZA2M_GR_MANGO/src/tensorflow_lite/tensorflow/lite/kernels/internal\types.h ****   int16_t depth_offset;
  58:C:/Renesas/e2studio_2021_01_workspace_RZA2M_ANPR/ANPR_RZA2M_GR_MANGO/src/tensorflow_lite/tensorflow/lite/kernels/internal\types.h **** };
  59:C:/Renesas/e2studio_2021_01_workspace_RZA2M_ANPR/ANPR_RZA2M_GR_MANGO/src/tensorflow_lite/tensorflow/lite/kernels/internal\types.h **** 
  60:C:/Renesas/e2studio_2021_01_workspace_RZA2M_ANPR/ANPR_RZA2M_GR_MANGO/src/tensorflow_lite/tensorflow/lite/kernels/internal\types.h **** // This enumeration allows for non-default formats for the weights array
  61:C:/Renesas/e2studio_2021_01_workspace_RZA2M_ANPR/ANPR_RZA2M_GR_MANGO/src/tensorflow_lite/tensorflow/lite/kernels/internal\types.h **** // of a fully-connected operator, allowing the use of special optimized
  62:C:/Renesas/e2studio_2021_01_workspace_RZA2M_ANPR/ANPR_RZA2M_GR_MANGO/src/tensorflow_lite/tensorflow/lite/kernels/internal\types.h **** // runtime paths.
  63:C:/Renesas/e2studio_2021_01_workspace_RZA2M_ANPR/ANPR_RZA2M_GR_MANGO/src/tensorflow_lite/tensorflow/lite/kernels/internal\types.h **** enum class FullyConnectedWeightsFormat : uint8_t {
  64:C:/Renesas/e2studio_2021_01_workspace_RZA2M_ANPR/ANPR_RZA2M_GR_MANGO/src/tensorflow_lite/tensorflow/lite/kernels/internal\types.h ****   // Default format (flat 2D layout, the inner contiguous dimension
  65:C:/Renesas/e2studio_2021_01_workspace_RZA2M_ANPR/ANPR_RZA2M_GR_MANGO/src/tensorflow_lite/tensorflow/lite/kernels/internal\types.h ****   // is input_depth, the outer non-contiguous dimension is output_depth)
  66:C:/Renesas/e2studio_2021_01_workspace_RZA2M_ANPR/ANPR_RZA2M_GR_MANGO/src/tensorflow_lite/tensorflow/lite/kernels/internal\types.h ****   kDefault,
  67:C:/Renesas/e2studio_2021_01_workspace_RZA2M_ANPR/ANPR_RZA2M_GR_MANGO/src/tensorflow_lite/tensorflow/lite/kernels/internal\types.h ****   // Summary: optimized layout for fast CPU runtime implementation,
  68:C:/Renesas/e2studio_2021_01_workspace_RZA2M_ANPR/ANPR_RZA2M_GR_MANGO/src/tensorflow_lite/tensorflow/lite/kernels/internal\types.h ****   // aimed specifically at ARM CPUs at the moment, and specialized for
  69:C:/Renesas/e2studio_2021_01_workspace_RZA2M_ANPR/ANPR_RZA2M_GR_MANGO/src/tensorflow_lite/tensorflow/lite/kernels/internal\types.h ****   // 8-bit quantized layers.
  70:C:/Renesas/e2studio_2021_01_workspace_RZA2M_ANPR/ANPR_RZA2M_GR_MANGO/src/tensorflow_lite/tensorflow/lite/kernels/internal\types.h ****   //
  71:C:/Renesas/e2studio_2021_01_workspace_RZA2M_ANPR/ANPR_RZA2M_GR_MANGO/src/tensorflow_lite/tensorflow/lite/kernels/internal\types.h ****   // The use case we're concerned with here is: 8-bit quantization,
  72:C:/Renesas/e2studio_2021_01_workspace_RZA2M_ANPR/ANPR_RZA2M_GR_MANGO/src/tensorflow_lite/tensorflow/lite/kernels/internal\types.h ****   // large weights matrix that doesn't fit in cache (e.g. 4096x2048 in
  73:C:/Renesas/e2studio_2021_01_workspace_RZA2M_ANPR/ANPR_RZA2M_GR_MANGO/src/tensorflow_lite/tensorflow/lite/kernels/internal\types.h ****   // a key application that drove this), very small batch size (e.g. 1 -- 4).
  74:C:/Renesas/e2studio_2021_01_workspace_RZA2M_ANPR/ANPR_RZA2M_GR_MANGO/src/tensorflow_lite/tensorflow/lite/kernels/internal\types.h ****   //
  75:C:/Renesas/e2studio_2021_01_workspace_RZA2M_ANPR/ANPR_RZA2M_GR_MANGO/src/tensorflow_lite/tensorflow/lite/kernels/internal\types.h ****   // Even with 8-bit quantization of weights, the performance of memory
  76:C:/Renesas/e2studio_2021_01_workspace_RZA2M_ANPR/ANPR_RZA2M_GR_MANGO/src/tensorflow_lite/tensorflow/lite/kernels/internal\types.h ****   // accesses to the weights can become the dominant issue when
  77:C:/Renesas/e2studio_2021_01_workspace_RZA2M_ANPR/ANPR_RZA2M_GR_MANGO/src/tensorflow_lite/tensorflow/lite/kernels/internal\types.h ****   // the batch size is small, so each weight value is used in only a few
  78:C:/Renesas/e2studio_2021_01_workspace_RZA2M_ANPR/ANPR_RZA2M_GR_MANGO/src/tensorflow_lite/tensorflow/lite/kernels/internal\types.h ****   // arithmetic ops, i.e. the fully-connected node has a low arithmetic
  79:C:/Renesas/e2studio_2021_01_workspace_RZA2M_ANPR/ANPR_RZA2M_GR_MANGO/src/tensorflow_lite/tensorflow/lite/kernels/internal\types.h ****   // intensity. The specific issues that arise are of three kinds:
  80:C:/Renesas/e2studio_2021_01_workspace_RZA2M_ANPR/ANPR_RZA2M_GR_MANGO/src/tensorflow_lite/tensorflow/lite/kernels/internal\types.h ****   // (1) One may, ideally, max out DRAM bandwidth, i.e. be truly memory
  81:C:/Renesas/e2studio_2021_01_workspace_RZA2M_ANPR/ANPR_RZA2M_GR_MANGO/src/tensorflow_lite/tensorflow/lite/kernels/internal\types.h ****   //     bound. That's the "good" issue to run into.
  82:C:/Renesas/e2studio_2021_01_workspace_RZA2M_ANPR/ANPR_RZA2M_GR_MANGO/src/tensorflow_lite/tensorflow/lite/kernels/internal\types.h ****   // (2) One may run into sub-optimal pre-fetching: the data hasn't been
  83:C:/Renesas/e2studio_2021_01_workspace_RZA2M_ANPR/ANPR_RZA2M_GR_MANGO/src/tensorflow_lite/tensorflow/lite/kernels/internal\types.h ****   //     prefetched into the cache by the time we need it.
  84:C:/Renesas/e2studio_2021_01_workspace_RZA2M_ANPR/ANPR_RZA2M_GR_MANGO/src/tensorflow_lite/tensorflow/lite/kernels/internal\types.h ****   // (3) One may run into cache aliasing: multiple values that are
  85:C:/Renesas/e2studio_2021_01_workspace_RZA2M_ANPR/ANPR_RZA2M_GR_MANGO/src/tensorflow_lite/tensorflow/lite/kernels/internal\types.h ****   //     pre-fetched, alias each other in the L1 cache (which typically
  86:C:/Renesas/e2studio_2021_01_workspace_RZA2M_ANPR/ANPR_RZA2M_GR_MANGO/src/tensorflow_lite/tensorflow/lite/kernels/internal\types.h ****   //     has only 4-way set associativity in ARM CPUs) and thus evict
  87:C:/Renesas/e2studio_2021_01_workspace_RZA2M_ANPR/ANPR_RZA2M_GR_MANGO/src/tensorflow_lite/tensorflow/lite/kernels/internal\types.h ****   //     each other before we get to using them.
  88:C:/Renesas/e2studio_2021_01_workspace_RZA2M_ANPR/ANPR_RZA2M_GR_MANGO/src/tensorflow_lite/tensorflow/lite/kernels/internal\types.h ****   //
  89:C:/Renesas/e2studio_2021_01_workspace_RZA2M_ANPR/ANPR_RZA2M_GR_MANGO/src/tensorflow_lite/tensorflow/lite/kernels/internal\types.h ****   // The point of this shuffling is to avoid issues (2) and (3) so that
  90:C:/Renesas/e2studio_2021_01_workspace_RZA2M_ANPR/ANPR_RZA2M_GR_MANGO/src/tensorflow_lite/tensorflow/lite/kernels/internal\types.h ****   // we get as fast as possible given only the hard constraint (1).
  91:C:/Renesas/e2studio_2021_01_workspace_RZA2M_ANPR/ANPR_RZA2M_GR_MANGO/src/tensorflow_lite/tensorflow/lite/kernels/internal\types.h ****   // This is achieved by turning the difficulty into a solution: the
  92:C:/Renesas/e2studio_2021_01_workspace_RZA2M_ANPR/ANPR_RZA2M_GR_MANGO/src/tensorflow_lite/tensorflow/lite/kernels/internal\types.h ****   // difficulty, that each value loaded from memory is used only in
  93:C:/Renesas/e2studio_2021_01_workspace_RZA2M_ANPR/ANPR_RZA2M_GR_MANGO/src/tensorflow_lite/tensorflow/lite/kernels/internal\types.h ****   // one kernel iteration, making this operation memory-intensive, hints at
  94:C:/Renesas/e2studio_2021_01_workspace_RZA2M_ANPR/ANPR_RZA2M_GR_MANGO/src/tensorflow_lite/tensorflow/lite/kernels/internal\types.h ****   // the solution, of shuffling the weights so that they are stored in the
  95:C:/Renesas/e2studio_2021_01_workspace_RZA2M_ANPR/ANPR_RZA2M_GR_MANGO/src/tensorflow_lite/tensorflow/lite/kernels/internal\types.h ****   // exact order as the kernel needs to load them, so that the memory
  96:C:/Renesas/e2studio_2021_01_workspace_RZA2M_ANPR/ANPR_RZA2M_GR_MANGO/src/tensorflow_lite/tensorflow/lite/kernels/internal\types.h ****   // accesses made by the kernel are trivial. This solves (2) because the
  97:C:/Renesas/e2studio_2021_01_workspace_RZA2M_ANPR/ANPR_RZA2M_GR_MANGO/src/tensorflow_lite/tensorflow/lite/kernels/internal\types.h ****   // trivial memory access pattern allows the CPU's automatic prefetching
  98:C:/Renesas/e2studio_2021_01_workspace_RZA2M_ANPR/ANPR_RZA2M_GR_MANGO/src/tensorflow_lite/tensorflow/lite/kernels/internal\types.h ****   // to perform very well (no need even for preload instructions), and this
  99:C:/Renesas/e2studio_2021_01_workspace_RZA2M_ANPR/ANPR_RZA2M_GR_MANGO/src/tensorflow_lite/tensorflow/lite/kernels/internal\types.h ****   // solves (3) because the values being loaded concurrently are now
 100:C:/Renesas/e2studio_2021_01_workspace_RZA2M_ANPR/ANPR_RZA2M_GR_MANGO/src/tensorflow_lite/tensorflow/lite/kernels/internal\types.h ****   // contiguous in the address space, thus don't alias each other in the cache.
 101:C:/Renesas/e2studio_2021_01_workspace_RZA2M_ANPR/ANPR_RZA2M_GR_MANGO/src/tensorflow_lite/tensorflow/lite/kernels/internal\types.h ****   //
 102:C:/Renesas/e2studio_2021_01_workspace_RZA2M_ANPR/ANPR_RZA2M_GR_MANGO/src/tensorflow_lite/tensorflow/lite/kernels/internal\types.h ****   // On ARM, we typically want our kernel to process a 4x16 block of weights
 103:C:/Renesas/e2studio_2021_01_workspace_RZA2M_ANPR/ANPR_RZA2M_GR_MANGO/src/tensorflow_lite/tensorflow/lite/kernels/internal\types.h ****   // at a time, because:
 104:C:/Renesas/e2studio_2021_01_workspace_RZA2M_ANPR/ANPR_RZA2M_GR_MANGO/src/tensorflow_lite/tensorflow/lite/kernels/internal\types.h ****   //   - 16 is the number of bytes in a NEON register.
 105:C:/Renesas/e2studio_2021_01_workspace_RZA2M_ANPR/ANPR_RZA2M_GR_MANGO/src/tensorflow_lite/tensorflow/lite/kernels/internal\types.h ****   //   - 4 is how many rows we need to handle concurrently in the kernel in
 106:C:/Renesas/e2studio_2021_01_workspace_RZA2M_ANPR/ANPR_RZA2M_GR_MANGO/src/tensorflow_lite/tensorflow/lite/kernels/internal\types.h ****   //     order to have sufficient mutual independence of instructions to
 107:C:/Renesas/e2studio_2021_01_workspace_RZA2M_ANPR/ANPR_RZA2M_GR_MANGO/src/tensorflow_lite/tensorflow/lite/kernels/internal\types.h ****   //     maximize arithmetic throughput.
 108:C:/Renesas/e2studio_2021_01_workspace_RZA2M_ANPR/ANPR_RZA2M_GR_MANGO/src/tensorflow_lite/tensorflow/lite/kernels/internal\types.h ****   //
 109:C:/Renesas/e2studio_2021_01_workspace_RZA2M_ANPR/ANPR_RZA2M_GR_MANGO/src/tensorflow_lite/tensorflow/lite/kernels/internal\types.h ****   // Finally, the 'Int8' part in the name refers to the fact that this
 110:C:/Renesas/e2studio_2021_01_workspace_RZA2M_ANPR/ANPR_RZA2M_GR_MANGO/src/tensorflow_lite/tensorflow/lite/kernels/internal\types.h ****   // weights format has each weights value encoded as a signed int8_t value,
 111:C:/Renesas/e2studio_2021_01_workspace_RZA2M_ANPR/ANPR_RZA2M_GR_MANGO/src/tensorflow_lite/tensorflow/lite/kernels/internal\types.h ****   // even if the data type of the weights buffer is uint8_t.  This is intended
 112:C:/Renesas/e2studio_2021_01_workspace_RZA2M_ANPR/ANPR_RZA2M_GR_MANGO/src/tensorflow_lite/tensorflow/lite/kernels/internal\types.h ****   // to save runtime kernels the effort to have to XOR the top bit of these
 113:C:/Renesas/e2studio_2021_01_workspace_RZA2M_ANPR/ANPR_RZA2M_GR_MANGO/src/tensorflow_lite/tensorflow/lite/kernels/internal\types.h ****   // bytes before using them in signed arithmetic, see this file for more
 114:C:/Renesas/e2studio_2021_01_workspace_RZA2M_ANPR/ANPR_RZA2M_GR_MANGO/src/tensorflow_lite/tensorflow/lite/kernels/internal\types.h ****   // explanations on the 'signed int8_t trick' in matrix multiplication kernels:
 115:C:/Renesas/e2studio_2021_01_workspace_RZA2M_ANPR/ANPR_RZA2M_GR_MANGO/src/tensorflow_lite/tensorflow/lite/kernels/internal\types.h ****   //
 116:C:/Renesas/e2studio_2021_01_workspace_RZA2M_ANPR/ANPR_RZA2M_GR_MANGO/src/tensorflow_lite/tensorflow/lite/kernels/internal\types.h ****   //   tensorflow/lite/toco/graph_transformations/ensure_uint8_weights_safe_for_fast_int8_kernels.c
 117:C:/Renesas/e2studio_2021_01_workspace_RZA2M_ANPR/ANPR_RZA2M_GR_MANGO/src/tensorflow_lite/tensorflow/lite/kernels/internal\types.h ****   //
 118:C:/Renesas/e2studio_2021_01_workspace_RZA2M_ANPR/ANPR_RZA2M_GR_MANGO/src/tensorflow_lite/tensorflow/lite/kernels/internal\types.h ****   kShuffled4x16Int8,
 119:C:/Renesas/e2studio_2021_01_workspace_RZA2M_ANPR/ANPR_RZA2M_GR_MANGO/src/tensorflow_lite/tensorflow/lite/kernels/internal\types.h **** };
 120:C:/Renesas/e2studio_2021_01_workspace_RZA2M_ANPR/ANPR_RZA2M_GR_MANGO/src/tensorflow_lite/tensorflow/lite/kernels/internal\types.h **** 
 121:C:/Renesas/e2studio_2021_01_workspace_RZA2M_ANPR/ANPR_RZA2M_GR_MANGO/src/tensorflow_lite/tensorflow/lite/kernels/internal\types.h **** // Quantization parameters, determining the mapping of quantized values
 122:C:/Renesas/e2studio_2021_01_workspace_RZA2M_ANPR/ANPR_RZA2M_GR_MANGO/src/tensorflow_lite/tensorflow/lite/kernels/internal\types.h **** // to real values (i.e. determining how quantized values are mathematically
 123:C:/Renesas/e2studio_2021_01_workspace_RZA2M_ANPR/ANPR_RZA2M_GR_MANGO/src/tensorflow_lite/tensorflow/lite/kernels/internal\types.h **** // interpreted).
 124:C:/Renesas/e2studio_2021_01_workspace_RZA2M_ANPR/ANPR_RZA2M_GR_MANGO/src/tensorflow_lite/tensorflow/lite/kernels/internal\types.h **** //
 125:C:/Renesas/e2studio_2021_01_workspace_RZA2M_ANPR/ANPR_RZA2M_GR_MANGO/src/tensorflow_lite/tensorflow/lite/kernels/internal\types.h **** // The correspondence is as follows:
 126:C:/Renesas/e2studio_2021_01_workspace_RZA2M_ANPR/ANPR_RZA2M_GR_MANGO/src/tensorflow_lite/tensorflow/lite/kernels/internal\types.h **** //
 127:C:/Renesas/e2studio_2021_01_workspace_RZA2M_ANPR/ANPR_RZA2M_GR_MANGO/src/tensorflow_lite/tensorflow/lite/kernels/internal\types.h **** //   real_value = scale * (quantized_value - zero_point);
 128:C:/Renesas/e2studio_2021_01_workspace_RZA2M_ANPR/ANPR_RZA2M_GR_MANGO/src/tensorflow_lite/tensorflow/lite/kernels/internal\types.h **** //
 129:C:/Renesas/e2studio_2021_01_workspace_RZA2M_ANPR/ANPR_RZA2M_GR_MANGO/src/tensorflow_lite/tensorflow/lite/kernels/internal\types.h **** // In other words, zero_point designates which quantized value corresponds to
 130:C:/Renesas/e2studio_2021_01_workspace_RZA2M_ANPR/ANPR_RZA2M_GR_MANGO/src/tensorflow_lite/tensorflow/lite/kernels/internal\types.h **** // the real 0 value, and scale designates the difference between the real values
 131:C:/Renesas/e2studio_2021_01_workspace_RZA2M_ANPR/ANPR_RZA2M_GR_MANGO/src/tensorflow_lite/tensorflow/lite/kernels/internal\types.h **** // corresponding to consecutive quantized values differing by 1.
 132:C:/Renesas/e2studio_2021_01_workspace_RZA2M_ANPR/ANPR_RZA2M_GR_MANGO/src/tensorflow_lite/tensorflow/lite/kernels/internal\types.h **** struct QuantizationParams {
 133:C:/Renesas/e2studio_2021_01_workspace_RZA2M_ANPR/ANPR_RZA2M_GR_MANGO/src/tensorflow_lite/tensorflow/lite/kernels/internal\types.h ****   int32_t zero_point = 0;
 134:C:/Renesas/e2studio_2021_01_workspace_RZA2M_ANPR/ANPR_RZA2M_GR_MANGO/src/tensorflow_lite/tensorflow/lite/kernels/internal\types.h ****   double scale = 0.0;
 135:C:/Renesas/e2studio_2021_01_workspace_RZA2M_ANPR/ANPR_RZA2M_GR_MANGO/src/tensorflow_lite/tensorflow/lite/kernels/internal\types.h **** };
 136:C:/Renesas/e2studio_2021_01_workspace_RZA2M_ANPR/ANPR_RZA2M_GR_MANGO/src/tensorflow_lite/tensorflow/lite/kernels/internal\types.h **** 
 137:C:/Renesas/e2studio_2021_01_workspace_RZA2M_ANPR/ANPR_RZA2M_GR_MANGO/src/tensorflow_lite/tensorflow/lite/kernels/internal\types.h **** inline bool operator==(const QuantizationParams& qp1,
 138:C:/Renesas/e2studio_2021_01_workspace_RZA2M_ANPR/ANPR_RZA2M_GR_MANGO/src/tensorflow_lite/tensorflow/lite/kernels/internal\types.h ****                        const QuantizationParams& qp2) {
 139:C:/Renesas/e2studio_2021_01_workspace_RZA2M_ANPR/ANPR_RZA2M_GR_MANGO/src/tensorflow_lite/tensorflow/lite/kernels/internal\types.h ****   return qp1.zero_point == qp2.zero_point && qp1.scale == qp2.scale;
 140:C:/Renesas/e2studio_2021_01_workspace_RZA2M_ANPR/ANPR_RZA2M_GR_MANGO/src/tensorflow_lite/tensorflow/lite/kernels/internal\types.h **** }
 141:C:/Renesas/e2studio_2021_01_workspace_RZA2M_ANPR/ANPR_RZA2M_GR_MANGO/src/tensorflow_lite/tensorflow/lite/kernels/internal\types.h **** 
 142:C:/Renesas/e2studio_2021_01_workspace_RZA2M_ANPR/ANPR_RZA2M_GR_MANGO/src/tensorflow_lite/tensorflow/lite/kernels/internal\types.h **** template <int N>
 143:C:/Renesas/e2studio_2021_01_workspace_RZA2M_ANPR/ANPR_RZA2M_GR_MANGO/src/tensorflow_lite/tensorflow/lite/kernels/internal\types.h **** struct Dims {
 144:C:/Renesas/e2studio_2021_01_workspace_RZA2M_ANPR/ANPR_RZA2M_GR_MANGO/src/tensorflow_lite/tensorflow/lite/kernels/internal\types.h ****   int sizes[N];
 145:C:/Renesas/e2studio_2021_01_workspace_RZA2M_ANPR/ANPR_RZA2M_GR_MANGO/src/tensorflow_lite/tensorflow/lite/kernels/internal\types.h ****   int strides[N];
 146:C:/Renesas/e2studio_2021_01_workspace_RZA2M_ANPR/ANPR_RZA2M_GR_MANGO/src/tensorflow_lite/tensorflow/lite/kernels/internal\types.h **** };
 147:C:/Renesas/e2studio_2021_01_workspace_RZA2M_ANPR/ANPR_RZA2M_GR_MANGO/src/tensorflow_lite/tensorflow/lite/kernels/internal\types.h **** 
 148:C:/Renesas/e2studio_2021_01_workspace_RZA2M_ANPR/ANPR_RZA2M_GR_MANGO/src/tensorflow_lite/tensorflow/lite/kernels/internal\types.h **** class RuntimeShape {
 149:C:/Renesas/e2studio_2021_01_workspace_RZA2M_ANPR/ANPR_RZA2M_GR_MANGO/src/tensorflow_lite/tensorflow/lite/kernels/internal\types.h ****  public:
 150:C:/Renesas/e2studio_2021_01_workspace_RZA2M_ANPR/ANPR_RZA2M_GR_MANGO/src/tensorflow_lite/tensorflow/lite/kernels/internal\types.h ****   // Shapes with dimensions up to 5 are stored directly in the structure, while
 151:C:/Renesas/e2studio_2021_01_workspace_RZA2M_ANPR/ANPR_RZA2M_GR_MANGO/src/tensorflow_lite/tensorflow/lite/kernels/internal\types.h ****   // larger shapes are separately allocated.
 152:C:/Renesas/e2studio_2021_01_workspace_RZA2M_ANPR/ANPR_RZA2M_GR_MANGO/src/tensorflow_lite/tensorflow/lite/kernels/internal\types.h ****   static constexpr int kMaxSmallSize = 5;
 153:C:/Renesas/e2studio_2021_01_workspace_RZA2M_ANPR/ANPR_RZA2M_GR_MANGO/src/tensorflow_lite/tensorflow/lite/kernels/internal\types.h **** 
 154:C:/Renesas/e2studio_2021_01_workspace_RZA2M_ANPR/ANPR_RZA2M_GR_MANGO/src/tensorflow_lite/tensorflow/lite/kernels/internal\types.h ****   RuntimeShape& operator=(RuntimeShape const&) = delete;
 155:C:/Renesas/e2studio_2021_01_workspace_RZA2M_ANPR/ANPR_RZA2M_GR_MANGO/src/tensorflow_lite/tensorflow/lite/kernels/internal\types.h **** 
 156:C:/Renesas/e2studio_2021_01_workspace_RZA2M_ANPR/ANPR_RZA2M_GR_MANGO/src/tensorflow_lite/tensorflow/lite/kernels/internal\types.h ****   RuntimeShape() : size_(0) {}
 157:C:/Renesas/e2studio_2021_01_workspace_RZA2M_ANPR/ANPR_RZA2M_GR_MANGO/src/tensorflow_lite/tensorflow/lite/kernels/internal\types.h **** 
 158:C:/Renesas/e2studio_2021_01_workspace_RZA2M_ANPR/ANPR_RZA2M_GR_MANGO/src/tensorflow_lite/tensorflow/lite/kernels/internal\types.h ****   explicit RuntimeShape(int dimensions_count) : size_(dimensions_count) {
 159:C:/Renesas/e2studio_2021_01_workspace_RZA2M_ANPR/ANPR_RZA2M_GR_MANGO/src/tensorflow_lite/tensorflow/lite/kernels/internal\types.h ****     if (dimensions_count > kMaxSmallSize) {
 160:C:/Renesas/e2studio_2021_01_workspace_RZA2M_ANPR/ANPR_RZA2M_GR_MANGO/src/tensorflow_lite/tensorflow/lite/kernels/internal\types.h **** #ifdef TF_LITE_STATIC_MEMORY
 161:C:/Renesas/e2studio_2021_01_workspace_RZA2M_ANPR/ANPR_RZA2M_GR_MANGO/src/tensorflow_lite/tensorflow/lite/kernels/internal\types.h ****       TFLITE_CHECK(false && "No shape resizing supported on this platform");
 162:C:/Renesas/e2studio_2021_01_workspace_RZA2M_ANPR/ANPR_RZA2M_GR_MANGO/src/tensorflow_lite/tensorflow/lite/kernels/internal\types.h **** #else  // TF_LITE_STATIC_MEMORY
 163:C:/Renesas/e2studio_2021_01_workspace_RZA2M_ANPR/ANPR_RZA2M_GR_MANGO/src/tensorflow_lite/tensorflow/lite/kernels/internal\types.h ****       dims_pointer_ = new int32_t[dimensions_count];
 164:C:/Renesas/e2studio_2021_01_workspace_RZA2M_ANPR/ANPR_RZA2M_GR_MANGO/src/tensorflow_lite/tensorflow/lite/kernels/internal\types.h **** #endif  // TF_LITE_STATIC_MEMORY
 165:C:/Renesas/e2studio_2021_01_workspace_RZA2M_ANPR/ANPR_RZA2M_GR_MANGO/src/tensorflow_lite/tensorflow/lite/kernels/internal\types.h ****     }
 166:C:/Renesas/e2studio_2021_01_workspace_RZA2M_ANPR/ANPR_RZA2M_GR_MANGO/src/tensorflow_lite/tensorflow/lite/kernels/internal\types.h ****   }
 167:C:/Renesas/e2studio_2021_01_workspace_RZA2M_ANPR/ANPR_RZA2M_GR_MANGO/src/tensorflow_lite/tensorflow/lite/kernels/internal\types.h **** 
 168:C:/Renesas/e2studio_2021_01_workspace_RZA2M_ANPR/ANPR_RZA2M_GR_MANGO/src/tensorflow_lite/tensorflow/lite/kernels/internal\types.h ****   RuntimeShape(int shape_size, int32_t value) : size_(0) {
 169:C:/Renesas/e2studio_2021_01_workspace_RZA2M_ANPR/ANPR_RZA2M_GR_MANGO/src/tensorflow_lite/tensorflow/lite/kernels/internal\types.h ****     Resize(shape_size);
 170:C:/Renesas/e2studio_2021_01_workspace_RZA2M_ANPR/ANPR_RZA2M_GR_MANGO/src/tensorflow_lite/tensorflow/lite/kernels/internal\types.h ****     for (int i = 0; i < shape_size; ++i) {
 171:C:/Renesas/e2studio_2021_01_workspace_RZA2M_ANPR/ANPR_RZA2M_GR_MANGO/src/tensorflow_lite/tensorflow/lite/kernels/internal\types.h ****       SetDim(i, value);
 172:C:/Renesas/e2studio_2021_01_workspace_RZA2M_ANPR/ANPR_RZA2M_GR_MANGO/src/tensorflow_lite/tensorflow/lite/kernels/internal\types.h ****     }
 173:C:/Renesas/e2studio_2021_01_workspace_RZA2M_ANPR/ANPR_RZA2M_GR_MANGO/src/tensorflow_lite/tensorflow/lite/kernels/internal\types.h ****   }
 174:C:/Renesas/e2studio_2021_01_workspace_RZA2M_ANPR/ANPR_RZA2M_GR_MANGO/src/tensorflow_lite/tensorflow/lite/kernels/internal\types.h **** 
 175:C:/Renesas/e2studio_2021_01_workspace_RZA2M_ANPR/ANPR_RZA2M_GR_MANGO/src/tensorflow_lite/tensorflow/lite/kernels/internal\types.h ****   RuntimeShape(int dimensions_count, const int32_t* dims_data) : size_(0) {
 176:C:/Renesas/e2studio_2021_01_workspace_RZA2M_ANPR/ANPR_RZA2M_GR_MANGO/src/tensorflow_lite/tensorflow/lite/kernels/internal\types.h ****     ReplaceWith(dimensions_count, dims_data);
 177:C:/Renesas/e2studio_2021_01_workspace_RZA2M_ANPR/ANPR_RZA2M_GR_MANGO/src/tensorflow_lite/tensorflow/lite/kernels/internal\types.h ****   }
 178:C:/Renesas/e2studio_2021_01_workspace_RZA2M_ANPR/ANPR_RZA2M_GR_MANGO/src/tensorflow_lite/tensorflow/lite/kernels/internal\types.h **** 
 179:C:/Renesas/e2studio_2021_01_workspace_RZA2M_ANPR/ANPR_RZA2M_GR_MANGO/src/tensorflow_lite/tensorflow/lite/kernels/internal\types.h ****   RuntimeShape(const std::initializer_list<int> init_list) : size_(0) {
 180:C:/Renesas/e2studio_2021_01_workspace_RZA2M_ANPR/ANPR_RZA2M_GR_MANGO/src/tensorflow_lite/tensorflow/lite/kernels/internal\types.h ****     BuildFrom(init_list);
 181:C:/Renesas/e2studio_2021_01_workspace_RZA2M_ANPR/ANPR_RZA2M_GR_MANGO/src/tensorflow_lite/tensorflow/lite/kernels/internal\types.h ****   }
 182:C:/Renesas/e2studio_2021_01_workspace_RZA2M_ANPR/ANPR_RZA2M_GR_MANGO/src/tensorflow_lite/tensorflow/lite/kernels/internal\types.h **** 
 183:C:/Renesas/e2studio_2021_01_workspace_RZA2M_ANPR/ANPR_RZA2M_GR_MANGO/src/tensorflow_lite/tensorflow/lite/kernels/internal\types.h ****   // Avoid using this constructor.  We should be able to delete it when C++17
 184:C:/Renesas/e2studio_2021_01_workspace_RZA2M_ANPR/ANPR_RZA2M_GR_MANGO/src/tensorflow_lite/tensorflow/lite/kernels/internal\types.h ****   // rolls out.
 185:C:/Renesas/e2studio_2021_01_workspace_RZA2M_ANPR/ANPR_RZA2M_GR_MANGO/src/tensorflow_lite/tensorflow/lite/kernels/internal\types.h ****   RuntimeShape(RuntimeShape const& other) : size_(other.DimensionsCount()) {
 186:C:/Renesas/e2studio_2021_01_workspace_RZA2M_ANPR/ANPR_RZA2M_GR_MANGO/src/tensorflow_lite/tensorflow/lite/kernels/internal\types.h ****     if (size_ > kMaxSmallSize) {
 187:C:/Renesas/e2studio_2021_01_workspace_RZA2M_ANPR/ANPR_RZA2M_GR_MANGO/src/tensorflow_lite/tensorflow/lite/kernels/internal\types.h **** #ifdef TF_LITE_STATIC_MEMORY
 188:C:/Renesas/e2studio_2021_01_workspace_RZA2M_ANPR/ANPR_RZA2M_GR_MANGO/src/tensorflow_lite/tensorflow/lite/kernels/internal\types.h ****       TFLITE_CHECK(false && "No shape resizing supported on this platform");
 189:C:/Renesas/e2studio_2021_01_workspace_RZA2M_ANPR/ANPR_RZA2M_GR_MANGO/src/tensorflow_lite/tensorflow/lite/kernels/internal\types.h **** #else
 190:C:/Renesas/e2studio_2021_01_workspace_RZA2M_ANPR/ANPR_RZA2M_GR_MANGO/src/tensorflow_lite/tensorflow/lite/kernels/internal\types.h ****       dims_pointer_ = new int32_t[size_];
 191:C:/Renesas/e2studio_2021_01_workspace_RZA2M_ANPR/ANPR_RZA2M_GR_MANGO/src/tensorflow_lite/tensorflow/lite/kernels/internal\types.h **** #endif
 192:C:/Renesas/e2studio_2021_01_workspace_RZA2M_ANPR/ANPR_RZA2M_GR_MANGO/src/tensorflow_lite/tensorflow/lite/kernels/internal\types.h ****     }
 193:C:/Renesas/e2studio_2021_01_workspace_RZA2M_ANPR/ANPR_RZA2M_GR_MANGO/src/tensorflow_lite/tensorflow/lite/kernels/internal\types.h ****     std::memcpy(DimsData(), other.DimsData(), sizeof(int32_t) * size_);
 194:C:/Renesas/e2studio_2021_01_workspace_RZA2M_ANPR/ANPR_RZA2M_GR_MANGO/src/tensorflow_lite/tensorflow/lite/kernels/internal\types.h ****   }
 195:C:/Renesas/e2studio_2021_01_workspace_RZA2M_ANPR/ANPR_RZA2M_GR_MANGO/src/tensorflow_lite/tensorflow/lite/kernels/internal\types.h **** 
 196:C:/Renesas/e2studio_2021_01_workspace_RZA2M_ANPR/ANPR_RZA2M_GR_MANGO/src/tensorflow_lite/tensorflow/lite/kernels/internal\types.h ****   bool operator==(const RuntimeShape& comp) const {
 197:C:/Renesas/e2studio_2021_01_workspace_RZA2M_ANPR/ANPR_RZA2M_GR_MANGO/src/tensorflow_lite/tensorflow/lite/kernels/internal\types.h ****     return this->size_ == comp.size_ &&
 198:C:/Renesas/e2studio_2021_01_workspace_RZA2M_ANPR/ANPR_RZA2M_GR_MANGO/src/tensorflow_lite/tensorflow/lite/kernels/internal\types.h ****            std::memcmp(DimsData(), comp.DimsData(), size_ * sizeof(int32_t)) ==
 199:C:/Renesas/e2studio_2021_01_workspace_RZA2M_ANPR/ANPR_RZA2M_GR_MANGO/src/tensorflow_lite/tensorflow/lite/kernels/internal\types.h ****                0;
 200:C:/Renesas/e2studio_2021_01_workspace_RZA2M_ANPR/ANPR_RZA2M_GR_MANGO/src/tensorflow_lite/tensorflow/lite/kernels/internal\types.h ****   }
 201:C:/Renesas/e2studio_2021_01_workspace_RZA2M_ANPR/ANPR_RZA2M_GR_MANGO/src/tensorflow_lite/tensorflow/lite/kernels/internal\types.h **** 
 202:C:/Renesas/e2studio_2021_01_workspace_RZA2M_ANPR/ANPR_RZA2M_GR_MANGO/src/tensorflow_lite/tensorflow/lite/kernels/internal\types.h ****   ~RuntimeShape() {
 203:C:/Renesas/e2studio_2021_01_workspace_RZA2M_ANPR/ANPR_RZA2M_GR_MANGO/src/tensorflow_lite/tensorflow/lite/kernels/internal\types.h ****     if (size_ > kMaxSmallSize) {
 204:C:/Renesas/e2studio_2021_01_workspace_RZA2M_ANPR/ANPR_RZA2M_GR_MANGO/src/tensorflow_lite/tensorflow/lite/kernels/internal\types.h **** #ifdef TF_LITE_STATIC_MEMORY
 205:C:/Renesas/e2studio_2021_01_workspace_RZA2M_ANPR/ANPR_RZA2M_GR_MANGO/src/tensorflow_lite/tensorflow/lite/kernels/internal\types.h ****       TFLITE_CHECK(false && "No shape resizing supported on this platform");
 206:C:/Renesas/e2studio_2021_01_workspace_RZA2M_ANPR/ANPR_RZA2M_GR_MANGO/src/tensorflow_lite/tensorflow/lite/kernels/internal\types.h **** #else  // TF_LITE_STATIC_MEMORY
 207:C:/Renesas/e2studio_2021_01_workspace_RZA2M_ANPR/ANPR_RZA2M_GR_MANGO/src/tensorflow_lite/tensorflow/lite/kernels/internal\types.h ****       delete[] dims_pointer_;
 208:C:/Renesas/e2studio_2021_01_workspace_RZA2M_ANPR/ANPR_RZA2M_GR_MANGO/src/tensorflow_lite/tensorflow/lite/kernels/internal\types.h **** #endif  // TF_LITE_STATIC_MEMORY
 209:C:/Renesas/e2studio_2021_01_workspace_RZA2M_ANPR/ANPR_RZA2M_GR_MANGO/src/tensorflow_lite/tensorflow/lite/kernels/internal\types.h ****     }
 210:C:/Renesas/e2studio_2021_01_workspace_RZA2M_ANPR/ANPR_RZA2M_GR_MANGO/src/tensorflow_lite/tensorflow/lite/kernels/internal\types.h ****   }
 211:C:/Renesas/e2studio_2021_01_workspace_RZA2M_ANPR/ANPR_RZA2M_GR_MANGO/src/tensorflow_lite/tensorflow/lite/kernels/internal\types.h **** 
 212:C:/Renesas/e2studio_2021_01_workspace_RZA2M_ANPR/ANPR_RZA2M_GR_MANGO/src/tensorflow_lite/tensorflow/lite/kernels/internal\types.h ****   inline int32_t DimensionsCount() const { return size_; }
 213:C:/Renesas/e2studio_2021_01_workspace_RZA2M_ANPR/ANPR_RZA2M_GR_MANGO/src/tensorflow_lite/tensorflow/lite/kernels/internal\types.h ****   inline int32_t Dims(int i) const {
 214:C:/Renesas/e2studio_2021_01_workspace_RZA2M_ANPR/ANPR_RZA2M_GR_MANGO/src/tensorflow_lite/tensorflow/lite/kernels/internal\types.h ****     TFLITE_DCHECK_GE(i, 0);
 215:C:/Renesas/e2studio_2021_01_workspace_RZA2M_ANPR/ANPR_RZA2M_GR_MANGO/src/tensorflow_lite/tensorflow/lite/kernels/internal\types.h ****     TFLITE_DCHECK_LT(i, size_);
 216:C:/Renesas/e2studio_2021_01_workspace_RZA2M_ANPR/ANPR_RZA2M_GR_MANGO/src/tensorflow_lite/tensorflow/lite/kernels/internal\types.h ****     return size_ > kMaxSmallSize ? dims_pointer_[i] : dims_[i];
 217:C:/Renesas/e2studio_2021_01_workspace_RZA2M_ANPR/ANPR_RZA2M_GR_MANGO/src/tensorflow_lite/tensorflow/lite/kernels/internal\types.h ****   }
 218:C:/Renesas/e2studio_2021_01_workspace_RZA2M_ANPR/ANPR_RZA2M_GR_MANGO/src/tensorflow_lite/tensorflow/lite/kernels/internal\types.h ****   inline void SetDim(int i, int32_t val) {
 219:C:/Renesas/e2studio_2021_01_workspace_RZA2M_ANPR/ANPR_RZA2M_GR_MANGO/src/tensorflow_lite/tensorflow/lite/kernels/internal\types.h ****     TFLITE_DCHECK_GE(i, 0);
 220:C:/Renesas/e2studio_2021_01_workspace_RZA2M_ANPR/ANPR_RZA2M_GR_MANGO/src/tensorflow_lite/tensorflow/lite/kernels/internal\types.h ****     TFLITE_DCHECK_LT(i, size_);
 221:C:/Renesas/e2studio_2021_01_workspace_RZA2M_ANPR/ANPR_RZA2M_GR_MANGO/src/tensorflow_lite/tensorflow/lite/kernels/internal\types.h ****     if (size_ > kMaxSmallSize) {
 222:C:/Renesas/e2studio_2021_01_workspace_RZA2M_ANPR/ANPR_RZA2M_GR_MANGO/src/tensorflow_lite/tensorflow/lite/kernels/internal\types.h ****       dims_pointer_[i] = val;
 223:C:/Renesas/e2studio_2021_01_workspace_RZA2M_ANPR/ANPR_RZA2M_GR_MANGO/src/tensorflow_lite/tensorflow/lite/kernels/internal\types.h ****     } else {
 224:C:/Renesas/e2studio_2021_01_workspace_RZA2M_ANPR/ANPR_RZA2M_GR_MANGO/src/tensorflow_lite/tensorflow/lite/kernels/internal\types.h ****       dims_[i] = val;
 225:C:/Renesas/e2studio_2021_01_workspace_RZA2M_ANPR/ANPR_RZA2M_GR_MANGO/src/tensorflow_lite/tensorflow/lite/kernels/internal\types.h ****     }
 226:C:/Renesas/e2studio_2021_01_workspace_RZA2M_ANPR/ANPR_RZA2M_GR_MANGO/src/tensorflow_lite/tensorflow/lite/kernels/internal\types.h ****   }
 227:C:/Renesas/e2studio_2021_01_workspace_RZA2M_ANPR/ANPR_RZA2M_GR_MANGO/src/tensorflow_lite/tensorflow/lite/kernels/internal\types.h **** 
 228:C:/Renesas/e2studio_2021_01_workspace_RZA2M_ANPR/ANPR_RZA2M_GR_MANGO/src/tensorflow_lite/tensorflow/lite/kernels/internal\types.h ****   inline int32_t* DimsData() {
 229:C:/Renesas/e2studio_2021_01_workspace_RZA2M_ANPR/ANPR_RZA2M_GR_MANGO/src/tensorflow_lite/tensorflow/lite/kernels/internal\types.h ****     return size_ > kMaxSmallSize ? dims_pointer_ : dims_;
 230:C:/Renesas/e2studio_2021_01_workspace_RZA2M_ANPR/ANPR_RZA2M_GR_MANGO/src/tensorflow_lite/tensorflow/lite/kernels/internal\types.h ****   }
 231:C:/Renesas/e2studio_2021_01_workspace_RZA2M_ANPR/ANPR_RZA2M_GR_MANGO/src/tensorflow_lite/tensorflow/lite/kernels/internal\types.h ****   inline const int32_t* DimsData() const {
 232:C:/Renesas/e2studio_2021_01_workspace_RZA2M_ANPR/ANPR_RZA2M_GR_MANGO/src/tensorflow_lite/tensorflow/lite/kernels/internal\types.h ****     return size_ > kMaxSmallSize ? dims_pointer_ : dims_;
 233:C:/Renesas/e2studio_2021_01_workspace_RZA2M_ANPR/ANPR_RZA2M_GR_MANGO/src/tensorflow_lite/tensorflow/lite/kernels/internal\types.h ****   }
 234:C:/Renesas/e2studio_2021_01_workspace_RZA2M_ANPR/ANPR_RZA2M_GR_MANGO/src/tensorflow_lite/tensorflow/lite/kernels/internal\types.h ****   // The caller must ensure that the shape is no bigger than 5-D.
 235:C:/Renesas/e2studio_2021_01_workspace_RZA2M_ANPR/ANPR_RZA2M_GR_MANGO/src/tensorflow_lite/tensorflow/lite/kernels/internal\types.h ****   inline const int32_t* DimsDataUpTo5D() const { return dims_; }
 236:C:/Renesas/e2studio_2021_01_workspace_RZA2M_ANPR/ANPR_RZA2M_GR_MANGO/src/tensorflow_lite/tensorflow/lite/kernels/internal\types.h **** 
 237:C:/Renesas/e2studio_2021_01_workspace_RZA2M_ANPR/ANPR_RZA2M_GR_MANGO/src/tensorflow_lite/tensorflow/lite/kernels/internal\types.h ****   inline void Resize(int dimensions_count) {
 238:C:/Renesas/e2studio_2021_01_workspace_RZA2M_ANPR/ANPR_RZA2M_GR_MANGO/src/tensorflow_lite/tensorflow/lite/kernels/internal\types.h ****     if (size_ > kMaxSmallSize) {
 239:C:/Renesas/e2studio_2021_01_workspace_RZA2M_ANPR/ANPR_RZA2M_GR_MANGO/src/tensorflow_lite/tensorflow/lite/kernels/internal\types.h **** #ifdef TF_LITE_STATIC_MEMORY
 240:C:/Renesas/e2studio_2021_01_workspace_RZA2M_ANPR/ANPR_RZA2M_GR_MANGO/src/tensorflow_lite/tensorflow/lite/kernels/internal\types.h ****       TFLITE_CHECK(false && "No shape resizing supported on this platform");
 241:C:/Renesas/e2studio_2021_01_workspace_RZA2M_ANPR/ANPR_RZA2M_GR_MANGO/src/tensorflow_lite/tensorflow/lite/kernels/internal\types.h **** #else  // TF_LITE_STATIC_MEMORY
 242:C:/Renesas/e2studio_2021_01_workspace_RZA2M_ANPR/ANPR_RZA2M_GR_MANGO/src/tensorflow_lite/tensorflow/lite/kernels/internal\types.h ****       delete[] dims_pointer_;
 243:C:/Renesas/e2studio_2021_01_workspace_RZA2M_ANPR/ANPR_RZA2M_GR_MANGO/src/tensorflow_lite/tensorflow/lite/kernels/internal\types.h **** #endif  // TF_LITE_STATIC_MEMORY
 244:C:/Renesas/e2studio_2021_01_workspace_RZA2M_ANPR/ANPR_RZA2M_GR_MANGO/src/tensorflow_lite/tensorflow/lite/kernels/internal\types.h ****     }
 245:C:/Renesas/e2studio_2021_01_workspace_RZA2M_ANPR/ANPR_RZA2M_GR_MANGO/src/tensorflow_lite/tensorflow/lite/kernels/internal\types.h ****     size_ = dimensions_count;
 246:C:/Renesas/e2studio_2021_01_workspace_RZA2M_ANPR/ANPR_RZA2M_GR_MANGO/src/tensorflow_lite/tensorflow/lite/kernels/internal\types.h ****     if (dimensions_count > kMaxSmallSize) {
 247:C:/Renesas/e2studio_2021_01_workspace_RZA2M_ANPR/ANPR_RZA2M_GR_MANGO/src/tensorflow_lite/tensorflow/lite/kernels/internal\types.h **** #ifdef TF_LITE_STATIC_MEMORY
 248:C:/Renesas/e2studio_2021_01_workspace_RZA2M_ANPR/ANPR_RZA2M_GR_MANGO/src/tensorflow_lite/tensorflow/lite/kernels/internal\types.h ****       TFLITE_CHECK(false && "No shape resizing supported on this platform");
 249:C:/Renesas/e2studio_2021_01_workspace_RZA2M_ANPR/ANPR_RZA2M_GR_MANGO/src/tensorflow_lite/tensorflow/lite/kernels/internal\types.h **** #else  // TF_LITE_STATIC_MEMORY
 250:C:/Renesas/e2studio_2021_01_workspace_RZA2M_ANPR/ANPR_RZA2M_GR_MANGO/src/tensorflow_lite/tensorflow/lite/kernels/internal\types.h ****       dims_pointer_ = new int32_t[dimensions_count];
 251:C:/Renesas/e2studio_2021_01_workspace_RZA2M_ANPR/ANPR_RZA2M_GR_MANGO/src/tensorflow_lite/tensorflow/lite/kernels/internal\types.h **** #endif  // TF_LITE_STATIC_MEMORY
 252:C:/Renesas/e2studio_2021_01_workspace_RZA2M_ANPR/ANPR_RZA2M_GR_MANGO/src/tensorflow_lite/tensorflow/lite/kernels/internal\types.h ****     }
 253:C:/Renesas/e2studio_2021_01_workspace_RZA2M_ANPR/ANPR_RZA2M_GR_MANGO/src/tensorflow_lite/tensorflow/lite/kernels/internal\types.h ****   }
 254:C:/Renesas/e2studio_2021_01_workspace_RZA2M_ANPR/ANPR_RZA2M_GR_MANGO/src/tensorflow_lite/tensorflow/lite/kernels/internal\types.h **** 
 255:C:/Renesas/e2studio_2021_01_workspace_RZA2M_ANPR/ANPR_RZA2M_GR_MANGO/src/tensorflow_lite/tensorflow/lite/kernels/internal\types.h ****   inline void ReplaceWith(int dimensions_count, const int32_t* dims_data) {
 256:C:/Renesas/e2studio_2021_01_workspace_RZA2M_ANPR/ANPR_RZA2M_GR_MANGO/src/tensorflow_lite/tensorflow/lite/kernels/internal\types.h ****     Resize(dimensions_count);
 257:C:/Renesas/e2studio_2021_01_workspace_RZA2M_ANPR/ANPR_RZA2M_GR_MANGO/src/tensorflow_lite/tensorflow/lite/kernels/internal\types.h ****     int32_t* dst_dims = DimsData();
 258:C:/Renesas/e2studio_2021_01_workspace_RZA2M_ANPR/ANPR_RZA2M_GR_MANGO/src/tensorflow_lite/tensorflow/lite/kernels/internal\types.h ****     std::memcpy(dst_dims, dims_data, dimensions_count * sizeof(int32_t));
 259:C:/Renesas/e2studio_2021_01_workspace_RZA2M_ANPR/ANPR_RZA2M_GR_MANGO/src/tensorflow_lite/tensorflow/lite/kernels/internal\types.h ****   }
 260:C:/Renesas/e2studio_2021_01_workspace_RZA2M_ANPR/ANPR_RZA2M_GR_MANGO/src/tensorflow_lite/tensorflow/lite/kernels/internal\types.h **** 
 261:C:/Renesas/e2studio_2021_01_workspace_RZA2M_ANPR/ANPR_RZA2M_GR_MANGO/src/tensorflow_lite/tensorflow/lite/kernels/internal\types.h ****   template <typename T>
 262:C:/Renesas/e2studio_2021_01_workspace_RZA2M_ANPR/ANPR_RZA2M_GR_MANGO/src/tensorflow_lite/tensorflow/lite/kernels/internal\types.h ****   inline void BuildFrom(const T& src_iterable) {
 263:C:/Renesas/e2studio_2021_01_workspace_RZA2M_ANPR/ANPR_RZA2M_GR_MANGO/src/tensorflow_lite/tensorflow/lite/kernels/internal\types.h ****     const int dimensions_count =
 264:C:/Renesas/e2studio_2021_01_workspace_RZA2M_ANPR/ANPR_RZA2M_GR_MANGO/src/tensorflow_lite/tensorflow/lite/kernels/internal\types.h ****         std::distance(src_iterable.begin(), src_iterable.end());
 265:C:/Renesas/e2studio_2021_01_workspace_RZA2M_ANPR/ANPR_RZA2M_GR_MANGO/src/tensorflow_lite/tensorflow/lite/kernels/internal\types.h ****     Resize(dimensions_count);
 266:C:/Renesas/e2studio_2021_01_workspace_RZA2M_ANPR/ANPR_RZA2M_GR_MANGO/src/tensorflow_lite/tensorflow/lite/kernels/internal\types.h ****     int32_t* data = DimsData();
 267:C:/Renesas/e2studio_2021_01_workspace_RZA2M_ANPR/ANPR_RZA2M_GR_MANGO/src/tensorflow_lite/tensorflow/lite/kernels/internal\types.h ****     for (auto it : src_iterable) {
 268:C:/Renesas/e2studio_2021_01_workspace_RZA2M_ANPR/ANPR_RZA2M_GR_MANGO/src/tensorflow_lite/tensorflow/lite/kernels/internal\types.h ****       *data = it;
 269:C:/Renesas/e2studio_2021_01_workspace_RZA2M_ANPR/ANPR_RZA2M_GR_MANGO/src/tensorflow_lite/tensorflow/lite/kernels/internal\types.h ****       ++data;
 270:C:/Renesas/e2studio_2021_01_workspace_RZA2M_ANPR/ANPR_RZA2M_GR_MANGO/src/tensorflow_lite/tensorflow/lite/kernels/internal\types.h ****     }
 271:C:/Renesas/e2studio_2021_01_workspace_RZA2M_ANPR/ANPR_RZA2M_GR_MANGO/src/tensorflow_lite/tensorflow/lite/kernels/internal\types.h ****   }
 272:C:/Renesas/e2studio_2021_01_workspace_RZA2M_ANPR/ANPR_RZA2M_GR_MANGO/src/tensorflow_lite/tensorflow/lite/kernels/internal\types.h **** 
 273:C:/Renesas/e2studio_2021_01_workspace_RZA2M_ANPR/ANPR_RZA2M_GR_MANGO/src/tensorflow_lite/tensorflow/lite/kernels/internal\types.h ****   // This will probably be factored out. Old code made substantial use of 4-D
 274:C:/Renesas/e2studio_2021_01_workspace_RZA2M_ANPR/ANPR_RZA2M_GR_MANGO/src/tensorflow_lite/tensorflow/lite/kernels/internal\types.h ****   // shapes, and so this function is used to extend smaller shapes. Note that
 275:C:/Renesas/e2studio_2021_01_workspace_RZA2M_ANPR/ANPR_RZA2M_GR_MANGO/src/tensorflow_lite/tensorflow/lite/kernels/internal\types.h ****   // (a) as Dims<4>-dependent code is eliminated, the reliance on this should be
 276:C:/Renesas/e2studio_2021_01_workspace_RZA2M_ANPR/ANPR_RZA2M_GR_MANGO/src/tensorflow_lite/tensorflow/lite/kernels/internal\types.h ****   // reduced, and (b) some kernels are stricly 4-D, but then the shapes of their
 277:C:/Renesas/e2studio_2021_01_workspace_RZA2M_ANPR/ANPR_RZA2M_GR_MANGO/src/tensorflow_lite/tensorflow/lite/kernels/internal\types.h ****   // inputs should already be 4-D, so this function should not be needed.
 278:C:/Renesas/e2studio_2021_01_workspace_RZA2M_ANPR/ANPR_RZA2M_GR_MANGO/src/tensorflow_lite/tensorflow/lite/kernels/internal\types.h ****   inline static RuntimeShape ExtendedShape(int new_shape_size,
 279:C:/Renesas/e2studio_2021_01_workspace_RZA2M_ANPR/ANPR_RZA2M_GR_MANGO/src/tensorflow_lite/tensorflow/lite/kernels/internal\types.h ****                                            const RuntimeShape& shape) {
 280:C:/Renesas/e2studio_2021_01_workspace_RZA2M_ANPR/ANPR_RZA2M_GR_MANGO/src/tensorflow_lite/tensorflow/lite/kernels/internal\types.h ****     return RuntimeShape(new_shape_size, shape, 1);
 281:C:/Renesas/e2studio_2021_01_workspace_RZA2M_ANPR/ANPR_RZA2M_GR_MANGO/src/tensorflow_lite/tensorflow/lite/kernels/internal\types.h ****   }
 282:C:/Renesas/e2studio_2021_01_workspace_RZA2M_ANPR/ANPR_RZA2M_GR_MANGO/src/tensorflow_lite/tensorflow/lite/kernels/internal\types.h **** 
 283:C:/Renesas/e2studio_2021_01_workspace_RZA2M_ANPR/ANPR_RZA2M_GR_MANGO/src/tensorflow_lite/tensorflow/lite/kernels/internal\types.h ****   inline void BuildFrom(const std::initializer_list<int> init_list) {
 284:C:/Renesas/e2studio_2021_01_workspace_RZA2M_ANPR/ANPR_RZA2M_GR_MANGO/src/tensorflow_lite/tensorflow/lite/kernels/internal\types.h ****     BuildFrom<const std::initializer_list<int>>(init_list);
 285:C:/Renesas/e2studio_2021_01_workspace_RZA2M_ANPR/ANPR_RZA2M_GR_MANGO/src/tensorflow_lite/tensorflow/lite/kernels/internal\types.h ****   }
 286:C:/Renesas/e2studio_2021_01_workspace_RZA2M_ANPR/ANPR_RZA2M_GR_MANGO/src/tensorflow_lite/tensorflow/lite/kernels/internal\types.h **** 
 287:C:/Renesas/e2studio_2021_01_workspace_RZA2M_ANPR/ANPR_RZA2M_GR_MANGO/src/tensorflow_lite/tensorflow/lite/kernels/internal\types.h ****   // Returns the total count of elements, that is the size when flattened into a
 288:C:/Renesas/e2studio_2021_01_workspace_RZA2M_ANPR/ANPR_RZA2M_GR_MANGO/src/tensorflow_lite/tensorflow/lite/kernels/internal\types.h ****   // vector.
 289:C:/Renesas/e2studio_2021_01_workspace_RZA2M_ANPR/ANPR_RZA2M_GR_MANGO/src/tensorflow_lite/tensorflow/lite/kernels/internal\types.h ****   inline int FlatSize() const {
 290:C:/Renesas/e2studio_2021_01_workspace_RZA2M_ANPR/ANPR_RZA2M_GR_MANGO/src/tensorflow_lite/tensorflow/lite/kernels/internal\types.h ****     int buffer_size = 1;
 291:C:/Renesas/e2studio_2021_01_workspace_RZA2M_ANPR/ANPR_RZA2M_GR_MANGO/src/tensorflow_lite/tensorflow/lite/kernels/internal\types.h ****     const int* dims_data = reinterpret_cast<const int*>(DimsData());
 292:C:/Renesas/e2studio_2021_01_workspace_RZA2M_ANPR/ANPR_RZA2M_GR_MANGO/src/tensorflow_lite/tensorflow/lite/kernels/internal\types.h ****     for (int i = 0; i < size_; i++) {
 293:C:/Renesas/e2studio_2021_01_workspace_RZA2M_ANPR/ANPR_RZA2M_GR_MANGO/src/tensorflow_lite/tensorflow/lite/kernels/internal\types.h ****       buffer_size *= dims_data[i];
 294:C:/Renesas/e2studio_2021_01_workspace_RZA2M_ANPR/ANPR_RZA2M_GR_MANGO/src/tensorflow_lite/tensorflow/lite/kernels/internal\types.h ****     }
 295:C:/Renesas/e2studio_2021_01_workspace_RZA2M_ANPR/ANPR_RZA2M_GR_MANGO/src/tensorflow_lite/tensorflow/lite/kernels/internal\types.h ****     return buffer_size;
 296:C:/Renesas/e2studio_2021_01_workspace_RZA2M_ANPR/ANPR_RZA2M_GR_MANGO/src/tensorflow_lite/tensorflow/lite/kernels/internal\types.h ****   }
 297:C:/Renesas/e2studio_2021_01_workspace_RZA2M_ANPR/ANPR_RZA2M_GR_MANGO/src/tensorflow_lite/tensorflow/lite/kernels/internal\types.h **** 
 298:C:/Renesas/e2studio_2021_01_workspace_RZA2M_ANPR/ANPR_RZA2M_GR_MANGO/src/tensorflow_lite/tensorflow/lite/kernels/internal\types.h ****   bool operator!=(const RuntimeShape& comp) const { return !((*this) == comp); }
 299:C:/Renesas/e2studio_2021_01_workspace_RZA2M_ANPR/ANPR_RZA2M_GR_MANGO/src/tensorflow_lite/tensorflow/lite/kernels/internal\types.h **** 
 300:C:/Renesas/e2studio_2021_01_workspace_RZA2M_ANPR/ANPR_RZA2M_GR_MANGO/src/tensorflow_lite/tensorflow/lite/kernels/internal\types.h ****  private:
 301:C:/Renesas/e2studio_2021_01_workspace_RZA2M_ANPR/ANPR_RZA2M_GR_MANGO/src/tensorflow_lite/tensorflow/lite/kernels/internal\types.h ****   // For use only by ExtendedShape(), written to guarantee (return-value) copy
 302:C:/Renesas/e2studio_2021_01_workspace_RZA2M_ANPR/ANPR_RZA2M_GR_MANGO/src/tensorflow_lite/tensorflow/lite/kernels/internal\types.h ****   // elision in C++17.
 303:C:/Renesas/e2studio_2021_01_workspace_RZA2M_ANPR/ANPR_RZA2M_GR_MANGO/src/tensorflow_lite/tensorflow/lite/kernels/internal\types.h ****   // This creates a shape padded to the desired size with the specified value.
 304:C:/Renesas/e2studio_2021_01_workspace_RZA2M_ANPR/ANPR_RZA2M_GR_MANGO/src/tensorflow_lite/tensorflow/lite/kernels/internal\types.h ****   RuntimeShape(int new_shape_size, const RuntimeShape& shape, int pad_value)
 305:C:/Renesas/e2studio_2021_01_workspace_RZA2M_ANPR/ANPR_RZA2M_GR_MANGO/src/tensorflow_lite/tensorflow/lite/kernels/internal\types.h ****       : size_(0) {
 306:C:/Renesas/e2studio_2021_01_workspace_RZA2M_ANPR/ANPR_RZA2M_GR_MANGO/src/tensorflow_lite/tensorflow/lite/kernels/internal\types.h ****     // If the following check fails, it is likely because a 4D-only kernel is
 307:C:/Renesas/e2studio_2021_01_workspace_RZA2M_ANPR/ANPR_RZA2M_GR_MANGO/src/tensorflow_lite/tensorflow/lite/kernels/internal\types.h ****     // being used with an array of larger dimension count.
 308:C:/Renesas/e2studio_2021_01_workspace_RZA2M_ANPR/ANPR_RZA2M_GR_MANGO/src/tensorflow_lite/tensorflow/lite/kernels/internal\types.h ****     TFLITE_CHECK_GE(new_shape_size, shape.DimensionsCount());
 309:C:/Renesas/e2studio_2021_01_workspace_RZA2M_ANPR/ANPR_RZA2M_GR_MANGO/src/tensorflow_lite/tensorflow/lite/kernels/internal\types.h ****     Resize(new_shape_size);
 310:C:/Renesas/e2studio_2021_01_workspace_RZA2M_ANPR/ANPR_RZA2M_GR_MANGO/src/tensorflow_lite/tensorflow/lite/kernels/internal\types.h ****     const int size_increase = new_shape_size - shape.DimensionsCount();
 311:C:/Renesas/e2studio_2021_01_workspace_RZA2M_ANPR/ANPR_RZA2M_GR_MANGO/src/tensorflow_lite/tensorflow/lite/kernels/internal\types.h ****     for (int i = 0; i < size_increase; ++i) {
 312:C:/Renesas/e2studio_2021_01_workspace_RZA2M_ANPR/ANPR_RZA2M_GR_MANGO/src/tensorflow_lite/tensorflow/lite/kernels/internal\types.h ****       SetDim(i, pad_value);
 313:C:/Renesas/e2studio_2021_01_workspace_RZA2M_ANPR/ANPR_RZA2M_GR_MANGO/src/tensorflow_lite/tensorflow/lite/kernels/internal\types.h ****     }
 314:C:/Renesas/e2studio_2021_01_workspace_RZA2M_ANPR/ANPR_RZA2M_GR_MANGO/src/tensorflow_lite/tensorflow/lite/kernels/internal\types.h ****     std::memcpy(DimsData() + size_increase, shape.DimsData(),
 315:C:/Renesas/e2studio_2021_01_workspace_RZA2M_ANPR/ANPR_RZA2M_GR_MANGO/src/tensorflow_lite/tensorflow/lite/kernels/internal\types.h ****                 sizeof(int32_t) * shape.DimensionsCount());
 316:C:/Renesas/e2studio_2021_01_workspace_RZA2M_ANPR/ANPR_RZA2M_GR_MANGO/src/tensorflow_lite/tensorflow/lite/kernels/internal\types.h ****   }
 317:C:/Renesas/e2studio_2021_01_workspace_RZA2M_ANPR/ANPR_RZA2M_GR_MANGO/src/tensorflow_lite/tensorflow/lite/kernels/internal\types.h **** 
 318:C:/Renesas/e2studio_2021_01_workspace_RZA2M_ANPR/ANPR_RZA2M_GR_MANGO/src/tensorflow_lite/tensorflow/lite/kernels/internal\types.h ****   int32_t size_;
 319:C:/Renesas/e2studio_2021_01_workspace_RZA2M_ANPR/ANPR_RZA2M_GR_MANGO/src/tensorflow_lite/tensorflow/lite/kernels/internal\types.h ****   union {
 320:C:/Renesas/e2studio_2021_01_workspace_RZA2M_ANPR/ANPR_RZA2M_GR_MANGO/src/tensorflow_lite/tensorflow/lite/kernels/internal\types.h ****     int32_t dims_[kMaxSmallSize];
 321:C:/Renesas/e2studio_2021_01_workspace_RZA2M_ANPR/ANPR_RZA2M_GR_MANGO/src/tensorflow_lite/tensorflow/lite/kernels/internal\types.h ****     int32_t* dims_pointer_;
 322:C:/Renesas/e2studio_2021_01_workspace_RZA2M_ANPR/ANPR_RZA2M_GR_MANGO/src/tensorflow_lite/tensorflow/lite/kernels/internal\types.h ****   };
 323:C:/Renesas/e2studio_2021_01_workspace_RZA2M_ANPR/ANPR_RZA2M_GR_MANGO/src/tensorflow_lite/tensorflow/lite/kernels/internal\types.h **** };
 324:C:/Renesas/e2studio_2021_01_workspace_RZA2M_ANPR/ANPR_RZA2M_GR_MANGO/src/tensorflow_lite/tensorflow/lite/kernels/internal\types.h **** 
 325:C:/Renesas/e2studio_2021_01_workspace_RZA2M_ANPR/ANPR_RZA2M_GR_MANGO/src/tensorflow_lite/tensorflow/lite/kernels/internal\types.h **** // Converts inference-style shape to legacy tflite::Dims<4>.
 326:C:/Renesas/e2studio_2021_01_workspace_RZA2M_ANPR/ANPR_RZA2M_GR_MANGO/src/tensorflow_lite/tensorflow/lite/kernels/internal\types.h **** inline tflite::Dims<4> ToRuntimeDims(const tflite::RuntimeShape& array_shape) {
 327:C:/Renesas/e2studio_2021_01_workspace_RZA2M_ANPR/ANPR_RZA2M_GR_MANGO/src/tensorflow_lite/tensorflow/lite/kernels/internal\types.h ****   tflite::Dims<4> result;
 328:C:/Renesas/e2studio_2021_01_workspace_RZA2M_ANPR/ANPR_RZA2M_GR_MANGO/src/tensorflow_lite/tensorflow/lite/kernels/internal\types.h ****   const int dimensions_count = array_shape.DimensionsCount();
 329:C:/Renesas/e2studio_2021_01_workspace_RZA2M_ANPR/ANPR_RZA2M_GR_MANGO/src/tensorflow_lite/tensorflow/lite/kernels/internal\types.h ****   TFLITE_CHECK_LE(dimensions_count, 4);
 330:C:/Renesas/e2studio_2021_01_workspace_RZA2M_ANPR/ANPR_RZA2M_GR_MANGO/src/tensorflow_lite/tensorflow/lite/kernels/internal\types.h ****   int cum_prod = 1;
 331:C:/Renesas/e2studio_2021_01_workspace_RZA2M_ANPR/ANPR_RZA2M_GR_MANGO/src/tensorflow_lite/tensorflow/lite/kernels/internal\types.h ****   for (int i = 0; i < 4; i++) {
 332:C:/Renesas/e2studio_2021_01_workspace_RZA2M_ANPR/ANPR_RZA2M_GR_MANGO/src/tensorflow_lite/tensorflow/lite/kernels/internal\types.h ****     const int new_dim =
 333:C:/Renesas/e2studio_2021_01_workspace_RZA2M_ANPR/ANPR_RZA2M_GR_MANGO/src/tensorflow_lite/tensorflow/lite/kernels/internal\types.h ****         (i < dimensions_count) ? array_shape.Dims(dimensions_count - 1 - i) : 1;
 334:C:/Renesas/e2studio_2021_01_workspace_RZA2M_ANPR/ANPR_RZA2M_GR_MANGO/src/tensorflow_lite/tensorflow/lite/kernels/internal\types.h ****     result.sizes[i] = new_dim;
 335:C:/Renesas/e2studio_2021_01_workspace_RZA2M_ANPR/ANPR_RZA2M_GR_MANGO/src/tensorflow_lite/tensorflow/lite/kernels/internal\types.h ****     result.strides[i] = cum_prod;
 336:C:/Renesas/e2studio_2021_01_workspace_RZA2M_ANPR/ANPR_RZA2M_GR_MANGO/src/tensorflow_lite/tensorflow/lite/kernels/internal\types.h ****     cum_prod *= new_dim;
 337:C:/Renesas/e2studio_2021_01_workspace_RZA2M_ANPR/ANPR_RZA2M_GR_MANGO/src/tensorflow_lite/tensorflow/lite/kernels/internal\types.h ****   }
 338:C:/Renesas/e2studio_2021_01_workspace_RZA2M_ANPR/ANPR_RZA2M_GR_MANGO/src/tensorflow_lite/tensorflow/lite/kernels/internal\types.h ****   return result;
 339:C:/Renesas/e2studio_2021_01_workspace_RZA2M_ANPR/ANPR_RZA2M_GR_MANGO/src/tensorflow_lite/tensorflow/lite/kernels/internal\types.h **** }
 340:C:/Renesas/e2studio_2021_01_workspace_RZA2M_ANPR/ANPR_RZA2M_GR_MANGO/src/tensorflow_lite/tensorflow/lite/kernels/internal\types.h **** 
 341:C:/Renesas/e2studio_2021_01_workspace_RZA2M_ANPR/ANPR_RZA2M_GR_MANGO/src/tensorflow_lite/tensorflow/lite/kernels/internal\types.h **** // TODO(b/80418076): Move to legacy ops file, update invocations.
 342:C:/Renesas/e2studio_2021_01_workspace_RZA2M_ANPR/ANPR_RZA2M_GR_MANGO/src/tensorflow_lite/tensorflow/lite/kernels/internal\types.h **** inline RuntimeShape DimsToShape(const tflite::Dims<4>& dims) {
 343:C:/Renesas/e2studio_2021_01_workspace_RZA2M_ANPR/ANPR_RZA2M_GR_MANGO/src/tensorflow_lite/tensorflow/lite/kernels/internal\types.h ****   return RuntimeShape(
 344:C:/Renesas/e2studio_2021_01_workspace_RZA2M_ANPR/ANPR_RZA2M_GR_MANGO/src/tensorflow_lite/tensorflow/lite/kernels/internal\types.h ****       {dims.sizes[3], dims.sizes[2], dims.sizes[1], dims.sizes[0]});
 345:C:/Renesas/e2studio_2021_01_workspace_RZA2M_ANPR/ANPR_RZA2M_GR_MANGO/src/tensorflow_lite/tensorflow/lite/kernels/internal\types.h **** }
 346:C:/Renesas/e2studio_2021_01_workspace_RZA2M_ANPR/ANPR_RZA2M_GR_MANGO/src/tensorflow_lite/tensorflow/lite/kernels/internal\types.h **** 
 347:C:/Renesas/e2studio_2021_01_workspace_RZA2M_ANPR/ANPR_RZA2M_GR_MANGO/src/tensorflow_lite/tensorflow/lite/kernels/internal\types.h **** // Gets next index to iterate through a multidimensional array.
 348:C:/Renesas/e2studio_2021_01_workspace_RZA2M_ANPR/ANPR_RZA2M_GR_MANGO/src/tensorflow_lite/tensorflow/lite/kernels/internal\types.h **** inline bool NextIndex(const int num_dims, const int* dims, int* current) {
 349:C:/Renesas/e2studio_2021_01_workspace_RZA2M_ANPR/ANPR_RZA2M_GR_MANGO/src/tensorflow_lite/tensorflow/lite/kernels/internal\types.h ****   if (num_dims == 0) {
 350:C:/Renesas/e2studio_2021_01_workspace_RZA2M_ANPR/ANPR_RZA2M_GR_MANGO/src/tensorflow_lite/tensorflow/lite/kernels/internal\types.h ****     return false;
 351:C:/Renesas/e2studio_2021_01_workspace_RZA2M_ANPR/ANPR_RZA2M_GR_MANGO/src/tensorflow_lite/tensorflow/lite/kernels/internal\types.h ****   }
 352:C:/Renesas/e2studio_2021_01_workspace_RZA2M_ANPR/ANPR_RZA2M_GR_MANGO/src/tensorflow_lite/tensorflow/lite/kernels/internal\types.h ****   TFLITE_DCHECK(dims != nullptr);
 353:C:/Renesas/e2studio_2021_01_workspace_RZA2M_ANPR/ANPR_RZA2M_GR_MANGO/src/tensorflow_lite/tensorflow/lite/kernels/internal\types.h ****   TFLITE_DCHECK(current != nullptr);
 354:C:/Renesas/e2studio_2021_01_workspace_RZA2M_ANPR/ANPR_RZA2M_GR_MANGO/src/tensorflow_lite/tensorflow/lite/kernels/internal\types.h ****   int carry = 1;
 355:C:/Renesas/e2studio_2021_01_workspace_RZA2M_ANPR/ANPR_RZA2M_GR_MANGO/src/tensorflow_lite/tensorflow/lite/kernels/internal\types.h ****   for (int idx = num_dims - 1; idx >= 0; --idx) {
 956              		.loc 5 355 0
 957 0228 013045E2 		sub	r3, r5, #1
 958 022c 2CC09DE5 		ldr	ip, [sp, #44]
 959              	.LBB824:
 356:C:/Renesas/e2studio_2021_01_workspace_RZA2M_ANPR/ANPR_RZA2M_GR_MANGO/src/tensorflow_lite/tensorflow/lite/kernels/internal\types.h ****     int current_val = current[idx] + carry;
 960              		.loc 5 356 0
 961 0230 0321A0E1 		lsl	r2, r3, #2
 962 0234 0B1145E2 		sub	r1, r5, #-1073741822
 963 0238 0111A0E1 		lsl	r1, r1, #2
 964              	.LBE824:
 355:C:/Renesas/e2studio_2021_01_workspace_RZA2M_ANPR/ANPR_RZA2M_GR_MANGO/src/tensorflow_lite/tensorflow/lite/kernels/internal\types.h ****     int current_val = current[idx] + carry;
 965              		.loc 5 355 0
 966 023c 18308DE5 		str	r3, [sp, #24]
 967              	.LBB825:
 968              		.loc 5 356 0
 969 0240 02A08BE0 		add	r10, fp, r2
 970 0244 093045E2 		sub	r3, r5, #9
 971 0248 040081E2 		add	r0, r1, #4
 972 024c 0730C3E3 		bic	r3, r3, #7
 973              	.LBE825:
 974              	.LBE823:
 975              	.LBE822:
 976              	.LBE821:
 977              	.LBE820:
 978              	.LBE819:
 979              	.LBB842:
 980              	.LBB843:
 981              	.LBB844:
 982              	.LBB845:
 983              	.LBB846:
 984              	.LBB847:
 357:C:/Renesas/e2studio_2021_01_workspace_RZA2M_ANPR/ANPR_RZA2M_GR_MANGO/src/tensorflow_lite/tensorflow/lite/kernels/internal\types.h ****     TFLITE_DCHECK_GE(dims[idx], current_val);
 358:C:/Renesas/e2studio_2021_01_workspace_RZA2M_ANPR/ANPR_RZA2M_GR_MANGO/src/tensorflow_lite/tensorflow/lite/kernels/internal\types.h ****     if (dims[idx] == current_val) {
 359:C:/Renesas/e2studio_2021_01_workspace_RZA2M_ANPR/ANPR_RZA2M_GR_MANGO/src/tensorflow_lite/tensorflow/lite/kernels/internal\types.h ****       current[idx] = 0;
 360:C:/Renesas/e2studio_2021_01_workspace_RZA2M_ANPR/ANPR_RZA2M_GR_MANGO/src/tensorflow_lite/tensorflow/lite/kernels/internal\types.h ****     } else {
 361:C:/Renesas/e2studio_2021_01_workspace_RZA2M_ANPR/ANPR_RZA2M_GR_MANGO/src/tensorflow_lite/tensorflow/lite/kernels/internal\types.h ****       current[idx] = current_val;
 362:C:/Renesas/e2studio_2021_01_workspace_RZA2M_ANPR/ANPR_RZA2M_GR_MANGO/src/tensorflow_lite/tensorflow/lite/kernels/internal\types.h ****       carry = 0;
 363:C:/Renesas/e2studio_2021_01_workspace_RZA2M_ANPR/ANPR_RZA2M_GR_MANGO/src/tensorflow_lite/tensorflow/lite/kernels/internal\types.h ****       break;
 364:C:/Renesas/e2studio_2021_01_workspace_RZA2M_ANPR/ANPR_RZA2M_GR_MANGO/src/tensorflow_lite/tensorflow/lite/kernels/internal\types.h ****     }
 365:C:/Renesas/e2studio_2021_01_workspace_RZA2M_ANPR/ANPR_RZA2M_GR_MANGO/src/tensorflow_lite/tensorflow/lite/kernels/internal\types.h ****   }
 366:C:/Renesas/e2studio_2021_01_workspace_RZA2M_ANPR/ANPR_RZA2M_GR_MANGO/src/tensorflow_lite/tensorflow/lite/kernels/internal\types.h ****   return (carry == 0);
 367:C:/Renesas/e2studio_2021_01_workspace_RZA2M_ANPR/ANPR_RZA2M_GR_MANGO/src/tensorflow_lite/tensorflow/lite/kernels/internal\types.h **** }
 368:C:/Renesas/e2studio_2021_01_workspace_RZA2M_ANPR/ANPR_RZA2M_GR_MANGO/src/tensorflow_lite/tensorflow/lite/kernels/internal\types.h **** 
 369:C:/Renesas/e2studio_2021_01_workspace_RZA2M_ANPR/ANPR_RZA2M_GR_MANGO/src/tensorflow_lite/tensorflow/lite/kernels/internal\types.h **** // Gets offset of index if reducing on axis. When reducing, the flattened offset
 370:C:/Renesas/e2studio_2021_01_workspace_RZA2M_ANPR/ANPR_RZA2M_GR_MANGO/src/tensorflow_lite/tensorflow/lite/kernels/internal\types.h **** // will not change, if the input index changes on the given axis. For example,
 371:C:/Renesas/e2studio_2021_01_workspace_RZA2M_ANPR/ANPR_RZA2M_GR_MANGO/src/tensorflow_lite/tensorflow/lite/kernels/internal\types.h **** // if you have a 3D tensor and you are reducing to 2D by eliminating axis 0,
 372:C:/Renesas/e2studio_2021_01_workspace_RZA2M_ANPR/ANPR_RZA2M_GR_MANGO/src/tensorflow_lite/tensorflow/lite/kernels/internal\types.h **** // then index (0, 1, 2) and index (1, 1, 2) will map to the same flattened
 373:C:/Renesas/e2studio_2021_01_workspace_RZA2M_ANPR/ANPR_RZA2M_GR_MANGO/src/tensorflow_lite/tensorflow/lite/kernels/internal\types.h **** // offset.
 374:C:/Renesas/e2studio_2021_01_workspace_RZA2M_ANPR/ANPR_RZA2M_GR_MANGO/src/tensorflow_lite/tensorflow/lite/kernels/internal\types.h **** // TODO(kanlig): uses Dims to represent dimensions.
 375:C:/Renesas/e2studio_2021_01_workspace_RZA2M_ANPR/ANPR_RZA2M_GR_MANGO/src/tensorflow_lite/tensorflow/lite/kernels/internal\types.h **** inline size_t ReducedOutputOffset(const int num_dims, const int* dims,
 376:C:/Renesas/e2studio_2021_01_workspace_RZA2M_ANPR/ANPR_RZA2M_GR_MANGO/src/tensorflow_lite/tensorflow/lite/kernels/internal\types.h ****                                   const int* index, const int num_axis,
 377:C:/Renesas/e2studio_2021_01_workspace_RZA2M_ANPR/ANPR_RZA2M_GR_MANGO/src/tensorflow_lite/tensorflow/lite/kernels/internal\types.h ****                                   const int* axis) {
 378:C:/Renesas/e2studio_2021_01_workspace_RZA2M_ANPR/ANPR_RZA2M_GR_MANGO/src/tensorflow_lite/tensorflow/lite/kernels/internal\types.h ****   if (num_dims == 0) {
 379:C:/Renesas/e2studio_2021_01_workspace_RZA2M_ANPR/ANPR_RZA2M_GR_MANGO/src/tensorflow_lite/tensorflow/lite/kernels/internal\types.h ****     return 0;
 380:C:/Renesas/e2studio_2021_01_workspace_RZA2M_ANPR/ANPR_RZA2M_GR_MANGO/src/tensorflow_lite/tensorflow/lite/kernels/internal\types.h ****   }
 381:C:/Renesas/e2studio_2021_01_workspace_RZA2M_ANPR/ANPR_RZA2M_GR_MANGO/src/tensorflow_lite/tensorflow/lite/kernels/internal\types.h ****   TFLITE_DCHECK(dims != nullptr);
 382:C:/Renesas/e2studio_2021_01_workspace_RZA2M_ANPR/ANPR_RZA2M_GR_MANGO/src/tensorflow_lite/tensorflow/lite/kernels/internal\types.h ****   TFLITE_DCHECK(index != nullptr);
 383:C:/Renesas/e2studio_2021_01_workspace_RZA2M_ANPR/ANPR_RZA2M_GR_MANGO/src/tensorflow_lite/tensorflow/lite/kernels/internal\types.h ****   size_t offset = 0;
 384:C:/Renesas/e2studio_2021_01_workspace_RZA2M_ANPR/ANPR_RZA2M_GR_MANGO/src/tensorflow_lite/tensorflow/lite/kernels/internal\types.h ****   for (int idx = 0; idx < num_dims; ++idx) {
 985              		.loc 5 384 0
 986 0250 2CA08DE5 		str	r10, [sp, #44]
 987              	.LVL121:
 988 0254 0080A0E3 		mov	r8, #0
 989 0258 0CA0A0E1 		mov	r10, ip
 990 025c 00008CE0 		add	r0, ip, r0
 991 0260 01108BE0 		add	r1, fp, r1
 992              	.LBE847:
 993              	.LBE846:
 994              	.LBE845:
 995              	.LBE844:
 996              	.LBE843:
 997              	.LBE842:
 998              	.LBB871:
 999              	.LBB839:
 1000              	.LBB836:
 1001              	.LBB833:
 1002              	.LBB830:
 1003              	.LBB826:
 357:C:/Renesas/e2studio_2021_01_workspace_RZA2M_ANPR/ANPR_RZA2M_GR_MANGO/src/tensorflow_lite/tensorflow/lite/kernels/internal\types.h ****     TFLITE_DCHECK_GE(dims[idx], current_val);
 1004              		.loc 5 357 0
 1005 0264 02208CE0 		add	r2, ip, r2
 1006 0268 083083E2 		add	r3, r3, #8
 1007 026c 3C008DE5 		str	r0, [sp, #60]
 1008 0270 38108DE5 		str	r1, [sp, #56]
 1009 0274 34208DE5 		str	r2, [sp, #52]
 1010 0278 44308DE5 		str	r3, [sp, #68]
 1011              	.LVL122:
 1012              	.L119:
 1013              	.LBE826:
 1014              	.LBE830:
 1015              	.LBE833:
 1016              	.LBE836:
 1017              	.LBE839:
 1018              	.LBE871:
 1019              	.LBB872:
 1020              	.LBB860:
 1021              	.LBB857:
 378:C:/Renesas/e2studio_2021_01_workspace_RZA2M_ANPR/ANPR_RZA2M_GR_MANGO/src/tensorflow_lite/tensorflow/lite/kernels/internal\types.h ****     return 0;
 1022              		.loc 5 378 0
 1023 027c 000055E3 		cmp	r5, #0
 1024 0280 6801001A 		bne	.L271
 1025              	.LVL123:
 1026              	.LBE857:
 1027              	.LBE860:
  50:C:/Renesas/e2studio_2021_01_workspace_RZA2M_ANPR/ANPR_RZA2M_GR_MANGO/src/tensorflow_lite/tensorflow/lite/kernels/internal/reference\reduce.h ****         reducer(output_data[output_offset], input_data[input_offset]);
 1028              		.loc 4 50 0
 1029 0284 24109DE5 		ldr	r1, [sp, #36]
 1030              	.LBE872:
 1031              	.LBE818:
 1032              	.LBE802:
 1033              	.LBE801:
 1034              	.LBE900:
 1035              	.LBE919:
 1036              	.LBE789:
 1037              	.LBE788:
 1038              	.LBE1086:
 313:../src/tensorflow_lite/tensorflow/lite/micro/kernels/reduce.cc **** }
 1039              		.loc 1 313 0
 1040 0288 0500A0E1 		mov	r0, r5
 1041              	.LBB1087:
 1042              	.LBB1082:
 1043              	.LBB926:
 1044              	.LBB920:
 1045              	.LBB901:
 1046              	.LBB893:
 1047              	.LBB887:
 1048              	.LBB880:
 1049              	.LBB873:
  50:C:/Renesas/e2studio_2021_01_workspace_RZA2M_ANPR/ANPR_RZA2M_GR_MANGO/src/tensorflow_lite/tensorflow/lite/kernels/internal/reference\reduce.h ****         reducer(output_data[output_offset], input_data[input_offset]);
 1050              		.loc 4 50 0
 1051 028c 28309DE5 		ldr	r3, [sp, #40]
 1052 0290 D020D1E1 		ldrsb	r2, [r1]
 1053 0294 D030D3E1 		ldrsb	r3, [r3]
 1054 0298 020053E1 		cmp	r3, r2
 1055 029c 0230A0B1 		movlt	r3, r2
 1056 02a0 0030C1E5 		strb	r3, [r1]
 1057              	.LVL124:
 1058 02a4 86FFFFEA 		b	.L224
 1059              	.LVL125:
 1060              	.L266:
 1061              	.LBE873:
 1062              	.LBE880:
 1063              	.LBE887:
 1064              	.LBE893:
 1065              	.LBE901:
 1066              	.LBE920:
 1067              	.LBE926:
 309:../src/tensorflow_lite/tensorflow/lite/micro/kernels/reduce.cc ****                          "Only float32 and int8 types are supported.\n");
 1068              		.loc 1 309 0
 1069 02a8 001000E3 		movw	r1, #:lower16:.LC19
 1070 02ac 0400A0E1 		mov	r0, r4
 1071              	.LVL126:
 1072 02b0 143094E5 		ldr	r3, [r4, #20]
 1073 02b4 001040E3 		movt	r1, #:upper16:.LC19
 1074 02b8 33FF2FE1 		blx	r3
 1075              	.LVL127:
 311:../src/tensorflow_lite/tensorflow/lite/micro/kernels/reduce.cc ****   }
 1076              		.loc 1 311 0
 1077 02bc 0100A0E3 		mov	r0, #1
 1078              	.LBE1082:
 1079              	.LBE1087:
 1080              		.loc 1 314 0
 1081 02c0 4CD08DE2 		add	sp, sp, #76
 1082              		.cfi_remember_state
 1083              		.cfi_def_cfa_offset 36
 1084              		@ sp needed
 1085 02c4 F08FBDE8 		pop	{r4, r5, r6, r7, r8, r9, r10, fp, pc}
 1086              	.LVL128:
 1087              	.L276:
 1088              		.cfi_restore_state
 1089              	.LBB1088:
 1090              	.LBB1083:
 1091              	.LBB927:
 1092              	.LBB928:
 1093              	.LBB929:
 1094              	.LBB930:
 1095              	.LBB931:
 1096              	.LBB932:
 1097              	.LBB933:
  50:C:/Renesas/e2studio_2021_01_workspace_RZA2M_ANPR/ANPR_RZA2M_GR_MANGO/src/tensorflow_lite/tensorflow/lite/kernels/internal/reference\reduce.h ****         reducer(output_data[output_offset], input_data[input_offset]);
 1098              		.loc 4 50 0
 1099 02c8 007A81ED 		vstr.32	s14, [r1]
 1100              	.LVL129:
 1101              	.L35:
 1102              	.LBE933:
 1103              	.LBE932:
 1104              	.LBE931:
 1105              	.LBE930:
 1106              	.LBE929:
 1107              	.LBE928:
 1108              	.LBE927:
 1109              	.LBE1083:
 1110              	.LBE1088:
 313:../src/tensorflow_lite/tensorflow/lite/micro/kernels/reduce.cc **** }
 1111              		.loc 1 313 0
 1112 02cc 0000A0E3 		mov	r0, #0
 1113              		.loc 1 314 0
 1114 02d0 4CD08DE2 		add	sp, sp, #76
 1115              		.cfi_remember_state
 1116              		.cfi_def_cfa_offset 36
 1117              		@ sp needed
 1118 02d4 F08FBDE8 		pop	{r4, r5, r6, r7, r8, r9, r10, fp, pc}
 1119              	.LVL130:
 1120              	.L32:
 1121              		.cfi_restore_state
 1122              	.LBB1089:
 1123              	.LBB1084:
 1124              	.LBB1073:
 278:../src/tensorflow_lite/tensorflow/lite/micro/kernels/reduce.cc ****           context,
 1125              		.loc 1 278 0
 1126 02d8 043097E5 		ldr	r3, [r7, #4]
 1127 02dc 005093E5 		ldr	r5, [r3]
 1128              	.LVL131:
 1129 02e0 042083E2 		add	r2, r3, #4
 1130 02e4 30308DE5 		str	r3, [sp, #48]
 1131              	.LVL132:
 1132 02e8 28208DE5 		str	r2, [sp, #40]
 1133              	.LBB1054:
 1134              	.LBB1047:
 1135              	.LBB1026:
 136:C:/Renesas/e2studio_2021_01_workspace_RZA2M_ANPR/ANPR_RZA2M_GR_MANGO/src/tensorflow_lite/tensorflow/lite/kernels/internal/reference\reduce.h ****     if (input_dims[i] == 0) return true;
 1136              		.loc 4 136 0
 1137 02ec 000055E3 		cmp	r5, #0
 1138 02f0 0B0000DA 		ble	.L34
 137:C:/Renesas/e2studio_2021_01_workspace_RZA2M_ANPR/ANPR_RZA2M_GR_MANGO/src/tensorflow_lite/tensorflow/lite/kernels/internal/reference\reduce.h ****   }
 1139              		.loc 4 137 0
 1140 02f4 042093E5 		ldr	r2, [r3, #4]
 1141              	.LVL133:
 1142 02f8 000052E3 		cmp	r2, #0
 1143 02fc 28109D15 		ldrne	r1, [sp, #40]
 1144 0300 0020A013 		movne	r2, #0
 1145 0304 0300001A 		bne	.L39
 1146 0308 EFFFFFEA 		b	.L35
 1147              	.LVL134:
 1148              	.L228:
 1149 030c 0430B1E5 		ldr	r3, [r1, #4]!
 1150 0310 000053E3 		cmp	r3, #0
 1151 0314 ECFFFF0A 		beq	.L35
 1152              	.LVL135:
 1153              	.L39:
 136:C:/Renesas/e2studio_2021_01_workspace_RZA2M_ANPR/ANPR_RZA2M_GR_MANGO/src/tensorflow_lite/tensorflow/lite/kernels/internal/reference\reduce.h ****     if (input_dims[i] == 0) return true;
 1154              		.loc 4 136 0
 1155 0318 012082E2 		add	r2, r2, #1
 1156              	.LVL136:
 1157 031c 020055E1 		cmp	r5, r2
 1158 0320 F9FFFF1A 		bne	.L228
 1159              	.LVL137:
 1160              	.L34:
 1161              	.LBE1026:
 1162              	.LBE1047:
 1163              	.LBE1054:
 1164              	.LBB1055:
 1165              	.LBB1056:
 1166              		.loc 3 63 0
 1167 0324 003097E5 		ldr	r3, [r7]
 1168              	.LBE1056:
 1169              	.LBE1055:
 278:../src/tensorflow_lite/tensorflow/lite/micro/kernels/reduce.cc ****           context,
 1170              		.loc 1 278 0
 1171 0328 042099E5 		ldr	r2, [r9, #4]
 1172              	.LBB1058:
 1173              	.LBB1059:
  56:C:/Renesas/e2studio_2021_01_workspace_RZA2M_ANPR/ANPR_RZA2M_GR_MANGO/src/tensorflow_lite/tensorflow/lite/micro/kernels\kernel_util.h **** }
 1174              		.loc 3 56 0
 1175 032c 001099E5 		ldr	r1, [r9]
 1176              	.LBE1059:
 1177              	.LBE1058:
 1178              	.LBB1061:
 1179              	.LBB1057:
 1180              		.loc 3 63 0
 1181 0330 2C308DE5 		str	r3, [sp, #44]
 1182              	.LBE1057:
 1183              	.LBE1061:
 1184              	.LBB1062:
 1185              	.LBB1063:
 1186 0334 003098E5 		ldr	r3, [r8]
 1187              	.LBE1063:
 1188              	.LBE1062:
 1189              	.LBB1065:
 1190              	.LBB1060:
  56:C:/Renesas/e2studio_2021_01_workspace_RZA2M_ANPR/ANPR_RZA2M_GR_MANGO/src/tensorflow_lite/tensorflow/lite/micro/kernels\kernel_util.h **** }
 1191              		.loc 3 56 0
 1192 0338 24108DE5 		str	r1, [sp, #36]
 1193              	.LBE1060:
 1194              	.LBE1065:
 1195              	.LBB1066:
 1196              	.LBB1064:
 1197              		.loc 3 63 0
 1198 033c 38308DE5 		str	r3, [sp, #56]
 1199              	.LVL138:
 1200              	.LBE1064:
 1201              	.LBE1066:
 278:../src/tensorflow_lite/tensorflow/lite/micro/kernels/reduce.cc ****           context,
 1202              		.loc 1 278 0
 1203 0340 003092E5 		ldr	r3, [r2]
 1204              	.LBB1067:
 1205              	.LBB1048:
 1206              	.LBB1027:
 1207              	.LBB1028:
 1208              	.LBB1029:
 111:C:/Renesas/e2studio_2021_01_workspace_RZA2M_ANPR/ANPR_RZA2M_GR_MANGO/src/tensorflow_lite/tensorflow/lite/kernels/internal/reference\reduce.h ****     size_t current = static_cast<size_t>(dims[idx]);
 1209              		.loc 4 111 0
 1210 0344 000053E3 		cmp	r3, #0
 1211 0348 280200DA 		ble	.L272
 1212              	.LBB1030:
 112:C:/Renesas/e2studio_2021_01_workspace_RZA2M_ANPR/ANPR_RZA2M_GR_MANGO/src/tensorflow_lite/tensorflow/lite/kernels/internal/reference\reduce.h ****     // Overflow prevention.
 1213              		.loc 4 112 0
 1214 034c 02A0A0E1 		mov	r10, r2
 1215 0350 34508DE5 		str	r5, [sp, #52]
 1216 0354 0490BAE5 		ldr	r9, [r10, #4]!
 1217              	.LVL139:
 1218 0358 0170A0E3 		mov	r7, #1
 1219              	.LVL140:
 1220 035c 0080A0E3 		mov	r8, #0
 1221              	.LVL141:
 1222 0360 0A50A0E1 		mov	r5, r10
 1223              	.LVL142:
 1224 0364 03A0A0E1 		mov	r10, r3
 1225 0368 050000EA 		b	.L41
 1226              	.LVL143:
 1227              	.L230:
 1228 036c 0490B5E5 		ldr	r9, [r5, #4]!
 1229              	.LVL144:
 114:C:/Renesas/e2studio_2021_01_workspace_RZA2M_ANPR/ANPR_RZA2M_GR_MANGO/src/tensorflow_lite/tensorflow/lite/kernels/internal/reference\reduce.h ****       return false;
 1230              		.loc 4 114 0
 1231 0370 0000E0E3 		mvn	r0, #0
 1232 0374 0910A0E1 		mov	r1, r9
 1233 0378 FEFFFFEB 		bl	__aeabi_uidiv
 1234              	.LVL145:
 1235 037c 070050E1 		cmp	r0, r7
 1236 0380 0201003A 		bcc	.L44
 1237              	.LVL146:
 1238              	.L41:
 1239              	.LBE1030:
 111:C:/Renesas/e2studio_2021_01_workspace_RZA2M_ANPR/ANPR_RZA2M_GR_MANGO/src/tensorflow_lite/tensorflow/lite/kernels/internal/reference\reduce.h ****     size_t current = static_cast<size_t>(dims[idx]);
 1240              		.loc 4 111 0
 1241 0384 018088E2 		add	r8, r8, #1
 1242              	.LVL147:
 1243              	.LBB1031:
 117:C:/Renesas/e2studio_2021_01_workspace_RZA2M_ANPR/ANPR_RZA2M_GR_MANGO/src/tensorflow_lite/tensorflow/lite/kernels/internal/reference\reduce.h ****   }
 1244              		.loc 4 117 0
 1245 0388 990707E0 		mul	r7, r9, r7
 1246              	.LVL148:
 1247              	.LBE1031:
 111:C:/Renesas/e2studio_2021_01_workspace_RZA2M_ANPR/ANPR_RZA2M_GR_MANGO/src/tensorflow_lite/tensorflow/lite/kernels/internal/reference\reduce.h ****     size_t current = static_cast<size_t>(dims[idx]);
 1248              		.loc 4 111 0
 1249 038c 08005AE1 		cmp	r10, r8
 1250 0390 F5FFFF1A 		bne	.L230
 1251              	.LBE1029:
 1252              	.LBB1033:
 119:C:/Renesas/e2studio_2021_01_workspace_RZA2M_ANPR/ANPR_RZA2M_GR_MANGO/src/tensorflow_lite/tensorflow/lite/kernels/internal/reference\reduce.h ****     data[idx] = init_value;
 1253              		.loc 4 119 0
 1254 0394 000057E3 		cmp	r7, #0
 1255 0398 34509DE5 		ldr	r5, [sp, #52]
 1256              	.LVL149:
 1257 039c 4400000A 		beq	.L42
 1258 03a0 24309DE5 		ldr	r3, [sp, #36]
 1259 03a4 0710A0E1 		mov	r1, r7
 1260 03a8 5331A0E7 		sbfx	r3, r3, #2, #1
 1261 03ac 033003E2 		and	r3, r3, #3
 1262 03b0 070053E1 		cmp	r3, r7
 1263 03b4 0730A021 		movcs	r3, r7
 1264 03b8 060057E3 		cmp	r7, #6
 1265 03bc 0730A091 		movls	r3, r7
 1266 03c0 D001008A 		bhi	.L273
 1267              	.LVL150:
 1268              	.L37:
 1269              	.LBE1033:
 1270              	.LBB1034:
 1271              	.LBB1032:
 112:C:/Renesas/e2studio_2021_01_workspace_RZA2M_ANPR/ANPR_RZA2M_GR_MANGO/src/tensorflow_lite/tensorflow/lite/kernels/internal/reference\reduce.h ****     // Overflow prevention.
 1272              		.loc 4 112 0
 1273 03c4 0120A0E1 		mov	r2, r1
 1274 03c8 0310A0E1 		mov	r1, r3
 1275              	.L129:
 1276              	.LVL151:
 1277              	.LBE1032:
 1278              	.LBE1034:
 1279              	.LBB1035:
 120:C:/Renesas/e2studio_2021_01_workspace_RZA2M_ANPR/ANPR_RZA2M_GR_MANGO/src/tensorflow_lite/tensorflow/lite/kernels/internal/reference\reduce.h ****   }
 1280              		.loc 4 120 0
 1281 03cc 24009DE5 		ldr	r0, [sp, #36]
 1282 03d0 010052E3 		cmp	r2, #1
 1283 03d4 0235E0E3 		mvn	r3, #8388608
 1284 03d8 003080E5 		str	r3, [r0]	@ float
 1285              	.LVL152:
 1286 03dc 9501000A 		beq	.L138
 1287 03e0 020052E3 		cmp	r2, #2
 1288 03e4 043080E5 		str	r3, [r0, #4]	@ float
 1289              	.LVL153:
 1290 03e8 9201000A 		beq	.L138
 1291 03ec 030052E3 		cmp	r2, #3
 1292 03f0 083080E5 		str	r3, [r0, #8]	@ float
 1293              	.LVL154:
 1294 03f4 8F01000A 		beq	.L138
 1295 03f8 040052E3 		cmp	r2, #4
 1296 03fc 0C3080E5 		str	r3, [r0, #12]	@ float
 1297              	.LVL155:
 1298 0400 8C01000A 		beq	.L138
 1299 0404 050052E3 		cmp	r2, #5
 1300 0408 103080E5 		str	r3, [r0, #16]	@ float
 1301              	.LVL156:
 1302 040c 8901000A 		beq	.L138
 1303 0410 143080E5 		str	r3, [r0, #20]	@ float
 1304              	.LVL157:
 119:C:/Renesas/e2studio_2021_01_workspace_RZA2M_ANPR/ANPR_RZA2M_GR_MANGO/src/tensorflow_lite/tensorflow/lite/kernels/internal/reference\reduce.h ****     data[idx] = init_value;
 1305              		.loc 4 119 0
 1306 0414 0630A0E3 		mov	r3, #6
 1307              	.LVL158:
 1308              	.L48:
 1309 0418 010052E1 		cmp	r2, r1
 1310 041c 2400000A 		beq	.L42
 1311              	.L47:
 1312 0420 000057E3 		cmp	r7, #0
 1313 0424 021041E0 		sub	r1, r1, r2
 1314 0428 01C04712 		subne	ip, r7, #1
 1315 042c 00C0A003 		moveq	ip, #0
 1316 0430 040041E2 		sub	r0, r1, #4
 1317 0434 2001A0E1 		lsr	r0, r0, #2
 1318 0438 02C04CE0 		sub	ip, ip, r2
 1319 043c 02005CE3 		cmp	ip, #2
 1320 0440 010080E2 		add	r0, r0, #1
 1321 0444 00E1A0E1 		lsl	lr, r0, #2
 1322 0448 0C00009A 		bls	.L50
 1323 044c 24C09DE5 		ldr	ip, [sp, #36]
 120:C:/Renesas/e2studio_2021_01_workspace_RZA2M_ANPR/ANPR_RZA2M_GR_MANGO/src/tensorflow_lite/tensorflow/lite/kernels/internal/reference\reduce.h ****   }
 1324              		.loc 4 120 0
 1325 0450 F00BDFED 		vldr	d16, .L279
 1326 0454 F11BDFED 		vldr	d17, .L279+8
 1327 0458 02218CE0 		add	r2, ip, r2, lsl #2
 119:C:/Renesas/e2studio_2021_01_workspace_RZA2M_ANPR/ANPR_RZA2M_GR_MANGO/src/tensorflow_lite/tensorflow/lite/kernels/internal/reference\reduce.h ****     data[idx] = init_value;
 1328              		.loc 4 119 0
 1329 045c 00C0A0E3 		mov	ip, #0
 1330              	.L52:
 1331 0460 01C08CE2 		add	ip, ip, #1
 120:C:/Renesas/e2studio_2021_01_workspace_RZA2M_ANPR/ANPR_RZA2M_GR_MANGO/src/tensorflow_lite/tensorflow/lite/kernels/internal/reference\reduce.h ****   }
 1332              		.loc 4 120 0
 1333 0464 DF0A42F4 		vst1.64	{d16-d17}, [r2:64]
 1334 0468 0C0050E1 		cmp	r0, ip
 1335 046c 102082E2 		add	r2, r2, #16
 1336 0470 FAFFFF8A 		bhi	.L52
 1337 0474 0E0051E1 		cmp	r1, lr
 1338 0478 0E3083E0 		add	r3, r3, lr
 1339 047c 0C00000A 		beq	.L42
 1340              	.L50:
 1341              	.LVL159:
 1342 0480 24C09DE5 		ldr	ip, [sp, #36]
 119:C:/Renesas/e2studio_2021_01_workspace_RZA2M_ANPR/ANPR_RZA2M_GR_MANGO/src/tensorflow_lite/tensorflow/lite/kernels/internal/reference\reduce.h ****     data[idx] = init_value;
 1343              		.loc 4 119 0
 1344 0484 011083E2 		add	r1, r3, #1
 1345              	.LVL160:
 1346 0488 070051E1 		cmp	r1, r7
 120:C:/Renesas/e2studio_2021_01_workspace_RZA2M_ANPR/ANPR_RZA2M_GR_MANGO/src/tensorflow_lite/tensorflow/lite/kernels/internal/reference\reduce.h ****   }
 1347              		.loc 4 120 0
 1348 048c 0225E0E3 		mvn	r2, #8388608
 1349 0490 03018CE0 		add	r0, ip, r3, lsl #2
 1350 0494 002080E5 		str	r2, [r0]	@ float
 119:C:/Renesas/e2studio_2021_01_workspace_RZA2M_ANPR/ANPR_RZA2M_GR_MANGO/src/tensorflow_lite/tensorflow/lite/kernels/internal/reference\reduce.h ****     data[idx] = init_value;
 1351              		.loc 4 119 0
 1352 0498 0500002A 		bcs	.L42
 1353 049c 023083E2 		add	r3, r3, #2
 120:C:/Renesas/e2studio_2021_01_workspace_RZA2M_ANPR/ANPR_RZA2M_GR_MANGO/src/tensorflow_lite/tensorflow/lite/kernels/internal/reference\reduce.h ****   }
 1354              		.loc 4 120 0
 1355 04a0 01118CE0 		add	r1, ip, r1, lsl #2
 1356              	.LVL161:
 119:C:/Renesas/e2studio_2021_01_workspace_RZA2M_ANPR/ANPR_RZA2M_GR_MANGO/src/tensorflow_lite/tensorflow/lite/kernels/internal/reference\reduce.h ****     data[idx] = init_value;
 1357              		.loc 4 119 0
 1358 04a4 070053E1 		cmp	r3, r7
 120:C:/Renesas/e2studio_2021_01_workspace_RZA2M_ANPR/ANPR_RZA2M_GR_MANGO/src/tensorflow_lite/tensorflow/lite/kernels/internal/reference\reduce.h ****   }
 1359              		.loc 4 120 0
 1360 04a8 002081E5 		str	r2, [r1]	@ float
 1361              	.LVL162:
 119:C:/Renesas/e2studio_2021_01_workspace_RZA2M_ANPR/ANPR_RZA2M_GR_MANGO/src/tensorflow_lite/tensorflow/lite/kernels/internal/reference\reduce.h ****     data[idx] = init_value;
 1362              		.loc 4 119 0
 120:C:/Renesas/e2studio_2021_01_workspace_RZA2M_ANPR/ANPR_RZA2M_GR_MANGO/src/tensorflow_lite/tensorflow/lite/kernels/internal/reference\reduce.h ****   }
 1363              		.loc 4 120 0
 1364 04ac 03318C30 		addcc	r3, ip, r3, lsl #2
 1365              	.LVL163:
 1366 04b0 00208335 		strcc	r2, [r3]	@ float
 1367              	.L42:
 1368              	.LVL164:
 1369              	.LBE1035:
 1370              	.LBE1028:
 1371              	.LBE1027:
 1372              	.LBB1040:
 1373              	.LBB1021:
 1374              	.LBB1000:
 1375              	.LBB1001:
  63:C:/Renesas/e2studio_2021_01_workspace_RZA2M_ANPR/ANPR_RZA2M_GR_MANGO/src/tensorflow_lite/tensorflow/lite/kernels/internal/reference\reduce.h ****     return true;
 1376              		.loc 4 63 0
 1377 04b4 000055E3 		cmp	r5, #0
 1378              	.LBE1001:
 1379              	.LBE1000:
 1380              		.loc 4 147 0
 1381 04b8 0570A001 		moveq	r7, r5
 1382              	.LBB1014:
 1383              	.LBB1010:
  63:C:/Renesas/e2studio_2021_01_workspace_RZA2M_ANPR/ANPR_RZA2M_GR_MANGO/src/tensorflow_lite/tensorflow/lite/kernels/internal/reference\reduce.h ****     return true;
 1384              		.loc 4 63 0
 1385 04bc 5F01001A 		bne	.L274
 1386              	.LVL165:
 1387              	.L120:
 1388              	.LBE1010:
 1389              	.LBE1014:
 1390              	.LBB1015:
 1391              	.LBB971:
 1392              	.LBB972:
 1393              	.LBB973:
 1394              	.LBB974:
 1395              	.LBB975:
 355:C:/Renesas/e2studio_2021_01_workspace_RZA2M_ANPR/ANPR_RZA2M_GR_MANGO/src/tensorflow_lite/tensorflow/lite/kernels/internal\types.h ****     int current_val = current[idx] + carry;
 1396              		.loc 5 355 0
 1397 04c0 013045E2 		sub	r3, r5, #1
 1398 04c4 28C09DE5 		ldr	ip, [sp, #40]
 1399              	.LBB976:
 356:C:/Renesas/e2studio_2021_01_workspace_RZA2M_ANPR/ANPR_RZA2M_GR_MANGO/src/tensorflow_lite/tensorflow/lite/kernels/internal\types.h ****     TFLITE_DCHECK_GE(dims[idx], current_val);
 1400              		.loc 5 356 0
 1401 04c8 0321A0E1 		lsl	r2, r3, #2
 1402 04cc 0B1145E2 		sub	r1, r5, #-1073741822
 1403 04d0 0111A0E1 		lsl	r1, r1, #2
 1404              	.LBE976:
 355:C:/Renesas/e2studio_2021_01_workspace_RZA2M_ANPR/ANPR_RZA2M_GR_MANGO/src/tensorflow_lite/tensorflow/lite/kernels/internal\types.h ****     int current_val = current[idx] + carry;
 1405              		.loc 5 355 0
 1406 04d4 18308DE5 		str	r3, [sp, #24]
 1407              	.LBB977:
 356:C:/Renesas/e2studio_2021_01_workspace_RZA2M_ANPR/ANPR_RZA2M_GR_MANGO/src/tensorflow_lite/tensorflow/lite/kernels/internal\types.h ****     TFLITE_DCHECK_GE(dims[idx], current_val);
 1408              		.loc 5 356 0
 1409 04d8 02A08BE0 		add	r10, fp, r2
 1410 04dc 093045E2 		sub	r3, r5, #9
 1411 04e0 040081E2 		add	r0, r1, #4
 1412 04e4 0730C3E3 		bic	r3, r3, #7
 1413              	.LBE977:
 1414              	.LBE975:
 1415              	.LBE974:
 1416              	.LBE973:
 1417              	.LBE972:
 1418              	.LBE971:
 1419              	.LBB991:
 1420              	.LBB934:
 1421              	.LBB935:
 1422              	.LBB936:
 1423              	.LBB937:
 1424              	.LBB938:
 1425              		.loc 5 384 0
 1426 04e8 28A08DE5 		str	r10, [sp, #40]
 1427              	.LVL166:
 1428 04ec 0040A0E3 		mov	r4, #0
 1429              	.LVL167:
 1430 04f0 0CA0A0E1 		mov	r10, ip
 1431 04f4 00008CE0 		add	r0, ip, r0
 1432 04f8 01108BE0 		add	r1, fp, r1
 1433              	.LBE938:
 1434              	.LBE937:
 1435              	.LBE936:
 1436              	.LBE935:
 1437              	.LBE934:
 1438              	.LBE991:
 1439              	.LBB992:
 1440              	.LBB988:
 1441              	.LBB986:
 1442              	.LBB984:
 1443              	.LBB982:
 1444              	.LBB978:
 357:C:/Renesas/e2studio_2021_01_workspace_RZA2M_ANPR/ANPR_RZA2M_GR_MANGO/src/tensorflow_lite/tensorflow/lite/kernels/internal\types.h ****     if (dims[idx] == current_val) {
 1445              		.loc 5 357 0
 1446 04fc 02208CE0 		add	r2, ip, r2
 1447 0500 083083E2 		add	r3, r3, #8
 1448 0504 34008DE5 		str	r0, [sp, #52]
 1449 0508 3C108DE5 		str	r1, [sp, #60]
 1450 050c 38208DE5 		str	r2, [sp, #56]
 1451 0510 44308DE5 		str	r3, [sp, #68]
 1452              	.LVL168:
 1453              	.L82:
 1454              	.LBE978:
 1455              	.LBE982:
 1456              	.LBE984:
 1457              	.LBE986:
 1458              	.LBE988:
 1459              	.LBE992:
 1460              	.LBB993:
 1461              	.LBB951:
 1462              	.LBB948:
 378:C:/Renesas/e2studio_2021_01_workspace_RZA2M_ANPR/ANPR_RZA2M_GR_MANGO/src/tensorflow_lite/tensorflow/lite/kernels/internal\types.h ****     return 0;
 1463              		.loc 5 378 0
 1464 0514 000055E3 		cmp	r5, #0
 1465 0518 2E00001A 		bne	.L275
 1466              	.LBE948:
 1467              	.LBE951:
  51:C:/Renesas/e2studio_2021_01_workspace_RZA2M_ANPR/ANPR_RZA2M_GR_MANGO/src/tensorflow_lite/tensorflow/lite/kernels/internal/reference\reduce.h ****   } while (NextIndex(input_num_dims, input_dims, input_iter));
 1468              		.loc 4 51 0
 1469 051c 24109DE5 		ldr	r1, [sp, #36]
 1470 0520 2C309DE5 		ldr	r3, [sp, #44]
 1471 0524 007AD1ED 		vldr.32	s15, [r1]
 1472 0528 007A93ED 		vldr.32	s14, [r3]
 1473              	.LVL169:
 1474              	.LBB952:
 1475              	.LBB953:
 1476              	.LBB954:
 278:../src/tensorflow_lite/tensorflow/lite/micro/kernels/reduce.cc ****           context,
 1477              		.loc 1 278 0
 1478 052c C77AF4EE 		vcmpe.f32	s15, s14
 1479 0530 10FAF1EE 		vmrs	APSR_nzcv, FPSCR
 1480 0534 63FFFF4A 		bmi	.L276
 1481              	.LVL170:
 1482              	.L128:
 1483              	.LBE954:
 1484              	.LBE953:
 1485              	.LBE952:
 1486              	.LBE993:
 1487              	.LBB994:
 1488              	.LBB989:
 349:C:/Renesas/e2studio_2021_01_workspace_RZA2M_ANPR/ANPR_RZA2M_GR_MANGO/src/tensorflow_lite/tensorflow/lite/kernels/internal\types.h ****     return false;
 1489              		.loc 5 349 0
 1490 0538 000055E3 		cmp	r5, #0
 1491              	.LBE989:
 1492              	.LBE994:
 1493              	.LBB995:
  50:C:/Renesas/e2studio_2021_01_workspace_RZA2M_ANPR/ANPR_RZA2M_GR_MANGO/src/tensorflow_lite/tensorflow/lite/kernels/internal/reference\reduce.h ****         reducer(output_data[output_offset], input_data[input_offset]);
 1494              		.loc 4 50 0
 1495 053c 007AC1ED 		vstr.32	s15, [r1]
 1496              	.LVL171:
 1497              	.LBE995:
 1498              	.LBB996:
 1499              	.LBB990:
 349:C:/Renesas/e2studio_2021_01_workspace_RZA2M_ANPR/ANPR_RZA2M_GR_MANGO/src/tensorflow_lite/tensorflow/lite/kernels/internal\types.h ****     return false;
 1500              		.loc 5 349 0
 1501 0540 61FFFF0A 		beq	.L35
 1502              	.LVL172:
 1503              	.L130:
 1504              	.LBB987:
 1505              	.LBB985:
 352:C:/Renesas/e2studio_2021_01_workspace_RZA2M_ANPR/ANPR_RZA2M_GR_MANGO/src/tensorflow_lite/tensorflow/lite/kernels/internal\types.h ****   TFLITE_DCHECK(current != nullptr);
 1506              		.loc 5 352 0
 1507 0544 00005AE3 		cmp	r10, #0
 1508 0548 AC01000A 		beq	.L28
 353:C:/Renesas/e2studio_2021_01_workspace_RZA2M_ANPR/ANPR_RZA2M_GR_MANGO/src/tensorflow_lite/tensorflow/lite/kernels/internal\types.h ****   int carry = 1;
 1509              		.loc 5 353 0
 1510 054c 00005BE3 		cmp	fp, #0
 1511 0550 AA01000A 		beq	.L28
 1512              	.LVL173:
 1513              	.LBB983:
 355:C:/Renesas/e2studio_2021_01_workspace_RZA2M_ANPR/ANPR_RZA2M_GR_MANGO/src/tensorflow_lite/tensorflow/lite/kernels/internal\types.h ****     int current_val = current[idx] + carry;
 1514              		.loc 5 355 0
 1515 0554 18309DE5 		ldr	r3, [sp, #24]
 1516 0558 000053E3 		cmp	r3, #0
 1517 055c 5AFFFFBA 		blt	.L35
 1518              	.LBB979:
 356:C:/Renesas/e2studio_2021_01_workspace_RZA2M_ANPR/ANPR_RZA2M_GR_MANGO/src/tensorflow_lite/tensorflow/lite/kernels/internal\types.h ****     TFLITE_DCHECK_GE(dims[idx], current_val);
 1519              		.loc 5 356 0
 1520 0560 28309DE5 		ldr	r3, [sp, #40]
 357:C:/Renesas/e2studio_2021_01_workspace_RZA2M_ANPR/ANPR_RZA2M_GR_MANGO/src/tensorflow_lite/tensorflow/lite/kernels/internal\types.h ****     if (dims[idx] == current_val) {
 1521              		.loc 5 357 0
 1522 0564 38209DE5 		ldr	r2, [sp, #56]
 356:C:/Renesas/e2studio_2021_01_workspace_RZA2M_ANPR/ANPR_RZA2M_GR_MANGO/src/tensorflow_lite/tensorflow/lite/kernels/internal\types.h ****     TFLITE_DCHECK_GE(dims[idx], current_val);
 1523              		.loc 5 356 0
 1524 0568 003093E5 		ldr	r3, [r3]
 357:C:/Renesas/e2studio_2021_01_workspace_RZA2M_ANPR/ANPR_RZA2M_GR_MANGO/src/tensorflow_lite/tensorflow/lite/kernels/internal\types.h ****     if (dims[idx] == current_val) {
 1525              		.loc 5 357 0
 1526 056c 002092E5 		ldr	r2, [r2]
 356:C:/Renesas/e2studio_2021_01_workspace_RZA2M_ANPR/ANPR_RZA2M_GR_MANGO/src/tensorflow_lite/tensorflow/lite/kernels/internal\types.h ****     TFLITE_DCHECK_GE(dims[idx], current_val);
 1527              		.loc 5 356 0
 1528 0570 013083E2 		add	r3, r3, #1
 1529              	.LVL174:
 357:C:/Renesas/e2studio_2021_01_workspace_RZA2M_ANPR/ANPR_RZA2M_GR_MANGO/src/tensorflow_lite/tensorflow/lite/kernels/internal\types.h ****     if (dims[idx] == current_val) {
 1530              		.loc 5 357 0
 1531 0574 030052E1 		cmp	r2, r3
 1532 0578 A00100BA 		blt	.L28
 358:C:/Renesas/e2studio_2021_01_workspace_RZA2M_ANPR/ANPR_RZA2M_GR_MANGO/src/tensorflow_lite/tensorflow/lite/kernels/internal\types.h ****       current[idx] = 0;
 1533              		.loc 5 358 0
 1534 057c 28E09D15 		ldrne	lr, [sp, #40]
 1535 0580 1200001A 		bne	.L78
 1536 0584 28309DE5 		ldr	r3, [sp, #40]
 1537              	.LVL175:
 1538 0588 34C09DE5 		ldr	ip, [sp, #52]
 1539 058c 3C109DE5 		ldr	r1, [sp, #60]
 1540 0590 040083E2 		add	r0, r3, #4
 1541 0594 18209DE5 		ldr	r2, [sp, #24]
 1542 0598 070000EA 		b	.L80
 1543              	.LVL176:
 1544              	.L236:
 356:C:/Renesas/e2studio_2021_01_workspace_RZA2M_ANPR/ANPR_RZA2M_GR_MANGO/src/tensorflow_lite/tensorflow/lite/kernels/internal\types.h ****     TFLITE_DCHECK_GE(dims[idx], current_val);
 1545              		.loc 5 356 0
 1546 059c 003091E5 		ldr	r3, [r1]
 1547 05a0 01E0A0E1 		mov	lr, r1
 357:C:/Renesas/e2studio_2021_01_workspace_RZA2M_ANPR/ANPR_RZA2M_GR_MANGO/src/tensorflow_lite/tensorflow/lite/kernels/internal\types.h ****     if (dims[idx] == current_val) {
 1548              		.loc 5 357 0
 1549 05a4 04803CE5 		ldr	r8, [ip, #-4]!
 1550 05a8 041041E2 		sub	r1, r1, #4
 356:C:/Renesas/e2studio_2021_01_workspace_RZA2M_ANPR/ANPR_RZA2M_GR_MANGO/src/tensorflow_lite/tensorflow/lite/kernels/internal\types.h ****     TFLITE_DCHECK_GE(dims[idx], current_val);
