   1              		.cpu cortex-a9
   2              		.eabi_attribute 28, 1
   3              		.eabi_attribute 20, 1
   4              		.eabi_attribute 21, 1
   5              		.eabi_attribute 23, 3
   6              		.eabi_attribute 24, 1
   7              		.eabi_attribute 25, 1
   8              		.eabi_attribute 26, 1
   9              		.eabi_attribute 30, 2
  10              		.eabi_attribute 34, 0
  11              		.eabi_attribute 18, 4
  12              		.file	"softmax_common.cc"
  13              		.text
  14              	.Ltext0:
  15              		.cfi_sections	.debug_frame
  16              		.section	.text._ZN6tflite11SoftmaxInitEP13TfLiteContextPKcj,"ax",%progbits
  17              		.align	2
  18              		.global	_ZN6tflite11SoftmaxInitEP13TfLiteContextPKcj
  19              		.syntax unified
  20              		.arm
  21              		.fpu neon
  23              	_ZN6tflite11SoftmaxInitEP13TfLiteContextPKcj:
  24              		.fnstart
  25              	.LFB4161:
  26              		.file 1 "../src/tensorflow_lite/tensorflow/lite/micro/kernels/softmax_common.cc"
   1:../src/tensorflow_lite/tensorflow/lite/micro/kernels/softmax_common.cc **** /* Copyright 2021 The TensorFlow Authors. All Rights Reserved.
   2:../src/tensorflow_lite/tensorflow/lite/micro/kernels/softmax_common.cc **** 
   3:../src/tensorflow_lite/tensorflow/lite/micro/kernels/softmax_common.cc **** Licensed under the Apache License, Version 2.0 (the "License");
   4:../src/tensorflow_lite/tensorflow/lite/micro/kernels/softmax_common.cc **** you may not use this file except in compliance with the License.
   5:../src/tensorflow_lite/tensorflow/lite/micro/kernels/softmax_common.cc **** You may obtain a copy of the License at
   6:../src/tensorflow_lite/tensorflow/lite/micro/kernels/softmax_common.cc **** 
   7:../src/tensorflow_lite/tensorflow/lite/micro/kernels/softmax_common.cc ****     http://www.apache.org/licenses/LICENSE-2.0
   8:../src/tensorflow_lite/tensorflow/lite/micro/kernels/softmax_common.cc **** 
   9:../src/tensorflow_lite/tensorflow/lite/micro/kernels/softmax_common.cc **** Unless required by applicable law or agreed to in writing, software
  10:../src/tensorflow_lite/tensorflow/lite/micro/kernels/softmax_common.cc **** distributed under the License is distributed on an "AS IS" BASIS,
  11:../src/tensorflow_lite/tensorflow/lite/micro/kernels/softmax_common.cc **** WITHOUT WARRANTIES OR CONDITIONS OF ANY KIND, either express or implied.
  12:../src/tensorflow_lite/tensorflow/lite/micro/kernels/softmax_common.cc **** See the License for the specific language governing permissions and
  13:../src/tensorflow_lite/tensorflow/lite/micro/kernels/softmax_common.cc **** limitations under the License.
  14:../src/tensorflow_lite/tensorflow/lite/micro/kernels/softmax_common.cc **** ==============================================================================*/
  15:../src/tensorflow_lite/tensorflow/lite/micro/kernels/softmax_common.cc **** 
  16:../src/tensorflow_lite/tensorflow/lite/micro/kernels/softmax_common.cc **** #include "tensorflow/lite/c/builtin_op_data.h"
  17:../src/tensorflow_lite/tensorflow/lite/micro/kernels/softmax_common.cc **** #include "tensorflow/lite/c/common.h"
  18:../src/tensorflow_lite/tensorflow/lite/micro/kernels/softmax_common.cc **** #include "tensorflow/lite/kernels/internal/common.h"
  19:../src/tensorflow_lite/tensorflow/lite/micro/kernels/softmax_common.cc **** #include "tensorflow/lite/kernels/internal/quantization_util.h"
  20:../src/tensorflow_lite/tensorflow/lite/micro/kernels/softmax_common.cc **** #include "tensorflow/lite/kernels/kernel_util.h"
  21:../src/tensorflow_lite/tensorflow/lite/micro/kernels/softmax_common.cc **** #include "tensorflow/lite/kernels/op_macros.h"
  22:../src/tensorflow_lite/tensorflow/lite/micro/kernels/softmax_common.cc **** #include "tensorflow/lite/micro/kernels/softmax.h"
  23:../src/tensorflow_lite/tensorflow/lite/micro/kernels/softmax_common.cc **** 
  24:../src/tensorflow_lite/tensorflow/lite/micro/kernels/softmax_common.cc **** namespace tflite {
  25:../src/tensorflow_lite/tensorflow/lite/micro/kernels/softmax_common.cc **** 
  26:../src/tensorflow_lite/tensorflow/lite/micro/kernels/softmax_common.cc **** namespace {
  27:../src/tensorflow_lite/tensorflow/lite/micro/kernels/softmax_common.cc **** // Softmax parameter data that persists in user_data
  28:../src/tensorflow_lite/tensorflow/lite/micro/kernels/softmax_common.cc **** const int kInt16LUTArraySize = 513;
  29:../src/tensorflow_lite/tensorflow/lite/micro/kernels/softmax_common.cc **** 
  30:../src/tensorflow_lite/tensorflow/lite/micro/kernels/softmax_common.cc **** TfLiteStatus CalculateSoftmaxParams(TfLiteContext* context,
  31:../src/tensorflow_lite/tensorflow/lite/micro/kernels/softmax_common.cc ****                                     const TfLiteTensor* input,
  32:../src/tensorflow_lite/tensorflow/lite/micro/kernels/softmax_common.cc ****                                     TfLiteTensor* output,
  33:../src/tensorflow_lite/tensorflow/lite/micro/kernels/softmax_common.cc ****                                     const TfLiteSoftmaxParams* params,
  34:../src/tensorflow_lite/tensorflow/lite/micro/kernels/softmax_common.cc ****                                     SoftmaxParams* op_data) {
  35:../src/tensorflow_lite/tensorflow/lite/micro/kernels/softmax_common.cc ****   if (input->type == kTfLiteInt8 || input->type == kTfLiteInt16) {
  36:../src/tensorflow_lite/tensorflow/lite/micro/kernels/softmax_common.cc ****     if (input->type == kTfLiteInt16) {
  37:../src/tensorflow_lite/tensorflow/lite/micro/kernels/softmax_common.cc ****       TF_LITE_ENSURE_EQ(context, output->params.zero_point, 0);
  38:../src/tensorflow_lite/tensorflow/lite/micro/kernels/softmax_common.cc ****       TF_LITE_ENSURE_NEAR(context, output->params.scale, 1.f / 32768,
  39:../src/tensorflow_lite/tensorflow/lite/micro/kernels/softmax_common.cc ****                           (0.001f * 1.f / 32768));
  40:../src/tensorflow_lite/tensorflow/lite/micro/kernels/softmax_common.cc ****     } else {  // input->type == kTfLiteInt8
  41:../src/tensorflow_lite/tensorflow/lite/micro/kernels/softmax_common.cc ****       TF_LITE_ENSURE_TYPES_EQ(context, input->type, kTfLiteInt8);
  42:../src/tensorflow_lite/tensorflow/lite/micro/kernels/softmax_common.cc ****       if (output->type == kTfLiteInt16) {
  43:../src/tensorflow_lite/tensorflow/lite/micro/kernels/softmax_common.cc ****         TF_LITE_ENSURE_EQ(context, output->params.zero_point, -32768);
  44:../src/tensorflow_lite/tensorflow/lite/micro/kernels/softmax_common.cc ****         TF_LITE_ENSURE_NEAR(context, output->params.scale, 1.f / 65536,
  45:../src/tensorflow_lite/tensorflow/lite/micro/kernels/softmax_common.cc ****                             (0.001f * 1.f / 65536));
  46:../src/tensorflow_lite/tensorflow/lite/micro/kernels/softmax_common.cc ****       } else {  // output->type == kTfLiteint8
  47:../src/tensorflow_lite/tensorflow/lite/micro/kernels/softmax_common.cc ****         TF_LITE_ENSURE_TYPES_EQ(context, output->type, kTfLiteInt8);
  48:../src/tensorflow_lite/tensorflow/lite/micro/kernels/softmax_common.cc ****         TF_LITE_ENSURE_EQ(context, output->params.zero_point, -128);
  49:../src/tensorflow_lite/tensorflow/lite/micro/kernels/softmax_common.cc ****         TF_LITE_ENSURE(context, output->params.scale == 1.f / 256);
  50:../src/tensorflow_lite/tensorflow/lite/micro/kernels/softmax_common.cc ****       }
  51:../src/tensorflow_lite/tensorflow/lite/micro/kernels/softmax_common.cc ****     }
  52:../src/tensorflow_lite/tensorflow/lite/micro/kernels/softmax_common.cc **** 
  53:../src/tensorflow_lite/tensorflow/lite/micro/kernels/softmax_common.cc ****     static const int kScaledDiffIntegerBits = 5;
  54:../src/tensorflow_lite/tensorflow/lite/micro/kernels/softmax_common.cc **** 
  55:../src/tensorflow_lite/tensorflow/lite/micro/kernels/softmax_common.cc ****     // Calculate input_multiplier and input_left_shift
  56:../src/tensorflow_lite/tensorflow/lite/micro/kernels/softmax_common.cc ****     if (input->type == kTfLiteInt16) {
  57:../src/tensorflow_lite/tensorflow/lite/micro/kernels/softmax_common.cc ****       int input_left_shift;
  58:../src/tensorflow_lite/tensorflow/lite/micro/kernels/softmax_common.cc ****       double input_scale_beta_rescale =
  59:../src/tensorflow_lite/tensorflow/lite/micro/kernels/softmax_common.cc ****           static_cast<double>(input->params.scale) *
  60:../src/tensorflow_lite/tensorflow/lite/micro/kernels/softmax_common.cc ****           static_cast<double>(params->beta) /
  61:../src/tensorflow_lite/tensorflow/lite/micro/kernels/softmax_common.cc ****           (10.0 / 65535.0);  // scale the input_diff such that [-65535, 0]
  62:../src/tensorflow_lite/tensorflow/lite/micro/kernels/softmax_common.cc ****                              // correspond to [-10.0, 0.0]
  63:../src/tensorflow_lite/tensorflow/lite/micro/kernels/softmax_common.cc ****       QuantizeMultiplier(input_scale_beta_rescale, &op_data->input_multiplier,
  64:../src/tensorflow_lite/tensorflow/lite/micro/kernels/softmax_common.cc ****                          &input_left_shift);
  65:../src/tensorflow_lite/tensorflow/lite/micro/kernels/softmax_common.cc ****       op_data->input_left_shift = input_left_shift;
  66:../src/tensorflow_lite/tensorflow/lite/micro/kernels/softmax_common.cc ****     } else {
  67:../src/tensorflow_lite/tensorflow/lite/micro/kernels/softmax_common.cc ****       int input_left_shift;
  68:../src/tensorflow_lite/tensorflow/lite/micro/kernels/softmax_common.cc ****       tflite::PreprocessSoftmaxScaling(
  69:../src/tensorflow_lite/tensorflow/lite/micro/kernels/softmax_common.cc ****           static_cast<double>(params->beta),
  70:../src/tensorflow_lite/tensorflow/lite/micro/kernels/softmax_common.cc ****           static_cast<double>(input->params.scale), kScaledDiffIntegerBits,
  71:../src/tensorflow_lite/tensorflow/lite/micro/kernels/softmax_common.cc ****           &op_data->input_multiplier, &input_left_shift);
  72:../src/tensorflow_lite/tensorflow/lite/micro/kernels/softmax_common.cc ****       op_data->input_left_shift = input_left_shift;
  73:../src/tensorflow_lite/tensorflow/lite/micro/kernels/softmax_common.cc ****       op_data->diff_min =
  74:../src/tensorflow_lite/tensorflow/lite/micro/kernels/softmax_common.cc ****           -1.0 * tflite::CalculateInputRadius(kScaledDiffIntegerBits,
  75:../src/tensorflow_lite/tensorflow/lite/micro/kernels/softmax_common.cc ****                                               op_data->input_left_shift);
  76:../src/tensorflow_lite/tensorflow/lite/micro/kernels/softmax_common.cc ****     }
  77:../src/tensorflow_lite/tensorflow/lite/micro/kernels/softmax_common.cc ****   } else {
  78:../src/tensorflow_lite/tensorflow/lite/micro/kernels/softmax_common.cc ****     TF_LITE_ENSURE_TYPES_EQ(context, input->type, kTfLiteFloat32);
  79:../src/tensorflow_lite/tensorflow/lite/micro/kernels/softmax_common.cc ****     TF_LITE_ENSURE_TYPES_EQ(context, output->type, kTfLiteFloat32);
  80:../src/tensorflow_lite/tensorflow/lite/micro/kernels/softmax_common.cc ****     op_data->beta = static_cast<double>(params->beta);
  81:../src/tensorflow_lite/tensorflow/lite/micro/kernels/softmax_common.cc ****   }
  82:../src/tensorflow_lite/tensorflow/lite/micro/kernels/softmax_common.cc ****   return kTfLiteOk;
  83:../src/tensorflow_lite/tensorflow/lite/micro/kernels/softmax_common.cc **** }
  84:../src/tensorflow_lite/tensorflow/lite/micro/kernels/softmax_common.cc **** 
  85:../src/tensorflow_lite/tensorflow/lite/micro/kernels/softmax_common.cc **** }  // namespace
  86:../src/tensorflow_lite/tensorflow/lite/micro/kernels/softmax_common.cc **** 
  87:../src/tensorflow_lite/tensorflow/lite/micro/kernels/softmax_common.cc **** void* SoftmaxInit(TfLiteContext* context, const char* buffer, size_t length) {
  27              		.loc 1 87 0
  28              		.cfi_startproc
  29              		@ args = 0, pretend = 0, frame = 0
  30              		@ frame_needed = 0, uses_anonymous_args = 0
  31              	.LVL0:
  88:../src/tensorflow_lite/tensorflow/lite/micro/kernels/softmax_common.cc ****   TFLITE_DCHECK(context->AllocatePersistentBuffer != nullptr);
  32              		.loc 1 88 0
  33 0000 383090E5 		ldr	r3, [r0, #56]
  34 0004 000053E3 		cmp	r3, #0
  35 0008 0100000A 		beq	.L7
  89:../src/tensorflow_lite/tensorflow/lite/micro/kernels/softmax_common.cc ****   return context->AllocatePersistentBuffer(context, sizeof(SoftmaxParams));
  36              		.loc 1 89 0
  37 000c 3810A0E3 		mov	r1, #56
  38              	.LVL1:
  39 0010 13FF2FE1 		bx	r3
  40              	.LVL2:
  41              	.L7:
  87:../src/tensorflow_lite/tensorflow/lite/micro/kernels/softmax_common.cc ****   TFLITE_DCHECK(context->AllocatePersistentBuffer != nullptr);
  42              		.loc 1 87 0 discriminator 1
  43 0014 10402DE9 		push	{r4, lr}
  44              		.save {r4, lr}
  45              		.cfi_def_cfa_offset 8
  46              		.cfi_offset 4, -8
  47              		.cfi_offset 14, -4
  88:../src/tensorflow_lite/tensorflow/lite/micro/kernels/softmax_common.cc ****   TFLITE_DCHECK(context->AllocatePersistentBuffer != nullptr);
  48              		.loc 1 88 0 discriminator 1
  49 0018 FEFFFFEB 		bl	abort
  50              	.LVL3:
  51              		.cfi_endproc
  52              	.LFE4161:
  53              		.fnend
  55              		.section	.text._ZN6tflite14SoftmaxPrepareEP13TfLiteContextP10TfLiteNode,"ax",%progbits
  56              		.align	2
  57              		.global	_ZN6tflite14SoftmaxPrepareEP13TfLiteContextP10TfLiteNode
  58              		.syntax unified
  59              		.arm
  60              		.fpu neon
  62              	_ZN6tflite14SoftmaxPrepareEP13TfLiteContextP10TfLiteNode:
  63              		.fnstart
  64              	.LFB4162:
  90:../src/tensorflow_lite/tensorflow/lite/micro/kernels/softmax_common.cc **** }
  91:../src/tensorflow_lite/tensorflow/lite/micro/kernels/softmax_common.cc **** 
  92:../src/tensorflow_lite/tensorflow/lite/micro/kernels/softmax_common.cc **** TfLiteStatus SoftmaxPrepare(TfLiteContext* context, TfLiteNode* node) {
  65              		.loc 1 92 0
  66              		.cfi_startproc
  67              		@ args = 0, pretend = 0, frame = 24
  68              		@ frame_needed = 0, uses_anonymous_args = 0
  69              	.LVL4:
  70              	.LBB209:
  71              	.LBB210:
  72              		.file 2 "C:/Renesas/e2studio_2021_01_workspace_RZA2M_ANPR/ANPR_RZA2M_GR_MANGO/src/tensorflow_lite/
   1:C:/Renesas/e2studio_2021_01_workspace_RZA2M_ANPR/ANPR_RZA2M_GR_MANGO/src/tensorflow_lite/tensorflow/lite/kernels\kernel_util.h **** /* Copyright 2017 The TensorFlow Authors. All Rights Reserved.
   2:C:/Renesas/e2studio_2021_01_workspace_RZA2M_ANPR/ANPR_RZA2M_GR_MANGO/src/tensorflow_lite/tensorflow/lite/kernels\kernel_util.h **** 
   3:C:/Renesas/e2studio_2021_01_workspace_RZA2M_ANPR/ANPR_RZA2M_GR_MANGO/src/tensorflow_lite/tensorflow/lite/kernels\kernel_util.h **** Licensed under the Apache License, Version 2.0 (the "License");
   4:C:/Renesas/e2studio_2021_01_workspace_RZA2M_ANPR/ANPR_RZA2M_GR_MANGO/src/tensorflow_lite/tensorflow/lite/kernels\kernel_util.h **** you may not use this file except in compliance with the License.
   5:C:/Renesas/e2studio_2021_01_workspace_RZA2M_ANPR/ANPR_RZA2M_GR_MANGO/src/tensorflow_lite/tensorflow/lite/kernels\kernel_util.h **** You may obtain a copy of the License at
   6:C:/Renesas/e2studio_2021_01_workspace_RZA2M_ANPR/ANPR_RZA2M_GR_MANGO/src/tensorflow_lite/tensorflow/lite/kernels\kernel_util.h **** 
   7:C:/Renesas/e2studio_2021_01_workspace_RZA2M_ANPR/ANPR_RZA2M_GR_MANGO/src/tensorflow_lite/tensorflow/lite/kernels\kernel_util.h ****     http://www.apache.org/licenses/LICENSE-2.0
   8:C:/Renesas/e2studio_2021_01_workspace_RZA2M_ANPR/ANPR_RZA2M_GR_MANGO/src/tensorflow_lite/tensorflow/lite/kernels\kernel_util.h **** 
   9:C:/Renesas/e2studio_2021_01_workspace_RZA2M_ANPR/ANPR_RZA2M_GR_MANGO/src/tensorflow_lite/tensorflow/lite/kernels\kernel_util.h **** Unless required by applicable law or agreed to in writing, software
  10:C:/Renesas/e2studio_2021_01_workspace_RZA2M_ANPR/ANPR_RZA2M_GR_MANGO/src/tensorflow_lite/tensorflow/lite/kernels\kernel_util.h **** distributed under the License is distributed on an "AS IS" BASIS,
  11:C:/Renesas/e2studio_2021_01_workspace_RZA2M_ANPR/ANPR_RZA2M_GR_MANGO/src/tensorflow_lite/tensorflow/lite/kernels\kernel_util.h **** WITHOUT WARRANTIES OR CONDITIONS OF ANY KIND, either express or implied.
  12:C:/Renesas/e2studio_2021_01_workspace_RZA2M_ANPR/ANPR_RZA2M_GR_MANGO/src/tensorflow_lite/tensorflow/lite/kernels\kernel_util.h **** See the License for the specific language governing permissions and
  13:C:/Renesas/e2studio_2021_01_workspace_RZA2M_ANPR/ANPR_RZA2M_GR_MANGO/src/tensorflow_lite/tensorflow/lite/kernels\kernel_util.h **** limitations under the License.
  14:C:/Renesas/e2studio_2021_01_workspace_RZA2M_ANPR/ANPR_RZA2M_GR_MANGO/src/tensorflow_lite/tensorflow/lite/kernels\kernel_util.h **** ==============================================================================*/
  15:C:/Renesas/e2studio_2021_01_workspace_RZA2M_ANPR/ANPR_RZA2M_GR_MANGO/src/tensorflow_lite/tensorflow/lite/kernels\kernel_util.h **** #ifndef TENSORFLOW_LITE_KERNELS_KERNEL_UTIL_H_
  16:C:/Renesas/e2studio_2021_01_workspace_RZA2M_ANPR/ANPR_RZA2M_GR_MANGO/src/tensorflow_lite/tensorflow/lite/kernels\kernel_util.h **** #define TENSORFLOW_LITE_KERNELS_KERNEL_UTIL_H_
  17:C:/Renesas/e2studio_2021_01_workspace_RZA2M_ANPR/ANPR_RZA2M_GR_MANGO/src/tensorflow_lite/tensorflow/lite/kernels\kernel_util.h **** 
  18:C:/Renesas/e2studio_2021_01_workspace_RZA2M_ANPR/ANPR_RZA2M_GR_MANGO/src/tensorflow_lite/tensorflow/lite/kernels\kernel_util.h **** #include <stdint.h>
  19:C:/Renesas/e2studio_2021_01_workspace_RZA2M_ANPR/ANPR_RZA2M_GR_MANGO/src/tensorflow_lite/tensorflow/lite/kernels\kernel_util.h **** 
  20:C:/Renesas/e2studio_2021_01_workspace_RZA2M_ANPR/ANPR_RZA2M_GR_MANGO/src/tensorflow_lite/tensorflow/lite/kernels\kernel_util.h **** #include <limits>
  21:C:/Renesas/e2studio_2021_01_workspace_RZA2M_ANPR/ANPR_RZA2M_GR_MANGO/src/tensorflow_lite/tensorflow/lite/kernels\kernel_util.h **** 
  22:C:/Renesas/e2studio_2021_01_workspace_RZA2M_ANPR/ANPR_RZA2M_GR_MANGO/src/tensorflow_lite/tensorflow/lite/kernels\kernel_util.h **** #include "tensorflow/lite/c/builtin_op_data.h"
  23:C:/Renesas/e2studio_2021_01_workspace_RZA2M_ANPR/ANPR_RZA2M_GR_MANGO/src/tensorflow_lite/tensorflow/lite/kernels\kernel_util.h **** #include "tensorflow/lite/c/common.h"
  24:C:/Renesas/e2studio_2021_01_workspace_RZA2M_ANPR/ANPR_RZA2M_GR_MANGO/src/tensorflow_lite/tensorflow/lite/kernels\kernel_util.h **** 
  25:C:/Renesas/e2studio_2021_01_workspace_RZA2M_ANPR/ANPR_RZA2M_GR_MANGO/src/tensorflow_lite/tensorflow/lite/kernels\kernel_util.h **** namespace tflite {
  26:C:/Renesas/e2studio_2021_01_workspace_RZA2M_ANPR/ANPR_RZA2M_GR_MANGO/src/tensorflow_lite/tensorflow/lite/kernels\kernel_util.h **** 
  27:C:/Renesas/e2studio_2021_01_workspace_RZA2M_ANPR/ANPR_RZA2M_GR_MANGO/src/tensorflow_lite/tensorflow/lite/kernels\kernel_util.h **** // A fair number of functions in this header have historically been inline.
  28:C:/Renesas/e2studio_2021_01_workspace_RZA2M_ANPR/ANPR_RZA2M_GR_MANGO/src/tensorflow_lite/tensorflow/lite/kernels\kernel_util.h **** // It is ok to change functions to not be inline if the latency with
  29:C:/Renesas/e2studio_2021_01_workspace_RZA2M_ANPR/ANPR_RZA2M_GR_MANGO/src/tensorflow_lite/tensorflow/lite/kernels\kernel_util.h **** // benchmark_model for MobileNet + MobileBERT is unaffected. If such a change is
  30:C:/Renesas/e2studio_2021_01_workspace_RZA2M_ANPR/ANPR_RZA2M_GR_MANGO/src/tensorflow_lite/tensorflow/lite/kernels\kernel_util.h **** // made, move the newly non-inlined function declarations to the top of this
  31:C:/Renesas/e2studio_2021_01_workspace_RZA2M_ANPR/ANPR_RZA2M_GR_MANGO/src/tensorflow_lite/tensorflow/lite/kernels\kernel_util.h **** // header file.
  32:C:/Renesas/e2studio_2021_01_workspace_RZA2M_ANPR/ANPR_RZA2M_GR_MANGO/src/tensorflow_lite/tensorflow/lite/kernels\kernel_util.h **** 
  33:C:/Renesas/e2studio_2021_01_workspace_RZA2M_ANPR/ANPR_RZA2M_GR_MANGO/src/tensorflow_lite/tensorflow/lite/kernels\kernel_util.h **** // Note: You must check if result is not null:
  34:C:/Renesas/e2studio_2021_01_workspace_RZA2M_ANPR/ANPR_RZA2M_GR_MANGO/src/tensorflow_lite/tensorflow/lite/kernels\kernel_util.h **** //
  35:C:/Renesas/e2studio_2021_01_workspace_RZA2M_ANPR/ANPR_RZA2M_GR_MANGO/src/tensorflow_lite/tensorflow/lite/kernels\kernel_util.h **** //   TfLiteTensor* my_tensor = GetInput(context, node, kMyTensorIdx);
  36:C:/Renesas/e2studio_2021_01_workspace_RZA2M_ANPR/ANPR_RZA2M_GR_MANGO/src/tensorflow_lite/tensorflow/lite/kernels\kernel_util.h **** //   TF_LITE_ENSURE(context, my_tensor != nullptr);
  37:C:/Renesas/e2studio_2021_01_workspace_RZA2M_ANPR/ANPR_RZA2M_GR_MANGO/src/tensorflow_lite/tensorflow/lite/kernels\kernel_util.h **** //
  38:C:/Renesas/e2studio_2021_01_workspace_RZA2M_ANPR/ANPR_RZA2M_GR_MANGO/src/tensorflow_lite/tensorflow/lite/kernels\kernel_util.h **** // This is because the index might point to the optional tensor constant
  39:C:/Renesas/e2studio_2021_01_workspace_RZA2M_ANPR/ANPR_RZA2M_GR_MANGO/src/tensorflow_lite/tensorflow/lite/kernels\kernel_util.h **** // (kTfLiteOptionalTensor) in which case there is no tensor to return.
  40:C:/Renesas/e2studio_2021_01_workspace_RZA2M_ANPR/ANPR_RZA2M_GR_MANGO/src/tensorflow_lite/tensorflow/lite/kernels\kernel_util.h **** const TfLiteTensor* GetInput(const TfLiteContext* context,
  41:C:/Renesas/e2studio_2021_01_workspace_RZA2M_ANPR/ANPR_RZA2M_GR_MANGO/src/tensorflow_lite/tensorflow/lite/kernels\kernel_util.h ****                              const TfLiteNode* node, int index);
  42:C:/Renesas/e2studio_2021_01_workspace_RZA2M_ANPR/ANPR_RZA2M_GR_MANGO/src/tensorflow_lite/tensorflow/lite/kernels\kernel_util.h **** 
  43:C:/Renesas/e2studio_2021_01_workspace_RZA2M_ANPR/ANPR_RZA2M_GR_MANGO/src/tensorflow_lite/tensorflow/lite/kernels\kernel_util.h **** // Same as `GetInput` but returns boolean and uses output argument for tensor.
  44:C:/Renesas/e2studio_2021_01_workspace_RZA2M_ANPR/ANPR_RZA2M_GR_MANGO/src/tensorflow_lite/tensorflow/lite/kernels\kernel_util.h **** //
  45:C:/Renesas/e2studio_2021_01_workspace_RZA2M_ANPR/ANPR_RZA2M_GR_MANGO/src/tensorflow_lite/tensorflow/lite/kernels\kernel_util.h **** //   TfLiteTensor* my_tensor;
  46:C:/Renesas/e2studio_2021_01_workspace_RZA2M_ANPR/ANPR_RZA2M_GR_MANGO/src/tensorflow_lite/tensorflow/lite/kernels\kernel_util.h **** //   TF_LITE_ENSURE_OK(context,
  47:C:/Renesas/e2studio_2021_01_workspace_RZA2M_ANPR/ANPR_RZA2M_GR_MANGO/src/tensorflow_lite/tensorflow/lite/kernels\kernel_util.h **** //                     GetInputSafe(context, node, kMyTensorIdx, &my_tensor));
  48:C:/Renesas/e2studio_2021_01_workspace_RZA2M_ANPR/ANPR_RZA2M_GR_MANGO/src/tensorflow_lite/tensorflow/lite/kernels\kernel_util.h **** //   // can use my_tensor directly from here onwards, it is not nullptr
  49:C:/Renesas/e2studio_2021_01_workspace_RZA2M_ANPR/ANPR_RZA2M_GR_MANGO/src/tensorflow_lite/tensorflow/lite/kernels\kernel_util.h **** //
  50:C:/Renesas/e2studio_2021_01_workspace_RZA2M_ANPR/ANPR_RZA2M_GR_MANGO/src/tensorflow_lite/tensorflow/lite/kernels\kernel_util.h **** // Should be used in cases where the binary size is too large.
  51:C:/Renesas/e2studio_2021_01_workspace_RZA2M_ANPR/ANPR_RZA2M_GR_MANGO/src/tensorflow_lite/tensorflow/lite/kernels\kernel_util.h **** TfLiteStatus GetInputSafe(const TfLiteContext* context, const TfLiteNode* node,
  52:C:/Renesas/e2studio_2021_01_workspace_RZA2M_ANPR/ANPR_RZA2M_GR_MANGO/src/tensorflow_lite/tensorflow/lite/kernels\kernel_util.h ****                           int index, const TfLiteTensor** tensor);
  53:C:/Renesas/e2studio_2021_01_workspace_RZA2M_ANPR/ANPR_RZA2M_GR_MANGO/src/tensorflow_lite/tensorflow/lite/kernels\kernel_util.h **** 
  54:C:/Renesas/e2studio_2021_01_workspace_RZA2M_ANPR/ANPR_RZA2M_GR_MANGO/src/tensorflow_lite/tensorflow/lite/kernels\kernel_util.h **** // Note: You must check if result is not null:
  55:C:/Renesas/e2studio_2021_01_workspace_RZA2M_ANPR/ANPR_RZA2M_GR_MANGO/src/tensorflow_lite/tensorflow/lite/kernels\kernel_util.h **** //
  56:C:/Renesas/e2studio_2021_01_workspace_RZA2M_ANPR/ANPR_RZA2M_GR_MANGO/src/tensorflow_lite/tensorflow/lite/kernels\kernel_util.h **** //   TfLiteTensor* my_tensor = GetVariableInput(context, node, kMyTensorIdx);
  57:C:/Renesas/e2studio_2021_01_workspace_RZA2M_ANPR/ANPR_RZA2M_GR_MANGO/src/tensorflow_lite/tensorflow/lite/kernels\kernel_util.h **** //   TF_LITE_ENSURE(context, my_tensor != nullptr);
  58:C:/Renesas/e2studio_2021_01_workspace_RZA2M_ANPR/ANPR_RZA2M_GR_MANGO/src/tensorflow_lite/tensorflow/lite/kernels\kernel_util.h **** //
  59:C:/Renesas/e2studio_2021_01_workspace_RZA2M_ANPR/ANPR_RZA2M_GR_MANGO/src/tensorflow_lite/tensorflow/lite/kernels\kernel_util.h **** // This is because the index might point to the optional tensor constant
  60:C:/Renesas/e2studio_2021_01_workspace_RZA2M_ANPR/ANPR_RZA2M_GR_MANGO/src/tensorflow_lite/tensorflow/lite/kernels\kernel_util.h **** // (kTfLiteOptionalTensor) in which case there is no tensor to return.
  61:C:/Renesas/e2studio_2021_01_workspace_RZA2M_ANPR/ANPR_RZA2M_GR_MANGO/src/tensorflow_lite/tensorflow/lite/kernels\kernel_util.h **** TfLiteTensor* GetVariableInput(TfLiteContext* context, const TfLiteNode* node,
  62:C:/Renesas/e2studio_2021_01_workspace_RZA2M_ANPR/ANPR_RZA2M_GR_MANGO/src/tensorflow_lite/tensorflow/lite/kernels\kernel_util.h ****                                int index);
  63:C:/Renesas/e2studio_2021_01_workspace_RZA2M_ANPR/ANPR_RZA2M_GR_MANGO/src/tensorflow_lite/tensorflow/lite/kernels\kernel_util.h **** 
  64:C:/Renesas/e2studio_2021_01_workspace_RZA2M_ANPR/ANPR_RZA2M_GR_MANGO/src/tensorflow_lite/tensorflow/lite/kernels\kernel_util.h **** // Note: You must check if result is not null:
  65:C:/Renesas/e2studio_2021_01_workspace_RZA2M_ANPR/ANPR_RZA2M_GR_MANGO/src/tensorflow_lite/tensorflow/lite/kernels\kernel_util.h **** //
  66:C:/Renesas/e2studio_2021_01_workspace_RZA2M_ANPR/ANPR_RZA2M_GR_MANGO/src/tensorflow_lite/tensorflow/lite/kernels\kernel_util.h **** //   TfLiteTensor* my_tensor = GetOutput(context, node, kMyTensorIdx);
  67:C:/Renesas/e2studio_2021_01_workspace_RZA2M_ANPR/ANPR_RZA2M_GR_MANGO/src/tensorflow_lite/tensorflow/lite/kernels\kernel_util.h **** //   TF_LITE_ENSURE(context, my_tensor != nullptr);
  68:C:/Renesas/e2studio_2021_01_workspace_RZA2M_ANPR/ANPR_RZA2M_GR_MANGO/src/tensorflow_lite/tensorflow/lite/kernels\kernel_util.h **** //
  69:C:/Renesas/e2studio_2021_01_workspace_RZA2M_ANPR/ANPR_RZA2M_GR_MANGO/src/tensorflow_lite/tensorflow/lite/kernels\kernel_util.h **** // This is because the index might point to the optional tensor constant
  70:C:/Renesas/e2studio_2021_01_workspace_RZA2M_ANPR/ANPR_RZA2M_GR_MANGO/src/tensorflow_lite/tensorflow/lite/kernels\kernel_util.h **** // (kTfLiteOptionalTensor) in which case there is no tensor to return.
  71:C:/Renesas/e2studio_2021_01_workspace_RZA2M_ANPR/ANPR_RZA2M_GR_MANGO/src/tensorflow_lite/tensorflow/lite/kernels\kernel_util.h **** TfLiteTensor* GetOutput(TfLiteContext* context, const TfLiteNode* node,
  72:C:/Renesas/e2studio_2021_01_workspace_RZA2M_ANPR/ANPR_RZA2M_GR_MANGO/src/tensorflow_lite/tensorflow/lite/kernels\kernel_util.h ****                         int index);
  73:C:/Renesas/e2studio_2021_01_workspace_RZA2M_ANPR/ANPR_RZA2M_GR_MANGO/src/tensorflow_lite/tensorflow/lite/kernels\kernel_util.h **** 
  74:C:/Renesas/e2studio_2021_01_workspace_RZA2M_ANPR/ANPR_RZA2M_GR_MANGO/src/tensorflow_lite/tensorflow/lite/kernels\kernel_util.h **** // Same as `GetOutput` but returns boolean and uses output argument for tensor.
  75:C:/Renesas/e2studio_2021_01_workspace_RZA2M_ANPR/ANPR_RZA2M_GR_MANGO/src/tensorflow_lite/tensorflow/lite/kernels\kernel_util.h **** //
  76:C:/Renesas/e2studio_2021_01_workspace_RZA2M_ANPR/ANPR_RZA2M_GR_MANGO/src/tensorflow_lite/tensorflow/lite/kernels\kernel_util.h **** //   TfLiteTensor* my_tensor;
  77:C:/Renesas/e2studio_2021_01_workspace_RZA2M_ANPR/ANPR_RZA2M_GR_MANGO/src/tensorflow_lite/tensorflow/lite/kernels\kernel_util.h **** //   TF_LITE_ENSURE_OK(context,
  78:C:/Renesas/e2studio_2021_01_workspace_RZA2M_ANPR/ANPR_RZA2M_GR_MANGO/src/tensorflow_lite/tensorflow/lite/kernels\kernel_util.h **** //                     GetOutputSafe(context, node, kMyTensorIdx, &my_tensor));
  79:C:/Renesas/e2studio_2021_01_workspace_RZA2M_ANPR/ANPR_RZA2M_GR_MANGO/src/tensorflow_lite/tensorflow/lite/kernels\kernel_util.h **** //   // can use my_tensor directly from here onwards, it is not nullptr
  80:C:/Renesas/e2studio_2021_01_workspace_RZA2M_ANPR/ANPR_RZA2M_GR_MANGO/src/tensorflow_lite/tensorflow/lite/kernels\kernel_util.h **** //
  81:C:/Renesas/e2studio_2021_01_workspace_RZA2M_ANPR/ANPR_RZA2M_GR_MANGO/src/tensorflow_lite/tensorflow/lite/kernels\kernel_util.h **** // Should be used in cases where the binary size is too large.
  82:C:/Renesas/e2studio_2021_01_workspace_RZA2M_ANPR/ANPR_RZA2M_GR_MANGO/src/tensorflow_lite/tensorflow/lite/kernels\kernel_util.h **** TfLiteStatus GetOutputSafe(const TfLiteContext* context, const TfLiteNode* node,
  83:C:/Renesas/e2studio_2021_01_workspace_RZA2M_ANPR/ANPR_RZA2M_GR_MANGO/src/tensorflow_lite/tensorflow/lite/kernels\kernel_util.h ****                            int index, TfLiteTensor** tensor);
  84:C:/Renesas/e2studio_2021_01_workspace_RZA2M_ANPR/ANPR_RZA2M_GR_MANGO/src/tensorflow_lite/tensorflow/lite/kernels\kernel_util.h **** 
  85:C:/Renesas/e2studio_2021_01_workspace_RZA2M_ANPR/ANPR_RZA2M_GR_MANGO/src/tensorflow_lite/tensorflow/lite/kernels\kernel_util.h **** // Note: You must check if result is not null:
  86:C:/Renesas/e2studio_2021_01_workspace_RZA2M_ANPR/ANPR_RZA2M_GR_MANGO/src/tensorflow_lite/tensorflow/lite/kernels\kernel_util.h **** //
  87:C:/Renesas/e2studio_2021_01_workspace_RZA2M_ANPR/ANPR_RZA2M_GR_MANGO/src/tensorflow_lite/tensorflow/lite/kernels\kernel_util.h **** //   TfLiteTensor* my_tensor = GetOptionalInputTensor(context, node, kIdx);
  88:C:/Renesas/e2studio_2021_01_workspace_RZA2M_ANPR/ANPR_RZA2M_GR_MANGO/src/tensorflow_lite/tensorflow/lite/kernels\kernel_util.h **** //   TF_LITE_ENSURE(context, my_tensor != nullptr);
  89:C:/Renesas/e2studio_2021_01_workspace_RZA2M_ANPR/ANPR_RZA2M_GR_MANGO/src/tensorflow_lite/tensorflow/lite/kernels\kernel_util.h **** //
  90:C:/Renesas/e2studio_2021_01_workspace_RZA2M_ANPR/ANPR_RZA2M_GR_MANGO/src/tensorflow_lite/tensorflow/lite/kernels\kernel_util.h **** // This is because the index might point to the optional tensor constant
  91:C:/Renesas/e2studio_2021_01_workspace_RZA2M_ANPR/ANPR_RZA2M_GR_MANGO/src/tensorflow_lite/tensorflow/lite/kernels\kernel_util.h **** // (kTfLiteOptionalTensor) in which case there is no tensor to return.
  92:C:/Renesas/e2studio_2021_01_workspace_RZA2M_ANPR/ANPR_RZA2M_GR_MANGO/src/tensorflow_lite/tensorflow/lite/kernels\kernel_util.h **** //
  93:C:/Renesas/e2studio_2021_01_workspace_RZA2M_ANPR/ANPR_RZA2M_GR_MANGO/src/tensorflow_lite/tensorflow/lite/kernels\kernel_util.h **** // Deprecated. GetInput has the same functionality.
  94:C:/Renesas/e2studio_2021_01_workspace_RZA2M_ANPR/ANPR_RZA2M_GR_MANGO/src/tensorflow_lite/tensorflow/lite/kernels\kernel_util.h **** const TfLiteTensor* GetOptionalInputTensor(const TfLiteContext* context,
  95:C:/Renesas/e2studio_2021_01_workspace_RZA2M_ANPR/ANPR_RZA2M_GR_MANGO/src/tensorflow_lite/tensorflow/lite/kernels\kernel_util.h ****                                            const TfLiteNode* node, int index);
  96:C:/Renesas/e2studio_2021_01_workspace_RZA2M_ANPR/ANPR_RZA2M_GR_MANGO/src/tensorflow_lite/tensorflow/lite/kernels\kernel_util.h **** 
  97:C:/Renesas/e2studio_2021_01_workspace_RZA2M_ANPR/ANPR_RZA2M_GR_MANGO/src/tensorflow_lite/tensorflow/lite/kernels\kernel_util.h **** #ifndef TF_LITE_STATIC_MEMORY
  98:C:/Renesas/e2studio_2021_01_workspace_RZA2M_ANPR/ANPR_RZA2M_GR_MANGO/src/tensorflow_lite/tensorflow/lite/kernels\kernel_util.h **** // Note: You must check if result is not null:
  99:C:/Renesas/e2studio_2021_01_workspace_RZA2M_ANPR/ANPR_RZA2M_GR_MANGO/src/tensorflow_lite/tensorflow/lite/kernels\kernel_util.h **** //
 100:C:/Renesas/e2studio_2021_01_workspace_RZA2M_ANPR/ANPR_RZA2M_GR_MANGO/src/tensorflow_lite/tensorflow/lite/kernels\kernel_util.h **** //   TfLiteTensor* my_tensor = GetTemporary(context, node, kMyTensorIdx);
 101:C:/Renesas/e2studio_2021_01_workspace_RZA2M_ANPR/ANPR_RZA2M_GR_MANGO/src/tensorflow_lite/tensorflow/lite/kernels\kernel_util.h **** //   TF_LITE_ENSURE(context, my_tensor != nullptr);
 102:C:/Renesas/e2studio_2021_01_workspace_RZA2M_ANPR/ANPR_RZA2M_GR_MANGO/src/tensorflow_lite/tensorflow/lite/kernels\kernel_util.h **** //
 103:C:/Renesas/e2studio_2021_01_workspace_RZA2M_ANPR/ANPR_RZA2M_GR_MANGO/src/tensorflow_lite/tensorflow/lite/kernels\kernel_util.h **** // This is because the index might point to the optional tensor constant
 104:C:/Renesas/e2studio_2021_01_workspace_RZA2M_ANPR/ANPR_RZA2M_GR_MANGO/src/tensorflow_lite/tensorflow/lite/kernels\kernel_util.h **** // (kTfLiteOptionalTensor) in which case there is no tensor to return.
 105:C:/Renesas/e2studio_2021_01_workspace_RZA2M_ANPR/ANPR_RZA2M_GR_MANGO/src/tensorflow_lite/tensorflow/lite/kernels\kernel_util.h **** TfLiteTensor* GetTemporary(TfLiteContext* context, const TfLiteNode* node,
 106:C:/Renesas/e2studio_2021_01_workspace_RZA2M_ANPR/ANPR_RZA2M_GR_MANGO/src/tensorflow_lite/tensorflow/lite/kernels\kernel_util.h ****                            int index);
 107:C:/Renesas/e2studio_2021_01_workspace_RZA2M_ANPR/ANPR_RZA2M_GR_MANGO/src/tensorflow_lite/tensorflow/lite/kernels\kernel_util.h **** 
 108:C:/Renesas/e2studio_2021_01_workspace_RZA2M_ANPR/ANPR_RZA2M_GR_MANGO/src/tensorflow_lite/tensorflow/lite/kernels\kernel_util.h **** // Same as `GetTemporary` but returns boolean and uses output argument for
 109:C:/Renesas/e2studio_2021_01_workspace_RZA2M_ANPR/ANPR_RZA2M_GR_MANGO/src/tensorflow_lite/tensorflow/lite/kernels\kernel_util.h **** // tensor.
 110:C:/Renesas/e2studio_2021_01_workspace_RZA2M_ANPR/ANPR_RZA2M_GR_MANGO/src/tensorflow_lite/tensorflow/lite/kernels\kernel_util.h **** //
 111:C:/Renesas/e2studio_2021_01_workspace_RZA2M_ANPR/ANPR_RZA2M_GR_MANGO/src/tensorflow_lite/tensorflow/lite/kernels\kernel_util.h **** //   TfLiteTensor* my_tensor;
 112:C:/Renesas/e2studio_2021_01_workspace_RZA2M_ANPR/ANPR_RZA2M_GR_MANGO/src/tensorflow_lite/tensorflow/lite/kernels\kernel_util.h **** //   TF_LITE_ENSURE_OK(context,
 113:C:/Renesas/e2studio_2021_01_workspace_RZA2M_ANPR/ANPR_RZA2M_GR_MANGO/src/tensorflow_lite/tensorflow/lite/kernels\kernel_util.h **** //                     GetTemporarySafe(context, node, kMyTensorIdx,
 114:C:/Renesas/e2studio_2021_01_workspace_RZA2M_ANPR/ANPR_RZA2M_GR_MANGO/src/tensorflow_lite/tensorflow/lite/kernels\kernel_util.h **** //                     &my_tensor));
 115:C:/Renesas/e2studio_2021_01_workspace_RZA2M_ANPR/ANPR_RZA2M_GR_MANGO/src/tensorflow_lite/tensorflow/lite/kernels\kernel_util.h **** //   // can use my_tensor directly from here onwards, it is not nullptr
 116:C:/Renesas/e2studio_2021_01_workspace_RZA2M_ANPR/ANPR_RZA2M_GR_MANGO/src/tensorflow_lite/tensorflow/lite/kernels\kernel_util.h **** //
 117:C:/Renesas/e2studio_2021_01_workspace_RZA2M_ANPR/ANPR_RZA2M_GR_MANGO/src/tensorflow_lite/tensorflow/lite/kernels\kernel_util.h **** // Should be used in cases where the binary size is too large.
 118:C:/Renesas/e2studio_2021_01_workspace_RZA2M_ANPR/ANPR_RZA2M_GR_MANGO/src/tensorflow_lite/tensorflow/lite/kernels\kernel_util.h **** TfLiteStatus GetTemporarySafe(const TfLiteContext* context,
 119:C:/Renesas/e2studio_2021_01_workspace_RZA2M_ANPR/ANPR_RZA2M_GR_MANGO/src/tensorflow_lite/tensorflow/lite/kernels\kernel_util.h ****                               const TfLiteNode* node, int index,
 120:C:/Renesas/e2studio_2021_01_workspace_RZA2M_ANPR/ANPR_RZA2M_GR_MANGO/src/tensorflow_lite/tensorflow/lite/kernels\kernel_util.h ****                               TfLiteTensor** tensor);
 121:C:/Renesas/e2studio_2021_01_workspace_RZA2M_ANPR/ANPR_RZA2M_GR_MANGO/src/tensorflow_lite/tensorflow/lite/kernels\kernel_util.h **** 
 122:C:/Renesas/e2studio_2021_01_workspace_RZA2M_ANPR/ANPR_RZA2M_GR_MANGO/src/tensorflow_lite/tensorflow/lite/kernels\kernel_util.h **** // Note: You must check if result is not null:
 123:C:/Renesas/e2studio_2021_01_workspace_RZA2M_ANPR/ANPR_RZA2M_GR_MANGO/src/tensorflow_lite/tensorflow/lite/kernels\kernel_util.h **** //
 124:C:/Renesas/e2studio_2021_01_workspace_RZA2M_ANPR/ANPR_RZA2M_GR_MANGO/src/tensorflow_lite/tensorflow/lite/kernels\kernel_util.h **** //   TfLiteTensor* my_tensor = GetIntermediates(context, node, kMyTensorIdx);
 125:C:/Renesas/e2studio_2021_01_workspace_RZA2M_ANPR/ANPR_RZA2M_GR_MANGO/src/tensorflow_lite/tensorflow/lite/kernels\kernel_util.h **** //   TF_LITE_ENSURE(context, my_tensor != nullptr);
 126:C:/Renesas/e2studio_2021_01_workspace_RZA2M_ANPR/ANPR_RZA2M_GR_MANGO/src/tensorflow_lite/tensorflow/lite/kernels\kernel_util.h **** //
 127:C:/Renesas/e2studio_2021_01_workspace_RZA2M_ANPR/ANPR_RZA2M_GR_MANGO/src/tensorflow_lite/tensorflow/lite/kernels\kernel_util.h **** // This is because the index might point to the optional tensor constant
 128:C:/Renesas/e2studio_2021_01_workspace_RZA2M_ANPR/ANPR_RZA2M_GR_MANGO/src/tensorflow_lite/tensorflow/lite/kernels\kernel_util.h **** // (kTfLiteOptionalTensor) in which case there is no tensor to return.
 129:C:/Renesas/e2studio_2021_01_workspace_RZA2M_ANPR/ANPR_RZA2M_GR_MANGO/src/tensorflow_lite/tensorflow/lite/kernels\kernel_util.h **** const TfLiteTensor* GetIntermediates(TfLiteContext* context,
 130:C:/Renesas/e2studio_2021_01_workspace_RZA2M_ANPR/ANPR_RZA2M_GR_MANGO/src/tensorflow_lite/tensorflow/lite/kernels\kernel_util.h ****                                      const TfLiteNode* node, int index);
 131:C:/Renesas/e2studio_2021_01_workspace_RZA2M_ANPR/ANPR_RZA2M_GR_MANGO/src/tensorflow_lite/tensorflow/lite/kernels\kernel_util.h **** 
 132:C:/Renesas/e2studio_2021_01_workspace_RZA2M_ANPR/ANPR_RZA2M_GR_MANGO/src/tensorflow_lite/tensorflow/lite/kernels\kernel_util.h **** // Same as `GetIntermediates` but returns boolean and uses output argument for
 133:C:/Renesas/e2studio_2021_01_workspace_RZA2M_ANPR/ANPR_RZA2M_GR_MANGO/src/tensorflow_lite/tensorflow/lite/kernels\kernel_util.h **** // tensor.
 134:C:/Renesas/e2studio_2021_01_workspace_RZA2M_ANPR/ANPR_RZA2M_GR_MANGO/src/tensorflow_lite/tensorflow/lite/kernels\kernel_util.h **** //
 135:C:/Renesas/e2studio_2021_01_workspace_RZA2M_ANPR/ANPR_RZA2M_GR_MANGO/src/tensorflow_lite/tensorflow/lite/kernels\kernel_util.h **** //   TfLiteTensor* my_tensor;
 136:C:/Renesas/e2studio_2021_01_workspace_RZA2M_ANPR/ANPR_RZA2M_GR_MANGO/src/tensorflow_lite/tensorflow/lite/kernels\kernel_util.h **** //   TF_LITE_ENSURE_OK(context,
 137:C:/Renesas/e2studio_2021_01_workspace_RZA2M_ANPR/ANPR_RZA2M_GR_MANGO/src/tensorflow_lite/tensorflow/lite/kernels\kernel_util.h **** //                     GetIntermediatesSafe(context, node, kMyTensorIdx,
 138:C:/Renesas/e2studio_2021_01_workspace_RZA2M_ANPR/ANPR_RZA2M_GR_MANGO/src/tensorflow_lite/tensorflow/lite/kernels\kernel_util.h **** //                     &my_tensor));
 139:C:/Renesas/e2studio_2021_01_workspace_RZA2M_ANPR/ANPR_RZA2M_GR_MANGO/src/tensorflow_lite/tensorflow/lite/kernels\kernel_util.h **** //   // can use my_tensor directly from here onwards, it is not nullptr
 140:C:/Renesas/e2studio_2021_01_workspace_RZA2M_ANPR/ANPR_RZA2M_GR_MANGO/src/tensorflow_lite/tensorflow/lite/kernels\kernel_util.h **** //
 141:C:/Renesas/e2studio_2021_01_workspace_RZA2M_ANPR/ANPR_RZA2M_GR_MANGO/src/tensorflow_lite/tensorflow/lite/kernels\kernel_util.h **** // Should be used in cases where the binary size is too large.
 142:C:/Renesas/e2studio_2021_01_workspace_RZA2M_ANPR/ANPR_RZA2M_GR_MANGO/src/tensorflow_lite/tensorflow/lite/kernels\kernel_util.h **** TfLiteStatus GetIntermediatesSafe(const TfLiteContext* context,
 143:C:/Renesas/e2studio_2021_01_workspace_RZA2M_ANPR/ANPR_RZA2M_GR_MANGO/src/tensorflow_lite/tensorflow/lite/kernels\kernel_util.h ****                                   const TfLiteNode* node, int index,
 144:C:/Renesas/e2studio_2021_01_workspace_RZA2M_ANPR/ANPR_RZA2M_GR_MANGO/src/tensorflow_lite/tensorflow/lite/kernels\kernel_util.h ****                                   TfLiteTensor** tensor);
 145:C:/Renesas/e2studio_2021_01_workspace_RZA2M_ANPR/ANPR_RZA2M_GR_MANGO/src/tensorflow_lite/tensorflow/lite/kernels\kernel_util.h **** #endif  // TF_LITE_STATIC_MEMORY
 146:C:/Renesas/e2studio_2021_01_workspace_RZA2M_ANPR/ANPR_RZA2M_GR_MANGO/src/tensorflow_lite/tensorflow/lite/kernels\kernel_util.h **** 
 147:C:/Renesas/e2studio_2021_01_workspace_RZA2M_ANPR/ANPR_RZA2M_GR_MANGO/src/tensorflow_lite/tensorflow/lite/kernels\kernel_util.h **** inline int NumDimensions(const TfLiteTensor* t) { return t->dims->size; }
 148:C:/Renesas/e2studio_2021_01_workspace_RZA2M_ANPR/ANPR_RZA2M_GR_MANGO/src/tensorflow_lite/tensorflow/lite/kernels\kernel_util.h **** inline int SizeOfDimension(const TfLiteTensor* t, int dim) {
 149:C:/Renesas/e2studio_2021_01_workspace_RZA2M_ANPR/ANPR_RZA2M_GR_MANGO/src/tensorflow_lite/tensorflow/lite/kernels\kernel_util.h ****   return t->dims->data[dim];
 150:C:/Renesas/e2studio_2021_01_workspace_RZA2M_ANPR/ANPR_RZA2M_GR_MANGO/src/tensorflow_lite/tensorflow/lite/kernels\kernel_util.h **** }
 151:C:/Renesas/e2studio_2021_01_workspace_RZA2M_ANPR/ANPR_RZA2M_GR_MANGO/src/tensorflow_lite/tensorflow/lite/kernels\kernel_util.h **** 
 152:C:/Renesas/e2studio_2021_01_workspace_RZA2M_ANPR/ANPR_RZA2M_GR_MANGO/src/tensorflow_lite/tensorflow/lite/kernels\kernel_util.h **** inline int NumInputs(const TfLiteNode* node) { return node->inputs->size; }
  73              		.loc 2 152 0
  74 0000 003091E5 		ldr	r3, [r1]
  75              	.LBE210:
  76              	.LBE209:
  77              		.loc 1 92 0
  78 0004 F04F2DE9 		push	{r4, r5, r6, r7, r8, r9, r10, fp, lr}
  79              		.save {r4, r5, r6, r7, r8, r9, r10, fp, lr}
  80              		.cfi_def_cfa_offset 36
  81              		.cfi_offset 4, -36
  82              		.cfi_offset 5, -32
  83              		.cfi_offset 6, -28
  84              		.cfi_offset 7, -24
  85              		.cfi_offset 8, -20
  86              		.cfi_offset 9, -16
  87              		.cfi_offset 10, -12
  88              		.cfi_offset 11, -8
  89              		.cfi_offset 14, -4
  90 0008 0070A0E1 		mov	r7, r0
  91              	.LVL5:
  92 000c 0C8B2DED 		vpush.64	{d8, d9, d10, d11, d12, d13}
  93              		.vsave {d8, d9, d10, d11, d12, d13}
  94              		.cfi_def_cfa_offset 84
  95              		.cfi_offset 80, -84
  96              		.cfi_offset 81, -80
  97              		.cfi_offset 82, -76
  98              		.cfi_offset 83, -72
  99              		.cfi_offset 84, -68
 100              		.cfi_offset 85, -64
 101              		.cfi_offset 86, -60
 102              		.cfi_offset 87, -56
 103              		.cfi_offset 88, -52
 104              		.cfi_offset 89, -48
 105              		.cfi_offset 90, -44
 106              		.cfi_offset 91, -40
 107              		.pad #52
 108 0010 34D04DE2 		sub	sp, sp, #52
 109              		.cfi_def_cfa_offset 136
 110              	.LBB212:
 111              	.LBB211:
 112              		.loc 2 152 0
 113 0014 005093E5 		ldr	r5, [r3]
 114              	.LBE211:
 115              	.LBE212:
  93:../src/tensorflow_lite/tensorflow/lite/micro/kernels/softmax_common.cc ****   TF_LITE_ENSURE_EQ(context, NumInputs(node), 1);
 116              		.loc 1 93 0
 117 0018 010055E3 		cmp	r5, #1
 118 001c 3D00001A 		bne	.L68
 119              	.LBB213:
 120              	.LBB214:
 153:C:/Renesas/e2studio_2021_01_workspace_RZA2M_ANPR/ANPR_RZA2M_GR_MANGO/src/tensorflow_lite/tensorflow/lite/kernels\kernel_util.h **** inline int NumOutputs(const TfLiteNode* node) { return node->outputs->size; }
 121              		.loc 2 153 0
 122 0020 043091E5 		ldr	r3, [r1, #4]
 123 0024 0160A0E1 		mov	r6, r1
 124              	.LVL6:
 125 0028 004093E5 		ldr	r4, [r3]
 126              	.LBE214:
 127              	.LBE213:
  94:../src/tensorflow_lite/tensorflow/lite/micro/kernels/softmax_common.cc ****   TF_LITE_ENSURE_EQ(context, NumOutputs(node), 1);
 128              		.loc 1 94 0
 129 002c 010054E3 		cmp	r4, #1
 130 0030 1100000A 		beq	.L11
 131              	.LVL7:
 132              		.loc 1 94 0 is_stmt 0 discriminator 1
 133 0034 00E000E3 		movw	lr, #:lower16:.LC2
 134 0038 00C000E3 		movw	ip, #:lower16:.LC4
 135 003c 00E040E3 		movt	lr, #:upper16:.LC2
 136 0040 00C040E3 		movt	ip, #:upper16:.LC4
 137 0044 002000E3 		movw	r2, #:lower16:.LC0
 138 0048 001000E3 		movw	r1, #:lower16:.LC1
 139              	.LVL8:
 140 004c 0C508DE5 		str	r5, [sp, #12]
 141 0050 002040E3 		movt	r2, #:upper16:.LC0
 142 0054 08408DE5 		str	r4, [sp, #8]
 143 0058 001040E3 		movt	r1, #:upper16:.LC1
 144 005c 144090E5 		ldr	r4, [r0, #20]
 145 0060 5E30A0E3 		mov	r3, #94
 146 0064 00508DE8 		stm	sp, {ip, lr}
 147 0068 34FF2FE1 		blx	r4
 148              	.LVL9:
 149 006c 0500A0E1 		mov	r0, r5
 150              	.LVL10:
 151              	.L63:
  95:../src/tensorflow_lite/tensorflow/lite/micro/kernels/softmax_common.cc ****   const TfLiteTensor* input = GetInput(context, node, 0);
  96:../src/tensorflow_lite/tensorflow/lite/micro/kernels/softmax_common.cc ****   TF_LITE_ENSURE(context, input != nullptr);
  97:../src/tensorflow_lite/tensorflow/lite/micro/kernels/softmax_common.cc ****   TF_LITE_ENSURE(context, NumDimensions(input) >= 1);
  98:../src/tensorflow_lite/tensorflow/lite/micro/kernels/softmax_common.cc ****   TfLiteTensor* output = GetOutput(context, node, 0);
  99:../src/tensorflow_lite/tensorflow/lite/micro/kernels/softmax_common.cc ****   TF_LITE_ENSURE(context, output != nullptr);
 100:../src/tensorflow_lite/tensorflow/lite/micro/kernels/softmax_common.cc **** 
 101:../src/tensorflow_lite/tensorflow/lite/micro/kernels/softmax_common.cc ****   TF_LITE_ENSURE(context, node->user_data != nullptr);
 102:../src/tensorflow_lite/tensorflow/lite/micro/kernels/softmax_common.cc ****   SoftmaxParams* op_data = static_cast<SoftmaxParams*>(node->user_data);
 103:../src/tensorflow_lite/tensorflow/lite/micro/kernels/softmax_common.cc ****   // Only allocate LUTs for KTfLiteInt16 data type
 104:../src/tensorflow_lite/tensorflow/lite/micro/kernels/softmax_common.cc ****   if (input->type == kTfLiteInt16) {
 105:../src/tensorflow_lite/tensorflow/lite/micro/kernels/softmax_common.cc ****     void* raw_exp_lut = context->AllocatePersistentBuffer(
 106:../src/tensorflow_lite/tensorflow/lite/micro/kernels/softmax_common.cc ****         context, sizeof(int16_t) * kInt16LUTArraySize);
 107:../src/tensorflow_lite/tensorflow/lite/micro/kernels/softmax_common.cc ****     TF_LITE_ENSURE(context, raw_exp_lut != nullptr);
 108:../src/tensorflow_lite/tensorflow/lite/micro/kernels/softmax_common.cc ****     op_data->exp_lut = reinterpret_cast<int16_t*>(raw_exp_lut);
 109:../src/tensorflow_lite/tensorflow/lite/micro/kernels/softmax_common.cc ****     void* one_over_one_plus_x_lut = context->AllocatePersistentBuffer(
 110:../src/tensorflow_lite/tensorflow/lite/micro/kernels/softmax_common.cc ****         context, sizeof(int16_t) * kInt16LUTArraySize);
 111:../src/tensorflow_lite/tensorflow/lite/micro/kernels/softmax_common.cc ****     TF_LITE_ENSURE(context, one_over_one_plus_x_lut != nullptr);
 112:../src/tensorflow_lite/tensorflow/lite/micro/kernels/softmax_common.cc ****     op_data->one_over_one_plus_x_lut =
 113:../src/tensorflow_lite/tensorflow/lite/micro/kernels/softmax_common.cc ****         reinterpret_cast<int16_t*>(one_over_one_plus_x_lut);
 114:../src/tensorflow_lite/tensorflow/lite/micro/kernels/softmax_common.cc ****   }
 115:../src/tensorflow_lite/tensorflow/lite/micro/kernels/softmax_common.cc **** 
 116:../src/tensorflow_lite/tensorflow/lite/micro/kernels/softmax_common.cc ****   if (output->type == kTfLiteInt16) {
 117:../src/tensorflow_lite/tensorflow/lite/micro/kernels/softmax_common.cc ****     TF_LITE_ENSURE(context,
 118:../src/tensorflow_lite/tensorflow/lite/micro/kernels/softmax_common.cc ****                    input->type == kTfLiteInt8 || input->type == kTfLiteInt16);
 119:../src/tensorflow_lite/tensorflow/lite/micro/kernels/softmax_common.cc ****   } else {
 120:../src/tensorflow_lite/tensorflow/lite/micro/kernels/softmax_common.cc ****     TF_LITE_ENSURE_EQ(context, input->type, output->type);
 121:../src/tensorflow_lite/tensorflow/lite/micro/kernels/softmax_common.cc ****   }
 122:../src/tensorflow_lite/tensorflow/lite/micro/kernels/softmax_common.cc **** 
 123:../src/tensorflow_lite/tensorflow/lite/micro/kernels/softmax_common.cc ****   // Populate LUT if required
 124:../src/tensorflow_lite/tensorflow/lite/micro/kernels/softmax_common.cc ****   if (input->type == kTfLiteInt16) {
 125:../src/tensorflow_lite/tensorflow/lite/micro/kernels/softmax_common.cc ****     TF_LITE_ENSURE_EQ(context, output->params.zero_point, 0);
 126:../src/tensorflow_lite/tensorflow/lite/micro/kernels/softmax_common.cc ****     // exp LUT only used on negative values
 127:../src/tensorflow_lite/tensorflow/lite/micro/kernels/softmax_common.cc ****     // we consider exp(-10.0) is insignificant to accumulation
 128:../src/tensorflow_lite/tensorflow/lite/micro/kernels/softmax_common.cc ****     gen_lut([](float value) { return std::exp(value); }, -10.0f, 0.0f,
 129:../src/tensorflow_lite/tensorflow/lite/micro/kernels/softmax_common.cc ****             op_data->exp_lut, kInt16LUTArraySize);
 130:../src/tensorflow_lite/tensorflow/lite/micro/kernels/softmax_common.cc ****     gen_lut([](float value) { return 1.0f / (1.0f + value); }, 0.0f, 1.0f,
 131:../src/tensorflow_lite/tensorflow/lite/micro/kernels/softmax_common.cc ****             op_data->one_over_one_plus_x_lut, kInt16LUTArraySize);
 132:../src/tensorflow_lite/tensorflow/lite/micro/kernels/softmax_common.cc ****     op_data->zero_point = output->params.zero_point;
 133:../src/tensorflow_lite/tensorflow/lite/micro/kernels/softmax_common.cc ****     op_data->scale = output->params.scale;
 134:../src/tensorflow_lite/tensorflow/lite/micro/kernels/softmax_common.cc ****   }
 135:../src/tensorflow_lite/tensorflow/lite/micro/kernels/softmax_common.cc **** 
 136:../src/tensorflow_lite/tensorflow/lite/micro/kernels/softmax_common.cc ****   auto* params = static_cast<TfLiteSoftmaxParams*>(node->builtin_data);
 137:../src/tensorflow_lite/tensorflow/lite/micro/kernels/softmax_common.cc ****   return CalculateSoftmaxParams(context, input, output, params, op_data);
 138:../src/tensorflow_lite/tensorflow/lite/micro/kernels/softmax_common.cc **** }
 152              		.loc 1 138 0 is_stmt 1
 153 0070 34D08DE2 		add	sp, sp, #52
 154              		.cfi_remember_state
 155              		.cfi_def_cfa_offset 84
 156              		@ sp needed
 157 0074 0C8BBDEC 		vldm	sp!, {d8-d13}
 158              		.cfi_restore 90
 159              		.cfi_restore 91
 160              		.cfi_restore 88
 161              		.cfi_restore 89
 162              		.cfi_restore 86
 163              		.cfi_restore 87
 164              		.cfi_restore 84
 165              		.cfi_restore 85
 166              		.cfi_restore 82
 167              		.cfi_restore 83
 168              		.cfi_restore 80
 169              		.cfi_restore 81
 170              		.cfi_def_cfa_offset 36
 171 0078 F08FBDE8 		pop	{r4, r5, r6, r7, r8, r9, r10, fp, pc}
 172              	.LVL11:
 173              	.L11:
 174              		.cfi_restore_state
  95:../src/tensorflow_lite/tensorflow/lite/micro/kernels/softmax_common.cc ****   const TfLiteTensor* input = GetInput(context, node, 0);
 175              		.loc 1 95 0
 176 007c 0020A0E3 		mov	r2, #0
 177 0080 FEFFFFEB 		bl	_ZN6tflite8GetInputEPK13TfLiteContextPK10TfLiteNodei
 178              	.LVL12:
  96:../src/tensorflow_lite/tensorflow/lite/micro/kernels/softmax_common.cc ****   TF_LITE_ENSURE(context, NumDimensions(input) >= 1);
 179              		.loc 1 96 0
 180 0084 005050E2 		subs	r5, r0, #0
 181 0088 A301000A 		beq	.L69
 182              	.LVL13:
 183              	.LBB215:
 184              	.LBB216:
 147:C:/Renesas/e2studio_2021_01_workspace_RZA2M_ANPR/ANPR_RZA2M_GR_MANGO/src/tensorflow_lite/tensorflow/lite/kernels\kernel_util.h **** inline int SizeOfDimension(const TfLiteTensor* t, int dim) {
 185              		.loc 2 147 0
 186 008c 083095E5 		ldr	r3, [r5, #8]
 187              	.LBE216:
 188              	.LBE215:
  97:../src/tensorflow_lite/tensorflow/lite/micro/kernels/softmax_common.cc ****   TfLiteTensor* output = GetOutput(context, node, 0);
 189              		.loc 1 97 0
 190 0090 003093E5 		ldr	r3, [r3]
 191 0094 000053E3 		cmp	r3, #0
 192 0098 320000DA 		ble	.L70
  98:../src/tensorflow_lite/tensorflow/lite/micro/kernels/softmax_common.cc ****   TF_LITE_ENSURE(context, output != nullptr);
 193              		.loc 1 98 0
 194 009c 0020A0E3 		mov	r2, #0
 195 00a0 0610A0E1 		mov	r1, r6
 196 00a4 0700A0E1 		mov	r0, r7
 197              	.LVL14:
 198 00a8 FEFFFFEB 		bl	_ZN6tflite9GetOutputEP13TfLiteContextPK10TfLiteNodei
 199              	.LVL15:
  99:../src/tensorflow_lite/tensorflow/lite/micro/kernels/softmax_common.cc **** 
 200              		.loc 1 99 0
 201 00ac 009050E2 		subs	r9, r0, #0
 202 00b0 B301000A 		beq	.L71
 101:../src/tensorflow_lite/tensorflow/lite/micro/kernels/softmax_common.cc ****   SoftmaxParams* op_data = static_cast<SoftmaxParams*>(node->user_data);
 203              		.loc 1 101 0
 204 00b4 108096E5 		ldr	r8, [r6, #16]
 205 00b8 000058E3 		cmp	r8, #0
 206 00bc BD01000A 		beq	.L72
 207              	.LVL16:
 208              	.LBB217:
 104:../src/tensorflow_lite/tensorflow/lite/micro/kernels/softmax_common.cc ****     void* raw_exp_lut = context->AllocatePersistentBuffer(
 209              		.loc 1 104 0
 210 00c0 00A0D5E5 		ldrb	r10, [r5]	@ zero_extendqisi2
 211 00c4 07005AE3 		cmp	r10, #7
 212 00c8 1301000A 		beq	.L73
 213              	.LVL17:
 214              	.L16:
 215              	.LBE217:
 116:../src/tensorflow_lite/tensorflow/lite/micro/kernels/softmax_common.cc ****     TF_LITE_ENSURE(context,
 216              		.loc 1 116 0
 217 00cc 0030D9E5 		ldrb	r3, [r9]	@ zero_extendqisi2
 218 00d0 070053E3 		cmp	r3, #7
 219 00d4 6600000A 		beq	.L74
 120:../src/tensorflow_lite/tensorflow/lite/micro/kernels/softmax_common.cc ****   }
 220              		.loc 1 120 0
 221 00d8 0A0053E1 		cmp	r3, r10
 222 00dc 5200001A 		bne	.L75
 223              	.LBB220:
 224              	.LBB221:
 225              	.LBB222:
  35:../src/tensorflow_lite/tensorflow/lite/micro/kernels/softmax_common.cc ****     if (input->type == kTfLiteInt16) {
 226              		.loc 1 35 0
 227 00e0 07304AE2 		sub	r3, r10, #7
 228              	.LBE222:
 229              	.LBE221:
 230              	.LBE220:
 136:../src/tensorflow_lite/tensorflow/lite/micro/kernels/softmax_common.cc ****   return CalculateSoftmaxParams(context, input, output, params, op_data);
 231              		.loc 1 136 0
 232 00e4 14C096E5 		ldr	ip, [r6, #20]
 233              	.LVL18:
 234              	.LBB275:
 235              	.LBB267:
 236              	.LBB256:
  35:../src/tensorflow_lite/tensorflow/lite/micro/kernels/softmax_common.cc ****     if (input->type == kTfLiteInt16) {
 237              		.loc 1 35 0
 238 00e8 FD0013E3 		tst	r3, #253
 239 00ec 2B00000A 		beq	.L32
 240              	.L31:
  78:../src/tensorflow_lite/tensorflow/lite/micro/kernels/softmax_common.cc ****     TF_LITE_ENSURE_TYPES_EQ(context, output->type, kTfLiteFloat32);
 241              		.loc 1 78 0
 242 00f0 01005AE3 		cmp	r10, #1
 243 00f4 4601001A 		bne	.L76
  79:../src/tensorflow_lite/tensorflow/lite/micro/kernels/softmax_common.cc ****     op_data->beta = static_cast<double>(params->beta);
 244              		.loc 1 79 0
 245 00f8 0000D9E5 		ldrb	r0, [r9]	@ zero_extendqisi2
 246 00fc 010050E3 		cmp	r0, #1
 247 0100 6F01001A 		bne	.L77
  80:../src/tensorflow_lite/tensorflow/lite/micro/kernels/softmax_common.cc ****   }
 248              		.loc 1 80 0
 249 0104 007ADCED 		vldr.32	s15, [ip]
 250              	.LBE256:
  82:../src/tensorflow_lite/tensorflow/lite/micro/kernels/softmax_common.cc **** }
 251              		.loc 1 82 0
 252 0108 0000A0E3 		mov	r0, #0
 253              	.LBB257:
  80:../src/tensorflow_lite/tensorflow/lite/micro/kernels/softmax_common.cc ****   }
 254              		.loc 1 80 0
 255 010c E70AF7EE 		vcvt.f64.f32	d16, s15
 256 0110 000BC8ED 		vstr.64	d16, [r8]
 257 0114 D5FFFFEA 		b	.L63
 258              	.LVL19:
 259              	.L68:
 260              	.LBE257:
 261              	.LBE267:
 262              	.LBE275:
  93:../src/tensorflow_lite/tensorflow/lite/micro/kernels/softmax_common.cc ****   TF_LITE_ENSURE_EQ(context, NumOutputs(node), 1);
 263              		.loc 1 93 0 discriminator 1
 264 0118 00C000E3 		movw	ip, #:lower16:.LC2
 265 011c 003000E3 		movw	r3, #:lower16:.LC3
 266 0120 00C040E3 		movt	ip, #:upper16:.LC2
 267 0124 0140A0E3 		mov	r4, #1
 268 0128 003040E3 		movt	r3, #:upper16:.LC3
 269 012c 002000E3 		movw	r2, #:lower16:.LC0
 270 0130 001000E3 		movw	r1, #:lower16:.LC1
 271              	.LVL20:
 272 0134 08508DE5 		str	r5, [sp, #8]
 273 0138 002040E3 		movt	r2, #:upper16:.LC0
 274 013c 145090E5 		ldr	r5, [r0, #20]
 275 0140 001040E3 		movt	r1, #:upper16:.LC1
 276 0144 00308DE5 		str	r3, [sp]
 277 0148 04C08DE5 		str	ip, [sp, #4]
 278 014c 5D30A0E3 		mov	r3, #93
 279 0150 0C408DE5 		str	r4, [sp, #12]
 280 0154 35FF2FE1 		blx	r5
 281              	.LVL21:
 282 0158 0400A0E1 		mov	r0, r4
 283              		.loc 1 138 0 discriminator 1
 284 015c 34D08DE2 		add	sp, sp, #52
 285              		.cfi_remember_state
 286              		.cfi_def_cfa_offset 84
 287              		@ sp needed
 288 0160 0C8BBDEC 		vldm	sp!, {d8-d13}
 289              		.cfi_restore 80
 290              		.cfi_restore 81
 291              		.cfi_restore 82
 292              		.cfi_restore 83
 293              		.cfi_restore 84
 294              		.cfi_restore 85
 295              		.cfi_restore 86
 296              		.cfi_restore 87
 297              		.cfi_restore 88
 298              		.cfi_restore 89
 299              		.cfi_restore 90
 300              		.cfi_restore 91
 301              		.cfi_def_cfa_offset 36
 302 0164 F08FBDE8 		pop	{r4, r5, r6, r7, r8, r9, r10, fp, pc}
 303              	.LVL22:
 304              	.L70:
 305              		.cfi_restore_state
  97:../src/tensorflow_lite/tensorflow/lite/micro/kernels/softmax_common.cc ****   TfLiteTensor* output = GetOutput(context, node, 0);
 306              		.loc 1 97 0 discriminator 1
 307 0168 003000E3 		movw	r3, #:lower16:.LC7
 308 016c 002000E3 		movw	r2, #:lower16:.LC0
 309 0170 003040E3 		movt	r3, #:upper16:.LC7
 310 0174 001000E3 		movw	r1, #:lower16:.LC5
 311 0178 00308DE5 		str	r3, [sp]
 312 017c 0700A0E1 		mov	r0, r7
 313              	.LVL23:
 314 0180 002040E3 		movt	r2, #:upper16:.LC0
 315 0184 001040E3 		movt	r1, #:upper16:.LC5
 316 0188 145097E5 		ldr	r5, [r7, #20]
 317              	.LVL24:
 318 018c 6130A0E3 		mov	r3, #97
 319 0190 35FF2FE1 		blx	r5
 320              	.LVL25:
 321 0194 0400A0E1 		mov	r0, r4
 322 0198 B4FFFFEA 		b	.L63
 323              	.LVL26:
 324              	.L22:
 136:../src/tensorflow_lite/tensorflow/lite/micro/kernels/softmax_common.cc ****   return CalculateSoftmaxParams(context, input, output, params, op_data);
 325              		.loc 1 136 0
 326 019c 14C096E5 		ldr	ip, [r6, #20]
 327              	.LVL27:
 328              	.L32:
 329              	.LBB276:
 330              	.LBB268:
 331              	.LBB258:
 332              	.LBB223:
 333              	.LBB224:
 334              	.LBB225:
  41:../src/tensorflow_lite/tensorflow/lite/micro/kernels/softmax_common.cc ****       if (output->type == kTfLiteInt16) {
 335              		.loc 1 41 0
 336 01a0 09005AE3 		cmp	r10, #9
 337 01a4 3001001A 		bne	.L78
 338              	.LBB226:
  42:../src/tensorflow_lite/tensorflow/lite/micro/kernels/softmax_common.cc ****         TF_LITE_ENSURE_EQ(context, output->params.zero_point, -32768);
 339              		.loc 1 42 0
 340 01a8 0000D9E5 		ldrb	r0, [r9]	@ zero_extendqisi2
 341 01ac 070050E3 		cmp	r0, #7
 342 01b0 A301000A 		beq	.L79
  47:../src/tensorflow_lite/tensorflow/lite/micro/kernels/softmax_common.cc ****         TF_LITE_ENSURE_EQ(context, output->params.zero_point, -128);
 343              		.loc 1 47 0
 344 01b4 090050E3 		cmp	r0, #9
 345 01b8 8B01001A 		bne	.L80
  48:../src/tensorflow_lite/tensorflow/lite/micro/kernels/softmax_common.cc ****         TF_LITE_ENSURE(context, output->params.scale == 1.f / 256);
 346              		.loc 1 48 0
 347 01bc 103099E5 		ldr	r3, [r9, #16]
 348 01c0 800073E3 		cmn	r3, #128
 349 01c4 C301001A 		bne	.L81
  49:../src/tensorflow_lite/tensorflow/lite/micro/kernels/softmax_common.cc ****       }
 350              		.loc 1 49 0
 351 01c8 F27ADFED 		vldr.32	s15, .L92+8
 352 01cc 037A99ED 		vldr.32	s14, [r9, #12]
 353 01d0 677AB4EE 		vcmp.f32	s14, s15
 354 01d4 10FAF1EE 		vmrs	APSR_nzcv, FPSCR
 355 01d8 1702001A 		bne	.L82
 356              	.L45:
 357              	.LBE226:
 358              	.LBE225:
 359              	.LBE224:
 360              	.LBB242:
  68:../src/tensorflow_lite/tensorflow/lite/micro/kernels/softmax_common.cc ****           static_cast<double>(params->beta),
 361              		.loc 1 68 0
 362 01dc 000A9CED 		vldr.32	s0, [ip]
  71:../src/tensorflow_lite/tensorflow/lite/micro/kernels/softmax_common.cc ****       op_data->input_left_shift = input_left_shift;
 363              		.loc 1 71 0
 364 01e0 2C208DE2 		add	r2, sp, #44
  68:../src/tensorflow_lite/tensorflow/lite/micro/kernels/softmax_common.cc ****           static_cast<double>(params->beta),
 365              		.loc 1 68 0
 366 01e4 031A95ED 		vldr.32	s2, [r5, #12]
  71:../src/tensorflow_lite/tensorflow/lite/micro/kernels/softmax_common.cc ****       op_data->input_left_shift = input_left_shift;
 367              		.loc 1 71 0
 368 01e8 081088E2 		add	r1, r8, #8
 369 01ec 0500A0E3 		mov	r0, #5
 370 01f0 C00AB7EE 		vcvt.f64.f32	d0, s0
 371 01f4 C11AB7EE 		vcvt.f64.f32	d1, s2
 372 01f8 FEFFFFEB 		bl	_ZN6tflite24PreprocessSoftmaxScalingEddiPlPi
 373              	.LVL28:
  72:../src/tensorflow_lite/tensorflow/lite/micro/kernels/softmax_common.cc ****       op_data->diff_min =
 374              		.loc 1 72 0
 375 01fc 2C109DE5 		ldr	r1, [sp, #44]
  74:../src/tensorflow_lite/tensorflow/lite/micro/kernels/softmax_common.cc ****                                               op_data->input_left_shift);
 376              		.loc 1 74 0
 377 0200 1F20A0E3 		mov	r2, #31
 378 0204 0500A0E3 		mov	r0, #5
  72:../src/tensorflow_lite/tensorflow/lite/micro/kernels/softmax_common.cc ****       op_data->diff_min =
 379              		.loc 1 72 0
 380 0208 0C1088E5 		str	r1, [r8, #12]
  74:../src/tensorflow_lite/tensorflow/lite/micro/kernels/softmax_common.cc ****                                               op_data->input_left_shift);
 381              		.loc 1 74 0
 382 020c FEFFFFEB 		bl	_ZN6tflite20CalculateInputRadiusEiii
 383              	.LVL29:
 384 0210 900A07EE 		vmov	s15, r0	@ int
 385              	.LBE242:
 386              	.LBE223:
 387              	.LBE258:
  82:../src/tensorflow_lite/tensorflow/lite/micro/kernels/softmax_common.cc **** }
 388              		.loc 1 82 0
 389 0214 0000A0E3 		mov	r0, #0
 390              	.LBB259:
 391              	.LBB250:
 392              	.LBB243:
  74:../src/tensorflow_lite/tensorflow/lite/micro/kernels/softmax_common.cc ****                                               op_data->input_left_shift);
 393              		.loc 1 74 0
 394 0218 E70BF8EE 		vcvt.f64.s32	d16, s15
 395 021c 600BF1EE 		vneg.f64	d16, d16
  75:../src/tensorflow_lite/tensorflow/lite/micro/kernels/softmax_common.cc ****     }
 396              		.loc 1 75 0
 397 0220 E07BFDEE 		vcvt.s32.f64	s15, d16
 398 0224 067AC8ED 		vstr.32	s15, [r8, #24]	@ int
 399 0228 90FFFFEA 		b	.L63
 400              	.LVL30:
 401              	.L75:
 402              	.LBE243:
 403              	.LBE250:
 404              	.LBE259:
 405              	.LBE268:
 406              	.LBE276:
 120:../src/tensorflow_lite/tensorflow/lite/micro/kernels/softmax_common.cc ****   }
 407              		.loc 1 120 0 discriminator 1
 408 022c 000000E3 		movw	r0, #:lower16:.LC13
 409 0230 00C000E3 		movw	ip, #:lower16:.LC14
 410 0234 000040E3 		movt	r0, #:upper16:.LC13
 411 0238 00C040E3 		movt	ip, #:upper16:.LC14
 412 023c 002000E3 		movw	r2, #:lower16:.LC0
 413 0240 001000E3 		movw	r1, #:lower16:.LC1
 414 0244 0C308DE5 		str	r3, [sp, #12]
 415 0248 002040E3 		movt	r2, #:upper16:.LC0
 416 024c 04008DE5 		str	r0, [sp, #4]
 417 0250 001040E3 		movt	r1, #:upper16:.LC1
 418 0254 08A08DE5 		str	r10, [sp, #8]
 419 0258 0700A0E1 		mov	r0, r7
 420 025c 00C08DE5 		str	ip, [sp]
 421 0260 7830A0E3 		mov	r3, #120
 422 0264 144097E5 		ldr	r4, [r7, #20]
 423 0268 34FF2FE1 		blx	r4
 424              	.LVL31:
 425 026c 0100A0E3 		mov	r0, #1
 426 0270 7EFFFFEA 		b	.L63
 427              	.L74:
 117:../src/tensorflow_lite/tensorflow/lite/micro/kernels/softmax_common.cc ****                    input->type == kTfLiteInt8 || input->type == kTfLiteInt16);
 428              		.loc 1 117 0
 429 0274 07304AE2 		sub	r3, r10, #7
 430 0278 FD3013E2 		ands	r3, r3, #253
 431 027c 3301001A 		bne	.L83
 432              	.LBB277:
 124:../src/tensorflow_lite/tensorflow/lite/micro/kernels/softmax_common.cc ****     TF_LITE_ENSURE_EQ(context, output->params.zero_point, 0);
 433              		.loc 1 124 0
 434 0280 07005AE3 		cmp	r10, #7
 435 0284 C4FFFF1A 		bne	.L22
 436              	.LBB278:
 125:../src/tensorflow_lite/tensorflow/lite/micro/kernels/softmax_common.cc ****     // exp LUT only used on negative values
 437              		.loc 1 125 0
 438 0288 104099E5 		ldr	r4, [r9, #16]
 439 028c 000054E3 		cmp	r4, #0
 440 0290 CD00001A 		bne	.L84
 441              	.LVL32:
 128:../src/tensorflow_lite/tensorflow/lite/micro/kernels/softmax_common.cc ****             op_data->exp_lut, kInt16LUTArraySize);
 442              		.loc 1 128 0
 443 0294 28A098E5 		ldr	r10, [r8, #40]
 444              	.LVL33:
 445 0298 BFAA9FED 		vldr.32	s20, .L92+12
 446              	.LBB279:
 447              	.LBB280:
 448              	.LBB281:
 449              	.LBB282:
 450              		.file 3 "C:/Renesas/e2studio_2021_01_workspace_RZA2M_ANPR/ANPR_RZA2M_GR_MANGO/src/tensorflow_lite/
   1:C:/Renesas/e2studio_2021_01_workspace_RZA2M_ANPR/ANPR_RZA2M_GR_MANGO/src/tensorflow_lite/tensorflow/lite/kernels/internal\common.h **** /* Copyright 2017 The TensorFlow Authors. All Rights Reserved.
   2:C:/Renesas/e2studio_2021_01_workspace_RZA2M_ANPR/ANPR_RZA2M_GR_MANGO/src/tensorflow_lite/tensorflow/lite/kernels/internal\common.h **** 
   3:C:/Renesas/e2studio_2021_01_workspace_RZA2M_ANPR/ANPR_RZA2M_GR_MANGO/src/tensorflow_lite/tensorflow/lite/kernels/internal\common.h **** Licensed under the Apache License, Version 2.0 (the "License");
   4:C:/Renesas/e2studio_2021_01_workspace_RZA2M_ANPR/ANPR_RZA2M_GR_MANGO/src/tensorflow_lite/tensorflow/lite/kernels/internal\common.h **** you may not use this file except in compliance with the License.
   5:C:/Renesas/e2studio_2021_01_workspace_RZA2M_ANPR/ANPR_RZA2M_GR_MANGO/src/tensorflow_lite/tensorflow/lite/kernels/internal\common.h **** You may obtain a copy of the License at
   6:C:/Renesas/e2studio_2021_01_workspace_RZA2M_ANPR/ANPR_RZA2M_GR_MANGO/src/tensorflow_lite/tensorflow/lite/kernels/internal\common.h **** 
   7:C:/Renesas/e2studio_2021_01_workspace_RZA2M_ANPR/ANPR_RZA2M_GR_MANGO/src/tensorflow_lite/tensorflow/lite/kernels/internal\common.h ****     http://www.apache.org/licenses/LICENSE-2.0
   8:C:/Renesas/e2studio_2021_01_workspace_RZA2M_ANPR/ANPR_RZA2M_GR_MANGO/src/tensorflow_lite/tensorflow/lite/kernels/internal\common.h **** 
   9:C:/Renesas/e2studio_2021_01_workspace_RZA2M_ANPR/ANPR_RZA2M_GR_MANGO/src/tensorflow_lite/tensorflow/lite/kernels/internal\common.h **** Unless required by applicable law or agreed to in writing, software
  10:C:/Renesas/e2studio_2021_01_workspace_RZA2M_ANPR/ANPR_RZA2M_GR_MANGO/src/tensorflow_lite/tensorflow/lite/kernels/internal\common.h **** distributed under the License is distributed on an "AS IS" BASIS,
  11:C:/Renesas/e2studio_2021_01_workspace_RZA2M_ANPR/ANPR_RZA2M_GR_MANGO/src/tensorflow_lite/tensorflow/lite/kernels/internal\common.h **** WITHOUT WARRANTIES OR CONDITIONS OF ANY KIND, either express or implied.
  12:C:/Renesas/e2studio_2021_01_workspace_RZA2M_ANPR/ANPR_RZA2M_GR_MANGO/src/tensorflow_lite/tensorflow/lite/kernels/internal\common.h **** See the License for the specific language governing permissions and
  13:C:/Renesas/e2studio_2021_01_workspace_RZA2M_ANPR/ANPR_RZA2M_GR_MANGO/src/tensorflow_lite/tensorflow/lite/kernels/internal\common.h **** limitations under the License.
  14:C:/Renesas/e2studio_2021_01_workspace_RZA2M_ANPR/ANPR_RZA2M_GR_MANGO/src/tensorflow_lite/tensorflow/lite/kernels/internal\common.h **** ==============================================================================*/
  15:C:/Renesas/e2studio_2021_01_workspace_RZA2M_ANPR/ANPR_RZA2M_GR_MANGO/src/tensorflow_lite/tensorflow/lite/kernels/internal\common.h **** #ifndef TENSORFLOW_LITE_KERNELS_INTERNAL_COMMON_H_
  16:C:/Renesas/e2studio_2021_01_workspace_RZA2M_ANPR/ANPR_RZA2M_GR_MANGO/src/tensorflow_lite/tensorflow/lite/kernels/internal\common.h **** #define TENSORFLOW_LITE_KERNELS_INTERNAL_COMMON_H_
  17:C:/Renesas/e2studio_2021_01_workspace_RZA2M_ANPR/ANPR_RZA2M_GR_MANGO/src/tensorflow_lite/tensorflow/lite/kernels/internal\common.h **** 
  18:C:/Renesas/e2studio_2021_01_workspace_RZA2M_ANPR/ANPR_RZA2M_GR_MANGO/src/tensorflow_lite/tensorflow/lite/kernels/internal\common.h **** #ifndef ALLOW_SLOW_GENERIC_DEPTHWISECONV_FALLBACK
  19:C:/Renesas/e2studio_2021_01_workspace_RZA2M_ANPR/ANPR_RZA2M_GR_MANGO/src/tensorflow_lite/tensorflow/lite/kernels/internal\common.h **** #ifdef GEMMLOWP_ALLOW_SLOW_SCALAR_FALLBACK
  20:C:/Renesas/e2studio_2021_01_workspace_RZA2M_ANPR/ANPR_RZA2M_GR_MANGO/src/tensorflow_lite/tensorflow/lite/kernels/internal\common.h **** #define ALLOW_SLOW_GENERIC_DEPTHWISECONV_FALLBACK
  21:C:/Renesas/e2studio_2021_01_workspace_RZA2M_ANPR/ANPR_RZA2M_GR_MANGO/src/tensorflow_lite/tensorflow/lite/kernels/internal\common.h **** #endif
  22:C:/Renesas/e2studio_2021_01_workspace_RZA2M_ANPR/ANPR_RZA2M_GR_MANGO/src/tensorflow_lite/tensorflow/lite/kernels/internal\common.h **** #endif
  23:C:/Renesas/e2studio_2021_01_workspace_RZA2M_ANPR/ANPR_RZA2M_GR_MANGO/src/tensorflow_lite/tensorflow/lite/kernels/internal\common.h **** 
  24:C:/Renesas/e2studio_2021_01_workspace_RZA2M_ANPR/ANPR_RZA2M_GR_MANGO/src/tensorflow_lite/tensorflow/lite/kernels/internal\common.h **** #include <functional>
  25:C:/Renesas/e2studio_2021_01_workspace_RZA2M_ANPR/ANPR_RZA2M_GR_MANGO/src/tensorflow_lite/tensorflow/lite/kernels/internal\common.h **** 
  26:C:/Renesas/e2studio_2021_01_workspace_RZA2M_ANPR/ANPR_RZA2M_GR_MANGO/src/tensorflow_lite/tensorflow/lite/kernels/internal\common.h **** #include "fixedpoint/fixedpoint.h"
  27:C:/Renesas/e2studio_2021_01_workspace_RZA2M_ANPR/ANPR_RZA2M_GR_MANGO/src/tensorflow_lite/tensorflow/lite/kernels/internal\common.h **** #include "tensorflow/lite/kernels/internal/cppmath.h"
  28:C:/Renesas/e2studio_2021_01_workspace_RZA2M_ANPR/ANPR_RZA2M_GR_MANGO/src/tensorflow_lite/tensorflow/lite/kernels/internal\common.h **** #include "tensorflow/lite/kernels/internal/optimized/neon_check.h"
  29:C:/Renesas/e2studio_2021_01_workspace_RZA2M_ANPR/ANPR_RZA2M_GR_MANGO/src/tensorflow_lite/tensorflow/lite/kernels/internal\common.h **** #include "tensorflow/lite/kernels/internal/types.h"
  30:C:/Renesas/e2studio_2021_01_workspace_RZA2M_ANPR/ANPR_RZA2M_GR_MANGO/src/tensorflow_lite/tensorflow/lite/kernels/internal\common.h **** 
  31:C:/Renesas/e2studio_2021_01_workspace_RZA2M_ANPR/ANPR_RZA2M_GR_MANGO/src/tensorflow_lite/tensorflow/lite/kernels/internal\common.h **** namespace tflite {
  32:C:/Renesas/e2studio_2021_01_workspace_RZA2M_ANPR/ANPR_RZA2M_GR_MANGO/src/tensorflow_lite/tensorflow/lite/kernels/internal\common.h **** 
  33:C:/Renesas/e2studio_2021_01_workspace_RZA2M_ANPR/ANPR_RZA2M_GR_MANGO/src/tensorflow_lite/tensorflow/lite/kernels/internal\common.h **** constexpr int kReverseShift = -1;
  34:C:/Renesas/e2studio_2021_01_workspace_RZA2M_ANPR/ANPR_RZA2M_GR_MANGO/src/tensorflow_lite/tensorflow/lite/kernels/internal\common.h **** 
  35:C:/Renesas/e2studio_2021_01_workspace_RZA2M_ANPR/ANPR_RZA2M_GR_MANGO/src/tensorflow_lite/tensorflow/lite/kernels/internal\common.h **** inline void GetActivationMinMax(FusedActivationFunctionType ac,
  36:C:/Renesas/e2studio_2021_01_workspace_RZA2M_ANPR/ANPR_RZA2M_GR_MANGO/src/tensorflow_lite/tensorflow/lite/kernels/internal\common.h ****                                 float* output_activation_min,
  37:C:/Renesas/e2studio_2021_01_workspace_RZA2M_ANPR/ANPR_RZA2M_GR_MANGO/src/tensorflow_lite/tensorflow/lite/kernels/internal\common.h ****                                 float* output_activation_max) {
  38:C:/Renesas/e2studio_2021_01_workspace_RZA2M_ANPR/ANPR_RZA2M_GR_MANGO/src/tensorflow_lite/tensorflow/lite/kernels/internal\common.h ****   switch (ac) {
  39:C:/Renesas/e2studio_2021_01_workspace_RZA2M_ANPR/ANPR_RZA2M_GR_MANGO/src/tensorflow_lite/tensorflow/lite/kernels/internal\common.h ****     case FusedActivationFunctionType::kNone:
  40:C:/Renesas/e2studio_2021_01_workspace_RZA2M_ANPR/ANPR_RZA2M_GR_MANGO/src/tensorflow_lite/tensorflow/lite/kernels/internal\common.h ****       *output_activation_min = std::numeric_limits<float>::lowest();
  41:C:/Renesas/e2studio_2021_01_workspace_RZA2M_ANPR/ANPR_RZA2M_GR_MANGO/src/tensorflow_lite/tensorflow/lite/kernels/internal\common.h ****       *output_activation_max = std::numeric_limits<float>::max();
  42:C:/Renesas/e2studio_2021_01_workspace_RZA2M_ANPR/ANPR_RZA2M_GR_MANGO/src/tensorflow_lite/tensorflow/lite/kernels/internal\common.h ****       break;
  43:C:/Renesas/e2studio_2021_01_workspace_RZA2M_ANPR/ANPR_RZA2M_GR_MANGO/src/tensorflow_lite/tensorflow/lite/kernels/internal\common.h ****     case FusedActivationFunctionType::kRelu:
  44:C:/Renesas/e2studio_2021_01_workspace_RZA2M_ANPR/ANPR_RZA2M_GR_MANGO/src/tensorflow_lite/tensorflow/lite/kernels/internal\common.h ****       *output_activation_min = 0.f;
  45:C:/Renesas/e2studio_2021_01_workspace_RZA2M_ANPR/ANPR_RZA2M_GR_MANGO/src/tensorflow_lite/tensorflow/lite/kernels/internal\common.h ****       *output_activation_max = std::numeric_limits<float>::max();
  46:C:/Renesas/e2studio_2021_01_workspace_RZA2M_ANPR/ANPR_RZA2M_GR_MANGO/src/tensorflow_lite/tensorflow/lite/kernels/internal\common.h ****       break;
  47:C:/Renesas/e2studio_2021_01_workspace_RZA2M_ANPR/ANPR_RZA2M_GR_MANGO/src/tensorflow_lite/tensorflow/lite/kernels/internal\common.h ****     case FusedActivationFunctionType::kRelu1:
  48:C:/Renesas/e2studio_2021_01_workspace_RZA2M_ANPR/ANPR_RZA2M_GR_MANGO/src/tensorflow_lite/tensorflow/lite/kernels/internal\common.h ****       *output_activation_min = -1.f;
  49:C:/Renesas/e2studio_2021_01_workspace_RZA2M_ANPR/ANPR_RZA2M_GR_MANGO/src/tensorflow_lite/tensorflow/lite/kernels/internal\common.h ****       *output_activation_max = 1.f;
  50:C:/Renesas/e2studio_2021_01_workspace_RZA2M_ANPR/ANPR_RZA2M_GR_MANGO/src/tensorflow_lite/tensorflow/lite/kernels/internal\common.h ****       break;
  51:C:/Renesas/e2studio_2021_01_workspace_RZA2M_ANPR/ANPR_RZA2M_GR_MANGO/src/tensorflow_lite/tensorflow/lite/kernels/internal\common.h ****     case FusedActivationFunctionType::kRelu6:
  52:C:/Renesas/e2studio_2021_01_workspace_RZA2M_ANPR/ANPR_RZA2M_GR_MANGO/src/tensorflow_lite/tensorflow/lite/kernels/internal\common.h ****       *output_activation_min = 0.f;
  53:C:/Renesas/e2studio_2021_01_workspace_RZA2M_ANPR/ANPR_RZA2M_GR_MANGO/src/tensorflow_lite/tensorflow/lite/kernels/internal\common.h ****       *output_activation_max = 6.f;
  54:C:/Renesas/e2studio_2021_01_workspace_RZA2M_ANPR/ANPR_RZA2M_GR_MANGO/src/tensorflow_lite/tensorflow/lite/kernels/internal\common.h ****       break;
  55:C:/Renesas/e2studio_2021_01_workspace_RZA2M_ANPR/ANPR_RZA2M_GR_MANGO/src/tensorflow_lite/tensorflow/lite/kernels/internal\common.h ****   }
  56:C:/Renesas/e2studio_2021_01_workspace_RZA2M_ANPR/ANPR_RZA2M_GR_MANGO/src/tensorflow_lite/tensorflow/lite/kernels/internal\common.h **** }
  57:C:/Renesas/e2studio_2021_01_workspace_RZA2M_ANPR/ANPR_RZA2M_GR_MANGO/src/tensorflow_lite/tensorflow/lite/kernels/internal\common.h **** 
  58:C:/Renesas/e2studio_2021_01_workspace_RZA2M_ANPR/ANPR_RZA2M_GR_MANGO/src/tensorflow_lite/tensorflow/lite/kernels/internal\common.h **** template <typename T>
  59:C:/Renesas/e2studio_2021_01_workspace_RZA2M_ANPR/ANPR_RZA2M_GR_MANGO/src/tensorflow_lite/tensorflow/lite/kernels/internal\common.h **** inline T ActivationFunctionWithMinMax(T x, T output_activation_min,
  60:C:/Renesas/e2studio_2021_01_workspace_RZA2M_ANPR/ANPR_RZA2M_GR_MANGO/src/tensorflow_lite/tensorflow/lite/kernels/internal\common.h ****                                       T output_activation_max) {
  61:C:/Renesas/e2studio_2021_01_workspace_RZA2M_ANPR/ANPR_RZA2M_GR_MANGO/src/tensorflow_lite/tensorflow/lite/kernels/internal\common.h ****   using std::max;
  62:C:/Renesas/e2studio_2021_01_workspace_RZA2M_ANPR/ANPR_RZA2M_GR_MANGO/src/tensorflow_lite/tensorflow/lite/kernels/internal\common.h ****   using std::min;
  63:C:/Renesas/e2studio_2021_01_workspace_RZA2M_ANPR/ANPR_RZA2M_GR_MANGO/src/tensorflow_lite/tensorflow/lite/kernels/internal\common.h ****   return min(max(x, output_activation_min), output_activation_max);
  64:C:/Renesas/e2studio_2021_01_workspace_RZA2M_ANPR/ANPR_RZA2M_GR_MANGO/src/tensorflow_lite/tensorflow/lite/kernels/internal\common.h **** }
  65:C:/Renesas/e2studio_2021_01_workspace_RZA2M_ANPR/ANPR_RZA2M_GR_MANGO/src/tensorflow_lite/tensorflow/lite/kernels/internal\common.h **** 
  66:C:/Renesas/e2studio_2021_01_workspace_RZA2M_ANPR/ANPR_RZA2M_GR_MANGO/src/tensorflow_lite/tensorflow/lite/kernels/internal\common.h **** // Legacy function, left for compatibility only.
  67:C:/Renesas/e2studio_2021_01_workspace_RZA2M_ANPR/ANPR_RZA2M_GR_MANGO/src/tensorflow_lite/tensorflow/lite/kernels/internal\common.h **** template <FusedActivationFunctionType Ac>
  68:C:/Renesas/e2studio_2021_01_workspace_RZA2M_ANPR/ANPR_RZA2M_GR_MANGO/src/tensorflow_lite/tensorflow/lite/kernels/internal\common.h **** float ActivationFunction(float x) {
  69:C:/Renesas/e2studio_2021_01_workspace_RZA2M_ANPR/ANPR_RZA2M_GR_MANGO/src/tensorflow_lite/tensorflow/lite/kernels/internal\common.h ****   float output_activation_min, output_activation_max;
  70:C:/Renesas/e2studio_2021_01_workspace_RZA2M_ANPR/ANPR_RZA2M_GR_MANGO/src/tensorflow_lite/tensorflow/lite/kernels/internal\common.h ****   GetActivationMinMax(Ac, &output_activation_min, &output_activation_max);
  71:C:/Renesas/e2studio_2021_01_workspace_RZA2M_ANPR/ANPR_RZA2M_GR_MANGO/src/tensorflow_lite/tensorflow/lite/kernels/internal\common.h ****   return ActivationFunctionWithMinMax(x, output_activation_min,
  72:C:/Renesas/e2studio_2021_01_workspace_RZA2M_ANPR/ANPR_RZA2M_GR_MANGO/src/tensorflow_lite/tensorflow/lite/kernels/internal\common.h ****                                       output_activation_max);
  73:C:/Renesas/e2studio_2021_01_workspace_RZA2M_ANPR/ANPR_RZA2M_GR_MANGO/src/tensorflow_lite/tensorflow/lite/kernels/internal\common.h **** }
  74:C:/Renesas/e2studio_2021_01_workspace_RZA2M_ANPR/ANPR_RZA2M_GR_MANGO/src/tensorflow_lite/tensorflow/lite/kernels/internal\common.h **** 
  75:C:/Renesas/e2studio_2021_01_workspace_RZA2M_ANPR/ANPR_RZA2M_GR_MANGO/src/tensorflow_lite/tensorflow/lite/kernels/internal\common.h **** inline void BiasAndClamp(float clamp_min, float clamp_max, int bias_size,
  76:C:/Renesas/e2studio_2021_01_workspace_RZA2M_ANPR/ANPR_RZA2M_GR_MANGO/src/tensorflow_lite/tensorflow/lite/kernels/internal\common.h ****                          const float* bias_data, int array_size,
  77:C:/Renesas/e2studio_2021_01_workspace_RZA2M_ANPR/ANPR_RZA2M_GR_MANGO/src/tensorflow_lite/tensorflow/lite/kernels/internal\common.h ****                          float* array_data) {
  78:C:/Renesas/e2studio_2021_01_workspace_RZA2M_ANPR/ANPR_RZA2M_GR_MANGO/src/tensorflow_lite/tensorflow/lite/kernels/internal\common.h ****   // Note: see b/132215220: in May 2019 we thought it would be OK to replace
  79:C:/Renesas/e2studio_2021_01_workspace_RZA2M_ANPR/ANPR_RZA2M_GR_MANGO/src/tensorflow_lite/tensorflow/lite/kernels/internal\common.h ****   // this with the Eigen one-liner:
  80:C:/Renesas/e2studio_2021_01_workspace_RZA2M_ANPR/ANPR_RZA2M_GR_MANGO/src/tensorflow_lite/tensorflow/lite/kernels/internal\common.h ****   //   return (array.colwise() + bias).cwiseMin(clamp_max).cwiseMin(clamp_max).
  81:C:/Renesas/e2studio_2021_01_workspace_RZA2M_ANPR/ANPR_RZA2M_GR_MANGO/src/tensorflow_lite/tensorflow/lite/kernels/internal\common.h ****   // This turned out to severely regress performance: +4ms (i.e. 8%) on
  82:C:/Renesas/e2studio_2021_01_workspace_RZA2M_ANPR/ANPR_RZA2M_GR_MANGO/src/tensorflow_lite/tensorflow/lite/kernels/internal\common.h ****   // MobileNet v2 / 1.0 / 224. So we keep custom NEON code for now.
  83:C:/Renesas/e2studio_2021_01_workspace_RZA2M_ANPR/ANPR_RZA2M_GR_MANGO/src/tensorflow_lite/tensorflow/lite/kernels/internal\common.h ****   TFLITE_DCHECK_EQ((array_size % bias_size), 0);
  84:C:/Renesas/e2studio_2021_01_workspace_RZA2M_ANPR/ANPR_RZA2M_GR_MANGO/src/tensorflow_lite/tensorflow/lite/kernels/internal\common.h **** #ifdef USE_NEON
  85:C:/Renesas/e2studio_2021_01_workspace_RZA2M_ANPR/ANPR_RZA2M_GR_MANGO/src/tensorflow_lite/tensorflow/lite/kernels/internal\common.h ****   float* array_ptr = array_data;
  86:C:/Renesas/e2studio_2021_01_workspace_RZA2M_ANPR/ANPR_RZA2M_GR_MANGO/src/tensorflow_lite/tensorflow/lite/kernels/internal\common.h ****   float* array_end_ptr = array_ptr + array_size;
  87:C:/Renesas/e2studio_2021_01_workspace_RZA2M_ANPR/ANPR_RZA2M_GR_MANGO/src/tensorflow_lite/tensorflow/lite/kernels/internal\common.h ****   const auto clamp_min_vec = vdupq_n_f32(clamp_min);
  88:C:/Renesas/e2studio_2021_01_workspace_RZA2M_ANPR/ANPR_RZA2M_GR_MANGO/src/tensorflow_lite/tensorflow/lite/kernels/internal\common.h ****   const auto clamp_max_vec = vdupq_n_f32(clamp_max);
  89:C:/Renesas/e2studio_2021_01_workspace_RZA2M_ANPR/ANPR_RZA2M_GR_MANGO/src/tensorflow_lite/tensorflow/lite/kernels/internal\common.h ****   for (; array_ptr != array_end_ptr; array_ptr += bias_size) {
  90:C:/Renesas/e2studio_2021_01_workspace_RZA2M_ANPR/ANPR_RZA2M_GR_MANGO/src/tensorflow_lite/tensorflow/lite/kernels/internal\common.h ****     int i = 0;
  91:C:/Renesas/e2studio_2021_01_workspace_RZA2M_ANPR/ANPR_RZA2M_GR_MANGO/src/tensorflow_lite/tensorflow/lite/kernels/internal\common.h ****     for (; i <= bias_size - 16; i += 16) {
  92:C:/Renesas/e2studio_2021_01_workspace_RZA2M_ANPR/ANPR_RZA2M_GR_MANGO/src/tensorflow_lite/tensorflow/lite/kernels/internal\common.h ****       auto b0 = vld1q_f32(bias_data + i);
  93:C:/Renesas/e2studio_2021_01_workspace_RZA2M_ANPR/ANPR_RZA2M_GR_MANGO/src/tensorflow_lite/tensorflow/lite/kernels/internal\common.h ****       auto b1 = vld1q_f32(bias_data + i + 4);
  94:C:/Renesas/e2studio_2021_01_workspace_RZA2M_ANPR/ANPR_RZA2M_GR_MANGO/src/tensorflow_lite/tensorflow/lite/kernels/internal\common.h ****       auto b2 = vld1q_f32(bias_data + i + 8);
  95:C:/Renesas/e2studio_2021_01_workspace_RZA2M_ANPR/ANPR_RZA2M_GR_MANGO/src/tensorflow_lite/tensorflow/lite/kernels/internal\common.h ****       auto b3 = vld1q_f32(bias_data + i + 12);
  96:C:/Renesas/e2studio_2021_01_workspace_RZA2M_ANPR/ANPR_RZA2M_GR_MANGO/src/tensorflow_lite/tensorflow/lite/kernels/internal\common.h ****       auto a0 = vld1q_f32(array_ptr + i);
  97:C:/Renesas/e2studio_2021_01_workspace_RZA2M_ANPR/ANPR_RZA2M_GR_MANGO/src/tensorflow_lite/tensorflow/lite/kernels/internal\common.h ****       auto a1 = vld1q_f32(array_ptr + i + 4);
  98:C:/Renesas/e2studio_2021_01_workspace_RZA2M_ANPR/ANPR_RZA2M_GR_MANGO/src/tensorflow_lite/tensorflow/lite/kernels/internal\common.h ****       auto a2 = vld1q_f32(array_ptr + i + 8);
  99:C:/Renesas/e2studio_2021_01_workspace_RZA2M_ANPR/ANPR_RZA2M_GR_MANGO/src/tensorflow_lite/tensorflow/lite/kernels/internal\common.h ****       auto a3 = vld1q_f32(array_ptr + i + 12);
 100:C:/Renesas/e2studio_2021_01_workspace_RZA2M_ANPR/ANPR_RZA2M_GR_MANGO/src/tensorflow_lite/tensorflow/lite/kernels/internal\common.h ****       auto x0 = vaddq_f32(a0, b0);
 101:C:/Renesas/e2studio_2021_01_workspace_RZA2M_ANPR/ANPR_RZA2M_GR_MANGO/src/tensorflow_lite/tensorflow/lite/kernels/internal\common.h ****       auto x1 = vaddq_f32(a1, b1);
 102:C:/Renesas/e2studio_2021_01_workspace_RZA2M_ANPR/ANPR_RZA2M_GR_MANGO/src/tensorflow_lite/tensorflow/lite/kernels/internal\common.h ****       auto x2 = vaddq_f32(a2, b2);
 103:C:/Renesas/e2studio_2021_01_workspace_RZA2M_ANPR/ANPR_RZA2M_GR_MANGO/src/tensorflow_lite/tensorflow/lite/kernels/internal\common.h ****       auto x3 = vaddq_f32(a3, b3);
 104:C:/Renesas/e2studio_2021_01_workspace_RZA2M_ANPR/ANPR_RZA2M_GR_MANGO/src/tensorflow_lite/tensorflow/lite/kernels/internal\common.h ****       x0 = vmaxq_f32(clamp_min_vec, x0);
 105:C:/Renesas/e2studio_2021_01_workspace_RZA2M_ANPR/ANPR_RZA2M_GR_MANGO/src/tensorflow_lite/tensorflow/lite/kernels/internal\common.h ****       x1 = vmaxq_f32(clamp_min_vec, x1);
 106:C:/Renesas/e2studio_2021_01_workspace_RZA2M_ANPR/ANPR_RZA2M_GR_MANGO/src/tensorflow_lite/tensorflow/lite/kernels/internal\common.h ****       x2 = vmaxq_f32(clamp_min_vec, x2);
 107:C:/Renesas/e2studio_2021_01_workspace_RZA2M_ANPR/ANPR_RZA2M_GR_MANGO/src/tensorflow_lite/tensorflow/lite/kernels/internal\common.h ****       x3 = vmaxq_f32(clamp_min_vec, x3);
 108:C:/Renesas/e2studio_2021_01_workspace_RZA2M_ANPR/ANPR_RZA2M_GR_MANGO/src/tensorflow_lite/tensorflow/lite/kernels/internal\common.h ****       x0 = vminq_f32(clamp_max_vec, x0);
 109:C:/Renesas/e2studio_2021_01_workspace_RZA2M_ANPR/ANPR_RZA2M_GR_MANGO/src/tensorflow_lite/tensorflow/lite/kernels/internal\common.h ****       x1 = vminq_f32(clamp_max_vec, x1);
 110:C:/Renesas/e2studio_2021_01_workspace_RZA2M_ANPR/ANPR_RZA2M_GR_MANGO/src/tensorflow_lite/tensorflow/lite/kernels/internal\common.h ****       x2 = vminq_f32(clamp_max_vec, x2);
 111:C:/Renesas/e2studio_2021_01_workspace_RZA2M_ANPR/ANPR_RZA2M_GR_MANGO/src/tensorflow_lite/tensorflow/lite/kernels/internal\common.h ****       x3 = vminq_f32(clamp_max_vec, x3);
 112:C:/Renesas/e2studio_2021_01_workspace_RZA2M_ANPR/ANPR_RZA2M_GR_MANGO/src/tensorflow_lite/tensorflow/lite/kernels/internal\common.h ****       vst1q_f32(array_ptr + i, x0);
 113:C:/Renesas/e2studio_2021_01_workspace_RZA2M_ANPR/ANPR_RZA2M_GR_MANGO/src/tensorflow_lite/tensorflow/lite/kernels/internal\common.h ****       vst1q_f32(array_ptr + i + 4, x1);
 114:C:/Renesas/e2studio_2021_01_workspace_RZA2M_ANPR/ANPR_RZA2M_GR_MANGO/src/tensorflow_lite/tensorflow/lite/kernels/internal\common.h ****       vst1q_f32(array_ptr + i + 8, x2);
 115:C:/Renesas/e2studio_2021_01_workspace_RZA2M_ANPR/ANPR_RZA2M_GR_MANGO/src/tensorflow_lite/tensorflow/lite/kernels/internal\common.h ****       vst1q_f32(array_ptr + i + 12, x3);
 116:C:/Renesas/e2studio_2021_01_workspace_RZA2M_ANPR/ANPR_RZA2M_GR_MANGO/src/tensorflow_lite/tensorflow/lite/kernels/internal\common.h ****     }
 117:C:/Renesas/e2studio_2021_01_workspace_RZA2M_ANPR/ANPR_RZA2M_GR_MANGO/src/tensorflow_lite/tensorflow/lite/kernels/internal\common.h ****     for (; i <= bias_size - 4; i += 4) {
 118:C:/Renesas/e2studio_2021_01_workspace_RZA2M_ANPR/ANPR_RZA2M_GR_MANGO/src/tensorflow_lite/tensorflow/lite/kernels/internal\common.h ****       auto b = vld1q_f32(bias_data + i);
 119:C:/Renesas/e2studio_2021_01_workspace_RZA2M_ANPR/ANPR_RZA2M_GR_MANGO/src/tensorflow_lite/tensorflow/lite/kernels/internal\common.h ****       auto a = vld1q_f32(array_ptr + i);
 120:C:/Renesas/e2studio_2021_01_workspace_RZA2M_ANPR/ANPR_RZA2M_GR_MANGO/src/tensorflow_lite/tensorflow/lite/kernels/internal\common.h ****       auto x = vaddq_f32(a, b);
 121:C:/Renesas/e2studio_2021_01_workspace_RZA2M_ANPR/ANPR_RZA2M_GR_MANGO/src/tensorflow_lite/tensorflow/lite/kernels/internal\common.h ****       x = vmaxq_f32(clamp_min_vec, x);
 122:C:/Renesas/e2studio_2021_01_workspace_RZA2M_ANPR/ANPR_RZA2M_GR_MANGO/src/tensorflow_lite/tensorflow/lite/kernels/internal\common.h ****       x = vminq_f32(clamp_max_vec, x);
 123:C:/Renesas/e2studio_2021_01_workspace_RZA2M_ANPR/ANPR_RZA2M_GR_MANGO/src/tensorflow_lite/tensorflow/lite/kernels/internal\common.h ****       vst1q_f32(array_ptr + i, x);
 124:C:/Renesas/e2studio_2021_01_workspace_RZA2M_ANPR/ANPR_RZA2M_GR_MANGO/src/tensorflow_lite/tensorflow/lite/kernels/internal\common.h ****     }
 125:C:/Renesas/e2studio_2021_01_workspace_RZA2M_ANPR/ANPR_RZA2M_GR_MANGO/src/tensorflow_lite/tensorflow/lite/kernels/internal\common.h ****     for (; i < bias_size; i++) {
 126:C:/Renesas/e2studio_2021_01_workspace_RZA2M_ANPR/ANPR_RZA2M_GR_MANGO/src/tensorflow_lite/tensorflow/lite/kernels/internal\common.h ****       array_ptr[i] = ActivationFunctionWithMinMax(array_ptr[i] + bias_data[i],
 127:C:/Renesas/e2studio_2021_01_workspace_RZA2M_ANPR/ANPR_RZA2M_GR_MANGO/src/tensorflow_lite/tensorflow/lite/kernels/internal\common.h ****                                                   clamp_min, clamp_max);
 128:C:/Renesas/e2studio_2021_01_workspace_RZA2M_ANPR/ANPR_RZA2M_GR_MANGO/src/tensorflow_lite/tensorflow/lite/kernels/internal\common.h ****     }
 129:C:/Renesas/e2studio_2021_01_workspace_RZA2M_ANPR/ANPR_RZA2M_GR_MANGO/src/tensorflow_lite/tensorflow/lite/kernels/internal\common.h ****   }
 130:C:/Renesas/e2studio_2021_01_workspace_RZA2M_ANPR/ANPR_RZA2M_GR_MANGO/src/tensorflow_lite/tensorflow/lite/kernels/internal\common.h **** #else  // not NEON
 131:C:/Renesas/e2studio_2021_01_workspace_RZA2M_ANPR/ANPR_RZA2M_GR_MANGO/src/tensorflow_lite/tensorflow/lite/kernels/internal\common.h ****   for (int array_offset = 0; array_offset < array_size;
 132:C:/Renesas/e2studio_2021_01_workspace_RZA2M_ANPR/ANPR_RZA2M_GR_MANGO/src/tensorflow_lite/tensorflow/lite/kernels/internal\common.h ****        array_offset += bias_size) {
 133:C:/Renesas/e2studio_2021_01_workspace_RZA2M_ANPR/ANPR_RZA2M_GR_MANGO/src/tensorflow_lite/tensorflow/lite/kernels/internal\common.h ****     for (int i = 0; i < bias_size; i++) {
 134:C:/Renesas/e2studio_2021_01_workspace_RZA2M_ANPR/ANPR_RZA2M_GR_MANGO/src/tensorflow_lite/tensorflow/lite/kernels/internal\common.h ****       array_data[array_offset + i] = ActivationFunctionWithMinMax(
 135:C:/Renesas/e2studio_2021_01_workspace_RZA2M_ANPR/ANPR_RZA2M_GR_MANGO/src/tensorflow_lite/tensorflow/lite/kernels/internal\common.h ****           array_data[array_offset + i] + bias_data[i], clamp_min, clamp_max);
 136:C:/Renesas/e2studio_2021_01_workspace_RZA2M_ANPR/ANPR_RZA2M_GR_MANGO/src/tensorflow_lite/tensorflow/lite/kernels/internal\common.h ****     }
 137:C:/Renesas/e2studio_2021_01_workspace_RZA2M_ANPR/ANPR_RZA2M_GR_MANGO/src/tensorflow_lite/tensorflow/lite/kernels/internal\common.h ****   }
 138:C:/Renesas/e2studio_2021_01_workspace_RZA2M_ANPR/ANPR_RZA2M_GR_MANGO/src/tensorflow_lite/tensorflow/lite/kernels/internal\common.h **** #endif
 139:C:/Renesas/e2studio_2021_01_workspace_RZA2M_ANPR/ANPR_RZA2M_GR_MANGO/src/tensorflow_lite/tensorflow/lite/kernels/internal\common.h **** }
 140:C:/Renesas/e2studio_2021_01_workspace_RZA2M_ANPR/ANPR_RZA2M_GR_MANGO/src/tensorflow_lite/tensorflow/lite/kernels/internal\common.h **** 
 141:C:/Renesas/e2studio_2021_01_workspace_RZA2M_ANPR/ANPR_RZA2M_GR_MANGO/src/tensorflow_lite/tensorflow/lite/kernels/internal\common.h **** inline int32_t MultiplyByQuantizedMultiplierSmallerThanOneExp(
 142:C:/Renesas/e2studio_2021_01_workspace_RZA2M_ANPR/ANPR_RZA2M_GR_MANGO/src/tensorflow_lite/tensorflow/lite/kernels/internal\common.h ****     int32_t x, int32_t quantized_multiplier, int left_shift) {
 143:C:/Renesas/e2studio_2021_01_workspace_RZA2M_ANPR/ANPR_RZA2M_GR_MANGO/src/tensorflow_lite/tensorflow/lite/kernels/internal\common.h ****   using gemmlowp::RoundingDivideByPOT;
 144:C:/Renesas/e2studio_2021_01_workspace_RZA2M_ANPR/ANPR_RZA2M_GR_MANGO/src/tensorflow_lite/tensorflow/lite/kernels/internal\common.h ****   using gemmlowp::SaturatingRoundingDoublingHighMul;
 145:C:/Renesas/e2studio_2021_01_workspace_RZA2M_ANPR/ANPR_RZA2M_GR_MANGO/src/tensorflow_lite/tensorflow/lite/kernels/internal\common.h ****   return RoundingDivideByPOT(
 146:C:/Renesas/e2studio_2021_01_workspace_RZA2M_ANPR/ANPR_RZA2M_GR_MANGO/src/tensorflow_lite/tensorflow/lite/kernels/internal\common.h ****       SaturatingRoundingDoublingHighMul(x, quantized_multiplier), -left_shift);
 147:C:/Renesas/e2studio_2021_01_workspace_RZA2M_ANPR/ANPR_RZA2M_GR_MANGO/src/tensorflow_lite/tensorflow/lite/kernels/internal\common.h **** }
 148:C:/Renesas/e2studio_2021_01_workspace_RZA2M_ANPR/ANPR_RZA2M_GR_MANGO/src/tensorflow_lite/tensorflow/lite/kernels/internal\common.h **** 
 149:C:/Renesas/e2studio_2021_01_workspace_RZA2M_ANPR/ANPR_RZA2M_GR_MANGO/src/tensorflow_lite/tensorflow/lite/kernels/internal\common.h **** inline int32_t MultiplyByQuantizedMultiplierGreaterThanOne(
 150:C:/Renesas/e2studio_2021_01_workspace_RZA2M_ANPR/ANPR_RZA2M_GR_MANGO/src/tensorflow_lite/tensorflow/lite/kernels/internal\common.h ****     int32_t x, int32_t quantized_multiplier, int left_shift) {
 151:C:/Renesas/e2studio_2021_01_workspace_RZA2M_ANPR/ANPR_RZA2M_GR_MANGO/src/tensorflow_lite/tensorflow/lite/kernels/internal\common.h ****   using gemmlowp::SaturatingRoundingDoublingHighMul;
 152:C:/Renesas/e2studio_2021_01_workspace_RZA2M_ANPR/ANPR_RZA2M_GR_MANGO/src/tensorflow_lite/tensorflow/lite/kernels/internal\common.h ****   return SaturatingRoundingDoublingHighMul(x * (1 << left_shift),
 153:C:/Renesas/e2studio_2021_01_workspace_RZA2M_ANPR/ANPR_RZA2M_GR_MANGO/src/tensorflow_lite/tensorflow/lite/kernels/internal\common.h ****                                            quantized_multiplier);
 154:C:/Renesas/e2studio_2021_01_workspace_RZA2M_ANPR/ANPR_RZA2M_GR_MANGO/src/tensorflow_lite/tensorflow/lite/kernels/internal\common.h **** }
 155:C:/Renesas/e2studio_2021_01_workspace_RZA2M_ANPR/ANPR_RZA2M_GR_MANGO/src/tensorflow_lite/tensorflow/lite/kernels/internal\common.h **** 
 156:C:/Renesas/e2studio_2021_01_workspace_RZA2M_ANPR/ANPR_RZA2M_GR_MANGO/src/tensorflow_lite/tensorflow/lite/kernels/internal\common.h **** inline int32_t MultiplyByQuantizedMultiplier(int32_t x,
 157:C:/Renesas/e2studio_2021_01_workspace_RZA2M_ANPR/ANPR_RZA2M_GR_MANGO/src/tensorflow_lite/tensorflow/lite/kernels/internal\common.h ****                                              int32_t quantized_multiplier,
 158:C:/Renesas/e2studio_2021_01_workspace_RZA2M_ANPR/ANPR_RZA2M_GR_MANGO/src/tensorflow_lite/tensorflow/lite/kernels/internal\common.h ****                                              int shift) {
 159:C:/Renesas/e2studio_2021_01_workspace_RZA2M_ANPR/ANPR_RZA2M_GR_MANGO/src/tensorflow_lite/tensorflow/lite/kernels/internal\common.h ****   using gemmlowp::RoundingDivideByPOT;
 160:C:/Renesas/e2studio_2021_01_workspace_RZA2M_ANPR/ANPR_RZA2M_GR_MANGO/src/tensorflow_lite/tensorflow/lite/kernels/internal\common.h ****   using gemmlowp::SaturatingRoundingDoublingHighMul;
 161:C:/Renesas/e2studio_2021_01_workspace_RZA2M_ANPR/ANPR_RZA2M_GR_MANGO/src/tensorflow_lite/tensorflow/lite/kernels/internal\common.h ****   int left_shift = shift > 0 ? shift : 0;
 162:C:/Renesas/e2studio_2021_01_workspace_RZA2M_ANPR/ANPR_RZA2M_GR_MANGO/src/tensorflow_lite/tensorflow/lite/kernels/internal\common.h ****   int right_shift = shift > 0 ? 0 : -shift;
 163:C:/Renesas/e2studio_2021_01_workspace_RZA2M_ANPR/ANPR_RZA2M_GR_MANGO/src/tensorflow_lite/tensorflow/lite/kernels/internal\common.h ****   return RoundingDivideByPOT(SaturatingRoundingDoublingHighMul(
 164:C:/Renesas/e2studio_2021_01_workspace_RZA2M_ANPR/ANPR_RZA2M_GR_MANGO/src/tensorflow_lite/tensorflow/lite/kernels/internal\common.h ****                                  x * (1 << left_shift), quantized_multiplier),
 165:C:/Renesas/e2studio_2021_01_workspace_RZA2M_ANPR/ANPR_RZA2M_GR_MANGO/src/tensorflow_lite/tensorflow/lite/kernels/internal\common.h ****                              right_shift);
 166:C:/Renesas/e2studio_2021_01_workspace_RZA2M_ANPR/ANPR_RZA2M_GR_MANGO/src/tensorflow_lite/tensorflow/lite/kernels/internal\common.h **** }
 167:C:/Renesas/e2studio_2021_01_workspace_RZA2M_ANPR/ANPR_RZA2M_GR_MANGO/src/tensorflow_lite/tensorflow/lite/kernels/internal\common.h **** 
 168:C:/Renesas/e2studio_2021_01_workspace_RZA2M_ANPR/ANPR_RZA2M_GR_MANGO/src/tensorflow_lite/tensorflow/lite/kernels/internal\common.h **** inline int32_t MultiplyByQuantizedMultiplier(int64_t x,
 169:C:/Renesas/e2studio_2021_01_workspace_RZA2M_ANPR/ANPR_RZA2M_GR_MANGO/src/tensorflow_lite/tensorflow/lite/kernels/internal\common.h ****                                              int32_t quantized_multiplier,
 170:C:/Renesas/e2studio_2021_01_workspace_RZA2M_ANPR/ANPR_RZA2M_GR_MANGO/src/tensorflow_lite/tensorflow/lite/kernels/internal\common.h ****                                              int shift) {
 171:C:/Renesas/e2studio_2021_01_workspace_RZA2M_ANPR/ANPR_RZA2M_GR_MANGO/src/tensorflow_lite/tensorflow/lite/kernels/internal\common.h ****   // Inputs:
 172:C:/Renesas/e2studio_2021_01_workspace_RZA2M_ANPR/ANPR_RZA2M_GR_MANGO/src/tensorflow_lite/tensorflow/lite/kernels/internal\common.h ****   // - quantized_multiplier has fixed point at bit 31
 173:C:/Renesas/e2studio_2021_01_workspace_RZA2M_ANPR/ANPR_RZA2M_GR_MANGO/src/tensorflow_lite/tensorflow/lite/kernels/internal\common.h ****   // - shift is -31 to +7 (negative for right shift)
 174:C:/Renesas/e2studio_2021_01_workspace_RZA2M_ANPR/ANPR_RZA2M_GR_MANGO/src/tensorflow_lite/tensorflow/lite/kernels/internal\common.h ****   //
 175:C:/Renesas/e2studio_2021_01_workspace_RZA2M_ANPR/ANPR_RZA2M_GR_MANGO/src/tensorflow_lite/tensorflow/lite/kernels/internal\common.h ****   // Assumptions: The following input ranges are assumed
 176:C:/Renesas/e2studio_2021_01_workspace_RZA2M_ANPR/ANPR_RZA2M_GR_MANGO/src/tensorflow_lite/tensorflow/lite/kernels/internal\common.h ****   // - quantize_scale>=0  (the usual range is (1<<30) to (1>>31)-1)
 177:C:/Renesas/e2studio_2021_01_workspace_RZA2M_ANPR/ANPR_RZA2M_GR_MANGO/src/tensorflow_lite/tensorflow/lite/kernels/internal\common.h ****   // - scaling is chosen so final scaled result fits in int32_t
 178:C:/Renesas/e2studio_2021_01_workspace_RZA2M_ANPR/ANPR_RZA2M_GR_MANGO/src/tensorflow_lite/tensorflow/lite/kernels/internal\common.h ****   // - input x is in the range -(1<<47) <= x < (1<<47)
 179:C:/Renesas/e2studio_2021_01_workspace_RZA2M_ANPR/ANPR_RZA2M_GR_MANGO/src/tensorflow_lite/tensorflow/lite/kernels/internal\common.h ****   assert(quantized_multiplier >= 0);
 180:C:/Renesas/e2studio_2021_01_workspace_RZA2M_ANPR/ANPR_RZA2M_GR_MANGO/src/tensorflow_lite/tensorflow/lite/kernels/internal\common.h ****   assert(shift >= -31 && shift < 8);
 181:C:/Renesas/e2studio_2021_01_workspace_RZA2M_ANPR/ANPR_RZA2M_GR_MANGO/src/tensorflow_lite/tensorflow/lite/kernels/internal\common.h ****   assert(x >= -(static_cast<int64_t>(1) << 47) &&
 182:C:/Renesas/e2studio_2021_01_workspace_RZA2M_ANPR/ANPR_RZA2M_GR_MANGO/src/tensorflow_lite/tensorflow/lite/kernels/internal\common.h ****          x < (static_cast<int64_t>(1) << 47));
 183:C:/Renesas/e2studio_2021_01_workspace_RZA2M_ANPR/ANPR_RZA2M_GR_MANGO/src/tensorflow_lite/tensorflow/lite/kernels/internal\common.h **** 
 184:C:/Renesas/e2studio_2021_01_workspace_RZA2M_ANPR/ANPR_RZA2M_GR_MANGO/src/tensorflow_lite/tensorflow/lite/kernels/internal\common.h ****   int32_t reduced_multiplier = (quantized_multiplier < 0x7FFF0000)
 185:C:/Renesas/e2studio_2021_01_workspace_RZA2M_ANPR/ANPR_RZA2M_GR_MANGO/src/tensorflow_lite/tensorflow/lite/kernels/internal\common.h ****                                    ? ((quantized_multiplier + (1 << 15)) >> 16)
 186:C:/Renesas/e2studio_2021_01_workspace_RZA2M_ANPR/ANPR_RZA2M_GR_MANGO/src/tensorflow_lite/tensorflow/lite/kernels/internal\common.h ****                                    : 0x7FFF;
 187:C:/Renesas/e2studio_2021_01_workspace_RZA2M_ANPR/ANPR_RZA2M_GR_MANGO/src/tensorflow_lite/tensorflow/lite/kernels/internal\common.h ****   int total_shift = 15 - shift;
 188:C:/Renesas/e2studio_2021_01_workspace_RZA2M_ANPR/ANPR_RZA2M_GR_MANGO/src/tensorflow_lite/tensorflow/lite/kernels/internal\common.h ****   x = (x * (int64_t)reduced_multiplier) + ((int64_t)1 << (total_shift - 1));
 189:C:/Renesas/e2studio_2021_01_workspace_RZA2M_ANPR/ANPR_RZA2M_GR_MANGO/src/tensorflow_lite/tensorflow/lite/kernels/internal\common.h ****   int32_t result = x >> total_shift;
 190:C:/Renesas/e2studio_2021_01_workspace_RZA2M_ANPR/ANPR_RZA2M_GR_MANGO/src/tensorflow_lite/tensorflow/lite/kernels/internal\common.h ****   return result;
 191:C:/Renesas/e2studio_2021_01_workspace_RZA2M_ANPR/ANPR_RZA2M_GR_MANGO/src/tensorflow_lite/tensorflow/lite/kernels/internal\common.h **** }
 192:C:/Renesas/e2studio_2021_01_workspace_RZA2M_ANPR/ANPR_RZA2M_GR_MANGO/src/tensorflow_lite/tensorflow/lite/kernels/internal\common.h **** 
 193:C:/Renesas/e2studio_2021_01_workspace_RZA2M_ANPR/ANPR_RZA2M_GR_MANGO/src/tensorflow_lite/tensorflow/lite/kernels/internal\common.h **** #ifdef USE_NEON
 194:C:/Renesas/e2studio_2021_01_workspace_RZA2M_ANPR/ANPR_RZA2M_GR_MANGO/src/tensorflow_lite/tensorflow/lite/kernels/internal\common.h **** // Round uses ARM's rounding shift right.
 195:C:/Renesas/e2studio_2021_01_workspace_RZA2M_ANPR/ANPR_RZA2M_GR_MANGO/src/tensorflow_lite/tensorflow/lite/kernels/internal\common.h **** inline int32x4x4_t MultiplyByQuantizedMultiplier4Rows(
 196:C:/Renesas/e2studio_2021_01_workspace_RZA2M_ANPR/ANPR_RZA2M_GR_MANGO/src/tensorflow_lite/tensorflow/lite/kernels/internal\common.h ****     int32x4x4_t input_val, int32_t quantized_multiplier, int shift) {
 197:C:/Renesas/e2studio_2021_01_workspace_RZA2M_ANPR/ANPR_RZA2M_GR_MANGO/src/tensorflow_lite/tensorflow/lite/kernels/internal\common.h ****   const int left_shift = std::max(shift, 0);
 198:C:/Renesas/e2studio_2021_01_workspace_RZA2M_ANPR/ANPR_RZA2M_GR_MANGO/src/tensorflow_lite/tensorflow/lite/kernels/internal\common.h ****   const int right_shift = std::min(shift, 0);
 199:C:/Renesas/e2studio_2021_01_workspace_RZA2M_ANPR/ANPR_RZA2M_GR_MANGO/src/tensorflow_lite/tensorflow/lite/kernels/internal\common.h ****   int32x4x4_t result;
 200:C:/Renesas/e2studio_2021_01_workspace_RZA2M_ANPR/ANPR_RZA2M_GR_MANGO/src/tensorflow_lite/tensorflow/lite/kernels/internal\common.h **** 
 201:C:/Renesas/e2studio_2021_01_workspace_RZA2M_ANPR/ANPR_RZA2M_GR_MANGO/src/tensorflow_lite/tensorflow/lite/kernels/internal\common.h ****   int32x4_t multiplier_dup = vdupq_n_s32(quantized_multiplier);
 202:C:/Renesas/e2studio_2021_01_workspace_RZA2M_ANPR/ANPR_RZA2M_GR_MANGO/src/tensorflow_lite/tensorflow/lite/kernels/internal\common.h ****   int32x4_t left_shift_dup = vdupq_n_s32(left_shift);
 203:C:/Renesas/e2studio_2021_01_workspace_RZA2M_ANPR/ANPR_RZA2M_GR_MANGO/src/tensorflow_lite/tensorflow/lite/kernels/internal\common.h ****   int32x4_t right_shift_dup = vdupq_n_s32(right_shift);
 204:C:/Renesas/e2studio_2021_01_workspace_RZA2M_ANPR/ANPR_RZA2M_GR_MANGO/src/tensorflow_lite/tensorflow/lite/kernels/internal\common.h **** 
 205:C:/Renesas/e2studio_2021_01_workspace_RZA2M_ANPR/ANPR_RZA2M_GR_MANGO/src/tensorflow_lite/tensorflow/lite/kernels/internal\common.h ****   result.val[0] =
 206:C:/Renesas/e2studio_2021_01_workspace_RZA2M_ANPR/ANPR_RZA2M_GR_MANGO/src/tensorflow_lite/tensorflow/lite/kernels/internal\common.h ****       vrshlq_s32(vqrdmulhq_s32(vshlq_s32(input_val.val[0], left_shift_dup),
 207:C:/Renesas/e2studio_2021_01_workspace_RZA2M_ANPR/ANPR_RZA2M_GR_MANGO/src/tensorflow_lite/tensorflow/lite/kernels/internal\common.h ****                                multiplier_dup),
 208:C:/Renesas/e2studio_2021_01_workspace_RZA2M_ANPR/ANPR_RZA2M_GR_MANGO/src/tensorflow_lite/tensorflow/lite/kernels/internal\common.h ****                  right_shift_dup);
 209:C:/Renesas/e2studio_2021_01_workspace_RZA2M_ANPR/ANPR_RZA2M_GR_MANGO/src/tensorflow_lite/tensorflow/lite/kernels/internal\common.h **** 
 210:C:/Renesas/e2studio_2021_01_workspace_RZA2M_ANPR/ANPR_RZA2M_GR_MANGO/src/tensorflow_lite/tensorflow/lite/kernels/internal\common.h ****   result.val[1] =
 211:C:/Renesas/e2studio_2021_01_workspace_RZA2M_ANPR/ANPR_RZA2M_GR_MANGO/src/tensorflow_lite/tensorflow/lite/kernels/internal\common.h ****       vrshlq_s32(vqrdmulhq_s32(vshlq_s32(input_val.val[1], left_shift_dup),
 212:C:/Renesas/e2studio_2021_01_workspace_RZA2M_ANPR/ANPR_RZA2M_GR_MANGO/src/tensorflow_lite/tensorflow/lite/kernels/internal\common.h ****                                multiplier_dup),
 213:C:/Renesas/e2studio_2021_01_workspace_RZA2M_ANPR/ANPR_RZA2M_GR_MANGO/src/tensorflow_lite/tensorflow/lite/kernels/internal\common.h ****                  right_shift_dup);
 214:C:/Renesas/e2studio_2021_01_workspace_RZA2M_ANPR/ANPR_RZA2M_GR_MANGO/src/tensorflow_lite/tensorflow/lite/kernels/internal\common.h **** 
 215:C:/Renesas/e2studio_2021_01_workspace_RZA2M_ANPR/ANPR_RZA2M_GR_MANGO/src/tensorflow_lite/tensorflow/lite/kernels/internal\common.h ****   result.val[2] =
 216:C:/Renesas/e2studio_2021_01_workspace_RZA2M_ANPR/ANPR_RZA2M_GR_MANGO/src/tensorflow_lite/tensorflow/lite/kernels/internal\common.h ****       vrshlq_s32(vqrdmulhq_s32(vshlq_s32(input_val.val[2], left_shift_dup),
 217:C:/Renesas/e2studio_2021_01_workspace_RZA2M_ANPR/ANPR_RZA2M_GR_MANGO/src/tensorflow_lite/tensorflow/lite/kernels/internal\common.h ****                                multiplier_dup),
 218:C:/Renesas/e2studio_2021_01_workspace_RZA2M_ANPR/ANPR_RZA2M_GR_MANGO/src/tensorflow_lite/tensorflow/lite/kernels/internal\common.h ****                  right_shift_dup);
 219:C:/Renesas/e2studio_2021_01_workspace_RZA2M_ANPR/ANPR_RZA2M_GR_MANGO/src/tensorflow_lite/tensorflow/lite/kernels/internal\common.h **** 
 220:C:/Renesas/e2studio_2021_01_workspace_RZA2M_ANPR/ANPR_RZA2M_GR_MANGO/src/tensorflow_lite/tensorflow/lite/kernels/internal\common.h ****   result.val[3] =
 221:C:/Renesas/e2studio_2021_01_workspace_RZA2M_ANPR/ANPR_RZA2M_GR_MANGO/src/tensorflow_lite/tensorflow/lite/kernels/internal\common.h ****       vrshlq_s32(vqrdmulhq_s32(vshlq_s32(input_val.val[3], left_shift_dup),
 222:C:/Renesas/e2studio_2021_01_workspace_RZA2M_ANPR/ANPR_RZA2M_GR_MANGO/src/tensorflow_lite/tensorflow/lite/kernels/internal\common.h ****                                multiplier_dup),
 223:C:/Renesas/e2studio_2021_01_workspace_RZA2M_ANPR/ANPR_RZA2M_GR_MANGO/src/tensorflow_lite/tensorflow/lite/kernels/internal\common.h ****                  right_shift_dup);
 224:C:/Renesas/e2studio_2021_01_workspace_RZA2M_ANPR/ANPR_RZA2M_GR_MANGO/src/tensorflow_lite/tensorflow/lite/kernels/internal\common.h **** 
 225:C:/Renesas/e2studio_2021_01_workspace_RZA2M_ANPR/ANPR_RZA2M_GR_MANGO/src/tensorflow_lite/tensorflow/lite/kernels/internal\common.h ****   return result;
 226:C:/Renesas/e2studio_2021_01_workspace_RZA2M_ANPR/ANPR_RZA2M_GR_MANGO/src/tensorflow_lite/tensorflow/lite/kernels/internal\common.h **** }
 227:C:/Renesas/e2studio_2021_01_workspace_RZA2M_ANPR/ANPR_RZA2M_GR_MANGO/src/tensorflow_lite/tensorflow/lite/kernels/internal\common.h **** #endif
 228:C:/Renesas/e2studio_2021_01_workspace_RZA2M_ANPR/ANPR_RZA2M_GR_MANGO/src/tensorflow_lite/tensorflow/lite/kernels/internal\common.h **** 
 229:C:/Renesas/e2studio_2021_01_workspace_RZA2M_ANPR/ANPR_RZA2M_GR_MANGO/src/tensorflow_lite/tensorflow/lite/kernels/internal\common.h **** template <typename T>
 230:C:/Renesas/e2studio_2021_01_workspace_RZA2M_ANPR/ANPR_RZA2M_GR_MANGO/src/tensorflow_lite/tensorflow/lite/kernels/internal\common.h **** int CountLeadingZeros(T integer_input) {
 231:C:/Renesas/e2studio_2021_01_workspace_RZA2M_ANPR/ANPR_RZA2M_GR_MANGO/src/tensorflow_lite/tensorflow/lite/kernels/internal\common.h ****   static_assert(std::is_unsigned<T>::value,
 232:C:/Renesas/e2studio_2021_01_workspace_RZA2M_ANPR/ANPR_RZA2M_GR_MANGO/src/tensorflow_lite/tensorflow/lite/kernels/internal\common.h ****                 "Only unsigned integer types handled.");
 233:C:/Renesas/e2studio_2021_01_workspace_RZA2M_ANPR/ANPR_RZA2M_GR_MANGO/src/tensorflow_lite/tensorflow/lite/kernels/internal\common.h **** #if defined(__GNUC__)
 234:C:/Renesas/e2studio_2021_01_workspace_RZA2M_ANPR/ANPR_RZA2M_GR_MANGO/src/tensorflow_lite/tensorflow/lite/kernels/internal\common.h ****   return integer_input ? __builtin_clz(integer_input)
 235:C:/Renesas/e2studio_2021_01_workspace_RZA2M_ANPR/ANPR_RZA2M_GR_MANGO/src/tensorflow_lite/tensorflow/lite/kernels/internal\common.h ****                        : std::numeric_limits<T>::digits;
 236:C:/Renesas/e2studio_2021_01_workspace_RZA2M_ANPR/ANPR_RZA2M_GR_MANGO/src/tensorflow_lite/tensorflow/lite/kernels/internal\common.h **** #else
 237:C:/Renesas/e2studio_2021_01_workspace_RZA2M_ANPR/ANPR_RZA2M_GR_MANGO/src/tensorflow_lite/tensorflow/lite/kernels/internal\common.h ****   if (integer_input == 0) {
 238:C:/Renesas/e2studio_2021_01_workspace_RZA2M_ANPR/ANPR_RZA2M_GR_MANGO/src/tensorflow_lite/tensorflow/lite/kernels/internal\common.h ****     return std::numeric_limits<T>::digits;
 239:C:/Renesas/e2studio_2021_01_workspace_RZA2M_ANPR/ANPR_RZA2M_GR_MANGO/src/tensorflow_lite/tensorflow/lite/kernels/internal\common.h ****   }
 240:C:/Renesas/e2studio_2021_01_workspace_RZA2M_ANPR/ANPR_RZA2M_GR_MANGO/src/tensorflow_lite/tensorflow/lite/kernels/internal\common.h **** 
 241:C:/Renesas/e2studio_2021_01_workspace_RZA2M_ANPR/ANPR_RZA2M_GR_MANGO/src/tensorflow_lite/tensorflow/lite/kernels/internal\common.h ****   const T one_in_leading_positive = static_cast<T>(1)
 242:C:/Renesas/e2studio_2021_01_workspace_RZA2M_ANPR/ANPR_RZA2M_GR_MANGO/src/tensorflow_lite/tensorflow/lite/kernels/internal\common.h ****                                     << (std::numeric_limits<T>::digits - 1);
 243:C:/Renesas/e2studio_2021_01_workspace_RZA2M_ANPR/ANPR_RZA2M_GR_MANGO/src/tensorflow_lite/tensorflow/lite/kernels/internal\common.h ****   int leading_zeros = 0;
 244:C:/Renesas/e2studio_2021_01_workspace_RZA2M_ANPR/ANPR_RZA2M_GR_MANGO/src/tensorflow_lite/tensorflow/lite/kernels/internal\common.h ****   while (integer_input < one_in_leading_positive) {
 245:C:/Renesas/e2studio_2021_01_workspace_RZA2M_ANPR/ANPR_RZA2M_GR_MANGO/src/tensorflow_lite/tensorflow/lite/kernels/internal\common.h ****     integer_input <<= 1;
 246:C:/Renesas/e2studio_2021_01_workspace_RZA2M_ANPR/ANPR_RZA2M_GR_MANGO/src/tensorflow_lite/tensorflow/lite/kernels/internal\common.h ****     ++leading_zeros;
 247:C:/Renesas/e2studio_2021_01_workspace_RZA2M_ANPR/ANPR_RZA2M_GR_MANGO/src/tensorflow_lite/tensorflow/lite/kernels/internal\common.h ****   }
 248:C:/Renesas/e2studio_2021_01_workspace_RZA2M_ANPR/ANPR_RZA2M_GR_MANGO/src/tensorflow_lite/tensorflow/lite/kernels/internal\common.h ****   return leading_zeros;
 249:C:/Renesas/e2studio_2021_01_workspace_RZA2M_ANPR/ANPR_RZA2M_GR_MANGO/src/tensorflow_lite/tensorflow/lite/kernels/internal\common.h **** #endif
 250:C:/Renesas/e2studio_2021_01_workspace_RZA2M_ANPR/ANPR_RZA2M_GR_MANGO/src/tensorflow_lite/tensorflow/lite/kernels/internal\common.h **** }
 251:C:/Renesas/e2studio_2021_01_workspace_RZA2M_ANPR/ANPR_RZA2M_GR_MANGO/src/tensorflow_lite/tensorflow/lite/kernels/internal\common.h **** 
 252:C:/Renesas/e2studio_2021_01_workspace_RZA2M_ANPR/ANPR_RZA2M_GR_MANGO/src/tensorflow_lite/tensorflow/lite/kernels/internal\common.h **** template <typename T>
 253:C:/Renesas/e2studio_2021_01_workspace_RZA2M_ANPR/ANPR_RZA2M_GR_MANGO/src/tensorflow_lite/tensorflow/lite/kernels/internal\common.h **** inline int CountLeadingSignBits(T integer_input) {
 254:C:/Renesas/e2studio_2021_01_workspace_RZA2M_ANPR/ANPR_RZA2M_GR_MANGO/src/tensorflow_lite/tensorflow/lite/kernels/internal\common.h ****   static_assert(std::is_signed<T>::value, "Only signed integer types handled.");
 255:C:/Renesas/e2studio_2021_01_workspace_RZA2M_ANPR/ANPR_RZA2M_GR_MANGO/src/tensorflow_lite/tensorflow/lite/kernels/internal\common.h **** #if defined(__GNUC__) && !defined(__clang__)
 256:C:/Renesas/e2studio_2021_01_workspace_RZA2M_ANPR/ANPR_RZA2M_GR_MANGO/src/tensorflow_lite/tensorflow/lite/kernels/internal\common.h ****   return integer_input ? __builtin_clrsb(integer_input)
 257:C:/Renesas/e2studio_2021_01_workspace_RZA2M_ANPR/ANPR_RZA2M_GR_MANGO/src/tensorflow_lite/tensorflow/lite/kernels/internal\common.h ****                        : std::numeric_limits<T>::digits;
 258:C:/Renesas/e2studio_2021_01_workspace_RZA2M_ANPR/ANPR_RZA2M_GR_MANGO/src/tensorflow_lite/tensorflow/lite/kernels/internal\common.h **** #else
 259:C:/Renesas/e2studio_2021_01_workspace_RZA2M_ANPR/ANPR_RZA2M_GR_MANGO/src/tensorflow_lite/tensorflow/lite/kernels/internal\common.h ****   using U = typename std::make_unsigned<T>::type;
 260:C:/Renesas/e2studio_2021_01_workspace_RZA2M_ANPR/ANPR_RZA2M_GR_MANGO/src/tensorflow_lite/tensorflow/lite/kernels/internal\common.h ****   return integer_input >= 0
 261:C:/Renesas/e2studio_2021_01_workspace_RZA2M_ANPR/ANPR_RZA2M_GR_MANGO/src/tensorflow_lite/tensorflow/lite/kernels/internal\common.h ****              ? CountLeadingZeros(static_cast<U>(integer_input)) - 1
 262:C:/Renesas/e2studio_2021_01_workspace_RZA2M_ANPR/ANPR_RZA2M_GR_MANGO/src/tensorflow_lite/tensorflow/lite/kernels/internal\common.h ****          : integer_input != std::numeric_limits<T>::min()
 263:C:/Renesas/e2studio_2021_01_workspace_RZA2M_ANPR/ANPR_RZA2M_GR_MANGO/src/tensorflow_lite/tensorflow/lite/kernels/internal\common.h ****              ? CountLeadingZeros(2 * static_cast<U>(-integer_input) - 1)
 264:C:/Renesas/e2studio_2021_01_workspace_RZA2M_ANPR/ANPR_RZA2M_GR_MANGO/src/tensorflow_lite/tensorflow/lite/kernels/internal\common.h ****              : 0;
 265:C:/Renesas/e2studio_2021_01_workspace_RZA2M_ANPR/ANPR_RZA2M_GR_MANGO/src/tensorflow_lite/tensorflow/lite/kernels/internal\common.h **** #endif
 266:C:/Renesas/e2studio_2021_01_workspace_RZA2M_ANPR/ANPR_RZA2M_GR_MANGO/src/tensorflow_lite/tensorflow/lite/kernels/internal\common.h **** }
 267:C:/Renesas/e2studio_2021_01_workspace_RZA2M_ANPR/ANPR_RZA2M_GR_MANGO/src/tensorflow_lite/tensorflow/lite/kernels/internal\common.h **** 
 268:C:/Renesas/e2studio_2021_01_workspace_RZA2M_ANPR/ANPR_RZA2M_GR_MANGO/src/tensorflow_lite/tensorflow/lite/kernels/internal\common.h **** // Use "count leading zeros" helper functions to do a fast Floor(log_2(x)).
 269:C:/Renesas/e2studio_2021_01_workspace_RZA2M_ANPR/ANPR_RZA2M_GR_MANGO/src/tensorflow_lite/tensorflow/lite/kernels/internal\common.h **** template <typename Integer>
 270:C:/Renesas/e2studio_2021_01_workspace_RZA2M_ANPR/ANPR_RZA2M_GR_MANGO/src/tensorflow_lite/tensorflow/lite/kernels/internal\common.h **** inline Integer FloorLog2(Integer n) {
 271:C:/Renesas/e2studio_2021_01_workspace_RZA2M_ANPR/ANPR_RZA2M_GR_MANGO/src/tensorflow_lite/tensorflow/lite/kernels/internal\common.h ****   static_assert(std::is_integral<Integer>::value, "");
 272:C:/Renesas/e2studio_2021_01_workspace_RZA2M_ANPR/ANPR_RZA2M_GR_MANGO/src/tensorflow_lite/tensorflow/lite/kernels/internal\common.h ****   static_assert(std::is_signed<Integer>::value, "");
 273:C:/Renesas/e2studio_2021_01_workspace_RZA2M_ANPR/ANPR_RZA2M_GR_MANGO/src/tensorflow_lite/tensorflow/lite/kernels/internal\common.h ****   static_assert(sizeof(Integer) == 4 || sizeof(Integer) == 8, "");
 274:C:/Renesas/e2studio_2021_01_workspace_RZA2M_ANPR/ANPR_RZA2M_GR_MANGO/src/tensorflow_lite/tensorflow/lite/kernels/internal\common.h ****   TFLITE_CHECK_GT(n, 0);
 275:C:/Renesas/e2studio_2021_01_workspace_RZA2M_ANPR/ANPR_RZA2M_GR_MANGO/src/tensorflow_lite/tensorflow/lite/kernels/internal\common.h ****   if (sizeof(Integer) == 4) {
 276:C:/Renesas/e2studio_2021_01_workspace_RZA2M_ANPR/ANPR_RZA2M_GR_MANGO/src/tensorflow_lite/tensorflow/lite/kernels/internal\common.h ****     return 30 - CountLeadingSignBits(n);
 277:C:/Renesas/e2studio_2021_01_workspace_RZA2M_ANPR/ANPR_RZA2M_GR_MANGO/src/tensorflow_lite/tensorflow/lite/kernels/internal\common.h ****   } else {
 278:C:/Renesas/e2studio_2021_01_workspace_RZA2M_ANPR/ANPR_RZA2M_GR_MANGO/src/tensorflow_lite/tensorflow/lite/kernels/internal\common.h ****     return 62 - CountLeadingSignBits(n);
 279:C:/Renesas/e2studio_2021_01_workspace_RZA2M_ANPR/ANPR_RZA2M_GR_MANGO/src/tensorflow_lite/tensorflow/lite/kernels/internal\common.h ****   }
 280:C:/Renesas/e2studio_2021_01_workspace_RZA2M_ANPR/ANPR_RZA2M_GR_MANGO/src/tensorflow_lite/tensorflow/lite/kernels/internal\common.h **** }
 281:C:/Renesas/e2studio_2021_01_workspace_RZA2M_ANPR/ANPR_RZA2M_GR_MANGO/src/tensorflow_lite/tensorflow/lite/kernels/internal\common.h **** 
 282:C:/Renesas/e2studio_2021_01_workspace_RZA2M_ANPR/ANPR_RZA2M_GR_MANGO/src/tensorflow_lite/tensorflow/lite/kernels/internal\common.h **** // generate INT16 LUT for function(), e.g., table exp(x) and 1/(1+x) used in
 283:C:/Renesas/e2studio_2021_01_workspace_RZA2M_ANPR/ANPR_RZA2M_GR_MANGO/src/tensorflow_lite/tensorflow/lite/kernels/internal\common.h **** // softmax
 284:C:/Renesas/e2studio_2021_01_workspace_RZA2M_ANPR/ANPR_RZA2M_GR_MANGO/src/tensorflow_lite/tensorflow/lite/kernels/internal\common.h **** // func - the function to build the LUT for (e.g exp(x))
 285:C:/Renesas/e2studio_2021_01_workspace_RZA2M_ANPR/ANPR_RZA2M_GR_MANGO/src/tensorflow_lite/tensorflow/lite/kernels/internal\common.h **** // min,max - table limits
 286:C:/Renesas/e2studio_2021_01_workspace_RZA2M_ANPR/ANPR_RZA2M_GR_MANGO/src/tensorflow_lite/tensorflow/lite/kernels/internal\common.h **** // table - pointer to buffer
 287:C:/Renesas/e2studio_2021_01_workspace_RZA2M_ANPR/ANPR_RZA2M_GR_MANGO/src/tensorflow_lite/tensorflow/lite/kernels/internal\common.h **** // num - number of elements in the LUT
 288:C:/Renesas/e2studio_2021_01_workspace_RZA2M_ANPR/ANPR_RZA2M_GR_MANGO/src/tensorflow_lite/tensorflow/lite/kernels/internal\common.h **** inline void gen_lut(double (*func)(double), double min, double max,
 289:C:/Renesas/e2studio_2021_01_workspace_RZA2M_ANPR/ANPR_RZA2M_GR_MANGO/src/tensorflow_lite/tensorflow/lite/kernels/internal\common.h ****                     int16_t* table, const int num) {
 290:C:/Renesas/e2studio_2021_01_workspace_RZA2M_ANPR/ANPR_RZA2M_GR_MANGO/src/tensorflow_lite/tensorflow/lite/kernels/internal\common.h ****   // size of table should equal to num + 1
 291:C:/Renesas/e2studio_2021_01_workspace_RZA2M_ANPR/ANPR_RZA2M_GR_MANGO/src/tensorflow_lite/tensorflow/lite/kernels/internal\common.h ****   // last element only for slope calculation
 292:C:/Renesas/e2studio_2021_01_workspace_RZA2M_ANPR/ANPR_RZA2M_GR_MANGO/src/tensorflow_lite/tensorflow/lite/kernels/internal\common.h ****   double step = (max - min) / (num - 1);
 293:C:/Renesas/e2studio_2021_01_workspace_RZA2M_ANPR/ANPR_RZA2M_GR_MANGO/src/tensorflow_lite/tensorflow/lite/kernels/internal\common.h ****   double half_step = step / 2.0;
 294:C:/Renesas/e2studio_2021_01_workspace_RZA2M_ANPR/ANPR_RZA2M_GR_MANGO/src/tensorflow_lite/tensorflow/lite/kernels/internal\common.h ****   for (int i = 0; i < num - 1; i++) {
 295:C:/Renesas/e2studio_2021_01_workspace_RZA2M_ANPR/ANPR_RZA2M_GR_MANGO/src/tensorflow_lite/tensorflow/lite/kernels/internal\common.h ****     double sample_val = TfLiteRound(func(min + i * step) * 32768.0);
 296:C:/Renesas/e2studio_2021_01_workspace_RZA2M_ANPR/ANPR_RZA2M_GR_MANGO/src/tensorflow_lite/tensorflow/lite/kernels/internal\common.h ****     double midpoint_interp_val =
 297:C:/Renesas/e2studio_2021_01_workspace_RZA2M_ANPR/ANPR_RZA2M_GR_MANGO/src/tensorflow_lite/tensorflow/lite/kernels/internal\common.h ****         TfLiteRound((func(min + (i + 1) * step) * 32768.0 +
 298:C:/Renesas/e2studio_2021_01_workspace_RZA2M_ANPR/ANPR_RZA2M_GR_MANGO/src/tensorflow_lite/tensorflow/lite/kernels/internal\common.h ****                      TfLiteRound(func(min + i * step) * 32768.0)) /
 299:C:/Renesas/e2studio_2021_01_workspace_RZA2M_ANPR/ANPR_RZA2M_GR_MANGO/src/tensorflow_lite/tensorflow/lite/kernels/internal\common.h ****                     2.0);
 300:C:/Renesas/e2studio_2021_01_workspace_RZA2M_ANPR/ANPR_RZA2M_GR_MANGO/src/tensorflow_lite/tensorflow/lite/kernels/internal\common.h ****     double midpoint_val =
 301:C:/Renesas/e2studio_2021_01_workspace_RZA2M_ANPR/ANPR_RZA2M_GR_MANGO/src/tensorflow_lite/tensorflow/lite/kernels/internal\common.h ****         TfLiteRound(func(min + i * step + half_step) * 32768.0);
 302:C:/Renesas/e2studio_2021_01_workspace_RZA2M_ANPR/ANPR_RZA2M_GR_MANGO/src/tensorflow_lite/tensorflow/lite/kernels/internal\common.h ****     double midpoint_err = midpoint_interp_val - midpoint_val;
 303:C:/Renesas/e2studio_2021_01_workspace_RZA2M_ANPR/ANPR_RZA2M_GR_MANGO/src/tensorflow_lite/tensorflow/lite/kernels/internal\common.h ****     double bias = TfLiteRound(midpoint_err / 2.0);
 304:C:/Renesas/e2studio_2021_01_workspace_RZA2M_ANPR/ANPR_RZA2M_GR_MANGO/src/tensorflow_lite/tensorflow/lite/kernels/internal\common.h ****     table[i] = std::min<double>(std::max<double>(sample_val - bias, -32768.0),
 305:C:/Renesas/e2studio_2021_01_workspace_RZA2M_ANPR/ANPR_RZA2M_GR_MANGO/src/tensorflow_lite/tensorflow/lite/kernels/internal\common.h ****                                 32767.0);
 306:C:/Renesas/e2studio_2021_01_workspace_RZA2M_ANPR/ANPR_RZA2M_GR_MANGO/src/tensorflow_lite/tensorflow/lite/kernels/internal\common.h ****   }
 307:C:/Renesas/e2studio_2021_01_workspace_RZA2M_ANPR/ANPR_RZA2M_GR_MANGO/src/tensorflow_lite/tensorflow/lite/kernels/internal\common.h ****   table[num - 1] = std::min<double>(
 308:C:/Renesas/e2studio_2021_01_workspace_RZA2M_ANPR/ANPR_RZA2M_GR_MANGO/src/tensorflow_lite/tensorflow/lite/kernels/internal\common.h ****       std::max<double>(TfLiteRound(func(max) * 32768.0), -32768.0), 32767.0);
 309:C:/Renesas/e2studio_2021_01_workspace_RZA2M_ANPR/ANPR_RZA2M_GR_MANGO/src/tensorflow_lite/tensorflow/lite/kernels/internal\common.h **** }
 310:C:/Renesas/e2studio_2021_01_workspace_RZA2M_ANPR/ANPR_RZA2M_GR_MANGO/src/tensorflow_lite/tensorflow/lite/kernels/internal\common.h **** 
 311:C:/Renesas/e2studio_2021_01_workspace_RZA2M_ANPR/ANPR_RZA2M_GR_MANGO/src/tensorflow_lite/tensorflow/lite/kernels/internal\common.h **** // generate INT16 LUT for function(), e.g., table exp(x) and 1/(1+x) used in
 312:C:/Renesas/e2studio_2021_01_workspace_RZA2M_ANPR/ANPR_RZA2M_GR_MANGO/src/tensorflow_lite/tensorflow/lite/kernels/internal\common.h **** // softmax
 313:C:/Renesas/e2studio_2021_01_workspace_RZA2M_ANPR/ANPR_RZA2M_GR_MANGO/src/tensorflow_lite/tensorflow/lite/kernels/internal\common.h **** // func - the function to build the LUT for (e.g exp(x))
 314:C:/Renesas/e2studio_2021_01_workspace_RZA2M_ANPR/ANPR_RZA2M_GR_MANGO/src/tensorflow_lite/tensorflow/lite/kernels/internal\common.h **** // min,max - table limits
 315:C:/Renesas/e2studio_2021_01_workspace_RZA2M_ANPR/ANPR_RZA2M_GR_MANGO/src/tensorflow_lite/tensorflow/lite/kernels/internal\common.h **** // table - pointer to buffer
 316:C:/Renesas/e2studio_2021_01_workspace_RZA2M_ANPR/ANPR_RZA2M_GR_MANGO/src/tensorflow_lite/tensorflow/lite/kernels/internal\common.h **** // num - number of elements in the LUT
 317:C:/Renesas/e2studio_2021_01_workspace_RZA2M_ANPR/ANPR_RZA2M_GR_MANGO/src/tensorflow_lite/tensorflow/lite/kernels/internal\common.h **** inline void gen_lut(float (*func)(float), float min, float max, int16_t* table,
 318:C:/Renesas/e2studio_2021_01_workspace_RZA2M_ANPR/ANPR_RZA2M_GR_MANGO/src/tensorflow_lite/tensorflow/lite/kernels/internal\common.h ****                     const int num) {
 319:C:/Renesas/e2studio_2021_01_workspace_RZA2M_ANPR/ANPR_RZA2M_GR_MANGO/src/tensorflow_lite/tensorflow/lite/kernels/internal\common.h ****   // size of table should equal to num + 1
 320:C:/Renesas/e2studio_2021_01_workspace_RZA2M_ANPR/ANPR_RZA2M_GR_MANGO/src/tensorflow_lite/tensorflow/lite/kernels/internal\common.h ****   // last element only for slope calculation
 321:C:/Renesas/e2studio_2021_01_workspace_RZA2M_ANPR/ANPR_RZA2M_GR_MANGO/src/tensorflow_lite/tensorflow/lite/kernels/internal\common.h ****   float step = (max - min) / (num - 1);
 322:C:/Renesas/e2studio_2021_01_workspace_RZA2M_ANPR/ANPR_RZA2M_GR_MANGO/src/tensorflow_lite/tensorflow/lite/kernels/internal\common.h ****   float half_step = step / 2.0f;
 323:C:/Renesas/e2studio_2021_01_workspace_RZA2M_ANPR/ANPR_RZA2M_GR_MANGO/src/tensorflow_lite/tensorflow/lite/kernels/internal\common.h ****   for (int i = 0; i < num - 1; i++) {
 324:C:/Renesas/e2studio_2021_01_workspace_RZA2M_ANPR/ANPR_RZA2M_GR_MANGO/src/tensorflow_lite/tensorflow/lite/kernels/internal\common.h ****     float sample_val = TfLiteRound(func(min + i * step) * 32768.0f);
 451              		.loc 3 324 0
 452 029c BFCA9FED 		vldr.32	s24, .L92+16
 453 02a0 BF8ADFED 		vldr.32	s17, .L92+20
 454 02a4 02B04AE2 		sub	fp, r10, #2
 325:C:/Renesas/e2studio_2021_01_workspace_RZA2M_ANPR/ANPR_RZA2M_GR_MANGO/src/tensorflow_lite/tensorflow/lite/kernels/internal\common.h ****     float midpoint_interp_val =
 326:C:/Renesas/e2studio_2021_01_workspace_RZA2M_ANPR/ANPR_RZA2M_GR_MANGO/src/tensorflow_lite/tensorflow/lite/kernels/internal\common.h ****         TfLiteRound((func(min + (i + 1) * step) * 32768.0f +
 327:C:/Renesas/e2studio_2021_01_workspace_RZA2M_ANPR/ANPR_RZA2M_GR_MANGO/src/tensorflow_lite/tensorflow/lite/kernels/internal\common.h ****                      TfLiteRound(func(min + i * step) * 32768.0f)) /
 328:C:/Renesas/e2studio_2021_01_workspace_RZA2M_ANPR/ANPR_RZA2M_GR_MANGO/src/tensorflow_lite/tensorflow/lite/kernels/internal\common.h ****                     2.0f);
 329:C:/Renesas/e2studio_2021_01_workspace_RZA2M_ANPR/ANPR_RZA2M_GR_MANGO/src/tensorflow_lite/tensorflow/lite/kernels/internal\common.h ****     float midpoint_val =
 330:C:/Renesas/e2studio_2021_01_workspace_RZA2M_ANPR/ANPR_RZA2M_GR_MANGO/src/tensorflow_lite/tensorflow/lite/kernels/internal\common.h ****         TfLiteRound(func(min + i * step + half_step) * 32768.0f);
 455              		.loc 3 330 0
 456 02a8 BECADFED 		vldr.32	s25, .L92+24
 331:C:/Renesas/e2studio_2021_01_workspace_RZA2M_ANPR/ANPR_RZA2M_GR_MANGO/src/tensorflow_lite/tensorflow/lite/kernels/internal\common.h ****     float midpoint_err = midpoint_interp_val - midpoint_val;
 332:C:/Renesas/e2studio_2021_01_workspace_RZA2M_ANPR/ANPR_RZA2M_GR_MANGO/src/tensorflow_lite/tensorflow/lite/kernels/internal\common.h ****     float bias = TfLiteRound(midpoint_err / 2.0f);
 333:C:/Renesas/e2studio_2021_01_workspace_RZA2M_ANPR/ANPR_RZA2M_GR_MANGO/src/tensorflow_lite/tensorflow/lite/kernels/internal\common.h ****     table[i] = std::min<float>(std::max<float>(sample_val - bias, -32768.0f),
 334:C:/Renesas/e2studio_2021_01_workspace_RZA2M_ANPR/ANPR_RZA2M_GR_MANGO/src/tensorflow_lite/tensorflow/lite/kernels/internal\common.h ****                                32767.0f);
 457              		.loc 3 334 0
 458 02ac BEBA9FED 		vldr.32	s22, .L92+28
 459 02b0 BEDA9FED 		vldr.32	s26, .L92+32
 324:C:/Renesas/e2studio_2021_01_workspace_RZA2M_ANPR/ANPR_RZA2M_GR_MANGO/src/tensorflow_lite/tensorflow/lite/kernels/internal\common.h ****     float midpoint_interp_val =
 460              		.loc 3 324 0
 461 02b4 04BAF2EE 		vmov.f32	s23, #1.0e+1
 462 02b8 060000EA 		b	.L26
 463              	.LVL34:
 464              	.L86:
 465              	.LBB283:
 466              	.LBB284:
 467              		.file 4 "c:\\program files (x86)\\gnu tools arm embedded\\6 2017-q2-update\\arm-none-eabi\\include
   1:c:\program files (x86)\gnu tools arm embedded\6 2017-q2-update\arm-none-eabi\include\c++\6.3.1\bits\stl_algobase.h **** // Core algorithmic facilities -*- C++ -*-
   2:c:\program files (x86)\gnu tools arm embedded\6 2017-q2-update\arm-none-eabi\include\c++\6.3.1\bits\stl_algobase.h **** 
   3:c:\program files (x86)\gnu tools arm embedded\6 2017-q2-update\arm-none-eabi\include\c++\6.3.1\bits\stl_algobase.h **** // Copyright (C) 2001-2016 Free Software Foundation, Inc.
   4:c:\program files (x86)\gnu tools arm embedded\6 2017-q2-update\arm-none-eabi\include\c++\6.3.1\bits\stl_algobase.h **** //
   5:c:\program files (x86)\gnu tools arm embedded\6 2017-q2-update\arm-none-eabi\include\c++\6.3.1\bits\stl_algobase.h **** // This file is part of the GNU ISO C++ Library.  This library is free
   6:c:\program files (x86)\gnu tools arm embedded\6 2017-q2-update\arm-none-eabi\include\c++\6.3.1\bits\stl_algobase.h **** // software; you can redistribute it and/or modify it under the
   7:c:\program files (x86)\gnu tools arm embedded\6 2017-q2-update\arm-none-eabi\include\c++\6.3.1\bits\stl_algobase.h **** // terms of the GNU General Public License as published by the
   8:c:\program files (x86)\gnu tools arm embedded\6 2017-q2-update\arm-none-eabi\include\c++\6.3.1\bits\stl_algobase.h **** // Free Software Foundation; either version 3, or (at your option)
   9:c:\program files (x86)\gnu tools arm embedded\6 2017-q2-update\arm-none-eabi\include\c++\6.3.1\bits\stl_algobase.h **** // any later version.
  10:c:\program files (x86)\gnu tools arm embedded\6 2017-q2-update\arm-none-eabi\include\c++\6.3.1\bits\stl_algobase.h **** 
  11:c:\program files (x86)\gnu tools arm embedded\6 2017-q2-update\arm-none-eabi\include\c++\6.3.1\bits\stl_algobase.h **** // This library is distributed in the hope that it will be useful,
  12:c:\program files (x86)\gnu tools arm embedded\6 2017-q2-update\arm-none-eabi\include\c++\6.3.1\bits\stl_algobase.h **** // but WITHOUT ANY WARRANTY; without even the implied warranty of
  13:c:\program files (x86)\gnu tools arm embedded\6 2017-q2-update\arm-none-eabi\include\c++\6.3.1\bits\stl_algobase.h **** // MERCHANTABILITY or FITNESS FOR A PARTICULAR PURPOSE.  See the
  14:c:\program files (x86)\gnu tools arm embedded\6 2017-q2-update\arm-none-eabi\include\c++\6.3.1\bits\stl_algobase.h **** // GNU General Public License for more details.
  15:c:\program files (x86)\gnu tools arm embedded\6 2017-q2-update\arm-none-eabi\include\c++\6.3.1\bits\stl_algobase.h **** 
  16:c:\program files (x86)\gnu tools arm embedded\6 2017-q2-update\arm-none-eabi\include\c++\6.3.1\bits\stl_algobase.h **** // Under Section 7 of GPL version 3, you are granted additional
  17:c:\program files (x86)\gnu tools arm embedded\6 2017-q2-update\arm-none-eabi\include\c++\6.3.1\bits\stl_algobase.h **** // permissions described in the GCC Runtime Library Exception, version
  18:c:\program files (x86)\gnu tools arm embedded\6 2017-q2-update\arm-none-eabi\include\c++\6.3.1\bits\stl_algobase.h **** // 3.1, as published by the Free Software Foundation.
  19:c:\program files (x86)\gnu tools arm embedded\6 2017-q2-update\arm-none-eabi\include\c++\6.3.1\bits\stl_algobase.h **** 
  20:c:\program files (x86)\gnu tools arm embedded\6 2017-q2-update\arm-none-eabi\include\c++\6.3.1\bits\stl_algobase.h **** // You should have received a copy of the GNU General Public License and
  21:c:\program files (x86)\gnu tools arm embedded\6 2017-q2-update\arm-none-eabi\include\c++\6.3.1\bits\stl_algobase.h **** // a copy of the GCC Runtime Library Exception along with this program;
  22:c:\program files (x86)\gnu tools arm embedded\6 2017-q2-update\arm-none-eabi\include\c++\6.3.1\bits\stl_algobase.h **** // see the files COPYING3 and COPYING.RUNTIME respectively.  If not, see
  23:c:\program files (x86)\gnu tools arm embedded\6 2017-q2-update\arm-none-eabi\include\c++\6.3.1\bits\stl_algobase.h **** // <http://www.gnu.org/licenses/>.
  24:c:\program files (x86)\gnu tools arm embedded\6 2017-q2-update\arm-none-eabi\include\c++\6.3.1\bits\stl_algobase.h **** 
  25:c:\program files (x86)\gnu tools arm embedded\6 2017-q2-update\arm-none-eabi\include\c++\6.3.1\bits\stl_algobase.h **** /*
  26:c:\program files (x86)\gnu tools arm embedded\6 2017-q2-update\arm-none-eabi\include\c++\6.3.1\bits\stl_algobase.h ****  *
  27:c:\program files (x86)\gnu tools arm embedded\6 2017-q2-update\arm-none-eabi\include\c++\6.3.1\bits\stl_algobase.h ****  * Copyright (c) 1994
  28:c:\program files (x86)\gnu tools arm embedded\6 2017-q2-update\arm-none-eabi\include\c++\6.3.1\bits\stl_algobase.h ****  * Hewlett-Packard Company
  29:c:\program files (x86)\gnu tools arm embedded\6 2017-q2-update\arm-none-eabi\include\c++\6.3.1\bits\stl_algobase.h ****  *
  30:c:\program files (x86)\gnu tools arm embedded\6 2017-q2-update\arm-none-eabi\include\c++\6.3.1\bits\stl_algobase.h ****  * Permission to use, copy, modify, distribute and sell this software
  31:c:\program files (x86)\gnu tools arm embedded\6 2017-q2-update\arm-none-eabi\include\c++\6.3.1\bits\stl_algobase.h ****  * and its documentation for any purpose is hereby granted without fee,
  32:c:\program files (x86)\gnu tools arm embedded\6 2017-q2-update\arm-none-eabi\include\c++\6.3.1\bits\stl_algobase.h ****  * provided that the above copyright notice appear in all copies and
  33:c:\program files (x86)\gnu tools arm embedded\6 2017-q2-update\arm-none-eabi\include\c++\6.3.1\bits\stl_algobase.h ****  * that both that copyright notice and this permission notice appear
  34:c:\program files (x86)\gnu tools arm embedded\6 2017-q2-update\arm-none-eabi\include\c++\6.3.1\bits\stl_algobase.h ****  * in supporting documentation.  Hewlett-Packard Company makes no
  35:c:\program files (x86)\gnu tools arm embedded\6 2017-q2-update\arm-none-eabi\include\c++\6.3.1\bits\stl_algobase.h ****  * representations about the suitability of this software for any
  36:c:\program files (x86)\gnu tools arm embedded\6 2017-q2-update\arm-none-eabi\include\c++\6.3.1\bits\stl_algobase.h ****  * purpose.  It is provided "as is" without express or implied warranty.
  37:c:\program files (x86)\gnu tools arm embedded\6 2017-q2-update\arm-none-eabi\include\c++\6.3.1\bits\stl_algobase.h ****  *
  38:c:\program files (x86)\gnu tools arm embedded\6 2017-q2-update\arm-none-eabi\include\c++\6.3.1\bits\stl_algobase.h ****  *
  39:c:\program files (x86)\gnu tools arm embedded\6 2017-q2-update\arm-none-eabi\include\c++\6.3.1\bits\stl_algobase.h ****  * Copyright (c) 1996-1998
  40:c:\program files (x86)\gnu tools arm embedded\6 2017-q2-update\arm-none-eabi\include\c++\6.3.1\bits\stl_algobase.h ****  * Silicon Graphics Computer Systems, Inc.
  41:c:\program files (x86)\gnu tools arm embedded\6 2017-q2-update\arm-none-eabi\include\c++\6.3.1\bits\stl_algobase.h ****  *
  42:c:\program files (x86)\gnu tools arm embedded\6 2017-q2-update\arm-none-eabi\include\c++\6.3.1\bits\stl_algobase.h ****  * Permission to use, copy, modify, distribute and sell this software
  43:c:\program files (x86)\gnu tools arm embedded\6 2017-q2-update\arm-none-eabi\include\c++\6.3.1\bits\stl_algobase.h ****  * and its documentation for any purpose is hereby granted without fee,
  44:c:\program files (x86)\gnu tools arm embedded\6 2017-q2-update\arm-none-eabi\include\c++\6.3.1\bits\stl_algobase.h ****  * provided that the above copyright notice appear in all copies and
  45:c:\program files (x86)\gnu tools arm embedded\6 2017-q2-update\arm-none-eabi\include\c++\6.3.1\bits\stl_algobase.h ****  * that both that copyright notice and this permission notice appear
  46:c:\program files (x86)\gnu tools arm embedded\6 2017-q2-update\arm-none-eabi\include\c++\6.3.1\bits\stl_algobase.h ****  * in supporting documentation.  Silicon Graphics makes no
  47:c:\program files (x86)\gnu tools arm embedded\6 2017-q2-update\arm-none-eabi\include\c++\6.3.1\bits\stl_algobase.h ****  * representations about the suitability of this software for any
  48:c:\program files (x86)\gnu tools arm embedded\6 2017-q2-update\arm-none-eabi\include\c++\6.3.1\bits\stl_algobase.h ****  * purpose.  It is provided "as is" without express or implied warranty.
  49:c:\program files (x86)\gnu tools arm embedded\6 2017-q2-update\arm-none-eabi\include\c++\6.3.1\bits\stl_algobase.h ****  */
  50:c:\program files (x86)\gnu tools arm embedded\6 2017-q2-update\arm-none-eabi\include\c++\6.3.1\bits\stl_algobase.h **** 
  51:c:\program files (x86)\gnu tools arm embedded\6 2017-q2-update\arm-none-eabi\include\c++\6.3.1\bits\stl_algobase.h **** /** @file bits/stl_algobase.h
  52:c:\program files (x86)\gnu tools arm embedded\6 2017-q2-update\arm-none-eabi\include\c++\6.3.1\bits\stl_algobase.h ****  *  This is an internal header file, included by other library headers.
  53:c:\program files (x86)\gnu tools arm embedded\6 2017-q2-update\arm-none-eabi\include\c++\6.3.1\bits\stl_algobase.h ****  *  Do not attempt to use it directly. @headername{algorithm}
  54:c:\program files (x86)\gnu tools arm embedded\6 2017-q2-update\arm-none-eabi\include\c++\6.3.1\bits\stl_algobase.h ****  */
  55:c:\program files (x86)\gnu tools arm embedded\6 2017-q2-update\arm-none-eabi\include\c++\6.3.1\bits\stl_algobase.h **** 
  56:c:\program files (x86)\gnu tools arm embedded\6 2017-q2-update\arm-none-eabi\include\c++\6.3.1\bits\stl_algobase.h **** #ifndef _STL_ALGOBASE_H
  57:c:\program files (x86)\gnu tools arm embedded\6 2017-q2-update\arm-none-eabi\include\c++\6.3.1\bits\stl_algobase.h **** #define _STL_ALGOBASE_H 1
  58:c:\program files (x86)\gnu tools arm embedded\6 2017-q2-update\arm-none-eabi\include\c++\6.3.1\bits\stl_algobase.h **** 
  59:c:\program files (x86)\gnu tools arm embedded\6 2017-q2-update\arm-none-eabi\include\c++\6.3.1\bits\stl_algobase.h **** #include <bits/c++config.h>
  60:c:\program files (x86)\gnu tools arm embedded\6 2017-q2-update\arm-none-eabi\include\c++\6.3.1\bits\stl_algobase.h **** #include <bits/functexcept.h>
  61:c:\program files (x86)\gnu tools arm embedded\6 2017-q2-update\arm-none-eabi\include\c++\6.3.1\bits\stl_algobase.h **** #include <bits/cpp_type_traits.h>
  62:c:\program files (x86)\gnu tools arm embedded\6 2017-q2-update\arm-none-eabi\include\c++\6.3.1\bits\stl_algobase.h **** #include <ext/type_traits.h>
  63:c:\program files (x86)\gnu tools arm embedded\6 2017-q2-update\arm-none-eabi\include\c++\6.3.1\bits\stl_algobase.h **** #include <ext/numeric_traits.h>
  64:c:\program files (x86)\gnu tools arm embedded\6 2017-q2-update\arm-none-eabi\include\c++\6.3.1\bits\stl_algobase.h **** #include <bits/stl_pair.h>
  65:c:\program files (x86)\gnu tools arm embedded\6 2017-q2-update\arm-none-eabi\include\c++\6.3.1\bits\stl_algobase.h **** #include <bits/stl_iterator_base_types.h>
  66:c:\program files (x86)\gnu tools arm embedded\6 2017-q2-update\arm-none-eabi\include\c++\6.3.1\bits\stl_algobase.h **** #include <bits/stl_iterator_base_funcs.h>
  67:c:\program files (x86)\gnu tools arm embedded\6 2017-q2-update\arm-none-eabi\include\c++\6.3.1\bits\stl_algobase.h **** #include <bits/stl_iterator.h>
  68:c:\program files (x86)\gnu tools arm embedded\6 2017-q2-update\arm-none-eabi\include\c++\6.3.1\bits\stl_algobase.h **** #include <bits/concept_check.h>
  69:c:\program files (x86)\gnu tools arm embedded\6 2017-q2-update\arm-none-eabi\include\c++\6.3.1\bits\stl_algobase.h **** #include <debug/debug.h>
  70:c:\program files (x86)\gnu tools arm embedded\6 2017-q2-update\arm-none-eabi\include\c++\6.3.1\bits\stl_algobase.h **** #include <bits/move.h> // For std::swap and _GLIBCXX_MOVE
  71:c:\program files (x86)\gnu tools arm embedded\6 2017-q2-update\arm-none-eabi\include\c++\6.3.1\bits\stl_algobase.h **** #include <bits/predefined_ops.h>
  72:c:\program files (x86)\gnu tools arm embedded\6 2017-q2-update\arm-none-eabi\include\c++\6.3.1\bits\stl_algobase.h **** 
  73:c:\program files (x86)\gnu tools arm embedded\6 2017-q2-update\arm-none-eabi\include\c++\6.3.1\bits\stl_algobase.h **** namespace std _GLIBCXX_VISIBILITY(default)
  74:c:\program files (x86)\gnu tools arm embedded\6 2017-q2-update\arm-none-eabi\include\c++\6.3.1\bits\stl_algobase.h **** {
  75:c:\program files (x86)\gnu tools arm embedded\6 2017-q2-update\arm-none-eabi\include\c++\6.3.1\bits\stl_algobase.h **** _GLIBCXX_BEGIN_NAMESPACE_VERSION
  76:c:\program files (x86)\gnu tools arm embedded\6 2017-q2-update\arm-none-eabi\include\c++\6.3.1\bits\stl_algobase.h **** 
  77:c:\program files (x86)\gnu tools arm embedded\6 2017-q2-update\arm-none-eabi\include\c++\6.3.1\bits\stl_algobase.h **** #if __cplusplus < 201103L
  78:c:\program files (x86)\gnu tools arm embedded\6 2017-q2-update\arm-none-eabi\include\c++\6.3.1\bits\stl_algobase.h ****   // See http://gcc.gnu.org/ml/libstdc++/2004-08/msg00167.html: in a
  79:c:\program files (x86)\gnu tools arm embedded\6 2017-q2-update\arm-none-eabi\include\c++\6.3.1\bits\stl_algobase.h ****   // nutshell, we are partially implementing the resolution of DR 187,
  80:c:\program files (x86)\gnu tools arm embedded\6 2017-q2-update\arm-none-eabi\include\c++\6.3.1\bits\stl_algobase.h ****   // when it's safe, i.e., the value_types are equal.
  81:c:\program files (x86)\gnu tools arm embedded\6 2017-q2-update\arm-none-eabi\include\c++\6.3.1\bits\stl_algobase.h ****   template<bool _BoolType>
  82:c:\program files (x86)\gnu tools arm embedded\6 2017-q2-update\arm-none-eabi\include\c++\6.3.1\bits\stl_algobase.h ****     struct __iter_swap
  83:c:\program files (x86)\gnu tools arm embedded\6 2017-q2-update\arm-none-eabi\include\c++\6.3.1\bits\stl_algobase.h ****     {
  84:c:\program files (x86)\gnu tools arm embedded\6 2017-q2-update\arm-none-eabi\include\c++\6.3.1\bits\stl_algobase.h ****       template<typename _ForwardIterator1, typename _ForwardIterator2>
  85:c:\program files (x86)\gnu tools arm embedded\6 2017-q2-update\arm-none-eabi\include\c++\6.3.1\bits\stl_algobase.h ****         static void
  86:c:\program files (x86)\gnu tools arm embedded\6 2017-q2-update\arm-none-eabi\include\c++\6.3.1\bits\stl_algobase.h ****         iter_swap(_ForwardIterator1 __a, _ForwardIterator2 __b)
  87:c:\program files (x86)\gnu tools arm embedded\6 2017-q2-update\arm-none-eabi\include\c++\6.3.1\bits\stl_algobase.h ****         {
  88:c:\program files (x86)\gnu tools arm embedded\6 2017-q2-update\arm-none-eabi\include\c++\6.3.1\bits\stl_algobase.h ****           typedef typename iterator_traits<_ForwardIterator1>::value_type
  89:c:\program files (x86)\gnu tools arm embedded\6 2017-q2-update\arm-none-eabi\include\c++\6.3.1\bits\stl_algobase.h ****             _ValueType1;
  90:c:\program files (x86)\gnu tools arm embedded\6 2017-q2-update\arm-none-eabi\include\c++\6.3.1\bits\stl_algobase.h ****           _ValueType1 __tmp = _GLIBCXX_MOVE(*__a);
  91:c:\program files (x86)\gnu tools arm embedded\6 2017-q2-update\arm-none-eabi\include\c++\6.3.1\bits\stl_algobase.h ****           *__a = _GLIBCXX_MOVE(*__b);
  92:c:\program files (x86)\gnu tools arm embedded\6 2017-q2-update\arm-none-eabi\include\c++\6.3.1\bits\stl_algobase.h ****           *__b = _GLIBCXX_MOVE(__tmp);
  93:c:\program files (x86)\gnu tools arm embedded\6 2017-q2-update\arm-none-eabi\include\c++\6.3.1\bits\stl_algobase.h **** 	}
  94:c:\program files (x86)\gnu tools arm embedded\6 2017-q2-update\arm-none-eabi\include\c++\6.3.1\bits\stl_algobase.h ****     };
  95:c:\program files (x86)\gnu tools arm embedded\6 2017-q2-update\arm-none-eabi\include\c++\6.3.1\bits\stl_algobase.h **** 
  96:c:\program files (x86)\gnu tools arm embedded\6 2017-q2-update\arm-none-eabi\include\c++\6.3.1\bits\stl_algobase.h ****   template<>
  97:c:\program files (x86)\gnu tools arm embedded\6 2017-q2-update\arm-none-eabi\include\c++\6.3.1\bits\stl_algobase.h ****     struct __iter_swap<true>
  98:c:\program files (x86)\gnu tools arm embedded\6 2017-q2-update\arm-none-eabi\include\c++\6.3.1\bits\stl_algobase.h ****     {
  99:c:\program files (x86)\gnu tools arm embedded\6 2017-q2-update\arm-none-eabi\include\c++\6.3.1\bits\stl_algobase.h ****       template<typename _ForwardIterator1, typename _ForwardIterator2>
 100:c:\program files (x86)\gnu tools arm embedded\6 2017-q2-update\arm-none-eabi\include\c++\6.3.1\bits\stl_algobase.h ****         static void 
 101:c:\program files (x86)\gnu tools arm embedded\6 2017-q2-update\arm-none-eabi\include\c++\6.3.1\bits\stl_algobase.h ****         iter_swap(_ForwardIterator1 __a, _ForwardIterator2 __b)
 102:c:\program files (x86)\gnu tools arm embedded\6 2017-q2-update\arm-none-eabi\include\c++\6.3.1\bits\stl_algobase.h ****         {
 103:c:\program files (x86)\gnu tools arm embedded\6 2017-q2-update\arm-none-eabi\include\c++\6.3.1\bits\stl_algobase.h ****           swap(*__a, *__b);
 104:c:\program files (x86)\gnu tools arm embedded\6 2017-q2-update\arm-none-eabi\include\c++\6.3.1\bits\stl_algobase.h ****         }
 105:c:\program files (x86)\gnu tools arm embedded\6 2017-q2-update\arm-none-eabi\include\c++\6.3.1\bits\stl_algobase.h ****     };
 106:c:\program files (x86)\gnu tools arm embedded\6 2017-q2-update\arm-none-eabi\include\c++\6.3.1\bits\stl_algobase.h **** #endif
 107:c:\program files (x86)\gnu tools arm embedded\6 2017-q2-update\arm-none-eabi\include\c++\6.3.1\bits\stl_algobase.h **** 
 108:c:\program files (x86)\gnu tools arm embedded\6 2017-q2-update\arm-none-eabi\include\c++\6.3.1\bits\stl_algobase.h ****   /**
 109:c:\program files (x86)\gnu tools arm embedded\6 2017-q2-update\arm-none-eabi\include\c++\6.3.1\bits\stl_algobase.h ****    *  @brief Swaps the contents of two iterators.
 110:c:\program files (x86)\gnu tools arm embedded\6 2017-q2-update\arm-none-eabi\include\c++\6.3.1\bits\stl_algobase.h ****    *  @ingroup mutating_algorithms
 111:c:\program files (x86)\gnu tools arm embedded\6 2017-q2-update\arm-none-eabi\include\c++\6.3.1\bits\stl_algobase.h ****    *  @param  __a  An iterator.
 112:c:\program files (x86)\gnu tools arm embedded\6 2017-q2-update\arm-none-eabi\include\c++\6.3.1\bits\stl_algobase.h ****    *  @param  __b  Another iterator.
 113:c:\program files (x86)\gnu tools arm embedded\6 2017-q2-update\arm-none-eabi\include\c++\6.3.1\bits\stl_algobase.h ****    *  @return   Nothing.
 114:c:\program files (x86)\gnu tools arm embedded\6 2017-q2-update\arm-none-eabi\include\c++\6.3.1\bits\stl_algobase.h ****    *
 115:c:\program files (x86)\gnu tools arm embedded\6 2017-q2-update\arm-none-eabi\include\c++\6.3.1\bits\stl_algobase.h ****    *  This function swaps the values pointed to by two iterators, not the
 116:c:\program files (x86)\gnu tools arm embedded\6 2017-q2-update\arm-none-eabi\include\c++\6.3.1\bits\stl_algobase.h ****    *  iterators themselves.
 117:c:\program files (x86)\gnu tools arm embedded\6 2017-q2-update\arm-none-eabi\include\c++\6.3.1\bits\stl_algobase.h ****   */
 118:c:\program files (x86)\gnu tools arm embedded\6 2017-q2-update\arm-none-eabi\include\c++\6.3.1\bits\stl_algobase.h ****   template<typename _ForwardIterator1, typename _ForwardIterator2>
 119:c:\program files (x86)\gnu tools arm embedded\6 2017-q2-update\arm-none-eabi\include\c++\6.3.1\bits\stl_algobase.h ****     inline void
 120:c:\program files (x86)\gnu tools arm embedded\6 2017-q2-update\arm-none-eabi\include\c++\6.3.1\bits\stl_algobase.h ****     iter_swap(_ForwardIterator1 __a, _ForwardIterator2 __b)
 121:c:\program files (x86)\gnu tools arm embedded\6 2017-q2-update\arm-none-eabi\include\c++\6.3.1\bits\stl_algobase.h ****     {
 122:c:\program files (x86)\gnu tools arm embedded\6 2017-q2-update\arm-none-eabi\include\c++\6.3.1\bits\stl_algobase.h ****       // concept requirements
 123:c:\program files (x86)\gnu tools arm embedded\6 2017-q2-update\arm-none-eabi\include\c++\6.3.1\bits\stl_algobase.h ****       __glibcxx_function_requires(_Mutable_ForwardIteratorConcept<
 124:c:\program files (x86)\gnu tools arm embedded\6 2017-q2-update\arm-none-eabi\include\c++\6.3.1\bits\stl_algobase.h **** 				  _ForwardIterator1>)
 125:c:\program files (x86)\gnu tools arm embedded\6 2017-q2-update\arm-none-eabi\include\c++\6.3.1\bits\stl_algobase.h ****       __glibcxx_function_requires(_Mutable_ForwardIteratorConcept<
 126:c:\program files (x86)\gnu tools arm embedded\6 2017-q2-update\arm-none-eabi\include\c++\6.3.1\bits\stl_algobase.h **** 				  _ForwardIterator2>)
 127:c:\program files (x86)\gnu tools arm embedded\6 2017-q2-update\arm-none-eabi\include\c++\6.3.1\bits\stl_algobase.h **** 
 128:c:\program files (x86)\gnu tools arm embedded\6 2017-q2-update\arm-none-eabi\include\c++\6.3.1\bits\stl_algobase.h **** #if __cplusplus < 201103L
 129:c:\program files (x86)\gnu tools arm embedded\6 2017-q2-update\arm-none-eabi\include\c++\6.3.1\bits\stl_algobase.h ****       typedef typename iterator_traits<_ForwardIterator1>::value_type
 130:c:\program files (x86)\gnu tools arm embedded\6 2017-q2-update\arm-none-eabi\include\c++\6.3.1\bits\stl_algobase.h **** 	_ValueType1;
 131:c:\program files (x86)\gnu tools arm embedded\6 2017-q2-update\arm-none-eabi\include\c++\6.3.1\bits\stl_algobase.h ****       typedef typename iterator_traits<_ForwardIterator2>::value_type
 132:c:\program files (x86)\gnu tools arm embedded\6 2017-q2-update\arm-none-eabi\include\c++\6.3.1\bits\stl_algobase.h **** 	_ValueType2;
 133:c:\program files (x86)\gnu tools arm embedded\6 2017-q2-update\arm-none-eabi\include\c++\6.3.1\bits\stl_algobase.h **** 
 134:c:\program files (x86)\gnu tools arm embedded\6 2017-q2-update\arm-none-eabi\include\c++\6.3.1\bits\stl_algobase.h ****       __glibcxx_function_requires(_ConvertibleConcept<_ValueType1,
 135:c:\program files (x86)\gnu tools arm embedded\6 2017-q2-update\arm-none-eabi\include\c++\6.3.1\bits\stl_algobase.h **** 				  _ValueType2>)
 136:c:\program files (x86)\gnu tools arm embedded\6 2017-q2-update\arm-none-eabi\include\c++\6.3.1\bits\stl_algobase.h ****       __glibcxx_function_requires(_ConvertibleConcept<_ValueType2,
 137:c:\program files (x86)\gnu tools arm embedded\6 2017-q2-update\arm-none-eabi\include\c++\6.3.1\bits\stl_algobase.h **** 				  _ValueType1>)
 138:c:\program files (x86)\gnu tools arm embedded\6 2017-q2-update\arm-none-eabi\include\c++\6.3.1\bits\stl_algobase.h **** 
 139:c:\program files (x86)\gnu tools arm embedded\6 2017-q2-update\arm-none-eabi\include\c++\6.3.1\bits\stl_algobase.h ****       typedef typename iterator_traits<_ForwardIterator1>::reference
 140:c:\program files (x86)\gnu tools arm embedded\6 2017-q2-update\arm-none-eabi\include\c++\6.3.1\bits\stl_algobase.h **** 	_ReferenceType1;
 141:c:\program files (x86)\gnu tools arm embedded\6 2017-q2-update\arm-none-eabi\include\c++\6.3.1\bits\stl_algobase.h ****       typedef typename iterator_traits<_ForwardIterator2>::reference
 142:c:\program files (x86)\gnu tools arm embedded\6 2017-q2-update\arm-none-eabi\include\c++\6.3.1\bits\stl_algobase.h **** 	_ReferenceType2;
 143:c:\program files (x86)\gnu tools arm embedded\6 2017-q2-update\arm-none-eabi\include\c++\6.3.1\bits\stl_algobase.h ****       std::__iter_swap<__are_same<_ValueType1, _ValueType2>::__value
 144:c:\program files (x86)\gnu tools arm embedded\6 2017-q2-update\arm-none-eabi\include\c++\6.3.1\bits\stl_algobase.h **** 	&& __are_same<_ValueType1&, _ReferenceType1>::__value
 145:c:\program files (x86)\gnu tools arm embedded\6 2017-q2-update\arm-none-eabi\include\c++\6.3.1\bits\stl_algobase.h **** 	&& __are_same<_ValueType2&, _ReferenceType2>::__value>::
 146:c:\program files (x86)\gnu tools arm embedded\6 2017-q2-update\arm-none-eabi\include\c++\6.3.1\bits\stl_algobase.h **** 	iter_swap(__a, __b);
 147:c:\program files (x86)\gnu tools arm embedded\6 2017-q2-update\arm-none-eabi\include\c++\6.3.1\bits\stl_algobase.h **** #else
 148:c:\program files (x86)\gnu tools arm embedded\6 2017-q2-update\arm-none-eabi\include\c++\6.3.1\bits\stl_algobase.h ****       swap(*__a, *__b);
 149:c:\program files (x86)\gnu tools arm embedded\6 2017-q2-update\arm-none-eabi\include\c++\6.3.1\bits\stl_algobase.h **** #endif
 150:c:\program files (x86)\gnu tools arm embedded\6 2017-q2-update\arm-none-eabi\include\c++\6.3.1\bits\stl_algobase.h ****     }
 151:c:\program files (x86)\gnu tools arm embedded\6 2017-q2-update\arm-none-eabi\include\c++\6.3.1\bits\stl_algobase.h **** 
 152:c:\program files (x86)\gnu tools arm embedded\6 2017-q2-update\arm-none-eabi\include\c++\6.3.1\bits\stl_algobase.h ****   /**
 153:c:\program files (x86)\gnu tools arm embedded\6 2017-q2-update\arm-none-eabi\include\c++\6.3.1\bits\stl_algobase.h ****    *  @brief Swap the elements of two sequences.
 154:c:\program files (x86)\gnu tools arm embedded\6 2017-q2-update\arm-none-eabi\include\c++\6.3.1\bits\stl_algobase.h ****    *  @ingroup mutating_algorithms
 155:c:\program files (x86)\gnu tools arm embedded\6 2017-q2-update\arm-none-eabi\include\c++\6.3.1\bits\stl_algobase.h ****    *  @param  __first1  A forward iterator.
 156:c:\program files (x86)\gnu tools arm embedded\6 2017-q2-update\arm-none-eabi\include\c++\6.3.1\bits\stl_algobase.h ****    *  @param  __last1   A forward iterator.
 157:c:\program files (x86)\gnu tools arm embedded\6 2017-q2-update\arm-none-eabi\include\c++\6.3.1\bits\stl_algobase.h ****    *  @param  __first2  A forward iterator.
 158:c:\program files (x86)\gnu tools arm embedded\6 2017-q2-update\arm-none-eabi\include\c++\6.3.1\bits\stl_algobase.h ****    *  @return   An iterator equal to @p first2+(last1-first1).
 159:c:\program files (x86)\gnu tools arm embedded\6 2017-q2-update\arm-none-eabi\include\c++\6.3.1\bits\stl_algobase.h ****    *
 160:c:\program files (x86)\gnu tools arm embedded\6 2017-q2-update\arm-none-eabi\include\c++\6.3.1\bits\stl_algobase.h ****    *  Swaps each element in the range @p [first1,last1) with the
 161:c:\program files (x86)\gnu tools arm embedded\6 2017-q2-update\arm-none-eabi\include\c++\6.3.1\bits\stl_algobase.h ****    *  corresponding element in the range @p [first2,(last1-first1)).
 162:c:\program files (x86)\gnu tools arm embedded\6 2017-q2-update\arm-none-eabi\include\c++\6.3.1\bits\stl_algobase.h ****    *  The ranges must not overlap.
 163:c:\program files (x86)\gnu tools arm embedded\6 2017-q2-update\arm-none-eabi\include\c++\6.3.1\bits\stl_algobase.h ****   */
 164:c:\program files (x86)\gnu tools arm embedded\6 2017-q2-update\arm-none-eabi\include\c++\6.3.1\bits\stl_algobase.h ****   template<typename _ForwardIterator1, typename _ForwardIterator2>
 165:c:\program files (x86)\gnu tools arm embedded\6 2017-q2-update\arm-none-eabi\include\c++\6.3.1\bits\stl_algobase.h ****     _ForwardIterator2
 166:c:\program files (x86)\gnu tools arm embedded\6 2017-q2-update\arm-none-eabi\include\c++\6.3.1\bits\stl_algobase.h ****     swap_ranges(_ForwardIterator1 __first1, _ForwardIterator1 __last1,
 167:c:\program files (x86)\gnu tools arm embedded\6 2017-q2-update\arm-none-eabi\include\c++\6.3.1\bits\stl_algobase.h **** 		_ForwardIterator2 __first2)
 168:c:\program files (x86)\gnu tools arm embedded\6 2017-q2-update\arm-none-eabi\include\c++\6.3.1\bits\stl_algobase.h ****     {
 169:c:\program files (x86)\gnu tools arm embedded\6 2017-q2-update\arm-none-eabi\include\c++\6.3.1\bits\stl_algobase.h ****       // concept requirements
 170:c:\program files (x86)\gnu tools arm embedded\6 2017-q2-update\arm-none-eabi\include\c++\6.3.1\bits\stl_algobase.h ****       __glibcxx_function_requires(_Mutable_ForwardIteratorConcept<
 171:c:\program files (x86)\gnu tools arm embedded\6 2017-q2-update\arm-none-eabi\include\c++\6.3.1\bits\stl_algobase.h **** 				  _ForwardIterator1>)
 172:c:\program files (x86)\gnu tools arm embedded\6 2017-q2-update\arm-none-eabi\include\c++\6.3.1\bits\stl_algobase.h ****       __glibcxx_function_requires(_Mutable_ForwardIteratorConcept<
 173:c:\program files (x86)\gnu tools arm embedded\6 2017-q2-update\arm-none-eabi\include\c++\6.3.1\bits\stl_algobase.h **** 				  _ForwardIterator2>)
 174:c:\program files (x86)\gnu tools arm embedded\6 2017-q2-update\arm-none-eabi\include\c++\6.3.1\bits\stl_algobase.h ****       __glibcxx_requires_valid_range(__first1, __last1);
 175:c:\program files (x86)\gnu tools arm embedded\6 2017-q2-update\arm-none-eabi\include\c++\6.3.1\bits\stl_algobase.h **** 
 176:c:\program files (x86)\gnu tools arm embedded\6 2017-q2-update\arm-none-eabi\include\c++\6.3.1\bits\stl_algobase.h ****       for (; __first1 != __last1; ++__first1, (void)++__first2)
 177:c:\program files (x86)\gnu tools arm embedded\6 2017-q2-update\arm-none-eabi\include\c++\6.3.1\bits\stl_algobase.h **** 	std::iter_swap(__first1, __first2);
 178:c:\program files (x86)\gnu tools arm embedded\6 2017-q2-update\arm-none-eabi\include\c++\6.3.1\bits\stl_algobase.h ****       return __first2;
 179:c:\program files (x86)\gnu tools arm embedded\6 2017-q2-update\arm-none-eabi\include\c++\6.3.1\bits\stl_algobase.h ****     }
 180:c:\program files (x86)\gnu tools arm embedded\6 2017-q2-update\arm-none-eabi\include\c++\6.3.1\bits\stl_algobase.h **** 
 181:c:\program files (x86)\gnu tools arm embedded\6 2017-q2-update\arm-none-eabi\include\c++\6.3.1\bits\stl_algobase.h ****   /**
 182:c:\program files (x86)\gnu tools arm embedded\6 2017-q2-update\arm-none-eabi\include\c++\6.3.1\bits\stl_algobase.h ****    *  @brief This does what you think it does.
 183:c:\program files (x86)\gnu tools arm embedded\6 2017-q2-update\arm-none-eabi\include\c++\6.3.1\bits\stl_algobase.h ****    *  @ingroup sorting_algorithms
 184:c:\program files (x86)\gnu tools arm embedded\6 2017-q2-update\arm-none-eabi\include\c++\6.3.1\bits\stl_algobase.h ****    *  @param  __a  A thing of arbitrary type.
 185:c:\program files (x86)\gnu tools arm embedded\6 2017-q2-update\arm-none-eabi\include\c++\6.3.1\bits\stl_algobase.h ****    *  @param  __b  Another thing of arbitrary type.
 186:c:\program files (x86)\gnu tools arm embedded\6 2017-q2-update\arm-none-eabi\include\c++\6.3.1\bits\stl_algobase.h ****    *  @return   The lesser of the parameters.
 187:c:\program files (x86)\gnu tools arm embedded\6 2017-q2-update\arm-none-eabi\include\c++\6.3.1\bits\stl_algobase.h ****    *
 188:c:\program files (x86)\gnu tools arm embedded\6 2017-q2-update\arm-none-eabi\include\c++\6.3.1\bits\stl_algobase.h ****    *  This is the simple classic generic implementation.  It will work on
 189:c:\program files (x86)\gnu tools arm embedded\6 2017-q2-update\arm-none-eabi\include\c++\6.3.1\bits\stl_algobase.h ****    *  temporary expressions, since they are only evaluated once, unlike a
 190:c:\program files (x86)\gnu tools arm embedded\6 2017-q2-update\arm-none-eabi\include\c++\6.3.1\bits\stl_algobase.h ****    *  preprocessor macro.
 191:c:\program files (x86)\gnu tools arm embedded\6 2017-q2-update\arm-none-eabi\include\c++\6.3.1\bits\stl_algobase.h ****   */
 192:c:\program files (x86)\gnu tools arm embedded\6 2017-q2-update\arm-none-eabi\include\c++\6.3.1\bits\stl_algobase.h ****   template<typename _Tp>
 193:c:\program files (x86)\gnu tools arm embedded\6 2017-q2-update\arm-none-eabi\include\c++\6.3.1\bits\stl_algobase.h ****     _GLIBCXX14_CONSTEXPR
 194:c:\program files (x86)\gnu tools arm embedded\6 2017-q2-update\arm-none-eabi\include\c++\6.3.1\bits\stl_algobase.h ****     inline const _Tp&
 195:c:\program files (x86)\gnu tools arm embedded\6 2017-q2-update\arm-none-eabi\include\c++\6.3.1\bits\stl_algobase.h ****     min(const _Tp& __a, const _Tp& __b)
 196:c:\program files (x86)\gnu tools arm embedded\6 2017-q2-update\arm-none-eabi\include\c++\6.3.1\bits\stl_algobase.h ****     {
 197:c:\program files (x86)\gnu tools arm embedded\6 2017-q2-update\arm-none-eabi\include\c++\6.3.1\bits\stl_algobase.h ****       // concept requirements
 198:c:\program files (x86)\gnu tools arm embedded\6 2017-q2-update\arm-none-eabi\include\c++\6.3.1\bits\stl_algobase.h ****       __glibcxx_function_requires(_LessThanComparableConcept<_Tp>)
 199:c:\program files (x86)\gnu tools arm embedded\6 2017-q2-update\arm-none-eabi\include\c++\6.3.1\bits\stl_algobase.h ****       //return __b < __a ? __b : __a;
 200:c:\program files (x86)\gnu tools arm embedded\6 2017-q2-update\arm-none-eabi\include\c++\6.3.1\bits\stl_algobase.h ****       if (__b < __a)
 468              		.loc 4 200 0
 469 02bc CD0AB4EE 		vcmpe.f32	s0, s26
 470 02c0 10FAF1EE 		vmrs	APSR_nzcv, FPSCR
 471              	.LBE284:
 472              	.LBE283:
 473              		.loc 3 334 0
 474 02c4 09DA8DED 		vstr.32	s26, [sp, #36]
 475              	.LVL35:
 476              	.LBB287:
 477              	.LBB285:
 478              		.loc 4 200 0
 479 02c8 280000DA 		ble	.L24
 480              	.LVL36:
 481              	.L25:
 482              	.LBE285:
 483              	.LBE287:
 484              	.LBE282:
 323:C:/Renesas/e2studio_2021_01_workspace_RZA2M_ANPR/ANPR_RZA2M_GR_MANGO/src/tensorflow_lite/tensorflow/lite/kernels/internal\common.h ****     float sample_val = TfLiteRound(func(min + i * step) * 32768.0f);
 485              		.loc 3 323 0
 486 02cc 020C54E3 		cmp	r4, #512
 487              	.LBB324:
 333:C:/Renesas/e2studio_2021_01_workspace_RZA2M_ANPR/ANPR_RZA2M_GR_MANGO/src/tensorflow_lite/tensorflow/lite/kernels/internal\common.h ****                                32767.0f);
 488              		.loc 3 333 0
 489 02d0 B230EBE1 		strh	r3, [fp, #2]!	@ movhi
 490              	.LVL37:
 491              	.LBE324:
 323:C:/Renesas/e2studio_2021_01_workspace_RZA2M_ANPR/ANPR_RZA2M_GR_MANGO/src/tensorflow_lite/tensorflow/lite/kernels/internal\common.h ****     float sample_val = TfLiteRound(func(min + i * step) * 32768.0f);
 492              		.loc 3 323 0
 493 02d4 2900000A 		beq	.L85
 494              	.LVL38:
 495              	.L26:
 496              	.LBB325:
 324:C:/Renesas/e2studio_2021_01_workspace_RZA2M_ANPR/ANPR_RZA2M_GR_MANGO/src/tensorflow_lite/tensorflow/lite/kernels/internal\common.h ****     float midpoint_interp_val =
 497              		.loc 3 324 0
 498 02d8 6B9AF0EE 		vmov.f32	s19, s23
 326:C:/Renesas/e2studio_2021_01_workspace_RZA2M_ANPR/ANPR_RZA2M_GR_MANGO/src/tensorflow_lite/tensorflow/lite/kernels/internal\common.h ****                      TfLiteRound(func(min + i * step) * 32768.0f)) /
 499              		.loc 3 326 0
 500 02dc 014084E2 		add	r4, r4, #1
 501              	.LVL39:
 502 02e0 00AAF6EE 		vmov.f32	s21, #5.0e-1
 324:C:/Renesas/e2studio_2021_01_workspace_RZA2M_ANPR/ANPR_RZA2M_GR_MANGO/src/tensorflow_lite/tensorflow/lite/kernels/internal\common.h ****     float midpoint_interp_val =
 503              		.loc 3 324 0
 504 02e4 0C9A5AEE 		vnmls.f32	s19, s20, s24
 505              	.LVL40:
 506              	.LBB288:
 507              	.LBB289:
 508              	.LBB290:
 509              	.LBB291:
 510              		.file 5 "c:\\program files (x86)\\gnu tools arm embedded\\6 2017-q2-update\\arm-none-eabi\\include
   1:c:\program files (x86)\gnu tools arm embedded\6 2017-q2-update\arm-none-eabi\include\c++\6.3.1\cmath **** // -*- C++ -*- C forwarding header.
   2:c:\program files (x86)\gnu tools arm embedded\6 2017-q2-update\arm-none-eabi\include\c++\6.3.1\cmath **** 
   3:c:\program files (x86)\gnu tools arm embedded\6 2017-q2-update\arm-none-eabi\include\c++\6.3.1\cmath **** // Copyright (C) 1997-2016 Free Software Foundation, Inc.
   4:c:\program files (x86)\gnu tools arm embedded\6 2017-q2-update\arm-none-eabi\include\c++\6.3.1\cmath **** //
   5:c:\program files (x86)\gnu tools arm embedded\6 2017-q2-update\arm-none-eabi\include\c++\6.3.1\cmath **** // This file is part of the GNU ISO C++ Library.  This library is free
   6:c:\program files (x86)\gnu tools arm embedded\6 2017-q2-update\arm-none-eabi\include\c++\6.3.1\cmath **** // software; you can redistribute it and/or modify it under the
   7:c:\program files (x86)\gnu tools arm embedded\6 2017-q2-update\arm-none-eabi\include\c++\6.3.1\cmath **** // terms of the GNU General Public License as published by the
   8:c:\program files (x86)\gnu tools arm embedded\6 2017-q2-update\arm-none-eabi\include\c++\6.3.1\cmath **** // Free Software Foundation; either version 3, or (at your option)
   9:c:\program files (x86)\gnu tools arm embedded\6 2017-q2-update\arm-none-eabi\include\c++\6.3.1\cmath **** // any later version.
  10:c:\program files (x86)\gnu tools arm embedded\6 2017-q2-update\arm-none-eabi\include\c++\6.3.1\cmath **** 
  11:c:\program files (x86)\gnu tools arm embedded\6 2017-q2-update\arm-none-eabi\include\c++\6.3.1\cmath **** // This library is distributed in the hope that it will be useful,
  12:c:\program files (x86)\gnu tools arm embedded\6 2017-q2-update\arm-none-eabi\include\c++\6.3.1\cmath **** // but WITHOUT ANY WARRANTY; without even the implied warranty of
  13:c:\program files (x86)\gnu tools arm embedded\6 2017-q2-update\arm-none-eabi\include\c++\6.3.1\cmath **** // MERCHANTABILITY or FITNESS FOR A PARTICULAR PURPOSE.  See the
  14:c:\program files (x86)\gnu tools arm embedded\6 2017-q2-update\arm-none-eabi\include\c++\6.3.1\cmath **** // GNU General Public License for more details.
  15:c:\program files (x86)\gnu tools arm embedded\6 2017-q2-update\arm-none-eabi\include\c++\6.3.1\cmath **** 
  16:c:\program files (x86)\gnu tools arm embedded\6 2017-q2-update\arm-none-eabi\include\c++\6.3.1\cmath **** // Under Section 7 of GPL version 3, you are granted additional
  17:c:\program files (x86)\gnu tools arm embedded\6 2017-q2-update\arm-none-eabi\include\c++\6.3.1\cmath **** // permissions described in the GCC Runtime Library Exception, version
  18:c:\program files (x86)\gnu tools arm embedded\6 2017-q2-update\arm-none-eabi\include\c++\6.3.1\cmath **** // 3.1, as published by the Free Software Foundation.
  19:c:\program files (x86)\gnu tools arm embedded\6 2017-q2-update\arm-none-eabi\include\c++\6.3.1\cmath **** 
  20:c:\program files (x86)\gnu tools arm embedded\6 2017-q2-update\arm-none-eabi\include\c++\6.3.1\cmath **** // You should have received a copy of the GNU General Public License and
  21:c:\program files (x86)\gnu tools arm embedded\6 2017-q2-update\arm-none-eabi\include\c++\6.3.1\cmath **** // a copy of the GCC Runtime Library Exception along with this program;
  22:c:\program files (x86)\gnu tools arm embedded\6 2017-q2-update\arm-none-eabi\include\c++\6.3.1\cmath **** // see the files COPYING3 and COPYING.RUNTIME respectively.  If not, see
  23:c:\program files (x86)\gnu tools arm embedded\6 2017-q2-update\arm-none-eabi\include\c++\6.3.1\cmath **** // <http://www.gnu.org/licenses/>.
  24:c:\program files (x86)\gnu tools arm embedded\6 2017-q2-update\arm-none-eabi\include\c++\6.3.1\cmath **** 
  25:c:\program files (x86)\gnu tools arm embedded\6 2017-q2-update\arm-none-eabi\include\c++\6.3.1\cmath **** /** @file include/cmath
  26:c:\program files (x86)\gnu tools arm embedded\6 2017-q2-update\arm-none-eabi\include\c++\6.3.1\cmath ****  *  This is a Standard C++ Library file.  You should @c \#include this file
  27:c:\program files (x86)\gnu tools arm embedded\6 2017-q2-update\arm-none-eabi\include\c++\6.3.1\cmath ****  *  in your programs, rather than any of the @a *.h implementation files.
  28:c:\program files (x86)\gnu tools arm embedded\6 2017-q2-update\arm-none-eabi\include\c++\6.3.1\cmath ****  *
  29:c:\program files (x86)\gnu tools arm embedded\6 2017-q2-update\arm-none-eabi\include\c++\6.3.1\cmath ****  *  This is the C++ version of the Standard C Library header @c math.h,
  30:c:\program files (x86)\gnu tools arm embedded\6 2017-q2-update\arm-none-eabi\include\c++\6.3.1\cmath ****  *  and its contents are (mostly) the same as that header, but are all
  31:c:\program files (x86)\gnu tools arm embedded\6 2017-q2-update\arm-none-eabi\include\c++\6.3.1\cmath ****  *  contained in the namespace @c std (except for names which are defined
  32:c:\program files (x86)\gnu tools arm embedded\6 2017-q2-update\arm-none-eabi\include\c++\6.3.1\cmath ****  *  as macros in C).
  33:c:\program files (x86)\gnu tools arm embedded\6 2017-q2-update\arm-none-eabi\include\c++\6.3.1\cmath ****  */
  34:c:\program files (x86)\gnu tools arm embedded\6 2017-q2-update\arm-none-eabi\include\c++\6.3.1\cmath **** 
  35:c:\program files (x86)\gnu tools arm embedded\6 2017-q2-update\arm-none-eabi\include\c++\6.3.1\cmath **** //
  36:c:\program files (x86)\gnu tools arm embedded\6 2017-q2-update\arm-none-eabi\include\c++\6.3.1\cmath **** // ISO C++ 14882: 26.5  C library
  37:c:\program files (x86)\gnu tools arm embedded\6 2017-q2-update\arm-none-eabi\include\c++\6.3.1\cmath **** //
  38:c:\program files (x86)\gnu tools arm embedded\6 2017-q2-update\arm-none-eabi\include\c++\6.3.1\cmath **** 
  39:c:\program files (x86)\gnu tools arm embedded\6 2017-q2-update\arm-none-eabi\include\c++\6.3.1\cmath **** #pragma GCC system_header
  40:c:\program files (x86)\gnu tools arm embedded\6 2017-q2-update\arm-none-eabi\include\c++\6.3.1\cmath **** 
  41:c:\program files (x86)\gnu tools arm embedded\6 2017-q2-update\arm-none-eabi\include\c++\6.3.1\cmath **** #include <bits/c++config.h>
  42:c:\program files (x86)\gnu tools arm embedded\6 2017-q2-update\arm-none-eabi\include\c++\6.3.1\cmath **** #include <bits/cpp_type_traits.h>
  43:c:\program files (x86)\gnu tools arm embedded\6 2017-q2-update\arm-none-eabi\include\c++\6.3.1\cmath **** #include <ext/type_traits.h>
  44:c:\program files (x86)\gnu tools arm embedded\6 2017-q2-update\arm-none-eabi\include\c++\6.3.1\cmath **** #define _GLIBCXX_INCLUDE_NEXT_C_HEADERS
  45:c:\program files (x86)\gnu tools arm embedded\6 2017-q2-update\arm-none-eabi\include\c++\6.3.1\cmath **** #include_next <math.h>
  46:c:\program files (x86)\gnu tools arm embedded\6 2017-q2-update\arm-none-eabi\include\c++\6.3.1\cmath **** #undef _GLIBCXX_INCLUDE_NEXT_C_HEADERS
  47:c:\program files (x86)\gnu tools arm embedded\6 2017-q2-update\arm-none-eabi\include\c++\6.3.1\cmath **** 
  48:c:\program files (x86)\gnu tools arm embedded\6 2017-q2-update\arm-none-eabi\include\c++\6.3.1\cmath **** #ifndef _GLIBCXX_CMATH
  49:c:\program files (x86)\gnu tools arm embedded\6 2017-q2-update\arm-none-eabi\include\c++\6.3.1\cmath **** #define _GLIBCXX_CMATH 1
  50:c:\program files (x86)\gnu tools arm embedded\6 2017-q2-update\arm-none-eabi\include\c++\6.3.1\cmath **** 
  51:c:\program files (x86)\gnu tools arm embedded\6 2017-q2-update\arm-none-eabi\include\c++\6.3.1\cmath **** // Get rid of those macros defined in <math.h> in lieu of real functions.
  52:c:\program files (x86)\gnu tools arm embedded\6 2017-q2-update\arm-none-eabi\include\c++\6.3.1\cmath **** #undef abs
  53:c:\program files (x86)\gnu tools arm embedded\6 2017-q2-update\arm-none-eabi\include\c++\6.3.1\cmath **** #undef div
  54:c:\program files (x86)\gnu tools arm embedded\6 2017-q2-update\arm-none-eabi\include\c++\6.3.1\cmath **** #undef acos
  55:c:\program files (x86)\gnu tools arm embedded\6 2017-q2-update\arm-none-eabi\include\c++\6.3.1\cmath **** #undef asin
  56:c:\program files (x86)\gnu tools arm embedded\6 2017-q2-update\arm-none-eabi\include\c++\6.3.1\cmath **** #undef atan
  57:c:\program files (x86)\gnu tools arm embedded\6 2017-q2-update\arm-none-eabi\include\c++\6.3.1\cmath **** #undef atan2
  58:c:\program files (x86)\gnu tools arm embedded\6 2017-q2-update\arm-none-eabi\include\c++\6.3.1\cmath **** #undef ceil
  59:c:\program files (x86)\gnu tools arm embedded\6 2017-q2-update\arm-none-eabi\include\c++\6.3.1\cmath **** #undef cos
  60:c:\program files (x86)\gnu tools arm embedded\6 2017-q2-update\arm-none-eabi\include\c++\6.3.1\cmath **** #undef cosh
  61:c:\program files (x86)\gnu tools arm embedded\6 2017-q2-update\arm-none-eabi\include\c++\6.3.1\cmath **** #undef exp
  62:c:\program files (x86)\gnu tools arm embedded\6 2017-q2-update\arm-none-eabi\include\c++\6.3.1\cmath **** #undef fabs
  63:c:\program files (x86)\gnu tools arm embedded\6 2017-q2-update\arm-none-eabi\include\c++\6.3.1\cmath **** #undef floor
  64:c:\program files (x86)\gnu tools arm embedded\6 2017-q2-update\arm-none-eabi\include\c++\6.3.1\cmath **** #undef fmod
  65:c:\program files (x86)\gnu tools arm embedded\6 2017-q2-update\arm-none-eabi\include\c++\6.3.1\cmath **** #undef frexp
  66:c:\program files (x86)\gnu tools arm embedded\6 2017-q2-update\arm-none-eabi\include\c++\6.3.1\cmath **** #undef ldexp
  67:c:\program files (x86)\gnu tools arm embedded\6 2017-q2-update\arm-none-eabi\include\c++\6.3.1\cmath **** #undef log
  68:c:\program files (x86)\gnu tools arm embedded\6 2017-q2-update\arm-none-eabi\include\c++\6.3.1\cmath **** #undef log10
  69:c:\program files (x86)\gnu tools arm embedded\6 2017-q2-update\arm-none-eabi\include\c++\6.3.1\cmath **** #undef modf
  70:c:\program files (x86)\gnu tools arm embedded\6 2017-q2-update\arm-none-eabi\include\c++\6.3.1\cmath **** #undef pow
  71:c:\program files (x86)\gnu tools arm embedded\6 2017-q2-update\arm-none-eabi\include\c++\6.3.1\cmath **** #undef sin
  72:c:\program files (x86)\gnu tools arm embedded\6 2017-q2-update\arm-none-eabi\include\c++\6.3.1\cmath **** #undef sinh
  73:c:\program files (x86)\gnu tools arm embedded\6 2017-q2-update\arm-none-eabi\include\c++\6.3.1\cmath **** #undef sqrt
  74:c:\program files (x86)\gnu tools arm embedded\6 2017-q2-update\arm-none-eabi\include\c++\6.3.1\cmath **** #undef tan
  75:c:\program files (x86)\gnu tools arm embedded\6 2017-q2-update\arm-none-eabi\include\c++\6.3.1\cmath **** #undef tanh
  76:c:\program files (x86)\gnu tools arm embedded\6 2017-q2-update\arm-none-eabi\include\c++\6.3.1\cmath **** 
  77:c:\program files (x86)\gnu tools arm embedded\6 2017-q2-update\arm-none-eabi\include\c++\6.3.1\cmath **** extern "C++"
  78:c:\program files (x86)\gnu tools arm embedded\6 2017-q2-update\arm-none-eabi\include\c++\6.3.1\cmath **** {
  79:c:\program files (x86)\gnu tools arm embedded\6 2017-q2-update\arm-none-eabi\include\c++\6.3.1\cmath **** namespace std _GLIBCXX_VISIBILITY(default)
  80:c:\program files (x86)\gnu tools arm embedded\6 2017-q2-update\arm-none-eabi\include\c++\6.3.1\cmath **** {
  81:c:\program files (x86)\gnu tools arm embedded\6 2017-q2-update\arm-none-eabi\include\c++\6.3.1\cmath **** _GLIBCXX_BEGIN_NAMESPACE_VERSION
  82:c:\program files (x86)\gnu tools arm embedded\6 2017-q2-update\arm-none-eabi\include\c++\6.3.1\cmath **** 
  83:c:\program files (x86)\gnu tools arm embedded\6 2017-q2-update\arm-none-eabi\include\c++\6.3.1\cmath **** #ifndef __CORRECT_ISO_CPP_MATH_H_PROTO
  84:c:\program files (x86)\gnu tools arm embedded\6 2017-q2-update\arm-none-eabi\include\c++\6.3.1\cmath ****   inline _GLIBCXX_CONSTEXPR double
  85:c:\program files (x86)\gnu tools arm embedded\6 2017-q2-update\arm-none-eabi\include\c++\6.3.1\cmath ****   abs(double __x)
  86:c:\program files (x86)\gnu tools arm embedded\6 2017-q2-update\arm-none-eabi\include\c++\6.3.1\cmath ****   { return __builtin_fabs(__x); }
  87:c:\program files (x86)\gnu tools arm embedded\6 2017-q2-update\arm-none-eabi\include\c++\6.3.1\cmath **** #endif
  88:c:\program files (x86)\gnu tools arm embedded\6 2017-q2-update\arm-none-eabi\include\c++\6.3.1\cmath **** 
  89:c:\program files (x86)\gnu tools arm embedded\6 2017-q2-update\arm-none-eabi\include\c++\6.3.1\cmath **** #ifndef __CORRECT_ISO_CPP_MATH_H_PROTO
  90:c:\program files (x86)\gnu tools arm embedded\6 2017-q2-update\arm-none-eabi\include\c++\6.3.1\cmath ****   inline _GLIBCXX_CONSTEXPR float
  91:c:\program files (x86)\gnu tools arm embedded\6 2017-q2-update\arm-none-eabi\include\c++\6.3.1\cmath ****   abs(float __x)
  92:c:\program files (x86)\gnu tools arm embedded\6 2017-q2-update\arm-none-eabi\include\c++\6.3.1\cmath ****   { return __builtin_fabsf(__x); }
  93:c:\program files (x86)\gnu tools arm embedded\6 2017-q2-update\arm-none-eabi\include\c++\6.3.1\cmath **** 
  94:c:\program files (x86)\gnu tools arm embedded\6 2017-q2-update\arm-none-eabi\include\c++\6.3.1\cmath ****   inline _GLIBCXX_CONSTEXPR long double
  95:c:\program files (x86)\gnu tools arm embedded\6 2017-q2-update\arm-none-eabi\include\c++\6.3.1\cmath ****   abs(long double __x)
  96:c:\program files (x86)\gnu tools arm embedded\6 2017-q2-update\arm-none-eabi\include\c++\6.3.1\cmath ****   { return __builtin_fabsl(__x); }
  97:c:\program files (x86)\gnu tools arm embedded\6 2017-q2-update\arm-none-eabi\include\c++\6.3.1\cmath **** #endif
  98:c:\program files (x86)\gnu tools arm embedded\6 2017-q2-update\arm-none-eabi\include\c++\6.3.1\cmath **** 
  99:c:\program files (x86)\gnu tools arm embedded\6 2017-q2-update\arm-none-eabi\include\c++\6.3.1\cmath ****   template<typename _Tp>
 100:c:\program files (x86)\gnu tools arm embedded\6 2017-q2-update\arm-none-eabi\include\c++\6.3.1\cmath ****     inline _GLIBCXX_CONSTEXPR
 101:c:\program files (x86)\gnu tools arm embedded\6 2017-q2-update\arm-none-eabi\include\c++\6.3.1\cmath ****     typename __gnu_cxx::__enable_if<__is_integer<_Tp>::__value,
 102:c:\program files (x86)\gnu tools arm embedded\6 2017-q2-update\arm-none-eabi\include\c++\6.3.1\cmath ****                                     double>::__type
 103:c:\program files (x86)\gnu tools arm embedded\6 2017-q2-update\arm-none-eabi\include\c++\6.3.1\cmath ****     abs(_Tp __x)
 104:c:\program files (x86)\gnu tools arm embedded\6 2017-q2-update\arm-none-eabi\include\c++\6.3.1\cmath ****     { return __builtin_fabs(__x); }
 105:c:\program files (x86)\gnu tools arm embedded\6 2017-q2-update\arm-none-eabi\include\c++\6.3.1\cmath **** 
 106:c:\program files (x86)\gnu tools arm embedded\6 2017-q2-update\arm-none-eabi\include\c++\6.3.1\cmath ****   using ::acos;
 107:c:\program files (x86)\gnu tools arm embedded\6 2017-q2-update\arm-none-eabi\include\c++\6.3.1\cmath **** 
 108:c:\program files (x86)\gnu tools arm embedded\6 2017-q2-update\arm-none-eabi\include\c++\6.3.1\cmath **** #ifndef __CORRECT_ISO_CPP_MATH_H_PROTO
 109:c:\program files (x86)\gnu tools arm embedded\6 2017-q2-update\arm-none-eabi\include\c++\6.3.1\cmath ****   inline _GLIBCXX_CONSTEXPR float
 110:c:\program files (x86)\gnu tools arm embedded\6 2017-q2-update\arm-none-eabi\include\c++\6.3.1\cmath ****   acos(float __x)
 111:c:\program files (x86)\gnu tools arm embedded\6 2017-q2-update\arm-none-eabi\include\c++\6.3.1\cmath ****   { return __builtin_acosf(__x); }
 112:c:\program files (x86)\gnu tools arm embedded\6 2017-q2-update\arm-none-eabi\include\c++\6.3.1\cmath **** 
 113:c:\program files (x86)\gnu tools arm embedded\6 2017-q2-update\arm-none-eabi\include\c++\6.3.1\cmath ****   inline _GLIBCXX_CONSTEXPR long double
 114:c:\program files (x86)\gnu tools arm embedded\6 2017-q2-update\arm-none-eabi\include\c++\6.3.1\cmath ****   acos(long double __x)
 115:c:\program files (x86)\gnu tools arm embedded\6 2017-q2-update\arm-none-eabi\include\c++\6.3.1\cmath ****   { return __builtin_acosl(__x); }
 116:c:\program files (x86)\gnu tools arm embedded\6 2017-q2-update\arm-none-eabi\include\c++\6.3.1\cmath **** #endif
 117:c:\program files (x86)\gnu tools arm embedded\6 2017-q2-update\arm-none-eabi\include\c++\6.3.1\cmath **** 
 118:c:\program files (x86)\gnu tools arm embedded\6 2017-q2-update\arm-none-eabi\include\c++\6.3.1\cmath ****   template<typename _Tp>
 119:c:\program files (x86)\gnu tools arm embedded\6 2017-q2-update\arm-none-eabi\include\c++\6.3.1\cmath ****     inline _GLIBCXX_CONSTEXPR
 120:c:\program files (x86)\gnu tools arm embedded\6 2017-q2-update\arm-none-eabi\include\c++\6.3.1\cmath ****     typename __gnu_cxx::__enable_if<__is_integer<_Tp>::__value, 
 121:c:\program files (x86)\gnu tools arm embedded\6 2017-q2-update\arm-none-eabi\include\c++\6.3.1\cmath ****                                     double>::__type
 122:c:\program files (x86)\gnu tools arm embedded\6 2017-q2-update\arm-none-eabi\include\c++\6.3.1\cmath ****     acos(_Tp __x)
 123:c:\program files (x86)\gnu tools arm embedded\6 2017-q2-update\arm-none-eabi\include\c++\6.3.1\cmath ****     { return __builtin_acos(__x); }
 124:c:\program files (x86)\gnu tools arm embedded\6 2017-q2-update\arm-none-eabi\include\c++\6.3.1\cmath **** 
 125:c:\program files (x86)\gnu tools arm embedded\6 2017-q2-update\arm-none-eabi\include\c++\6.3.1\cmath ****   using ::asin;
 126:c:\program files (x86)\gnu tools arm embedded\6 2017-q2-update\arm-none-eabi\include\c++\6.3.1\cmath **** 
 127:c:\program files (x86)\gnu tools arm embedded\6 2017-q2-update\arm-none-eabi\include\c++\6.3.1\cmath **** #ifndef __CORRECT_ISO_CPP_MATH_H_PROTO
 128:c:\program files (x86)\gnu tools arm embedded\6 2017-q2-update\arm-none-eabi\include\c++\6.3.1\cmath ****   inline _GLIBCXX_CONSTEXPR float
 129:c:\program files (x86)\gnu tools arm embedded\6 2017-q2-update\arm-none-eabi\include\c++\6.3.1\cmath ****   asin(float __x)
 130:c:\program files (x86)\gnu tools arm embedded\6 2017-q2-update\arm-none-eabi\include\c++\6.3.1\cmath ****   { return __builtin_asinf(__x); }
 131:c:\program files (x86)\gnu tools arm embedded\6 2017-q2-update\arm-none-eabi\include\c++\6.3.1\cmath **** 
 132:c:\program files (x86)\gnu tools arm embedded\6 2017-q2-update\arm-none-eabi\include\c++\6.3.1\cmath ****   inline _GLIBCXX_CONSTEXPR long double
 133:c:\program files (x86)\gnu tools arm embedded\6 2017-q2-update\arm-none-eabi\include\c++\6.3.1\cmath ****   asin(long double __x)
 134:c:\program files (x86)\gnu tools arm embedded\6 2017-q2-update\arm-none-eabi\include\c++\6.3.1\cmath ****   { return __builtin_asinl(__x); }
 135:c:\program files (x86)\gnu tools arm embedded\6 2017-q2-update\arm-none-eabi\include\c++\6.3.1\cmath **** #endif
 136:c:\program files (x86)\gnu tools arm embedded\6 2017-q2-update\arm-none-eabi\include\c++\6.3.1\cmath **** 
 137:c:\program files (x86)\gnu tools arm embedded\6 2017-q2-update\arm-none-eabi\include\c++\6.3.1\cmath ****   template<typename _Tp>
 138:c:\program files (x86)\gnu tools arm embedded\6 2017-q2-update\arm-none-eabi\include\c++\6.3.1\cmath ****     inline _GLIBCXX_CONSTEXPR
 139:c:\program files (x86)\gnu tools arm embedded\6 2017-q2-update\arm-none-eabi\include\c++\6.3.1\cmath ****     typename __gnu_cxx::__enable_if<__is_integer<_Tp>::__value,
 140:c:\program files (x86)\gnu tools arm embedded\6 2017-q2-update\arm-none-eabi\include\c++\6.3.1\cmath ****                                     double>::__type
 141:c:\program files (x86)\gnu tools arm embedded\6 2017-q2-update\arm-none-eabi\include\c++\6.3.1\cmath ****     asin(_Tp __x)
 142:c:\program files (x86)\gnu tools arm embedded\6 2017-q2-update\arm-none-eabi\include\c++\6.3.1\cmath ****     { return __builtin_asin(__x); }
 143:c:\program files (x86)\gnu tools arm embedded\6 2017-q2-update\arm-none-eabi\include\c++\6.3.1\cmath **** 
 144:c:\program files (x86)\gnu tools arm embedded\6 2017-q2-update\arm-none-eabi\include\c++\6.3.1\cmath ****   using ::atan;
 145:c:\program files (x86)\gnu tools arm embedded\6 2017-q2-update\arm-none-eabi\include\c++\6.3.1\cmath **** 
 146:c:\program files (x86)\gnu tools arm embedded\6 2017-q2-update\arm-none-eabi\include\c++\6.3.1\cmath **** #ifndef __CORRECT_ISO_CPP_MATH_H_PROTO
 147:c:\program files (x86)\gnu tools arm embedded\6 2017-q2-update\arm-none-eabi\include\c++\6.3.1\cmath ****   inline _GLIBCXX_CONSTEXPR float
 148:c:\program files (x86)\gnu tools arm embedded\6 2017-q2-update\arm-none-eabi\include\c++\6.3.1\cmath ****   atan(float __x)
 149:c:\program files (x86)\gnu tools arm embedded\6 2017-q2-update\arm-none-eabi\include\c++\6.3.1\cmath ****   { return __builtin_atanf(__x); }
 150:c:\program files (x86)\gnu tools arm embedded\6 2017-q2-update\arm-none-eabi\include\c++\6.3.1\cmath **** 
 151:c:\program files (x86)\gnu tools arm embedded\6 2017-q2-update\arm-none-eabi\include\c++\6.3.1\cmath ****   inline _GLIBCXX_CONSTEXPR long double
 152:c:\program files (x86)\gnu tools arm embedded\6 2017-q2-update\arm-none-eabi\include\c++\6.3.1\cmath ****   atan(long double __x)
 153:c:\program files (x86)\gnu tools arm embedded\6 2017-q2-update\arm-none-eabi\include\c++\6.3.1\cmath ****   { return __builtin_atanl(__x); }
 154:c:\program files (x86)\gnu tools arm embedded\6 2017-q2-update\arm-none-eabi\include\c++\6.3.1\cmath **** #endif
 155:c:\program files (x86)\gnu tools arm embedded\6 2017-q2-update\arm-none-eabi\include\c++\6.3.1\cmath **** 
 156:c:\program files (x86)\gnu tools arm embedded\6 2017-q2-update\arm-none-eabi\include\c++\6.3.1\cmath ****   template<typename _Tp>
 157:c:\program files (x86)\gnu tools arm embedded\6 2017-q2-update\arm-none-eabi\include\c++\6.3.1\cmath ****     inline _GLIBCXX_CONSTEXPR
 158:c:\program files (x86)\gnu tools arm embedded\6 2017-q2-update\arm-none-eabi\include\c++\6.3.1\cmath ****     typename __gnu_cxx::__enable_if<__is_integer<_Tp>::__value,
 159:c:\program files (x86)\gnu tools arm embedded\6 2017-q2-update\arm-none-eabi\include\c++\6.3.1\cmath ****                                     double>::__type
 160:c:\program files (x86)\gnu tools arm embedded\6 2017-q2-update\arm-none-eabi\include\c++\6.3.1\cmath ****     atan(_Tp __x)
 161:c:\program files (x86)\gnu tools arm embedded\6 2017-q2-update\arm-none-eabi\include\c++\6.3.1\cmath ****     { return __builtin_atan(__x); }
 162:c:\program files (x86)\gnu tools arm embedded\6 2017-q2-update\arm-none-eabi\include\c++\6.3.1\cmath **** 
 163:c:\program files (x86)\gnu tools arm embedded\6 2017-q2-update\arm-none-eabi\include\c++\6.3.1\cmath ****   using ::atan2;
 164:c:\program files (x86)\gnu tools arm embedded\6 2017-q2-update\arm-none-eabi\include\c++\6.3.1\cmath **** 
 165:c:\program files (x86)\gnu tools arm embedded\6 2017-q2-update\arm-none-eabi\include\c++\6.3.1\cmath **** #ifndef __CORRECT_ISO_CPP_MATH_H_PROTO
 166:c:\program files (x86)\gnu tools arm embedded\6 2017-q2-update\arm-none-eabi\include\c++\6.3.1\cmath ****   inline _GLIBCXX_CONSTEXPR float
 167:c:\program files (x86)\gnu tools arm embedded\6 2017-q2-update\arm-none-eabi\include\c++\6.3.1\cmath ****   atan2(float __y, float __x)
 168:c:\program files (x86)\gnu tools arm embedded\6 2017-q2-update\arm-none-eabi\include\c++\6.3.1\cmath ****   { return __builtin_atan2f(__y, __x); }
 169:c:\program files (x86)\gnu tools arm embedded\6 2017-q2-update\arm-none-eabi\include\c++\6.3.1\cmath **** 
 170:c:\program files (x86)\gnu tools arm embedded\6 2017-q2-update\arm-none-eabi\include\c++\6.3.1\cmath ****   inline _GLIBCXX_CONSTEXPR long double
 171:c:\program files (x86)\gnu tools arm embedded\6 2017-q2-update\arm-none-eabi\include\c++\6.3.1\cmath ****   atan2(long double __y, long double __x)
 172:c:\program files (x86)\gnu tools arm embedded\6 2017-q2-update\arm-none-eabi\include\c++\6.3.1\cmath ****   { return __builtin_atan2l(__y, __x); }
 173:c:\program files (x86)\gnu tools arm embedded\6 2017-q2-update\arm-none-eabi\include\c++\6.3.1\cmath **** #endif
 174:c:\program files (x86)\gnu tools arm embedded\6 2017-q2-update\arm-none-eabi\include\c++\6.3.1\cmath **** 
 175:c:\program files (x86)\gnu tools arm embedded\6 2017-q2-update\arm-none-eabi\include\c++\6.3.1\cmath ****   template<typename _Tp, typename _Up>
 176:c:\program files (x86)\gnu tools arm embedded\6 2017-q2-update\arm-none-eabi\include\c++\6.3.1\cmath ****     inline _GLIBCXX_CONSTEXPR
 177:c:\program files (x86)\gnu tools arm embedded\6 2017-q2-update\arm-none-eabi\include\c++\6.3.1\cmath ****     typename __gnu_cxx::__promote_2<_Tp, _Up>::__type
 178:c:\program files (x86)\gnu tools arm embedded\6 2017-q2-update\arm-none-eabi\include\c++\6.3.1\cmath ****     atan2(_Tp __y, _Up __x)
 179:c:\program files (x86)\gnu tools arm embedded\6 2017-q2-update\arm-none-eabi\include\c++\6.3.1\cmath ****     {
 180:c:\program files (x86)\gnu tools arm embedded\6 2017-q2-update\arm-none-eabi\include\c++\6.3.1\cmath ****       typedef typename __gnu_cxx::__promote_2<_Tp, _Up>::__type __type;
 181:c:\program files (x86)\gnu tools arm embedded\6 2017-q2-update\arm-none-eabi\include\c++\6.3.1\cmath ****       return atan2(__type(__y), __type(__x));
 182:c:\program files (x86)\gnu tools arm embedded\6 2017-q2-update\arm-none-eabi\include\c++\6.3.1\cmath ****     }
 183:c:\program files (x86)\gnu tools arm embedded\6 2017-q2-update\arm-none-eabi\include\c++\6.3.1\cmath **** 
 184:c:\program files (x86)\gnu tools arm embedded\6 2017-q2-update\arm-none-eabi\include\c++\6.3.1\cmath ****   using ::ceil;
 185:c:\program files (x86)\gnu tools arm embedded\6 2017-q2-update\arm-none-eabi\include\c++\6.3.1\cmath **** 
 186:c:\program files (x86)\gnu tools arm embedded\6 2017-q2-update\arm-none-eabi\include\c++\6.3.1\cmath **** #ifndef __CORRECT_ISO_CPP_MATH_H_PROTO
 187:c:\program files (x86)\gnu tools arm embedded\6 2017-q2-update\arm-none-eabi\include\c++\6.3.1\cmath ****   inline _GLIBCXX_CONSTEXPR float
 188:c:\program files (x86)\gnu tools arm embedded\6 2017-q2-update\arm-none-eabi\include\c++\6.3.1\cmath ****   ceil(float __x)
 189:c:\program files (x86)\gnu tools arm embedded\6 2017-q2-update\arm-none-eabi\include\c++\6.3.1\cmath ****   { return __builtin_ceilf(__x); }
 190:c:\program files (x86)\gnu tools arm embedded\6 2017-q2-update\arm-none-eabi\include\c++\6.3.1\cmath **** 
 191:c:\program files (x86)\gnu tools arm embedded\6 2017-q2-update\arm-none-eabi\include\c++\6.3.1\cmath ****   inline _GLIBCXX_CONSTEXPR long double
 192:c:\program files (x86)\gnu tools arm embedded\6 2017-q2-update\arm-none-eabi\include\c++\6.3.1\cmath ****   ceil(long double __x)
 193:c:\program files (x86)\gnu tools arm embedded\6 2017-q2-update\arm-none-eabi\include\c++\6.3.1\cmath ****   { return __builtin_ceill(__x); }
 194:c:\program files (x86)\gnu tools arm embedded\6 2017-q2-update\arm-none-eabi\include\c++\6.3.1\cmath **** #endif
 195:c:\program files (x86)\gnu tools arm embedded\6 2017-q2-update\arm-none-eabi\include\c++\6.3.1\cmath **** 
 196:c:\program files (x86)\gnu tools arm embedded\6 2017-q2-update\arm-none-eabi\include\c++\6.3.1\cmath ****   template<typename _Tp>
 197:c:\program files (x86)\gnu tools arm embedded\6 2017-q2-update\arm-none-eabi\include\c++\6.3.1\cmath ****     inline _GLIBCXX_CONSTEXPR
 198:c:\program files (x86)\gnu tools arm embedded\6 2017-q2-update\arm-none-eabi\include\c++\6.3.1\cmath ****     typename __gnu_cxx::__enable_if<__is_integer<_Tp>::__value, 
 199:c:\program files (x86)\gnu tools arm embedded\6 2017-q2-update\arm-none-eabi\include\c++\6.3.1\cmath ****                                     double>::__type
 200:c:\program files (x86)\gnu tools arm embedded\6 2017-q2-update\arm-none-eabi\include\c++\6.3.1\cmath ****     ceil(_Tp __x)
 201:c:\program files (x86)\gnu tools arm embedded\6 2017-q2-update\arm-none-eabi\include\c++\6.3.1\cmath ****     { return __builtin_ceil(__x); }
 202:c:\program files (x86)\gnu tools arm embedded\6 2017-q2-update\arm-none-eabi\include\c++\6.3.1\cmath **** 
 203:c:\program files (x86)\gnu tools arm embedded\6 2017-q2-update\arm-none-eabi\include\c++\6.3.1\cmath ****   using ::cos;
 204:c:\program files (x86)\gnu tools arm embedded\6 2017-q2-update\arm-none-eabi\include\c++\6.3.1\cmath **** 
 205:c:\program files (x86)\gnu tools arm embedded\6 2017-q2-update\arm-none-eabi\include\c++\6.3.1\cmath **** #ifndef __CORRECT_ISO_CPP_MATH_H_PROTO
 206:c:\program files (x86)\gnu tools arm embedded\6 2017-q2-update\arm-none-eabi\include\c++\6.3.1\cmath ****   inline _GLIBCXX_CONSTEXPR float
 207:c:\program files (x86)\gnu tools arm embedded\6 2017-q2-update\arm-none-eabi\include\c++\6.3.1\cmath ****   cos(float __x)
 208:c:\program files (x86)\gnu tools arm embedded\6 2017-q2-update\arm-none-eabi\include\c++\6.3.1\cmath ****   { return __builtin_cosf(__x); }
 209:c:\program files (x86)\gnu tools arm embedded\6 2017-q2-update\arm-none-eabi\include\c++\6.3.1\cmath **** 
 210:c:\program files (x86)\gnu tools arm embedded\6 2017-q2-update\arm-none-eabi\include\c++\6.3.1\cmath ****   inline _GLIBCXX_CONSTEXPR long double
 211:c:\program files (x86)\gnu tools arm embedded\6 2017-q2-update\arm-none-eabi\include\c++\6.3.1\cmath ****   cos(long double __x)
 212:c:\program files (x86)\gnu tools arm embedded\6 2017-q2-update\arm-none-eabi\include\c++\6.3.1\cmath ****   { return __builtin_cosl(__x); }
 213:c:\program files (x86)\gnu tools arm embedded\6 2017-q2-update\arm-none-eabi\include\c++\6.3.1\cmath **** #endif
 214:c:\program files (x86)\gnu tools arm embedded\6 2017-q2-update\arm-none-eabi\include\c++\6.3.1\cmath **** 
 215:c:\program files (x86)\gnu tools arm embedded\6 2017-q2-update\arm-none-eabi\include\c++\6.3.1\cmath ****   template<typename _Tp>
 216:c:\program files (x86)\gnu tools arm embedded\6 2017-q2-update\arm-none-eabi\include\c++\6.3.1\cmath ****     inline _GLIBCXX_CONSTEXPR
 217:c:\program files (x86)\gnu tools arm embedded\6 2017-q2-update\arm-none-eabi\include\c++\6.3.1\cmath ****     typename __gnu_cxx::__enable_if<__is_integer<_Tp>::__value,
 218:c:\program files (x86)\gnu tools arm embedded\6 2017-q2-update\arm-none-eabi\include\c++\6.3.1\cmath ****                                     double>::__type
 219:c:\program files (x86)\gnu tools arm embedded\6 2017-q2-update\arm-none-eabi\include\c++\6.3.1\cmath ****     cos(_Tp __x)
 220:c:\program files (x86)\gnu tools arm embedded\6 2017-q2-update\arm-none-eabi\include\c++\6.3.1\cmath ****     { return __builtin_cos(__x); }
 221:c:\program files (x86)\gnu tools arm embedded\6 2017-q2-update\arm-none-eabi\include\c++\6.3.1\cmath **** 
 222:c:\program files (x86)\gnu tools arm embedded\6 2017-q2-update\arm-none-eabi\include\c++\6.3.1\cmath ****   using ::cosh;
 223:c:\program files (x86)\gnu tools arm embedded\6 2017-q2-update\arm-none-eabi\include\c++\6.3.1\cmath **** 
 224:c:\program files (x86)\gnu tools arm embedded\6 2017-q2-update\arm-none-eabi\include\c++\6.3.1\cmath **** #ifndef __CORRECT_ISO_CPP_MATH_H_PROTO
 225:c:\program files (x86)\gnu tools arm embedded\6 2017-q2-update\arm-none-eabi\include\c++\6.3.1\cmath ****   inline _GLIBCXX_CONSTEXPR float
 226:c:\program files (x86)\gnu tools arm embedded\6 2017-q2-update\arm-none-eabi\include\c++\6.3.1\cmath ****   cosh(float __x)
 227:c:\program files (x86)\gnu tools arm embedded\6 2017-q2-update\arm-none-eabi\include\c++\6.3.1\cmath ****   { return __builtin_coshf(__x); }
 228:c:\program files (x86)\gnu tools arm embedded\6 2017-q2-update\arm-none-eabi\include\c++\6.3.1\cmath **** 
 229:c:\program files (x86)\gnu tools arm embedded\6 2017-q2-update\arm-none-eabi\include\c++\6.3.1\cmath ****   inline _GLIBCXX_CONSTEXPR long double
 230:c:\program files (x86)\gnu tools arm embedded\6 2017-q2-update\arm-none-eabi\include\c++\6.3.1\cmath ****   cosh(long double __x)
 231:c:\program files (x86)\gnu tools arm embedded\6 2017-q2-update\arm-none-eabi\include\c++\6.3.1\cmath ****   { return __builtin_coshl(__x); }
 232:c:\program files (x86)\gnu tools arm embedded\6 2017-q2-update\arm-none-eabi\include\c++\6.3.1\cmath **** #endif
 233:c:\program files (x86)\gnu tools arm embedded\6 2017-q2-update\arm-none-eabi\include\c++\6.3.1\cmath **** 
 234:c:\program files (x86)\gnu tools arm embedded\6 2017-q2-update\arm-none-eabi\include\c++\6.3.1\cmath ****   template<typename _Tp>
 235:c:\program files (x86)\gnu tools arm embedded\6 2017-q2-update\arm-none-eabi\include\c++\6.3.1\cmath ****     inline _GLIBCXX_CONSTEXPR
 236:c:\program files (x86)\gnu tools arm embedded\6 2017-q2-update\arm-none-eabi\include\c++\6.3.1\cmath ****     typename __gnu_cxx::__enable_if<__is_integer<_Tp>::__value,
 237:c:\program files (x86)\gnu tools arm embedded\6 2017-q2-update\arm-none-eabi\include\c++\6.3.1\cmath ****                                     double>::__type
 238:c:\program files (x86)\gnu tools arm embedded\6 2017-q2-update\arm-none-eabi\include\c++\6.3.1\cmath ****     cosh(_Tp __x)
 239:c:\program files (x86)\gnu tools arm embedded\6 2017-q2-update\arm-none-eabi\include\c++\6.3.1\cmath ****     { return __builtin_cosh(__x); }
 240:c:\program files (x86)\gnu tools arm embedded\6 2017-q2-update\arm-none-eabi\include\c++\6.3.1\cmath **** 
 241:c:\program files (x86)\gnu tools arm embedded\6 2017-q2-update\arm-none-eabi\include\c++\6.3.1\cmath ****   using ::exp;
 242:c:\program files (x86)\gnu tools arm embedded\6 2017-q2-update\arm-none-eabi\include\c++\6.3.1\cmath **** 
 243:c:\program files (x86)\gnu tools arm embedded\6 2017-q2-update\arm-none-eabi\include\c++\6.3.1\cmath **** #ifndef __CORRECT_ISO_CPP_MATH_H_PROTO
 244:c:\program files (x86)\gnu tools arm embedded\6 2017-q2-update\arm-none-eabi\include\c++\6.3.1\cmath ****   inline _GLIBCXX_CONSTEXPR float
 245:c:\program files (x86)\gnu tools arm embedded\6 2017-q2-update\arm-none-eabi\include\c++\6.3.1\cmath ****   exp(float __x)
 246:c:\program files (x86)\gnu tools arm embedded\6 2017-q2-update\arm-none-eabi\include\c++\6.3.1\cmath ****   { return __builtin_expf(__x); }
 511              		.loc 5 246 0
 512 02e8 690AB0EE 		vmov.f32	s0, s19
 513 02ec FEFFFFEB 		bl	expf
 514              	.LVL41:
 515              	.LBE291:
 516              	.LBE290:
 517              	.LBE289:
 518              	.LBE288:
 326:C:/Renesas/e2studio_2021_01_workspace_RZA2M_ANPR/ANPR_RZA2M_GR_MANGO/src/tensorflow_lite/tensorflow/lite/kernels/internal\common.h ****                      TfLiteRound(func(min + i * step) * 32768.0f)) /
 519              		.loc 3 326 0
 520 02f0 904A07EE 		vmov	s15, r4	@ int
 521 02f4 E7AAB8EE 		vcvt.f32.s32	s20, s15
 522              	.LBB292:
 523              	.LBB293:
 524              	.LBB294:
 247:c:\program files (x86)\gnu tools arm embedded\6 2017-q2-update\arm-none-eabi\include\c++\6.3.1\cmath **** 
 248:c:\program files (x86)\gnu tools arm embedded\6 2017-q2-update\arm-none-eabi\include\c++\6.3.1\cmath ****   inline _GLIBCXX_CONSTEXPR long double
 249:c:\program files (x86)\gnu tools arm embedded\6 2017-q2-update\arm-none-eabi\include\c++\6.3.1\cmath ****   exp(long double __x)
 250:c:\program files (x86)\gnu tools arm embedded\6 2017-q2-update\arm-none-eabi\include\c++\6.3.1\cmath ****   { return __builtin_expl(__x); }
 251:c:\program files (x86)\gnu tools arm embedded\6 2017-q2-update\arm-none-eabi\include\c++\6.3.1\cmath **** #endif
 252:c:\program files (x86)\gnu tools arm embedded\6 2017-q2-update\arm-none-eabi\include\c++\6.3.1\cmath **** 
 253:c:\program files (x86)\gnu tools arm embedded\6 2017-q2-update\arm-none-eabi\include\c++\6.3.1\cmath ****   template<typename _Tp>
 254:c:\program files (x86)\gnu tools arm embedded\6 2017-q2-update\arm-none-eabi\include\c++\6.3.1\cmath ****     inline _GLIBCXX_CONSTEXPR
 255:c:\program files (x86)\gnu tools arm embedded\6 2017-q2-update\arm-none-eabi\include\c++\6.3.1\cmath ****     typename __gnu_cxx::__enable_if<__is_integer<_Tp>::__value,
 256:c:\program files (x86)\gnu tools arm embedded\6 2017-q2-update\arm-none-eabi\include\c++\6.3.1\cmath ****                                     double>::__type
 257:c:\program files (x86)\gnu tools arm embedded\6 2017-q2-update\arm-none-eabi\include\c++\6.3.1\cmath ****     exp(_Tp __x)
 258:c:\program files (x86)\gnu tools arm embedded\6 2017-q2-update\arm-none-eabi\include\c++\6.3.1\cmath ****     { return __builtin_exp(__x); }
 259:c:\program files (x86)\gnu tools arm embedded\6 2017-q2-update\arm-none-eabi\include\c++\6.3.1\cmath **** 
 260:c:\program files (x86)\gnu tools arm embedded\6 2017-q2-update\arm-none-eabi\include\c++\6.3.1\cmath ****   using ::fabs;
 261:c:\program files (x86)\gnu tools arm embedded\6 2017-q2-update\arm-none-eabi\include\c++\6.3.1\cmath **** 
 262:c:\program files (x86)\gnu tools arm embedded\6 2017-q2-update\arm-none-eabi\include\c++\6.3.1\cmath **** #ifndef __CORRECT_ISO_CPP_MATH_H_PROTO
 263:c:\program files (x86)\gnu tools arm embedded\6 2017-q2-update\arm-none-eabi\include\c++\6.3.1\cmath ****   inline _GLIBCXX_CONSTEXPR float
 264:c:\program files (x86)\gnu tools arm embedded\6 2017-q2-update\arm-none-eabi\include\c++\6.3.1\cmath ****   fabs(float __x)
 265:c:\program files (x86)\gnu tools arm embedded\6 2017-q2-update\arm-none-eabi\include\c++\6.3.1\cmath ****   { return __builtin_fabsf(__x); }
 266:c:\program files (x86)\gnu tools arm embedded\6 2017-q2-update\arm-none-eabi\include\c++\6.3.1\cmath **** 
 267:c:\program files (x86)\gnu tools arm embedded\6 2017-q2-update\arm-none-eabi\include\c++\6.3.1\cmath ****   inline _GLIBCXX_CONSTEXPR long double
 268:c:\program files (x86)\gnu tools arm embedded\6 2017-q2-update\arm-none-eabi\include\c++\6.3.1\cmath ****   fabs(long double __x)
 269:c:\program files (x86)\gnu tools arm embedded\6 2017-q2-update\arm-none-eabi\include\c++\6.3.1\cmath ****   { return __builtin_fabsl(__x); }
 270:c:\program files (x86)\gnu tools arm embedded\6 2017-q2-update\arm-none-eabi\include\c++\6.3.1\cmath **** #endif
 271:c:\program files (x86)\gnu tools arm embedded\6 2017-q2-update\arm-none-eabi\include\c++\6.3.1\cmath **** 
 272:c:\program files (x86)\gnu tools arm embedded\6 2017-q2-update\arm-none-eabi\include\c++\6.3.1\cmath ****   template<typename _Tp>
 273:c:\program files (x86)\gnu tools arm embedded\6 2017-q2-update\arm-none-eabi\include\c++\6.3.1\cmath ****     inline _GLIBCXX_CONSTEXPR
 274:c:\program files (x86)\gnu tools arm embedded\6 2017-q2-update\arm-none-eabi\include\c++\6.3.1\cmath ****     typename __gnu_cxx::__enable_if<__is_integer<_Tp>::__value,
 275:c:\program files (x86)\gnu tools arm embedded\6 2017-q2-update\arm-none-eabi\include\c++\6.3.1\cmath ****                                     double>::__type
 276:c:\program files (x86)\gnu tools arm embedded\6 2017-q2-update\arm-none-eabi\include\c++\6.3.1\cmath ****     fabs(_Tp __x)
 277:c:\program files (x86)\gnu tools arm embedded\6 2017-q2-update\arm-none-eabi\include\c++\6.3.1\cmath ****     { return __builtin_fabs(__x); }
 278:c:\program files (x86)\gnu tools arm embedded\6 2017-q2-update\arm-none-eabi\include\c++\6.3.1\cmath **** 
 279:c:\program files (x86)\gnu tools arm embedded\6 2017-q2-update\arm-none-eabi\include\c++\6.3.1\cmath ****   using ::floor;
 280:c:\program files (x86)\gnu tools arm embedded\6 2017-q2-update\arm-none-eabi\include\c++\6.3.1\cmath **** 
 281:c:\program files (x86)\gnu tools arm embedded\6 2017-q2-update\arm-none-eabi\include\c++\6.3.1\cmath **** #ifndef __CORRECT_ISO_CPP_MATH_H_PROTO
 282:c:\program files (x86)\gnu tools arm embedded\6 2017-q2-update\arm-none-eabi\include\c++\6.3.1\cmath ****   inline _GLIBCXX_CONSTEXPR float
 283:c:\program files (x86)\gnu tools arm embedded\6 2017-q2-update\arm-none-eabi\include\c++\6.3.1\cmath ****   floor(float __x)
 284:c:\program files (x86)\gnu tools arm embedded\6 2017-q2-update\arm-none-eabi\include\c++\6.3.1\cmath ****   { return __builtin_floorf(__x); }
 285:c:\program files (x86)\gnu tools arm embedded\6 2017-q2-update\arm-none-eabi\include\c++\6.3.1\cmath **** 
 286:c:\program files (x86)\gnu tools arm embedded\6 2017-q2-update\arm-none-eabi\include\c++\6.3.1\cmath ****   inline _GLIBCXX_CONSTEXPR long double
 287:c:\program files (x86)\gnu tools arm embedded\6 2017-q2-update\arm-none-eabi\include\c++\6.3.1\cmath ****   floor(long double __x)
 288:c:\program files (x86)\gnu tools arm embedded\6 2017-q2-update\arm-none-eabi\include\c++\6.3.1\cmath ****   { return __builtin_floorl(__x); }
 289:c:\program files (x86)\gnu tools arm embedded\6 2017-q2-update\arm-none-eabi\include\c++\6.3.1\cmath **** #endif
 290:c:\program files (x86)\gnu tools arm embedded\6 2017-q2-update\arm-none-eabi\include\c++\6.3.1\cmath **** 
 291:c:\program files (x86)\gnu tools arm embedded\6 2017-q2-update\arm-none-eabi\include\c++\6.3.1\cmath ****   template<typename _Tp>
 292:c:\program files (x86)\gnu tools arm embedded\6 2017-q2-update\arm-none-eabi\include\c++\6.3.1\cmath ****     inline _GLIBCXX_CONSTEXPR
 293:c:\program files (x86)\gnu tools arm embedded\6 2017-q2-update\arm-none-eabi\include\c++\6.3.1\cmath ****     typename __gnu_cxx::__enable_if<__is_integer<_Tp>::__value,
 294:c:\program files (x86)\gnu tools arm embedded\6 2017-q2-update\arm-none-eabi\include\c++\6.3.1\cmath ****                                     double>::__type
 295:c:\program files (x86)\gnu tools arm embedded\6 2017-q2-update\arm-none-eabi\include\c++\6.3.1\cmath ****     floor(_Tp __x)
 296:c:\program files (x86)\gnu tools arm embedded\6 2017-q2-update\arm-none-eabi\include\c++\6.3.1\cmath ****     { return __builtin_floor(__x); }
 297:c:\program files (x86)\gnu tools arm embedded\6 2017-q2-update\arm-none-eabi\include\c++\6.3.1\cmath **** 
 298:c:\program files (x86)\gnu tools arm embedded\6 2017-q2-update\arm-none-eabi\include\c++\6.3.1\cmath ****   using ::fmod;
 299:c:\program files (x86)\gnu tools arm embedded\6 2017-q2-update\arm-none-eabi\include\c++\6.3.1\cmath **** 
 300:c:\program files (x86)\gnu tools arm embedded\6 2017-q2-update\arm-none-eabi\include\c++\6.3.1\cmath **** #ifndef __CORRECT_ISO_CPP_MATH_H_PROTO
 301:c:\program files (x86)\gnu tools arm embedded\6 2017-q2-update\arm-none-eabi\include\c++\6.3.1\cmath ****   inline _GLIBCXX_CONSTEXPR float
 302:c:\program files (x86)\gnu tools arm embedded\6 2017-q2-update\arm-none-eabi\include\c++\6.3.1\cmath ****   fmod(float __x, float __y)
 303:c:\program files (x86)\gnu tools arm embedded\6 2017-q2-update\arm-none-eabi\include\c++\6.3.1\cmath ****   { return __builtin_fmodf(__x, __y); }
 304:c:\program files (x86)\gnu tools arm embedded\6 2017-q2-update\arm-none-eabi\include\c++\6.3.1\cmath **** 
 305:c:\program files (x86)\gnu tools arm embedded\6 2017-q2-update\arm-none-eabi\include\c++\6.3.1\cmath ****   inline _GLIBCXX_CONSTEXPR long double
 306:c:\program files (x86)\gnu tools arm embedded\6 2017-q2-update\arm-none-eabi\include\c++\6.3.1\cmath ****   fmod(long double __x, long double __y)
 307:c:\program files (x86)\gnu tools arm embedded\6 2017-q2-update\arm-none-eabi\include\c++\6.3.1\cmath ****   { return __builtin_fmodl(__x, __y); }
 308:c:\program files (x86)\gnu tools arm embedded\6 2017-q2-update\arm-none-eabi\include\c++\6.3.1\cmath **** #endif
 309:c:\program files (x86)\gnu tools arm embedded\6 2017-q2-update\arm-none-eabi\include\c++\6.3.1\cmath **** 
 310:c:\program files (x86)\gnu tools arm embedded\6 2017-q2-update\arm-none-eabi\include\c++\6.3.1\cmath ****   template<typename _Tp, typename _Up>
 311:c:\program files (x86)\gnu tools arm embedded\6 2017-q2-update\arm-none-eabi\include\c++\6.3.1\cmath ****     inline _GLIBCXX_CONSTEXPR
 312:c:\program files (x86)\gnu tools arm embedded\6 2017-q2-update\arm-none-eabi\include\c++\6.3.1\cmath ****     typename __gnu_cxx::__promote_2<_Tp, _Up>::__type
 313:c:\program files (x86)\gnu tools arm embedded\6 2017-q2-update\arm-none-eabi\include\c++\6.3.1\cmath ****     fmod(_Tp __x, _Up __y)
 314:c:\program files (x86)\gnu tools arm embedded\6 2017-q2-update\arm-none-eabi\include\c++\6.3.1\cmath ****     {
 315:c:\program files (x86)\gnu tools arm embedded\6 2017-q2-update\arm-none-eabi\include\c++\6.3.1\cmath ****       typedef typename __gnu_cxx::__promote_2<_Tp, _Up>::__type __type;
 316:c:\program files (x86)\gnu tools arm embedded\6 2017-q2-update\arm-none-eabi\include\c++\6.3.1\cmath ****       return fmod(__type(__x), __type(__y));
 317:c:\program files (x86)\gnu tools arm embedded\6 2017-q2-update\arm-none-eabi\include\c++\6.3.1\cmath ****     }
 318:c:\program files (x86)\gnu tools arm embedded\6 2017-q2-update\arm-none-eabi\include\c++\6.3.1\cmath **** 
 319:c:\program files (x86)\gnu tools arm embedded\6 2017-q2-update\arm-none-eabi\include\c++\6.3.1\cmath ****   using ::frexp;
 320:c:\program files (x86)\gnu tools arm embedded\6 2017-q2-update\arm-none-eabi\include\c++\6.3.1\cmath **** 
 321:c:\program files (x86)\gnu tools arm embedded\6 2017-q2-update\arm-none-eabi\include\c++\6.3.1\cmath **** #ifndef __CORRECT_ISO_CPP_MATH_H_PROTO
 322:c:\program files (x86)\gnu tools arm embedded\6 2017-q2-update\arm-none-eabi\include\c++\6.3.1\cmath ****   inline float
 323:c:\program files (x86)\gnu tools arm embedded\6 2017-q2-update\arm-none-eabi\include\c++\6.3.1\cmath ****   frexp(float __x, int* __exp)
 324:c:\program files (x86)\gnu tools arm embedded\6 2017-q2-update\arm-none-eabi\include\c++\6.3.1\cmath ****   { return __builtin_frexpf(__x, __exp); }
 325:c:\program files (x86)\gnu tools arm embedded\6 2017-q2-update\arm-none-eabi\include\c++\6.3.1\cmath **** 
 326:c:\program files (x86)\gnu tools arm embedded\6 2017-q2-update\arm-none-eabi\include\c++\6.3.1\cmath ****   inline long double
 327:c:\program files (x86)\gnu tools arm embedded\6 2017-q2-update\arm-none-eabi\include\c++\6.3.1\cmath ****   frexp(long double __x, int* __exp)
 328:c:\program files (x86)\gnu tools arm embedded\6 2017-q2-update\arm-none-eabi\include\c++\6.3.1\cmath ****   { return __builtin_frexpl(__x, __exp); }
 329:c:\program files (x86)\gnu tools arm embedded\6 2017-q2-update\arm-none-eabi\include\c++\6.3.1\cmath **** #endif
 330:c:\program files (x86)\gnu tools arm embedded\6 2017-q2-update\arm-none-eabi\include\c++\6.3.1\cmath **** 
 331:c:\program files (x86)\gnu tools arm embedded\6 2017-q2-update\arm-none-eabi\include\c++\6.3.1\cmath ****   template<typename _Tp>
 332:c:\program files (x86)\gnu tools arm embedded\6 2017-q2-update\arm-none-eabi\include\c++\6.3.1\cmath ****     inline _GLIBCXX_CONSTEXPR
 333:c:\program files (x86)\gnu tools arm embedded\6 2017-q2-update\arm-none-eabi\include\c++\6.3.1\cmath ****     typename __gnu_cxx::__enable_if<__is_integer<_Tp>::__value, 
 334:c:\program files (x86)\gnu tools arm embedded\6 2017-q2-update\arm-none-eabi\include\c++\6.3.1\cmath ****                                     double>::__type
 335:c:\program files (x86)\gnu tools arm embedded\6 2017-q2-update\arm-none-eabi\include\c++\6.3.1\cmath ****     frexp(_Tp __x, int* __exp)
 336:c:\program files (x86)\gnu tools arm embedded\6 2017-q2-update\arm-none-eabi\include\c++\6.3.1\cmath ****     { return __builtin_frexp(__x, __exp); }
 337:c:\program files (x86)\gnu tools arm embedded\6 2017-q2-update\arm-none-eabi\include\c++\6.3.1\cmath **** 
 338:c:\program files (x86)\gnu tools arm embedded\6 2017-q2-update\arm-none-eabi\include\c++\6.3.1\cmath ****   using ::ldexp;
 339:c:\program files (x86)\gnu tools arm embedded\6 2017-q2-update\arm-none-eabi\include\c++\6.3.1\cmath **** 
 340:c:\program files (x86)\gnu tools arm embedded\6 2017-q2-update\arm-none-eabi\include\c++\6.3.1\cmath **** #ifndef __CORRECT_ISO_CPP_MATH_H_PROTO
 341:c:\program files (x86)\gnu tools arm embedded\6 2017-q2-update\arm-none-eabi\include\c++\6.3.1\cmath ****   inline _GLIBCXX_CONSTEXPR float
 342:c:\program files (x86)\gnu tools arm embedded\6 2017-q2-update\arm-none-eabi\include\c++\6.3.1\cmath ****   ldexp(float __x, int __exp)
 343:c:\program files (x86)\gnu tools arm embedded\6 2017-q2-update\arm-none-eabi\include\c++\6.3.1\cmath ****   { return __builtin_ldexpf(__x, __exp); }
 344:c:\program files (x86)\gnu tools arm embedded\6 2017-q2-update\arm-none-eabi\include\c++\6.3.1\cmath **** 
 345:c:\program files (x86)\gnu tools arm embedded\6 2017-q2-update\arm-none-eabi\include\c++\6.3.1\cmath ****   inline _GLIBCXX_CONSTEXPR long double
 346:c:\program files (x86)\gnu tools arm embedded\6 2017-q2-update\arm-none-eabi\include\c++\6.3.1\cmath ****   ldexp(long double __x, int __exp)
 347:c:\program files (x86)\gnu tools arm embedded\6 2017-q2-update\arm-none-eabi\include\c++\6.3.1\cmath ****   { return __builtin_ldexpl(__x, __exp); }
 348:c:\program files (x86)\gnu tools arm embedded\6 2017-q2-update\arm-none-eabi\include\c++\6.3.1\cmath **** #endif
 349:c:\program files (x86)\gnu tools arm embedded\6 2017-q2-update\arm-none-eabi\include\c++\6.3.1\cmath **** 
 350:c:\program files (x86)\gnu tools arm embedded\6 2017-q2-update\arm-none-eabi\include\c++\6.3.1\cmath ****   template<typename _Tp>
 351:c:\program files (x86)\gnu tools arm embedded\6 2017-q2-update\arm-none-eabi\include\c++\6.3.1\cmath ****     inline _GLIBCXX_CONSTEXPR
 352:c:\program files (x86)\gnu tools arm embedded\6 2017-q2-update\arm-none-eabi\include\c++\6.3.1\cmath ****     typename __gnu_cxx::__enable_if<__is_integer<_Tp>::__value, 
 353:c:\program files (x86)\gnu tools arm embedded\6 2017-q2-update\arm-none-eabi\include\c++\6.3.1\cmath ****                                     double>::__type
 354:c:\program files (x86)\gnu tools arm embedded\6 2017-q2-update\arm-none-eabi\include\c++\6.3.1\cmath ****     ldexp(_Tp __x, int __exp)
 355:c:\program files (x86)\gnu tools arm embedded\6 2017-q2-update\arm-none-eabi\include\c++\6.3.1\cmath ****     { return __builtin_ldexp(__x, __exp); }
 356:c:\program files (x86)\gnu tools arm embedded\6 2017-q2-update\arm-none-eabi\include\c++\6.3.1\cmath **** 
 357:c:\program files (x86)\gnu tools arm embedded\6 2017-q2-update\arm-none-eabi\include\c++\6.3.1\cmath ****   using ::log;
 358:c:\program files (x86)\gnu tools arm embedded\6 2017-q2-update\arm-none-eabi\include\c++\6.3.1\cmath **** 
 359:c:\program files (x86)\gnu tools arm embedded\6 2017-q2-update\arm-none-eabi\include\c++\6.3.1\cmath **** #ifndef __CORRECT_ISO_CPP_MATH_H_PROTO
 360:c:\program files (x86)\gnu tools arm embedded\6 2017-q2-update\arm-none-eabi\include\c++\6.3.1\cmath ****   inline _GLIBCXX_CONSTEXPR float
 361:c:\program files (x86)\gnu tools arm embedded\6 2017-q2-update\arm-none-eabi\include\c++\6.3.1\cmath ****   log(float __x)
 362:c:\program files (x86)\gnu tools arm embedded\6 2017-q2-update\arm-none-eabi\include\c++\6.3.1\cmath ****   { return __builtin_logf(__x); }
 363:c:\program files (x86)\gnu tools arm embedded\6 2017-q2-update\arm-none-eabi\include\c++\6.3.1\cmath **** 
 364:c:\program files (x86)\gnu tools arm embedded\6 2017-q2-update\arm-none-eabi\include\c++\6.3.1\cmath ****   inline _GLIBCXX_CONSTEXPR long double
 365:c:\program files (x86)\gnu tools arm embedded\6 2017-q2-update\arm-none-eabi\include\c++\6.3.1\cmath ****   log(long double __x)
 366:c:\program files (x86)\gnu tools arm embedded\6 2017-q2-update\arm-none-eabi\include\c++\6.3.1\cmath ****   { return __builtin_logl(__x); }
 367:c:\program files (x86)\gnu tools arm embedded\6 2017-q2-update\arm-none-eabi\include\c++\6.3.1\cmath **** #endif
 368:c:\program files (x86)\gnu tools arm embedded\6 2017-q2-update\arm-none-eabi\include\c++\6.3.1\cmath **** 
 369:c:\program files (x86)\gnu tools arm embedded\6 2017-q2-update\arm-none-eabi\include\c++\6.3.1\cmath ****   template<typename _Tp>
 370:c:\program files (x86)\gnu tools arm embedded\6 2017-q2-update\arm-none-eabi\include\c++\6.3.1\cmath ****     inline _GLIBCXX_CONSTEXPR
 371:c:\program files (x86)\gnu tools arm embedded\6 2017-q2-update\arm-none-eabi\include\c++\6.3.1\cmath ****     typename __gnu_cxx::__enable_if<__is_integer<_Tp>::__value, 
 372:c:\program files (x86)\gnu tools arm embedded\6 2017-q2-update\arm-none-eabi\include\c++\6.3.1\cmath ****                                     double>::__type
 373:c:\program files (x86)\gnu tools arm embedded\6 2017-q2-update\arm-none-eabi\include\c++\6.3.1\cmath ****     log(_Tp __x)
 374:c:\program files (x86)\gnu tools arm embedded\6 2017-q2-update\arm-none-eabi\include\c++\6.3.1\cmath ****     { return __builtin_log(__x); }
 375:c:\program files (x86)\gnu tools arm embedded\6 2017-q2-update\arm-none-eabi\include\c++\6.3.1\cmath **** 
 376:c:\program files (x86)\gnu tools arm embedded\6 2017-q2-update\arm-none-eabi\include\c++\6.3.1\cmath ****   using ::log10;
 377:c:\program files (x86)\gnu tools arm embedded\6 2017-q2-update\arm-none-eabi\include\c++\6.3.1\cmath **** 
 378:c:\program files (x86)\gnu tools arm embedded\6 2017-q2-update\arm-none-eabi\include\c++\6.3.1\cmath **** #ifndef __CORRECT_ISO_CPP_MATH_H_PROTO
 379:c:\program files (x86)\gnu tools arm embedded\6 2017-q2-update\arm-none-eabi\include\c++\6.3.1\cmath ****   inline _GLIBCXX_CONSTEXPR float
 380:c:\program files (x86)\gnu tools arm embedded\6 2017-q2-update\arm-none-eabi\include\c++\6.3.1\cmath ****   log10(float __x)
 381:c:\program files (x86)\gnu tools arm embedded\6 2017-q2-update\arm-none-eabi\include\c++\6.3.1\cmath ****   { return __builtin_log10f(__x); }
 382:c:\program files (x86)\gnu tools arm embedded\6 2017-q2-update\arm-none-eabi\include\c++\6.3.1\cmath **** 
 383:c:\program files (x86)\gnu tools arm embedded\6 2017-q2-update\arm-none-eabi\include\c++\6.3.1\cmath ****   inline _GLIBCXX_CONSTEXPR long double
 384:c:\program files (x86)\gnu tools arm embedded\6 2017-q2-update\arm-none-eabi\include\c++\6.3.1\cmath ****   log10(long double __x)
 385:c:\program files (x86)\gnu tools arm embedded\6 2017-q2-update\arm-none-eabi\include\c++\6.3.1\cmath ****   { return __builtin_log10l(__x); }
 386:c:\program files (x86)\gnu tools arm embedded\6 2017-q2-update\arm-none-eabi\include\c++\6.3.1\cmath **** #endif
 387:c:\program files (x86)\gnu tools arm embedded\6 2017-q2-update\arm-none-eabi\include\c++\6.3.1\cmath **** 
 388:c:\program files (x86)\gnu tools arm embedded\6 2017-q2-update\arm-none-eabi\include\c++\6.3.1\cmath ****   template<typename _Tp>
 389:c:\program files (x86)\gnu tools arm embedded\6 2017-q2-update\arm-none-eabi\include\c++\6.3.1\cmath ****     inline _GLIBCXX_CONSTEXPR
 390:c:\program files (x86)\gnu tools arm embedded\6 2017-q2-update\arm-none-eabi\include\c++\6.3.1\cmath ****     typename __gnu_cxx::__enable_if<__is_integer<_Tp>::__value,
 391:c:\program files (x86)\gnu tools arm embedded\6 2017-q2-update\arm-none-eabi\include\c++\6.3.1\cmath ****                                     double>::__type
 392:c:\program files (x86)\gnu tools arm embedded\6 2017-q2-update\arm-none-eabi\include\c++\6.3.1\cmath ****     log10(_Tp __x)
 393:c:\program files (x86)\gnu tools arm embedded\6 2017-q2-update\arm-none-eabi\include\c++\6.3.1\cmath ****     { return __builtin_log10(__x); }
 394:c:\program files (x86)\gnu tools arm embedded\6 2017-q2-update\arm-none-eabi\include\c++\6.3.1\cmath **** 
 395:c:\program files (x86)\gnu tools arm embedded\6 2017-q2-update\arm-none-eabi\include\c++\6.3.1\cmath ****   using ::modf;
 396:c:\program files (x86)\gnu tools arm embedded\6 2017-q2-update\arm-none-eabi\include\c++\6.3.1\cmath **** 
 397:c:\program files (x86)\gnu tools arm embedded\6 2017-q2-update\arm-none-eabi\include\c++\6.3.1\cmath **** #ifndef __CORRECT_ISO_CPP_MATH_H_PROTO
 398:c:\program files (x86)\gnu tools arm embedded\6 2017-q2-update\arm-none-eabi\include\c++\6.3.1\cmath ****   inline float
 399:c:\program files (x86)\gnu tools arm embedded\6 2017-q2-update\arm-none-eabi\include\c++\6.3.1\cmath ****   modf(float __x, float* __iptr)
 400:c:\program files (x86)\gnu tools arm embedded\6 2017-q2-update\arm-none-eabi\include\c++\6.3.1\cmath ****   { return __builtin_modff(__x, __iptr); }
 401:c:\program files (x86)\gnu tools arm embedded\6 2017-q2-update\arm-none-eabi\include\c++\6.3.1\cmath **** 
 402:c:\program files (x86)\gnu tools arm embedded\6 2017-q2-update\arm-none-eabi\include\c++\6.3.1\cmath ****   inline long double
 403:c:\program files (x86)\gnu tools arm embedded\6 2017-q2-update\arm-none-eabi\include\c++\6.3.1\cmath ****   modf(long double __x, long double* __iptr)
 404:c:\program files (x86)\gnu tools arm embedded\6 2017-q2-update\arm-none-eabi\include\c++\6.3.1\cmath ****   { return __builtin_modfl(__x, __iptr); }
 405:c:\program files (x86)\gnu tools arm embedded\6 2017-q2-update\arm-none-eabi\include\c++\6.3.1\cmath **** #endif
 406:c:\program files (x86)\gnu tools arm embedded\6 2017-q2-update\arm-none-eabi\include\c++\6.3.1\cmath **** 
 407:c:\program files (x86)\gnu tools arm embedded\6 2017-q2-update\arm-none-eabi\include\c++\6.3.1\cmath ****   using ::pow;
 408:c:\program files (x86)\gnu tools arm embedded\6 2017-q2-update\arm-none-eabi\include\c++\6.3.1\cmath **** 
 409:c:\program files (x86)\gnu tools arm embedded\6 2017-q2-update\arm-none-eabi\include\c++\6.3.1\cmath **** #ifndef __CORRECT_ISO_CPP_MATH_H_PROTO
 410:c:\program files (x86)\gnu tools arm embedded\6 2017-q2-update\arm-none-eabi\include\c++\6.3.1\cmath ****   inline _GLIBCXX_CONSTEXPR float
 411:c:\program files (x86)\gnu tools arm embedded\6 2017-q2-update\arm-none-eabi\include\c++\6.3.1\cmath ****   pow(float __x, float __y)
 412:c:\program files (x86)\gnu tools arm embedded\6 2017-q2-update\arm-none-eabi\include\c++\6.3.1\cmath ****   { return __builtin_powf(__x, __y); }
 413:c:\program files (x86)\gnu tools arm embedded\6 2017-q2-update\arm-none-eabi\include\c++\6.3.1\cmath **** 
 414:c:\program files (x86)\gnu tools arm embedded\6 2017-q2-update\arm-none-eabi\include\c++\6.3.1\cmath ****   inline _GLIBCXX_CONSTEXPR long double
 415:c:\program files (x86)\gnu tools arm embedded\6 2017-q2-update\arm-none-eabi\include\c++\6.3.1\cmath ****   pow(long double __x, long double __y)
 416:c:\program files (x86)\gnu tools arm embedded\6 2017-q2-update\arm-none-eabi\include\c++\6.3.1\cmath ****   { return __builtin_powl(__x, __y); }
 417:c:\program files (x86)\gnu tools arm embedded\6 2017-q2-update\arm-none-eabi\include\c++\6.3.1\cmath **** 
 418:c:\program files (x86)\gnu tools arm embedded\6 2017-q2-update\arm-none-eabi\include\c++\6.3.1\cmath **** #if __cplusplus < 201103L
 419:c:\program files (x86)\gnu tools arm embedded\6 2017-q2-update\arm-none-eabi\include\c++\6.3.1\cmath ****   // _GLIBCXX_RESOLVE_LIB_DEFECTS
 420:c:\program files (x86)\gnu tools arm embedded\6 2017-q2-update\arm-none-eabi\include\c++\6.3.1\cmath ****   // DR 550. What should the return type of pow(float,int) be?
 421:c:\program files (x86)\gnu tools arm embedded\6 2017-q2-update\arm-none-eabi\include\c++\6.3.1\cmath ****   inline double
 422:c:\program files (x86)\gnu tools arm embedded\6 2017-q2-update\arm-none-eabi\include\c++\6.3.1\cmath ****   pow(double __x, int __i)
 423:c:\program files (x86)\gnu tools arm embedded\6 2017-q2-update\arm-none-eabi\include\c++\6.3.1\cmath ****   { return __builtin_powi(__x, __i); }
 424:c:\program files (x86)\gnu tools arm embedded\6 2017-q2-update\arm-none-eabi\include\c++\6.3.1\cmath **** 
 425:c:\program files (x86)\gnu tools arm embedded\6 2017-q2-update\arm-none-eabi\include\c++\6.3.1\cmath ****   inline float
 426:c:\program files (x86)\gnu tools arm embedded\6 2017-q2-update\arm-none-eabi\include\c++\6.3.1\cmath ****   pow(float __x, int __n)
 427:c:\program files (x86)\gnu tools arm embedded\6 2017-q2-update\arm-none-eabi\include\c++\6.3.1\cmath ****   { return __builtin_powif(__x, __n); }
 428:c:\program files (x86)\gnu tools arm embedded\6 2017-q2-update\arm-none-eabi\include\c++\6.3.1\cmath **** 
 429:c:\program files (x86)\gnu tools arm embedded\6 2017-q2-update\arm-none-eabi\include\c++\6.3.1\cmath ****   inline long double
 430:c:\program files (x86)\gnu tools arm embedded\6 2017-q2-update\arm-none-eabi\include\c++\6.3.1\cmath ****   pow(long double __x, int __n)
 431:c:\program files (x86)\gnu tools arm embedded\6 2017-q2-update\arm-none-eabi\include\c++\6.3.1\cmath ****   { return __builtin_powil(__x, __n); }
 432:c:\program files (x86)\gnu tools arm embedded\6 2017-q2-update\arm-none-eabi\include\c++\6.3.1\cmath **** #endif
 433:c:\program files (x86)\gnu tools arm embedded\6 2017-q2-update\arm-none-eabi\include\c++\6.3.1\cmath **** #endif
 434:c:\program files (x86)\gnu tools arm embedded\6 2017-q2-update\arm-none-eabi\include\c++\6.3.1\cmath **** 
 435:c:\program files (x86)\gnu tools arm embedded\6 2017-q2-update\arm-none-eabi\include\c++\6.3.1\cmath ****   template<typename _Tp, typename _Up>
 436:c:\program files (x86)\gnu tools arm embedded\6 2017-q2-update\arm-none-eabi\include\c++\6.3.1\cmath ****     inline _GLIBCXX_CONSTEXPR
 437:c:\program files (x86)\gnu tools arm embedded\6 2017-q2-update\arm-none-eabi\include\c++\6.3.1\cmath ****     typename __gnu_cxx::__promote_2<_Tp, _Up>::__type
 438:c:\program files (x86)\gnu tools arm embedded\6 2017-q2-update\arm-none-eabi\include\c++\6.3.1\cmath ****     pow(_Tp __x, _Up __y)
 439:c:\program files (x86)\gnu tools arm embedded\6 2017-q2-update\arm-none-eabi\include\c++\6.3.1\cmath ****     {
 440:c:\program files (x86)\gnu tools arm embedded\6 2017-q2-update\arm-none-eabi\include\c++\6.3.1\cmath ****       typedef typename __gnu_cxx::__promote_2<_Tp, _Up>::__type __type;
 441:c:\program files (x86)\gnu tools arm embedded\6 2017-q2-update\arm-none-eabi\include\c++\6.3.1\cmath ****       return pow(__type(__x), __type(__y));
 442:c:\program files (x86)\gnu tools arm embedded\6 2017-q2-update\arm-none-eabi\include\c++\6.3.1\cmath ****     }
 443:c:\program files (x86)\gnu tools arm embedded\6 2017-q2-update\arm-none-eabi\include\c++\6.3.1\cmath **** 
 444:c:\program files (x86)\gnu tools arm embedded\6 2017-q2-update\arm-none-eabi\include\c++\6.3.1\cmath ****   using ::sin;
 445:c:\program files (x86)\gnu tools arm embedded\6 2017-q2-update\arm-none-eabi\include\c++\6.3.1\cmath **** 
 446:c:\program files (x86)\gnu tools arm embedded\6 2017-q2-update\arm-none-eabi\include\c++\6.3.1\cmath **** #ifndef __CORRECT_ISO_CPP_MATH_H_PROTO
 447:c:\program files (x86)\gnu tools arm embedded\6 2017-q2-update\arm-none-eabi\include\c++\6.3.1\cmath ****   inline _GLIBCXX_CONSTEXPR float
 448:c:\program files (x86)\gnu tools arm embedded\6 2017-q2-update\arm-none-eabi\include\c++\6.3.1\cmath ****   sin(float __x)
 449:c:\program files (x86)\gnu tools arm embedded\6 2017-q2-update\arm-none-eabi\include\c++\6.3.1\cmath ****   { return __builtin_sinf(__x); }
 450:c:\program files (x86)\gnu tools arm embedded\6 2017-q2-update\arm-none-eabi\include\c++\6.3.1\cmath **** 
 451:c:\program files (x86)\gnu tools arm embedded\6 2017-q2-update\arm-none-eabi\include\c++\6.3.1\cmath ****   inline _GLIBCXX_CONSTEXPR long double
 452:c:\program files (x86)\gnu tools arm embedded\6 2017-q2-update\arm-none-eabi\include\c++\6.3.1\cmath ****   sin(long double __x)
 453:c:\program files (x86)\gnu tools arm embedded\6 2017-q2-update\arm-none-eabi\include\c++\6.3.1\cmath ****   { return __builtin_sinl(__x); }
 454:c:\program files (x86)\gnu tools arm embedded\6 2017-q2-update\arm-none-eabi\include\c++\6.3.1\cmath **** #endif
 455:c:\program files (x86)\gnu tools arm embedded\6 2017-q2-update\arm-none-eabi\include\c++\6.3.1\cmath **** 
 456:c:\program files (x86)\gnu tools arm embedded\6 2017-q2-update\arm-none-eabi\include\c++\6.3.1\cmath ****   template<typename _Tp>
 457:c:\program files (x86)\gnu tools arm embedded\6 2017-q2-update\arm-none-eabi\include\c++\6.3.1\cmath ****     inline _GLIBCXX_CONSTEXPR
 458:c:\program files (x86)\gnu tools arm embedded\6 2017-q2-update\arm-none-eabi\include\c++\6.3.1\cmath ****     typename __gnu_cxx::__enable_if<__is_integer<_Tp>::__value, 
 459:c:\program files (x86)\gnu tools arm embedded\6 2017-q2-update\arm-none-eabi\include\c++\6.3.1\cmath ****                                     double>::__type
 460:c:\program files (x86)\gnu tools arm embedded\6 2017-q2-update\arm-none-eabi\include\c++\6.3.1\cmath ****     sin(_Tp __x)
 461:c:\program files (x86)\gnu tools arm embedded\6 2017-q2-update\arm-none-eabi\include\c++\6.3.1\cmath ****     { return __builtin_sin(__x); }
 462:c:\program files (x86)\gnu tools arm embedded\6 2017-q2-update\arm-none-eabi\include\c++\6.3.1\cmath **** 
 463:c:\program files (x86)\gnu tools arm embedded\6 2017-q2-update\arm-none-eabi\include\c++\6.3.1\cmath ****   using ::sinh;
 464:c:\program files (x86)\gnu tools arm embedded\6 2017-q2-update\arm-none-eabi\include\c++\6.3.1\cmath **** 
 465:c:\program files (x86)\gnu tools arm embedded\6 2017-q2-update\arm-none-eabi\include\c++\6.3.1\cmath **** #ifndef __CORRECT_ISO_CPP_MATH_H_PROTO
 466:c:\program files (x86)\gnu tools arm embedded\6 2017-q2-update\arm-none-eabi\include\c++\6.3.1\cmath ****   inline _GLIBCXX_CONSTEXPR float
 467:c:\program files (x86)\gnu tools arm embedded\6 2017-q2-update\arm-none-eabi\include\c++\6.3.1\cmath ****   sinh(float __x)
 468:c:\program files (x86)\gnu tools arm embedded\6 2017-q2-update\arm-none-eabi\include\c++\6.3.1\cmath ****   { return __builtin_sinhf(__x); }
 469:c:\program files (x86)\gnu tools arm embedded\6 2017-q2-update\arm-none-eabi\include\c++\6.3.1\cmath **** 
 470:c:\program files (x86)\gnu tools arm embedded\6 2017-q2-update\arm-none-eabi\include\c++\6.3.1\cmath ****   inline _GLIBCXX_CONSTEXPR long double
 471:c:\program files (x86)\gnu tools arm embedded\6 2017-q2-update\arm-none-eabi\include\c++\6.3.1\cmath ****   sinh(long double __x)
 472:c:\program files (x86)\gnu tools arm embedded\6 2017-q2-update\arm-none-eabi\include\c++\6.3.1\cmath ****   { return __builtin_sinhl(__x); }
 473:c:\program files (x86)\gnu tools arm embedded\6 2017-q2-update\arm-none-eabi\include\c++\6.3.1\cmath **** #endif
 474:c:\program files (x86)\gnu tools arm embedded\6 2017-q2-update\arm-none-eabi\include\c++\6.3.1\cmath **** 
 475:c:\program files (x86)\gnu tools arm embedded\6 2017-q2-update\arm-none-eabi\include\c++\6.3.1\cmath ****   template<typename _Tp>
 476:c:\program files (x86)\gnu tools arm embedded\6 2017-q2-update\arm-none-eabi\include\c++\6.3.1\cmath ****     inline _GLIBCXX_CONSTEXPR
 477:c:\program files (x86)\gnu tools arm embedded\6 2017-q2-update\arm-none-eabi\include\c++\6.3.1\cmath ****     typename __gnu_cxx::__enable_if<__is_integer<_Tp>::__value, 
 478:c:\program files (x86)\gnu tools arm embedded\6 2017-q2-update\arm-none-eabi\include\c++\6.3.1\cmath ****                                     double>::__type
 479:c:\program files (x86)\gnu tools arm embedded\6 2017-q2-update\arm-none-eabi\include\c++\6.3.1\cmath ****     sinh(_Tp __x)
 480:c:\program files (x86)\gnu tools arm embedded\6 2017-q2-update\arm-none-eabi\include\c++\6.3.1\cmath ****     { return __builtin_sinh(__x); }
 481:c:\program files (x86)\gnu tools arm embedded\6 2017-q2-update\arm-none-eabi\include\c++\6.3.1\cmath **** 
 482:c:\program files (x86)\gnu tools arm embedded\6 2017-q2-update\arm-none-eabi\include\c++\6.3.1\cmath ****   using ::sqrt;
 483:c:\program files (x86)\gnu tools arm embedded\6 2017-q2-update\arm-none-eabi\include\c++\6.3.1\cmath **** 
 484:c:\program files (x86)\gnu tools arm embedded\6 2017-q2-update\arm-none-eabi\include\c++\6.3.1\cmath **** #ifndef __CORRECT_ISO_CPP_MATH_H_PROTO
 485:c:\program files (x86)\gnu tools arm embedded\6 2017-q2-update\arm-none-eabi\include\c++\6.3.1\cmath ****   inline _GLIBCXX_CONSTEXPR float
 486:c:\program files (x86)\gnu tools arm embedded\6 2017-q2-update\arm-none-eabi\include\c++\6.3.1\cmath ****   sqrt(float __x)
 487:c:\program files (x86)\gnu tools arm embedded\6 2017-q2-update\arm-none-eabi\include\c++\6.3.1\cmath ****   { return __builtin_sqrtf(__x); }
 488:c:\program files (x86)\gnu tools arm embedded\6 2017-q2-update\arm-none-eabi\include\c++\6.3.1\cmath **** 
 489:c:\program files (x86)\gnu tools arm embedded\6 2017-q2-update\arm-none-eabi\include\c++\6.3.1\cmath ****   inline _GLIBCXX_CONSTEXPR long double
 490:c:\program files (x86)\gnu tools arm embedded\6 2017-q2-update\arm-none-eabi\include\c++\6.3.1\cmath ****   sqrt(long double __x)
 491:c:\program files (x86)\gnu tools arm embedded\6 2017-q2-update\arm-none-eabi\include\c++\6.3.1\cmath ****   { return __builtin_sqrtl(__x); }
 492:c:\program files (x86)\gnu tools arm embedded\6 2017-q2-update\arm-none-eabi\include\c++\6.3.1\cmath **** #endif
 493:c:\program files (x86)\gnu tools arm embedded\6 2017-q2-update\arm-none-eabi\include\c++\6.3.1\cmath **** 
 494:c:\program files (x86)\gnu tools arm embedded\6 2017-q2-update\arm-none-eabi\include\c++\6.3.1\cmath ****   template<typename _Tp>
 495:c:\program files (x86)\gnu tools arm embedded\6 2017-q2-update\arm-none-eabi\include\c++\6.3.1\cmath ****     inline _GLIBCXX_CONSTEXPR
 496:c:\program files (x86)\gnu tools arm embedded\6 2017-q2-update\arm-none-eabi\include\c++\6.3.1\cmath ****     typename __gnu_cxx::__enable_if<__is_integer<_Tp>::__value, 
 497:c:\program files (x86)\gnu tools arm embedded\6 2017-q2-update\arm-none-eabi\include\c++\6.3.1\cmath ****                                     double>::__type
 498:c:\program files (x86)\gnu tools arm embedded\6 2017-q2-update\arm-none-eabi\include\c++\6.3.1\cmath ****     sqrt(_Tp __x)
 499:c:\program files (x86)\gnu tools arm embedded\6 2017-q2-update\arm-none-eabi\include\c++\6.3.1\cmath ****     { return __builtin_sqrt(__x); }
 500:c:\program files (x86)\gnu tools arm embedded\6 2017-q2-update\arm-none-eabi\include\c++\6.3.1\cmath **** 
 501:c:\program files (x86)\gnu tools arm embedded\6 2017-q2-update\arm-none-eabi\include\c++\6.3.1\cmath ****   using ::tan;
 502:c:\program files (x86)\gnu tools arm embedded\6 2017-q2-update\arm-none-eabi\include\c++\6.3.1\cmath **** 
 503:c:\program files (x86)\gnu tools arm embedded\6 2017-q2-update\arm-none-eabi\include\c++\6.3.1\cmath **** #ifndef __CORRECT_ISO_CPP_MATH_H_PROTO
 504:c:\program files (x86)\gnu tools arm embedded\6 2017-q2-update\arm-none-eabi\include\c++\6.3.1\cmath ****   inline _GLIBCXX_CONSTEXPR float
 505:c:\program files (x86)\gnu tools arm embedded\6 2017-q2-update\arm-none-eabi\include\c++\6.3.1\cmath ****   tan(float __x)
 506:c:\program files (x86)\gnu tools arm embedded\6 2017-q2-update\arm-none-eabi\include\c++\6.3.1\cmath ****   { return __builtin_tanf(__x); }
 507:c:\program files (x86)\gnu tools arm embedded\6 2017-q2-update\arm-none-eabi\include\c++\6.3.1\cmath **** 
 508:c:\program files (x86)\gnu tools arm embedded\6 2017-q2-update\arm-none-eabi\include\c++\6.3.1\cmath ****   inline _GLIBCXX_CONSTEXPR long double
 509:c:\program files (x86)\gnu tools arm embedded\6 2017-q2-update\arm-none-eabi\include\c++\6.3.1\cmath ****   tan(long double __x)
 510:c:\program files (x86)\gnu tools arm embedded\6 2017-q2-update\arm-none-eabi\include\c++\6.3.1\cmath ****   { return __builtin_tanl(__x); }
 511:c:\program files (x86)\gnu tools arm embedded\6 2017-q2-update\arm-none-eabi\include\c++\6.3.1\cmath **** #endif
 512:c:\program files (x86)\gnu tools arm embedded\6 2017-q2-update\arm-none-eabi\include\c++\6.3.1\cmath **** 
 513:c:\program files (x86)\gnu tools arm embedded\6 2017-q2-update\arm-none-eabi\include\c++\6.3.1\cmath ****   template<typename _Tp>
 514:c:\program files (x86)\gnu tools arm embedded\6 2017-q2-update\arm-none-eabi\include\c++\6.3.1\cmath ****     inline _GLIBCXX_CONSTEXPR
 515:c:\program files (x86)\gnu tools arm embedded\6 2017-q2-update\arm-none-eabi\include\c++\6.3.1\cmath ****     typename __gnu_cxx::__enable_if<__is_integer<_Tp>::__value, 
 516:c:\program files (x86)\gnu tools arm embedded\6 2017-q2-update\arm-none-eabi\include\c++\6.3.1\cmath ****                                     double>::__type
 517:c:\program files (x86)\gnu tools arm embedded\6 2017-q2-update\arm-none-eabi\include\c++\6.3.1\cmath ****     tan(_Tp __x)
 518:c:\program files (x86)\gnu tools arm embedded\6 2017-q2-update\arm-none-eabi\include\c++\6.3.1\cmath ****     { return __builtin_tan(__x); }
 519:c:\program files (x86)\gnu tools arm embedded\6 2017-q2-update\arm-none-eabi\include\c++\6.3.1\cmath **** 
 520:c:\program files (x86)\gnu tools arm embedded\6 2017-q2-update\arm-none-eabi\include\c++\6.3.1\cmath ****   using ::tanh;
 521:c:\program files (x86)\gnu tools arm embedded\6 2017-q2-update\arm-none-eabi\include\c++\6.3.1\cmath **** 
 522:c:\program files (x86)\gnu tools arm embedded\6 2017-q2-update\arm-none-eabi\include\c++\6.3.1\cmath **** #ifndef __CORRECT_ISO_CPP_MATH_H_PROTO
 523:c:\program files (x86)\gnu tools arm embedded\6 2017-q2-update\arm-none-eabi\include\c++\6.3.1\cmath ****   inline _GLIBCXX_CONSTEXPR float
 524:c:\program files (x86)\gnu tools arm embedded\6 2017-q2-update\arm-none-eabi\include\c++\6.3.1\cmath ****   tanh(float __x)
 525:c:\program files (x86)\gnu tools arm embedded\6 2017-q2-update\arm-none-eabi\include\c++\6.3.1\cmath ****   { return __builtin_tanhf(__x); }
 526:c:\program files (x86)\gnu tools arm embedded\6 2017-q2-update\arm-none-eabi\include\c++\6.3.1\cmath **** 
 527:c:\program files (x86)\gnu tools arm embedded\6 2017-q2-update\arm-none-eabi\include\c++\6.3.1\cmath ****   inline _GLIBCXX_CONSTEXPR long double
 528:c:\program files (x86)\gnu tools arm embedded\6 2017-q2-update\arm-none-eabi\include\c++\6.3.1\cmath ****   tanh(long double __x)
 529:c:\program files (x86)\gnu tools arm embedded\6 2017-q2-update\arm-none-eabi\include\c++\6.3.1\cmath ****   { return __builtin_tanhl(__x); }
 530:c:\program files (x86)\gnu tools arm embedded\6 2017-q2-update\arm-none-eabi\include\c++\6.3.1\cmath **** #endif
 531:c:\program files (x86)\gnu tools arm embedded\6 2017-q2-update\arm-none-eabi\include\c++\6.3.1\cmath **** 
 532:c:\program files (x86)\gnu tools arm embedded\6 2017-q2-update\arm-none-eabi\include\c++\6.3.1\cmath ****   template<typename _Tp>
 533:c:\program files (x86)\gnu tools arm embedded\6 2017-q2-update\arm-none-eabi\include\c++\6.3.1\cmath ****     inline _GLIBCXX_CONSTEXPR
 534:c:\program files (x86)\gnu tools arm embedded\6 2017-q2-update\arm-none-eabi\include\c++\6.3.1\cmath ****     typename __gnu_cxx::__enable_if<__is_integer<_Tp>::__value, 
 535:c:\program files (x86)\gnu tools arm embedded\6 2017-q2-update\arm-none-eabi\include\c++\6.3.1\cmath ****                                     double>::__type
 536:c:\program files (x86)\gnu tools arm embedded\6 2017-q2-update\arm-none-eabi\include\c++\6.3.1\cmath ****     tanh(_Tp __x)
 537:c:\program files (x86)\gnu tools arm embedded\6 2017-q2-update\arm-none-eabi\include\c++\6.3.1\cmath ****     { return __builtin_tanh(__x); }
 538:c:\program files (x86)\gnu tools arm embedded\6 2017-q2-update\arm-none-eabi\include\c++\6.3.1\cmath **** 
 539:c:\program files (x86)\gnu tools arm embedded\6 2017-q2-update\arm-none-eabi\include\c++\6.3.1\cmath **** _GLIBCXX_END_NAMESPACE_VERSION
 540:c:\program files (x86)\gnu tools arm embedded\6 2017-q2-update\arm-none-eabi\include\c++\6.3.1\cmath **** } // namespace
 541:c:\program files (x86)\gnu tools arm embedded\6 2017-q2-update\arm-none-eabi\include\c++\6.3.1\cmath **** 
 542:c:\program files (x86)\gnu tools arm embedded\6 2017-q2-update\arm-none-eabi\include\c++\6.3.1\cmath **** #if _GLIBCXX_USE_C99_MATH
 543:c:\program files (x86)\gnu tools arm embedded\6 2017-q2-update\arm-none-eabi\include\c++\6.3.1\cmath **** #if !_GLIBCXX_USE_C99_FP_MACROS_DYNAMIC
 544:c:\program files (x86)\gnu tools arm embedded\6 2017-q2-update\arm-none-eabi\include\c++\6.3.1\cmath **** 
 545:c:\program files (x86)\gnu tools arm embedded\6 2017-q2-update\arm-none-eabi\include\c++\6.3.1\cmath **** // These are possible macros imported from C99-land.
 546:c:\program files (x86)\gnu tools arm embedded\6 2017-q2-update\arm-none-eabi\include\c++\6.3.1\cmath **** #undef fpclassify
 547:c:\program files (x86)\gnu tools arm embedded\6 2017-q2-update\arm-none-eabi\include\c++\6.3.1\cmath **** #undef isfinite
 548:c:\program files (x86)\gnu tools arm embedded\6 2017-q2-update\arm-none-eabi\include\c++\6.3.1\cmath **** #undef isinf
 549:c:\program files (x86)\gnu tools arm embedded\6 2017-q2-update\arm-none-eabi\include\c++\6.3.1\cmath **** #undef isnan
 550:c:\program files (x86)\gnu tools arm embedded\6 2017-q2-update\arm-none-eabi\include\c++\6.3.1\cmath **** #undef isnormal
 551:c:\program files (x86)\gnu tools arm embedded\6 2017-q2-update\arm-none-eabi\include\c++\6.3.1\cmath **** #undef signbit
 552:c:\program files (x86)\gnu tools arm embedded\6 2017-q2-update\arm-none-eabi\include\c++\6.3.1\cmath **** #undef isgreater
 553:c:\program files (x86)\gnu tools arm embedded\6 2017-q2-update\arm-none-eabi\include\c++\6.3.1\cmath **** #undef isgreaterequal
 554:c:\program files (x86)\gnu tools arm embedded\6 2017-q2-update\arm-none-eabi\include\c++\6.3.1\cmath **** #undef isless
 555:c:\program files (x86)\gnu tools arm embedded\6 2017-q2-update\arm-none-eabi\include\c++\6.3.1\cmath **** #undef islessequal
 556:c:\program files (x86)\gnu tools arm embedded\6 2017-q2-update\arm-none-eabi\include\c++\6.3.1\cmath **** #undef islessgreater
 557:c:\program files (x86)\gnu tools arm embedded\6 2017-q2-update\arm-none-eabi\include\c++\6.3.1\cmath **** #undef isunordered
 558:c:\program files (x86)\gnu tools arm embedded\6 2017-q2-update\arm-none-eabi\include\c++\6.3.1\cmath **** 
 559:c:\program files (x86)\gnu tools arm embedded\6 2017-q2-update\arm-none-eabi\include\c++\6.3.1\cmath **** namespace std _GLIBCXX_VISIBILITY(default)
 560:c:\program files (x86)\gnu tools arm embedded\6 2017-q2-update\arm-none-eabi\include\c++\6.3.1\cmath **** {
 561:c:\program files (x86)\gnu tools arm embedded\6 2017-q2-update\arm-none-eabi\include\c++\6.3.1\cmath **** _GLIBCXX_BEGIN_NAMESPACE_VERSION
 562:c:\program files (x86)\gnu tools arm embedded\6 2017-q2-update\arm-none-eabi\include\c++\6.3.1\cmath **** 
 563:c:\program files (x86)\gnu tools arm embedded\6 2017-q2-update\arm-none-eabi\include\c++\6.3.1\cmath **** #if __cplusplus >= 201103L
 564:c:\program files (x86)\gnu tools arm embedded\6 2017-q2-update\arm-none-eabi\include\c++\6.3.1\cmath **** 
 565:c:\program files (x86)\gnu tools arm embedded\6 2017-q2-update\arm-none-eabi\include\c++\6.3.1\cmath **** #ifndef __CORRECT_ISO_CPP11_MATH_H_PROTO_FP
 566:c:\program files (x86)\gnu tools arm embedded\6 2017-q2-update\arm-none-eabi\include\c++\6.3.1\cmath ****   constexpr int
 567:c:\program files (x86)\gnu tools arm embedded\6 2017-q2-update\arm-none-eabi\include\c++\6.3.1\cmath ****   fpclassify(float __x)
 568:c:\program files (x86)\gnu tools arm embedded\6 2017-q2-update\arm-none-eabi\include\c++\6.3.1\cmath ****   { return __builtin_fpclassify(FP_NAN, FP_INFINITE, FP_NORMAL,
 569:c:\program files (x86)\gnu tools arm embedded\6 2017-q2-update\arm-none-eabi\include\c++\6.3.1\cmath **** 				FP_SUBNORMAL, FP_ZERO, __x); }
 570:c:\program files (x86)\gnu tools arm embedded\6 2017-q2-update\arm-none-eabi\include\c++\6.3.1\cmath **** 
 571:c:\program files (x86)\gnu tools arm embedded\6 2017-q2-update\arm-none-eabi\include\c++\6.3.1\cmath ****   constexpr int
 572:c:\program files (x86)\gnu tools arm embedded\6 2017-q2-update\arm-none-eabi\include\c++\6.3.1\cmath ****   fpclassify(double __x)
 573:c:\program files (x86)\gnu tools arm embedded\6 2017-q2-update\arm-none-eabi\include\c++\6.3.1\cmath ****   { return __builtin_fpclassify(FP_NAN, FP_INFINITE, FP_NORMAL,
 574:c:\program files (x86)\gnu tools arm embedded\6 2017-q2-update\arm-none-eabi\include\c++\6.3.1\cmath **** 				FP_SUBNORMAL, FP_ZERO, __x); }
 575:c:\program files (x86)\gnu tools arm embedded\6 2017-q2-update\arm-none-eabi\include\c++\6.3.1\cmath **** 
 576:c:\program files (x86)\gnu tools arm embedded\6 2017-q2-update\arm-none-eabi\include\c++\6.3.1\cmath ****   constexpr int
 577:c:\program files (x86)\gnu tools arm embedded\6 2017-q2-update\arm-none-eabi\include\c++\6.3.1\cmath ****   fpclassify(long double __x)
 578:c:\program files (x86)\gnu tools arm embedded\6 2017-q2-update\arm-none-eabi\include\c++\6.3.1\cmath ****   { return __builtin_fpclassify(FP_NAN, FP_INFINITE, FP_NORMAL,
 579:c:\program files (x86)\gnu tools arm embedded\6 2017-q2-update\arm-none-eabi\include\c++\6.3.1\cmath **** 				FP_SUBNORMAL, FP_ZERO, __x); }
 580:c:\program files (x86)\gnu tools arm embedded\6 2017-q2-update\arm-none-eabi\include\c++\6.3.1\cmath **** #endif
 581:c:\program files (x86)\gnu tools arm embedded\6 2017-q2-update\arm-none-eabi\include\c++\6.3.1\cmath **** 
 582:c:\program files (x86)\gnu tools arm embedded\6 2017-q2-update\arm-none-eabi\include\c++\6.3.1\cmath **** #ifndef __CORRECT_ISO_CPP11_MATH_H_PROTO_INT
 583:c:\program files (x86)\gnu tools arm embedded\6 2017-q2-update\arm-none-eabi\include\c++\6.3.1\cmath ****   template<typename _Tp>
 584:c:\program files (x86)\gnu tools arm embedded\6 2017-q2-update\arm-none-eabi\include\c++\6.3.1\cmath ****     constexpr typename __gnu_cxx::__enable_if<__is_integer<_Tp>::__value,
 585:c:\program files (x86)\gnu tools arm embedded\6 2017-q2-update\arm-none-eabi\include\c++\6.3.1\cmath ****                                               int>::__type
 586:c:\program files (x86)\gnu tools arm embedded\6 2017-q2-update\arm-none-eabi\include\c++\6.3.1\cmath ****     fpclassify(_Tp __x)
 587:c:\program files (x86)\gnu tools arm embedded\6 2017-q2-update\arm-none-eabi\include\c++\6.3.1\cmath ****     { return __x != 0 ? FP_NORMAL : FP_ZERO; }
 588:c:\program files (x86)\gnu tools arm embedded\6 2017-q2-update\arm-none-eabi\include\c++\6.3.1\cmath **** #endif
 589:c:\program files (x86)\gnu tools arm embedded\6 2017-q2-update\arm-none-eabi\include\c++\6.3.1\cmath **** 
 590:c:\program files (x86)\gnu tools arm embedded\6 2017-q2-update\arm-none-eabi\include\c++\6.3.1\cmath **** #ifndef __CORRECT_ISO_CPP11_MATH_H_PROTO_FP
 591:c:\program files (x86)\gnu tools arm embedded\6 2017-q2-update\arm-none-eabi\include\c++\6.3.1\cmath ****   constexpr bool
 592:c:\program files (x86)\gnu tools arm embedded\6 2017-q2-update\arm-none-eabi\include\c++\6.3.1\cmath ****   isfinite(float __x)
 593:c:\program files (x86)\gnu tools arm embedded\6 2017-q2-update\arm-none-eabi\include\c++\6.3.1\cmath ****   { return __builtin_isfinite(__x); }
 594:c:\program files (x86)\gnu tools arm embedded\6 2017-q2-update\arm-none-eabi\include\c++\6.3.1\cmath **** 
 595:c:\program files (x86)\gnu tools arm embedded\6 2017-q2-update\arm-none-eabi\include\c++\6.3.1\cmath ****   constexpr bool
 596:c:\program files (x86)\gnu tools arm embedded\6 2017-q2-update\arm-none-eabi\include\c++\6.3.1\cmath ****   isfinite(double __x)
 597:c:\program files (x86)\gnu tools arm embedded\6 2017-q2-update\arm-none-eabi\include\c++\6.3.1\cmath ****   { return __builtin_isfinite(__x); }
 598:c:\program files (x86)\gnu tools arm embedded\6 2017-q2-update\arm-none-eabi\include\c++\6.3.1\cmath **** 
 599:c:\program files (x86)\gnu tools arm embedded\6 2017-q2-update\arm-none-eabi\include\c++\6.3.1\cmath ****   constexpr bool
 600:c:\program files (x86)\gnu tools arm embedded\6 2017-q2-update\arm-none-eabi\include\c++\6.3.1\cmath ****   isfinite(long double __x)
 601:c:\program files (x86)\gnu tools arm embedded\6 2017-q2-update\arm-none-eabi\include\c++\6.3.1\cmath ****   { return __builtin_isfinite(__x); }
 602:c:\program files (x86)\gnu tools arm embedded\6 2017-q2-update\arm-none-eabi\include\c++\6.3.1\cmath **** #endif
 603:c:\program files (x86)\gnu tools arm embedded\6 2017-q2-update\arm-none-eabi\include\c++\6.3.1\cmath **** 
 604:c:\program files (x86)\gnu tools arm embedded\6 2017-q2-update\arm-none-eabi\include\c++\6.3.1\cmath **** #ifndef __CORRECT_ISO_CPP11_MATH_H_PROTO_INT
 605:c:\program files (x86)\gnu tools arm embedded\6 2017-q2-update\arm-none-eabi\include\c++\6.3.1\cmath ****   template<typename _Tp>
 606:c:\program files (x86)\gnu tools arm embedded\6 2017-q2-update\arm-none-eabi\include\c++\6.3.1\cmath ****     constexpr typename __gnu_cxx::__enable_if<__is_integer<_Tp>::__value,
 607:c:\program files (x86)\gnu tools arm embedded\6 2017-q2-update\arm-none-eabi\include\c++\6.3.1\cmath ****                                               bool>::__type
 608:c:\program files (x86)\gnu tools arm embedded\6 2017-q2-update\arm-none-eabi\include\c++\6.3.1\cmath ****     isfinite(_Tp __x)
 609:c:\program files (x86)\gnu tools arm embedded\6 2017-q2-update\arm-none-eabi\include\c++\6.3.1\cmath ****     { return true; }
 610:c:\program files (x86)\gnu tools arm embedded\6 2017-q2-update\arm-none-eabi\include\c++\6.3.1\cmath **** #endif
 611:c:\program files (x86)\gnu tools arm embedded\6 2017-q2-update\arm-none-eabi\include\c++\6.3.1\cmath **** 
 612:c:\program files (x86)\gnu tools arm embedded\6 2017-q2-update\arm-none-eabi\include\c++\6.3.1\cmath **** #ifndef __CORRECT_ISO_CPP11_MATH_H_PROTO_FP
 613:c:\program files (x86)\gnu tools arm embedded\6 2017-q2-update\arm-none-eabi\include\c++\6.3.1\cmath ****   constexpr bool
 614:c:\program files (x86)\gnu tools arm embedded\6 2017-q2-update\arm-none-eabi\include\c++\6.3.1\cmath ****   isinf(float __x)
 615:c:\program files (x86)\gnu tools arm embedded\6 2017-q2-update\arm-none-eabi\include\c++\6.3.1\cmath ****   { return __builtin_isinf(__x); }
 616:c:\program files (x86)\gnu tools arm embedded\6 2017-q2-update\arm-none-eabi\include\c++\6.3.1\cmath **** 
 617:c:\program files (x86)\gnu tools arm embedded\6 2017-q2-update\arm-none-eabi\include\c++\6.3.1\cmath **** #if _GLIBCXX_HAVE_OBSOLETE_ISINF \
 618:c:\program files (x86)\gnu tools arm embedded\6 2017-q2-update\arm-none-eabi\include\c++\6.3.1\cmath ****   && !_GLIBCXX_NO_OBSOLETE_ISINF_ISNAN_DYNAMIC
 619:c:\program files (x86)\gnu tools arm embedded\6 2017-q2-update\arm-none-eabi\include\c++\6.3.1\cmath ****   using ::isinf;
 620:c:\program files (x86)\gnu tools arm embedded\6 2017-q2-update\arm-none-eabi\include\c++\6.3.1\cmath **** #else
 621:c:\program files (x86)\gnu tools arm embedded\6 2017-q2-update\arm-none-eabi\include\c++\6.3.1\cmath ****   constexpr bool
 622:c:\program files (x86)\gnu tools arm embedded\6 2017-q2-update\arm-none-eabi\include\c++\6.3.1\cmath ****   isinf(double __x)
 623:c:\program files (x86)\gnu tools arm embedded\6 2017-q2-update\arm-none-eabi\include\c++\6.3.1\cmath ****   { return __builtin_isinf(__x); }
 624:c:\program files (x86)\gnu tools arm embedded\6 2017-q2-update\arm-none-eabi\include\c++\6.3.1\cmath **** #endif
 625:c:\program files (x86)\gnu tools arm embedded\6 2017-q2-update\arm-none-eabi\include\c++\6.3.1\cmath **** 
 626:c:\program files (x86)\gnu tools arm embedded\6 2017-q2-update\arm-none-eabi\include\c++\6.3.1\cmath ****   constexpr bool
 627:c:\program files (x86)\gnu tools arm embedded\6 2017-q2-update\arm-none-eabi\include\c++\6.3.1\cmath ****   isinf(long double __x)
 628:c:\program files (x86)\gnu tools arm embedded\6 2017-q2-update\arm-none-eabi\include\c++\6.3.1\cmath ****   { return __builtin_isinf(__x); }
 629:c:\program files (x86)\gnu tools arm embedded\6 2017-q2-update\arm-none-eabi\include\c++\6.3.1\cmath **** #endif
 630:c:\program files (x86)\gnu tools arm embedded\6 2017-q2-update\arm-none-eabi\include\c++\6.3.1\cmath **** 
 631:c:\program files (x86)\gnu tools arm embedded\6 2017-q2-update\arm-none-eabi\include\c++\6.3.1\cmath **** #ifndef __CORRECT_ISO_CPP11_MATH_H_PROTO_INT
 632:c:\program files (x86)\gnu tools arm embedded\6 2017-q2-update\arm-none-eabi\include\c++\6.3.1\cmath ****   template<typename _Tp>
 633:c:\program files (x86)\gnu tools arm embedded\6 2017-q2-update\arm-none-eabi\include\c++\6.3.1\cmath ****     constexpr typename __gnu_cxx::__enable_if<__is_integer<_Tp>::__value,
 634:c:\program files (x86)\gnu tools arm embedded\6 2017-q2-update\arm-none-eabi\include\c++\6.3.1\cmath ****                                               bool>::__type
 635:c:\program files (x86)\gnu tools arm embedded\6 2017-q2-update\arm-none-eabi\include\c++\6.3.1\cmath ****     isinf(_Tp __x)
 636:c:\program files (x86)\gnu tools arm embedded\6 2017-q2-update\arm-none-eabi\include\c++\6.3.1\cmath ****     { return false; }
 637:c:\program files (x86)\gnu tools arm embedded\6 2017-q2-update\arm-none-eabi\include\c++\6.3.1\cmath **** #endif
 638:c:\program files (x86)\gnu tools arm embedded\6 2017-q2-update\arm-none-eabi\include\c++\6.3.1\cmath **** 
 639:c:\program files (x86)\gnu tools arm embedded\6 2017-q2-update\arm-none-eabi\include\c++\6.3.1\cmath **** #ifndef __CORRECT_ISO_CPP11_MATH_H_PROTO_FP
 640:c:\program files (x86)\gnu tools arm embedded\6 2017-q2-update\arm-none-eabi\include\c++\6.3.1\cmath ****   constexpr bool
 641:c:\program files (x86)\gnu tools arm embedded\6 2017-q2-update\arm-none-eabi\include\c++\6.3.1\cmath ****   isnan(float __x)
 642:c:\program files (x86)\gnu tools arm embedded\6 2017-q2-update\arm-none-eabi\include\c++\6.3.1\cmath ****   { return __builtin_isnan(__x); }
 643:c:\program files (x86)\gnu tools arm embedded\6 2017-q2-update\arm-none-eabi\include\c++\6.3.1\cmath **** 
 644:c:\program files (x86)\gnu tools arm embedded\6 2017-q2-update\arm-none-eabi\include\c++\6.3.1\cmath **** #if _GLIBCXX_HAVE_OBSOLETE_ISNAN \
 645:c:\program files (x86)\gnu tools arm embedded\6 2017-q2-update\arm-none-eabi\include\c++\6.3.1\cmath ****   && !_GLIBCXX_NO_OBSOLETE_ISINF_ISNAN_DYNAMIC
 646:c:\program files (x86)\gnu tools arm embedded\6 2017-q2-update\arm-none-eabi\include\c++\6.3.1\cmath ****   using ::isnan;
 647:c:\program files (x86)\gnu tools arm embedded\6 2017-q2-update\arm-none-eabi\include\c++\6.3.1\cmath **** #else
 648:c:\program files (x86)\gnu tools arm embedded\6 2017-q2-update\arm-none-eabi\include\c++\6.3.1\cmath ****   constexpr bool
 649:c:\program files (x86)\gnu tools arm embedded\6 2017-q2-update\arm-none-eabi\include\c++\6.3.1\cmath ****   isnan(double __x)
 650:c:\program files (x86)\gnu tools arm embedded\6 2017-q2-update\arm-none-eabi\include\c++\6.3.1\cmath ****   { return __builtin_isnan(__x); }
 651:c:\program files (x86)\gnu tools arm embedded\6 2017-q2-update\arm-none-eabi\include\c++\6.3.1\cmath **** #endif
 652:c:\program files (x86)\gnu tools arm embedded\6 2017-q2-update\arm-none-eabi\include\c++\6.3.1\cmath **** 
 653:c:\program files (x86)\gnu tools arm embedded\6 2017-q2-update\arm-none-eabi\include\c++\6.3.1\cmath ****   constexpr bool
 654:c:\program files (x86)\gnu tools arm embedded\6 2017-q2-update\arm-none-eabi\include\c++\6.3.1\cmath ****   isnan(long double __x)
 655:c:\program files (x86)\gnu tools arm embedded\6 2017-q2-update\arm-none-eabi\include\c++\6.3.1\cmath ****   { return __builtin_isnan(__x); }
 656:c:\program files (x86)\gnu tools arm embedded\6 2017-q2-update\arm-none-eabi\include\c++\6.3.1\cmath **** #endif
 657:c:\program files (x86)\gnu tools arm embedded\6 2017-q2-update\arm-none-eabi\include\c++\6.3.1\cmath **** 
 658:c:\program files (x86)\gnu tools arm embedded\6 2017-q2-update\arm-none-eabi\include\c++\6.3.1\cmath **** #ifndef __CORRECT_ISO_CPP11_MATH_H_PROTO_INT
 659:c:\program files (x86)\gnu tools arm embedded\6 2017-q2-update\arm-none-eabi\include\c++\6.3.1\cmath ****   template<typename _Tp>
 660:c:\program files (x86)\gnu tools arm embedded\6 2017-q2-update\arm-none-eabi\include\c++\6.3.1\cmath ****     constexpr typename __gnu_cxx::__enable_if<__is_integer<_Tp>::__value,
 661:c:\program files (x86)\gnu tools arm embedded\6 2017-q2-update\arm-none-eabi\include\c++\6.3.1\cmath ****                                               bool>::__type
 662:c:\program files (x86)\gnu tools arm embedded\6 2017-q2-update\arm-none-eabi\include\c++\6.3.1\cmath ****     isnan(_Tp __x)
 663:c:\program files (x86)\gnu tools arm embedded\6 2017-q2-update\arm-none-eabi\include\c++\6.3.1\cmath ****     { return false; }
 664:c:\program files (x86)\gnu tools arm embedded\6 2017-q2-update\arm-none-eabi\include\c++\6.3.1\cmath **** #endif
 665:c:\program files (x86)\gnu tools arm embedded\6 2017-q2-update\arm-none-eabi\include\c++\6.3.1\cmath **** 
 666:c:\program files (x86)\gnu tools arm embedded\6 2017-q2-update\arm-none-eabi\include\c++\6.3.1\cmath **** #ifndef __CORRECT_ISO_CPP11_MATH_H_PROTO_FP
 667:c:\program files (x86)\gnu tools arm embedded\6 2017-q2-update\arm-none-eabi\include\c++\6.3.1\cmath ****   constexpr bool
 668:c:\program files (x86)\gnu tools arm embedded\6 2017-q2-update\arm-none-eabi\include\c++\6.3.1\cmath ****   isnormal(float __x)
 669:c:\program files (x86)\gnu tools arm embedded\6 2017-q2-update\arm-none-eabi\include\c++\6.3.1\cmath ****   { return __builtin_isnormal(__x); }
 670:c:\program files (x86)\gnu tools arm embedded\6 2017-q2-update\arm-none-eabi\include\c++\6.3.1\cmath **** 
 671:c:\program files (x86)\gnu tools arm embedded\6 2017-q2-update\arm-none-eabi\include\c++\6.3.1\cmath ****   constexpr bool
 672:c:\program files (x86)\gnu tools arm embedded\6 2017-q2-update\arm-none-eabi\include\c++\6.3.1\cmath ****   isnormal(double __x)
 673:c:\program files (x86)\gnu tools arm embedded\6 2017-q2-update\arm-none-eabi\include\c++\6.3.1\cmath ****   { return __builtin_isnormal(__x); }
 674:c:\program files (x86)\gnu tools arm embedded\6 2017-q2-update\arm-none-eabi\include\c++\6.3.1\cmath **** 
 675:c:\program files (x86)\gnu tools arm embedded\6 2017-q2-update\arm-none-eabi\include\c++\6.3.1\cmath ****   constexpr bool
 676:c:\program files (x86)\gnu tools arm embedded\6 2017-q2-update\arm-none-eabi\include\c++\6.3.1\cmath ****   isnormal(long double __x)
 677:c:\program files (x86)\gnu tools arm embedded\6 2017-q2-update\arm-none-eabi\include\c++\6.3.1\cmath ****   { return __builtin_isnormal(__x); }
 678:c:\program files (x86)\gnu tools arm embedded\6 2017-q2-update\arm-none-eabi\include\c++\6.3.1\cmath **** #endif
 679:c:\program files (x86)\gnu tools arm embedded\6 2017-q2-update\arm-none-eabi\include\c++\6.3.1\cmath **** 
 680:c:\program files (x86)\gnu tools arm embedded\6 2017-q2-update\arm-none-eabi\include\c++\6.3.1\cmath **** #ifndef __CORRECT_ISO_CPP11_MATH_H_PROTO_INT
 681:c:\program files (x86)\gnu tools arm embedded\6 2017-q2-update\arm-none-eabi\include\c++\6.3.1\cmath ****   template<typename _Tp>
 682:c:\program files (x86)\gnu tools arm embedded\6 2017-q2-update\arm-none-eabi\include\c++\6.3.1\cmath ****     constexpr typename __gnu_cxx::__enable_if<__is_integer<_Tp>::__value,
 683:c:\program files (x86)\gnu tools arm embedded\6 2017-q2-update\arm-none-eabi\include\c++\6.3.1\cmath ****                                               bool>::__type
 684:c:\program files (x86)\gnu tools arm embedded\6 2017-q2-update\arm-none-eabi\include\c++\6.3.1\cmath ****     isnormal(_Tp __x)
 685:c:\program files (x86)\gnu tools arm embedded\6 2017-q2-update\arm-none-eabi\include\c++\6.3.1\cmath ****     { return __x != 0 ? true : false; }
 686:c:\program files (x86)\gnu tools arm embedded\6 2017-q2-update\arm-none-eabi\include\c++\6.3.1\cmath **** #endif
 687:c:\program files (x86)\gnu tools arm embedded\6 2017-q2-update\arm-none-eabi\include\c++\6.3.1\cmath **** 
 688:c:\program files (x86)\gnu tools arm embedded\6 2017-q2-update\arm-none-eabi\include\c++\6.3.1\cmath **** #ifndef __CORRECT_ISO_CPP11_MATH_H_PROTO_FP
 689:c:\program files (x86)\gnu tools arm embedded\6 2017-q2-update\arm-none-eabi\include\c++\6.3.1\cmath ****   // Note: middle-end/36757 is fixed, __builtin_signbit is type-generic.
 690:c:\program files (x86)\gnu tools arm embedded\6 2017-q2-update\arm-none-eabi\include\c++\6.3.1\cmath ****   constexpr bool
 691:c:\program files (x86)\gnu tools arm embedded\6 2017-q2-update\arm-none-eabi\include\c++\6.3.1\cmath ****   signbit(float __x)
 692:c:\program files (x86)\gnu tools arm embedded\6 2017-q2-update\arm-none-eabi\include\c++\6.3.1\cmath ****   { return __builtin_signbit(__x); }
 693:c:\program files (x86)\gnu tools arm embedded\6 2017-q2-update\arm-none-eabi\include\c++\6.3.1\cmath **** 
 694:c:\program files (x86)\gnu tools arm embedded\6 2017-q2-update\arm-none-eabi\include\c++\6.3.1\cmath ****   constexpr bool
 695:c:\program files (x86)\gnu tools arm embedded\6 2017-q2-update\arm-none-eabi\include\c++\6.3.1\cmath ****   signbit(double __x)
 696:c:\program files (x86)\gnu tools arm embedded\6 2017-q2-update\arm-none-eabi\include\c++\6.3.1\cmath ****   { return __builtin_signbit(__x); }
 697:c:\program files (x86)\gnu tools arm embedded\6 2017-q2-update\arm-none-eabi\include\c++\6.3.1\cmath **** 
 698:c:\program files (x86)\gnu tools arm embedded\6 2017-q2-update\arm-none-eabi\include\c++\6.3.1\cmath ****   constexpr bool
 699:c:\program files (x86)\gnu tools arm embedded\6 2017-q2-update\arm-none-eabi\include\c++\6.3.1\cmath ****   signbit(long double __x)
 700:c:\program files (x86)\gnu tools arm embedded\6 2017-q2-update\arm-none-eabi\include\c++\6.3.1\cmath ****   { return __builtin_signbit(__x); }
 701:c:\program files (x86)\gnu tools arm embedded\6 2017-q2-update\arm-none-eabi\include\c++\6.3.1\cmath **** #endif
 702:c:\program files (x86)\gnu tools arm embedded\6 2017-q2-update\arm-none-eabi\include\c++\6.3.1\cmath **** 
 703:c:\program files (x86)\gnu tools arm embedded\6 2017-q2-update\arm-none-eabi\include\c++\6.3.1\cmath **** #ifndef __CORRECT_ISO_CPP11_MATH_H_PROTO_INT
 704:c:\program files (x86)\gnu tools arm embedded\6 2017-q2-update\arm-none-eabi\include\c++\6.3.1\cmath ****   template<typename _Tp>
 705:c:\program files (x86)\gnu tools arm embedded\6 2017-q2-update\arm-none-eabi\include\c++\6.3.1\cmath ****     constexpr typename __gnu_cxx::__enable_if<__is_integer<_Tp>::__value,
 706:c:\program files (x86)\gnu tools arm embedded\6 2017-q2-update\arm-none-eabi\include\c++\6.3.1\cmath ****                                               bool>::__type
 707:c:\program files (x86)\gnu tools arm embedded\6 2017-q2-update\arm-none-eabi\include\c++\6.3.1\cmath ****     signbit(_Tp __x)
 708:c:\program files (x86)\gnu tools arm embedded\6 2017-q2-update\arm-none-eabi\include\c++\6.3.1\cmath ****     { return __x < 0 ? true : false; }
 709:c:\program files (x86)\gnu tools arm embedded\6 2017-q2-update\arm-none-eabi\include\c++\6.3.1\cmath **** #endif
 710:c:\program files (x86)\gnu tools arm embedded\6 2017-q2-update\arm-none-eabi\include\c++\6.3.1\cmath **** 
 711:c:\program files (x86)\gnu tools arm embedded\6 2017-q2-update\arm-none-eabi\include\c++\6.3.1\cmath **** #ifndef __CORRECT_ISO_CPP11_MATH_H_PROTO_FP
 712:c:\program files (x86)\gnu tools arm embedded\6 2017-q2-update\arm-none-eabi\include\c++\6.3.1\cmath ****   constexpr bool
 713:c:\program files (x86)\gnu tools arm embedded\6 2017-q2-update\arm-none-eabi\include\c++\6.3.1\cmath ****   isgreater(float __x, float __y)
 714:c:\program files (x86)\gnu tools arm embedded\6 2017-q2-update\arm-none-eabi\include\c++\6.3.1\cmath ****   { return __builtin_isgreater(__x, __y); }
 715:c:\program files (x86)\gnu tools arm embedded\6 2017-q2-update\arm-none-eabi\include\c++\6.3.1\cmath **** 
 716:c:\program files (x86)\gnu tools arm embedded\6 2017-q2-update\arm-none-eabi\include\c++\6.3.1\cmath ****   constexpr bool
 717:c:\program files (x86)\gnu tools arm embedded\6 2017-q2-update\arm-none-eabi\include\c++\6.3.1\cmath ****   isgreater(double __x, double __y)
 718:c:\program files (x86)\gnu tools arm embedded\6 2017-q2-update\arm-none-eabi\include\c++\6.3.1\cmath ****   { return __builtin_isgreater(__x, __y); }
 719:c:\program files (x86)\gnu tools arm embedded\6 2017-q2-update\arm-none-eabi\include\c++\6.3.1\cmath **** 
 720:c:\program files (x86)\gnu tools arm embedded\6 2017-q2-update\arm-none-eabi\include\c++\6.3.1\cmath ****   constexpr bool
 721:c:\program files (x86)\gnu tools arm embedded\6 2017-q2-update\arm-none-eabi\include\c++\6.3.1\cmath ****   isgreater(long double __x, long double __y)
 722:c:\program files (x86)\gnu tools arm embedded\6 2017-q2-update\arm-none-eabi\include\c++\6.3.1\cmath ****   { return __builtin_isgreater(__x, __y); }
 723:c:\program files (x86)\gnu tools arm embedded\6 2017-q2-update\arm-none-eabi\include\c++\6.3.1\cmath **** #endif
 724:c:\program files (x86)\gnu tools arm embedded\6 2017-q2-update\arm-none-eabi\include\c++\6.3.1\cmath **** 
 725:c:\program files (x86)\gnu tools arm embedded\6 2017-q2-update\arm-none-eabi\include\c++\6.3.1\cmath **** #ifndef __CORRECT_ISO_CPP11_MATH_H_PROTO_INT
 726:c:\program files (x86)\gnu tools arm embedded\6 2017-q2-update\arm-none-eabi\include\c++\6.3.1\cmath ****   template<typename _Tp, typename _Up>
 727:c:\program files (x86)\gnu tools arm embedded\6 2017-q2-update\arm-none-eabi\include\c++\6.3.1\cmath ****     constexpr typename
 728:c:\program files (x86)\gnu tools arm embedded\6 2017-q2-update\arm-none-eabi\include\c++\6.3.1\cmath ****     __gnu_cxx::__enable_if<(__is_arithmetic<_Tp>::__value
 729:c:\program files (x86)\gnu tools arm embedded\6 2017-q2-update\arm-none-eabi\include\c++\6.3.1\cmath **** 			    && __is_arithmetic<_Up>::__value), bool>::__type
 730:c:\program files (x86)\gnu tools arm embedded\6 2017-q2-update\arm-none-eabi\include\c++\6.3.1\cmath ****     isgreater(_Tp __x, _Up __y)
 731:c:\program files (x86)\gnu tools arm embedded\6 2017-q2-update\arm-none-eabi\include\c++\6.3.1\cmath ****     {
 732:c:\program files (x86)\gnu tools arm embedded\6 2017-q2-update\arm-none-eabi\include\c++\6.3.1\cmath ****       typedef typename __gnu_cxx::__promote_2<_Tp, _Up>::__type __type;
 733:c:\program files (x86)\gnu tools arm embedded\6 2017-q2-update\arm-none-eabi\include\c++\6.3.1\cmath ****       return __builtin_isgreater(__type(__x), __type(__y));
 734:c:\program files (x86)\gnu tools arm embedded\6 2017-q2-update\arm-none-eabi\include\c++\6.3.1\cmath ****     }
 735:c:\program files (x86)\gnu tools arm embedded\6 2017-q2-update\arm-none-eabi\include\c++\6.3.1\cmath **** #endif
 736:c:\program files (x86)\gnu tools arm embedded\6 2017-q2-update\arm-none-eabi\include\c++\6.3.1\cmath **** 
 737:c:\program files (x86)\gnu tools arm embedded\6 2017-q2-update\arm-none-eabi\include\c++\6.3.1\cmath **** #ifndef __CORRECT_ISO_CPP11_MATH_H_PROTO_FP
 738:c:\program files (x86)\gnu tools arm embedded\6 2017-q2-update\arm-none-eabi\include\c++\6.3.1\cmath ****   constexpr bool
 739:c:\program files (x86)\gnu tools arm embedded\6 2017-q2-update\arm-none-eabi\include\c++\6.3.1\cmath ****   isgreaterequal(float __x, float __y)
 740:c:\program files (x86)\gnu tools arm embedded\6 2017-q2-update\arm-none-eabi\include\c++\6.3.1\cmath ****   { return __builtin_isgreaterequal(__x, __y); }
 741:c:\program files (x86)\gnu tools arm embedded\6 2017-q2-update\arm-none-eabi\include\c++\6.3.1\cmath **** 
 742:c:\program files (x86)\gnu tools arm embedded\6 2017-q2-update\arm-none-eabi\include\c++\6.3.1\cmath ****   constexpr bool
 743:c:\program files (x86)\gnu tools arm embedded\6 2017-q2-update\arm-none-eabi\include\c++\6.3.1\cmath ****   isgreaterequal(double __x, double __y)
 744:c:\program files (x86)\gnu tools arm embedded\6 2017-q2-update\arm-none-eabi\include\c++\6.3.1\cmath ****   { return __builtin_isgreaterequal(__x, __y); }
 745:c:\program files (x86)\gnu tools arm embedded\6 2017-q2-update\arm-none-eabi\include\c++\6.3.1\cmath **** 
 746:c:\program files (x86)\gnu tools arm embedded\6 2017-q2-update\arm-none-eabi\include\c++\6.3.1\cmath ****   constexpr bool
 747:c:\program files (x86)\gnu tools arm embedded\6 2017-q2-update\arm-none-eabi\include\c++\6.3.1\cmath ****   isgreaterequal(long double __x, long double __y)
 748:c:\program files (x86)\gnu tools arm embedded\6 2017-q2-update\arm-none-eabi\include\c++\6.3.1\cmath ****   { return __builtin_isgreaterequal(__x, __y); }
 749:c:\program files (x86)\gnu tools arm embedded\6 2017-q2-update\arm-none-eabi\include\c++\6.3.1\cmath **** #endif
 750:c:\program files (x86)\gnu tools arm embedded\6 2017-q2-update\arm-none-eabi\include\c++\6.3.1\cmath **** 
 751:c:\program files (x86)\gnu tools arm embedded\6 2017-q2-update\arm-none-eabi\include\c++\6.3.1\cmath **** #ifndef __CORRECT_ISO_CPP11_MATH_H_PROTO_INT
 752:c:\program files (x86)\gnu tools arm embedded\6 2017-q2-update\arm-none-eabi\include\c++\6.3.1\cmath ****   template<typename _Tp, typename _Up>
 753:c:\program files (x86)\gnu tools arm embedded\6 2017-q2-update\arm-none-eabi\include\c++\6.3.1\cmath ****     constexpr typename
 754:c:\program files (x86)\gnu tools arm embedded\6 2017-q2-update\arm-none-eabi\include\c++\6.3.1\cmath ****     __gnu_cxx::__enable_if<(__is_arithmetic<_Tp>::__value
 755:c:\program files (x86)\gnu tools arm embedded\6 2017-q2-update\arm-none-eabi\include\c++\6.3.1\cmath **** 			    && __is_arithmetic<_Up>::__value), bool>::__type
 756:c:\program files (x86)\gnu tools arm embedded\6 2017-q2-update\arm-none-eabi\include\c++\6.3.1\cmath ****     isgreaterequal(_Tp __x, _Up __y)
 757:c:\program files (x86)\gnu tools arm embedded\6 2017-q2-update\arm-none-eabi\include\c++\6.3.1\cmath ****     {
 758:c:\program files (x86)\gnu tools arm embedded\6 2017-q2-update\arm-none-eabi\include\c++\6.3.1\cmath ****       typedef typename __gnu_cxx::__promote_2<_Tp, _Up>::__type __type;
 759:c:\program files (x86)\gnu tools arm embedded\6 2017-q2-update\arm-none-eabi\include\c++\6.3.1\cmath ****       return __builtin_isgreaterequal(__type(__x), __type(__y));
 760:c:\program files (x86)\gnu tools arm embedded\6 2017-q2-update\arm-none-eabi\include\c++\6.3.1\cmath ****     }
 761:c:\program files (x86)\gnu tools arm embedded\6 2017-q2-update\arm-none-eabi\include\c++\6.3.1\cmath **** #endif
 762:c:\program files (x86)\gnu tools arm embedded\6 2017-q2-update\arm-none-eabi\include\c++\6.3.1\cmath **** 
 763:c:\program files (x86)\gnu tools arm embedded\6 2017-q2-update\arm-none-eabi\include\c++\6.3.1\cmath **** #ifndef __CORRECT_ISO_CPP11_MATH_H_PROTO_FP
 764:c:\program files (x86)\gnu tools arm embedded\6 2017-q2-update\arm-none-eabi\include\c++\6.3.1\cmath ****   constexpr bool
 765:c:\program files (x86)\gnu tools arm embedded\6 2017-q2-update\arm-none-eabi\include\c++\6.3.1\cmath ****   isless(float __x, float __y)
 766:c:\program files (x86)\gnu tools arm embedded\6 2017-q2-update\arm-none-eabi\include\c++\6.3.1\cmath ****   { return __builtin_isless(__x, __y); }
 767:c:\program files (x86)\gnu tools arm embedded\6 2017-q2-update\arm-none-eabi\include\c++\6.3.1\cmath **** 
 768:c:\program files (x86)\gnu tools arm embedded\6 2017-q2-update\arm-none-eabi\include\c++\6.3.1\cmath ****   constexpr bool
 769:c:\program files (x86)\gnu tools arm embedded\6 2017-q2-update\arm-none-eabi\include\c++\6.3.1\cmath ****   isless(double __x, double __y)
 770:c:\program files (x86)\gnu tools arm embedded\6 2017-q2-update\arm-none-eabi\include\c++\6.3.1\cmath ****   { return __builtin_isless(__x, __y); }
 771:c:\program files (x86)\gnu tools arm embedded\6 2017-q2-update\arm-none-eabi\include\c++\6.3.1\cmath **** 
 772:c:\program files (x86)\gnu tools arm embedded\6 2017-q2-update\arm-none-eabi\include\c++\6.3.1\cmath ****   constexpr bool
 773:c:\program files (x86)\gnu tools arm embedded\6 2017-q2-update\arm-none-eabi\include\c++\6.3.1\cmath ****   isless(long double __x, long double __y)
 774:c:\program files (x86)\gnu tools arm embedded\6 2017-q2-update\arm-none-eabi\include\c++\6.3.1\cmath ****   { return __builtin_isless(__x, __y); }
 775:c:\program files (x86)\gnu tools arm embedded\6 2017-q2-update\arm-none-eabi\include\c++\6.3.1\cmath **** #endif
 776:c:\program files (x86)\gnu tools arm embedded\6 2017-q2-update\arm-none-eabi\include\c++\6.3.1\cmath **** 
 777:c:\program files (x86)\gnu tools arm embedded\6 2017-q2-update\arm-none-eabi\include\c++\6.3.1\cmath **** #ifndef __CORRECT_ISO_CPP11_MATH_H_PROTO_INT
 778:c:\program files (x86)\gnu tools arm embedded\6 2017-q2-update\arm-none-eabi\include\c++\6.3.1\cmath ****   template<typename _Tp, typename _Up>
 779:c:\program files (x86)\gnu tools arm embedded\6 2017-q2-update\arm-none-eabi\include\c++\6.3.1\cmath ****     constexpr typename
 780:c:\program files (x86)\gnu tools arm embedded\6 2017-q2-update\arm-none-eabi\include\c++\6.3.1\cmath ****     __gnu_cxx::__enable_if<(__is_arithmetic<_Tp>::__value
 781:c:\program files (x86)\gnu tools arm embedded\6 2017-q2-update\arm-none-eabi\include\c++\6.3.1\cmath **** 			    && __is_arithmetic<_Up>::__value), bool>::__type
 782:c:\program files (x86)\gnu tools arm embedded\6 2017-q2-update\arm-none-eabi\include\c++\6.3.1\cmath ****     isless(_Tp __x, _Up __y)
 783:c:\program files (x86)\gnu tools arm embedded\6 2017-q2-update\arm-none-eabi\include\c++\6.3.1\cmath ****     {
 784:c:\program files (x86)\gnu tools arm embedded\6 2017-q2-update\arm-none-eabi\include\c++\6.3.1\cmath ****       typedef typename __gnu_cxx::__promote_2<_Tp, _Up>::__type __type;
 785:c:\program files (x86)\gnu tools arm embedded\6 2017-q2-update\arm-none-eabi\include\c++\6.3.1\cmath ****       return __builtin_isless(__type(__x), __type(__y));
 786:c:\program files (x86)\gnu tools arm embedded\6 2017-q2-update\arm-none-eabi\include\c++\6.3.1\cmath ****     }
 787:c:\program files (x86)\gnu tools arm embedded\6 2017-q2-update\arm-none-eabi\include\c++\6.3.1\cmath **** #endif
 788:c:\program files (x86)\gnu tools arm embedded\6 2017-q2-update\arm-none-eabi\include\c++\6.3.1\cmath **** 
 789:c:\program files (x86)\gnu tools arm embedded\6 2017-q2-update\arm-none-eabi\include\c++\6.3.1\cmath **** #ifndef __CORRECT_ISO_CPP11_MATH_H_PROTO_FP
 790:c:\program files (x86)\gnu tools arm embedded\6 2017-q2-update\arm-none-eabi\include\c++\6.3.1\cmath ****   constexpr bool
 791:c:\program files (x86)\gnu tools arm embedded\6 2017-q2-update\arm-none-eabi\include\c++\6.3.1\cmath ****   islessequal(float __x, float __y)
 792:c:\program files (x86)\gnu tools arm embedded\6 2017-q2-update\arm-none-eabi\include\c++\6.3.1\cmath ****   { return __builtin_islessequal(__x, __y); }
 793:c:\program files (x86)\gnu tools arm embedded\6 2017-q2-update\arm-none-eabi\include\c++\6.3.1\cmath **** 
 794:c:\program files (x86)\gnu tools arm embedded\6 2017-q2-update\arm-none-eabi\include\c++\6.3.1\cmath ****   constexpr bool
 795:c:\program files (x86)\gnu tools arm embedded\6 2017-q2-update\arm-none-eabi\include\c++\6.3.1\cmath ****   islessequal(double __x, double __y)
 796:c:\program files (x86)\gnu tools arm embedded\6 2017-q2-update\arm-none-eabi\include\c++\6.3.1\cmath ****   { return __builtin_islessequal(__x, __y); }
 797:c:\program files (x86)\gnu tools arm embedded\6 2017-q2-update\arm-none-eabi\include\c++\6.3.1\cmath **** 
 798:c:\program files (x86)\gnu tools arm embedded\6 2017-q2-update\arm-none-eabi\include\c++\6.3.1\cmath ****   constexpr bool
 799:c:\program files (x86)\gnu tools arm embedded\6 2017-q2-update\arm-none-eabi\include\c++\6.3.1\cmath ****   islessequal(long double __x, long double __y)
 800:c:\program files (x86)\gnu tools arm embedded\6 2017-q2-update\arm-none-eabi\include\c++\6.3.1\cmath ****   { return __builtin_islessequal(__x, __y); }
 801:c:\program files (x86)\gnu tools arm embedded\6 2017-q2-update\arm-none-eabi\include\c++\6.3.1\cmath **** #endif
 802:c:\program files (x86)\gnu tools arm embedded\6 2017-q2-update\arm-none-eabi\include\c++\6.3.1\cmath **** 
 803:c:\program files (x86)\gnu tools arm embedded\6 2017-q2-update\arm-none-eabi\include\c++\6.3.1\cmath **** #ifndef __CORRECT_ISO_CPP11_MATH_H_PROTO_INT
 804:c:\program files (x86)\gnu tools arm embedded\6 2017-q2-update\arm-none-eabi\include\c++\6.3.1\cmath ****   template<typename _Tp, typename _Up>
 805:c:\program files (x86)\gnu tools arm embedded\6 2017-q2-update\arm-none-eabi\include\c++\6.3.1\cmath ****     constexpr typename
 806:c:\program files (x86)\gnu tools arm embedded\6 2017-q2-update\arm-none-eabi\include\c++\6.3.1\cmath ****     __gnu_cxx::__enable_if<(__is_arithmetic<_Tp>::__value
 807:c:\program files (x86)\gnu tools arm embedded\6 2017-q2-update\arm-none-eabi\include\c++\6.3.1\cmath **** 			    && __is_arithmetic<_Up>::__value), bool>::__type
 808:c:\program files (x86)\gnu tools arm embedded\6 2017-q2-update\arm-none-eabi\include\c++\6.3.1\cmath ****     islessequal(_Tp __x, _Up __y)
 809:c:\program files (x86)\gnu tools arm embedded\6 2017-q2-update\arm-none-eabi\include\c++\6.3.1\cmath ****     {
 810:c:\program files (x86)\gnu tools arm embedded\6 2017-q2-update\arm-none-eabi\include\c++\6.3.1\cmath ****       typedef typename __gnu_cxx::__promote_2<_Tp, _Up>::__type __type;
 811:c:\program files (x86)\gnu tools arm embedded\6 2017-q2-update\arm-none-eabi\include\c++\6.3.1\cmath ****       return __builtin_islessequal(__type(__x), __type(__y));
 812:c:\program files (x86)\gnu tools arm embedded\6 2017-q2-update\arm-none-eabi\include\c++\6.3.1\cmath ****     }
 813:c:\program files (x86)\gnu tools arm embedded\6 2017-q2-update\arm-none-eabi\include\c++\6.3.1\cmath **** #endif
 814:c:\program files (x86)\gnu tools arm embedded\6 2017-q2-update\arm-none-eabi\include\c++\6.3.1\cmath **** 
 815:c:\program files (x86)\gnu tools arm embedded\6 2017-q2-update\arm-none-eabi\include\c++\6.3.1\cmath **** #ifndef __CORRECT_ISO_CPP11_MATH_H_PROTO_FP
 816:c:\program files (x86)\gnu tools arm embedded\6 2017-q2-update\arm-none-eabi\include\c++\6.3.1\cmath ****   constexpr bool
 817:c:\program files (x86)\gnu tools arm embedded\6 2017-q2-update\arm-none-eabi\include\c++\6.3.1\cmath ****   islessgreater(float __x, float __y)
 818:c:\program files (x86)\gnu tools arm embedded\6 2017-q2-update\arm-none-eabi\include\c++\6.3.1\cmath ****   { return __builtin_islessgreater(__x, __y); }
 819:c:\program files (x86)\gnu tools arm embedded\6 2017-q2-update\arm-none-eabi\include\c++\6.3.1\cmath **** 
 820:c:\program files (x86)\gnu tools arm embedded\6 2017-q2-update\arm-none-eabi\include\c++\6.3.1\cmath ****   constexpr bool
 821:c:\program files (x86)\gnu tools arm embedded\6 2017-q2-update\arm-none-eabi\include\c++\6.3.1\cmath ****   islessgreater(double __x, double __y)
 822:c:\program files (x86)\gnu tools arm embedded\6 2017-q2-update\arm-none-eabi\include\c++\6.3.1\cmath ****   { return __builtin_islessgreater(__x, __y); }
 823:c:\program files (x86)\gnu tools arm embedded\6 2017-q2-update\arm-none-eabi\include\c++\6.3.1\cmath **** 
 824:c:\program files (x86)\gnu tools arm embedded\6 2017-q2-update\arm-none-eabi\include\c++\6.3.1\cmath ****   constexpr bool
 825:c:\program files (x86)\gnu tools arm embedded\6 2017-q2-update\arm-none-eabi\include\c++\6.3.1\cmath ****   islessgreater(long double __x, long double __y)
 826:c:\program files (x86)\gnu tools arm embedded\6 2017-q2-update\arm-none-eabi\include\c++\6.3.1\cmath ****   { return __builtin_islessgreater(__x, __y); }
 827:c:\program files (x86)\gnu tools arm embedded\6 2017-q2-update\arm-none-eabi\include\c++\6.3.1\cmath **** #endif
 828:c:\program files (x86)\gnu tools arm embedded\6 2017-q2-update\arm-none-eabi\include\c++\6.3.1\cmath **** 
 829:c:\program files (x86)\gnu tools arm embedded\6 2017-q2-update\arm-none-eabi\include\c++\6.3.1\cmath **** #ifndef __CORRECT_ISO_CPP11_MATH_H_PROTO_INT
 830:c:\program files (x86)\gnu tools arm embedded\6 2017-q2-update\arm-none-eabi\include\c++\6.3.1\cmath ****   template<typename _Tp, typename _Up>
 831:c:\program files (x86)\gnu tools arm embedded\6 2017-q2-update\arm-none-eabi\include\c++\6.3.1\cmath ****     constexpr typename
 832:c:\program files (x86)\gnu tools arm embedded\6 2017-q2-update\arm-none-eabi\include\c++\6.3.1\cmath ****     __gnu_cxx::__enable_if<(__is_arithmetic<_Tp>::__value
 833:c:\program files (x86)\gnu tools arm embedded\6 2017-q2-update\arm-none-eabi\include\c++\6.3.1\cmath **** 			    && __is_arithmetic<_Up>::__value), bool>::__type
 834:c:\program files (x86)\gnu tools arm embedded\6 2017-q2-update\arm-none-eabi\include\c++\6.3.1\cmath ****     islessgreater(_Tp __x, _Up __y)
 835:c:\program files (x86)\gnu tools arm embedded\6 2017-q2-update\arm-none-eabi\include\c++\6.3.1\cmath ****     {
 836:c:\program files (x86)\gnu tools arm embedded\6 2017-q2-update\arm-none-eabi\include\c++\6.3.1\cmath ****       typedef typename __gnu_cxx::__promote_2<_Tp, _Up>::__type __type;
 837:c:\program files (x86)\gnu tools arm embedded\6 2017-q2-update\arm-none-eabi\include\c++\6.3.1\cmath ****       return __builtin_islessgreater(__type(__x), __type(__y));
 838:c:\program files (x86)\gnu tools arm embedded\6 2017-q2-update\arm-none-eabi\include\c++\6.3.1\cmath ****     }
 839:c:\program files (x86)\gnu tools arm embedded\6 2017-q2-update\arm-none-eabi\include\c++\6.3.1\cmath **** #endif
 840:c:\program files (x86)\gnu tools arm embedded\6 2017-q2-update\arm-none-eabi\include\c++\6.3.1\cmath **** 
 841:c:\program files (x86)\gnu tools arm embedded\6 2017-q2-update\arm-none-eabi\include\c++\6.3.1\cmath **** #ifndef __CORRECT_ISO_CPP11_MATH_H_PROTO_FP
 842:c:\program files (x86)\gnu tools arm embedded\6 2017-q2-update\arm-none-eabi\include\c++\6.3.1\cmath ****   constexpr bool
 843:c:\program files (x86)\gnu tools arm embedded\6 2017-q2-update\arm-none-eabi\include\c++\6.3.1\cmath ****   isunordered(float __x, float __y)
 844:c:\program files (x86)\gnu tools arm embedded\6 2017-q2-update\arm-none-eabi\include\c++\6.3.1\cmath ****   { return __builtin_isunordered(__x, __y); }
 845:c:\program files (x86)\gnu tools arm embedded\6 2017-q2-update\arm-none-eabi\include\c++\6.3.1\cmath **** 
 846:c:\program files (x86)\gnu tools arm embedded\6 2017-q2-update\arm-none-eabi\include\c++\6.3.1\cmath ****   constexpr bool
 847:c:\program files (x86)\gnu tools arm embedded\6 2017-q2-update\arm-none-eabi\include\c++\6.3.1\cmath ****   isunordered(double __x, double __y)
 848:c:\program files (x86)\gnu tools arm embedded\6 2017-q2-update\arm-none-eabi\include\c++\6.3.1\cmath ****   { return __builtin_isunordered(__x, __y); }
 849:c:\program files (x86)\gnu tools arm embedded\6 2017-q2-update\arm-none-eabi\include\c++\6.3.1\cmath **** 
 850:c:\program files (x86)\gnu tools arm embedded\6 2017-q2-update\arm-none-eabi\include\c++\6.3.1\cmath ****   constexpr bool
 851:c:\program files (x86)\gnu tools arm embedded\6 2017-q2-update\arm-none-eabi\include\c++\6.3.1\cmath ****   isunordered(long double __x, long double __y)
 852:c:\program files (x86)\gnu tools arm embedded\6 2017-q2-update\arm-none-eabi\include\c++\6.3.1\cmath ****   { return __builtin_isunordered(__x, __y); }
 853:c:\program files (x86)\gnu tools arm embedded\6 2017-q2-update\arm-none-eabi\include\c++\6.3.1\cmath **** #endif
 854:c:\program files (x86)\gnu tools arm embedded\6 2017-q2-update\arm-none-eabi\include\c++\6.3.1\cmath **** 
 855:c:\program files (x86)\gnu tools arm embedded\6 2017-q2-update\arm-none-eabi\include\c++\6.3.1\cmath **** #ifndef __CORRECT_ISO_CPP11_MATH_H_PROTO_INT
 856:c:\program files (x86)\gnu tools arm embedded\6 2017-q2-update\arm-none-eabi\include\c++\6.3.1\cmath ****   template<typename _Tp, typename _Up>
 857:c:\program files (x86)\gnu tools arm embedded\6 2017-q2-update\arm-none-eabi\include\c++\6.3.1\cmath ****     constexpr typename
 858:c:\program files (x86)\gnu tools arm embedded\6 2017-q2-update\arm-none-eabi\include\c++\6.3.1\cmath ****     __gnu_cxx::__enable_if<(__is_arithmetic<_Tp>::__value
 859:c:\program files (x86)\gnu tools arm embedded\6 2017-q2-update\arm-none-eabi\include\c++\6.3.1\cmath **** 			    && __is_arithmetic<_Up>::__value), bool>::__type
 860:c:\program files (x86)\gnu tools arm embedded\6 2017-q2-update\arm-none-eabi\include\c++\6.3.1\cmath ****     isunordered(_Tp __x, _Up __y)
 861:c:\program files (x86)\gnu tools arm embedded\6 2017-q2-update\arm-none-eabi\include\c++\6.3.1\cmath ****     {
 862:c:\program files (x86)\gnu tools arm embedded\6 2017-q2-update\arm-none-eabi\include\c++\6.3.1\cmath ****       typedef typename __gnu_cxx::__promote_2<_Tp, _Up>::__type __type;
 863:c:\program files (x86)\gnu tools arm embedded\6 2017-q2-update\arm-none-eabi\include\c++\6.3.1\cmath ****       return __builtin_isunordered(__type(__x), __type(__y));
 864:c:\program files (x86)\gnu tools arm embedded\6 2017-q2-update\arm-none-eabi\include\c++\6.3.1\cmath ****     }
 865:c:\program files (x86)\gnu tools arm embedded\6 2017-q2-update\arm-none-eabi\include\c++\6.3.1\cmath **** #endif
 866:c:\program files (x86)\gnu tools arm embedded\6 2017-q2-update\arm-none-eabi\include\c++\6.3.1\cmath **** 
 867:c:\program files (x86)\gnu tools arm embedded\6 2017-q2-update\arm-none-eabi\include\c++\6.3.1\cmath **** #else
 868:c:\program files (x86)\gnu tools arm embedded\6 2017-q2-update\arm-none-eabi\include\c++\6.3.1\cmath **** 
 869:c:\program files (x86)\gnu tools arm embedded\6 2017-q2-update\arm-none-eabi\include\c++\6.3.1\cmath ****   template<typename _Tp>
 870:c:\program files (x86)\gnu tools arm embedded\6 2017-q2-update\arm-none-eabi\include\c++\6.3.1\cmath ****     inline typename __gnu_cxx::__enable_if<__is_arithmetic<_Tp>::__value,
 871:c:\program files (x86)\gnu tools arm embedded\6 2017-q2-update\arm-none-eabi\include\c++\6.3.1\cmath **** 					   int>::__type
 872:c:\program files (x86)\gnu tools arm embedded\6 2017-q2-update\arm-none-eabi\include\c++\6.3.1\cmath ****     fpclassify(_Tp __f)
 873:c:\program files (x86)\gnu tools arm embedded\6 2017-q2-update\arm-none-eabi\include\c++\6.3.1\cmath ****     {
 874:c:\program files (x86)\gnu tools arm embedded\6 2017-q2-update\arm-none-eabi\include\c++\6.3.1\cmath ****       typedef typename __gnu_cxx::__promote<_Tp>::__type __type;
 875:c:\program files (x86)\gnu tools arm embedded\6 2017-q2-update\arm-none-eabi\include\c++\6.3.1\cmath ****       return __builtin_fpclassify(FP_NAN, FP_INFINITE, FP_NORMAL,
 876:c:\program files (x86)\gnu tools arm embedded\6 2017-q2-update\arm-none-eabi\include\c++\6.3.1\cmath **** 				  FP_SUBNORMAL, FP_ZERO, __type(__f));
 877:c:\program files (x86)\gnu tools arm embedded\6 2017-q2-update\arm-none-eabi\include\c++\6.3.1\cmath ****     }
 878:c:\program files (x86)\gnu tools arm embedded\6 2017-q2-update\arm-none-eabi\include\c++\6.3.1\cmath **** 
 879:c:\program files (x86)\gnu tools arm embedded\6 2017-q2-update\arm-none-eabi\include\c++\6.3.1\cmath ****   template<typename _Tp>
 880:c:\program files (x86)\gnu tools arm embedded\6 2017-q2-update\arm-none-eabi\include\c++\6.3.1\cmath ****     inline typename __gnu_cxx::__enable_if<__is_arithmetic<_Tp>::__value,
 881:c:\program files (x86)\gnu tools arm embedded\6 2017-q2-update\arm-none-eabi\include\c++\6.3.1\cmath **** 					   int>::__type
 882:c:\program files (x86)\gnu tools arm embedded\6 2017-q2-update\arm-none-eabi\include\c++\6.3.1\cmath ****     isfinite(_Tp __f)
 883:c:\program files (x86)\gnu tools arm embedded\6 2017-q2-update\arm-none-eabi\include\c++\6.3.1\cmath ****     {
 884:c:\program files (x86)\gnu tools arm embedded\6 2017-q2-update\arm-none-eabi\include\c++\6.3.1\cmath ****       typedef typename __gnu_cxx::__promote<_Tp>::__type __type;
 885:c:\program files (x86)\gnu tools arm embedded\6 2017-q2-update\arm-none-eabi\include\c++\6.3.1\cmath ****       return __builtin_isfinite(__type(__f));
 886:c:\program files (x86)\gnu tools arm embedded\6 2017-q2-update\arm-none-eabi\include\c++\6.3.1\cmath ****     }
 887:c:\program files (x86)\gnu tools arm embedded\6 2017-q2-update\arm-none-eabi\include\c++\6.3.1\cmath **** 
 888:c:\program files (x86)\gnu tools arm embedded\6 2017-q2-update\arm-none-eabi\include\c++\6.3.1\cmath ****   template<typename _Tp>
 889:c:\program files (x86)\gnu tools arm embedded\6 2017-q2-update\arm-none-eabi\include\c++\6.3.1\cmath ****     inline typename __gnu_cxx::__enable_if<__is_arithmetic<_Tp>::__value,
 890:c:\program files (x86)\gnu tools arm embedded\6 2017-q2-update\arm-none-eabi\include\c++\6.3.1\cmath **** 					   int>::__type
 891:c:\program files (x86)\gnu tools arm embedded\6 2017-q2-update\arm-none-eabi\include\c++\6.3.1\cmath ****     isinf(_Tp __f)
 892:c:\program files (x86)\gnu tools arm embedded\6 2017-q2-update\arm-none-eabi\include\c++\6.3.1\cmath ****     {
 893:c:\program files (x86)\gnu tools arm embedded\6 2017-q2-update\arm-none-eabi\include\c++\6.3.1\cmath ****       typedef typename __gnu_cxx::__promote<_Tp>::__type __type;
 894:c:\program files (x86)\gnu tools arm embedded\6 2017-q2-update\arm-none-eabi\include\c++\6.3.1\cmath ****       return __builtin_isinf(__type(__f));
 895:c:\program files (x86)\gnu tools arm embedded\6 2017-q2-update\arm-none-eabi\include\c++\6.3.1\cmath ****     }
 896:c:\program files (x86)\gnu tools arm embedded\6 2017-q2-update\arm-none-eabi\include\c++\6.3.1\cmath **** 
 897:c:\program files (x86)\gnu tools arm embedded\6 2017-q2-update\arm-none-eabi\include\c++\6.3.1\cmath ****   template<typename _Tp>
 898:c:\program files (x86)\gnu tools arm embedded\6 2017-q2-update\arm-none-eabi\include\c++\6.3.1\cmath ****     inline typename __gnu_cxx::__enable_if<__is_arithmetic<_Tp>::__value,
 899:c:\program files (x86)\gnu tools arm embedded\6 2017-q2-update\arm-none-eabi\include\c++\6.3.1\cmath **** 					   int>::__type
 900:c:\program files (x86)\gnu tools arm embedded\6 2017-q2-update\arm-none-eabi\include\c++\6.3.1\cmath ****     isnan(_Tp __f)
 901:c:\program files (x86)\gnu tools arm embedded\6 2017-q2-update\arm-none-eabi\include\c++\6.3.1\cmath ****     {
 902:c:\program files (x86)\gnu tools arm embedded\6 2017-q2-update\arm-none-eabi\include\c++\6.3.1\cmath ****       typedef typename __gnu_cxx::__promote<_Tp>::__type __type;
 903:c:\program files (x86)\gnu tools arm embedded\6 2017-q2-update\arm-none-eabi\include\c++\6.3.1\cmath ****       return __builtin_isnan(__type(__f));
 904:c:\program files (x86)\gnu tools arm embedded\6 2017-q2-update\arm-none-eabi\include\c++\6.3.1\cmath ****     }
 905:c:\program files (x86)\gnu tools arm embedded\6 2017-q2-update\arm-none-eabi\include\c++\6.3.1\cmath **** 
 906:c:\program files (x86)\gnu tools arm embedded\6 2017-q2-update\arm-none-eabi\include\c++\6.3.1\cmath ****   template<typename _Tp>
 907:c:\program files (x86)\gnu tools arm embedded\6 2017-q2-update\arm-none-eabi\include\c++\6.3.1\cmath ****     inline typename __gnu_cxx::__enable_if<__is_arithmetic<_Tp>::__value,
 908:c:\program files (x86)\gnu tools arm embedded\6 2017-q2-update\arm-none-eabi\include\c++\6.3.1\cmath **** 					   int>::__type
 909:c:\program files (x86)\gnu tools arm embedded\6 2017-q2-update\arm-none-eabi\include\c++\6.3.1\cmath ****     isnormal(_Tp __f)
 910:c:\program files (x86)\gnu tools arm embedded\6 2017-q2-update\arm-none-eabi\include\c++\6.3.1\cmath ****     {
 911:c:\program files (x86)\gnu tools arm embedded\6 2017-q2-update\arm-none-eabi\include\c++\6.3.1\cmath ****       typedef typename __gnu_cxx::__promote<_Tp>::__type __type;
 912:c:\program files (x86)\gnu tools arm embedded\6 2017-q2-update\arm-none-eabi\include\c++\6.3.1\cmath ****       return __builtin_isnormal(__type(__f));
 913:c:\program files (x86)\gnu tools arm embedded\6 2017-q2-update\arm-none-eabi\include\c++\6.3.1\cmath ****     }
 914:c:\program files (x86)\gnu tools arm embedded\6 2017-q2-update\arm-none-eabi\include\c++\6.3.1\cmath **** 
 915:c:\program files (x86)\gnu tools arm embedded\6 2017-q2-update\arm-none-eabi\include\c++\6.3.1\cmath ****   template<typename _Tp>
 916:c:\program files (x86)\gnu tools arm embedded\6 2017-q2-update\arm-none-eabi\include\c++\6.3.1\cmath ****     inline typename __gnu_cxx::__enable_if<__is_arithmetic<_Tp>::__value,
 917:c:\program files (x86)\gnu tools arm embedded\6 2017-q2-update\arm-none-eabi\include\c++\6.3.1\cmath **** 					   int>::__type
 918:c:\program files (x86)\gnu tools arm embedded\6 2017-q2-update\arm-none-eabi\include\c++\6.3.1\cmath ****     signbit(_Tp __f)
 919:c:\program files (x86)\gnu tools arm embedded\6 2017-q2-update\arm-none-eabi\include\c++\6.3.1\cmath ****     {
 920:c:\program files (x86)\gnu tools arm embedded\6 2017-q2-update\arm-none-eabi\include\c++\6.3.1\cmath ****       typedef typename __gnu_cxx::__promote<_Tp>::__type __type;
 921:c:\program files (x86)\gnu tools arm embedded\6 2017-q2-update\arm-none-eabi\include\c++\6.3.1\cmath ****       return __builtin_signbit(__type(__f));
 922:c:\program files (x86)\gnu tools arm embedded\6 2017-q2-update\arm-none-eabi\include\c++\6.3.1\cmath ****     }
 923:c:\program files (x86)\gnu tools arm embedded\6 2017-q2-update\arm-none-eabi\include\c++\6.3.1\cmath **** 
 924:c:\program files (x86)\gnu tools arm embedded\6 2017-q2-update\arm-none-eabi\include\c++\6.3.1\cmath ****   template<typename _Tp>
 925:c:\program files (x86)\gnu tools arm embedded\6 2017-q2-update\arm-none-eabi\include\c++\6.3.1\cmath ****     inline typename __gnu_cxx::__enable_if<__is_arithmetic<_Tp>::__value,
 926:c:\program files (x86)\gnu tools arm embedded\6 2017-q2-update\arm-none-eabi\include\c++\6.3.1\cmath **** 					   int>::__type
 927:c:\program files (x86)\gnu tools arm embedded\6 2017-q2-update\arm-none-eabi\include\c++\6.3.1\cmath ****     isgreater(_Tp __f1, _Tp __f2)
 928:c:\program files (x86)\gnu tools arm embedded\6 2017-q2-update\arm-none-eabi\include\c++\6.3.1\cmath ****     {
 929:c:\program files (x86)\gnu tools arm embedded\6 2017-q2-update\arm-none-eabi\include\c++\6.3.1\cmath ****       typedef typename __gnu_cxx::__promote<_Tp>::__type __type;
 930:c:\program files (x86)\gnu tools arm embedded\6 2017-q2-update\arm-none-eabi\include\c++\6.3.1\cmath ****       return __builtin_isgreater(__type(__f1), __type(__f2));
 931:c:\program files (x86)\gnu tools arm embedded\6 2017-q2-update\arm-none-eabi\include\c++\6.3.1\cmath ****     }
 932:c:\program files (x86)\gnu tools arm embedded\6 2017-q2-update\arm-none-eabi\include\c++\6.3.1\cmath **** 
 933:c:\program files (x86)\gnu tools arm embedded\6 2017-q2-update\arm-none-eabi\include\c++\6.3.1\cmath ****   template<typename _Tp>
 934:c:\program files (x86)\gnu tools arm embedded\6 2017-q2-update\arm-none-eabi\include\c++\6.3.1\cmath ****     inline typename __gnu_cxx::__enable_if<__is_arithmetic<_Tp>::__value,
 935:c:\program files (x86)\gnu tools arm embedded\6 2017-q2-update\arm-none-eabi\include\c++\6.3.1\cmath **** 					   int>::__type
 936:c:\program files (x86)\gnu tools arm embedded\6 2017-q2-update\arm-none-eabi\include\c++\6.3.1\cmath ****     isgreaterequal(_Tp __f1, _Tp __f2)
 937:c:\program files (x86)\gnu tools arm embedded\6 2017-q2-update\arm-none-eabi\include\c++\6.3.1\cmath ****     {
 938:c:\program files (x86)\gnu tools arm embedded\6 2017-q2-update\arm-none-eabi\include\c++\6.3.1\cmath ****       typedef typename __gnu_cxx::__promote<_Tp>::__type __type;
 939:c:\program files (x86)\gnu tools arm embedded\6 2017-q2-update\arm-none-eabi\include\c++\6.3.1\cmath ****       return __builtin_isgreaterequal(__type(__f1), __type(__f2));
 940:c:\program files (x86)\gnu tools arm embedded\6 2017-q2-update\arm-none-eabi\include\c++\6.3.1\cmath ****     }
 941:c:\program files (x86)\gnu tools arm embedded\6 2017-q2-update\arm-none-eabi\include\c++\6.3.1\cmath **** 
 942:c:\program files (x86)\gnu tools arm embedded\6 2017-q2-update\arm-none-eabi\include\c++\6.3.1\cmath ****   template<typename _Tp>
 943:c:\program files (x86)\gnu tools arm embedded\6 2017-q2-update\arm-none-eabi\include\c++\6.3.1\cmath ****     inline typename __gnu_cxx::__enable_if<__is_arithmetic<_Tp>::__value,
 944:c:\program files (x86)\gnu tools arm embedded\6 2017-q2-update\arm-none-eabi\include\c++\6.3.1\cmath **** 					   int>::__type
 945:c:\program files (x86)\gnu tools arm embedded\6 2017-q2-update\arm-none-eabi\include\c++\6.3.1\cmath ****     isless(_Tp __f1, _Tp __f2)
 946:c:\program files (x86)\gnu tools arm embedded\6 2017-q2-update\arm-none-eabi\include\c++\6.3.1\cmath ****     {
 947:c:\program files (x86)\gnu tools arm embedded\6 2017-q2-update\arm-none-eabi\include\c++\6.3.1\cmath ****       typedef typename __gnu_cxx::__promote<_Tp>::__type __type;
 948:c:\program files (x86)\gnu tools arm embedded\6 2017-q2-update\arm-none-eabi\include\c++\6.3.1\cmath ****       return __builtin_isless(__type(__f1), __type(__f2));
 949:c:\program files (x86)\gnu tools arm embedded\6 2017-q2-update\arm-none-eabi\include\c++\6.3.1\cmath ****     }
 950:c:\program files (x86)\gnu tools arm embedded\6 2017-q2-update\arm-none-eabi\include\c++\6.3.1\cmath **** 
 951:c:\program files (x86)\gnu tools arm embedded\6 2017-q2-update\arm-none-eabi\include\c++\6.3.1\cmath ****   template<typename _Tp>
 952:c:\program files (x86)\gnu tools arm embedded\6 2017-q2-update\arm-none-eabi\include\c++\6.3.1\cmath ****     inline typename __gnu_cxx::__enable_if<__is_arithmetic<_Tp>::__value,
 953:c:\program files (x86)\gnu tools arm embedded\6 2017-q2-update\arm-none-eabi\include\c++\6.3.1\cmath **** 					   int>::__type
 954:c:\program files (x86)\gnu tools arm embedded\6 2017-q2-update\arm-none-eabi\include\c++\6.3.1\cmath ****     islessequal(_Tp __f1, _Tp __f2)
 955:c:\program files (x86)\gnu tools arm embedded\6 2017-q2-update\arm-none-eabi\include\c++\6.3.1\cmath ****     {
 956:c:\program files (x86)\gnu tools arm embedded\6 2017-q2-update\arm-none-eabi\include\c++\6.3.1\cmath ****       typedef typename __gnu_cxx::__promote<_Tp>::__type __type;
 957:c:\program files (x86)\gnu tools arm embedded\6 2017-q2-update\arm-none-eabi\include\c++\6.3.1\cmath ****       return __builtin_islessequal(__type(__f1), __type(__f2));
 958:c:\program files (x86)\gnu tools arm embedded\6 2017-q2-update\arm-none-eabi\include\c++\6.3.1\cmath ****     }
 959:c:\program files (x86)\gnu tools arm embedded\6 2017-q2-update\arm-none-eabi\include\c++\6.3.1\cmath **** 
 960:c:\program files (x86)\gnu tools arm embedded\6 2017-q2-update\arm-none-eabi\include\c++\6.3.1\cmath ****   template<typename _Tp>
 961:c:\program files (x86)\gnu tools arm embedded\6 2017-q2-update\arm-none-eabi\include\c++\6.3.1\cmath ****     inline typename __gnu_cxx::__enable_if<__is_arithmetic<_Tp>::__value,
 962:c:\program files (x86)\gnu tools arm embedded\6 2017-q2-update\arm-none-eabi\include\c++\6.3.1\cmath **** 					   int>::__type
 963:c:\program files (x86)\gnu tools arm embedded\6 2017-q2-update\arm-none-eabi\include\c++\6.3.1\cmath ****     islessgreater(_Tp __f1, _Tp __f2)
 964:c:\program files (x86)\gnu tools arm embedded\6 2017-q2-update\arm-none-eabi\include\c++\6.3.1\cmath ****     {
 965:c:\program files (x86)\gnu tools arm embedded\6 2017-q2-update\arm-none-eabi\include\c++\6.3.1\cmath ****       typedef typename __gnu_cxx::__promote<_Tp>::__type __type;
 966:c:\program files (x86)\gnu tools arm embedded\6 2017-q2-update\arm-none-eabi\include\c++\6.3.1\cmath ****       return __builtin_islessgreater(__type(__f1), __type(__f2));
 967:c:\program files (x86)\gnu tools arm embedded\6 2017-q2-update\arm-none-eabi\include\c++\6.3.1\cmath ****     }
 968:c:\program files (x86)\gnu tools arm embedded\6 2017-q2-update\arm-none-eabi\include\c++\6.3.1\cmath **** 
 969:c:\program files (x86)\gnu tools arm embedded\6 2017-q2-update\arm-none-eabi\include\c++\6.3.1\cmath ****   template<typename _Tp>
 970:c:\program files (x86)\gnu tools arm embedded\6 2017-q2-update\arm-none-eabi\include\c++\6.3.1\cmath ****     inline typename __gnu_cxx::__enable_if<__is_arithmetic<_Tp>::__value,
 971:c:\program files (x86)\gnu tools arm embedded\6 2017-q2-update\arm-none-eabi\include\c++\6.3.1\cmath **** 					   int>::__type
 972:c:\program files (x86)\gnu tools arm embedded\6 2017-q2-update\arm-none-eabi\include\c++\6.3.1\cmath ****     isunordered(_Tp __f1, _Tp __f2)
 973:c:\program files (x86)\gnu tools arm embedded\6 2017-q2-update\arm-none-eabi\include\c++\6.3.1\cmath ****     {
 974:c:\program files (x86)\gnu tools arm embedded\6 2017-q2-update\arm-none-eabi\include\c++\6.3.1\cmath ****       typedef typename __gnu_cxx::__promote<_Tp>::__type __type;
 975:c:\program files (x86)\gnu tools arm embedded\6 2017-q2-update\arm-none-eabi\include\c++\6.3.1\cmath ****       return __builtin_isunordered(__type(__f1), __type(__f2));
 976:c:\program files (x86)\gnu tools arm embedded\6 2017-q2-update\arm-none-eabi\include\c++\6.3.1\cmath ****     }
 977:c:\program files (x86)\gnu tools arm embedded\6 2017-q2-update\arm-none-eabi\include\c++\6.3.1\cmath **** 
 978:c:\program files (x86)\gnu tools arm embedded\6 2017-q2-update\arm-none-eabi\include\c++\6.3.1\cmath **** #endif
 979:c:\program files (x86)\gnu tools arm embedded\6 2017-q2-update\arm-none-eabi\include\c++\6.3.1\cmath **** 
 980:c:\program files (x86)\gnu tools arm embedded\6 2017-q2-update\arm-none-eabi\include\c++\6.3.1\cmath **** _GLIBCXX_END_NAMESPACE_VERSION
 981:c:\program files (x86)\gnu tools arm embedded\6 2017-q2-update\arm-none-eabi\include\c++\6.3.1\cmath **** } // namespace
 982:c:\program files (x86)\gnu tools arm embedded\6 2017-q2-update\arm-none-eabi\include\c++\6.3.1\cmath **** 
 983:c:\program files (x86)\gnu tools arm embedded\6 2017-q2-update\arm-none-eabi\include\c++\6.3.1\cmath **** #endif /* _GLIBCXX_USE_C99_FP_MACROS_DYNAMIC */
 984:c:\program files (x86)\gnu tools arm embedded\6 2017-q2-update\arm-none-eabi\include\c++\6.3.1\cmath **** #endif
 985:c:\program files (x86)\gnu tools arm embedded\6 2017-q2-update\arm-none-eabi\include\c++\6.3.1\cmath **** 
 986:c:\program files (x86)\gnu tools arm embedded\6 2017-q2-update\arm-none-eabi\include\c++\6.3.1\cmath **** #if __cplusplus >= 201103L
 987:c:\program files (x86)\gnu tools arm embedded\6 2017-q2-update\arm-none-eabi\include\c++\6.3.1\cmath **** 
 988:c:\program files (x86)\gnu tools arm embedded\6 2017-q2-update\arm-none-eabi\include\c++\6.3.1\cmath **** #ifdef _GLIBCXX_USE_C99_MATH_TR1
 989:c:\program files (x86)\gnu tools arm embedded\6 2017-q2-update\arm-none-eabi\include\c++\6.3.1\cmath **** 
 990:c:\program files (x86)\gnu tools arm embedded\6 2017-q2-update\arm-none-eabi\include\c++\6.3.1\cmath **** #undef acosh
 991:c:\program files (x86)\gnu tools arm embedded\6 2017-q2-update\arm-none-eabi\include\c++\6.3.1\cmath **** #undef acoshf
 992:c:\program files (x86)\gnu tools arm embedded\6 2017-q2-update\arm-none-eabi\include\c++\6.3.1\cmath **** #undef acoshl
 993:c:\program files (x86)\gnu tools arm embedded\6 2017-q2-update\arm-none-eabi\include\c++\6.3.1\cmath **** #undef asinh
 994:c:\program files (x86)\gnu tools arm embedded\6 2017-q2-update\arm-none-eabi\include\c++\6.3.1\cmath **** #undef asinhf
 995:c:\program files (x86)\gnu tools arm embedded\6 2017-q2-update\arm-none-eabi\include\c++\6.3.1\cmath **** #undef asinhl
 996:c:\program files (x86)\gnu tools arm embedded\6 2017-q2-update\arm-none-eabi\include\c++\6.3.1\cmath **** #undef atanh
 997:c:\program files (x86)\gnu tools arm embedded\6 2017-q2-update\arm-none-eabi\include\c++\6.3.1\cmath **** #undef atanhf
 998:c:\program files (x86)\gnu tools arm embedded\6 2017-q2-update\arm-none-eabi\include\c++\6.3.1\cmath **** #undef atanhl
 999:c:\program files (x86)\gnu tools arm embedded\6 2017-q2-update\arm-none-eabi\include\c++\6.3.1\cmath **** #undef cbrt
1000:c:\program files (x86)\gnu tools arm embedded\6 2017-q2-update\arm-none-eabi\include\c++\6.3.1\cmath **** #undef cbrtf
1001:c:\program files (x86)\gnu tools arm embedded\6 2017-q2-update\arm-none-eabi\include\c++\6.3.1\cmath **** #undef cbrtl
1002:c:\program files (x86)\gnu tools arm embedded\6 2017-q2-update\arm-none-eabi\include\c++\6.3.1\cmath **** #undef copysign
1003:c:\program files (x86)\gnu tools arm embedded\6 2017-q2-update\arm-none-eabi\include\c++\6.3.1\cmath **** #undef copysignf
1004:c:\program files (x86)\gnu tools arm embedded\6 2017-q2-update\arm-none-eabi\include\c++\6.3.1\cmath **** #undef copysignl
1005:c:\program files (x86)\gnu tools arm embedded\6 2017-q2-update\arm-none-eabi\include\c++\6.3.1\cmath **** #undef erf
1006:c:\program files (x86)\gnu tools arm embedded\6 2017-q2-update\arm-none-eabi\include\c++\6.3.1\cmath **** #undef erff
1007:c:\program files (x86)\gnu tools arm embedded\6 2017-q2-update\arm-none-eabi\include\c++\6.3.1\cmath **** #undef erfl
1008:c:\program files (x86)\gnu tools arm embedded\6 2017-q2-update\arm-none-eabi\include\c++\6.3.1\cmath **** #undef erfc
1009:c:\program files (x86)\gnu tools arm embedded\6 2017-q2-update\arm-none-eabi\include\c++\6.3.1\cmath **** #undef erfcf
1010:c:\program files (x86)\gnu tools arm embedded\6 2017-q2-update\arm-none-eabi\include\c++\6.3.1\cmath **** #undef erfcl
1011:c:\program files (x86)\gnu tools arm embedded\6 2017-q2-update\arm-none-eabi\include\c++\6.3.1\cmath **** #undef exp2
1012:c:\program files (x86)\gnu tools arm embedded\6 2017-q2-update\arm-none-eabi\include\c++\6.3.1\cmath **** #undef exp2f
1013:c:\program files (x86)\gnu tools arm embedded\6 2017-q2-update\arm-none-eabi\include\c++\6.3.1\cmath **** #undef exp2l
1014:c:\program files (x86)\gnu tools arm embedded\6 2017-q2-update\arm-none-eabi\include\c++\6.3.1\cmath **** #undef expm1
1015:c:\program files (x86)\gnu tools arm embedded\6 2017-q2-update\arm-none-eabi\include\c++\6.3.1\cmath **** #undef expm1f
1016:c:\program files (x86)\gnu tools arm embedded\6 2017-q2-update\arm-none-eabi\include\c++\6.3.1\cmath **** #undef expm1l
1017:c:\program files (x86)\gnu tools arm embedded\6 2017-q2-update\arm-none-eabi\include\c++\6.3.1\cmath **** #undef fdim
1018:c:\program files (x86)\gnu tools arm embedded\6 2017-q2-update\arm-none-eabi\include\c++\6.3.1\cmath **** #undef fdimf
1019:c:\program files (x86)\gnu tools arm embedded\6 2017-q2-update\arm-none-eabi\include\c++\6.3.1\cmath **** #undef fdiml
1020:c:\program files (x86)\gnu tools arm embedded\6 2017-q2-update\arm-none-eabi\include\c++\6.3.1\cmath **** #undef fma
1021:c:\program files (x86)\gnu tools arm embedded\6 2017-q2-update\arm-none-eabi\include\c++\6.3.1\cmath **** #undef fmaf
1022:c:\program files (x86)\gnu tools arm embedded\6 2017-q2-update\arm-none-eabi\include\c++\6.3.1\cmath **** #undef fmal
1023:c:\program files (x86)\gnu tools arm embedded\6 2017-q2-update\arm-none-eabi\include\c++\6.3.1\cmath **** #undef fmax
1024:c:\program files (x86)\gnu tools arm embedded\6 2017-q2-update\arm-none-eabi\include\c++\6.3.1\cmath **** #undef fmaxf
1025:c:\program files (x86)\gnu tools arm embedded\6 2017-q2-update\arm-none-eabi\include\c++\6.3.1\cmath **** #undef fmaxl
1026:c:\program files (x86)\gnu tools arm embedded\6 2017-q2-update\arm-none-eabi\include\c++\6.3.1\cmath **** #undef fmin
1027:c:\program files (x86)\gnu tools arm embedded\6 2017-q2-update\arm-none-eabi\include\c++\6.3.1\cmath **** #undef fminf
1028:c:\program files (x86)\gnu tools arm embedded\6 2017-q2-update\arm-none-eabi\include\c++\6.3.1\cmath **** #undef fminl
1029:c:\program files (x86)\gnu tools arm embedded\6 2017-q2-update\arm-none-eabi\include\c++\6.3.1\cmath **** #undef hypot
1030:c:\program files (x86)\gnu tools arm embedded\6 2017-q2-update\arm-none-eabi\include\c++\6.3.1\cmath **** #undef hypotf
1031:c:\program files (x86)\gnu tools arm embedded\6 2017-q2-update\arm-none-eabi\include\c++\6.3.1\cmath **** #undef hypotl
1032:c:\program files (x86)\gnu tools arm embedded\6 2017-q2-update\arm-none-eabi\include\c++\6.3.1\cmath **** #undef ilogb
1033:c:\program files (x86)\gnu tools arm embedded\6 2017-q2-update\arm-none-eabi\include\c++\6.3.1\cmath **** #undef ilogbf
1034:c:\program files (x86)\gnu tools arm embedded\6 2017-q2-update\arm-none-eabi\include\c++\6.3.1\cmath **** #undef ilogbl
1035:c:\program files (x86)\gnu tools arm embedded\6 2017-q2-update\arm-none-eabi\include\c++\6.3.1\cmath **** #undef lgamma
1036:c:\program files (x86)\gnu tools arm embedded\6 2017-q2-update\arm-none-eabi\include\c++\6.3.1\cmath **** #undef lgammaf
1037:c:\program files (x86)\gnu tools arm embedded\6 2017-q2-update\arm-none-eabi\include\c++\6.3.1\cmath **** #undef lgammal
1038:c:\program files (x86)\gnu tools arm embedded\6 2017-q2-update\arm-none-eabi\include\c++\6.3.1\cmath **** #undef llrint
1039:c:\program files (x86)\gnu tools arm embedded\6 2017-q2-update\arm-none-eabi\include\c++\6.3.1\cmath **** #undef llrintf
1040:c:\program files (x86)\gnu tools arm embedded\6 2017-q2-update\arm-none-eabi\include\c++\6.3.1\cmath **** #undef llrintl
1041:c:\program files (x86)\gnu tools arm embedded\6 2017-q2-update\arm-none-eabi\include\c++\6.3.1\cmath **** #undef llround
1042:c:\program files (x86)\gnu tools arm embedded\6 2017-q2-update\arm-none-eabi\include\c++\6.3.1\cmath **** #undef llroundf
1043:c:\program files (x86)\gnu tools arm embedded\6 2017-q2-update\arm-none-eabi\include\c++\6.3.1\cmath **** #undef llroundl
1044:c:\program files (x86)\gnu tools arm embedded\6 2017-q2-update\arm-none-eabi\include\c++\6.3.1\cmath **** #undef log1p
1045:c:\program files (x86)\gnu tools arm embedded\6 2017-q2-update\arm-none-eabi\include\c++\6.3.1\cmath **** #undef log1pf
1046:c:\program files (x86)\gnu tools arm embedded\6 2017-q2-update\arm-none-eabi\include\c++\6.3.1\cmath **** #undef log1pl
1047:c:\program files (x86)\gnu tools arm embedded\6 2017-q2-update\arm-none-eabi\include\c++\6.3.1\cmath **** #undef log2
1048:c:\program files (x86)\gnu tools arm embedded\6 2017-q2-update\arm-none-eabi\include\c++\6.3.1\cmath **** #undef log2f
1049:c:\program files (x86)\gnu tools arm embedded\6 2017-q2-update\arm-none-eabi\include\c++\6.3.1\cmath **** #undef log2l
1050:c:\program files (x86)\gnu tools arm embedded\6 2017-q2-update\arm-none-eabi\include\c++\6.3.1\cmath **** #undef logb
1051:c:\program files (x86)\gnu tools arm embedded\6 2017-q2-update\arm-none-eabi\include\c++\6.3.1\cmath **** #undef logbf
1052:c:\program files (x86)\gnu tools arm embedded\6 2017-q2-update\arm-none-eabi\include\c++\6.3.1\cmath **** #undef logbl
1053:c:\program files (x86)\gnu tools arm embedded\6 2017-q2-update\arm-none-eabi\include\c++\6.3.1\cmath **** #undef lrint
1054:c:\program files (x86)\gnu tools arm embedded\6 2017-q2-update\arm-none-eabi\include\c++\6.3.1\cmath **** #undef lrintf
1055:c:\program files (x86)\gnu tools arm embedded\6 2017-q2-update\arm-none-eabi\include\c++\6.3.1\cmath **** #undef lrintl
1056:c:\program files (x86)\gnu tools arm embedded\6 2017-q2-update\arm-none-eabi\include\c++\6.3.1\cmath **** #undef lround
1057:c:\program files (x86)\gnu tools arm embedded\6 2017-q2-update\arm-none-eabi\include\c++\6.3.1\cmath **** #undef lroundf
1058:c:\program files (x86)\gnu tools arm embedded\6 2017-q2-update\arm-none-eabi\include\c++\6.3.1\cmath **** #undef lroundl
1059:c:\program files (x86)\gnu tools arm embedded\6 2017-q2-update\arm-none-eabi\include\c++\6.3.1\cmath **** #undef nan
1060:c:\program files (x86)\gnu tools arm embedded\6 2017-q2-update\arm-none-eabi\include\c++\6.3.1\cmath **** #undef nanf
1061:c:\program files (x86)\gnu tools arm embedded\6 2017-q2-update\arm-none-eabi\include\c++\6.3.1\cmath **** #undef nanl
1062:c:\program files (x86)\gnu tools arm embedded\6 2017-q2-update\arm-none-eabi\include\c++\6.3.1\cmath **** #undef nearbyint
1063:c:\program files (x86)\gnu tools arm embedded\6 2017-q2-update\arm-none-eabi\include\c++\6.3.1\cmath **** #undef nearbyintf
1064:c:\program files (x86)\gnu tools arm embedded\6 2017-q2-update\arm-none-eabi\include\c++\6.3.1\cmath **** #undef nearbyintl
1065:c:\program files (x86)\gnu tools arm embedded\6 2017-q2-update\arm-none-eabi\include\c++\6.3.1\cmath **** #undef nextafter
1066:c:\program files (x86)\gnu tools arm embedded\6 2017-q2-update\arm-none-eabi\include\c++\6.3.1\cmath **** #undef nextafterf
1067:c:\program files (x86)\gnu tools arm embedded\6 2017-q2-update\arm-none-eabi\include\c++\6.3.1\cmath **** #undef nextafterl
1068:c:\program files (x86)\gnu tools arm embedded\6 2017-q2-update\arm-none-eabi\include\c++\6.3.1\cmath **** #undef nexttoward
1069:c:\program files (x86)\gnu tools arm embedded\6 2017-q2-update\arm-none-eabi\include\c++\6.3.1\cmath **** #undef nexttowardf
1070:c:\program files (x86)\gnu tools arm embedded\6 2017-q2-update\arm-none-eabi\include\c++\6.3.1\cmath **** #undef nexttowardl
1071:c:\program files (x86)\gnu tools arm embedded\6 2017-q2-update\arm-none-eabi\include\c++\6.3.1\cmath **** #undef remainder
1072:c:\program files (x86)\gnu tools arm embedded\6 2017-q2-update\arm-none-eabi\include\c++\6.3.1\cmath **** #undef remainderf
1073:c:\program files (x86)\gnu tools arm embedded\6 2017-q2-update\arm-none-eabi\include\c++\6.3.1\cmath **** #undef remainderl
1074:c:\program files (x86)\gnu tools arm embedded\6 2017-q2-update\arm-none-eabi\include\c++\6.3.1\cmath **** #undef remquo
1075:c:\program files (x86)\gnu tools arm embedded\6 2017-q2-update\arm-none-eabi\include\c++\6.3.1\cmath **** #undef remquof
1076:c:\program files (x86)\gnu tools arm embedded\6 2017-q2-update\arm-none-eabi\include\c++\6.3.1\cmath **** #undef remquol
1077:c:\program files (x86)\gnu tools arm embedded\6 2017-q2-update\arm-none-eabi\include\c++\6.3.1\cmath **** #undef rint
1078:c:\program files (x86)\gnu tools arm embedded\6 2017-q2-update\arm-none-eabi\include\c++\6.3.1\cmath **** #undef rintf
1079:c:\program files (x86)\gnu tools arm embedded\6 2017-q2-update\arm-none-eabi\include\c++\6.3.1\cmath **** #undef rintl
1080:c:\program files (x86)\gnu tools arm embedded\6 2017-q2-update\arm-none-eabi\include\c++\6.3.1\cmath **** #undef round
1081:c:\program files (x86)\gnu tools arm embedded\6 2017-q2-update\arm-none-eabi\include\c++\6.3.1\cmath **** #undef roundf
1082:c:\program files (x86)\gnu tools arm embedded\6 2017-q2-update\arm-none-eabi\include\c++\6.3.1\cmath **** #undef roundl
1083:c:\program files (x86)\gnu tools arm embedded\6 2017-q2-update\arm-none-eabi\include\c++\6.3.1\cmath **** #undef scalbln
1084:c:\program files (x86)\gnu tools arm embedded\6 2017-q2-update\arm-none-eabi\include\c++\6.3.1\cmath **** #undef scalblnf
1085:c:\program files (x86)\gnu tools arm embedded\6 2017-q2-update\arm-none-eabi\include\c++\6.3.1\cmath **** #undef scalblnl
1086:c:\program files (x86)\gnu tools arm embedded\6 2017-q2-update\arm-none-eabi\include\c++\6.3.1\cmath **** #undef scalbn
1087:c:\program files (x86)\gnu tools arm embedded\6 2017-q2-update\arm-none-eabi\include\c++\6.3.1\cmath **** #undef scalbnf
1088:c:\program files (x86)\gnu tools arm embedded\6 2017-q2-update\arm-none-eabi\include\c++\6.3.1\cmath **** #undef scalbnl
1089:c:\program files (x86)\gnu tools arm embedded\6 2017-q2-update\arm-none-eabi\include\c++\6.3.1\cmath **** #undef tgamma
1090:c:\program files (x86)\gnu tools arm embedded\6 2017-q2-update\arm-none-eabi\include\c++\6.3.1\cmath **** #undef tgammaf
1091:c:\program files (x86)\gnu tools arm embedded\6 2017-q2-update\arm-none-eabi\include\c++\6.3.1\cmath **** #undef tgammal
1092:c:\program files (x86)\gnu tools arm embedded\6 2017-q2-update\arm-none-eabi\include\c++\6.3.1\cmath **** #undef trunc
1093:c:\program files (x86)\gnu tools arm embedded\6 2017-q2-update\arm-none-eabi\include\c++\6.3.1\cmath **** #undef truncf
1094:c:\program files (x86)\gnu tools arm embedded\6 2017-q2-update\arm-none-eabi\include\c++\6.3.1\cmath **** #undef truncl
1095:c:\program files (x86)\gnu tools arm embedded\6 2017-q2-update\arm-none-eabi\include\c++\6.3.1\cmath **** 
1096:c:\program files (x86)\gnu tools arm embedded\6 2017-q2-update\arm-none-eabi\include\c++\6.3.1\cmath **** namespace std _GLIBCXX_VISIBILITY(default)
1097:c:\program files (x86)\gnu tools arm embedded\6 2017-q2-update\arm-none-eabi\include\c++\6.3.1\cmath **** {
1098:c:\program files (x86)\gnu tools arm embedded\6 2017-q2-update\arm-none-eabi\include\c++\6.3.1\cmath **** _GLIBCXX_BEGIN_NAMESPACE_VERSION
1099:c:\program files (x86)\gnu tools arm embedded\6 2017-q2-update\arm-none-eabi\include\c++\6.3.1\cmath **** 
1100:c:\program files (x86)\gnu tools arm embedded\6 2017-q2-update\arm-none-eabi\include\c++\6.3.1\cmath ****   // types
1101:c:\program files (x86)\gnu tools arm embedded\6 2017-q2-update\arm-none-eabi\include\c++\6.3.1\cmath ****   using ::double_t;
1102:c:\program files (x86)\gnu tools arm embedded\6 2017-q2-update\arm-none-eabi\include\c++\6.3.1\cmath ****   using ::float_t;
1103:c:\program files (x86)\gnu tools arm embedded\6 2017-q2-update\arm-none-eabi\include\c++\6.3.1\cmath **** 
1104:c:\program files (x86)\gnu tools arm embedded\6 2017-q2-update\arm-none-eabi\include\c++\6.3.1\cmath ****   // functions
1105:c:\program files (x86)\gnu tools arm embedded\6 2017-q2-update\arm-none-eabi\include\c++\6.3.1\cmath ****   using ::acosh;
1106:c:\program files (x86)\gnu tools arm embedded\6 2017-q2-update\arm-none-eabi\include\c++\6.3.1\cmath ****   using ::acoshf;
1107:c:\program files (x86)\gnu tools arm embedded\6 2017-q2-update\arm-none-eabi\include\c++\6.3.1\cmath ****   using ::acoshl;
1108:c:\program files (x86)\gnu tools arm embedded\6 2017-q2-update\arm-none-eabi\include\c++\6.3.1\cmath **** 
1109:c:\program files (x86)\gnu tools arm embedded\6 2017-q2-update\arm-none-eabi\include\c++\6.3.1\cmath ****   using ::asinh;
1110:c:\program files (x86)\gnu tools arm embedded\6 2017-q2-update\arm-none-eabi\include\c++\6.3.1\cmath ****   using ::asinhf;
1111:c:\program files (x86)\gnu tools arm embedded\6 2017-q2-update\arm-none-eabi\include\c++\6.3.1\cmath ****   using ::asinhl;
1112:c:\program files (x86)\gnu tools arm embedded\6 2017-q2-update\arm-none-eabi\include\c++\6.3.1\cmath **** 
1113:c:\program files (x86)\gnu tools arm embedded\6 2017-q2-update\arm-none-eabi\include\c++\6.3.1\cmath ****   using ::atanh;
1114:c:\program files (x86)\gnu tools arm embedded\6 2017-q2-update\arm-none-eabi\include\c++\6.3.1\cmath ****   using ::atanhf;
1115:c:\program files (x86)\gnu tools arm embedded\6 2017-q2-update\arm-none-eabi\include\c++\6.3.1\cmath ****   using ::atanhl;
1116:c:\program files (x86)\gnu tools arm embedded\6 2017-q2-update\arm-none-eabi\include\c++\6.3.1\cmath **** 
1117:c:\program files (x86)\gnu tools arm embedded\6 2017-q2-update\arm-none-eabi\include\c++\6.3.1\cmath ****   using ::cbrt;
1118:c:\program files (x86)\gnu tools arm embedded\6 2017-q2-update\arm-none-eabi\include\c++\6.3.1\cmath ****   using ::cbrtf;
1119:c:\program files (x86)\gnu tools arm embedded\6 2017-q2-update\arm-none-eabi\include\c++\6.3.1\cmath ****   using ::cbrtl;
1120:c:\program files (x86)\gnu tools arm embedded\6 2017-q2-update\arm-none-eabi\include\c++\6.3.1\cmath **** 
1121:c:\program files (x86)\gnu tools arm embedded\6 2017-q2-update\arm-none-eabi\include\c++\6.3.1\cmath ****   using ::copysign;
1122:c:\program files (x86)\gnu tools arm embedded\6 2017-q2-update\arm-none-eabi\include\c++\6.3.1\cmath ****   using ::copysignf;
1123:c:\program files (x86)\gnu tools arm embedded\6 2017-q2-update\arm-none-eabi\include\c++\6.3.1\cmath ****   using ::copysignl;
1124:c:\program files (x86)\gnu tools arm embedded\6 2017-q2-update\arm-none-eabi\include\c++\6.3.1\cmath **** 
1125:c:\program files (x86)\gnu tools arm embedded\6 2017-q2-update\arm-none-eabi\include\c++\6.3.1\cmath ****   using ::erf;
1126:c:\program files (x86)\gnu tools arm embedded\6 2017-q2-update\arm-none-eabi\include\c++\6.3.1\cmath ****   using ::erff;
1127:c:\program files (x86)\gnu tools arm embedded\6 2017-q2-update\arm-none-eabi\include\c++\6.3.1\cmath ****   using ::erfl;
1128:c:\program files (x86)\gnu tools arm embedded\6 2017-q2-update\arm-none-eabi\include\c++\6.3.1\cmath **** 
1129:c:\program files (x86)\gnu tools arm embedded\6 2017-q2-update\arm-none-eabi\include\c++\6.3.1\cmath ****   using ::erfc;
1130:c:\program files (x86)\gnu tools arm embedded\6 2017-q2-update\arm-none-eabi\include\c++\6.3.1\cmath ****   using ::erfcf;
1131:c:\program files (x86)\gnu tools arm embedded\6 2017-q2-update\arm-none-eabi\include\c++\6.3.1\cmath ****   using ::erfcl;
1132:c:\program files (x86)\gnu tools arm embedded\6 2017-q2-update\arm-none-eabi\include\c++\6.3.1\cmath **** 
1133:c:\program files (x86)\gnu tools arm embedded\6 2017-q2-update\arm-none-eabi\include\c++\6.3.1\cmath ****   using ::exp2;
1134:c:\program files (x86)\gnu tools arm embedded\6 2017-q2-update\arm-none-eabi\include\c++\6.3.1\cmath ****   using ::exp2f;
1135:c:\program files (x86)\gnu tools arm embedded\6 2017-q2-update\arm-none-eabi\include\c++\6.3.1\cmath ****   using ::exp2l;
1136:c:\program files (x86)\gnu tools arm embedded\6 2017-q2-update\arm-none-eabi\include\c++\6.3.1\cmath **** 
1137:c:\program files (x86)\gnu tools arm embedded\6 2017-q2-update\arm-none-eabi\include\c++\6.3.1\cmath ****   using ::expm1;
1138:c:\program files (x86)\gnu tools arm embedded\6 2017-q2-update\arm-none-eabi\include\c++\6.3.1\cmath ****   using ::expm1f;
1139:c:\program files (x86)\gnu tools arm embedded\6 2017-q2-update\arm-none-eabi\include\c++\6.3.1\cmath ****   using ::expm1l;
1140:c:\program files (x86)\gnu tools arm embedded\6 2017-q2-update\arm-none-eabi\include\c++\6.3.1\cmath **** 
1141:c:\program files (x86)\gnu tools arm embedded\6 2017-q2-update\arm-none-eabi\include\c++\6.3.1\cmath ****   using ::fdim;
1142:c:\program files (x86)\gnu tools arm embedded\6 2017-q2-update\arm-none-eabi\include\c++\6.3.1\cmath ****   using ::fdimf;
1143:c:\program files (x86)\gnu tools arm embedded\6 2017-q2-update\arm-none-eabi\include\c++\6.3.1\cmath ****   using ::fdiml;
1144:c:\program files (x86)\gnu tools arm embedded\6 2017-q2-update\arm-none-eabi\include\c++\6.3.1\cmath **** 
1145:c:\program files (x86)\gnu tools arm embedded\6 2017-q2-update\arm-none-eabi\include\c++\6.3.1\cmath ****   using ::fma;
1146:c:\program files (x86)\gnu tools arm embedded\6 2017-q2-update\arm-none-eabi\include\c++\6.3.1\cmath ****   using ::fmaf;
1147:c:\program files (x86)\gnu tools arm embedded\6 2017-q2-update\arm-none-eabi\include\c++\6.3.1\cmath ****   using ::fmal;
1148:c:\program files (x86)\gnu tools arm embedded\6 2017-q2-update\arm-none-eabi\include\c++\6.3.1\cmath **** 
1149:c:\program files (x86)\gnu tools arm embedded\6 2017-q2-update\arm-none-eabi\include\c++\6.3.1\cmath ****   using ::fmax;
1150:c:\program files (x86)\gnu tools arm embedded\6 2017-q2-update\arm-none-eabi\include\c++\6.3.1\cmath ****   using ::fmaxf;
1151:c:\program files (x86)\gnu tools arm embedded\6 2017-q2-update\arm-none-eabi\include\c++\6.3.1\cmath ****   using ::fmaxl;
1152:c:\program files (x86)\gnu tools arm embedded\6 2017-q2-update\arm-none-eabi\include\c++\6.3.1\cmath **** 
1153:c:\program files (x86)\gnu tools arm embedded\6 2017-q2-update\arm-none-eabi\include\c++\6.3.1\cmath ****   using ::fmin;
1154:c:\program files (x86)\gnu tools arm embedded\6 2017-q2-update\arm-none-eabi\include\c++\6.3.1\cmath ****   using ::fminf;
1155:c:\program files (x86)\gnu tools arm embedded\6 2017-q2-update\arm-none-eabi\include\c++\6.3.1\cmath ****   using ::fminl;
1156:c:\program files (x86)\gnu tools arm embedded\6 2017-q2-update\arm-none-eabi\include\c++\6.3.1\cmath **** 
1157:c:\program files (x86)\gnu tools arm embedded\6 2017-q2-update\arm-none-eabi\include\c++\6.3.1\cmath ****   using ::hypot;
1158:c:\program files (x86)\gnu tools arm embedded\6 2017-q2-update\arm-none-eabi\include\c++\6.3.1\cmath ****   using ::hypotf;
1159:c:\program files (x86)\gnu tools arm embedded\6 2017-q2-update\arm-none-eabi\include\c++\6.3.1\cmath ****   using ::hypotl;
1160:c:\program files (x86)\gnu tools arm embedded\6 2017-q2-update\arm-none-eabi\include\c++\6.3.1\cmath **** 
1161:c:\program files (x86)\gnu tools arm embedded\6 2017-q2-update\arm-none-eabi\include\c++\6.3.1\cmath ****   using ::ilogb;
1162:c:\program files (x86)\gnu tools arm embedded\6 2017-q2-update\arm-none-eabi\include\c++\6.3.1\cmath ****   using ::ilogbf;
1163:c:\program files (x86)\gnu tools arm embedded\6 2017-q2-update\arm-none-eabi\include\c++\6.3.1\cmath ****   using ::ilogbl;
1164:c:\program files (x86)\gnu tools arm embedded\6 2017-q2-update\arm-none-eabi\include\c++\6.3.1\cmath **** 
1165:c:\program files (x86)\gnu tools arm embedded\6 2017-q2-update\arm-none-eabi\include\c++\6.3.1\cmath ****   using ::lgamma;
1166:c:\program files (x86)\gnu tools arm embedded\6 2017-q2-update\arm-none-eabi\include\c++\6.3.1\cmath ****   using ::lgammaf;
1167:c:\program files (x86)\gnu tools arm embedded\6 2017-q2-update\arm-none-eabi\include\c++\6.3.1\cmath ****   using ::lgammal;
1168:c:\program files (x86)\gnu tools arm embedded\6 2017-q2-update\arm-none-eabi\include\c++\6.3.1\cmath **** 
1169:c:\program files (x86)\gnu tools arm embedded\6 2017-q2-update\arm-none-eabi\include\c++\6.3.1\cmath ****   using ::llrint;
1170:c:\program files (x86)\gnu tools arm embedded\6 2017-q2-update\arm-none-eabi\include\c++\6.3.1\cmath ****   using ::llrintf;
1171:c:\program files (x86)\gnu tools arm embedded\6 2017-q2-update\arm-none-eabi\include\c++\6.3.1\cmath ****   using ::llrintl;
1172:c:\program files (x86)\gnu tools arm embedded\6 2017-q2-update\arm-none-eabi\include\c++\6.3.1\cmath **** 
1173:c:\program files (x86)\gnu tools arm embedded\6 2017-q2-update\arm-none-eabi\include\c++\6.3.1\cmath ****   using ::llround;
1174:c:\program files (x86)\gnu tools arm embedded\6 2017-q2-update\arm-none-eabi\include\c++\6.3.1\cmath ****   using ::llroundf;
1175:c:\program files (x86)\gnu tools arm embedded\6 2017-q2-update\arm-none-eabi\include\c++\6.3.1\cmath ****   using ::llroundl;
1176:c:\program files (x86)\gnu tools arm embedded\6 2017-q2-update\arm-none-eabi\include\c++\6.3.1\cmath **** 
1177:c:\program files (x86)\gnu tools arm embedded\6 2017-q2-update\arm-none-eabi\include\c++\6.3.1\cmath ****   using ::log1p;
1178:c:\program files (x86)\gnu tools arm embedded\6 2017-q2-update\arm-none-eabi\include\c++\6.3.1\cmath ****   using ::log1pf;
1179:c:\program files (x86)\gnu tools arm embedded\6 2017-q2-update\arm-none-eabi\include\c++\6.3.1\cmath ****   using ::log1pl;
1180:c:\program files (x86)\gnu tools arm embedded\6 2017-q2-update\arm-none-eabi\include\c++\6.3.1\cmath **** 
1181:c:\program files (x86)\gnu tools arm embedded\6 2017-q2-update\arm-none-eabi\include\c++\6.3.1\cmath ****   using ::log2;
1182:c:\program files (x86)\gnu tools arm embedded\6 2017-q2-update\arm-none-eabi\include\c++\6.3.1\cmath ****   using ::log2f;
1183:c:\program files (x86)\gnu tools arm embedded\6 2017-q2-update\arm-none-eabi\include\c++\6.3.1\cmath ****   using ::log2l;
1184:c:\program files (x86)\gnu tools arm embedded\6 2017-q2-update\arm-none-eabi\include\c++\6.3.1\cmath **** 
1185:c:\program files (x86)\gnu tools arm embedded\6 2017-q2-update\arm-none-eabi\include\c++\6.3.1\cmath ****   using ::logb;
1186:c:\program files (x86)\gnu tools arm embedded\6 2017-q2-update\arm-none-eabi\include\c++\6.3.1\cmath ****   using ::logbf;
1187:c:\program files (x86)\gnu tools arm embedded\6 2017-q2-update\arm-none-eabi\include\c++\6.3.1\cmath ****   using ::logbl;
1188:c:\program files (x86)\gnu tools arm embedded\6 2017-q2-update\arm-none-eabi\include\c++\6.3.1\cmath **** 
1189:c:\program files (x86)\gnu tools arm embedded\6 2017-q2-update\arm-none-eabi\include\c++\6.3.1\cmath ****   using ::lrint;
1190:c:\program files (x86)\gnu tools arm embedded\6 2017-q2-update\arm-none-eabi\include\c++\6.3.1\cmath ****   using ::lrintf;
1191:c:\program files (x86)\gnu tools arm embedded\6 2017-q2-update\arm-none-eabi\include\c++\6.3.1\cmath ****   using ::lrintl;
1192:c:\program files (x86)\gnu tools arm embedded\6 2017-q2-update\arm-none-eabi\include\c++\6.3.1\cmath **** 
1193:c:\program files (x86)\gnu tools arm embedded\6 2017-q2-update\arm-none-eabi\include\c++\6.3.1\cmath ****   using ::lround;
1194:c:\program files (x86)\gnu tools arm embedded\6 2017-q2-update\arm-none-eabi\include\c++\6.3.1\cmath ****   using ::lroundf;
1195:c:\program files (x86)\gnu tools arm embedded\6 2017-q2-update\arm-none-eabi\include\c++\6.3.1\cmath ****   using ::lroundl;
1196:c:\program files (x86)\gnu tools arm embedded\6 2017-q2-update\arm-none-eabi\include\c++\6.3.1\cmath **** 
1197:c:\program files (x86)\gnu tools arm embedded\6 2017-q2-update\arm-none-eabi\include\c++\6.3.1\cmath ****   using ::nan;
1198:c:\program files (x86)\gnu tools arm embedded\6 2017-q2-update\arm-none-eabi\include\c++\6.3.1\cmath ****   using ::nanf;
1199:c:\program files (x86)\gnu tools arm embedded\6 2017-q2-update\arm-none-eabi\include\c++\6.3.1\cmath ****   using ::nanl;
1200:c:\program files (x86)\gnu tools arm embedded\6 2017-q2-update\arm-none-eabi\include\c++\6.3.1\cmath **** 
1201:c:\program files (x86)\gnu tools arm embedded\6 2017-q2-update\arm-none-eabi\include\c++\6.3.1\cmath ****   using ::nearbyint;
1202:c:\program files (x86)\gnu tools arm embedded\6 2017-q2-update\arm-none-eabi\include\c++\6.3.1\cmath ****   using ::nearbyintf;
1203:c:\program files (x86)\gnu tools arm embedded\6 2017-q2-update\arm-none-eabi\include\c++\6.3.1\cmath ****   using ::nearbyintl;
1204:c:\program files (x86)\gnu tools arm embedded\6 2017-q2-update\arm-none-eabi\include\c++\6.3.1\cmath **** 
1205:c:\program files (x86)\gnu tools arm embedded\6 2017-q2-update\arm-none-eabi\include\c++\6.3.1\cmath ****   using ::nextafter;
1206:c:\program files (x86)\gnu tools arm embedded\6 2017-q2-update\arm-none-eabi\include\c++\6.3.1\cmath ****   using ::nextafterf;
1207:c:\program files (x86)\gnu tools arm embedded\6 2017-q2-update\arm-none-eabi\include\c++\6.3.1\cmath ****   using ::nextafterl;
1208:c:\program files (x86)\gnu tools arm embedded\6 2017-q2-update\arm-none-eabi\include\c++\6.3.1\cmath **** 
1209:c:\program files (x86)\gnu tools arm embedded\6 2017-q2-update\arm-none-eabi\include\c++\6.3.1\cmath ****   using ::nexttoward;
1210:c:\program files (x86)\gnu tools arm embedded\6 2017-q2-update\arm-none-eabi\include\c++\6.3.1\cmath ****   using ::nexttowardf;
1211:c:\program files (x86)\gnu tools arm embedded\6 2017-q2-update\arm-none-eabi\include\c++\6.3.1\cmath ****   using ::nexttowardl;
1212:c:\program files (x86)\gnu tools arm embedded\6 2017-q2-update\arm-none-eabi\include\c++\6.3.1\cmath **** 
1213:c:\program files (x86)\gnu tools arm embedded\6 2017-q2-update\arm-none-eabi\include\c++\6.3.1\cmath ****   using ::remainder;
1214:c:\program files (x86)\gnu tools arm embedded\6 2017-q2-update\arm-none-eabi\include\c++\6.3.1\cmath ****   using ::remainderf;
1215:c:\program files (x86)\gnu tools arm embedded\6 2017-q2-update\arm-none-eabi\include\c++\6.3.1\cmath ****   using ::remainderl;
1216:c:\program files (x86)\gnu tools arm embedded\6 2017-q2-update\arm-none-eabi\include\c++\6.3.1\cmath **** 
1217:c:\program files (x86)\gnu tools arm embedded\6 2017-q2-update\arm-none-eabi\include\c++\6.3.1\cmath ****   using ::remquo;
1218:c:\program files (x86)\gnu tools arm embedded\6 2017-q2-update\arm-none-eabi\include\c++\6.3.1\cmath ****   using ::remquof;
1219:c:\program files (x86)\gnu tools arm embedded\6 2017-q2-update\arm-none-eabi\include\c++\6.3.1\cmath ****   using ::remquol;
1220:c:\program files (x86)\gnu tools arm embedded\6 2017-q2-update\arm-none-eabi\include\c++\6.3.1\cmath **** 
1221:c:\program files (x86)\gnu tools arm embedded\6 2017-q2-update\arm-none-eabi\include\c++\6.3.1\cmath ****   using ::rint;
1222:c:\program files (x86)\gnu tools arm embedded\6 2017-q2-update\arm-none-eabi\include\c++\6.3.1\cmath ****   using ::rintf;
1223:c:\program files (x86)\gnu tools arm embedded\6 2017-q2-update\arm-none-eabi\include\c++\6.3.1\cmath ****   using ::rintl;
1224:c:\program files (x86)\gnu tools arm embedded\6 2017-q2-update\arm-none-eabi\include\c++\6.3.1\cmath **** 
1225:c:\program files (x86)\gnu tools arm embedded\6 2017-q2-update\arm-none-eabi\include\c++\6.3.1\cmath ****   using ::round;
1226:c:\program files (x86)\gnu tools arm embedded\6 2017-q2-update\arm-none-eabi\include\c++\6.3.1\cmath ****   using ::roundf;
1227:c:\program files (x86)\gnu tools arm embedded\6 2017-q2-update\arm-none-eabi\include\c++\6.3.1\cmath ****   using ::roundl;
1228:c:\program files (x86)\gnu tools arm embedded\6 2017-q2-update\arm-none-eabi\include\c++\6.3.1\cmath **** 
1229:c:\program files (x86)\gnu tools arm embedded\6 2017-q2-update\arm-none-eabi\include\c++\6.3.1\cmath ****   using ::scalbln;
1230:c:\program files (x86)\gnu tools arm embedded\6 2017-q2-update\arm-none-eabi\include\c++\6.3.1\cmath ****   using ::scalblnf;
1231:c:\program files (x86)\gnu tools arm embedded\6 2017-q2-update\arm-none-eabi\include\c++\6.3.1\cmath ****   using ::scalblnl;
1232:c:\program files (x86)\gnu tools arm embedded\6 2017-q2-update\arm-none-eabi\include\c++\6.3.1\cmath **** 
1233:c:\program files (x86)\gnu tools arm embedded\6 2017-q2-update\arm-none-eabi\include\c++\6.3.1\cmath ****   using ::scalbn;
1234:c:\program files (x86)\gnu tools arm embedded\6 2017-q2-update\arm-none-eabi\include\c++\6.3.1\cmath ****   using ::scalbnf;
1235:c:\program files (x86)\gnu tools arm embedded\6 2017-q2-update\arm-none-eabi\include\c++\6.3.1\cmath ****   using ::scalbnl;
1236:c:\program files (x86)\gnu tools arm embedded\6 2017-q2-update\arm-none-eabi\include\c++\6.3.1\cmath **** 
1237:c:\program files (x86)\gnu tools arm embedded\6 2017-q2-update\arm-none-eabi\include\c++\6.3.1\cmath ****   using ::tgamma;
1238:c:\program files (x86)\gnu tools arm embedded\6 2017-q2-update\arm-none-eabi\include\c++\6.3.1\cmath ****   using ::tgammaf;
1239:c:\program files (x86)\gnu tools arm embedded\6 2017-q2-update\arm-none-eabi\include\c++\6.3.1\cmath ****   using ::tgammal;
1240:c:\program files (x86)\gnu tools arm embedded\6 2017-q2-update\arm-none-eabi\include\c++\6.3.1\cmath **** 
1241:c:\program files (x86)\gnu tools arm embedded\6 2017-q2-update\arm-none-eabi\include\c++\6.3.1\cmath ****   using ::trunc;
1242:c:\program files (x86)\gnu tools arm embedded\6 2017-q2-update\arm-none-eabi\include\c++\6.3.1\cmath ****   using ::truncf;
1243:c:\program files (x86)\gnu tools arm embedded\6 2017-q2-update\arm-none-eabi\include\c++\6.3.1\cmath ****   using ::truncl;
1244:c:\program files (x86)\gnu tools arm embedded\6 2017-q2-update\arm-none-eabi\include\c++\6.3.1\cmath **** 
1245:c:\program files (x86)\gnu tools arm embedded\6 2017-q2-update\arm-none-eabi\include\c++\6.3.1\cmath ****   /// Additional overloads.
1246:c:\program files (x86)\gnu tools arm embedded\6 2017-q2-update\arm-none-eabi\include\c++\6.3.1\cmath **** #ifndef __CORRECT_ISO_CPP11_MATH_H_PROTO_FP
1247:c:\program files (x86)\gnu tools arm embedded\6 2017-q2-update\arm-none-eabi\include\c++\6.3.1\cmath ****   constexpr float
1248:c:\program files (x86)\gnu tools arm embedded\6 2017-q2-update\arm-none-eabi\include\c++\6.3.1\cmath ****   acosh(float __x)
1249:c:\program files (x86)\gnu tools arm embedded\6 2017-q2-update\arm-none-eabi\include\c++\6.3.1\cmath ****   { return __builtin_acoshf(__x); }
1250:c:\program files (x86)\gnu tools arm embedded\6 2017-q2-update\arm-none-eabi\include\c++\6.3.1\cmath **** 
1251:c:\program files (x86)\gnu tools arm embedded\6 2017-q2-update\arm-none-eabi\include\c++\6.3.1\cmath ****   constexpr long double
1252:c:\program files (x86)\gnu tools arm embedded\6 2017-q2-update\arm-none-eabi\include\c++\6.3.1\cmath ****   acosh(long double __x)
1253:c:\program files (x86)\gnu tools arm embedded\6 2017-q2-update\arm-none-eabi\include\c++\6.3.1\cmath ****   { return __builtin_acoshl(__x); }
1254:c:\program files (x86)\gnu tools arm embedded\6 2017-q2-update\arm-none-eabi\include\c++\6.3.1\cmath **** #endif
1255:c:\program files (x86)\gnu tools arm embedded\6 2017-q2-update\arm-none-eabi\include\c++\6.3.1\cmath **** 
1256:c:\program files (x86)\gnu tools arm embedded\6 2017-q2-update\arm-none-eabi\include\c++\6.3.1\cmath **** #ifndef __CORRECT_ISO_CPP11_MATH_H_PROTO_INT
1257:c:\program files (x86)\gnu tools arm embedded\6 2017-q2-update\arm-none-eabi\include\c++\6.3.1\cmath ****   template<typename _Tp>
1258:c:\program files (x86)\gnu tools arm embedded\6 2017-q2-update\arm-none-eabi\include\c++\6.3.1\cmath ****     constexpr typename __gnu_cxx::__enable_if<__is_integer<_Tp>::__value, 
1259:c:\program files (x86)\gnu tools arm embedded\6 2017-q2-update\arm-none-eabi\include\c++\6.3.1\cmath ****                                               double>::__type
1260:c:\program files (x86)\gnu tools arm embedded\6 2017-q2-update\arm-none-eabi\include\c++\6.3.1\cmath ****     acosh(_Tp __x)
1261:c:\program files (x86)\gnu tools arm embedded\6 2017-q2-update\arm-none-eabi\include\c++\6.3.1\cmath ****     { return __builtin_acosh(__x); }
1262:c:\program files (x86)\gnu tools arm embedded\6 2017-q2-update\arm-none-eabi\include\c++\6.3.1\cmath **** #endif
1263:c:\program files (x86)\gnu tools arm embedded\6 2017-q2-update\arm-none-eabi\include\c++\6.3.1\cmath **** 
1264:c:\program files (x86)\gnu tools arm embedded\6 2017-q2-update\arm-none-eabi\include\c++\6.3.1\cmath **** #ifndef __CORRECT_ISO_CPP11_MATH_H_PROTO_FP
1265:c:\program files (x86)\gnu tools arm embedded\6 2017-q2-update\arm-none-eabi\include\c++\6.3.1\cmath ****   constexpr float
1266:c:\program files (x86)\gnu tools arm embedded\6 2017-q2-update\arm-none-eabi\include\c++\6.3.1\cmath ****   asinh(float __x)
1267:c:\program files (x86)\gnu tools arm embedded\6 2017-q2-update\arm-none-eabi\include\c++\6.3.1\cmath ****   { return __builtin_asinhf(__x); }
1268:c:\program files (x86)\gnu tools arm embedded\6 2017-q2-update\arm-none-eabi\include\c++\6.3.1\cmath **** 
1269:c:\program files (x86)\gnu tools arm embedded\6 2017-q2-update\arm-none-eabi\include\c++\6.3.1\cmath ****   constexpr long double
1270:c:\program files (x86)\gnu tools arm embedded\6 2017-q2-update\arm-none-eabi\include\c++\6.3.1\cmath ****   asinh(long double __x)
1271:c:\program files (x86)\gnu tools arm embedded\6 2017-q2-update\arm-none-eabi\include\c++\6.3.1\cmath ****   { return __builtin_asinhl(__x); }
1272:c:\program files (x86)\gnu tools arm embedded\6 2017-q2-update\arm-none-eabi\include\c++\6.3.1\cmath **** #endif
1273:c:\program files (x86)\gnu tools arm embedded\6 2017-q2-update\arm-none-eabi\include\c++\6.3.1\cmath **** 
1274:c:\program files (x86)\gnu tools arm embedded\6 2017-q2-update\arm-none-eabi\include\c++\6.3.1\cmath **** #ifndef __CORRECT_ISO_CPP11_MATH_H_PROTO_INT
1275:c:\program files (x86)\gnu tools arm embedded\6 2017-q2-update\arm-none-eabi\include\c++\6.3.1\cmath ****   template<typename _Tp>
1276:c:\program files (x86)\gnu tools arm embedded\6 2017-q2-update\arm-none-eabi\include\c++\6.3.1\cmath ****     constexpr typename __gnu_cxx::__enable_if<__is_integer<_Tp>::__value, 
1277:c:\program files (x86)\gnu tools arm embedded\6 2017-q2-update\arm-none-eabi\include\c++\6.3.1\cmath ****                                               double>::__type
1278:c:\program files (x86)\gnu tools arm embedded\6 2017-q2-update\arm-none-eabi\include\c++\6.3.1\cmath ****     asinh(_Tp __x)
1279:c:\program files (x86)\gnu tools arm embedded\6 2017-q2-update\arm-none-eabi\include\c++\6.3.1\cmath ****     { return __builtin_asinh(__x); }
1280:c:\program files (x86)\gnu tools arm embedded\6 2017-q2-update\arm-none-eabi\include\c++\6.3.1\cmath **** #endif
1281:c:\program files (x86)\gnu tools arm embedded\6 2017-q2-update\arm-none-eabi\include\c++\6.3.1\cmath **** 
1282:c:\program files (x86)\gnu tools arm embedded\6 2017-q2-update\arm-none-eabi\include\c++\6.3.1\cmath **** #ifndef __CORRECT_ISO_CPP11_MATH_H_PROTO_FP
1283:c:\program files (x86)\gnu tools arm embedded\6 2017-q2-update\arm-none-eabi\include\c++\6.3.1\cmath ****   constexpr float
1284:c:\program files (x86)\gnu tools arm embedded\6 2017-q2-update\arm-none-eabi\include\c++\6.3.1\cmath ****   atanh(float __x)
1285:c:\program files (x86)\gnu tools arm embedded\6 2017-q2-update\arm-none-eabi\include\c++\6.3.1\cmath ****   { return __builtin_atanhf(__x); }
1286:c:\program files (x86)\gnu tools arm embedded\6 2017-q2-update\arm-none-eabi\include\c++\6.3.1\cmath **** 
1287:c:\program files (x86)\gnu tools arm embedded\6 2017-q2-update\arm-none-eabi\include\c++\6.3.1\cmath ****   constexpr long double
1288:c:\program files (x86)\gnu tools arm embedded\6 2017-q2-update\arm-none-eabi\include\c++\6.3.1\cmath ****   atanh(long double __x)
1289:c:\program files (x86)\gnu tools arm embedded\6 2017-q2-update\arm-none-eabi\include\c++\6.3.1\cmath ****   { return __builtin_atanhl(__x); }
1290:c:\program files (x86)\gnu tools arm embedded\6 2017-q2-update\arm-none-eabi\include\c++\6.3.1\cmath **** #endif
1291:c:\program files (x86)\gnu tools arm embedded\6 2017-q2-update\arm-none-eabi\include\c++\6.3.1\cmath **** 
1292:c:\program files (x86)\gnu tools arm embedded\6 2017-q2-update\arm-none-eabi\include\c++\6.3.1\cmath **** #ifndef __CORRECT_ISO_CPP11_MATH_H_PROTO_INT
1293:c:\program files (x86)\gnu tools arm embedded\6 2017-q2-update\arm-none-eabi\include\c++\6.3.1\cmath ****   template<typename _Tp>
1294:c:\program files (x86)\gnu tools arm embedded\6 2017-q2-update\arm-none-eabi\include\c++\6.3.1\cmath ****     constexpr typename __gnu_cxx::__enable_if<__is_integer<_Tp>::__value, 
1295:c:\program files (x86)\gnu tools arm embedded\6 2017-q2-update\arm-none-eabi\include\c++\6.3.1\cmath ****                                               double>::__type
1296:c:\program files (x86)\gnu tools arm embedded\6 2017-q2-update\arm-none-eabi\include\c++\6.3.1\cmath ****     atanh(_Tp __x)
1297:c:\program files (x86)\gnu tools arm embedded\6 2017-q2-update\arm-none-eabi\include\c++\6.3.1\cmath ****     { return __builtin_atanh(__x); }
1298:c:\program files (x86)\gnu tools arm embedded\6 2017-q2-update\arm-none-eabi\include\c++\6.3.1\cmath **** #endif
1299:c:\program files (x86)\gnu tools arm embedded\6 2017-q2-update\arm-none-eabi\include\c++\6.3.1\cmath **** 
1300:c:\program files (x86)\gnu tools arm embedded\6 2017-q2-update\arm-none-eabi\include\c++\6.3.1\cmath **** #ifndef __CORRECT_ISO_CPP11_MATH_H_PROTO_FP
1301:c:\program files (x86)\gnu tools arm embedded\6 2017-q2-update\arm-none-eabi\include\c++\6.3.1\cmath ****   constexpr float
1302:c:\program files (x86)\gnu tools arm embedded\6 2017-q2-update\arm-none-eabi\include\c++\6.3.1\cmath ****   cbrt(float __x)
1303:c:\program files (x86)\gnu tools arm embedded\6 2017-q2-update\arm-none-eabi\include\c++\6.3.1\cmath ****   { return __builtin_cbrtf(__x); }
1304:c:\program files (x86)\gnu tools arm embedded\6 2017-q2-update\arm-none-eabi\include\c++\6.3.1\cmath **** 
1305:c:\program files (x86)\gnu tools arm embedded\6 2017-q2-update\arm-none-eabi\include\c++\6.3.1\cmath ****   constexpr long double
1306:c:\program files (x86)\gnu tools arm embedded\6 2017-q2-update\arm-none-eabi\include\c++\6.3.1\cmath ****   cbrt(long double __x)
1307:c:\program files (x86)\gnu tools arm embedded\6 2017-q2-update\arm-none-eabi\include\c++\6.3.1\cmath ****   { return __builtin_cbrtl(__x); }
1308:c:\program files (x86)\gnu tools arm embedded\6 2017-q2-update\arm-none-eabi\include\c++\6.3.1\cmath **** #endif
1309:c:\program files (x86)\gnu tools arm embedded\6 2017-q2-update\arm-none-eabi\include\c++\6.3.1\cmath **** 
1310:c:\program files (x86)\gnu tools arm embedded\6 2017-q2-update\arm-none-eabi\include\c++\6.3.1\cmath **** #ifndef __CORRECT_ISO_CPP11_MATH_H_PROTO_INT
1311:c:\program files (x86)\gnu tools arm embedded\6 2017-q2-update\arm-none-eabi\include\c++\6.3.1\cmath ****   template<typename _Tp>
1312:c:\program files (x86)\gnu tools arm embedded\6 2017-q2-update\arm-none-eabi\include\c++\6.3.1\cmath ****     constexpr typename __gnu_cxx::__enable_if<__is_integer<_Tp>::__value, 
1313:c:\program files (x86)\gnu tools arm embedded\6 2017-q2-update\arm-none-eabi\include\c++\6.3.1\cmath ****                                               double>::__type
1314:c:\program files (x86)\gnu tools arm embedded\6 2017-q2-update\arm-none-eabi\include\c++\6.3.1\cmath ****     cbrt(_Tp __x)
1315:c:\program files (x86)\gnu tools arm embedded\6 2017-q2-update\arm-none-eabi\include\c++\6.3.1\cmath ****     { return __builtin_cbrt(__x); }
1316:c:\program files (x86)\gnu tools arm embedded\6 2017-q2-update\arm-none-eabi\include\c++\6.3.1\cmath **** #endif
1317:c:\program files (x86)\gnu tools arm embedded\6 2017-q2-update\arm-none-eabi\include\c++\6.3.1\cmath **** 
1318:c:\program files (x86)\gnu tools arm embedded\6 2017-q2-update\arm-none-eabi\include\c++\6.3.1\cmath **** #ifndef __CORRECT_ISO_CPP11_MATH_H_PROTO_FP
1319:c:\program files (x86)\gnu tools arm embedded\6 2017-q2-update\arm-none-eabi\include\c++\6.3.1\cmath ****   constexpr float
1320:c:\program files (x86)\gnu tools arm embedded\6 2017-q2-update\arm-none-eabi\include\c++\6.3.1\cmath ****   copysign(float __x, float __y)
1321:c:\program files (x86)\gnu tools arm embedded\6 2017-q2-update\arm-none-eabi\include\c++\6.3.1\cmath ****   { return __builtin_copysignf(__x, __y); }
1322:c:\program files (x86)\gnu tools arm embedded\6 2017-q2-update\arm-none-eabi\include\c++\6.3.1\cmath **** 
1323:c:\program files (x86)\gnu tools arm embedded\6 2017-q2-update\arm-none-eabi\include\c++\6.3.1\cmath ****   constexpr long double
1324:c:\program files (x86)\gnu tools arm embedded\6 2017-q2-update\arm-none-eabi\include\c++\6.3.1\cmath ****   copysign(long double __x, long double __y)
1325:c:\program files (x86)\gnu tools arm embedded\6 2017-q2-update\arm-none-eabi\include\c++\6.3.1\cmath ****   { return __builtin_copysignl(__x, __y); }
1326:c:\program files (x86)\gnu tools arm embedded\6 2017-q2-update\arm-none-eabi\include\c++\6.3.1\cmath **** #endif
1327:c:\program files (x86)\gnu tools arm embedded\6 2017-q2-update\arm-none-eabi\include\c++\6.3.1\cmath **** 
1328:c:\program files (x86)\gnu tools arm embedded\6 2017-q2-update\arm-none-eabi\include\c++\6.3.1\cmath **** #ifndef __CORRECT_ISO_CPP11_MATH_H_PROTO_INT
1329:c:\program files (x86)\gnu tools arm embedded\6 2017-q2-update\arm-none-eabi\include\c++\6.3.1\cmath ****   template<typename _Tp, typename _Up>
1330:c:\program files (x86)\gnu tools arm embedded\6 2017-q2-update\arm-none-eabi\include\c++\6.3.1\cmath ****     constexpr typename __gnu_cxx::__promote_2<_Tp, _Up>::__type
1331:c:\program files (x86)\gnu tools arm embedded\6 2017-q2-update\arm-none-eabi\include\c++\6.3.1\cmath ****     copysign(_Tp __x, _Up __y)
1332:c:\program files (x86)\gnu tools arm embedded\6 2017-q2-update\arm-none-eabi\include\c++\6.3.1\cmath ****     {
1333:c:\program files (x86)\gnu tools arm embedded\6 2017-q2-update\arm-none-eabi\include\c++\6.3.1\cmath ****       typedef typename __gnu_cxx::__promote_2<_Tp, _Up>::__type __type;
1334:c:\program files (x86)\gnu tools arm embedded\6 2017-q2-update\arm-none-eabi\include\c++\6.3.1\cmath ****       return copysign(__type(__x), __type(__y));
1335:c:\program files (x86)\gnu tools arm embedded\6 2017-q2-update\arm-none-eabi\include\c++\6.3.1\cmath ****     }
1336:c:\program files (x86)\gnu tools arm embedded\6 2017-q2-update\arm-none-eabi\include\c++\6.3.1\cmath **** #endif
1337:c:\program files (x86)\gnu tools arm embedded\6 2017-q2-update\arm-none-eabi\include\c++\6.3.1\cmath **** 
1338:c:\program files (x86)\gnu tools arm embedded\6 2017-q2-update\arm-none-eabi\include\c++\6.3.1\cmath **** #ifndef __CORRECT_ISO_CPP11_MATH_H_PROTO_FP
1339:c:\program files (x86)\gnu tools arm embedded\6 2017-q2-update\arm-none-eabi\include\c++\6.3.1\cmath ****   constexpr float
1340:c:\program files (x86)\gnu tools arm embedded\6 2017-q2-update\arm-none-eabi\include\c++\6.3.1\cmath ****   erf(float __x)
1341:c:\program files (x86)\gnu tools arm embedded\6 2017-q2-update\arm-none-eabi\include\c++\6.3.1\cmath ****   { return __builtin_erff(__x); }
1342:c:\program files (x86)\gnu tools arm embedded\6 2017-q2-update\arm-none-eabi\include\c++\6.3.1\cmath **** 
1343:c:\program files (x86)\gnu tools arm embedded\6 2017-q2-update\arm-none-eabi\include\c++\6.3.1\cmath ****   constexpr long double
1344:c:\program files (x86)\gnu tools arm embedded\6 2017-q2-update\arm-none-eabi\include\c++\6.3.1\cmath ****   erf(long double __x)
1345:c:\program files (x86)\gnu tools arm embedded\6 2017-q2-update\arm-none-eabi\include\c++\6.3.1\cmath ****   { return __builtin_erfl(__x); }
1346:c:\program files (x86)\gnu tools arm embedded\6 2017-q2-update\arm-none-eabi\include\c++\6.3.1\cmath **** #endif
1347:c:\program files (x86)\gnu tools arm embedded\6 2017-q2-update\arm-none-eabi\include\c++\6.3.1\cmath **** 
1348:c:\program files (x86)\gnu tools arm embedded\6 2017-q2-update\arm-none-eabi\include\c++\6.3.1\cmath **** #ifndef __CORRECT_ISO_CPP11_MATH_H_PROTO_INT
1349:c:\program files (x86)\gnu tools arm embedded\6 2017-q2-update\arm-none-eabi\include\c++\6.3.1\cmath ****   template<typename _Tp>
1350:c:\program files (x86)\gnu tools arm embedded\6 2017-q2-update\arm-none-eabi\include\c++\6.3.1\cmath ****     constexpr typename __gnu_cxx::__enable_if<__is_integer<_Tp>::__value, 
1351:c:\program files (x86)\gnu tools arm embedded\6 2017-q2-update\arm-none-eabi\include\c++\6.3.1\cmath ****                                               double>::__type
1352:c:\program files (x86)\gnu tools arm embedded\6 2017-q2-update\arm-none-eabi\include\c++\6.3.1\cmath ****     erf(_Tp __x)
1353:c:\program files (x86)\gnu tools arm embedded\6 2017-q2-update\arm-none-eabi\include\c++\6.3.1\cmath ****     { return __builtin_erf(__x); }
1354:c:\program files (x86)\gnu tools arm embedded\6 2017-q2-update\arm-none-eabi\include\c++\6.3.1\cmath **** #endif
1355:c:\program files (x86)\gnu tools arm embedded\6 2017-q2-update\arm-none-eabi\include\c++\6.3.1\cmath **** 
1356:c:\program files (x86)\gnu tools arm embedded\6 2017-q2-update\arm-none-eabi\include\c++\6.3.1\cmath **** #ifndef __CORRECT_ISO_CPP11_MATH_H_PROTO_FP
1357:c:\program files (x86)\gnu tools arm embedded\6 2017-q2-update\arm-none-eabi\include\c++\6.3.1\cmath ****   constexpr float
1358:c:\program files (x86)\gnu tools arm embedded\6 2017-q2-update\arm-none-eabi\include\c++\6.3.1\cmath ****   erfc(float __x)
1359:c:\program files (x86)\gnu tools arm embedded\6 2017-q2-update\arm-none-eabi\include\c++\6.3.1\cmath ****   { return __builtin_erfcf(__x); }
1360:c:\program files (x86)\gnu tools arm embedded\6 2017-q2-update\arm-none-eabi\include\c++\6.3.1\cmath **** 
1361:c:\program files (x86)\gnu tools arm embedded\6 2017-q2-update\arm-none-eabi\include\c++\6.3.1\cmath ****   constexpr long double
1362:c:\program files (x86)\gnu tools arm embedded\6 2017-q2-update\arm-none-eabi\include\c++\6.3.1\cmath ****   erfc(long double __x)
1363:c:\program files (x86)\gnu tools arm embedded\6 2017-q2-update\arm-none-eabi\include\c++\6.3.1\cmath ****   { return __builtin_erfcl(__x); }
1364:c:\program files (x86)\gnu tools arm embedded\6 2017-q2-update\arm-none-eabi\include\c++\6.3.1\cmath **** #endif
1365:c:\program files (x86)\gnu tools arm embedded\6 2017-q2-update\arm-none-eabi\include\c++\6.3.1\cmath **** 
1366:c:\program files (x86)\gnu tools arm embedded\6 2017-q2-update\arm-none-eabi\include\c++\6.3.1\cmath **** #ifndef __CORRECT_ISO_CPP11_MATH_H_PROTO_INT
1367:c:\program files (x86)\gnu tools arm embedded\6 2017-q2-update\arm-none-eabi\include\c++\6.3.1\cmath ****   template<typename _Tp>
1368:c:\program files (x86)\gnu tools arm embedded\6 2017-q2-update\arm-none-eabi\include\c++\6.3.1\cmath ****     constexpr typename __gnu_cxx::__enable_if<__is_integer<_Tp>::__value, 
1369:c:\program files (x86)\gnu tools arm embedded\6 2017-q2-update\arm-none-eabi\include\c++\6.3.1\cmath ****                                               double>::__type
1370:c:\program files (x86)\gnu tools arm embedded\6 2017-q2-update\arm-none-eabi\include\c++\6.3.1\cmath ****     erfc(_Tp __x)
1371:c:\program files (x86)\gnu tools arm embedded\6 2017-q2-update\arm-none-eabi\include\c++\6.3.1\cmath ****     { return __builtin_erfc(__x); }
1372:c:\program files (x86)\gnu tools arm embedded\6 2017-q2-update\arm-none-eabi\include\c++\6.3.1\cmath **** #endif
1373:c:\program files (x86)\gnu tools arm embedded\6 2017-q2-update\arm-none-eabi\include\c++\6.3.1\cmath **** 
1374:c:\program files (x86)\gnu tools arm embedded\6 2017-q2-update\arm-none-eabi\include\c++\6.3.1\cmath **** #ifndef __CORRECT_ISO_CPP11_MATH_H_PROTO_FP
1375:c:\program files (x86)\gnu tools arm embedded\6 2017-q2-update\arm-none-eabi\include\c++\6.3.1\cmath ****   constexpr float
1376:c:\program files (x86)\gnu tools arm embedded\6 2017-q2-update\arm-none-eabi\include\c++\6.3.1\cmath ****   exp2(float __x)
1377:c:\program files (x86)\gnu tools arm embedded\6 2017-q2-update\arm-none-eabi\include\c++\6.3.1\cmath ****   { return __builtin_exp2f(__x); }
1378:c:\program files (x86)\gnu tools arm embedded\6 2017-q2-update\arm-none-eabi\include\c++\6.3.1\cmath **** 
1379:c:\program files (x86)\gnu tools arm embedded\6 2017-q2-update\arm-none-eabi\include\c++\6.3.1\cmath ****   constexpr long double
1380:c:\program files (x86)\gnu tools arm embedded\6 2017-q2-update\arm-none-eabi\include\c++\6.3.1\cmath ****   exp2(long double __x)
1381:c:\program files (x86)\gnu tools arm embedded\6 2017-q2-update\arm-none-eabi\include\c++\6.3.1\cmath ****   { return __builtin_exp2l(__x); }
1382:c:\program files (x86)\gnu tools arm embedded\6 2017-q2-update\arm-none-eabi\include\c++\6.3.1\cmath **** #endif
1383:c:\program files (x86)\gnu tools arm embedded\6 2017-q2-update\arm-none-eabi\include\c++\6.3.1\cmath **** 
1384:c:\program files (x86)\gnu tools arm embedded\6 2017-q2-update\arm-none-eabi\include\c++\6.3.1\cmath **** #ifndef __CORRECT_ISO_CPP11_MATH_H_PROTO_INT
1385:c:\program files (x86)\gnu tools arm embedded\6 2017-q2-update\arm-none-eabi\include\c++\6.3.1\cmath ****   template<typename _Tp>
1386:c:\program files (x86)\gnu tools arm embedded\6 2017-q2-update\arm-none-eabi\include\c++\6.3.1\cmath ****     constexpr typename __gnu_cxx::__enable_if<__is_integer<_Tp>::__value, 
1387:c:\program files (x86)\gnu tools arm embedded\6 2017-q2-update\arm-none-eabi\include\c++\6.3.1\cmath ****                                               double>::__type
1388:c:\program files (x86)\gnu tools arm embedded\6 2017-q2-update\arm-none-eabi\include\c++\6.3.1\cmath ****     exp2(_Tp __x)
1389:c:\program files (x86)\gnu tools arm embedded\6 2017-q2-update\arm-none-eabi\include\c++\6.3.1\cmath ****     { return __builtin_exp2(__x); }
1390:c:\program files (x86)\gnu tools arm embedded\6 2017-q2-update\arm-none-eabi\include\c++\6.3.1\cmath **** #endif
1391:c:\program files (x86)\gnu tools arm embedded\6 2017-q2-update\arm-none-eabi\include\c++\6.3.1\cmath **** 
1392:c:\program files (x86)\gnu tools arm embedded\6 2017-q2-update\arm-none-eabi\include\c++\6.3.1\cmath **** #ifndef __CORRECT_ISO_CPP11_MATH_H_PROTO_FP
1393:c:\program files (x86)\gnu tools arm embedded\6 2017-q2-update\arm-none-eabi\include\c++\6.3.1\cmath ****   constexpr float
1394:c:\program files (x86)\gnu tools arm embedded\6 2017-q2-update\arm-none-eabi\include\c++\6.3.1\cmath ****   expm1(float __x)
1395:c:\program files (x86)\gnu tools arm embedded\6 2017-q2-update\arm-none-eabi\include\c++\6.3.1\cmath ****   { return __builtin_expm1f(__x); }
1396:c:\program files (x86)\gnu tools arm embedded\6 2017-q2-update\arm-none-eabi\include\c++\6.3.1\cmath **** 
1397:c:\program files (x86)\gnu tools arm embedded\6 2017-q2-update\arm-none-eabi\include\c++\6.3.1\cmath ****   constexpr long double
1398:c:\program files (x86)\gnu tools arm embedded\6 2017-q2-update\arm-none-eabi\include\c++\6.3.1\cmath ****   expm1(long double __x)
1399:c:\program files (x86)\gnu tools arm embedded\6 2017-q2-update\arm-none-eabi\include\c++\6.3.1\cmath ****   { return __builtin_expm1l(__x); }
1400:c:\program files (x86)\gnu tools arm embedded\6 2017-q2-update\arm-none-eabi\include\c++\6.3.1\cmath **** #endif
1401:c:\program files (x86)\gnu tools arm embedded\6 2017-q2-update\arm-none-eabi\include\c++\6.3.1\cmath **** 
1402:c:\program files (x86)\gnu tools arm embedded\6 2017-q2-update\arm-none-eabi\include\c++\6.3.1\cmath **** #ifndef __CORRECT_ISO_CPP11_MATH_H_PROTO_INT
1403:c:\program files (x86)\gnu tools arm embedded\6 2017-q2-update\arm-none-eabi\include\c++\6.3.1\cmath ****   template<typename _Tp>
1404:c:\program files (x86)\gnu tools arm embedded\6 2017-q2-update\arm-none-eabi\include\c++\6.3.1\cmath ****     constexpr typename __gnu_cxx::__enable_if<__is_integer<_Tp>::__value, 
1405:c:\program files (x86)\gnu tools arm embedded\6 2017-q2-update\arm-none-eabi\include\c++\6.3.1\cmath ****                                               double>::__type
1406:c:\program files (x86)\gnu tools arm embedded\6 2017-q2-update\arm-none-eabi\include\c++\6.3.1\cmath ****     expm1(_Tp __x)
1407:c:\program files (x86)\gnu tools arm embedded\6 2017-q2-update\arm-none-eabi\include\c++\6.3.1\cmath ****     { return __builtin_expm1(__x); }
1408:c:\program files (x86)\gnu tools arm embedded\6 2017-q2-update\arm-none-eabi\include\c++\6.3.1\cmath **** #endif
1409:c:\program files (x86)\gnu tools arm embedded\6 2017-q2-update\arm-none-eabi\include\c++\6.3.1\cmath **** 
1410:c:\program files (x86)\gnu tools arm embedded\6 2017-q2-update\arm-none-eabi\include\c++\6.3.1\cmath **** #ifndef __CORRECT_ISO_CPP11_MATH_H_PROTO_FP
1411:c:\program files (x86)\gnu tools arm embedded\6 2017-q2-update\arm-none-eabi\include\c++\6.3.1\cmath ****   constexpr float
1412:c:\program files (x86)\gnu tools arm embedded\6 2017-q2-update\arm-none-eabi\include\c++\6.3.1\cmath ****   fdim(float __x, float __y)
1413:c:\program files (x86)\gnu tools arm embedded\6 2017-q2-update\arm-none-eabi\include\c++\6.3.1\cmath ****   { return __builtin_fdimf(__x, __y); }
1414:c:\program files (x86)\gnu tools arm embedded\6 2017-q2-update\arm-none-eabi\include\c++\6.3.1\cmath **** 
1415:c:\program files (x86)\gnu tools arm embedded\6 2017-q2-update\arm-none-eabi\include\c++\6.3.1\cmath ****   constexpr long double
1416:c:\program files (x86)\gnu tools arm embedded\6 2017-q2-update\arm-none-eabi\include\c++\6.3.1\cmath ****   fdim(long double __x, long double __y)
1417:c:\program files (x86)\gnu tools arm embedded\6 2017-q2-update\arm-none-eabi\include\c++\6.3.1\cmath ****   { return __builtin_fdiml(__x, __y); }
1418:c:\program files (x86)\gnu tools arm embedded\6 2017-q2-update\arm-none-eabi\include\c++\6.3.1\cmath **** #endif
1419:c:\program files (x86)\gnu tools arm embedded\6 2017-q2-update\arm-none-eabi\include\c++\6.3.1\cmath **** 
1420:c:\program files (x86)\gnu tools arm embedded\6 2017-q2-update\arm-none-eabi\include\c++\6.3.1\cmath **** #ifndef __CORRECT_ISO_CPP11_MATH_H_PROTO_INT
1421:c:\program files (x86)\gnu tools arm embedded\6 2017-q2-update\arm-none-eabi\include\c++\6.3.1\cmath ****   template<typename _Tp, typename _Up>
1422:c:\program files (x86)\gnu tools arm embedded\6 2017-q2-update\arm-none-eabi\include\c++\6.3.1\cmath ****     constexpr typename __gnu_cxx::__promote_2<_Tp, _Up>::__type
1423:c:\program files (x86)\gnu tools arm embedded\6 2017-q2-update\arm-none-eabi\include\c++\6.3.1\cmath ****     fdim(_Tp __x, _Up __y)
1424:c:\program files (x86)\gnu tools arm embedded\6 2017-q2-update\arm-none-eabi\include\c++\6.3.1\cmath ****     {
1425:c:\program files (x86)\gnu tools arm embedded\6 2017-q2-update\arm-none-eabi\include\c++\6.3.1\cmath ****       typedef typename __gnu_cxx::__promote_2<_Tp, _Up>::__type __type;
1426:c:\program files (x86)\gnu tools arm embedded\6 2017-q2-update\arm-none-eabi\include\c++\6.3.1\cmath ****       return fdim(__type(__x), __type(__y));
1427:c:\program files (x86)\gnu tools arm embedded\6 2017-q2-update\arm-none-eabi\include\c++\6.3.1\cmath ****     }
1428:c:\program files (x86)\gnu tools arm embedded\6 2017-q2-update\arm-none-eabi\include\c++\6.3.1\cmath **** #endif
1429:c:\program files (x86)\gnu tools arm embedded\6 2017-q2-update\arm-none-eabi\include\c++\6.3.1\cmath **** 
1430:c:\program files (x86)\gnu tools arm embedded\6 2017-q2-update\arm-none-eabi\include\c++\6.3.1\cmath **** #ifndef __CORRECT_ISO_CPP11_MATH_H_PROTO_FP
1431:c:\program files (x86)\gnu tools arm embedded\6 2017-q2-update\arm-none-eabi\include\c++\6.3.1\cmath ****   constexpr float
1432:c:\program files (x86)\gnu tools arm embedded\6 2017-q2-update\arm-none-eabi\include\c++\6.3.1\cmath ****   fma(float __x, float __y, float __z)
1433:c:\program files (x86)\gnu tools arm embedded\6 2017-q2-update\arm-none-eabi\include\c++\6.3.1\cmath ****   { return __builtin_fmaf(__x, __y, __z); }
1434:c:\program files (x86)\gnu tools arm embedded\6 2017-q2-update\arm-none-eabi\include\c++\6.3.1\cmath **** 
1435:c:\program files (x86)\gnu tools arm embedded\6 2017-q2-update\arm-none-eabi\include\c++\6.3.1\cmath ****   constexpr long double
1436:c:\program files (x86)\gnu tools arm embedded\6 2017-q2-update\arm-none-eabi\include\c++\6.3.1\cmath ****   fma(long double __x, long double __y, long double __z)
1437:c:\program files (x86)\gnu tools arm embedded\6 2017-q2-update\arm-none-eabi\include\c++\6.3.1\cmath ****   { return __builtin_fmal(__x, __y, __z); }
1438:c:\program files (x86)\gnu tools arm embedded\6 2017-q2-update\arm-none-eabi\include\c++\6.3.1\cmath **** #endif
1439:c:\program files (x86)\gnu tools arm embedded\6 2017-q2-update\arm-none-eabi\include\c++\6.3.1\cmath **** 
1440:c:\program files (x86)\gnu tools arm embedded\6 2017-q2-update\arm-none-eabi\include\c++\6.3.1\cmath **** #ifndef __CORRECT_ISO_CPP11_MATH_H_PROTO_INT
1441:c:\program files (x86)\gnu tools arm embedded\6 2017-q2-update\arm-none-eabi\include\c++\6.3.1\cmath ****   template<typename _Tp, typename _Up, typename _Vp>
1442:c:\program files (x86)\gnu tools arm embedded\6 2017-q2-update\arm-none-eabi\include\c++\6.3.1\cmath ****     constexpr typename __gnu_cxx::__promote_3<_Tp, _Up, _Vp>::__type
1443:c:\program files (x86)\gnu tools arm embedded\6 2017-q2-update\arm-none-eabi\include\c++\6.3.1\cmath ****     fma(_Tp __x, _Up __y, _Vp __z)
1444:c:\program files (x86)\gnu tools arm embedded\6 2017-q2-update\arm-none-eabi\include\c++\6.3.1\cmath ****     {
1445:c:\program files (x86)\gnu tools arm embedded\6 2017-q2-update\arm-none-eabi\include\c++\6.3.1\cmath ****       typedef typename __gnu_cxx::__promote_3<_Tp, _Up, _Vp>::__type __type;
1446:c:\program files (x86)\gnu tools arm embedded\6 2017-q2-update\arm-none-eabi\include\c++\6.3.1\cmath ****       return fma(__type(__x), __type(__y), __type(__z));
1447:c:\program files (x86)\gnu tools arm embedded\6 2017-q2-update\arm-none-eabi\include\c++\6.3.1\cmath ****     }
1448:c:\program files (x86)\gnu tools arm embedded\6 2017-q2-update\arm-none-eabi\include\c++\6.3.1\cmath **** #endif
1449:c:\program files (x86)\gnu tools arm embedded\6 2017-q2-update\arm-none-eabi\include\c++\6.3.1\cmath **** 
1450:c:\program files (x86)\gnu tools arm embedded\6 2017-q2-update\arm-none-eabi\include\c++\6.3.1\cmath **** #ifndef __CORRECT_ISO_CPP11_MATH_H_PROTO_FP
1451:c:\program files (x86)\gnu tools arm embedded\6 2017-q2-update\arm-none-eabi\include\c++\6.3.1\cmath ****   constexpr float
1452:c:\program files (x86)\gnu tools arm embedded\6 2017-q2-update\arm-none-eabi\include\c++\6.3.1\cmath ****   fmax(float __x, float __y)
1453:c:\program files (x86)\gnu tools arm embedded\6 2017-q2-update\arm-none-eabi\include\c++\6.3.1\cmath ****   { return __builtin_fmaxf(__x, __y); }
1454:c:\program files (x86)\gnu tools arm embedded\6 2017-q2-update\arm-none-eabi\include\c++\6.3.1\cmath **** 
1455:c:\program files (x86)\gnu tools arm embedded\6 2017-q2-update\arm-none-eabi\include\c++\6.3.1\cmath ****   constexpr long double
1456:c:\program files (x86)\gnu tools arm embedded\6 2017-q2-update\arm-none-eabi\include\c++\6.3.1\cmath ****   fmax(long double __x, long double __y)
1457:c:\program files (x86)\gnu tools arm embedded\6 2017-q2-update\arm-none-eabi\include\c++\6.3.1\cmath ****   { return __builtin_fmaxl(__x, __y); }
1458:c:\program files (x86)\gnu tools arm embedded\6 2017-q2-update\arm-none-eabi\include\c++\6.3.1\cmath **** #endif
1459:c:\program files (x86)\gnu tools arm embedded\6 2017-q2-update\arm-none-eabi\include\c++\6.3.1\cmath **** 
1460:c:\program files (x86)\gnu tools arm embedded\6 2017-q2-update\arm-none-eabi\include\c++\6.3.1\cmath **** #ifndef __CORRECT_ISO_CPP11_MATH_H_PROTO_INT
1461:c:\program files (x86)\gnu tools arm embedded\6 2017-q2-update\arm-none-eabi\include\c++\6.3.1\cmath ****   template<typename _Tp, typename _Up>
1462:c:\program files (x86)\gnu tools arm embedded\6 2017-q2-update\arm-none-eabi\include\c++\6.3.1\cmath ****     constexpr typename __gnu_cxx::__promote_2<_Tp, _Up>::__type
1463:c:\program files (x86)\gnu tools arm embedded\6 2017-q2-update\arm-none-eabi\include\c++\6.3.1\cmath ****     fmax(_Tp __x, _Up __y)
1464:c:\program files (x86)\gnu tools arm embedded\6 2017-q2-update\arm-none-eabi\include\c++\6.3.1\cmath ****     {
1465:c:\program files (x86)\gnu tools arm embedded\6 2017-q2-update\arm-none-eabi\include\c++\6.3.1\cmath ****       typedef typename __gnu_cxx::__promote_2<_Tp, _Up>::__type __type;
1466:c:\program files (x86)\gnu tools arm embedded\6 2017-q2-update\arm-none-eabi\include\c++\6.3.1\cmath ****       return fmax(__type(__x), __type(__y));
1467:c:\program files (x86)\gnu tools arm embedded\6 2017-q2-update\arm-none-eabi\include\c++\6.3.1\cmath ****     }
1468:c:\program files (x86)\gnu tools arm embedded\6 2017-q2-update\arm-none-eabi\include\c++\6.3.1\cmath **** #endif
1469:c:\program files (x86)\gnu tools arm embedded\6 2017-q2-update\arm-none-eabi\include\c++\6.3.1\cmath **** 
1470:c:\program files (x86)\gnu tools arm embedded\6 2017-q2-update\arm-none-eabi\include\c++\6.3.1\cmath **** #ifndef __CORRECT_ISO_CPP11_MATH_H_PROTO_FP
1471:c:\program files (x86)\gnu tools arm embedded\6 2017-q2-update\arm-none-eabi\include\c++\6.3.1\cmath ****   constexpr float
1472:c:\program files (x86)\gnu tools arm embedded\6 2017-q2-update\arm-none-eabi\include\c++\6.3.1\cmath ****   fmin(float __x, float __y)
1473:c:\program files (x86)\gnu tools arm embedded\6 2017-q2-update\arm-none-eabi\include\c++\6.3.1\cmath ****   { return __builtin_fminf(__x, __y); }
1474:c:\program files (x86)\gnu tools arm embedded\6 2017-q2-update\arm-none-eabi\include\c++\6.3.1\cmath **** 
1475:c:\program files (x86)\gnu tools arm embedded\6 2017-q2-update\arm-none-eabi\include\c++\6.3.1\cmath ****   constexpr long double
1476:c:\program files (x86)\gnu tools arm embedded\6 2017-q2-update\arm-none-eabi\include\c++\6.3.1\cmath ****   fmin(long double __x, long double __y)
1477:c:\program files (x86)\gnu tools arm embedded\6 2017-q2-update\arm-none-eabi\include\c++\6.3.1\cmath ****   { return __builtin_fminl(__x, __y); }
1478:c:\program files (x86)\gnu tools arm embedded\6 2017-q2-update\arm-none-eabi\include\c++\6.3.1\cmath **** #endif
1479:c:\program files (x86)\gnu tools arm embedded\6 2017-q2-update\arm-none-eabi\include\c++\6.3.1\cmath **** 
1480:c:\program files (x86)\gnu tools arm embedded\6 2017-q2-update\arm-none-eabi\include\c++\6.3.1\cmath **** #ifndef __CORRECT_ISO_CPP11_MATH_H_PROTO_INT
1481:c:\program files (x86)\gnu tools arm embedded\6 2017-q2-update\arm-none-eabi\include\c++\6.3.1\cmath ****   template<typename _Tp, typename _Up>
1482:c:\program files (x86)\gnu tools arm embedded\6 2017-q2-update\arm-none-eabi\include\c++\6.3.1\cmath ****     constexpr typename __gnu_cxx::__promote_2<_Tp, _Up>::__type
1483:c:\program files (x86)\gnu tools arm embedded\6 2017-q2-update\arm-none-eabi\include\c++\6.3.1\cmath ****     fmin(_Tp __x, _Up __y)
1484:c:\program files (x86)\gnu tools arm embedded\6 2017-q2-update\arm-none-eabi\include\c++\6.3.1\cmath ****     {
1485:c:\program files (x86)\gnu tools arm embedded\6 2017-q2-update\arm-none-eabi\include\c++\6.3.1\cmath ****       typedef typename __gnu_cxx::__promote_2<_Tp, _Up>::__type __type;
1486:c:\program files (x86)\gnu tools arm embedded\6 2017-q2-update\arm-none-eabi\include\c++\6.3.1\cmath ****       return fmin(__type(__x), __type(__y));
1487:c:\program files (x86)\gnu tools arm embedded\6 2017-q2-update\arm-none-eabi\include\c++\6.3.1\cmath ****     }
1488:c:\program files (x86)\gnu tools arm embedded\6 2017-q2-update\arm-none-eabi\include\c++\6.3.1\cmath **** #endif
1489:c:\program files (x86)\gnu tools arm embedded\6 2017-q2-update\arm-none-eabi\include\c++\6.3.1\cmath **** 
1490:c:\program files (x86)\gnu tools arm embedded\6 2017-q2-update\arm-none-eabi\include\c++\6.3.1\cmath **** #ifndef __CORRECT_ISO_CPP11_MATH_H_PROTO_FP
1491:c:\program files (x86)\gnu tools arm embedded\6 2017-q2-update\arm-none-eabi\include\c++\6.3.1\cmath ****   constexpr float
1492:c:\program files (x86)\gnu tools arm embedded\6 2017-q2-update\arm-none-eabi\include\c++\6.3.1\cmath ****   hypot(float __x, float __y)
1493:c:\program files (x86)\gnu tools arm embedded\6 2017-q2-update\arm-none-eabi\include\c++\6.3.1\cmath ****   { return __builtin_hypotf(__x, __y); }
1494:c:\program files (x86)\gnu tools arm embedded\6 2017-q2-update\arm-none-eabi\include\c++\6.3.1\cmath **** 
1495:c:\program files (x86)\gnu tools arm embedded\6 2017-q2-update\arm-none-eabi\include\c++\6.3.1\cmath ****   constexpr long double
1496:c:\program files (x86)\gnu tools arm embedded\6 2017-q2-update\arm-none-eabi\include\c++\6.3.1\cmath ****   hypot(long double __x, long double __y)
1497:c:\program files (x86)\gnu tools arm embedded\6 2017-q2-update\arm-none-eabi\include\c++\6.3.1\cmath ****   { return __builtin_hypotl(__x, __y); }
1498:c:\program files (x86)\gnu tools arm embedded\6 2017-q2-update\arm-none-eabi\include\c++\6.3.1\cmath **** #endif
1499:c:\program files (x86)\gnu tools arm embedded\6 2017-q2-update\arm-none-eabi\include\c++\6.3.1\cmath **** 
1500:c:\program files (x86)\gnu tools arm embedded\6 2017-q2-update\arm-none-eabi\include\c++\6.3.1\cmath **** #ifndef __CORRECT_ISO_CPP11_MATH_H_PROTO_INT
1501:c:\program files (x86)\gnu tools arm embedded\6 2017-q2-update\arm-none-eabi\include\c++\6.3.1\cmath ****   template<typename _Tp, typename _Up>
1502:c:\program files (x86)\gnu tools arm embedded\6 2017-q2-update\arm-none-eabi\include\c++\6.3.1\cmath ****     constexpr typename __gnu_cxx::__promote_2<_Tp, _Up>::__type
1503:c:\program files (x86)\gnu tools arm embedded\6 2017-q2-update\arm-none-eabi\include\c++\6.3.1\cmath ****     hypot(_Tp __x, _Up __y)
1504:c:\program files (x86)\gnu tools arm embedded\6 2017-q2-update\arm-none-eabi\include\c++\6.3.1\cmath ****     {
1505:c:\program files (x86)\gnu tools arm embedded\6 2017-q2-update\arm-none-eabi\include\c++\6.3.1\cmath ****       typedef typename __gnu_cxx::__promote_2<_Tp, _Up>::__type __type;
1506:c:\program files (x86)\gnu tools arm embedded\6 2017-q2-update\arm-none-eabi\include\c++\6.3.1\cmath ****       return hypot(__type(__x), __type(__y));
1507:c:\program files (x86)\gnu tools arm embedded\6 2017-q2-update\arm-none-eabi\include\c++\6.3.1\cmath ****     }
1508:c:\program files (x86)\gnu tools arm embedded\6 2017-q2-update\arm-none-eabi\include\c++\6.3.1\cmath **** #endif
1509:c:\program files (x86)\gnu tools arm embedded\6 2017-q2-update\arm-none-eabi\include\c++\6.3.1\cmath **** 
1510:c:\program files (x86)\gnu tools arm embedded\6 2017-q2-update\arm-none-eabi\include\c++\6.3.1\cmath **** #ifndef __CORRECT_ISO_CPP11_MATH_H_PROTO_FP
1511:c:\program files (x86)\gnu tools arm embedded\6 2017-q2-update\arm-none-eabi\include\c++\6.3.1\cmath ****   constexpr int
1512:c:\program files (x86)\gnu tools arm embedded\6 2017-q2-update\arm-none-eabi\include\c++\6.3.1\cmath ****   ilogb(float __x)
1513:c:\program files (x86)\gnu tools arm embedded\6 2017-q2-update\arm-none-eabi\include\c++\6.3.1\cmath ****   { return __builtin_ilogbf(__x); }
1514:c:\program files (x86)\gnu tools arm embedded\6 2017-q2-update\arm-none-eabi\include\c++\6.3.1\cmath **** 
1515:c:\program files (x86)\gnu tools arm embedded\6 2017-q2-update\arm-none-eabi\include\c++\6.3.1\cmath ****   constexpr int
1516:c:\program files (x86)\gnu tools arm embedded\6 2017-q2-update\arm-none-eabi\include\c++\6.3.1\cmath ****   ilogb(long double __x)
1517:c:\program files (x86)\gnu tools arm embedded\6 2017-q2-update\arm-none-eabi\include\c++\6.3.1\cmath ****   { return __builtin_ilogbl(__x); }
1518:c:\program files (x86)\gnu tools arm embedded\6 2017-q2-update\arm-none-eabi\include\c++\6.3.1\cmath **** #endif
1519:c:\program files (x86)\gnu tools arm embedded\6 2017-q2-update\arm-none-eabi\include\c++\6.3.1\cmath **** 
1520:c:\program files (x86)\gnu tools arm embedded\6 2017-q2-update\arm-none-eabi\include\c++\6.3.1\cmath **** #ifndef __CORRECT_ISO_CPP11_MATH_H_PROTO_INT
1521:c:\program files (x86)\gnu tools arm embedded\6 2017-q2-update\arm-none-eabi\include\c++\6.3.1\cmath ****   template<typename _Tp>
1522:c:\program files (x86)\gnu tools arm embedded\6 2017-q2-update\arm-none-eabi\include\c++\6.3.1\cmath ****     constexpr
1523:c:\program files (x86)\gnu tools arm embedded\6 2017-q2-update\arm-none-eabi\include\c++\6.3.1\cmath ****     typename __gnu_cxx::__enable_if<__is_integer<_Tp>::__value, 
1524:c:\program files (x86)\gnu tools arm embedded\6 2017-q2-update\arm-none-eabi\include\c++\6.3.1\cmath ****                                     int>::__type
1525:c:\program files (x86)\gnu tools arm embedded\6 2017-q2-update\arm-none-eabi\include\c++\6.3.1\cmath ****     ilogb(_Tp __x)
1526:c:\program files (x86)\gnu tools arm embedded\6 2017-q2-update\arm-none-eabi\include\c++\6.3.1\cmath ****     { return __builtin_ilogb(__x); }
1527:c:\program files (x86)\gnu tools arm embedded\6 2017-q2-update\arm-none-eabi\include\c++\6.3.1\cmath **** #endif
1528:c:\program files (x86)\gnu tools arm embedded\6 2017-q2-update\arm-none-eabi\include\c++\6.3.1\cmath **** 
1529:c:\program files (x86)\gnu tools arm embedded\6 2017-q2-update\arm-none-eabi\include\c++\6.3.1\cmath **** #ifndef __CORRECT_ISO_CPP11_MATH_H_PROTO_FP
1530:c:\program files (x86)\gnu tools arm embedded\6 2017-q2-update\arm-none-eabi\include\c++\6.3.1\cmath ****   constexpr float
1531:c:\program files (x86)\gnu tools arm embedded\6 2017-q2-update\arm-none-eabi\include\c++\6.3.1\cmath ****   lgamma(float __x)
1532:c:\program files (x86)\gnu tools arm embedded\6 2017-q2-update\arm-none-eabi\include\c++\6.3.1\cmath ****   { return __builtin_lgammaf(__x); }
1533:c:\program files (x86)\gnu tools arm embedded\6 2017-q2-update\arm-none-eabi\include\c++\6.3.1\cmath **** 
1534:c:\program files (x86)\gnu tools arm embedded\6 2017-q2-update\arm-none-eabi\include\c++\6.3.1\cmath ****   constexpr long double
1535:c:\program files (x86)\gnu tools arm embedded\6 2017-q2-update\arm-none-eabi\include\c++\6.3.1\cmath ****   lgamma(long double __x)
1536:c:\program files (x86)\gnu tools arm embedded\6 2017-q2-update\arm-none-eabi\include\c++\6.3.1\cmath ****   { return __builtin_lgammal(__x); }
1537:c:\program files (x86)\gnu tools arm embedded\6 2017-q2-update\arm-none-eabi\include\c++\6.3.1\cmath **** #endif
1538:c:\program files (x86)\gnu tools arm embedded\6 2017-q2-update\arm-none-eabi\include\c++\6.3.1\cmath **** 
1539:c:\program files (x86)\gnu tools arm embedded\6 2017-q2-update\arm-none-eabi\include\c++\6.3.1\cmath **** #ifndef __CORRECT_ISO_CPP11_MATH_H_PROTO_INT
1540:c:\program files (x86)\gnu tools arm embedded\6 2017-q2-update\arm-none-eabi\include\c++\6.3.1\cmath ****   template<typename _Tp>
1541:c:\program files (x86)\gnu tools arm embedded\6 2017-q2-update\arm-none-eabi\include\c++\6.3.1\cmath ****     constexpr typename __gnu_cxx::__enable_if<__is_integer<_Tp>::__value, 
1542:c:\program files (x86)\gnu tools arm embedded\6 2017-q2-update\arm-none-eabi\include\c++\6.3.1\cmath ****                                               double>::__type
1543:c:\program files (x86)\gnu tools arm embedded\6 2017-q2-update\arm-none-eabi\include\c++\6.3.1\cmath ****     lgamma(_Tp __x)
1544:c:\program files (x86)\gnu tools arm embedded\6 2017-q2-update\arm-none-eabi\include\c++\6.3.1\cmath ****     { return __builtin_lgamma(__x); }
1545:c:\program files (x86)\gnu tools arm embedded\6 2017-q2-update\arm-none-eabi\include\c++\6.3.1\cmath **** #endif
1546:c:\program files (x86)\gnu tools arm embedded\6 2017-q2-update\arm-none-eabi\include\c++\6.3.1\cmath **** 
1547:c:\program files (x86)\gnu tools arm embedded\6 2017-q2-update\arm-none-eabi\include\c++\6.3.1\cmath **** #ifndef __CORRECT_ISO_CPP11_MATH_H_PROTO_FP
1548:c:\program files (x86)\gnu tools arm embedded\6 2017-q2-update\arm-none-eabi\include\c++\6.3.1\cmath ****   constexpr long long
1549:c:\program files (x86)\gnu tools arm embedded\6 2017-q2-update\arm-none-eabi\include\c++\6.3.1\cmath ****   llrint(float __x)
1550:c:\program files (x86)\gnu tools arm embedded\6 2017-q2-update\arm-none-eabi\include\c++\6.3.1\cmath ****   { return __builtin_llrintf(__x); }
1551:c:\program files (x86)\gnu tools arm embedded\6 2017-q2-update\arm-none-eabi\include\c++\6.3.1\cmath **** 
1552:c:\program files (x86)\gnu tools arm embedded\6 2017-q2-update\arm-none-eabi\include\c++\6.3.1\cmath ****   constexpr long long
1553:c:\program files (x86)\gnu tools arm embedded\6 2017-q2-update\arm-none-eabi\include\c++\6.3.1\cmath ****   llrint(long double __x)
1554:c:\program files (x86)\gnu tools arm embedded\6 2017-q2-update\arm-none-eabi\include\c++\6.3.1\cmath ****   { return __builtin_llrintl(__x); }
1555:c:\program files (x86)\gnu tools arm embedded\6 2017-q2-update\arm-none-eabi\include\c++\6.3.1\cmath **** #endif
1556:c:\program files (x86)\gnu tools arm embedded\6 2017-q2-update\arm-none-eabi\include\c++\6.3.1\cmath **** 
1557:c:\program files (x86)\gnu tools arm embedded\6 2017-q2-update\arm-none-eabi\include\c++\6.3.1\cmath **** #ifndef __CORRECT_ISO_CPP11_MATH_H_PROTO_INT
1558:c:\program files (x86)\gnu tools arm embedded\6 2017-q2-update\arm-none-eabi\include\c++\6.3.1\cmath ****   template<typename _Tp>
1559:c:\program files (x86)\gnu tools arm embedded\6 2017-q2-update\arm-none-eabi\include\c++\6.3.1\cmath ****     constexpr typename __gnu_cxx::__enable_if<__is_integer<_Tp>::__value, 
1560:c:\program files (x86)\gnu tools arm embedded\6 2017-q2-update\arm-none-eabi\include\c++\6.3.1\cmath ****                                               long long>::__type
1561:c:\program files (x86)\gnu tools arm embedded\6 2017-q2-update\arm-none-eabi\include\c++\6.3.1\cmath ****     llrint(_Tp __x)
1562:c:\program files (x86)\gnu tools arm embedded\6 2017-q2-update\arm-none-eabi\include\c++\6.3.1\cmath ****     { return __builtin_llrint(__x); }
1563:c:\program files (x86)\gnu tools arm embedded\6 2017-q2-update\arm-none-eabi\include\c++\6.3.1\cmath **** #endif
1564:c:\program files (x86)\gnu tools arm embedded\6 2017-q2-update\arm-none-eabi\include\c++\6.3.1\cmath **** 
1565:c:\program files (x86)\gnu tools arm embedded\6 2017-q2-update\arm-none-eabi\include\c++\6.3.1\cmath **** #ifndef __CORRECT_ISO_CPP11_MATH_H_PROTO_FP
1566:c:\program files (x86)\gnu tools arm embedded\6 2017-q2-update\arm-none-eabi\include\c++\6.3.1\cmath ****   constexpr long long
1567:c:\program files (x86)\gnu tools arm embedded\6 2017-q2-update\arm-none-eabi\include\c++\6.3.1\cmath ****   llround(float __x)
1568:c:\program files (x86)\gnu tools arm embedded\6 2017-q2-update\arm-none-eabi\include\c++\6.3.1\cmath ****   { return __builtin_llroundf(__x); }
1569:c:\program files (x86)\gnu tools arm embedded\6 2017-q2-update\arm-none-eabi\include\c++\6.3.1\cmath **** 
1570:c:\program files (x86)\gnu tools arm embedded\6 2017-q2-update\arm-none-eabi\include\c++\6.3.1\cmath ****   constexpr long long
1571:c:\program files (x86)\gnu tools arm embedded\6 2017-q2-update\arm-none-eabi\include\c++\6.3.1\cmath ****   llround(long double __x)
1572:c:\program files (x86)\gnu tools arm embedded\6 2017-q2-update\arm-none-eabi\include\c++\6.3.1\cmath ****   { return __builtin_llroundl(__x); }
1573:c:\program files (x86)\gnu tools arm embedded\6 2017-q2-update\arm-none-eabi\include\c++\6.3.1\cmath **** #endif
1574:c:\program files (x86)\gnu tools arm embedded\6 2017-q2-update\arm-none-eabi\include\c++\6.3.1\cmath **** 
1575:c:\program files (x86)\gnu tools arm embedded\6 2017-q2-update\arm-none-eabi\include\c++\6.3.1\cmath **** #ifndef __CORRECT_ISO_CPP11_MATH_H_PROTO_INT
1576:c:\program files (x86)\gnu tools arm embedded\6 2017-q2-update\arm-none-eabi\include\c++\6.3.1\cmath ****   template<typename _Tp>
1577:c:\program files (x86)\gnu tools arm embedded\6 2017-q2-update\arm-none-eabi\include\c++\6.3.1\cmath ****     constexpr typename __gnu_cxx::__enable_if<__is_integer<_Tp>::__value, 
1578:c:\program files (x86)\gnu tools arm embedded\6 2017-q2-update\arm-none-eabi\include\c++\6.3.1\cmath ****                                               long long>::__type
1579:c:\program files (x86)\gnu tools arm embedded\6 2017-q2-update\arm-none-eabi\include\c++\6.3.1\cmath ****     llround(_Tp __x)
1580:c:\program files (x86)\gnu tools arm embedded\6 2017-q2-update\arm-none-eabi\include\c++\6.3.1\cmath ****     { return __builtin_llround(__x); }
1581:c:\program files (x86)\gnu tools arm embedded\6 2017-q2-update\arm-none-eabi\include\c++\6.3.1\cmath **** #endif
1582:c:\program files (x86)\gnu tools arm embedded\6 2017-q2-update\arm-none-eabi\include\c++\6.3.1\cmath **** 
1583:c:\program files (x86)\gnu tools arm embedded\6 2017-q2-update\arm-none-eabi\include\c++\6.3.1\cmath **** #ifndef __CORRECT_ISO_CPP11_MATH_H_PROTO_FP
1584:c:\program files (x86)\gnu tools arm embedded\6 2017-q2-update\arm-none-eabi\include\c++\6.3.1\cmath ****   constexpr float
1585:c:\program files (x86)\gnu tools arm embedded\6 2017-q2-update\arm-none-eabi\include\c++\6.3.1\cmath ****   log1p(float __x)
1586:c:\program files (x86)\gnu tools arm embedded\6 2017-q2-update\arm-none-eabi\include\c++\6.3.1\cmath ****   { return __builtin_log1pf(__x); }
1587:c:\program files (x86)\gnu tools arm embedded\6 2017-q2-update\arm-none-eabi\include\c++\6.3.1\cmath **** 
1588:c:\program files (x86)\gnu tools arm embedded\6 2017-q2-update\arm-none-eabi\include\c++\6.3.1\cmath ****   constexpr long double
1589:c:\program files (x86)\gnu tools arm embedded\6 2017-q2-update\arm-none-eabi\include\c++\6.3.1\cmath ****   log1p(long double __x)
1590:c:\program files (x86)\gnu tools arm embedded\6 2017-q2-update\arm-none-eabi\include\c++\6.3.1\cmath ****   { return __builtin_log1pl(__x); }
1591:c:\program files (x86)\gnu tools arm embedded\6 2017-q2-update\arm-none-eabi\include\c++\6.3.1\cmath **** #endif
1592:c:\program files (x86)\gnu tools arm embedded\6 2017-q2-update\arm-none-eabi\include\c++\6.3.1\cmath **** 
1593:c:\program files (x86)\gnu tools arm embedded\6 2017-q2-update\arm-none-eabi\include\c++\6.3.1\cmath **** #ifndef __CORRECT_ISO_CPP11_MATH_H_PROTO_INT
1594:c:\program files (x86)\gnu tools arm embedded\6 2017-q2-update\arm-none-eabi\include\c++\6.3.1\cmath ****   template<typename _Tp>
1595:c:\program files (x86)\gnu tools arm embedded\6 2017-q2-update\arm-none-eabi\include\c++\6.3.1\cmath ****     constexpr typename __gnu_cxx::__enable_if<__is_integer<_Tp>::__value, 
1596:c:\program files (x86)\gnu tools arm embedded\6 2017-q2-update\arm-none-eabi\include\c++\6.3.1\cmath ****                                               double>::__type
1597:c:\program files (x86)\gnu tools arm embedded\6 2017-q2-update\arm-none-eabi\include\c++\6.3.1\cmath ****     log1p(_Tp __x)
1598:c:\program files (x86)\gnu tools arm embedded\6 2017-q2-update\arm-none-eabi\include\c++\6.3.1\cmath ****     { return __builtin_log1p(__x); }
1599:c:\program files (x86)\gnu tools arm embedded\6 2017-q2-update\arm-none-eabi\include\c++\6.3.1\cmath **** #endif
1600:c:\program files (x86)\gnu tools arm embedded\6 2017-q2-update\arm-none-eabi\include\c++\6.3.1\cmath **** 
1601:c:\program files (x86)\gnu tools arm embedded\6 2017-q2-update\arm-none-eabi\include\c++\6.3.1\cmath **** #ifndef __CORRECT_ISO_CPP11_MATH_H_PROTO_FP
1602:c:\program files (x86)\gnu tools arm embedded\6 2017-q2-update\arm-none-eabi\include\c++\6.3.1\cmath ****   // DR 568.
1603:c:\program files (x86)\gnu tools arm embedded\6 2017-q2-update\arm-none-eabi\include\c++\6.3.1\cmath ****   constexpr float
1604:c:\program files (x86)\gnu tools arm embedded\6 2017-q2-update\arm-none-eabi\include\c++\6.3.1\cmath ****   log2(float __x)
1605:c:\program files (x86)\gnu tools arm embedded\6 2017-q2-update\arm-none-eabi\include\c++\6.3.1\cmath ****   { return __builtin_log2f(__x); }
1606:c:\program files (x86)\gnu tools arm embedded\6 2017-q2-update\arm-none-eabi\include\c++\6.3.1\cmath **** 
1607:c:\program files (x86)\gnu tools arm embedded\6 2017-q2-update\arm-none-eabi\include\c++\6.3.1\cmath ****   constexpr long double
1608:c:\program files (x86)\gnu tools arm embedded\6 2017-q2-update\arm-none-eabi\include\c++\6.3.1\cmath ****   log2(long double __x)
1609:c:\program files (x86)\gnu tools arm embedded\6 2017-q2-update\arm-none-eabi\include\c++\6.3.1\cmath ****   { return __builtin_log2l(__x); }
1610:c:\program files (x86)\gnu tools arm embedded\6 2017-q2-update\arm-none-eabi\include\c++\6.3.1\cmath **** #endif
1611:c:\program files (x86)\gnu tools arm embedded\6 2017-q2-update\arm-none-eabi\include\c++\6.3.1\cmath **** 
1612:c:\program files (x86)\gnu tools arm embedded\6 2017-q2-update\arm-none-eabi\include\c++\6.3.1\cmath **** #ifndef __CORRECT_ISO_CPP11_MATH_H_PROTO_INT
1613:c:\program files (x86)\gnu tools arm embedded\6 2017-q2-update\arm-none-eabi\include\c++\6.3.1\cmath ****   template<typename _Tp>
1614:c:\program files (x86)\gnu tools arm embedded\6 2017-q2-update\arm-none-eabi\include\c++\6.3.1\cmath ****     constexpr typename __gnu_cxx::__enable_if<__is_integer<_Tp>::__value, 
1615:c:\program files (x86)\gnu tools arm embedded\6 2017-q2-update\arm-none-eabi\include\c++\6.3.1\cmath ****                                               double>::__type
1616:c:\program files (x86)\gnu tools arm embedded\6 2017-q2-update\arm-none-eabi\include\c++\6.3.1\cmath ****     log2(_Tp __x)
1617:c:\program files (x86)\gnu tools arm embedded\6 2017-q2-update\arm-none-eabi\include\c++\6.3.1\cmath ****     { return __builtin_log2(__x); }
1618:c:\program files (x86)\gnu tools arm embedded\6 2017-q2-update\arm-none-eabi\include\c++\6.3.1\cmath **** #endif
1619:c:\program files (x86)\gnu tools arm embedded\6 2017-q2-update\arm-none-eabi\include\c++\6.3.1\cmath **** 
1620:c:\program files (x86)\gnu tools arm embedded\6 2017-q2-update\arm-none-eabi\include\c++\6.3.1\cmath **** #ifndef __CORRECT_ISO_CPP11_MATH_H_PROTO_FP
1621:c:\program files (x86)\gnu tools arm embedded\6 2017-q2-update\arm-none-eabi\include\c++\6.3.1\cmath ****   constexpr float
1622:c:\program files (x86)\gnu tools arm embedded\6 2017-q2-update\arm-none-eabi\include\c++\6.3.1\cmath ****   logb(float __x)
1623:c:\program files (x86)\gnu tools arm embedded\6 2017-q2-update\arm-none-eabi\include\c++\6.3.1\cmath ****   { return __builtin_logbf(__x); }
1624:c:\program files (x86)\gnu tools arm embedded\6 2017-q2-update\arm-none-eabi\include\c++\6.3.1\cmath **** 
1625:c:\program files (x86)\gnu tools arm embedded\6 2017-q2-update\arm-none-eabi\include\c++\6.3.1\cmath ****   constexpr long double
1626:c:\program files (x86)\gnu tools arm embedded\6 2017-q2-update\arm-none-eabi\include\c++\6.3.1\cmath ****   logb(long double __x)
1627:c:\program files (x86)\gnu tools arm embedded\6 2017-q2-update\arm-none-eabi\include\c++\6.3.1\cmath ****   { return __builtin_logbl(__x); }
1628:c:\program files (x86)\gnu tools arm embedded\6 2017-q2-update\arm-none-eabi\include\c++\6.3.1\cmath **** #endif
1629:c:\program files (x86)\gnu tools arm embedded\6 2017-q2-update\arm-none-eabi\include\c++\6.3.1\cmath **** 
1630:c:\program files (x86)\gnu tools arm embedded\6 2017-q2-update\arm-none-eabi\include\c++\6.3.1\cmath **** #ifndef __CORRECT_ISO_CPP11_MATH_H_PROTO_INT
1631:c:\program files (x86)\gnu tools arm embedded\6 2017-q2-update\arm-none-eabi\include\c++\6.3.1\cmath ****   template<typename _Tp>
1632:c:\program files (x86)\gnu tools arm embedded\6 2017-q2-update\arm-none-eabi\include\c++\6.3.1\cmath ****     constexpr typename __gnu_cxx::__enable_if<__is_integer<_Tp>::__value, 
1633:c:\program files (x86)\gnu tools arm embedded\6 2017-q2-update\arm-none-eabi\include\c++\6.3.1\cmath ****                                               double>::__type
1634:c:\program files (x86)\gnu tools arm embedded\6 2017-q2-update\arm-none-eabi\include\c++\6.3.1\cmath ****     logb(_Tp __x)
1635:c:\program files (x86)\gnu tools arm embedded\6 2017-q2-update\arm-none-eabi\include\c++\6.3.1\cmath ****     { return __builtin_logb(__x); }
1636:c:\program files (x86)\gnu tools arm embedded\6 2017-q2-update\arm-none-eabi\include\c++\6.3.1\cmath **** #endif
1637:c:\program files (x86)\gnu tools arm embedded\6 2017-q2-update\arm-none-eabi\include\c++\6.3.1\cmath **** 
1638:c:\program files (x86)\gnu tools arm embedded\6 2017-q2-update\arm-none-eabi\include\c++\6.3.1\cmath **** #ifndef __CORRECT_ISO_CPP11_MATH_H_PROTO_FP
1639:c:\program files (x86)\gnu tools arm embedded\6 2017-q2-update\arm-none-eabi\include\c++\6.3.1\cmath ****   constexpr long
1640:c:\program files (x86)\gnu tools arm embedded\6 2017-q2-update\arm-none-eabi\include\c++\6.3.1\cmath ****   lrint(float __x)
1641:c:\program files (x86)\gnu tools arm embedded\6 2017-q2-update\arm-none-eabi\include\c++\6.3.1\cmath ****   { return __builtin_lrintf(__x); }
1642:c:\program files (x86)\gnu tools arm embedded\6 2017-q2-update\arm-none-eabi\include\c++\6.3.1\cmath **** 
1643:c:\program files (x86)\gnu tools arm embedded\6 2017-q2-update\arm-none-eabi\include\c++\6.3.1\cmath ****   constexpr long
1644:c:\program files (x86)\gnu tools arm embedded\6 2017-q2-update\arm-none-eabi\include\c++\6.3.1\cmath ****   lrint(long double __x)
1645:c:\program files (x86)\gnu tools arm embedded\6 2017-q2-update\arm-none-eabi\include\c++\6.3.1\cmath ****   { return __builtin_lrintl(__x); }
1646:c:\program files (x86)\gnu tools arm embedded\6 2017-q2-update\arm-none-eabi\include\c++\6.3.1\cmath **** #endif
1647:c:\program files (x86)\gnu tools arm embedded\6 2017-q2-update\arm-none-eabi\include\c++\6.3.1\cmath **** 
1648:c:\program files (x86)\gnu tools arm embedded\6 2017-q2-update\arm-none-eabi\include\c++\6.3.1\cmath **** #ifndef __CORRECT_ISO_CPP11_MATH_H_PROTO_INT
1649:c:\program files (x86)\gnu tools arm embedded\6 2017-q2-update\arm-none-eabi\include\c++\6.3.1\cmath ****   template<typename _Tp>
1650:c:\program files (x86)\gnu tools arm embedded\6 2017-q2-update\arm-none-eabi\include\c++\6.3.1\cmath ****     constexpr typename __gnu_cxx::__enable_if<__is_integer<_Tp>::__value, 
1651:c:\program files (x86)\gnu tools arm embedded\6 2017-q2-update\arm-none-eabi\include\c++\6.3.1\cmath ****                                               long>::__type
1652:c:\program files (x86)\gnu tools arm embedded\6 2017-q2-update\arm-none-eabi\include\c++\6.3.1\cmath ****     lrint(_Tp __x)
1653:c:\program files (x86)\gnu tools arm embedded\6 2017-q2-update\arm-none-eabi\include\c++\6.3.1\cmath ****     { return __builtin_lrint(__x); }
1654:c:\program files (x86)\gnu tools arm embedded\6 2017-q2-update\arm-none-eabi\include\c++\6.3.1\cmath **** #endif
1655:c:\program files (x86)\gnu tools arm embedded\6 2017-q2-update\arm-none-eabi\include\c++\6.3.1\cmath **** 
1656:c:\program files (x86)\gnu tools arm embedded\6 2017-q2-update\arm-none-eabi\include\c++\6.3.1\cmath **** #ifndef __CORRECT_ISO_CPP11_MATH_H_PROTO_FP
1657:c:\program files (x86)\gnu tools arm embedded\6 2017-q2-update\arm-none-eabi\include\c++\6.3.1\cmath ****   constexpr long
1658:c:\program files (x86)\gnu tools arm embedded\6 2017-q2-update\arm-none-eabi\include\c++\6.3.1\cmath ****   lround(float __x)
1659:c:\program files (x86)\gnu tools arm embedded\6 2017-q2-update\arm-none-eabi\include\c++\6.3.1\cmath ****   { return __builtin_lroundf(__x); }
1660:c:\program files (x86)\gnu tools arm embedded\6 2017-q2-update\arm-none-eabi\include\c++\6.3.1\cmath **** 
1661:c:\program files (x86)\gnu tools arm embedded\6 2017-q2-update\arm-none-eabi\include\c++\6.3.1\cmath ****   constexpr long
1662:c:\program files (x86)\gnu tools arm embedded\6 2017-q2-update\arm-none-eabi\include\c++\6.3.1\cmath ****   lround(long double __x)
1663:c:\program files (x86)\gnu tools arm embedded\6 2017-q2-update\arm-none-eabi\include\c++\6.3.1\cmath ****   { return __builtin_lroundl(__x); }
1664:c:\program files (x86)\gnu tools arm embedded\6 2017-q2-update\arm-none-eabi\include\c++\6.3.1\cmath **** #endif
1665:c:\program files (x86)\gnu tools arm embedded\6 2017-q2-update\arm-none-eabi\include\c++\6.3.1\cmath **** 
1666:c:\program files (x86)\gnu tools arm embedded\6 2017-q2-update\arm-none-eabi\include\c++\6.3.1\cmath **** #ifndef __CORRECT_ISO_CPP11_MATH_H_PROTO_INT
1667:c:\program files (x86)\gnu tools arm embedded\6 2017-q2-update\arm-none-eabi\include\c++\6.3.1\cmath ****   template<typename _Tp>
1668:c:\program files (x86)\gnu tools arm embedded\6 2017-q2-update\arm-none-eabi\include\c++\6.3.1\cmath ****     constexpr typename __gnu_cxx::__enable_if<__is_integer<_Tp>::__value, 
1669:c:\program files (x86)\gnu tools arm embedded\6 2017-q2-update\arm-none-eabi\include\c++\6.3.1\cmath ****                                               long>::__type
1670:c:\program files (x86)\gnu tools arm embedded\6 2017-q2-update\arm-none-eabi\include\c++\6.3.1\cmath ****     lround(_Tp __x)
1671:c:\program files (x86)\gnu tools arm embedded\6 2017-q2-update\arm-none-eabi\include\c++\6.3.1\cmath ****     { return __builtin_lround(__x); }
1672:c:\program files (x86)\gnu tools arm embedded\6 2017-q2-update\arm-none-eabi\include\c++\6.3.1\cmath **** #endif
1673:c:\program files (x86)\gnu tools arm embedded\6 2017-q2-update\arm-none-eabi\include\c++\6.3.1\cmath **** 
1674:c:\program files (x86)\gnu tools arm embedded\6 2017-q2-update\arm-none-eabi\include\c++\6.3.1\cmath **** #ifndef __CORRECT_ISO_CPP11_MATH_H_PROTO_FP
1675:c:\program files (x86)\gnu tools arm embedded\6 2017-q2-update\arm-none-eabi\include\c++\6.3.1\cmath ****   constexpr float
1676:c:\program files (x86)\gnu tools arm embedded\6 2017-q2-update\arm-none-eabi\include\c++\6.3.1\cmath ****   nearbyint(float __x)
1677:c:\program files (x86)\gnu tools arm embedded\6 2017-q2-update\arm-none-eabi\include\c++\6.3.1\cmath ****   { return __builtin_nearbyintf(__x); }
1678:c:\program files (x86)\gnu tools arm embedded\6 2017-q2-update\arm-none-eabi\include\c++\6.3.1\cmath **** 
1679:c:\program files (x86)\gnu tools arm embedded\6 2017-q2-update\arm-none-eabi\include\c++\6.3.1\cmath ****   constexpr long double
1680:c:\program files (x86)\gnu tools arm embedded\6 2017-q2-update\arm-none-eabi\include\c++\6.3.1\cmath ****   nearbyint(long double __x)
1681:c:\program files (x86)\gnu tools arm embedded\6 2017-q2-update\arm-none-eabi\include\c++\6.3.1\cmath ****   { return __builtin_nearbyintl(__x); }
1682:c:\program files (x86)\gnu tools arm embedded\6 2017-q2-update\arm-none-eabi\include\c++\6.3.1\cmath **** #endif
1683:c:\program files (x86)\gnu tools arm embedded\6 2017-q2-update\arm-none-eabi\include\c++\6.3.1\cmath **** 
1684:c:\program files (x86)\gnu tools arm embedded\6 2017-q2-update\arm-none-eabi\include\c++\6.3.1\cmath **** #ifndef __CORRECT_ISO_CPP11_MATH_H_PROTO_INT
1685:c:\program files (x86)\gnu tools arm embedded\6 2017-q2-update\arm-none-eabi\include\c++\6.3.1\cmath ****   template<typename _Tp>
1686:c:\program files (x86)\gnu tools arm embedded\6 2017-q2-update\arm-none-eabi\include\c++\6.3.1\cmath ****     constexpr typename __gnu_cxx::__enable_if<__is_integer<_Tp>::__value, 
1687:c:\program files (x86)\gnu tools arm embedded\6 2017-q2-update\arm-none-eabi\include\c++\6.3.1\cmath ****                                               double>::__type
1688:c:\program files (x86)\gnu tools arm embedded\6 2017-q2-update\arm-none-eabi\include\c++\6.3.1\cmath ****     nearbyint(_Tp __x)
1689:c:\program files (x86)\gnu tools arm embedded\6 2017-q2-update\arm-none-eabi\include\c++\6.3.1\cmath ****     { return __builtin_nearbyint(__x); }
1690:c:\program files (x86)\gnu tools arm embedded\6 2017-q2-update\arm-none-eabi\include\c++\6.3.1\cmath **** #endif
1691:c:\program files (x86)\gnu tools arm embedded\6 2017-q2-update\arm-none-eabi\include\c++\6.3.1\cmath **** 
1692:c:\program files (x86)\gnu tools arm embedded\6 2017-q2-update\arm-none-eabi\include\c++\6.3.1\cmath **** #ifndef __CORRECT_ISO_CPP11_MATH_H_PROTO_FP
1693:c:\program files (x86)\gnu tools arm embedded\6 2017-q2-update\arm-none-eabi\include\c++\6.3.1\cmath ****   constexpr float
1694:c:\program files (x86)\gnu tools arm embedded\6 2017-q2-update\arm-none-eabi\include\c++\6.3.1\cmath ****   nextafter(float __x, float __y)
1695:c:\program files (x86)\gnu tools arm embedded\6 2017-q2-update\arm-none-eabi\include\c++\6.3.1\cmath ****   { return __builtin_nextafterf(__x, __y); }
1696:c:\program files (x86)\gnu tools arm embedded\6 2017-q2-update\arm-none-eabi\include\c++\6.3.1\cmath **** 
1697:c:\program files (x86)\gnu tools arm embedded\6 2017-q2-update\arm-none-eabi\include\c++\6.3.1\cmath ****   constexpr long double
1698:c:\program files (x86)\gnu tools arm embedded\6 2017-q2-update\arm-none-eabi\include\c++\6.3.1\cmath ****   nextafter(long double __x, long double __y)
1699:c:\program files (x86)\gnu tools arm embedded\6 2017-q2-update\arm-none-eabi\include\c++\6.3.1\cmath ****   { return __builtin_nextafterl(__x, __y); }
1700:c:\program files (x86)\gnu tools arm embedded\6 2017-q2-update\arm-none-eabi\include\c++\6.3.1\cmath **** #endif
1701:c:\program files (x86)\gnu tools arm embedded\6 2017-q2-update\arm-none-eabi\include\c++\6.3.1\cmath **** 
1702:c:\program files (x86)\gnu tools arm embedded\6 2017-q2-update\arm-none-eabi\include\c++\6.3.1\cmath **** #ifndef __CORRECT_ISO_CPP11_MATH_H_PROTO_INT
1703:c:\program files (x86)\gnu tools arm embedded\6 2017-q2-update\arm-none-eabi\include\c++\6.3.1\cmath ****   template<typename _Tp, typename _Up>
1704:c:\program files (x86)\gnu tools arm embedded\6 2017-q2-update\arm-none-eabi\include\c++\6.3.1\cmath ****     constexpr typename __gnu_cxx::__promote_2<_Tp, _Up>::__type
1705:c:\program files (x86)\gnu tools arm embedded\6 2017-q2-update\arm-none-eabi\include\c++\6.3.1\cmath ****     nextafter(_Tp __x, _Up __y)
1706:c:\program files (x86)\gnu tools arm embedded\6 2017-q2-update\arm-none-eabi\include\c++\6.3.1\cmath ****     {
1707:c:\program files (x86)\gnu tools arm embedded\6 2017-q2-update\arm-none-eabi\include\c++\6.3.1\cmath ****       typedef typename __gnu_cxx::__promote_2<_Tp, _Up>::__type __type;
1708:c:\program files (x86)\gnu tools arm embedded\6 2017-q2-update\arm-none-eabi\include\c++\6.3.1\cmath ****       return nextafter(__type(__x), __type(__y));
1709:c:\program files (x86)\gnu tools arm embedded\6 2017-q2-update\arm-none-eabi\include\c++\6.3.1\cmath ****     }
1710:c:\program files (x86)\gnu tools arm embedded\6 2017-q2-update\arm-none-eabi\include\c++\6.3.1\cmath **** #endif
1711:c:\program files (x86)\gnu tools arm embedded\6 2017-q2-update\arm-none-eabi\include\c++\6.3.1\cmath **** 
1712:c:\program files (x86)\gnu tools arm embedded\6 2017-q2-update\arm-none-eabi\include\c++\6.3.1\cmath **** #ifndef __CORRECT_ISO_CPP11_MATH_H_PROTO_FP
1713:c:\program files (x86)\gnu tools arm embedded\6 2017-q2-update\arm-none-eabi\include\c++\6.3.1\cmath ****   constexpr float
1714:c:\program files (x86)\gnu tools arm embedded\6 2017-q2-update\arm-none-eabi\include\c++\6.3.1\cmath ****   nexttoward(float __x, long double __y)
1715:c:\program files (x86)\gnu tools arm embedded\6 2017-q2-update\arm-none-eabi\include\c++\6.3.1\cmath ****   { return __builtin_nexttowardf(__x, __y); }
1716:c:\program files (x86)\gnu tools arm embedded\6 2017-q2-update\arm-none-eabi\include\c++\6.3.1\cmath **** 
1717:c:\program files (x86)\gnu tools arm embedded\6 2017-q2-update\arm-none-eabi\include\c++\6.3.1\cmath ****   constexpr long double
1718:c:\program files (x86)\gnu tools arm embedded\6 2017-q2-update\arm-none-eabi\include\c++\6.3.1\cmath ****   nexttoward(long double __x, long double __y)
1719:c:\program files (x86)\gnu tools arm embedded\6 2017-q2-update\arm-none-eabi\include\c++\6.3.1\cmath ****   { return __builtin_nexttowardl(__x, __y); }
1720:c:\program files (x86)\gnu tools arm embedded\6 2017-q2-update\arm-none-eabi\include\c++\6.3.1\cmath **** #endif
1721:c:\program files (x86)\gnu tools arm embedded\6 2017-q2-update\arm-none-eabi\include\c++\6.3.1\cmath **** 
1722:c:\program files (x86)\gnu tools arm embedded\6 2017-q2-update\arm-none-eabi\include\c++\6.3.1\cmath **** #ifndef __CORRECT_ISO_CPP11_MATH_H_PROTO_INT
1723:c:\program files (x86)\gnu tools arm embedded\6 2017-q2-update\arm-none-eabi\include\c++\6.3.1\cmath ****   template<typename _Tp>
1724:c:\program files (x86)\gnu tools arm embedded\6 2017-q2-update\arm-none-eabi\include\c++\6.3.1\cmath ****     constexpr typename __gnu_cxx::__enable_if<__is_integer<_Tp>::__value, 
1725:c:\program files (x86)\gnu tools arm embedded\6 2017-q2-update\arm-none-eabi\include\c++\6.3.1\cmath ****                                               double>::__type
1726:c:\program files (x86)\gnu tools arm embedded\6 2017-q2-update\arm-none-eabi\include\c++\6.3.1\cmath ****     nexttoward(_Tp __x, long double __y)
1727:c:\program files (x86)\gnu tools arm embedded\6 2017-q2-update\arm-none-eabi\include\c++\6.3.1\cmath ****     { return __builtin_nexttoward(__x, __y); }
1728:c:\program files (x86)\gnu tools arm embedded\6 2017-q2-update\arm-none-eabi\include\c++\6.3.1\cmath **** #endif
1729:c:\program files (x86)\gnu tools arm embedded\6 2017-q2-update\arm-none-eabi\include\c++\6.3.1\cmath **** 
1730:c:\program files (x86)\gnu tools arm embedded\6 2017-q2-update\arm-none-eabi\include\c++\6.3.1\cmath **** #ifndef __CORRECT_ISO_CPP11_MATH_H_PROTO_FP
1731:c:\program files (x86)\gnu tools arm embedded\6 2017-q2-update\arm-none-eabi\include\c++\6.3.1\cmath ****   constexpr float
1732:c:\program files (x86)\gnu tools arm embedded\6 2017-q2-update\arm-none-eabi\include\c++\6.3.1\cmath ****   remainder(float __x, float __y)
1733:c:\program files (x86)\gnu tools arm embedded\6 2017-q2-update\arm-none-eabi\include\c++\6.3.1\cmath ****   { return __builtin_remainderf(__x, __y); }
1734:c:\program files (x86)\gnu tools arm embedded\6 2017-q2-update\arm-none-eabi\include\c++\6.3.1\cmath **** 
1735:c:\program files (x86)\gnu tools arm embedded\6 2017-q2-update\arm-none-eabi\include\c++\6.3.1\cmath ****   constexpr long double
1736:c:\program files (x86)\gnu tools arm embedded\6 2017-q2-update\arm-none-eabi\include\c++\6.3.1\cmath ****   remainder(long double __x, long double __y)
1737:c:\program files (x86)\gnu tools arm embedded\6 2017-q2-update\arm-none-eabi\include\c++\6.3.1\cmath ****   { return __builtin_remainderl(__x, __y); }
1738:c:\program files (x86)\gnu tools arm embedded\6 2017-q2-update\arm-none-eabi\include\c++\6.3.1\cmath **** #endif
1739:c:\program files (x86)\gnu tools arm embedded\6 2017-q2-update\arm-none-eabi\include\c++\6.3.1\cmath **** 
1740:c:\program files (x86)\gnu tools arm embedded\6 2017-q2-update\arm-none-eabi\include\c++\6.3.1\cmath **** #ifndef __CORRECT_ISO_CPP11_MATH_H_PROTO_INT
1741:c:\program files (x86)\gnu tools arm embedded\6 2017-q2-update\arm-none-eabi\include\c++\6.3.1\cmath ****   template<typename _Tp, typename _Up>
1742:c:\program files (x86)\gnu tools arm embedded\6 2017-q2-update\arm-none-eabi\include\c++\6.3.1\cmath ****     constexpr typename __gnu_cxx::__promote_2<_Tp, _Up>::__type
1743:c:\program files (x86)\gnu tools arm embedded\6 2017-q2-update\arm-none-eabi\include\c++\6.3.1\cmath ****     remainder(_Tp __x, _Up __y)
1744:c:\program files (x86)\gnu tools arm embedded\6 2017-q2-update\arm-none-eabi\include\c++\6.3.1\cmath ****     {
1745:c:\program files (x86)\gnu tools arm embedded\6 2017-q2-update\arm-none-eabi\include\c++\6.3.1\cmath ****       typedef typename __gnu_cxx::__promote_2<_Tp, _Up>::__type __type;
1746:c:\program files (x86)\gnu tools arm embedded\6 2017-q2-update\arm-none-eabi\include\c++\6.3.1\cmath ****       return remainder(__type(__x), __type(__y));
1747:c:\program files (x86)\gnu tools arm embedded\6 2017-q2-update\arm-none-eabi\include\c++\6.3.1\cmath ****     }
1748:c:\program files (x86)\gnu tools arm embedded\6 2017-q2-update\arm-none-eabi\include\c++\6.3.1\cmath **** #endif
1749:c:\program files (x86)\gnu tools arm embedded\6 2017-q2-update\arm-none-eabi\include\c++\6.3.1\cmath **** 
1750:c:\program files (x86)\gnu tools arm embedded\6 2017-q2-update\arm-none-eabi\include\c++\6.3.1\cmath **** #ifndef __CORRECT_ISO_CPP11_MATH_H_PROTO_FP
1751:c:\program files (x86)\gnu tools arm embedded\6 2017-q2-update\arm-none-eabi\include\c++\6.3.1\cmath ****   inline float
1752:c:\program files (x86)\gnu tools arm embedded\6 2017-q2-update\arm-none-eabi\include\c++\6.3.1\cmath ****   remquo(float __x, float __y, int* __pquo)
1753:c:\program files (x86)\gnu tools arm embedded\6 2017-q2-update\arm-none-eabi\include\c++\6.3.1\cmath ****   { return __builtin_remquof(__x, __y, __pquo); }
1754:c:\program files (x86)\gnu tools arm embedded\6 2017-q2-update\arm-none-eabi\include\c++\6.3.1\cmath **** 
1755:c:\program files (x86)\gnu tools arm embedded\6 2017-q2-update\arm-none-eabi\include\c++\6.3.1\cmath ****   inline long double
1756:c:\program files (x86)\gnu tools arm embedded\6 2017-q2-update\arm-none-eabi\include\c++\6.3.1\cmath ****   remquo(long double __x, long double __y, int* __pquo)
1757:c:\program files (x86)\gnu tools arm embedded\6 2017-q2-update\arm-none-eabi\include\c++\6.3.1\cmath ****   { return __builtin_remquol(__x, __y, __pquo); }
1758:c:\program files (x86)\gnu tools arm embedded\6 2017-q2-update\arm-none-eabi\include\c++\6.3.1\cmath **** #endif
1759:c:\program files (x86)\gnu tools arm embedded\6 2017-q2-update\arm-none-eabi\include\c++\6.3.1\cmath **** 
1760:c:\program files (x86)\gnu tools arm embedded\6 2017-q2-update\arm-none-eabi\include\c++\6.3.1\cmath **** #ifndef __CORRECT_ISO_CPP11_MATH_H_PROTO_INT
1761:c:\program files (x86)\gnu tools arm embedded\6 2017-q2-update\arm-none-eabi\include\c++\6.3.1\cmath ****   template<typename _Tp, typename _Up>
1762:c:\program files (x86)\gnu tools arm embedded\6 2017-q2-update\arm-none-eabi\include\c++\6.3.1\cmath ****     inline typename __gnu_cxx::__promote_2<_Tp, _Up>::__type
1763:c:\program files (x86)\gnu tools arm embedded\6 2017-q2-update\arm-none-eabi\include\c++\6.3.1\cmath ****     remquo(_Tp __x, _Up __y, int* __pquo)
1764:c:\program files (x86)\gnu tools arm embedded\6 2017-q2-update\arm-none-eabi\include\c++\6.3.1\cmath ****     {
1765:c:\program files (x86)\gnu tools arm embedded\6 2017-q2-update\arm-none-eabi\include\c++\6.3.1\cmath ****       typedef typename __gnu_cxx::__promote_2<_Tp, _Up>::__type __type;
1766:c:\program files (x86)\gnu tools arm embedded\6 2017-q2-update\arm-none-eabi\include\c++\6.3.1\cmath ****       return remquo(__type(__x), __type(__y), __pquo);
1767:c:\program files (x86)\gnu tools arm embedded\6 2017-q2-update\arm-none-eabi\include\c++\6.3.1\cmath ****     }
1768:c:\program files (x86)\gnu tools arm embedded\6 2017-q2-update\arm-none-eabi\include\c++\6.3.1\cmath **** #endif
1769:c:\program files (x86)\gnu tools arm embedded\6 2017-q2-update\arm-none-eabi\include\c++\6.3.1\cmath **** 
1770:c:\program files (x86)\gnu tools arm embedded\6 2017-q2-update\arm-none-eabi\include\c++\6.3.1\cmath **** #ifndef __CORRECT_ISO_CPP11_MATH_H_PROTO_FP
1771:c:\program files (x86)\gnu tools arm embedded\6 2017-q2-update\arm-none-eabi\include\c++\6.3.1\cmath ****   constexpr float
1772:c:\program files (x86)\gnu tools arm embedded\6 2017-q2-update\arm-none-eabi\include\c++\6.3.1\cmath ****   rint(float __x)
1773:c:\program files (x86)\gnu tools arm embedded\6 2017-q2-update\arm-none-eabi\include\c++\6.3.1\cmath ****   { return __builtin_rintf(__x); }
1774:c:\program files (x86)\gnu tools arm embedded\6 2017-q2-update\arm-none-eabi\include\c++\6.3.1\cmath **** 
1775:c:\program files (x86)\gnu tools arm embedded\6 2017-q2-update\arm-none-eabi\include\c++\6.3.1\cmath ****   constexpr long double
1776:c:\program files (x86)\gnu tools arm embedded\6 2017-q2-update\arm-none-eabi\include\c++\6.3.1\cmath ****   rint(long double __x)
1777:c:\program files (x86)\gnu tools arm embedded\6 2017-q2-update\arm-none-eabi\include\c++\6.3.1\cmath ****   { return __builtin_rintl(__x); }
1778:c:\program files (x86)\gnu tools arm embedded\6 2017-q2-update\arm-none-eabi\include\c++\6.3.1\cmath **** #endif
1779:c:\program files (x86)\gnu tools arm embedded\6 2017-q2-update\arm-none-eabi\include\c++\6.3.1\cmath **** 
1780:c:\program files (x86)\gnu tools arm embedded\6 2017-q2-update\arm-none-eabi\include\c++\6.3.1\cmath **** #ifndef __CORRECT_ISO_CPP11_MATH_H_PROTO_INT
1781:c:\program files (x86)\gnu tools arm embedded\6 2017-q2-update\arm-none-eabi\include\c++\6.3.1\cmath ****   template<typename _Tp>
1782:c:\program files (x86)\gnu tools arm embedded\6 2017-q2-update\arm-none-eabi\include\c++\6.3.1\cmath ****     constexpr typename __gnu_cxx::__enable_if<__is_integer<_Tp>::__value, 
1783:c:\program files (x86)\gnu tools arm embedded\6 2017-q2-update\arm-none-eabi\include\c++\6.3.1\cmath ****                                               double>::__type
1784:c:\program files (x86)\gnu tools arm embedded\6 2017-q2-update\arm-none-eabi\include\c++\6.3.1\cmath ****     rint(_Tp __x)
1785:c:\program files (x86)\gnu tools arm embedded\6 2017-q2-update\arm-none-eabi\include\c++\6.3.1\cmath ****     { return __builtin_rint(__x); }
1786:c:\program files (x86)\gnu tools arm embedded\6 2017-q2-update\arm-none-eabi\include\c++\6.3.1\cmath **** #endif
1787:c:\program files (x86)\gnu tools arm embedded\6 2017-q2-update\arm-none-eabi\include\c++\6.3.1\cmath **** 
1788:c:\program files (x86)\gnu tools arm embedded\6 2017-q2-update\arm-none-eabi\include\c++\6.3.1\cmath **** #ifndef __CORRECT_ISO_CPP11_MATH_H_PROTO_FP
1789:c:\program files (x86)\gnu tools arm embedded\6 2017-q2-update\arm-none-eabi\include\c++\6.3.1\cmath ****   constexpr float
1790:c:\program files (x86)\gnu tools arm embedded\6 2017-q2-update\arm-none-eabi\include\c++\6.3.1\cmath ****   round(float __x)
1791:c:\program files (x86)\gnu tools arm embedded\6 2017-q2-update\arm-none-eabi\include\c++\6.3.1\cmath ****   { return __builtin_roundf(__x); }
 525              		.loc 5 1791 0
 526 02f8 280A20EE 		vmul.f32	s0, s0, s17
 527              	.LVL42:
 528 02fc FEFFFFEB 		bl	roundf
 529              	.LVL43:
 530 0300 408AB0EE 		vmov.f32	s16, s0
 531              	.LVL44:
 532              	.LBE294:
 533              	.LBE293:
 534              	.LBE292:
 535              	.LBB295:
 536              	.LBB296:
 537              	.LBB297:
 538              	.LBB298:
 246:c:\program files (x86)\gnu tools arm embedded\6 2017-q2-update\arm-none-eabi\include\c++\6.3.1\cmath **** 
 539              		.loc 5 246 0
 540 0304 6B0AB0EE 		vmov.f32	s0, s23
 541 0308 0C0A1AEE 		vnmls.f32	s0, s20, s24
 542 030c FEFFFFEB 		bl	expf
 543              	.LVL45:
 544 0310 409AB0EE 		vmov.f32	s18, s0
 545              	.LVL46:
 546              	.LBE298:
 547              	.LBE297:
 548              	.LBE296:
 549              	.LBE295:
 550              	.LBB299:
 551              	.LBB300:
 552              	.LBB301:
 553              	.LBB302:
 554 0314 690AB0EE 		vmov.f32	s0, s19
 555 0318 FEFFFFEB 		bl	expf
 556              	.LVL47:
 557              	.LBE302:
 558              	.LBE301:
 559              	.LBE300:
 560              	.LBE299:
 561              	.LBB303:
 562              	.LBB304:
 563              	.LBB305:
 564              		.loc 5 1791 0
 565 031c 280A20EE 		vmul.f32	s0, s0, s17
 566              	.LVL48:
 567 0320 FEFFFFEB 		bl	roundf
 568              	.LVL49:
 569              	.LBE305:
 570              	.LBE304:
 571              	.LBE303:
 326:C:/Renesas/e2studio_2021_01_workspace_RZA2M_ANPR/ANPR_RZA2M_GR_MANGO/src/tensorflow_lite/tensorflow/lite/kernels/internal\common.h ****                      TfLiteRound(func(min + i * step) * 32768.0f)) /
 572              		.loc 3 326 0
 573 0324 280A09EE 		vmla.f32	s0, s18, s17
 574              	.LVL50:
 575              	.LBB306:
 576              	.LBB307:
 577              	.LBB308:
 578              		.loc 5 1791 0
 579 0328 2A0A20EE 		vmul.f32	s0, s0, s21
 580 032c FEFFFFEB 		bl	roundf
 581              	.LVL51:
 582 0330 409AB0EE 		vmov.f32	s18, s0
 583              	.LVL52:
 584              	.LBE308:
 585              	.LBE307:
 586              	.LBE306:
 587              	.LBB309:
 588              	.LBB310:
 589              	.LBB311:
 590              	.LBB312:
 246:c:\program files (x86)\gnu tools arm embedded\6 2017-q2-update\arm-none-eabi\include\c++\6.3.1\cmath **** 
 591              		.loc 5 246 0
 592 0334 AC0A39EE 		vadd.f32	s0, s19, s25
 593 0338 FEFFFFEB 		bl	expf
 594              	.LVL53:
 595              	.LBE312:
 596              	.LBE311:
 597              	.LBE310:
 598              	.LBE309:
 599              	.LBB313:
 600              	.LBB314:
 601              	.LBB315:
 602              		.loc 5 1791 0
 603 033c 280A20EE 		vmul.f32	s0, s0, s17
 604              	.LVL54:
 605 0340 FEFFFFEB 		bl	roundf
 606              	.LVL55:
 607              	.LBE315:
 608              	.LBE314:
 609              	.LBE313:
 331:C:/Renesas/e2studio_2021_01_workspace_RZA2M_ANPR/ANPR_RZA2M_GR_MANGO/src/tensorflow_lite/tensorflow/lite/kernels/internal\common.h ****     float bias = TfLiteRound(midpoint_err / 2.0f);
 610              		.loc 3 331 0
 611 0344 400A39EE 		vsub.f32	s0, s18, s0
 612              	.LVL56:
 613              	.LBB316:
 614              	.LBB317:
 615              	.LBB318:
 616              		.loc 5 1791 0
 617 0348 2A0A20EE 		vmul.f32	s0, s0, s21
 618              	.LVL57:
 619 034c FEFFFFEB 		bl	roundf
 620              	.LVL58:
 621              	.LBE318:
 622              	.LBE317:
 623              	.LBE316:
 333:C:/Renesas/e2studio_2021_01_workspace_RZA2M_ANPR/ANPR_RZA2M_GR_MANGO/src/tensorflow_lite/tensorflow/lite/kernels/internal\common.h ****                                32767.0f);
 624              		.loc 3 333 0
 625 0350 400A38EE 		vsub.f32	s0, s16, s0
 626              	.LBB319:
 627              	.LBB286:
 628              		.loc 4 200 0
 629 0354 FF3F07E3 		movw	r3, #32767
 630              	.LBE286:
 631              	.LBE319:
 632              		.loc 3 334 0
 633 0358 0ABA8DED 		vstr.32	s22, [sp, #40]
 634              	.LVL59:
 635              	.LBB320:
 636              	.LBB321:
 201:c:\program files (x86)\gnu tools arm embedded\6 2017-q2-update\arm-none-eabi\include\c++\6.3.1\bits\stl_algobase.h **** 	return __b;
 202:c:\program files (x86)\gnu tools arm embedded\6 2017-q2-update\arm-none-eabi\include\c++\6.3.1\bits\stl_algobase.h ****       return __a;
 203:c:\program files (x86)\gnu tools arm embedded\6 2017-q2-update\arm-none-eabi\include\c++\6.3.1\bits\stl_algobase.h ****     }
 204:c:\program files (x86)\gnu tools arm embedded\6 2017-q2-update\arm-none-eabi\include\c++\6.3.1\bits\stl_algobase.h **** 
 205:c:\program files (x86)\gnu tools arm embedded\6 2017-q2-update\arm-none-eabi\include\c++\6.3.1\bits\stl_algobase.h ****   /**
 206:c:\program files (x86)\gnu tools arm embedded\6 2017-q2-update\arm-none-eabi\include\c++\6.3.1\bits\stl_algobase.h ****    *  @brief This does what you think it does.
 207:c:\program files (x86)\gnu tools arm embedded\6 2017-q2-update\arm-none-eabi\include\c++\6.3.1\bits\stl_algobase.h ****    *  @ingroup sorting_algorithms
 208:c:\program files (x86)\gnu tools arm embedded\6 2017-q2-update\arm-none-eabi\include\c++\6.3.1\bits\stl_algobase.h ****    *  @param  __a  A thing of arbitrary type.
 209:c:\program files (x86)\gnu tools arm embedded\6 2017-q2-update\arm-none-eabi\include\c++\6.3.1\bits\stl_algobase.h ****    *  @param  __b  Another thing of arbitrary type.
 210:c:\program files (x86)\gnu tools arm embedded\6 2017-q2-update\arm-none-eabi\include\c++\6.3.1\bits\stl_algobase.h ****    *  @return   The greater of the parameters.
 211:c:\program files (x86)\gnu tools arm embedded\6 2017-q2-update\arm-none-eabi\include\c++\6.3.1\bits\stl_algobase.h ****    *
 212:c:\program files (x86)\gnu tools arm embedded\6 2017-q2-update\arm-none-eabi\include\c++\6.3.1\bits\stl_algobase.h ****    *  This is the simple classic generic implementation.  It will work on
 213:c:\program files (x86)\gnu tools arm embedded\6 2017-q2-update\arm-none-eabi\include\c++\6.3.1\bits\stl_algobase.h ****    *  temporary expressions, since they are only evaluated once, unlike a
 214:c:\program files (x86)\gnu tools arm embedded\6 2017-q2-update\arm-none-eabi\include\c++\6.3.1\bits\stl_algobase.h ****    *  preprocessor macro.
 215:c:\program files (x86)\gnu tools arm embedded\6 2017-q2-update\arm-none-eabi\include\c++\6.3.1\bits\stl_algobase.h ****   */
 216:c:\program files (x86)\gnu tools arm embedded\6 2017-q2-update\arm-none-eabi\include\c++\6.3.1\bits\stl_algobase.h ****   template<typename _Tp>
 217:c:\program files (x86)\gnu tools arm embedded\6 2017-q2-update\arm-none-eabi\include\c++\6.3.1\bits\stl_algobase.h ****     _GLIBCXX14_CONSTEXPR
 218:c:\program files (x86)\gnu tools arm embedded\6 2017-q2-update\arm-none-eabi\include\c++\6.3.1\bits\stl_algobase.h ****     inline const _Tp&
 219:c:\program files (x86)\gnu tools arm embedded\6 2017-q2-update\arm-none-eabi\include\c++\6.3.1\bits\stl_algobase.h ****     max(const _Tp& __a, const _Tp& __b)
 220:c:\program files (x86)\gnu tools arm embedded\6 2017-q2-update\arm-none-eabi\include\c++\6.3.1\bits\stl_algobase.h ****     {
 221:c:\program files (x86)\gnu tools arm embedded\6 2017-q2-update\arm-none-eabi\include\c++\6.3.1\bits\stl_algobase.h ****       // concept requirements
 222:c:\program files (x86)\gnu tools arm embedded\6 2017-q2-update\arm-none-eabi\include\c++\6.3.1\bits\stl_algobase.h ****       __glibcxx_function_requires(_LessThanComparableConcept<_Tp>)
 223:c:\program files (x86)\gnu tools arm embedded\6 2017-q2-update\arm-none-eabi\include\c++\6.3.1\bits\stl_algobase.h ****       //return  __a < __b ? __b : __a;
 224:c:\program files (x86)\gnu tools arm embedded\6 2017-q2-update\arm-none-eabi\include\c++\6.3.1\bits\stl_algobase.h ****       if (__a < __b)
 637              		.loc 4 224 0
 638 035c CB0AB4EE 		vcmpe.f32	s0, s22
 639 0360 10FAF1EE 		vmrs	APSR_nzcv, FPSCR
 640              	.LBE321:
 641              	.LBE320:
 333:C:/Renesas/e2studio_2021_01_workspace_RZA2M_ANPR/ANPR_RZA2M_GR_MANGO/src/tensorflow_lite/tensorflow/lite/kernels/internal\common.h ****                                32767.0f);
 642              		.loc 3 333 0
 643 0364 0B0A8DED 		vstr.32	s0, [sp, #44]
 644              	.LBB323:
 645              	.LBB322:
 646              		.loc 4 224 0
 647 0368 D3FFFF5A 		bpl	.L86
 648 036c 4B0AB0EE 		vmov.f32	s0, s22
 649              	.L24:
 650              	.LVL60:
 651 0370 C07AFDEE 		vcvt.s32.f32	s15, s0
 652 0374 077ACDED 		vstr.32	s15, [sp, #28]	@ int
 653 0378 FC31DDE1 		ldrsh	r3, [sp, #28]
 654 037c D2FFFFEA 		b	.L25
 655              	.LVL61:
 656              	.L85:
 657              	.LBE322:
 658              	.LBE323:
 659              	.LBE325:
 660              	.LBE281:
 661              	.LBE280:
 662              	.LBE279:
 130:../src/tensorflow_lite/tensorflow/lite/micro/kernels/softmax_common.cc ****             op_data->one_over_one_plus_x_lut, kInt16LUTArraySize);
 663              		.loc 1 130 0
 664 0380 850A9FED 		vldr.32	s0, .L92+12
 665              	.LBB329:
 666              	.LBB326:
 335:C:/Renesas/e2studio_2021_01_workspace_RZA2M_ANPR/ANPR_RZA2M_GR_MANGO/src/tensorflow_lite/tensorflow/lite/kernels/internal\common.h ****   }
 336:C:/Renesas/e2studio_2021_01_workspace_RZA2M_ANPR/ANPR_RZA2M_GR_MANGO/src/tensorflow_lite/tensorflow/lite/kernels/internal\common.h ****   table[num - 1] = std::min<float>(
 667              		.loc 3 336 0
 668 0384 013B8AE2 		add	r3, r10, #1024
 669              	.LBE326:
 670              	.LBE329:
 130:../src/tensorflow_lite/tensorflow/lite/micro/kernels/softmax_common.cc ****             op_data->one_over_one_plus_x_lut, kInt16LUTArraySize);
 671              		.loc 1 130 0
 672 0388 858A9FED 		vldr.32	s16, .L92+20
 673              	.LBB330:
 674              	.LBB327:
 675              		.loc 3 336 0
 676 038c 0229E0E3 		mvn	r2, #32768
 677              	.LBE327:
 678              	.LBE330:
 130:../src/tensorflow_lite/tensorflow/lite/micro/kernels/softmax_common.cc ****             op_data->one_over_one_plus_x_lut, kInt16LUTArraySize);
 679              		.loc 1 130 0
 680 0390 2CB098E5 		ldr	fp, [r8, #44]
 681 0394 0140A0E3 		mov	r4, #1
 682              	.LVL62:
 683 0398 00DAB7EE 		vmov.f32	s26, #1.0e+0
 684              	.LBB331:
 685              	.LBB332:
 686              	.LBB333:
 687              	.LBB334:
 326:C:/Renesas/e2studio_2021_01_workspace_RZA2M_ANPR/ANPR_RZA2M_GR_MANGO/src/tensorflow_lite/tensorflow/lite/kernels/internal\common.h ****                      TfLiteRound(func(min + i * step) * 32768.0f)) /
 688              		.loc 3 326 0
 689 039c 84BA9FED 		vldr.32	s22, .L92+36
 334:C:/Renesas/e2studio_2021_01_workspace_RZA2M_ANPR/ANPR_RZA2M_GR_MANGO/src/tensorflow_lite/tensorflow/lite/kernels/internal\common.h ****   }
 690              		.loc 3 334 0
 691 03a0 81DADFED 		vldr.32	s27, .L92+28
 692 03a4 02A04BE2 		sub	r10, fp, #2
 693              	.LVL63:
 694 03a8 80CA9FED 		vldr.32	s24, .L92+32
 695 03ac 81CADFED 		vldr.32	s25, .L92+40
 326:C:/Renesas/e2studio_2021_01_workspace_RZA2M_ANPR/ANPR_RZA2M_GR_MANGO/src/tensorflow_lite/tensorflow/lite/kernels/internal\common.h ****                      TfLiteRound(func(min + i * step) * 32768.0f)) /
 696              		.loc 3 326 0
 697 03b0 40AAF0EE 		vmov.f32	s21, s0
 698 03b4 48AAB0EE 		vmov.f32	s20, s16
 699              	.LBB335:
 700              	.LBB336:
 701              	.LBB337:
 130:../src/tensorflow_lite/tensorflow/lite/micro/kernels/softmax_common.cc ****             op_data->one_over_one_plus_x_lut, kInt16LUTArraySize);
 702              		.loc 1 130 0
 703 03b8 4D9AB0EE 		vmov.f32	s18, s26
 704 03bc 00BAF6EE 		vmov.f32	s23, #5.0e-1
 705              	.LBE337:
 706              	.LBE336:
 707              	.LBE335:
 708              	.LBE334:
 709              	.LBE333:
 710              	.LBE332:
 711              	.LBE331:
 712              	.LBB358:
 713              	.LBB328:
 714              		.loc 3 336 0
 715 03c0 B020C3E1 		strh	r2, [r3]	@ movhi
 716              	.LVL64:
 717 03c4 1C0000EA 		b	.L30
 718              	.LVL65:
 719              	.L87:
 720              	.LBE328:
 721              	.LBE358:
 722              	.LBB359:
 723              	.LBB355:
 724              	.LBB354:
 725              	.LBB351:
 726              	.LBB340:
 727              	.LBB341:
 200:c:\program files (x86)\gnu tools arm embedded\6 2017-q2-update\arm-none-eabi\include\c++\6.3.1\bits\stl_algobase.h **** 	return __b;
 728              		.loc 4 200 0
 729 03c8 CC7AF4EE 		vcmpe.f32	s15, s24
 730 03cc 10FAF1EE 		vmrs	APSR_nzcv, FPSCR
 731              	.LBE341:
 732              	.LBE340:
 334:C:/Renesas/e2studio_2021_01_workspace_RZA2M_ANPR/ANPR_RZA2M_GR_MANGO/src/tensorflow_lite/tensorflow/lite/kernels/internal\common.h ****   }
 733              		.loc 3 334 0
 734 03d0 09CA8DED 		vstr.32	s24, [sp, #36]
 735              	.LVL66:
 736              	.LBB344:
 737              	.LBB342:
 200:c:\program files (x86)\gnu tools arm embedded\6 2017-q2-update\arm-none-eabi\include\c++\6.3.1\bits\stl_algobase.h **** 	return __b;
 738              		.loc 4 200 0
 739 03d4 250000DA 		ble	.L27
 740              	.LVL67:
 741              	.L28:
 742 03d8 014084E2 		add	r4, r4, #1
 743              	.LVL68:
 744              	.LBE342:
 745              	.LBE344:
 746              	.LBE351:
 323:C:/Renesas/e2studio_2021_01_workspace_RZA2M_ANPR/ANPR_RZA2M_GR_MANGO/src/tensorflow_lite/tensorflow/lite/kernels/internal\common.h ****     float sample_val = TfLiteRound(func(min + i * step) * 32768.0f);
 747              		.loc 3 323 0
 748 03dc 012200E3 		movw	r2, #513
 749 03e0 020054E1 		cmp	r4, r2
 750              	.LBB352:
 333:C:/Renesas/e2studio_2021_01_workspace_RZA2M_ANPR/ANPR_RZA2M_GR_MANGO/src/tensorflow_lite/tensorflow/lite/kernels/internal\common.h ****                                32767.0f);
 751              		.loc 3 333 0
 752 03e4 B230EAE1 		strh	r3, [r10, #2]!	@ movhi
 753              	.LVL69:
 754              	.LBE352:
 323:C:/Renesas/e2studio_2021_01_workspace_RZA2M_ANPR/ANPR_RZA2M_GR_MANGO/src/tensorflow_lite/tensorflow/lite/kernels/internal\common.h ****     float sample_val = TfLiteRound(func(min + i * step) * 32768.0f);
 755              		.loc 3 323 0
 756 03e8 2400000A 		beq	.L29
 757 03ec 904A07EE 		vmov	s15, r4	@ int
 758 03f0 E7DAB8EE 		vcvt.f32.s32	s26, s15
 759 03f4 FEFFFFEB 		bl	roundf
 760              	.LVL70:
 761 03f8 6A7AF0EE 		vmov.f32	s15, s21
 762 03fc 408AB0EE 		vmov.f32	s16, s0
 763 0400 0B7A4DEE 		vmla.f32	s15, s26, s22
 764 0404 AC8A78EE 		vadd.f32	s17, s17, s25
 765 0408 898A78EE 		vadd.f32	s17, s17, s18
 766 040c 897A77EE 		vadd.f32	s15, s15, s18
 767 0410 277A89EE 		vdiv.f32	s14, s18, s15
 768 0414 0A0A07EE 		vmla.f32	s0, s14, s20
 769 0418 2B0A20EE 		vmul.f32	s0, s0, s23
 770 041c FEFFFFEB 		bl	roundf
 771              	.LVL71:
 772 0420 409AF0EE 		vmov.f32	s19, s0
 773 0424 280A89EE 		vdiv.f32	s0, s18, s17
 774 0428 0A0A20EE 		vmul.f32	s0, s0, s20
 775 042c FEFFFFEB 		bl	roundf
 776              	.LVL72:
 777 0430 C00A39EE 		vsub.f32	s0, s19, s0
 778 0434 2B0A20EE 		vmul.f32	s0, s0, s23
 779 0438 FEFFFFEB 		bl	roundf
 780              	.LVL73:
 781              	.L30:
 782              	.LBB353:
 326:C:/Renesas/e2studio_2021_01_workspace_RZA2M_ANPR/ANPR_RZA2M_GR_MANGO/src/tensorflow_lite/tensorflow/lite/kernels/internal\common.h ****                      TfLiteRound(func(min + i * step) * 32768.0f)) /
 783              		.loc 3 326 0
 784 043c 6A8AF0EE 		vmov.f32	s17, s21
 785              	.LBB345:
 786              	.LBB343:
 200:c:\program files (x86)\gnu tools arm embedded\6 2017-q2-update\arm-none-eabi\include\c++\6.3.1\bits\stl_algobase.h **** 	return __b;
 787              		.loc 4 200 0
 788 0440 FF3F07E3 		movw	r3, #32767
 789              	.LBE343:
 790              	.LBE345:
 333:C:/Renesas/e2studio_2021_01_workspace_RZA2M_ANPR/ANPR_RZA2M_GR_MANGO/src/tensorflow_lite/tensorflow/lite/kernels/internal\common.h ****                                32767.0f);
 791              		.loc 3 333 0
 792 0444 407A78EE 		vsub.f32	s15, s16, s0
 326:C:/Renesas/e2studio_2021_01_workspace_RZA2M_ANPR/ANPR_RZA2M_GR_MANGO/src/tensorflow_lite/tensorflow/lite/kernels/internal\common.h ****                      TfLiteRound(func(min + i * step) * 32768.0f)) /
 793              		.loc 3 326 0
 794 0448 0B8A4DEE 		vmla.f32	s17, s26, s22
 795              	.LVL74:
 334:C:/Renesas/e2studio_2021_01_workspace_RZA2M_ANPR/ANPR_RZA2M_GR_MANGO/src/tensorflow_lite/tensorflow/lite/kernels/internal\common.h ****   }
 796              		.loc 3 334 0
 797 044c 0ADACDED 		vstr.32	s27, [sp, #40]
 798              	.LBB346:
 799              	.LBB347:
 800              		.loc 4 224 0
 801 0450 ED7AF4EE 		vcmpe.f32	s15, s27
 802 0454 10FAF1EE 		vmrs	APSR_nzcv, FPSCR
 803              	.LBE347:
 804              	.LBE346:
 333:C:/Renesas/e2studio_2021_01_workspace_RZA2M_ANPR/ANPR_RZA2M_GR_MANGO/src/tensorflow_lite/tensorflow/lite/kernels/internal\common.h ****                                32767.0f);
 805              		.loc 3 333 0
 806 0458 0B7ACDED 		vstr.32	s15, [sp, #44]
 807              	.LBB349:
 808              	.LBB339:
 809              	.LBB338:
 130:../src/tensorflow_lite/tensorflow/lite/micro/kernels/softmax_common.cc ****             op_data->one_over_one_plus_x_lut, kInt16LUTArraySize);
 810              		.loc 1 130 0
 811 045c 897A38EE 		vadd.f32	s14, s17, s18
 812 0460 070A89EE 		vdiv.f32	s0, s18, s14
 813              	.LBE338:
 814              	.LBE339:
 815              	.LBE349:
 326:C:/Renesas/e2studio_2021_01_workspace_RZA2M_ANPR/ANPR_RZA2M_GR_MANGO/src/tensorflow_lite/tensorflow/lite/kernels/internal\common.h ****                      TfLiteRound(func(min + i * step) * 32768.0f)) /
 816              		.loc 3 326 0
 817 0464 0A0A20EE 		vmul.f32	s0, s0, s20
 818              	.LVL75:
 819              	.LBB350:
 820              	.LBB348:
 821              		.loc 4 224 0
 822 0468 D6FFFF5A 		bpl	.L87
 823 046c 6D7AF0EE 		vmov.f32	s15, s27
 824              	.L27:
 825              	.LVL76:
 826 0470 E77AFDEE 		vcvt.s32.f32	s15, s15
 827 0474 077ACDED 		vstr.32	s15, [sp, #28]	@ int
 828 0478 FC31DDE1 		ldrsh	r3, [sp, #28]
 829 047c D5FFFFEA 		b	.L28
 830              	.LVL77:
 831              	.L29:
 832 0480 00A0D5E5 		ldrb	r10, [r5]	@ zero_extendqisi2
 833              	.LBE348:
 834              	.LBE350:
 835              	.LBE353:
 836              	.LBE354:
 837              		.loc 3 336 0
 838 0484 01BB8BE2 		add	fp, fp, #1024
 839              	.LVL78:
 840              	.LBE355:
 841              	.LBE359:
 133:../src/tensorflow_lite/tensorflow/lite/micro/kernels/softmax_common.cc ****   }
 842              		.loc 1 133 0
 843 0488 037AD9ED 		vldr.32	s15, [r9, #12]
 844              	.LBB360:
 845              	.LBB356:
 846              		.loc 3 336 0
 847 048c 0129A0E3 		mov	r2, #16384
 848              	.LBE356:
 849              	.LBE360:
 132:../src/tensorflow_lite/tensorflow/lite/micro/kernels/softmax_common.cc ****     op_data->scale = output->params.scale;
 850              		.loc 1 132 0
 851 0490 100099E5 		ldr	r0, [r9, #16]
 852              	.LBE278:
 853              	.LBE277:
 854              	.LBB364:
 855              	.LBB269:
 856              	.LBB260:
  35:../src/tensorflow_lite/tensorflow/lite/micro/kernels/softmax_common.cc ****     if (input->type == kTfLiteInt16) {
 857              		.loc 1 35 0
 858 0494 07304AE2 		sub	r3, r10, #7
 859              	.LBE260:
 860              	.LBE269:
 861              	.LBE364:
 136:../src/tensorflow_lite/tensorflow/lite/micro/kernels/softmax_common.cc ****   return CalculateSoftmaxParams(context, input, output, params, op_data);
 862              		.loc 1 136 0
 863 0498 14C096E5 		ldr	ip, [r6, #20]
 864              	.LBB365:
 865              	.LBB270:
 866              	.LBB261:
  35:../src/tensorflow_lite/tensorflow/lite/micro/kernels/softmax_common.cc ****     if (input->type == kTfLiteInt16) {
 867              		.loc 1 35 0
 868 049c FD3013E2 		ands	r3, r3, #253
 869              	.LBE261:
 870              	.LBE270:
 871              	.LBE365:
 872              	.LBB366:
 873              	.LBB362:
 874              	.LBB361:
 875              	.LBB357:
 876              		.loc 3 336 0
 877 04a0 B020CBE1 		strh	r2, [fp]	@ movhi
 878              	.LVL79:
 879              	.LBE357:
 880              	.LBE361:
 132:../src/tensorflow_lite/tensorflow/lite/micro/kernels/softmax_common.cc ****     op_data->scale = output->params.scale;
 881              		.loc 1 132 0
 882 04a4 1C0088E5 		str	r0, [r8, #28]
 133:../src/tensorflow_lite/tensorflow/lite/micro/kernels/softmax_common.cc ****   }
 883              		.loc 1 133 0
 884 04a8 087AC8ED 		vstr.32	s15, [r8, #32]
 885              	.LBE362:
 886              	.LBE366:
 887              	.LBB367:
 888              	.LBB271:
 889              	.LBB262:
  35:../src/tensorflow_lite/tensorflow/lite/micro/kernels/softmax_common.cc ****     if (input->type == kTfLiteInt16) {
 890              		.loc 1 35 0
 891 04ac 0FFFFF1A 		bne	.L31
 892              	.LBB251:
 893              	.LBB244:
  36:../src/tensorflow_lite/tensorflow/lite/micro/kernels/softmax_common.cc ****       TF_LITE_ENSURE_EQ(context, output->params.zero_point, 0);
 894              		.loc 1 36 0
 895 04b0 07005AE3 		cmp	r10, #7
 896 04b4 39FFFF1A 		bne	.L32
 897              	.LBB233:
  37:../src/tensorflow_lite/tensorflow/lite/micro/kernels/softmax_common.cc ****       TF_LITE_ENSURE_NEAR(context, output->params.scale, 1.f / 32768,
 898              		.loc 1 37 0
 899 04b8 000050E3 		cmp	r0, #0
 900 04bc 1801001A 		bne	.L88
 901              	.LBB234:
  38:../src/tensorflow_lite/tensorflow/lite/micro/kernels/softmax_common.cc ****                           (0.001f * 1.f / 32768));
 902              		.loc 1 38 0
 903 04c0 3D7A9FED 		vldr.32	s14, .L92+44
 904 04c4 3D6ADFED 		vldr.32	s13, .L92+48
 905 04c8 C77AF4EE 		vcmpe.f32	s15, s14
 906 04cc 10FAF1EE 		vmrs	APSR_nzcv, FPSCR
 907 04d0 C77A37CE 		vsubgt.f32	s14, s15, s14
 908 04d4 677A37DE 		vsuble.f32	s14, s14, s15
 909              	.LVL80:
 910 04d8 E67AB4EE 		vcmpe.f32	s14, s13
 911 04dc 10FAF1EE 		vmrs	APSR_nzcv, FPSCR
 912 04e0 400100CA 		bgt	.L89
 913              	.LVL81:
 914              	.LBE234:
 915              	.LBE233:
 916              	.LBE244:
 917              	.LBB245:
  59:../src/tensorflow_lite/tensorflow/lite/micro/kernels/softmax_common.cc ****           static_cast<double>(params->beta) /
 918              		.loc 1 59 0
 919 04e4 037AD5ED 		vldr.32	s15, [r5, #12]
  64:../src/tensorflow_lite/tensorflow/lite/micro/kernels/softmax_common.cc ****       op_data->input_left_shift = input_left_shift;
 920              		.loc 1 64 0
 921 04e8 080088E2 		add	r0, r8, #8
  60:../src/tensorflow_lite/tensorflow/lite/micro/kernels/softmax_common.cc ****           (10.0 / 65535.0);  // scale the input_diff such that [-65535, 0]
 922              		.loc 1 60 0
 923 04ec 007A9CED 		vldr.32	s14, [ip]
 924              	.LVL82:
  64:../src/tensorflow_lite/tensorflow/lite/micro/kernels/softmax_common.cc ****       op_data->input_left_shift = input_left_shift;
 925              		.loc 1 64 0
 926 04f0 2C108DE2 		add	r1, sp, #44
  61:../src/tensorflow_lite/tensorflow/lite/micro/kernels/softmax_common.cc ****                              // correspond to [-10.0, 0.0]
 927              		.loc 1 61 0
 928 04f4 250B9FED 		vldr.64	d0, .L92
  59:../src/tensorflow_lite/tensorflow/lite/micro/kernels/softmax_common.cc ****           static_cast<double>(params->beta) /
 929              		.loc 1 59 0
 930 04f8 E70AF7EE 		vcvt.f64.f32	d16, s15
  60:../src/tensorflow_lite/tensorflow/lite/micro/kernels/softmax_common.cc ****           (10.0 / 65535.0);  // scale the input_diff such that [-65535, 0]
 931              		.loc 1 60 0
 932 04fc C77AB7EE 		vcvt.f64.f32	d7, s14
  59:../src/tensorflow_lite/tensorflow/lite/micro/kernels/softmax_common.cc ****           static_cast<double>(params->beta) /
 933              		.loc 1 59 0
 934 0500 870B60EE 		vmul.f64	d16, d16, d7
  64:../src/tensorflow_lite/tensorflow/lite/micro/kernels/softmax_common.cc ****       op_data->input_left_shift = input_left_shift;
 935              		.loc 1 64 0
 936 0504 800B80EE 		vdiv.f64	d0, d16, d0
 937 0508 FEFFFFEB 		bl	_ZN6tflite18QuantizeMultiplierEdPlPi
 938              	.LVL83:
  65:../src/tensorflow_lite/tensorflow/lite/micro/kernels/softmax_common.cc ****     } else {
 939              		.loc 1 65 0
 940 050c 2C309DE5 		ldr	r3, [sp, #44]
 941              	.LBE245:
 942              	.LBE251:
 943              	.LBE262:
  82:../src/tensorflow_lite/tensorflow/lite/micro/kernels/softmax_common.cc **** }
 944              		.loc 1 82 0
 945 0510 0000A0E3 		mov	r0, #0
 946              	.LBB263:
 947              	.LBB252:
 948              	.LBB246:
  65:../src/tensorflow_lite/tensorflow/lite/micro/kernels/softmax_common.cc ****     } else {
 949              		.loc 1 65 0
 950 0514 0C3088E5 		str	r3, [r8, #12]
 951 0518 D4FEFFEA 		b	.L63
 952              	.LVL84:
 953              	.L73:
 954              	.LBE246:
 955              	.LBE252:
 956              	.LBE263:
 957              	.LBE271:
 958              	.LBE367:
 959              	.LBB368:
 960              	.LBB218:
 106:../src/tensorflow_lite/tensorflow/lite/micro/kernels/softmax_common.cc ****     TF_LITE_ENSURE(context, raw_exp_lut != nullptr);
 961              		.loc 1 106 0
 962 051c 383097E5 		ldr	r3, [r7, #56]
 963 0520 021400E3 		movw	r1, #1026
 964 0524 0700A0E1 		mov	r0, r7
 965              	.LVL85:
 966 0528 33FF2FE1 		blx	r3
 967              	.LVL86:
 107:../src/tensorflow_lite/tensorflow/lite/micro/kernels/softmax_common.cc ****     op_data->exp_lut = reinterpret_cast<int16_t*>(raw_exp_lut);
 968              		.loc 1 107 0
 969 052c 000050E3 		cmp	r0, #0
 970 0530 0D01000A 		beq	.L90
 108:../src/tensorflow_lite/tensorflow/lite/micro/kernels/softmax_common.cc ****     void* one_over_one_plus_x_lut = context->AllocatePersistentBuffer(
 971              		.loc 1 108 0
 972 0534 280088E5 		str	r0, [r8, #40]
 110:../src/tensorflow_lite/tensorflow/lite/micro/kernels/softmax_common.cc ****     TF_LITE_ENSURE(context, one_over_one_plus_x_lut != nullptr);
 973              		.loc 1 110 0
 974 0538 021400E3 		movw	r1, #1026
 975 053c 383097E5 		ldr	r3, [r7, #56]
 976 0540 0700A0E1 		mov	r0, r7
 977              	.LVL87:
 978 0544 33FF2FE1 		blx	r3
 979              	.LVL88:
 111:../src/tensorflow_lite/tensorflow/lite/micro/kernels/softmax_common.cc ****     op_data->one_over_one_plus_x_lut =
 980              		.loc 1 111 0
 981 0548 000050E3 		cmp	r0, #0
 982 054c 00A0D515 		ldrbne	r10, [r5]	@ zero_extendqisi2
 112:../src/tensorflow_lite/tensorflow/lite/micro/kernels/softmax_common.cc ****         reinterpret_cast<int16_t*>(one_over_one_plus_x_lut);
 983              		.loc 1 112 0
 984 0550 2C008815 		strne	r0, [r8, #44]
 111:../src/tensorflow_lite/tensorflow/lite/micro/kernels/softmax_common.cc ****     op_data->one_over_one_plus_x_lut =
 985              		.loc 1 111 0
 986 0554 DCFEFF1A 		bne	.L16
 111:../src/tensorflow_lite/tensorflow/lite/micro/kernels/softmax_common.cc ****     op_data->one_over_one_plus_x_lut =
 987              		.loc 1 111 0 is_stmt 0 discriminator 1
 988 0558 003000E3 		movw	r3, #:lower16:.LC11
 989 055c 002000E3 		movw	r2, #:lower16:.LC0
 990 0560 003040E3 		movt	r3, #:upper16:.LC11
 991 0564 001000E3 		movw	r1, #:lower16:.LC5
 992 0568 00308DE5 		str	r3, [sp]
 993 056c 0700A0E1 		mov	r0, r7
 994              	.LVL89:
 995 0570 002040E3 		movt	r2, #:upper16:.LC0
 996 0574 001040E3 		movt	r1, #:upper16:.LC5
 997 0578 145097E5 		ldr	r5, [r7, #20]
 998              	.LVL90:
 999 057c 6F30A0E3 		mov	r3, #111
 1000 0580 35FF2FE1 		blx	r5
 1001              	.LVL91:
 1002 0584 0400A0E1 		mov	r0, r4
 1003 0588 B8FEFFEA 		b	.L63
 1004              	.L93:
 1005 058c 00F020E3 		.align	3
 1006              	.L92:
 1007 0590 14001400 		.word	1310740
 1008 0594 1400243F 		.word	1059323924
 1009 0598 0000803B 		.word	998244352
 1010 059c 00000000 		.word	0
 1011 05a0 0000A03C 		.word	1017118720
 1012 05a4 00000047 		.word	1191182336
 1013 05a8 0000203C 		.word	1008730112
 1014 05ac 000000C7 		.word	-956301312
 1015 05b0 00FEFF46 		.word	1191181824
 1016 05b4 0000003B 		.word	989855744
 1017 05b8 0000803A 		.word	981467136
 1018 05bc 00000038 		.word	939524096
 1019 05c0 6F120333 		.word	855839343
 1020 05c4 00008037 		.word	931135488
 1021 05c8 6F128332 		.word	847450735
 1022              	.LVL92:
 1023              	.L84:
 1024              	.LBE218:
 1025              	.LBE368:
 1026              	.LBB369:
 1027              	.LBB363:
 125:../src/tensorflow_lite/tensorflow/lite/micro/kernels/softmax_common.cc ****     // exp LUT only used on negative values
 1028              		.loc 1 125 0 is_stmt 1 discriminator 1
 1029 05cc 000000E3 		movw	r0, #:lower16:.LC15
 1030 05d0 00C000E3 		movw	ip, #:lower16:.LC16
 1031 05d4 000040E3 		movt	r0, #:upper16:.LC15
 1032 05d8 00C040E3 		movt	ip, #:upper16:.LC16
 1033 05dc 002000E3 		movw	r2, #:lower16:.LC0
 1034 05e0 001000E3 		movw	r1, #:lower16:.LC1
 1035 05e4 0C308DE5 		str	r3, [sp, #12]
 1036 05e8 002040E3 		movt	r2, #:upper16:.LC0
 1037 05ec 04008DE5 		str	r0, [sp, #4]
 1038 05f0 001040E3 		movt	r1, #:upper16:.LC1
 1039 05f4 08408DE5 		str	r4, [sp, #8]
 1040 05f8 0700A0E1 		mov	r0, r7
 1041 05fc 00C08DE5 		str	ip, [sp]
 1042 0600 7D30A0E3 		mov	r3, #125
 1043 0604 144097E5 		ldr	r4, [r7, #20]
 1044 0608 34FF2FE1 		blx	r4
 1045              	.LVL93:
 1046 060c 0100A0E3 		mov	r0, #1
 1047 0610 96FEFFEA 		b	.L63
 1048              	.LVL94:
 1049              	.L76:
 1050              	.LBE363:
 1051              	.LBE369:
 1052              	.LBB370:
 1053              	.LBB272:
 1054              	.LBB264:
  78:../src/tensorflow_lite/tensorflow/lite/micro/kernels/softmax_common.cc ****     TF_LITE_ENSURE_TYPES_EQ(context, output->type, kTfLiteFloat32);
 1055              		.loc 1 78 0
 1056 0614 0A00A0E1 		mov	r0, r10
 1057 0618 144097E5 		ldr	r4, [r7, #20]
 1058 061c FEFFFFEB 		bl	TfLiteTypeGetName
 1059              	.LVL95:
 1060 0620 0050A0E1 		mov	r5, r0
 1061              	.LVL96:
 1062 0624 0100A0E3 		mov	r0, #1
 1063 0628 FEFFFFEB 		bl	TfLiteTypeGetName
 1064              	.LVL97:
 1065 062c 00C000E3 		movw	ip, #:lower16:.LC26
 1066 0630 003000E3 		movw	r3, #:lower16:.LC14
 1067 0634 00C040E3 		movt	ip, #:upper16:.LC26
 1068 0638 003040E3 		movt	r3, #:upper16:.LC14
 1069 063c 002000E3 		movw	r2, #:lower16:.LC0
 1070 0640 001000E3 		movw	r1, #:lower16:.LC20
 1071 0644 0C008DE5 		str	r0, [sp, #12]
 1072 0648 002040E3 		movt	r2, #:upper16:.LC0
 1073 064c 0700A0E1 		mov	r0, r7
 1074 0650 08108DE8 		stm	sp, {r3, ip}
 1075 0654 08508DE5 		str	r5, [sp, #8]
 1076 0658 001040E3 		movt	r1, #:upper16:.LC20
 1077 065c 4E30A0E3 		mov	r3, #78
 1078 0660 34FF2FE1 		blx	r4
 1079              	.LVL98:
 1080 0664 0100A0E3 		mov	r0, #1
 1081 0668 80FEFFEA 		b	.L63
 1082              	.LVL99:
 1083              	.L78:
 1084              	.LBB253:
 1085              	.LBB247:
 1086              	.LBB236:
  41:../src/tensorflow_lite/tensorflow/lite/micro/kernels/softmax_common.cc ****       if (output->type == kTfLiteInt16) {
 1087              		.loc 1 41 0
 1088 066c 0A00A0E1 		mov	r0, r10
 1089 0670 144097E5 		ldr	r4, [r7, #20]
 1090 0674 FEFFFFEB 		bl	TfLiteTypeGetName
 1091              	.LVL100:
 1092 0678 0050A0E1 		mov	r5, r0
 1093              	.LVL101:
 1094 067c 0900A0E3 		mov	r0, #9
 1095 0680 FEFFFFEB 		bl	TfLiteTypeGetName
 1096              	.LVL102:
 1097 0684 00C000E3 		movw	ip, #:lower16:.LC21
 1098 0688 003000E3 		movw	r3, #:lower16:.LC14
 1099 068c 00C040E3 		movt	ip, #:upper16:.LC21
 1100 0690 003040E3 		movt	r3, #:upper16:.LC14
 1101 0694 002000E3 		movw	r2, #:lower16:.LC0
 1102 0698 001000E3 		movw	r1, #:lower16:.LC20
 1103 069c 0C008DE5 		str	r0, [sp, #12]
 1104 06a0 002040E3 		movt	r2, #:upper16:.LC0
 1105 06a4 0700A0E1 		mov	r0, r7
 1106 06a8 08108DE8 		stm	sp, {r3, ip}
 1107 06ac 08508DE5 		str	r5, [sp, #8]
 1108 06b0 001040E3 		movt	r1, #:upper16:.LC20
 1109 06b4 2930A0E3 		mov	r3, #41
 1110 06b8 34FF2FE1 		blx	r4
 1111              	.LVL103:
 1112 06bc 0100A0E3 		mov	r0, #1
 1113 06c0 6AFEFFEA 		b	.L63
 1114              	.LVL104:
 1115              	.L77:
 1116              	.LBE236:
 1117              	.LBE247:
 1118              	.LBE253:
  79:../src/tensorflow_lite/tensorflow/lite/micro/kernels/softmax_common.cc ****     op_data->beta = static_cast<double>(params->beta);
 1119              		.loc 1 79 0
 1120 06c4 144097E5 		ldr	r4, [r7, #20]
 1121 06c8 FEFFFFEB 		bl	TfLiteTypeGetName
 1122              	.LVL105:
 1123 06cc 0050A0E1 		mov	r5, r0
 1124              	.LVL106:
 1125 06d0 0A00A0E1 		mov	r0, r10
 1126 06d4 FEFFFFEB 		bl	TfLiteTypeGetName
 1127              	.LVL107:
 1128 06d8 00C000E3 		movw	ip, #:lower16:.LC26
 1129 06dc 003000E3 		movw	r3, #:lower16:.LC13
 1130 06e0 00C040E3 		movt	ip, #:upper16:.LC26
 1131 06e4 003040E3 		movt	r3, #:upper16:.LC13
 1132 06e8 002000E3 		movw	r2, #:lower16:.LC0
 1133 06ec 001000E3 		movw	r1, #:lower16:.LC20
 1134 06f0 0C008DE5 		str	r0, [sp, #12]
 1135 06f4 002040E3 		movt	r2, #:upper16:.LC0
 1136 06f8 0700A0E1 		mov	r0, r7
 1137 06fc 00308DE5 		str	r3, [sp]
 1138 0700 08508DE5 		str	r5, [sp, #8]
 1139 0704 001040E3 		movt	r1, #:upper16:.LC20
 1140 0708 04C08DE5 		str	ip, [sp, #4]
 1141 070c 4F30A0E3 		mov	r3, #79
 1142 0710 34FF2FE1 		blx	r4
 1143              	.LVL108:
 1144 0714 0A00A0E1 		mov	r0, r10
 1145 0718 54FEFFEA 		b	.L63
 1146              	.LVL109:
 1147              	.L69:
 1148              	.LBE264:
 1149              	.LBE272:
 1150              	.LBE370:
  96:../src/tensorflow_lite/tensorflow/lite/micro/kernels/softmax_common.cc ****   TF_LITE_ENSURE(context, NumDimensions(input) >= 1);
 1151              		.loc 1 96 0 discriminator 1
 1152 071c 003000E3 		movw	r3, #:lower16:.LC6
 1153 0720 002000E3 		movw	r2, #:lower16:.LC0
 1154 0724 003040E3 		movt	r3, #:upper16:.LC6
 1155 0728 001000E3 		movw	r1, #:lower16:.LC5
 1156 072c 00308DE5 		str	r3, [sp]
 1157 0730 0700A0E1 		mov	r0, r7
 1158              	.LVL110:
 1159 0734 002040E3 		movt	r2, #:upper16:.LC0
 1160 0738 001040E3 		movt	r1, #:upper16:.LC5
 1161 073c 145097E5 		ldr	r5, [r7, #20]
 1162              	.LVL111:
 1163 0740 6030A0E3 		mov	r3, #96
 1164 0744 35FF2FE1 		blx	r5
 1165              	.LVL112:
 1166 0748 0400A0E1 		mov	r0, r4
 1167 074c 47FEFFEA 		b	.L63
 1168              	.LVL113:
 1169              	.L83:
 117:../src/tensorflow_lite/tensorflow/lite/micro/kernels/softmax_common.cc ****                    input->type == kTfLiteInt8 || input->type == kTfLiteInt16);
 1170              		.loc 1 117 0 discriminator 1
 1171 0750 003000E3 		movw	r3, #:lower16:.LC12
 1172 0754 002000E3 		movw	r2, #:lower16:.LC0
 1173 0758 003040E3 		movt	r3, #:upper16:.LC12
 1174 075c 001000E3 		movw	r1, #:lower16:.LC5
 1175 0760 00308DE5 		str	r3, [sp]
 1176 0764 0700A0E1 		mov	r0, r7
 1177 0768 002040E3 		movt	r2, #:upper16:.LC0
 1178 076c 001040E3 		movt	r1, #:upper16:.LC5
 1179 0770 144097E5 		ldr	r4, [r7, #20]
 1180 0774 7630A0E3 		mov	r3, #118
 1181 0778 34FF2FE1 		blx	r4
 1182              	.LVL114:
 1183 077c 0100A0E3 		mov	r0, #1
 1184 0780 3AFEFFEA 		b	.L63
 1185              	.LVL115:
 1186              	.L71:
  99:../src/tensorflow_lite/tensorflow/lite/micro/kernels/softmax_common.cc **** 
 1187              		.loc 1 99 0 discriminator 1
 1188 0784 003000E3 		movw	r3, #:lower16:.LC8
 1189 0788 002000E3 		movw	r2, #:lower16:.LC0
 1190 078c 003040E3 		movt	r3, #:upper16:.LC8
 1191 0790 001000E3 		movw	r1, #:lower16:.LC5
 1192 0794 00308DE5 		str	r3, [sp]
 1193 0798 0700A0E1 		mov	r0, r7
 1194              	.LVL116:
 1195 079c 002040E3 		movt	r2, #:upper16:.LC0
 1196 07a0 001040E3 		movt	r1, #:upper16:.LC5
 1197 07a4 145097E5 		ldr	r5, [r7, #20]
 1198              	.LVL117:
 1199 07a8 6330A0E3 		mov	r3, #99
 1200 07ac 35FF2FE1 		blx	r5
 1201              	.LVL118:
 1202 07b0 0400A0E1 		mov	r0, r4
 1203 07b4 2DFEFFEA 		b	.L63
 1204              	.LVL119:
 1205              	.L72:
 101:../src/tensorflow_lite/tensorflow/lite/micro/kernels/softmax_common.cc ****   SoftmaxParams* op_data = static_cast<SoftmaxParams*>(node->user_data);
 1206              		.loc 1 101 0 discriminator 1
 1207 07b8 003000E3 		movw	r3, #:lower16:.LC9
 1208 07bc 002000E3 		movw	r2, #:lower16:.LC0
 1209 07c0 003040E3 		movt	r3, #:upper16:.LC9
 1210 07c4 001000E3 		movw	r1, #:lower16:.LC5
 1211 07c8 00308DE5 		str	r3, [sp]
 1212 07cc 0700A0E1 		mov	r0, r7
 1213              	.LVL120:
 1214 07d0 002040E3 		movt	r2, #:upper16:.LC0
 1215 07d4 001040E3 		movt	r1, #:upper16:.LC5
 1216 07d8 145097E5 		ldr	r5, [r7, #20]
 1217              	.LVL121:
 1218 07dc 6530A0E3 		mov	r3, #101
 1219 07e0 35FF2FE1 		blx	r5
 1220              	.LVL122:
 1221 07e4 0400A0E1 		mov	r0, r4
 1222 07e8 20FEFFEA 		b	.L63
 1223              	.LVL123:
 1224              	.L80:
 1225              	.LBB371:
 1226              	.LBB273:
 1227              	.LBB265:
 1228              	.LBB254:
 1229              	.LBB248:
 1230              	.LBB237:
 1231              	.LBB230:
  47:../src/tensorflow_lite/tensorflow/lite/micro/kernels/softmax_common.cc ****         TF_LITE_ENSURE_EQ(context, output->params.zero_point, -128);
 1232              		.loc 1 47 0
 1233 07ec 144097E5 		ldr	r4, [r7, #20]
 1234 07f0 FEFFFFEB 		bl	TfLiteTypeGetName
 1235              	.LVL124:
 1236 07f4 0050A0E1 		mov	r5, r0
 1237              	.LVL125:
 1238 07f8 0A00A0E1 		mov	r0, r10
 1239 07fc FEFFFFEB 		bl	TfLiteTypeGetName
 1240              	.LVL126:
 1241 0800 00C000E3 		movw	ip, #:lower16:.LC21
 1242 0804 003000E3 		movw	r3, #:lower16:.LC13
 1243 0808 00C040E3 		movt	ip, #:upper16:.LC21
 1244 080c 003040E3 		movt	r3, #:upper16:.LC13
 1245 0810 002000E3 		movw	r2, #:lower16:.LC0
 1246 0814 001000E3 		movw	r1, #:lower16:.LC20
 1247 0818 0C008DE5 		str	r0, [sp, #12]
 1248 081c 002040E3 		movt	r2, #:upper16:.LC0
 1249 0820 0700A0E1 		mov	r0, r7
 1250 0824 00308DE5 		str	r3, [sp]
 1251 0828 08508DE5 		str	r5, [sp, #8]
 1252 082c 001040E3 		movt	r1, #:upper16:.LC20
 1253 0830 04C08DE5 		str	ip, [sp, #4]
 1254 0834 2F30A0E3 		mov	r3, #47
 1255 0838 34FF2FE1 		blx	r4
 1256              	.LVL127:
 1257 083c 0100A0E3 		mov	r0, #1
 1258 0840 0AFEFFEA 		b	.L63
 1259              	.LVL128:
 1260              	.L79:
 1261              	.LBB227:
  43:../src/tensorflow_lite/tensorflow/lite/micro/kernels/softmax_common.cc ****         TF_LITE_ENSURE_NEAR(context, output->params.scale, 1.f / 65536,
 1262              		.loc 1 43 0
 1263 0844 103099E5 		ldr	r3, [r9, #16]
 1264 0848 0209A0E3 		mov	r0, #32768
 1265 084c FF0F4FE3 		movt	r0, 65535
 1266 0850 020973E3 		cmn	r3, #32768
 1267 0854 5100001A 		bne	.L91
 1268              	.LBB228:
  44:../src/tensorflow_lite/tensorflow/lite/micro/kernels/softmax_common.cc ****                             (0.001f * 1.f / 65536));
 1269              		.loc 1 44 0
 1270 0858 A77A5FED 		vldr.32	s15, .L92+52
 1271 085c 037A99ED 		vldr.32	s14, [r9, #12]
 1272 0860 A86A5FED 		vldr.32	s13, .L92+56
 1273 0864 E77AB4EE 		vcmpe.f32	s14, s15
 1274 0868 10FAF1EE 		vmrs	APSR_nzcv, FPSCR
 1275 086c 677A77CE 		vsubgt.f32	s15, s14, s15
 1276 0870 C77A77DE 		vsuble.f32	s15, s15, s14
 1277              	.LVL129:
 1278 0874 E67AF4EE 		vcmpe.f32	s15, s13
 1279 0878 10FAF1EE 		vmrs	APSR_nzcv, FPSCR
 1280 087c 56FEFFDA 		ble	.L45
 1281 0880 C77AB7EE 		vcvt.f64.f32	d7, s14
 1282 0884 000000E3 		movw	r0, #:lower16:.LC23
 1283 0888 0050A0E3 		mov	r5, #0
 1284              	.LVL130:
 1285 088c 003000E3 		movw	r3, #:lower16:.LC19
 1286 0890 0040A0E3 		mov	r4, #0
 1287 0894 000040E3 		movt	r0, #:upper16:.LC23
 1288 0898 003040E3 		movt	r3, #:upper16:.LC19
 1289 089c F05E43E3 		movt	r5, 16112
 1290 08a0 002000E3 		movw	r2, #:lower16:.LC0
 1291 08a4 001000E3 		movw	r1, #:lower16:.LC17
 1292 08a8 04008DE5 		str	r0, [sp, #4]
 1293 08ac 002040E3 		movt	r2, #:upper16:.LC0
 1294 08b0 00308DE5 		str	r3, [sp]
 1295 08b4 0700A0E1 		mov	r0, r7
 1296 08b8 027B8DED 		vstr.64	d7, [sp, #8]
 1297 08bc 001040E3 		movt	r1, #:upper16:.LC17
 1298 08c0 F041CDE1 		strd	r4, [sp, #16]
 1299 08c4 2D30A0E3 		mov	r3, #45
 1300 08c8 144097E5 		ldr	r4, [r7, #20]
 1301 08cc 34FF2FE1 		blx	r4
 1302              	.LVL131:
 1303 08d0 0100A0E3 		mov	r0, #1
 1304 08d4 E5FDFFEA 		b	.L63
 1305              	.LVL132:
 1306              	.L81:
 1307              	.LBE228:
 1308              	.LBE227:
  48:../src/tensorflow_lite/tensorflow/lite/micro/kernels/softmax_common.cc ****         TF_LITE_ENSURE(context, output->params.scale == 1.f / 256);
 1309              		.loc 1 48 0
 1310 08d8 00C000E3 		movw	ip, #:lower16:.LC24
 1311              	.LVL133:
 1312 08dc 000000E3 		movw	r0, #:lower16:.LC16
 1313 08e0 00C040E3 		movt	ip, #:upper16:.LC24
 1314 08e4 000040E3 		movt	r0, #:upper16:.LC16
 1315 08e8 7FE0E0E3 		mvn	lr, #127
 1316 08ec 002000E3 		movw	r2, #:lower16:.LC0
 1317 08f0 001000E3 		movw	r1, #:lower16:.LC1
 1318 08f4 08308DE5 		str	r3, [sp, #8]
 1319 08f8 00008DE5 		str	r0, [sp]
 1320 08fc 002040E3 		movt	r2, #:upper16:.LC0
 1321 0900 04C08DE5 		str	ip, [sp, #4]
 1322 0904 0700A0E1 		mov	r0, r7
 1323 0908 0CE08DE5 		str	lr, [sp, #12]
 1324 090c 001040E3 		movt	r1, #:upper16:.LC1
 1325 0910 144097E5 		ldr	r4, [r7, #20]
 1326 0914 3030A0E3 		mov	r3, #48
 1327 0918 34FF2FE1 		blx	r4
 1328              	.LVL134:
 1329 091c 0100A0E3 		mov	r0, #1
 1330 0920 D2FDFFEA 		b	.L63
 1331              	.LVL135:
 1332              	.L88:
 1333              	.LBE230:
 1334              	.LBE237:
 1335              	.LBB238:
  37:../src/tensorflow_lite/tensorflow/lite/micro/kernels/softmax_common.cc ****       TF_LITE_ENSURE_NEAR(context, output->params.scale, 1.f / 32768,
 1336              		.loc 1 37 0
 1337 0924 00E000E3 		movw	lr, #:lower16:.LC15
 1338 0928 00C000E3 		movw	ip, #:lower16:.LC16
 1339              	.LVL136:
 1340 092c 00E040E3 		movt	lr, #:upper16:.LC15
 1341 0930 00C040E3 		movt	ip, #:upper16:.LC16
 1342 0934 002000E3 		movw	r2, #:lower16:.LC0
 1343 0938 001000E3 		movw	r1, #:lower16:.LC1
 1344 093c 0C308DE5 		str	r3, [sp, #12]
 1345              	.LVL137:
 1346 0940 002040E3 		movt	r2, #:upper16:.LC0
 1347 0944 08008DE5 		str	r0, [sp, #8]
 1348 0948 001040E3 		movt	r1, #:upper16:.LC1
 1349 094c 04E08DE5 		str	lr, [sp, #4]
 1350 0950 0700A0E1 		mov	r0, r7
 1351 0954 00C08DE5 		str	ip, [sp]
 1352 0958 2530A0E3 		mov	r3, #37
 1353 095c 144097E5 		ldr	r4, [r7, #20]
 1354 0960 34FF2FE1 		blx	r4
 1355              	.LVL138:
 1356 0964 0100A0E3 		mov	r0, #1
 1357 0968 C0FDFFEA 		b	.L63
 1358              	.LVL139:
 1359              	.L90:
 1360              	.LBE238:
 1361              	.LBE248:
 1362              	.LBE254:
 1363              	.LBE265:
 1364              	.LBE273:
 1365              	.LBE371:
 1366              	.LBB372:
 1367              	.LBB219:
 107:../src/tensorflow_lite/tensorflow/lite/micro/kernels/softmax_common.cc ****     op_data->exp_lut = reinterpret_cast<int16_t*>(raw_exp_lut);
 1368              		.loc 1 107 0 discriminator 1
 1369 096c 003000E3 		movw	r3, #:lower16:.LC10
 1370 0970 002000E3 		movw	r2, #:lower16:.LC0
 1371 0974 003040E3 		movt	r3, #:upper16:.LC10
 1372 0978 001000E3 		movw	r1, #:lower16:.LC5
 1373 097c 00308DE5 		str	r3, [sp]
 1374 0980 0700A0E1 		mov	r0, r7
 1375              	.LVL140:
 1376 0984 002040E3 		movt	r2, #:upper16:.LC0
 1377 0988 001040E3 		movt	r1, #:upper16:.LC5
 1378 098c 145097E5 		ldr	r5, [r7, #20]
 1379              	.LVL141:
 1380 0990 6B30A0E3 		mov	r3, #107
 1381 0994 35FF2FE1 		blx	r5
 1382              	.LVL142:
 1383 0998 0400A0E1 		mov	r0, r4
 1384 099c B3FDFFEA 		b	.L63
 1385              	.LVL143:
 1386              	.L91:
 1387              	.LBE219:
 1388              	.LBE372:
 1389              	.LBB373:
 1390              	.LBB274:
 1391              	.LBB266:
 1392              	.LBB255:
 1393              	.LBB249:
 1394              	.LBB239:
 1395              	.LBB231:
 1396              	.LBB229:
  43:../src/tensorflow_lite/tensorflow/lite/micro/kernels/softmax_common.cc ****         TF_LITE_ENSURE_NEAR(context, output->params.scale, 1.f / 65536,
 1397              		.loc 1 43 0
 1398 09a0 00E000E3 		movw	lr, #:lower16:.LC22
 1399 09a4 00C000E3 		movw	ip, #:lower16:.LC16
 1400              	.LVL144:
 1401 09a8 00E040E3 		movt	lr, #:upper16:.LC22
 1402 09ac 00C040E3 		movt	ip, #:upper16:.LC16
 1403 09b0 002000E3 		movw	r2, #:lower16:.LC0
 1404 09b4 001000E3 		movw	r1, #:lower16:.LC1
 1405 09b8 0C008DE5 		str	r0, [sp, #12]
 1406 09bc 002040E3 		movt	r2, #:upper16:.LC0
 1407 09c0 08308DE5 		str	r3, [sp, #8]
 1408 09c4 0700A0E1 		mov	r0, r7
 1409 09c8 04E08DE5 		str	lr, [sp, #4]
 1410 09cc 001040E3 		movt	r1, #:upper16:.LC1
 1411 09d0 00C08DE5 		str	ip, [sp]
 1412 09d4 2B30A0E3 		mov	r3, #43
 1413 09d8 144097E5 		ldr	r4, [r7, #20]
 1414 09dc 34FF2FE1 		blx	r4
 1415              	.LVL145:
 1416 09e0 0100A0E3 		mov	r0, #1
 1417 09e4 A1FDFFEA 		b	.L63
 1418              	.LVL146:
 1419              	.L89:
 1420              	.LBE229:
 1421              	.LBE231:
 1422              	.LBE239:
 1423              	.LBB240:
 1424              	.LBB235:
  38:../src/tensorflow_lite/tensorflow/lite/micro/kernels/softmax_common.cc ****                           (0.001f * 1.f / 32768));
 1425              		.loc 1 38 0
 1426 09e8 E70AF7EE 		vcvt.f64.f32	d16, s15
 1427 09ec 000000E3 		movw	r0, #:lower16:.LC18
 1428 09f0 003000E3 		movw	r3, #:lower16:.LC19
 1429 09f4 0040A0E3 		mov	r4, #0
 1430 09f8 000040E3 		movt	r0, #:upper16:.LC18
 1431 09fc 003040E3 		movt	r3, #:upper16:.LC19
 1432 0a00 3F54A0E3 		mov	r5, #1056964608
 1433              	.LVL147:
 1434 0a04 002000E3 		movw	r2, #:lower16:.LC0
 1435 0a08 001000E3 		movw	r1, #:lower16:.LC17
 1436 0a0c 04008DE5 		str	r0, [sp, #4]
 1437 0a10 00308DE5 		str	r3, [sp]
 1438 0a14 0700A0E1 		mov	r0, r7
 1439 0a18 020BCDED 		vstr.64	d16, [sp, #8]
 1440 0a1c 002040E3 		movt	r2, #:upper16:.LC0
 1441 0a20 F041CDE1 		strd	r4, [sp, #16]
 1442 0a24 001040E3 		movt	r1, #:upper16:.LC17
 1443 0a28 2730A0E3 		mov	r3, #39
 1444 0a2c 144097E5 		ldr	r4, [r7, #20]
 1445 0a30 34FF2FE1 		blx	r4
 1446              	.LVL148:
 1447 0a34 0100A0E3 		mov	r0, #1
 1448 0a38 8CFDFFEA 		b	.L63
 1449              	.LVL149:
 1450              	.L82:
 1451              	.LBE235:
 1452              	.LBE240:
 1453              	.LBB241:
 1454              	.LBB232:
  49:../src/tensorflow_lite/tensorflow/lite/micro/kernels/softmax_common.cc ****       }
 1455              		.loc 1 49 0
 1456 0a3c 003000E3 		movw	r3, #:lower16:.LC25
 1457 0a40 002000E3 		movw	r2, #:lower16:.LC0
 1458 0a44 003040E3 		movt	r3, #:upper16:.LC25
 1459 0a48 001000E3 		movw	r1, #:lower16:.LC5
 1460 0a4c 00308DE5 		str	r3, [sp]
 1461 0a50 0700A0E1 		mov	r0, r7
 1462 0a54 002040E3 		movt	r2, #:upper16:.LC0
 1463 0a58 001040E3 		movt	r1, #:upper16:.LC5
 1464 0a5c 144097E5 		ldr	r4, [r7, #20]
 1465 0a60 3130A0E3 		mov	r3, #49
 1466 0a64 34FF2FE1 		blx	r4
 1467              	.LVL150:
 1468 0a68 0100A0E3 		mov	r0, #1
 1469 0a6c 7FFDFFEA 		b	.L63
 1470              	.LBE232:
 1471              	.LBE241:
 1472              	.LBE249:
 1473              	.LBE255:
 1474              	.LBE266:
 1475              	.LBE274:
 1476              	.LBE373:
 1477              		.cfi_endproc
 1478              	.LFE4162:
 1479              		.fnend
 1481              		.section	.rodata._ZN6tflite14SoftmaxPrepareEP13TfLiteContextP10TfLiteNode.str1.4,"aMS",%progbits,1
 1482              		.align	2
 1483              	.LC0:
 1484 0000 2E2E2F73 		.ascii	"../src/tensorflow_lite/tensorflow/lite/micro/kernel"
 1484      72632F74 
 1484      656E736F 
 1484      72666C6F 
 1484      775F6C69 
 1485 0033 732F736F 		.ascii	"s/softmax_common.cc\000"
 1485      66746D61 
 1485      785F636F 
 1485      6D6D6F6E 
 1485      2E636300 
 1486 0047 00       		.space	1
 1487              	.LC1:
 1488 0048 25733A25 		.ascii	"%s:%d %s != %s (%d != %d)\000"
 1488      64202573 
 1488      20213D20 
 1488      25732028 
 1488      25642021 
 1489 0062 0000     		.space	2
 1490              	.LC2:
 1491 0064 3100     		.ascii	"1\000"
 1492 0066 0000     		.space	2
 1493              	.LC3:
 1494 0068 4E756D49 		.ascii	"NumInputs(node)\000"
 1494      6E707574 
 1494      73286E6F 
 1494      64652900 
 1495              	.LC4:
 1496 0078 4E756D4F 		.ascii	"NumOutputs(node)\000"
 1496      75747075 
 1496      7473286E 
 1496      6F646529 
 1496      00
 1497 0089 000000   		.space	3
 1498              	.LC5:
 1499 008c 25733A25 		.ascii	"%s:%d %s was not true.\000"
 1499      64202573 
 1499      20776173 
 1499      206E6F74 
 1499      20747275 
 1500 00a3 00       		.space	1
 1501              	.LC6:
 1502 00a4 696E7075 		.ascii	"input != nullptr\000"
 1502      7420213D 
 1502      206E756C 
 1502      6C707472 
 1502      00
 1503 00b5 000000   		.space	3
 1504              	.LC7:
 1505 00b8 4E756D44 		.ascii	"NumDimensions(input) >= 1\000"
 1505      696D656E 
 1505      73696F6E 
 1505      7328696E 
 1505      70757429 
 1506 00d2 0000     		.space	2
 1507              	.LC8:
 1508 00d4 6F757470 		.ascii	"output != nullptr\000"
 1508      75742021 
 1508      3D206E75 
 1508      6C6C7074 
 1508      7200
 1509 00e6 0000     		.space	2
 1510              	.LC9:
 1511 00e8 6E6F6465 		.ascii	"node->user_data != nullptr\000"
 1511      2D3E7573 
 1511      65725F64 
 1511      61746120 
 1511      213D206E 
 1512 0103 00       		.space	1
 1513              	.LC10:
 1514 0104 7261775F 		.ascii	"raw_exp_lut != nullptr\000"
 1514      6578705F 
 1514      6C757420 
 1514      213D206E 
 1514      756C6C70 
 1515 011b 00       		.space	1
 1516              	.LC11:
 1517 011c 6F6E655F 		.ascii	"one_over_one_plus_x_lut != nullptr\000"
 1517      6F766572 
 1517      5F6F6E65 
 1517      5F706C75 
 1517      735F785F 
 1518 013f 00       		.space	1
 1519              	.LC12:
 1520 0140 696E7075 		.ascii	"input->type == kTfLiteInt8 || input->type == kTfLit"
 1520      742D3E74 
 1520      79706520 
 1520      3D3D206B 
 1520      54664C69 
 1521 0173 65496E74 		.ascii	"eInt16\000"
 1521      313600
 1522 017a 0000     		.space	2
 1523              	.LC13:
 1524 017c 6F757470 		.ascii	"output->type\000"
 1524      75742D3E 
 1524      74797065 
 1524      00
 1525 0189 000000   		.space	3
 1526              	.LC14:
 1527 018c 696E7075 		.ascii	"input->type\000"
 1527      742D3E74 
 1527      79706500 
 1528              	.LC15:
 1529 0198 3000     		.ascii	"0\000"
 1530 019a 0000     		.space	2
 1531              	.LC16:
 1532 019c 6F757470 		.ascii	"output->params.zero_point\000"
 1532      75742D3E 
 1532      70617261 
 1532      6D732E7A 
 1532      65726F5F 
 1533 01b6 0000     		.space	2
 1534              	.LC17:
 1535 01b8 25733A25 		.ascii	"%s:%d %s not near %s (%f != %f)\000"
 1535      64202573 
 1535      206E6F74 
 1535      206E6561 
 1535      72202573 
 1536              	.LC18:
 1537 01d8 312E6620 		.ascii	"1.f / 32768\000"
 1537      2F203332 
 1537      37363800 
 1538              	.LC19:
 1539 01e4 6F757470 		.ascii	"output->params.scale\000"
 1539      75742D3E 
 1539      70617261 
 1539      6D732E73 
 1539      63616C65 
 1540 01f9 000000   		.space	3
 1541              	.LC20:
 1542 01fc 25733A25 		.ascii	"%s:%d %s != %s (%s != %s)\000"
 1542      64202573 
 1542      20213D20 
 1542      25732028 
 1542      25732021 
 1543 0216 0000     		.space	2
 1544              	.LC21:
 1545 0218 6B54664C 		.ascii	"kTfLiteInt8\000"
 1545      69746549 
 1545      6E743800 
 1546              	.LC22:
 1547 0224 2D333237 		.ascii	"-32768\000"
 1547      363800
 1548 022b 00       		.space	1
 1549              	.LC23:
 1550 022c 312E6620 		.ascii	"1.f / 65536\000"
 1550      2F203635 
 1550      35333600 
 1551              	.LC24:
 1552 0238 2D313238 		.ascii	"-128\000"
 1552      00
 1553 023d 000000   		.space	3
 1554              	.LC25:
 1555 0240 6F757470 		.ascii	"output->params.scale == 1.f / 256\000"
 1555      75742D3E 
 1555      70617261 
 1555      6D732E73 
 1555      63616C65 
 1556 0262 0000     		.space	2
 1557              	.LC26:
 1558 0264 6B54664C 		.ascii	"kTfLiteFloat32\000"
 1558      69746546 
 1558      6C6F6174 
 1558      333200
 1559              		.text
 1560              	.Letext0:
 1561              		.file 6 "c:\\program files (x86)\\gnu tools arm embedded\\6 2017-q2-update\\arm-none-eabi\\include
 1562              		.file 7 "c:\\program files (x86)\\gnu tools arm embedded\\6 2017-q2-update\\arm-none-eabi\\include
 1563              		.file 8 "c:\\program files (x86)\\gnu tools arm embedded\\6 2017-q2-update\\arm-none-eabi\\include
 1564              		.file 9 "c:\\program files (x86)\\gnu tools arm embedded\\6 2017-q2-update\\lib\\gcc\\arm-none-eab
 1565              		.file 10 "C:/Renesas/e2studio_2021_01_workspace_RZA2M_ANPR/ANPR_RZA2M_GR_MANGO/src/tensorflow_lite
 1566              		.file 11 "C:/Renesas/e2studio_2021_01_workspace_RZA2M_ANPR/ANPR_RZA2M_GR_MANGO/src/tensorflow_lite
 1567              		.file 12 "C:/Renesas/e2studio_2021_01_workspace_RZA2M_ANPR/ANPR_RZA2M_GR_MANGO/src/tensorflow_lite
 1568              		.file 13 "c:\\program files (x86)\\gnu tools arm embedded\\6 2017-q2-update\\arm-none-eabi\\includ
 1569              		.file 14 "c:\\program files (x86)\\gnu tools arm embedded\\6 2017-q2-update\\arm-none-eabi\\includ
 1570              		.file 15 "c:\\program files (x86)\\gnu tools arm embedded\\6 2017-q2-update\\arm-none-eabi\\includ
 1571              		.file 16 "c:\\program files (x86)\\gnu tools arm embedded\\6 2017-q2-update\\arm-none-eabi\\includ
 1572              		.file 17 "c:\\program files (x86)\\gnu tools arm embedded\\6 2017-q2-update\\arm-none-eabi\\includ
 1573              		.file 18 "c:\\program files (x86)\\gnu tools arm embedded\\6 2017-q2-update\\arm-none-eabi\\includ
 1574              		.file 19 "c:\\program files (x86)\\gnu tools arm embedded\\6 2017-q2-update\\arm-none-eabi\\includ
 1575              		.file 20 "c:\\program files (x86)\\gnu tools arm embedded\\6 2017-q2-update\\arm-none-eabi\\includ
 1576              		.file 21 "c:\\program files (x86)\\gnu tools arm embedded\\6 2017-q2-update\\arm-none-eabi\\includ
 1577              		.file 22 "c:\\program files (x86)\\gnu tools arm embedded\\6 2017-q2-update\\arm-none-eabi\\includ
 1578              		.file 23 "c:\\program files (x86)\\gnu tools arm embedded\\6 2017-q2-update\\arm-none-eabi\\includ
 1579              		.file 24 "c:\\program files (x86)\\gnu tools arm embedded\\6 2017-q2-update\\arm-none-eabi\\includ
 1580              		.file 25 "c:\\program files (x86)\\gnu tools arm embedded\\6 2017-q2-update\\arm-none-eabi\\includ
 1581              		.file 26 "c:\\program files (x86)\\gnu tools arm embedded\\6 2017-q2-update\\arm-none-eabi\\includ
 1582              		.file 27 "c:\\program files (x86)\\gnu tools arm embedded\\6 2017-q2-update\\arm-none-eabi\\includ
 1583              		.file 28 "c:\\program files (x86)\\gnu tools arm embedded\\6 2017-q2-update\\arm-none-eabi\\includ
 1584              		.file 29 "c:\\program files (x86)\\gnu tools arm embedded\\6 2017-q2-update\\arm-none-eabi\\includ
 1585              		.file 30 "c:\\program files (x86)\\gnu tools arm embedded\\6 2017-q2-update\\arm-none-eabi\\includ
 1586              		.file 31 "c:\\program files (x86)\\gnu tools arm embedded\\6 2017-q2-update\\arm-none-eabi\\includ
 1587              		.file 32 "c:\\program files (x86)\\gnu tools arm embedded\\6 2017-q2-update\\arm-none-eabi\\includ
 1588              		.file 33 "c:\\program files (x86)\\gnu tools arm embedded\\6 2017-q2-update\\arm-none-eabi\\includ
 1589              		.file 34 "c:\\program files (x86)\\gnu tools arm embedded\\6 2017-q2-update\\arm-none-eabi\\includ
 1590              		.file 35 "c:\\program files (x86)\\gnu tools arm embedded\\6 2017-q2-update\\arm-none-eabi\\includ
 1591              		.file 36 "c:\\program files (x86)\\gnu tools arm embedded\\6 2017-q2-update\\lib\\gcc\\arm-none-ea
 1592              		.file 37 "<built-in>"
 1593              		.file 38 "c:\\program files (x86)\\gnu tools arm embedded\\6 2017-q2-update\\arm-none-eabi\\includ
 1594              		.file 39 "c:\\program files (x86)\\gnu tools arm embedded\\6 2017-q2-update\\arm-none-eabi\\includ
 1595              		.file 40 "c:\\program files (x86)\\gnu tools arm embedded\\6 2017-q2-update\\arm-none-eabi\\includ
 1596              		.file 41 "c:\\program files (x86)\\gnu tools arm embedded\\6 2017-q2-update\\arm-none-eabi\\includ
 1597              		.file 42 "c:\\program files (x86)\\gnu tools arm embedded\\6 2017-q2-update\\arm-none-eabi\\includ
 1598              		.file 43 "c:\\program files (x86)\\gnu tools arm embedded\\6 2017-q2-update\\arm-none-eabi\\includ
 1599              		.file 44 "c:\\program files (x86)\\gnu tools arm embedded\\6 2017-q2-update\\arm-none-eabi\\includ
 1600              		.file 45 "C:/Renesas/e2studio_2021_01_workspace_RZA2M_ANPR/ANPR_RZA2M_GR_MANGO/src/tensorflow_lite
 1601              		.file 46 "c:\\program files (x86)\\gnu tools arm embedded\\6 2017-q2-update\\arm-none-eabi\\includ
 1602              		.file 47 "C:/Renesas/e2studio_2021_01_workspace_RZA2M_ANPR/ANPR_RZA2M_GR_MANGO/src/tensorflow_lite
 1603              		.file 48 "C:/Renesas/e2studio_2021_01_workspace_RZA2M_ANPR/ANPR_RZA2M_GR_MANGO/src/tensorflow_lite
 1604              		.file 49 "C:/Renesas/e2studio_2021_01_workspace_RZA2M_ANPR/ANPR_RZA2M_GR_MANGO/src/tensorflow_lite
DEFINED SYMBOLS
                            *ABS*:00000000 softmax_common.cc
C:\Users\a5050395\AppData\Local\Temp\ccG6Ubmn.s:17     .text._ZN6tflite11SoftmaxInitEP13TfLiteContextPKcj:00000000 $a
C:\Users\a5050395\AppData\Local\Temp\ccG6Ubmn.s:23     .text._ZN6tflite11SoftmaxInitEP13TfLiteContextPKcj:00000000 _ZN6tflite11SoftmaxInitEP13TfLiteContextPKcj
.ARM.exidx.text._ZN6tflite11SoftmaxInitEP13TfLiteContextPKcj:00000000 $d
C:\Users\a5050395\AppData\Local\Temp\ccG6Ubmn.s:56     .text._ZN6tflite14SoftmaxPrepareEP13TfLiteContextP10TfLiteNode:00000000 $a
C:\Users\a5050395\AppData\Local\Temp\ccG6Ubmn.s:62     .text._ZN6tflite14SoftmaxPrepareEP13TfLiteContextP10TfLiteNode:00000000 _ZN6tflite14SoftmaxPrepareEP13TfLiteContextP10TfLiteNode
C:\Users\a5050395\AppData\Local\Temp\ccG6Ubmn.s:1490   .rodata._ZN6tflite14SoftmaxPrepareEP13TfLiteContextP10TfLiteNode.str1.4:00000064 .LC2
C:\Users\a5050395\AppData\Local\Temp\ccG6Ubmn.s:1495   .rodata._ZN6tflite14SoftmaxPrepareEP13TfLiteContextP10TfLiteNode.str1.4:00000078 .LC4
C:\Users\a5050395\AppData\Local\Temp\ccG6Ubmn.s:1483   .rodata._ZN6tflite14SoftmaxPrepareEP13TfLiteContextP10TfLiteNode.str1.4:00000000 .LC0
C:\Users\a5050395\AppData\Local\Temp\ccG6Ubmn.s:1487   .rodata._ZN6tflite14SoftmaxPrepareEP13TfLiteContextP10TfLiteNode.str1.4:00000048 .LC1
C:\Users\a5050395\AppData\Local\Temp\ccG6Ubmn.s:1493   .rodata._ZN6tflite14SoftmaxPrepareEP13TfLiteContextP10TfLiteNode.str1.4:00000068 .LC3
C:\Users\a5050395\AppData\Local\Temp\ccG6Ubmn.s:1504   .rodata._ZN6tflite14SoftmaxPrepareEP13TfLiteContextP10TfLiteNode.str1.4:000000b8 .LC7
C:\Users\a5050395\AppData\Local\Temp\ccG6Ubmn.s:1498   .rodata._ZN6tflite14SoftmaxPrepareEP13TfLiteContextP10TfLiteNode.str1.4:0000008c .LC5
C:\Users\a5050395\AppData\Local\Temp\ccG6Ubmn.s:1523   .rodata._ZN6tflite14SoftmaxPrepareEP13TfLiteContextP10TfLiteNode.str1.4:0000017c .LC13
C:\Users\a5050395\AppData\Local\Temp\ccG6Ubmn.s:1526   .rodata._ZN6tflite14SoftmaxPrepareEP13TfLiteContextP10TfLiteNode.str1.4:0000018c .LC14
C:\Users\a5050395\AppData\Local\Temp\ccG6Ubmn.s:1516   .rodata._ZN6tflite14SoftmaxPrepareEP13TfLiteContextP10TfLiteNode.str1.4:0000011c .LC11
C:\Users\a5050395\AppData\Local\Temp\ccG6Ubmn.s:1007   .text._ZN6tflite14SoftmaxPrepareEP13TfLiteContextP10TfLiteNode:00000590 $d
C:\Users\a5050395\AppData\Local\Temp\ccG6Ubmn.s:1528   .rodata._ZN6tflite14SoftmaxPrepareEP13TfLiteContextP10TfLiteNode.str1.4:00000198 .LC15
C:\Users\a5050395\AppData\Local\Temp\ccG6Ubmn.s:1029   .text._ZN6tflite14SoftmaxPrepareEP13TfLiteContextP10TfLiteNode:000005cc $a
C:\Users\a5050395\AppData\Local\Temp\ccG6Ubmn.s:1531   .rodata._ZN6tflite14SoftmaxPrepareEP13TfLiteContextP10TfLiteNode.str1.4:0000019c .LC16
C:\Users\a5050395\AppData\Local\Temp\ccG6Ubmn.s:1557   .rodata._ZN6tflite14SoftmaxPrepareEP13TfLiteContextP10TfLiteNode.str1.4:00000264 .LC26
C:\Users\a5050395\AppData\Local\Temp\ccG6Ubmn.s:1541   .rodata._ZN6tflite14SoftmaxPrepareEP13TfLiteContextP10TfLiteNode.str1.4:000001fc .LC20
C:\Users\a5050395\AppData\Local\Temp\ccG6Ubmn.s:1544   .rodata._ZN6tflite14SoftmaxPrepareEP13TfLiteContextP10TfLiteNode.str1.4:00000218 .LC21
C:\Users\a5050395\AppData\Local\Temp\ccG6Ubmn.s:1501   .rodata._ZN6tflite14SoftmaxPrepareEP13TfLiteContextP10TfLiteNode.str1.4:000000a4 .LC6
C:\Users\a5050395\AppData\Local\Temp\ccG6Ubmn.s:1519   .rodata._ZN6tflite14SoftmaxPrepareEP13TfLiteContextP10TfLiteNode.str1.4:00000140 .LC12
C:\Users\a5050395\AppData\Local\Temp\ccG6Ubmn.s:1507   .rodata._ZN6tflite14SoftmaxPrepareEP13TfLiteContextP10TfLiteNode.str1.4:000000d4 .LC8
C:\Users\a5050395\AppData\Local\Temp\ccG6Ubmn.s:1510   .rodata._ZN6tflite14SoftmaxPrepareEP13TfLiteContextP10TfLiteNode.str1.4:000000e8 .LC9
C:\Users\a5050395\AppData\Local\Temp\ccG6Ubmn.s:1549   .rodata._ZN6tflite14SoftmaxPrepareEP13TfLiteContextP10TfLiteNode.str1.4:0000022c .LC23
C:\Users\a5050395\AppData\Local\Temp\ccG6Ubmn.s:1538   .rodata._ZN6tflite14SoftmaxPrepareEP13TfLiteContextP10TfLiteNode.str1.4:000001e4 .LC19
C:\Users\a5050395\AppData\Local\Temp\ccG6Ubmn.s:1534   .rodata._ZN6tflite14SoftmaxPrepareEP13TfLiteContextP10TfLiteNode.str1.4:000001b8 .LC17
C:\Users\a5050395\AppData\Local\Temp\ccG6Ubmn.s:1551   .rodata._ZN6tflite14SoftmaxPrepareEP13TfLiteContextP10TfLiteNode.str1.4:00000238 .LC24
C:\Users\a5050395\AppData\Local\Temp\ccG6Ubmn.s:1513   .rodata._ZN6tflite14SoftmaxPrepareEP13TfLiteContextP10TfLiteNode.str1.4:00000104 .LC10
C:\Users\a5050395\AppData\Local\Temp\ccG6Ubmn.s:1546   .rodata._ZN6tflite14SoftmaxPrepareEP13TfLiteContextP10TfLiteNode.str1.4:00000224 .LC22
C:\Users\a5050395\AppData\Local\Temp\ccG6Ubmn.s:1536   .rodata._ZN6tflite14SoftmaxPrepareEP13TfLiteContextP10TfLiteNode.str1.4:000001d8 .LC18
C:\Users\a5050395\AppData\Local\Temp\ccG6Ubmn.s:1554   .rodata._ZN6tflite14SoftmaxPrepareEP13TfLiteContextP10TfLiteNode.str1.4:00000240 .LC25
.ARM.extab.text._ZN6tflite14SoftmaxPrepareEP13TfLiteContextP10TfLiteNode:00000000 $d
.ARM.exidx.text._ZN6tflite14SoftmaxPrepareEP13TfLiteContextP10TfLiteNode:00000000 $d
C:\Users\a5050395\AppData\Local\Temp\ccG6Ubmn.s:1482   .rodata._ZN6tflite14SoftmaxPrepareEP13TfLiteContextP10TfLiteNode.str1.4:00000000 $d
                     .debug_frame:00000010 $d
                           .group:00000000 wm4.0.3e1481985cce1e923928453d8be0a65b
                           .group:00000000 wm4.stdint.h.4.659be5aa44c4ab4eb7c7cc2b24d8ceee
                           .group:00000000 wm4._newlib_version.h.4.3572908597b70d672d181fc7fc501c19
                           .group:00000000 wm4.features.h.33.7b36b8b41abe4293fbb29540b719705c
                           .group:00000000 wm4._default_types.h.15.247e5cd201eca3442cbf5404108c4935
                           .group:00000000 wm4._intsup.h.10.cce27fed8484c08a33f522034c30d2b5
                           .group:00000000 wm4._stdint.h.10.c24fa3af3bc1706662bb5593a907e841
                           .group:00000000 wm4.stdint.h.23.d53047a68f4a85177f80b422d52785ed
                           .group:00000000 wm4.stdbool.h.29.01580e438512fc255c0619569742ffd3
                           .group:00000000 wm4.stddef.h.39.fa2e86d241f4df50b9327c72832885e1
                           .group:00000000 wm4.c_api_types.h.20.9b09175981ed746180e205cc0b4b2bfd
                           .group:00000000 wm4.common.h.77.124de099ec0ac4f95ebf1618a5f42cf6
                           .group:00000000 wm4.cconfig.h.31.1472b8c7bd4952a63a52f3f4f718f872
                           .group:00000000 wm4.cpu_defines.h.31.54d44f9d3e7c42875c5a7fd49795eb93
                           .group:00000000 wm4.cconfig.h.515.5e729db314ae74226e291b4ae081e353
                           .group:00000000 wm4.atomic_lockfree_defines.h.31.d5c6334fb1e95c9462b052951f1411df
                           .group:00000000 wm4.exception_defines.h.31.ca6841b9be3287386aafc5c717935b2e
                           .group:00000000 wm4.concept_check.h.31.f19605d278e56917c68a56d378be308c
                           .group:00000000 wm4.type_traits.30.2c7323a483bcd7601e8b71d2546ae284
                           .group:00000000 wm4.move.h.152.41d7b9e6779674d169b7813982cfa003
                           .group:00000000 wm4.cpp_type_traits.h.33.9f2bfd8c4471a9a299f6da3ec24c745c
                           .group:00000000 wm4.numeric_traits.h.30.aa01a98564b7e55086aad9e53c7e5c53
                           .group:00000000 wm4.assertions.h.30.51d443923f0d242550e04246a7819b39
                           .group:00000000 wm4.stl_iterator.h.1250.45f349a262f1b0d836d8edbc4b7b98ff
                           .group:00000000 wm4.debug.h.30.5c1f223b12199e851d4d42805b788ccf
                           .group:00000000 wm4.stl_algobase.h.491.aa250b69c90aafa2a0a62b8c58cd5f30
                           .group:00000000 wm4.newlib.h.8.5f2124c7e712be65f83b91ff86a0b1c1
                           .group:00000000 wm4.config.h.219.65a553ab5bef5482f0d7880b0d33015e
                           .group:00000000 wm4._ansi.h.23.1ee1144430bedaab1a14c7b57a6c8384
                           .group:00000000 wm4.lock.h.2.1461d1fff82dffe8bfddc23307f6484f
                           .group:00000000 wm4._types.h.125.5cf8a495f1f7ef36777ad868a1e32068
                           .group:00000000 wm4.stddef.h.161.7e98c9c86da0ed2d27af2ef92af7d013
                           .group:00000000 wm4._types.h.183.c226d164ceca1f2ecb9ae9360c54a098
                           .group:00000000 wm4.reent.h.17.23b059516345f8f5abfa01ddc379570f
                           .group:00000000 wm4.wchar.h.8.acdef4366e64def8c588421024712d23
                           .group:00000000 wm4.stddef.h.161.9f48187563b2a85291a91832aa425498
                           .group:00000000 wm4.cdefs.h.47.9bc8274c84fddbf05edd550eb0bf48cd
                           .group:00000000 wm4.stdarg.h.34.3a23a216c0c293b3d2ea2e89281481e6
                           .group:00000000 wm4.wchar.h.41.2307b469886c2ca55d92707971ac50ce
                           .group:00000000 wm4.cwchar.48.c4e882638bf84f6da89479dda6fe8e17
                           .group:00000000 wm4.allocator.h.52.0ceafb36dc1b82dbfa6b05003082e3f5
                           .group:00000000 wm4.stddef.h.161.38688f2eb958a8ed58fdb61ffe554c94
                           .group:00000000 wm4.locale.h.16.524572cf3c2ed9856516685acdc598fe
                           .group:00000000 wm4.clocale.45.c36d2d5b631a875aa5273176b54fdf0f
                           .group:00000000 wm4.ctype.h.2.da310d2ad165ccf8b86542f76fdb938d
                           .group:00000000 wm4.cctype.45.0da5714876b0be7f2d816b53d9670403
                           .group:00000000 wm4.gthr.h.27.ceb1c66b926f052afcba57e8784df0d4
                           .group:00000000 wm4.gthrdefault.h.27.edc94d4398c0534988962be77dc3c2e1
                           .group:00000000 wm4.atomic_word.h.30.9e0ac69fd462d5e650933e05133b4afa
                           .group:00000000 wm4.alloc_traits.h.31.c41c7c4789404962122a4e991dfa3abf
                           .group:00000000 wm4.cstdlib.44.52c5efdfb0f3c176bd11e611a0b94959
                           .group:00000000 wm4.stdlib.h.13.4ed386f5c1a80d71e72172885d946ef2
                           .group:00000000 wm4.stdlib.h.56.b4ddaf162082f284ba35b4444af99a9a
                           .group:00000000 wm4.cstdlib.76.ae666499c8f9b0ace1b4b23fe143da2c
                           .group:00000000 wm4.stdio.h.27.3fc80220048df77954e38daec3bb9670
                           .group:00000000 wm4.types.h.40.e8c16e7ec36ba55f133d0616070e25fc
                           .group:00000000 wm4.types.h.114.fb65732f4f5f288a036a25898de2c91f
                           .group:00000000 wm4.stdio.h.2.4aa87247282eca6c8f36f9de33d8df1a
                           .group:00000000 wm4.stdio.h.81.c3e9cb15e5af2807c4650345134c1a8a
                           .group:00000000 wm4.cstdio.45.ba8d321feb18bfc8923454067605c368
                           .group:00000000 wm4.errno.h.2.ba016d646105af6cad23be83630b6a3f
                           .group:00000000 wm4.errno.h.9.1ecd7b1049497a0ab61da0f6cbd4b0c6
                           .group:00000000 wm4.functional_hash.h.31.bccc014fee6fc3f930045d809df6f486
                           .group:00000000 wm4.functional.549.0bc5b448cf999863d3841495cd6fe920
                           .group:00000000 wm4.limits.38.55aefcf041805b6211ca3649dd2ab1b5
                           .group:00000000 wm4.assert.h.11.a5d97ca77559a42890313c4941c01fd9
                           .group:00000000 wm4.math.h.13.e7cbdea54f4da98ab8f7fad4d23502b2
                           .group:00000000 wm4.cmath.46.d6e5b776115d39075860ed881d18f087
                           .group:00000000 wm4.detect_platform.h.19.a1891273c0cad215067ddb8219400136
                           .group:00000000 wm4.fixedpoint.h.567.8a6371d9452be19811601bace78b0abc
                           .group:00000000 wm4.cmath.44.b3bcbb5fe53ec6617dec8aa8eb7b03cc
                           .group:00000000 wm4.cppmath.h.27.51580d700716589df4b364298e2ef577
                           .group:00000000 wm4.neon_check.h.16.79a4dcb572cbeac06c4924f1f20cb68d
                           .group:00000000 wm4.string.h.8.c4b8571ce60dff2817f43fec8b86aecd
                           .group:00000000 wm4.cstring.45.6ab09de7fb97b576e744347688ddc8d7
                           .group:00000000 wm4.op_macros.h.42.7b718cb416a067e7bb07e7699647769b
                           .group:00000000 wm4.compatibility.h.23.702d6356326ea59aded8ef5c6c4626d5

UNDEFINED SYMBOLS
abort
__aeabi_unwind_cpp_pr0
_ZN6tflite8GetInputEPK13TfLiteContextPK10TfLiteNodei
_ZN6tflite9GetOutputEP13TfLiteContextPK10TfLiteNodei
_ZN6tflite24PreprocessSoftmaxScalingEddiPlPi
_ZN6tflite20CalculateInputRadiusEiii
expf
roundf
_ZN6tflite18QuantizeMultiplierEdPlPi
TfLiteTypeGetName
__aeabi_unwind_cpp_pr1
