   1              		.cpu cortex-a9
   2              		.eabi_attribute 28, 1
   3              		.eabi_attribute 20, 1
   4              		.eabi_attribute 21, 1
   5              		.eabi_attribute 23, 3
   6              		.eabi_attribute 24, 1
   7              		.eabi_attribute 25, 1
   8              		.eabi_attribute 26, 1
   9              		.eabi_attribute 30, 2
  10              		.eabi_attribute 34, 0
  11              		.eabi_attribute 18, 4
  12              		.file	"space_to_batch_nd.cc"
  13              		.text
  14              	.Ltext0:
  15              		.cfi_sections	.debug_frame
  16              		.section	.text._ZN6tflite12_GLOBAL__N_14InitEP13TfLiteContextPKcj,"ax",%progbits
  17              		.align	2
  18              		.syntax unified
  19              		.arm
  20              		.fpu neon
  22              	_ZN6tflite12_GLOBAL__N_14InitEP13TfLiteContextPKcj:
  23              		.fnstart
  24              	.LFB4177:
  25              		.file 1 "../src/tensorflow_lite/tensorflow/lite/micro/kernels/space_to_batch_nd.cc"
   1:../src/tensorflow_lite/tensorflow/lite/micro/kernels/space_to_batch_nd.cc **** /* Copyright 2021 The TensorFlow Authors. All Rights Reserved.
   2:../src/tensorflow_lite/tensorflow/lite/micro/kernels/space_to_batch_nd.cc **** 
   3:../src/tensorflow_lite/tensorflow/lite/micro/kernels/space_to_batch_nd.cc **** Licensed under the Apache License, Version 2.0 (the "License");
   4:../src/tensorflow_lite/tensorflow/lite/micro/kernels/space_to_batch_nd.cc **** you may not use this file except in compliance with the License.
   5:../src/tensorflow_lite/tensorflow/lite/micro/kernels/space_to_batch_nd.cc **** You may obtain a copy of the License at
   6:../src/tensorflow_lite/tensorflow/lite/micro/kernels/space_to_batch_nd.cc **** 
   7:../src/tensorflow_lite/tensorflow/lite/micro/kernels/space_to_batch_nd.cc ****     http://www.apache.org/licenses/LICENSE-2.0
   8:../src/tensorflow_lite/tensorflow/lite/micro/kernels/space_to_batch_nd.cc **** 
   9:../src/tensorflow_lite/tensorflow/lite/micro/kernels/space_to_batch_nd.cc **** Unless required by applicable law or agreed to in writing, software
  10:../src/tensorflow_lite/tensorflow/lite/micro/kernels/space_to_batch_nd.cc **** distributed under the License is distributed on an "AS IS" BASIS,
  11:../src/tensorflow_lite/tensorflow/lite/micro/kernels/space_to_batch_nd.cc **** WITHOUT WARRANTIES OR CONDITIONS OF ANY KIND, either express or implied.
  12:../src/tensorflow_lite/tensorflow/lite/micro/kernels/space_to_batch_nd.cc **** See the License for the specific language governing permissions and
  13:../src/tensorflow_lite/tensorflow/lite/micro/kernels/space_to_batch_nd.cc **** limitations under the License.
  14:../src/tensorflow_lite/tensorflow/lite/micro/kernels/space_to_batch_nd.cc **** ==============================================================================*/
  15:../src/tensorflow_lite/tensorflow/lite/micro/kernels/space_to_batch_nd.cc **** 
  16:../src/tensorflow_lite/tensorflow/lite/micro/kernels/space_to_batch_nd.cc **** #include "tensorflow/lite/kernels/internal/reference/space_to_batch_nd.h"
  17:../src/tensorflow_lite/tensorflow/lite/micro/kernels/space_to_batch_nd.cc **** 
  18:../src/tensorflow_lite/tensorflow/lite/micro/kernels/space_to_batch_nd.cc **** #include "tensorflow/lite/c/common.h"
  19:../src/tensorflow_lite/tensorflow/lite/micro/kernels/space_to_batch_nd.cc **** #include "tensorflow/lite/kernels/internal/tensor_ctypes.h"
  20:../src/tensorflow_lite/tensorflow/lite/micro/kernels/space_to_batch_nd.cc **** #include "tensorflow/lite/kernels/internal/types.h"
  21:../src/tensorflow_lite/tensorflow/lite/micro/kernels/space_to_batch_nd.cc **** #include "tensorflow/lite/kernels/kernel_util.h"
  22:../src/tensorflow_lite/tensorflow/lite/micro/kernels/space_to_batch_nd.cc **** #include "tensorflow/lite/micro/kernels/kernel_util.h"
  23:../src/tensorflow_lite/tensorflow/lite/micro/kernels/space_to_batch_nd.cc **** #include "tensorflow/lite/micro/micro_utils.h"
  24:../src/tensorflow_lite/tensorflow/lite/micro/kernels/space_to_batch_nd.cc **** 
  25:../src/tensorflow_lite/tensorflow/lite/micro/kernels/space_to_batch_nd.cc **** namespace tflite {
  26:../src/tensorflow_lite/tensorflow/lite/micro/kernels/space_to_batch_nd.cc **** 
  27:../src/tensorflow_lite/tensorflow/lite/micro/kernels/space_to_batch_nd.cc **** namespace {
  28:../src/tensorflow_lite/tensorflow/lite/micro/kernels/space_to_batch_nd.cc **** 
  29:../src/tensorflow_lite/tensorflow/lite/micro/kernels/space_to_batch_nd.cc **** constexpr int kInputTensor = 0;
  30:../src/tensorflow_lite/tensorflow/lite/micro/kernels/space_to_batch_nd.cc **** constexpr int kBlockShapeTensor = 1;
  31:../src/tensorflow_lite/tensorflow/lite/micro/kernels/space_to_batch_nd.cc **** constexpr int kCropsTensor = 2;
  32:../src/tensorflow_lite/tensorflow/lite/micro/kernels/space_to_batch_nd.cc **** constexpr int kOutputTensor = 0;
  33:../src/tensorflow_lite/tensorflow/lite/micro/kernels/space_to_batch_nd.cc **** 
  34:../src/tensorflow_lite/tensorflow/lite/micro/kernels/space_to_batch_nd.cc **** // Currently, only 3D NHC and 4D NHWC input/output op_context are supported.
  35:../src/tensorflow_lite/tensorflow/lite/micro/kernels/space_to_batch_nd.cc **** // In case of 3D input, it will be extended to 3D NHWC by adding W=1.
  36:../src/tensorflow_lite/tensorflow/lite/micro/kernels/space_to_batch_nd.cc **** // The 4D array need to have exactly 2 spatial dimensions.
  37:../src/tensorflow_lite/tensorflow/lite/micro/kernels/space_to_batch_nd.cc **** // TODO(b/149952582): Support arbitrary dimension in SpaceToBatchND.
  38:../src/tensorflow_lite/tensorflow/lite/micro/kernels/space_to_batch_nd.cc **** const int kInputOutputMinDimensionNum = 3;
  39:../src/tensorflow_lite/tensorflow/lite/micro/kernels/space_to_batch_nd.cc **** const int kInputOutputMaxDimensionNum = 4;
  40:../src/tensorflow_lite/tensorflow/lite/micro/kernels/space_to_batch_nd.cc **** 
  41:../src/tensorflow_lite/tensorflow/lite/micro/kernels/space_to_batch_nd.cc **** void* Init(TfLiteContext* context, const char* buffer, size_t length) {
  26              		.loc 1 41 0
  27              		.cfi_startproc
  28              		@ args = 0, pretend = 0, frame = 0
  29              		@ frame_needed = 0, uses_anonymous_args = 0
  30              	.LVL0:
  42:../src/tensorflow_lite/tensorflow/lite/micro/kernels/space_to_batch_nd.cc ****   TFLITE_DCHECK(context->AllocatePersistentBuffer != nullptr);
  31              		.loc 1 42 0
  32 0000 383090E5 		ldr	r3, [r0, #56]
  33 0004 000053E3 		cmp	r3, #0
  34 0008 0100000A 		beq	.L7
  43:../src/tensorflow_lite/tensorflow/lite/micro/kernels/space_to_batch_nd.cc ****   return context->AllocatePersistentBuffer(context, sizeof(SpaceToBatchParams));
  35              		.loc 1 43 0
  36 000c 0410A0E3 		mov	r1, #4
  37              	.LVL1:
  38 0010 13FF2FE1 		bx	r3
  39              	.LVL2:
  40              	.L7:
  41:../src/tensorflow_lite/tensorflow/lite/micro/kernels/space_to_batch_nd.cc ****   TFLITE_DCHECK(context->AllocatePersistentBuffer != nullptr);
  41              		.loc 1 41 0 discriminator 1
  42 0014 10402DE9 		push	{r4, lr}
  43              		.save {r4, lr}
  44              		.cfi_def_cfa_offset 8
  45              		.cfi_offset 4, -8
  46              		.cfi_offset 14, -4
  42:../src/tensorflow_lite/tensorflow/lite/micro/kernels/space_to_batch_nd.cc ****   TFLITE_DCHECK(context->AllocatePersistentBuffer != nullptr);
  47              		.loc 1 42 0 discriminator 1
  48 0018 FEFFFFEB 		bl	abort
  49              	.LVL3:
  50              		.cfi_endproc
  51              	.LFE4177:
  52              		.fnend
  54              		.section	.text._ZN6tflite12_GLOBAL__N_17PrepareEP13TfLiteContextP10TfLiteNode,"ax",%progbits
  55              		.align	2
  56              		.syntax unified
  57              		.arm
  58              		.fpu neon
  60              	_ZN6tflite12_GLOBAL__N_17PrepareEP13TfLiteContextP10TfLiteNode:
  61              		.fnstart
  62              	.LFB4178:
  44:../src/tensorflow_lite/tensorflow/lite/micro/kernels/space_to_batch_nd.cc **** }
  45:../src/tensorflow_lite/tensorflow/lite/micro/kernels/space_to_batch_nd.cc **** 
  46:../src/tensorflow_lite/tensorflow/lite/micro/kernels/space_to_batch_nd.cc **** TfLiteStatus Prepare(TfLiteContext* context, TfLiteNode* node) {
  63              		.loc 1 46 0
  64              		.cfi_startproc
  65              		@ args = 0, pretend = 0, frame = 0
  66              		@ frame_needed = 0, uses_anonymous_args = 0
  67              	.LVL4:
  68              	.LBB222:
  69              	.LBB223:
  70              		.file 2 "C:/Renesas/e2studio_2021_01_workspace_RZA2M_ANPR/ANPR_RZA2M_GR_MANGO/src/tensorflow_lite/
   1:C:/Renesas/e2studio_2021_01_workspace_RZA2M_ANPR/ANPR_RZA2M_GR_MANGO/src/tensorflow_lite/tensorflow/lite/kernels\kernel_util.h **** /* Copyright 2017 The TensorFlow Authors. All Rights Reserved.
   2:C:/Renesas/e2studio_2021_01_workspace_RZA2M_ANPR/ANPR_RZA2M_GR_MANGO/src/tensorflow_lite/tensorflow/lite/kernels\kernel_util.h **** 
   3:C:/Renesas/e2studio_2021_01_workspace_RZA2M_ANPR/ANPR_RZA2M_GR_MANGO/src/tensorflow_lite/tensorflow/lite/kernels\kernel_util.h **** Licensed under the Apache License, Version 2.0 (the "License");
   4:C:/Renesas/e2studio_2021_01_workspace_RZA2M_ANPR/ANPR_RZA2M_GR_MANGO/src/tensorflow_lite/tensorflow/lite/kernels\kernel_util.h **** you may not use this file except in compliance with the License.
   5:C:/Renesas/e2studio_2021_01_workspace_RZA2M_ANPR/ANPR_RZA2M_GR_MANGO/src/tensorflow_lite/tensorflow/lite/kernels\kernel_util.h **** You may obtain a copy of the License at
   6:C:/Renesas/e2studio_2021_01_workspace_RZA2M_ANPR/ANPR_RZA2M_GR_MANGO/src/tensorflow_lite/tensorflow/lite/kernels\kernel_util.h **** 
   7:C:/Renesas/e2studio_2021_01_workspace_RZA2M_ANPR/ANPR_RZA2M_GR_MANGO/src/tensorflow_lite/tensorflow/lite/kernels\kernel_util.h ****     http://www.apache.org/licenses/LICENSE-2.0
   8:C:/Renesas/e2studio_2021_01_workspace_RZA2M_ANPR/ANPR_RZA2M_GR_MANGO/src/tensorflow_lite/tensorflow/lite/kernels\kernel_util.h **** 
   9:C:/Renesas/e2studio_2021_01_workspace_RZA2M_ANPR/ANPR_RZA2M_GR_MANGO/src/tensorflow_lite/tensorflow/lite/kernels\kernel_util.h **** Unless required by applicable law or agreed to in writing, software
  10:C:/Renesas/e2studio_2021_01_workspace_RZA2M_ANPR/ANPR_RZA2M_GR_MANGO/src/tensorflow_lite/tensorflow/lite/kernels\kernel_util.h **** distributed under the License is distributed on an "AS IS" BASIS,
  11:C:/Renesas/e2studio_2021_01_workspace_RZA2M_ANPR/ANPR_RZA2M_GR_MANGO/src/tensorflow_lite/tensorflow/lite/kernels\kernel_util.h **** WITHOUT WARRANTIES OR CONDITIONS OF ANY KIND, either express or implied.
  12:C:/Renesas/e2studio_2021_01_workspace_RZA2M_ANPR/ANPR_RZA2M_GR_MANGO/src/tensorflow_lite/tensorflow/lite/kernels\kernel_util.h **** See the License for the specific language governing permissions and
  13:C:/Renesas/e2studio_2021_01_workspace_RZA2M_ANPR/ANPR_RZA2M_GR_MANGO/src/tensorflow_lite/tensorflow/lite/kernels\kernel_util.h **** limitations under the License.
  14:C:/Renesas/e2studio_2021_01_workspace_RZA2M_ANPR/ANPR_RZA2M_GR_MANGO/src/tensorflow_lite/tensorflow/lite/kernels\kernel_util.h **** ==============================================================================*/
  15:C:/Renesas/e2studio_2021_01_workspace_RZA2M_ANPR/ANPR_RZA2M_GR_MANGO/src/tensorflow_lite/tensorflow/lite/kernels\kernel_util.h **** #ifndef TENSORFLOW_LITE_KERNELS_KERNEL_UTIL_H_
  16:C:/Renesas/e2studio_2021_01_workspace_RZA2M_ANPR/ANPR_RZA2M_GR_MANGO/src/tensorflow_lite/tensorflow/lite/kernels\kernel_util.h **** #define TENSORFLOW_LITE_KERNELS_KERNEL_UTIL_H_
  17:C:/Renesas/e2studio_2021_01_workspace_RZA2M_ANPR/ANPR_RZA2M_GR_MANGO/src/tensorflow_lite/tensorflow/lite/kernels\kernel_util.h **** 
  18:C:/Renesas/e2studio_2021_01_workspace_RZA2M_ANPR/ANPR_RZA2M_GR_MANGO/src/tensorflow_lite/tensorflow/lite/kernels\kernel_util.h **** #include <stdint.h>
  19:C:/Renesas/e2studio_2021_01_workspace_RZA2M_ANPR/ANPR_RZA2M_GR_MANGO/src/tensorflow_lite/tensorflow/lite/kernels\kernel_util.h **** 
  20:C:/Renesas/e2studio_2021_01_workspace_RZA2M_ANPR/ANPR_RZA2M_GR_MANGO/src/tensorflow_lite/tensorflow/lite/kernels\kernel_util.h **** #include <limits>
  21:C:/Renesas/e2studio_2021_01_workspace_RZA2M_ANPR/ANPR_RZA2M_GR_MANGO/src/tensorflow_lite/tensorflow/lite/kernels\kernel_util.h **** 
  22:C:/Renesas/e2studio_2021_01_workspace_RZA2M_ANPR/ANPR_RZA2M_GR_MANGO/src/tensorflow_lite/tensorflow/lite/kernels\kernel_util.h **** #include "tensorflow/lite/c/builtin_op_data.h"
  23:C:/Renesas/e2studio_2021_01_workspace_RZA2M_ANPR/ANPR_RZA2M_GR_MANGO/src/tensorflow_lite/tensorflow/lite/kernels\kernel_util.h **** #include "tensorflow/lite/c/common.h"
  24:C:/Renesas/e2studio_2021_01_workspace_RZA2M_ANPR/ANPR_RZA2M_GR_MANGO/src/tensorflow_lite/tensorflow/lite/kernels\kernel_util.h **** 
  25:C:/Renesas/e2studio_2021_01_workspace_RZA2M_ANPR/ANPR_RZA2M_GR_MANGO/src/tensorflow_lite/tensorflow/lite/kernels\kernel_util.h **** namespace tflite {
  26:C:/Renesas/e2studio_2021_01_workspace_RZA2M_ANPR/ANPR_RZA2M_GR_MANGO/src/tensorflow_lite/tensorflow/lite/kernels\kernel_util.h **** 
  27:C:/Renesas/e2studio_2021_01_workspace_RZA2M_ANPR/ANPR_RZA2M_GR_MANGO/src/tensorflow_lite/tensorflow/lite/kernels\kernel_util.h **** // A fair number of functions in this header have historically been inline.
  28:C:/Renesas/e2studio_2021_01_workspace_RZA2M_ANPR/ANPR_RZA2M_GR_MANGO/src/tensorflow_lite/tensorflow/lite/kernels\kernel_util.h **** // It is ok to change functions to not be inline if the latency with
  29:C:/Renesas/e2studio_2021_01_workspace_RZA2M_ANPR/ANPR_RZA2M_GR_MANGO/src/tensorflow_lite/tensorflow/lite/kernels\kernel_util.h **** // benchmark_model for MobileNet + MobileBERT is unaffected. If such a change is
  30:C:/Renesas/e2studio_2021_01_workspace_RZA2M_ANPR/ANPR_RZA2M_GR_MANGO/src/tensorflow_lite/tensorflow/lite/kernels\kernel_util.h **** // made, move the newly non-inlined function declarations to the top of this
  31:C:/Renesas/e2studio_2021_01_workspace_RZA2M_ANPR/ANPR_RZA2M_GR_MANGO/src/tensorflow_lite/tensorflow/lite/kernels\kernel_util.h **** // header file.
  32:C:/Renesas/e2studio_2021_01_workspace_RZA2M_ANPR/ANPR_RZA2M_GR_MANGO/src/tensorflow_lite/tensorflow/lite/kernels\kernel_util.h **** 
  33:C:/Renesas/e2studio_2021_01_workspace_RZA2M_ANPR/ANPR_RZA2M_GR_MANGO/src/tensorflow_lite/tensorflow/lite/kernels\kernel_util.h **** // Note: You must check if result is not null:
  34:C:/Renesas/e2studio_2021_01_workspace_RZA2M_ANPR/ANPR_RZA2M_GR_MANGO/src/tensorflow_lite/tensorflow/lite/kernels\kernel_util.h **** //
  35:C:/Renesas/e2studio_2021_01_workspace_RZA2M_ANPR/ANPR_RZA2M_GR_MANGO/src/tensorflow_lite/tensorflow/lite/kernels\kernel_util.h **** //   TfLiteTensor* my_tensor = GetInput(context, node, kMyTensorIdx);
  36:C:/Renesas/e2studio_2021_01_workspace_RZA2M_ANPR/ANPR_RZA2M_GR_MANGO/src/tensorflow_lite/tensorflow/lite/kernels\kernel_util.h **** //   TF_LITE_ENSURE(context, my_tensor != nullptr);
  37:C:/Renesas/e2studio_2021_01_workspace_RZA2M_ANPR/ANPR_RZA2M_GR_MANGO/src/tensorflow_lite/tensorflow/lite/kernels\kernel_util.h **** //
  38:C:/Renesas/e2studio_2021_01_workspace_RZA2M_ANPR/ANPR_RZA2M_GR_MANGO/src/tensorflow_lite/tensorflow/lite/kernels\kernel_util.h **** // This is because the index might point to the optional tensor constant
  39:C:/Renesas/e2studio_2021_01_workspace_RZA2M_ANPR/ANPR_RZA2M_GR_MANGO/src/tensorflow_lite/tensorflow/lite/kernels\kernel_util.h **** // (kTfLiteOptionalTensor) in which case there is no tensor to return.
  40:C:/Renesas/e2studio_2021_01_workspace_RZA2M_ANPR/ANPR_RZA2M_GR_MANGO/src/tensorflow_lite/tensorflow/lite/kernels\kernel_util.h **** const TfLiteTensor* GetInput(const TfLiteContext* context,
  41:C:/Renesas/e2studio_2021_01_workspace_RZA2M_ANPR/ANPR_RZA2M_GR_MANGO/src/tensorflow_lite/tensorflow/lite/kernels\kernel_util.h ****                              const TfLiteNode* node, int index);
  42:C:/Renesas/e2studio_2021_01_workspace_RZA2M_ANPR/ANPR_RZA2M_GR_MANGO/src/tensorflow_lite/tensorflow/lite/kernels\kernel_util.h **** 
  43:C:/Renesas/e2studio_2021_01_workspace_RZA2M_ANPR/ANPR_RZA2M_GR_MANGO/src/tensorflow_lite/tensorflow/lite/kernels\kernel_util.h **** // Same as `GetInput` but returns boolean and uses output argument for tensor.
  44:C:/Renesas/e2studio_2021_01_workspace_RZA2M_ANPR/ANPR_RZA2M_GR_MANGO/src/tensorflow_lite/tensorflow/lite/kernels\kernel_util.h **** //
  45:C:/Renesas/e2studio_2021_01_workspace_RZA2M_ANPR/ANPR_RZA2M_GR_MANGO/src/tensorflow_lite/tensorflow/lite/kernels\kernel_util.h **** //   TfLiteTensor* my_tensor;
  46:C:/Renesas/e2studio_2021_01_workspace_RZA2M_ANPR/ANPR_RZA2M_GR_MANGO/src/tensorflow_lite/tensorflow/lite/kernels\kernel_util.h **** //   TF_LITE_ENSURE_OK(context,
  47:C:/Renesas/e2studio_2021_01_workspace_RZA2M_ANPR/ANPR_RZA2M_GR_MANGO/src/tensorflow_lite/tensorflow/lite/kernels\kernel_util.h **** //                     GetInputSafe(context, node, kMyTensorIdx, &my_tensor));
  48:C:/Renesas/e2studio_2021_01_workspace_RZA2M_ANPR/ANPR_RZA2M_GR_MANGO/src/tensorflow_lite/tensorflow/lite/kernels\kernel_util.h **** //   // can use my_tensor directly from here onwards, it is not nullptr
  49:C:/Renesas/e2studio_2021_01_workspace_RZA2M_ANPR/ANPR_RZA2M_GR_MANGO/src/tensorflow_lite/tensorflow/lite/kernels\kernel_util.h **** //
  50:C:/Renesas/e2studio_2021_01_workspace_RZA2M_ANPR/ANPR_RZA2M_GR_MANGO/src/tensorflow_lite/tensorflow/lite/kernels\kernel_util.h **** // Should be used in cases where the binary size is too large.
  51:C:/Renesas/e2studio_2021_01_workspace_RZA2M_ANPR/ANPR_RZA2M_GR_MANGO/src/tensorflow_lite/tensorflow/lite/kernels\kernel_util.h **** TfLiteStatus GetInputSafe(const TfLiteContext* context, const TfLiteNode* node,
  52:C:/Renesas/e2studio_2021_01_workspace_RZA2M_ANPR/ANPR_RZA2M_GR_MANGO/src/tensorflow_lite/tensorflow/lite/kernels\kernel_util.h ****                           int index, const TfLiteTensor** tensor);
  53:C:/Renesas/e2studio_2021_01_workspace_RZA2M_ANPR/ANPR_RZA2M_GR_MANGO/src/tensorflow_lite/tensorflow/lite/kernels\kernel_util.h **** 
  54:C:/Renesas/e2studio_2021_01_workspace_RZA2M_ANPR/ANPR_RZA2M_GR_MANGO/src/tensorflow_lite/tensorflow/lite/kernels\kernel_util.h **** // Note: You must check if result is not null:
  55:C:/Renesas/e2studio_2021_01_workspace_RZA2M_ANPR/ANPR_RZA2M_GR_MANGO/src/tensorflow_lite/tensorflow/lite/kernels\kernel_util.h **** //
  56:C:/Renesas/e2studio_2021_01_workspace_RZA2M_ANPR/ANPR_RZA2M_GR_MANGO/src/tensorflow_lite/tensorflow/lite/kernels\kernel_util.h **** //   TfLiteTensor* my_tensor = GetVariableInput(context, node, kMyTensorIdx);
  57:C:/Renesas/e2studio_2021_01_workspace_RZA2M_ANPR/ANPR_RZA2M_GR_MANGO/src/tensorflow_lite/tensorflow/lite/kernels\kernel_util.h **** //   TF_LITE_ENSURE(context, my_tensor != nullptr);
  58:C:/Renesas/e2studio_2021_01_workspace_RZA2M_ANPR/ANPR_RZA2M_GR_MANGO/src/tensorflow_lite/tensorflow/lite/kernels\kernel_util.h **** //
  59:C:/Renesas/e2studio_2021_01_workspace_RZA2M_ANPR/ANPR_RZA2M_GR_MANGO/src/tensorflow_lite/tensorflow/lite/kernels\kernel_util.h **** // This is because the index might point to the optional tensor constant
  60:C:/Renesas/e2studio_2021_01_workspace_RZA2M_ANPR/ANPR_RZA2M_GR_MANGO/src/tensorflow_lite/tensorflow/lite/kernels\kernel_util.h **** // (kTfLiteOptionalTensor) in which case there is no tensor to return.
  61:C:/Renesas/e2studio_2021_01_workspace_RZA2M_ANPR/ANPR_RZA2M_GR_MANGO/src/tensorflow_lite/tensorflow/lite/kernels\kernel_util.h **** TfLiteTensor* GetVariableInput(TfLiteContext* context, const TfLiteNode* node,
  62:C:/Renesas/e2studio_2021_01_workspace_RZA2M_ANPR/ANPR_RZA2M_GR_MANGO/src/tensorflow_lite/tensorflow/lite/kernels\kernel_util.h ****                                int index);
  63:C:/Renesas/e2studio_2021_01_workspace_RZA2M_ANPR/ANPR_RZA2M_GR_MANGO/src/tensorflow_lite/tensorflow/lite/kernels\kernel_util.h **** 
  64:C:/Renesas/e2studio_2021_01_workspace_RZA2M_ANPR/ANPR_RZA2M_GR_MANGO/src/tensorflow_lite/tensorflow/lite/kernels\kernel_util.h **** // Note: You must check if result is not null:
  65:C:/Renesas/e2studio_2021_01_workspace_RZA2M_ANPR/ANPR_RZA2M_GR_MANGO/src/tensorflow_lite/tensorflow/lite/kernels\kernel_util.h **** //
  66:C:/Renesas/e2studio_2021_01_workspace_RZA2M_ANPR/ANPR_RZA2M_GR_MANGO/src/tensorflow_lite/tensorflow/lite/kernels\kernel_util.h **** //   TfLiteTensor* my_tensor = GetOutput(context, node, kMyTensorIdx);
  67:C:/Renesas/e2studio_2021_01_workspace_RZA2M_ANPR/ANPR_RZA2M_GR_MANGO/src/tensorflow_lite/tensorflow/lite/kernels\kernel_util.h **** //   TF_LITE_ENSURE(context, my_tensor != nullptr);
  68:C:/Renesas/e2studio_2021_01_workspace_RZA2M_ANPR/ANPR_RZA2M_GR_MANGO/src/tensorflow_lite/tensorflow/lite/kernels\kernel_util.h **** //
  69:C:/Renesas/e2studio_2021_01_workspace_RZA2M_ANPR/ANPR_RZA2M_GR_MANGO/src/tensorflow_lite/tensorflow/lite/kernels\kernel_util.h **** // This is because the index might point to the optional tensor constant
  70:C:/Renesas/e2studio_2021_01_workspace_RZA2M_ANPR/ANPR_RZA2M_GR_MANGO/src/tensorflow_lite/tensorflow/lite/kernels\kernel_util.h **** // (kTfLiteOptionalTensor) in which case there is no tensor to return.
  71:C:/Renesas/e2studio_2021_01_workspace_RZA2M_ANPR/ANPR_RZA2M_GR_MANGO/src/tensorflow_lite/tensorflow/lite/kernels\kernel_util.h **** TfLiteTensor* GetOutput(TfLiteContext* context, const TfLiteNode* node,
  72:C:/Renesas/e2studio_2021_01_workspace_RZA2M_ANPR/ANPR_RZA2M_GR_MANGO/src/tensorflow_lite/tensorflow/lite/kernels\kernel_util.h ****                         int index);
  73:C:/Renesas/e2studio_2021_01_workspace_RZA2M_ANPR/ANPR_RZA2M_GR_MANGO/src/tensorflow_lite/tensorflow/lite/kernels\kernel_util.h **** 
  74:C:/Renesas/e2studio_2021_01_workspace_RZA2M_ANPR/ANPR_RZA2M_GR_MANGO/src/tensorflow_lite/tensorflow/lite/kernels\kernel_util.h **** // Same as `GetOutput` but returns boolean and uses output argument for tensor.
  75:C:/Renesas/e2studio_2021_01_workspace_RZA2M_ANPR/ANPR_RZA2M_GR_MANGO/src/tensorflow_lite/tensorflow/lite/kernels\kernel_util.h **** //
  76:C:/Renesas/e2studio_2021_01_workspace_RZA2M_ANPR/ANPR_RZA2M_GR_MANGO/src/tensorflow_lite/tensorflow/lite/kernels\kernel_util.h **** //   TfLiteTensor* my_tensor;
  77:C:/Renesas/e2studio_2021_01_workspace_RZA2M_ANPR/ANPR_RZA2M_GR_MANGO/src/tensorflow_lite/tensorflow/lite/kernels\kernel_util.h **** //   TF_LITE_ENSURE_OK(context,
  78:C:/Renesas/e2studio_2021_01_workspace_RZA2M_ANPR/ANPR_RZA2M_GR_MANGO/src/tensorflow_lite/tensorflow/lite/kernels\kernel_util.h **** //                     GetOutputSafe(context, node, kMyTensorIdx, &my_tensor));
  79:C:/Renesas/e2studio_2021_01_workspace_RZA2M_ANPR/ANPR_RZA2M_GR_MANGO/src/tensorflow_lite/tensorflow/lite/kernels\kernel_util.h **** //   // can use my_tensor directly from here onwards, it is not nullptr
  80:C:/Renesas/e2studio_2021_01_workspace_RZA2M_ANPR/ANPR_RZA2M_GR_MANGO/src/tensorflow_lite/tensorflow/lite/kernels\kernel_util.h **** //
  81:C:/Renesas/e2studio_2021_01_workspace_RZA2M_ANPR/ANPR_RZA2M_GR_MANGO/src/tensorflow_lite/tensorflow/lite/kernels\kernel_util.h **** // Should be used in cases where the binary size is too large.
  82:C:/Renesas/e2studio_2021_01_workspace_RZA2M_ANPR/ANPR_RZA2M_GR_MANGO/src/tensorflow_lite/tensorflow/lite/kernels\kernel_util.h **** TfLiteStatus GetOutputSafe(const TfLiteContext* context, const TfLiteNode* node,
  83:C:/Renesas/e2studio_2021_01_workspace_RZA2M_ANPR/ANPR_RZA2M_GR_MANGO/src/tensorflow_lite/tensorflow/lite/kernels\kernel_util.h ****                            int index, TfLiteTensor** tensor);
  84:C:/Renesas/e2studio_2021_01_workspace_RZA2M_ANPR/ANPR_RZA2M_GR_MANGO/src/tensorflow_lite/tensorflow/lite/kernels\kernel_util.h **** 
  85:C:/Renesas/e2studio_2021_01_workspace_RZA2M_ANPR/ANPR_RZA2M_GR_MANGO/src/tensorflow_lite/tensorflow/lite/kernels\kernel_util.h **** // Note: You must check if result is not null:
  86:C:/Renesas/e2studio_2021_01_workspace_RZA2M_ANPR/ANPR_RZA2M_GR_MANGO/src/tensorflow_lite/tensorflow/lite/kernels\kernel_util.h **** //
  87:C:/Renesas/e2studio_2021_01_workspace_RZA2M_ANPR/ANPR_RZA2M_GR_MANGO/src/tensorflow_lite/tensorflow/lite/kernels\kernel_util.h **** //   TfLiteTensor* my_tensor = GetOptionalInputTensor(context, node, kIdx);
  88:C:/Renesas/e2studio_2021_01_workspace_RZA2M_ANPR/ANPR_RZA2M_GR_MANGO/src/tensorflow_lite/tensorflow/lite/kernels\kernel_util.h **** //   TF_LITE_ENSURE(context, my_tensor != nullptr);
  89:C:/Renesas/e2studio_2021_01_workspace_RZA2M_ANPR/ANPR_RZA2M_GR_MANGO/src/tensorflow_lite/tensorflow/lite/kernels\kernel_util.h **** //
  90:C:/Renesas/e2studio_2021_01_workspace_RZA2M_ANPR/ANPR_RZA2M_GR_MANGO/src/tensorflow_lite/tensorflow/lite/kernels\kernel_util.h **** // This is because the index might point to the optional tensor constant
  91:C:/Renesas/e2studio_2021_01_workspace_RZA2M_ANPR/ANPR_RZA2M_GR_MANGO/src/tensorflow_lite/tensorflow/lite/kernels\kernel_util.h **** // (kTfLiteOptionalTensor) in which case there is no tensor to return.
  92:C:/Renesas/e2studio_2021_01_workspace_RZA2M_ANPR/ANPR_RZA2M_GR_MANGO/src/tensorflow_lite/tensorflow/lite/kernels\kernel_util.h **** //
  93:C:/Renesas/e2studio_2021_01_workspace_RZA2M_ANPR/ANPR_RZA2M_GR_MANGO/src/tensorflow_lite/tensorflow/lite/kernels\kernel_util.h **** // Deprecated. GetInput has the same functionality.
  94:C:/Renesas/e2studio_2021_01_workspace_RZA2M_ANPR/ANPR_RZA2M_GR_MANGO/src/tensorflow_lite/tensorflow/lite/kernels\kernel_util.h **** const TfLiteTensor* GetOptionalInputTensor(const TfLiteContext* context,
  95:C:/Renesas/e2studio_2021_01_workspace_RZA2M_ANPR/ANPR_RZA2M_GR_MANGO/src/tensorflow_lite/tensorflow/lite/kernels\kernel_util.h ****                                            const TfLiteNode* node, int index);
  96:C:/Renesas/e2studio_2021_01_workspace_RZA2M_ANPR/ANPR_RZA2M_GR_MANGO/src/tensorflow_lite/tensorflow/lite/kernels\kernel_util.h **** 
  97:C:/Renesas/e2studio_2021_01_workspace_RZA2M_ANPR/ANPR_RZA2M_GR_MANGO/src/tensorflow_lite/tensorflow/lite/kernels\kernel_util.h **** #ifndef TF_LITE_STATIC_MEMORY
  98:C:/Renesas/e2studio_2021_01_workspace_RZA2M_ANPR/ANPR_RZA2M_GR_MANGO/src/tensorflow_lite/tensorflow/lite/kernels\kernel_util.h **** // Note: You must check if result is not null:
  99:C:/Renesas/e2studio_2021_01_workspace_RZA2M_ANPR/ANPR_RZA2M_GR_MANGO/src/tensorflow_lite/tensorflow/lite/kernels\kernel_util.h **** //
 100:C:/Renesas/e2studio_2021_01_workspace_RZA2M_ANPR/ANPR_RZA2M_GR_MANGO/src/tensorflow_lite/tensorflow/lite/kernels\kernel_util.h **** //   TfLiteTensor* my_tensor = GetTemporary(context, node, kMyTensorIdx);
 101:C:/Renesas/e2studio_2021_01_workspace_RZA2M_ANPR/ANPR_RZA2M_GR_MANGO/src/tensorflow_lite/tensorflow/lite/kernels\kernel_util.h **** //   TF_LITE_ENSURE(context, my_tensor != nullptr);
 102:C:/Renesas/e2studio_2021_01_workspace_RZA2M_ANPR/ANPR_RZA2M_GR_MANGO/src/tensorflow_lite/tensorflow/lite/kernels\kernel_util.h **** //
 103:C:/Renesas/e2studio_2021_01_workspace_RZA2M_ANPR/ANPR_RZA2M_GR_MANGO/src/tensorflow_lite/tensorflow/lite/kernels\kernel_util.h **** // This is because the index might point to the optional tensor constant
 104:C:/Renesas/e2studio_2021_01_workspace_RZA2M_ANPR/ANPR_RZA2M_GR_MANGO/src/tensorflow_lite/tensorflow/lite/kernels\kernel_util.h **** // (kTfLiteOptionalTensor) in which case there is no tensor to return.
 105:C:/Renesas/e2studio_2021_01_workspace_RZA2M_ANPR/ANPR_RZA2M_GR_MANGO/src/tensorflow_lite/tensorflow/lite/kernels\kernel_util.h **** TfLiteTensor* GetTemporary(TfLiteContext* context, const TfLiteNode* node,
 106:C:/Renesas/e2studio_2021_01_workspace_RZA2M_ANPR/ANPR_RZA2M_GR_MANGO/src/tensorflow_lite/tensorflow/lite/kernels\kernel_util.h ****                            int index);
 107:C:/Renesas/e2studio_2021_01_workspace_RZA2M_ANPR/ANPR_RZA2M_GR_MANGO/src/tensorflow_lite/tensorflow/lite/kernels\kernel_util.h **** 
 108:C:/Renesas/e2studio_2021_01_workspace_RZA2M_ANPR/ANPR_RZA2M_GR_MANGO/src/tensorflow_lite/tensorflow/lite/kernels\kernel_util.h **** // Same as `GetTemporary` but returns boolean and uses output argument for
 109:C:/Renesas/e2studio_2021_01_workspace_RZA2M_ANPR/ANPR_RZA2M_GR_MANGO/src/tensorflow_lite/tensorflow/lite/kernels\kernel_util.h **** // tensor.
 110:C:/Renesas/e2studio_2021_01_workspace_RZA2M_ANPR/ANPR_RZA2M_GR_MANGO/src/tensorflow_lite/tensorflow/lite/kernels\kernel_util.h **** //
 111:C:/Renesas/e2studio_2021_01_workspace_RZA2M_ANPR/ANPR_RZA2M_GR_MANGO/src/tensorflow_lite/tensorflow/lite/kernels\kernel_util.h **** //   TfLiteTensor* my_tensor;
 112:C:/Renesas/e2studio_2021_01_workspace_RZA2M_ANPR/ANPR_RZA2M_GR_MANGO/src/tensorflow_lite/tensorflow/lite/kernels\kernel_util.h **** //   TF_LITE_ENSURE_OK(context,
 113:C:/Renesas/e2studio_2021_01_workspace_RZA2M_ANPR/ANPR_RZA2M_GR_MANGO/src/tensorflow_lite/tensorflow/lite/kernels\kernel_util.h **** //                     GetTemporarySafe(context, node, kMyTensorIdx,
 114:C:/Renesas/e2studio_2021_01_workspace_RZA2M_ANPR/ANPR_RZA2M_GR_MANGO/src/tensorflow_lite/tensorflow/lite/kernels\kernel_util.h **** //                     &my_tensor));
 115:C:/Renesas/e2studio_2021_01_workspace_RZA2M_ANPR/ANPR_RZA2M_GR_MANGO/src/tensorflow_lite/tensorflow/lite/kernels\kernel_util.h **** //   // can use my_tensor directly from here onwards, it is not nullptr
 116:C:/Renesas/e2studio_2021_01_workspace_RZA2M_ANPR/ANPR_RZA2M_GR_MANGO/src/tensorflow_lite/tensorflow/lite/kernels\kernel_util.h **** //
 117:C:/Renesas/e2studio_2021_01_workspace_RZA2M_ANPR/ANPR_RZA2M_GR_MANGO/src/tensorflow_lite/tensorflow/lite/kernels\kernel_util.h **** // Should be used in cases where the binary size is too large.
 118:C:/Renesas/e2studio_2021_01_workspace_RZA2M_ANPR/ANPR_RZA2M_GR_MANGO/src/tensorflow_lite/tensorflow/lite/kernels\kernel_util.h **** TfLiteStatus GetTemporarySafe(const TfLiteContext* context,
 119:C:/Renesas/e2studio_2021_01_workspace_RZA2M_ANPR/ANPR_RZA2M_GR_MANGO/src/tensorflow_lite/tensorflow/lite/kernels\kernel_util.h ****                               const TfLiteNode* node, int index,
 120:C:/Renesas/e2studio_2021_01_workspace_RZA2M_ANPR/ANPR_RZA2M_GR_MANGO/src/tensorflow_lite/tensorflow/lite/kernels\kernel_util.h ****                               TfLiteTensor** tensor);
 121:C:/Renesas/e2studio_2021_01_workspace_RZA2M_ANPR/ANPR_RZA2M_GR_MANGO/src/tensorflow_lite/tensorflow/lite/kernels\kernel_util.h **** 
 122:C:/Renesas/e2studio_2021_01_workspace_RZA2M_ANPR/ANPR_RZA2M_GR_MANGO/src/tensorflow_lite/tensorflow/lite/kernels\kernel_util.h **** // Note: You must check if result is not null:
 123:C:/Renesas/e2studio_2021_01_workspace_RZA2M_ANPR/ANPR_RZA2M_GR_MANGO/src/tensorflow_lite/tensorflow/lite/kernels\kernel_util.h **** //
 124:C:/Renesas/e2studio_2021_01_workspace_RZA2M_ANPR/ANPR_RZA2M_GR_MANGO/src/tensorflow_lite/tensorflow/lite/kernels\kernel_util.h **** //   TfLiteTensor* my_tensor = GetIntermediates(context, node, kMyTensorIdx);
 125:C:/Renesas/e2studio_2021_01_workspace_RZA2M_ANPR/ANPR_RZA2M_GR_MANGO/src/tensorflow_lite/tensorflow/lite/kernels\kernel_util.h **** //   TF_LITE_ENSURE(context, my_tensor != nullptr);
 126:C:/Renesas/e2studio_2021_01_workspace_RZA2M_ANPR/ANPR_RZA2M_GR_MANGO/src/tensorflow_lite/tensorflow/lite/kernels\kernel_util.h **** //
 127:C:/Renesas/e2studio_2021_01_workspace_RZA2M_ANPR/ANPR_RZA2M_GR_MANGO/src/tensorflow_lite/tensorflow/lite/kernels\kernel_util.h **** // This is because the index might point to the optional tensor constant
 128:C:/Renesas/e2studio_2021_01_workspace_RZA2M_ANPR/ANPR_RZA2M_GR_MANGO/src/tensorflow_lite/tensorflow/lite/kernels\kernel_util.h **** // (kTfLiteOptionalTensor) in which case there is no tensor to return.
 129:C:/Renesas/e2studio_2021_01_workspace_RZA2M_ANPR/ANPR_RZA2M_GR_MANGO/src/tensorflow_lite/tensorflow/lite/kernels\kernel_util.h **** const TfLiteTensor* GetIntermediates(TfLiteContext* context,
 130:C:/Renesas/e2studio_2021_01_workspace_RZA2M_ANPR/ANPR_RZA2M_GR_MANGO/src/tensorflow_lite/tensorflow/lite/kernels\kernel_util.h ****                                      const TfLiteNode* node, int index);
 131:C:/Renesas/e2studio_2021_01_workspace_RZA2M_ANPR/ANPR_RZA2M_GR_MANGO/src/tensorflow_lite/tensorflow/lite/kernels\kernel_util.h **** 
 132:C:/Renesas/e2studio_2021_01_workspace_RZA2M_ANPR/ANPR_RZA2M_GR_MANGO/src/tensorflow_lite/tensorflow/lite/kernels\kernel_util.h **** // Same as `GetIntermediates` but returns boolean and uses output argument for
 133:C:/Renesas/e2studio_2021_01_workspace_RZA2M_ANPR/ANPR_RZA2M_GR_MANGO/src/tensorflow_lite/tensorflow/lite/kernels\kernel_util.h **** // tensor.
 134:C:/Renesas/e2studio_2021_01_workspace_RZA2M_ANPR/ANPR_RZA2M_GR_MANGO/src/tensorflow_lite/tensorflow/lite/kernels\kernel_util.h **** //
 135:C:/Renesas/e2studio_2021_01_workspace_RZA2M_ANPR/ANPR_RZA2M_GR_MANGO/src/tensorflow_lite/tensorflow/lite/kernels\kernel_util.h **** //   TfLiteTensor* my_tensor;
 136:C:/Renesas/e2studio_2021_01_workspace_RZA2M_ANPR/ANPR_RZA2M_GR_MANGO/src/tensorflow_lite/tensorflow/lite/kernels\kernel_util.h **** //   TF_LITE_ENSURE_OK(context,
 137:C:/Renesas/e2studio_2021_01_workspace_RZA2M_ANPR/ANPR_RZA2M_GR_MANGO/src/tensorflow_lite/tensorflow/lite/kernels\kernel_util.h **** //                     GetIntermediatesSafe(context, node, kMyTensorIdx,
 138:C:/Renesas/e2studio_2021_01_workspace_RZA2M_ANPR/ANPR_RZA2M_GR_MANGO/src/tensorflow_lite/tensorflow/lite/kernels\kernel_util.h **** //                     &my_tensor));
 139:C:/Renesas/e2studio_2021_01_workspace_RZA2M_ANPR/ANPR_RZA2M_GR_MANGO/src/tensorflow_lite/tensorflow/lite/kernels\kernel_util.h **** //   // can use my_tensor directly from here onwards, it is not nullptr
 140:C:/Renesas/e2studio_2021_01_workspace_RZA2M_ANPR/ANPR_RZA2M_GR_MANGO/src/tensorflow_lite/tensorflow/lite/kernels\kernel_util.h **** //
 141:C:/Renesas/e2studio_2021_01_workspace_RZA2M_ANPR/ANPR_RZA2M_GR_MANGO/src/tensorflow_lite/tensorflow/lite/kernels\kernel_util.h **** // Should be used in cases where the binary size is too large.
 142:C:/Renesas/e2studio_2021_01_workspace_RZA2M_ANPR/ANPR_RZA2M_GR_MANGO/src/tensorflow_lite/tensorflow/lite/kernels\kernel_util.h **** TfLiteStatus GetIntermediatesSafe(const TfLiteContext* context,
 143:C:/Renesas/e2studio_2021_01_workspace_RZA2M_ANPR/ANPR_RZA2M_GR_MANGO/src/tensorflow_lite/tensorflow/lite/kernels\kernel_util.h ****                                   const TfLiteNode* node, int index,
 144:C:/Renesas/e2studio_2021_01_workspace_RZA2M_ANPR/ANPR_RZA2M_GR_MANGO/src/tensorflow_lite/tensorflow/lite/kernels\kernel_util.h ****                                   TfLiteTensor** tensor);
 145:C:/Renesas/e2studio_2021_01_workspace_RZA2M_ANPR/ANPR_RZA2M_GR_MANGO/src/tensorflow_lite/tensorflow/lite/kernels\kernel_util.h **** #endif  // TF_LITE_STATIC_MEMORY
 146:C:/Renesas/e2studio_2021_01_workspace_RZA2M_ANPR/ANPR_RZA2M_GR_MANGO/src/tensorflow_lite/tensorflow/lite/kernels\kernel_util.h **** 
 147:C:/Renesas/e2studio_2021_01_workspace_RZA2M_ANPR/ANPR_RZA2M_GR_MANGO/src/tensorflow_lite/tensorflow/lite/kernels\kernel_util.h **** inline int NumDimensions(const TfLiteTensor* t) { return t->dims->size; }
 148:C:/Renesas/e2studio_2021_01_workspace_RZA2M_ANPR/ANPR_RZA2M_GR_MANGO/src/tensorflow_lite/tensorflow/lite/kernels\kernel_util.h **** inline int SizeOfDimension(const TfLiteTensor* t, int dim) {
 149:C:/Renesas/e2studio_2021_01_workspace_RZA2M_ANPR/ANPR_RZA2M_GR_MANGO/src/tensorflow_lite/tensorflow/lite/kernels\kernel_util.h ****   return t->dims->data[dim];
 150:C:/Renesas/e2studio_2021_01_workspace_RZA2M_ANPR/ANPR_RZA2M_GR_MANGO/src/tensorflow_lite/tensorflow/lite/kernels\kernel_util.h **** }
 151:C:/Renesas/e2studio_2021_01_workspace_RZA2M_ANPR/ANPR_RZA2M_GR_MANGO/src/tensorflow_lite/tensorflow/lite/kernels\kernel_util.h **** 
 152:C:/Renesas/e2studio_2021_01_workspace_RZA2M_ANPR/ANPR_RZA2M_GR_MANGO/src/tensorflow_lite/tensorflow/lite/kernels\kernel_util.h **** inline int NumInputs(const TfLiteNode* node) { return node->inputs->size; }
  71              		.loc 2 152 0
  72 0000 003091E5 		ldr	r3, [r1]
  73              	.LBE223:
  74              	.LBE222:
  75              		.loc 1 46 0
  76 0004 F0412DE9 		push	{r4, r5, r6, r7, r8, lr}
  77              		.save {r4, r5, r6, r7, r8, lr}
  78              		.cfi_def_cfa_offset 24
  79              		.cfi_offset 4, -24
  80              		.cfi_offset 5, -20
  81              		.cfi_offset 6, -16
  82              		.cfi_offset 7, -12
  83              		.cfi_offset 8, -8
  84              		.cfi_offset 14, -4
  85 0008 0050A0E1 		mov	r5, r0
  86              	.LVL5:
  87              		.pad #16
  88 000c 10D04DE2 		sub	sp, sp, #16
  89              		.cfi_def_cfa_offset 40
  90              	.LBB225:
  91              	.LBB224:
  92              		.loc 2 152 0
  93 0010 003093E5 		ldr	r3, [r3]
  94              	.LBE224:
  95              	.LBE225:
  47:../src/tensorflow_lite/tensorflow/lite/micro/kernels/space_to_batch_nd.cc ****   TF_LITE_ENSURE_EQ(context, NumInputs(node), 3);
  96              		.loc 1 47 0
  97 0014 030053E3 		cmp	r3, #3
  98 0018 4A00001A 		bne	.L19
  99              	.LBB226:
 100              	.LBB227:
 153:C:/Renesas/e2studio_2021_01_workspace_RZA2M_ANPR/ANPR_RZA2M_GR_MANGO/src/tensorflow_lite/tensorflow/lite/kernels\kernel_util.h **** inline int NumOutputs(const TfLiteNode* node) { return node->outputs->size; }
 101              		.loc 2 153 0
 102 001c 043091E5 		ldr	r3, [r1, #4]
 103 0020 0140A0E1 		mov	r4, r1
 104              	.LVL6:
 105 0024 006093E5 		ldr	r6, [r3]
 106              	.LBE227:
 107              	.LBE226:
  48:../src/tensorflow_lite/tensorflow/lite/micro/kernels/space_to_batch_nd.cc ****   TF_LITE_ENSURE_EQ(context, NumOutputs(node), 1);
 108              		.loc 1 48 0
 109 0028 010056E3 		cmp	r6, #1
 110 002c 1200000A 		beq	.L11
 111              	.LVL7:
 112              		.loc 1 48 0 is_stmt 0 discriminator 1
 113 0030 00C000E3 		movw	ip, #:lower16:.LC5
 114 0034 003000E3 		movw	r3, #:lower16:.LC6
 115 0038 00C040E3 		movt	ip, #:upper16:.LC5
 116 003c 003040E3 		movt	r3, #:upper16:.LC6
 117 0040 0140A0E3 		mov	r4, #1
 118 0044 002000E3 		movw	r2, #:lower16:.LC1
 119 0048 001000E3 		movw	r1, #:lower16:.LC2
 120              	.LVL8:
 121 004c 08608DE5 		str	r6, [sp, #8]
 122 0050 002040E3 		movt	r2, #:upper16:.LC1
 123 0054 145090E5 		ldr	r5, [r0, #20]
 124 0058 001040E3 		movt	r1, #:upper16:.LC2
 125 005c 00308DE5 		str	r3, [sp]
 126 0060 04C08DE5 		str	ip, [sp, #4]
 127 0064 3030A0E3 		mov	r3, #48
 128 0068 0C408DE5 		str	r4, [sp, #12]
 129 006c 35FF2FE1 		blx	r5
 130              	.LVL9:
 131 0070 0400A0E1 		mov	r0, r4
 132              	.LVL10:
 133              	.L10:
  49:../src/tensorflow_lite/tensorflow/lite/micro/kernels/space_to_batch_nd.cc **** 
  50:../src/tensorflow_lite/tensorflow/lite/micro/kernels/space_to_batch_nd.cc ****   const TfLiteTensor* input = GetInput(context, node, kInputTensor);
  51:../src/tensorflow_lite/tensorflow/lite/micro/kernels/space_to_batch_nd.cc ****   TfLiteTensor* output = GetOutput(context, node, kOutputTensor);
  52:../src/tensorflow_lite/tensorflow/lite/micro/kernels/space_to_batch_nd.cc ****   TF_LITE_ENSURE(context, input != nullptr && output != nullptr);
  53:../src/tensorflow_lite/tensorflow/lite/micro/kernels/space_to_batch_nd.cc **** 
  54:../src/tensorflow_lite/tensorflow/lite/micro/kernels/space_to_batch_nd.cc ****   TF_LITE_ENSURE(context, NumDimensions(input) >= kInputOutputMinDimensionNum);
  55:../src/tensorflow_lite/tensorflow/lite/micro/kernels/space_to_batch_nd.cc ****   TF_LITE_ENSURE(context, NumDimensions(output) >= kInputOutputMinDimensionNum);
  56:../src/tensorflow_lite/tensorflow/lite/micro/kernels/space_to_batch_nd.cc ****   TF_LITE_ENSURE(context, NumDimensions(input) <= kInputOutputMaxDimensionNum);
  57:../src/tensorflow_lite/tensorflow/lite/micro/kernels/space_to_batch_nd.cc ****   TF_LITE_ENSURE(context, NumDimensions(output) <= kInputOutputMaxDimensionNum);
  58:../src/tensorflow_lite/tensorflow/lite/micro/kernels/space_to_batch_nd.cc ****   TF_LITE_ENSURE_TYPES_EQ(context, input->type, output->type);
  59:../src/tensorflow_lite/tensorflow/lite/micro/kernels/space_to_batch_nd.cc **** 
  60:../src/tensorflow_lite/tensorflow/lite/micro/kernels/space_to_batch_nd.cc ****   return kTfLiteOk;
  61:../src/tensorflow_lite/tensorflow/lite/micro/kernels/space_to_batch_nd.cc **** }
 134              		.loc 1 61 0 is_stmt 1
 135 0074 10D08DE2 		add	sp, sp, #16
 136              		.cfi_remember_state
 137              		.cfi_def_cfa_offset 24
 138              		@ sp needed
 139 0078 F081BDE8 		pop	{r4, r5, r6, r7, r8, pc}
 140              	.LVL11:
 141              	.L11:
 142              		.cfi_restore_state
 143              	.LBB228:
 144              	.LBB229:
  50:../src/tensorflow_lite/tensorflow/lite/micro/kernels/space_to_batch_nd.cc ****   TfLiteTensor* output = GetOutput(context, node, kOutputTensor);
 145              		.loc 1 50 0
 146 007c 0020A0E3 		mov	r2, #0
 147 0080 FEFFFFEB 		bl	_ZN6tflite8GetInputEPK13TfLiteContextPK10TfLiteNodei
 148              	.LVL12:
  51:../src/tensorflow_lite/tensorflow/lite/micro/kernels/space_to_batch_nd.cc ****   TF_LITE_ENSURE(context, input != nullptr && output != nullptr);
 149              		.loc 1 51 0
 150 0084 0410A0E1 		mov	r1, r4
  50:../src/tensorflow_lite/tensorflow/lite/micro/kernels/space_to_batch_nd.cc ****   TfLiteTensor* output = GetOutput(context, node, kOutputTensor);
 151              		.loc 1 50 0
 152 0088 0070A0E1 		mov	r7, r0
 153              	.LVL13:
  51:../src/tensorflow_lite/tensorflow/lite/micro/kernels/space_to_batch_nd.cc ****   TF_LITE_ENSURE(context, input != nullptr && output != nullptr);
 154              		.loc 1 51 0
 155 008c 0020A0E3 		mov	r2, #0
 156 0090 0500A0E1 		mov	r0, r5
 157              	.LVL14:
 158 0094 FEFFFFEB 		bl	_ZN6tflite9GetOutputEP13TfLiteContextPK10TfLiteNodei
 159              	.LVL15:
  52:../src/tensorflow_lite/tensorflow/lite/micro/kernels/space_to_batch_nd.cc **** 
 160              		.loc 1 52 0
 161 0098 000050E3 		cmp	r0, #0
 162 009c 00005713 		cmpne	r7, #0
 163 00a0 0040A0E1 		mov	r4, r0
 164              	.LVL16:
 165 00a4 0130A003 		moveq	r3, #1
 166 00a8 0030A013 		movne	r3, #0
 167 00ac 3800000A 		beq	.L20
 168              	.LVL17:
 169              	.LBB230:
 170              	.LBB231:
 147:C:/Renesas/e2studio_2021_01_workspace_RZA2M_ANPR/ANPR_RZA2M_GR_MANGO/src/tensorflow_lite/tensorflow/lite/kernels\kernel_util.h **** inline int SizeOfDimension(const TfLiteTensor* t, int dim) {
 171              		.loc 2 147 0
 172 00b0 082097E5 		ldr	r2, [r7, #8]
 173 00b4 002092E5 		ldr	r2, [r2]
 174              	.LBE231:
 175              	.LBE230:
  54:../src/tensorflow_lite/tensorflow/lite/micro/kernels/space_to_batch_nd.cc ****   TF_LITE_ENSURE(context, NumDimensions(output) >= kInputOutputMinDimensionNum);
 176              		.loc 1 54 0
 177 00b8 020052E3 		cmp	r2, #2
 178 00bc 410000DA 		ble	.L21
 179              	.LVL18:
 180              	.LBB232:
 181              	.LBB233:
 147:C:/Renesas/e2studio_2021_01_workspace_RZA2M_ANPR/ANPR_RZA2M_GR_MANGO/src/tensorflow_lite/tensorflow/lite/kernels\kernel_util.h **** inline int SizeOfDimension(const TfLiteTensor* t, int dim) {
 182              		.loc 2 147 0
 183 00c0 081090E5 		ldr	r1, [r0, #8]
 184 00c4 001091E5 		ldr	r1, [r1]
 185              	.LBE233:
 186              	.LBE232:
  55:../src/tensorflow_lite/tensorflow/lite/micro/kernels/space_to_batch_nd.cc ****   TF_LITE_ENSURE(context, NumDimensions(input) <= kInputOutputMaxDimensionNum);
 187              		.loc 1 55 0
 188 00c8 020051E3 		cmp	r1, #2
 189 00cc 4A0000DA 		ble	.L22
 190              	.LVL19:
  56:../src/tensorflow_lite/tensorflow/lite/micro/kernels/space_to_batch_nd.cc ****   TF_LITE_ENSURE(context, NumDimensions(output) <= kInputOutputMaxDimensionNum);
 191              		.loc 1 56 0
 192 00d0 040052E3 		cmp	r2, #4
 193 00d4 550000CA 		bgt	.L23
 194              	.LVL20:
  57:../src/tensorflow_lite/tensorflow/lite/micro/kernels/space_to_batch_nd.cc ****   TF_LITE_ENSURE_TYPES_EQ(context, input->type, output->type);
 195              		.loc 1 57 0
 196 00d8 040051E3 		cmp	r1, #4
 197 00dc 600000CA 		bgt	.L24
  58:../src/tensorflow_lite/tensorflow/lite/micro/kernels/space_to_batch_nd.cc **** 
 198              		.loc 1 58 0
 199 00e0 0000D7E5 		ldrb	r0, [r7]	@ zero_extendqisi2
 200              	.LVL21:
 201 00e4 0020D4E5 		ldrb	r2, [r4]	@ zero_extendqisi2
 202 00e8 000052E1 		cmp	r2, r0
  60:../src/tensorflow_lite/tensorflow/lite/micro/kernels/space_to_batch_nd.cc **** }
 203              		.loc 1 60 0
 204 00ec 0300A001 		moveq	r0, r3
  58:../src/tensorflow_lite/tensorflow/lite/micro/kernels/space_to_batch_nd.cc **** 
 205              		.loc 1 58 0
 206 00f0 DFFFFF0A 		beq	.L10
 207 00f4 147095E5 		ldr	r7, [r5, #20]
 208              	.LVL22:
 209 00f8 FEFFFFEB 		bl	TfLiteTypeGetName
 210              	.LVL23:
 211 00fc 0080A0E1 		mov	r8, r0
 212 0100 0000D4E5 		ldrb	r0, [r4]	@ zero_extendqisi2
 213 0104 FEFFFFEB 		bl	TfLiteTypeGetName
 214              	.LVL24:
 215 0108 00C000E3 		movw	ip, #:lower16:.LC14
 216 010c 003000E3 		movw	r3, #:lower16:.LC15
 217 0110 00C040E3 		movt	ip, #:upper16:.LC14
 218 0114 003040E3 		movt	r3, #:upper16:.LC15
 219 0118 002000E3 		movw	r2, #:lower16:.LC1
 220 011c 001000E3 		movw	r1, #:lower16:.LC13
 221 0120 0C008DE5 		str	r0, [sp, #12]
 222 0124 002040E3 		movt	r2, #:upper16:.LC1
 223 0128 0500A0E1 		mov	r0, r5
 224 012c 08108DE8 		stm	sp, {r3, ip}
 225 0130 08808DE5 		str	r8, [sp, #8]
 226 0134 001040E3 		movt	r1, #:upper16:.LC13
 227 0138 3A30A0E3 		mov	r3, #58
 228 013c 37FF2FE1 		blx	r7
 229              	.LVL25:
 230 0140 0600A0E1 		mov	r0, r6
 231 0144 CAFFFFEA 		b	.L10
 232              	.LVL26:
 233              	.L19:
 234              	.LBE229:
 235              	.LBE228:
  47:../src/tensorflow_lite/tensorflow/lite/micro/kernels/space_to_batch_nd.cc ****   TF_LITE_ENSURE_EQ(context, NumOutputs(node), 1);
 236              		.loc 1 47 0 discriminator 1
 237 0148 00E000E3 		movw	lr, #:lower16:.LC3
 238 014c 00C000E3 		movw	ip, #:lower16:.LC4
 239 0150 00E040E3 		movt	lr, #:upper16:.LC3
 240 0154 00C040E3 		movt	ip, #:upper16:.LC4
 241 0158 0360A0E3 		mov	r6, #3
 242 015c 002000E3 		movw	r2, #:lower16:.LC1
 243 0160 001000E3 		movw	r1, #:lower16:.LC2
 244              	.LVL27:
 245 0164 08308DE5 		str	r3, [sp, #8]
 246 0168 002040E3 		movt	r2, #:upper16:.LC1
 247 016c 144090E5 		ldr	r4, [r0, #20]
 248 0170 001040E3 		movt	r1, #:upper16:.LC2
 249 0174 04E08DE5 		str	lr, [sp, #4]
 250 0178 00C08DE5 		str	ip, [sp]
 251 017c 2F30A0E3 		mov	r3, #47
 252 0180 0C608DE5 		str	r6, [sp, #12]
 253 0184 34FF2FE1 		blx	r4
 254              	.LVL28:
 255 0188 0100A0E3 		mov	r0, #1
 256              		.loc 1 61 0 discriminator 1
 257 018c 10D08DE2 		add	sp, sp, #16
 258              		.cfi_remember_state
 259              		.cfi_def_cfa_offset 24
 260              		@ sp needed
 261 0190 F081BDE8 		pop	{r4, r5, r6, r7, r8, pc}
 262              	.LVL29:
 263              	.L20:
 264              		.cfi_restore_state
 265              	.LBB235:
 266              	.LBB234:
  52:../src/tensorflow_lite/tensorflow/lite/micro/kernels/space_to_batch_nd.cc **** 
 267              		.loc 1 52 0
 268 0194 003000E3 		movw	r3, #:lower16:.LC8
 269 0198 002000E3 		movw	r2, #:lower16:.LC1
 270 019c 003040E3 		movt	r3, #:upper16:.LC8
 271 01a0 001000E3 		movw	r1, #:lower16:.LC7
 272 01a4 00308DE5 		str	r3, [sp]
 273 01a8 0500A0E1 		mov	r0, r5
 274              	.LVL30:
 275 01ac 002040E3 		movt	r2, #:upper16:.LC1
 276 01b0 001040E3 		movt	r1, #:upper16:.LC7
 277 01b4 144095E5 		ldr	r4, [r5, #20]
 278              	.LVL31:
 279 01b8 3430A0E3 		mov	r3, #52
 280 01bc 34FF2FE1 		blx	r4
 281              	.LVL32:
 282 01c0 0600A0E1 		mov	r0, r6
 283 01c4 AAFFFFEA 		b	.L10
 284              	.LVL33:
 285              	.L21:
  54:../src/tensorflow_lite/tensorflow/lite/micro/kernels/space_to_batch_nd.cc ****   TF_LITE_ENSURE(context, NumDimensions(output) >= kInputOutputMinDimensionNum);
 286              		.loc 1 54 0
 287 01c8 003000E3 		movw	r3, #:lower16:.LC9
 288 01cc 002000E3 		movw	r2, #:lower16:.LC1
 289 01d0 003040E3 		movt	r3, #:upper16:.LC9
 290 01d4 001000E3 		movw	r1, #:lower16:.LC7
 291 01d8 00308DE5 		str	r3, [sp]
 292 01dc 0500A0E1 		mov	r0, r5
 293              	.LVL34:
 294 01e0 002040E3 		movt	r2, #:upper16:.LC1
 295 01e4 001040E3 		movt	r1, #:upper16:.LC7
 296 01e8 144095E5 		ldr	r4, [r5, #20]
 297              	.LVL35:
 298 01ec 3630A0E3 		mov	r3, #54
 299 01f0 34FF2FE1 		blx	r4
 300              	.LVL36:
 301 01f4 0600A0E1 		mov	r0, r6
 302 01f8 9DFFFFEA 		b	.L10
 303              	.LVL37:
 304              	.L22:
  55:../src/tensorflow_lite/tensorflow/lite/micro/kernels/space_to_batch_nd.cc ****   TF_LITE_ENSURE(context, NumDimensions(input) <= kInputOutputMaxDimensionNum);
 305              		.loc 1 55 0
 306 01fc 003000E3 		movw	r3, #:lower16:.LC10
 307 0200 002000E3 		movw	r2, #:lower16:.LC1
 308 0204 003040E3 		movt	r3, #:upper16:.LC10
 309 0208 001000E3 		movw	r1, #:lower16:.LC7
 310 020c 00308DE5 		str	r3, [sp]
 311 0210 0500A0E1 		mov	r0, r5
 312              	.LVL38:
 313 0214 002040E3 		movt	r2, #:upper16:.LC1
 314 0218 001040E3 		movt	r1, #:upper16:.LC7
 315 021c 144095E5 		ldr	r4, [r5, #20]
 316              	.LVL39:
 317 0220 3730A0E3 		mov	r3, #55
 318 0224 34FF2FE1 		blx	r4
 319              	.LVL40:
 320 0228 0600A0E1 		mov	r0, r6
 321 022c 90FFFFEA 		b	.L10
 322              	.LVL41:
 323              	.L23:
  56:../src/tensorflow_lite/tensorflow/lite/micro/kernels/space_to_batch_nd.cc ****   TF_LITE_ENSURE(context, NumDimensions(output) <= kInputOutputMaxDimensionNum);
 324              		.loc 1 56 0
 325 0230 003000E3 		movw	r3, #:lower16:.LC11
 326 0234 002000E3 		movw	r2, #:lower16:.LC1
 327 0238 003040E3 		movt	r3, #:upper16:.LC11
 328 023c 001000E3 		movw	r1, #:lower16:.LC7
 329 0240 00308DE5 		str	r3, [sp]
 330 0244 0500A0E1 		mov	r0, r5
 331              	.LVL42:
 332 0248 002040E3 		movt	r2, #:upper16:.LC1
 333 024c 001040E3 		movt	r1, #:upper16:.LC7
 334 0250 144095E5 		ldr	r4, [r5, #20]
 335              	.LVL43:
 336 0254 3830A0E3 		mov	r3, #56
 337 0258 34FF2FE1 		blx	r4
 338              	.LVL44:
 339 025c 0600A0E1 		mov	r0, r6
 340 0260 83FFFFEA 		b	.L10
 341              	.LVL45:
 342              	.L24:
  57:../src/tensorflow_lite/tensorflow/lite/micro/kernels/space_to_batch_nd.cc ****   TF_LITE_ENSURE_TYPES_EQ(context, input->type, output->type);
 343              		.loc 1 57 0
 344 0264 003000E3 		movw	r3, #:lower16:.LC12
 345 0268 002000E3 		movw	r2, #:lower16:.LC1
 346 026c 003040E3 		movt	r3, #:upper16:.LC12
 347 0270 001000E3 		movw	r1, #:lower16:.LC7
 348 0274 00308DE5 		str	r3, [sp]
 349 0278 0500A0E1 		mov	r0, r5
 350              	.LVL46:
 351 027c 002040E3 		movt	r2, #:upper16:.LC1
 352 0280 001040E3 		movt	r1, #:upper16:.LC7
 353 0284 144095E5 		ldr	r4, [r5, #20]
 354              	.LVL47:
 355 0288 3930A0E3 		mov	r3, #57
 356 028c 34FF2FE1 		blx	r4
 357              	.LVL48:
 358 0290 0600A0E1 		mov	r0, r6
 359 0294 76FFFFEA 		b	.L10
 360              	.LBE234:
 361              	.LBE235:
 362              		.cfi_endproc
 363              	.LFE4178:
 364              		.fnend
 366              		.global	__aeabi_idivmod
 367              		.global	__aeabi_idiv
 368              		.section	.text._ZN6tflite12_GLOBAL__N_14EvalEP13TfLiteContextP10TfLiteNode,"ax",%progbits
 369              		.align	2
 370              		.syntax unified
 371              		.arm
 372              		.fpu neon
 374              	_ZN6tflite12_GLOBAL__N_14EvalEP13TfLiteContextP10TfLiteNode:
 375              		.fnstart
 376              	.LFB4179:
  62:../src/tensorflow_lite/tensorflow/lite/micro/kernels/space_to_batch_nd.cc **** 
  63:../src/tensorflow_lite/tensorflow/lite/micro/kernels/space_to_batch_nd.cc **** TfLiteStatus Eval(TfLiteContext* context, TfLiteNode* node) {
 377              		.loc 1 63 0
 378              		.cfi_startproc
 379              		.cfi_personality 0,__gxx_personality_v0
 380              		.cfi_lsda 0,.LLSDA4179
 381              		@ args = 0, pretend = 0, frame = 232
 382              		@ frame_needed = 0, uses_anonymous_args = 0
 383              	.LVL49:
 384 0000 F04F2DE9 		push	{r4, r5, r6, r7, r8, r9, r10, fp, lr}
 385              		.save {r4, r5, r6, r7, r8, r9, r10, fp, lr}
 386              		.cfi_def_cfa_offset 36
 387              		.cfi_offset 4, -36
 388              		.cfi_offset 5, -32
 389              		.cfi_offset 6, -28
 390              		.cfi_offset 7, -24
 391              		.cfi_offset 8, -20
 392              		.cfi_offset 9, -16
 393              		.cfi_offset 10, -12
 394              		.cfi_offset 11, -8
 395              		.cfi_offset 14, -4
 396              		.pad #236
 397 0004 ECD04DE2 		sub	sp, sp, #236
 398              		.cfi_def_cfa_offset 272
  64:../src/tensorflow_lite/tensorflow/lite/micro/kernels/space_to_batch_nd.cc ****   TFLITE_DCHECK(node->user_data != nullptr);
 399              		.loc 1 64 0
 400 0008 104091E5 		ldr	r4, [r1, #16]
 401 000c 000054E3 		cmp	r4, #0
 402 0010 0C04000A 		beq	.L27
 403              	.LBB546:
 404              	.LBB547:
 405              	.LBB548:
 406              		.file 3 "C:/Renesas/e2studio_2021_01_workspace_RZA2M_ANPR/ANPR_RZA2M_GR_MANGO/src/tensorflow_lite/
   1:C:/Renesas/e2studio_2021_01_workspace_RZA2M_ANPR/ANPR_RZA2M_GR_MANGO/src/tensorflow_lite/tensorflow/lite/micro/kernels\kernel_util.h **** /* Copyright 2020 The TensorFlow Authors. All Rights Reserved.
   2:C:/Renesas/e2studio_2021_01_workspace_RZA2M_ANPR/ANPR_RZA2M_GR_MANGO/src/tensorflow_lite/tensorflow/lite/micro/kernels\kernel_util.h **** 
   3:C:/Renesas/e2studio_2021_01_workspace_RZA2M_ANPR/ANPR_RZA2M_GR_MANGO/src/tensorflow_lite/tensorflow/lite/micro/kernels\kernel_util.h **** Licensed under the Apache License, Version 2.0 (the "License");
   4:C:/Renesas/e2studio_2021_01_workspace_RZA2M_ANPR/ANPR_RZA2M_GR_MANGO/src/tensorflow_lite/tensorflow/lite/micro/kernels\kernel_util.h **** you may not use this file except in compliance with the License.
   5:C:/Renesas/e2studio_2021_01_workspace_RZA2M_ANPR/ANPR_RZA2M_GR_MANGO/src/tensorflow_lite/tensorflow/lite/micro/kernels\kernel_util.h **** You may obtain a copy of the License at
   6:C:/Renesas/e2studio_2021_01_workspace_RZA2M_ANPR/ANPR_RZA2M_GR_MANGO/src/tensorflow_lite/tensorflow/lite/micro/kernels\kernel_util.h **** 
   7:C:/Renesas/e2studio_2021_01_workspace_RZA2M_ANPR/ANPR_RZA2M_GR_MANGO/src/tensorflow_lite/tensorflow/lite/micro/kernels\kernel_util.h ****     http://www.apache.org/licenses/LICENSE-2.0
   8:C:/Renesas/e2studio_2021_01_workspace_RZA2M_ANPR/ANPR_RZA2M_GR_MANGO/src/tensorflow_lite/tensorflow/lite/micro/kernels\kernel_util.h **** 
   9:C:/Renesas/e2studio_2021_01_workspace_RZA2M_ANPR/ANPR_RZA2M_GR_MANGO/src/tensorflow_lite/tensorflow/lite/micro/kernels\kernel_util.h **** Unless required by applicable law or agreed to in writing, software
  10:C:/Renesas/e2studio_2021_01_workspace_RZA2M_ANPR/ANPR_RZA2M_GR_MANGO/src/tensorflow_lite/tensorflow/lite/micro/kernels\kernel_util.h **** distributed under the License is distributed on an "AS IS" BASIS,
  11:C:/Renesas/e2studio_2021_01_workspace_RZA2M_ANPR/ANPR_RZA2M_GR_MANGO/src/tensorflow_lite/tensorflow/lite/micro/kernels\kernel_util.h **** WITHOUT WARRANTIES OR CONDITIONS OF ANY KIND, either express or implied.
  12:C:/Renesas/e2studio_2021_01_workspace_RZA2M_ANPR/ANPR_RZA2M_GR_MANGO/src/tensorflow_lite/tensorflow/lite/micro/kernels\kernel_util.h **** See the License for the specific language governing permissions and
  13:C:/Renesas/e2studio_2021_01_workspace_RZA2M_ANPR/ANPR_RZA2M_GR_MANGO/src/tensorflow_lite/tensorflow/lite/micro/kernels\kernel_util.h **** limitations under the License.
  14:C:/Renesas/e2studio_2021_01_workspace_RZA2M_ANPR/ANPR_RZA2M_GR_MANGO/src/tensorflow_lite/tensorflow/lite/micro/kernels\kernel_util.h **** ==============================================================================*/
  15:C:/Renesas/e2studio_2021_01_workspace_RZA2M_ANPR/ANPR_RZA2M_GR_MANGO/src/tensorflow_lite/tensorflow/lite/micro/kernels\kernel_util.h **** 
  16:C:/Renesas/e2studio_2021_01_workspace_RZA2M_ANPR/ANPR_RZA2M_GR_MANGO/src/tensorflow_lite/tensorflow/lite/micro/kernels\kernel_util.h **** #ifndef TENSORFLOW_LITE_MICRO_KERNELS_KERNEL_UTIL_H_
  17:C:/Renesas/e2studio_2021_01_workspace_RZA2M_ANPR/ANPR_RZA2M_GR_MANGO/src/tensorflow_lite/tensorflow/lite/micro/kernels\kernel_util.h **** #define TENSORFLOW_LITE_MICRO_KERNELS_KERNEL_UTIL_H_
  18:C:/Renesas/e2studio_2021_01_workspace_RZA2M_ANPR/ANPR_RZA2M_GR_MANGO/src/tensorflow_lite/tensorflow/lite/micro/kernels\kernel_util.h **** 
  19:C:/Renesas/e2studio_2021_01_workspace_RZA2M_ANPR/ANPR_RZA2M_GR_MANGO/src/tensorflow_lite/tensorflow/lite/micro/kernels\kernel_util.h **** #include <cstdint>
  20:C:/Renesas/e2studio_2021_01_workspace_RZA2M_ANPR/ANPR_RZA2M_GR_MANGO/src/tensorflow_lite/tensorflow/lite/micro/kernels\kernel_util.h **** 
  21:C:/Renesas/e2studio_2021_01_workspace_RZA2M_ANPR/ANPR_RZA2M_GR_MANGO/src/tensorflow_lite/tensorflow/lite/micro/kernels\kernel_util.h **** #include "tensorflow/lite/c/builtin_op_data.h"
  22:C:/Renesas/e2studio_2021_01_workspace_RZA2M_ANPR/ANPR_RZA2M_GR_MANGO/src/tensorflow_lite/tensorflow/lite/micro/kernels\kernel_util.h **** #include "tensorflow/lite/c/common.h"
  23:C:/Renesas/e2studio_2021_01_workspace_RZA2M_ANPR/ANPR_RZA2M_GR_MANGO/src/tensorflow_lite/tensorflow/lite/micro/kernels\kernel_util.h **** #include "tensorflow/lite/kernels/internal/compatibility.h"
  24:C:/Renesas/e2studio_2021_01_workspace_RZA2M_ANPR/ANPR_RZA2M_GR_MANGO/src/tensorflow_lite/tensorflow/lite/micro/kernels\kernel_util.h **** #include "tensorflow/lite/kernels/internal/types.h"
  25:C:/Renesas/e2studio_2021_01_workspace_RZA2M_ANPR/ANPR_RZA2M_GR_MANGO/src/tensorflow_lite/tensorflow/lite/micro/kernels\kernel_util.h **** 
  26:C:/Renesas/e2studio_2021_01_workspace_RZA2M_ANPR/ANPR_RZA2M_GR_MANGO/src/tensorflow_lite/tensorflow/lite/micro/kernels\kernel_util.h **** namespace tflite {
  27:C:/Renesas/e2studio_2021_01_workspace_RZA2M_ANPR/ANPR_RZA2M_GR_MANGO/src/tensorflow_lite/tensorflow/lite/micro/kernels\kernel_util.h **** namespace micro {
  28:C:/Renesas/e2studio_2021_01_workspace_RZA2M_ANPR/ANPR_RZA2M_GR_MANGO/src/tensorflow_lite/tensorflow/lite/micro/kernels\kernel_util.h **** 
  29:C:/Renesas/e2studio_2021_01_workspace_RZA2M_ANPR/ANPR_RZA2M_GR_MANGO/src/tensorflow_lite/tensorflow/lite/micro/kernels\kernel_util.h **** // Returns a mutable tensor for a given input index. is_variable must be checked
  30:C:/Renesas/e2studio_2021_01_workspace_RZA2M_ANPR/ANPR_RZA2M_GR_MANGO/src/tensorflow_lite/tensorflow/lite/micro/kernels\kernel_util.h **** // during prepare when the full TfLiteTensor is available.
  31:C:/Renesas/e2studio_2021_01_workspace_RZA2M_ANPR/ANPR_RZA2M_GR_MANGO/src/tensorflow_lite/tensorflow/lite/micro/kernels\kernel_util.h **** inline TfLiteEvalTensor* GetMutableEvalInput(const TfLiteContext* context,
  32:C:/Renesas/e2studio_2021_01_workspace_RZA2M_ANPR/ANPR_RZA2M_GR_MANGO/src/tensorflow_lite/tensorflow/lite/micro/kernels\kernel_util.h ****                                              const TfLiteNode* node,
  33:C:/Renesas/e2studio_2021_01_workspace_RZA2M_ANPR/ANPR_RZA2M_GR_MANGO/src/tensorflow_lite/tensorflow/lite/micro/kernels\kernel_util.h ****                                              int index) {
  34:C:/Renesas/e2studio_2021_01_workspace_RZA2M_ANPR/ANPR_RZA2M_GR_MANGO/src/tensorflow_lite/tensorflow/lite/micro/kernels\kernel_util.h ****   TFLITE_DCHECK(context != nullptr);
 407              		.loc 3 34 0
 408 0014 000050E3 		cmp	r0, #0
 409 0018 0060A0E1 		mov	r6, r0
 410              	.LVL50:
 411 001c 0904000A 		beq	.L27
  35:C:/Renesas/e2studio_2021_01_workspace_RZA2M_ANPR/ANPR_RZA2M_GR_MANGO/src/tensorflow_lite/tensorflow/lite/micro/kernels\kernel_util.h ****   TFLITE_DCHECK(node != nullptr);
  36:C:/Renesas/e2studio_2021_01_workspace_RZA2M_ANPR/ANPR_RZA2M_GR_MANGO/src/tensorflow_lite/tensorflow/lite/micro/kernels\kernel_util.h ****   return context->GetEvalTensor(context, node->inputs->data[index]);
 412              		.loc 3 36 0
 413 0020 002091E5 		ldr	r2, [r1]
 414 0024 0150A0E1 		mov	r5, r1
 415 0028 543090E5 		ldr	r3, [r0, #84]
 416 002c 041092E5 		ldr	r1, [r2, #4]
 417              	.LVL51:
 418              	.LEHB0:
 419 0030 33FF2FE1 		blx	r3
 420              	.LVL52:
 421              	.LBE548:
 422              	.LBE547:
 423              	.LBE546:
 424              	.LBB551:
 425              	.LBB552:
 426              	.LBB553:
 427 0034 002095E5 		ldr	r2, [r5]
 428              	.LBE553:
 429              	.LBE552:
 430              	.LBE551:
 431              	.LBB558:
 432              	.LBB550:
 433              	.LBB549:
 434 0038 0090A0E1 		mov	r9, r0
 435              	.LVL53:
 436              	.LBE549:
 437              	.LBE550:
 438              	.LBE558:
 439              	.LBB559:
 440              	.LBB556:
 441              	.LBB554:
 442 003c 543096E5 		ldr	r3, [r6, #84]
 443 0040 0600A0E1 		mov	r0, r6
 444 0044 081092E5 		ldr	r1, [r2, #8]
 445 0048 33FF2FE1 		blx	r3
 446              	.LVL54:
 447              	.LBE554:
 448              	.LBE556:
 449              	.LBE559:
 450              	.LBB560:
 451              	.LBB561:
 452              	.LBB562:
 453 004c 002095E5 		ldr	r2, [r5]
 454              	.LBE562:
 455              	.LBE561:
 456              	.LBE560:
 457              	.LBB567:
 458              	.LBB557:
 459              	.LBB555:
 460 0050 0070A0E1 		mov	r7, r0
 461              	.LVL55:
 462              	.LBE555:
 463              	.LBE557:
 464              	.LBE567:
 465              	.LBB568:
 466              	.LBB565:
 467              	.LBB563:
 468 0054 543096E5 		ldr	r3, [r6, #84]
 469 0058 0600A0E1 		mov	r0, r6
 470 005c 0C1092E5 		ldr	r1, [r2, #12]
 471 0060 33FF2FE1 		blx	r3
 472              	.LVL56:
 473              	.LBE563:
 474              	.LBE565:
 475              	.LBE568:
 476              	.LBB569:
 477              	.LBB570:
  37:C:/Renesas/e2studio_2021_01_workspace_RZA2M_ANPR/ANPR_RZA2M_GR_MANGO/src/tensorflow_lite/tensorflow/lite/micro/kernels\kernel_util.h **** }
  38:C:/Renesas/e2studio_2021_01_workspace_RZA2M_ANPR/ANPR_RZA2M_GR_MANGO/src/tensorflow_lite/tensorflow/lite/micro/kernels\kernel_util.h **** 
  39:C:/Renesas/e2studio_2021_01_workspace_RZA2M_ANPR/ANPR_RZA2M_GR_MANGO/src/tensorflow_lite/tensorflow/lite/micro/kernels\kernel_util.h **** // Returns the TfLiteEvalTensor struct for a given input index in a node.
  40:C:/Renesas/e2studio_2021_01_workspace_RZA2M_ANPR/ANPR_RZA2M_GR_MANGO/src/tensorflow_lite/tensorflow/lite/micro/kernels\kernel_util.h **** inline const TfLiteEvalTensor* GetEvalInput(const TfLiteContext* context,
  41:C:/Renesas/e2studio_2021_01_workspace_RZA2M_ANPR/ANPR_RZA2M_GR_MANGO/src/tensorflow_lite/tensorflow/lite/micro/kernels\kernel_util.h ****                                             const TfLiteNode* node, int index) {
  42:C:/Renesas/e2studio_2021_01_workspace_RZA2M_ANPR/ANPR_RZA2M_GR_MANGO/src/tensorflow_lite/tensorflow/lite/micro/kernels\kernel_util.h ****   return GetMutableEvalInput(context, node, index);
  43:C:/Renesas/e2studio_2021_01_workspace_RZA2M_ANPR/ANPR_RZA2M_GR_MANGO/src/tensorflow_lite/tensorflow/lite/micro/kernels\kernel_util.h **** }
  44:C:/Renesas/e2studio_2021_01_workspace_RZA2M_ANPR/ANPR_RZA2M_GR_MANGO/src/tensorflow_lite/tensorflow/lite/micro/kernels\kernel_util.h **** 
  45:C:/Renesas/e2studio_2021_01_workspace_RZA2M_ANPR/ANPR_RZA2M_GR_MANGO/src/tensorflow_lite/tensorflow/lite/micro/kernels\kernel_util.h **** // Returns the TfLiteEvalTensor struct for a given output index in a node.
  46:C:/Renesas/e2studio_2021_01_workspace_RZA2M_ANPR/ANPR_RZA2M_GR_MANGO/src/tensorflow_lite/tensorflow/lite/micro/kernels\kernel_util.h **** inline TfLiteEvalTensor* GetEvalOutput(const TfLiteContext* context,
  47:C:/Renesas/e2studio_2021_01_workspace_RZA2M_ANPR/ANPR_RZA2M_GR_MANGO/src/tensorflow_lite/tensorflow/lite/micro/kernels\kernel_util.h ****                                        const TfLiteNode* node, int index) {
  48:C:/Renesas/e2studio_2021_01_workspace_RZA2M_ANPR/ANPR_RZA2M_GR_MANGO/src/tensorflow_lite/tensorflow/lite/micro/kernels\kernel_util.h ****   TFLITE_DCHECK(context != nullptr);
  49:C:/Renesas/e2studio_2021_01_workspace_RZA2M_ANPR/ANPR_RZA2M_GR_MANGO/src/tensorflow_lite/tensorflow/lite/micro/kernels\kernel_util.h ****   TFLITE_DCHECK(node != nullptr);
  50:C:/Renesas/e2studio_2021_01_workspace_RZA2M_ANPR/ANPR_RZA2M_GR_MANGO/src/tensorflow_lite/tensorflow/lite/micro/kernels\kernel_util.h ****   return context->GetEvalTensor(context, node->outputs->data[index]);
 478              		.loc 3 50 0
 479 0064 042095E5 		ldr	r2, [r5, #4]
 480              	.LBE570:
 481              	.LBE569:
 482              	.LBB572:
 483              	.LBB566:
 484              	.LBB564:
  36:C:/Renesas/e2studio_2021_01_workspace_RZA2M_ANPR/ANPR_RZA2M_GR_MANGO/src/tensorflow_lite/tensorflow/lite/micro/kernels\kernel_util.h **** }
 485              		.loc 3 36 0
 486 0068 0080A0E1 		mov	r8, r0
 487              	.LVL57:
 488              	.LBE564:
 489              	.LBE566:
 490              	.LBE572:
 491              	.LBB573:
 492              	.LBB571:
 493              		.loc 3 50 0
 494 006c 543096E5 		ldr	r3, [r6, #84]
 495 0070 0600A0E1 		mov	r0, r6
 496 0074 041092E5 		ldr	r1, [r2, #4]
 497 0078 33FF2FE1 		blx	r3
 498              	.LVL58:
 499 007c 00B0A0E1 		mov	fp, r0
 500              	.LVL59:
 501              	.LBE571:
 502              	.LBE573:
  65:../src/tensorflow_lite/tensorflow/lite/micro/kernels/space_to_batch_nd.cc ****   const SpaceToBatchParams& params =
  66:../src/tensorflow_lite/tensorflow/lite/micro/kernels/space_to_batch_nd.cc ****       *(static_cast<const SpaceToBatchParams*>(node->user_data));
  67:../src/tensorflow_lite/tensorflow/lite/micro/kernels/space_to_batch_nd.cc **** 
  68:../src/tensorflow_lite/tensorflow/lite/micro/kernels/space_to_batch_nd.cc ****   const TfLiteEvalTensor* input =
  69:../src/tensorflow_lite/tensorflow/lite/micro/kernels/space_to_batch_nd.cc ****       tflite::micro::GetEvalInput(context, node, kInputTensor);
  70:../src/tensorflow_lite/tensorflow/lite/micro/kernels/space_to_batch_nd.cc ****   const TfLiteEvalTensor* block_shape =
  71:../src/tensorflow_lite/tensorflow/lite/micro/kernels/space_to_batch_nd.cc ****       tflite::micro::GetEvalInput(context, node, kBlockShapeTensor);
  72:../src/tensorflow_lite/tensorflow/lite/micro/kernels/space_to_batch_nd.cc ****   const TfLiteEvalTensor* crops =
  73:../src/tensorflow_lite/tensorflow/lite/micro/kernels/space_to_batch_nd.cc ****       tflite::micro::GetEvalInput(context, node, kCropsTensor);
  74:../src/tensorflow_lite/tensorflow/lite/micro/kernels/space_to_batch_nd.cc ****   TfLiteEvalTensor* output =
  75:../src/tensorflow_lite/tensorflow/lite/micro/kernels/space_to_batch_nd.cc ****       tflite::micro::GetEvalOutput(context, node, kOutputTensor);
  76:../src/tensorflow_lite/tensorflow/lite/micro/kernels/space_to_batch_nd.cc **** 
  77:../src/tensorflow_lite/tensorflow/lite/micro/kernels/space_to_batch_nd.cc ****   switch (input->type) {  // Already know in/out types are same.
 503              		.loc 1 77 0
 504 0080 0800D9E5 		ldrb	r0, [r9, #8]	@ zero_extendqisi2
 505 0084 010050E3 		cmp	r0, #1
 506 0088 A101000A 		beq	.L29
 507 008c 090050E3 		cmp	r0, #9
 508 0090 9401001A 		bne	.L490
  78:../src/tensorflow_lite/tensorflow/lite/micro/kernels/space_to_batch_nd.cc ****     case kTfLiteFloat32:
  79:../src/tensorflow_lite/tensorflow/lite/micro/kernels/space_to_batch_nd.cc ****       reference_ops::SpaceToBatchND(
  80:../src/tensorflow_lite/tensorflow/lite/micro/kernels/space_to_batch_nd.cc ****           params, tflite::micro::GetTensorShape(input),
  81:../src/tensorflow_lite/tensorflow/lite/micro/kernels/space_to_batch_nd.cc ****           tflite::micro::GetTensorData<float>(input),
  82:../src/tensorflow_lite/tensorflow/lite/micro/kernels/space_to_batch_nd.cc ****           tflite::micro::GetTensorShape(block_shape),
  83:../src/tensorflow_lite/tensorflow/lite/micro/kernels/space_to_batch_nd.cc ****           tflite::micro::GetTensorData<int32_t>(block_shape),
  84:../src/tensorflow_lite/tensorflow/lite/micro/kernels/space_to_batch_nd.cc ****           tflite::micro::GetTensorShape(crops),
  85:../src/tensorflow_lite/tensorflow/lite/micro/kernels/space_to_batch_nd.cc ****           tflite::micro::GetTensorData<int32_t>(crops),
  86:../src/tensorflow_lite/tensorflow/lite/micro/kernels/space_to_batch_nd.cc ****           tflite::micro::GetTensorShape(output),
  87:../src/tensorflow_lite/tensorflow/lite/micro/kernels/space_to_batch_nd.cc ****           tflite::micro::GetTensorData<float>(output));
  88:../src/tensorflow_lite/tensorflow/lite/micro/kernels/space_to_batch_nd.cc ****       break;
  89:../src/tensorflow_lite/tensorflow/lite/micro/kernels/space_to_batch_nd.cc ****     case kTfLiteInt8:
  90:../src/tensorflow_lite/tensorflow/lite/micro/kernels/space_to_batch_nd.cc ****       reference_ops::SpaceToBatchND(
  91:../src/tensorflow_lite/tensorflow/lite/micro/kernels/space_to_batch_nd.cc ****           params, tflite::micro::GetTensorShape(input),
 509              		.loc 1 91 0
 510 0094 0910A0E1 		mov	r1, r9
 511 0098 40008DE2 		add	r0, sp, #64
 512 009c FEFFFFEB 		bl	_ZN6tflite5micro14GetTensorShapeEPK16TfLiteEvalTensor
 513              	.LVL60:
 514              	.LEHE0:
 515              	.LBB574:
 516              	.LBB575:
  51:C:/Renesas/e2studio_2021_01_workspace_RZA2M_ANPR/ANPR_RZA2M_GR_MANGO/src/tensorflow_lite/tensorflow/lite/micro/kernels\kernel_util.h **** }
  52:C:/Renesas/e2studio_2021_01_workspace_RZA2M_ANPR/ANPR_RZA2M_GR_MANGO/src/tensorflow_lite/tensorflow/lite/micro/kernels\kernel_util.h **** 
  53:C:/Renesas/e2studio_2021_01_workspace_RZA2M_ANPR/ANPR_RZA2M_GR_MANGO/src/tensorflow_lite/tensorflow/lite/micro/kernels\kernel_util.h **** // Returns data for a TfLiteEvalTensor struct.
  54:C:/Renesas/e2studio_2021_01_workspace_RZA2M_ANPR/ANPR_RZA2M_GR_MANGO/src/tensorflow_lite/tensorflow/lite/micro/kernels\kernel_util.h **** template <typename T>
  55:C:/Renesas/e2studio_2021_01_workspace_RZA2M_ANPR/ANPR_RZA2M_GR_MANGO/src/tensorflow_lite/tensorflow/lite/micro/kernels\kernel_util.h **** T* GetTensorData(TfLiteEvalTensor* tensor) {
  56:C:/Renesas/e2studio_2021_01_workspace_RZA2M_ANPR/ANPR_RZA2M_GR_MANGO/src/tensorflow_lite/tensorflow/lite/micro/kernels\kernel_util.h ****   return tensor != nullptr ? reinterpret_cast<T*>(tensor->data.raw) : nullptr;
  57:C:/Renesas/e2studio_2021_01_workspace_RZA2M_ANPR/ANPR_RZA2M_GR_MANGO/src/tensorflow_lite/tensorflow/lite/micro/kernels\kernel_util.h **** }
  58:C:/Renesas/e2studio_2021_01_workspace_RZA2M_ANPR/ANPR_RZA2M_GR_MANGO/src/tensorflow_lite/tensorflow/lite/micro/kernels\kernel_util.h **** 
  59:C:/Renesas/e2studio_2021_01_workspace_RZA2M_ANPR/ANPR_RZA2M_GR_MANGO/src/tensorflow_lite/tensorflow/lite/micro/kernels\kernel_util.h **** // Returns const data for a TfLiteEvalTensor struct.
  60:C:/Renesas/e2studio_2021_01_workspace_RZA2M_ANPR/ANPR_RZA2M_GR_MANGO/src/tensorflow_lite/tensorflow/lite/micro/kernels\kernel_util.h **** template <typename T>
  61:C:/Renesas/e2studio_2021_01_workspace_RZA2M_ANPR/ANPR_RZA2M_GR_MANGO/src/tensorflow_lite/tensorflow/lite/micro/kernels\kernel_util.h **** const T* GetTensorData(const TfLiteEvalTensor* tensor) {
  62:C:/Renesas/e2studio_2021_01_workspace_RZA2M_ANPR/ANPR_RZA2M_GR_MANGO/src/tensorflow_lite/tensorflow/lite/micro/kernels\kernel_util.h ****   TFLITE_DCHECK(tensor != nullptr);
  63:C:/Renesas/e2studio_2021_01_workspace_RZA2M_ANPR/ANPR_RZA2M_GR_MANGO/src/tensorflow_lite/tensorflow/lite/micro/kernels\kernel_util.h ****   return reinterpret_cast<const T*>(tensor->data.raw);
 517              		.loc 3 63 0
 518 00a0 003099E5 		ldr	r3, [r9]
 519              	.LBE575:
 520              	.LBE574:
  92:../src/tensorflow_lite/tensorflow/lite/micro/kernels/space_to_batch_nd.cc ****           tflite::micro::GetTensorData<int8_t>(input),
  93:../src/tensorflow_lite/tensorflow/lite/micro/kernels/space_to_batch_nd.cc ****           tflite::micro::GetTensorShape(block_shape),
 521              		.loc 1 93 0
 522 00a4 0710A0E1 		mov	r1, r7
 523 00a8 58008DE2 		add	r0, sp, #88
 524              	.LBB577:
 525              	.LBB576:
 526              		.loc 3 63 0
 527 00ac 24308DE5 		str	r3, [sp, #36]
 528              	.LEHB1:
 529              	.LBE576:
 530              	.LBE577:
 531              		.loc 1 93 0
 532 00b0 FEFFFFEB 		bl	_ZN6tflite5micro14GetTensorShapeEPK16TfLiteEvalTensor
 533              	.LVL61:
 534              	.LEHE1:
 535              	.LBB578:
 536              	.LBB579:
  62:C:/Renesas/e2studio_2021_01_workspace_RZA2M_ANPR/ANPR_RZA2M_GR_MANGO/src/tensorflow_lite/tensorflow/lite/micro/kernels\kernel_util.h ****   return reinterpret_cast<const T*>(tensor->data.raw);
 537              		.loc 3 62 0
 538 00b4 000057E3 		cmp	r7, #0
 539 00b8 E403000A 		beq	.L491
 540              	.LBE579:
 541              	.LBE578:
  94:../src/tensorflow_lite/tensorflow/lite/micro/kernels/space_to_batch_nd.cc ****           tflite::micro::GetTensorData<int32_t>(block_shape),
  95:../src/tensorflow_lite/tensorflow/lite/micro/kernels/space_to_batch_nd.cc ****           tflite::micro::GetTensorShape(crops),
 542              		.loc 1 95 0
 543 00bc 0810A0E1 		mov	r1, r8
 544 00c0 70008DE2 		add	r0, sp, #112
 545              	.LBB582:
 546              	.LBB580:
 547              		.loc 3 63 0
 548 00c4 007097E5 		ldr	r7, [r7]
 549              	.LEHB2:
 550              	.LBE580:
 551              	.LBE582:
 552              		.loc 1 95 0
 553 00c8 FEFFFFEB 		bl	_ZN6tflite5micro14GetTensorShapeEPK16TfLiteEvalTensor
 554              	.LVL62:
 555              	.LEHE2:
 556              	.LBB583:
 557              	.LBB584:
  62:C:/Renesas/e2studio_2021_01_workspace_RZA2M_ANPR/ANPR_RZA2M_GR_MANGO/src/tensorflow_lite/tensorflow/lite/micro/kernels\kernel_util.h ****   return reinterpret_cast<const T*>(tensor->data.raw);
 558              		.loc 3 62 0
 559 00cc 000058E3 		cmp	r8, #0
 560 00d0 CF03000A 		beq	.L492
 561              	.LBE584:
 562              	.LBE583:
  96:../src/tensorflow_lite/tensorflow/lite/micro/kernels/space_to_batch_nd.cc ****           tflite::micro::GetTensorData<int32_t>(crops),
  97:../src/tensorflow_lite/tensorflow/lite/micro/kernels/space_to_batch_nd.cc ****           tflite::micro::GetTensorShape(output),
 563              		.loc 1 97 0
 564 00d4 0B10A0E1 		mov	r1, fp
 565 00d8 88008DE2 		add	r0, sp, #136
 566              	.LBB587:
 567              	.LBB585:
 568              		.loc 3 63 0
 569 00dc 006098E5 		ldr	r6, [r8]
 570              	.LVL63:
 571              	.LEHB3:
 572              	.LBE585:
 573              	.LBE587:
 574              		.loc 1 97 0
 575 00e0 FEFFFFEB 		bl	_ZN6tflite5micro14GetTensorShapeEPK16TfLiteEvalTensor
 576              	.LVL64:
 577              	.LEHE3:
 578              	.LBB588:
 579              	.LBB589:
  56:C:/Renesas/e2studio_2021_01_workspace_RZA2M_ANPR/ANPR_RZA2M_GR_MANGO/src/tensorflow_lite/tensorflow/lite/micro/kernels\kernel_util.h **** }
 580              		.loc 3 56 0
 581 00e4 00005BE3 		cmp	fp, #0
 582 00e8 40C09DE5 		ldr	ip, [sp, #64]
 583 00ec 00309B15 		ldrne	r3, [fp]
 584 00f0 04B08D05 		streq	fp, [sp, #4]
 585              	.LVL65:
 586 00f4 04308D15 		strne	r3, [sp, #4]
 587              	.LVL66:
 588              	.LBE589:
 589              	.LBE588:
 590              	.LBB590:
 591              	.LBB591:
 592              		.file 4 "C:/Renesas/e2studio_2021_01_workspace_RZA2M_ANPR/ANPR_RZA2M_GR_MANGO/src/tensorflow_lite/
   1:C:/Renesas/e2studio_2021_01_workspace_RZA2M_ANPR/ANPR_RZA2M_GR_MANGO/src/tensorflow_lite/tensorflow/lite/kernels/internal/reference\space_to_batch_nd.h **** /* Copyright 2020 The TensorFlow Authors. All Rights Reserved.
   2:C:/Renesas/e2studio_2021_01_workspace_RZA2M_ANPR/ANPR_RZA2M_GR_MANGO/src/tensorflow_lite/tensorflow/lite/kernels/internal/reference\space_to_batch_nd.h **** 
   3:C:/Renesas/e2studio_2021_01_workspace_RZA2M_ANPR/ANPR_RZA2M_GR_MANGO/src/tensorflow_lite/tensorflow/lite/kernels/internal/reference\space_to_batch_nd.h **** Licensed under the Apache License, Version 2.0 (the "License");
   4:C:/Renesas/e2studio_2021_01_workspace_RZA2M_ANPR/ANPR_RZA2M_GR_MANGO/src/tensorflow_lite/tensorflow/lite/kernels/internal/reference\space_to_batch_nd.h **** you may not use this file except in compliance with the License.
   5:C:/Renesas/e2studio_2021_01_workspace_RZA2M_ANPR/ANPR_RZA2M_GR_MANGO/src/tensorflow_lite/tensorflow/lite/kernels/internal/reference\space_to_batch_nd.h **** You may obtain a copy of the License at
   6:C:/Renesas/e2studio_2021_01_workspace_RZA2M_ANPR/ANPR_RZA2M_GR_MANGO/src/tensorflow_lite/tensorflow/lite/kernels/internal/reference\space_to_batch_nd.h **** 
   7:C:/Renesas/e2studio_2021_01_workspace_RZA2M_ANPR/ANPR_RZA2M_GR_MANGO/src/tensorflow_lite/tensorflow/lite/kernels/internal/reference\space_to_batch_nd.h ****     http://www.apache.org/licenses/LICENSE-2.0
   8:C:/Renesas/e2studio_2021_01_workspace_RZA2M_ANPR/ANPR_RZA2M_GR_MANGO/src/tensorflow_lite/tensorflow/lite/kernels/internal/reference\space_to_batch_nd.h **** 
   9:C:/Renesas/e2studio_2021_01_workspace_RZA2M_ANPR/ANPR_RZA2M_GR_MANGO/src/tensorflow_lite/tensorflow/lite/kernels/internal/reference\space_to_batch_nd.h **** Unless required by applicable law or agreed to in writing, software
  10:C:/Renesas/e2studio_2021_01_workspace_RZA2M_ANPR/ANPR_RZA2M_GR_MANGO/src/tensorflow_lite/tensorflow/lite/kernels/internal/reference\space_to_batch_nd.h **** distributed under the License is distributed on an "AS IS" BASIS,
  11:C:/Renesas/e2studio_2021_01_workspace_RZA2M_ANPR/ANPR_RZA2M_GR_MANGO/src/tensorflow_lite/tensorflow/lite/kernels/internal/reference\space_to_batch_nd.h **** WITHOUT WARRANTIES OR CONDITIONS OF ANY KIND, either express or implied.
  12:C:/Renesas/e2studio_2021_01_workspace_RZA2M_ANPR/ANPR_RZA2M_GR_MANGO/src/tensorflow_lite/tensorflow/lite/kernels/internal/reference\space_to_batch_nd.h **** See the License for the specific language governing permissions and
  13:C:/Renesas/e2studio_2021_01_workspace_RZA2M_ANPR/ANPR_RZA2M_GR_MANGO/src/tensorflow_lite/tensorflow/lite/kernels/internal/reference\space_to_batch_nd.h **** limitations under the License.
  14:C:/Renesas/e2studio_2021_01_workspace_RZA2M_ANPR/ANPR_RZA2M_GR_MANGO/src/tensorflow_lite/tensorflow/lite/kernels/internal/reference\space_to_batch_nd.h **** ==============================================================================*/
  15:C:/Renesas/e2studio_2021_01_workspace_RZA2M_ANPR/ANPR_RZA2M_GR_MANGO/src/tensorflow_lite/tensorflow/lite/kernels/internal/reference\space_to_batch_nd.h **** #ifndef TENSORFLOW_LITE_KERNELS_INTERNAL_REFERENCE_SPACE_TO_BATCH_ND_H_
  16:C:/Renesas/e2studio_2021_01_workspace_RZA2M_ANPR/ANPR_RZA2M_GR_MANGO/src/tensorflow_lite/tensorflow/lite/kernels/internal/reference\space_to_batch_nd.h **** #define TENSORFLOW_LITE_KERNELS_INTERNAL_REFERENCE_SPACE_TO_BATCH_ND_H_
  17:C:/Renesas/e2studio_2021_01_workspace_RZA2M_ANPR/ANPR_RZA2M_GR_MANGO/src/tensorflow_lite/tensorflow/lite/kernels/internal/reference\space_to_batch_nd.h **** 
  18:C:/Renesas/e2studio_2021_01_workspace_RZA2M_ANPR/ANPR_RZA2M_GR_MANGO/src/tensorflow_lite/tensorflow/lite/kernels/internal/reference\space_to_batch_nd.h **** #include <cmath>
  19:C:/Renesas/e2studio_2021_01_workspace_RZA2M_ANPR/ANPR_RZA2M_GR_MANGO/src/tensorflow_lite/tensorflow/lite/kernels/internal/reference\space_to_batch_nd.h **** 
  20:C:/Renesas/e2studio_2021_01_workspace_RZA2M_ANPR/ANPR_RZA2M_GR_MANGO/src/tensorflow_lite/tensorflow/lite/kernels/internal/reference\space_to_batch_nd.h **** #include "ruy/profiler/instrumentation.h"  // from @ruy
  21:C:/Renesas/e2studio_2021_01_workspace_RZA2M_ANPR/ANPR_RZA2M_GR_MANGO/src/tensorflow_lite/tensorflow/lite/kernels/internal/reference\space_to_batch_nd.h **** #include "tensorflow/lite/kernels/internal/common.h"
  22:C:/Renesas/e2studio_2021_01_workspace_RZA2M_ANPR/ANPR_RZA2M_GR_MANGO/src/tensorflow_lite/tensorflow/lite/kernels/internal/reference\space_to_batch_nd.h **** #include "tensorflow/lite/kernels/internal/types.h"
  23:C:/Renesas/e2studio_2021_01_workspace_RZA2M_ANPR/ANPR_RZA2M_GR_MANGO/src/tensorflow_lite/tensorflow/lite/kernels/internal/reference\space_to_batch_nd.h **** 
  24:C:/Renesas/e2studio_2021_01_workspace_RZA2M_ANPR/ANPR_RZA2M_GR_MANGO/src/tensorflow_lite/tensorflow/lite/kernels/internal/reference\space_to_batch_nd.h **** namespace tflite {
  25:C:/Renesas/e2studio_2021_01_workspace_RZA2M_ANPR/ANPR_RZA2M_GR_MANGO/src/tensorflow_lite/tensorflow/lite/kernels/internal/reference\space_to_batch_nd.h **** namespace reference_ops {
  26:C:/Renesas/e2studio_2021_01_workspace_RZA2M_ANPR/ANPR_RZA2M_GR_MANGO/src/tensorflow_lite/tensorflow/lite/kernels/internal/reference\space_to_batch_nd.h **** 
  27:C:/Renesas/e2studio_2021_01_workspace_RZA2M_ANPR/ANPR_RZA2M_GR_MANGO/src/tensorflow_lite/tensorflow/lite/kernels/internal/reference\space_to_batch_nd.h **** // TODO(b/135760455): Move this method anonymous namespace in a cc file.
  28:C:/Renesas/e2studio_2021_01_workspace_RZA2M_ANPR/ANPR_RZA2M_GR_MANGO/src/tensorflow_lite/tensorflow/lite/kernels/internal/reference\space_to_batch_nd.h **** inline RuntimeShape ExtendShapeSpaceToBatch(const RuntimeShape& shape) {
  29:C:/Renesas/e2studio_2021_01_workspace_RZA2M_ANPR/ANPR_RZA2M_GR_MANGO/src/tensorflow_lite/tensorflow/lite/kernels/internal/reference\space_to_batch_nd.h ****   if (shape.DimensionsCount() == 4) {
  30:C:/Renesas/e2studio_2021_01_workspace_RZA2M_ANPR/ANPR_RZA2M_GR_MANGO/src/tensorflow_lite/tensorflow/lite/kernels/internal/reference\space_to_batch_nd.h ****     return shape;
  31:C:/Renesas/e2studio_2021_01_workspace_RZA2M_ANPR/ANPR_RZA2M_GR_MANGO/src/tensorflow_lite/tensorflow/lite/kernels/internal/reference\space_to_batch_nd.h ****   }
  32:C:/Renesas/e2studio_2021_01_workspace_RZA2M_ANPR/ANPR_RZA2M_GR_MANGO/src/tensorflow_lite/tensorflow/lite/kernels/internal/reference\space_to_batch_nd.h ****   RuntimeShape new_shape(4, 1);
  33:C:/Renesas/e2studio_2021_01_workspace_RZA2M_ANPR/ANPR_RZA2M_GR_MANGO/src/tensorflow_lite/tensorflow/lite/kernels/internal/reference\space_to_batch_nd.h ****   new_shape.SetDim(0, shape.Dims(0));
  34:C:/Renesas/e2studio_2021_01_workspace_RZA2M_ANPR/ANPR_RZA2M_GR_MANGO/src/tensorflow_lite/tensorflow/lite/kernels/internal/reference\space_to_batch_nd.h ****   new_shape.SetDim(1, shape.Dims(1));
  35:C:/Renesas/e2studio_2021_01_workspace_RZA2M_ANPR/ANPR_RZA2M_GR_MANGO/src/tensorflow_lite/tensorflow/lite/kernels/internal/reference\space_to_batch_nd.h ****   new_shape.SetDim(3, shape.Dims(2));
  36:C:/Renesas/e2studio_2021_01_workspace_RZA2M_ANPR/ANPR_RZA2M_GR_MANGO/src/tensorflow_lite/tensorflow/lite/kernels/internal/reference\space_to_batch_nd.h ****   return new_shape;
  37:C:/Renesas/e2studio_2021_01_workspace_RZA2M_ANPR/ANPR_RZA2M_GR_MANGO/src/tensorflow_lite/tensorflow/lite/kernels/internal/reference\space_to_batch_nd.h **** }
  38:C:/Renesas/e2studio_2021_01_workspace_RZA2M_ANPR/ANPR_RZA2M_GR_MANGO/src/tensorflow_lite/tensorflow/lite/kernels/internal/reference\space_to_batch_nd.h **** 
  39:C:/Renesas/e2studio_2021_01_workspace_RZA2M_ANPR/ANPR_RZA2M_GR_MANGO/src/tensorflow_lite/tensorflow/lite/kernels/internal/reference\space_to_batch_nd.h **** template <typename T>
  40:C:/Renesas/e2studio_2021_01_workspace_RZA2M_ANPR/ANPR_RZA2M_GR_MANGO/src/tensorflow_lite/tensorflow/lite/kernels/internal/reference\space_to_batch_nd.h **** inline void SpaceToBatchND(const SpaceToBatchParams& params,
  41:C:/Renesas/e2studio_2021_01_workspace_RZA2M_ANPR/ANPR_RZA2M_GR_MANGO/src/tensorflow_lite/tensorflow/lite/kernels/internal/reference\space_to_batch_nd.h ****                            const RuntimeShape& unextended_input1_shape,
  42:C:/Renesas/e2studio_2021_01_workspace_RZA2M_ANPR/ANPR_RZA2M_GR_MANGO/src/tensorflow_lite/tensorflow/lite/kernels/internal/reference\space_to_batch_nd.h ****                            const T* input1_data,
  43:C:/Renesas/e2studio_2021_01_workspace_RZA2M_ANPR/ANPR_RZA2M_GR_MANGO/src/tensorflow_lite/tensorflow/lite/kernels/internal/reference\space_to_batch_nd.h ****                            const RuntimeShape& unextended_input2_shape,
  44:C:/Renesas/e2studio_2021_01_workspace_RZA2M_ANPR/ANPR_RZA2M_GR_MANGO/src/tensorflow_lite/tensorflow/lite/kernels/internal/reference\space_to_batch_nd.h ****                            const int32_t* block_shape_data,
  45:C:/Renesas/e2studio_2021_01_workspace_RZA2M_ANPR/ANPR_RZA2M_GR_MANGO/src/tensorflow_lite/tensorflow/lite/kernels/internal/reference\space_to_batch_nd.h ****                            const RuntimeShape& unextended_input3_shape,
  46:C:/Renesas/e2studio_2021_01_workspace_RZA2M_ANPR/ANPR_RZA2M_GR_MANGO/src/tensorflow_lite/tensorflow/lite/kernels/internal/reference\space_to_batch_nd.h ****                            const int32_t* paddings_data,
  47:C:/Renesas/e2studio_2021_01_workspace_RZA2M_ANPR/ANPR_RZA2M_GR_MANGO/src/tensorflow_lite/tensorflow/lite/kernels/internal/reference\space_to_batch_nd.h ****                            const RuntimeShape& unextended_output_shape,
  48:C:/Renesas/e2studio_2021_01_workspace_RZA2M_ANPR/ANPR_RZA2M_GR_MANGO/src/tensorflow_lite/tensorflow/lite/kernels/internal/reference\space_to_batch_nd.h ****                            T* output_data) {
  49:C:/Renesas/e2studio_2021_01_workspace_RZA2M_ANPR/ANPR_RZA2M_GR_MANGO/src/tensorflow_lite/tensorflow/lite/kernels/internal/reference\space_to_batch_nd.h ****   ruy::profiler::ScopeLabel label("SpaceToBatchND");
  50:C:/Renesas/e2studio_2021_01_workspace_RZA2M_ANPR/ANPR_RZA2M_GR_MANGO/src/tensorflow_lite/tensorflow/lite/kernels/internal/reference\space_to_batch_nd.h ****   TFLITE_DCHECK_GE(unextended_input1_shape.DimensionsCount(), 3);
 593              		.loc 4 50 0
 594 00f8 02005CE3 		cmp	ip, #2
 595 00fc CF0300DA 		ble	.L493
 596              	.LVL67:
  51:C:/Renesas/e2studio_2021_01_workspace_RZA2M_ANPR/ANPR_RZA2M_GR_MANGO/src/tensorflow_lite/tensorflow/lite/kernels/internal/reference\space_to_batch_nd.h ****   TFLITE_DCHECK_LE(unextended_input1_shape.DimensionsCount(), 4);
 597              		.loc 4 51 0
 598 0100 04005CE3 		cmp	ip, #4
 599 0104 CE0300CA 		bgt	.L494
 600              	.LVL68:
 601 0108 88309DE5 		ldr	r3, [sp, #136]
 602              	.LVL69:
  52:C:/Renesas/e2studio_2021_01_workspace_RZA2M_ANPR/ANPR_RZA2M_GR_MANGO/src/tensorflow_lite/tensorflow/lite/kernels/internal/reference\space_to_batch_nd.h ****   TFLITE_DCHECK_EQ(unextended_input1_shape.DimensionsCount(),
 603              		.loc 4 52 0
 604 010c 03005CE1 		cmp	ip, r3
 605 0110 C203001A 		bne	.L495
 606              	.LVL70:
 607              	.LBB592:
 608              	.LBB593:
  29:C:/Renesas/e2studio_2021_01_workspace_RZA2M_ANPR/ANPR_RZA2M_GR_MANGO/src/tensorflow_lite/tensorflow/lite/kernels/internal/reference\space_to_batch_nd.h ****     return shape;
 609              		.loc 4 29 0
 610 0114 04005CE3 		cmp	ip, #4
 611 0118 1903000A 		beq	.L496
 612              	.LVL71:
 613              	.LBB594:
 614              	.LBB595:
 615              	.LBB596:
 616              		.file 5 "C:/Renesas/e2studio_2021_01_workspace_RZA2M_ANPR/ANPR_RZA2M_GR_MANGO/src/tensorflow_lite/
   1:C:/Renesas/e2studio_2021_01_workspace_RZA2M_ANPR/ANPR_RZA2M_GR_MANGO/src/tensorflow_lite/tensorflow/lite/kernels/internal\types.h **** /* Copyright 2018 The TensorFlow Authors. All Rights Reserved.
   2:C:/Renesas/e2studio_2021_01_workspace_RZA2M_ANPR/ANPR_RZA2M_GR_MANGO/src/tensorflow_lite/tensorflow/lite/kernels/internal\types.h **** 
   3:C:/Renesas/e2studio_2021_01_workspace_RZA2M_ANPR/ANPR_RZA2M_GR_MANGO/src/tensorflow_lite/tensorflow/lite/kernels/internal\types.h **** Licensed under the Apache License, Version 2.0 (the "License");
   4:C:/Renesas/e2studio_2021_01_workspace_RZA2M_ANPR/ANPR_RZA2M_GR_MANGO/src/tensorflow_lite/tensorflow/lite/kernels/internal\types.h **** you may not use this file except in compliance with the License.
   5:C:/Renesas/e2studio_2021_01_workspace_RZA2M_ANPR/ANPR_RZA2M_GR_MANGO/src/tensorflow_lite/tensorflow/lite/kernels/internal\types.h **** You may obtain a copy of the License at
   6:C:/Renesas/e2studio_2021_01_workspace_RZA2M_ANPR/ANPR_RZA2M_GR_MANGO/src/tensorflow_lite/tensorflow/lite/kernels/internal\types.h **** 
   7:C:/Renesas/e2studio_2021_01_workspace_RZA2M_ANPR/ANPR_RZA2M_GR_MANGO/src/tensorflow_lite/tensorflow/lite/kernels/internal\types.h ****     http://www.apache.org/licenses/LICENSE-2.0
   8:C:/Renesas/e2studio_2021_01_workspace_RZA2M_ANPR/ANPR_RZA2M_GR_MANGO/src/tensorflow_lite/tensorflow/lite/kernels/internal\types.h **** 
   9:C:/Renesas/e2studio_2021_01_workspace_RZA2M_ANPR/ANPR_RZA2M_GR_MANGO/src/tensorflow_lite/tensorflow/lite/kernels/internal\types.h **** Unless required by applicable law or agreed to in writing, software
  10:C:/Renesas/e2studio_2021_01_workspace_RZA2M_ANPR/ANPR_RZA2M_GR_MANGO/src/tensorflow_lite/tensorflow/lite/kernels/internal\types.h **** distributed under the License is distributed on an "AS IS" BASIS,
  11:C:/Renesas/e2studio_2021_01_workspace_RZA2M_ANPR/ANPR_RZA2M_GR_MANGO/src/tensorflow_lite/tensorflow/lite/kernels/internal\types.h **** WITHOUT WARRANTIES OR CONDITIONS OF ANY KIND, either express or implied.
  12:C:/Renesas/e2studio_2021_01_workspace_RZA2M_ANPR/ANPR_RZA2M_GR_MANGO/src/tensorflow_lite/tensorflow/lite/kernels/internal\types.h **** See the License for the specific language governing permissions and
  13:C:/Renesas/e2studio_2021_01_workspace_RZA2M_ANPR/ANPR_RZA2M_GR_MANGO/src/tensorflow_lite/tensorflow/lite/kernels/internal\types.h **** limitations under the License.
  14:C:/Renesas/e2studio_2021_01_workspace_RZA2M_ANPR/ANPR_RZA2M_GR_MANGO/src/tensorflow_lite/tensorflow/lite/kernels/internal\types.h **** ==============================================================================*/
  15:C:/Renesas/e2studio_2021_01_workspace_RZA2M_ANPR/ANPR_RZA2M_GR_MANGO/src/tensorflow_lite/tensorflow/lite/kernels/internal\types.h **** #ifndef TENSORFLOW_LITE_KERNELS_INTERNAL_TYPES_H_
  16:C:/Renesas/e2studio_2021_01_workspace_RZA2M_ANPR/ANPR_RZA2M_GR_MANGO/src/tensorflow_lite/tensorflow/lite/kernels/internal\types.h **** #define TENSORFLOW_LITE_KERNELS_INTERNAL_TYPES_H_
  17:C:/Renesas/e2studio_2021_01_workspace_RZA2M_ANPR/ANPR_RZA2M_GR_MANGO/src/tensorflow_lite/tensorflow/lite/kernels/internal\types.h **** 
  18:C:/Renesas/e2studio_2021_01_workspace_RZA2M_ANPR/ANPR_RZA2M_GR_MANGO/src/tensorflow_lite/tensorflow/lite/kernels/internal\types.h **** #include <algorithm>
  19:C:/Renesas/e2studio_2021_01_workspace_RZA2M_ANPR/ANPR_RZA2M_GR_MANGO/src/tensorflow_lite/tensorflow/lite/kernels/internal\types.h **** #include <cstdint>
  20:C:/Renesas/e2studio_2021_01_workspace_RZA2M_ANPR/ANPR_RZA2M_GR_MANGO/src/tensorflow_lite/tensorflow/lite/kernels/internal\types.h **** #include <cstring>
  21:C:/Renesas/e2studio_2021_01_workspace_RZA2M_ANPR/ANPR_RZA2M_GR_MANGO/src/tensorflow_lite/tensorflow/lite/kernels/internal\types.h **** #include <initializer_list>
  22:C:/Renesas/e2studio_2021_01_workspace_RZA2M_ANPR/ANPR_RZA2M_GR_MANGO/src/tensorflow_lite/tensorflow/lite/kernels/internal\types.h **** 
  23:C:/Renesas/e2studio_2021_01_workspace_RZA2M_ANPR/ANPR_RZA2M_GR_MANGO/src/tensorflow_lite/tensorflow/lite/kernels/internal\types.h **** #include "tensorflow/lite/kernels/internal/compatibility.h"
  24:C:/Renesas/e2studio_2021_01_workspace_RZA2M_ANPR/ANPR_RZA2M_GR_MANGO/src/tensorflow_lite/tensorflow/lite/kernels/internal\types.h **** 
  25:C:/Renesas/e2studio_2021_01_workspace_RZA2M_ANPR/ANPR_RZA2M_GR_MANGO/src/tensorflow_lite/tensorflow/lite/kernels/internal\types.h **** namespace tflite {
  26:C:/Renesas/e2studio_2021_01_workspace_RZA2M_ANPR/ANPR_RZA2M_GR_MANGO/src/tensorflow_lite/tensorflow/lite/kernels/internal\types.h **** 
  27:C:/Renesas/e2studio_2021_01_workspace_RZA2M_ANPR/ANPR_RZA2M_GR_MANGO/src/tensorflow_lite/tensorflow/lite/kernels/internal\types.h **** enum class FusedActivationFunctionType : uint8_t {
  28:C:/Renesas/e2studio_2021_01_workspace_RZA2M_ANPR/ANPR_RZA2M_GR_MANGO/src/tensorflow_lite/tensorflow/lite/kernels/internal\types.h ****   kNone,
  29:C:/Renesas/e2studio_2021_01_workspace_RZA2M_ANPR/ANPR_RZA2M_GR_MANGO/src/tensorflow_lite/tensorflow/lite/kernels/internal\types.h ****   kRelu6,
  30:C:/Renesas/e2studio_2021_01_workspace_RZA2M_ANPR/ANPR_RZA2M_GR_MANGO/src/tensorflow_lite/tensorflow/lite/kernels/internal\types.h ****   kRelu1,
  31:C:/Renesas/e2studio_2021_01_workspace_RZA2M_ANPR/ANPR_RZA2M_GR_MANGO/src/tensorflow_lite/tensorflow/lite/kernels/internal\types.h ****   kRelu
  32:C:/Renesas/e2studio_2021_01_workspace_RZA2M_ANPR/ANPR_RZA2M_GR_MANGO/src/tensorflow_lite/tensorflow/lite/kernels/internal\types.h **** };
  33:C:/Renesas/e2studio_2021_01_workspace_RZA2M_ANPR/ANPR_RZA2M_GR_MANGO/src/tensorflow_lite/tensorflow/lite/kernels/internal\types.h **** enum class PaddingType : uint8_t { kNone, kSame, kValid };
  34:C:/Renesas/e2studio_2021_01_workspace_RZA2M_ANPR/ANPR_RZA2M_GR_MANGO/src/tensorflow_lite/tensorflow/lite/kernels/internal\types.h **** 
  35:C:/Renesas/e2studio_2021_01_workspace_RZA2M_ANPR/ANPR_RZA2M_GR_MANGO/src/tensorflow_lite/tensorflow/lite/kernels/internal\types.h **** struct PaddingValues {
  36:C:/Renesas/e2studio_2021_01_workspace_RZA2M_ANPR/ANPR_RZA2M_GR_MANGO/src/tensorflow_lite/tensorflow/lite/kernels/internal\types.h ****   int16_t width;
  37:C:/Renesas/e2studio_2021_01_workspace_RZA2M_ANPR/ANPR_RZA2M_GR_MANGO/src/tensorflow_lite/tensorflow/lite/kernels/internal\types.h ****   int16_t height;
  38:C:/Renesas/e2studio_2021_01_workspace_RZA2M_ANPR/ANPR_RZA2M_GR_MANGO/src/tensorflow_lite/tensorflow/lite/kernels/internal\types.h ****   // offset is used for calculating "remaining" padding, for example, `width`
  39:C:/Renesas/e2studio_2021_01_workspace_RZA2M_ANPR/ANPR_RZA2M_GR_MANGO/src/tensorflow_lite/tensorflow/lite/kernels/internal\types.h ****   // is 1 and `width_offset` is 1, so padding_left is 1 while padding_right is
  40:C:/Renesas/e2studio_2021_01_workspace_RZA2M_ANPR/ANPR_RZA2M_GR_MANGO/src/tensorflow_lite/tensorflow/lite/kernels/internal\types.h ****   // 1 + 1 = 2.
  41:C:/Renesas/e2studio_2021_01_workspace_RZA2M_ANPR/ANPR_RZA2M_GR_MANGO/src/tensorflow_lite/tensorflow/lite/kernels/internal\types.h ****   int16_t width_offset;
  42:C:/Renesas/e2studio_2021_01_workspace_RZA2M_ANPR/ANPR_RZA2M_GR_MANGO/src/tensorflow_lite/tensorflow/lite/kernels/internal\types.h ****   // Same as width_offset except it's over the height dimension.
  43:C:/Renesas/e2studio_2021_01_workspace_RZA2M_ANPR/ANPR_RZA2M_GR_MANGO/src/tensorflow_lite/tensorflow/lite/kernels/internal\types.h ****   int16_t height_offset;
  44:C:/Renesas/e2studio_2021_01_workspace_RZA2M_ANPR/ANPR_RZA2M_GR_MANGO/src/tensorflow_lite/tensorflow/lite/kernels/internal\types.h **** };
  45:C:/Renesas/e2studio_2021_01_workspace_RZA2M_ANPR/ANPR_RZA2M_GR_MANGO/src/tensorflow_lite/tensorflow/lite/kernels/internal\types.h **** 
  46:C:/Renesas/e2studio_2021_01_workspace_RZA2M_ANPR/ANPR_RZA2M_GR_MANGO/src/tensorflow_lite/tensorflow/lite/kernels/internal\types.h **** struct Padding3DValues {
  47:C:/Renesas/e2studio_2021_01_workspace_RZA2M_ANPR/ANPR_RZA2M_GR_MANGO/src/tensorflow_lite/tensorflow/lite/kernels/internal\types.h ****   int16_t width;
  48:C:/Renesas/e2studio_2021_01_workspace_RZA2M_ANPR/ANPR_RZA2M_GR_MANGO/src/tensorflow_lite/tensorflow/lite/kernels/internal\types.h ****   int16_t height;
  49:C:/Renesas/e2studio_2021_01_workspace_RZA2M_ANPR/ANPR_RZA2M_GR_MANGO/src/tensorflow_lite/tensorflow/lite/kernels/internal\types.h ****   int16_t depth;
  50:C:/Renesas/e2studio_2021_01_workspace_RZA2M_ANPR/ANPR_RZA2M_GR_MANGO/src/tensorflow_lite/tensorflow/lite/kernels/internal\types.h ****   // offset is used for calculating "remaining" padding, for example, `width`
  51:C:/Renesas/e2studio_2021_01_workspace_RZA2M_ANPR/ANPR_RZA2M_GR_MANGO/src/tensorflow_lite/tensorflow/lite/kernels/internal\types.h ****   // is 1 and `width_offset` is 1, so padding_left is 1 while padding_right is
  52:C:/Renesas/e2studio_2021_01_workspace_RZA2M_ANPR/ANPR_RZA2M_GR_MANGO/src/tensorflow_lite/tensorflow/lite/kernels/internal\types.h ****   // 1 + 1 = 2.
  53:C:/Renesas/e2studio_2021_01_workspace_RZA2M_ANPR/ANPR_RZA2M_GR_MANGO/src/tensorflow_lite/tensorflow/lite/kernels/internal\types.h ****   int16_t width_offset;
  54:C:/Renesas/e2studio_2021_01_workspace_RZA2M_ANPR/ANPR_RZA2M_GR_MANGO/src/tensorflow_lite/tensorflow/lite/kernels/internal\types.h ****   // Same as width_offset except it's over the height dimension.
  55:C:/Renesas/e2studio_2021_01_workspace_RZA2M_ANPR/ANPR_RZA2M_GR_MANGO/src/tensorflow_lite/tensorflow/lite/kernels/internal\types.h ****   int16_t height_offset;
  56:C:/Renesas/e2studio_2021_01_workspace_RZA2M_ANPR/ANPR_RZA2M_GR_MANGO/src/tensorflow_lite/tensorflow/lite/kernels/internal\types.h ****   // Same as width_offset except it's over the depth dimension.
  57:C:/Renesas/e2studio_2021_01_workspace_RZA2M_ANPR/ANPR_RZA2M_GR_MANGO/src/tensorflow_lite/tensorflow/lite/kernels/internal\types.h ****   int16_t depth_offset;
  58:C:/Renesas/e2studio_2021_01_workspace_RZA2M_ANPR/ANPR_RZA2M_GR_MANGO/src/tensorflow_lite/tensorflow/lite/kernels/internal\types.h **** };
  59:C:/Renesas/e2studio_2021_01_workspace_RZA2M_ANPR/ANPR_RZA2M_GR_MANGO/src/tensorflow_lite/tensorflow/lite/kernels/internal\types.h **** 
  60:C:/Renesas/e2studio_2021_01_workspace_RZA2M_ANPR/ANPR_RZA2M_GR_MANGO/src/tensorflow_lite/tensorflow/lite/kernels/internal\types.h **** // This enumeration allows for non-default formats for the weights array
  61:C:/Renesas/e2studio_2021_01_workspace_RZA2M_ANPR/ANPR_RZA2M_GR_MANGO/src/tensorflow_lite/tensorflow/lite/kernels/internal\types.h **** // of a fully-connected operator, allowing the use of special optimized
  62:C:/Renesas/e2studio_2021_01_workspace_RZA2M_ANPR/ANPR_RZA2M_GR_MANGO/src/tensorflow_lite/tensorflow/lite/kernels/internal\types.h **** // runtime paths.
  63:C:/Renesas/e2studio_2021_01_workspace_RZA2M_ANPR/ANPR_RZA2M_GR_MANGO/src/tensorflow_lite/tensorflow/lite/kernels/internal\types.h **** enum class FullyConnectedWeightsFormat : uint8_t {
  64:C:/Renesas/e2studio_2021_01_workspace_RZA2M_ANPR/ANPR_RZA2M_GR_MANGO/src/tensorflow_lite/tensorflow/lite/kernels/internal\types.h ****   // Default format (flat 2D layout, the inner contiguous dimension
  65:C:/Renesas/e2studio_2021_01_workspace_RZA2M_ANPR/ANPR_RZA2M_GR_MANGO/src/tensorflow_lite/tensorflow/lite/kernels/internal\types.h ****   // is input_depth, the outer non-contiguous dimension is output_depth)
  66:C:/Renesas/e2studio_2021_01_workspace_RZA2M_ANPR/ANPR_RZA2M_GR_MANGO/src/tensorflow_lite/tensorflow/lite/kernels/internal\types.h ****   kDefault,
  67:C:/Renesas/e2studio_2021_01_workspace_RZA2M_ANPR/ANPR_RZA2M_GR_MANGO/src/tensorflow_lite/tensorflow/lite/kernels/internal\types.h ****   // Summary: optimized layout for fast CPU runtime implementation,
  68:C:/Renesas/e2studio_2021_01_workspace_RZA2M_ANPR/ANPR_RZA2M_GR_MANGO/src/tensorflow_lite/tensorflow/lite/kernels/internal\types.h ****   // aimed specifically at ARM CPUs at the moment, and specialized for
  69:C:/Renesas/e2studio_2021_01_workspace_RZA2M_ANPR/ANPR_RZA2M_GR_MANGO/src/tensorflow_lite/tensorflow/lite/kernels/internal\types.h ****   // 8-bit quantized layers.
  70:C:/Renesas/e2studio_2021_01_workspace_RZA2M_ANPR/ANPR_RZA2M_GR_MANGO/src/tensorflow_lite/tensorflow/lite/kernels/internal\types.h ****   //
  71:C:/Renesas/e2studio_2021_01_workspace_RZA2M_ANPR/ANPR_RZA2M_GR_MANGO/src/tensorflow_lite/tensorflow/lite/kernels/internal\types.h ****   // The use case we're concerned with here is: 8-bit quantization,
  72:C:/Renesas/e2studio_2021_01_workspace_RZA2M_ANPR/ANPR_RZA2M_GR_MANGO/src/tensorflow_lite/tensorflow/lite/kernels/internal\types.h ****   // large weights matrix that doesn't fit in cache (e.g. 4096x2048 in
  73:C:/Renesas/e2studio_2021_01_workspace_RZA2M_ANPR/ANPR_RZA2M_GR_MANGO/src/tensorflow_lite/tensorflow/lite/kernels/internal\types.h ****   // a key application that drove this), very small batch size (e.g. 1 -- 4).
  74:C:/Renesas/e2studio_2021_01_workspace_RZA2M_ANPR/ANPR_RZA2M_GR_MANGO/src/tensorflow_lite/tensorflow/lite/kernels/internal\types.h ****   //
  75:C:/Renesas/e2studio_2021_01_workspace_RZA2M_ANPR/ANPR_RZA2M_GR_MANGO/src/tensorflow_lite/tensorflow/lite/kernels/internal\types.h ****   // Even with 8-bit quantization of weights, the performance of memory
  76:C:/Renesas/e2studio_2021_01_workspace_RZA2M_ANPR/ANPR_RZA2M_GR_MANGO/src/tensorflow_lite/tensorflow/lite/kernels/internal\types.h ****   // accesses to the weights can become the dominant issue when
  77:C:/Renesas/e2studio_2021_01_workspace_RZA2M_ANPR/ANPR_RZA2M_GR_MANGO/src/tensorflow_lite/tensorflow/lite/kernels/internal\types.h ****   // the batch size is small, so each weight value is used in only a few
  78:C:/Renesas/e2studio_2021_01_workspace_RZA2M_ANPR/ANPR_RZA2M_GR_MANGO/src/tensorflow_lite/tensorflow/lite/kernels/internal\types.h ****   // arithmetic ops, i.e. the fully-connected node has a low arithmetic
  79:C:/Renesas/e2studio_2021_01_workspace_RZA2M_ANPR/ANPR_RZA2M_GR_MANGO/src/tensorflow_lite/tensorflow/lite/kernels/internal\types.h ****   // intensity. The specific issues that arise are of three kinds:
  80:C:/Renesas/e2studio_2021_01_workspace_RZA2M_ANPR/ANPR_RZA2M_GR_MANGO/src/tensorflow_lite/tensorflow/lite/kernels/internal\types.h ****   // (1) One may, ideally, max out DRAM bandwidth, i.e. be truly memory
  81:C:/Renesas/e2studio_2021_01_workspace_RZA2M_ANPR/ANPR_RZA2M_GR_MANGO/src/tensorflow_lite/tensorflow/lite/kernels/internal\types.h ****   //     bound. That's the "good" issue to run into.
  82:C:/Renesas/e2studio_2021_01_workspace_RZA2M_ANPR/ANPR_RZA2M_GR_MANGO/src/tensorflow_lite/tensorflow/lite/kernels/internal\types.h ****   // (2) One may run into sub-optimal pre-fetching: the data hasn't been
  83:C:/Renesas/e2studio_2021_01_workspace_RZA2M_ANPR/ANPR_RZA2M_GR_MANGO/src/tensorflow_lite/tensorflow/lite/kernels/internal\types.h ****   //     prefetched into the cache by the time we need it.
  84:C:/Renesas/e2studio_2021_01_workspace_RZA2M_ANPR/ANPR_RZA2M_GR_MANGO/src/tensorflow_lite/tensorflow/lite/kernels/internal\types.h ****   // (3) One may run into cache aliasing: multiple values that are
  85:C:/Renesas/e2studio_2021_01_workspace_RZA2M_ANPR/ANPR_RZA2M_GR_MANGO/src/tensorflow_lite/tensorflow/lite/kernels/internal\types.h ****   //     pre-fetched, alias each other in the L1 cache (which typically
  86:C:/Renesas/e2studio_2021_01_workspace_RZA2M_ANPR/ANPR_RZA2M_GR_MANGO/src/tensorflow_lite/tensorflow/lite/kernels/internal\types.h ****   //     has only 4-way set associativity in ARM CPUs) and thus evict
  87:C:/Renesas/e2studio_2021_01_workspace_RZA2M_ANPR/ANPR_RZA2M_GR_MANGO/src/tensorflow_lite/tensorflow/lite/kernels/internal\types.h ****   //     each other before we get to using them.
  88:C:/Renesas/e2studio_2021_01_workspace_RZA2M_ANPR/ANPR_RZA2M_GR_MANGO/src/tensorflow_lite/tensorflow/lite/kernels/internal\types.h ****   //
  89:C:/Renesas/e2studio_2021_01_workspace_RZA2M_ANPR/ANPR_RZA2M_GR_MANGO/src/tensorflow_lite/tensorflow/lite/kernels/internal\types.h ****   // The point of this shuffling is to avoid issues (2) and (3) so that
  90:C:/Renesas/e2studio_2021_01_workspace_RZA2M_ANPR/ANPR_RZA2M_GR_MANGO/src/tensorflow_lite/tensorflow/lite/kernels/internal\types.h ****   // we get as fast as possible given only the hard constraint (1).
  91:C:/Renesas/e2studio_2021_01_workspace_RZA2M_ANPR/ANPR_RZA2M_GR_MANGO/src/tensorflow_lite/tensorflow/lite/kernels/internal\types.h ****   // This is achieved by turning the difficulty into a solution: the
  92:C:/Renesas/e2studio_2021_01_workspace_RZA2M_ANPR/ANPR_RZA2M_GR_MANGO/src/tensorflow_lite/tensorflow/lite/kernels/internal\types.h ****   // difficulty, that each value loaded from memory is used only in
  93:C:/Renesas/e2studio_2021_01_workspace_RZA2M_ANPR/ANPR_RZA2M_GR_MANGO/src/tensorflow_lite/tensorflow/lite/kernels/internal\types.h ****   // one kernel iteration, making this operation memory-intensive, hints at
  94:C:/Renesas/e2studio_2021_01_workspace_RZA2M_ANPR/ANPR_RZA2M_GR_MANGO/src/tensorflow_lite/tensorflow/lite/kernels/internal\types.h ****   // the solution, of shuffling the weights so that they are stored in the
  95:C:/Renesas/e2studio_2021_01_workspace_RZA2M_ANPR/ANPR_RZA2M_GR_MANGO/src/tensorflow_lite/tensorflow/lite/kernels/internal\types.h ****   // exact order as the kernel needs to load them, so that the memory
  96:C:/Renesas/e2studio_2021_01_workspace_RZA2M_ANPR/ANPR_RZA2M_GR_MANGO/src/tensorflow_lite/tensorflow/lite/kernels/internal\types.h ****   // accesses made by the kernel are trivial. This solves (2) because the
  97:C:/Renesas/e2studio_2021_01_workspace_RZA2M_ANPR/ANPR_RZA2M_GR_MANGO/src/tensorflow_lite/tensorflow/lite/kernels/internal\types.h ****   // trivial memory access pattern allows the CPU's automatic prefetching
  98:C:/Renesas/e2studio_2021_01_workspace_RZA2M_ANPR/ANPR_RZA2M_GR_MANGO/src/tensorflow_lite/tensorflow/lite/kernels/internal\types.h ****   // to perform very well (no need even for preload instructions), and this
  99:C:/Renesas/e2studio_2021_01_workspace_RZA2M_ANPR/ANPR_RZA2M_GR_MANGO/src/tensorflow_lite/tensorflow/lite/kernels/internal\types.h ****   // solves (3) because the values being loaded concurrently are now
 100:C:/Renesas/e2studio_2021_01_workspace_RZA2M_ANPR/ANPR_RZA2M_GR_MANGO/src/tensorflow_lite/tensorflow/lite/kernels/internal\types.h ****   // contiguous in the address space, thus don't alias each other in the cache.
 101:C:/Renesas/e2studio_2021_01_workspace_RZA2M_ANPR/ANPR_RZA2M_GR_MANGO/src/tensorflow_lite/tensorflow/lite/kernels/internal\types.h ****   //
 102:C:/Renesas/e2studio_2021_01_workspace_RZA2M_ANPR/ANPR_RZA2M_GR_MANGO/src/tensorflow_lite/tensorflow/lite/kernels/internal\types.h ****   // On ARM, we typically want our kernel to process a 4x16 block of weights
 103:C:/Renesas/e2studio_2021_01_workspace_RZA2M_ANPR/ANPR_RZA2M_GR_MANGO/src/tensorflow_lite/tensorflow/lite/kernels/internal\types.h ****   // at a time, because:
 104:C:/Renesas/e2studio_2021_01_workspace_RZA2M_ANPR/ANPR_RZA2M_GR_MANGO/src/tensorflow_lite/tensorflow/lite/kernels/internal\types.h ****   //   - 16 is the number of bytes in a NEON register.
 105:C:/Renesas/e2studio_2021_01_workspace_RZA2M_ANPR/ANPR_RZA2M_GR_MANGO/src/tensorflow_lite/tensorflow/lite/kernels/internal\types.h ****   //   - 4 is how many rows we need to handle concurrently in the kernel in
 106:C:/Renesas/e2studio_2021_01_workspace_RZA2M_ANPR/ANPR_RZA2M_GR_MANGO/src/tensorflow_lite/tensorflow/lite/kernels/internal\types.h ****   //     order to have sufficient mutual independence of instructions to
 107:C:/Renesas/e2studio_2021_01_workspace_RZA2M_ANPR/ANPR_RZA2M_GR_MANGO/src/tensorflow_lite/tensorflow/lite/kernels/internal\types.h ****   //     maximize arithmetic throughput.
 108:C:/Renesas/e2studio_2021_01_workspace_RZA2M_ANPR/ANPR_RZA2M_GR_MANGO/src/tensorflow_lite/tensorflow/lite/kernels/internal\types.h ****   //
 109:C:/Renesas/e2studio_2021_01_workspace_RZA2M_ANPR/ANPR_RZA2M_GR_MANGO/src/tensorflow_lite/tensorflow/lite/kernels/internal\types.h ****   // Finally, the 'Int8' part in the name refers to the fact that this
 110:C:/Renesas/e2studio_2021_01_workspace_RZA2M_ANPR/ANPR_RZA2M_GR_MANGO/src/tensorflow_lite/tensorflow/lite/kernels/internal\types.h ****   // weights format has each weights value encoded as a signed int8_t value,
 111:C:/Renesas/e2studio_2021_01_workspace_RZA2M_ANPR/ANPR_RZA2M_GR_MANGO/src/tensorflow_lite/tensorflow/lite/kernels/internal\types.h ****   // even if the data type of the weights buffer is uint8_t.  This is intended
 112:C:/Renesas/e2studio_2021_01_workspace_RZA2M_ANPR/ANPR_RZA2M_GR_MANGO/src/tensorflow_lite/tensorflow/lite/kernels/internal\types.h ****   // to save runtime kernels the effort to have to XOR the top bit of these
 113:C:/Renesas/e2studio_2021_01_workspace_RZA2M_ANPR/ANPR_RZA2M_GR_MANGO/src/tensorflow_lite/tensorflow/lite/kernels/internal\types.h ****   // bytes before using them in signed arithmetic, see this file for more
 114:C:/Renesas/e2studio_2021_01_workspace_RZA2M_ANPR/ANPR_RZA2M_GR_MANGO/src/tensorflow_lite/tensorflow/lite/kernels/internal\types.h ****   // explanations on the 'signed int8_t trick' in matrix multiplication kernels:
 115:C:/Renesas/e2studio_2021_01_workspace_RZA2M_ANPR/ANPR_RZA2M_GR_MANGO/src/tensorflow_lite/tensorflow/lite/kernels/internal\types.h ****   //
 116:C:/Renesas/e2studio_2021_01_workspace_RZA2M_ANPR/ANPR_RZA2M_GR_MANGO/src/tensorflow_lite/tensorflow/lite/kernels/internal\types.h ****   //   tensorflow/lite/toco/graph_transformations/ensure_uint8_weights_safe_for_fast_int8_kernels.c
 117:C:/Renesas/e2studio_2021_01_workspace_RZA2M_ANPR/ANPR_RZA2M_GR_MANGO/src/tensorflow_lite/tensorflow/lite/kernels/internal\types.h ****   //
 118:C:/Renesas/e2studio_2021_01_workspace_RZA2M_ANPR/ANPR_RZA2M_GR_MANGO/src/tensorflow_lite/tensorflow/lite/kernels/internal\types.h ****   kShuffled4x16Int8,
 119:C:/Renesas/e2studio_2021_01_workspace_RZA2M_ANPR/ANPR_RZA2M_GR_MANGO/src/tensorflow_lite/tensorflow/lite/kernels/internal\types.h **** };
 120:C:/Renesas/e2studio_2021_01_workspace_RZA2M_ANPR/ANPR_RZA2M_GR_MANGO/src/tensorflow_lite/tensorflow/lite/kernels/internal\types.h **** 
 121:C:/Renesas/e2studio_2021_01_workspace_RZA2M_ANPR/ANPR_RZA2M_GR_MANGO/src/tensorflow_lite/tensorflow/lite/kernels/internal\types.h **** // Quantization parameters, determining the mapping of quantized values
 122:C:/Renesas/e2studio_2021_01_workspace_RZA2M_ANPR/ANPR_RZA2M_GR_MANGO/src/tensorflow_lite/tensorflow/lite/kernels/internal\types.h **** // to real values (i.e. determining how quantized values are mathematically
 123:C:/Renesas/e2studio_2021_01_workspace_RZA2M_ANPR/ANPR_RZA2M_GR_MANGO/src/tensorflow_lite/tensorflow/lite/kernels/internal\types.h **** // interpreted).
 124:C:/Renesas/e2studio_2021_01_workspace_RZA2M_ANPR/ANPR_RZA2M_GR_MANGO/src/tensorflow_lite/tensorflow/lite/kernels/internal\types.h **** //
 125:C:/Renesas/e2studio_2021_01_workspace_RZA2M_ANPR/ANPR_RZA2M_GR_MANGO/src/tensorflow_lite/tensorflow/lite/kernels/internal\types.h **** // The correspondence is as follows:
 126:C:/Renesas/e2studio_2021_01_workspace_RZA2M_ANPR/ANPR_RZA2M_GR_MANGO/src/tensorflow_lite/tensorflow/lite/kernels/internal\types.h **** //
 127:C:/Renesas/e2studio_2021_01_workspace_RZA2M_ANPR/ANPR_RZA2M_GR_MANGO/src/tensorflow_lite/tensorflow/lite/kernels/internal\types.h **** //   real_value = scale * (quantized_value - zero_point);
 128:C:/Renesas/e2studio_2021_01_workspace_RZA2M_ANPR/ANPR_RZA2M_GR_MANGO/src/tensorflow_lite/tensorflow/lite/kernels/internal\types.h **** //
 129:C:/Renesas/e2studio_2021_01_workspace_RZA2M_ANPR/ANPR_RZA2M_GR_MANGO/src/tensorflow_lite/tensorflow/lite/kernels/internal\types.h **** // In other words, zero_point designates which quantized value corresponds to
 130:C:/Renesas/e2studio_2021_01_workspace_RZA2M_ANPR/ANPR_RZA2M_GR_MANGO/src/tensorflow_lite/tensorflow/lite/kernels/internal\types.h **** // the real 0 value, and scale designates the difference between the real values
 131:C:/Renesas/e2studio_2021_01_workspace_RZA2M_ANPR/ANPR_RZA2M_GR_MANGO/src/tensorflow_lite/tensorflow/lite/kernels/internal\types.h **** // corresponding to consecutive quantized values differing by 1.
 132:C:/Renesas/e2studio_2021_01_workspace_RZA2M_ANPR/ANPR_RZA2M_GR_MANGO/src/tensorflow_lite/tensorflow/lite/kernels/internal\types.h **** struct QuantizationParams {
 133:C:/Renesas/e2studio_2021_01_workspace_RZA2M_ANPR/ANPR_RZA2M_GR_MANGO/src/tensorflow_lite/tensorflow/lite/kernels/internal\types.h ****   int32_t zero_point = 0;
 134:C:/Renesas/e2studio_2021_01_workspace_RZA2M_ANPR/ANPR_RZA2M_GR_MANGO/src/tensorflow_lite/tensorflow/lite/kernels/internal\types.h ****   double scale = 0.0;
 135:C:/Renesas/e2studio_2021_01_workspace_RZA2M_ANPR/ANPR_RZA2M_GR_MANGO/src/tensorflow_lite/tensorflow/lite/kernels/internal\types.h **** };
 136:C:/Renesas/e2studio_2021_01_workspace_RZA2M_ANPR/ANPR_RZA2M_GR_MANGO/src/tensorflow_lite/tensorflow/lite/kernels/internal\types.h **** 
 137:C:/Renesas/e2studio_2021_01_workspace_RZA2M_ANPR/ANPR_RZA2M_GR_MANGO/src/tensorflow_lite/tensorflow/lite/kernels/internal\types.h **** inline bool operator==(const QuantizationParams& qp1,
 138:C:/Renesas/e2studio_2021_01_workspace_RZA2M_ANPR/ANPR_RZA2M_GR_MANGO/src/tensorflow_lite/tensorflow/lite/kernels/internal\types.h ****                        const QuantizationParams& qp2) {
 139:C:/Renesas/e2studio_2021_01_workspace_RZA2M_ANPR/ANPR_RZA2M_GR_MANGO/src/tensorflow_lite/tensorflow/lite/kernels/internal\types.h ****   return qp1.zero_point == qp2.zero_point && qp1.scale == qp2.scale;
 140:C:/Renesas/e2studio_2021_01_workspace_RZA2M_ANPR/ANPR_RZA2M_GR_MANGO/src/tensorflow_lite/tensorflow/lite/kernels/internal\types.h **** }
 141:C:/Renesas/e2studio_2021_01_workspace_RZA2M_ANPR/ANPR_RZA2M_GR_MANGO/src/tensorflow_lite/tensorflow/lite/kernels/internal\types.h **** 
 142:C:/Renesas/e2studio_2021_01_workspace_RZA2M_ANPR/ANPR_RZA2M_GR_MANGO/src/tensorflow_lite/tensorflow/lite/kernels/internal\types.h **** template <int N>
 143:C:/Renesas/e2studio_2021_01_workspace_RZA2M_ANPR/ANPR_RZA2M_GR_MANGO/src/tensorflow_lite/tensorflow/lite/kernels/internal\types.h **** struct Dims {
 144:C:/Renesas/e2studio_2021_01_workspace_RZA2M_ANPR/ANPR_RZA2M_GR_MANGO/src/tensorflow_lite/tensorflow/lite/kernels/internal\types.h ****   int sizes[N];
 145:C:/Renesas/e2studio_2021_01_workspace_RZA2M_ANPR/ANPR_RZA2M_GR_MANGO/src/tensorflow_lite/tensorflow/lite/kernels/internal\types.h ****   int strides[N];
 146:C:/Renesas/e2studio_2021_01_workspace_RZA2M_ANPR/ANPR_RZA2M_GR_MANGO/src/tensorflow_lite/tensorflow/lite/kernels/internal\types.h **** };
 147:C:/Renesas/e2studio_2021_01_workspace_RZA2M_ANPR/ANPR_RZA2M_GR_MANGO/src/tensorflow_lite/tensorflow/lite/kernels/internal\types.h **** 
 148:C:/Renesas/e2studio_2021_01_workspace_RZA2M_ANPR/ANPR_RZA2M_GR_MANGO/src/tensorflow_lite/tensorflow/lite/kernels/internal\types.h **** class RuntimeShape {
 149:C:/Renesas/e2studio_2021_01_workspace_RZA2M_ANPR/ANPR_RZA2M_GR_MANGO/src/tensorflow_lite/tensorflow/lite/kernels/internal\types.h ****  public:
 150:C:/Renesas/e2studio_2021_01_workspace_RZA2M_ANPR/ANPR_RZA2M_GR_MANGO/src/tensorflow_lite/tensorflow/lite/kernels/internal\types.h ****   // Shapes with dimensions up to 5 are stored directly in the structure, while
 151:C:/Renesas/e2studio_2021_01_workspace_RZA2M_ANPR/ANPR_RZA2M_GR_MANGO/src/tensorflow_lite/tensorflow/lite/kernels/internal\types.h ****   // larger shapes are separately allocated.
 152:C:/Renesas/e2studio_2021_01_workspace_RZA2M_ANPR/ANPR_RZA2M_GR_MANGO/src/tensorflow_lite/tensorflow/lite/kernels/internal\types.h ****   static constexpr int kMaxSmallSize = 5;
 153:C:/Renesas/e2studio_2021_01_workspace_RZA2M_ANPR/ANPR_RZA2M_GR_MANGO/src/tensorflow_lite/tensorflow/lite/kernels/internal\types.h **** 
 154:C:/Renesas/e2studio_2021_01_workspace_RZA2M_ANPR/ANPR_RZA2M_GR_MANGO/src/tensorflow_lite/tensorflow/lite/kernels/internal\types.h ****   RuntimeShape& operator=(RuntimeShape const&) = delete;
 155:C:/Renesas/e2studio_2021_01_workspace_RZA2M_ANPR/ANPR_RZA2M_GR_MANGO/src/tensorflow_lite/tensorflow/lite/kernels/internal\types.h **** 
 156:C:/Renesas/e2studio_2021_01_workspace_RZA2M_ANPR/ANPR_RZA2M_GR_MANGO/src/tensorflow_lite/tensorflow/lite/kernels/internal\types.h ****   RuntimeShape() : size_(0) {}
 157:C:/Renesas/e2studio_2021_01_workspace_RZA2M_ANPR/ANPR_RZA2M_GR_MANGO/src/tensorflow_lite/tensorflow/lite/kernels/internal\types.h **** 
 158:C:/Renesas/e2studio_2021_01_workspace_RZA2M_ANPR/ANPR_RZA2M_GR_MANGO/src/tensorflow_lite/tensorflow/lite/kernels/internal\types.h ****   explicit RuntimeShape(int dimensions_count) : size_(dimensions_count) {
 159:C:/Renesas/e2studio_2021_01_workspace_RZA2M_ANPR/ANPR_RZA2M_GR_MANGO/src/tensorflow_lite/tensorflow/lite/kernels/internal\types.h ****     if (dimensions_count > kMaxSmallSize) {
 160:C:/Renesas/e2studio_2021_01_workspace_RZA2M_ANPR/ANPR_RZA2M_GR_MANGO/src/tensorflow_lite/tensorflow/lite/kernels/internal\types.h **** #ifdef TF_LITE_STATIC_MEMORY
 161:C:/Renesas/e2studio_2021_01_workspace_RZA2M_ANPR/ANPR_RZA2M_GR_MANGO/src/tensorflow_lite/tensorflow/lite/kernels/internal\types.h ****       TFLITE_CHECK(false && "No shape resizing supported on this platform");
 162:C:/Renesas/e2studio_2021_01_workspace_RZA2M_ANPR/ANPR_RZA2M_GR_MANGO/src/tensorflow_lite/tensorflow/lite/kernels/internal\types.h **** #else  // TF_LITE_STATIC_MEMORY
 163:C:/Renesas/e2studio_2021_01_workspace_RZA2M_ANPR/ANPR_RZA2M_GR_MANGO/src/tensorflow_lite/tensorflow/lite/kernels/internal\types.h ****       dims_pointer_ = new int32_t[dimensions_count];
 164:C:/Renesas/e2studio_2021_01_workspace_RZA2M_ANPR/ANPR_RZA2M_GR_MANGO/src/tensorflow_lite/tensorflow/lite/kernels/internal\types.h **** #endif  // TF_LITE_STATIC_MEMORY
 165:C:/Renesas/e2studio_2021_01_workspace_RZA2M_ANPR/ANPR_RZA2M_GR_MANGO/src/tensorflow_lite/tensorflow/lite/kernels/internal\types.h ****     }
 166:C:/Renesas/e2studio_2021_01_workspace_RZA2M_ANPR/ANPR_RZA2M_GR_MANGO/src/tensorflow_lite/tensorflow/lite/kernels/internal\types.h ****   }
 167:C:/Renesas/e2studio_2021_01_workspace_RZA2M_ANPR/ANPR_RZA2M_GR_MANGO/src/tensorflow_lite/tensorflow/lite/kernels/internal\types.h **** 
 168:C:/Renesas/e2studio_2021_01_workspace_RZA2M_ANPR/ANPR_RZA2M_GR_MANGO/src/tensorflow_lite/tensorflow/lite/kernels/internal\types.h ****   RuntimeShape(int shape_size, int32_t value) : size_(0) {
 169:C:/Renesas/e2studio_2021_01_workspace_RZA2M_ANPR/ANPR_RZA2M_GR_MANGO/src/tensorflow_lite/tensorflow/lite/kernels/internal\types.h ****     Resize(shape_size);
 170:C:/Renesas/e2studio_2021_01_workspace_RZA2M_ANPR/ANPR_RZA2M_GR_MANGO/src/tensorflow_lite/tensorflow/lite/kernels/internal\types.h ****     for (int i = 0; i < shape_size; ++i) {
 617              		.loc 5 170 0
 618 011c 0030A0E3 		mov	r3, #0
 619              	.LBB597:
 620              	.LBB598:
 171:C:/Renesas/e2studio_2021_01_workspace_RZA2M_ANPR/ANPR_RZA2M_GR_MANGO/src/tensorflow_lite/tensorflow/lite/kernels/internal\types.h ****       SetDim(i, value);
 172:C:/Renesas/e2studio_2021_01_workspace_RZA2M_ANPR/ANPR_RZA2M_GR_MANGO/src/tensorflow_lite/tensorflow/lite/kernels/internal\types.h ****     }
 173:C:/Renesas/e2studio_2021_01_workspace_RZA2M_ANPR/ANPR_RZA2M_GR_MANGO/src/tensorflow_lite/tensorflow/lite/kernels/internal\types.h ****   }
 174:C:/Renesas/e2studio_2021_01_workspace_RZA2M_ANPR/ANPR_RZA2M_GR_MANGO/src/tensorflow_lite/tensorflow/lite/kernels/internal\types.h **** 
 175:C:/Renesas/e2studio_2021_01_workspace_RZA2M_ANPR/ANPR_RZA2M_GR_MANGO/src/tensorflow_lite/tensorflow/lite/kernels/internal\types.h ****   RuntimeShape(int dimensions_count, const int32_t* dims_data) : size_(0) {
 176:C:/Renesas/e2studio_2021_01_workspace_RZA2M_ANPR/ANPR_RZA2M_GR_MANGO/src/tensorflow_lite/tensorflow/lite/kernels/internal\types.h ****     ReplaceWith(dimensions_count, dims_data);
 177:C:/Renesas/e2studio_2021_01_workspace_RZA2M_ANPR/ANPR_RZA2M_GR_MANGO/src/tensorflow_lite/tensorflow/lite/kernels/internal\types.h ****   }
 178:C:/Renesas/e2studio_2021_01_workspace_RZA2M_ANPR/ANPR_RZA2M_GR_MANGO/src/tensorflow_lite/tensorflow/lite/kernels/internal\types.h **** 
 179:C:/Renesas/e2studio_2021_01_workspace_RZA2M_ANPR/ANPR_RZA2M_GR_MANGO/src/tensorflow_lite/tensorflow/lite/kernels/internal\types.h ****   RuntimeShape(const std::initializer_list<int> init_list) : size_(0) {
 180:C:/Renesas/e2studio_2021_01_workspace_RZA2M_ANPR/ANPR_RZA2M_GR_MANGO/src/tensorflow_lite/tensorflow/lite/kernels/internal\types.h ****     BuildFrom(init_list);
 181:C:/Renesas/e2studio_2021_01_workspace_RZA2M_ANPR/ANPR_RZA2M_GR_MANGO/src/tensorflow_lite/tensorflow/lite/kernels/internal\types.h ****   }
 182:C:/Renesas/e2studio_2021_01_workspace_RZA2M_ANPR/ANPR_RZA2M_GR_MANGO/src/tensorflow_lite/tensorflow/lite/kernels/internal\types.h **** 
 183:C:/Renesas/e2studio_2021_01_workspace_RZA2M_ANPR/ANPR_RZA2M_GR_MANGO/src/tensorflow_lite/tensorflow/lite/kernels/internal\types.h ****   // Avoid using this constructor.  We should be able to delete it when C++17
 184:C:/Renesas/e2studio_2021_01_workspace_RZA2M_ANPR/ANPR_RZA2M_GR_MANGO/src/tensorflow_lite/tensorflow/lite/kernels/internal\types.h ****   // rolls out.
 185:C:/Renesas/e2studio_2021_01_workspace_RZA2M_ANPR/ANPR_RZA2M_GR_MANGO/src/tensorflow_lite/tensorflow/lite/kernels/internal\types.h ****   RuntimeShape(RuntimeShape const& other) : size_(other.DimensionsCount()) {
 186:C:/Renesas/e2studio_2021_01_workspace_RZA2M_ANPR/ANPR_RZA2M_GR_MANGO/src/tensorflow_lite/tensorflow/lite/kernels/internal\types.h ****     if (size_ > kMaxSmallSize) {
 187:C:/Renesas/e2studio_2021_01_workspace_RZA2M_ANPR/ANPR_RZA2M_GR_MANGO/src/tensorflow_lite/tensorflow/lite/kernels/internal\types.h **** #ifdef TF_LITE_STATIC_MEMORY
 188:C:/Renesas/e2studio_2021_01_workspace_RZA2M_ANPR/ANPR_RZA2M_GR_MANGO/src/tensorflow_lite/tensorflow/lite/kernels/internal\types.h ****       TFLITE_CHECK(false && "No shape resizing supported on this platform");
 189:C:/Renesas/e2studio_2021_01_workspace_RZA2M_ANPR/ANPR_RZA2M_GR_MANGO/src/tensorflow_lite/tensorflow/lite/kernels/internal\types.h **** #else
 190:C:/Renesas/e2studio_2021_01_workspace_RZA2M_ANPR/ANPR_RZA2M_GR_MANGO/src/tensorflow_lite/tensorflow/lite/kernels/internal\types.h ****       dims_pointer_ = new int32_t[size_];
 191:C:/Renesas/e2studio_2021_01_workspace_RZA2M_ANPR/ANPR_RZA2M_GR_MANGO/src/tensorflow_lite/tensorflow/lite/kernels/internal\types.h **** #endif
 192:C:/Renesas/e2studio_2021_01_workspace_RZA2M_ANPR/ANPR_RZA2M_GR_MANGO/src/tensorflow_lite/tensorflow/lite/kernels/internal\types.h ****     }
 193:C:/Renesas/e2studio_2021_01_workspace_RZA2M_ANPR/ANPR_RZA2M_GR_MANGO/src/tensorflow_lite/tensorflow/lite/kernels/internal\types.h ****     std::memcpy(DimsData(), other.DimsData(), sizeof(int32_t) * size_);
 194:C:/Renesas/e2studio_2021_01_workspace_RZA2M_ANPR/ANPR_RZA2M_GR_MANGO/src/tensorflow_lite/tensorflow/lite/kernels/internal\types.h ****   }
 195:C:/Renesas/e2studio_2021_01_workspace_RZA2M_ANPR/ANPR_RZA2M_GR_MANGO/src/tensorflow_lite/tensorflow/lite/kernels/internal\types.h **** 
 196:C:/Renesas/e2studio_2021_01_workspace_RZA2M_ANPR/ANPR_RZA2M_GR_MANGO/src/tensorflow_lite/tensorflow/lite/kernels/internal\types.h ****   bool operator==(const RuntimeShape& comp) const {
 197:C:/Renesas/e2studio_2021_01_workspace_RZA2M_ANPR/ANPR_RZA2M_GR_MANGO/src/tensorflow_lite/tensorflow/lite/kernels/internal\types.h ****     return this->size_ == comp.size_ &&
 198:C:/Renesas/e2studio_2021_01_workspace_RZA2M_ANPR/ANPR_RZA2M_GR_MANGO/src/tensorflow_lite/tensorflow/lite/kernels/internal\types.h ****            std::memcmp(DimsData(), comp.DimsData(), size_ * sizeof(int32_t)) ==
 199:C:/Renesas/e2studio_2021_01_workspace_RZA2M_ANPR/ANPR_RZA2M_GR_MANGO/src/tensorflow_lite/tensorflow/lite/kernels/internal\types.h ****                0;
 200:C:/Renesas/e2studio_2021_01_workspace_RZA2M_ANPR/ANPR_RZA2M_GR_MANGO/src/tensorflow_lite/tensorflow/lite/kernels/internal\types.h ****   }
 201:C:/Renesas/e2studio_2021_01_workspace_RZA2M_ANPR/ANPR_RZA2M_GR_MANGO/src/tensorflow_lite/tensorflow/lite/kernels/internal\types.h **** 
 202:C:/Renesas/e2studio_2021_01_workspace_RZA2M_ANPR/ANPR_RZA2M_GR_MANGO/src/tensorflow_lite/tensorflow/lite/kernels/internal\types.h ****   ~RuntimeShape() {
 203:C:/Renesas/e2studio_2021_01_workspace_RZA2M_ANPR/ANPR_RZA2M_GR_MANGO/src/tensorflow_lite/tensorflow/lite/kernels/internal\types.h ****     if (size_ > kMaxSmallSize) {
 204:C:/Renesas/e2studio_2021_01_workspace_RZA2M_ANPR/ANPR_RZA2M_GR_MANGO/src/tensorflow_lite/tensorflow/lite/kernels/internal\types.h **** #ifdef TF_LITE_STATIC_MEMORY
 205:C:/Renesas/e2studio_2021_01_workspace_RZA2M_ANPR/ANPR_RZA2M_GR_MANGO/src/tensorflow_lite/tensorflow/lite/kernels/internal\types.h ****       TFLITE_CHECK(false && "No shape resizing supported on this platform");
 206:C:/Renesas/e2studio_2021_01_workspace_RZA2M_ANPR/ANPR_RZA2M_GR_MANGO/src/tensorflow_lite/tensorflow/lite/kernels/internal\types.h **** #else  // TF_LITE_STATIC_MEMORY
 207:C:/Renesas/e2studio_2021_01_workspace_RZA2M_ANPR/ANPR_RZA2M_GR_MANGO/src/tensorflow_lite/tensorflow/lite/kernels/internal\types.h ****       delete[] dims_pointer_;
 208:C:/Renesas/e2studio_2021_01_workspace_RZA2M_ANPR/ANPR_RZA2M_GR_MANGO/src/tensorflow_lite/tensorflow/lite/kernels/internal\types.h **** #endif  // TF_LITE_STATIC_MEMORY
 209:C:/Renesas/e2studio_2021_01_workspace_RZA2M_ANPR/ANPR_RZA2M_GR_MANGO/src/tensorflow_lite/tensorflow/lite/kernels/internal\types.h ****     }
 210:C:/Renesas/e2studio_2021_01_workspace_RZA2M_ANPR/ANPR_RZA2M_GR_MANGO/src/tensorflow_lite/tensorflow/lite/kernels/internal\types.h ****   }
 211:C:/Renesas/e2studio_2021_01_workspace_RZA2M_ANPR/ANPR_RZA2M_GR_MANGO/src/tensorflow_lite/tensorflow/lite/kernels/internal\types.h **** 
 212:C:/Renesas/e2studio_2021_01_workspace_RZA2M_ANPR/ANPR_RZA2M_GR_MANGO/src/tensorflow_lite/tensorflow/lite/kernels/internal\types.h ****   inline int32_t DimensionsCount() const { return size_; }
 213:C:/Renesas/e2studio_2021_01_workspace_RZA2M_ANPR/ANPR_RZA2M_GR_MANGO/src/tensorflow_lite/tensorflow/lite/kernels/internal\types.h ****   inline int32_t Dims(int i) const {
 214:C:/Renesas/e2studio_2021_01_workspace_RZA2M_ANPR/ANPR_RZA2M_GR_MANGO/src/tensorflow_lite/tensorflow/lite/kernels/internal\types.h ****     TFLITE_DCHECK_GE(i, 0);
 215:C:/Renesas/e2studio_2021_01_workspace_RZA2M_ANPR/ANPR_RZA2M_GR_MANGO/src/tensorflow_lite/tensorflow/lite/kernels/internal\types.h ****     TFLITE_DCHECK_LT(i, size_);
 216:C:/Renesas/e2studio_2021_01_workspace_RZA2M_ANPR/ANPR_RZA2M_GR_MANGO/src/tensorflow_lite/tensorflow/lite/kernels/internal\types.h ****     return size_ > kMaxSmallSize ? dims_pointer_[i] : dims_[i];
 217:C:/Renesas/e2studio_2021_01_workspace_RZA2M_ANPR/ANPR_RZA2M_GR_MANGO/src/tensorflow_lite/tensorflow/lite/kernels/internal\types.h ****   }
 218:C:/Renesas/e2studio_2021_01_workspace_RZA2M_ANPR/ANPR_RZA2M_GR_MANGO/src/tensorflow_lite/tensorflow/lite/kernels/internal\types.h ****   inline void SetDim(int i, int32_t val) {
 219:C:/Renesas/e2studio_2021_01_workspace_RZA2M_ANPR/ANPR_RZA2M_GR_MANGO/src/tensorflow_lite/tensorflow/lite/kernels/internal\types.h ****     TFLITE_DCHECK_GE(i, 0);
 220:C:/Renesas/e2studio_2021_01_workspace_RZA2M_ANPR/ANPR_RZA2M_GR_MANGO/src/tensorflow_lite/tensorflow/lite/kernels/internal\types.h ****     TFLITE_DCHECK_LT(i, size_);
 221:C:/Renesas/e2studio_2021_01_workspace_RZA2M_ANPR/ANPR_RZA2M_GR_MANGO/src/tensorflow_lite/tensorflow/lite/kernels/internal\types.h ****     if (size_ > kMaxSmallSize) {
 222:C:/Renesas/e2studio_2021_01_workspace_RZA2M_ANPR/ANPR_RZA2M_GR_MANGO/src/tensorflow_lite/tensorflow/lite/kernels/internal\types.h ****       dims_pointer_[i] = val;
 223:C:/Renesas/e2studio_2021_01_workspace_RZA2M_ANPR/ANPR_RZA2M_GR_MANGO/src/tensorflow_lite/tensorflow/lite/kernels/internal\types.h ****     } else {
 224:C:/Renesas/e2studio_2021_01_workspace_RZA2M_ANPR/ANPR_RZA2M_GR_MANGO/src/tensorflow_lite/tensorflow/lite/kernels/internal\types.h ****       dims_[i] = val;
 621              		.loc 5 224 0
 622 0120 0100A0E3 		mov	r0, #1
 623              	.LBE598:
 624              	.LBE597:
 625              	.LBE596:
 626              	.LBB611:
 627              	.LBB612:
 225:C:/Renesas/e2studio_2021_01_workspace_RZA2M_ANPR/ANPR_RZA2M_GR_MANGO/src/tensorflow_lite/tensorflow/lite/kernels/internal\types.h ****     }
 226:C:/Renesas/e2studio_2021_01_workspace_RZA2M_ANPR/ANPR_RZA2M_GR_MANGO/src/tensorflow_lite/tensorflow/lite/kernels/internal\types.h ****   }
 227:C:/Renesas/e2studio_2021_01_workspace_RZA2M_ANPR/ANPR_RZA2M_GR_MANGO/src/tensorflow_lite/tensorflow/lite/kernels/internal\types.h **** 
 228:C:/Renesas/e2studio_2021_01_workspace_RZA2M_ANPR/ANPR_RZA2M_GR_MANGO/src/tensorflow_lite/tensorflow/lite/kernels/internal\types.h ****   inline int32_t* DimsData() {
 229:C:/Renesas/e2studio_2021_01_workspace_RZA2M_ANPR/ANPR_RZA2M_GR_MANGO/src/tensorflow_lite/tensorflow/lite/kernels/internal\types.h ****     return size_ > kMaxSmallSize ? dims_pointer_ : dims_;
 230:C:/Renesas/e2studio_2021_01_workspace_RZA2M_ANPR/ANPR_RZA2M_GR_MANGO/src/tensorflow_lite/tensorflow/lite/kernels/internal\types.h ****   }
 231:C:/Renesas/e2studio_2021_01_workspace_RZA2M_ANPR/ANPR_RZA2M_GR_MANGO/src/tensorflow_lite/tensorflow/lite/kernels/internal\types.h ****   inline const int32_t* DimsData() const {
 232:C:/Renesas/e2studio_2021_01_workspace_RZA2M_ANPR/ANPR_RZA2M_GR_MANGO/src/tensorflow_lite/tensorflow/lite/kernels/internal\types.h ****     return size_ > kMaxSmallSize ? dims_pointer_ : dims_;
 233:C:/Renesas/e2studio_2021_01_workspace_RZA2M_ANPR/ANPR_RZA2M_GR_MANGO/src/tensorflow_lite/tensorflow/lite/kernels/internal\types.h ****   }
 234:C:/Renesas/e2studio_2021_01_workspace_RZA2M_ANPR/ANPR_RZA2M_GR_MANGO/src/tensorflow_lite/tensorflow/lite/kernels/internal\types.h ****   // The caller must ensure that the shape is no bigger than 5-D.
 235:C:/Renesas/e2studio_2021_01_workspace_RZA2M_ANPR/ANPR_RZA2M_GR_MANGO/src/tensorflow_lite/tensorflow/lite/kernels/internal\types.h ****   inline const int32_t* DimsDataUpTo5D() const { return dims_; }
 236:C:/Renesas/e2studio_2021_01_workspace_RZA2M_ANPR/ANPR_RZA2M_GR_MANGO/src/tensorflow_lite/tensorflow/lite/kernels/internal\types.h **** 
 237:C:/Renesas/e2studio_2021_01_workspace_RZA2M_ANPR/ANPR_RZA2M_GR_MANGO/src/tensorflow_lite/tensorflow/lite/kernels/internal\types.h ****   inline void Resize(int dimensions_count) {
 238:C:/Renesas/e2studio_2021_01_workspace_RZA2M_ANPR/ANPR_RZA2M_GR_MANGO/src/tensorflow_lite/tensorflow/lite/kernels/internal\types.h ****     if (size_ > kMaxSmallSize) {
 239:C:/Renesas/e2studio_2021_01_workspace_RZA2M_ANPR/ANPR_RZA2M_GR_MANGO/src/tensorflow_lite/tensorflow/lite/kernels/internal\types.h **** #ifdef TF_LITE_STATIC_MEMORY
 240:C:/Renesas/e2studio_2021_01_workspace_RZA2M_ANPR/ANPR_RZA2M_GR_MANGO/src/tensorflow_lite/tensorflow/lite/kernels/internal\types.h ****       TFLITE_CHECK(false && "No shape resizing supported on this platform");
 241:C:/Renesas/e2studio_2021_01_workspace_RZA2M_ANPR/ANPR_RZA2M_GR_MANGO/src/tensorflow_lite/tensorflow/lite/kernels/internal\types.h **** #else  // TF_LITE_STATIC_MEMORY
 242:C:/Renesas/e2studio_2021_01_workspace_RZA2M_ANPR/ANPR_RZA2M_GR_MANGO/src/tensorflow_lite/tensorflow/lite/kernels/internal\types.h ****       delete[] dims_pointer_;
 243:C:/Renesas/e2studio_2021_01_workspace_RZA2M_ANPR/ANPR_RZA2M_GR_MANGO/src/tensorflow_lite/tensorflow/lite/kernels/internal\types.h **** #endif  // TF_LITE_STATIC_MEMORY
 244:C:/Renesas/e2studio_2021_01_workspace_RZA2M_ANPR/ANPR_RZA2M_GR_MANGO/src/tensorflow_lite/tensorflow/lite/kernels/internal\types.h ****     }
 245:C:/Renesas/e2studio_2021_01_workspace_RZA2M_ANPR/ANPR_RZA2M_GR_MANGO/src/tensorflow_lite/tensorflow/lite/kernels/internal\types.h ****     size_ = dimensions_count;
 628              		.loc 5 245 0
 629 0124 0420A0E3 		mov	r2, #4
 630 0128 B8208DE5 		str	r2, [sp, #184]
 631              	.LVL72:
 632              	.L156:
 633              	.LBE612:
 634              	.LBE611:
 635              	.LBB613:
 636              	.LBB605:
 637              	.LBB599:
 224:C:/Renesas/e2studio_2021_01_workspace_RZA2M_ANPR/ANPR_RZA2M_GR_MANGO/src/tensorflow_lite/tensorflow/lite/kernels/internal\types.h ****     }
 638              		.loc 5 224 0
 639 012c 0321A0E1 		lsl	r2, r3, #2
 640              	.LBE599:
 641              	.LBE605:
 170:C:/Renesas/e2studio_2021_01_workspace_RZA2M_ANPR/ANPR_RZA2M_GR_MANGO/src/tensorflow_lite/tensorflow/lite/kernels/internal\types.h ****       SetDim(i, value);
 642              		.loc 5 170 0
 643 0130 013083E2 		add	r3, r3, #1
 644              	.LVL73:
 645              	.LBB606:
 646              	.LBB600:
 224:C:/Renesas/e2studio_2021_01_workspace_RZA2M_ANPR/ANPR_RZA2M_GR_MANGO/src/tensorflow_lite/tensorflow/lite/kernels/internal\types.h ****     }
 647              		.loc 5 224 0
 648 0134 E8C08DE2 		add	ip, sp, #232
 649              	.LBE600:
 650              	.LBE606:
 170:C:/Renesas/e2studio_2021_01_workspace_RZA2M_ANPR/ANPR_RZA2M_GR_MANGO/src/tensorflow_lite/tensorflow/lite/kernels/internal\types.h ****       SetDim(i, value);
 651              		.loc 5 170 0
 652 0138 040053E3 		cmp	r3, #4
 653 013c 0210A0E1 		mov	r1, r2
 654              	.LBB607:
 655              	.LBB601:
 224:C:/Renesas/e2studio_2021_01_workspace_RZA2M_ANPR/ANPR_RZA2M_GR_MANGO/src/tensorflow_lite/tensorflow/lite/kernels/internal\types.h ****     }
 656              		.loc 5 224 0
 657 0140 02208CE0 		add	r2, ip, r2
 658 0144 2C0002E5 		str	r0, [r2, #-44]
 659              	.LVL74:
 660              	.LBE601:
 661              	.LBE607:
 170:C:/Renesas/e2studio_2021_01_workspace_RZA2M_ANPR/ANPR_RZA2M_GR_MANGO/src/tensorflow_lite/tensorflow/lite/kernels/internal\types.h ****       SetDim(i, value);
 662              		.loc 5 170 0
 663 0148 0A00000A 		beq	.L497
 664              	.L159:
 665              	.LVL75:
 666              	.LBB608:
 667              	.LBB602:
 220:C:/Renesas/e2studio_2021_01_workspace_RZA2M_ANPR/ANPR_RZA2M_GR_MANGO/src/tensorflow_lite/tensorflow/lite/kernels/internal\types.h ****     if (size_ > kMaxSmallSize) {
 668              		.loc 5 220 0
 669 014c B8209DE5 		ldr	r2, [sp, #184]
 670 0150 020053E1 		cmp	r3, r2
 671 0154 A30300AA 		bge	.L498
 221:C:/Renesas/e2studio_2021_01_workspace_RZA2M_ANPR/ANPR_RZA2M_GR_MANGO/src/tensorflow_lite/tensorflow/lite/kernels/internal\types.h ****       dims_pointer_[i] = val;
 672              		.loc 5 221 0
 673 0158 050052E3 		cmp	r2, #5
 674 015c 041081E2 		add	r1, r1, #4
 675 0160 F1FFFFDA 		ble	.L156
 222:C:/Renesas/e2studio_2021_01_workspace_RZA2M_ANPR/ANPR_RZA2M_GR_MANGO/src/tensorflow_lite/tensorflow/lite/kernels/internal\types.h ****     } else {
 676              		.loc 5 222 0
 677 0164 BC209DE5 		ldr	r2, [sp, #188]
 678              	.LBE602:
 679              	.LBE608:
 170:C:/Renesas/e2studio_2021_01_workspace_RZA2M_ANPR/ANPR_RZA2M_GR_MANGO/src/tensorflow_lite/tensorflow/lite/kernels/internal\types.h ****       SetDim(i, value);
 680              		.loc 5 170 0
 681 0168 013083E2 		add	r3, r3, #1
 682              	.LVL76:
 683 016c 040053E3 		cmp	r3, #4
 684              	.LBB609:
 685              	.LBB603:
 222:C:/Renesas/e2studio_2021_01_workspace_RZA2M_ANPR/ANPR_RZA2M_GR_MANGO/src/tensorflow_lite/tensorflow/lite/kernels/internal\types.h ****     } else {
 686              		.loc 5 222 0
 687 0170 010082E7 		str	r0, [r2, r1]
 688              	.LVL77:
 689              	.LBE603:
 690              	.LBE609:
 170:C:/Renesas/e2studio_2021_01_workspace_RZA2M_ANPR/ANPR_RZA2M_GR_MANGO/src/tensorflow_lite/tensorflow/lite/kernels/internal\types.h ****       SetDim(i, value);
 691              		.loc 5 170 0
 692 0174 F4FFFF1A 		bne	.L159
 693              	.L497:
 694              	.LVL78:
 695              	.LBE613:
 696              	.LBE595:
 697              	.LBE594:
 698              	.LBB616:
 699              	.LBB617:
 215:C:/Renesas/e2studio_2021_01_workspace_RZA2M_ANPR/ANPR_RZA2M_GR_MANGO/src/tensorflow_lite/tensorflow/lite/kernels/internal\types.h ****     return size_ > kMaxSmallSize ? dims_pointer_[i] : dims_[i];
 700              		.loc 5 215 0
 701 0178 40309DE5 		ldr	r3, [sp, #64]
 702 017c 000053E3 		cmp	r3, #0
 703 0180 B80300DA 		ble	.L499
 216:C:/Renesas/e2studio_2021_01_workspace_RZA2M_ANPR/ANPR_RZA2M_GR_MANGO/src/tensorflow_lite/tensorflow/lite/kernels/internal\types.h ****   }
 704              		.loc 5 216 0
 705 0184 050053E3 		cmp	r3, #5
 706 0188 44209DC5 		ldrgt	r2, [sp, #68]
 707 018c 44109DD5 		ldrle	r1, [sp, #68]
 708              	.LVL79:
 709 0190 001092C5 		ldrgt	r1, [r2]
 710              	.LVL80:
 711              	.LBE617:
 712              	.LBE616:
 713              	.LBB619:
 714              	.LBB620:
 220:C:/Renesas/e2studio_2021_01_workspace_RZA2M_ANPR/ANPR_RZA2M_GR_MANGO/src/tensorflow_lite/tensorflow/lite/kernels/internal\types.h ****     if (size_ > kMaxSmallSize) {
 715              		.loc 5 220 0
 716 0194 B8209DE5 		ldr	r2, [sp, #184]
 717 0198 000052E3 		cmp	r2, #0
 718 019c B00300DA 		ble	.L500
 221:C:/Renesas/e2studio_2021_01_workspace_RZA2M_ANPR/ANPR_RZA2M_GR_MANGO/src/tensorflow_lite/tensorflow/lite/kernels/internal\types.h ****       dims_pointer_[i] = val;
 719              		.loc 5 221 0
 720 01a0 050052E3 		cmp	r2, #5
 222:C:/Renesas/e2studio_2021_01_workspace_RZA2M_ANPR/ANPR_RZA2M_GR_MANGO/src/tensorflow_lite/tensorflow/lite/kernels/internal\types.h ****     } else {
 721              		.loc 5 222 0
 722 01a4 BC309DC5 		ldrgt	r3, [sp, #188]
 224:C:/Renesas/e2studio_2021_01_workspace_RZA2M_ANPR/ANPR_RZA2M_GR_MANGO/src/tensorflow_lite/tensorflow/lite/kernels/internal\types.h ****     }
 723              		.loc 5 224 0
 724 01a8 BC108DD5 		strle	r1, [sp, #188]
 725              	.LVL81:
 222:C:/Renesas/e2studio_2021_01_workspace_RZA2M_ANPR/ANPR_RZA2M_GR_MANGO/src/tensorflow_lite/tensorflow/lite/kernels/internal\types.h ****     } else {
 726              		.loc 5 222 0
 727 01ac 001083C5 		strgt	r1, [r3]
 728 01b0 40309DC5 		ldrgt	r3, [sp, #64]
 729              	.LBE620:
 730              	.LBE619:
 731              	.LBB622:
 732              	.LBB623:
 215:C:/Renesas/e2studio_2021_01_workspace_RZA2M_ANPR/ANPR_RZA2M_GR_MANGO/src/tensorflow_lite/tensorflow/lite/kernels/internal\types.h ****     return size_ > kMaxSmallSize ? dims_pointer_[i] : dims_[i];
 733              		.loc 5 215 0
 734 01b4 010053E3 		cmp	r3, #1
 735 01b8 A80300DA 		ble	.L501
 216:C:/Renesas/e2studio_2021_01_workspace_RZA2M_ANPR/ANPR_RZA2M_GR_MANGO/src/tensorflow_lite/tensorflow/lite/kernels/internal\types.h ****   }
 736              		.loc 5 216 0
 737 01bc 050053E3 		cmp	r3, #5
 738 01c0 44209DC5 		ldrgt	r2, [sp, #68]
 739 01c4 48109DD5 		ldrle	r1, [sp, #72]
 740              	.LVL82:
 741 01c8 041092C5 		ldrgt	r1, [r2, #4]
 742              	.LVL83:
 743              	.LBE623:
 744              	.LBE622:
 745              	.LBB625:
 746              	.LBB626:
 220:C:/Renesas/e2studio_2021_01_workspace_RZA2M_ANPR/ANPR_RZA2M_GR_MANGO/src/tensorflow_lite/tensorflow/lite/kernels/internal\types.h ****     if (size_ > kMaxSmallSize) {
 747              		.loc 5 220 0
 748 01cc B8209DE5 		ldr	r2, [sp, #184]
 749 01d0 010052E3 		cmp	r2, #1
 750 01d4 A00300DA 		ble	.L502
 221:C:/Renesas/e2studio_2021_01_workspace_RZA2M_ANPR/ANPR_RZA2M_GR_MANGO/src/tensorflow_lite/tensorflow/lite/kernels/internal\types.h ****       dims_pointer_[i] = val;
 751              		.loc 5 221 0
 752 01d8 050052E3 		cmp	r2, #5
 222:C:/Renesas/e2studio_2021_01_workspace_RZA2M_ANPR/ANPR_RZA2M_GR_MANGO/src/tensorflow_lite/tensorflow/lite/kernels/internal\types.h ****     } else {
 753              		.loc 5 222 0
 754 01dc BC009DC5 		ldrgt	r0, [sp, #188]
 224:C:/Renesas/e2studio_2021_01_workspace_RZA2M_ANPR/ANPR_RZA2M_GR_MANGO/src/tensorflow_lite/tensorflow/lite/kernels/internal\types.h ****     }
 755              		.loc 5 224 0
 756 01e0 C0108DD5 		strle	r1, [sp, #192]
 757              	.LVL84:
 222:C:/Renesas/e2studio_2021_01_workspace_RZA2M_ANPR/ANPR_RZA2M_GR_MANGO/src/tensorflow_lite/tensorflow/lite/kernels/internal\types.h ****     } else {
 758              		.loc 5 222 0
 759 01e4 041080C5 		strgt	r1, [r0, #4]
 760              	.LBE626:
 761              	.LBE625:
 762              	.LBB628:
 763              	.LBB629:
 215:C:/Renesas/e2studio_2021_01_workspace_RZA2M_ANPR/ANPR_RZA2M_GR_MANGO/src/tensorflow_lite/tensorflow/lite/kernels/internal\types.h ****     return size_ > kMaxSmallSize ? dims_pointer_[i] : dims_[i];
 764              		.loc 5 215 0
 765 01e8 020053E3 		cmp	r3, #2
 766 01ec A903000A 		beq	.L503
 216:C:/Renesas/e2studio_2021_01_workspace_RZA2M_ANPR/ANPR_RZA2M_GR_MANGO/src/tensorflow_lite/tensorflow/lite/kernels/internal\types.h ****   }
 767              		.loc 5 216 0
 768 01f0 050053E3 		cmp	r3, #5
 769 01f4 44309DC5 		ldrgt	r3, [sp, #68]
 770 01f8 4C309DD5 		ldrle	r3, [sp, #76]
 771              	.LVL85:
 772 01fc 083093C5 		ldrgt	r3, [r3, #8]
 773              	.LVL86:
 774              	.LBE629:
 775              	.LBE628:
 776              	.LBB631:
 777              	.LBB632:
 220:C:/Renesas/e2studio_2021_01_workspace_RZA2M_ANPR/ANPR_RZA2M_GR_MANGO/src/tensorflow_lite/tensorflow/lite/kernels/internal\types.h ****     if (size_ > kMaxSmallSize) {
 778              		.loc 5 220 0
 779 0200 030052E3 		cmp	r2, #3
 780 0204 A20300DA 		ble	.L504
 221:C:/Renesas/e2studio_2021_01_workspace_RZA2M_ANPR/ANPR_RZA2M_GR_MANGO/src/tensorflow_lite/tensorflow/lite/kernels/internal\types.h ****       dims_pointer_[i] = val;
 781              		.loc 5 221 0
 782 0208 050052E3 		cmp	r2, #5
 783 020c B40200CA 		bgt	.L505
 784              	.LBE632:
 785              	.LBE631:
 786              	.LBB637:
 787              	.LBB638:
 788              	.LBB639:
 789              	.LBB640:
 790              	.LBB641:
 229:C:/Renesas/e2studio_2021_01_workspace_RZA2M_ANPR/ANPR_RZA2M_GR_MANGO/src/tensorflow_lite/tensorflow/lite/kernels/internal\types.h ****   }
 791              		.loc 5 229 0
 792 0210 A4008DE2 		add	r0, sp, #164
 793              	.LBE641:
 794              	.LBE640:
 795              	.LBB644:
 796              	.LBB645:
 232:C:/Renesas/e2studio_2021_01_workspace_RZA2M_ANPR/ANPR_RZA2M_GR_MANGO/src/tensorflow_lite/tensorflow/lite/kernels/internal\types.h ****   }
 797              		.loc 5 232 0
 798 0214 BC108DE2 		add	r1, sp, #188
 799              	.LBE645:
 800              	.LBE644:
 801              	.LBE639:
 802              	.LBE638:
 803              	.LBE637:
 804              	.LBB658:
 805              	.LBB633:
 224:C:/Renesas/e2studio_2021_01_workspace_RZA2M_ANPR/ANPR_RZA2M_GR_MANGO/src/tensorflow_lite/tensorflow/lite/kernels/internal\types.h ****     }
 806              		.loc 5 224 0
 807 0218 C8308DE5 		str	r3, [sp, #200]
 808              	.LVL87:
 809              	.LBE633:
 810              	.LBE658:
 811              	.LBB659:
 812              	.LBB654:
 813              	.LBB650:
 185:C:/Renesas/e2studio_2021_01_workspace_RZA2M_ANPR/ANPR_RZA2M_GR_MANGO/src/tensorflow_lite/tensorflow/lite/kernels/internal\types.h ****     if (size_ > kMaxSmallSize) {
 814              		.loc 5 185 0
 815 021c A0208DE5 		str	r2, [sp, #160]
 816              	.LVL88:
 817              	.L179:
 193:C:/Renesas/e2studio_2021_01_workspace_RZA2M_ANPR/ANPR_RZA2M_GR_MANGO/src/tensorflow_lite/tensorflow/lite/kernels/internal\types.h ****   }
 818              		.loc 5 193 0
 819 0220 0221A0E1 		lsl	r2, r2, #2
 820 0224 FEFFFFEB 		bl	memcpy
 821              	.LVL89:
 822              	.LBE650:
 823              	.LBE654:
 824              	.LBE659:
 825              	.LBB660:
 826              	.LBB661:
 203:C:/Renesas/e2studio_2021_01_workspace_RZA2M_ANPR/ANPR_RZA2M_GR_MANGO/src/tensorflow_lite/tensorflow/lite/kernels/internal\types.h **** #ifdef TF_LITE_STATIC_MEMORY
 827              		.loc 5 203 0
 828 0228 B8309DE5 		ldr	r3, [sp, #184]
 829 022c 050053E3 		cmp	r3, #5
 830 0230 A70200DA 		ble	.L182
 207:C:/Renesas/e2studio_2021_01_workspace_RZA2M_ANPR/ANPR_RZA2M_GR_MANGO/src/tensorflow_lite/tensorflow/lite/kernels/internal\types.h **** #endif  // TF_LITE_STATIC_MEMORY
 831              		.loc 5 207 0
 832 0234 BC009DE5 		ldr	r0, [sp, #188]
 833 0238 000050E3 		cmp	r0, #0
 834 023c A402000A 		beq	.L182
 835 0240 FEFFFFEB 		bl	_ZdaPv
 836              	.LVL90:
 837 0244 88309DE5 		ldr	r3, [sp, #136]
 838              	.L183:
 839              	.LVL91:
 840              	.LBE661:
 841              	.LBE660:
 842              	.LBE593:
 843              	.LBE592:
 844              	.LBB684:
 845              	.LBB685:
  29:C:/Renesas/e2studio_2021_01_workspace_RZA2M_ANPR/ANPR_RZA2M_GR_MANGO/src/tensorflow_lite/tensorflow/lite/kernels/internal/reference\space_to_batch_nd.h ****     return shape;
 846              		.loc 4 29 0
 847 0248 040053E3 		cmp	r3, #4
 848              	.LBB686:
 849              	.LBB687:
 850              	.LBB688:
 851              	.LBB689:
 852              		.loc 5 245 0
 853 024c 0420A013 		movne	r2, #4
 854              	.LBE689:
 855              	.LBE688:
 856              	.LBB691:
 170:C:/Renesas/e2studio_2021_01_workspace_RZA2M_ANPR/ANPR_RZA2M_GR_MANGO/src/tensorflow_lite/tensorflow/lite/kernels/internal\types.h ****       SetDim(i, value);
 857              		.loc 5 170 0
 858 0250 0030A013 		movne	r3, #0
 859              	.LBE691:
 860              	.LBB706:
 861              	.LBB690:
 862              		.loc 5 245 0
 863 0254 D0208D15 		strne	r2, [sp, #208]
 864              	.LVL92:
 865              	.LBE690:
 866              	.LBE706:
 867              	.LBB707:
 868              	.LBB692:
 869              	.LBB693:
 224:C:/Renesas/e2studio_2021_01_workspace_RZA2M_ANPR/ANPR_RZA2M_GR_MANGO/src/tensorflow_lite/tensorflow/lite/kernels/internal\types.h ****     }
 870              		.loc 5 224 0
 871 0258 0100A013 		movne	r0, #1
 872              	.LBE693:
 873              	.LBE692:
 874              	.LBE707:
 875              	.LBE687:
 876              	.LBE686:
  29:C:/Renesas/e2studio_2021_01_workspace_RZA2M_ANPR/ANPR_RZA2M_GR_MANGO/src/tensorflow_lite/tensorflow/lite/kernels/internal/reference\space_to_batch_nd.h ****     return shape;
 877              		.loc 4 29 0
 878 025c CD02000A 		beq	.L155
 879              	.LVL93:
 880              	.L187:
 881              	.LBB712:
 882              	.LBB710:
 883              	.LBB708:
 884              	.LBB700:
 885              	.LBB694:
 224:C:/Renesas/e2studio_2021_01_workspace_RZA2M_ANPR/ANPR_RZA2M_GR_MANGO/src/tensorflow_lite/tensorflow/lite/kernels/internal\types.h ****     }
 886              		.loc 5 224 0
 887 0260 0321A0E1 		lsl	r2, r3, #2
 888              	.LBE694:
 889              	.LBE700:
 170:C:/Renesas/e2studio_2021_01_workspace_RZA2M_ANPR/ANPR_RZA2M_GR_MANGO/src/tensorflow_lite/tensorflow/lite/kernels/internal\types.h ****       SetDim(i, value);
 890              		.loc 5 170 0
 891 0264 013083E2 		add	r3, r3, #1
 892              	.LVL94:
 893              	.LBB701:
 894              	.LBB695:
 224:C:/Renesas/e2studio_2021_01_workspace_RZA2M_ANPR/ANPR_RZA2M_GR_MANGO/src/tensorflow_lite/tensorflow/lite/kernels/internal\types.h ****     }
 895              		.loc 5 224 0
 896 0268 E8C08DE2 		add	ip, sp, #232
 897              	.LBE695:
 898              	.LBE701:
 170:C:/Renesas/e2studio_2021_01_workspace_RZA2M_ANPR/ANPR_RZA2M_GR_MANGO/src/tensorflow_lite/tensorflow/lite/kernels/internal\types.h ****       SetDim(i, value);
 899              		.loc 5 170 0
 900 026c 040053E3 		cmp	r3, #4
 901 0270 0210A0E1 		mov	r1, r2
 902              	.LBB702:
 903              	.LBB696:
 224:C:/Renesas/e2studio_2021_01_workspace_RZA2M_ANPR/ANPR_RZA2M_GR_MANGO/src/tensorflow_lite/tensorflow/lite/kernels/internal\types.h ****     }
 904              		.loc 5 224 0
 905 0274 02208CE0 		add	r2, ip, r2
 906 0278 140002E5 		str	r0, [r2, #-20]
 907              	.LVL95:
 908              	.LBE696:
 909              	.LBE702:
 170:C:/Renesas/e2studio_2021_01_workspace_RZA2M_ANPR/ANPR_RZA2M_GR_MANGO/src/tensorflow_lite/tensorflow/lite/kernels/internal\types.h ****       SetDim(i, value);
 910              		.loc 5 170 0
 911 027c 0A00000A 		beq	.L506
 912              	.L190:
 913              	.LVL96:
 914              	.LBB703:
 915              	.LBB697:
 220:C:/Renesas/e2studio_2021_01_workspace_RZA2M_ANPR/ANPR_RZA2M_GR_MANGO/src/tensorflow_lite/tensorflow/lite/kernels/internal\types.h ****     if (size_ > kMaxSmallSize) {
 916              		.loc 5 220 0
 917 0280 D0209DE5 		ldr	r2, [sp, #208]
 918 0284 020053E1 		cmp	r3, r2
 919 0288 880300AA 		bge	.L507
 221:C:/Renesas/e2studio_2021_01_workspace_RZA2M_ANPR/ANPR_RZA2M_GR_MANGO/src/tensorflow_lite/tensorflow/lite/kernels/internal\types.h ****       dims_pointer_[i] = val;
 920              		.loc 5 221 0
 921 028c 050052E3 		cmp	r2, #5
 922 0290 041081E2 		add	r1, r1, #4
 923 0294 F1FFFFDA 		ble	.L187
 222:C:/Renesas/e2studio_2021_01_workspace_RZA2M_ANPR/ANPR_RZA2M_GR_MANGO/src/tensorflow_lite/tensorflow/lite/kernels/internal\types.h ****     } else {
 924              		.loc 5 222 0
 925 0298 D4209DE5 		ldr	r2, [sp, #212]
 926              	.LBE697:
 927              	.LBE703:
 170:C:/Renesas/e2studio_2021_01_workspace_RZA2M_ANPR/ANPR_RZA2M_GR_MANGO/src/tensorflow_lite/tensorflow/lite/kernels/internal\types.h ****       SetDim(i, value);
 928              		.loc 5 170 0
 929 029c 013083E2 		add	r3, r3, #1
 930              	.LVL97:
 931 02a0 040053E3 		cmp	r3, #4
 932              	.LBB704:
 933              	.LBB698:
 222:C:/Renesas/e2studio_2021_01_workspace_RZA2M_ANPR/ANPR_RZA2M_GR_MANGO/src/tensorflow_lite/tensorflow/lite/kernels/internal\types.h ****     } else {
 934              		.loc 5 222 0
 935 02a4 010082E7 		str	r0, [r2, r1]
 936              	.LVL98:
 937              	.LBE698:
 938              	.LBE704:
 170:C:/Renesas/e2studio_2021_01_workspace_RZA2M_ANPR/ANPR_RZA2M_GR_MANGO/src/tensorflow_lite/tensorflow/lite/kernels/internal\types.h ****       SetDim(i, value);
 939              		.loc 5 170 0
 940 02a8 F4FFFF1A 		bne	.L190
 941              	.L506:
 942              	.LVL99:
 943              	.LBE708:
 944              	.LBE710:
 945              	.LBE712:
 946              	.LBB713:
 947              	.LBB714:
 215:C:/Renesas/e2studio_2021_01_workspace_RZA2M_ANPR/ANPR_RZA2M_GR_MANGO/src/tensorflow_lite/tensorflow/lite/kernels/internal\types.h ****     return size_ > kMaxSmallSize ? dims_pointer_[i] : dims_[i];
 948              		.loc 5 215 0
 949 02ac 88309DE5 		ldr	r3, [sp, #136]
 950 02b0 000053E3 		cmp	r3, #0
 951 02b4 3F0300DA 		ble	.L508
 216:C:/Renesas/e2studio_2021_01_workspace_RZA2M_ANPR/ANPR_RZA2M_GR_MANGO/src/tensorflow_lite/tensorflow/lite/kernels/internal\types.h ****   }
 952              		.loc 5 216 0
 953 02b8 050053E3 		cmp	r3, #5
 954 02bc 8C209DC5 		ldrgt	r2, [sp, #140]
 955 02c0 8C109DD5 		ldrle	r1, [sp, #140]
 956              	.LVL100:
 957 02c4 001092C5 		ldrgt	r1, [r2]
 958              	.LVL101:
 959              	.LBE714:
 960              	.LBE713:
 961              	.LBB716:
 962              	.LBB717:
 220:C:/Renesas/e2studio_2021_01_workspace_RZA2M_ANPR/ANPR_RZA2M_GR_MANGO/src/tensorflow_lite/tensorflow/lite/kernels/internal\types.h ****     if (size_ > kMaxSmallSize) {
 963              		.loc 5 220 0
 964 02c8 D0209DE5 		ldr	r2, [sp, #208]
 965 02cc 000052E3 		cmp	r2, #0
 966 02d0 370300DA 		ble	.L509
 221:C:/Renesas/e2studio_2021_01_workspace_RZA2M_ANPR/ANPR_RZA2M_GR_MANGO/src/tensorflow_lite/tensorflow/lite/kernels/internal\types.h ****       dims_pointer_[i] = val;
 967              		.loc 5 221 0
 968 02d4 050052E3 		cmp	r2, #5
 222:C:/Renesas/e2studio_2021_01_workspace_RZA2M_ANPR/ANPR_RZA2M_GR_MANGO/src/tensorflow_lite/tensorflow/lite/kernels/internal\types.h ****     } else {
 969              		.loc 5 222 0
 970 02d8 D4309DC5 		ldrgt	r3, [sp, #212]
 224:C:/Renesas/e2studio_2021_01_workspace_RZA2M_ANPR/ANPR_RZA2M_GR_MANGO/src/tensorflow_lite/tensorflow/lite/kernels/internal\types.h ****     }
 971              		.loc 5 224 0
 972 02dc D4108DD5 		strle	r1, [sp, #212]
 973              	.LVL102:
 222:C:/Renesas/e2studio_2021_01_workspace_RZA2M_ANPR/ANPR_RZA2M_GR_MANGO/src/tensorflow_lite/tensorflow/lite/kernels/internal\types.h ****     } else {
 974              		.loc 5 222 0
 975 02e0 001083C5 		strgt	r1, [r3]
 976 02e4 88309DC5 		ldrgt	r3, [sp, #136]
 977              	.LBE717:
 978              	.LBE716:
 979              	.LBB719:
 980              	.LBB720:
 215:C:/Renesas/e2studio_2021_01_workspace_RZA2M_ANPR/ANPR_RZA2M_GR_MANGO/src/tensorflow_lite/tensorflow/lite/kernels/internal\types.h ****     return size_ > kMaxSmallSize ? dims_pointer_[i] : dims_[i];
 981              		.loc 5 215 0
 982 02e8 010053E3 		cmp	r3, #1
 983 02ec 2F0300DA 		ble	.L510
 216:C:/Renesas/e2studio_2021_01_workspace_RZA2M_ANPR/ANPR_RZA2M_GR_MANGO/src/tensorflow_lite/tensorflow/lite/kernels/internal\types.h ****   }
 984              		.loc 5 216 0
 985 02f0 050053E3 		cmp	r3, #5
 986 02f4 8C209DC5 		ldrgt	r2, [sp, #140]
 987 02f8 90109DD5 		ldrle	r1, [sp, #144]
 988              	.LVL103:
 989 02fc 041092C5 		ldrgt	r1, [r2, #4]
 990              	.LVL104:
 991              	.LBE720:
 992              	.LBE719:
 993              	.LBB722:
 994              	.LBB723:
 220:C:/Renesas/e2studio_2021_01_workspace_RZA2M_ANPR/ANPR_RZA2M_GR_MANGO/src/tensorflow_lite/tensorflow/lite/kernels/internal\types.h ****     if (size_ > kMaxSmallSize) {
 995              		.loc 5 220 0
 996 0300 D0209DE5 		ldr	r2, [sp, #208]
 997 0304 010052E3 		cmp	r2, #1
 998 0308 4A0300DA 		ble	.L511
 221:C:/Renesas/e2studio_2021_01_workspace_RZA2M_ANPR/ANPR_RZA2M_GR_MANGO/src/tensorflow_lite/tensorflow/lite/kernels/internal\types.h ****       dims_pointer_[i] = val;
 999              		.loc 5 221 0
 1000 030c 050052E3 		cmp	r2, #5
 222:C:/Renesas/e2studio_2021_01_workspace_RZA2M_ANPR/ANPR_RZA2M_GR_MANGO/src/tensorflow_lite/tensorflow/lite/kernels/internal\types.h ****     } else {
 1001              		.loc 5 222 0
 1002 0310 D4009DC5 		ldrgt	r0, [sp, #212]
 224:C:/Renesas/e2studio_2021_01_workspace_RZA2M_ANPR/ANPR_RZA2M_GR_MANGO/src/tensorflow_lite/tensorflow/lite/kernels/internal\types.h ****     }
 1003              		.loc 5 224 0
 1004 0314 D8108DD5 		strle	r1, [sp, #216]
 1005              	.LVL105:
 222:C:/Renesas/e2studio_2021_01_workspace_RZA2M_ANPR/ANPR_RZA2M_GR_MANGO/src/tensorflow_lite/tensorflow/lite/kernels/internal\types.h ****     } else {
 1006              		.loc 5 222 0
 1007 0318 041080C5 		strgt	r1, [r0, #4]
 1008              	.LBE723:
 1009              	.LBE722:
 1010              	.LBB725:
 1011              	.LBB726:
 215:C:/Renesas/e2studio_2021_01_workspace_RZA2M_ANPR/ANPR_RZA2M_GR_MANGO/src/tensorflow_lite/tensorflow/lite/kernels/internal\types.h ****     return size_ > kMaxSmallSize ? dims_pointer_[i] : dims_[i];
 1012              		.loc 5 215 0
 1013 031c 020053E3 		cmp	r3, #2
 1014 0320 4303000A 		beq	.L512
 216:C:/Renesas/e2studio_2021_01_workspace_RZA2M_ANPR/ANPR_RZA2M_GR_MANGO/src/tensorflow_lite/tensorflow/lite/kernels/internal\types.h ****   }
 1015              		.loc 5 216 0
 1016 0324 050053E3 		cmp	r3, #5
 1017 0328 8C309DC5 		ldrgt	r3, [sp, #140]
 1018 032c 94309DD5 		ldrle	r3, [sp, #148]
 1019              	.LVL106:
 1020 0330 083093C5 		ldrgt	r3, [r3, #8]
 1021              	.LVL107:
 1022              	.LBE726:
 1023              	.LBE725:
 1024              	.LBB728:
 1025              	.LBB729:
 220:C:/Renesas/e2studio_2021_01_workspace_RZA2M_ANPR/ANPR_RZA2M_GR_MANGO/src/tensorflow_lite/tensorflow/lite/kernels/internal\types.h ****     if (size_ > kMaxSmallSize) {
 1026              		.loc 5 220 0
 1027 0334 030052E3 		cmp	r2, #3
 1028 0338 3C0300DA 		ble	.L513
 221:C:/Renesas/e2studio_2021_01_workspace_RZA2M_ANPR/ANPR_RZA2M_GR_MANGO/src/tensorflow_lite/tensorflow/lite/kernels/internal\types.h ****       dims_pointer_[i] = val;
 1029              		.loc 5 221 0
 1030 033c 050052E3 		cmp	r2, #5
 1031 0340 A70200CA 		bgt	.L514
 1032              	.LBE729:
 1033              	.LBE728:
 1034              	.LBB734:
 1035              	.LBB735:
 1036              	.LBB736:
 1037              	.LBB737:
 1038              	.LBB738:
 229:C:/Renesas/e2studio_2021_01_workspace_RZA2M_ANPR/ANPR_RZA2M_GR_MANGO/src/tensorflow_lite/tensorflow/lite/kernels/internal\types.h ****   }
 1039              		.loc 5 229 0
 1040 0344 BC008DE2 		add	r0, sp, #188
 1041              	.LBE738:
 1042              	.LBE737:
 1043              	.LBB741:
 1044              	.LBB742:
 232:C:/Renesas/e2studio_2021_01_workspace_RZA2M_ANPR/ANPR_RZA2M_GR_MANGO/src/tensorflow_lite/tensorflow/lite/kernels/internal\types.h ****   }
 1045              		.loc 5 232 0
 1046 0348 D4108DE2 		add	r1, sp, #212
 1047              	.LBE742:
 1048              	.LBE741:
 1049              	.LBE736:
 1050              	.LBE735:
 1051              	.LBE734:
 1052              	.LBB755:
 1053              	.LBB730:
 224:C:/Renesas/e2studio_2021_01_workspace_RZA2M_ANPR/ANPR_RZA2M_GR_MANGO/src/tensorflow_lite/tensorflow/lite/kernels/internal\types.h ****     }
 1054              		.loc 5 224 0
 1055 034c E0308DE5 		str	r3, [sp, #224]
 1056              	.LVL108:
 1057              	.LBE730:
 1058              	.LBE755:
 1059              	.LBB756:
 1060              	.LBB751:
 1061              	.LBB747:
 185:C:/Renesas/e2studio_2021_01_workspace_RZA2M_ANPR/ANPR_RZA2M_GR_MANGO/src/tensorflow_lite/tensorflow/lite/kernels/internal\types.h ****     if (size_ > kMaxSmallSize) {
 1062              		.loc 5 185 0
 1063 0350 B8208DE5 		str	r2, [sp, #184]
 1064              	.LVL109:
 1065              	.L210:
 193:C:/Renesas/e2studio_2021_01_workspace_RZA2M_ANPR/ANPR_RZA2M_GR_MANGO/src/tensorflow_lite/tensorflow/lite/kernels/internal\types.h ****   }
 1066              		.loc 5 193 0
 1067 0354 0221A0E1 		lsl	r2, r2, #2
 1068 0358 FEFFFFEB 		bl	memcpy
 1069              	.LVL110:
 1070              	.LBE747:
 1071              	.LBE751:
 1072              	.LBE756:
 1073              	.LBB757:
 1074              	.LBB758:
 203:C:/Renesas/e2studio_2021_01_workspace_RZA2M_ANPR/ANPR_RZA2M_GR_MANGO/src/tensorflow_lite/tensorflow/lite/kernels/internal\types.h **** #ifdef TF_LITE_STATIC_MEMORY
 1075              		.loc 5 203 0
 1076 035c D0309DE5 		ldr	r3, [sp, #208]
 1077 0360 050053E3 		cmp	r3, #5
 1078 0364 030000DA 		ble	.L213
 207:C:/Renesas/e2studio_2021_01_workspace_RZA2M_ANPR/ANPR_RZA2M_GR_MANGO/src/tensorflow_lite/tensorflow/lite/kernels/internal\types.h **** #endif  // TF_LITE_STATIC_MEMORY
 1079              		.loc 5 207 0
 1080 0368 D4009DE5 		ldr	r0, [sp, #212]
 1081 036c 000050E3 		cmp	r0, #0
 1082 0370 0000000A 		beq	.L213
 1083 0374 FEFFFFEB 		bl	_ZdaPv
 1084              	.LVL111:
 1085              	.L213:
 1086              	.LBE758:
 1087              	.LBE757:
 1088              	.LBE685:
 1089              	.LBE684:
 1090              	.LBB782:
 1091              	.LBB783:
 215:C:/Renesas/e2studio_2021_01_workspace_RZA2M_ANPR/ANPR_RZA2M_GR_MANGO/src/tensorflow_lite/tensorflow/lite/kernels/internal\types.h ****     return size_ > kMaxSmallSize ? dims_pointer_[i] : dims_[i];
 1092              		.loc 5 215 0
 1093 0378 A0309DE5 		ldr	r3, [sp, #160]
 1094 037c 030053E3 		cmp	r3, #3
 1095 0380 280300DA 		ble	.L515
 216:C:/Renesas/e2studio_2021_01_workspace_RZA2M_ANPR/ANPR_RZA2M_GR_MANGO/src/tensorflow_lite/tensorflow/lite/kernels/internal\types.h ****   }
 1096              		.loc 5 216 0
 1097 0384 050053E3 		cmp	r3, #5
 1098 0388 750200CA 		bgt	.L516
 1099 038c B0309DE5 		ldr	r3, [sp, #176]
 1100              	.LBE783:
 1101              	.LBE782:
 1102              	.LBB787:
 1103              	.LBB788:
 1104 0390 A8209DE5 		ldr	r2, [sp, #168]
 1105              	.LBE788:
 1106              	.LBE787:
 1107              	.LBB792:
 1108              	.LBB784:
 1109 0394 08308DE5 		str	r3, [sp, #8]
 1110              	.LVL112:
 1111              	.LBE784:
 1112              	.LBE792:
 1113              	.LBB793:
 1114              	.LBB794:
 1115 0398 AC309DE5 		ldr	r3, [sp, #172]
 1116              	.LVL113:
 1117              	.LBE794:
 1118              	.LBE793:
 1119              	.LBB795:
 1120              	.LBB789:
 1121 039c 34208DE5 		str	r2, [sp, #52]
 1122              	.LVL114:
 1123              	.LBE789:
 1124              	.LBE795:
 1125              	.LBB796:
 1126              	.LBB797:
 1127 03a0 A4209DE5 		ldr	r2, [sp, #164]
 1128 03a4 38208DE5 		str	r2, [sp, #56]
 1129              	.L220:
 1130              	.LVL115:
 1131              	.LBE797:
 1132              	.LBE796:
 1133              	.LBB800:
 1134              	.LBB801:
 215:C:/Renesas/e2studio_2021_01_workspace_RZA2M_ANPR/ANPR_RZA2M_GR_MANGO/src/tensorflow_lite/tensorflow/lite/kernels/internal\types.h ****     return size_ > kMaxSmallSize ? dims_pointer_[i] : dims_[i];
 1135              		.loc 5 215 0
 1136 03a8 B8509DE5 		ldr	r5, [sp, #184]
 1137              	.LVL116:
 1138 03ac 020055E3 		cmp	r5, #2
 1139 03b0 1B0300DA 		ble	.L517
 216:C:/Renesas/e2studio_2021_01_workspace_RZA2M_ANPR/ANPR_RZA2M_GR_MANGO/src/tensorflow_lite/tensorflow/lite/kernels/internal\types.h ****   }
 1140              		.loc 5 216 0
 1141 03b4 050055E3 		cmp	r5, #5
 1142 03b8 BC209DC5 		ldrgt	r2, [sp, #188]
 1143              	.LBE801:
 1144              	.LBE800:
 1145              	.LBB804:
 1146              	.LBB805:
 1147 03bc C0209DD5 		ldrle	r2, [sp, #192]
 1148              	.LBE805:
 1149              	.LBE804:
 1150              	.LBB808:
 1151              	.LBB802:
 1152 03c0 C4809DD5 		ldrle	r8, [sp, #196]
 1153              	.LBE802:
 1154              	.LBE808:
 1155              	.LBB809:
 1156              	.LBB806:
 1157 03c4 020192C9 		ldmibgt	r2, {r1, r8}
 1158 03c8 28208DD5 		strle	r2, [sp, #40]
 1159              	.LBE806:
 1160              	.LBE809:
 1161              	.LBB810:
 1162              	.LBB811:
 1163 03cc 002092C5 		ldrgt	r2, [r2]
 1164 03d0 BC209DD5 		ldrle	r2, [sp, #188]
 1165              	.LBE811:
 1166              	.LBE810:
 1167              	.LBB813:
 1168              	.LBB807:
 1169 03d4 28108DC5 		strgt	r1, [sp, #40]
 1170              	.LVL117:
 1171              	.LBE807:
 1172              	.LBE813:
  53:C:/Renesas/e2studio_2021_01_workspace_RZA2M_ANPR/ANPR_RZA2M_GR_MANGO/src/tensorflow_lite/tensorflow/lite/kernels/internal/reference\space_to_batch_nd.h ****                    unextended_output_shape.DimensionsCount());
  54:C:/Renesas/e2studio_2021_01_workspace_RZA2M_ANPR/ANPR_RZA2M_GR_MANGO/src/tensorflow_lite/tensorflow/lite/kernels/internal/reference\space_to_batch_nd.h **** 
  55:C:/Renesas/e2studio_2021_01_workspace_RZA2M_ANPR/ANPR_RZA2M_GR_MANGO/src/tensorflow_lite/tensorflow/lite/kernels/internal/reference\space_to_batch_nd.h ****   // Extends the input/output shape from 3D to 4D if needed, NHC -> NH1C.
  56:C:/Renesas/e2studio_2021_01_workspace_RZA2M_ANPR/ANPR_RZA2M_GR_MANGO/src/tensorflow_lite/tensorflow/lite/kernels/internal/reference\space_to_batch_nd.h ****   const RuntimeShape input1_shape =
  57:C:/Renesas/e2studio_2021_01_workspace_RZA2M_ANPR/ANPR_RZA2M_GR_MANGO/src/tensorflow_lite/tensorflow/lite/kernels/internal/reference\space_to_batch_nd.h ****       ExtendShapeSpaceToBatch(unextended_input1_shape);
  58:C:/Renesas/e2studio_2021_01_workspace_RZA2M_ANPR/ANPR_RZA2M_GR_MANGO/src/tensorflow_lite/tensorflow/lite/kernels/internal/reference\space_to_batch_nd.h ****   const RuntimeShape output_shape =
  59:C:/Renesas/e2studio_2021_01_workspace_RZA2M_ANPR/ANPR_RZA2M_GR_MANGO/src/tensorflow_lite/tensorflow/lite/kernels/internal/reference\space_to_batch_nd.h ****       ExtendShapeSpaceToBatch(unextended_output_shape);
  60:C:/Renesas/e2studio_2021_01_workspace_RZA2M_ANPR/ANPR_RZA2M_GR_MANGO/src/tensorflow_lite/tensorflow/lite/kernels/internal/reference\space_to_batch_nd.h **** 
  61:C:/Renesas/e2studio_2021_01_workspace_RZA2M_ANPR/ANPR_RZA2M_GR_MANGO/src/tensorflow_lite/tensorflow/lite/kernels/internal/reference\space_to_batch_nd.h ****   const int depth = input1_shape.Dims(3);
  62:C:/Renesas/e2studio_2021_01_workspace_RZA2M_ANPR/ANPR_RZA2M_GR_MANGO/src/tensorflow_lite/tensorflow/lite/kernels/internal/reference\space_to_batch_nd.h ****   const int input_width = input1_shape.Dims(2);
  63:C:/Renesas/e2studio_2021_01_workspace_RZA2M_ANPR/ANPR_RZA2M_GR_MANGO/src/tensorflow_lite/tensorflow/lite/kernels/internal/reference\space_to_batch_nd.h ****   const int input_height = input1_shape.Dims(1);
  64:C:/Renesas/e2studio_2021_01_workspace_RZA2M_ANPR/ANPR_RZA2M_GR_MANGO/src/tensorflow_lite/tensorflow/lite/kernels/internal/reference\space_to_batch_nd.h ****   const int input_batch_size = input1_shape.Dims(0);
  65:C:/Renesas/e2studio_2021_01_workspace_RZA2M_ANPR/ANPR_RZA2M_GR_MANGO/src/tensorflow_lite/tensorflow/lite/kernels/internal/reference\space_to_batch_nd.h **** 
  66:C:/Renesas/e2studio_2021_01_workspace_RZA2M_ANPR/ANPR_RZA2M_GR_MANGO/src/tensorflow_lite/tensorflow/lite/kernels/internal/reference\space_to_batch_nd.h ****   const int output_width = output_shape.Dims(2);
  67:C:/Renesas/e2studio_2021_01_workspace_RZA2M_ANPR/ANPR_RZA2M_GR_MANGO/src/tensorflow_lite/tensorflow/lite/kernels/internal/reference\space_to_batch_nd.h ****   const int output_height = output_shape.Dims(1);
  68:C:/Renesas/e2studio_2021_01_workspace_RZA2M_ANPR/ANPR_RZA2M_GR_MANGO/src/tensorflow_lite/tensorflow/lite/kernels/internal/reference\space_to_batch_nd.h ****   const int output_batch_size = output_shape.Dims(0);
  69:C:/Renesas/e2studio_2021_01_workspace_RZA2M_ANPR/ANPR_RZA2M_GR_MANGO/src/tensorflow_lite/tensorflow/lite/kernels/internal/reference\space_to_batch_nd.h **** 
  70:C:/Renesas/e2studio_2021_01_workspace_RZA2M_ANPR/ANPR_RZA2M_GR_MANGO/src/tensorflow_lite/tensorflow/lite/kernels/internal/reference\space_to_batch_nd.h ****   const int block_shape_height = block_shape_data[0];
 1173              		.loc 4 70 0
 1174 03d8 001097E5 		ldr	r1, [r7]
 1175              	.LBB814:
 1176              	.LBB812:
 216:C:/Renesas/e2studio_2021_01_workspace_RZA2M_ANPR/ANPR_RZA2M_GR_MANGO/src/tensorflow_lite/tensorflow/lite/kernels/internal\types.h ****   }
 1177              		.loc 5 216 0
 1178 03dc 3C208DE5 		str	r2, [sp, #60]
 1179              	.LVL118:
 1180              	.LBE812:
 1181              	.LBE814:
  71:C:/Renesas/e2studio_2021_01_workspace_RZA2M_ANPR/ANPR_RZA2M_GR_MANGO/src/tensorflow_lite/tensorflow/lite/kernels/internal/reference\space_to_batch_nd.h ****   const int block_shape_width =
  72:C:/Renesas/e2studio_2021_01_workspace_RZA2M_ANPR/ANPR_RZA2M_GR_MANGO/src/tensorflow_lite/tensorflow/lite/kernels/internal/reference\space_to_batch_nd.h ****       unextended_input1_shape.DimensionsCount() == 4 ? block_shape_data[1] : 1;
 1182              		.loc 4 72 0
 1183 03e0 40209DE5 		ldr	r2, [sp, #64]
  70:C:/Renesas/e2studio_2021_01_workspace_RZA2M_ANPR/ANPR_RZA2M_GR_MANGO/src/tensorflow_lite/tensorflow/lite/kernels/internal/reference\space_to_batch_nd.h ****   const int block_shape_width =
 1184              		.loc 4 70 0
 1185 03e4 30108DE5 		str	r1, [sp, #48]
 1186              	.LVL119:
 1187              		.loc 4 72 0
 1188 03e8 040052E3 		cmp	r2, #4
 1189 03ec 9C02000A 		beq	.L518
 1190              	.LVL120:
  73:C:/Renesas/e2studio_2021_01_workspace_RZA2M_ANPR/ANPR_RZA2M_GR_MANGO/src/tensorflow_lite/tensorflow/lite/kernels/internal/reference\space_to_batch_nd.h ****   const int padding_top = paddings_data[0];
 1191              		.loc 4 73 0
 1192 03f0 002096E5 		ldr	r2, [r6]
  72:C:/Renesas/e2studio_2021_01_workspace_RZA2M_ANPR/ANPR_RZA2M_GR_MANGO/src/tensorflow_lite/tensorflow/lite/kernels/internal/reference\space_to_batch_nd.h ****   const int padding_top = paddings_data[0];
 1193              		.loc 4 72 0
 1194 03f4 01A0A0E3 		mov	r10, #1
 1195              		.loc 4 73 0
 1196 03f8 00208DE5 		str	r2, [sp]
 1197              	.LVL121:
  74:C:/Renesas/e2studio_2021_01_workspace_RZA2M_ANPR/ANPR_RZA2M_GR_MANGO/src/tensorflow_lite/tensorflow/lite/kernels/internal/reference\space_to_batch_nd.h ****   const int padding_left =
  75:C:/Renesas/e2studio_2021_01_workspace_RZA2M_ANPR/ANPR_RZA2M_GR_MANGO/src/tensorflow_lite/tensorflow/lite/kernels/internal/reference\space_to_batch_nd.h ****       unextended_input1_shape.DimensionsCount() == 4 ? paddings_data[2] : 0;
 1198              		.loc 4 75 0
 1199 03fc 0020A0E3 		mov	r2, #0
 1200              	.LVL122:
 1201 0400 14208DE5 		str	r2, [sp, #20]
 1202              	.LVL123:
 1203              	.L279:
 1204              	.LBB815:
  76:C:/Renesas/e2studio_2021_01_workspace_RZA2M_ANPR/ANPR_RZA2M_GR_MANGO/src/tensorflow_lite/tensorflow/lite/kernels/internal/reference\space_to_batch_nd.h **** 
  77:C:/Renesas/e2studio_2021_01_workspace_RZA2M_ANPR/ANPR_RZA2M_GR_MANGO/src/tensorflow_lite/tensorflow/lite/kernels/internal/reference\space_to_batch_nd.h ****   // For uint8 quantized, the correct padding "zero value" is the output offset.
  78:C:/Renesas/e2studio_2021_01_workspace_RZA2M_ANPR/ANPR_RZA2M_GR_MANGO/src/tensorflow_lite/tensorflow/lite/kernels/internal/reference\space_to_batch_nd.h ****   const int32_t pad_value = params.output_offset;
  79:C:/Renesas/e2studio_2021_01_workspace_RZA2M_ANPR/ANPR_RZA2M_GR_MANGO/src/tensorflow_lite/tensorflow/lite/kernels/internal/reference\space_to_batch_nd.h ****   for (int out_b = 0; out_b < output_batch_size; ++out_b) {
 1205              		.loc 4 79 0
 1206 0404 3C209DE5 		ldr	r2, [sp, #60]
 1207 0408 000052E3 		cmp	r2, #0
 1208              	.LBE815:
  78:C:/Renesas/e2studio_2021_01_workspace_RZA2M_ANPR/ANPR_RZA2M_GR_MANGO/src/tensorflow_lite/tensorflow/lite/kernels/internal/reference\space_to_batch_nd.h ****   for (int out_b = 0; out_b < output_batch_size; ++out_b) {
 1209              		.loc 4 78 0
 1210 040c 002094E5 		ldr	r2, [r4]
 1211 0410 0C208DE5 		str	r2, [sp, #12]
 1212              	.LVL124:
 1213              	.LBB881:
 1214              		.loc 4 79 0
 1215 0414 880000DA 		ble	.L225
 1216              	.LBB816:
 1217              	.LBB817:
 1218              	.LBB818:
 1219              	.LBB819:
 1220              	.LBB820:
  80:C:/Renesas/e2studio_2021_01_workspace_RZA2M_ANPR/ANPR_RZA2M_GR_MANGO/src/tensorflow_lite/tensorflow/lite/kernels/internal/reference\space_to_batch_nd.h ****     int input_batch = out_b % input_batch_size;
  81:C:/Renesas/e2studio_2021_01_workspace_RZA2M_ANPR/ANPR_RZA2M_GR_MANGO/src/tensorflow_lite/tensorflow/lite/kernels/internal/reference\space_to_batch_nd.h ****     int shift_w = (out_b / input_batch_size) % block_shape_width;
  82:C:/Renesas/e2studio_2021_01_workspace_RZA2M_ANPR/ANPR_RZA2M_GR_MANGO/src/tensorflow_lite/tensorflow/lite/kernels/internal/reference\space_to_batch_nd.h ****     int shift_h = (out_b / input_batch_size) / block_shape_width;
  83:C:/Renesas/e2studio_2021_01_workspace_RZA2M_ANPR/ANPR_RZA2M_GR_MANGO/src/tensorflow_lite/tensorflow/lite/kernels/internal/reference\space_to_batch_nd.h ****     for (int out_h = 0; out_h < output_height; ++out_h) {
  84:C:/Renesas/e2studio_2021_01_workspace_RZA2M_ANPR/ANPR_RZA2M_GR_MANGO/src/tensorflow_lite/tensorflow/lite/kernels/internal/reference\space_to_batch_nd.h ****       for (int out_w = 0; out_w < output_width; ++out_w) {
  85:C:/Renesas/e2studio_2021_01_workspace_RZA2M_ANPR/ANPR_RZA2M_GR_MANGO/src/tensorflow_lite/tensorflow/lite/kernels/internal/reference\space_to_batch_nd.h ****         T* out = output_data + Offset(output_shape, out_b, out_h, out_w, 0);
  86:C:/Renesas/e2studio_2021_01_workspace_RZA2M_ANPR/ANPR_RZA2M_GR_MANGO/src/tensorflow_lite/tensorflow/lite/kernels/internal/reference\space_to_batch_nd.h ****         if (out_h * block_shape_height + shift_h < padding_top ||
  87:C:/Renesas/e2studio_2021_01_workspace_RZA2M_ANPR/ANPR_RZA2M_GR_MANGO/src/tensorflow_lite/tensorflow/lite/kernels/internal/reference\space_to_batch_nd.h ****             out_h * block_shape_height + shift_h >=
  88:C:/Renesas/e2studio_2021_01_workspace_RZA2M_ANPR/ANPR_RZA2M_GR_MANGO/src/tensorflow_lite/tensorflow/lite/kernels/internal/reference\space_to_batch_nd.h ****                 padding_top + input_height ||
  89:C:/Renesas/e2studio_2021_01_workspace_RZA2M_ANPR/ANPR_RZA2M_GR_MANGO/src/tensorflow_lite/tensorflow/lite/kernels/internal/reference\space_to_batch_nd.h ****             out_w * block_shape_width + shift_w < padding_left ||
  90:C:/Renesas/e2studio_2021_01_workspace_RZA2M_ANPR/ANPR_RZA2M_GR_MANGO/src/tensorflow_lite/tensorflow/lite/kernels/internal/reference\space_to_batch_nd.h ****             out_w * block_shape_width + shift_w >= padding_left + input_width) {
 1221              		.loc 4 90 0
 1222 0418 14209DE5 		ldr	r2, [sp, #20]
 1223              	.LVL125:
 1224              	.LBE820:
 1225              	.LBE819:
 1226              	.LBE818:
 1227              	.LBE817:
 1228              	.LBE816:
  79:C:/Renesas/e2studio_2021_01_workspace_RZA2M_ANPR/ANPR_RZA2M_GR_MANGO/src/tensorflow_lite/tensorflow/lite/kernels/internal/reference\space_to_batch_nd.h ****     int input_batch = out_b % input_batch_size;
 1229              		.loc 4 79 0
 1230 041c 00B0A0E3 		mov	fp, #0
 1231              	.LBB876:
 1232              	.LBB870:
 1233              	.LBB864:
 1234              	.LBB854:
 1235              	.LBB835:
 1236              		.loc 4 90 0
 1237 0420 033082E0 		add	r3, r2, r3
 1238 0424 18308DE5 		str	r3, [sp, #24]
 1239              	.LVL126:
 1240              	.L251:
 1241              	.LBE835:
 1242              	.LBE854:
 1243              	.LBE864:
 1244              	.LBE870:
  80:C:/Renesas/e2studio_2021_01_workspace_RZA2M_ANPR/ANPR_RZA2M_GR_MANGO/src/tensorflow_lite/tensorflow/lite/kernels/internal/reference\space_to_batch_nd.h ****     int input_batch = out_b % input_batch_size;
 1245              		.loc 4 80 0
 1246 0428 38409DE5 		ldr	r4, [sp, #56]
 1247 042c 0B00A0E1 		mov	r0, fp
 1248 0430 0410A0E1 		mov	r1, r4
 1249 0434 FEFFFFEB 		bl	__aeabi_idivmod
 1250              	.LVL127:
  81:C:/Renesas/e2studio_2021_01_workspace_RZA2M_ANPR/ANPR_RZA2M_GR_MANGO/src/tensorflow_lite/tensorflow/lite/kernels/internal/reference\space_to_batch_nd.h ****     int shift_h = (out_b / input_batch_size) / block_shape_width;
 1251              		.loc 4 81 0
 1252 0438 0B00A0E1 		mov	r0, fp
  80:C:/Renesas/e2studio_2021_01_workspace_RZA2M_ANPR/ANPR_RZA2M_GR_MANGO/src/tensorflow_lite/tensorflow/lite/kernels/internal/reference\space_to_batch_nd.h ****     int input_batch = out_b % input_batch_size;
 1253              		.loc 4 80 0
 1254 043c 20108DE5 		str	r1, [sp, #32]
 1255              	.LVL128:
  81:C:/Renesas/e2studio_2021_01_workspace_RZA2M_ANPR/ANPR_RZA2M_GR_MANGO/src/tensorflow_lite/tensorflow/lite/kernels/internal/reference\space_to_batch_nd.h ****     int shift_h = (out_b / input_batch_size) / block_shape_width;
 1256              		.loc 4 81 0
 1257 0440 0410A0E1 		mov	r1, r4
 1258              	.LVL129:
 1259 0444 FEFFFFEB 		bl	__aeabi_idiv
 1260              	.LVL130:
 1261 0448 0A10A0E1 		mov	r1, r10
 1262 044c 0040A0E1 		mov	r4, r0
 1263 0450 FEFFFFEB 		bl	__aeabi_idivmod
 1264              	.LVL131:
  82:C:/Renesas/e2studio_2021_01_workspace_RZA2M_ANPR/ANPR_RZA2M_GR_MANGO/src/tensorflow_lite/tensorflow/lite/kernels/internal/reference\space_to_batch_nd.h ****     for (int out_h = 0; out_h < output_height; ++out_h) {
 1265              		.loc 4 82 0
 1266 0454 0400A0E1 		mov	r0, r4
  81:C:/Renesas/e2studio_2021_01_workspace_RZA2M_ANPR/ANPR_RZA2M_GR_MANGO/src/tensorflow_lite/tensorflow/lite/kernels/internal/reference\space_to_batch_nd.h ****     int shift_h = (out_b / input_batch_size) / block_shape_width;
 1267              		.loc 4 81 0
 1268 0458 2C108DE5 		str	r1, [sp, #44]
 1269              	.LVL132:
  82:C:/Renesas/e2studio_2021_01_workspace_RZA2M_ANPR/ANPR_RZA2M_GR_MANGO/src/tensorflow_lite/tensorflow/lite/kernels/internal/reference\space_to_batch_nd.h ****     for (int out_h = 0; out_h < output_height; ++out_h) {
 1270              		.loc 4 82 0
 1271 045c 0A10A0E1 		mov	r1, r10
 1272              	.LVL133:
 1273 0460 FEFFFFEB 		bl	__aeabi_idiv
 1274              	.LVL134:
 1275              	.LBB871:
  83:C:/Renesas/e2studio_2021_01_workspace_RZA2M_ANPR/ANPR_RZA2M_GR_MANGO/src/tensorflow_lite/tensorflow/lite/kernels/internal/reference\space_to_batch_nd.h ****       for (int out_w = 0; out_w < output_width; ++out_w) {
 1276              		.loc 4 83 0
 1277 0464 28309DE5 		ldr	r3, [sp, #40]
 1278 0468 000053E3 		cmp	r3, #0
 1279 046c 6E0000DA 		ble	.L226
 1280 0470 00309DE5 		ldr	r3, [sp]
 1281 0474 0090A0E1 		mov	r9, r0
 1282 0478 0070A0E3 		mov	r7, #0
 1283 047c 032040E0 		sub	r2, r0, r3
 1284 0480 1C208DE5 		str	r2, [sp, #28]
 1285              	.LBB865:
 1286              	.LBB855:
 1287              	.LBB836:
  88:C:/Renesas/e2studio_2021_01_workspace_RZA2M_ANPR/ANPR_RZA2M_GR_MANGO/src/tensorflow_lite/tensorflow/lite/kernels/internal/reference\space_to_batch_nd.h ****             out_w * block_shape_width + shift_w < padding_left ||
 1288              		.loc 4 88 0
 1289 0484 34209DE5 		ldr	r2, [sp, #52]
 1290 0488 033082E0 		add	r3, r2, r3
 1291 048c 10308DE5 		str	r3, [sp, #16]
 1292              	.LVL135:
 1293              	.L250:
 1294              	.LBE836:
 1295              	.LBE855:
  84:C:/Renesas/e2studio_2021_01_workspace_RZA2M_ANPR/ANPR_RZA2M_GR_MANGO/src/tensorflow_lite/tensorflow/lite/kernels/internal/reference\space_to_batch_nd.h ****         T* out = output_data + Offset(output_shape, out_b, out_h, out_w, 0);
 1296              		.loc 4 84 0
 1297 0490 000058E3 		cmp	r8, #0
 1298 0494 5B0000DA 		ble	.L227
 1299              	.LVL136:
 1300              	.LBB856:
 1301              	.LBB837:
 1302              	.LBB838:
 246:C:/Renesas/e2studio_2021_01_workspace_RZA2M_ANPR/ANPR_RZA2M_GR_MANGO/src/tensorflow_lite/tensorflow/lite/kernels/internal\types.h ****     if (dimensions_count > kMaxSmallSize) {
 247:C:/Renesas/e2studio_2021_01_workspace_RZA2M_ANPR/ANPR_RZA2M_GR_MANGO/src/tensorflow_lite/tensorflow/lite/kernels/internal\types.h **** #ifdef TF_LITE_STATIC_MEMORY
 248:C:/Renesas/e2studio_2021_01_workspace_RZA2M_ANPR/ANPR_RZA2M_GR_MANGO/src/tensorflow_lite/tensorflow/lite/kernels/internal\types.h ****       TFLITE_CHECK(false && "No shape resizing supported on this platform");
 249:C:/Renesas/e2studio_2021_01_workspace_RZA2M_ANPR/ANPR_RZA2M_GR_MANGO/src/tensorflow_lite/tensorflow/lite/kernels/internal\types.h **** #else  // TF_LITE_STATIC_MEMORY
 250:C:/Renesas/e2studio_2021_01_workspace_RZA2M_ANPR/ANPR_RZA2M_GR_MANGO/src/tensorflow_lite/tensorflow/lite/kernels/internal\types.h ****       dims_pointer_ = new int32_t[dimensions_count];
 251:C:/Renesas/e2studio_2021_01_workspace_RZA2M_ANPR/ANPR_RZA2M_GR_MANGO/src/tensorflow_lite/tensorflow/lite/kernels/internal\types.h **** #endif  // TF_LITE_STATIC_MEMORY
 252:C:/Renesas/e2studio_2021_01_workspace_RZA2M_ANPR/ANPR_RZA2M_GR_MANGO/src/tensorflow_lite/tensorflow/lite/kernels/internal\types.h ****     }
 253:C:/Renesas/e2studio_2021_01_workspace_RZA2M_ANPR/ANPR_RZA2M_GR_MANGO/src/tensorflow_lite/tensorflow/lite/kernels/internal\types.h ****   }
 254:C:/Renesas/e2studio_2021_01_workspace_RZA2M_ANPR/ANPR_RZA2M_GR_MANGO/src/tensorflow_lite/tensorflow/lite/kernels/internal\types.h **** 
 255:C:/Renesas/e2studio_2021_01_workspace_RZA2M_ANPR/ANPR_RZA2M_GR_MANGO/src/tensorflow_lite/tensorflow/lite/kernels/internal\types.h ****   inline void ReplaceWith(int dimensions_count, const int32_t* dims_data) {
 256:C:/Renesas/e2studio_2021_01_workspace_RZA2M_ANPR/ANPR_RZA2M_GR_MANGO/src/tensorflow_lite/tensorflow/lite/kernels/internal\types.h ****     Resize(dimensions_count);
 257:C:/Renesas/e2studio_2021_01_workspace_RZA2M_ANPR/ANPR_RZA2M_GR_MANGO/src/tensorflow_lite/tensorflow/lite/kernels/internal\types.h ****     int32_t* dst_dims = DimsData();
 258:C:/Renesas/e2studio_2021_01_workspace_RZA2M_ANPR/ANPR_RZA2M_GR_MANGO/src/tensorflow_lite/tensorflow/lite/kernels/internal\types.h ****     std::memcpy(dst_dims, dims_data, dimensions_count * sizeof(int32_t));
 259:C:/Renesas/e2studio_2021_01_workspace_RZA2M_ANPR/ANPR_RZA2M_GR_MANGO/src/tensorflow_lite/tensorflow/lite/kernels/internal\types.h ****   }
 260:C:/Renesas/e2studio_2021_01_workspace_RZA2M_ANPR/ANPR_RZA2M_GR_MANGO/src/tensorflow_lite/tensorflow/lite/kernels/internal\types.h **** 
 261:C:/Renesas/e2studio_2021_01_workspace_RZA2M_ANPR/ANPR_RZA2M_GR_MANGO/src/tensorflow_lite/tensorflow/lite/kernels/internal\types.h ****   template <typename T>
 262:C:/Renesas/e2studio_2021_01_workspace_RZA2M_ANPR/ANPR_RZA2M_GR_MANGO/src/tensorflow_lite/tensorflow/lite/kernels/internal\types.h ****   inline void BuildFrom(const T& src_iterable) {
 263:C:/Renesas/e2studio_2021_01_workspace_RZA2M_ANPR/ANPR_RZA2M_GR_MANGO/src/tensorflow_lite/tensorflow/lite/kernels/internal\types.h ****     const int dimensions_count =
 264:C:/Renesas/e2studio_2021_01_workspace_RZA2M_ANPR/ANPR_RZA2M_GR_MANGO/src/tensorflow_lite/tensorflow/lite/kernels/internal\types.h ****         std::distance(src_iterable.begin(), src_iterable.end());
 265:C:/Renesas/e2studio_2021_01_workspace_RZA2M_ANPR/ANPR_RZA2M_GR_MANGO/src/tensorflow_lite/tensorflow/lite/kernels/internal\types.h ****     Resize(dimensions_count);
 266:C:/Renesas/e2studio_2021_01_workspace_RZA2M_ANPR/ANPR_RZA2M_GR_MANGO/src/tensorflow_lite/tensorflow/lite/kernels/internal\types.h ****     int32_t* data = DimsData();
 267:C:/Renesas/e2studio_2021_01_workspace_RZA2M_ANPR/ANPR_RZA2M_GR_MANGO/src/tensorflow_lite/tensorflow/lite/kernels/internal\types.h ****     for (auto it : src_iterable) {
 268:C:/Renesas/e2studio_2021_01_workspace_RZA2M_ANPR/ANPR_RZA2M_GR_MANGO/src/tensorflow_lite/tensorflow/lite/kernels/internal\types.h ****       *data = it;
 269:C:/Renesas/e2studio_2021_01_workspace_RZA2M_ANPR/ANPR_RZA2M_GR_MANGO/src/tensorflow_lite/tensorflow/lite/kernels/internal\types.h ****       ++data;
 270:C:/Renesas/e2studio_2021_01_workspace_RZA2M_ANPR/ANPR_RZA2M_GR_MANGO/src/tensorflow_lite/tensorflow/lite/kernels/internal\types.h ****     }
 271:C:/Renesas/e2studio_2021_01_workspace_RZA2M_ANPR/ANPR_RZA2M_GR_MANGO/src/tensorflow_lite/tensorflow/lite/kernels/internal\types.h ****   }
 272:C:/Renesas/e2studio_2021_01_workspace_RZA2M_ANPR/ANPR_RZA2M_GR_MANGO/src/tensorflow_lite/tensorflow/lite/kernels/internal\types.h **** 
 273:C:/Renesas/e2studio_2021_01_workspace_RZA2M_ANPR/ANPR_RZA2M_GR_MANGO/src/tensorflow_lite/tensorflow/lite/kernels/internal\types.h ****   // This will probably be factored out. Old code made substantial use of 4-D
 274:C:/Renesas/e2studio_2021_01_workspace_RZA2M_ANPR/ANPR_RZA2M_GR_MANGO/src/tensorflow_lite/tensorflow/lite/kernels/internal\types.h ****   // shapes, and so this function is used to extend smaller shapes. Note that
 275:C:/Renesas/e2studio_2021_01_workspace_RZA2M_ANPR/ANPR_RZA2M_GR_MANGO/src/tensorflow_lite/tensorflow/lite/kernels/internal\types.h ****   // (a) as Dims<4>-dependent code is eliminated, the reliance on this should be
 276:C:/Renesas/e2studio_2021_01_workspace_RZA2M_ANPR/ANPR_RZA2M_GR_MANGO/src/tensorflow_lite/tensorflow/lite/kernels/internal\types.h ****   // reduced, and (b) some kernels are stricly 4-D, but then the shapes of their
 277:C:/Renesas/e2studio_2021_01_workspace_RZA2M_ANPR/ANPR_RZA2M_GR_MANGO/src/tensorflow_lite/tensorflow/lite/kernels/internal\types.h ****   // inputs should already be 4-D, so this function should not be needed.
 278:C:/Renesas/e2studio_2021_01_workspace_RZA2M_ANPR/ANPR_RZA2M_GR_MANGO/src/tensorflow_lite/tensorflow/lite/kernels/internal\types.h ****   inline static RuntimeShape ExtendedShape(int new_shape_size,
 279:C:/Renesas/e2studio_2021_01_workspace_RZA2M_ANPR/ANPR_RZA2M_GR_MANGO/src/tensorflow_lite/tensorflow/lite/kernels/internal\types.h ****                                            const RuntimeShape& shape) {
 280:C:/Renesas/e2studio_2021_01_workspace_RZA2M_ANPR/ANPR_RZA2M_GR_MANGO/src/tensorflow_lite/tensorflow/lite/kernels/internal\types.h ****     return RuntimeShape(new_shape_size, shape, 1);
 281:C:/Renesas/e2studio_2021_01_workspace_RZA2M_ANPR/ANPR_RZA2M_GR_MANGO/src/tensorflow_lite/tensorflow/lite/kernels/internal\types.h ****   }
 282:C:/Renesas/e2studio_2021_01_workspace_RZA2M_ANPR/ANPR_RZA2M_GR_MANGO/src/tensorflow_lite/tensorflow/lite/kernels/internal\types.h **** 
 283:C:/Renesas/e2studio_2021_01_workspace_RZA2M_ANPR/ANPR_RZA2M_GR_MANGO/src/tensorflow_lite/tensorflow/lite/kernels/internal\types.h ****   inline void BuildFrom(const std::initializer_list<int> init_list) {
 284:C:/Renesas/e2studio_2021_01_workspace_RZA2M_ANPR/ANPR_RZA2M_GR_MANGO/src/tensorflow_lite/tensorflow/lite/kernels/internal\types.h ****     BuildFrom<const std::initializer_list<int>>(init_list);
 285:C:/Renesas/e2studio_2021_01_workspace_RZA2M_ANPR/ANPR_RZA2M_GR_MANGO/src/tensorflow_lite/tensorflow/lite/kernels/internal\types.h ****   }
 286:C:/Renesas/e2studio_2021_01_workspace_RZA2M_ANPR/ANPR_RZA2M_GR_MANGO/src/tensorflow_lite/tensorflow/lite/kernels/internal\types.h **** 
 287:C:/Renesas/e2studio_2021_01_workspace_RZA2M_ANPR/ANPR_RZA2M_GR_MANGO/src/tensorflow_lite/tensorflow/lite/kernels/internal\types.h ****   // Returns the total count of elements, that is the size when flattened into a
 288:C:/Renesas/e2studio_2021_01_workspace_RZA2M_ANPR/ANPR_RZA2M_GR_MANGO/src/tensorflow_lite/tensorflow/lite/kernels/internal\types.h ****   // vector.
 289:C:/Renesas/e2studio_2021_01_workspace_RZA2M_ANPR/ANPR_RZA2M_GR_MANGO/src/tensorflow_lite/tensorflow/lite/kernels/internal\types.h ****   inline int FlatSize() const {
 290:C:/Renesas/e2studio_2021_01_workspace_RZA2M_ANPR/ANPR_RZA2M_GR_MANGO/src/tensorflow_lite/tensorflow/lite/kernels/internal\types.h ****     int buffer_size = 1;
 291:C:/Renesas/e2studio_2021_01_workspace_RZA2M_ANPR/ANPR_RZA2M_GR_MANGO/src/tensorflow_lite/tensorflow/lite/kernels/internal\types.h ****     const int* dims_data = reinterpret_cast<const int*>(DimsData());
 292:C:/Renesas/e2studio_2021_01_workspace_RZA2M_ANPR/ANPR_RZA2M_GR_MANGO/src/tensorflow_lite/tensorflow/lite/kernels/internal\types.h ****     for (int i = 0; i < size_; i++) {
 293:C:/Renesas/e2studio_2021_01_workspace_RZA2M_ANPR/ANPR_RZA2M_GR_MANGO/src/tensorflow_lite/tensorflow/lite/kernels/internal\types.h ****       buffer_size *= dims_data[i];
 294:C:/Renesas/e2studio_2021_01_workspace_RZA2M_ANPR/ANPR_RZA2M_GR_MANGO/src/tensorflow_lite/tensorflow/lite/kernels/internal\types.h ****     }
 295:C:/Renesas/e2studio_2021_01_workspace_RZA2M_ANPR/ANPR_RZA2M_GR_MANGO/src/tensorflow_lite/tensorflow/lite/kernels/internal\types.h ****     return buffer_size;
 296:C:/Renesas/e2studio_2021_01_workspace_RZA2M_ANPR/ANPR_RZA2M_GR_MANGO/src/tensorflow_lite/tensorflow/lite/kernels/internal\types.h ****   }
 297:C:/Renesas/e2studio_2021_01_workspace_RZA2M_ANPR/ANPR_RZA2M_GR_MANGO/src/tensorflow_lite/tensorflow/lite/kernels/internal\types.h **** 
 298:C:/Renesas/e2studio_2021_01_workspace_RZA2M_ANPR/ANPR_RZA2M_GR_MANGO/src/tensorflow_lite/tensorflow/lite/kernels/internal\types.h ****   bool operator!=(const RuntimeShape& comp) const { return !((*this) == comp); }
 299:C:/Renesas/e2studio_2021_01_workspace_RZA2M_ANPR/ANPR_RZA2M_GR_MANGO/src/tensorflow_lite/tensorflow/lite/kernels/internal\types.h **** 
 300:C:/Renesas/e2studio_2021_01_workspace_RZA2M_ANPR/ANPR_RZA2M_GR_MANGO/src/tensorflow_lite/tensorflow/lite/kernels/internal\types.h ****  private:
 301:C:/Renesas/e2studio_2021_01_workspace_RZA2M_ANPR/ANPR_RZA2M_GR_MANGO/src/tensorflow_lite/tensorflow/lite/kernels/internal\types.h ****   // For use only by ExtendedShape(), written to guarantee (return-value) copy
 302:C:/Renesas/e2studio_2021_01_workspace_RZA2M_ANPR/ANPR_RZA2M_GR_MANGO/src/tensorflow_lite/tensorflow/lite/kernels/internal\types.h ****   // elision in C++17.
 303:C:/Renesas/e2studio_2021_01_workspace_RZA2M_ANPR/ANPR_RZA2M_GR_MANGO/src/tensorflow_lite/tensorflow/lite/kernels/internal\types.h ****   // This creates a shape padded to the desired size with the specified value.
 304:C:/Renesas/e2studio_2021_01_workspace_RZA2M_ANPR/ANPR_RZA2M_GR_MANGO/src/tensorflow_lite/tensorflow/lite/kernels/internal\types.h ****   RuntimeShape(int new_shape_size, const RuntimeShape& shape, int pad_value)
 305:C:/Renesas/e2studio_2021_01_workspace_RZA2M_ANPR/ANPR_RZA2M_GR_MANGO/src/tensorflow_lite/tensorflow/lite/kernels/internal\types.h ****       : size_(0) {
 306:C:/Renesas/e2studio_2021_01_workspace_RZA2M_ANPR/ANPR_RZA2M_GR_MANGO/src/tensorflow_lite/tensorflow/lite/kernels/internal\types.h ****     // If the following check fails, it is likely because a 4D-only kernel is
 307:C:/Renesas/e2studio_2021_01_workspace_RZA2M_ANPR/ANPR_RZA2M_GR_MANGO/src/tensorflow_lite/tensorflow/lite/kernels/internal\types.h ****     // being used with an array of larger dimension count.
 308:C:/Renesas/e2studio_2021_01_workspace_RZA2M_ANPR/ANPR_RZA2M_GR_MANGO/src/tensorflow_lite/tensorflow/lite/kernels/internal\types.h ****     TFLITE_CHECK_GE(new_shape_size, shape.DimensionsCount());
 309:C:/Renesas/e2studio_2021_01_workspace_RZA2M_ANPR/ANPR_RZA2M_GR_MANGO/src/tensorflow_lite/tensorflow/lite/kernels/internal\types.h ****     Resize(new_shape_size);
 310:C:/Renesas/e2studio_2021_01_workspace_RZA2M_ANPR/ANPR_RZA2M_GR_MANGO/src/tensorflow_lite/tensorflow/lite/kernels/internal\types.h ****     const int size_increase = new_shape_size - shape.DimensionsCount();
 311:C:/Renesas/e2studio_2021_01_workspace_RZA2M_ANPR/ANPR_RZA2M_GR_MANGO/src/tensorflow_lite/tensorflow/lite/kernels/internal\types.h ****     for (int i = 0; i < size_increase; ++i) {
 312:C:/Renesas/e2studio_2021_01_workspace_RZA2M_ANPR/ANPR_RZA2M_GR_MANGO/src/tensorflow_lite/tensorflow/lite/kernels/internal\types.h ****       SetDim(i, pad_value);
 313:C:/Renesas/e2studio_2021_01_workspace_RZA2M_ANPR/ANPR_RZA2M_GR_MANGO/src/tensorflow_lite/tensorflow/lite/kernels/internal\types.h ****     }
 314:C:/Renesas/e2studio_2021_01_workspace_RZA2M_ANPR/ANPR_RZA2M_GR_MANGO/src/tensorflow_lite/tensorflow/lite/kernels/internal\types.h ****     std::memcpy(DimsData() + size_increase, shape.DimsData(),
 315:C:/Renesas/e2studio_2021_01_workspace_RZA2M_ANPR/ANPR_RZA2M_GR_MANGO/src/tensorflow_lite/tensorflow/lite/kernels/internal\types.h ****                 sizeof(int32_t) * shape.DimensionsCount());
 316:C:/Renesas/e2studio_2021_01_workspace_RZA2M_ANPR/ANPR_RZA2M_GR_MANGO/src/tensorflow_lite/tensorflow/lite/kernels/internal\types.h ****   }
 317:C:/Renesas/e2studio_2021_01_workspace_RZA2M_ANPR/ANPR_RZA2M_GR_MANGO/src/tensorflow_lite/tensorflow/lite/kernels/internal\types.h **** 
 318:C:/Renesas/e2studio_2021_01_workspace_RZA2M_ANPR/ANPR_RZA2M_GR_MANGO/src/tensorflow_lite/tensorflow/lite/kernels/internal\types.h ****   int32_t size_;
 319:C:/Renesas/e2studio_2021_01_workspace_RZA2M_ANPR/ANPR_RZA2M_GR_MANGO/src/tensorflow_lite/tensorflow/lite/kernels/internal\types.h ****   union {
 320:C:/Renesas/e2studio_2021_01_workspace_RZA2M_ANPR/ANPR_RZA2M_GR_MANGO/src/tensorflow_lite/tensorflow/lite/kernels/internal\types.h ****     int32_t dims_[kMaxSmallSize];
 321:C:/Renesas/e2studio_2021_01_workspace_RZA2M_ANPR/ANPR_RZA2M_GR_MANGO/src/tensorflow_lite/tensorflow/lite/kernels/internal\types.h ****     int32_t* dims_pointer_;
 322:C:/Renesas/e2studio_2021_01_workspace_RZA2M_ANPR/ANPR_RZA2M_GR_MANGO/src/tensorflow_lite/tensorflow/lite/kernels/internal\types.h ****   };
 323:C:/Renesas/e2studio_2021_01_workspace_RZA2M_ANPR/ANPR_RZA2M_GR_MANGO/src/tensorflow_lite/tensorflow/lite/kernels/internal\types.h **** };
 324:C:/Renesas/e2studio_2021_01_workspace_RZA2M_ANPR/ANPR_RZA2M_GR_MANGO/src/tensorflow_lite/tensorflow/lite/kernels/internal\types.h **** 
 325:C:/Renesas/e2studio_2021_01_workspace_RZA2M_ANPR/ANPR_RZA2M_GR_MANGO/src/tensorflow_lite/tensorflow/lite/kernels/internal\types.h **** // Converts inference-style shape to legacy tflite::Dims<4>.
 326:C:/Renesas/e2studio_2021_01_workspace_RZA2M_ANPR/ANPR_RZA2M_GR_MANGO/src/tensorflow_lite/tensorflow/lite/kernels/internal\types.h **** inline tflite::Dims<4> ToRuntimeDims(const tflite::RuntimeShape& array_shape) {
 327:C:/Renesas/e2studio_2021_01_workspace_RZA2M_ANPR/ANPR_RZA2M_GR_MANGO/src/tensorflow_lite/tensorflow/lite/kernels/internal\types.h ****   tflite::Dims<4> result;
 328:C:/Renesas/e2studio_2021_01_workspace_RZA2M_ANPR/ANPR_RZA2M_GR_MANGO/src/tensorflow_lite/tensorflow/lite/kernels/internal\types.h ****   const int dimensions_count = array_shape.DimensionsCount();
 329:C:/Renesas/e2studio_2021_01_workspace_RZA2M_ANPR/ANPR_RZA2M_GR_MANGO/src/tensorflow_lite/tensorflow/lite/kernels/internal\types.h ****   TFLITE_CHECK_LE(dimensions_count, 4);
 330:C:/Renesas/e2studio_2021_01_workspace_RZA2M_ANPR/ANPR_RZA2M_GR_MANGO/src/tensorflow_lite/tensorflow/lite/kernels/internal\types.h ****   int cum_prod = 1;
 331:C:/Renesas/e2studio_2021_01_workspace_RZA2M_ANPR/ANPR_RZA2M_GR_MANGO/src/tensorflow_lite/tensorflow/lite/kernels/internal\types.h ****   for (int i = 0; i < 4; i++) {
 332:C:/Renesas/e2studio_2021_01_workspace_RZA2M_ANPR/ANPR_RZA2M_GR_MANGO/src/tensorflow_lite/tensorflow/lite/kernels/internal\types.h ****     const int new_dim =
 333:C:/Renesas/e2studio_2021_01_workspace_RZA2M_ANPR/ANPR_RZA2M_GR_MANGO/src/tensorflow_lite/tensorflow/lite/kernels/internal\types.h ****         (i < dimensions_count) ? array_shape.Dims(dimensions_count - 1 - i) : 1;
 334:C:/Renesas/e2studio_2021_01_workspace_RZA2M_ANPR/ANPR_RZA2M_GR_MANGO/src/tensorflow_lite/tensorflow/lite/kernels/internal\types.h ****     result.sizes[i] = new_dim;
 335:C:/Renesas/e2studio_2021_01_workspace_RZA2M_ANPR/ANPR_RZA2M_GR_MANGO/src/tensorflow_lite/tensorflow/lite/kernels/internal\types.h ****     result.strides[i] = cum_prod;
 336:C:/Renesas/e2studio_2021_01_workspace_RZA2M_ANPR/ANPR_RZA2M_GR_MANGO/src/tensorflow_lite/tensorflow/lite/kernels/internal\types.h ****     cum_prod *= new_dim;
 337:C:/Renesas/e2studio_2021_01_workspace_RZA2M_ANPR/ANPR_RZA2M_GR_MANGO/src/tensorflow_lite/tensorflow/lite/kernels/internal\types.h ****   }
 338:C:/Renesas/e2studio_2021_01_workspace_RZA2M_ANPR/ANPR_RZA2M_GR_MANGO/src/tensorflow_lite/tensorflow/lite/kernels/internal\types.h ****   return result;
 339:C:/Renesas/e2studio_2021_01_workspace_RZA2M_ANPR/ANPR_RZA2M_GR_MANGO/src/tensorflow_lite/tensorflow/lite/kernels/internal\types.h **** }
 340:C:/Renesas/e2studio_2021_01_workspace_RZA2M_ANPR/ANPR_RZA2M_GR_MANGO/src/tensorflow_lite/tensorflow/lite/kernels/internal\types.h **** 
 341:C:/Renesas/e2studio_2021_01_workspace_RZA2M_ANPR/ANPR_RZA2M_GR_MANGO/src/tensorflow_lite/tensorflow/lite/kernels/internal\types.h **** // TODO(b/80418076): Move to legacy ops file, update invocations.
 342:C:/Renesas/e2studio_2021_01_workspace_RZA2M_ANPR/ANPR_RZA2M_GR_MANGO/src/tensorflow_lite/tensorflow/lite/kernels/internal\types.h **** inline RuntimeShape DimsToShape(const tflite::Dims<4>& dims) {
 343:C:/Renesas/e2studio_2021_01_workspace_RZA2M_ANPR/ANPR_RZA2M_GR_MANGO/src/tensorflow_lite/tensorflow/lite/kernels/internal\types.h ****   return RuntimeShape(
 344:C:/Renesas/e2studio_2021_01_workspace_RZA2M_ANPR/ANPR_RZA2M_GR_MANGO/src/tensorflow_lite/tensorflow/lite/kernels/internal\types.h ****       {dims.sizes[3], dims.sizes[2], dims.sizes[1], dims.sizes[0]});
 345:C:/Renesas/e2studio_2021_01_workspace_RZA2M_ANPR/ANPR_RZA2M_GR_MANGO/src/tensorflow_lite/tensorflow/lite/kernels/internal\types.h **** }
 346:C:/Renesas/e2studio_2021_01_workspace_RZA2M_ANPR/ANPR_RZA2M_GR_MANGO/src/tensorflow_lite/tensorflow/lite/kernels/internal\types.h **** 
 347:C:/Renesas/e2studio_2021_01_workspace_RZA2M_ANPR/ANPR_RZA2M_GR_MANGO/src/tensorflow_lite/tensorflow/lite/kernels/internal\types.h **** // Gets next index to iterate through a multidimensional array.
 348:C:/Renesas/e2studio_2021_01_workspace_RZA2M_ANPR/ANPR_RZA2M_GR_MANGO/src/tensorflow_lite/tensorflow/lite/kernels/internal\types.h **** inline bool NextIndex(const int num_dims, const int* dims, int* current) {
 349:C:/Renesas/e2studio_2021_01_workspace_RZA2M_ANPR/ANPR_RZA2M_GR_MANGO/src/tensorflow_lite/tensorflow/lite/kernels/internal\types.h ****   if (num_dims == 0) {
 350:C:/Renesas/e2studio_2021_01_workspace_RZA2M_ANPR/ANPR_RZA2M_GR_MANGO/src/tensorflow_lite/tensorflow/lite/kernels/internal\types.h ****     return false;
 351:C:/Renesas/e2studio_2021_01_workspace_RZA2M_ANPR/ANPR_RZA2M_GR_MANGO/src/tensorflow_lite/tensorflow/lite/kernels/internal\types.h ****   }
 352:C:/Renesas/e2studio_2021_01_workspace_RZA2M_ANPR/ANPR_RZA2M_GR_MANGO/src/tensorflow_lite/tensorflow/lite/kernels/internal\types.h ****   TFLITE_DCHECK(dims != nullptr);
 353:C:/Renesas/e2studio_2021_01_workspace_RZA2M_ANPR/ANPR_RZA2M_GR_MANGO/src/tensorflow_lite/tensorflow/lite/kernels/internal\types.h ****   TFLITE_DCHECK(current != nullptr);
 354:C:/Renesas/e2studio_2021_01_workspace_RZA2M_ANPR/ANPR_RZA2M_GR_MANGO/src/tensorflow_lite/tensorflow/lite/kernels/internal\types.h ****   int carry = 1;
 355:C:/Renesas/e2studio_2021_01_workspace_RZA2M_ANPR/ANPR_RZA2M_GR_MANGO/src/tensorflow_lite/tensorflow/lite/kernels/internal\types.h ****   for (int idx = num_dims - 1; idx >= 0; --idx) {
 356:C:/Renesas/e2studio_2021_01_workspace_RZA2M_ANPR/ANPR_RZA2M_GR_MANGO/src/tensorflow_lite/tensorflow/lite/kernels/internal\types.h ****     int current_val = current[idx] + carry;
 357:C:/Renesas/e2studio_2021_01_workspace_RZA2M_ANPR/ANPR_RZA2M_GR_MANGO/src/tensorflow_lite/tensorflow/lite/kernels/internal\types.h ****     TFLITE_DCHECK_GE(dims[idx], current_val);
 358:C:/Renesas/e2studio_2021_01_workspace_RZA2M_ANPR/ANPR_RZA2M_GR_MANGO/src/tensorflow_lite/tensorflow/lite/kernels/internal\types.h ****     if (dims[idx] == current_val) {
 359:C:/Renesas/e2studio_2021_01_workspace_RZA2M_ANPR/ANPR_RZA2M_GR_MANGO/src/tensorflow_lite/tensorflow/lite/kernels/internal\types.h ****       current[idx] = 0;
 360:C:/Renesas/e2studio_2021_01_workspace_RZA2M_ANPR/ANPR_RZA2M_GR_MANGO/src/tensorflow_lite/tensorflow/lite/kernels/internal\types.h ****     } else {
 361:C:/Renesas/e2studio_2021_01_workspace_RZA2M_ANPR/ANPR_RZA2M_GR_MANGO/src/tensorflow_lite/tensorflow/lite/kernels/internal\types.h ****       current[idx] = current_val;
 362:C:/Renesas/e2studio_2021_01_workspace_RZA2M_ANPR/ANPR_RZA2M_GR_MANGO/src/tensorflow_lite/tensorflow/lite/kernels/internal\types.h ****       carry = 0;
 363:C:/Renesas/e2studio_2021_01_workspace_RZA2M_ANPR/ANPR_RZA2M_GR_MANGO/src/tensorflow_lite/tensorflow/lite/kernels/internal\types.h ****       break;
 364:C:/Renesas/e2studio_2021_01_workspace_RZA2M_ANPR/ANPR_RZA2M_GR_MANGO/src/tensorflow_lite/tensorflow/lite/kernels/internal\types.h ****     }
 365:C:/Renesas/e2studio_2021_01_workspace_RZA2M_ANPR/ANPR_RZA2M_GR_MANGO/src/tensorflow_lite/tensorflow/lite/kernels/internal\types.h ****   }
 366:C:/Renesas/e2studio_2021_01_workspace_RZA2M_ANPR/ANPR_RZA2M_GR_MANGO/src/tensorflow_lite/tensorflow/lite/kernels/internal\types.h ****   return (carry == 0);
 367:C:/Renesas/e2studio_2021_01_workspace_RZA2M_ANPR/ANPR_RZA2M_GR_MANGO/src/tensorflow_lite/tensorflow/lite/kernels/internal\types.h **** }
 368:C:/Renesas/e2studio_2021_01_workspace_RZA2M_ANPR/ANPR_RZA2M_GR_MANGO/src/tensorflow_lite/tensorflow/lite/kernels/internal\types.h **** 
 369:C:/Renesas/e2studio_2021_01_workspace_RZA2M_ANPR/ANPR_RZA2M_GR_MANGO/src/tensorflow_lite/tensorflow/lite/kernels/internal\types.h **** // Gets offset of index if reducing on axis. When reducing, the flattened offset
 370:C:/Renesas/e2studio_2021_01_workspace_RZA2M_ANPR/ANPR_RZA2M_GR_MANGO/src/tensorflow_lite/tensorflow/lite/kernels/internal\types.h **** // will not change, if the input index changes on the given axis. For example,
 371:C:/Renesas/e2studio_2021_01_workspace_RZA2M_ANPR/ANPR_RZA2M_GR_MANGO/src/tensorflow_lite/tensorflow/lite/kernels/internal\types.h **** // if you have a 3D tensor and you are reducing to 2D by eliminating axis 0,
 372:C:/Renesas/e2studio_2021_01_workspace_RZA2M_ANPR/ANPR_RZA2M_GR_MANGO/src/tensorflow_lite/tensorflow/lite/kernels/internal\types.h **** // then index (0, 1, 2) and index (1, 1, 2) will map to the same flattened
 373:C:/Renesas/e2studio_2021_01_workspace_RZA2M_ANPR/ANPR_RZA2M_GR_MANGO/src/tensorflow_lite/tensorflow/lite/kernels/internal\types.h **** // offset.
 374:C:/Renesas/e2studio_2021_01_workspace_RZA2M_ANPR/ANPR_RZA2M_GR_MANGO/src/tensorflow_lite/tensorflow/lite/kernels/internal\types.h **** // TODO(kanlig): uses Dims to represent dimensions.
 375:C:/Renesas/e2studio_2021_01_workspace_RZA2M_ANPR/ANPR_RZA2M_GR_MANGO/src/tensorflow_lite/tensorflow/lite/kernels/internal\types.h **** inline size_t ReducedOutputOffset(const int num_dims, const int* dims,
 376:C:/Renesas/e2studio_2021_01_workspace_RZA2M_ANPR/ANPR_RZA2M_GR_MANGO/src/tensorflow_lite/tensorflow/lite/kernels/internal\types.h ****                                   const int* index, const int num_axis,
 377:C:/Renesas/e2studio_2021_01_workspace_RZA2M_ANPR/ANPR_RZA2M_GR_MANGO/src/tensorflow_lite/tensorflow/lite/kernels/internal\types.h ****                                   const int* axis) {
 378:C:/Renesas/e2studio_2021_01_workspace_RZA2M_ANPR/ANPR_RZA2M_GR_MANGO/src/tensorflow_lite/tensorflow/lite/kernels/internal\types.h ****   if (num_dims == 0) {
 379:C:/Renesas/e2studio_2021_01_workspace_RZA2M_ANPR/ANPR_RZA2M_GR_MANGO/src/tensorflow_lite/tensorflow/lite/kernels/internal\types.h ****     return 0;
 380:C:/Renesas/e2studio_2021_01_workspace_RZA2M_ANPR/ANPR_RZA2M_GR_MANGO/src/tensorflow_lite/tensorflow/lite/kernels/internal\types.h ****   }
 381:C:/Renesas/e2studio_2021_01_workspace_RZA2M_ANPR/ANPR_RZA2M_GR_MANGO/src/tensorflow_lite/tensorflow/lite/kernels/internal\types.h ****   TFLITE_DCHECK(dims != nullptr);
 382:C:/Renesas/e2studio_2021_01_workspace_RZA2M_ANPR/ANPR_RZA2M_GR_MANGO/src/tensorflow_lite/tensorflow/lite/kernels/internal\types.h ****   TFLITE_DCHECK(index != nullptr);
 383:C:/Renesas/e2studio_2021_01_workspace_RZA2M_ANPR/ANPR_RZA2M_GR_MANGO/src/tensorflow_lite/tensorflow/lite/kernels/internal\types.h ****   size_t offset = 0;
 384:C:/Renesas/e2studio_2021_01_workspace_RZA2M_ANPR/ANPR_RZA2M_GR_MANGO/src/tensorflow_lite/tensorflow/lite/kernels/internal\types.h ****   for (int idx = 0; idx < num_dims; ++idx) {
 385:C:/Renesas/e2studio_2021_01_workspace_RZA2M_ANPR/ANPR_RZA2M_GR_MANGO/src/tensorflow_lite/tensorflow/lite/kernels/internal\types.h ****     // if we need to skip this axis
 386:C:/Renesas/e2studio_2021_01_workspace_RZA2M_ANPR/ANPR_RZA2M_GR_MANGO/src/tensorflow_lite/tensorflow/lite/kernels/internal\types.h ****     bool is_axis = false;
 387:C:/Renesas/e2studio_2021_01_workspace_RZA2M_ANPR/ANPR_RZA2M_GR_MANGO/src/tensorflow_lite/tensorflow/lite/kernels/internal\types.h ****     if (axis != nullptr) {
 388:C:/Renesas/e2studio_2021_01_workspace_RZA2M_ANPR/ANPR_RZA2M_GR_MANGO/src/tensorflow_lite/tensorflow/lite/kernels/internal\types.h ****       for (int axis_idx = 0; axis_idx < num_axis; ++axis_idx) {
 389:C:/Renesas/e2studio_2021_01_workspace_RZA2M_ANPR/ANPR_RZA2M_GR_MANGO/src/tensorflow_lite/tensorflow/lite/kernels/internal\types.h ****         if (idx == axis[axis_idx]) {
 390:C:/Renesas/e2studio_2021_01_workspace_RZA2M_ANPR/ANPR_RZA2M_GR_MANGO/src/tensorflow_lite/tensorflow/lite/kernels/internal\types.h ****           is_axis = true;
 391:C:/Renesas/e2studio_2021_01_workspace_RZA2M_ANPR/ANPR_RZA2M_GR_MANGO/src/tensorflow_lite/tensorflow/lite/kernels/internal\types.h ****           break;
 392:C:/Renesas/e2studio_2021_01_workspace_RZA2M_ANPR/ANPR_RZA2M_GR_MANGO/src/tensorflow_lite/tensorflow/lite/kernels/internal\types.h ****         }
 393:C:/Renesas/e2studio_2021_01_workspace_RZA2M_ANPR/ANPR_RZA2M_GR_MANGO/src/tensorflow_lite/tensorflow/lite/kernels/internal\types.h ****       }
 394:C:/Renesas/e2studio_2021_01_workspace_RZA2M_ANPR/ANPR_RZA2M_GR_MANGO/src/tensorflow_lite/tensorflow/lite/kernels/internal\types.h ****     }
 395:C:/Renesas/e2studio_2021_01_workspace_RZA2M_ANPR/ANPR_RZA2M_GR_MANGO/src/tensorflow_lite/tensorflow/lite/kernels/internal\types.h ****     if (!is_axis) {
 396:C:/Renesas/e2studio_2021_01_workspace_RZA2M_ANPR/ANPR_RZA2M_GR_MANGO/src/tensorflow_lite/tensorflow/lite/kernels/internal\types.h ****       offset = offset * static_cast<size_t>(dims[idx]) +
 397:C:/Renesas/e2studio_2021_01_workspace_RZA2M_ANPR/ANPR_RZA2M_GR_MANGO/src/tensorflow_lite/tensorflow/lite/kernels/internal\types.h ****                static_cast<size_t>(index[idx]);
 398:C:/Renesas/e2studio_2021_01_workspace_RZA2M_ANPR/ANPR_RZA2M_GR_MANGO/src/tensorflow_lite/tensorflow/lite/kernels/internal\types.h ****     }
 399:C:/Renesas/e2studio_2021_01_workspace_RZA2M_ANPR/ANPR_RZA2M_GR_MANGO/src/tensorflow_lite/tensorflow/lite/kernels/internal\types.h ****   }
 400:C:/Renesas/e2studio_2021_01_workspace_RZA2M_ANPR/ANPR_RZA2M_GR_MANGO/src/tensorflow_lite/tensorflow/lite/kernels/internal\types.h ****   return offset;
 401:C:/Renesas/e2studio_2021_01_workspace_RZA2M_ANPR/ANPR_RZA2M_GR_MANGO/src/tensorflow_lite/tensorflow/lite/kernels/internal\types.h **** }
 402:C:/Renesas/e2studio_2021_01_workspace_RZA2M_ANPR/ANPR_RZA2M_GR_MANGO/src/tensorflow_lite/tensorflow/lite/kernels/internal\types.h **** 
 403:C:/Renesas/e2studio_2021_01_workspace_RZA2M_ANPR/ANPR_RZA2M_GR_MANGO/src/tensorflow_lite/tensorflow/lite/kernels/internal\types.h **** inline int Offset(const RuntimeShape& shape, int i0, int i1, int i2, int i3) {
 404:C:/Renesas/e2studio_2021_01_workspace_RZA2M_ANPR/ANPR_RZA2M_GR_MANGO/src/tensorflow_lite/tensorflow/lite/kernels/internal\types.h ****   TFLITE_DCHECK_EQ(shape.DimensionsCount(), 4);
 1303              		.loc 5 404 0
 1304 0498 040055E3 		cmp	r5, #4
 1305 049c B002001A 		bne	.L233
 405:C:/Renesas/e2studio_2021_01_workspace_RZA2M_ANPR/ANPR_RZA2M_GR_MANGO/src/tensorflow_lite/tensorflow/lite/kernels/internal\types.h ****   const int* dims_data = reinterpret_cast<const int*>(shape.DimsDataUpTo5D());
 406:C:/Renesas/e2studio_2021_01_workspace_RZA2M_ANPR/ANPR_RZA2M_GR_MANGO/src/tensorflow_lite/tensorflow/lite/kernels/internal\types.h ****   TFLITE_DCHECK(i0 >= 0 && i0 < dims_data[0]);
 1306              		.loc 5 406 0
 1307 04a0 BC209DE5 		ldr	r2, [sp, #188]
 1308 04a4 0B0052E1 		cmp	r2, fp
 1309 04a8 A70200DA 		ble	.L234
 407:C:/Renesas/e2studio_2021_01_workspace_RZA2M_ANPR/ANPR_RZA2M_GR_MANGO/src/tensorflow_lite/tensorflow/lite/kernels/internal\types.h ****   TFLITE_DCHECK(i1 >= 0 && i1 < dims_data[1]);
 1310              		.loc 5 407 0
 1311 04ac C0209DE5 		ldr	r2, [sp, #192]
 1312 04b0 070052E1 		cmp	r2, r7
 1313 04b4 A70200DA 		ble	.L235
 408:C:/Renesas/e2studio_2021_01_workspace_RZA2M_ANPR/ANPR_RZA2M_GR_MANGO/src/tensorflow_lite/tensorflow/lite/kernels/internal\types.h ****   TFLITE_DCHECK(i2 >= 0 && i2 < dims_data[2]);
 1314              		.loc 5 408 0
 1315 04b8 C4109DE5 		ldr	r1, [sp, #196]
 1316 04bc 000051E3 		cmp	r1, #0
 1317 04c0 A30200DA 		ble	.L236
 409:C:/Renesas/e2studio_2021_01_workspace_RZA2M_ANPR/ANPR_RZA2M_GR_MANGO/src/tensorflow_lite/tensorflow/lite/kernels/internal\types.h ****   TFLITE_DCHECK(i3 >= 0 && i3 < dims_data[3]);
 1318              		.loc 5 409 0
 1319 04c4 C8009DE5 		ldr	r0, [sp, #200]
 1320 04c8 000050E3 		cmp	r0, #0
 1321 04cc A20200DA 		ble	.L238
 1322 04d0 2C309DE5 		ldr	r3, [sp, #44]
 1323              	.LBE838:
 1324              	.LBE837:
 1325              	.LBB843:
  88:C:/Renesas/e2studio_2021_01_workspace_RZA2M_ANPR/ANPR_RZA2M_GR_MANGO/src/tensorflow_lite/tensorflow/lite/kernels/internal/reference\space_to_batch_nd.h ****             out_w * block_shape_width + shift_w < padding_left ||
 1326              		.loc 4 88 0
 1327 04d4 0040A0E3 		mov	r4, #0
 1328 04d8 14C09DE5 		ldr	ip, [sp, #20]
 1329 04dc 0350A0E1 		mov	r5, r3
 1330 04e0 0C6043E0 		sub	r6, r3, ip
 1331 04e4 160000EA 		b	.L237
 1332              	.LVL137:
 1333              	.L239:
  91:C:/Renesas/e2studio_2021_01_workspace_RZA2M_ANPR/ANPR_RZA2M_GR_MANGO/src/tensorflow_lite/tensorflow/lite/kernels/internal/reference\space_to_batch_nd.h ****           // This may not execute correctly when pad_value != 0 and T != uint8.
  92:C:/Renesas/e2studio_2021_01_workspace_RZA2M_ANPR/ANPR_RZA2M_GR_MANGO/src/tensorflow_lite/tensorflow/lite/kernels/internal/reference\space_to_batch_nd.h ****           memset(out, pad_value, depth * sizeof(T));
 1334              		.loc 4 92 0
 1335 04e8 08209DE5 		ldr	r2, [sp, #8]
 1336              	.LBE843:
 1337              	.LBE856:
  84:C:/Renesas/e2studio_2021_01_workspace_RZA2M_ANPR/ANPR_RZA2M_GR_MANGO/src/tensorflow_lite/tensorflow/lite/kernels/internal/reference\space_to_batch_nd.h ****         T* out = output_data + Offset(output_shape, out_b, out_h, out_w, 0);
 1338              		.loc 4 84 0
 1339 04ec 014084E2 		add	r4, r4, #1
 1340              	.LVL138:
 1341              	.LBB857:
 1342              	.LBB844:
 1343              		.loc 4 92 0
 1344 04f0 0C109DE5 		ldr	r1, [sp, #12]
 1345 04f4 FEFFFFEB 		bl	memset
 1346              	.LVL139:
 1347              	.LBE844:
 1348              	.LBE857:
  84:C:/Renesas/e2studio_2021_01_workspace_RZA2M_ANPR/ANPR_RZA2M_GR_MANGO/src/tensorflow_lite/tensorflow/lite/kernels/internal/reference\space_to_batch_nd.h ****         T* out = output_data + Offset(output_shape, out_b, out_h, out_w, 0);
 1349              		.loc 4 84 0
 1350 04f8 080054E1 		cmp	r4, r8
 1351 04fc 4000000A 		beq	.L519
 1352              	.LVL140:
 1353              	.L249:
 1354              	.LBB858:
 1355              	.LBB845:
 1356              	.LBB839:
 404:C:/Renesas/e2studio_2021_01_workspace_RZA2M_ANPR/ANPR_RZA2M_GR_MANGO/src/tensorflow_lite/tensorflow/lite/kernels/internal\types.h ****   const int* dims_data = reinterpret_cast<const int*>(shape.DimsDataUpTo5D());
 1357              		.loc 5 404 0
 1358 0500 B8209DE5 		ldr	r2, [sp, #184]
 1359 0504 040052E3 		cmp	r2, #4
 1360 0508 9502001A 		bne	.L233
 406:C:/Renesas/e2studio_2021_01_workspace_RZA2M_ANPR/ANPR_RZA2M_GR_MANGO/src/tensorflow_lite/tensorflow/lite/kernels/internal\types.h ****   TFLITE_DCHECK(i1 >= 0 && i1 < dims_data[1]);
 1361              		.loc 5 406 0
 1362 050c BC209DE5 		ldr	r2, [sp, #188]
 1363 0510 0B0052E1 		cmp	r2, fp
 1364 0514 8C0200DA 		ble	.L234
 407:C:/Renesas/e2studio_2021_01_workspace_RZA2M_ANPR/ANPR_RZA2M_GR_MANGO/src/tensorflow_lite/tensorflow/lite/kernels/internal\types.h ****   TFLITE_DCHECK(i2 >= 0 && i2 < dims_data[2]);
 1365              		.loc 5 407 0
 1366 0518 C0209DE5 		ldr	r2, [sp, #192]
 1367 051c 070052E1 		cmp	r2, r7
 1368 0520 8C0200DA 		ble	.L235
 408:C:/Renesas/e2studio_2021_01_workspace_RZA2M_ANPR/ANPR_RZA2M_GR_MANGO/src/tensorflow_lite/tensorflow/lite/kernels/internal\types.h ****   TFLITE_DCHECK(i3 >= 0 && i3 < dims_data[3]);
 1369              		.loc 5 408 0
 1370 0524 C4109DE5 		ldr	r1, [sp, #196]
 1371 0528 010054E1 		cmp	r4, r1
 1372 052c 880200AA 		bge	.L236
 1373              		.loc 5 409 0
 1374 0530 C8009DE5 		ldr	r0, [sp, #200]
 1375 0534 0A6086E0 		add	r6, r6, r10
 1376 0538 0A5085E0 		add	r5, r5, r10
 1377 053c 000050E3 		cmp	r0, #0
 1378 0540 850200DA 		ble	.L238
 1379              	.LVL141:
 1380              	.L237:
 410:C:/Renesas/e2studio_2021_01_workspace_RZA2M_ANPR/ANPR_RZA2M_GR_MANGO/src/tensorflow_lite/tensorflow/lite/kernels/internal\types.h ****   return ((i0 * dims_data[1] + i1) * dims_data[2] + i2) * dims_data[3] + i3;
 1381              		.loc 5 410 0
 1382 0544 9B7222E0 		mla	r2, fp, r2, r7
 1383              	.LBE839:
 1384              	.LBE845:
 1385              	.LBB846:
  86:C:/Renesas/e2studio_2021_01_workspace_RZA2M_ANPR/ANPR_RZA2M_GR_MANGO/src/tensorflow_lite/tensorflow/lite/kernels/internal/reference\space_to_batch_nd.h ****             out_h * block_shape_height + shift_h >=
 1386              		.loc 4 86 0
 1387 0548 00309DE5 		ldr	r3, [sp]
 1388 054c 030059E1 		cmp	r9, r3
 1389              	.LBE846:
  85:C:/Renesas/e2studio_2021_01_workspace_RZA2M_ANPR/ANPR_RZA2M_GR_MANGO/src/tensorflow_lite/tensorflow/lite/kernels/internal/reference\space_to_batch_nd.h ****         if (out_h * block_shape_height + shift_h < padding_top ||
 1390              		.loc 4 85 0
 1391 0550 04309DE5 		ldr	r3, [sp, #4]
 1392              	.LBB847:
 1393              	.LBB840:
 1394              		.loc 5 410 0
 1395 0554 914222E0 		mla	r2, r1, r2, r4
 1396              	.LBE840:
 1397              	.LBE847:
  85:C:/Renesas/e2studio_2021_01_workspace_RZA2M_ANPR/ANPR_RZA2M_GR_MANGO/src/tensorflow_lite/tensorflow/lite/kernels/internal/reference\space_to_batch_nd.h ****         if (out_h * block_shape_height + shift_h < padding_top ||
 1398              		.loc 4 85 0
 1399 0558 903220E0 		mla	r0, r0, r2, r3
 1400              	.LVL142:
 1401              	.LBB848:
  86:C:/Renesas/e2studio_2021_01_workspace_RZA2M_ANPR/ANPR_RZA2M_GR_MANGO/src/tensorflow_lite/tensorflow/lite/kernels/internal/reference\space_to_batch_nd.h ****             out_h * block_shape_height + shift_h >=
 1402              		.loc 4 86 0
 1403 055c E1FFFFBA 		blt	.L239
 1404 0560 10309DE5 		ldr	r3, [sp, #16]
 1405 0564 090053E1 		cmp	r3, r9
 1406 0568 DEFFFFDA 		ble	.L239
  88:C:/Renesas/e2studio_2021_01_workspace_RZA2M_ANPR/ANPR_RZA2M_GR_MANGO/src/tensorflow_lite/tensorflow/lite/kernels/internal/reference\space_to_batch_nd.h ****             out_w * block_shape_width + shift_w < padding_left ||
 1407              		.loc 4 88 0
 1408 056c 14309DE5 		ldr	r3, [sp, #20]
 1409 0570 050053E1 		cmp	r3, r5
 1410 0574 DBFFFFCA 		bgt	.L239
  89:C:/Renesas/e2studio_2021_01_workspace_RZA2M_ANPR/ANPR_RZA2M_GR_MANGO/src/tensorflow_lite/tensorflow/lite/kernels/internal/reference\space_to_batch_nd.h ****             out_w * block_shape_width + shift_w >= padding_left + input_width) {
 1411              		.loc 4 89 0
 1412 0578 18309DE5 		ldr	r3, [sp, #24]
 1413 057c 050053E1 		cmp	r3, r5
 1414 0580 D8FFFFDA 		ble	.L239
 1415              	.LVL143:
 1416              	.LBB821:
 1417              	.LBB822:
 1418              	.LBB823:
 404:C:/Renesas/e2studio_2021_01_workspace_RZA2M_ANPR/ANPR_RZA2M_GR_MANGO/src/tensorflow_lite/tensorflow/lite/kernels/internal\types.h ****   const int* dims_data = reinterpret_cast<const int*>(shape.DimsDataUpTo5D());
 1419              		.loc 5 404 0
 1420 0584 A0209DE5 		ldr	r2, [sp, #160]
 1421 0588 040052E3 		cmp	r2, #4
 1422 058c 7602001A 		bne	.L520
 406:C:/Renesas/e2studio_2021_01_workspace_RZA2M_ANPR/ANPR_RZA2M_GR_MANGO/src/tensorflow_lite/tensorflow/lite/kernels/internal\types.h ****   TFLITE_DCHECK(i1 >= 0 && i1 < dims_data[1]);
 1423              		.loc 5 406 0
 1424 0590 A4209DE5 		ldr	r2, [sp, #164]
 1425 0594 20309DE5 		ldr	r3, [sp, #32]
 1426 0598 020053E1 		cmp	r3, r2
 1427 059c 780200AA 		bge	.L521
 407:C:/Renesas/e2studio_2021_01_workspace_RZA2M_ANPR/ANPR_RZA2M_GR_MANGO/src/tensorflow_lite/tensorflow/lite/kernels/internal\types.h ****   TFLITE_DCHECK(i2 >= 0 && i2 < dims_data[2]);
 1428              		.loc 5 407 0
 1429 05a0 1C309DE5 		ldr	r3, [sp, #28]
 1430 05a4 000053E3 		cmp	r3, #0
 1431 05a8 740200BA 		blt	.L244
 1432 05ac A8C09DE5 		ldr	ip, [sp, #168]
 1433 05b0 0C0053E1 		cmp	r3, ip
 1434 05b4 710200AA 		bge	.L244
 408:C:/Renesas/e2studio_2021_01_workspace_RZA2M_ANPR/ANPR_RZA2M_GR_MANGO/src/tensorflow_lite/tensorflow/lite/kernels/internal\types.h ****   TFLITE_DCHECK(i3 >= 0 && i3 < dims_data[3]);
 1435              		.loc 5 408 0
 1436 05b8 000056E3 		cmp	r6, #0
 1437 05bc 6E0200BA 		blt	.L246
 1438 05c0 AC109DE5 		ldr	r1, [sp, #172]
 1439 05c4 010056E1 		cmp	r6, r1
 1440 05c8 6B0200AA 		bge	.L246
 409:C:/Renesas/e2studio_2021_01_workspace_RZA2M_ANPR/ANPR_RZA2M_GR_MANGO/src/tensorflow_lite/tensorflow/lite/kernels/internal\types.h ****   return ((i0 * dims_data[1] + i1) * dims_data[2] + i2) * dims_data[3] + i3;
 1441              		.loc 5 409 0
 1442 05cc B0E09DE5 		ldr	lr, [sp, #176]
 1443 05d0 00005EE3 		cmp	lr, #0
 1444 05d4 670200DA 		ble	.L522
 1445              	.LVL144:
 1446 05d8 0320A0E1 		mov	r2, r3
 1447              		.loc 5 410 0
 1448 05dc 20309DE5 		ldr	r3, [sp, #32]
 1449              	.LVL145:
 1450              	.LBE823:
 1451              	.LBE822:
 1452              	.LBE821:
 1453              	.LBE848:
 1454              	.LBE858:
  84:C:/Renesas/e2studio_2021_01_workspace_RZA2M_ANPR/ANPR_RZA2M_GR_MANGO/src/tensorflow_lite/tensorflow/lite/kernels/internal/reference\space_to_batch_nd.h ****         T* out = output_data + Offset(output_shape, out_b, out_h, out_w, 0);
 1455              		.loc 4 84 0
 1456 05e0 014084E2 		add	r4, r4, #1
 1457              	.LVL146:
 1458              	.LBB859:
 1459              	.LBB849:
 1460              	.LBB832:
 1461              	.LBB828:
 1462              	.LBB824:
 1463              		.loc 5 410 0
 1464 05e4 9C232CE0 		mla	ip, ip, r3, r2
 1465              	.LVL147:
 1466              	.LBE824:
 1467              	.LBE828:
  93:C:/Renesas/e2studio_2021_01_workspace_RZA2M_ANPR/ANPR_RZA2M_GR_MANGO/src/tensorflow_lite/tensorflow/lite/kernels/internal/reference\space_to_batch_nd.h ****         } else {
  94:C:/Renesas/e2studio_2021_01_workspace_RZA2M_ANPR/ANPR_RZA2M_GR_MANGO/src/tensorflow_lite/tensorflow/lite/kernels/internal/reference\space_to_batch_nd.h ****           const T* in =
  95:C:/Renesas/e2studio_2021_01_workspace_RZA2M_ANPR/ANPR_RZA2M_GR_MANGO/src/tensorflow_lite/tensorflow/lite/kernels/internal/reference\space_to_batch_nd.h ****               input1_data +
  96:C:/Renesas/e2studio_2021_01_workspace_RZA2M_ANPR/ANPR_RZA2M_GR_MANGO/src/tensorflow_lite/tensorflow/lite/kernels/internal/reference\space_to_batch_nd.h ****               Offset(input1_shape, input_batch,
  97:C:/Renesas/e2studio_2021_01_workspace_RZA2M_ANPR/ANPR_RZA2M_GR_MANGO/src/tensorflow_lite/tensorflow/lite/kernels/internal/reference\space_to_batch_nd.h ****                      (out_h * block_shape_height + shift_h) - padding_top,
  98:C:/Renesas/e2studio_2021_01_workspace_RZA2M_ANPR/ANPR_RZA2M_GR_MANGO/src/tensorflow_lite/tensorflow/lite/kernels/internal/reference\space_to_batch_nd.h ****                      (out_w * block_shape_width + shift_w) - padding_left, 0);
  99:C:/Renesas/e2studio_2021_01_workspace_RZA2M_ANPR/ANPR_RZA2M_GR_MANGO/src/tensorflow_lite/tensorflow/lite/kernels/internal/reference\space_to_batch_nd.h ****           memcpy(out, in, depth * sizeof(T));
 1468              		.loc 4 99 0
 1469 05e8 24309DE5 		ldr	r3, [sp, #36]
 1470 05ec 08209DE5 		ldr	r2, [sp, #8]
 1471              	.LBB829:
 1472              	.LBB825:
 1473              		.loc 5 410 0
 1474 05f0 916C21E0 		mla	r1, r1, ip, r6
 1475              	.LVL148:
 1476              	.LBE825:
 1477              	.LBE829:
 1478              		.loc 4 99 0
 1479 05f4 9E3121E0 		mla	r1, lr, r1, r3
 1480 05f8 FEFFFFEB 		bl	memcpy
 1481              	.LVL149:
 1482              	.LBE832:
 1483              	.LBE849:
 1484              	.LBE859:
  84:C:/Renesas/e2studio_2021_01_workspace_RZA2M_ANPR/ANPR_RZA2M_GR_MANGO/src/tensorflow_lite/tensorflow/lite/kernels/internal/reference\space_to_batch_nd.h ****         T* out = output_data + Offset(output_shape, out_b, out_h, out_w, 0);
 1485              		.loc 4 84 0
 1486 05fc 080054E1 		cmp	r4, r8
 1487 0600 BEFFFF1A 		bne	.L249
 1488              	.LVL150:
 1489              	.L519:
 1490 0604 B8509DE5 		ldr	r5, [sp, #184]
 1491              	.LVL151:
 1492              	.L227:
 1493 0608 1C209DE5 		ldr	r2, [sp, #28]
 1494              	.LBE865:
  83:C:/Renesas/e2studio_2021_01_workspace_RZA2M_ANPR/ANPR_RZA2M_GR_MANGO/src/tensorflow_lite/tensorflow/lite/kernels/internal/reference\space_to_batch_nd.h ****       for (int out_w = 0; out_w < output_width; ++out_w) {
 1495              		.loc 4 83 0
 1496 060c 017087E2 		add	r7, r7, #1
 1497              	.LVL152:
 1498 0610 30309DE5 		ldr	r3, [sp, #48]
 1499 0614 032082E0 		add	r2, r2, r3
 1500 0618 039089E0 		add	r9, r9, r3
 1501 061c 1C208DE5 		str	r2, [sp, #28]
 1502 0620 28209DE5 		ldr	r2, [sp, #40]
 1503 0624 020057E1 		cmp	r7, r2
 1504 0628 98FFFF1A 		bne	.L250
 1505              	.LVL153:
 1506              	.L226:
 1507              	.LBE871:
 1508              	.LBE876:
  79:C:/Renesas/e2studio_2021_01_workspace_RZA2M_ANPR/ANPR_RZA2M_GR_MANGO/src/tensorflow_lite/tensorflow/lite/kernels/internal/reference\space_to_batch_nd.h ****     int input_batch = out_b % input_batch_size;
 1509              		.loc 4 79 0
 1510 062c 3C309DE5 		ldr	r3, [sp, #60]
 1511 0630 01B08BE2 		add	fp, fp, #1
 1512              	.LVL154:
 1513 0634 03005BE1 		cmp	fp, r3
 1514 0638 7AFFFF1A 		bne	.L251
 1515              	.LVL155:
 1516              	.L225:
 1517              	.LBE881:
 1518              	.LBB882:
 1519              	.LBB883:
 203:C:/Renesas/e2studio_2021_01_workspace_RZA2M_ANPR/ANPR_RZA2M_GR_MANGO/src/tensorflow_lite/tensorflow/lite/kernels/internal\types.h **** #ifdef TF_LITE_STATIC_MEMORY
 1520              		.loc 5 203 0
 1521 063c 050055E3 		cmp	r5, #5
 1522 0640 030000DA 		ble	.L252
 207:C:/Renesas/e2studio_2021_01_workspace_RZA2M_ANPR/ANPR_RZA2M_GR_MANGO/src/tensorflow_lite/tensorflow/lite/kernels/internal\types.h **** #endif  // TF_LITE_STATIC_MEMORY
 1523              		.loc 5 207 0
 1524 0644 BC009DE5 		ldr	r0, [sp, #188]
 1525 0648 000050E3 		cmp	r0, #0
 1526 064c 0000000A 		beq	.L252
 1527 0650 FEFFFFEB 		bl	_ZdaPv
 1528              	.LVL156:
 1529              	.L252:
 1530              	.LBE883:
 1531              	.LBE882:
 1532              	.LBB884:
 1533              	.LBB885:
 203:C:/Renesas/e2studio_2021_01_workspace_RZA2M_ANPR/ANPR_RZA2M_GR_MANGO/src/tensorflow_lite/tensorflow/lite/kernels/internal\types.h **** #ifdef TF_LITE_STATIC_MEMORY
 1534              		.loc 5 203 0
 1535 0654 A0309DE5 		ldr	r3, [sp, #160]
 1536 0658 050053E3 		cmp	r3, #5
 1537 065c 030000DA 		ble	.L253
 207:C:/Renesas/e2studio_2021_01_workspace_RZA2M_ANPR/ANPR_RZA2M_GR_MANGO/src/tensorflow_lite/tensorflow/lite/kernels/internal\types.h **** #endif  // TF_LITE_STATIC_MEMORY
 1538              		.loc 5 207 0
 1539 0660 A4009DE5 		ldr	r0, [sp, #164]
 1540 0664 000050E3 		cmp	r0, #0
 1541 0668 0000000A 		beq	.L253
 1542 066c FEFFFFEB 		bl	_ZdaPv
 1543              	.LVL157:
 1544              	.L253:
 1545              	.LBE885:
 1546              	.LBE884:
 1547              	.LBE591:
 1548              	.LBE590:
 1549              	.LBB928:
 1550              	.LBB929:
 203:C:/Renesas/e2studio_2021_01_workspace_RZA2M_ANPR/ANPR_RZA2M_GR_MANGO/src/tensorflow_lite/tensorflow/lite/kernels/internal\types.h **** #ifdef TF_LITE_STATIC_MEMORY
 1551              		.loc 5 203 0
 1552 0670 88309DE5 		ldr	r3, [sp, #136]
 1553 0674 050053E3 		cmp	r3, #5
 1554 0678 030000DA 		ble	.L255
 207:C:/Renesas/e2studio_2021_01_workspace_RZA2M_ANPR/ANPR_RZA2M_GR_MANGO/src/tensorflow_lite/tensorflow/lite/kernels/internal\types.h **** #endif  // TF_LITE_STATIC_MEMORY
 1555              		.loc 5 207 0
 1556 067c 8C009DE5 		ldr	r0, [sp, #140]
 1557 0680 000050E3 		cmp	r0, #0
 1558 0684 0000000A 		beq	.L255
 1559 0688 FEFFFFEB 		bl	_ZdaPv
 1560              	.LVL158:
 1561              	.L255:
 1562              	.LBE929:
 1563              	.LBE928:
 1564              	.LBB930:
 1565              	.LBB931:
 203:C:/Renesas/e2studio_2021_01_workspace_RZA2M_ANPR/ANPR_RZA2M_GR_MANGO/src/tensorflow_lite/tensorflow/lite/kernels/internal\types.h **** #ifdef TF_LITE_STATIC_MEMORY
 1566              		.loc 5 203 0
 1567 068c 70309DE5 		ldr	r3, [sp, #112]
 1568 0690 050053E3 		cmp	r3, #5
 1569 0694 030000DA 		ble	.L261
 207:C:/Renesas/e2studio_2021_01_workspace_RZA2M_ANPR/ANPR_RZA2M_GR_MANGO/src/tensorflow_lite/tensorflow/lite/kernels/internal\types.h **** #endif  // TF_LITE_STATIC_MEMORY
 1570              		.loc 5 207 0
 1571 0698 74009DE5 		ldr	r0, [sp, #116]
 1572 069c 000050E3 		cmp	r0, #0
 1573 06a0 0000000A 		beq	.L261
 1574 06a4 FEFFFFEB 		bl	_ZdaPv
 1575              	.LVL159:
 1576              	.L261:
 1577              	.LBE931:
 1578              	.LBE930:
 1579              	.LBB932:
 1580              	.LBB933:
 203:C:/Renesas/e2studio_2021_01_workspace_RZA2M_ANPR/ANPR_RZA2M_GR_MANGO/src/tensorflow_lite/tensorflow/lite/kernels/internal\types.h **** #ifdef TF_LITE_STATIC_MEMORY
 1581              		.loc 5 203 0
 1582 06a8 58309DE5 		ldr	r3, [sp, #88]
 1583 06ac 050053E3 		cmp	r3, #5
 1584 06b0 030000DA 		ble	.L262
 207:C:/Renesas/e2studio_2021_01_workspace_RZA2M_ANPR/ANPR_RZA2M_GR_MANGO/src/tensorflow_lite/tensorflow/lite/kernels/internal\types.h **** #endif  // TF_LITE_STATIC_MEMORY
 1585              		.loc 5 207 0
 1586 06b4 5C009DE5 		ldr	r0, [sp, #92]
 1587 06b8 000050E3 		cmp	r0, #0
 1588 06bc 0000000A 		beq	.L262
 1589 06c0 FEFFFFEB 		bl	_ZdaPv
 1590              	.LVL160:
 1591              	.L262:
 1592              	.LBE933:
 1593              	.LBE932:
 1594              	.LBB934:
 1595              	.LBB935:
 203:C:/Renesas/e2studio_2021_01_workspace_RZA2M_ANPR/ANPR_RZA2M_GR_MANGO/src/tensorflow_lite/tensorflow/lite/kernels/internal\types.h **** #ifdef TF_LITE_STATIC_MEMORY
 1596              		.loc 5 203 0
 1597 06c4 40309DE5 		ldr	r3, [sp, #64]
 1598 06c8 050053E3 		cmp	r3, #5
 1599 06cc 030000DA 		ble	.L263
 207:C:/Renesas/e2studio_2021_01_workspace_RZA2M_ANPR/ANPR_RZA2M_GR_MANGO/src/tensorflow_lite/tensorflow/lite/kernels/internal\types.h **** #endif  // TF_LITE_STATIC_MEMORY
 1600              		.loc 5 207 0
 1601 06d0 44009DE5 		ldr	r0, [sp, #68]
 1602 06d4 000050E3 		cmp	r0, #0
 1603 06d8 0000000A 		beq	.L263
 1604 06dc FEFFFFEB 		bl	_ZdaPv
 1605              	.LVL161:
 1606              	.L263:
 1607              	.LBE935:
 1608              	.LBE934:
  98:../src/tensorflow_lite/tensorflow/lite/micro/kernels/space_to_batch_nd.cc ****           tflite::micro::GetTensorData<int8_t>(output));
  99:../src/tensorflow_lite/tensorflow/lite/micro/kernels/space_to_batch_nd.cc ****       break;
 100:../src/tensorflow_lite/tensorflow/lite/micro/kernels/space_to_batch_nd.cc ****     default:
 101:../src/tensorflow_lite/tensorflow/lite/micro/kernels/space_to_batch_nd.cc ****       TF_LITE_KERNEL_LOG(context, "Type %s (%d) not supported.",
 102:../src/tensorflow_lite/tensorflow/lite/micro/kernels/space_to_batch_nd.cc ****                          TfLiteTypeGetName(input->type), input->type);
 103:../src/tensorflow_lite/tensorflow/lite/micro/kernels/space_to_batch_nd.cc ****       return kTfLiteError;
 104:../src/tensorflow_lite/tensorflow/lite/micro/kernels/space_to_batch_nd.cc ****   }
 105:../src/tensorflow_lite/tensorflow/lite/micro/kernels/space_to_batch_nd.cc ****   return kTfLiteOk;
 1609              		.loc 1 105 0
 1610 06e0 0000A0E3 		mov	r0, #0
  99:../src/tensorflow_lite/tensorflow/lite/micro/kernels/space_to_batch_nd.cc ****     default:
 1611              		.loc 1 99 0
 1612 06e4 080000EA 		b	.L421
 1613              	.LVL162:
 1614              	.L490:
 101:../src/tensorflow_lite/tensorflow/lite/micro/kernels/space_to_batch_nd.cc ****                          TfLiteTypeGetName(input->type), input->type);
 1615              		.loc 1 101 0
 1616 06e8 144096E5 		ldr	r4, [r6, #20]
 1617              	.LVL163:
 1618              	.LEHB4:
 1619 06ec FEFFFFEB 		bl	TfLiteTypeGetName
 1620              	.LVL164:
 1621 06f0 001000E3 		movw	r1, #:lower16:.LC16
 1622 06f4 0020A0E1 		mov	r2, r0
 1623 06f8 0830D9E5 		ldrb	r3, [r9, #8]	@ zero_extendqisi2
 1624 06fc 0600A0E1 		mov	r0, r6
 1625 0700 001040E3 		movt	r1, #:upper16:.LC16
 1626 0704 34FF2FE1 		blx	r4
 1627              	.LVL165:
 103:../src/tensorflow_lite/tensorflow/lite/micro/kernels/space_to_batch_nd.cc ****   }
 1628              		.loc 1 103 0
 1629 0708 0100A0E3 		mov	r0, #1
 1630              	.LVL166:
 1631              	.L421:
 106:../src/tensorflow_lite/tensorflow/lite/micro/kernels/space_to_batch_nd.cc **** }
 1632              		.loc 1 106 0
 1633 070c ECD08DE2 		add	sp, sp, #236
 1634              		.cfi_remember_state
 1635              		.cfi_def_cfa_offset 36
 1636              		@ sp needed
 1637 0710 F08FBDE8 		pop	{r4, r5, r6, r7, r8, r9, r10, fp, pc}
 1638              	.LVL167:
 1639              	.L29:
 1640              		.cfi_restore_state
  80:../src/tensorflow_lite/tensorflow/lite/micro/kernels/space_to_batch_nd.cc ****           tflite::micro::GetTensorData<float>(input),
 1641              		.loc 1 80 0
 1642 0714 0910A0E1 		mov	r1, r9
 1643 0718 40008DE2 		add	r0, sp, #64
 1644 071c FEFFFFEB 		bl	_ZN6tflite5micro14GetTensorShapeEPK16TfLiteEvalTensor
 1645              	.LVL168:
 1646              	.LEHE4:
 1647              	.LBB936:
 1648              	.LBB937:
 1649              		.loc 3 63 0
 1650 0720 003099E5 		ldr	r3, [r9]
 1651              	.LBE937:
 1652              	.LBE936:
  82:../src/tensorflow_lite/tensorflow/lite/micro/kernels/space_to_batch_nd.cc ****           tflite::micro::GetTensorData<int32_t>(block_shape),
 1653              		.loc 1 82 0
 1654 0724 0710A0E1 		mov	r1, r7
 1655 0728 58008DE2 		add	r0, sp, #88
 1656              	.LBB939:
 1657              	.LBB938:
 1658              		.loc 3 63 0
 1659 072c 24308DE5 		str	r3, [sp, #36]
 1660              	.LEHB5:
 1661              	.LBE938:
 1662              	.LBE939:
  82:../src/tensorflow_lite/tensorflow/lite/micro/kernels/space_to_batch_nd.cc ****           tflite::micro::GetTensorData<int32_t>(block_shape),
 1663              		.loc 1 82 0
 1664 0730 FEFFFFEB 		bl	_ZN6tflite5micro14GetTensorShapeEPK16TfLiteEvalTensor
 1665              	.LVL169:
 1666              	.LEHE5:
 1667              	.LBB940:
 1668              	.LBB941:
  62:C:/Renesas/e2studio_2021_01_workspace_RZA2M_ANPR/ANPR_RZA2M_GR_MANGO/src/tensorflow_lite/tensorflow/lite/micro/kernels\kernel_util.h ****   return reinterpret_cast<const T*>(tensor->data.raw);
 1669              		.loc 3 62 0
 1670 0734 000057E3 		cmp	r7, #0
 1671 0738 2F02000A 		beq	.L523
 1672              	.LBE941:
 1673              	.LBE940:
  84:../src/tensorflow_lite/tensorflow/lite/micro/kernels/space_to_batch_nd.cc ****           tflite::micro::GetTensorData<int32_t>(crops),
 1674              		.loc 1 84 0
 1675 073c 0810A0E1 		mov	r1, r8
 1676 0740 70008DE2 		add	r0, sp, #112
 1677              	.LBB944:
 1678              	.LBB942:
 1679              		.loc 3 63 0
 1680 0744 007097E5 		ldr	r7, [r7]
 1681              	.LEHB6:
 1682              	.LBE942:
 1683              	.LBE944:
  84:../src/tensorflow_lite/tensorflow/lite/micro/kernels/space_to_batch_nd.cc ****           tflite::micro::GetTensorData<int32_t>(crops),
 1684              		.loc 1 84 0
 1685 0748 FEFFFFEB 		bl	_ZN6tflite5micro14GetTensorShapeEPK16TfLiteEvalTensor
 1686              	.LVL170:
 1687              	.LEHE6:
 1688              	.LBB945:
 1689              	.LBB946:
  62:C:/Renesas/e2studio_2021_01_workspace_RZA2M_ANPR/ANPR_RZA2M_GR_MANGO/src/tensorflow_lite/tensorflow/lite/micro/kernels\kernel_util.h ****   return reinterpret_cast<const T*>(tensor->data.raw);
 1690              		.loc 3 62 0
 1691 074c 000058E3 		cmp	r8, #0
 1692 0750 2B02000A 		beq	.L524
 1693              	.LBE946:
 1694              	.LBE945:
  86:../src/tensorflow_lite/tensorflow/lite/micro/kernels/space_to_batch_nd.cc ****           tflite::micro::GetTensorData<float>(output));
 1695              		.loc 1 86 0
 1696 0754 0B10A0E1 		mov	r1, fp
 1697 0758 88008DE2 		add	r0, sp, #136
 1698              	.LBB949:
 1699              	.LBB947:
 1700              		.loc 3 63 0
 1701 075c 006098E5 		ldr	r6, [r8]
 1702              	.LVL171:
 1703              	.LEHB7:
 1704              	.LBE947:
 1705              	.LBE949:
  86:../src/tensorflow_lite/tensorflow/lite/micro/kernels/space_to_batch_nd.cc ****           tflite::micro::GetTensorData<float>(output));
 1706              		.loc 1 86 0
 1707 0760 FEFFFFEB 		bl	_ZN6tflite5micro14GetTensorShapeEPK16TfLiteEvalTensor
 1708              	.LVL172:
 1709              	.LEHE7:
 1710              	.LBB950:
 1711              	.LBB951:
  56:C:/Renesas/e2studio_2021_01_workspace_RZA2M_ANPR/ANPR_RZA2M_GR_MANGO/src/tensorflow_lite/tensorflow/lite/micro/kernels\kernel_util.h **** }
 1712              		.loc 3 56 0
 1713 0764 00005BE3 		cmp	fp, #0
 1714 0768 40C09DE5 		ldr	ip, [sp, #64]
 1715 076c 00309B15 		ldrne	r3, [fp]
 1716 0770 04B08D05 		streq	fp, [sp, #4]
 1717              	.LVL173:
 1718 0774 04308D15 		strne	r3, [sp, #4]
 1719              	.LVL174:
 1720              	.LBE951:
 1721              	.LBE950:
 1722              	.LBB952:
 1723              	.LBB953:
  50:C:/Renesas/e2studio_2021_01_workspace_RZA2M_ANPR/ANPR_RZA2M_GR_MANGO/src/tensorflow_lite/tensorflow/lite/kernels/internal/reference\space_to_batch_nd.h ****   TFLITE_DCHECK_LE(unextended_input1_shape.DimensionsCount(), 4);
 1724              		.loc 4 50 0
 1725 0778 02005CE3 		cmp	ip, #2
 1726 077c 220200DA 		ble	.L525
 1727              	.LVL175:
  51:C:/Renesas/e2studio_2021_01_workspace_RZA2M_ANPR/ANPR_RZA2M_GR_MANGO/src/tensorflow_lite/tensorflow/lite/kernels/internal/reference\space_to_batch_nd.h ****   TFLITE_DCHECK_EQ(unextended_input1_shape.DimensionsCount(),
 1728              		.loc 4 51 0
 1729 0780 04005CE3 		cmp	ip, #4
 1730 0784 210200CA 		bgt	.L526
 1731              	.LVL176:
 1732 0788 88309DE5 		ldr	r3, [sp, #136]
 1733              	.LVL177:
  52:C:/Renesas/e2studio_2021_01_workspace_RZA2M_ANPR/ANPR_RZA2M_GR_MANGO/src/tensorflow_lite/tensorflow/lite/kernels/internal/reference\space_to_batch_nd.h ****                    unextended_output_shape.DimensionsCount());
 1734              		.loc 4 52 0
 1735 078c 03005CE1 		cmp	ip, r3
 1736 0790 2102001A 		bne	.L527
 1737              	.LVL178:
 1738              	.LBB954:
 1739              	.LBB955:
  29:C:/Renesas/e2studio_2021_01_workspace_RZA2M_ANPR/ANPR_RZA2M_GR_MANGO/src/tensorflow_lite/tensorflow/lite/kernels/internal/reference\space_to_batch_nd.h ****     return shape;
 1740              		.loc 4 29 0
 1741 0794 04005CE3 		cmp	ip, #4
 1742 0798 8501000A 		beq	.L528
 1743              	.LVL179:
 1744              	.LBB956:
 1745              	.LBB957:
 1746              	.LBB958:
 170:C:/Renesas/e2studio_2021_01_workspace_RZA2M_ANPR/ANPR_RZA2M_GR_MANGO/src/tensorflow_lite/tensorflow/lite/kernels/internal\types.h ****       SetDim(i, value);
 1747              		.loc 5 170 0
 1748 079c 0030A0E3 		mov	r3, #0
 1749              	.LBB959:
 1750              	.LBB960:
 224:C:/Renesas/e2studio_2021_01_workspace_RZA2M_ANPR/ANPR_RZA2M_GR_MANGO/src/tensorflow_lite/tensorflow/lite/kernels/internal\types.h ****     }
 1751              		.loc 5 224 0
 1752 07a0 0100A0E3 		mov	r0, #1
 1753              	.LBE960:
 1754              	.LBE959:
 1755              	.LBE958:
 1756              	.LBB973:
 1757              	.LBB974:
 245:C:/Renesas/e2studio_2021_01_workspace_RZA2M_ANPR/ANPR_RZA2M_GR_MANGO/src/tensorflow_lite/tensorflow/lite/kernels/internal\types.h ****     if (dimensions_count > kMaxSmallSize) {
 1758              		.loc 5 245 0
 1759 07a4 0420A0E3 		mov	r2, #4
 1760 07a8 B8208DE5 		str	r2, [sp, #184]
 1761              	.LVL180:
 1762              	.L39:
 1763              	.LBE974:
 1764              	.LBE973:
 1765              	.LBB975:
 1766              	.LBB967:
 1767              	.LBB961:
 224:C:/Renesas/e2studio_2021_01_workspace_RZA2M_ANPR/ANPR_RZA2M_GR_MANGO/src/tensorflow_lite/tensorflow/lite/kernels/internal\types.h ****     }
 1768              		.loc 5 224 0
 1769 07ac 0321A0E1 		lsl	r2, r3, #2
 1770              	.LBE961:
 1771              	.LBE967:
 170:C:/Renesas/e2studio_2021_01_workspace_RZA2M_ANPR/ANPR_RZA2M_GR_MANGO/src/tensorflow_lite/tensorflow/lite/kernels/internal\types.h ****       SetDim(i, value);
 1772              		.loc 5 170 0
 1773 07b0 013083E2 		add	r3, r3, #1
 1774              	.LVL181:
 1775              	.LBB968:
 1776              	.LBB962:
 224:C:/Renesas/e2studio_2021_01_workspace_RZA2M_ANPR/ANPR_RZA2M_GR_MANGO/src/tensorflow_lite/tensorflow/lite/kernels/internal\types.h ****     }
 1777              		.loc 5 224 0
 1778 07b4 E8C08DE2 		add	ip, sp, #232
 1779              	.LBE962:
 1780              	.LBE968:
 170:C:/Renesas/e2studio_2021_01_workspace_RZA2M_ANPR/ANPR_RZA2M_GR_MANGO/src/tensorflow_lite/tensorflow/lite/kernels/internal\types.h ****       SetDim(i, value);
 1781              		.loc 5 170 0
 1782 07b8 040053E3 		cmp	r3, #4
 1783 07bc 0210A0E1 		mov	r1, r2
 1784              	.LBB969:
 1785              	.LBB963:
 224:C:/Renesas/e2studio_2021_01_workspace_RZA2M_ANPR/ANPR_RZA2M_GR_MANGO/src/tensorflow_lite/tensorflow/lite/kernels/internal\types.h ****     }
 1786              		.loc 5 224 0
 1787 07c0 02208CE0 		add	r2, ip, r2
 1788 07c4 2C0002E5 		str	r0, [r2, #-44]
 1789              	.LVL182:
 1790              	.LBE963:
 1791              	.LBE969:
 170:C:/Renesas/e2studio_2021_01_workspace_RZA2M_ANPR/ANPR_RZA2M_GR_MANGO/src/tensorflow_lite/tensorflow/lite/kernels/internal\types.h ****       SetDim(i, value);
 1792              		.loc 5 170 0
 1793 07c8 0A00000A 		beq	.L529
 1794              	.L42:
 1795              	.LVL183:
 1796              	.LBB970:
 1797              	.LBB964:
 220:C:/Renesas/e2studio_2021_01_workspace_RZA2M_ANPR/ANPR_RZA2M_GR_MANGO/src/tensorflow_lite/tensorflow/lite/kernels/internal\types.h ****     if (size_ > kMaxSmallSize) {
 1798              		.loc 5 220 0
 1799 07cc B8209DE5 		ldr	r2, [sp, #184]
 1800 07d0 020053E1 		cmp	r3, r2
 1801 07d4 1F0200AA 		bge	.L530
 221:C:/Renesas/e2studio_2021_01_workspace_RZA2M_ANPR/ANPR_RZA2M_GR_MANGO/src/tensorflow_lite/tensorflow/lite/kernels/internal\types.h ****       dims_pointer_[i] = val;
 1802              		.loc 5 221 0
 1803 07d8 050052E3 		cmp	r2, #5
 1804 07dc 041081E2 		add	r1, r1, #4
 1805 07e0 F1FFFFDA 		ble	.L39
 222:C:/Renesas/e2studio_2021_01_workspace_RZA2M_ANPR/ANPR_RZA2M_GR_MANGO/src/tensorflow_lite/tensorflow/lite/kernels/internal\types.h ****     } else {
 1806              		.loc 5 222 0
 1807 07e4 BC209DE5 		ldr	r2, [sp, #188]
 1808              	.LBE964:
 1809              	.LBE970:
 170:C:/Renesas/e2studio_2021_01_workspace_RZA2M_ANPR/ANPR_RZA2M_GR_MANGO/src/tensorflow_lite/tensorflow/lite/kernels/internal\types.h ****       SetDim(i, value);
 1810              		.loc 5 170 0
 1811 07e8 013083E2 		add	r3, r3, #1
 1812              	.LVL184:
 1813 07ec 040053E3 		cmp	r3, #4
 1814              	.LBB971:
 1815              	.LBB965:
 222:C:/Renesas/e2studio_2021_01_workspace_RZA2M_ANPR/ANPR_RZA2M_GR_MANGO/src/tensorflow_lite/tensorflow/lite/kernels/internal\types.h ****     } else {
 1816              		.loc 5 222 0
 1817 07f0 010082E7 		str	r0, [r2, r1]
 1818              	.LVL185:
 1819              	.LBE965:
 1820              	.LBE971:
 170:C:/Renesas/e2studio_2021_01_workspace_RZA2M_ANPR/ANPR_RZA2M_GR_MANGO/src/tensorflow_lite/tensorflow/lite/kernels/internal\types.h ****       SetDim(i, value);
 1821              		.loc 5 170 0
 1822 07f4 F4FFFF1A 		bne	.L42
 1823              	.L529:
 1824              	.LVL186:
 1825              	.LBE975:
 1826              	.LBE957:
 1827              	.LBE956:
 1828              	.LBB978:
 1829              	.LBB979:
 215:C:/Renesas/e2studio_2021_01_workspace_RZA2M_ANPR/ANPR_RZA2M_GR_MANGO/src/tensorflow_lite/tensorflow/lite/kernels/internal\types.h ****     return size_ > kMaxSmallSize ? dims_pointer_[i] : dims_[i];
 1830              		.loc 5 215 0
 1831 07f8 40309DE5 		ldr	r3, [sp, #64]
 1832 07fc 000053E3 		cmp	r3, #0
 1833 0800 290200DA 		ble	.L531
 216:C:/Renesas/e2studio_2021_01_workspace_RZA2M_ANPR/ANPR_RZA2M_GR_MANGO/src/tensorflow_lite/tensorflow/lite/kernels/internal\types.h ****   }
 1834              		.loc 5 216 0
 1835 0804 050053E3 		cmp	r3, #5
 1836 0808 44209DC5 		ldrgt	r2, [sp, #68]
 1837 080c 44109DD5 		ldrle	r1, [sp, #68]
 1838              	.LVL187:
 1839 0810 001092C5 		ldrgt	r1, [r2]
 1840              	.LVL188:
 1841              	.LBE979:
 1842              	.LBE978:
 1843              	.LBB981:
 1844              	.LBB982:
 220:C:/Renesas/e2studio_2021_01_workspace_RZA2M_ANPR/ANPR_RZA2M_GR_MANGO/src/tensorflow_lite/tensorflow/lite/kernels/internal\types.h ****     if (size_ > kMaxSmallSize) {
 1845              		.loc 5 220 0
 1846 0814 B8209DE5 		ldr	r2, [sp, #184]
 1847 0818 000052E3 		cmp	r2, #0
 1848 081c 210200DA 		ble	.L532
 221:C:/Renesas/e2studio_2021_01_workspace_RZA2M_ANPR/ANPR_RZA2M_GR_MANGO/src/tensorflow_lite/tensorflow/lite/kernels/internal\types.h ****       dims_pointer_[i] = val;
 1849              		.loc 5 221 0
 1850 0820 050052E3 		cmp	r2, #5
 222:C:/Renesas/e2studio_2021_01_workspace_RZA2M_ANPR/ANPR_RZA2M_GR_MANGO/src/tensorflow_lite/tensorflow/lite/kernels/internal\types.h ****     } else {
 1851              		.loc 5 222 0
 1852 0824 BC309DC5 		ldrgt	r3, [sp, #188]
 224:C:/Renesas/e2studio_2021_01_workspace_RZA2M_ANPR/ANPR_RZA2M_GR_MANGO/src/tensorflow_lite/tensorflow/lite/kernels/internal\types.h ****     }
 1853              		.loc 5 224 0
 1854 0828 BC108DD5 		strle	r1, [sp, #188]
 1855              	.LVL189:
 222:C:/Renesas/e2studio_2021_01_workspace_RZA2M_ANPR/ANPR_RZA2M_GR_MANGO/src/tensorflow_lite/tensorflow/lite/kernels/internal\types.h ****     } else {
 1856              		.loc 5 222 0
 1857 082c 001083C5 		strgt	r1, [r3]
 1858 0830 40309DC5 		ldrgt	r3, [sp, #64]
 1859              	.LBE982:
 1860              	.LBE981:
 1861              	.LBB984:
 1862              	.LBB985:
 215:C:/Renesas/e2studio_2021_01_workspace_RZA2M_ANPR/ANPR_RZA2M_GR_MANGO/src/tensorflow_lite/tensorflow/lite/kernels/internal\types.h ****     return size_ > kMaxSmallSize ? dims_pointer_[i] : dims_[i];
 1863              		.loc 5 215 0
 1864 0834 010053E3 		cmp	r3, #1
 1865 0838 190200DA 		ble	.L533
 216:C:/Renesas/e2studio_2021_01_workspace_RZA2M_ANPR/ANPR_RZA2M_GR_MANGO/src/tensorflow_lite/tensorflow/lite/kernels/internal\types.h ****   }
 1866              		.loc 5 216 0
 1867 083c 050053E3 		cmp	r3, #5
 1868 0840 44209DC5 		ldrgt	r2, [sp, #68]
 1869 0844 48109DD5 		ldrle	r1, [sp, #72]
 1870              	.LVL190:
 1871 0848 041092C5 		ldrgt	r1, [r2, #4]
 1872              	.LVL191:
 1873              	.LBE985:
 1874              	.LBE984:
 1875              	.LBB987:
 1876              	.LBB988:
 220:C:/Renesas/e2studio_2021_01_workspace_RZA2M_ANPR/ANPR_RZA2M_GR_MANGO/src/tensorflow_lite/tensorflow/lite/kernels/internal\types.h ****     if (size_ > kMaxSmallSize) {
 1877              		.loc 5 220 0
 1878 084c B8209DE5 		ldr	r2, [sp, #184]
 1879 0850 010052E3 		cmp	r2, #1
 1880 0854 110200DA 		ble	.L534
 221:C:/Renesas/e2studio_2021_01_workspace_RZA2M_ANPR/ANPR_RZA2M_GR_MANGO/src/tensorflow_lite/tensorflow/lite/kernels/internal\types.h ****       dims_pointer_[i] = val;
 1881              		.loc 5 221 0
 1882 0858 050052E3 		cmp	r2, #5
 222:C:/Renesas/e2studio_2021_01_workspace_RZA2M_ANPR/ANPR_RZA2M_GR_MANGO/src/tensorflow_lite/tensorflow/lite/kernels/internal\types.h ****     } else {
 1883              		.loc 5 222 0
 1884 085c BC009DC5 		ldrgt	r0, [sp, #188]
 224:C:/Renesas/e2studio_2021_01_workspace_RZA2M_ANPR/ANPR_RZA2M_GR_MANGO/src/tensorflow_lite/tensorflow/lite/kernels/internal\types.h ****     }
 1885              		.loc 5 224 0
 1886 0860 C0108DD5 		strle	r1, [sp, #192]
 1887              	.LVL192:
 222:C:/Renesas/e2studio_2021_01_workspace_RZA2M_ANPR/ANPR_RZA2M_GR_MANGO/src/tensorflow_lite/tensorflow/lite/kernels/internal\types.h ****     } else {
 1888              		.loc 5 222 0
 1889 0864 041080C5 		strgt	r1, [r0, #4]
 1890              	.LBE988:
 1891              	.LBE987:
 1892              	.LBB990:
 1893              	.LBB991:
 215:C:/Renesas/e2studio_2021_01_workspace_RZA2M_ANPR/ANPR_RZA2M_GR_MANGO/src/tensorflow_lite/tensorflow/lite/kernels/internal\types.h ****     return size_ > kMaxSmallSize ? dims_pointer_[i] : dims_[i];
 1894              		.loc 5 215 0
 1895 0868 020053E3 		cmp	r3, #2
 1896 086c 0A02000A 		beq	.L535
 216:C:/Renesas/e2studio_2021_01_workspace_RZA2M_ANPR/ANPR_RZA2M_GR_MANGO/src/tensorflow_lite/tensorflow/lite/kernels/internal\types.h ****   }
 1897              		.loc 5 216 0
 1898 0870 050053E3 		cmp	r3, #5
 1899 0874 44309DC5 		ldrgt	r3, [sp, #68]
 1900 0878 4C309DD5 		ldrle	r3, [sp, #76]
 1901              	.LVL193:
 1902 087c 083093C5 		ldrgt	r3, [r3, #8]
 1903              	.LVL194:
 1904              	.LBE991:
 1905              	.LBE990:
 1906              	.LBB993:
 1907              	.LBB994:
 220:C:/Renesas/e2studio_2021_01_workspace_RZA2M_ANPR/ANPR_RZA2M_GR_MANGO/src/tensorflow_lite/tensorflow/lite/kernels/internal\types.h ****     if (size_ > kMaxSmallSize) {
 1908              		.loc 5 220 0
 1909 0880 030052E3 		cmp	r2, #3
 1910 0884 E80100DA 		ble	.L536
 221:C:/Renesas/e2studio_2021_01_workspace_RZA2M_ANPR/ANPR_RZA2M_GR_MANGO/src/tensorflow_lite/tensorflow/lite/kernels/internal\types.h ****       dims_pointer_[i] = val;
 1911              		.loc 5 221 0
 1912 0888 050052E3 		cmp	r2, #5
 1913 088c 240100CA 		bgt	.L537
 1914              	.LBE994:
 1915              	.LBE993:
 1916              	.LBB999:
 1917              	.LBB1000:
 1918              	.LBB1001:
 1919              	.LBB1002:
 1920              	.LBB1003:
 229:C:/Renesas/e2studio_2021_01_workspace_RZA2M_ANPR/ANPR_RZA2M_GR_MANGO/src/tensorflow_lite/tensorflow/lite/kernels/internal\types.h ****   }
 1921              		.loc 5 229 0
 1922 0890 A4008DE2 		add	r0, sp, #164
 1923              	.LBE1003:
 1924              	.LBE1002:
 1925              	.LBB1006:
 1926              	.LBB1007:
 232:C:/Renesas/e2studio_2021_01_workspace_RZA2M_ANPR/ANPR_RZA2M_GR_MANGO/src/tensorflow_lite/tensorflow/lite/kernels/internal\types.h ****   }
 1927              		.loc 5 232 0
 1928 0894 BC108DE2 		add	r1, sp, #188
 1929              	.LBE1007:
 1930              	.LBE1006:
 1931              	.LBE1001:
 1932              	.LBE1000:
 1933              	.LBE999:
 1934              	.LBB1020:
 1935              	.LBB995:
 224:C:/Renesas/e2studio_2021_01_workspace_RZA2M_ANPR/ANPR_RZA2M_GR_MANGO/src/tensorflow_lite/tensorflow/lite/kernels/internal\types.h ****     }
 1936              		.loc 5 224 0
 1937 0898 C8308DE5 		str	r3, [sp, #200]
 1938              	.LVL195:
 1939              	.LBE995:
 1940              	.LBE1020:
 1941              	.LBB1021:
 1942              	.LBB1016:
 1943              	.LBB1012:
 185:C:/Renesas/e2studio_2021_01_workspace_RZA2M_ANPR/ANPR_RZA2M_GR_MANGO/src/tensorflow_lite/tensorflow/lite/kernels/internal\types.h ****     if (size_ > kMaxSmallSize) {
 1944              		.loc 5 185 0
 1945 089c A0208DE5 		str	r2, [sp, #160]
 1946              	.LVL196:
 1947              	.L62:
 193:C:/Renesas/e2studio_2021_01_workspace_RZA2M_ANPR/ANPR_RZA2M_GR_MANGO/src/tensorflow_lite/tensorflow/lite/kernels/internal\types.h ****   }
 1948              		.loc 5 193 0
 1949 08a0 0221A0E1 		lsl	r2, r2, #2
 1950 08a4 FEFFFFEB 		bl	memcpy
 1951              	.LVL197:
 1952              	.LBE1012:
 1953              	.LBE1016:
 1954              	.LBE1021:
 1955              	.LBB1022:
 1956              	.LBB1023:
 203:C:/Renesas/e2studio_2021_01_workspace_RZA2M_ANPR/ANPR_RZA2M_GR_MANGO/src/tensorflow_lite/tensorflow/lite/kernels/internal\types.h **** #ifdef TF_LITE_STATIC_MEMORY
 1957              		.loc 5 203 0
 1958 08a8 B8309DE5 		ldr	r3, [sp, #184]
 1959 08ac 050053E3 		cmp	r3, #5
 1960 08b0 090100DA 		ble	.L65
 207:C:/Renesas/e2studio_2021_01_workspace_RZA2M_ANPR/ANPR_RZA2M_GR_MANGO/src/tensorflow_lite/tensorflow/lite/kernels/internal\types.h **** #endif  // TF_LITE_STATIC_MEMORY
 1961              		.loc 5 207 0
 1962 08b4 BC009DE5 		ldr	r0, [sp, #188]
 1963 08b8 000050E3 		cmp	r0, #0
 1964 08bc 0601000A 		beq	.L65
