   1              		.cpu cortex-a9
   2              		.eabi_attribute 28, 1
   3              		.eabi_attribute 20, 1
   4              		.eabi_attribute 21, 1
   5              		.eabi_attribute 23, 3
   6              		.eabi_attribute 24, 1
   7              		.eabi_attribute 25, 1
   8              		.eabi_attribute 26, 1
   9              		.eabi_attribute 30, 2
  10              		.eabi_attribute 34, 0
  11              		.eabi_attribute 18, 4
  12              		.file	"r_os_abstraction_api.c"
  13              		.section	.text.main_task,"ax",%progbits
  14              		.align	2
  15              		.syntax unified
  16              		.arm
  17              		.fpu neon
  19              	main_task:
  20              		@ Volatile: function does not return.
  21              		@ args = 0, pretend = 0, frame = 0
  22              		@ frame_needed = 0, uses_anonymous_args = 0
  23 0000 003000E3 		movw	r3, #:lower16:.LANCHOR0
  24 0004 10402DE9 		push	{r4, lr}
  25 0008 0120A0E3 		mov	r2, #1
  26 000c 003040E3 		movt	r3, #:upper16:.LANCHOR0
  27 0010 002083E5 		str	r2, [r3]
  28 0014 FEFFFFEB 		bl	os_main_task_t
  29              	.L2:
  30 0018 FEFFFFEA 		b	.L2
  32              		.section	.text.pvPortsetDesiredBlockForMalloc,"ax",%progbits
  33              		.align	2
  34              		.weak	pvPortsetDesiredBlockForMalloc
  35              		.syntax unified
  36              		.arm
  37              		.fpu neon
  39              	pvPortsetDesiredBlockForMalloc:
  40              		@ args = 0, pretend = 0, frame = 0
  41              		@ frame_needed = 0, uses_anonymous_args = 0
  42              		@ link register save eliminated.
  43              		.syntax divided
  44              	@ 47 "C:/Renesas/e2studio_2021_01_workspace_RZA2M_ANPR/ANPR_RZA2M_EBK/generate/compiler/inc/r_compi
  45 0000 00F020E3 		nop
  46              	@ 0 "" 2
  47              		.arm
  48              		.syntax unified
  49 0004 1EFF2FE1 		bx	lr
  51              		.section	.text.R_OS_AbstractionLayerShutdown,"ax",%progbits
  52              		.align	2
  53              		.global	R_OS_AbstractionLayerShutdown
  54              		.syntax unified
  55              		.arm
  56              		.fpu neon
  58              	R_OS_AbstractionLayerShutdown:
  59              		@ args = 0, pretend = 0, frame = 0
  60              		@ frame_needed = 0, uses_anonymous_args = 0
  61 0000 10402DE9 		push	{r4, lr}
  62 0004 FEFFFFEB 		bl	vTaskEndScheduler
  63 0008 0100A0E3 		mov	r0, #1
  64 000c 1080BDE8 		pop	{r4, pc}
  66              		.section	.text.R_OS_Running,"ax",%progbits
  67              		.align	2
  68              		.global	R_OS_Running
  69              		.syntax unified
  70              		.arm
  71              		.fpu neon
  73              	R_OS_Running:
  74              		@ args = 0, pretend = 0, frame = 0
  75              		@ frame_needed = 0, uses_anonymous_args = 0
  76              		@ link register save eliminated.
  77 0000 003000E3 		movw	r3, #:lower16:.LANCHOR0
  78 0004 003040E3 		movt	r3, #:upper16:.LANCHOR0
  79 0008 000093E5 		ldr	r0, [r3]
  80 000c 1EFF2FE1 		bx	lr
  82              		.section	.text.R_OS_KernelStart,"ax",%progbits
  83              		.align	2
  84              		.global	R_OS_KernelStart
  85              		.syntax unified
  86              		.arm
  87              		.fpu neon
  89              	R_OS_KernelStart:
  90              		@ args = 0, pretend = 0, frame = 0
  91              		@ frame_needed = 0, uses_anonymous_args = 0
  92              		@ link register save eliminated.
  93 0000 FEFFFFEA 		b	vTaskStartScheduler
  95              		.section	.text.R_OS_KernelStop,"ax",%progbits
  96              		.align	2
  97              		.global	R_OS_KernelStop
  98              		.syntax unified
  99              		.arm
 100              		.fpu neon
 102              	R_OS_KernelStop:
 103              		@ args = 0, pretend = 0, frame = 0
 104              		@ frame_needed = 0, uses_anonymous_args = 0
 105              		@ link register save eliminated.
 106 0000 FEFFFFEA 		b	vTaskEndScheduler
 108              		.section	.text.R_OS_InitMemManager,"ax",%progbits
 109              		.align	2
 110              		.global	R_OS_InitMemManager
 111              		.syntax unified
 112              		.arm
 113              		.fpu neon
 115              	R_OS_InitMemManager:
 116              		@ args = 0, pretend = 0, frame = 0
 117              		@ frame_needed = 0, uses_anonymous_args = 0
 118              		@ link register save eliminated.
 119 0000 003000E3 		movw	r3, #:lower16:xHeapRegions
 120 0004 002000E3 		movw	r2, #:lower16:.LANCHOR1
 121 0008 003040E3 		movt	r3, #:upper16:xHeapRegions
 122 000c 002040E3 		movt	r2, #:upper16:.LANCHOR1
 123 0010 041093E5 		ldr	r1, [r3, #4]
 124 0014 0100A0E3 		mov	r0, #1
 125 0018 0000C2E5 		strb	r0, [r2]
 126 001c 000051E3 		cmp	r1, #0
 127 0020 0700001A 		bne	.L12
 128 0024 000000E3 		movw	r0, #:lower16:__freertos_heap_start
 129 0028 002000E3 		movw	r2, #:lower16:__freertos_heap_end
 130 002c 000040E3 		movt	r0, #:upper16:__freertos_heap_start
 131 0030 002040E3 		movt	r2, #:upper16:__freertos_heap_end
 132 0034 002042E0 		sub	r2, r2, r0
 133 0038 081083E5 		str	r1, [r3, #8]
 134 003c 0C1083E5 		str	r1, [r3, #12]
 135 0040 050083E8 		stm	r3, {r0, r2}
 136              	.L12:
 137 0044 000000E3 		movw	r0, #:lower16:xHeapRegions
 138 0048 000040E3 		movt	r0, #:upper16:xHeapRegions
 139 004c FEFFFFEA 		b	vPortDefineHeapRegions
 141              		.section	.text.R_OS_TaskCreate,"ax",%progbits
 142              		.align	2
 143              		.global	R_OS_TaskCreate
 144              		.syntax unified
 145              		.arm
 146              		.fpu neon
 148              	R_OS_TaskCreate:
 149              		@ args = 4, pretend = 0, frame = 8
 150              		@ frame_needed = 0, uses_anonymous_args = 0
 151 0000 30402DE9 		push	{r4, r5, lr}
 152 0004 03C0A0E1 		mov	ip, r3
 153 0008 14D04DE2 		sub	sp, sp, #20
 154 000c 0050A0E1 		mov	r5, r0
 155 0010 0230A0E1 		mov	r3, r2
 156 0014 0100A0E1 		mov	r0, r1
 157 0018 20109DE5 		ldr	r1, [sp, #32]
 158 001c 04005CE3 		cmp	ip, #4
 159 0020 0CF19F97 		ldrls	pc, [pc, ip, asl #2]
 160 0024 190000EA 		b	.L14
 161              	.L16:
 162 0028 70000000 		.word	.L15
 163 002c 3C000000 		.word	.L22
 164 0030 78000000 		.word	.L18
 165 0034 80000000 		.word	.L19
 166 0038 88000000 		.word	.L20
 167              	.L22:
 168 003c 022CA0E3 		mov	r2, #512
 169              	.L17:
 170 0040 10E08DE2 		add	lr, sp, #16
 171 0044 0040A0E3 		mov	r4, #0
 172 0048 00108DE5 		str	r1, [sp]
 173 004c 0510A0E1 		mov	r1, r5
 174 0050 04402EE5 		str	r4, [lr, #-4]!
 175 0054 04E08DE5 		str	lr, [sp, #4]
 176 0058 FEFFFFEB 		bl	xTaskCreate
 177 005c 010050E3 		cmp	r0, #1
 178 0060 0C009D05 		ldreq	r0, [sp, #12]
 179 0064 0400A011 		movne	r0, r4
 180 0068 14D08DE2 		add	sp, sp, #20
 181              		@ sp needed
 182 006c 3080BDE8 		pop	{r4, r5, pc}
 183              	.L15:
 184 0070 2820A0E3 		mov	r2, #40
 185 0074 F1FFFFEA 		b	.L17
 186              	.L18:
 187 0078 012BA0E3 		mov	r2, #1024
 188 007c EFFFFFEA 		b	.L17
 189              	.L19:
 190 0080 022BA0E3 		mov	r2, #2048
 191 0084 EDFFFFEA 		b	.L17
 192              	.L20:
 193 0088 012AA0E3 		mov	r2, #4096
 194 008c EBFFFFEA 		b	.L17
 195              	.L14:
 196 0090 5C21EDE7 		ubfx	r2, ip, #2, #14
 197 0094 E9FFFFEA 		b	.L17
 199              		.section	.text.R_OS_TaskDelete,"ax",%progbits
 200              		.align	2
 201              		.global	R_OS_TaskDelete
 202              		.syntax unified
 203              		.arm
 204              		.fpu neon
 206              	R_OS_TaskDelete:
 207              		@ args = 0, pretend = 0, frame = 0
 208              		@ frame_needed = 0, uses_anonymous_args = 0
 209 0000 10402DE9 		push	{r4, lr}
 210 0004 004050E2 		subs	r4, r0, #0
 211 0008 0400000A 		beq	.L28
 212 000c 000094E5 		ldr	r0, [r4]
 213 0010 FEFFFFEB 		bl	vTaskDelete
 214 0014 0030A0E3 		mov	r3, #0
 215 0018 003084E5 		str	r3, [r4]
 216 001c 1080BDE8 		pop	{r4, pc}
 217              	.L28:
 218 0020 1040BDE8 		pop	{r4, lr}
 219 0024 FEFFFFEA 		b	vTaskDelete
 221              		.section	.text.R_OS_TaskSleep,"ax",%progbits
 222              		.align	2
 223              		.global	R_OS_TaskSleep
 224              		.syntax unified
 225              		.arm
 226              		.fpu neon
 228              	R_OS_TaskSleep:
 229              		@ args = 0, pretend = 0, frame = 0
 230              		@ frame_needed = 0, uses_anonymous_args = 0
 231              		@ link register save eliminated.
 232 0000 FEFFFFEA 		b	vTaskDelay
 234              		.section	.text.R_OS_TaskYield,"ax",%progbits
 235              		.align	2
 236              		.global	R_OS_TaskYield
 237              		.syntax unified
 238              		.arm
 239              		.fpu neon
 241              	R_OS_TaskYield:
 242              		@ args = 0, pretend = 0, frame = 0
 243              		@ frame_needed = 0, uses_anonymous_args = 0
 244              		@ link register save eliminated.
 245              		.syntax divided
 246              	@ 631 "../generate/os_abstraction/src/r_os_abstraction_api.c" 1
 247 0000 000000EF 		SWI 0
 248              	@ 0 "" 2
 249              		.arm
 250              		.syntax unified
 251 0004 1EFF2FE1 		bx	lr
 253              		.section	.text.R_OS_TaskSuspend,"ax",%progbits
 254              		.align	2
 255              		.global	R_OS_TaskSuspend
 256              		.syntax unified
 257              		.arm
 258              		.fpu neon
 260              	R_OS_TaskSuspend:
 261              		@ args = 0, pretend = 0, frame = 0
 262              		@ frame_needed = 0, uses_anonymous_args = 0
 263 0000 10402DE9 		push	{r4, lr}
 264 0004 0040A0E1 		mov	r4, r0
 265 0008 FEFFFFEB 		bl	eTaskGetState
 266 000c 020050E3 		cmp	r0, #2
 267 0010 0100009A 		bls	.L37
 268 0014 0000A0E3 		mov	r0, #0
 269 0018 1080BDE8 		pop	{r4, pc}
 270              	.L37:
 271 001c 0400A0E1 		mov	r0, r4
 272 0020 FEFFFFEB 		bl	vTaskSuspend
 273 0024 0100A0E3 		mov	r0, #1
 274 0028 1080BDE8 		pop	{r4, pc}
 276              		.section	.text.R_OS_TaskResume,"ax",%progbits
 277              		.align	2
 278              		.global	R_OS_TaskResume
 279              		.syntax unified
 280              		.arm
 281              		.fpu neon
 283              	R_OS_TaskResume:
 284              		@ args = 0, pretend = 0, frame = 0
 285              		@ frame_needed = 0, uses_anonymous_args = 0
 286 0000 10402DE9 		push	{r4, lr}
 287 0004 0040A0E1 		mov	r4, r0
 288 0008 FEFFFFEB 		bl	eTaskGetState
 289 000c 030050E3 		cmp	r0, #3
 290 0010 0100000A 		beq	.L44
 291 0014 0000A0E3 		mov	r0, #0
 292 0018 1080BDE8 		pop	{r4, pc}
 293              	.L44:
 294 001c 0400A0E1 		mov	r0, r4
 295 0020 FEFFFFEB 		bl	vTaskResume
 296 0024 0100A0E3 		mov	r0, #1
 297 0028 1080BDE8 		pop	{r4, pc}
 299              		.section	.text.R_OS_TasksSuspendAll,"ax",%progbits
 300              		.align	2
 301              		.global	R_OS_TasksSuspendAll
 302              		.syntax unified
 303              		.arm
 304              		.fpu neon
 306              	R_OS_TasksSuspendAll:
 307              		@ args = 0, pretend = 0, frame = 0
 308              		@ frame_needed = 0, uses_anonymous_args = 0
 309 0000 10402DE9 		push	{r4, lr}
 310 0004 FEFFFFEB 		bl	xTaskGetSchedulerState
 311 0008 020050E3 		cmp	r0, #2
 312 000c 1080BD18 		popne	{r4, pc}
 313 0010 1040BDE8 		pop	{r4, lr}
 314 0014 FEFFFFEA 		b	vTaskSuspendAll
 316              		.section	.text.R_OS_TasksResumeAll,"ax",%progbits
 317              		.align	2
 318              		.global	R_OS_TasksResumeAll
 319              		.syntax unified
 320              		.arm
 321              		.fpu neon
 323              	R_OS_TasksResumeAll:
 324              		@ args = 0, pretend = 0, frame = 0
 325              		@ frame_needed = 0, uses_anonymous_args = 0
 326 0000 10402DE9 		push	{r4, lr}
 327 0004 FEFFFFEB 		bl	xTaskGetSchedulerState
 328 0008 000050E3 		cmp	r0, #0
 329 000c 1080BD18 		popne	{r4, pc}
 330 0010 1040BDE8 		pop	{r4, lr}
 331 0014 FEFFFFEA 		b	xTaskResumeAll
 333              		.section	.text.R_OS_TasksGetNumber,"ax",%progbits
 334              		.align	2
 335              		.global	R_OS_TasksGetNumber
 336              		.syntax unified
 337              		.arm
 338              		.fpu neon
 340              	R_OS_TasksGetNumber:
 341              		@ args = 0, pretend = 0, frame = 0
 342              		@ frame_needed = 0, uses_anonymous_args = 0
 343 0000 10402DE9 		push	{r4, lr}
 344 0004 FEFFFFEB 		bl	xTaskGetSchedulerState
 345 0008 010050E3 		cmp	r0, #1
 346 000c 0100000A 		beq	.L52
 347 0010 1040BDE8 		pop	{r4, lr}
 348 0014 FEFFFFEA 		b	uxTaskGetNumberOfTasks
 349              	.L52:
 350 0018 0000A0E3 		mov	r0, #0
 351 001c 1080BDE8 		pop	{r4, pc}
 353              		.section	.text.R_OS_TaskUsesFloatingPoint,"ax",%progbits
 354              		.align	2
 355              		.global	R_OS_TaskUsesFloatingPoint
 356              		.syntax unified
 357              		.arm
 358              		.fpu neon
 360              	R_OS_TaskUsesFloatingPoint:
 361              		@ args = 0, pretend = 0, frame = 0
 362              		@ frame_needed = 0, uses_anonymous_args = 0
 363              		@ link register save eliminated.
 364 0000 FEFFFFEA 		b	vPortTaskUsesFPU
 366              		.section	.text.R_OS_TaskGetPriority,"ax",%progbits
 367              		.align	2
 368              		.global	R_OS_TaskGetPriority
 369              		.syntax unified
 370              		.arm
 371              		.fpu neon
 373              	R_OS_TaskGetPriority:
 374              		@ args = 0, pretend = 0, frame = 0
 375              		@ frame_needed = 0, uses_anonymous_args = 0
 376              		@ link register save eliminated.
 377 0000 000050E3 		cmp	r0, #0
 378 0004 0000000A 		beq	.L56
 379 0008 FEFFFFEA 		b	uxTaskPriorityGet
 380              	.L56:
 381 000c 0000E0E3 		mvn	r0, #0
 382 0010 1EFF2FE1 		bx	lr
 384              		.section	.text.R_OS_TaskSetPriority,"ax",%progbits
 385              		.align	2
 386              		.global	R_OS_TaskSetPriority
 387              		.syntax unified
 388              		.arm
 389              		.fpu neon
 391              	R_OS_TaskSetPriority:
 392              		@ args = 0, pretend = 0, frame = 0
 393              		@ frame_needed = 0, uses_anonymous_args = 0
 394 0000 003050E2 		subs	r3, r0, #0
 395 0004 0300000A 		beq	.L59
 396 0008 10402DE9 		push	{r4, lr}
 397 000c FEFFFFEB 		bl	vTaskPrioritySet
 398 0010 0100A0E3 		mov	r0, #1
 399 0014 1080BDE8 		pop	{r4, pc}
 400              	.L59:
 401 0018 0300A0E1 		mov	r0, r3
 402 001c 1EFF2FE1 		bx	lr
 404              		.section	.text.R_OS_TaskGetCurrentHandle,"ax",%progbits
 405              		.align	2
 406              		.global	R_OS_TaskGetCurrentHandle
 407              		.syntax unified
 408              		.arm
 409              		.fpu neon
 411              	R_OS_TaskGetCurrentHandle:
 412              		@ args = 0, pretend = 0, frame = 0
 413              		@ frame_needed = 0, uses_anonymous_args = 0
 414              		@ link register save eliminated.
 415 0000 FEFFFFEA 		b	xTaskGetCurrentTaskHandle
 417              		.section	.text.R_OS_TaskGetCurrentName,"ax",%progbits
 418              		.align	2
 419              		.global	R_OS_TaskGetCurrentName
 420              		.syntax unified
 421              		.arm
 422              		.fpu neon
 424              	R_OS_TaskGetCurrentName:
 425              		@ args = 0, pretend = 0, frame = 40
 426              		@ frame_needed = 0, uses_anonymous_args = 0
 427 0000 04E02DE5 		str	lr, [sp, #-4]!
 428 0004 2CD04DE2 		sub	sp, sp, #44
 429 0008 FEFFFFEB 		bl	xTaskGetCurrentTaskHandle
 430 000c 0530A0E3 		mov	r3, #5
 431 0010 0120A0E3 		mov	r2, #1
 432 0014 04108DE2 		add	r1, sp, #4
 433 0018 FEFFFFEB 		bl	vTaskGetInfo
 434 001c 08009DE5 		ldr	r0, [sp, #8]
 435 0020 2CD08DE2 		add	sp, sp, #44
 436              		@ sp needed
 437 0024 04F09DE4 		ldr	pc, [sp], #4
 439              		.section	.text.R_OS_TaskGetState,"ax",%progbits
 440              		.align	2
 441              		.global	R_OS_TaskGetState
 442              		.syntax unified
 443              		.arm
 444              		.fpu neon
 446              	R_OS_TaskGetState:
 447              		@ args = 0, pretend = 0, frame = 0
 448              		@ frame_needed = 0, uses_anonymous_args = 0
 449 0000 F0412DE9 		push	{r4, r5, r6, r7, r8, lr}
 450 0004 0070A0E1 		mov	r7, r0
 451 0008 FEFFFFEB 		bl	uxTaskGetNumberOfTasks
 452 000c 008050E2 		subs	r8, r0, #0
 453 0010 0500001A 		bne	.L68
 454              	.L70:
 455 0014 000000E3 		movw	r0, #:lower16:.LC1
 456 0018 0040A0E3 		mov	r4, #0
 457 001c 000040E3 		movt	r0, #:upper16:.LC1
 458 0020 FEFFFFEB 		bl	puts
 459 0024 0400A0E1 		mov	r0, r4
 460 0028 F081BDE8 		pop	{r4, r5, r6, r7, r8, pc}
 461              	.L68:
 462 002c FEFFFFEB 		bl	vTaskSuspendAll
 463 0030 003000E3 		movw	r3, #:lower16:xHeapRegions
 464 0034 003040E3 		movt	r3, #:upper16:xHeapRegions
 465 0038 000093E5 		ldr	r0, [r3]
 466 003c FEFFFFEB 		bl	pvPortsetDesiredBlockForMalloc
 467 0040 880188E0 		add	r0, r8, r8, lsl #3
 468 0044 0001A0E1 		lsl	r0, r0, #2
 469 0048 FEFFFFEB 		bl	pvPortMalloc
 470 004c 0060A0E1 		mov	r6, r0
 471 0050 FEFFFFEB 		bl	xTaskResumeAll
 472 0054 000056E3 		cmp	r6, #0
 473 0058 EDFFFF0A 		beq	.L70
 474 005c 0020A0E3 		mov	r2, #0
 475 0060 0810A0E1 		mov	r1, r8
 476 0064 0600A0E1 		mov	r0, r6
 477 0068 FEFFFFEB 		bl	uxTaskGetSystemState
 478 006c 0030A0E3 		mov	r3, #0
 479 0070 0350A0E1 		mov	r5, r3
 480              	.L72:
 481 0074 833183E0 		add	r3, r3, r3, lsl #3
 482 0078 0710A0E1 		mov	r1, r7
 483 007c 015085E2 		add	r5, r5, #1
 484 0080 034186E0 		add	r4, r6, r3, lsl #2
 485 0084 7550FFE6 		uxth	r5, r5
 486 0088 040094E5 		ldr	r0, [r4, #4]
 487 008c FEFFFFEB 		bl	strcmp
 488 0090 000050E3 		cmp	r0, #0
 489 0094 0800000A 		beq	.L71
 490 0098 050058E1 		cmp	r8, r5
 491 009c 0530A0E1 		mov	r3, r5
 492 00a0 F3FFFF8A 		bhi	.L72
 493 00a4 004000E3 		movw	r4, #:lower16:.LC0
 494 00a8 004040E3 		movt	r4, #:upper16:.LC0
 495              	.L73:
 496 00ac 0600A0E1 		mov	r0, r6
 497 00b0 FEFFFFEB 		bl	vPortFree
 498 00b4 0400A0E1 		mov	r0, r4
 499 00b8 F081BDE8 		pop	{r4, r5, r6, r7, r8, pc}
 500              	.L71:
 501 00bc 0C20D4E5 		ldrb	r2, [r4, #12]	@ zero_extendqisi2
 502 00c0 003000E3 		movw	r3, #:lower16:.LANCHOR2
 503 00c4 003040E3 		movt	r3, #:upper16:.LANCHOR2
 504 00c8 024193E7 		ldr	r4, [r3, r2, lsl #2]
 505 00cc F6FFFFEA 		b	.L73
 507              		.section	.text.R_OS_SysLock,"ax",%progbits
 508              		.align	2
 509              		.global	R_OS_SysLock
 510              		.syntax unified
 511              		.arm
 512              		.fpu neon
 514              	R_OS_SysLock:
 515              		@ args = 0, pretend = 0, frame = 0
 516              		@ frame_needed = 0, uses_anonymous_args = 0
 517 0000 003000E3 		movw	r3, #:lower16:ulPortInterruptNesting
 518 0004 10402DE9 		push	{r4, lr}
 519 0008 003040E3 		movt	r3, #:upper16:ulPortInterruptNesting
 520 000c 003093E5 		ldr	r3, [r3]
 521 0010 000053E3 		cmp	r3, #0
 522 0014 0600000A 		beq	.L83
 523 0018 FEFFFFEB 		bl	ulPortSetInterruptMask
 524 001c 003000E3 		movw	r3, #:lower16:uxSavedInterruptStatus
 525 0020 0020A0E3 		mov	r2, #0
 526 0024 003040E3 		movt	r3, #:upper16:uxSavedInterruptStatus
 527 0028 000083E5 		str	r0, [r3]
 528 002c 0200A0E1 		mov	r0, r2
 529 0030 1080BDE8 		pop	{r4, pc}
 530              	.L83:
 531 0034 FEFFFFEB 		bl	vPortEnterCritical
 532 0038 0120A0E3 		mov	r2, #1
 533 003c 0200A0E1 		mov	r0, r2
 534 0040 1080BDE8 		pop	{r4, pc}
 536              		.section	.text.R_OS_SysUnlock,"ax",%progbits
 537              		.align	2
 538              		.global	R_OS_SysUnlock
 539              		.syntax unified
 540              		.arm
 541              		.fpu neon
 543              	R_OS_SysUnlock:
 544              		@ args = 0, pretend = 0, frame = 0
 545              		@ frame_needed = 0, uses_anonymous_args = 0
 546              		@ link register save eliminated.
 547 0000 003000E3 		movw	r3, #:lower16:ulPortInterruptNesting
 548 0004 003040E3 		movt	r3, #:upper16:ulPortInterruptNesting
 549 0008 003093E5 		ldr	r3, [r3]
 550 000c 000053E3 		cmp	r3, #0
 551 0010 0300000A 		beq	.L86
 552 0014 003000E3 		movw	r3, #:lower16:uxSavedInterruptStatus
 553 0018 003040E3 		movt	r3, #:upper16:uxSavedInterruptStatus
 554 001c 000093E5 		ldr	r0, [r3]
 555 0020 FEFFFFEA 		b	vPortClearInterruptMask
 556              	.L86:
 557 0024 FEFFFFEA 		b	vPortExitCritical
 559              		.section	.text.R_OS_SysWaitAccess,"ax",%progbits
 560              		.align	2
 561              		.global	R_OS_SysWaitAccess
 562              		.syntax unified
 563              		.arm
 564              		.fpu neon
 566              	R_OS_SysWaitAccess:
 567              		@ args = 0, pretend = 0, frame = 0
 568              		@ frame_needed = 0, uses_anonymous_args = 0
 569 0000 70402DE9 		push	{r4, r5, r6, lr}
 570 0004 FEFFFFEB 		bl	xTaskGetCurrentTaskHandle
 571 0008 003000E3 		movw	r3, #:lower16:.LANCHOR0
 572 000c 003040E3 		movt	r3, #:upper16:.LANCHOR0
 573 0010 003093E5 		ldr	r3, [r3]
 574 0014 000053E3 		cmp	r3, #0
 575 0018 7080BD08 		popeq	{r4, r5, r6, pc}
 576 001c 004000E3 		movw	r4, #:lower16:.LANCHOR3
 577 0020 0060A0E1 		mov	r6, r0
 578 0024 004040E3 		movt	r4, #:upper16:.LANCHOR3
 579 0028 003094E5 		ldr	r3, [r4]
 580 002c 030050E1 		cmp	r0, r3
 581 0030 7080BD08 		popeq	{r4, r5, r6, pc}
 582 0034 005000E3 		movw	r5, #:lower16:.LANCHOR4
 583 0038 005040E3 		movt	r5, #:upper16:.LANCHOR4
 584 003c 000095E5 		ldr	r0, [r5]
 585 0040 000050E3 		cmp	r0, #0
 586 0044 0300000A 		beq	.L94
 587              	.L89:
 588 0048 0010E0E3 		mvn	r1, #0
 589 004c FEFFFFEB 		bl	xQueueSemaphoreTake
 590 0050 006084E5 		str	r6, [r4]
 591 0054 7080BDE8 		pop	{r4, r5, r6, pc}
 592              	.L94:
 593 0058 0100A0E3 		mov	r0, #1
 594 005c FEFFFFEB 		bl	xQueueCreateMutex
 595 0060 000085E5 		str	r0, [r5]
 596 0064 F7FFFFEA 		b	.L89
 598              		.section	.text.R_OS_SysReleaseAccess,"ax",%progbits
 599              		.align	2
 600              		.global	R_OS_SysReleaseAccess
 601              		.syntax unified
 602              		.arm
 603              		.fpu neon
 605              	R_OS_SysReleaseAccess:
 606              		@ args = 0, pretend = 0, frame = 0
 607              		@ frame_needed = 0, uses_anonymous_args = 0
 608 0000 003000E3 		movw	r3, #:lower16:.LANCHOR0
 609 0004 003040E3 		movt	r3, #:upper16:.LANCHOR0
 610 0008 003093E5 		ldr	r3, [r3]
 611 000c 000053E3 		cmp	r3, #0
 612 0010 1EFF2F01 		bxeq	lr
 613 0014 003000E3 		movw	r3, #:lower16:.LANCHOR4
 614 0018 00C000E3 		movw	ip, #:lower16:.LANCHOR3
 615 001c 04E02DE5 		str	lr, [sp, #-4]!
 616 0020 003040E3 		movt	r3, #:upper16:.LANCHOR4
 617 0024 00E0A0E3 		mov	lr, #0
 618 0028 00C040E3 		movt	ip, #:upper16:.LANCHOR3
 619 002c 0E20A0E1 		mov	r2, lr
 620 0030 0E10A0E1 		mov	r1, lr
 621 0034 000093E5 		ldr	r0, [r3]
 622 0038 0E30A0E1 		mov	r3, lr
 623 003c 00E08CE5 		str	lr, [ip]
 624 0040 04E09DE4 		ldr	lr, [sp], #4
 625 0044 FEFFFFEA 		b	xQueueGenericSend
 627              		.section	.text.R_OS_AssertCalled,"ax",%progbits
 628              		.align	2
 629              		.global	R_OS_AssertCalled
 630              		.syntax unified
 631              		.arm
 632              		.fpu neon
 634              	R_OS_AssertCalled:
 635              		@ args = 0, pretend = 0, frame = 72
 636              		@ frame_needed = 0, uses_anonymous_args = 0
 637 0000 30402DE9 		push	{r4, r5, lr}
 638 0004 0030A0E3 		mov	r3, #0
 639 0008 4CD04DE2 		sub	sp, sp, #76
 640 000c 0040A0E1 		mov	r4, r0
 641 0010 0150A0E1 		mov	r5, r1
 642 0014 2020A0E3 		mov	r2, #32
 643 0018 0310A0E1 		mov	r1, r3
 644 001c 04008DE2 		add	r0, sp, #4
 645 0020 00308DE5 		str	r3, [sp]
 646 0024 FEFFFFEB 		bl	memset
 647 0028 000000E3 		movw	r0, #:lower16:.LANCHOR5
 648 002c C720A0E3 		mov	r2, #199
 649 0030 0410A0E1 		mov	r1, r4
 650 0034 000040E3 		movt	r0, #:upper16:.LANCHOR5
 651 0038 FEFFFFEB 		bl	strncpy
 652 003c 004000E3 		movw	r4, #:lower16:.LANCHOR6
 653 0040 001000E3 		movw	r1, #:lower16:.LANCHOR5
 654 0044 000000E3 		movw	r0, #:lower16:.LC2
 655 0048 004040E3 		movt	r4, #:upper16:.LANCHOR6
 656 004c 001040E3 		movt	r1, #:upper16:.LANCHOR5
 657 0050 000040E3 		movt	r0, #:upper16:.LC2
 658 0054 005084E5 		str	r5, [r4]
 659 0058 FEFFFFEB 		bl	printf
 660 005c 000000E3 		movw	r0, #:lower16:.LC3
 661 0060 B010D4E1 		ldrh	r1, [r4]
 662 0064 000040E3 		movt	r0, #:upper16:.LC3
 663 0068 FEFFFFEB 		bl	printf
 664 006c FEFFFFEB 		bl	xTaskGetCurrentTaskHandle
 665 0070 0530A0E3 		mov	r3, #5
 666 0074 0120A0E3 		mov	r2, #1
 667 0078 24108DE2 		add	r1, sp, #36
 668 007c FEFFFFEB 		bl	vTaskGetInfo
 669 0080 1F20A0E3 		mov	r2, #31
 670 0084 28109DE5 		ldr	r1, [sp, #40]
 671 0088 04008DE2 		add	r0, sp, #4
 672 008c FEFFFFEB 		bl	strncpy
 673 0090 000000E3 		movw	r0, #:lower16:.LC4
 674 0094 04108DE2 		add	r1, sp, #4
 675 0098 000040E3 		movt	r0, #:upper16:.LC4
 676 009c FEFFFFEB 		bl	printf
 677 00a0 003000E3 		movw	r3, #:lower16:_impure_ptr
 678 00a4 003040E3 		movt	r3, #:upper16:_impure_ptr
 679 00a8 003093E5 		ldr	r3, [r3]
 680 00ac 080093E5 		ldr	r0, [r3, #8]
 681 00b0 FEFFFFEB 		bl	fflush
 682 00b4 00309DE5 		ldr	r3, [sp]
 683 00b8 010453E3 		cmp	r3, #16777216
 684 00bc 0500002A 		bcs	.L103
 685              	.L105:
 686 00c0 00309DE5 		ldr	r3, [sp]
 687 00c4 013083E2 		add	r3, r3, #1
 688 00c8 00308DE5 		str	r3, [sp]
 689 00cc 00309DE5 		ldr	r3, [sp]
 690 00d0 010453E3 		cmp	r3, #16777216
 691 00d4 F9FFFF3A 		bcc	.L105
 692              	.L103:
 693 00d8 0030A0E3 		mov	r3, #0
 694 00dc 00308DE5 		str	r3, [sp]
 695 00e0 FEFFFFEB 		bl	vPortEnterCritical
 696              	.L102:
 697 00e4 00309DE5 		ldr	r3, [sp]
 698 00e8 000053E3 		cmp	r3, #0
 699 00ec FCFFFF0A 		beq	.L102
 700 00f0 FEFFFFEB 		bl	vPortExitCritical
 701 00f4 4CD08DE2 		add	sp, sp, #76
 702              		@ sp needed
 703 00f8 3080BDE8 		pop	{r4, r5, pc}
 705              		.section	.text.R_OS_KernelInit,"ax",%progbits
 706              		.align	2
 707              		.global	R_OS_KernelInit
 708              		.syntax unified
 709              		.arm
 710              		.fpu neon
 712              	R_OS_KernelInit:
 713              		@ args = 0, pretend = 0, frame = 8
 714              		@ frame_needed = 0, uses_anonymous_args = 0
 715 0000 10402DE9 		push	{r4, lr}
 716 0004 10D04DE2 		sub	sp, sp, #16
 717 0008 0639A0E3 		mov	r3, #98304
 718 000c 10408DE2 		add	r4, sp, #16
 719 0010 043024E5 		str	r3, [r4, #-4]!
 720 0014 FEFFFFEB 		bl	R_OS_InitMemManager
 721 0018 FEFFFFEB 		bl	R_DEVLINK_Init
 722 001c FEFFFFEB 		bl	initialise_monitor_handles
 723 0020 00C0A0E3 		mov	ip, #0
 724 0024 0620A0E3 		mov	r2, #6
 725 0028 001000E3 		movw	r1, #:lower16:.LANCHOR7
 726 002c 000000E3 		movw	r0, #:lower16:main_task
 727 0030 04108DE8 		stm	sp, {r2, ip}
 728 0034 0430A0E1 		mov	r3, r4
 729 0038 001040E3 		movt	r1, #:upper16:.LANCHOR7
 730 003c 000040E3 		movt	r0, #:upper16:main_task
 731 0040 0129A0E3 		mov	r2, #16384
 732 0044 FEFFFFEB 		bl	xTaskCreate
 733 0048 010050E3 		cmp	r0, #1
 734 004c 0300000A 		beq	.L110
 735 0050 000000E3 		movw	r0, #:lower16:.LC5
 736 0054 8F1100E3 		movw	r1, #399
 737 0058 000040E3 		movt	r0, #:upper16:.LC5
 738 005c FEFFFFEB 		bl	R_OS_AssertCalled
 739              	.L110:
 740 0060 FEFFFFEB 		bl	vTaskStartScheduler
 741              	.L111:
 742              		.syntax divided
 743              	@ 47 "C:/Renesas/e2studio_2021_01_workspace_RZA2M_ANPR/ANPR_RZA2M_EBK/generate/compiler/inc/r_compi
 744 0064 00F020E3 		nop
 745              	@ 0 "" 2
 746              		.arm
 747              		.syntax unified
 748 0068 FDFFFFEA 		b	.L111
 750              		.section	.text.R_OS_AbstractionLayerInit,"ax",%progbits
 751              		.align	2
 752              		.global	R_OS_AbstractionLayerInit
 753              		.syntax unified
 754              		.arm
 755              		.fpu neon
 757              	R_OS_AbstractionLayerInit:
 758              		@ args = 0, pretend = 0, frame = 0
 759              		@ frame_needed = 0, uses_anonymous_args = 0
 760 0000 10402DE9 		push	{r4, lr}
 761 0004 FEFFFFEB 		bl	R_OS_KernelInit
 763              		.section	.text.R_OS_Malloc,"ax",%progbits
 764              		.align	2
 765              		.global	R_OS_Malloc
 766              		.syntax unified
 767              		.arm
 768              		.fpu neon
 770              	R_OS_Malloc:
 771              		@ args = 0, pretend = 0, frame = 0
 772              		@ frame_needed = 0, uses_anonymous_args = 0
 773 0000 70402DE9 		push	{r4, r5, r6, lr}
 774 0004 0140A0E1 		mov	r4, r1
 775 0008 0050A0E1 		mov	r5, r0
 776 000c FEFFFFEB 		bl	vTaskSuspendAll
 777 0010 003000E3 		movw	r3, #:lower16:xHeapRegions
 778 0014 010054E3 		cmp	r4, #1
 779 0018 003040E3 		movt	r3, #:upper16:xHeapRegions
 780 001c 84019397 		ldrls	r0, [r3, r4, lsl #3]
 781 0020 00009385 		ldrhi	r0, [r3]
 782 0024 FEFFFFEB 		bl	pvPortsetDesiredBlockForMalloc
 783 0028 0500A0E1 		mov	r0, r5
 784 002c FEFFFFEB 		bl	pvPortMalloc
 785 0030 0040A0E1 		mov	r4, r0
 786 0034 FEFFFFEB 		bl	xTaskResumeAll
 787 0038 0400A0E1 		mov	r0, r4
 788 003c 7080BDE8 		pop	{r4, r5, r6, pc}
 790              		.section	.text.R_OS_Free,"ax",%progbits
 791              		.align	2
 792              		.global	R_OS_Free
 793              		.syntax unified
 794              		.arm
 795              		.fpu neon
 797              	R_OS_Free:
 798              		@ args = 0, pretend = 0, frame = 0
 799              		@ frame_needed = 0, uses_anonymous_args = 0
 800 0000 10402DE9 		push	{r4, lr}
 801 0004 004050E2 		subs	r4, r0, #0
 802 0008 1080BD08 		popeq	{r4, pc}
 803 000c 000094E5 		ldr	r0, [r4]
 804 0010 000050E3 		cmp	r0, #0
 805 0014 1080BD08 		popeq	{r4, pc}
 806 0018 FEFFFFEB 		bl	vPortFree
 807 001c 0030A0E3 		mov	r3, #0
 808 0020 003084E5 		str	r3, [r4]
 809 0024 1080BDE8 		pop	{r4, pc}
 811              		.section	.text.R_OS_SemaphoreCreate,"ax",%progbits
 812              		.align	2
 813              		.global	R_OS_SemaphoreCreate
 814              		.syntax unified
 815              		.arm
 816              		.fpu neon
 818              	R_OS_SemaphoreCreate:
 819              		@ args = 0, pretend = 0, frame = 0
 820              		@ frame_needed = 0, uses_anonymous_args = 0
 821 0000 012041E2 		sub	r2, r1, #1
 822 0004 070052E3 		cmp	r2, #7
 823 0008 0100009A 		bls	.L138
 824 000c 0000A0E3 		mov	r0, #0
 825 0010 1EFF2FE1 		bx	lr
 826              	.L138:
 827 0014 10402DE9 		push	{r4, lr}
 828 0018 0040A0E1 		mov	r4, r0
 829 001c 0100A0E1 		mov	r0, r1
 830 0020 FEFFFFEB 		bl	xQueueCreateCountingSemaphore
 831 0024 000084E5 		str	r0, [r4]
 832 0028 000090E2 		adds	r0, r0, #0
 833 002c 0100A013 		movne	r0, #1
 834 0030 1080BDE8 		pop	{r4, pc}
 836              		.section	.text.R_OS_SemaphoreDelete,"ax",%progbits
 837              		.align	2
 838              		.global	R_OS_SemaphoreDelete
 839              		.syntax unified
 840              		.arm
 841              		.fpu neon
 843              	R_OS_SemaphoreDelete:
 844              		@ args = 0, pretend = 0, frame = 8
 845              		@ frame_needed = 0, uses_anonymous_args = 0
 846 0000 002090E5 		ldr	r2, [r0]
 847 0004 000052E3 		cmp	r2, #0
 848 0008 1EFF2F01 		bxeq	lr
 849 000c 04E02DE5 		str	lr, [sp, #-4]!
 850 0010 0CD04DE2 		sub	sp, sp, #12
 851 0014 0030A0E1 		mov	r3, r0
 852 0018 04208DE5 		str	r2, [sp, #4]
 853 001c 0020A0E3 		mov	r2, #0
 854 0020 04009DE5 		ldr	r0, [sp, #4]
 855 0024 002083E5 		str	r2, [r3]
 856 0028 FEFFFFEB 		bl	vQueueDelete
 857 002c 0CD08DE2 		add	sp, sp, #12
 858              		@ sp needed
 859 0030 04F09DE4 		ldr	pc, [sp], #4
 861              		.section	.text.R_OS_SemaphoreWait,"ax",%progbits
 862              		.align	2
 863              		.global	R_OS_SemaphoreWait
 864              		.syntax unified
 865              		.arm
 866              		.fpu neon
 868              	R_OS_SemaphoreWait:
 869              		@ args = 0, pretend = 0, frame = 8
 870              		@ frame_needed = 0, uses_anonymous_args = 0
 871 0000 000090E5 		ldr	r0, [r0]
 872 0004 000050E3 		cmp	r0, #0
 873 0008 1EFF2F01 		bxeq	lr
 874 000c 003000E3 		movw	r3, #:lower16:ulPortInterruptNesting
 875 0010 04E02DE5 		str	lr, [sp, #-4]!
 876 0014 003040E3 		movt	r3, #:upper16:ulPortInterruptNesting
 877 0018 0CD04DE2 		sub	sp, sp, #12
 878 001c 003093E5 		ldr	r3, [r3]
 879 0020 000053E3 		cmp	r3, #0
 880 0024 0500001A 		bne	.L156
 881 0028 FEFFFFEB 		bl	xQueueSemaphoreTake
 882 002c 010040E2 		sub	r0, r0, #1
 883 0030 100F6FE1 		clz	r0, r0
 884 0034 A002A0E1 		lsr	r0, r0, #5
 885 0038 0CD08DE2 		add	sp, sp, #12
 886              		@ sp needed
 887 003c 04F09DE4 		ldr	pc, [sp], #4
 888              	.L156:
 889 0040 04208DE2 		add	r2, sp, #4
 890 0044 0010A0E3 		mov	r1, #0
 891 0048 FEFFFFEB 		bl	xQueueReceiveFromISR
 892 004c 010040E2 		sub	r0, r0, #1
 893 0050 100F6FE1 		clz	r0, r0
 894 0054 A002A0E1 		lsr	r0, r0, #5
 895 0058 0CD08DE2 		add	sp, sp, #12
 896              		@ sp needed
 897 005c 04F09DE4 		ldr	pc, [sp], #4
 899              		.section	.text.R_OS_SemaphoreRelease,"ax",%progbits
 900              		.align	2
 901              		.global	R_OS_SemaphoreRelease
 902              		.syntax unified
 903              		.arm
 904              		.fpu neon
 906              	R_OS_SemaphoreRelease:
 907              		@ args = 0, pretend = 0, frame = 0
 908              		@ frame_needed = 0, uses_anonymous_args = 0
 909              		@ link register save eliminated.
 910 0000 000090E5 		ldr	r0, [r0]
 911 0004 000050E3 		cmp	r0, #0
 912 0008 1EFF2F01 		bxeq	lr
 913 000c 003000E3 		movw	r3, #:lower16:ulPortInterruptNesting
 914 0010 003040E3 		movt	r3, #:upper16:ulPortInterruptNesting
 915 0014 003093E5 		ldr	r3, [r3]
 916 0018 000053E3 		cmp	r3, #0
 917 001c 0200001A 		bne	.L160
 918 0020 0320A0E1 		mov	r2, r3
 919 0024 0310A0E1 		mov	r1, r3
 920 0028 FEFFFFEA 		b	xQueueGenericSend
 921              	.L160:
 922 002c 0010A0E3 		mov	r1, #0
 923 0030 FEFFFFEA 		b	xQueueGiveFromISR
 925              		.section	.text.R_OS_MutexCreate,"ax",%progbits
 926              		.align	2
 927              		.global	R_OS_MutexCreate
 928              		.syntax unified
 929              		.arm
 930              		.fpu neon
 932              	R_OS_MutexCreate:
 933              		@ args = 0, pretend = 0, frame = 0
 934              		@ frame_needed = 0, uses_anonymous_args = 0
 935              		@ link register save eliminated.
 936 0000 0100A0E3 		mov	r0, #1
 937 0004 FEFFFFEA 		b	xQueueCreateMutex
 939              		.section	.text.R_OS_MutexDelete,"ax",%progbits
 940              		.align	2
 941              		.global	R_OS_MutexDelete
 942              		.syntax unified
 943              		.arm
 944              		.fpu neon
 946              	R_OS_MutexDelete:
 947              		@ args = 0, pretend = 0, frame = 0
 948              		@ frame_needed = 0, uses_anonymous_args = 0
 949 0000 10402DE9 		push	{r4, lr}
 950 0004 0040A0E1 		mov	r4, r0
 951 0008 000090E5 		ldr	r0, [r0]
 952 000c FEFFFFEB 		bl	vQueueDelete
 953 0010 0030A0E3 		mov	r3, #0
 954 0014 003084E5 		str	r3, [r4]
 955 0018 1080BDE8 		pop	{r4, pc}
 957              		.section	.text.R_OS_MutexAcquire,"ax",%progbits
 958              		.align	2
 959              		.global	R_OS_MutexAcquire
 960              		.syntax unified
 961              		.arm
 962              		.fpu neon
 964              	R_OS_MutexAcquire:
 965              		@ args = 0, pretend = 0, frame = 0
 966              		@ frame_needed = 0, uses_anonymous_args = 0
 967              		@ link register save eliminated.
 968 0000 0010E0E3 		mvn	r1, #0
 969 0004 FEFFFFEA 		b	xQueueSemaphoreTake
 971              		.section	.text.R_OS_MutexRelease,"ax",%progbits
 972              		.align	2
 973              		.global	R_OS_MutexRelease
 974              		.syntax unified
 975              		.arm
 976              		.fpu neon
 978              	R_OS_MutexRelease:
 979              		@ args = 0, pretend = 0, frame = 0
 980              		@ frame_needed = 0, uses_anonymous_args = 0
 981              		@ link register save eliminated.
 982 0000 0030A0E3 		mov	r3, #0
 983 0004 0320A0E1 		mov	r2, r3
 984 0008 0310A0E1 		mov	r1, r3
 985 000c FEFFFFEA 		b	xQueueGenericSend
 987              		.section	.text.R_OS_MutexWait,"ax",%progbits
 988              		.align	2
 989              		.global	R_OS_MutexWait
 990              		.syntax unified
 991              		.arm
 992              		.fpu neon
 994              	R_OS_MutexWait:
 995              		@ args = 0, pretend = 0, frame = 8
 996              		@ frame_needed = 0, uses_anonymous_args = 0
 997 0000 10402DE9 		push	{r4, lr}
 998 0004 0040A0E1 		mov	r4, r0
 999 0008 000090E5 		ldr	r0, [r0]
 1000 000c 08D04DE2 		sub	sp, sp, #8
 1001 0010 000050E3 		cmp	r0, #0
 1002 0014 0400000A 		beq	.L171
 1003              	.L167:
 1004 0018 FEFFFFEB 		bl	xQueueSemaphoreTake
 1005 001c 000090E2 		adds	r0, r0, #0
 1006 0020 0100A013 		movne	r0, #1
 1007              	.L166:
 1008 0024 08D08DE2 		add	sp, sp, #8
 1009              		@ sp needed
 1010 0028 1080BDE8 		pop	{r4, pc}
 1011              	.L171:
 1012 002c 0100A0E3 		mov	r0, #1
 1013 0030 04108DE5 		str	r1, [sp, #4]
 1014 0034 FEFFFFEB 		bl	xQueueCreateMutex
 1015 0038 000050E3 		cmp	r0, #0
 1016 003c 000084E5 		str	r0, [r4]
 1017 0040 04109DE5 		ldr	r1, [sp, #4]
 1018 0044 F6FFFF0A 		beq	.L166
 1019 0048 F2FFFFEA 		b	.L167
 1021              		.section	.text.R_OS_EnterCritical,"ax",%progbits
 1022              		.align	2
 1023              		.global	R_OS_EnterCritical
 1024              		.syntax unified
 1025              		.arm
 1026              		.fpu neon
 1028              	R_OS_EnterCritical:
 1029              		@ args = 0, pretend = 0, frame = 0
 1030              		@ frame_needed = 0, uses_anonymous_args = 0
 1031              		@ link register save eliminated.
 1032 0000 FEFFFFEA 		b	vPortEnterCritical
 1034              		.section	.text.R_OS_ExitCritical,"ax",%progbits
 1035              		.align	2
 1036              		.global	R_OS_ExitCritical
 1037              		.syntax unified
 1038              		.arm
 1039              		.fpu neon
 1041              	R_OS_ExitCritical:
 1042              		@ args = 0, pretend = 0, frame = 0
 1043              		@ frame_needed = 0, uses_anonymous_args = 0
 1044              		@ link register save eliminated.
 1045 0000 FEFFFFEA 		b	vPortExitCritical
 1047              		.section	.text.R_OS_MessageQueueCreate,"ax",%progbits
 1048              		.align	2
 1049              		.global	R_OS_MessageQueueCreate
 1050              		.syntax unified
 1051              		.arm
 1052              		.fpu neon
 1054              	R_OS_MessageQueueCreate:
 1055              		@ args = 0, pretend = 0, frame = 0
 1056              		@ frame_needed = 0, uses_anonymous_args = 0
 1057 0000 10402DE9 		push	{r4, lr}
 1058 0004 0020A0E3 		mov	r2, #0
 1059 0008 0040A0E1 		mov	r4, r0
 1060 000c 0100A0E1 		mov	r0, r1
 1061 0010 0410A0E3 		mov	r1, #4
 1062 0014 FEFFFFEB 		bl	xQueueGenericCreate
 1063 0018 000050E3 		cmp	r0, #0
 1064 001c 00008415 		strne	r0, [r4]
 1065 0020 0100A013 		movne	r0, #1
 1066 0024 1080BDE8 		pop	{r4, pc}
 1068              		.section	.text.R_OS_MessageQueuePut,"ax",%progbits
 1069              		.align	2
 1070              		.global	R_OS_MessageQueuePut
 1071              		.syntax unified
 1072              		.arm
 1073              		.fpu neon
 1075              	R_OS_MessageQueuePut:
 1076              		@ args = 0, pretend = 0, frame = 8
 1077              		@ frame_needed = 0, uses_anonymous_args = 0
 1078 0000 003050E2 		subs	r3, r0, #0
 1079 0004 04E02DE5 		str	lr, [sp, #-4]!
 1080 0008 0CD04DE2 		sub	sp, sp, #12
 1081 000c 04108DE5 		str	r1, [sp, #4]
 1082 0010 1100000A 		beq	.L182
 1083 0014 003000E3 		movw	r3, #:lower16:ulPortInterruptNesting
 1084 0018 003040E3 		movt	r3, #:upper16:ulPortInterruptNesting
 1085 001c 003093E5 		ldr	r3, [r3]
 1086 0020 000053E3 		cmp	r3, #0
 1087 0024 0700001A 		bne	.L184
 1088 0028 0320A0E1 		mov	r2, r3
 1089 002c 04108DE2 		add	r1, sp, #4
 1090 0030 FEFFFFEB 		bl	xQueueGenericSend
 1091              	.L181:
 1092 0034 010040E2 		sub	r0, r0, #1
 1093 0038 100F6FE1 		clz	r0, r0
 1094 003c A002A0E1 		lsr	r0, r0, #5
 1095 0040 0CD08DE2 		add	sp, sp, #12
 1096              		@ sp needed
 1097 0044 04F09DE4 		ldr	pc, [sp], #4
 1098              	.L184:
 1099 0048 0030A0E3 		mov	r3, #0
 1100 004c 04108DE2 		add	r1, sp, #4
 1101 0050 0320A0E1 		mov	r2, r3
 1102 0054 FEFFFFEB 		bl	xQueueGenericSendFromISR
 1103 0058 F5FFFFEA 		b	.L181
 1104              	.L182:
 1105 005c 0300A0E1 		mov	r0, r3
 1106 0060 0CD08DE2 		add	sp, sp, #12
 1107              		@ sp needed
 1108 0064 04F09DE4 		ldr	pc, [sp], #4
 1110              		.section	.text.R_OS_MessageQueueGet,"ax",%progbits
 1111              		.align	2
 1112              		.global	R_OS_MessageQueueGet
 1113              		.syntax unified
 1114              		.arm
 1115              		.fpu neon
 1117              	R_OS_MessageQueueGet:
 1118              		@ args = 0, pretend = 0, frame = 0
 1119              		@ frame_needed = 0, uses_anonymous_args = 0
 1120 0000 000050E3 		cmp	r0, #0
 1121 0004 00005113 		cmpne	r1, #0
 1122 0008 01C0A013 		movne	ip, #1
 1123 000c 00C0A003 		moveq	ip, #0
 1124 0010 1500000A 		beq	.L191
 1125 0014 000053E3 		cmp	r3, #0
 1126 0018 F0412DE9 		push	{r4, r5, r6, r7, r8, lr}
 1127 001c 0250A0E1 		mov	r5, r2
 1128 0020 0060A0E1 		mov	r6, r0
 1129 0024 0140A0E1 		mov	r4, r1
 1130 0028 0370A0E1 		mov	r7, r3
 1131 002c 0600001A 		bne	.L192
 1132 0030 FEFFFFEB 		bl	xQueueReceive
 1133 0034 010050E3 		cmp	r0, #1
 1134 0038 0900000A 		beq	.L190
 1135 003c 007084E5 		str	r7, [r4]
 1136 0040 0700A0E1 		mov	r0, r7
 1137 0044 F081BDE8 		pop	{r4, r5, r6, r7, r8, pc}
 1138              	.L189:
 1139              		.syntax divided
 1140              	@ 1600 "../generate/os_abstraction/src/r_os_abstraction_api.c" 1
 1141 0048 000000EF 		SWI 0
 1142              	@ 0 "" 2
 1143              		.arm
 1144              		.syntax unified
 1145              	.L192:
 1146 004c 0520A0E1 		mov	r2, r5
 1147 0050 0410A0E1 		mov	r1, r4
 1148 0054 0600A0E1 		mov	r0, r6
 1149 0058 FEFFFFEB 		bl	xQueueReceive
 1150 005c 010050E3 		cmp	r0, #1
 1151 0060 F8FFFF1A 		bne	.L189
 1152              	.L190:
 1153 0064 0100A0E3 		mov	r0, #1
 1154 0068 F081BDE8 		pop	{r4, r5, r6, r7, r8, pc}
 1155              	.L191:
 1156 006c 0C00A0E1 		mov	r0, ip
 1157 0070 1EFF2FE1 		bx	lr
 1159              		.section	.text.R_OS_MessageQueueClear,"ax",%progbits
 1160              		.align	2
 1161              		.global	R_OS_MessageQueueClear
 1162              		.syntax unified
 1163              		.arm
 1164              		.fpu neon
 1166              	R_OS_MessageQueueClear:
 1167              		@ args = 0, pretend = 0, frame = 0
 1168              		@ frame_needed = 0, uses_anonymous_args = 0
 1169 0000 003050E2 		subs	r3, r0, #0
 1170 0004 0400000A 		beq	.L199
 1171 0008 10402DE9 		push	{r4, lr}
 1172 000c 0010A0E3 		mov	r1, #0
 1173 0010 FEFFFFEB 		bl	xQueueGenericReset
 1174 0014 0100A0E3 		mov	r0, #1
 1175 0018 1080BDE8 		pop	{r4, pc}
 1176              	.L199:
 1177 001c 0300A0E1 		mov	r0, r3
 1178 0020 1EFF2FE1 		bx	lr
 1180              		.section	.text.R_OS_MessageQueueDelete,"ax",%progbits
 1181              		.align	2
 1182              		.global	R_OS_MessageQueueDelete
 1183              		.syntax unified
 1184              		.arm
 1185              		.fpu neon
 1187              	R_OS_MessageQueueDelete:
 1188              		@ args = 0, pretend = 0, frame = 0
 1189              		@ frame_needed = 0, uses_anonymous_args = 0
 1190 0000 10402DE9 		push	{r4, lr}
 1191 0004 004050E2 		subs	r4, r0, #0
 1192 0008 0500000A 		beq	.L206
 1193 000c 000094E5 		ldr	r0, [r4]
 1194 0010 FEFFFFEB 		bl	vQueueDelete
 1195 0014 0030A0E3 		mov	r3, #0
 1196 0018 0100A0E3 		mov	r0, #1
 1197 001c 003084E5 		str	r3, [r4]
 1198 0020 1080BDE8 		pop	{r4, pc}
 1199              	.L206:
 1200 0024 0400A0E1 		mov	r0, r4
 1201 0028 1080BDE8 		pop	{r4, pc}
 1203              		.section	.text.R_OS_EventCreate,"ax",%progbits
 1204              		.align	2
 1205              		.global	R_OS_EventCreate
 1206              		.syntax unified
 1207              		.arm
 1208              		.fpu neon
 1210              	R_OS_EventCreate:
 1211              		@ args = 0, pretend = 0, frame = 0
 1212              		@ frame_needed = 0, uses_anonymous_args = 0
 1213 0000 0110A0E3 		mov	r1, #1
 1214 0004 70402DE9 		push	{r4, r5, r6, lr}
 1215 0008 0020A0E3 		mov	r2, #0
 1216 000c 0050A0E1 		mov	r5, r0
 1217 0010 0100A0E1 		mov	r0, r1
 1218 0014 FEFFFFEB 		bl	xQueueGenericCreate
 1219 0018 004050E2 		subs	r4, r0, #0
 1220 001c 0C00000A 		beq	.L210
 1221 0020 0010A0E3 		mov	r1, #0
 1222 0024 FEFFFFEB 		bl	xQueueGenericReset
 1223 0028 002000E3 		movw	r2, #:lower16:.LANCHOR8
 1224 002c 001000E3 		movw	r1, #:lower16:.LANCHOR9
 1225 0030 002040E3 		movt	r2, #:upper16:.LANCHOR8
 1226 0034 001040E3 		movt	r1, #:upper16:.LANCHOR9
 1227 0038 003092E5 		ldr	r3, [r2]
 1228 003c 000091E5 		ldr	r0, [r1]
 1229 0040 004085E5 		str	r4, [r5]
 1230 0044 013083E2 		add	r3, r3, #1
 1231 0048 000053E1 		cmp	r3, r0
 1232 004c 003082E5 		str	r3, [r2]
 1233 0050 00308185 		strhi	r3, [r1]
 1234              	.L210:
 1235 0054 000094E2 		adds	r0, r4, #0
 1236 0058 0100A013 		movne	r0, #1
 1237 005c 7080BDE8 		pop	{r4, r5, r6, pc}
 1239              		.section	.text.R_OS_EventDelete,"ax",%progbits
 1240              		.align	2
 1241              		.global	R_OS_EventDelete
 1242              		.syntax unified
 1243              		.arm
 1244              		.fpu neon
 1246              	R_OS_EventDelete:
 1247              		@ args = 0, pretend = 0, frame = 0
 1248              		@ frame_needed = 0, uses_anonymous_args = 0
 1249 0000 10402DE9 		push	{r4, lr}
 1250 0004 004050E2 		subs	r4, r0, #0
 1251 0008 0700000A 		beq	.L215
 1252 000c 000094E5 		ldr	r0, [r4]
 1253 0010 FEFFFFEB 		bl	vQueueDelete
 1254 0014 003000E3 		movw	r3, #:lower16:.LANCHOR8
 1255 0018 003040E3 		movt	r3, #:upper16:.LANCHOR8
 1256 001c 002093E5 		ldr	r2, [r3]
 1257 0020 000052E3 		cmp	r2, #0
 1258 0024 01204212 		subne	r2, r2, #1
 1259 0028 00208315 		strne	r2, [r3]
 1260              	.L215:
 1261 002c 0030A0E3 		mov	r3, #0
 1262 0030 003084E5 		str	r3, [r4]
 1263 0034 1080BDE8 		pop	{r4, pc}
 1265              		.section	.text.R_OS_EventSet,"ax",%progbits
 1266              		.align	2
 1267              		.global	R_OS_EventSet
 1268              		.syntax unified
 1269              		.arm
 1270              		.fpu neon
 1272              	R_OS_EventSet:
 1273              		@ args = 0, pretend = 0, frame = 8
 1274              		@ frame_needed = 0, uses_anonymous_args = 0
 1275 0000 003000E3 		movw	r3, #:lower16:ulPortInterruptNesting
 1276 0004 04E02DE5 		str	lr, [sp, #-4]!
 1277 0008 003040E3 		movt	r3, #:upper16:ulPortInterruptNesting
 1278 000c 0CD04DE2 		sub	sp, sp, #12
 1279 0010 0110A0E3 		mov	r1, #1
 1280 0014 002093E5 		ldr	r2, [r3]
 1281 0018 0230A0E3 		mov	r3, #2
 1282 001c 0710CDE5 		strb	r1, [sp, #7]
 1283 0020 000090E5 		ldr	r0, [r0]
 1284 0024 000052E3 		cmp	r2, #0
 1285 0028 0300001A 		bne	.L225
 1286 002c 07108DE2 		add	r1, sp, #7
 1287 0030 FEFFFFEB 		bl	xQueueGenericSend
 1288 0034 0CD08DE2 		add	sp, sp, #12
 1289              		@ sp needed
 1290 0038 04F09DE4 		ldr	pc, [sp], #4
 1291              	.L225:
 1292 003c 0020A0E3 		mov	r2, #0
 1293 0040 07108DE2 		add	r1, sp, #7
 1294 0044 FEFFFFEB 		bl	xQueueGenericSendFromISR
 1295 0048 0CD08DE2 		add	sp, sp, #12
 1296              		@ sp needed
 1297 004c 04F09DE4 		ldr	pc, [sp], #4
 1299              		.section	.text.R_OS_EventReset,"ax",%progbits
 1300              		.align	2
 1301              		.global	R_OS_EventReset
 1302              		.syntax unified
 1303              		.arm
 1304              		.fpu neon
 1306              	R_OS_EventReset:
 1307              		@ args = 0, pretend = 0, frame = 8
 1308              		@ frame_needed = 0, uses_anonymous_args = 0
 1309 0000 003000E3 		movw	r3, #:lower16:ulPortInterruptNesting
 1310 0004 0010A0E3 		mov	r1, #0
 1311 0008 003040E3 		movt	r3, #:upper16:ulPortInterruptNesting
 1312 000c 04E02DE5 		str	lr, [sp, #-4]!
 1313 0010 002093E5 		ldr	r2, [r3]
 1314 0014 0CD04DE2 		sub	sp, sp, #12
 1315 0018 0710CDE5 		strb	r1, [sp, #7]
 1316 001c 010052E1 		cmp	r2, r1
 1317 0020 0500001A 		bne	.L230
 1318 0024 0230A0E3 		mov	r3, #2
 1319 0028 07108DE2 		add	r1, sp, #7
 1320 002c 000090E5 		ldr	r0, [r0]
 1321 0030 FEFFFFEB 		bl	xQueueGenericSend
 1322 0034 0CD08DE2 		add	sp, sp, #12
 1323              		@ sp needed
 1324 0038 04F09DE4 		ldr	pc, [sp], #4
 1325              	.L230:
 1326 003c 0120A0E1 		mov	r2, r1
 1327 0040 0230A0E3 		mov	r3, #2
 1328 0044 07108DE2 		add	r1, sp, #7
 1329 0048 000090E5 		ldr	r0, [r0]
 1330 004c FEFFFFEB 		bl	xQueueGenericSendFromISR
 1331 0050 0CD08DE2 		add	sp, sp, #12
 1332              		@ sp needed
 1333 0054 04F09DE4 		ldr	pc, [sp], #4
 1335              		.section	.text.R_OS_EventGet,"ax",%progbits
 1336              		.align	2
 1337              		.global	R_OS_EventGet
 1338              		.syntax unified
 1339              		.arm
 1340              		.fpu neon
 1342              	R_OS_EventGet:
 1343              		@ args = 0, pretend = 0, frame = 8
 1344              		@ frame_needed = 0, uses_anonymous_args = 0
 1345 0000 003000E3 		movw	r3, #:lower16:ulPortInterruptNesting
 1346 0004 0010A0E3 		mov	r1, #0
 1347 0008 003040E3 		movt	r3, #:upper16:ulPortInterruptNesting
 1348 000c 04E02DE5 		str	lr, [sp, #-4]!
 1349 0010 002093E5 		ldr	r2, [r3]
 1350 0014 0CD04DE2 		sub	sp, sp, #12
 1351 0018 0710CDE5 		strb	r1, [sp, #7]
 1352 001c 010052E1 		cmp	r2, r1
 1353 0020 000090E5 		ldr	r0, [r0]
 1354 0024 07108DE2 		add	r1, sp, #7
 1355 0028 0300001A 		bne	.L235
 1356 002c FEFFFFEB 		bl	xQueuePeek
 1357 0030 0700DDE5 		ldrb	r0, [sp, #7]	@ zero_extendqisi2
 1358 0034 0CD08DE2 		add	sp, sp, #12
 1359              		@ sp needed
 1360 0038 04F09DE4 		ldr	pc, [sp], #4
 1361              	.L235:
 1362 003c FEFFFFEB 		bl	xQueuePeekFromISR
 1363 0040 0700DDE5 		ldrb	r0, [sp, #7]	@ zero_extendqisi2
 1364 0044 0CD08DE2 		add	sp, sp, #12
 1365              		@ sp needed
 1366 0048 04F09DE4 		ldr	pc, [sp], #4
 1368              		.section	.text.R_OS_EventWait,"ax",%progbits
 1369              		.align	2
 1370              		.global	R_OS_EventWait
 1371              		.syntax unified
 1372              		.arm
 1373              		.fpu neon
 1375              	R_OS_EventWait:
 1376              		@ args = 0, pretend = 0, frame = 16
 1377              		@ frame_needed = 0, uses_anonymous_args = 0
 1378 0000 0030A0E3 		mov	r3, #0
 1379 0004 F0402DE9 		push	{r4, r5, r6, r7, lr}
 1380 0008 0040A0E1 		mov	r4, r0
 1381 000c 14D04DE2 		sub	sp, sp, #20
 1382 0010 0170A0E1 		mov	r7, r1
 1383 0014 0350A0E1 		mov	r5, r3
 1384 0018 01C0A0E3 		mov	ip, #1
 1385 001c 0220A0E3 		mov	r2, #2
 1386 0020 10608DE2 		add	r6, sp, #16
 1387 0024 08308DE5 		str	r3, [sp, #8]
 1388 0028 092066E5 		strb	r2, [r6, #-9]!
 1389 002c 0CC08DE5 		str	ip, [sp, #12]
 1390              	.L237:
 1391 0030 010077E3 		cmn	r7, #1
 1392 0034 1100001A 		bne	.L239
 1393 0038 0050A0E3 		mov	r5, #0
 1394              	.L242:
 1395 003c 0C309DE5 		ldr	r3, [sp, #12]
 1396 0040 0020E0E3 		mvn	r2, #0
 1397 0044 07108DE2 		add	r1, sp, #7
 1398 0048 010053E3 		cmp	r3, #1
 1399 004c 0800001A 		bne	.L240
 1400 0050 000094E5 		ldr	r0, [r4]
 1401 0054 FEFFFFEB 		bl	xQueueReceive
 1402 0058 010050E3 		cmp	r0, #1
 1403 005c F6FFFF1A 		bne	.L242
 1404 0060 0730DDE5 		ldrb	r3, [sp, #7]	@ zero_extendqisi2
 1405 0064 010053E3 		cmp	r3, #1
 1406 0068 08308D05 		streq	r3, [sp, #8]
 1407 006c 0C508D05 		streq	r5, [sp, #12]
 1408 0070 F1FFFFEA 		b	.L242
 1409              	.L240:
 1410 0074 08009DE5 		ldr	r0, [sp, #8]
 1411 0078 14D08DE2 		add	sp, sp, #20
 1412              		@ sp needed
 1413 007c F080BDE8 		pop	{r4, r5, r6, r7, pc}
 1414              	.L239:
 1415 0080 0C309DE5 		ldr	r3, [sp, #12]
 1416 0084 0720A0E1 		mov	r2, r7
 1417 0088 0610A0E1 		mov	r1, r6
 1418 008c 010053E3 		cmp	r3, #1
 1419 0090 F7FFFF1A 		bne	.L240
 1420 0094 000094E5 		ldr	r0, [r4]
 1421 0098 FEFFFFEB 		bl	xQueueReceive
 1422 009c 010050E3 		cmp	r0, #1
 1423 00a0 0100000A 		beq	.L245
 1424              	.L238:
 1425 00a4 0C508DE5 		str	r5, [sp, #12]
 1426 00a8 E0FFFFEA 		b	.L237
 1427              	.L245:
 1428 00ac 0730DDE5 		ldrb	r3, [sp, #7]	@ zero_extendqisi2
 1429 00b0 010053E3 		cmp	r3, #1
 1430 00b4 08308D05 		streq	r3, [sp, #8]
 1431 00b8 0C508D05 		streq	r5, [sp, #12]
 1432 00bc F8FFFFEA 		b	.L238
 1434              		.section	.text.R_OS_EventSetFromIsr,"ax",%progbits
 1435              		.align	2
 1436              		.global	R_OS_EventSetFromIsr
 1437              		.syntax unified
 1438              		.arm
 1439              		.fpu neon
 1441              	R_OS_EventSetFromIsr:
 1442              		@ args = 0, pretend = 0, frame = 8
 1443              		@ frame_needed = 0, uses_anonymous_args = 0
 1444 0000 04E02DE5 		str	lr, [sp, #-4]!
 1445 0004 0CD04DE2 		sub	sp, sp, #12
 1446 0008 08108DE2 		add	r1, sp, #8
 1447 000c 0030A0E3 		mov	r3, #0
 1448 0010 0120A0E3 		mov	r2, #1
 1449 0014 012061E5 		strb	r2, [r1, #-1]!
 1450 0018 0320A0E1 		mov	r2, r3
 1451 001c 000090E5 		ldr	r0, [r0]
 1452 0020 FEFFFFEB 		bl	xQueueGenericSendFromISR
 1453 0024 010040E2 		sub	r0, r0, #1
 1454 0028 100F6FE1 		clz	r0, r0
 1455 002c A002A0E1 		lsr	r0, r0, #5
 1456 0030 0CD08DE2 		add	sp, sp, #12
 1457              		@ sp needed
 1458 0034 04F09DE4 		ldr	pc, [sp], #4
 1460              		.section	.text.R_OS_GetTickCount,"ax",%progbits
 1461              		.align	2
 1462              		.global	R_OS_GetTickCount
 1463              		.syntax unified
 1464              		.arm
 1465              		.fpu neon
 1467              	R_OS_GetTickCount:
 1468              		@ args = 0, pretend = 0, frame = 0
 1469              		@ frame_needed = 0, uses_anonymous_args = 0
 1470              		@ link register save eliminated.
 1471 0000 FEFFFFEA 		b	xTaskGetTickCount
 1473              		.section	.text.R_OS_GetVersion,"ax",%progbits
 1474              		.align	2
 1475              		.global	R_OS_GetVersion
 1476              		.syntax unified
 1477              		.arm
 1478              		.fpu neon
 1480              	R_OS_GetVersion:
 1481              		@ args = 0, pretend = 0, frame = 0
 1482              		@ frame_needed = 0, uses_anonymous_args = 0
 1483              		@ link register save eliminated.
 1484 0000 002000E3 		movw	r2, #:lower16:.LC6
 1485 0004 0030A0E1 		mov	r3, r0
 1486 0008 05C0A0E3 		mov	ip, #5
 1487 000c 0300A0E3 		mov	r0, #3
 1488 0010 0110A0E3 		mov	r1, #1
 1489 0014 002040E3 		movt	r2, #:upper16:.LC6
 1490 0018 B200C3E1 		strh	r0, [r3, #2]	@ movhi
 1491 001c 0000A0E3 		mov	r0, #0
 1492 0020 B0C0C3E1 		strh	ip, [r3]	@ movhi
 1493 0024 060083E9 		stmib	r3, {r1, r2}
 1494 0028 1EFF2FE1 		bx	lr
 1496              		.section	.text.vApplicationStackOverflowHook,"ax",%progbits
 1497              		.align	2
 1498              		.weak	vApplicationStackOverflowHook
 1499              		.syntax unified
 1500              		.arm
 1501              		.fpu neon
 1503              	vApplicationStackOverflowHook:
 1504              		@ args = 0, pretend = 0, frame = 0
 1505              		@ frame_needed = 0, uses_anonymous_args = 0
 1506 0000 000000E3 		movw	r0, #:lower16:.LC7
 1507 0004 10402DE9 		push	{r4, lr}
 1508 0008 000040E3 		movt	r0, #:upper16:.LC7
 1509 000c FEFFFFEB 		bl	printf
 1510 0010 003000E3 		movw	r3, #:lower16:_impure_ptr
 1511 0014 003040E3 		movt	r3, #:upper16:_impure_ptr
 1512 0018 003093E5 		ldr	r3, [r3]
 1513 001c 080093E5 		ldr	r0, [r3, #8]
 1514 0020 FEFFFFEB 		bl	fflush
 1515 0024 FEFFFFEB 		bl	ulPortSetInterruptMask
 1516              	.L251:
 1517 0028 FEFFFFEA 		b	.L251
 1519              		.section	.text.vApplicationIdleHook,"ax",%progbits
 1520              		.align	2
 1521              		.global	vApplicationIdleHook
 1522              		.syntax unified
 1523              		.arm
 1524              		.fpu neon
 1526              	vApplicationIdleHook:
 1527              		@ args = 0, pretend = 0, frame = 8
 1528              		@ frame_needed = 0, uses_anonymous_args = 0
 1529 0000 04E02DE5 		str	lr, [sp, #-4]!
 1530 0004 0CD04DE2 		sub	sp, sp, #12
 1531 0008 FEFFFFEB 		bl	xPortGetFreeHeapSize
 1532 000c 04008DE5 		str	r0, [sp, #4]
 1533 0010 04309DE5 		ldr	r3, [sp, #4]
 1534 0014 0CD08DE2 		add	sp, sp, #12
 1535              		@ sp needed
 1536 0018 04F09DE4 		ldr	pc, [sp], #4
 1538              		.section	.text.os_abstraction_isr,"ax",%progbits
 1539              		.align	2
 1540              		.global	os_abstraction_isr
 1541              		.syntax unified
 1542              		.arm
 1543              		.fpu neon
 1545              	os_abstraction_isr:
 1546              		@ args = 0, pretend = 0, frame = 0
 1547              		@ frame_needed = 0, uses_anonymous_args = 0
 1548              		@ link register save eliminated.
 1549              		.syntax divided
 1550              	@ 47 "C:/Renesas/e2studio_2021_01_workspace_RZA2M_ANPR/ANPR_RZA2M_EBK/generate/compiler/inc/r_compi
 1551 0000 00F020E3 		nop
 1552              	@ 0 "" 2
 1553              		.arm
 1554              		.syntax unified
 1555 0004 1EFF2FE1 		bx	lr
 1557              		.weak	xHeapRegions
 1558              		.comm	uxSavedInterruptStatus,4,4
 1559              		.global	ucHeap
 1560              		.section	.bss.s_event_count,"aw",%nobits
 1561              		.align	2
 1562              		.set	.LANCHOR8,. + 0
 1565              	s_event_count:
 1566 0000 00000000 		.space	4
 1567              		.section	.bss.s_event_max,"aw",%nobits
 1568              		.align	2
 1569              		.set	.LANCHOR9,. + 0
 1572              	s_event_max:
 1573 0000 00000000 		.space	4
 1574              		.section	.bss.s_file,"aw",%nobits
 1575              		.align	3
 1576              		.set	.LANCHOR5,. + 0
 1579              	s_file:
 1580 0000 00000000 		.space	200
 1580      00000000 
 1580      00000000 
 1580      00000000 
 1580      00000000 
 1581              		.section	.bss.s_line,"aw",%nobits
 1582              		.align	2
 1583              		.set	.LANCHOR6,. + 0
 1586              	s_line:
 1587 0000 00000000 		.space	4
 1588              		.section	.bss.s_os_running,"aw",%nobits
 1589              		.align	2
 1590              		.set	.LANCHOR0,. + 0
 1593              	s_os_running:
 1594 0000 00000000 		.space	4
 1595              		.section	.bss.s_pstream_mutex,"aw",%nobits
 1596              		.align	2
 1597              		.set	.LANCHOR4,. + 0
 1600              	s_pstream_mutex:
 1601 0000 00000000 		.space	4
 1602              		.section	.bss.sp_task_handle,"aw",%nobits
 1603              		.align	2
 1604              		.set	.LANCHOR3,. + 0
 1607              	sp_task_handle:
 1608 0000 00000000 		.space	4
 1609              		.section	.bss.xHeapRegions,"aw",%nobits
 1610              		.align	2
 1613              	xHeapRegions:
 1614 0000 00000000 		.space	16
 1614      00000000 
 1614      00000000 
 1614      00000000 
 1615              		.section	.freertos_heap,"aw",%progbits
 1616              		.align	2
 1617              		.set	.LANCHOR1,. + 0
 1620              	ucHeap:
 1621 0000 00000000 		.space	98304
 1621      00000000 
 1621      00000000 
 1621      00000000 
 1621      00000000 
 1622              		.section	.rodata.R_OS_AssertCalled.str1.4,"aMS",%progbits,1
 1623              		.align	2
 1624              	.LC2:
 1625 0000 0D0A525F 		.ascii	"\015\012R_OS_Assert. File :%s\000"
 1625      4F535F41 
 1625      73736572 
 1625      742E2046 
 1625      696C6520 
 1626              	.LC3:
 1627 0018 0D0A204C 		.ascii	"\015\012 Line %d\015\012:(\015\012\000"
 1627      696E6520 
 1627      25640D0A 
 1627      3A280D0A 
 1627      00
 1628 0029 000000   		.space	3
 1629              	.LC4:
 1630 002c 43757272 		.ascii	"Current task: %s\015\012\000"
 1630      656E7420 
 1630      7461736B 
 1630      3A202573 
 1630      0D0A00
 1631              		.section	.rodata.R_OS_GetVersion.str1.4,"aMS",%progbits,1
 1632              		.align	2
 1633              	.LC6:
 1634 0000 46726565 		.ascii	"FreeRTOS OS Abstraction\000"
 1634      52544F53 
 1634      204F5320 
 1634      41627374 
 1634      72616374 
 1635              		.section	.rodata.R_OS_KernelInit.str1.4,"aMS",%progbits,1
 1636              		.align	2
 1637              	.LC5:
 1638 0000 2E2E2F67 		.ascii	"../generate/os_abstraction/src/r_os_abstraction_api"
 1638      656E6572 
 1638      6174652F 
 1638      6F735F61 
 1638      62737472 
 1639 0033 2E6300   		.ascii	".c\000"
 1640              		.section	.rodata.R_OS_TaskGetState.str1.4,"aMS",%progbits,1
 1641              		.align	2
 1642              	.LC0:
 1643 0000 496E7661 		.ascii	"Invalid\000"
 1643      6C696400 
 1644              	.LC1:
 1645 0008 43616E6E 		.ascii	"Cannot get memory for threads list\015\000"
 1645      6F742067 
 1645      6574206D 
 1645      656D6F72 
 1645      7920666F 
 1646              		.section	.rodata.s_startup_task_name_str,"a",%progbits
 1647              		.align	3
 1648              		.set	.LANCHOR7,. + 0
 1651              	s_startup_task_name_str:
 1652 0000 4D61696E 		.ascii	"Main\000"
 1652      00
 1653              		.section	.rodata.sp_status_name.71505,"a",%progbits
 1654              		.align	3
 1655              		.set	.LANCHOR2,. + 0
 1658              	sp_status_name.71505:
 1659 0000 00000000 		.word	.LC8
 1660 0004 08000000 		.word	.LC9
 1661 0008 10000000 		.word	.LC10
 1662 000c 18000000 		.word	.LC11
 1663 0010 24000000 		.word	.LC12
 1664 0014 00000000 		.word	.LC0
 1665              		.section	.rodata.str1.4,"aMS",%progbits,1
 1666              		.align	2
 1667              	.LC8:
 1668 0000 52756E6E 		.ascii	"Running\000"
 1668      696E6700 
 1669              	.LC9:
 1670 0008 52656164 		.ascii	"Ready\000"
 1670      7900
 1671 000e 0000     		.space	2
 1672              	.LC10:
 1673 0010 426C6F63 		.ascii	"Blocked\000"
 1673      6B656400 
 1674              	.LC11:
 1675 0018 53757370 		.ascii	"Suspended\000"
 1675      656E6465 
 1675      6400
 1676 0022 0000     		.space	2
 1677              	.LC12:
 1678 0024 44656C65 		.ascii	"Deleted\000"
 1678      74656400 
 1679              		.section	.rodata.vApplicationStackOverflowHook.str1.4,"aMS",%progbits,1
 1680              		.align	2
 1681              	.LC7:
 1682 0000 53746163 		.ascii	"Stack overflow occured at in %s \012\015\000"
 1682      6B206F76 
 1682      6572666C 
 1682      6F77206F 
 1682      63637572 
 1683              		.ident	"GCC: (GNU Tools for ARM Embedded Processors 6-2017-q2-update) 6.3.1 20170620 (release) [AR