   1              		.cpu cortex-a9
   2              		.eabi_attribute 28, 1
   3              		.eabi_attribute 20, 1
   4              		.eabi_attribute 21, 1
   5              		.eabi_attribute 23, 3
   6              		.eabi_attribute 24, 1
   7              		.eabi_attribute 25, 1
   8              		.eabi_attribute 26, 1
   9              		.eabi_attribute 30, 2
  10              		.eabi_attribute 34, 0
  11              		.eabi_attribute 18, 4
  12              		.file	"arm_fully_connected_s8.c"
  13              		.text
  14              	.Ltext0:
  15              		.cfi_sections	.debug_frame
  16              		.section	.text.arm_fully_connected_s8,"ax",%progbits
  17              		.align	2
  18              		.global	arm_fully_connected_s8
  19              		.syntax unified
  20              		.arm
  21              		.fpu neon
  23              	arm_fully_connected_s8:
  24              	.LFB122:
  25              		.file 1 "../src/tensorflow_lite/third_party/cmsis/CMSIS/NN/Source/FullyConnectedFunctions/arm_full
   1:../src/tensorflow_lite/third_party/cmsis/CMSIS/NN/Source/FullyConnectedFunctions/arm_fully_connected_s8.c **** /*
   2:../src/tensorflow_lite/third_party/cmsis/CMSIS/NN/Source/FullyConnectedFunctions/arm_fully_connected_s8.c ****  * Copyright (C) 2010-2021 Arm Limited or its affiliates. All rights reserved.
   3:../src/tensorflow_lite/third_party/cmsis/CMSIS/NN/Source/FullyConnectedFunctions/arm_fully_connected_s8.c ****  *
   4:../src/tensorflow_lite/third_party/cmsis/CMSIS/NN/Source/FullyConnectedFunctions/arm_fully_connected_s8.c ****  * SPDX-License-Identifier: Apache-2.0
   5:../src/tensorflow_lite/third_party/cmsis/CMSIS/NN/Source/FullyConnectedFunctions/arm_fully_connected_s8.c ****  *
   6:../src/tensorflow_lite/third_party/cmsis/CMSIS/NN/Source/FullyConnectedFunctions/arm_fully_connected_s8.c ****  * Licensed under the Apache License, Version 2.0 (the License); you may
   7:../src/tensorflow_lite/third_party/cmsis/CMSIS/NN/Source/FullyConnectedFunctions/arm_fully_connected_s8.c ****  * not use this file except in compliance with the License.
   8:../src/tensorflow_lite/third_party/cmsis/CMSIS/NN/Source/FullyConnectedFunctions/arm_fully_connected_s8.c ****  * You may obtain a copy of the License at
   9:../src/tensorflow_lite/third_party/cmsis/CMSIS/NN/Source/FullyConnectedFunctions/arm_fully_connected_s8.c ****  *
  10:../src/tensorflow_lite/third_party/cmsis/CMSIS/NN/Source/FullyConnectedFunctions/arm_fully_connected_s8.c ****  * www.apache.org/licenses/LICENSE-2.0
  11:../src/tensorflow_lite/third_party/cmsis/CMSIS/NN/Source/FullyConnectedFunctions/arm_fully_connected_s8.c ****  *
  12:../src/tensorflow_lite/third_party/cmsis/CMSIS/NN/Source/FullyConnectedFunctions/arm_fully_connected_s8.c ****  * Unless required by applicable law or agreed to in writing, software
  13:../src/tensorflow_lite/third_party/cmsis/CMSIS/NN/Source/FullyConnectedFunctions/arm_fully_connected_s8.c ****  * distributed under the License is distributed on an AS IS BASIS, WITHOUT
  14:../src/tensorflow_lite/third_party/cmsis/CMSIS/NN/Source/FullyConnectedFunctions/arm_fully_connected_s8.c ****  * WARRANTIES OR CONDITIONS OF ANY KIND, either express or implied.
  15:../src/tensorflow_lite/third_party/cmsis/CMSIS/NN/Source/FullyConnectedFunctions/arm_fully_connected_s8.c ****  * See the License for the specific language governing permissions and
  16:../src/tensorflow_lite/third_party/cmsis/CMSIS/NN/Source/FullyConnectedFunctions/arm_fully_connected_s8.c ****  * limitations under the License.
  17:../src/tensorflow_lite/third_party/cmsis/CMSIS/NN/Source/FullyConnectedFunctions/arm_fully_connected_s8.c ****  */
  18:../src/tensorflow_lite/third_party/cmsis/CMSIS/NN/Source/FullyConnectedFunctions/arm_fully_connected_s8.c **** 
  19:../src/tensorflow_lite/third_party/cmsis/CMSIS/NN/Source/FullyConnectedFunctions/arm_fully_connected_s8.c **** /* ----------------------------------------------------------------------
  20:../src/tensorflow_lite/third_party/cmsis/CMSIS/NN/Source/FullyConnectedFunctions/arm_fully_connected_s8.c ****  * Project:      CMSIS NN Library
  21:../src/tensorflow_lite/third_party/cmsis/CMSIS/NN/Source/FullyConnectedFunctions/arm_fully_connected_s8.c ****  * Title:        arm_fully_connected_s8
  22:../src/tensorflow_lite/third_party/cmsis/CMSIS/NN/Source/FullyConnectedFunctions/arm_fully_connected_s8.c ****  * Description:  Fully connected function compatible with TF Lite.
  23:../src/tensorflow_lite/third_party/cmsis/CMSIS/NN/Source/FullyConnectedFunctions/arm_fully_connected_s8.c ****  *
  24:../src/tensorflow_lite/third_party/cmsis/CMSIS/NN/Source/FullyConnectedFunctions/arm_fully_connected_s8.c ****  * $Date:        19. March 2021
  25:../src/tensorflow_lite/third_party/cmsis/CMSIS/NN/Source/FullyConnectedFunctions/arm_fully_connected_s8.c ****  * $Revision:    V.3.0.0
  26:../src/tensorflow_lite/third_party/cmsis/CMSIS/NN/Source/FullyConnectedFunctions/arm_fully_connected_s8.c ****  *
  27:../src/tensorflow_lite/third_party/cmsis/CMSIS/NN/Source/FullyConnectedFunctions/arm_fully_connected_s8.c ****  * Target Processor:  Cortex-M and Cortex-A cores
  28:../src/tensorflow_lite/third_party/cmsis/CMSIS/NN/Source/FullyConnectedFunctions/arm_fully_connected_s8.c ****  *
  29:../src/tensorflow_lite/third_party/cmsis/CMSIS/NN/Source/FullyConnectedFunctions/arm_fully_connected_s8.c ****  * -------------------------------------------------------------------- */
  30:../src/tensorflow_lite/third_party/cmsis/CMSIS/NN/Source/FullyConnectedFunctions/arm_fully_connected_s8.c **** 
  31:../src/tensorflow_lite/third_party/cmsis/CMSIS/NN/Source/FullyConnectedFunctions/arm_fully_connected_s8.c **** #include "arm_nnfunctions.h"
  32:../src/tensorflow_lite/third_party/cmsis/CMSIS/NN/Source/FullyConnectedFunctions/arm_fully_connected_s8.c **** #include "arm_nnsupportfunctions.h"
  33:../src/tensorflow_lite/third_party/cmsis/CMSIS/NN/Source/FullyConnectedFunctions/arm_fully_connected_s8.c **** 
  34:../src/tensorflow_lite/third_party/cmsis/CMSIS/NN/Source/FullyConnectedFunctions/arm_fully_connected_s8.c **** /**
  35:../src/tensorflow_lite/third_party/cmsis/CMSIS/NN/Source/FullyConnectedFunctions/arm_fully_connected_s8.c ****  *  @ingroup groupNN
  36:../src/tensorflow_lite/third_party/cmsis/CMSIS/NN/Source/FullyConnectedFunctions/arm_fully_connected_s8.c ****  */
  37:../src/tensorflow_lite/third_party/cmsis/CMSIS/NN/Source/FullyConnectedFunctions/arm_fully_connected_s8.c **** 
  38:../src/tensorflow_lite/third_party/cmsis/CMSIS/NN/Source/FullyConnectedFunctions/arm_fully_connected_s8.c **** /**
  39:../src/tensorflow_lite/third_party/cmsis/CMSIS/NN/Source/FullyConnectedFunctions/arm_fully_connected_s8.c ****  * @addtogroup FC
  40:../src/tensorflow_lite/third_party/cmsis/CMSIS/NN/Source/FullyConnectedFunctions/arm_fully_connected_s8.c ****  * @{
  41:../src/tensorflow_lite/third_party/cmsis/CMSIS/NN/Source/FullyConnectedFunctions/arm_fully_connected_s8.c ****  */
  42:../src/tensorflow_lite/third_party/cmsis/CMSIS/NN/Source/FullyConnectedFunctions/arm_fully_connected_s8.c **** 
  43:../src/tensorflow_lite/third_party/cmsis/CMSIS/NN/Source/FullyConnectedFunctions/arm_fully_connected_s8.c **** /*
  44:../src/tensorflow_lite/third_party/cmsis/CMSIS/NN/Source/FullyConnectedFunctions/arm_fully_connected_s8.c ****  * S8 basic fully-connected and matrix multiplication layer function for TensorFlow Lite
  45:../src/tensorflow_lite/third_party/cmsis/CMSIS/NN/Source/FullyConnectedFunctions/arm_fully_connected_s8.c ****  *
  46:../src/tensorflow_lite/third_party/cmsis/CMSIS/NN/Source/FullyConnectedFunctions/arm_fully_connected_s8.c ****  * Refer header file for details.
  47:../src/tensorflow_lite/third_party/cmsis/CMSIS/NN/Source/FullyConnectedFunctions/arm_fully_connected_s8.c ****  *
  48:../src/tensorflow_lite/third_party/cmsis/CMSIS/NN/Source/FullyConnectedFunctions/arm_fully_connected_s8.c ****  */
  49:../src/tensorflow_lite/third_party/cmsis/CMSIS/NN/Source/FullyConnectedFunctions/arm_fully_connected_s8.c **** 
  50:../src/tensorflow_lite/third_party/cmsis/CMSIS/NN/Source/FullyConnectedFunctions/arm_fully_connected_s8.c **** arm_status arm_fully_connected_s8(const cmsis_nn_context *ctx,
  51:../src/tensorflow_lite/third_party/cmsis/CMSIS/NN/Source/FullyConnectedFunctions/arm_fully_connected_s8.c ****                                   const cmsis_nn_fc_params *fc_params,
  52:../src/tensorflow_lite/third_party/cmsis/CMSIS/NN/Source/FullyConnectedFunctions/arm_fully_connected_s8.c ****                                   const cmsis_nn_per_tensor_quant_params *quant_params,
  53:../src/tensorflow_lite/third_party/cmsis/CMSIS/NN/Source/FullyConnectedFunctions/arm_fully_connected_s8.c ****                                   const cmsis_nn_dims *input_dims,
  54:../src/tensorflow_lite/third_party/cmsis/CMSIS/NN/Source/FullyConnectedFunctions/arm_fully_connected_s8.c ****                                   const q7_t *input,
  55:../src/tensorflow_lite/third_party/cmsis/CMSIS/NN/Source/FullyConnectedFunctions/arm_fully_connected_s8.c ****                                   const cmsis_nn_dims *filter_dims,
  56:../src/tensorflow_lite/third_party/cmsis/CMSIS/NN/Source/FullyConnectedFunctions/arm_fully_connected_s8.c ****                                   const q7_t *kernel,
  57:../src/tensorflow_lite/third_party/cmsis/CMSIS/NN/Source/FullyConnectedFunctions/arm_fully_connected_s8.c ****                                   const cmsis_nn_dims *bias_dims,
  58:../src/tensorflow_lite/third_party/cmsis/CMSIS/NN/Source/FullyConnectedFunctions/arm_fully_connected_s8.c ****                                   const int32_t *bias,
  59:../src/tensorflow_lite/third_party/cmsis/CMSIS/NN/Source/FullyConnectedFunctions/arm_fully_connected_s8.c ****                                   const cmsis_nn_dims *output_dims,
  60:../src/tensorflow_lite/third_party/cmsis/CMSIS/NN/Source/FullyConnectedFunctions/arm_fully_connected_s8.c ****                                   q7_t *output)
  61:../src/tensorflow_lite/third_party/cmsis/CMSIS/NN/Source/FullyConnectedFunctions/arm_fully_connected_s8.c **** {
  26              		.loc 1 61 0
  27              		.cfi_startproc
  28              		@ args = 28, pretend = 0, frame = 0
  29              		@ frame_needed = 0, uses_anonymous_args = 0
  30              	.LVL0:
  31 0000 F04F2DE9 		push	{r4, r5, r6, r7, r8, r9, r10, fp, lr}
  32              		.cfi_def_cfa_offset 36
  33              		.cfi_offset 4, -36
  34              		.cfi_offset 5, -32
  35              		.cfi_offset 6, -28
  36              		.cfi_offset 7, -24
  37              		.cfi_offset 8, -20
  38              		.cfi_offset 9, -16
  39              		.cfi_offset 10, -12
  40              		.cfi_offset 11, -8
  41              		.cfi_offset 14, -4
  42 0004 2CD04DE2 		sub	sp, sp, #44
  43              		.cfi_def_cfa_offset 80
  62:../src/tensorflow_lite/third_party/cmsis/CMSIS/NN/Source/FullyConnectedFunctions/arm_fully_connected_s8.c ****     (void)bias_dims;
  63:../src/tensorflow_lite/third_party/cmsis/CMSIS/NN/Source/FullyConnectedFunctions/arm_fully_connected_s8.c ****     (void)ctx;
  64:../src/tensorflow_lite/third_party/cmsis/CMSIS/NN/Source/FullyConnectedFunctions/arm_fully_connected_s8.c ****     (void)fc_params->filter_offset;
  65:../src/tensorflow_lite/third_party/cmsis/CMSIS/NN/Source/FullyConnectedFunctions/arm_fully_connected_s8.c **** 
  66:../src/tensorflow_lite/third_party/cmsis/CMSIS/NN/Source/FullyConnectedFunctions/arm_fully_connected_s8.c ****     int32_t batch_cnt = input_dims->n;
  44              		.loc 1 66 0
  45 0008 005093E5 		ldr	r5, [r3]
  46              	.LVL1:
  61:../src/tensorflow_lite/third_party/cmsis/CMSIS/NN/Source/FullyConnectedFunctions/arm_fully_connected_s8.c ****     (void)bias_dims;
  47              		.loc 1 61 0
  48 000c 50609DE5 		ldr	r6, [sp, #80]
  67:../src/tensorflow_lite/third_party/cmsis/CMSIS/NN/Source/FullyConnectedFunctions/arm_fully_connected_s8.c **** 
  68:../src/tensorflow_lite/third_party/cmsis/CMSIS/NN/Source/FullyConnectedFunctions/arm_fully_connected_s8.c ****     while (batch_cnt)
  49              		.loc 1 68 0
  50 0010 000055E3 		cmp	r5, #0
  61:../src/tensorflow_lite/third_party/cmsis/CMSIS/NN/Source/FullyConnectedFunctions/arm_fully_connected_s8.c ****     (void)bias_dims;
  51              		.loc 1 61 0
  52 0014 54A09DE5 		ldr	r10, [sp, #84]
  53 0018 64909DE5 		ldr	r9, [sp, #100]
  54 001c 68709DE5 		ldr	r7, [sp, #104]
  55              	.LVL2:
  56              		.loc 1 68 0
  57 0020 1E00000A 		beq	.L6
  58 0024 0140A0E1 		mov	r4, r1
  59 0028 00009AE5 		ldr	r0, [r10]
  60              	.LVL3:
  61 002c 0C1099E5 		ldr	r1, [r9, #12]
  62              	.LVL4:
  63 0030 0280A0E1 		mov	r8, r2
  69:../src/tensorflow_lite/third_party/cmsis/CMSIS/NN/Source/FullyConnectedFunctions/arm_fully_connected_s8.c ****     {
  70:../src/tensorflow_lite/third_party/cmsis/CMSIS/NN/Source/FullyConnectedFunctions/arm_fully_connected_s8.c ****         arm_nn_vec_mat_mult_t_s8(input,
  64              		.loc 1 70 0
  65 0034 00B0A0E3 		mov	fp, #0
  66              	.LVL5:
  67              	.L3:
  68 0038 10C094E5 		ldr	ip, [r4, #16]
  69 003c 0730A0E1 		mov	r3, r7
  70 0040 042098E5 		ldr	r2, [r8, #4]
  71 0044 0CE094E5 		ldr	lr, [r4, #12]
  72 0048 18108DE5 		str	r1, [sp, #24]
  73 004c 001098E5 		ldr	r1, [r8]
  74 0050 14008DE5 		str	r0, [sp, #20]
  75 0054 080094E5 		ldr	r0, [r4, #8]
  76 0058 04B08DE5 		str	fp, [sp, #4]
  77 005c 20C08DE5 		str	ip, [sp, #32]
  78 0060 00C094E5 		ldr	ip, [r4]
  79 0064 10208DE5 		str	r2, [sp, #16]
  80 0068 0C108DE5 		str	r1, [sp, #12]
  81 006c 08008DE5 		str	r0, [sp, #8]
  82 0070 0600A0E1 		mov	r0, r6
  83 0074 58109DE5 		ldr	r1, [sp, #88]
  84 0078 1CE08DE5 		str	lr, [sp, #28]
  85 007c 60209DE5 		ldr	r2, [sp, #96]
  86 0080 00C08DE5 		str	ip, [sp]
  87 0084 FEFFFFEB 		bl	arm_nn_vec_mat_mult_t_s8
  88              	.LVL6:
  71:../src/tensorflow_lite/third_party/cmsis/CMSIS/NN/Source/FullyConnectedFunctions/arm_fully_connected_s8.c ****                                  kernel,
  72:../src/tensorflow_lite/third_party/cmsis/CMSIS/NN/Source/FullyConnectedFunctions/arm_fully_connected_s8.c ****                                  bias,
  73:../src/tensorflow_lite/third_party/cmsis/CMSIS/NN/Source/FullyConnectedFunctions/arm_fully_connected_s8.c ****                                  output,
  74:../src/tensorflow_lite/third_party/cmsis/CMSIS/NN/Source/FullyConnectedFunctions/arm_fully_connected_s8.c ****                                  fc_params->input_offset,
  75:../src/tensorflow_lite/third_party/cmsis/CMSIS/NN/Source/FullyConnectedFunctions/arm_fully_connected_s8.c ****                                  0,
  76:../src/tensorflow_lite/third_party/cmsis/CMSIS/NN/Source/FullyConnectedFunctions/arm_fully_connected_s8.c ****                                  fc_params->output_offset,
  77:../src/tensorflow_lite/third_party/cmsis/CMSIS/NN/Source/FullyConnectedFunctions/arm_fully_connected_s8.c ****                                  quant_params->multiplier,
  78:../src/tensorflow_lite/third_party/cmsis/CMSIS/NN/Source/FullyConnectedFunctions/arm_fully_connected_s8.c ****                                  quant_params->shift,
  79:../src/tensorflow_lite/third_party/cmsis/CMSIS/NN/Source/FullyConnectedFunctions/arm_fully_connected_s8.c ****                                  filter_dims->n, /* col_dim or accum_depth */
  80:../src/tensorflow_lite/third_party/cmsis/CMSIS/NN/Source/FullyConnectedFunctions/arm_fully_connected_s8.c ****                                  output_dims->c, /* row_dim or output_depth */
  81:../src/tensorflow_lite/third_party/cmsis/CMSIS/NN/Source/FullyConnectedFunctions/arm_fully_connected_s8.c ****                                  fc_params->activation.min,
  82:../src/tensorflow_lite/third_party/cmsis/CMSIS/NN/Source/FullyConnectedFunctions/arm_fully_connected_s8.c ****                                  fc_params->activation.max);
  83:../src/tensorflow_lite/third_party/cmsis/CMSIS/NN/Source/FullyConnectedFunctions/arm_fully_connected_s8.c ****         input += filter_dims->n;
  89              		.loc 1 83 0
  90 0088 00009AE5 		ldr	r0, [r10]
  68:../src/tensorflow_lite/third_party/cmsis/CMSIS/NN/Source/FullyConnectedFunctions/arm_fully_connected_s8.c ****     {
  91              		.loc 1 68 0
  92 008c 015055E2 		subs	r5, r5, #1
  93              	.LVL7:
  84:../src/tensorflow_lite/third_party/cmsis/CMSIS/NN/Source/FullyConnectedFunctions/arm_fully_connected_s8.c ****         output += output_dims->c;
  94              		.loc 1 84 0
  95 0090 0C1099E5 		ldr	r1, [r9, #12]
  83:../src/tensorflow_lite/third_party/cmsis/CMSIS/NN/Source/FullyConnectedFunctions/arm_fully_connected_s8.c ****         output += output_dims->c;
  96              		.loc 1 83 0
  97 0094 006086E0 		add	r6, r6, r0
  98              	.LVL8:
  99              		.loc 1 84 0
 100 0098 017087E0 		add	r7, r7, r1
 101              	.LVL9:
  68:../src/tensorflow_lite/third_party/cmsis/CMSIS/NN/Source/FullyConnectedFunctions/arm_fully_connected_s8.c ****     {
 102              		.loc 1 68 0
 103 009c E5FFFF1A 		bne	.L3
 104              	.LVL10:
 105              	.L6:
  85:../src/tensorflow_lite/third_party/cmsis/CMSIS/NN/Source/FullyConnectedFunctions/arm_fully_connected_s8.c ****         batch_cnt--;
  86:../src/tensorflow_lite/third_party/cmsis/CMSIS/NN/Source/FullyConnectedFunctions/arm_fully_connected_s8.c ****     }
  87:../src/tensorflow_lite/third_party/cmsis/CMSIS/NN/Source/FullyConnectedFunctions/arm_fully_connected_s8.c ****     return (ARM_MATH_SUCCESS);
  88:../src/tensorflow_lite/third_party/cmsis/CMSIS/NN/Source/FullyConnectedFunctions/arm_fully_connected_s8.c **** }
 106              		.loc 1 88 0
 107 00a0 0000A0E3 		mov	r0, #0
 108 00a4 2CD08DE2 		add	sp, sp, #44
 109              		.cfi_def_cfa_offset 36
 110              		@ sp needed
 111 00a8 F08FBDE8 		pop	{r4, r5, r6, r7, r8, r9, r10, fp, pc}
 112              		.cfi_endproc
 113              	.LFE122:
 115              		.section	.text.arm_fully_connected_s8_get_buffer_size,"ax",%progbits
 116              		.align	2
 117              		.global	arm_fully_connected_s8_get_buffer_size
 118              		.syntax unified
 119              		.arm
 120              		.fpu neon
 122              	arm_fully_connected_s8_get_buffer_size:
 123              	.LFB123:
  89:../src/tensorflow_lite/third_party/cmsis/CMSIS/NN/Source/FullyConnectedFunctions/arm_fully_connected_s8.c **** 
  90:../src/tensorflow_lite/third_party/cmsis/CMSIS/NN/Source/FullyConnectedFunctions/arm_fully_connected_s8.c **** int32_t arm_fully_connected_s8_get_buffer_size(const cmsis_nn_dims *filter_dims)
  91:../src/tensorflow_lite/third_party/cmsis/CMSIS/NN/Source/FullyConnectedFunctions/arm_fully_connected_s8.c **** {
 124              		.loc 1 91 0
 125              		.cfi_startproc
 126              		@ args = 0, pretend = 0, frame = 0
 127              		@ frame_needed = 0, uses_anonymous_args = 0
 128              		@ link register save eliminated.
 129              	.LVL11:
  92:../src/tensorflow_lite/third_party/cmsis/CMSIS/NN/Source/FullyConnectedFunctions/arm_fully_connected_s8.c ****     (void)filter_dims;
  93:../src/tensorflow_lite/third_party/cmsis/CMSIS/NN/Source/FullyConnectedFunctions/arm_fully_connected_s8.c ****     return 0;
  94:../src/tensorflow_lite/third_party/cmsis/CMSIS/NN/Source/FullyConnectedFunctions/arm_fully_connected_s8.c **** }
 130              		.loc 1 94 0
 131 0000 0000A0E3 		mov	r0, #0
 132              	.LVL12:
 133 0004 1EFF2FE1 		bx	lr
 134              		.cfi_endproc
 135              	.LFE123:
 137              		.text
 138              	.Letext0:
 139              		.file 2 "c:\\program files (x86)\\gnu tools arm embedded\\6 2017-q2-update\\arm-none-eabi\\include
 140              		.file 3 "c:\\program files (x86)\\gnu tools arm embedded\\6 2017-q2-update\\arm-none-eabi\\include
 141              		.file 4 "c:\\program files (x86)\\gnu tools arm embedded\\6 2017-q2-update\\arm-none-eabi\\include
 142              		.file 5 "c:\\program files (x86)\\gnu tools arm embedded\\6 2017-q2-update\\arm-none-eabi\\include
 143              		.file 6 "c:\\program files (x86)\\gnu tools arm embedded\\6 2017-q2-update\\lib\\gcc\\arm-none-eab
 144              		.file 7 "c:\\program files (x86)\\gnu tools arm embedded\\6 2017-q2-update\\arm-none-eabi\\include
 145              		.file 8 "c:\\program files (x86)\\gnu tools arm embedded\\6 2017-q2-update\\arm-none-eabi\\include
 146              		.file 9 "C:/Renesas/e2studio_2021_01_workspace_RZA2M_ANPR/ANPR_RZA2M_GR_MANGO/src/tensorflow_lite/
 147              		.file 10 "C:/Renesas/e2studio_2021_01_workspace_RZA2M_ANPR/ANPR_RZA2M_GR_MANGO/src/tensorflow_lite
 148              		.file 11 "C:/Renesas/e2studio_2021_01_workspace_RZA2M_ANPR/ANPR_RZA2M_GR_MANGO/src/tensorflow_lite
 149              		.file 12 "C:/Renesas/e2studio_2021_01_workspace_RZA2M_ANPR/ANPR_RZA2M_GR_MANGO/src/tensorflow_lite