   1              		.cpu cortex-a9
   2              		.eabi_attribute 28, 1
   3              		.eabi_attribute 20, 1
   4              		.eabi_attribute 21, 1
   5              		.eabi_attribute 23, 3
   6              		.eabi_attribute 24, 1
   7              		.eabi_attribute 25, 1
   8              		.eabi_attribute 26, 1
   9              		.eabi_attribute 30, 2
  10              		.eabi_attribute 34, 0
  11              		.eabi_attribute 18, 4
  12              		.file	"cpuBoardLed.c"
  13              		.section	.text.initCpuBoardLed,"ax",%progbits
  14              		.align	2
  15              		.global	initCpuBoardLed
  16              		.syntax unified
  17              		.arm
  18              		.fpu neon
  20              	initCpuBoardLed:
  21              		@ args = 0, pretend = 0, frame = 0
  22              		@ frame_needed = 0, uses_anonymous_args = 0
  23 0000 000000E3 		movw	r0, #:lower16:.LC0
  24 0004 10402DE9 		push	{r4, lr}
  25 0008 0210A0E3 		mov	r1, #2
  26 000c 000040E3 		movt	r0, #:upper16:.LC0
  27 0010 FEFFFFEB 		bl	open
  28 0014 003000E3 		movw	r3, #:lower16:.LANCHOR0
  29 0018 000050E3 		cmp	r0, #0
  30 001c 003040E3 		movt	r3, #:upper16:.LANCHOR0
  31 0020 000083E5 		str	r0, [r3]
  32 0024 0D0000BA 		blt	.L6
  33 0028 003000E3 		movw	r3, #:lower16:.LANCHOR1
  34 002c 02E0A0E3 		mov	lr, #2
  35 0030 003040E3 		movt	r3, #:upper16:.LANCHOR1
  36 0034 00C000E3 		movw	ip, #:lower16:.LANCHOR2
  37 0038 00C040E3 		movt	ip, #:upper16:.LANCHOR2
  38 003c 0320A0E1 		mov	r2, r3
  39 0040 0E10A0E1 		mov	r1, lr
  40 0044 005083E8 		stm	r3, {ip, lr}
  41 0048 FEFFFFEB 		bl	direct_control
  42 004c 000050E3 		cmp	r0, #0
  43 0050 1080BDA8 		popge	{r4, pc}
  44              	.L7:
  45              		.syntax divided
  46              	@ 47 "C:/Renesas/e2studio_2021_01_workspace_RZA2M_ANPR/ANPR_RZA2M_EBK/generate/compiler/inc/r_compi
  47 0054 00F020E3 		nop
  48              	@ 0 "" 2
  49              	@ 47 "C:/Renesas/e2studio_2021_01_workspace_RZA2M_ANPR/ANPR_RZA2M_EBK/generate/compiler/inc/r_compi
  50 0058 00F020E3 		nop
  51              	@ 0 "" 2
  52              		.arm
  53              		.syntax unified
  54 005c FCFFFFEA 		b	.L7
  55              	.L6:
  56              		.syntax divided
  57              	@ 47 "C:/Renesas/e2studio_2021_01_workspace_RZA2M_ANPR/ANPR_RZA2M_EBK/generate/compiler/inc/r_compi
  58 0060 00F020E3 		nop
  59              	@ 0 "" 2
  60              	@ 47 "C:/Renesas/e2studio_2021_01_workspace_RZA2M_ANPR/ANPR_RZA2M_EBK/generate/compiler/inc/r_compi
  61 0064 00F020E3 		nop
  62              	@ 0 "" 2
  63              		.arm
  64              		.syntax unified
  65 0068 FCFFFFEA 		b	.L6
  67              		.section	.text.cpuBoardLedGreen,"ax",%progbits
  68              		.align	2
  69              		.global	cpuBoardLedGreen
  70              		.syntax unified
  71              		.arm
  72              		.fpu neon
  74              	cpuBoardLedGreen:
  75              		@ args = 0, pretend = 0, frame = 0
  76              		@ frame_needed = 0, uses_anonymous_args = 0
  77              		@ link register save eliminated.
  78 0000 000050E3 		cmp	r0, #0
  79 0004 003000E3 		movw	r3, #:lower16:.LANCHOR0
  80 0008 0500001A 		bne	.L12
  81 000c 002000E3 		movw	r2, #:lower16:.LANCHOR4
  82 0010 003040E3 		movt	r3, #:upper16:.LANCHOR0
  83 0014 002040E3 		movt	r2, #:upper16:.LANCHOR4
  84 0018 000093E5 		ldr	r0, [r3]
  85 001c 0810A0E3 		mov	r1, #8
  86 0020 FEFFFFEA 		b	direct_control
  87              	.L12:
  88 0024 002000E3 		movw	r2, #:lower16:.LANCHOR3
  89 0028 003040E3 		movt	r3, #:upper16:.LANCHOR0
  90 002c 002040E3 		movt	r2, #:upper16:.LANCHOR3
  91 0030 000093E5 		ldr	r0, [r3]
  92 0034 0810A0E3 		mov	r1, #8
  93 0038 FEFFFFEA 		b	direct_control
  95              		.section	.text.cpuBoardLedRed,"ax",%progbits
  96              		.align	2
  97              		.global	cpuBoardLedRed
  98              		.syntax unified
  99              		.arm
 100              		.fpu neon
 102              	cpuBoardLedRed:
 103              		@ args = 0, pretend = 0, frame = 0
 104              		@ frame_needed = 0, uses_anonymous_args = 0
 105              		@ link register save eliminated.
 106 0000 000050E3 		cmp	r0, #0
 107 0004 003000E3 		movw	r3, #:lower16:.LANCHOR0
 108 0008 0500001A 		bne	.L15
 109 000c 002000E3 		movw	r2, #:lower16:.LANCHOR6
 110 0010 003040E3 		movt	r3, #:upper16:.LANCHOR0
 111 0014 002040E3 		movt	r2, #:upper16:.LANCHOR6
 112 0018 000093E5 		ldr	r0, [r3]
 113 001c 0810A0E3 		mov	r1, #8
 114 0020 FEFFFFEA 		b	direct_control
 115              	.L15:
 116 0024 002000E3 		movw	r2, #:lower16:.LANCHOR5
 117 0028 003040E3 		movt	r3, #:upper16:.LANCHOR0
 118 002c 002040E3 		movt	r2, #:upper16:.LANCHOR5
 119 0030 000093E5 		ldr	r0, [r3]
 120 0034 0810A0E3 		mov	r1, #8
 121 0038 FEFFFFEA 		b	direct_control
 123              		.section	.bss.pin_led,"aw",%nobits
 124              		.align	2
 125              		.set	.LANCHOR1,. + 0
 128              	pin_led:
 129 0000 00000000 		.space	12
 129      00000000 
 129      00000000 
 130              		.section	.bss.s_my_gpio_handle,"aw",%nobits
 131              		.align	2
 132              		.set	.LANCHOR0,. + 0
 135              	s_my_gpio_handle:
 136 0000 00000000 		.space	4
 137              		.section	.data.s_p60_off,"aw",%progbits
 138              		.align	2
 139              		.set	.LANCHOR6,. + 0
 142              	s_p60_off:
 143 0000 0006     		.short	1536
 144 0002 01       		.byte	1
 145 0003 00       		.byte	0
 146              		.section	.data.s_p60_on,"aw",%progbits
 147              		.align	2
 148              		.set	.LANCHOR5,. + 0
 151              	s_p60_on:
 152 0000 0006     		.short	1536
 153 0002 02       		.byte	2
 154 0003 00       		.byte	0
 155              		.section	.data.s_pC1_off,"aw",%progbits
 156              		.align	2
 157              		.set	.LANCHOR4,. + 0
 160              	s_pC1_off:
 161 0000 010C     		.short	3073
 162 0002 01       		.byte	1
 163 0003 00       		.byte	0
 164              		.section	.data.s_pC1_on,"aw",%progbits
 165              		.align	2
 166              		.set	.LANCHOR3,. + 0
 169              	s_pC1_on:
 170 0000 010C     		.short	3073
 171 0002 02       		.byte	2
 172 0003 00       		.byte	0
 173              		.section	.rodata.initCpuBoardLed.str1.4,"aMS",%progbits,1
 174              		.align	2
 175              	.LC0:
 176 0000 5C5C2E5C 		.ascii	"\\\\.\\gpio\000"
 176      6770696F 
 176      00
 177              		.section	.rodata.s_led_pin_list,"a",%progbits
 178              		.align	3
 179              		.set	.LANCHOR2,. + 0
 182              	s_led_pin_list:
 183 0000 0006     		.short	1536
 184 0002 010C     		.short	3073
 185              		.ident	"GCC: (GNU Tools for ARM Embedded Processors 6-2017-q2-update) 6.3.1 20170620 (release) [AR