   1              		.cpu cortex-a9
   2              		.eabi_attribute 28, 1
   3              		.eabi_attribute 20, 1
   4              		.eabi_attribute 21, 1
   5              		.eabi_attribute 23, 3
   6              		.eabi_attribute 24, 1
   7              		.eabi_attribute 25, 1
   8              		.eabi_attribute 26, 1
   9              		.eabi_attribute 30, 2
  10              		.eabi_attribute 34, 0
  11              		.eabi_attribute 18, 4
  12              		.file	"subBoardKeys.c"
  13              		.section	.text.nmi_callback,"ax",%progbits
  14              		.align	2
  15              		.syntax unified
  16              		.arm
  17              		.fpu neon
  19              	nmi_callback:
  20              		@ args = 0, pretend = 0, frame = 0
  21              		@ frame_needed = 0, uses_anonymous_args = 0
  22              		@ link register save eliminated.
  23 0000 003000E3 		movw	r3, #:lower16:.LANCHOR0
  24 0004 003040E3 		movt	r3, #:upper16:.LANCHOR0
  25 0008 042093E5 		ldr	r2, [r3, #4]
  26 000c 000052E3 		cmp	r2, #0
  27 0010 1EFF2F11 		bxne	lr
  28 0014 001093E5 		ldr	r1, [r3]
  29 0018 080093E5 		ldr	r0, [r3, #8]
  30 001c 000051E1 		cmp	r1, r0
  31 0020 012081B2 		addlt	r2, r1, #1
  32 0024 0110A0E3 		mov	r1, #1
  33 0028 002083E5 		str	r2, [r3]
  34 002c 041083E5 		str	r1, [r3, #4]
  35 0030 1EFF2FE1 		bx	lr
  37              		.section	.text.initBoardSwitch,"ax",%progbits
  38              		.align	2
  39              		.global	initBoardSwitch
  40              		.syntax unified
  41              		.arm
  42              		.fpu neon
  44              	initBoardSwitch:
  45              		@ args = 0, pretend = 0, frame = 0
  46              		@ frame_needed = 0, uses_anonymous_args = 0
  47 0000 70402DE9 		push	{r4, r5, r6, lr}
  48 0004 00E000E3 		movw	lr, #:lower16:.LANCHOR1
  49 0008 00E040E3 		movt	lr, #:upper16:.LANCHOR1
  50 000c 00C000E3 		movw	ip, #:lower16:.LANCHOR0
  51 0010 00C040E3 		movt	ip, #:upper16:.LANCHOR0
  52 0014 0F00BEE8 		ldmia	lr!, {r0, r1, r2, r3}
  53 0018 0F00ACE8 		stmia	ip!, {r0, r1, r2, r3}
  54 001c 0F00BEE8 		ldmia	lr!, {r0, r1, r2, r3}
  55 0020 0F00ACE8 		stmia	ip!, {r0, r1, r2, r3}
  56 0024 0F009EE8 		ldm	lr, {r0, r1, r2, r3}
  57 0028 0F008CE8 		stm	ip, {r0, r1, r2, r3}
  58 002c 000000E3 		movw	r0, #:lower16:.LC1
  59 0030 000040E3 		movt	r0, #:upper16:.LC1
  60 0034 0210A0E3 		mov	r1, #2
  61 0038 FEFFFFEB 		bl	open
  62 003c 003000E3 		movw	r3, #:lower16:.LANCHOR2
  63 0040 000050E3 		cmp	r0, #0
  64 0044 003040E3 		movt	r3, #:upper16:.LANCHOR2
  65 0048 000083E5 		str	r0, [r3]
  66 004c 210000BA 		blt	.L11
  67 0050 003000E3 		movw	r3, #:lower16:.LANCHOR3
  68 0054 00C0A0E3 		mov	ip, #0
  69 0058 003040E3 		movt	r3, #:upper16:.LANCHOR3
  70 005c 01E0A0E3 		mov	lr, #1
  71 0060 3240A0E3 		mov	r4, #50
  72 0064 0E10A0E1 		mov	r1, lr
  73 0068 40E0C3E5 		strb	lr, [r3, #64]
  74 006c 1450A0E3 		mov	r5, #20
  75 0070 0320A0E1 		mov	r2, r3
  76 0074 3C4083E5 		str	r4, [r3, #60]
  77 0078 0CC083E5 		str	ip, [r3, #12]
  78 007c 10C0C3E5 		strb	ip, [r3, #16]
  79 0080 14C083E5 		str	ip, [r3, #20]
  80 0084 18C0C3E5 		strb	ip, [r3, #24]
  81 0088 1CC083E5 		str	ip, [r3, #28]
  82 008c 20C0C3E5 		strb	ip, [r3, #32]
  83 0090 24C083E5 		str	ip, [r3, #36]
  84 0094 28C0C3E5 		strb	ip, [r3, #40]
  85 0098 2CC083E5 		str	ip, [r3, #44]
  86 009c 30C0C3E5 		strb	ip, [r3, #48]
  87 00a0 34C083E5 		str	ip, [r3, #52]
  88 00a4 38C0C3E5 		strb	ip, [r3, #56]
  89 00a8 44C083E5 		str	ip, [r3, #68]
  90 00ac 48C0C3E5 		strb	ip, [r3, #72]
  91 00b0 0850C3E5 		strb	r5, [r3, #8]
  92 00b4 01C0C3E5 		strb	ip, [r3, #1]
  93 00b8 00C0C3E5 		strb	ip, [r3]
  94 00bc 02C0C3E5 		strb	ip, [r3, #2]
  95 00c0 04C083E5 		str	ip, [r3, #4]
  96 00c4 FEFFFFEB 		bl	control
  97 00c8 00E050E2 		subs	lr, r0, #0
  98 00cc 0400000A 		beq	.L9
  99              	.L12:
 100              		.syntax divided
 101              	@ 47 "C:/Renesas/e2studio_2021_01_workspace_RZA2M_ANPR/ANPR_RZA2M_EBK/generate/compiler/inc/r_compi
 102 00d0 00F020E3 		nop
 103              	@ 0 "" 2
 104              		.arm
 105              		.syntax unified
 106 00d4 FDFFFFEA 		b	.L12
 107              	.L11:
 108              		.syntax divided
 109              	@ 47 "C:/Renesas/e2studio_2021_01_workspace_RZA2M_ANPR/ANPR_RZA2M_EBK/generate/compiler/inc/r_compi
 110 00d8 00F020E3 		nop
 111              	@ 0 "" 2
 112              	@ 47 "C:/Renesas/e2studio_2021_01_workspace_RZA2M_ANPR/ANPR_RZA2M_EBK/generate/compiler/inc/r_compi
 113 00dc 00F020E3 		nop
 114              	@ 0 "" 2
 115              		.arm
 116              		.syntax unified
 117 00e0 FCFFFFEA 		b	.L11
 118              	.L9:
 119 00e4 FF300EE3 		movw	r3, #57599
 120 00e8 02C0A0E3 		mov	ip, #2
 121 00ec FF3C4FE3 		movt	r3, 64767
 122 00f0 001000E3 		movw	r1, #:lower16:nmi_callback
 123 00f4 6D2053E5 		ldrb	r2, [r3, #-109]	@ zero_extendqisi2
 124 00f8 001040E3 		movt	r1, #:upper16:nmi_callback
 125 00fc 020CA0E3 		mov	r0, #512
 126 0100 0C2082E1 		orr	r2, r2, ip
 127 0104 6D2043E5 		strb	r2, [r3, #-109]
 128 0108 6D2053E5 		ldrb	r2, [r3, #-109]	@ zero_extendqisi2
 129 010c 9E20C1E7 		bfi	r2, lr, #1, #1
 130 0110 6D2043E5 		strb	r2, [r3, #-109]
 131 0114 BB2D53E1 		ldrh	r2, [r3, #-219]
 132 0118 1C21C3E7 		bfi	r2, ip, #2, #2
 133 011c BB2D43E1 		strh	r2, [r3, #-219]	@ movhi
 134 0120 8D3053E5 		ldrb	r3, [r3, #-141]	@ zero_extendqisi2
 135 0124 7040BDE8 		pop	{r4, r5, r6, lr}
 136 0128 FEFFFFEA 		b	R_INTC_RegistIntFunc
 138              		.section	.text.readBoardSwitch,"ax",%progbits
 139              		.align	2
 140              		.global	readBoardSwitch
 141              		.syntax unified
 142              		.arm
 143              		.fpu neon
 145              	readBoardSwitch:
 146              		@ args = 0, pretend = 0, frame = 0
 147              		@ frame_needed = 0, uses_anonymous_args = 0
 148 0000 70402DE9 		push	{r4, r5, r6, lr}
 149 0004 004000E3 		movw	r4, #:lower16:.LANCHOR2
 150 0008 0020A0E3 		mov	r2, #0
 151 000c 004040E3 		movt	r4, #:upper16:.LANCHOR2
 152 0010 005000E3 		movw	r5, #:lower16:.LANCHOR4
 153 0014 0210A0E1 		mov	r1, r2
 154 0018 000094E5 		ldr	r0, [r4]
 155 001c 005040E3 		movt	r5, #:upper16:.LANCHOR4
 156 0020 FEFFFFEB 		bl	control
 157 0024 000094E5 		ldr	r0, [r4]
 158 0028 0510A0E1 		mov	r1, r5
 159 002c 0220A0E3 		mov	r2, #2
 160 0030 FEFFFFEB 		bl	read
 161 0034 020050E3 		cmp	r0, #2
 162 0038 00300013 		movwne	r3, #:lower16:.LANCHOR0
 163 003c 00304013 		movtne	r3, #:upper16:.LANCHOR0
 164 0040 1E00000A 		beq	.L50
 165              	.L16:
 166 0044 FF200EE3 		movw	r2, #57599
 167 0048 101093E5 		ldr	r1, [r3, #16]
 168 004c FF2C4FE3 		movt	r2, 64767
 169 0050 8D2052E5 		ldrb	r2, [r2, #-141]	@ zero_extendqisi2
 170 0054 D220E0E7 		ubfx	r2, r2, #1, #1
 171 0058 000051E3 		cmp	r1, #0
 172 005c 0200A001 		moveq	r0, r2
 173 0060 01008213 		orrne	r0, r2, #1
 174 0064 000050E3 		cmp	r0, #0
 175 0068 0E00001A 		bne	.L29
 176 006c 001000E3 		movw	r1, #:lower16:.LANCHOR8
 177 0070 001040E3 		movt	r1, #:upper16:.LANCHOR8
 178 0074 00C091E5 		ldr	ip, [r1]
 179 0078 00005CE3 		cmp	ip, #0
 180 007c 0D00000A 		beq	.L30
 181 0080 0C2093E5 		ldr	r2, [r3, #12]
 182 0084 14C093E5 		ldr	ip, [r3, #20]
 183 0088 0C0052E1 		cmp	r2, ip
 184 008c 01C0A0E3 		mov	ip, #1
 185 0090 010082B2 		addlt	r0, r2, #1
 186 0094 0020A0E3 		mov	r2, #0
 187 0098 0C0083E5 		str	r0, [r3, #12]
 188 009c 10C083E5 		str	ip, [r3, #16]
 189 00a0 002081E5 		str	r2, [r1]
 190 00a4 7080BDE8 		pop	{r4, r5, r6, pc}
 191              	.L29:
 192 00a8 000051E3 		cmp	r1, #0
 193 00ac 7080BD18 		popne	{r4, r5, r6, pc}
 194 00b0 001000E3 		movw	r1, #:lower16:.LANCHOR8
 195 00b4 001040E3 		movt	r1, #:upper16:.LANCHOR8
 196              	.L30:
 197 00b8 002081E5 		str	r2, [r1]
 198 00bc 7080BDE8 		pop	{r4, r5, r6, pc}
 199              	.L50:
 200 00c0 001000E3 		movw	r1, #:lower16:.LANCHOR5
 201 00c4 B020D5E1 		ldrh	r2, [r5]
 202 00c8 001040E3 		movt	r1, #:upper16:.LANCHOR5
 203 00cc B030D1E1 		ldrh	r3, [r1]
 204 00d0 023043E0 		sub	r3, r3, r2
 205 00d4 000053E3 		cmp	r3, #0
 206 00d8 003063B2 		rsblt	r3, r3, #0
 207 00dc 050053E3 		cmp	r3, #5
 208 00e0 4B0000CA 		bgt	.L51
 209 00e4 5E0E42E2 		sub	r0, r2, #1504
 210 00e8 0E3D42E2 		sub	r3, r2, #896
 211 00ec 0D0040E2 		sub	r0, r0, #13
 212 00f0 FACB00E3 		movw	ip, #3066
 213 00f4 7000FFE6 		uxth	r0, r0
 214 00f8 023043E2 		sub	r3, r3, #2
 215 00fc 0C0052E1 		cmp	r2, ip
 216 0100 7330FFE6 		uxth	r3, r3
 217 0104 0CE600E3 		movw	lr, #1548
 218 0108 B020C1E1 		strh	r2, [r1]	@ movhi
 219 010c 69C200E3 		movw	ip, #617
 220 0110 0010E093 		mvnls	r1, #0
 221 0114 0110A083 		movhi	r1, #1
 222 0118 0E0050E1 		cmp	r0, lr
 223 011c 0000A093 		movls	r0, #0
 224 0120 0110A093 		movls	r1, #1
 225 0124 0100A081 		movhi	r0, r1
 226 0128 0C0053E1 		cmp	r3, ip
 227 012c 0100A093 		movls	r0, #1
 228 0130 0010A093 		movls	r1, #0
 229 0134 3200008A 		bhi	.L52
 230              	.L20:
 231 0138 003000E3 		movw	r3, #:lower16:.LANCHOR0
 232 013c 003040E3 		movt	r3, #:upper16:.LANCHOR0
 233 0140 1C2093E5 		ldr	r2, [r3, #28]
 234 0144 01C092E1 		orrs	ip, r2, r1
 235 0148 1F00001A 		bne	.L21
 236 014c 002000E3 		movw	r2, #:lower16:.LANCHOR6
 237 0150 002040E3 		movt	r2, #:upper16:.LANCHOR6
 238 0154 00E092E5 		ldr	lr, [r2]
 239 0158 00005EE3 		cmp	lr, #0
 240 015c 1E00000A 		beq	.L22
 241 0160 181093E5 		ldr	r1, [r3, #24]
 242 0164 20E093E5 		ldr	lr, [r3, #32]
 243 0168 0E0051E1 		cmp	r1, lr
 244 016c 01E0A0E3 		mov	lr, #1
 245 0170 01C081B2 		addlt	ip, r1, #1
 246 0174 0010A0E3 		mov	r1, #0
 247 0178 18C083E5 		str	ip, [r3, #24]
 248 017c 1CE083E5 		str	lr, [r3, #28]
 249 0180 001082E5 		str	r1, [r2]
 250              	.L24:
 251 0184 282093E5 		ldr	r2, [r3, #40]
 252 0188 001092E1 		orrs	r1, r2, r0
 253 018c 1600001A 		bne	.L25
 254              	.L53:
 255 0190 002000E3 		movw	r2, #:lower16:.LANCHOR7
 256 0194 002040E3 		movt	r2, #:upper16:.LANCHOR7
 257 0198 00C092E5 		ldr	ip, [r2]
 258 019c 00005CE3 		cmp	ip, #0
 259 01a0 1500000A 		beq	.L26
 260 01a4 240093E5 		ldr	r0, [r3, #36]
 261 01a8 2CC093E5 		ldr	ip, [r3, #44]
 262 01ac 0C0050E1 		cmp	r0, ip
 263 01b0 01C0A0E3 		mov	ip, #1
 264 01b4 011080B2 		addlt	r1, r0, #1
 265 01b8 0000A0E3 		mov	r0, #0
 266 01bc 241083E5 		str	r1, [r3, #36]
 267 01c0 28C083E5 		str	ip, [r3, #40]
 268 01c4 000082E5 		str	r0, [r2]
 269 01c8 9DFFFFEA 		b	.L16
 270              	.L21:
 271 01cc 000052E3 		cmp	r2, #0
 272 01d0 EBFFFF1A 		bne	.L24
 273 01d4 002000E3 		movw	r2, #:lower16:.LANCHOR6
 274 01d8 002040E3 		movt	r2, #:upper16:.LANCHOR6
 275              	.L22:
 276 01dc 001082E5 		str	r1, [r2]
 277 01e0 282093E5 		ldr	r2, [r3, #40]
 278 01e4 001092E1 		orrs	r1, r2, r0
 279 01e8 E8FFFF0A 		beq	.L53
 280              	.L25:
 281 01ec 000052E3 		cmp	r2, #0
 282 01f0 93FFFF1A 		bne	.L16
 283 01f4 002000E3 		movw	r2, #:lower16:.LANCHOR7
 284 01f8 002040E3 		movt	r2, #:upper16:.LANCHOR7
 285              	.L26:
 286 01fc 000082E5 		str	r0, [r2]
 287 0200 8FFFFFEA 		b	.L16
 288              	.L52:
 289 0204 0E0D52E3 		cmp	r2, #896
 290 0208 0000A093 		movls	r0, #0
 291 020c 0010A091 		movls	r1, r0
 292 0210 C8FFFFEA 		b	.L20
 293              	.L51:
 294 0214 003000E3 		movw	r3, #:lower16:.LANCHOR0
 295 0218 B020C1E1 		strh	r2, [r1]	@ movhi
 296 021c 003040E3 		movt	r3, #:upper16:.LANCHOR0
 297 0220 87FFFFEA 		b	.L16
 299              		.global	boardSwitchInfoStruct
 300              		.section	.rodata
 301              		.align	2
 302              		.set	.LANCHOR1,. + 0
 303              	.LC0:
 304 0000 00000000 		.word	0
 305 0004 00000000 		.word	0
 306 0008 01000000 		.word	1
 307 000c 00000000 		.word	0
 308 0010 00000000 		.word	0
 309 0014 01000000 		.word	1
 310 0018 00000000 		.word	0
 311 001c 00000000 		.word	0
 312 0020 01000000 		.word	1
 313 0024 00000000 		.word	0
 314 0028 00000000 		.word	0
 315 002c 01000000 		.word	1
 316              		.section	.bss.adc_config,"aw",%nobits
 317              		.align	2
 318              		.set	.LANCHOR3,. + 0
 321              	adc_config:
 322 0000 00000000 		.space	80
 322      00000000 
 322      00000000 
 322      00000000 
 322      00000000 
 323              		.section	.bss.buffer.71312,"aw",%nobits
 324              		.align	3
 325              		.set	.LANCHOR4,. + 0
 328              	buffer.71312:
 329 0000 0000     		.space	2
 330              		.section	.bss.channel_6_conversionPrev,"aw",%nobits
 331              		.align	1
 332              		.set	.LANCHOR5,. + 0
 335              	channel_6_conversionPrev:
 336 0000 0000     		.space	2
 337              		.section	.data.SW3_lastKey,"aw",%progbits
 338              		.align	2
 339              		.set	.LANCHOR8,. + 0
 342              	SW3_lastKey:
 343 0000 01000000 		.word	1
 344              		.section	.data.SW4_lastKey,"aw",%progbits
 345              		.align	2
 346              		.set	.LANCHOR6,. + 0
 349              	SW4_lastKey:
 350 0000 01000000 		.word	1
 351              		.section	.data.SW5_lastKey,"aw",%progbits
 352              		.align	2
 353              		.set	.LANCHOR7,. + 0
 356              	SW5_lastKey:
 357 0000 01000000 		.word	1
 358              		.section	.data.boardSwitchInfoStruct,"aw",%progbits
 359              		.align	2
 360              		.set	.LANCHOR0,. + 0
 363              	boardSwitchInfoStruct:
 364 0000 00000000 		.word	0
 365 0004 00000000 		.word	0
 366 0008 01000000 		.word	1
 367 000c 00000000 		.word	0
 368 0010 00000000 		.word	0
 369 0014 01000000 		.word	1
 370 0018 00000000 		.word	0
 371 001c 00000000 		.word	0
 372 0020 01000000 		.word	1
 373 0024 00000000 		.word	0
 374 0028 00000000 		.word	0
 375 002c 01000000 		.word	1
 376              		.section	.data.s_adc_handle,"aw",%progbits
 377              		.align	2
 378              		.set	.LANCHOR2,. + 0
 381              	s_adc_handle:
 382 0000 FFFFFFFF 		.word	-1
 383              		.section	.rodata.initBoardSwitch.str1.4,"aMS",%progbits,1
 384              		.align	2
 385              	.LC1:
 386 0000 5C5C2E5C 		.ascii	"\\\\.\\adc\000"
 386      61646300 
 387              		.ident	"GCC: (GNU Tools for ARM Embedded Processors 6-2017-q2-update) 6.3.1 20170620 (release) [AR