   1              		.cpu cortex-a9
   2              		.eabi_attribute 28, 1
   3              		.eabi_attribute 20, 1
   4              		.eabi_attribute 21, 1
   5              		.eabi_attribute 23, 3
   6              		.eabi_attribute 24, 1
   7              		.eabi_attribute 25, 1
   8              		.eabi_attribute 26, 1
   9              		.eabi_attribute 30, 1
  10              		.eabi_attribute 34, 0
  11              		.eabi_attribute 18, 4
  12              		.file	"ceu_userdef.c"
  13              		.text
  14              	.Ltext0:
  15              		.cfi_sections	.debug_frame
  16              		.section	.text.setinterrupt,"ax",%progbits
  17              		.align	2
  18              		.syntax unified
  19              		.arm
  20              		.fpu neon
  22              	setinterrupt:
  23              	.LFB3:
  24              		.file 1 "../generate/sc_drivers/r_ceu/userdef/ceu_userdef.c"
   1:../generate/sc_drivers/r_ceu/userdef/ceu_userdef.c **** /**************************************************************************************************
   2:../generate/sc_drivers/r_ceu/userdef/ceu_userdef.c ****  * DISCLAIMER
   3:../generate/sc_drivers/r_ceu/userdef/ceu_userdef.c ****  * This software is supplied by Renesas Electronics Corporation and is only intended for use with R
   4:../generate/sc_drivers/r_ceu/userdef/ceu_userdef.c ****  * other uses are authorized. This software is owned by Renesas Electronics Corporation and is prot
   5:../generate/sc_drivers/r_ceu/userdef/ceu_userdef.c ****  * applicable laws, including copyright laws.
   6:../generate/sc_drivers/r_ceu/userdef/ceu_userdef.c ****  * THIS SOFTWARE IS PROVIDED "AS IS" AND RENESAS MAKES NO WARRANTIES REGARDING
   7:../generate/sc_drivers/r_ceu/userdef/ceu_userdef.c ****  * THIS SOFTWARE, WHETHER EXPRESS, IMPLIED OR STATUTORY, INCLUDING BUT NOT LIMITED TO WARRANTIES OF
   8:../generate/sc_drivers/r_ceu/userdef/ceu_userdef.c ****  * FITNESS FOR A PARTICULAR PURPOSE AND NON-INFRINGEMENT. ALL SUCH WARRANTIES ARE EXPRESSLY DISCLAI
   9:../generate/sc_drivers/r_ceu/userdef/ceu_userdef.c ****  * EXTENT PERMITTED NOT PROHIBITED BY LAW, NEITHER RENESAS ELECTRONICS CORPORATION NOR ANY OF ITS A
  10:../generate/sc_drivers/r_ceu/userdef/ceu_userdef.c ****  * SHALL BE LIABLE FOR ANY DIRECT, INDIRECT, SPECIAL, INCIDENTAL OR CONSEQUENTIAL DAMAGES FOR ANY R
  11:../generate/sc_drivers/r_ceu/userdef/ceu_userdef.c ****  * THIS SOFTWARE, EVEN IF RENESAS OR ITS AFFILIATES HAVE BEEN ADVISED OF THE POSSIBILITY OF SUCH DA
  12:../generate/sc_drivers/r_ceu/userdef/ceu_userdef.c ****  * Renesas reserves the right, without notice, to make changes to this software and to discontinue 
  13:../generate/sc_drivers/r_ceu/userdef/ceu_userdef.c ****  * this software. By using this software, you agree to the additional terms and conditions found by
  14:../generate/sc_drivers/r_ceu/userdef/ceu_userdef.c ****  * following link:
  15:../generate/sc_drivers/r_ceu/userdef/ceu_userdef.c ****  * http://www.renesas.com/disclaimer
  16:../generate/sc_drivers/r_ceu/userdef/ceu_userdef.c ****  *
  17:../generate/sc_drivers/r_ceu/userdef/ceu_userdef.c ****  * Copyright (C) 2019 Renesas Electronics Corporation. All rights reserved.
  18:../generate/sc_drivers/r_ceu/userdef/ceu_userdef.c ****  **************************************************************************************************
  19:../generate/sc_drivers/r_ceu/userdef/ceu_userdef.c **** 
  20:../generate/sc_drivers/r_ceu/userdef/ceu_userdef.c **** /**************************************************************************//**
  21:../generate/sc_drivers/r_ceu/userdef/ceu_userdef.c ****  * File Name :   ceu_userdef.c
  22:../generate/sc_drivers/r_ceu/userdef/ceu_userdef.c ****  * @file         ceu_userdef.c
  23:../generate/sc_drivers/r_ceu/userdef/ceu_userdef.c ****  * @version      1.12
  24:../generate/sc_drivers/r_ceu/userdef/ceu_userdef.c ****  * @brief        RZ/A2M CEU driver user function
  25:../generate/sc_drivers/r_ceu/userdef/ceu_userdef.c ****  ******************************************************************************/
  26:../generate/sc_drivers/r_ceu/userdef/ceu_userdef.c **** 
  27:../generate/sc_drivers/r_ceu/userdef/ceu_userdef.c **** /******************************************************************************
  28:../generate/sc_drivers/r_ceu/userdef/ceu_userdef.c **** Includes   <System Includes> , "Project Includes"
  29:../generate/sc_drivers/r_ceu/userdef/ceu_userdef.c **** ******************************************************************************/
  30:../generate/sc_drivers/r_ceu/userdef/ceu_userdef.c **** #include     "r_typedefs.h"
  31:../generate/sc_drivers/r_ceu/userdef/ceu_userdef.c **** #include     "iodefine.h"
  32:../generate/sc_drivers/r_ceu/userdef/ceu_userdef.c **** #include     "r_intc_drv_api.h"
  33:../generate/sc_drivers/r_ceu/userdef/ceu_userdef.c **** #include     "r_mmu_drv_api.h"
  34:../generate/sc_drivers/r_ceu/userdef/ceu_userdef.c **** #include     "r_ceu.h"
  35:../generate/sc_drivers/r_ceu/userdef/ceu_userdef.c **** #include     "r_ceu_user.h"
  36:../generate/sc_drivers/r_ceu/userdef/ceu_userdef.c **** 
  37:../generate/sc_drivers/r_ceu/userdef/ceu_userdef.c **** /******************************************************************************
  38:../generate/sc_drivers/r_ceu/userdef/ceu_userdef.c **** Macro definitions
  39:../generate/sc_drivers/r_ceu/userdef/ceu_userdef.c **** ******************************************************************************/
  40:../generate/sc_drivers/r_ceu/userdef/ceu_userdef.c **** #define STP56_BIT               (0x40u)
  41:../generate/sc_drivers/r_ceu/userdef/ceu_userdef.c **** #define STBRQ10_BIT             (0x01u)
  42:../generate/sc_drivers/r_ceu/userdef/ceu_userdef.c **** #define STBAK10_BIT             (0x01u)
  43:../generate/sc_drivers/r_ceu/userdef/ceu_userdef.c **** 
  44:../generate/sc_drivers/r_ceu/userdef/ceu_userdef.c **** /******************************************************************************
  45:../generate/sc_drivers/r_ceu/userdef/ceu_userdef.c **** Typedef definitions
  46:../generate/sc_drivers/r_ceu/userdef/ceu_userdef.c **** ******************************************************************************/
  47:../generate/sc_drivers/r_ceu/userdef/ceu_userdef.c **** 
  48:../generate/sc_drivers/r_ceu/userdef/ceu_userdef.c **** /******************************************************************************
  49:../generate/sc_drivers/r_ceu/userdef/ceu_userdef.c **** Private global variables and functions
  50:../generate/sc_drivers/r_ceu/userdef/ceu_userdef.c **** ******************************************************************************/
  51:../generate/sc_drivers/r_ceu/userdef/ceu_userdef.c **** static void setinterrupt (const uint32_t user_num);
  52:../generate/sc_drivers/r_ceu/userdef/ceu_userdef.c **** 
  53:../generate/sc_drivers/r_ceu/userdef/ceu_userdef.c **** /**************************************************************************//**
  54:../generate/sc_drivers/r_ceu/userdef/ceu_userdef.c ****  * Function Name: R_CEU_CPUVAddrToSysPAddr
  55:../generate/sc_drivers/r_ceu/userdef/ceu_userdef.c ****  * @brief       Cet the System Physical address of the given virtual memory address.
  56:../generate/sc_drivers/r_ceu/userdef/ceu_userdef.c ****  * @param[in]   vaddr          : virtual address
  57:../generate/sc_drivers/r_ceu/userdef/ceu_userdef.c ****  * @retval      none
  58:../generate/sc_drivers/r_ceu/userdef/ceu_userdef.c ****  *****************************************************************************/
  59:../generate/sc_drivers/r_ceu/userdef/ceu_userdef.c **** uint32_t R_CEU_CPUVAddrToSysPAddr(uint32_t vaddr)
  60:../generate/sc_drivers/r_ceu/userdef/ceu_userdef.c **** {
  61:../generate/sc_drivers/r_ceu/userdef/ceu_userdef.c ****     e_mmu_err_t ret;
  62:../generate/sc_drivers/r_ceu/userdef/ceu_userdef.c ****     uint32_t  paddress = 0;
  63:../generate/sc_drivers/r_ceu/userdef/ceu_userdef.c **** 
  64:../generate/sc_drivers/r_ceu/userdef/ceu_userdef.c ****     ret = R_MMU_VAtoPA(vaddr, &paddress);
  65:../generate/sc_drivers/r_ceu/userdef/ceu_userdef.c ****     if( MMU_SUCCESS != ret)
  66:../generate/sc_drivers/r_ceu/userdef/ceu_userdef.c ****     {
  67:../generate/sc_drivers/r_ceu/userdef/ceu_userdef.c ****         paddress = 0;
  68:../generate/sc_drivers/r_ceu/userdef/ceu_userdef.c ****     }
  69:../generate/sc_drivers/r_ceu/userdef/ceu_userdef.c ****     return paddress;
  70:../generate/sc_drivers/r_ceu/userdef/ceu_userdef.c **** }   /* End of function R_CEU_CPUVAddrToSysPAddr() */
  71:../generate/sc_drivers/r_ceu/userdef/ceu_userdef.c **** 
  72:../generate/sc_drivers/r_ceu/userdef/ceu_userdef.c **** /**************************************************************************//**
  73:../generate/sc_drivers/r_ceu/userdef/ceu_userdef.c ****  * Function Name: R_CEU_OnInitialize
  74:../generate/sc_drivers/r_ceu/userdef/ceu_userdef.c ****  * @brief       CEU User difinistion part Init
  75:../generate/sc_drivers/r_ceu/userdef/ceu_userdef.c ****  * @param[in]   user_num          :
  76:../generate/sc_drivers/r_ceu/userdef/ceu_userdef.c ****  * @retval      none
  77:../generate/sc_drivers/r_ceu/userdef/ceu_userdef.c ****  *****************************************************************************/
  78:../generate/sc_drivers/r_ceu/userdef/ceu_userdef.c **** void R_CEU_OnInitialize(const uint32_t user_num)
  79:../generate/sc_drivers/r_ceu/userdef/ceu_userdef.c **** {
  80:../generate/sc_drivers/r_ceu/userdef/ceu_userdef.c ****     uint32_t reg_data;
  81:../generate/sc_drivers/r_ceu/userdef/ceu_userdef.c ****     volatile uint8_t dummy_read;
  82:../generate/sc_drivers/r_ceu/userdef/ceu_userdef.c **** 
  83:../generate/sc_drivers/r_ceu/userdef/ceu_userdef.c ****     /* Standby control register 5 (STBCR5)
  84:../generate/sc_drivers/r_ceu/userdef/ceu_userdef.c ****         b6      -0------;  MSTP56 : 0 : CEU enable */
  85:../generate/sc_drivers/r_ceu/userdef/ceu_userdef.c ****     reg_data    = (uint32_t)CPG.STBCR5.BYTE & (uint32_t)~STP56_BIT;
  86:../generate/sc_drivers/r_ceu/userdef/ceu_userdef.c **** 
  87:../generate/sc_drivers/r_ceu/userdef/ceu_userdef.c ****     /* This implicit casting is valid. */
  88:../generate/sc_drivers/r_ceu/userdef/ceu_userdef.c ****     CPG.STBCR5.BYTE  = (uint8_t)reg_data;
  89:../generate/sc_drivers/r_ceu/userdef/ceu_userdef.c **** 
  90:../generate/sc_drivers/r_ceu/userdef/ceu_userdef.c ****     /* In order to reflect the change, a dummy read should be done. */
  91:../generate/sc_drivers/r_ceu/userdef/ceu_userdef.c ****     dummy_read = CPG.STBCR5.BYTE;
  92:../generate/sc_drivers/r_ceu/userdef/ceu_userdef.c **** 
  93:../generate/sc_drivers/r_ceu/userdef/ceu_userdef.c ****     /* Standby Request Register 1 (STBREQ1)
  94:../generate/sc_drivers/r_ceu/userdef/ceu_userdef.c ****         b0      -------0;  STBRQ10 : The standby request to CEU is invalid. */
  95:../generate/sc_drivers/r_ceu/userdef/ceu_userdef.c ****     reg_data    = (uint32_t)CPG.STBREQ1.BYTE & (uint32_t)~STBRQ10_BIT;
  96:../generate/sc_drivers/r_ceu/userdef/ceu_userdef.c **** 
  97:../generate/sc_drivers/r_ceu/userdef/ceu_userdef.c ****     /* This implicit casting is valid. */
  98:../generate/sc_drivers/r_ceu/userdef/ceu_userdef.c ****     CPG.STBREQ1.BYTE = (uint8_t)reg_data;
  99:../generate/sc_drivers/r_ceu/userdef/ceu_userdef.c **** 
 100:../generate/sc_drivers/r_ceu/userdef/ceu_userdef.c ****     /* Standby Acknowledge Register 1 (STBACK1)
 101:../generate/sc_drivers/r_ceu/userdef/ceu_userdef.c ****         b0      -------*;  STBAK10 : Standby acknowledgement from CEU. */
 102:../generate/sc_drivers/r_ceu/userdef/ceu_userdef.c ****     while (((uint32_t)CPG.STBACK1.BYTE & (uint32_t)STBAK10_BIT) != 0u)
 103:../generate/sc_drivers/r_ceu/userdef/ceu_userdef.c ****     {
 104:../generate/sc_drivers/r_ceu/userdef/ceu_userdef.c ****         /* Wait for the STBAK10 to be cleared to 0. */
 105:../generate/sc_drivers/r_ceu/userdef/ceu_userdef.c ****         ;
 106:../generate/sc_drivers/r_ceu/userdef/ceu_userdef.c ****     }
 107:../generate/sc_drivers/r_ceu/userdef/ceu_userdef.c **** 
 108:../generate/sc_drivers/r_ceu/userdef/ceu_userdef.c ****     setinterrupt(user_num);
 109:../generate/sc_drivers/r_ceu/userdef/ceu_userdef.c **** 
 110:../generate/sc_drivers/r_ceu/userdef/ceu_userdef.c **** } /* End of function R_CEU_OnInitialize() */
 111:../generate/sc_drivers/r_ceu/userdef/ceu_userdef.c **** 
 112:../generate/sc_drivers/r_ceu/userdef/ceu_userdef.c **** /**************************************************************************//**
 113:../generate/sc_drivers/r_ceu/userdef/ceu_userdef.c ****  * Function Name: R_CEU_OnFinalize
 114:../generate/sc_drivers/r_ceu/userdef/ceu_userdef.c ****  * @brief       CEU User difinistion part final
 115:../generate/sc_drivers/r_ceu/userdef/ceu_userdef.c ****  * @param[in]   user_num          : user param
 116:../generate/sc_drivers/r_ceu/userdef/ceu_userdef.c ****  * @retval      none
 117:../generate/sc_drivers/r_ceu/userdef/ceu_userdef.c ****  *****************************************************************************/
 118:../generate/sc_drivers/r_ceu/userdef/ceu_userdef.c **** void R_CEU_OnFinalize(const uint32_t user_num)
 119:../generate/sc_drivers/r_ceu/userdef/ceu_userdef.c **** {
 120:../generate/sc_drivers/r_ceu/userdef/ceu_userdef.c ****     uint32_t reg_data;
 121:../generate/sc_drivers/r_ceu/userdef/ceu_userdef.c ****     volatile uint8_t dummy_read;
 122:../generate/sc_drivers/r_ceu/userdef/ceu_userdef.c **** 
 123:../generate/sc_drivers/r_ceu/userdef/ceu_userdef.c ****     /* Standby Request Register 1 (STBREQ1)
 124:../generate/sc_drivers/r_ceu/userdef/ceu_userdef.c ****        b0      -------1;  STBRQ10 : The standby request to CEU is valid. */
 125:../generate/sc_drivers/r_ceu/userdef/ceu_userdef.c ****     reg_data    = (uint32_t)CPG.STBREQ1.BYTE | (uint32_t)STBRQ10_BIT;
 126:../generate/sc_drivers/r_ceu/userdef/ceu_userdef.c **** 
 127:../generate/sc_drivers/r_ceu/userdef/ceu_userdef.c ****     /* This implicit casting is valid. */
 128:../generate/sc_drivers/r_ceu/userdef/ceu_userdef.c ****     CPG.STBREQ1.BYTE = (uint8_t)reg_data;
 129:../generate/sc_drivers/r_ceu/userdef/ceu_userdef.c **** 
 130:../generate/sc_drivers/r_ceu/userdef/ceu_userdef.c ****     /* Standby Acknowledge Register 1 (STBACK1)
 131:../generate/sc_drivers/r_ceu/userdef/ceu_userdef.c ****         b0      -------*;  STBAK10 : Standby acknowledgement from CEU. */
 132:../generate/sc_drivers/r_ceu/userdef/ceu_userdef.c ****     while (((uint32_t)CPG.STBACK1.BYTE & (uint32_t)STBAK10_BIT) == 0u)
 133:../generate/sc_drivers/r_ceu/userdef/ceu_userdef.c ****     {
 134:../generate/sc_drivers/r_ceu/userdef/ceu_userdef.c ****         /* Wait for the STBAK10 to be set to 1. */
 135:../generate/sc_drivers/r_ceu/userdef/ceu_userdef.c ****         ;
 136:../generate/sc_drivers/r_ceu/userdef/ceu_userdef.c ****     }
 137:../generate/sc_drivers/r_ceu/userdef/ceu_userdef.c **** 
 138:../generate/sc_drivers/r_ceu/userdef/ceu_userdef.c ****     /* Standby control register 5 (STBCR5)
 139:../generate/sc_drivers/r_ceu/userdef/ceu_userdef.c ****        b6      -1------;  MSTP56 : 1 : CEU disable */
 140:../generate/sc_drivers/r_ceu/userdef/ceu_userdef.c ****     reg_data    = (uint32_t)CPG.STBCR5.BYTE | (uint32_t)STP56_BIT;
 141:../generate/sc_drivers/r_ceu/userdef/ceu_userdef.c **** 
 142:../generate/sc_drivers/r_ceu/userdef/ceu_userdef.c ****     /* This implicit casting is valid. */
 143:../generate/sc_drivers/r_ceu/userdef/ceu_userdef.c ****     CPG.STBCR5.BYTE  = (uint8_t)reg_data;
 144:../generate/sc_drivers/r_ceu/userdef/ceu_userdef.c **** 
 145:../generate/sc_drivers/r_ceu/userdef/ceu_userdef.c ****     /* In order to reflect the change, a dummy read should be done. */
 146:../generate/sc_drivers/r_ceu/userdef/ceu_userdef.c ****     dummy_read = CPG.STBCR5.BYTE;
 147:../generate/sc_drivers/r_ceu/userdef/ceu_userdef.c **** 
 148:../generate/sc_drivers/r_ceu/userdef/ceu_userdef.c **** } /* End of function R_CEU_OnFinalize() */
 149:../generate/sc_drivers/r_ceu/userdef/ceu_userdef.c **** 
 150:../generate/sc_drivers/r_ceu/userdef/ceu_userdef.c **** /**************************************************************************//**
 151:../generate/sc_drivers/r_ceu/userdef/ceu_userdef.c ****  * Function Name: setinterrupt
 152:../generate/sc_drivers/r_ceu/userdef/ceu_userdef.c ****  * @brief       Setup CEU interrupt
 153:../generate/sc_drivers/r_ceu/userdef/ceu_userdef.c ****  * @param[in]   user_num          : user param
 154:../generate/sc_drivers/r_ceu/userdef/ceu_userdef.c ****  * @retval      None
 155:../generate/sc_drivers/r_ceu/userdef/ceu_userdef.c **** ******************************************************************************/
 156:../generate/sc_drivers/r_ceu/userdef/ceu_userdef.c **** static void setinterrupt (const uint32_t user_num)
 157:../generate/sc_drivers/r_ceu/userdef/ceu_userdef.c **** {
  25              		.loc 1 157 0
  26              		.cfi_startproc
  27              		@ args = 0, pretend = 0, frame = 0
  28              		@ frame_needed = 0, uses_anonymous_args = 0
  29              	.LVL0:
  30 0000 10402DE9 		push	{r4, lr}
  31              		.cfi_def_cfa_offset 8
  32              		.cfi_offset 4, -8
  33              		.cfi_offset 14, -4
  34              	.LVL1:
 158:../generate/sc_drivers/r_ceu/userdef/ceu_userdef.c ****     uint16_t        int_id;
 159:../generate/sc_drivers/r_ceu/userdef/ceu_userdef.c ****     int32_t         ret_code;
 160:../generate/sc_drivers/r_ceu/userdef/ceu_userdef.c **** 
 161:../generate/sc_drivers/r_ceu/userdef/ceu_userdef.c ****     /* Set Interrupt ID */
 162:../generate/sc_drivers/r_ceu/userdef/ceu_userdef.c ****     int_id = (uint16_t)INTC_ID_CEU_CEUI;
 163:../generate/sc_drivers/r_ceu/userdef/ceu_userdef.c ****     ret_code = R_INTC_RegistIntFunc(int_id, R_CEU_Isr);
  35              		.loc 1 163 0
  36 0004 001000E3 		movw	r1, #:lower16:R_CEU_Isr
  37 0008 001040E3 		movt	r1, #:upper16:R_CEU_Isr
  38 000c 7A0100E3 		movw	r0, #378
  39              	.LVL2:
  40 0010 FEFFFFEB 		bl	R_INTC_RegistIntFunc
  41              	.LVL3:
  42 0014 0030A0E1 		mov	r3, r0
  43              	.LVL4:
 164:../generate/sc_drivers/r_ceu/userdef/ceu_userdef.c ****     if (ret_code != INTC_SUCCESS)
 165:../generate/sc_drivers/r_ceu/userdef/ceu_userdef.c ****     {
 166:../generate/sc_drivers/r_ceu/userdef/ceu_userdef.c ****         /* Do Nothing */
 167:../generate/sc_drivers/r_ceu/userdef/ceu_userdef.c ****         ;
 168:../generate/sc_drivers/r_ceu/userdef/ceu_userdef.c ****     }
 169:../generate/sc_drivers/r_ceu/userdef/ceu_userdef.c **** 
 170:../generate/sc_drivers/r_ceu/userdef/ceu_userdef.c ****     if (ret_code == INTC_SUCCESS)
  44              		.loc 1 170 0
  45 0018 000050E3 		cmp	r0, #0
  46 001c 0400000A 		beq	.L5
  47              	.LVL5:
  48              	.L2:
 171:../generate/sc_drivers/r_ceu/userdef/ceu_userdef.c ****     {
 172:../generate/sc_drivers/r_ceu/userdef/ceu_userdef.c ****         /* Set Interrupt priority */
 173:../generate/sc_drivers/r_ceu/userdef/ceu_userdef.c ****         ret_code = R_INTC_SetPriority(int_id, (uint8_t)CEU_INTERRUPT_PRIORITY);
 174:../generate/sc_drivers/r_ceu/userdef/ceu_userdef.c ****         if (ret_code != INTC_SUCCESS)
 175:../generate/sc_drivers/r_ceu/userdef/ceu_userdef.c ****         {
 176:../generate/sc_drivers/r_ceu/userdef/ceu_userdef.c ****             /* Do Nothing */
 177:../generate/sc_drivers/r_ceu/userdef/ceu_userdef.c ****             ;
 178:../generate/sc_drivers/r_ceu/userdef/ceu_userdef.c ****         }
 179:../generate/sc_drivers/r_ceu/userdef/ceu_userdef.c ****     }
 180:../generate/sc_drivers/r_ceu/userdef/ceu_userdef.c **** 
 181:../generate/sc_drivers/r_ceu/userdef/ceu_userdef.c ****     if (ret_code == INTC_SUCCESS)
  49              		.loc 1 181 0
  50 0020 000053E3 		cmp	r3, #0
  51 0024 1080BD18 		popne	{r4, pc}
 182:../generate/sc_drivers/r_ceu/userdef/ceu_userdef.c ****     {
 183:../generate/sc_drivers/r_ceu/userdef/ceu_userdef.c ****         ret_code = R_INTC_Enable(int_id);
  52              		.loc 1 183 0
  53 0028 7A0100E3 		movw	r0, #378
  54 002c FEFFFFEB 		bl	R_INTC_Enable
  55              	.LVL6:
  56 0030 1080BDE8 		pop	{r4, pc}
  57              	.LVL7:
  58              	.L5:
 173:../generate/sc_drivers/r_ceu/userdef/ceu_userdef.c ****         if (ret_code != INTC_SUCCESS)
  59              		.loc 1 173 0
  60 0034 0510A0E3 		mov	r1, #5
  61 0038 7A0100E3 		movw	r0, #378
  62              	.LVL8:
  63 003c FEFFFFEB 		bl	R_INTC_SetPriority
  64              	.LVL9:
  65 0040 0030A0E1 		mov	r3, r0
  66              	.LVL10:
  67 0044 F5FFFFEA 		b	.L2
  68              		.cfi_endproc
  69              	.LFE3:
  71              		.section	.text.R_CEU_CPUVAddrToSysPAddr,"ax",%progbits
  72              		.align	2
  73              		.global	R_CEU_CPUVAddrToSysPAddr
  74              		.syntax unified
  75              		.arm
  76              		.fpu neon
  78              	R_CEU_CPUVAddrToSysPAddr:
  79              	.LFB0:
  60:../generate/sc_drivers/r_ceu/userdef/ceu_userdef.c ****     e_mmu_err_t ret;
  80              		.loc 1 60 0
  81              		.cfi_startproc
  82              		@ args = 0, pretend = 0, frame = 8
  83              		@ frame_needed = 0, uses_anonymous_args = 0
  84              	.LVL11:
  85 0000 04E02DE5 		str	lr, [sp, #-4]!
  86              		.cfi_def_cfa_offset 4
  87              		.cfi_offset 14, -4
  88 0004 0CD04DE2 		sub	sp, sp, #12
  89              		.cfi_def_cfa_offset 16
  62:../generate/sc_drivers/r_ceu/userdef/ceu_userdef.c **** 
  90              		.loc 1 62 0
  91 0008 08108DE2 		add	r1, sp, #8
  92 000c 0030A0E3 		mov	r3, #0
  93 0010 043021E5 		str	r3, [r1, #-4]!
  64:../generate/sc_drivers/r_ceu/userdef/ceu_userdef.c ****     if( MMU_SUCCESS != ret)
  94              		.loc 1 64 0
  95 0014 FEFFFFEB 		bl	R_MMU_VAtoPA
  96              	.LVL12:
  65:../generate/sc_drivers/r_ceu/userdef/ceu_userdef.c ****     {
  97              		.loc 1 65 0
  98 0018 000050E3 		cmp	r0, #0
  67:../generate/sc_drivers/r_ceu/userdef/ceu_userdef.c ****     }
  99              		.loc 1 67 0
 100 001c 0030A013 		movne	r3, #0
 101 0020 04308D15 		strne	r3, [sp, #4]
 102              	.L7:
  70:../generate/sc_drivers/r_ceu/userdef/ceu_userdef.c **** 
 103              		.loc 1 70 0
 104 0024 04009DE5 		ldr	r0, [sp, #4]
 105              	.LVL13:
 106 0028 0CD08DE2 		add	sp, sp, #12
 107              		.cfi_def_cfa_offset 4
 108              		@ sp needed
 109 002c 04F09DE4 		ldr	pc, [sp], #4
 110              		.cfi_endproc
 111              	.LFE0:
 113              		.section	.text.R_CEU_OnInitialize,"ax",%progbits
 114              		.align	2
 115              		.global	R_CEU_OnInitialize
 116              		.syntax unified
 117              		.arm
 118              		.fpu neon
 120              	R_CEU_OnInitialize:
 121              	.LFB1:
  79:../generate/sc_drivers/r_ceu/userdef/ceu_userdef.c ****     uint32_t reg_data;
 122              		.loc 1 79 0
 123              		.cfi_startproc
 124              		@ args = 0, pretend = 0, frame = 8
 125              		@ frame_needed = 0, uses_anonymous_args = 0
 126              	.LVL14:
 127 0000 04E02DE5 		str	lr, [sp, #-4]!
 128              		.cfi_def_cfa_offset 4
 129              		.cfi_offset 14, -4
 130 0004 0CD04DE2 		sub	sp, sp, #12
 131              		.cfi_def_cfa_offset 16
  85:../generate/sc_drivers/r_ceu/userdef/ceu_userdef.c **** 
 132              		.loc 1 85 0
 133 0008 FF30A0E3 		mov	r3, #255
 134 000c FE3C4FE3 		movt	r3, 64766
 135 0010 2923D3E5 		ldrb	r2, [r3, #809]	@ zero_extendqisi2
 136              	.LVL15:
  88:../generate/sc_drivers/r_ceu/userdef/ceu_userdef.c **** 
 137              		.loc 1 88 0
 138 0014 BF2002E2 		and	r2, r2, #191
 139              	.LVL16:
 140 0018 2923C3E5 		strb	r2, [r3, #809]
  91:../generate/sc_drivers/r_ceu/userdef/ceu_userdef.c **** 
 141              		.loc 1 91 0
 142 001c 2923D3E5 		ldrb	r2, [r3, #809]	@ zero_extendqisi2
 143              	.LVL17:
 144 0020 7220EFE6 		uxtb	r2, r2
 145 0024 0720CDE5 		strb	r2, [sp, #7]
  95:../generate/sc_drivers/r_ceu/userdef/ceu_userdef.c **** 
 146              		.loc 1 95 0
 147 0028 CF2053E5 		ldrb	r2, [r3, #-207]	@ zero_extendqisi2
 148              	.LVL18:
  98:../generate/sc_drivers/r_ceu/userdef/ceu_userdef.c **** 
 149              		.loc 1 98 0
 150 002c FE2002E2 		and	r2, r2, #254
 151              	.LVL19:
 152 0030 CF2043E5 		strb	r2, [r3, #-207]
 153              	.L10:
 102:../generate/sc_drivers/r_ceu/userdef/ceu_userdef.c ****     {
 154              		.loc 1 102 0 discriminator 1
 155 0034 FF30A0E3 		mov	r3, #255
 156 0038 FE3C4FE3 		movt	r3, 64766
 157 003c BF3053E5 		ldrb	r3, [r3, #-191]	@ zero_extendqisi2
 158 0040 010013E3 		tst	r3, #1
 159 0044 FAFFFF1A 		bne	.L10
 108:../generate/sc_drivers/r_ceu/userdef/ceu_userdef.c **** 
 160              		.loc 1 108 0
 161 0048 FEFFFFEB 		bl	setinterrupt
 162              	.LVL20:
 110:../generate/sc_drivers/r_ceu/userdef/ceu_userdef.c **** 
 163              		.loc 1 110 0
 164 004c 0CD08DE2 		add	sp, sp, #12
 165              		.cfi_def_cfa_offset 4
 166              		@ sp needed
 167 0050 04F09DE4 		ldr	pc, [sp], #4
 168              		.cfi_endproc
 169              	.LFE1:
 171              		.section	.text.R_CEU_OnFinalize,"ax",%progbits
 172              		.align	2
 173              		.global	R_CEU_OnFinalize
 174              		.syntax unified
 175              		.arm
 176              		.fpu neon
 178              	R_CEU_OnFinalize:
 179              	.LFB2:
 119:../generate/sc_drivers/r_ceu/userdef/ceu_userdef.c ****     uint32_t reg_data;
 180              		.loc 1 119 0
 181              		.cfi_startproc
 182              		@ args = 0, pretend = 0, frame = 8
 183              		@ frame_needed = 0, uses_anonymous_args = 0
 184              		@ link register save eliminated.
 185              	.LVL21:
 186 0000 08D04DE2 		sub	sp, sp, #8
 187              		.cfi_def_cfa_offset 8
 125:../generate/sc_drivers/r_ceu/userdef/ceu_userdef.c **** 
 188              		.loc 1 125 0
 189 0004 FF30A0E3 		mov	r3, #255
 190 0008 FE3C4FE3 		movt	r3, 64766
 191 000c CF2053E5 		ldrb	r2, [r3, #-207]	@ zero_extendqisi2
 192 0010 012082E3 		orr	r2, r2, #1
 193              	.LVL22:
 128:../generate/sc_drivers/r_ceu/userdef/ceu_userdef.c **** 
 194              		.loc 1 128 0
 195 0014 CF2043E5 		strb	r2, [r3, #-207]
 196              	.L13:
 132:../generate/sc_drivers/r_ceu/userdef/ceu_userdef.c ****     {
 197              		.loc 1 132 0 discriminator 1
 198 0018 FF30A0E3 		mov	r3, #255
 199 001c FE3C4FE3 		movt	r3, 64766
 200 0020 BF3053E5 		ldrb	r3, [r3, #-191]	@ zero_extendqisi2
 201 0024 010013E3 		tst	r3, #1
 202 0028 FAFFFF0A 		beq	.L13
 140:../generate/sc_drivers/r_ceu/userdef/ceu_userdef.c **** 
 203              		.loc 1 140 0
 204 002c FF30A0E3 		mov	r3, #255
 205 0030 FE3C4FE3 		movt	r3, 64766
 206 0034 2923D3E5 		ldrb	r2, [r3, #809]	@ zero_extendqisi2
 207              	.LVL23:
 208 0038 402082E3 		orr	r2, r2, #64
 209              	.LVL24:
 143:../generate/sc_drivers/r_ceu/userdef/ceu_userdef.c **** 
 210              		.loc 1 143 0
 211 003c 2923C3E5 		strb	r2, [r3, #809]
 146:../generate/sc_drivers/r_ceu/userdef/ceu_userdef.c **** 
 212              		.loc 1 146 0
 213 0040 2933D3E5 		ldrb	r3, [r3, #809]	@ zero_extendqisi2
 214 0044 7330EFE6 		uxtb	r3, r3
 215 0048 0730CDE5 		strb	r3, [sp, #7]
 148:../generate/sc_drivers/r_ceu/userdef/ceu_userdef.c **** 
 216              		.loc 1 148 0
 217 004c 08D08DE2 		add	sp, sp, #8
 218              		.cfi_def_cfa_offset 0
 219              		@ sp needed
 220 0050 1EFF2FE1 		bx	lr
 221              		.cfi_endproc
 222              	.LFE2:
 224              		.text
 225              	.Letext0:
 226              		.file 2 "c:\\program files (x86)\\gnu tools arm embedded\\6 2017-q2-update\\arm-none-eabi\\include
 227              		.file 3 "c:\\program files (x86)\\gnu tools arm embedded\\6 2017-q2-update\\arm-none-eabi\\include
 228              		.file 4 "c:\\program files (x86)\\gnu tools arm embedded\\6 2017-q2-update\\arm-none-eabi\\include
 229              		.file 5 "c:\\program files (x86)\\gnu tools arm embedded\\6 2017-q2-update\\arm-none-eabi\\include
 230              		.file 6 "c:\\program files (x86)\\gnu tools arm embedded\\6 2017-q2-update\\lib\\gcc\\arm-none-eab
 231              		.file 7 "c:\\program files (x86)\\gnu tools arm embedded\\6 2017-q2-update\\arm-none-eabi\\include
 232              		.file 8 "c:\\program files (x86)\\gnu tools arm embedded\\6 2017-q2-update\\arm-none-eabi\\include
 233              		.file 9 "C:/Renesas/e2studio_2021_01_workspace_RZA2M_ANPR/ANPR_RZA2M_EBK/generate/system/iodefine/
 234              		.file 10 "C:/Renesas/e2studio_2021_01_workspace_RZA2M_ANPR/ANPR_RZA2M_EBK/generate/drivers/r_intc/
 235              		.file 11 "C:/Renesas/e2studio_2021_01_workspace_RZA2M_ANPR/ANPR_RZA2M_EBK/generate/drivers/r_mmu/i