   1              		.cpu cortex-a9
   2              		.eabi_attribute 28, 1
   3              		.eabi_attribute 20, 1
   4              		.eabi_attribute 21, 1
   5              		.eabi_attribute 23, 3
   6              		.eabi_attribute 24, 1
   7              		.eabi_attribute 25, 1
   8              		.eabi_attribute 26, 1
   9              		.eabi_attribute 30, 2
  10              		.eabi_attribute 34, 0
  11              		.eabi_attribute 18, 4
  12              		.file	"add.cpp"
  13              		.text
  14              	.Ltext0:
  15              		.cfi_sections	.debug_frame
  16              		.section	.text._ZN6tflite3ops5micro3add4InitEP13TfLiteContextPKcj,"ax",%progbits
  17              		.align	2
  18              		.global	_ZN6tflite3ops5micro3add4InitEP13TfLiteContextPKcj
  19              		.syntax unified
  20              		.arm
  21              		.fpu neon
  23              	_ZN6tflite3ops5micro3add4InitEP13TfLiteContextPKcj:
  24              		.fnstart
  25              	.LFB9120:
  26              		.file 1 "../src/tensorflow_lite/src/tensorflow/lite/micro/kernels/cmsis_nn/add.cpp"
   1:../src/tensorflow_lite/src/tensorflow/lite/micro/kernels/cmsis_nn/add.cpp **** /* Copyright 2019 The TensorFlow Authors. All Rights Reserved.
   2:../src/tensorflow_lite/src/tensorflow/lite/micro/kernels/cmsis_nn/add.cpp **** 
   3:../src/tensorflow_lite/src/tensorflow/lite/micro/kernels/cmsis_nn/add.cpp **** Licensed under the Apache License, Version 2.0 (the "License");
   4:../src/tensorflow_lite/src/tensorflow/lite/micro/kernels/cmsis_nn/add.cpp **** you may not use this file except in compliance with the License.
   5:../src/tensorflow_lite/src/tensorflow/lite/micro/kernels/cmsis_nn/add.cpp **** You may obtain a copy of the License at
   6:../src/tensorflow_lite/src/tensorflow/lite/micro/kernels/cmsis_nn/add.cpp **** 
   7:../src/tensorflow_lite/src/tensorflow/lite/micro/kernels/cmsis_nn/add.cpp ****     http://www.apache.org/licenses/LICENSE-2.0
   8:../src/tensorflow_lite/src/tensorflow/lite/micro/kernels/cmsis_nn/add.cpp **** 
   9:../src/tensorflow_lite/src/tensorflow/lite/micro/kernels/cmsis_nn/add.cpp **** Unless required by applicable law or agreed to in writing, software
  10:../src/tensorflow_lite/src/tensorflow/lite/micro/kernels/cmsis_nn/add.cpp **** distributed under the License is distributed on an "AS IS" BASIS,
  11:../src/tensorflow_lite/src/tensorflow/lite/micro/kernels/cmsis_nn/add.cpp **** WITHOUT WARRANTIES OR CONDITIONS OF ANY KIND, either express or implied.
  12:../src/tensorflow_lite/src/tensorflow/lite/micro/kernels/cmsis_nn/add.cpp **** See the License for the specific language governing permissions and
  13:../src/tensorflow_lite/src/tensorflow/lite/micro/kernels/cmsis_nn/add.cpp **** limitations under the License.
  14:../src/tensorflow_lite/src/tensorflow/lite/micro/kernels/cmsis_nn/add.cpp **** ==============================================================================*/
  15:../src/tensorflow_lite/src/tensorflow/lite/micro/kernels/cmsis_nn/add.cpp **** 
  16:../src/tensorflow_lite/src/tensorflow/lite/micro/kernels/cmsis_nn/add.cpp **** #include "tensorflow/lite/kernels/internal/reference/add.h"
  17:../src/tensorflow_lite/src/tensorflow/lite/micro/kernels/cmsis_nn/add.cpp **** 
  18:../src/tensorflow_lite/src/tensorflow/lite/micro/kernels/cmsis_nn/add.cpp **** #include "tensorflow/lite/micro/tools/make/downloads/cmsis/CMSIS/NN/Include/arm_nnfunctions.h"
  19:../src/tensorflow_lite/src/tensorflow/lite/micro/kernels/cmsis_nn/add.cpp **** #include "tensorflow/lite/c/builtin_op_data.h"
  20:../src/tensorflow_lite/src/tensorflow/lite/micro/kernels/cmsis_nn/add.cpp **** #include "tensorflow/lite/kernels/internal/quantization_util.h"
  21:../src/tensorflow_lite/src/tensorflow/lite/micro/kernels/cmsis_nn/add.cpp **** #include "tensorflow/lite/kernels/internal/reference/integer_ops/add.h"
  22:../src/tensorflow_lite/src/tensorflow/lite/micro/kernels/cmsis_nn/add.cpp **** #include "tensorflow/lite/kernels/internal/reference/process_broadcast_shapes.h"
  23:../src/tensorflow_lite/src/tensorflow/lite/micro/kernels/cmsis_nn/add.cpp **** #include "tensorflow/lite/kernels/internal/tensor_ctypes.h"
  24:../src/tensorflow_lite/src/tensorflow/lite/micro/kernels/cmsis_nn/add.cpp **** #include "tensorflow/lite/kernels/kernel_util.h"
  25:../src/tensorflow_lite/src/tensorflow/lite/micro/kernels/cmsis_nn/add.cpp **** #include "tensorflow/lite/kernels/op_macros.h"
  26:../src/tensorflow_lite/src/tensorflow/lite/micro/kernels/cmsis_nn/add.cpp **** #include "tensorflow/lite/micro/kernels/kernel_util.h"
  27:../src/tensorflow_lite/src/tensorflow/lite/micro/kernels/cmsis_nn/add.cpp **** #include "tensorflow/lite/micro/memory_helpers.h"
  28:../src/tensorflow_lite/src/tensorflow/lite/micro/kernels/cmsis_nn/add.cpp **** 
  29:../src/tensorflow_lite/src/tensorflow/lite/micro/kernels/cmsis_nn/add.cpp **** namespace tflite {
  30:../src/tensorflow_lite/src/tensorflow/lite/micro/kernels/cmsis_nn/add.cpp **** namespace ops {
  31:../src/tensorflow_lite/src/tensorflow/lite/micro/kernels/cmsis_nn/add.cpp **** namespace micro {
  32:../src/tensorflow_lite/src/tensorflow/lite/micro/kernels/cmsis_nn/add.cpp **** namespace add {
  33:../src/tensorflow_lite/src/tensorflow/lite/micro/kernels/cmsis_nn/add.cpp **** 
  34:../src/tensorflow_lite/src/tensorflow/lite/micro/kernels/cmsis_nn/add.cpp **** constexpr int kInputTensor1 = 0;
  35:../src/tensorflow_lite/src/tensorflow/lite/micro/kernels/cmsis_nn/add.cpp **** constexpr int kInputTensor2 = 1;
  36:../src/tensorflow_lite/src/tensorflow/lite/micro/kernels/cmsis_nn/add.cpp **** constexpr int kOutputTensor = 0;
  37:../src/tensorflow_lite/src/tensorflow/lite/micro/kernels/cmsis_nn/add.cpp **** 
  38:../src/tensorflow_lite/src/tensorflow/lite/micro/kernels/cmsis_nn/add.cpp **** struct OpData {
  39:../src/tensorflow_lite/src/tensorflow/lite/micro/kernels/cmsis_nn/add.cpp ****   bool requires_broadcast;
  40:../src/tensorflow_lite/src/tensorflow/lite/micro/kernels/cmsis_nn/add.cpp **** 
  41:../src/tensorflow_lite/src/tensorflow/lite/micro/kernels/cmsis_nn/add.cpp ****   // These fields are used in both the general 8-bit -> 8bit quantized path,
  42:../src/tensorflow_lite/src/tensorflow/lite/micro/kernels/cmsis_nn/add.cpp ****   // and the special 16-bit -> 16bit quantized path
  43:../src/tensorflow_lite/src/tensorflow/lite/micro/kernels/cmsis_nn/add.cpp ****   int input1_shift;
  44:../src/tensorflow_lite/src/tensorflow/lite/micro/kernels/cmsis_nn/add.cpp ****   int input2_shift;
  45:../src/tensorflow_lite/src/tensorflow/lite/micro/kernels/cmsis_nn/add.cpp ****   int32_t output_activation_min;
  46:../src/tensorflow_lite/src/tensorflow/lite/micro/kernels/cmsis_nn/add.cpp ****   int32_t output_activation_max;
  47:../src/tensorflow_lite/src/tensorflow/lite/micro/kernels/cmsis_nn/add.cpp **** 
  48:../src/tensorflow_lite/src/tensorflow/lite/micro/kernels/cmsis_nn/add.cpp ****   // These fields are used only in the general 8-bit -> 8bit quantized path
  49:../src/tensorflow_lite/src/tensorflow/lite/micro/kernels/cmsis_nn/add.cpp ****   int32_t input1_multiplier;
  50:../src/tensorflow_lite/src/tensorflow/lite/micro/kernels/cmsis_nn/add.cpp ****   int32_t input2_multiplier;
  51:../src/tensorflow_lite/src/tensorflow/lite/micro/kernels/cmsis_nn/add.cpp ****   int32_t output_multiplier;
  52:../src/tensorflow_lite/src/tensorflow/lite/micro/kernels/cmsis_nn/add.cpp ****   int output_shift;
  53:../src/tensorflow_lite/src/tensorflow/lite/micro/kernels/cmsis_nn/add.cpp ****   int left_shift;
  54:../src/tensorflow_lite/src/tensorflow/lite/micro/kernels/cmsis_nn/add.cpp ****   int32_t input1_offset;
  55:../src/tensorflow_lite/src/tensorflow/lite/micro/kernels/cmsis_nn/add.cpp ****   int32_t input2_offset;
  56:../src/tensorflow_lite/src/tensorflow/lite/micro/kernels/cmsis_nn/add.cpp ****   int32_t output_offset;
  57:../src/tensorflow_lite/src/tensorflow/lite/micro/kernels/cmsis_nn/add.cpp **** 
  58:../src/tensorflow_lite/src/tensorflow/lite/micro/kernels/cmsis_nn/add.cpp ****   // Used only for float evals:
  59:../src/tensorflow_lite/src/tensorflow/lite/micro/kernels/cmsis_nn/add.cpp ****   float output_activation_min_f32;
  60:../src/tensorflow_lite/src/tensorflow/lite/micro/kernels/cmsis_nn/add.cpp ****   float output_activation_max_f32;
  61:../src/tensorflow_lite/src/tensorflow/lite/micro/kernels/cmsis_nn/add.cpp **** };
  62:../src/tensorflow_lite/src/tensorflow/lite/micro/kernels/cmsis_nn/add.cpp **** 
  63:../src/tensorflow_lite/src/tensorflow/lite/micro/kernels/cmsis_nn/add.cpp **** TfLiteStatus CalculateOpData(TfLiteContext* context, TfLiteAddParams* params,
  64:../src/tensorflow_lite/src/tensorflow/lite/micro/kernels/cmsis_nn/add.cpp ****                              const TfLiteTensor* input1,
  65:../src/tensorflow_lite/src/tensorflow/lite/micro/kernels/cmsis_nn/add.cpp ****                              const TfLiteTensor* input2, TfLiteTensor* output,
  66:../src/tensorflow_lite/src/tensorflow/lite/micro/kernels/cmsis_nn/add.cpp ****                              OpData* data) {
  67:../src/tensorflow_lite/src/tensorflow/lite/micro/kernels/cmsis_nn/add.cpp ****   data->requires_broadcast = !HaveSameShapes(input1, input2);
  68:../src/tensorflow_lite/src/tensorflow/lite/micro/kernels/cmsis_nn/add.cpp **** 
  69:../src/tensorflow_lite/src/tensorflow/lite/micro/kernels/cmsis_nn/add.cpp ****   if (output->type == kTfLiteUInt8 || output->type == kTfLiteInt8) {
  70:../src/tensorflow_lite/src/tensorflow/lite/micro/kernels/cmsis_nn/add.cpp ****     // 8bit -> 8bit general quantized path, with general rescalings
  71:../src/tensorflow_lite/src/tensorflow/lite/micro/kernels/cmsis_nn/add.cpp ****     data->input1_offset = -input1->params.zero_point;
  72:../src/tensorflow_lite/src/tensorflow/lite/micro/kernels/cmsis_nn/add.cpp ****     data->input2_offset = -input2->params.zero_point;
  73:../src/tensorflow_lite/src/tensorflow/lite/micro/kernels/cmsis_nn/add.cpp ****     data->output_offset = output->params.zero_point;
  74:../src/tensorflow_lite/src/tensorflow/lite/micro/kernels/cmsis_nn/add.cpp ****     data->left_shift = 20;
  75:../src/tensorflow_lite/src/tensorflow/lite/micro/kernels/cmsis_nn/add.cpp ****     const double twice_max_input_scale =
  76:../src/tensorflow_lite/src/tensorflow/lite/micro/kernels/cmsis_nn/add.cpp ****         2 * static_cast<double>(
  77:../src/tensorflow_lite/src/tensorflow/lite/micro/kernels/cmsis_nn/add.cpp ****                 std::max(input1->params.scale, input2->params.scale));
  78:../src/tensorflow_lite/src/tensorflow/lite/micro/kernels/cmsis_nn/add.cpp ****     const double real_input1_multiplier =
  79:../src/tensorflow_lite/src/tensorflow/lite/micro/kernels/cmsis_nn/add.cpp ****         static_cast<double>(input1->params.scale) / twice_max_input_scale;
  80:../src/tensorflow_lite/src/tensorflow/lite/micro/kernels/cmsis_nn/add.cpp ****     const double real_input2_multiplier =
  81:../src/tensorflow_lite/src/tensorflow/lite/micro/kernels/cmsis_nn/add.cpp ****         static_cast<double>(input2->params.scale) / twice_max_input_scale;
  82:../src/tensorflow_lite/src/tensorflow/lite/micro/kernels/cmsis_nn/add.cpp ****     const double real_output_multiplier =
  83:../src/tensorflow_lite/src/tensorflow/lite/micro/kernels/cmsis_nn/add.cpp ****         twice_max_input_scale /
  84:../src/tensorflow_lite/src/tensorflow/lite/micro/kernels/cmsis_nn/add.cpp ****         ((1 << data->left_shift) * static_cast<double>(output->params.scale));
  85:../src/tensorflow_lite/src/tensorflow/lite/micro/kernels/cmsis_nn/add.cpp **** 
  86:../src/tensorflow_lite/src/tensorflow/lite/micro/kernels/cmsis_nn/add.cpp ****     QuantizeMultiplierSmallerThanOneExp(
  87:../src/tensorflow_lite/src/tensorflow/lite/micro/kernels/cmsis_nn/add.cpp ****         real_input1_multiplier, &data->input1_multiplier, &data->input1_shift);
  88:../src/tensorflow_lite/src/tensorflow/lite/micro/kernels/cmsis_nn/add.cpp **** 
  89:../src/tensorflow_lite/src/tensorflow/lite/micro/kernels/cmsis_nn/add.cpp ****     QuantizeMultiplierSmallerThanOneExp(
  90:../src/tensorflow_lite/src/tensorflow/lite/micro/kernels/cmsis_nn/add.cpp ****         real_input2_multiplier, &data->input2_multiplier, &data->input2_shift);
  91:../src/tensorflow_lite/src/tensorflow/lite/micro/kernels/cmsis_nn/add.cpp **** 
  92:../src/tensorflow_lite/src/tensorflow/lite/micro/kernels/cmsis_nn/add.cpp ****     QuantizeMultiplierSmallerThanOneExp(
  93:../src/tensorflow_lite/src/tensorflow/lite/micro/kernels/cmsis_nn/add.cpp ****         real_output_multiplier, &data->output_multiplier, &data->output_shift);
  94:../src/tensorflow_lite/src/tensorflow/lite/micro/kernels/cmsis_nn/add.cpp **** 
  95:../src/tensorflow_lite/src/tensorflow/lite/micro/kernels/cmsis_nn/add.cpp ****     TF_LITE_ENSURE_STATUS(CalculateActivationRangeQuantized(
  96:../src/tensorflow_lite/src/tensorflow/lite/micro/kernels/cmsis_nn/add.cpp ****         context, params->activation, output, &data->output_activation_min,
  97:../src/tensorflow_lite/src/tensorflow/lite/micro/kernels/cmsis_nn/add.cpp ****         &data->output_activation_max));
  98:../src/tensorflow_lite/src/tensorflow/lite/micro/kernels/cmsis_nn/add.cpp ****   } else if (output->type == kTfLiteFloat32) {
  99:../src/tensorflow_lite/src/tensorflow/lite/micro/kernels/cmsis_nn/add.cpp ****     CalculateActivationRange(params->activation,
 100:../src/tensorflow_lite/src/tensorflow/lite/micro/kernels/cmsis_nn/add.cpp ****                              &data->output_activation_min_f32,
 101:../src/tensorflow_lite/src/tensorflow/lite/micro/kernels/cmsis_nn/add.cpp ****                              &data->output_activation_max_f32);
 102:../src/tensorflow_lite/src/tensorflow/lite/micro/kernels/cmsis_nn/add.cpp ****   }
 103:../src/tensorflow_lite/src/tensorflow/lite/micro/kernels/cmsis_nn/add.cpp **** 
 104:../src/tensorflow_lite/src/tensorflow/lite/micro/kernels/cmsis_nn/add.cpp ****   return kTfLiteOk;
 105:../src/tensorflow_lite/src/tensorflow/lite/micro/kernels/cmsis_nn/add.cpp **** }
 106:../src/tensorflow_lite/src/tensorflow/lite/micro/kernels/cmsis_nn/add.cpp **** 
 107:../src/tensorflow_lite/src/tensorflow/lite/micro/kernels/cmsis_nn/add.cpp **** void EvalAdd(TfLiteContext* context, TfLiteNode* node, TfLiteAddParams* params,
 108:../src/tensorflow_lite/src/tensorflow/lite/micro/kernels/cmsis_nn/add.cpp ****              const OpData* data, const TfLiteEvalTensor* input1,
 109:../src/tensorflow_lite/src/tensorflow/lite/micro/kernels/cmsis_nn/add.cpp ****              const TfLiteEvalTensor* input2, TfLiteEvalTensor* output) {
 110:../src/tensorflow_lite/src/tensorflow/lite/micro/kernels/cmsis_nn/add.cpp ****   tflite::ArithmeticParams op_params;
 111:../src/tensorflow_lite/src/tensorflow/lite/micro/kernels/cmsis_nn/add.cpp ****   SetActivationParams(data->output_activation_min_f32,
 112:../src/tensorflow_lite/src/tensorflow/lite/micro/kernels/cmsis_nn/add.cpp ****                       data->output_activation_max_f32, &op_params);
 113:../src/tensorflow_lite/src/tensorflow/lite/micro/kernels/cmsis_nn/add.cpp **** #define TF_LITE_ADD(opname)                                               \
 114:../src/tensorflow_lite/src/tensorflow/lite/micro/kernels/cmsis_nn/add.cpp ****   reference_ops::opname(op_params, tflite::micro::GetTensorShape(input1), \
 115:../src/tensorflow_lite/src/tensorflow/lite/micro/kernels/cmsis_nn/add.cpp ****                         tflite::micro::GetTensorData<float>(input1),      \
 116:../src/tensorflow_lite/src/tensorflow/lite/micro/kernels/cmsis_nn/add.cpp ****                         tflite::micro::GetTensorShape(input2),            \
 117:../src/tensorflow_lite/src/tensorflow/lite/micro/kernels/cmsis_nn/add.cpp ****                         tflite::micro::GetTensorData<float>(input2),      \
 118:../src/tensorflow_lite/src/tensorflow/lite/micro/kernels/cmsis_nn/add.cpp ****                         tflite::micro::GetTensorShape(output),            \
 119:../src/tensorflow_lite/src/tensorflow/lite/micro/kernels/cmsis_nn/add.cpp ****                         tflite::micro::GetTensorData<float>(output))
 120:../src/tensorflow_lite/src/tensorflow/lite/micro/kernels/cmsis_nn/add.cpp ****   if (data->requires_broadcast) {
 121:../src/tensorflow_lite/src/tensorflow/lite/micro/kernels/cmsis_nn/add.cpp ****     TF_LITE_ADD(BroadcastAdd4DSlow);
 122:../src/tensorflow_lite/src/tensorflow/lite/micro/kernels/cmsis_nn/add.cpp ****   } else {
 123:../src/tensorflow_lite/src/tensorflow/lite/micro/kernels/cmsis_nn/add.cpp ****     TF_LITE_ADD(Add);
 124:../src/tensorflow_lite/src/tensorflow/lite/micro/kernels/cmsis_nn/add.cpp ****   }
 125:../src/tensorflow_lite/src/tensorflow/lite/micro/kernels/cmsis_nn/add.cpp **** #undef TF_LITE_ADD
 126:../src/tensorflow_lite/src/tensorflow/lite/micro/kernels/cmsis_nn/add.cpp **** }
 127:../src/tensorflow_lite/src/tensorflow/lite/micro/kernels/cmsis_nn/add.cpp **** 
 128:../src/tensorflow_lite/src/tensorflow/lite/micro/kernels/cmsis_nn/add.cpp **** TfLiteStatus EvalAddQuantized(TfLiteContext* context, TfLiteNode* node,
 129:../src/tensorflow_lite/src/tensorflow/lite/micro/kernels/cmsis_nn/add.cpp ****                               TfLiteAddParams* params, const OpData* data,
 130:../src/tensorflow_lite/src/tensorflow/lite/micro/kernels/cmsis_nn/add.cpp ****                               const TfLiteEvalTensor* input1,
 131:../src/tensorflow_lite/src/tensorflow/lite/micro/kernels/cmsis_nn/add.cpp ****                               const TfLiteEvalTensor* input2,
 132:../src/tensorflow_lite/src/tensorflow/lite/micro/kernels/cmsis_nn/add.cpp ****                               TfLiteEvalTensor* output) {
 133:../src/tensorflow_lite/src/tensorflow/lite/micro/kernels/cmsis_nn/add.cpp ****   if (output->type == kTfLiteUInt8 || output->type == kTfLiteInt8) {
 134:../src/tensorflow_lite/src/tensorflow/lite/micro/kernels/cmsis_nn/add.cpp ****     tflite::ArithmeticParams op_params;
 135:../src/tensorflow_lite/src/tensorflow/lite/micro/kernels/cmsis_nn/add.cpp ****     op_params.left_shift = data->left_shift;
 136:../src/tensorflow_lite/src/tensorflow/lite/micro/kernels/cmsis_nn/add.cpp ****     op_params.input1_offset = data->input1_offset;
 137:../src/tensorflow_lite/src/tensorflow/lite/micro/kernels/cmsis_nn/add.cpp ****     op_params.input1_multiplier = data->input1_multiplier;
 138:../src/tensorflow_lite/src/tensorflow/lite/micro/kernels/cmsis_nn/add.cpp ****     op_params.input1_shift = data->input1_shift;
 139:../src/tensorflow_lite/src/tensorflow/lite/micro/kernels/cmsis_nn/add.cpp ****     op_params.input2_offset = data->input2_offset;
 140:../src/tensorflow_lite/src/tensorflow/lite/micro/kernels/cmsis_nn/add.cpp ****     op_params.input2_multiplier = data->input2_multiplier;
 141:../src/tensorflow_lite/src/tensorflow/lite/micro/kernels/cmsis_nn/add.cpp ****     op_params.input2_shift = data->input2_shift;
 142:../src/tensorflow_lite/src/tensorflow/lite/micro/kernels/cmsis_nn/add.cpp ****     op_params.output_offset = data->output_offset;
 143:../src/tensorflow_lite/src/tensorflow/lite/micro/kernels/cmsis_nn/add.cpp ****     op_params.output_multiplier = data->output_multiplier;
 144:../src/tensorflow_lite/src/tensorflow/lite/micro/kernels/cmsis_nn/add.cpp ****     op_params.output_shift = data->output_shift;
 145:../src/tensorflow_lite/src/tensorflow/lite/micro/kernels/cmsis_nn/add.cpp ****     SetActivationParams(data->output_activation_min,
 146:../src/tensorflow_lite/src/tensorflow/lite/micro/kernels/cmsis_nn/add.cpp ****                         data->output_activation_max, &op_params);
 147:../src/tensorflow_lite/src/tensorflow/lite/micro/kernels/cmsis_nn/add.cpp ****     bool need_broadcast = reference_ops::ProcessBroadcastShapes(
 148:../src/tensorflow_lite/src/tensorflow/lite/micro/kernels/cmsis_nn/add.cpp ****         tflite::micro::GetTensorShape(input1),
 149:../src/tensorflow_lite/src/tensorflow/lite/micro/kernels/cmsis_nn/add.cpp ****         tflite::micro::GetTensorShape(input2), &op_params);
 150:../src/tensorflow_lite/src/tensorflow/lite/micro/kernels/cmsis_nn/add.cpp **** #define TF_LITE_ADD(type, opname, dtype)                         \
 151:../src/tensorflow_lite/src/tensorflow/lite/micro/kernels/cmsis_nn/add.cpp ****   type::opname(op_params, tflite::micro::GetTensorShape(input1), \
 152:../src/tensorflow_lite/src/tensorflow/lite/micro/kernels/cmsis_nn/add.cpp ****                tflite::micro::GetTensorData<dtype>(input1),      \
 153:../src/tensorflow_lite/src/tensorflow/lite/micro/kernels/cmsis_nn/add.cpp ****                tflite::micro::GetTensorShape(input2),            \
 154:../src/tensorflow_lite/src/tensorflow/lite/micro/kernels/cmsis_nn/add.cpp ****                tflite::micro::GetTensorData<dtype>(input2),      \
 155:../src/tensorflow_lite/src/tensorflow/lite/micro/kernels/cmsis_nn/add.cpp ****                tflite::micro::GetTensorShape(output),            \
 156:../src/tensorflow_lite/src/tensorflow/lite/micro/kernels/cmsis_nn/add.cpp ****                tflite::micro::GetTensorData<dtype>(output));
 157:../src/tensorflow_lite/src/tensorflow/lite/micro/kernels/cmsis_nn/add.cpp ****     if (output->type == kTfLiteInt8) {
 158:../src/tensorflow_lite/src/tensorflow/lite/micro/kernels/cmsis_nn/add.cpp ****       if (need_broadcast) {
 159:../src/tensorflow_lite/src/tensorflow/lite/micro/kernels/cmsis_nn/add.cpp ****         TF_LITE_ADD(reference_integer_ops, BroadcastAdd4DSlow, int8_t);
 160:../src/tensorflow_lite/src/tensorflow/lite/micro/kernels/cmsis_nn/add.cpp ****       } else {
 161:../src/tensorflow_lite/src/tensorflow/lite/micro/kernels/cmsis_nn/add.cpp ****         arm_elementwise_add_s8(
 162:../src/tensorflow_lite/src/tensorflow/lite/micro/kernels/cmsis_nn/add.cpp ****             tflite::micro::GetTensorData<int8_t>(input1),
 163:../src/tensorflow_lite/src/tensorflow/lite/micro/kernels/cmsis_nn/add.cpp ****             tflite::micro::GetTensorData<int8_t>(input2),
 164:../src/tensorflow_lite/src/tensorflow/lite/micro/kernels/cmsis_nn/add.cpp ****             op_params.input1_offset, op_params.input1_multiplier,
 165:../src/tensorflow_lite/src/tensorflow/lite/micro/kernels/cmsis_nn/add.cpp ****             op_params.input1_shift, op_params.input2_offset,
 166:../src/tensorflow_lite/src/tensorflow/lite/micro/kernels/cmsis_nn/add.cpp ****             op_params.input2_multiplier, op_params.input2_shift,
 167:../src/tensorflow_lite/src/tensorflow/lite/micro/kernels/cmsis_nn/add.cpp ****             op_params.left_shift, tflite::micro::GetTensorData<int8_t>(output),
 168:../src/tensorflow_lite/src/tensorflow/lite/micro/kernels/cmsis_nn/add.cpp ****             op_params.output_offset, op_params.output_multiplier,
 169:../src/tensorflow_lite/src/tensorflow/lite/micro/kernels/cmsis_nn/add.cpp ****             op_params.output_shift, op_params.quantized_activation_min,
 170:../src/tensorflow_lite/src/tensorflow/lite/micro/kernels/cmsis_nn/add.cpp ****             op_params.quantized_activation_max,
 171:../src/tensorflow_lite/src/tensorflow/lite/micro/kernels/cmsis_nn/add.cpp ****             MatchingElementsSize(tflite::micro::GetTensorShape(input1),
 172:../src/tensorflow_lite/src/tensorflow/lite/micro/kernels/cmsis_nn/add.cpp ****                                  tflite::micro::GetTensorShape(input2),
 173:../src/tensorflow_lite/src/tensorflow/lite/micro/kernels/cmsis_nn/add.cpp ****                                  tflite::micro::GetTensorShape(output)));
 174:../src/tensorflow_lite/src/tensorflow/lite/micro/kernels/cmsis_nn/add.cpp ****       }
 175:../src/tensorflow_lite/src/tensorflow/lite/micro/kernels/cmsis_nn/add.cpp ****     } else {
 176:../src/tensorflow_lite/src/tensorflow/lite/micro/kernels/cmsis_nn/add.cpp ****       if (need_broadcast) {
 177:../src/tensorflow_lite/src/tensorflow/lite/micro/kernels/cmsis_nn/add.cpp ****         TF_LITE_ADD(reference_ops, BroadcastAdd4DSlow, uint8_t);
 178:../src/tensorflow_lite/src/tensorflow/lite/micro/kernels/cmsis_nn/add.cpp ****       } else {
 179:../src/tensorflow_lite/src/tensorflow/lite/micro/kernels/cmsis_nn/add.cpp ****         TF_LITE_ADD(reference_ops, Add, uint8_t);
 180:../src/tensorflow_lite/src/tensorflow/lite/micro/kernels/cmsis_nn/add.cpp ****       }
 181:../src/tensorflow_lite/src/tensorflow/lite/micro/kernels/cmsis_nn/add.cpp ****     }
 182:../src/tensorflow_lite/src/tensorflow/lite/micro/kernels/cmsis_nn/add.cpp **** #undef TF_LITE_ADD
 183:../src/tensorflow_lite/src/tensorflow/lite/micro/kernels/cmsis_nn/add.cpp ****   }
 184:../src/tensorflow_lite/src/tensorflow/lite/micro/kernels/cmsis_nn/add.cpp **** 
 185:../src/tensorflow_lite/src/tensorflow/lite/micro/kernels/cmsis_nn/add.cpp ****   return kTfLiteOk;
 186:../src/tensorflow_lite/src/tensorflow/lite/micro/kernels/cmsis_nn/add.cpp **** }
 187:../src/tensorflow_lite/src/tensorflow/lite/micro/kernels/cmsis_nn/add.cpp **** 
 188:../src/tensorflow_lite/src/tensorflow/lite/micro/kernels/cmsis_nn/add.cpp **** void* Init(TfLiteContext* context, const char* buffer, size_t length) {
  27              		.loc 1 188 0
  28              		.cfi_startproc
  29              		@ args = 0, pretend = 0, frame = 0
  30              		@ frame_needed = 0, uses_anonymous_args = 0
  31              	.LVL0:
 189:../src/tensorflow_lite/src/tensorflow/lite/micro/kernels/cmsis_nn/add.cpp ****   TFLITE_DCHECK(context->AllocatePersistentBuffer != nullptr);
  32              		.loc 1 189 0
  33 0000 383090E5 		ldr	r3, [r0, #56]
  34 0004 000053E3 		cmp	r3, #0
  35 0008 0100000A 		beq	.L7
 190:../src/tensorflow_lite/src/tensorflow/lite/micro/kernels/cmsis_nn/add.cpp ****   return context->AllocatePersistentBuffer(context, sizeof(OpData));
  36              		.loc 1 190 0
  37 000c 3C10A0E3 		mov	r1, #60
  38              	.LVL1:
  39 0010 13FF2FE1 		bx	r3
  40              	.LVL2:
  41              	.L7:
 188:../src/tensorflow_lite/src/tensorflow/lite/micro/kernels/cmsis_nn/add.cpp ****   TFLITE_DCHECK(context->AllocatePersistentBuffer != nullptr);
  42              		.loc 1 188 0 discriminator 1
  43 0014 10402DE9 		push	{r4, lr}
  44              		.save {r4, lr}
  45              		.cfi_def_cfa_offset 8
  46              		.cfi_offset 4, -8
  47              		.cfi_offset 14, -4
 189:../src/tensorflow_lite/src/tensorflow/lite/micro/kernels/cmsis_nn/add.cpp ****   TFLITE_DCHECK(context->AllocatePersistentBuffer != nullptr);
  48              		.loc 1 189 0 discriminator 1
  49 0018 FEFFFFEB 		bl	abort
  50              	.LVL3:
  51              		.cfi_endproc
  52              	.LFE9120:
  53              		.fnend
  55              		.section	.text._ZN6tflite3ops5micro3add7PrepareEP13TfLiteContextP10TfLiteNode,"ax",%progbits
  56              		.align	2
  57              		.global	_ZN6tflite3ops5micro3add7PrepareEP13TfLiteContextP10TfLiteNode
  58              		.syntax unified
  59              		.arm
  60              		.fpu neon
  62              	_ZN6tflite3ops5micro3add7PrepareEP13TfLiteContextP10TfLiteNode:
  63              		.fnstart
  64              	.LFB9121:
 191:../src/tensorflow_lite/src/tensorflow/lite/micro/kernels/cmsis_nn/add.cpp **** }
 192:../src/tensorflow_lite/src/tensorflow/lite/micro/kernels/cmsis_nn/add.cpp **** 
 193:../src/tensorflow_lite/src/tensorflow/lite/micro/kernels/cmsis_nn/add.cpp **** TfLiteStatus Prepare(TfLiteContext* context, TfLiteNode* node) {
  65              		.loc 1 193 0
  66              		.cfi_startproc
  67              		@ args = 0, pretend = 0, frame = 0
  68              		@ frame_needed = 0, uses_anonymous_args = 0
  69              	.LVL4:
 194:../src/tensorflow_lite/src/tensorflow/lite/micro/kernels/cmsis_nn/add.cpp ****   TFLITE_DCHECK(node->user_data != nullptr);
  70              		.loc 1 194 0
  71 0000 103091E5 		ldr	r3, [r1, #16]
 193:../src/tensorflow_lite/src/tensorflow/lite/micro/kernels/cmsis_nn/add.cpp ****   TFLITE_DCHECK(node->user_data != nullptr);
  72              		.loc 1 193 0
  73 0004 F0432DE9 		push	{r4, r5, r6, r7, r8, r9, lr}
  74              		.save {r4, r5, r6, r7, r8, r9, lr}
  75              		.cfi_def_cfa_offset 28
  76              		.cfi_offset 4, -28
  77              		.cfi_offset 5, -24
  78              		.cfi_offset 6, -20
  79              		.cfi_offset 7, -16
  80              		.cfi_offset 8, -12
  81              		.cfi_offset 9, -8
  82              		.cfi_offset 14, -4
  83 0008 048B2DED 		vpush.64	{d8, d9}
  84              		.vsave {d8, d9}
  85              		.cfi_def_cfa_offset 44
  86              		.cfi_offset 80, -44
  87              		.cfi_offset 81, -40
  88              		.cfi_offset 82, -36
  89              		.cfi_offset 83, -32
  90              		.pad #12
  91 000c 0CD04DE2 		sub	sp, sp, #12
  92              		.cfi_def_cfa_offset 56
  93              		.loc 1 194 0
  94 0010 000053E3 		cmp	r3, #0
  95 0014 9B00000A 		beq	.L10
 195:../src/tensorflow_lite/src/tensorflow/lite/micro/kernels/cmsis_nn/add.cpp ****   TFLITE_DCHECK(node->builtin_data != nullptr);
  96              		.loc 1 195 0
  97 0018 143091E5 		ldr	r3, [r1, #20]
  98 001c 0140A0E1 		mov	r4, r1
  99 0020 000053E3 		cmp	r3, #0
 100 0024 9700000A 		beq	.L10
 196:../src/tensorflow_lite/src/tensorflow/lite/micro/kernels/cmsis_nn/add.cpp **** 
 197:../src/tensorflow_lite/src/tensorflow/lite/micro/kernels/cmsis_nn/add.cpp ****   const TfLiteTensor* input1 = GetInput(context, node, kInputTensor1);
 101              		.loc 1 197 0
 102 0028 0020A0E3 		mov	r2, #0
 103 002c 0060A0E1 		mov	r6, r0
 104 0030 FEFFFFEB 		bl	_ZN6tflite8GetInputEPK13TfLiteContextPK10TfLiteNodei
 105              	.LVL5:
 198:../src/tensorflow_lite/src/tensorflow/lite/micro/kernels/cmsis_nn/add.cpp ****   TF_LITE_ENSURE(context, input1 != nullptr);
 106              		.loc 1 198 0
 107 0034 008050E2 		subs	r8, r0, #0
 108 0038 5D00000A 		beq	.L28
 199:../src/tensorflow_lite/src/tensorflow/lite/micro/kernels/cmsis_nn/add.cpp ****   const TfLiteTensor* input2 = GetInput(context, node, kInputTensor2);
 109              		.loc 1 199 0
 110 003c 0120A0E3 		mov	r2, #1
 111 0040 0410A0E1 		mov	r1, r4
 112 0044 0600A0E1 		mov	r0, r6
 113              	.LVL6:
 114 0048 FEFFFFEB 		bl	_ZN6tflite8GetInputEPK13TfLiteContextPK10TfLiteNodei
 115              	.LVL7:
 200:../src/tensorflow_lite/src/tensorflow/lite/micro/kernels/cmsis_nn/add.cpp ****   TF_LITE_ENSURE(context, input2 != nullptr);
 116              		.loc 1 200 0
 117 004c 009050E2 		subs	r9, r0, #0
 118 0050 6600000A 		beq	.L29
 201:../src/tensorflow_lite/src/tensorflow/lite/micro/kernels/cmsis_nn/add.cpp ****   TfLiteTensor* output = GetOutput(context, node, kOutputTensor);
 119              		.loc 1 201 0
 120 0054 0020A0E3 		mov	r2, #0
 121 0058 0410A0E1 		mov	r1, r4
 122 005c 0600A0E1 		mov	r0, r6
 123              	.LVL8:
 124 0060 FEFFFFEB 		bl	_ZN6tflite9GetOutputEP13TfLiteContextPK10TfLiteNodei
 125              	.LVL9:
 202:../src/tensorflow_lite/src/tensorflow/lite/micro/kernels/cmsis_nn/add.cpp ****   TF_LITE_ENSURE(context, output != nullptr);
 126              		.loc 1 202 0
 127 0064 007050E2 		subs	r7, r0, #0
 128 0068 6D00000A 		beq	.L30
 129              	.LBB406:
 130              	.LBB407:
 131              	.LBB408:
  67:../src/tensorflow_lite/src/tensorflow/lite/micro/kernels/cmsis_nn/add.cpp **** 
 132              		.loc 1 67 0
 133 006c 0910A0E1 		mov	r1, r9
 134 0070 0800A0E1 		mov	r0, r8
 135              	.LVL10:
 136              	.LBE408:
 137              	.LBE407:
 138              	.LBE406:
 203:../src/tensorflow_lite/src/tensorflow/lite/micro/kernels/cmsis_nn/add.cpp **** 
 204:../src/tensorflow_lite/src/tensorflow/lite/micro/kernels/cmsis_nn/add.cpp ****   OpData* data = static_cast<OpData*>(node->user_data);
 139              		.loc 1 204 0
 140 0074 105094E5 		ldr	r5, [r4, #16]
 141              	.LVL11:
 205:../src/tensorflow_lite/src/tensorflow/lite/micro/kernels/cmsis_nn/add.cpp ****   auto* params = reinterpret_cast<TfLiteAddParams*>(node->builtin_data);
 142              		.loc 1 205 0
 143 0078 144094E5 		ldr	r4, [r4, #20]
 144              	.LVL12:
 145              	.LBB437:
 146              	.LBB432:
 147              	.LBB427:
  67:../src/tensorflow_lite/src/tensorflow/lite/micro/kernels/cmsis_nn/add.cpp **** 
 148              		.loc 1 67 0
 149 007c FEFFFFEB 		bl	_ZN6tflite14HaveSameShapesEPK12TfLiteTensorS2_
 150              	.LVL13:
 151              	.LBB409:
  69:../src/tensorflow_lite/src/tensorflow/lite/micro/kernels/cmsis_nn/add.cpp ****     // 8bit -> 8bit general quantized path, with general rescalings
 152              		.loc 1 69 0
 153 0080 0030D7E5 		ldrb	r3, [r7]	@ zero_extendqisi2
 154              	.LBE409:
  67:../src/tensorflow_lite/src/tensorflow/lite/micro/kernels/cmsis_nn/add.cpp **** 
 155              		.loc 1 67 0
 156 0084 010020E2 		eor	r0, r0, #1
 157 0088 0000C5E5 		strb	r0, [r5]
 158              	.LBB416:
  69:../src/tensorflow_lite/src/tensorflow/lite/micro/kernels/cmsis_nn/add.cpp ****     // 8bit -> 8bit general quantized path, with general rescalings
 159              		.loc 1 69 0
 160 008c 090053E3 		cmp	r3, #9
 161 0090 03005313 		cmpne	r3, #3
 162 0094 0100A003 		moveq	r0, #1
 163 0098 0000A013 		movne	r0, #0
 164 009c 0400000A 		beq	.L31
  98:../src/tensorflow_lite/src/tensorflow/lite/micro/kernels/cmsis_nn/add.cpp ****     CalculateActivationRange(params->activation,
 165              		.loc 1 98 0
 166 00a0 010053E3 		cmp	r3, #1
 167 00a4 3100000A 		beq	.L32
 168              	.LVL14:
 169              	.L12:
 170              	.LBE416:
 171              	.LBE427:
 172              	.LBE432:
 173              	.LBE437:
 206:../src/tensorflow_lite/src/tensorflow/lite/micro/kernels/cmsis_nn/add.cpp **** 
 207:../src/tensorflow_lite/src/tensorflow/lite/micro/kernels/cmsis_nn/add.cpp ****   TF_LITE_ENSURE_STATUS(
 208:../src/tensorflow_lite/src/tensorflow/lite/micro/kernels/cmsis_nn/add.cpp ****       CalculateOpData(context, params, input1, input2, output, data));
 209:../src/tensorflow_lite/src/tensorflow/lite/micro/kernels/cmsis_nn/add.cpp **** 
 210:../src/tensorflow_lite/src/tensorflow/lite/micro/kernels/cmsis_nn/add.cpp ****   return kTfLiteOk;
 211:../src/tensorflow_lite/src/tensorflow/lite/micro/kernels/cmsis_nn/add.cpp **** }
 174              		.loc 1 211 0
 175 00a8 0CD08DE2 		add	sp, sp, #12
 176              		.cfi_remember_state
 177              		.cfi_def_cfa_offset 44
 178              		@ sp needed
 179 00ac 048BBDEC 		vldm	sp!, {d8-d9}
 180              		.cfi_restore 82
 181              		.cfi_restore 83
 182              		.cfi_restore 80
 183              		.cfi_restore 81
 184              		.cfi_def_cfa_offset 28
 185 00b0 F083BDE8 		pop	{r4, r5, r6, r7, r8, r9, pc}
 186              	.LVL15:
 187              	.L31:
 188              		.cfi_restore_state
 189              	.LBB438:
 190              	.LBB433:
 191              	.LBB428:
 192              	.LBB417:
 193              	.LBB418:
 194              	.LBB419:
 195              	.LBB420:
 196              		.file 2 "c:\\program files (x86)\\gnu tools arm embedded\\6 2017-q2-update\\arm-none-eabi\\include
   1:c:\program files (x86)\gnu tools arm embedded\6 2017-q2-update\arm-none-eabi\include\c++\6.3.1\bits\stl_algobase.h **** // Core algorithmic facilities -*- C++ -*-
   2:c:\program files (x86)\gnu tools arm embedded\6 2017-q2-update\arm-none-eabi\include\c++\6.3.1\bits\stl_algobase.h **** 
   3:c:\program files (x86)\gnu tools arm embedded\6 2017-q2-update\arm-none-eabi\include\c++\6.3.1\bits\stl_algobase.h **** // Copyright (C) 2001-2016 Free Software Foundation, Inc.
   4:c:\program files (x86)\gnu tools arm embedded\6 2017-q2-update\arm-none-eabi\include\c++\6.3.1\bits\stl_algobase.h **** //
   5:c:\program files (x86)\gnu tools arm embedded\6 2017-q2-update\arm-none-eabi\include\c++\6.3.1\bits\stl_algobase.h **** // This file is part of the GNU ISO C++ Library.  This library is free
   6:c:\program files (x86)\gnu tools arm embedded\6 2017-q2-update\arm-none-eabi\include\c++\6.3.1\bits\stl_algobase.h **** // software; you can redistribute it and/or modify it under the
   7:c:\program files (x86)\gnu tools arm embedded\6 2017-q2-update\arm-none-eabi\include\c++\6.3.1\bits\stl_algobase.h **** // terms of the GNU General Public License as published by the
   8:c:\program files (x86)\gnu tools arm embedded\6 2017-q2-update\arm-none-eabi\include\c++\6.3.1\bits\stl_algobase.h **** // Free Software Foundation; either version 3, or (at your option)
   9:c:\program files (x86)\gnu tools arm embedded\6 2017-q2-update\arm-none-eabi\include\c++\6.3.1\bits\stl_algobase.h **** // any later version.
  10:c:\program files (x86)\gnu tools arm embedded\6 2017-q2-update\arm-none-eabi\include\c++\6.3.1\bits\stl_algobase.h **** 
  11:c:\program files (x86)\gnu tools arm embedded\6 2017-q2-update\arm-none-eabi\include\c++\6.3.1\bits\stl_algobase.h **** // This library is distributed in the hope that it will be useful,
  12:c:\program files (x86)\gnu tools arm embedded\6 2017-q2-update\arm-none-eabi\include\c++\6.3.1\bits\stl_algobase.h **** // but WITHOUT ANY WARRANTY; without even the implied warranty of
  13:c:\program files (x86)\gnu tools arm embedded\6 2017-q2-update\arm-none-eabi\include\c++\6.3.1\bits\stl_algobase.h **** // MERCHANTABILITY or FITNESS FOR A PARTICULAR PURPOSE.  See the
  14:c:\program files (x86)\gnu tools arm embedded\6 2017-q2-update\arm-none-eabi\include\c++\6.3.1\bits\stl_algobase.h **** // GNU General Public License for more details.
  15:c:\program files (x86)\gnu tools arm embedded\6 2017-q2-update\arm-none-eabi\include\c++\6.3.1\bits\stl_algobase.h **** 
  16:c:\program files (x86)\gnu tools arm embedded\6 2017-q2-update\arm-none-eabi\include\c++\6.3.1\bits\stl_algobase.h **** // Under Section 7 of GPL version 3, you are granted additional
  17:c:\program files (x86)\gnu tools arm embedded\6 2017-q2-update\arm-none-eabi\include\c++\6.3.1\bits\stl_algobase.h **** // permissions described in the GCC Runtime Library Exception, version
  18:c:\program files (x86)\gnu tools arm embedded\6 2017-q2-update\arm-none-eabi\include\c++\6.3.1\bits\stl_algobase.h **** // 3.1, as published by the Free Software Foundation.
  19:c:\program files (x86)\gnu tools arm embedded\6 2017-q2-update\arm-none-eabi\include\c++\6.3.1\bits\stl_algobase.h **** 
  20:c:\program files (x86)\gnu tools arm embedded\6 2017-q2-update\arm-none-eabi\include\c++\6.3.1\bits\stl_algobase.h **** // You should have received a copy of the GNU General Public License and
  21:c:\program files (x86)\gnu tools arm embedded\6 2017-q2-update\arm-none-eabi\include\c++\6.3.1\bits\stl_algobase.h **** // a copy of the GCC Runtime Library Exception along with this program;
  22:c:\program files (x86)\gnu tools arm embedded\6 2017-q2-update\arm-none-eabi\include\c++\6.3.1\bits\stl_algobase.h **** // see the files COPYING3 and COPYING.RUNTIME respectively.  If not, see
  23:c:\program files (x86)\gnu tools arm embedded\6 2017-q2-update\arm-none-eabi\include\c++\6.3.1\bits\stl_algobase.h **** // <http://www.gnu.org/licenses/>.
  24:c:\program files (x86)\gnu tools arm embedded\6 2017-q2-update\arm-none-eabi\include\c++\6.3.1\bits\stl_algobase.h **** 
  25:c:\program files (x86)\gnu tools arm embedded\6 2017-q2-update\arm-none-eabi\include\c++\6.3.1\bits\stl_algobase.h **** /*
  26:c:\program files (x86)\gnu tools arm embedded\6 2017-q2-update\arm-none-eabi\include\c++\6.3.1\bits\stl_algobase.h ****  *
  27:c:\program files (x86)\gnu tools arm embedded\6 2017-q2-update\arm-none-eabi\include\c++\6.3.1\bits\stl_algobase.h ****  * Copyright (c) 1994
  28:c:\program files (x86)\gnu tools arm embedded\6 2017-q2-update\arm-none-eabi\include\c++\6.3.1\bits\stl_algobase.h ****  * Hewlett-Packard Company
  29:c:\program files (x86)\gnu tools arm embedded\6 2017-q2-update\arm-none-eabi\include\c++\6.3.1\bits\stl_algobase.h ****  *
  30:c:\program files (x86)\gnu tools arm embedded\6 2017-q2-update\arm-none-eabi\include\c++\6.3.1\bits\stl_algobase.h ****  * Permission to use, copy, modify, distribute and sell this software
  31:c:\program files (x86)\gnu tools arm embedded\6 2017-q2-update\arm-none-eabi\include\c++\6.3.1\bits\stl_algobase.h ****  * and its documentation for any purpose is hereby granted without fee,
  32:c:\program files (x86)\gnu tools arm embedded\6 2017-q2-update\arm-none-eabi\include\c++\6.3.1\bits\stl_algobase.h ****  * provided that the above copyright notice appear in all copies and
  33:c:\program files (x86)\gnu tools arm embedded\6 2017-q2-update\arm-none-eabi\include\c++\6.3.1\bits\stl_algobase.h ****  * that both that copyright notice and this permission notice appear
  34:c:\program files (x86)\gnu tools arm embedded\6 2017-q2-update\arm-none-eabi\include\c++\6.3.1\bits\stl_algobase.h ****  * in supporting documentation.  Hewlett-Packard Company makes no
  35:c:\program files (x86)\gnu tools arm embedded\6 2017-q2-update\arm-none-eabi\include\c++\6.3.1\bits\stl_algobase.h ****  * representations about the suitability of this software for any
  36:c:\program files (x86)\gnu tools arm embedded\6 2017-q2-update\arm-none-eabi\include\c++\6.3.1\bits\stl_algobase.h ****  * purpose.  It is provided "as is" without express or implied warranty.
  37:c:\program files (x86)\gnu tools arm embedded\6 2017-q2-update\arm-none-eabi\include\c++\6.3.1\bits\stl_algobase.h ****  *
  38:c:\program files (x86)\gnu tools arm embedded\6 2017-q2-update\arm-none-eabi\include\c++\6.3.1\bits\stl_algobase.h ****  *
  39:c:\program files (x86)\gnu tools arm embedded\6 2017-q2-update\arm-none-eabi\include\c++\6.3.1\bits\stl_algobase.h ****  * Copyright (c) 1996-1998
  40:c:\program files (x86)\gnu tools arm embedded\6 2017-q2-update\arm-none-eabi\include\c++\6.3.1\bits\stl_algobase.h ****  * Silicon Graphics Computer Systems, Inc.
  41:c:\program files (x86)\gnu tools arm embedded\6 2017-q2-update\arm-none-eabi\include\c++\6.3.1\bits\stl_algobase.h ****  *
  42:c:\program files (x86)\gnu tools arm embedded\6 2017-q2-update\arm-none-eabi\include\c++\6.3.1\bits\stl_algobase.h ****  * Permission to use, copy, modify, distribute and sell this software
  43:c:\program files (x86)\gnu tools arm embedded\6 2017-q2-update\arm-none-eabi\include\c++\6.3.1\bits\stl_algobase.h ****  * and its documentation for any purpose is hereby granted without fee,
  44:c:\program files (x86)\gnu tools arm embedded\6 2017-q2-update\arm-none-eabi\include\c++\6.3.1\bits\stl_algobase.h ****  * provided that the above copyright notice appear in all copies and
  45:c:\program files (x86)\gnu tools arm embedded\6 2017-q2-update\arm-none-eabi\include\c++\6.3.1\bits\stl_algobase.h ****  * that both that copyright notice and this permission notice appear
  46:c:\program files (x86)\gnu tools arm embedded\6 2017-q2-update\arm-none-eabi\include\c++\6.3.1\bits\stl_algobase.h ****  * in supporting documentation.  Silicon Graphics makes no
  47:c:\program files (x86)\gnu tools arm embedded\6 2017-q2-update\arm-none-eabi\include\c++\6.3.1\bits\stl_algobase.h ****  * representations about the suitability of this software for any
  48:c:\program files (x86)\gnu tools arm embedded\6 2017-q2-update\arm-none-eabi\include\c++\6.3.1\bits\stl_algobase.h ****  * purpose.  It is provided "as is" without express or implied warranty.
  49:c:\program files (x86)\gnu tools arm embedded\6 2017-q2-update\arm-none-eabi\include\c++\6.3.1\bits\stl_algobase.h ****  */
  50:c:\program files (x86)\gnu tools arm embedded\6 2017-q2-update\arm-none-eabi\include\c++\6.3.1\bits\stl_algobase.h **** 
  51:c:\program files (x86)\gnu tools arm embedded\6 2017-q2-update\arm-none-eabi\include\c++\6.3.1\bits\stl_algobase.h **** /** @file bits/stl_algobase.h
  52:c:\program files (x86)\gnu tools arm embedded\6 2017-q2-update\arm-none-eabi\include\c++\6.3.1\bits\stl_algobase.h ****  *  This is an internal header file, included by other library headers.
  53:c:\program files (x86)\gnu tools arm embedded\6 2017-q2-update\arm-none-eabi\include\c++\6.3.1\bits\stl_algobase.h ****  *  Do not attempt to use it directly. @headername{algorithm}
  54:c:\program files (x86)\gnu tools arm embedded\6 2017-q2-update\arm-none-eabi\include\c++\6.3.1\bits\stl_algobase.h ****  */
  55:c:\program files (x86)\gnu tools arm embedded\6 2017-q2-update\arm-none-eabi\include\c++\6.3.1\bits\stl_algobase.h **** 
  56:c:\program files (x86)\gnu tools arm embedded\6 2017-q2-update\arm-none-eabi\include\c++\6.3.1\bits\stl_algobase.h **** #ifndef _STL_ALGOBASE_H
  57:c:\program files (x86)\gnu tools arm embedded\6 2017-q2-update\arm-none-eabi\include\c++\6.3.1\bits\stl_algobase.h **** #define _STL_ALGOBASE_H 1
  58:c:\program files (x86)\gnu tools arm embedded\6 2017-q2-update\arm-none-eabi\include\c++\6.3.1\bits\stl_algobase.h **** 
  59:c:\program files (x86)\gnu tools arm embedded\6 2017-q2-update\arm-none-eabi\include\c++\6.3.1\bits\stl_algobase.h **** #include <bits/c++config.h>
  60:c:\program files (x86)\gnu tools arm embedded\6 2017-q2-update\arm-none-eabi\include\c++\6.3.1\bits\stl_algobase.h **** #include <bits/functexcept.h>
  61:c:\program files (x86)\gnu tools arm embedded\6 2017-q2-update\arm-none-eabi\include\c++\6.3.1\bits\stl_algobase.h **** #include <bits/cpp_type_traits.h>
  62:c:\program files (x86)\gnu tools arm embedded\6 2017-q2-update\arm-none-eabi\include\c++\6.3.1\bits\stl_algobase.h **** #include <ext/type_traits.h>
  63:c:\program files (x86)\gnu tools arm embedded\6 2017-q2-update\arm-none-eabi\include\c++\6.3.1\bits\stl_algobase.h **** #include <ext/numeric_traits.h>
  64:c:\program files (x86)\gnu tools arm embedded\6 2017-q2-update\arm-none-eabi\include\c++\6.3.1\bits\stl_algobase.h **** #include <bits/stl_pair.h>
  65:c:\program files (x86)\gnu tools arm embedded\6 2017-q2-update\arm-none-eabi\include\c++\6.3.1\bits\stl_algobase.h **** #include <bits/stl_iterator_base_types.h>
  66:c:\program files (x86)\gnu tools arm embedded\6 2017-q2-update\arm-none-eabi\include\c++\6.3.1\bits\stl_algobase.h **** #include <bits/stl_iterator_base_funcs.h>
  67:c:\program files (x86)\gnu tools arm embedded\6 2017-q2-update\arm-none-eabi\include\c++\6.3.1\bits\stl_algobase.h **** #include <bits/stl_iterator.h>
  68:c:\program files (x86)\gnu tools arm embedded\6 2017-q2-update\arm-none-eabi\include\c++\6.3.1\bits\stl_algobase.h **** #include <bits/concept_check.h>
  69:c:\program files (x86)\gnu tools arm embedded\6 2017-q2-update\arm-none-eabi\include\c++\6.3.1\bits\stl_algobase.h **** #include <debug/debug.h>
  70:c:\program files (x86)\gnu tools arm embedded\6 2017-q2-update\arm-none-eabi\include\c++\6.3.1\bits\stl_algobase.h **** #include <bits/move.h> // For std::swap and _GLIBCXX_MOVE
  71:c:\program files (x86)\gnu tools arm embedded\6 2017-q2-update\arm-none-eabi\include\c++\6.3.1\bits\stl_algobase.h **** #include <bits/predefined_ops.h>
  72:c:\program files (x86)\gnu tools arm embedded\6 2017-q2-update\arm-none-eabi\include\c++\6.3.1\bits\stl_algobase.h **** 
  73:c:\program files (x86)\gnu tools arm embedded\6 2017-q2-update\arm-none-eabi\include\c++\6.3.1\bits\stl_algobase.h **** namespace std _GLIBCXX_VISIBILITY(default)
  74:c:\program files (x86)\gnu tools arm embedded\6 2017-q2-update\arm-none-eabi\include\c++\6.3.1\bits\stl_algobase.h **** {
  75:c:\program files (x86)\gnu tools arm embedded\6 2017-q2-update\arm-none-eabi\include\c++\6.3.1\bits\stl_algobase.h **** _GLIBCXX_BEGIN_NAMESPACE_VERSION
  76:c:\program files (x86)\gnu tools arm embedded\6 2017-q2-update\arm-none-eabi\include\c++\6.3.1\bits\stl_algobase.h **** 
  77:c:\program files (x86)\gnu tools arm embedded\6 2017-q2-update\arm-none-eabi\include\c++\6.3.1\bits\stl_algobase.h **** #if __cplusplus < 201103L
  78:c:\program files (x86)\gnu tools arm embedded\6 2017-q2-update\arm-none-eabi\include\c++\6.3.1\bits\stl_algobase.h ****   // See http://gcc.gnu.org/ml/libstdc++/2004-08/msg00167.html: in a
  79:c:\program files (x86)\gnu tools arm embedded\6 2017-q2-update\arm-none-eabi\include\c++\6.3.1\bits\stl_algobase.h ****   // nutshell, we are partially implementing the resolution of DR 187,
  80:c:\program files (x86)\gnu tools arm embedded\6 2017-q2-update\arm-none-eabi\include\c++\6.3.1\bits\stl_algobase.h ****   // when it's safe, i.e., the value_types are equal.
  81:c:\program files (x86)\gnu tools arm embedded\6 2017-q2-update\arm-none-eabi\include\c++\6.3.1\bits\stl_algobase.h ****   template<bool _BoolType>
  82:c:\program files (x86)\gnu tools arm embedded\6 2017-q2-update\arm-none-eabi\include\c++\6.3.1\bits\stl_algobase.h ****     struct __iter_swap
  83:c:\program files (x86)\gnu tools arm embedded\6 2017-q2-update\arm-none-eabi\include\c++\6.3.1\bits\stl_algobase.h ****     {
  84:c:\program files (x86)\gnu tools arm embedded\6 2017-q2-update\arm-none-eabi\include\c++\6.3.1\bits\stl_algobase.h ****       template<typename _ForwardIterator1, typename _ForwardIterator2>
  85:c:\program files (x86)\gnu tools arm embedded\6 2017-q2-update\arm-none-eabi\include\c++\6.3.1\bits\stl_algobase.h ****         static void
  86:c:\program files (x86)\gnu tools arm embedded\6 2017-q2-update\arm-none-eabi\include\c++\6.3.1\bits\stl_algobase.h ****         iter_swap(_ForwardIterator1 __a, _ForwardIterator2 __b)
  87:c:\program files (x86)\gnu tools arm embedded\6 2017-q2-update\arm-none-eabi\include\c++\6.3.1\bits\stl_algobase.h ****         {
  88:c:\program files (x86)\gnu tools arm embedded\6 2017-q2-update\arm-none-eabi\include\c++\6.3.1\bits\stl_algobase.h ****           typedef typename iterator_traits<_ForwardIterator1>::value_type
  89:c:\program files (x86)\gnu tools arm embedded\6 2017-q2-update\arm-none-eabi\include\c++\6.3.1\bits\stl_algobase.h ****             _ValueType1;
  90:c:\program files (x86)\gnu tools arm embedded\6 2017-q2-update\arm-none-eabi\include\c++\6.3.1\bits\stl_algobase.h ****           _ValueType1 __tmp = _GLIBCXX_MOVE(*__a);
  91:c:\program files (x86)\gnu tools arm embedded\6 2017-q2-update\arm-none-eabi\include\c++\6.3.1\bits\stl_algobase.h ****           *__a = _GLIBCXX_MOVE(*__b);
  92:c:\program files (x86)\gnu tools arm embedded\6 2017-q2-update\arm-none-eabi\include\c++\6.3.1\bits\stl_algobase.h ****           *__b = _GLIBCXX_MOVE(__tmp);
  93:c:\program files (x86)\gnu tools arm embedded\6 2017-q2-update\arm-none-eabi\include\c++\6.3.1\bits\stl_algobase.h **** 	}
  94:c:\program files (x86)\gnu tools arm embedded\6 2017-q2-update\arm-none-eabi\include\c++\6.3.1\bits\stl_algobase.h ****     };
  95:c:\program files (x86)\gnu tools arm embedded\6 2017-q2-update\arm-none-eabi\include\c++\6.3.1\bits\stl_algobase.h **** 
  96:c:\program files (x86)\gnu tools arm embedded\6 2017-q2-update\arm-none-eabi\include\c++\6.3.1\bits\stl_algobase.h ****   template<>
  97:c:\program files (x86)\gnu tools arm embedded\6 2017-q2-update\arm-none-eabi\include\c++\6.3.1\bits\stl_algobase.h ****     struct __iter_swap<true>
  98:c:\program files (x86)\gnu tools arm embedded\6 2017-q2-update\arm-none-eabi\include\c++\6.3.1\bits\stl_algobase.h ****     {
  99:c:\program files (x86)\gnu tools arm embedded\6 2017-q2-update\arm-none-eabi\include\c++\6.3.1\bits\stl_algobase.h ****       template<typename _ForwardIterator1, typename _ForwardIterator2>
 100:c:\program files (x86)\gnu tools arm embedded\6 2017-q2-update\arm-none-eabi\include\c++\6.3.1\bits\stl_algobase.h ****         static void 
 101:c:\program files (x86)\gnu tools arm embedded\6 2017-q2-update\arm-none-eabi\include\c++\6.3.1\bits\stl_algobase.h ****         iter_swap(_ForwardIterator1 __a, _ForwardIterator2 __b)
 102:c:\program files (x86)\gnu tools arm embedded\6 2017-q2-update\arm-none-eabi\include\c++\6.3.1\bits\stl_algobase.h ****         {
 103:c:\program files (x86)\gnu tools arm embedded\6 2017-q2-update\arm-none-eabi\include\c++\6.3.1\bits\stl_algobase.h ****           swap(*__a, *__b);
 104:c:\program files (x86)\gnu tools arm embedded\6 2017-q2-update\arm-none-eabi\include\c++\6.3.1\bits\stl_algobase.h ****         }
 105:c:\program files (x86)\gnu tools arm embedded\6 2017-q2-update\arm-none-eabi\include\c++\6.3.1\bits\stl_algobase.h ****     };
 106:c:\program files (x86)\gnu tools arm embedded\6 2017-q2-update\arm-none-eabi\include\c++\6.3.1\bits\stl_algobase.h **** #endif
 107:c:\program files (x86)\gnu tools arm embedded\6 2017-q2-update\arm-none-eabi\include\c++\6.3.1\bits\stl_algobase.h **** 
 108:c:\program files (x86)\gnu tools arm embedded\6 2017-q2-update\arm-none-eabi\include\c++\6.3.1\bits\stl_algobase.h ****   /**
 109:c:\program files (x86)\gnu tools arm embedded\6 2017-q2-update\arm-none-eabi\include\c++\6.3.1\bits\stl_algobase.h ****    *  @brief Swaps the contents of two iterators.
 110:c:\program files (x86)\gnu tools arm embedded\6 2017-q2-update\arm-none-eabi\include\c++\6.3.1\bits\stl_algobase.h ****    *  @ingroup mutating_algorithms
 111:c:\program files (x86)\gnu tools arm embedded\6 2017-q2-update\arm-none-eabi\include\c++\6.3.1\bits\stl_algobase.h ****    *  @param  __a  An iterator.
 112:c:\program files (x86)\gnu tools arm embedded\6 2017-q2-update\arm-none-eabi\include\c++\6.3.1\bits\stl_algobase.h ****    *  @param  __b  Another iterator.
 113:c:\program files (x86)\gnu tools arm embedded\6 2017-q2-update\arm-none-eabi\include\c++\6.3.1\bits\stl_algobase.h ****    *  @return   Nothing.
 114:c:\program files (x86)\gnu tools arm embedded\6 2017-q2-update\arm-none-eabi\include\c++\6.3.1\bits\stl_algobase.h ****    *
 115:c:\program files (x86)\gnu tools arm embedded\6 2017-q2-update\arm-none-eabi\include\c++\6.3.1\bits\stl_algobase.h ****    *  This function swaps the values pointed to by two iterators, not the
 116:c:\program files (x86)\gnu tools arm embedded\6 2017-q2-update\arm-none-eabi\include\c++\6.3.1\bits\stl_algobase.h ****    *  iterators themselves.
 117:c:\program files (x86)\gnu tools arm embedded\6 2017-q2-update\arm-none-eabi\include\c++\6.3.1\bits\stl_algobase.h ****   */
 118:c:\program files (x86)\gnu tools arm embedded\6 2017-q2-update\arm-none-eabi\include\c++\6.3.1\bits\stl_algobase.h ****   template<typename _ForwardIterator1, typename _ForwardIterator2>
 119:c:\program files (x86)\gnu tools arm embedded\6 2017-q2-update\arm-none-eabi\include\c++\6.3.1\bits\stl_algobase.h ****     inline void
 120:c:\program files (x86)\gnu tools arm embedded\6 2017-q2-update\arm-none-eabi\include\c++\6.3.1\bits\stl_algobase.h ****     iter_swap(_ForwardIterator1 __a, _ForwardIterator2 __b)
 121:c:\program files (x86)\gnu tools arm embedded\6 2017-q2-update\arm-none-eabi\include\c++\6.3.1\bits\stl_algobase.h ****     {
 122:c:\program files (x86)\gnu tools arm embedded\6 2017-q2-update\arm-none-eabi\include\c++\6.3.1\bits\stl_algobase.h ****       // concept requirements
 123:c:\program files (x86)\gnu tools arm embedded\6 2017-q2-update\arm-none-eabi\include\c++\6.3.1\bits\stl_algobase.h ****       __glibcxx_function_requires(_Mutable_ForwardIteratorConcept<
 124:c:\program files (x86)\gnu tools arm embedded\6 2017-q2-update\arm-none-eabi\include\c++\6.3.1\bits\stl_algobase.h **** 				  _ForwardIterator1>)
 125:c:\program files (x86)\gnu tools arm embedded\6 2017-q2-update\arm-none-eabi\include\c++\6.3.1\bits\stl_algobase.h ****       __glibcxx_function_requires(_Mutable_ForwardIteratorConcept<
 126:c:\program files (x86)\gnu tools arm embedded\6 2017-q2-update\arm-none-eabi\include\c++\6.3.1\bits\stl_algobase.h **** 				  _ForwardIterator2>)
 127:c:\program files (x86)\gnu tools arm embedded\6 2017-q2-update\arm-none-eabi\include\c++\6.3.1\bits\stl_algobase.h **** 
 128:c:\program files (x86)\gnu tools arm embedded\6 2017-q2-update\arm-none-eabi\include\c++\6.3.1\bits\stl_algobase.h **** #if __cplusplus < 201103L
 129:c:\program files (x86)\gnu tools arm embedded\6 2017-q2-update\arm-none-eabi\include\c++\6.3.1\bits\stl_algobase.h ****       typedef typename iterator_traits<_ForwardIterator1>::value_type
 130:c:\program files (x86)\gnu tools arm embedded\6 2017-q2-update\arm-none-eabi\include\c++\6.3.1\bits\stl_algobase.h **** 	_ValueType1;
 131:c:\program files (x86)\gnu tools arm embedded\6 2017-q2-update\arm-none-eabi\include\c++\6.3.1\bits\stl_algobase.h ****       typedef typename iterator_traits<_ForwardIterator2>::value_type
 132:c:\program files (x86)\gnu tools arm embedded\6 2017-q2-update\arm-none-eabi\include\c++\6.3.1\bits\stl_algobase.h **** 	_ValueType2;
 133:c:\program files (x86)\gnu tools arm embedded\6 2017-q2-update\arm-none-eabi\include\c++\6.3.1\bits\stl_algobase.h **** 
 134:c:\program files (x86)\gnu tools arm embedded\6 2017-q2-update\arm-none-eabi\include\c++\6.3.1\bits\stl_algobase.h ****       __glibcxx_function_requires(_ConvertibleConcept<_ValueType1,
 135:c:\program files (x86)\gnu tools arm embedded\6 2017-q2-update\arm-none-eabi\include\c++\6.3.1\bits\stl_algobase.h **** 				  _ValueType2>)
 136:c:\program files (x86)\gnu tools arm embedded\6 2017-q2-update\arm-none-eabi\include\c++\6.3.1\bits\stl_algobase.h ****       __glibcxx_function_requires(_ConvertibleConcept<_ValueType2,
 137:c:\program files (x86)\gnu tools arm embedded\6 2017-q2-update\arm-none-eabi\include\c++\6.3.1\bits\stl_algobase.h **** 				  _ValueType1>)
 138:c:\program files (x86)\gnu tools arm embedded\6 2017-q2-update\arm-none-eabi\include\c++\6.3.1\bits\stl_algobase.h **** 
 139:c:\program files (x86)\gnu tools arm embedded\6 2017-q2-update\arm-none-eabi\include\c++\6.3.1\bits\stl_algobase.h ****       typedef typename iterator_traits<_ForwardIterator1>::reference
 140:c:\program files (x86)\gnu tools arm embedded\6 2017-q2-update\arm-none-eabi\include\c++\6.3.1\bits\stl_algobase.h **** 	_ReferenceType1;
 141:c:\program files (x86)\gnu tools arm embedded\6 2017-q2-update\arm-none-eabi\include\c++\6.3.1\bits\stl_algobase.h ****       typedef typename iterator_traits<_ForwardIterator2>::reference
 142:c:\program files (x86)\gnu tools arm embedded\6 2017-q2-update\arm-none-eabi\include\c++\6.3.1\bits\stl_algobase.h **** 	_ReferenceType2;
 143:c:\program files (x86)\gnu tools arm embedded\6 2017-q2-update\arm-none-eabi\include\c++\6.3.1\bits\stl_algobase.h ****       std::__iter_swap<__are_same<_ValueType1, _ValueType2>::__value
 144:c:\program files (x86)\gnu tools arm embedded\6 2017-q2-update\arm-none-eabi\include\c++\6.3.1\bits\stl_algobase.h **** 	&& __are_same<_ValueType1&, _ReferenceType1>::__value
 145:c:\program files (x86)\gnu tools arm embedded\6 2017-q2-update\arm-none-eabi\include\c++\6.3.1\bits\stl_algobase.h **** 	&& __are_same<_ValueType2&, _ReferenceType2>::__value>::
 146:c:\program files (x86)\gnu tools arm embedded\6 2017-q2-update\arm-none-eabi\include\c++\6.3.1\bits\stl_algobase.h **** 	iter_swap(__a, __b);
 147:c:\program files (x86)\gnu tools arm embedded\6 2017-q2-update\arm-none-eabi\include\c++\6.3.1\bits\stl_algobase.h **** #else
 148:c:\program files (x86)\gnu tools arm embedded\6 2017-q2-update\arm-none-eabi\include\c++\6.3.1\bits\stl_algobase.h ****       swap(*__a, *__b);
 149:c:\program files (x86)\gnu tools arm embedded\6 2017-q2-update\arm-none-eabi\include\c++\6.3.1\bits\stl_algobase.h **** #endif
 150:c:\program files (x86)\gnu tools arm embedded\6 2017-q2-update\arm-none-eabi\include\c++\6.3.1\bits\stl_algobase.h ****     }
 151:c:\program files (x86)\gnu tools arm embedded\6 2017-q2-update\arm-none-eabi\include\c++\6.3.1\bits\stl_algobase.h **** 
 152:c:\program files (x86)\gnu tools arm embedded\6 2017-q2-update\arm-none-eabi\include\c++\6.3.1\bits\stl_algobase.h ****   /**
 153:c:\program files (x86)\gnu tools arm embedded\6 2017-q2-update\arm-none-eabi\include\c++\6.3.1\bits\stl_algobase.h ****    *  @brief Swap the elements of two sequences.
 154:c:\program files (x86)\gnu tools arm embedded\6 2017-q2-update\arm-none-eabi\include\c++\6.3.1\bits\stl_algobase.h ****    *  @ingroup mutating_algorithms
 155:c:\program files (x86)\gnu tools arm embedded\6 2017-q2-update\arm-none-eabi\include\c++\6.3.1\bits\stl_algobase.h ****    *  @param  __first1  A forward iterator.
 156:c:\program files (x86)\gnu tools arm embedded\6 2017-q2-update\arm-none-eabi\include\c++\6.3.1\bits\stl_algobase.h ****    *  @param  __last1   A forward iterator.
 157:c:\program files (x86)\gnu tools arm embedded\6 2017-q2-update\arm-none-eabi\include\c++\6.3.1\bits\stl_algobase.h ****    *  @param  __first2  A forward iterator.
 158:c:\program files (x86)\gnu tools arm embedded\6 2017-q2-update\arm-none-eabi\include\c++\6.3.1\bits\stl_algobase.h ****    *  @return   An iterator equal to @p first2+(last1-first1).
 159:c:\program files (x86)\gnu tools arm embedded\6 2017-q2-update\arm-none-eabi\include\c++\6.3.1\bits\stl_algobase.h ****    *
 160:c:\program files (x86)\gnu tools arm embedded\6 2017-q2-update\arm-none-eabi\include\c++\6.3.1\bits\stl_algobase.h ****    *  Swaps each element in the range @p [first1,last1) with the
 161:c:\program files (x86)\gnu tools arm embedded\6 2017-q2-update\arm-none-eabi\include\c++\6.3.1\bits\stl_algobase.h ****    *  corresponding element in the range @p [first2,(last1-first1)).
 162:c:\program files (x86)\gnu tools arm embedded\6 2017-q2-update\arm-none-eabi\include\c++\6.3.1\bits\stl_algobase.h ****    *  The ranges must not overlap.
 163:c:\program files (x86)\gnu tools arm embedded\6 2017-q2-update\arm-none-eabi\include\c++\6.3.1\bits\stl_algobase.h ****   */
 164:c:\program files (x86)\gnu tools arm embedded\6 2017-q2-update\arm-none-eabi\include\c++\6.3.1\bits\stl_algobase.h ****   template<typename _ForwardIterator1, typename _ForwardIterator2>
 165:c:\program files (x86)\gnu tools arm embedded\6 2017-q2-update\arm-none-eabi\include\c++\6.3.1\bits\stl_algobase.h ****     _ForwardIterator2
 166:c:\program files (x86)\gnu tools arm embedded\6 2017-q2-update\arm-none-eabi\include\c++\6.3.1\bits\stl_algobase.h ****     swap_ranges(_ForwardIterator1 __first1, _ForwardIterator1 __last1,
 167:c:\program files (x86)\gnu tools arm embedded\6 2017-q2-update\arm-none-eabi\include\c++\6.3.1\bits\stl_algobase.h **** 		_ForwardIterator2 __first2)
 168:c:\program files (x86)\gnu tools arm embedded\6 2017-q2-update\arm-none-eabi\include\c++\6.3.1\bits\stl_algobase.h ****     {
 169:c:\program files (x86)\gnu tools arm embedded\6 2017-q2-update\arm-none-eabi\include\c++\6.3.1\bits\stl_algobase.h ****       // concept requirements
 170:c:\program files (x86)\gnu tools arm embedded\6 2017-q2-update\arm-none-eabi\include\c++\6.3.1\bits\stl_algobase.h ****       __glibcxx_function_requires(_Mutable_ForwardIteratorConcept<
 171:c:\program files (x86)\gnu tools arm embedded\6 2017-q2-update\arm-none-eabi\include\c++\6.3.1\bits\stl_algobase.h **** 				  _ForwardIterator1>)
 172:c:\program files (x86)\gnu tools arm embedded\6 2017-q2-update\arm-none-eabi\include\c++\6.3.1\bits\stl_algobase.h ****       __glibcxx_function_requires(_Mutable_ForwardIteratorConcept<
 173:c:\program files (x86)\gnu tools arm embedded\6 2017-q2-update\arm-none-eabi\include\c++\6.3.1\bits\stl_algobase.h **** 				  _ForwardIterator2>)
 174:c:\program files (x86)\gnu tools arm embedded\6 2017-q2-update\arm-none-eabi\include\c++\6.3.1\bits\stl_algobase.h ****       __glibcxx_requires_valid_range(__first1, __last1);
 175:c:\program files (x86)\gnu tools arm embedded\6 2017-q2-update\arm-none-eabi\include\c++\6.3.1\bits\stl_algobase.h **** 
 176:c:\program files (x86)\gnu tools arm embedded\6 2017-q2-update\arm-none-eabi\include\c++\6.3.1\bits\stl_algobase.h ****       for (; __first1 != __last1; ++__first1, (void)++__first2)
 177:c:\program files (x86)\gnu tools arm embedded\6 2017-q2-update\arm-none-eabi\include\c++\6.3.1\bits\stl_algobase.h **** 	std::iter_swap(__first1, __first2);
 178:c:\program files (x86)\gnu tools arm embedded\6 2017-q2-update\arm-none-eabi\include\c++\6.3.1\bits\stl_algobase.h ****       return __first2;
 179:c:\program files (x86)\gnu tools arm embedded\6 2017-q2-update\arm-none-eabi\include\c++\6.3.1\bits\stl_algobase.h ****     }
 180:c:\program files (x86)\gnu tools arm embedded\6 2017-q2-update\arm-none-eabi\include\c++\6.3.1\bits\stl_algobase.h **** 
 181:c:\program files (x86)\gnu tools arm embedded\6 2017-q2-update\arm-none-eabi\include\c++\6.3.1\bits\stl_algobase.h ****   /**
 182:c:\program files (x86)\gnu tools arm embedded\6 2017-q2-update\arm-none-eabi\include\c++\6.3.1\bits\stl_algobase.h ****    *  @brief This does what you think it does.
 183:c:\program files (x86)\gnu tools arm embedded\6 2017-q2-update\arm-none-eabi\include\c++\6.3.1\bits\stl_algobase.h ****    *  @ingroup sorting_algorithms
 184:c:\program files (x86)\gnu tools arm embedded\6 2017-q2-update\arm-none-eabi\include\c++\6.3.1\bits\stl_algobase.h ****    *  @param  __a  A thing of arbitrary type.
 185:c:\program files (x86)\gnu tools arm embedded\6 2017-q2-update\arm-none-eabi\include\c++\6.3.1\bits\stl_algobase.h ****    *  @param  __b  Another thing of arbitrary type.
 186:c:\program files (x86)\gnu tools arm embedded\6 2017-q2-update\arm-none-eabi\include\c++\6.3.1\bits\stl_algobase.h ****    *  @return   The lesser of the parameters.
 187:c:\program files (x86)\gnu tools arm embedded\6 2017-q2-update\arm-none-eabi\include\c++\6.3.1\bits\stl_algobase.h ****    *
 188:c:\program files (x86)\gnu tools arm embedded\6 2017-q2-update\arm-none-eabi\include\c++\6.3.1\bits\stl_algobase.h ****    *  This is the simple classic generic implementation.  It will work on
 189:c:\program files (x86)\gnu tools arm embedded\6 2017-q2-update\arm-none-eabi\include\c++\6.3.1\bits\stl_algobase.h ****    *  temporary expressions, since they are only evaluated once, unlike a
 190:c:\program files (x86)\gnu tools arm embedded\6 2017-q2-update\arm-none-eabi\include\c++\6.3.1\bits\stl_algobase.h ****    *  preprocessor macro.
 191:c:\program files (x86)\gnu tools arm embedded\6 2017-q2-update\arm-none-eabi\include\c++\6.3.1\bits\stl_algobase.h ****   */
 192:c:\program files (x86)\gnu tools arm embedded\6 2017-q2-update\arm-none-eabi\include\c++\6.3.1\bits\stl_algobase.h ****   template<typename _Tp>
 193:c:\program files (x86)\gnu tools arm embedded\6 2017-q2-update\arm-none-eabi\include\c++\6.3.1\bits\stl_algobase.h ****     _GLIBCXX14_CONSTEXPR
 194:c:\program files (x86)\gnu tools arm embedded\6 2017-q2-update\arm-none-eabi\include\c++\6.3.1\bits\stl_algobase.h ****     inline const _Tp&
 195:c:\program files (x86)\gnu tools arm embedded\6 2017-q2-update\arm-none-eabi\include\c++\6.3.1\bits\stl_algobase.h ****     min(const _Tp& __a, const _Tp& __b)
 196:c:\program files (x86)\gnu tools arm embedded\6 2017-q2-update\arm-none-eabi\include\c++\6.3.1\bits\stl_algobase.h ****     {
 197:c:\program files (x86)\gnu tools arm embedded\6 2017-q2-update\arm-none-eabi\include\c++\6.3.1\bits\stl_algobase.h ****       // concept requirements
 198:c:\program files (x86)\gnu tools arm embedded\6 2017-q2-update\arm-none-eabi\include\c++\6.3.1\bits\stl_algobase.h ****       __glibcxx_function_requires(_LessThanComparableConcept<_Tp>)
 199:c:\program files (x86)\gnu tools arm embedded\6 2017-q2-update\arm-none-eabi\include\c++\6.3.1\bits\stl_algobase.h ****       //return __b < __a ? __b : __a;
 200:c:\program files (x86)\gnu tools arm embedded\6 2017-q2-update\arm-none-eabi\include\c++\6.3.1\bits\stl_algobase.h ****       if (__b < __a)
 201:c:\program files (x86)\gnu tools arm embedded\6 2017-q2-update\arm-none-eabi\include\c++\6.3.1\bits\stl_algobase.h **** 	return __b;
 202:c:\program files (x86)\gnu tools arm embedded\6 2017-q2-update\arm-none-eabi\include\c++\6.3.1\bits\stl_algobase.h ****       return __a;
 203:c:\program files (x86)\gnu tools arm embedded\6 2017-q2-update\arm-none-eabi\include\c++\6.3.1\bits\stl_algobase.h ****     }
 204:c:\program files (x86)\gnu tools arm embedded\6 2017-q2-update\arm-none-eabi\include\c++\6.3.1\bits\stl_algobase.h **** 
 205:c:\program files (x86)\gnu tools arm embedded\6 2017-q2-update\arm-none-eabi\include\c++\6.3.1\bits\stl_algobase.h ****   /**
 206:c:\program files (x86)\gnu tools arm embedded\6 2017-q2-update\arm-none-eabi\include\c++\6.3.1\bits\stl_algobase.h ****    *  @brief This does what you think it does.
 207:c:\program files (x86)\gnu tools arm embedded\6 2017-q2-update\arm-none-eabi\include\c++\6.3.1\bits\stl_algobase.h ****    *  @ingroup sorting_algorithms
 208:c:\program files (x86)\gnu tools arm embedded\6 2017-q2-update\arm-none-eabi\include\c++\6.3.1\bits\stl_algobase.h ****    *  @param  __a  A thing of arbitrary type.
 209:c:\program files (x86)\gnu tools arm embedded\6 2017-q2-update\arm-none-eabi\include\c++\6.3.1\bits\stl_algobase.h ****    *  @param  __b  Another thing of arbitrary type.
 210:c:\program files (x86)\gnu tools arm embedded\6 2017-q2-update\arm-none-eabi\include\c++\6.3.1\bits\stl_algobase.h ****    *  @return   The greater of the parameters.
 211:c:\program files (x86)\gnu tools arm embedded\6 2017-q2-update\arm-none-eabi\include\c++\6.3.1\bits\stl_algobase.h ****    *
 212:c:\program files (x86)\gnu tools arm embedded\6 2017-q2-update\arm-none-eabi\include\c++\6.3.1\bits\stl_algobase.h ****    *  This is the simple classic generic implementation.  It will work on
 213:c:\program files (x86)\gnu tools arm embedded\6 2017-q2-update\arm-none-eabi\include\c++\6.3.1\bits\stl_algobase.h ****    *  temporary expressions, since they are only evaluated once, unlike a
 214:c:\program files (x86)\gnu tools arm embedded\6 2017-q2-update\arm-none-eabi\include\c++\6.3.1\bits\stl_algobase.h ****    *  preprocessor macro.
 215:c:\program files (x86)\gnu tools arm embedded\6 2017-q2-update\arm-none-eabi\include\c++\6.3.1\bits\stl_algobase.h ****   */
 216:c:\program files (x86)\gnu tools arm embedded\6 2017-q2-update\arm-none-eabi\include\c++\6.3.1\bits\stl_algobase.h ****   template<typename _Tp>
 217:c:\program files (x86)\gnu tools arm embedded\6 2017-q2-update\arm-none-eabi\include\c++\6.3.1\bits\stl_algobase.h ****     _GLIBCXX14_CONSTEXPR
 218:c:\program files (x86)\gnu tools arm embedded\6 2017-q2-update\arm-none-eabi\include\c++\6.3.1\bits\stl_algobase.h ****     inline const _Tp&
 219:c:\program files (x86)\gnu tools arm embedded\6 2017-q2-update\arm-none-eabi\include\c++\6.3.1\bits\stl_algobase.h ****     max(const _Tp& __a, const _Tp& __b)
 220:c:\program files (x86)\gnu tools arm embedded\6 2017-q2-update\arm-none-eabi\include\c++\6.3.1\bits\stl_algobase.h ****     {
 221:c:\program files (x86)\gnu tools arm embedded\6 2017-q2-update\arm-none-eabi\include\c++\6.3.1\bits\stl_algobase.h ****       // concept requirements
 222:c:\program files (x86)\gnu tools arm embedded\6 2017-q2-update\arm-none-eabi\include\c++\6.3.1\bits\stl_algobase.h ****       __glibcxx_function_requires(_LessThanComparableConcept<_Tp>)
 223:c:\program files (x86)\gnu tools arm embedded\6 2017-q2-update\arm-none-eabi\include\c++\6.3.1\bits\stl_algobase.h ****       //return  __a < __b ? __b : __a;
 224:c:\program files (x86)\gnu tools arm embedded\6 2017-q2-update\arm-none-eabi\include\c++\6.3.1\bits\stl_algobase.h ****       if (__a < __b)
 197              		.loc 2 224 0
 198 00b4 036AD9ED 		vldr.32	s13, [r9, #12]
 199              	.LBE420:
 200              	.LBE419:
  74:../src/tensorflow_lite/src/tensorflow/lite/micro/kernels/cmsis_nn/add.cpp ****     const double twice_max_input_scale =
 201              		.loc 1 74 0
 202 00b8 14C0A0E3 		mov	ip, #20
 203              	.LBB422:
 204              	.LBB421:
 205              		.loc 2 224 0
 206 00bc 037AD8ED 		vldr.32	s15, [r8, #12]
 207              	.LBE421:
 208              	.LBE422:
  87:../src/tensorflow_lite/src/tensorflow/lite/micro/kernels/cmsis_nn/add.cpp **** 
 209              		.loc 1 87 0
 210 00c0 0C0085E0 		add	r0, r5, ip
  84:../src/tensorflow_lite/src/tensorflow/lite/micro/kernels/cmsis_nn/add.cpp **** 
 211              		.loc 1 84 0
 212 00c4 037A97ED 		vldr.32	s14, [r7, #12]
  87:../src/tensorflow_lite/src/tensorflow/lite/micro/kernels/cmsis_nn/add.cpp **** 
 213              		.loc 1 87 0
 214 00c8 041085E2 		add	r1, r5, #4
  84:../src/tensorflow_lite/src/tensorflow/lite/micro/kernels/cmsis_nn/add.cpp **** 
 215              		.loc 1 84 0
 216 00cc 6F3BDFED 		vldr.64	d19, .L35
  81:../src/tensorflow_lite/src/tensorflow/lite/micro/kernels/cmsis_nn/add.cpp ****     const double real_output_multiplier =
 217              		.loc 1 81 0
 218 00d0 E62AF7EE 		vcvt.f64.f32	d18, s13
  77:../src/tensorflow_lite/src/tensorflow/lite/micro/kernels/cmsis_nn/add.cpp ****     const double real_input1_multiplier =
 219              		.loc 1 77 0
 220 00d4 E67AF4EE 		vcmpe.f32	s15, s13
 221 00d8 10FAF1EE 		vmrs	APSR_nzcv, FPSCR
  79:../src/tensorflow_lite/src/tensorflow/lite/micro/kernels/cmsis_nn/add.cpp ****     const double real_input2_multiplier =
 222              		.loc 1 79 0
 223 00dc E70AB7EE 		vcvt.f64.f32	d0, s15
  77:../src/tensorflow_lite/src/tensorflow/lite/micro/kernels/cmsis_nn/add.cpp ****     const double real_input1_multiplier =
 224              		.loc 1 77 0
 225 00e0 667AF04E 		vmovmi.f32	s15, s13
  76:../src/tensorflow_lite/src/tensorflow/lite/micro/kernels/cmsis_nn/add.cpp ****                 std::max(input1->params.scale, input2->params.scale));
 226              		.loc 1 76 0
 227 00e4 E70AF7EE 		vcvt.f64.f32	d16, s15
  84:../src/tensorflow_lite/src/tensorflow/lite/micro/kernels/cmsis_nn/add.cpp **** 
 228              		.loc 1 84 0
 229 00e8 C71AF7EE 		vcvt.f64.f32	d17, s14
  71:../src/tensorflow_lite/src/tensorflow/lite/micro/kernels/cmsis_nn/add.cpp ****     data->input2_offset = -input2->params.zero_point;
 230              		.loc 1 71 0
 231 00ec 102098E5 		ldr	r2, [r8, #16]
  72:../src/tensorflow_lite/src/tensorflow/lite/micro/kernels/cmsis_nn/add.cpp ****     data->output_offset = output->params.zero_point;
 232              		.loc 1 72 0
 233 00f0 103099E5 		ldr	r3, [r9, #16]
  77:../src/tensorflow_lite/src/tensorflow/lite/micro/kernels/cmsis_nn/add.cpp ****     const double real_input1_multiplier =
 234              		.loc 1 77 0
 235 00f4 A00B70EE 		vadd.f64	d16, d16, d16
  84:../src/tensorflow_lite/src/tensorflow/lite/micro/kernels/cmsis_nn/add.cpp **** 
 236              		.loc 1 84 0
 237 00f8 A31B61EE 		vmul.f64	d17, d17, d19
  71:../src/tensorflow_lite/src/tensorflow/lite/micro/kernels/cmsis_nn/add.cpp ****     data->input2_offset = -input2->params.zero_point;
 238              		.loc 1 71 0
 239 00fc 002062E2 		rsb	r2, r2, #0
 240 0100 282085E5 		str	r2, [r5, #40]
  72:../src/tensorflow_lite/src/tensorflow/lite/micro/kernels/cmsis_nn/add.cpp ****     data->output_offset = output->params.zero_point;
 241              		.loc 1 72 0
 242 0104 003063E2 		rsb	r3, r3, #0
  73:../src/tensorflow_lite/src/tensorflow/lite/micro/kernels/cmsis_nn/add.cpp ****     data->left_shift = 20;
 243              		.loc 1 73 0
 244 0108 102097E5 		ldr	r2, [r7, #16]
  87:../src/tensorflow_lite/src/tensorflow/lite/micro/kernels/cmsis_nn/add.cpp **** 
 245              		.loc 1 87 0
 246 010c 200B80EE 		vdiv.f64	d0, d0, d16
  81:../src/tensorflow_lite/src/tensorflow/lite/micro/kernels/cmsis_nn/add.cpp ****     const double real_output_multiplier =
 247              		.loc 1 81 0
 248 0110 A09B82EE 		vdiv.f64	d9, d18, d16
  84:../src/tensorflow_lite/src/tensorflow/lite/micro/kernels/cmsis_nn/add.cpp **** 
 249              		.loc 1 84 0
 250 0114 A18B80EE 		vdiv.f64	d8, d16, d17
  72:../src/tensorflow_lite/src/tensorflow/lite/micro/kernels/cmsis_nn/add.cpp ****     data->output_offset = output->params.zero_point;
 251              		.loc 1 72 0
 252 0118 2C3085E5 		str	r3, [r5, #44]
  74:../src/tensorflow_lite/src/tensorflow/lite/micro/kernels/cmsis_nn/add.cpp ****     const double twice_max_input_scale =
 253              		.loc 1 74 0
 254 011c 24C085E5 		str	ip, [r5, #36]
 255              	.LVL16:
  73:../src/tensorflow_lite/src/tensorflow/lite/micro/kernels/cmsis_nn/add.cpp ****     data->left_shift = 20;
 256              		.loc 1 73 0
 257 0120 302085E5 		str	r2, [r5, #48]
  87:../src/tensorflow_lite/src/tensorflow/lite/micro/kernels/cmsis_nn/add.cpp **** 
 258              		.loc 1 87 0
 259 0124 FEFFFFEB 		bl	_ZN6tflite35QuantizeMultiplierSmallerThanOneExpEdPlPi
 260              	.LVL17:
  90:../src/tensorflow_lite/src/tensorflow/lite/micro/kernels/cmsis_nn/add.cpp **** 
 261              		.loc 1 90 0
 262 0128 081085E2 		add	r1, r5, #8
 263 012c 180085E2 		add	r0, r5, #24
 264 0130 490BB0EE 		vmov.f64	d0, d9
 265 0134 FEFFFFEB 		bl	_ZN6tflite35QuantizeMultiplierSmallerThanOneExpEdPlPi
 266              	.LVL18:
  93:../src/tensorflow_lite/src/tensorflow/lite/micro/kernels/cmsis_nn/add.cpp **** 
 267              		.loc 1 93 0
 268 0138 201085E2 		add	r1, r5, #32
 269 013c 1C0085E2 		add	r0, r5, #28
 270 0140 480BB0EE 		vmov.f64	d0, d8
 271 0144 FEFFFFEB 		bl	_ZN6tflite35QuantizeMultiplierSmallerThanOneExpEdPlPi
 272              	.LVL19:
 273              	.LBB423:
  95:../src/tensorflow_lite/src/tensorflow/lite/micro/kernels/cmsis_nn/add.cpp ****         context, params->activation, output, &data->output_activation_min,
 274              		.loc 1 95 0
 275 0148 103085E2 		add	r3, r5, #16
 276 014c 0010D4E5 		ldrb	r1, [r4]	@ zero_extendqisi2
 277 0150 0720A0E1 		mov	r2, r7
 278 0154 00308DE5 		str	r3, [sp]
 279 0158 0600A0E1 		mov	r0, r6
 280 015c 0C3085E2 		add	r3, r5, #12
 281 0160 FEFFFFEB 		bl	_ZN6tflite33CalculateActivationRangeQuantizedEP13TfLiteContext21TfLiteFusedActivationP12TfLiteT
 282              	.LVL20:
 283              	.LBE423:
 284              	.LBE418:
 285              	.LBE417:
 286              	.LBE428:
 287              	.LBE433:
 288              	.LBE438:
 289              		.loc 1 211 0
 290 0164 0CD08DE2 		add	sp, sp, #12
 291              		.cfi_remember_state
 292              		.cfi_def_cfa_offset 44
 293              		@ sp needed
 294 0168 048BBDEC 		vldm	sp!, {d8-d9}
 295              		.cfi_restore 80
 296              		.cfi_restore 81
 297              		.cfi_restore 82
 298              		.cfi_restore 83
 299              		.cfi_def_cfa_offset 28
 300              	.LVL21:
 301 016c F083BDE8 		pop	{r4, r5, r6, r7, r8, r9, pc}
 302              	.LVL22:
 303              	.L32:
 304              		.cfi_restore_state
 305              	.LBB439:
 306              	.LBB434:
 307              	.LBB429:
 308              	.LBB424:
  99:../src/tensorflow_lite/src/tensorflow/lite/micro/kernels/cmsis_nn/add.cpp ****                              &data->output_activation_min_f32,
 309              		.loc 1 99 0
 310 0170 0030D4E5 		ldrb	r3, [r4]	@ zero_extendqisi2
 311              	.LVL23:
 312              	.LBB410:
 313              	.LBB411:
 314              		.file 3 "C:/Renesas/e2studio_2021_01_workspace_RZA2M_ANPR/ANPR_RZA2M_RDK/src/tensorflow_lite/src/t
   1:C:/Renesas/e2studio_2021_01_workspace_RZA2M_ANPR/ANPR_RZA2M_RDK/src/tensorflow_lite/src/tensorflow/lite/kernels\kernel_util.h **** /* Copyright 2017 The TensorFlow Authors. All Rights Reserved.
   2:C:/Renesas/e2studio_2021_01_workspace_RZA2M_ANPR/ANPR_RZA2M_RDK/src/tensorflow_lite/src/tensorflow/lite/kernels\kernel_util.h **** 
   3:C:/Renesas/e2studio_2021_01_workspace_RZA2M_ANPR/ANPR_RZA2M_RDK/src/tensorflow_lite/src/tensorflow/lite/kernels\kernel_util.h **** Licensed under the Apache License, Version 2.0 (the "License");
   4:C:/Renesas/e2studio_2021_01_workspace_RZA2M_ANPR/ANPR_RZA2M_RDK/src/tensorflow_lite/src/tensorflow/lite/kernels\kernel_util.h **** you may not use this file except in compliance with the License.
   5:C:/Renesas/e2studio_2021_01_workspace_RZA2M_ANPR/ANPR_RZA2M_RDK/src/tensorflow_lite/src/tensorflow/lite/kernels\kernel_util.h **** You may obtain a copy of the License at
   6:C:/Renesas/e2studio_2021_01_workspace_RZA2M_ANPR/ANPR_RZA2M_RDK/src/tensorflow_lite/src/tensorflow/lite/kernels\kernel_util.h **** 
   7:C:/Renesas/e2studio_2021_01_workspace_RZA2M_ANPR/ANPR_RZA2M_RDK/src/tensorflow_lite/src/tensorflow/lite/kernels\kernel_util.h ****     http://www.apache.org/licenses/LICENSE-2.0
   8:C:/Renesas/e2studio_2021_01_workspace_RZA2M_ANPR/ANPR_RZA2M_RDK/src/tensorflow_lite/src/tensorflow/lite/kernels\kernel_util.h **** 
   9:C:/Renesas/e2studio_2021_01_workspace_RZA2M_ANPR/ANPR_RZA2M_RDK/src/tensorflow_lite/src/tensorflow/lite/kernels\kernel_util.h **** Unless required by applicable law or agreed to in writing, software
  10:C:/Renesas/e2studio_2021_01_workspace_RZA2M_ANPR/ANPR_RZA2M_RDK/src/tensorflow_lite/src/tensorflow/lite/kernels\kernel_util.h **** distributed under the License is distributed on an "AS IS" BASIS,
  11:C:/Renesas/e2studio_2021_01_workspace_RZA2M_ANPR/ANPR_RZA2M_RDK/src/tensorflow_lite/src/tensorflow/lite/kernels\kernel_util.h **** WITHOUT WARRANTIES OR CONDITIONS OF ANY KIND, either express or implied.
  12:C:/Renesas/e2studio_2021_01_workspace_RZA2M_ANPR/ANPR_RZA2M_RDK/src/tensorflow_lite/src/tensorflow/lite/kernels\kernel_util.h **** See the License for the specific language governing permissions and
  13:C:/Renesas/e2studio_2021_01_workspace_RZA2M_ANPR/ANPR_RZA2M_RDK/src/tensorflow_lite/src/tensorflow/lite/kernels\kernel_util.h **** limitations under the License.
  14:C:/Renesas/e2studio_2021_01_workspace_RZA2M_ANPR/ANPR_RZA2M_RDK/src/tensorflow_lite/src/tensorflow/lite/kernels\kernel_util.h **** ==============================================================================*/
  15:C:/Renesas/e2studio_2021_01_workspace_RZA2M_ANPR/ANPR_RZA2M_RDK/src/tensorflow_lite/src/tensorflow/lite/kernels\kernel_util.h **** #ifndef TENSORFLOW_LITE_KERNELS_KERNEL_UTIL_H_
  16:C:/Renesas/e2studio_2021_01_workspace_RZA2M_ANPR/ANPR_RZA2M_RDK/src/tensorflow_lite/src/tensorflow/lite/kernels\kernel_util.h **** #define TENSORFLOW_LITE_KERNELS_KERNEL_UTIL_H_
  17:C:/Renesas/e2studio_2021_01_workspace_RZA2M_ANPR/ANPR_RZA2M_RDK/src/tensorflow_lite/src/tensorflow/lite/kernels\kernel_util.h **** 
  18:C:/Renesas/e2studio_2021_01_workspace_RZA2M_ANPR/ANPR_RZA2M_RDK/src/tensorflow_lite/src/tensorflow/lite/kernels\kernel_util.h **** #include <stdint.h>
  19:C:/Renesas/e2studio_2021_01_workspace_RZA2M_ANPR/ANPR_RZA2M_RDK/src/tensorflow_lite/src/tensorflow/lite/kernels\kernel_util.h **** 
  20:C:/Renesas/e2studio_2021_01_workspace_RZA2M_ANPR/ANPR_RZA2M_RDK/src/tensorflow_lite/src/tensorflow/lite/kernels\kernel_util.h **** #include <limits>
  21:C:/Renesas/e2studio_2021_01_workspace_RZA2M_ANPR/ANPR_RZA2M_RDK/src/tensorflow_lite/src/tensorflow/lite/kernels\kernel_util.h **** 
  22:C:/Renesas/e2studio_2021_01_workspace_RZA2M_ANPR/ANPR_RZA2M_RDK/src/tensorflow_lite/src/tensorflow/lite/kernels\kernel_util.h **** #include "tensorflow/lite/c/builtin_op_data.h"
  23:C:/Renesas/e2studio_2021_01_workspace_RZA2M_ANPR/ANPR_RZA2M_RDK/src/tensorflow_lite/src/tensorflow/lite/kernels\kernel_util.h **** #include "tensorflow/lite/c/common.h"
  24:C:/Renesas/e2studio_2021_01_workspace_RZA2M_ANPR/ANPR_RZA2M_RDK/src/tensorflow_lite/src/tensorflow/lite/kernels\kernel_util.h **** 
  25:C:/Renesas/e2studio_2021_01_workspace_RZA2M_ANPR/ANPR_RZA2M_RDK/src/tensorflow_lite/src/tensorflow/lite/kernels\kernel_util.h **** namespace tflite {
  26:C:/Renesas/e2studio_2021_01_workspace_RZA2M_ANPR/ANPR_RZA2M_RDK/src/tensorflow_lite/src/tensorflow/lite/kernels\kernel_util.h **** 
  27:C:/Renesas/e2studio_2021_01_workspace_RZA2M_ANPR/ANPR_RZA2M_RDK/src/tensorflow_lite/src/tensorflow/lite/kernels\kernel_util.h **** // A fair number of functions in this header have historically been inline.
  28:C:/Renesas/e2studio_2021_01_workspace_RZA2M_ANPR/ANPR_RZA2M_RDK/src/tensorflow_lite/src/tensorflow/lite/kernels\kernel_util.h **** // It is ok to change functions to not be inline if the latency with
  29:C:/Renesas/e2studio_2021_01_workspace_RZA2M_ANPR/ANPR_RZA2M_RDK/src/tensorflow_lite/src/tensorflow/lite/kernels\kernel_util.h **** // benchmark_model for MobileNet + MobileBERT is unaffected. If such a change is
  30:C:/Renesas/e2studio_2021_01_workspace_RZA2M_ANPR/ANPR_RZA2M_RDK/src/tensorflow_lite/src/tensorflow/lite/kernels\kernel_util.h **** // made, move the newly non-inlined function declarations to the top of this
  31:C:/Renesas/e2studio_2021_01_workspace_RZA2M_ANPR/ANPR_RZA2M_RDK/src/tensorflow_lite/src/tensorflow/lite/kernels\kernel_util.h **** // header file.
  32:C:/Renesas/e2studio_2021_01_workspace_RZA2M_ANPR/ANPR_RZA2M_RDK/src/tensorflow_lite/src/tensorflow/lite/kernels\kernel_util.h **** 
  33:C:/Renesas/e2studio_2021_01_workspace_RZA2M_ANPR/ANPR_RZA2M_RDK/src/tensorflow_lite/src/tensorflow/lite/kernels\kernel_util.h **** // Note: You must check if result is not null:
  34:C:/Renesas/e2studio_2021_01_workspace_RZA2M_ANPR/ANPR_RZA2M_RDK/src/tensorflow_lite/src/tensorflow/lite/kernels\kernel_util.h **** //
  35:C:/Renesas/e2studio_2021_01_workspace_RZA2M_ANPR/ANPR_RZA2M_RDK/src/tensorflow_lite/src/tensorflow/lite/kernels\kernel_util.h **** //   TfLiteTensor* my_tensor = GetInput(context, node, kMyTensorIdx);
  36:C:/Renesas/e2studio_2021_01_workspace_RZA2M_ANPR/ANPR_RZA2M_RDK/src/tensorflow_lite/src/tensorflow/lite/kernels\kernel_util.h **** //   TF_LITE_ENSURE(context, my_tensor != nullptr);
  37:C:/Renesas/e2studio_2021_01_workspace_RZA2M_ANPR/ANPR_RZA2M_RDK/src/tensorflow_lite/src/tensorflow/lite/kernels\kernel_util.h **** //
  38:C:/Renesas/e2studio_2021_01_workspace_RZA2M_ANPR/ANPR_RZA2M_RDK/src/tensorflow_lite/src/tensorflow/lite/kernels\kernel_util.h **** // This is because the index might point to the optional tensor constant
  39:C:/Renesas/e2studio_2021_01_workspace_RZA2M_ANPR/ANPR_RZA2M_RDK/src/tensorflow_lite/src/tensorflow/lite/kernels\kernel_util.h **** // (kTfLiteOptionalTensor) in which case there is no tensor to return.
  40:C:/Renesas/e2studio_2021_01_workspace_RZA2M_ANPR/ANPR_RZA2M_RDK/src/tensorflow_lite/src/tensorflow/lite/kernels\kernel_util.h **** const TfLiteTensor* GetInput(const TfLiteContext* context,
  41:C:/Renesas/e2studio_2021_01_workspace_RZA2M_ANPR/ANPR_RZA2M_RDK/src/tensorflow_lite/src/tensorflow/lite/kernels\kernel_util.h ****                              const TfLiteNode* node, int index);
  42:C:/Renesas/e2studio_2021_01_workspace_RZA2M_ANPR/ANPR_RZA2M_RDK/src/tensorflow_lite/src/tensorflow/lite/kernels\kernel_util.h **** 
  43:C:/Renesas/e2studio_2021_01_workspace_RZA2M_ANPR/ANPR_RZA2M_RDK/src/tensorflow_lite/src/tensorflow/lite/kernels\kernel_util.h **** // Same as `GetInput` but returns boolean and uses output argument for tensor.
  44:C:/Renesas/e2studio_2021_01_workspace_RZA2M_ANPR/ANPR_RZA2M_RDK/src/tensorflow_lite/src/tensorflow/lite/kernels\kernel_util.h **** //
  45:C:/Renesas/e2studio_2021_01_workspace_RZA2M_ANPR/ANPR_RZA2M_RDK/src/tensorflow_lite/src/tensorflow/lite/kernels\kernel_util.h **** //   TfLiteTensor* my_tensor;
  46:C:/Renesas/e2studio_2021_01_workspace_RZA2M_ANPR/ANPR_RZA2M_RDK/src/tensorflow_lite/src/tensorflow/lite/kernels\kernel_util.h **** //   TF_LITE_ENSURE_OK(context,
  47:C:/Renesas/e2studio_2021_01_workspace_RZA2M_ANPR/ANPR_RZA2M_RDK/src/tensorflow_lite/src/tensorflow/lite/kernels\kernel_util.h **** //                     GetInputSafe(context, node, kMyTensorIdx, &my_tensor));
  48:C:/Renesas/e2studio_2021_01_workspace_RZA2M_ANPR/ANPR_RZA2M_RDK/src/tensorflow_lite/src/tensorflow/lite/kernels\kernel_util.h **** //   // can use my_tensor directly from here onwards, it is not nullptr
  49:C:/Renesas/e2studio_2021_01_workspace_RZA2M_ANPR/ANPR_RZA2M_RDK/src/tensorflow_lite/src/tensorflow/lite/kernels\kernel_util.h **** //
  50:C:/Renesas/e2studio_2021_01_workspace_RZA2M_ANPR/ANPR_RZA2M_RDK/src/tensorflow_lite/src/tensorflow/lite/kernels\kernel_util.h **** // Should be used in cases where the binary size is too large.
  51:C:/Renesas/e2studio_2021_01_workspace_RZA2M_ANPR/ANPR_RZA2M_RDK/src/tensorflow_lite/src/tensorflow/lite/kernels\kernel_util.h **** TfLiteStatus GetInputSafe(const TfLiteContext* context, const TfLiteNode* node,
  52:C:/Renesas/e2studio_2021_01_workspace_RZA2M_ANPR/ANPR_RZA2M_RDK/src/tensorflow_lite/src/tensorflow/lite/kernels\kernel_util.h ****                           int index, const TfLiteTensor** tensor);
  53:C:/Renesas/e2studio_2021_01_workspace_RZA2M_ANPR/ANPR_RZA2M_RDK/src/tensorflow_lite/src/tensorflow/lite/kernels\kernel_util.h **** 
  54:C:/Renesas/e2studio_2021_01_workspace_RZA2M_ANPR/ANPR_RZA2M_RDK/src/tensorflow_lite/src/tensorflow/lite/kernels\kernel_util.h **** // Note: You must check if result is not null:
  55:C:/Renesas/e2studio_2021_01_workspace_RZA2M_ANPR/ANPR_RZA2M_RDK/src/tensorflow_lite/src/tensorflow/lite/kernels\kernel_util.h **** //
  56:C:/Renesas/e2studio_2021_01_workspace_RZA2M_ANPR/ANPR_RZA2M_RDK/src/tensorflow_lite/src/tensorflow/lite/kernels\kernel_util.h **** //   TfLiteTensor* my_tensor = GetVariableInput(context, node, kMyTensorIdx);
  57:C:/Renesas/e2studio_2021_01_workspace_RZA2M_ANPR/ANPR_RZA2M_RDK/src/tensorflow_lite/src/tensorflow/lite/kernels\kernel_util.h **** //   TF_LITE_ENSURE(context, my_tensor != nullptr);
  58:C:/Renesas/e2studio_2021_01_workspace_RZA2M_ANPR/ANPR_RZA2M_RDK/src/tensorflow_lite/src/tensorflow/lite/kernels\kernel_util.h **** //
  59:C:/Renesas/e2studio_2021_01_workspace_RZA2M_ANPR/ANPR_RZA2M_RDK/src/tensorflow_lite/src/tensorflow/lite/kernels\kernel_util.h **** // This is because the index might point to the optional tensor constant
  60:C:/Renesas/e2studio_2021_01_workspace_RZA2M_ANPR/ANPR_RZA2M_RDK/src/tensorflow_lite/src/tensorflow/lite/kernels\kernel_util.h **** // (kTfLiteOptionalTensor) in which case there is no tensor to return.
  61:C:/Renesas/e2studio_2021_01_workspace_RZA2M_ANPR/ANPR_RZA2M_RDK/src/tensorflow_lite/src/tensorflow/lite/kernels\kernel_util.h **** TfLiteTensor* GetVariableInput(TfLiteContext* context, const TfLiteNode* node,
  62:C:/Renesas/e2studio_2021_01_workspace_RZA2M_ANPR/ANPR_RZA2M_RDK/src/tensorflow_lite/src/tensorflow/lite/kernels\kernel_util.h ****                                int index);
  63:C:/Renesas/e2studio_2021_01_workspace_RZA2M_ANPR/ANPR_RZA2M_RDK/src/tensorflow_lite/src/tensorflow/lite/kernels\kernel_util.h **** 
  64:C:/Renesas/e2studio_2021_01_workspace_RZA2M_ANPR/ANPR_RZA2M_RDK/src/tensorflow_lite/src/tensorflow/lite/kernels\kernel_util.h **** // Note: You must check if result is not null:
  65:C:/Renesas/e2studio_2021_01_workspace_RZA2M_ANPR/ANPR_RZA2M_RDK/src/tensorflow_lite/src/tensorflow/lite/kernels\kernel_util.h **** //
  66:C:/Renesas/e2studio_2021_01_workspace_RZA2M_ANPR/ANPR_RZA2M_RDK/src/tensorflow_lite/src/tensorflow/lite/kernels\kernel_util.h **** //   TfLiteTensor* my_tensor = GetOutput(context, node, kMyTensorIdx);
  67:C:/Renesas/e2studio_2021_01_workspace_RZA2M_ANPR/ANPR_RZA2M_RDK/src/tensorflow_lite/src/tensorflow/lite/kernels\kernel_util.h **** //   TF_LITE_ENSURE(context, my_tensor != nullptr);
  68:C:/Renesas/e2studio_2021_01_workspace_RZA2M_ANPR/ANPR_RZA2M_RDK/src/tensorflow_lite/src/tensorflow/lite/kernels\kernel_util.h **** //
  69:C:/Renesas/e2studio_2021_01_workspace_RZA2M_ANPR/ANPR_RZA2M_RDK/src/tensorflow_lite/src/tensorflow/lite/kernels\kernel_util.h **** // This is because the index might point to the optional tensor constant
  70:C:/Renesas/e2studio_2021_01_workspace_RZA2M_ANPR/ANPR_RZA2M_RDK/src/tensorflow_lite/src/tensorflow/lite/kernels\kernel_util.h **** // (kTfLiteOptionalTensor) in which case there is no tensor to return.
  71:C:/Renesas/e2studio_2021_01_workspace_RZA2M_ANPR/ANPR_RZA2M_RDK/src/tensorflow_lite/src/tensorflow/lite/kernels\kernel_util.h **** TfLiteTensor* GetOutput(TfLiteContext* context, const TfLiteNode* node,
  72:C:/Renesas/e2studio_2021_01_workspace_RZA2M_ANPR/ANPR_RZA2M_RDK/src/tensorflow_lite/src/tensorflow/lite/kernels\kernel_util.h ****                         int index);
  73:C:/Renesas/e2studio_2021_01_workspace_RZA2M_ANPR/ANPR_RZA2M_RDK/src/tensorflow_lite/src/tensorflow/lite/kernels\kernel_util.h **** 
  74:C:/Renesas/e2studio_2021_01_workspace_RZA2M_ANPR/ANPR_RZA2M_RDK/src/tensorflow_lite/src/tensorflow/lite/kernels\kernel_util.h **** // Same as `GetOutput` but returns boolean and uses output argument for tensor.
  75:C:/Renesas/e2studio_2021_01_workspace_RZA2M_ANPR/ANPR_RZA2M_RDK/src/tensorflow_lite/src/tensorflow/lite/kernels\kernel_util.h **** //
  76:C:/Renesas/e2studio_2021_01_workspace_RZA2M_ANPR/ANPR_RZA2M_RDK/src/tensorflow_lite/src/tensorflow/lite/kernels\kernel_util.h **** //   TfLiteTensor* my_tensor;
  77:C:/Renesas/e2studio_2021_01_workspace_RZA2M_ANPR/ANPR_RZA2M_RDK/src/tensorflow_lite/src/tensorflow/lite/kernels\kernel_util.h **** //   TF_LITE_ENSURE_OK(context,
  78:C:/Renesas/e2studio_2021_01_workspace_RZA2M_ANPR/ANPR_RZA2M_RDK/src/tensorflow_lite/src/tensorflow/lite/kernels\kernel_util.h **** //                     GetOutputSafe(context, node, kMyTensorIdx, &my_tensor));
  79:C:/Renesas/e2studio_2021_01_workspace_RZA2M_ANPR/ANPR_RZA2M_RDK/src/tensorflow_lite/src/tensorflow/lite/kernels\kernel_util.h **** //   // can use my_tensor directly from here onwards, it is not nullptr
  80:C:/Renesas/e2studio_2021_01_workspace_RZA2M_ANPR/ANPR_RZA2M_RDK/src/tensorflow_lite/src/tensorflow/lite/kernels\kernel_util.h **** //
  81:C:/Renesas/e2studio_2021_01_workspace_RZA2M_ANPR/ANPR_RZA2M_RDK/src/tensorflow_lite/src/tensorflow/lite/kernels\kernel_util.h **** // Should be used in cases where the binary size is too large.
  82:C:/Renesas/e2studio_2021_01_workspace_RZA2M_ANPR/ANPR_RZA2M_RDK/src/tensorflow_lite/src/tensorflow/lite/kernels\kernel_util.h **** TfLiteStatus GetOutputSafe(const TfLiteContext* context, const TfLiteNode* node,
  83:C:/Renesas/e2studio_2021_01_workspace_RZA2M_ANPR/ANPR_RZA2M_RDK/src/tensorflow_lite/src/tensorflow/lite/kernels\kernel_util.h ****                            int index, TfLiteTensor** tensor);
  84:C:/Renesas/e2studio_2021_01_workspace_RZA2M_ANPR/ANPR_RZA2M_RDK/src/tensorflow_lite/src/tensorflow/lite/kernels\kernel_util.h **** 
  85:C:/Renesas/e2studio_2021_01_workspace_RZA2M_ANPR/ANPR_RZA2M_RDK/src/tensorflow_lite/src/tensorflow/lite/kernels\kernel_util.h **** // Note: You must check if result is not null:
  86:C:/Renesas/e2studio_2021_01_workspace_RZA2M_ANPR/ANPR_RZA2M_RDK/src/tensorflow_lite/src/tensorflow/lite/kernels\kernel_util.h **** //
  87:C:/Renesas/e2studio_2021_01_workspace_RZA2M_ANPR/ANPR_RZA2M_RDK/src/tensorflow_lite/src/tensorflow/lite/kernels\kernel_util.h **** //   TfLiteTensor* my_tensor = GetOptionalInputTensor(context, node, kIdx);
  88:C:/Renesas/e2studio_2021_01_workspace_RZA2M_ANPR/ANPR_RZA2M_RDK/src/tensorflow_lite/src/tensorflow/lite/kernels\kernel_util.h **** //   TF_LITE_ENSURE(context, my_tensor != nullptr);
  89:C:/Renesas/e2studio_2021_01_workspace_RZA2M_ANPR/ANPR_RZA2M_RDK/src/tensorflow_lite/src/tensorflow/lite/kernels\kernel_util.h **** //
  90:C:/Renesas/e2studio_2021_01_workspace_RZA2M_ANPR/ANPR_RZA2M_RDK/src/tensorflow_lite/src/tensorflow/lite/kernels\kernel_util.h **** // This is because the index might point to the optional tensor constant
  91:C:/Renesas/e2studio_2021_01_workspace_RZA2M_ANPR/ANPR_RZA2M_RDK/src/tensorflow_lite/src/tensorflow/lite/kernels\kernel_util.h **** // (kTfLiteOptionalTensor) in which case there is no tensor to return.
  92:C:/Renesas/e2studio_2021_01_workspace_RZA2M_ANPR/ANPR_RZA2M_RDK/src/tensorflow_lite/src/tensorflow/lite/kernels\kernel_util.h **** //
  93:C:/Renesas/e2studio_2021_01_workspace_RZA2M_ANPR/ANPR_RZA2M_RDK/src/tensorflow_lite/src/tensorflow/lite/kernels\kernel_util.h **** // Deprecated. GetInput has the same functionality.
  94:C:/Renesas/e2studio_2021_01_workspace_RZA2M_ANPR/ANPR_RZA2M_RDK/src/tensorflow_lite/src/tensorflow/lite/kernels\kernel_util.h **** const TfLiteTensor* GetOptionalInputTensor(const TfLiteContext* context,
  95:C:/Renesas/e2studio_2021_01_workspace_RZA2M_ANPR/ANPR_RZA2M_RDK/src/tensorflow_lite/src/tensorflow/lite/kernels\kernel_util.h ****                                            const TfLiteNode* node, int index);
  96:C:/Renesas/e2studio_2021_01_workspace_RZA2M_ANPR/ANPR_RZA2M_RDK/src/tensorflow_lite/src/tensorflow/lite/kernels\kernel_util.h **** 
  97:C:/Renesas/e2studio_2021_01_workspace_RZA2M_ANPR/ANPR_RZA2M_RDK/src/tensorflow_lite/src/tensorflow/lite/kernels\kernel_util.h **** #ifndef TF_LITE_STATIC_MEMORY
  98:C:/Renesas/e2studio_2021_01_workspace_RZA2M_ANPR/ANPR_RZA2M_RDK/src/tensorflow_lite/src/tensorflow/lite/kernels\kernel_util.h **** // Note: You must check if result is not null:
  99:C:/Renesas/e2studio_2021_01_workspace_RZA2M_ANPR/ANPR_RZA2M_RDK/src/tensorflow_lite/src/tensorflow/lite/kernels\kernel_util.h **** //
 100:C:/Renesas/e2studio_2021_01_workspace_RZA2M_ANPR/ANPR_RZA2M_RDK/src/tensorflow_lite/src/tensorflow/lite/kernels\kernel_util.h **** //   TfLiteTensor* my_tensor = GetTemporary(context, node, kMyTensorIdx);
 101:C:/Renesas/e2studio_2021_01_workspace_RZA2M_ANPR/ANPR_RZA2M_RDK/src/tensorflow_lite/src/tensorflow/lite/kernels\kernel_util.h **** //   TF_LITE_ENSURE(context, my_tensor != nullptr);
 102:C:/Renesas/e2studio_2021_01_workspace_RZA2M_ANPR/ANPR_RZA2M_RDK/src/tensorflow_lite/src/tensorflow/lite/kernels\kernel_util.h **** //
 103:C:/Renesas/e2studio_2021_01_workspace_RZA2M_ANPR/ANPR_RZA2M_RDK/src/tensorflow_lite/src/tensorflow/lite/kernels\kernel_util.h **** // This is because the index might point to the optional tensor constant
 104:C:/Renesas/e2studio_2021_01_workspace_RZA2M_ANPR/ANPR_RZA2M_RDK/src/tensorflow_lite/src/tensorflow/lite/kernels\kernel_util.h **** // (kTfLiteOptionalTensor) in which case there is no tensor to return.
 105:C:/Renesas/e2studio_2021_01_workspace_RZA2M_ANPR/ANPR_RZA2M_RDK/src/tensorflow_lite/src/tensorflow/lite/kernels\kernel_util.h **** TfLiteTensor* GetTemporary(TfLiteContext* context, const TfLiteNode* node,
 106:C:/Renesas/e2studio_2021_01_workspace_RZA2M_ANPR/ANPR_RZA2M_RDK/src/tensorflow_lite/src/tensorflow/lite/kernels\kernel_util.h ****                            int index);
 107:C:/Renesas/e2studio_2021_01_workspace_RZA2M_ANPR/ANPR_RZA2M_RDK/src/tensorflow_lite/src/tensorflow/lite/kernels\kernel_util.h **** 
 108:C:/Renesas/e2studio_2021_01_workspace_RZA2M_ANPR/ANPR_RZA2M_RDK/src/tensorflow_lite/src/tensorflow/lite/kernels\kernel_util.h **** // Same as `GetTemporary` but returns boolean and uses output argument for
 109:C:/Renesas/e2studio_2021_01_workspace_RZA2M_ANPR/ANPR_RZA2M_RDK/src/tensorflow_lite/src/tensorflow/lite/kernels\kernel_util.h **** // tensor.
 110:C:/Renesas/e2studio_2021_01_workspace_RZA2M_ANPR/ANPR_RZA2M_RDK/src/tensorflow_lite/src/tensorflow/lite/kernels\kernel_util.h **** //
 111:C:/Renesas/e2studio_2021_01_workspace_RZA2M_ANPR/ANPR_RZA2M_RDK/src/tensorflow_lite/src/tensorflow/lite/kernels\kernel_util.h **** //   TfLiteTensor* my_tensor;
 112:C:/Renesas/e2studio_2021_01_workspace_RZA2M_ANPR/ANPR_RZA2M_RDK/src/tensorflow_lite/src/tensorflow/lite/kernels\kernel_util.h **** //   TF_LITE_ENSURE_OK(context,
 113:C:/Renesas/e2studio_2021_01_workspace_RZA2M_ANPR/ANPR_RZA2M_RDK/src/tensorflow_lite/src/tensorflow/lite/kernels\kernel_util.h **** //                     GetTemporarySafe(context, node, kMyTensorIdx,
 114:C:/Renesas/e2studio_2021_01_workspace_RZA2M_ANPR/ANPR_RZA2M_RDK/src/tensorflow_lite/src/tensorflow/lite/kernels\kernel_util.h **** //                     &my_tensor));
 115:C:/Renesas/e2studio_2021_01_workspace_RZA2M_ANPR/ANPR_RZA2M_RDK/src/tensorflow_lite/src/tensorflow/lite/kernels\kernel_util.h **** //   // can use my_tensor directly from here onwards, it is not nullptr
 116:C:/Renesas/e2studio_2021_01_workspace_RZA2M_ANPR/ANPR_RZA2M_RDK/src/tensorflow_lite/src/tensorflow/lite/kernels\kernel_util.h **** //
 117:C:/Renesas/e2studio_2021_01_workspace_RZA2M_ANPR/ANPR_RZA2M_RDK/src/tensorflow_lite/src/tensorflow/lite/kernels\kernel_util.h **** // Should be used in cases where the binary size is too large.
 118:C:/Renesas/e2studio_2021_01_workspace_RZA2M_ANPR/ANPR_RZA2M_RDK/src/tensorflow_lite/src/tensorflow/lite/kernels\kernel_util.h **** TfLiteStatus GetTemporarySafe(const TfLiteContext* context,
 119:C:/Renesas/e2studio_2021_01_workspace_RZA2M_ANPR/ANPR_RZA2M_RDK/src/tensorflow_lite/src/tensorflow/lite/kernels\kernel_util.h ****                               const TfLiteNode* node, int index,
 120:C:/Renesas/e2studio_2021_01_workspace_RZA2M_ANPR/ANPR_RZA2M_RDK/src/tensorflow_lite/src/tensorflow/lite/kernels\kernel_util.h ****                               TfLiteTensor** tensor);
 121:C:/Renesas/e2studio_2021_01_workspace_RZA2M_ANPR/ANPR_RZA2M_RDK/src/tensorflow_lite/src/tensorflow/lite/kernels\kernel_util.h **** 
 122:C:/Renesas/e2studio_2021_01_workspace_RZA2M_ANPR/ANPR_RZA2M_RDK/src/tensorflow_lite/src/tensorflow/lite/kernels\kernel_util.h **** // Note: You must check if result is not null:
 123:C:/Renesas/e2studio_2021_01_workspace_RZA2M_ANPR/ANPR_RZA2M_RDK/src/tensorflow_lite/src/tensorflow/lite/kernels\kernel_util.h **** //
 124:C:/Renesas/e2studio_2021_01_workspace_RZA2M_ANPR/ANPR_RZA2M_RDK/src/tensorflow_lite/src/tensorflow/lite/kernels\kernel_util.h **** //   TfLiteTensor* my_tensor = GetIntermediates(context, node, kMyTensorIdx);
 125:C:/Renesas/e2studio_2021_01_workspace_RZA2M_ANPR/ANPR_RZA2M_RDK/src/tensorflow_lite/src/tensorflow/lite/kernels\kernel_util.h **** //   TF_LITE_ENSURE(context, my_tensor != nullptr);
 126:C:/Renesas/e2studio_2021_01_workspace_RZA2M_ANPR/ANPR_RZA2M_RDK/src/tensorflow_lite/src/tensorflow/lite/kernels\kernel_util.h **** //
 127:C:/Renesas/e2studio_2021_01_workspace_RZA2M_ANPR/ANPR_RZA2M_RDK/src/tensorflow_lite/src/tensorflow/lite/kernels\kernel_util.h **** // This is because the index might point to the optional tensor constant
 128:C:/Renesas/e2studio_2021_01_workspace_RZA2M_ANPR/ANPR_RZA2M_RDK/src/tensorflow_lite/src/tensorflow/lite/kernels\kernel_util.h **** // (kTfLiteOptionalTensor) in which case there is no tensor to return.
 129:C:/Renesas/e2studio_2021_01_workspace_RZA2M_ANPR/ANPR_RZA2M_RDK/src/tensorflow_lite/src/tensorflow/lite/kernels\kernel_util.h **** const TfLiteTensor* GetIntermediates(TfLiteContext* context,
 130:C:/Renesas/e2studio_2021_01_workspace_RZA2M_ANPR/ANPR_RZA2M_RDK/src/tensorflow_lite/src/tensorflow/lite/kernels\kernel_util.h ****                                      const TfLiteNode* node, int index);
 131:C:/Renesas/e2studio_2021_01_workspace_RZA2M_ANPR/ANPR_RZA2M_RDK/src/tensorflow_lite/src/tensorflow/lite/kernels\kernel_util.h **** 
 132:C:/Renesas/e2studio_2021_01_workspace_RZA2M_ANPR/ANPR_RZA2M_RDK/src/tensorflow_lite/src/tensorflow/lite/kernels\kernel_util.h **** // Same as `GetIntermediates` but returns boolean and uses output argument for
 133:C:/Renesas/e2studio_2021_01_workspace_RZA2M_ANPR/ANPR_RZA2M_RDK/src/tensorflow_lite/src/tensorflow/lite/kernels\kernel_util.h **** // tensor.
 134:C:/Renesas/e2studio_2021_01_workspace_RZA2M_ANPR/ANPR_RZA2M_RDK/src/tensorflow_lite/src/tensorflow/lite/kernels\kernel_util.h **** //
 135:C:/Renesas/e2studio_2021_01_workspace_RZA2M_ANPR/ANPR_RZA2M_RDK/src/tensorflow_lite/src/tensorflow/lite/kernels\kernel_util.h **** //   TfLiteTensor* my_tensor;
 136:C:/Renesas/e2studio_2021_01_workspace_RZA2M_ANPR/ANPR_RZA2M_RDK/src/tensorflow_lite/src/tensorflow/lite/kernels\kernel_util.h **** //   TF_LITE_ENSURE_OK(context,
 137:C:/Renesas/e2studio_2021_01_workspace_RZA2M_ANPR/ANPR_RZA2M_RDK/src/tensorflow_lite/src/tensorflow/lite/kernels\kernel_util.h **** //                     GetIntermediatesSafe(context, node, kMyTensorIdx,
 138:C:/Renesas/e2studio_2021_01_workspace_RZA2M_ANPR/ANPR_RZA2M_RDK/src/tensorflow_lite/src/tensorflow/lite/kernels\kernel_util.h **** //                     &my_tensor));
 139:C:/Renesas/e2studio_2021_01_workspace_RZA2M_ANPR/ANPR_RZA2M_RDK/src/tensorflow_lite/src/tensorflow/lite/kernels\kernel_util.h **** //   // can use my_tensor directly from here onwards, it is not nullptr
 140:C:/Renesas/e2studio_2021_01_workspace_RZA2M_ANPR/ANPR_RZA2M_RDK/src/tensorflow_lite/src/tensorflow/lite/kernels\kernel_util.h **** //
 141:C:/Renesas/e2studio_2021_01_workspace_RZA2M_ANPR/ANPR_RZA2M_RDK/src/tensorflow_lite/src/tensorflow/lite/kernels\kernel_util.h **** // Should be used in cases where the binary size is too large.
 142:C:/Renesas/e2studio_2021_01_workspace_RZA2M_ANPR/ANPR_RZA2M_RDK/src/tensorflow_lite/src/tensorflow/lite/kernels\kernel_util.h **** TfLiteStatus GetIntermediatesSafe(const TfLiteContext* context,
 143:C:/Renesas/e2studio_2021_01_workspace_RZA2M_ANPR/ANPR_RZA2M_RDK/src/tensorflow_lite/src/tensorflow/lite/kernels\kernel_util.h ****                                   const TfLiteNode* node, int index,
 144:C:/Renesas/e2studio_2021_01_workspace_RZA2M_ANPR/ANPR_RZA2M_RDK/src/tensorflow_lite/src/tensorflow/lite/kernels\kernel_util.h ****                                   TfLiteTensor** tensor);
 145:C:/Renesas/e2studio_2021_01_workspace_RZA2M_ANPR/ANPR_RZA2M_RDK/src/tensorflow_lite/src/tensorflow/lite/kernels\kernel_util.h **** #endif  // TF_LITE_STATIC_MEMORY
 146:C:/Renesas/e2studio_2021_01_workspace_RZA2M_ANPR/ANPR_RZA2M_RDK/src/tensorflow_lite/src/tensorflow/lite/kernels\kernel_util.h **** 
 147:C:/Renesas/e2studio_2021_01_workspace_RZA2M_ANPR/ANPR_RZA2M_RDK/src/tensorflow_lite/src/tensorflow/lite/kernels\kernel_util.h **** inline int NumDimensions(const TfLiteTensor* t) { return t->dims->size; }
 148:C:/Renesas/e2studio_2021_01_workspace_RZA2M_ANPR/ANPR_RZA2M_RDK/src/tensorflow_lite/src/tensorflow/lite/kernels\kernel_util.h **** inline int SizeOfDimension(const TfLiteTensor* t, int dim) {
 149:C:/Renesas/e2studio_2021_01_workspace_RZA2M_ANPR/ANPR_RZA2M_RDK/src/tensorflow_lite/src/tensorflow/lite/kernels\kernel_util.h ****   return t->dims->data[dim];
 150:C:/Renesas/e2studio_2021_01_workspace_RZA2M_ANPR/ANPR_RZA2M_RDK/src/tensorflow_lite/src/tensorflow/lite/kernels\kernel_util.h **** }
 151:C:/Renesas/e2studio_2021_01_workspace_RZA2M_ANPR/ANPR_RZA2M_RDK/src/tensorflow_lite/src/tensorflow/lite/kernels\kernel_util.h **** 
 152:C:/Renesas/e2studio_2021_01_workspace_RZA2M_ANPR/ANPR_RZA2M_RDK/src/tensorflow_lite/src/tensorflow/lite/kernels\kernel_util.h **** inline int NumInputs(const TfLiteNode* node) { return node->inputs->size; }
 153:C:/Renesas/e2studio_2021_01_workspace_RZA2M_ANPR/ANPR_RZA2M_RDK/src/tensorflow_lite/src/tensorflow/lite/kernels\kernel_util.h **** inline int NumOutputs(const TfLiteNode* node) { return node->outputs->size; }
 154:C:/Renesas/e2studio_2021_01_workspace_RZA2M_ANPR/ANPR_RZA2M_RDK/src/tensorflow_lite/src/tensorflow/lite/kernels\kernel_util.h **** 
 155:C:/Renesas/e2studio_2021_01_workspace_RZA2M_ANPR/ANPR_RZA2M_RDK/src/tensorflow_lite/src/tensorflow/lite/kernels\kernel_util.h **** #ifndef TF_LITE_STATIC_MEMORY
 156:C:/Renesas/e2studio_2021_01_workspace_RZA2M_ANPR/ANPR_RZA2M_RDK/src/tensorflow_lite/src/tensorflow/lite/kernels\kernel_util.h **** inline int NumIntermediates(const TfLiteNode* node) {
 157:C:/Renesas/e2studio_2021_01_workspace_RZA2M_ANPR/ANPR_RZA2M_RDK/src/tensorflow_lite/src/tensorflow/lite/kernels\kernel_util.h ****   return node->intermediates->size;
 158:C:/Renesas/e2studio_2021_01_workspace_RZA2M_ANPR/ANPR_RZA2M_RDK/src/tensorflow_lite/src/tensorflow/lite/kernels\kernel_util.h **** }
 159:C:/Renesas/e2studio_2021_01_workspace_RZA2M_ANPR/ANPR_RZA2M_RDK/src/tensorflow_lite/src/tensorflow/lite/kernels\kernel_util.h **** #endif  // TF_LITE_STATIC_MEMORY
 160:C:/Renesas/e2studio_2021_01_workspace_RZA2M_ANPR/ANPR_RZA2M_RDK/src/tensorflow_lite/src/tensorflow/lite/kernels\kernel_util.h **** 
 161:C:/Renesas/e2studio_2021_01_workspace_RZA2M_ANPR/ANPR_RZA2M_RDK/src/tensorflow_lite/src/tensorflow/lite/kernels\kernel_util.h **** inline int64_t NumElements(const TfLiteIntArray* dims) {
 162:C:/Renesas/e2studio_2021_01_workspace_RZA2M_ANPR/ANPR_RZA2M_RDK/src/tensorflow_lite/src/tensorflow/lite/kernels\kernel_util.h ****   int64_t count = 1;
 163:C:/Renesas/e2studio_2021_01_workspace_RZA2M_ANPR/ANPR_RZA2M_RDK/src/tensorflow_lite/src/tensorflow/lite/kernels\kernel_util.h ****   for (int i = 0; i < dims->size; ++i) {
 164:C:/Renesas/e2studio_2021_01_workspace_RZA2M_ANPR/ANPR_RZA2M_RDK/src/tensorflow_lite/src/tensorflow/lite/kernels\kernel_util.h ****     count *= dims->data[i];
 165:C:/Renesas/e2studio_2021_01_workspace_RZA2M_ANPR/ANPR_RZA2M_RDK/src/tensorflow_lite/src/tensorflow/lite/kernels\kernel_util.h ****   }
 166:C:/Renesas/e2studio_2021_01_workspace_RZA2M_ANPR/ANPR_RZA2M_RDK/src/tensorflow_lite/src/tensorflow/lite/kernels\kernel_util.h ****   return count;
 167:C:/Renesas/e2studio_2021_01_workspace_RZA2M_ANPR/ANPR_RZA2M_RDK/src/tensorflow_lite/src/tensorflow/lite/kernels\kernel_util.h **** }
 168:C:/Renesas/e2studio_2021_01_workspace_RZA2M_ANPR/ANPR_RZA2M_RDK/src/tensorflow_lite/src/tensorflow/lite/kernels\kernel_util.h **** 
 169:C:/Renesas/e2studio_2021_01_workspace_RZA2M_ANPR/ANPR_RZA2M_RDK/src/tensorflow_lite/src/tensorflow/lite/kernels\kernel_util.h **** inline int64_t NumElements(const TfLiteTensor* t) {
 170:C:/Renesas/e2studio_2021_01_workspace_RZA2M_ANPR/ANPR_RZA2M_RDK/src/tensorflow_lite/src/tensorflow/lite/kernels\kernel_util.h ****   return NumElements(t->dims);
 171:C:/Renesas/e2studio_2021_01_workspace_RZA2M_ANPR/ANPR_RZA2M_RDK/src/tensorflow_lite/src/tensorflow/lite/kernels\kernel_util.h **** }
 172:C:/Renesas/e2studio_2021_01_workspace_RZA2M_ANPR/ANPR_RZA2M_RDK/src/tensorflow_lite/src/tensorflow/lite/kernels\kernel_util.h **** 
 173:C:/Renesas/e2studio_2021_01_workspace_RZA2M_ANPR/ANPR_RZA2M_RDK/src/tensorflow_lite/src/tensorflow/lite/kernels\kernel_util.h **** // Determines whether tensor is constant.
 174:C:/Renesas/e2studio_2021_01_workspace_RZA2M_ANPR/ANPR_RZA2M_RDK/src/tensorflow_lite/src/tensorflow/lite/kernels\kernel_util.h **** // TODO(b/138199592): Introduce new query which checks for constant OR
 175:C:/Renesas/e2studio_2021_01_workspace_RZA2M_ANPR/ANPR_RZA2M_RDK/src/tensorflow_lite/src/tensorflow/lite/kernels\kernel_util.h **** // persistent-read-only, which would be useful for most tensor kernels that
 176:C:/Renesas/e2studio_2021_01_workspace_RZA2M_ANPR/ANPR_RZA2M_RDK/src/tensorflow_lite/src/tensorflow/lite/kernels\kernel_util.h **** // are potentially dynamic based on the input tensor value availability at the
 177:C:/Renesas/e2studio_2021_01_workspace_RZA2M_ANPR/ANPR_RZA2M_RDK/src/tensorflow_lite/src/tensorflow/lite/kernels\kernel_util.h **** // time of prepare.
 178:C:/Renesas/e2studio_2021_01_workspace_RZA2M_ANPR/ANPR_RZA2M_RDK/src/tensorflow_lite/src/tensorflow/lite/kernels\kernel_util.h **** inline bool IsConstantTensor(const TfLiteTensor* tensor) {
 179:C:/Renesas/e2studio_2021_01_workspace_RZA2M_ANPR/ANPR_RZA2M_RDK/src/tensorflow_lite/src/tensorflow/lite/kernels\kernel_util.h ****   return tensor->allocation_type == kTfLiteMmapRo;
 180:C:/Renesas/e2studio_2021_01_workspace_RZA2M_ANPR/ANPR_RZA2M_RDK/src/tensorflow_lite/src/tensorflow/lite/kernels\kernel_util.h **** }
 181:C:/Renesas/e2studio_2021_01_workspace_RZA2M_ANPR/ANPR_RZA2M_RDK/src/tensorflow_lite/src/tensorflow/lite/kernels\kernel_util.h **** 
 182:C:/Renesas/e2studio_2021_01_workspace_RZA2M_ANPR/ANPR_RZA2M_RDK/src/tensorflow_lite/src/tensorflow/lite/kernels\kernel_util.h **** // Determines whether tensor is dynamic. Note that a tensor can be non-const and
 183:C:/Renesas/e2studio_2021_01_workspace_RZA2M_ANPR/ANPR_RZA2M_RDK/src/tensorflow_lite/src/tensorflow/lite/kernels\kernel_util.h **** // not dynamic. This function specifically checks for a dynamic tensor.
 184:C:/Renesas/e2studio_2021_01_workspace_RZA2M_ANPR/ANPR_RZA2M_RDK/src/tensorflow_lite/src/tensorflow/lite/kernels\kernel_util.h **** inline bool IsDynamicTensor(const TfLiteTensor* tensor) {
 185:C:/Renesas/e2studio_2021_01_workspace_RZA2M_ANPR/ANPR_RZA2M_RDK/src/tensorflow_lite/src/tensorflow/lite/kernels\kernel_util.h ****   return tensor->allocation_type == kTfLiteDynamic;
 186:C:/Renesas/e2studio_2021_01_workspace_RZA2M_ANPR/ANPR_RZA2M_RDK/src/tensorflow_lite/src/tensorflow/lite/kernels\kernel_util.h **** }
 187:C:/Renesas/e2studio_2021_01_workspace_RZA2M_ANPR/ANPR_RZA2M_RDK/src/tensorflow_lite/src/tensorflow/lite/kernels\kernel_util.h **** 
 188:C:/Renesas/e2studio_2021_01_workspace_RZA2M_ANPR/ANPR_RZA2M_RDK/src/tensorflow_lite/src/tensorflow/lite/kernels\kernel_util.h **** // Sets tensor to dynamic.
 189:C:/Renesas/e2studio_2021_01_workspace_RZA2M_ANPR/ANPR_RZA2M_RDK/src/tensorflow_lite/src/tensorflow/lite/kernels\kernel_util.h **** inline void SetTensorToDynamic(TfLiteTensor* tensor) {
 190:C:/Renesas/e2studio_2021_01_workspace_RZA2M_ANPR/ANPR_RZA2M_RDK/src/tensorflow_lite/src/tensorflow/lite/kernels\kernel_util.h ****   if (tensor->allocation_type != kTfLiteDynamic) {
 191:C:/Renesas/e2studio_2021_01_workspace_RZA2M_ANPR/ANPR_RZA2M_RDK/src/tensorflow_lite/src/tensorflow/lite/kernels\kernel_util.h ****     tensor->allocation_type = kTfLiteDynamic;
 192:C:/Renesas/e2studio_2021_01_workspace_RZA2M_ANPR/ANPR_RZA2M_RDK/src/tensorflow_lite/src/tensorflow/lite/kernels\kernel_util.h ****     tensor->data.raw = nullptr;
 193:C:/Renesas/e2studio_2021_01_workspace_RZA2M_ANPR/ANPR_RZA2M_RDK/src/tensorflow_lite/src/tensorflow/lite/kernels\kernel_util.h ****   }
 194:C:/Renesas/e2studio_2021_01_workspace_RZA2M_ANPR/ANPR_RZA2M_RDK/src/tensorflow_lite/src/tensorflow/lite/kernels\kernel_util.h **** }
 195:C:/Renesas/e2studio_2021_01_workspace_RZA2M_ANPR/ANPR_RZA2M_RDK/src/tensorflow_lite/src/tensorflow/lite/kernels\kernel_util.h **** 
 196:C:/Renesas/e2studio_2021_01_workspace_RZA2M_ANPR/ANPR_RZA2M_RDK/src/tensorflow_lite/src/tensorflow/lite/kernels\kernel_util.h **** // Sets tensor to persistent and read-only.
 197:C:/Renesas/e2studio_2021_01_workspace_RZA2M_ANPR/ANPR_RZA2M_RDK/src/tensorflow_lite/src/tensorflow/lite/kernels\kernel_util.h **** inline void SetTensorToPersistentRo(TfLiteTensor* tensor) {
 198:C:/Renesas/e2studio_2021_01_workspace_RZA2M_ANPR/ANPR_RZA2M_RDK/src/tensorflow_lite/src/tensorflow/lite/kernels\kernel_util.h ****   if (tensor->allocation_type != kTfLitePersistentRo) {
 199:C:/Renesas/e2studio_2021_01_workspace_RZA2M_ANPR/ANPR_RZA2M_RDK/src/tensorflow_lite/src/tensorflow/lite/kernels\kernel_util.h ****     tensor->allocation_type = kTfLitePersistentRo;
 200:C:/Renesas/e2studio_2021_01_workspace_RZA2M_ANPR/ANPR_RZA2M_RDK/src/tensorflow_lite/src/tensorflow/lite/kernels\kernel_util.h ****     tensor->data.raw = nullptr;
 201:C:/Renesas/e2studio_2021_01_workspace_RZA2M_ANPR/ANPR_RZA2M_RDK/src/tensorflow_lite/src/tensorflow/lite/kernels\kernel_util.h ****   }
 202:C:/Renesas/e2studio_2021_01_workspace_RZA2M_ANPR/ANPR_RZA2M_RDK/src/tensorflow_lite/src/tensorflow/lite/kernels\kernel_util.h **** }
 203:C:/Renesas/e2studio_2021_01_workspace_RZA2M_ANPR/ANPR_RZA2M_RDK/src/tensorflow_lite/src/tensorflow/lite/kernels\kernel_util.h **** 
 204:C:/Renesas/e2studio_2021_01_workspace_RZA2M_ANPR/ANPR_RZA2M_RDK/src/tensorflow_lite/src/tensorflow/lite/kernels\kernel_util.h **** // Determines whether it is a hybrid op - one that has float inputs and
 205:C:/Renesas/e2studio_2021_01_workspace_RZA2M_ANPR/ANPR_RZA2M_RDK/src/tensorflow_lite/src/tensorflow/lite/kernels\kernel_util.h **** // quantized weights.
 206:C:/Renesas/e2studio_2021_01_workspace_RZA2M_ANPR/ANPR_RZA2M_RDK/src/tensorflow_lite/src/tensorflow/lite/kernels\kernel_util.h **** inline bool IsHybridOp(const TfLiteTensor* input, const TfLiteTensor* weight) {
 207:C:/Renesas/e2studio_2021_01_workspace_RZA2M_ANPR/ANPR_RZA2M_RDK/src/tensorflow_lite/src/tensorflow/lite/kernels\kernel_util.h ****   return ((weight->type == kTfLiteUInt8 || weight->type == kTfLiteInt8) &&
 208:C:/Renesas/e2studio_2021_01_workspace_RZA2M_ANPR/ANPR_RZA2M_RDK/src/tensorflow_lite/src/tensorflow/lite/kernels\kernel_util.h ****           input->type == kTfLiteFloat32);
 209:C:/Renesas/e2studio_2021_01_workspace_RZA2M_ANPR/ANPR_RZA2M_RDK/src/tensorflow_lite/src/tensorflow/lite/kernels\kernel_util.h **** }
 210:C:/Renesas/e2studio_2021_01_workspace_RZA2M_ANPR/ANPR_RZA2M_RDK/src/tensorflow_lite/src/tensorflow/lite/kernels\kernel_util.h **** 
 211:C:/Renesas/e2studio_2021_01_workspace_RZA2M_ANPR/ANPR_RZA2M_RDK/src/tensorflow_lite/src/tensorflow/lite/kernels\kernel_util.h **** // Check dimensionality match and populate OpData for Conv and DepthwiseConv.
 212:C:/Renesas/e2studio_2021_01_workspace_RZA2M_ANPR/ANPR_RZA2M_RDK/src/tensorflow_lite/src/tensorflow/lite/kernels\kernel_util.h **** TfLiteStatus PopulateConvolutionQuantizationParams(
 213:C:/Renesas/e2studio_2021_01_workspace_RZA2M_ANPR/ANPR_RZA2M_RDK/src/tensorflow_lite/src/tensorflow/lite/kernels\kernel_util.h ****     TfLiteContext* context, const TfLiteTensor* input,
 214:C:/Renesas/e2studio_2021_01_workspace_RZA2M_ANPR/ANPR_RZA2M_RDK/src/tensorflow_lite/src/tensorflow/lite/kernels\kernel_util.h ****     const TfLiteTensor* filter, const TfLiteTensor* bias, TfLiteTensor* output,
 215:C:/Renesas/e2studio_2021_01_workspace_RZA2M_ANPR/ANPR_RZA2M_RDK/src/tensorflow_lite/src/tensorflow/lite/kernels\kernel_util.h ****     const TfLiteFusedActivation& activation, int32_t* multiplier, int* shift,
 216:C:/Renesas/e2studio_2021_01_workspace_RZA2M_ANPR/ANPR_RZA2M_RDK/src/tensorflow_lite/src/tensorflow/lite/kernels\kernel_util.h ****     int32_t* output_activation_min, int32_t* output_activation_max,
 217:C:/Renesas/e2studio_2021_01_workspace_RZA2M_ANPR/ANPR_RZA2M_RDK/src/tensorflow_lite/src/tensorflow/lite/kernels\kernel_util.h ****     int32_t* per_channel_multiplier, int32_t* per_channel_shift);
 218:C:/Renesas/e2studio_2021_01_workspace_RZA2M_ANPR/ANPR_RZA2M_RDK/src/tensorflow_lite/src/tensorflow/lite/kernels\kernel_util.h **** 
 219:C:/Renesas/e2studio_2021_01_workspace_RZA2M_ANPR/ANPR_RZA2M_RDK/src/tensorflow_lite/src/tensorflow/lite/kernels\kernel_util.h **** TfLiteStatus PopulateConvolutionQuantizationParams(
 220:C:/Renesas/e2studio_2021_01_workspace_RZA2M_ANPR/ANPR_RZA2M_RDK/src/tensorflow_lite/src/tensorflow/lite/kernels\kernel_util.h ****     TfLiteContext* context, const TfLiteTensor* input,
 221:C:/Renesas/e2studio_2021_01_workspace_RZA2M_ANPR/ANPR_RZA2M_RDK/src/tensorflow_lite/src/tensorflow/lite/kernels\kernel_util.h ****     const TfLiteTensor* filter, const TfLiteTensor* bias, TfLiteTensor* output,
 222:C:/Renesas/e2studio_2021_01_workspace_RZA2M_ANPR/ANPR_RZA2M_RDK/src/tensorflow_lite/src/tensorflow/lite/kernels\kernel_util.h ****     const TfLiteFusedActivation& activation, int32_t* multiplier, int* shift,
 223:C:/Renesas/e2studio_2021_01_workspace_RZA2M_ANPR/ANPR_RZA2M_RDK/src/tensorflow_lite/src/tensorflow/lite/kernels\kernel_util.h ****     int32_t* output_activation_min, int32_t* output_activation_max,
 224:C:/Renesas/e2studio_2021_01_workspace_RZA2M_ANPR/ANPR_RZA2M_RDK/src/tensorflow_lite/src/tensorflow/lite/kernels\kernel_util.h ****     int32_t* per_channel_multiplier, int32_t* per_channel_shift,
 225:C:/Renesas/e2studio_2021_01_workspace_RZA2M_ANPR/ANPR_RZA2M_RDK/src/tensorflow_lite/src/tensorflow/lite/kernels\kernel_util.h ****     int num_channels);
 226:C:/Renesas/e2studio_2021_01_workspace_RZA2M_ANPR/ANPR_RZA2M_RDK/src/tensorflow_lite/src/tensorflow/lite/kernels\kernel_util.h **** 
 227:C:/Renesas/e2studio_2021_01_workspace_RZA2M_ANPR/ANPR_RZA2M_RDK/src/tensorflow_lite/src/tensorflow/lite/kernels\kernel_util.h **** // Calculates the multiplication factor for a quantized convolution (or
 228:C:/Renesas/e2studio_2021_01_workspace_RZA2M_ANPR/ANPR_RZA2M_RDK/src/tensorflow_lite/src/tensorflow/lite/kernels\kernel_util.h **** // quantized depthwise convolution) involving the given tensors. Returns an
 229:C:/Renesas/e2studio_2021_01_workspace_RZA2M_ANPR/ANPR_RZA2M_RDK/src/tensorflow_lite/src/tensorflow/lite/kernels\kernel_util.h **** // error if the scales of the tensors are not compatible.
 230:C:/Renesas/e2studio_2021_01_workspace_RZA2M_ANPR/ANPR_RZA2M_RDK/src/tensorflow_lite/src/tensorflow/lite/kernels\kernel_util.h **** TfLiteStatus GetQuantizedConvolutionMultipler(TfLiteContext* context,
 231:C:/Renesas/e2studio_2021_01_workspace_RZA2M_ANPR/ANPR_RZA2M_RDK/src/tensorflow_lite/src/tensorflow/lite/kernels\kernel_util.h ****                                               const TfLiteTensor* input,
 232:C:/Renesas/e2studio_2021_01_workspace_RZA2M_ANPR/ANPR_RZA2M_RDK/src/tensorflow_lite/src/tensorflow/lite/kernels\kernel_util.h ****                                               const TfLiteTensor* filter,
 233:C:/Renesas/e2studio_2021_01_workspace_RZA2M_ANPR/ANPR_RZA2M_RDK/src/tensorflow_lite/src/tensorflow/lite/kernels\kernel_util.h ****                                               const TfLiteTensor* bias,
 234:C:/Renesas/e2studio_2021_01_workspace_RZA2M_ANPR/ANPR_RZA2M_RDK/src/tensorflow_lite/src/tensorflow/lite/kernels\kernel_util.h ****                                               TfLiteTensor* output,
 235:C:/Renesas/e2studio_2021_01_workspace_RZA2M_ANPR/ANPR_RZA2M_RDK/src/tensorflow_lite/src/tensorflow/lite/kernels\kernel_util.h ****                                               double* multiplier);
 236:C:/Renesas/e2studio_2021_01_workspace_RZA2M_ANPR/ANPR_RZA2M_RDK/src/tensorflow_lite/src/tensorflow/lite/kernels\kernel_util.h **** 
 237:C:/Renesas/e2studio_2021_01_workspace_RZA2M_ANPR/ANPR_RZA2M_RDK/src/tensorflow_lite/src/tensorflow/lite/kernels\kernel_util.h **** TfLiteStatus GetQuantizedConvolutionMultipler(TfLiteContext* context,
 238:C:/Renesas/e2studio_2021_01_workspace_RZA2M_ANPR/ANPR_RZA2M_RDK/src/tensorflow_lite/src/tensorflow/lite/kernels\kernel_util.h ****                                               const TfLiteTensor* input,
 239:C:/Renesas/e2studio_2021_01_workspace_RZA2M_ANPR/ANPR_RZA2M_RDK/src/tensorflow_lite/src/tensorflow/lite/kernels\kernel_util.h ****                                               const TfLiteTensor* filter,
 240:C:/Renesas/e2studio_2021_01_workspace_RZA2M_ANPR/ANPR_RZA2M_RDK/src/tensorflow_lite/src/tensorflow/lite/kernels\kernel_util.h ****                                               TfLiteTensor* output,
 241:C:/Renesas/e2studio_2021_01_workspace_RZA2M_ANPR/ANPR_RZA2M_RDK/src/tensorflow_lite/src/tensorflow/lite/kernels\kernel_util.h ****                                               double* multiplier);
 242:C:/Renesas/e2studio_2021_01_workspace_RZA2M_ANPR/ANPR_RZA2M_RDK/src/tensorflow_lite/src/tensorflow/lite/kernels\kernel_util.h **** 
 243:C:/Renesas/e2studio_2021_01_workspace_RZA2M_ANPR/ANPR_RZA2M_RDK/src/tensorflow_lite/src/tensorflow/lite/kernels\kernel_util.h **** // Calculates the useful quantized range of an activation layer given its
 244:C:/Renesas/e2studio_2021_01_workspace_RZA2M_ANPR/ANPR_RZA2M_RDK/src/tensorflow_lite/src/tensorflow/lite/kernels\kernel_util.h **** // activation tensor.
 245:C:/Renesas/e2studio_2021_01_workspace_RZA2M_ANPR/ANPR_RZA2M_RDK/src/tensorflow_lite/src/tensorflow/lite/kernels\kernel_util.h **** TfLiteStatus CalculateActivationRangeQuantized(TfLiteContext* context,
 246:C:/Renesas/e2studio_2021_01_workspace_RZA2M_ANPR/ANPR_RZA2M_RDK/src/tensorflow_lite/src/tensorflow/lite/kernels\kernel_util.h ****                                                TfLiteFusedActivation activation,
 247:C:/Renesas/e2studio_2021_01_workspace_RZA2M_ANPR/ANPR_RZA2M_RDK/src/tensorflow_lite/src/tensorflow/lite/kernels\kernel_util.h ****                                                TfLiteTensor* output,
 248:C:/Renesas/e2studio_2021_01_workspace_RZA2M_ANPR/ANPR_RZA2M_RDK/src/tensorflow_lite/src/tensorflow/lite/kernels\kernel_util.h ****                                                int32_t* act_min,
 249:C:/Renesas/e2studio_2021_01_workspace_RZA2M_ANPR/ANPR_RZA2M_RDK/src/tensorflow_lite/src/tensorflow/lite/kernels\kernel_util.h ****                                                int32_t* act_max);
 250:C:/Renesas/e2studio_2021_01_workspace_RZA2M_ANPR/ANPR_RZA2M_RDK/src/tensorflow_lite/src/tensorflow/lite/kernels\kernel_util.h **** 
 251:C:/Renesas/e2studio_2021_01_workspace_RZA2M_ANPR/ANPR_RZA2M_RDK/src/tensorflow_lite/src/tensorflow/lite/kernels\kernel_util.h **** // Calculates the useful range of an activation layer given its activation
 252:C:/Renesas/e2studio_2021_01_workspace_RZA2M_ANPR/ANPR_RZA2M_RDK/src/tensorflow_lite/src/tensorflow/lite/kernels\kernel_util.h **** // tensor.a
 253:C:/Renesas/e2studio_2021_01_workspace_RZA2M_ANPR/ANPR_RZA2M_RDK/src/tensorflow_lite/src/tensorflow/lite/kernels\kernel_util.h **** template <typename T>
 254:C:/Renesas/e2studio_2021_01_workspace_RZA2M_ANPR/ANPR_RZA2M_RDK/src/tensorflow_lite/src/tensorflow/lite/kernels\kernel_util.h **** void CalculateActivationRange(TfLiteFusedActivation activation,
 255:C:/Renesas/e2studio_2021_01_workspace_RZA2M_ANPR/ANPR_RZA2M_RDK/src/tensorflow_lite/src/tensorflow/lite/kernels\kernel_util.h ****                               T* activation_min, T* activation_max) {
 256:C:/Renesas/e2studio_2021_01_workspace_RZA2M_ANPR/ANPR_RZA2M_RDK/src/tensorflow_lite/src/tensorflow/lite/kernels\kernel_util.h ****   if (activation == kTfLiteActRelu) {
 315              		.loc 3 256 0
 316 0174 010053E3 		cmp	r3, #1
 317 0178 3600000A 		beq	.L33
 257:C:/Renesas/e2studio_2021_01_workspace_RZA2M_ANPR/ANPR_RZA2M_RDK/src/tensorflow_lite/src/tensorflow/lite/kernels\kernel_util.h ****     *activation_min = 0;
 258:C:/Renesas/e2studio_2021_01_workspace_RZA2M_ANPR/ANPR_RZA2M_RDK/src/tensorflow_lite/src/tensorflow/lite/kernels\kernel_util.h ****     *activation_max = std::numeric_limits<T>::max();
 259:C:/Renesas/e2studio_2021_01_workspace_RZA2M_ANPR/ANPR_RZA2M_RDK/src/tensorflow_lite/src/tensorflow/lite/kernels\kernel_util.h ****   } else if (activation == kTfLiteActRelu6) {
 318              		.loc 3 259 0
 319 017c 030053E3 		cmp	r3, #3
 320 0180 3A00000A 		beq	.L34
 260:C:/Renesas/e2studio_2021_01_workspace_RZA2M_ANPR/ANPR_RZA2M_RDK/src/tensorflow_lite/src/tensorflow/lite/kernels\kernel_util.h ****     *activation_min = 0;
 261:C:/Renesas/e2studio_2021_01_workspace_RZA2M_ANPR/ANPR_RZA2M_RDK/src/tensorflow_lite/src/tensorflow/lite/kernels\kernel_util.h ****     *activation_max = 6;
 262:C:/Renesas/e2studio_2021_01_workspace_RZA2M_ANPR/ANPR_RZA2M_RDK/src/tensorflow_lite/src/tensorflow/lite/kernels\kernel_util.h ****   } else if (activation == kTfLiteActReluN1To1) {
 321              		.loc 3 262 0
 322 0184 020053E3 		cmp	r3, #2
 263:C:/Renesas/e2studio_2021_01_workspace_RZA2M_ANPR/ANPR_RZA2M_RDK/src/tensorflow_lite/src/tensorflow/lite/kernels\kernel_util.h ****     *activation_min = -1;
 323              		.loc 3 263 0
 324 0188 0020A003 		moveq	r2, #0
 264:C:/Renesas/e2studio_2021_01_workspace_RZA2M_ANPR/ANPR_RZA2M_RDK/src/tensorflow_lite/src/tensorflow/lite/kernels\kernel_util.h ****     *activation_max = 1;
 265:C:/Renesas/e2studio_2021_01_workspace_RZA2M_ANPR/ANPR_RZA2M_RDK/src/tensorflow_lite/src/tensorflow/lite/kernels\kernel_util.h ****   } else {
 266:C:/Renesas/e2studio_2021_01_workspace_RZA2M_ANPR/ANPR_RZA2M_RDK/src/tensorflow_lite/src/tensorflow/lite/kernels\kernel_util.h ****     *activation_min = std::numeric_limits<T>::lowest();
 267:C:/Renesas/e2studio_2021_01_workspace_RZA2M_ANPR/ANPR_RZA2M_RDK/src/tensorflow_lite/src/tensorflow/lite/kernels\kernel_util.h ****     *activation_max = std::numeric_limits<T>::max();
 325              		.loc 3 267 0
 326 018c FF3F0F13 		movwne	r3, #65535
 327              	.LVL24:
 263:C:/Renesas/e2studio_2021_01_workspace_RZA2M_ANPR/ANPR_RZA2M_RDK/src/tensorflow_lite/src/tensorflow/lite/kernels\kernel_util.h ****     *activation_min = -1;
 328              		.loc 3 263 0
 329 0190 802F4B03 		movteq	r2, 49024
 264:C:/Renesas/e2studio_2021_01_workspace_RZA2M_ANPR/ANPR_RZA2M_RDK/src/tensorflow_lite/src/tensorflow/lite/kernels\kernel_util.h ****     *activation_max = 1;
 330              		.loc 3 264 0
 331 0194 FE35A003 		moveq	r3, #1065353216
 266:C:/Renesas/e2studio_2021_01_workspace_RZA2M_ANPR/ANPR_RZA2M_RDK/src/tensorflow_lite/src/tensorflow/lite/kernels\kernel_util.h ****     *activation_max = std::numeric_limits<T>::max();
 332              		.loc 3 266 0
 333 0198 0225E013 		mvnne	r2, #8388608
 334              		.loc 3 267 0
 335 019c 7F3F4713 		movtne	r3, 32639
 336              	.LBE411:
 337              	.LBE410:
 338              	.LBE424:
 339              	.LBE429:
 340              	.LBE434:
 341              	.LBE439:
 210:../src/tensorflow_lite/src/tensorflow/lite/micro/kernels/cmsis_nn/add.cpp **** }
 342              		.loc 1 210 0
 343 01a0 0000A003 		moveq	r0, #0
 344 01a4 0000A013 		movne	r0, #0
 345              	.LBB440:
 346              	.LBB435:
 347              	.LBB430:
 348              	.LBB425:
 349              	.LBB414:
 350              	.LBB412:
 266:C:/Renesas/e2studio_2021_01_workspace_RZA2M_ANPR/ANPR_RZA2M_RDK/src/tensorflow_lite/src/tensorflow/lite/kernels\kernel_util.h ****     *activation_max = std::numeric_limits<T>::max();
 351              		.loc 3 266 0
 352 01a8 342085E5 		str	r2, [r5, #52]	@ float
 353              		.loc 3 267 0
 354 01ac 383085E5 		str	r3, [r5, #56]	@ float
 355 01b0 BCFFFFEA 		b	.L12
 356              	.LVL25:
 357              	.L28:
 358              	.LBE412:
 359              	.LBE414:
 360              	.LBE425:
 361              	.LBE430:
 362              	.LBE435:
 363              	.LBE440:
 198:../src/tensorflow_lite/src/tensorflow/lite/micro/kernels/cmsis_nn/add.cpp ****   const TfLiteTensor* input2 = GetInput(context, node, kInputTensor2);
 364              		.loc 1 198 0 discriminator 1
 365 01b4 003000E3 		movw	r3, #:lower16:.LC3
 366 01b8 002000E3 		movw	r2, #:lower16:.LC1
 367 01bc 003040E3 		movt	r3, #:upper16:.LC3
 368 01c0 001000E3 		movw	r1, #:lower16:.LC2
 369 01c4 00308DE5 		str	r3, [sp]
 370 01c8 0600A0E1 		mov	r0, r6
 371              	.LVL26:
 372 01cc 002040E3 		movt	r2, #:upper16:.LC1
 373 01d0 001040E3 		movt	r1, #:upper16:.LC2
 374 01d4 144096E5 		ldr	r4, [r6, #20]
 375              	.LVL27:
 376 01d8 C630A0E3 		mov	r3, #198
 377 01dc 34FF2FE1 		blx	r4
 378              	.LVL28:
 379 01e0 0100A0E3 		mov	r0, #1
 380              		.loc 1 211 0 discriminator 1
 381 01e4 0CD08DE2 		add	sp, sp, #12
 382              		.cfi_remember_state
 383              		.cfi_def_cfa_offset 44
 384              		@ sp needed
 385 01e8 048BBDEC 		vldm	sp!, {d8-d9}
 386              		.cfi_restore 80
 387              		.cfi_restore 81
 388              		.cfi_restore 82
 389              		.cfi_restore 83
 390              		.cfi_def_cfa_offset 28
 391 01ec F083BDE8 		pop	{r4, r5, r6, r7, r8, r9, pc}
 392              	.LVL29:
 393              	.L29:
 394              		.cfi_restore_state
 200:../src/tensorflow_lite/src/tensorflow/lite/micro/kernels/cmsis_nn/add.cpp ****   TfLiteTensor* output = GetOutput(context, node, kOutputTensor);
 395              		.loc 1 200 0 discriminator 1
 396 01f0 003000E3 		movw	r3, #:lower16:.LC4
 397 01f4 002000E3 		movw	r2, #:lower16:.LC1
 398 01f8 003040E3 		movt	r3, #:upper16:.LC4
 399 01fc 001000E3 		movw	r1, #:lower16:.LC2
 400 0200 00308DE5 		str	r3, [sp]
 401 0204 0600A0E1 		mov	r0, r6
 402              	.LVL30:
 403 0208 002040E3 		movt	r2, #:upper16:.LC1
 404 020c 001040E3 		movt	r1, #:upper16:.LC2
 405 0210 144096E5 		ldr	r4, [r6, #20]
 406              	.LVL31:
 407 0214 C830A0E3 		mov	r3, #200
 408 0218 34FF2FE1 		blx	r4
 409              	.LVL32:
 410 021c 0100A0E3 		mov	r0, #1
 411 0220 A0FFFFEA 		b	.L12
 412              	.LVL33:
 413              	.L30:
 202:../src/tensorflow_lite/src/tensorflow/lite/micro/kernels/cmsis_nn/add.cpp **** 
 414              		.loc 1 202 0 discriminator 1
 415 0224 003000E3 		movw	r3, #:lower16:.LC5
 416 0228 002000E3 		movw	r2, #:lower16:.LC1
 417 022c 003040E3 		movt	r3, #:upper16:.LC5
 418 0230 001000E3 		movw	r1, #:lower16:.LC2
 419 0234 00308DE5 		str	r3, [sp]
 420 0238 0600A0E1 		mov	r0, r6
 421              	.LVL34:
 422 023c 002040E3 		movt	r2, #:upper16:.LC1
 423 0240 001040E3 		movt	r1, #:upper16:.LC2
 424 0244 144096E5 		ldr	r4, [r6, #20]
 425              	.LVL35:
 426 0248 CA30A0E3 		mov	r3, #202
 427 024c 34FF2FE1 		blx	r4
 428              	.LVL36:
 429 0250 0100A0E3 		mov	r0, #1
 430 0254 93FFFFEA 		b	.L12
 431              	.LVL37:
 432              	.L33:
 433              	.LBB441:
 434              	.LBB436:
 435              	.LBB431:
 436              	.LBB426:
 437              	.LBB415:
 438              	.LBB413:
 258:C:/Renesas/e2studio_2021_01_workspace_RZA2M_ANPR/ANPR_RZA2M_RDK/src/tensorflow_lite/src/tensorflow/lite/kernels\kernel_util.h ****   } else if (activation == kTfLiteActRelu6) {
 439              		.loc 3 258 0
 440 0258 FF3F0FE3 		movw	r3, #65535
 441              	.LVL38:
 257:C:/Renesas/e2studio_2021_01_workspace_RZA2M_ANPR/ANPR_RZA2M_RDK/src/tensorflow_lite/src/tensorflow/lite/kernels\kernel_util.h ****     *activation_max = std::numeric_limits<T>::max();
 442              		.loc 3 257 0
 443 025c 0020A0E3 		mov	r2, #0
 258:C:/Renesas/e2studio_2021_01_workspace_RZA2M_ANPR/ANPR_RZA2M_RDK/src/tensorflow_lite/src/tensorflow/lite/kernels\kernel_util.h ****   } else if (activation == kTfLiteActRelu6) {
 444              		.loc 3 258 0
 445 0260 7F3F47E3 		movt	r3, 32639
 257:C:/Renesas/e2studio_2021_01_workspace_RZA2M_ANPR/ANPR_RZA2M_RDK/src/tensorflow_lite/src/tensorflow/lite/kernels\kernel_util.h ****     *activation_max = std::numeric_limits<T>::max();
 446              		.loc 3 257 0
 447 0264 342085E5 		str	r2, [r5, #52]	@ float
 258:C:/Renesas/e2studio_2021_01_workspace_RZA2M_ANPR/ANPR_RZA2M_RDK/src/tensorflow_lite/src/tensorflow/lite/kernels\kernel_util.h ****   } else if (activation == kTfLiteActRelu6) {
 448              		.loc 3 258 0
 449 0268 383085E5 		str	r3, [r5, #56]	@ float
 450 026c 8DFFFFEA 		b	.L12
 451              	.LVL39:
 452              	.L34:
 261:C:/Renesas/e2studio_2021_01_workspace_RZA2M_ANPR/ANPR_RZA2M_RDK/src/tensorflow_lite/src/tensorflow/lite/kernels\kernel_util.h ****   } else if (activation == kTfLiteActReluN1To1) {
 453              		.loc 3 261 0
 454 0270 0030A0E3 		mov	r3, #0
 455              	.LVL40:
 260:C:/Renesas/e2studio_2021_01_workspace_RZA2M_ANPR/ANPR_RZA2M_RDK/src/tensorflow_lite/src/tensorflow/lite/kernels\kernel_util.h ****     *activation_max = 6;
 456              		.loc 3 260 0
 457 0274 0020A0E3 		mov	r2, #0
 261:C:/Renesas/e2studio_2021_01_workspace_RZA2M_ANPR/ANPR_RZA2M_RDK/src/tensorflow_lite/src/tensorflow/lite/kernels\kernel_util.h ****   } else if (activation == kTfLiteActReluN1To1) {
 458              		.loc 3 261 0
 459 0278 C03044E3 		movt	r3, 16576
 260:C:/Renesas/e2studio_2021_01_workspace_RZA2M_ANPR/ANPR_RZA2M_RDK/src/tensorflow_lite/src/tensorflow/lite/kernels\kernel_util.h ****     *activation_max = 6;
 460              		.loc 3 260 0
 461 027c 342085E5 		str	r2, [r5, #52]	@ float
 261:C:/Renesas/e2studio_2021_01_workspace_RZA2M_ANPR/ANPR_RZA2M_RDK/src/tensorflow_lite/src/tensorflow/lite/kernels\kernel_util.h ****   } else if (activation == kTfLiteActReluN1To1) {
 462              		.loc 3 261 0
 463 0280 383085E5 		str	r3, [r5, #56]	@ float
 464 0284 87FFFFEA 		b	.L12
 465              	.LVL41:
 466              	.L10:
 467              	.LBE413:
 468              	.LBE415:
 469              	.LBE426:
 470              	.LBE431:
 471              	.LBE436:
 472              	.LBE441:
 194:../src/tensorflow_lite/src/tensorflow/lite/micro/kernels/cmsis_nn/add.cpp ****   TFLITE_DCHECK(node->builtin_data != nullptr);
 473              		.loc 1 194 0 discriminator 1
 474 0288 FEFFFFEB 		bl	abort
 475              	.LVL42:
 476              	.L36:
 477 028c 00F020E3 		.align	3
 478              	.L35:
 479 0290 00000000 		.word	0
 480 0294 00003041 		.word	1093664768
 481              		.cfi_endproc
 482              	.LFE9121:
 483              		.fnend
 485              		.section	.text._ZN6tflite13reference_ops22ProcessBroadcastShapesERKNS_12RuntimeShapeES3_PNS_16Arit
 486              		.align	2
 487              		.weak	_ZN6tflite13reference_ops22ProcessBroadcastShapesERKNS_12RuntimeShapeES3_PNS_16ArithmeticPar
 488              		.syntax unified
 489              		.arm
 490              		.fpu neon
 492              	_ZN6tflite13reference_ops22ProcessBroadcastShapesERKNS_12RuntimeShapeES3_PNS_16ArithmeticParamsE:
 493              		.fnstart
 494              	.LFB4249:
 495              		.file 4 "C:/Renesas/e2studio_2021_01_workspace_RZA2M_ANPR/ANPR_RZA2M_RDK/src/tensorflow_lite/src/t
   1:C:/Renesas/e2studio_2021_01_workspace_RZA2M_ANPR/ANPR_RZA2M_RDK/src/tensorflow_lite/src/tensorflow/lite/kernels/internal/reference\process_broadcast_shapes.h **** /* Copyright 2019 The TensorFlow Authors. All Rights Reserved.
   2:C:/Renesas/e2studio_2021_01_workspace_RZA2M_ANPR/ANPR_RZA2M_RDK/src/tensorflow_lite/src/tensorflow/lite/kernels/internal/reference\process_broadcast_shapes.h **** 
   3:C:/Renesas/e2studio_2021_01_workspace_RZA2M_ANPR/ANPR_RZA2M_RDK/src/tensorflow_lite/src/tensorflow/lite/kernels/internal/reference\process_broadcast_shapes.h **** Licensed under the Apache License, Version 2.0 (the "License");
   4:C:/Renesas/e2studio_2021_01_workspace_RZA2M_ANPR/ANPR_RZA2M_RDK/src/tensorflow_lite/src/tensorflow/lite/kernels/internal/reference\process_broadcast_shapes.h **** you may not use this file except in compliance with the License.
   5:C:/Renesas/e2studio_2021_01_workspace_RZA2M_ANPR/ANPR_RZA2M_RDK/src/tensorflow_lite/src/tensorflow/lite/kernels/internal/reference\process_broadcast_shapes.h **** You may obtain a copy of the License at
   6:C:/Renesas/e2studio_2021_01_workspace_RZA2M_ANPR/ANPR_RZA2M_RDK/src/tensorflow_lite/src/tensorflow/lite/kernels/internal/reference\process_broadcast_shapes.h **** 
   7:C:/Renesas/e2studio_2021_01_workspace_RZA2M_ANPR/ANPR_RZA2M_RDK/src/tensorflow_lite/src/tensorflow/lite/kernels/internal/reference\process_broadcast_shapes.h ****     http://www.apache.org/licenses/LICENSE-2.0
   8:C:/Renesas/e2studio_2021_01_workspace_RZA2M_ANPR/ANPR_RZA2M_RDK/src/tensorflow_lite/src/tensorflow/lite/kernels/internal/reference\process_broadcast_shapes.h **** 
   9:C:/Renesas/e2studio_2021_01_workspace_RZA2M_ANPR/ANPR_RZA2M_RDK/src/tensorflow_lite/src/tensorflow/lite/kernels/internal/reference\process_broadcast_shapes.h **** Unless required by applicable law or agreed to in writing, software
  10:C:/Renesas/e2studio_2021_01_workspace_RZA2M_ANPR/ANPR_RZA2M_RDK/src/tensorflow_lite/src/tensorflow/lite/kernels/internal/reference\process_broadcast_shapes.h **** distributed under the License is distributed on an "AS IS" BASIS,
  11:C:/Renesas/e2studio_2021_01_workspace_RZA2M_ANPR/ANPR_RZA2M_RDK/src/tensorflow_lite/src/tensorflow/lite/kernels/internal/reference\process_broadcast_shapes.h **** WITHOUT WARRANTIES OR CONDITIONS OF ANY KIND, either express or implied.
  12:C:/Renesas/e2studio_2021_01_workspace_RZA2M_ANPR/ANPR_RZA2M_RDK/src/tensorflow_lite/src/tensorflow/lite/kernels/internal/reference\process_broadcast_shapes.h **** See the License for the specific language governing permissions and
  13:C:/Renesas/e2studio_2021_01_workspace_RZA2M_ANPR/ANPR_RZA2M_RDK/src/tensorflow_lite/src/tensorflow/lite/kernels/internal/reference\process_broadcast_shapes.h **** limitations under the License.
  14:C:/Renesas/e2studio_2021_01_workspace_RZA2M_ANPR/ANPR_RZA2M_RDK/src/tensorflow_lite/src/tensorflow/lite/kernels/internal/reference\process_broadcast_shapes.h **** ==============================================================================*/
  15:C:/Renesas/e2studio_2021_01_workspace_RZA2M_ANPR/ANPR_RZA2M_RDK/src/tensorflow_lite/src/tensorflow/lite/kernels/internal/reference\process_broadcast_shapes.h **** #ifndef TENSORFLOW_LITE_KERNELS_INTERNAL_REFERENCE_PROCESS_BROADCAST_SHAPES_H_
  16:C:/Renesas/e2studio_2021_01_workspace_RZA2M_ANPR/ANPR_RZA2M_RDK/src/tensorflow_lite/src/tensorflow/lite/kernels/internal/reference\process_broadcast_shapes.h **** #define TENSORFLOW_LITE_KERNELS_INTERNAL_REFERENCE_PROCESS_BROADCAST_SHAPES_H_
  17:C:/Renesas/e2studio_2021_01_workspace_RZA2M_ANPR/ANPR_RZA2M_RDK/src/tensorflow_lite/src/tensorflow/lite/kernels/internal/reference\process_broadcast_shapes.h **** 
  18:C:/Renesas/e2studio_2021_01_workspace_RZA2M_ANPR/ANPR_RZA2M_RDK/src/tensorflow_lite/src/tensorflow/lite/kernels/internal/reference\process_broadcast_shapes.h **** #include "tensorflow/lite/kernels/internal/types.h"
  19:C:/Renesas/e2studio_2021_01_workspace_RZA2M_ANPR/ANPR_RZA2M_RDK/src/tensorflow_lite/src/tensorflow/lite/kernels/internal/reference\process_broadcast_shapes.h **** 
  20:C:/Renesas/e2studio_2021_01_workspace_RZA2M_ANPR/ANPR_RZA2M_RDK/src/tensorflow_lite/src/tensorflow/lite/kernels/internal/reference\process_broadcast_shapes.h **** namespace tflite {
  21:C:/Renesas/e2studio_2021_01_workspace_RZA2M_ANPR/ANPR_RZA2M_RDK/src/tensorflow_lite/src/tensorflow/lite/kernels/internal/reference\process_broadcast_shapes.h **** 
  22:C:/Renesas/e2studio_2021_01_workspace_RZA2M_ANPR/ANPR_RZA2M_RDK/src/tensorflow_lite/src/tensorflow/lite/kernels/internal/reference\process_broadcast_shapes.h **** namespace reference_ops {
  23:C:/Renesas/e2studio_2021_01_workspace_RZA2M_ANPR/ANPR_RZA2M_RDK/src/tensorflow_lite/src/tensorflow/lite/kernels/internal/reference\process_broadcast_shapes.h **** 
  24:C:/Renesas/e2studio_2021_01_workspace_RZA2M_ANPR/ANPR_RZA2M_RDK/src/tensorflow_lite/src/tensorflow/lite/kernels/internal/reference\process_broadcast_shapes.h **** // Consolidates dimensions in broadcast inputs, checks for five-fold pattern.
  25:C:/Renesas/e2studio_2021_01_workspace_RZA2M_ANPR/ANPR_RZA2M_RDK/src/tensorflow_lite/src/tensorflow/lite/kernels/internal/reference\process_broadcast_shapes.h **** //
  26:C:/Renesas/e2studio_2021_01_workspace_RZA2M_ANPR/ANPR_RZA2M_RDK/src/tensorflow_lite/src/tensorflow/lite/kernels/internal/reference\process_broadcast_shapes.h **** // For example, if sequence of dimensions of one input is
  27:C:/Renesas/e2studio_2021_01_workspace_RZA2M_ANPR/ANPR_RZA2M_RDK/src/tensorflow_lite/src/tensorflow/lite/kernels/internal/reference\process_broadcast_shapes.h **** // ..., 1, 3, 1, 7, 9, 5,... and the other is ..., 2, 3, 1, 7, 1, 1, ...
  28:C:/Renesas/e2studio_2021_01_workspace_RZA2M_ANPR/ANPR_RZA2M_RDK/src/tensorflow_lite/src/tensorflow/lite/kernels/internal/reference\process_broadcast_shapes.h **** // we can consolidate these as
  29:C:/Renesas/e2studio_2021_01_workspace_RZA2M_ANPR/ANPR_RZA2M_RDK/src/tensorflow_lite/src/tensorflow/lite/kernels/internal/reference\process_broadcast_shapes.h **** // ..., 1, 3*7, 9*5, ... and 2, 3*7, 1.
  30:C:/Renesas/e2studio_2021_01_workspace_RZA2M_ANPR/ANPR_RZA2M_RDK/src/tensorflow_lite/src/tensorflow/lite/kernels/internal/reference\process_broadcast_shapes.h **** //
  31:C:/Renesas/e2studio_2021_01_workspace_RZA2M_ANPR/ANPR_RZA2M_RDK/src/tensorflow_lite/src/tensorflow/lite/kernels/internal/reference\process_broadcast_shapes.h **** // The category is updated in the less-frequent case of shapes that are
  32:C:/Renesas/e2studio_2021_01_workspace_RZA2M_ANPR/ANPR_RZA2M_RDK/src/tensorflow_lite/src/tensorflow/lite/kernels/internal/reference\process_broadcast_shapes.h **** // not suited to a fivefold-loop broadcast.
  33:C:/Renesas/e2studio_2021_01_workspace_RZA2M_ANPR/ANPR_RZA2M_RDK/src/tensorflow_lite/src/tensorflow/lite/kernels/internal/reference\process_broadcast_shapes.h **** //
  34:C:/Renesas/e2studio_2021_01_workspace_RZA2M_ANPR/ANPR_RZA2M_RDK/src/tensorflow_lite/src/tensorflow/lite/kernels/internal/reference\process_broadcast_shapes.h **** // Falls back to generic pattern when it does not know how to process properly.
  35:C:/Renesas/e2studio_2021_01_workspace_RZA2M_ANPR/ANPR_RZA2M_RDK/src/tensorflow_lite/src/tensorflow/lite/kernels/internal/reference\process_broadcast_shapes.h **** //
  36:C:/Renesas/e2studio_2021_01_workspace_RZA2M_ANPR/ANPR_RZA2M_RDK/src/tensorflow_lite/src/tensorflow/lite/kernels/internal/reference\process_broadcast_shapes.h **** // Returns true iff there is some sort of broadcast, which includes five-fold
  37:C:/Renesas/e2studio_2021_01_workspace_RZA2M_ANPR/ANPR_RZA2M_RDK/src/tensorflow_lite/src/tensorflow/lite/kernels/internal/reference\process_broadcast_shapes.h **** // patterns and falling back to generic broadcast.
  38:C:/Renesas/e2studio_2021_01_workspace_RZA2M_ANPR/ANPR_RZA2M_RDK/src/tensorflow_lite/src/tensorflow/lite/kernels/internal/reference\process_broadcast_shapes.h **** inline bool ProcessBroadcastShapes(const RuntimeShape& shape0,
  39:C:/Renesas/e2studio_2021_01_workspace_RZA2M_ANPR/ANPR_RZA2M_RDK/src/tensorflow_lite/src/tensorflow/lite/kernels/internal/reference\process_broadcast_shapes.h ****                                    const RuntimeShape& shape1,
  40:C:/Renesas/e2studio_2021_01_workspace_RZA2M_ANPR/ANPR_RZA2M_RDK/src/tensorflow_lite/src/tensorflow/lite/kernels/internal/reference\process_broadcast_shapes.h ****                                    tflite::ArithmeticParams* params) {
 496              		.loc 4 40 0
 497              		.cfi_startproc
 498              		.cfi_personality 0,__gxx_personality_v0
 499              		.cfi_lsda 0,.LLSDA4249
 500              		@ args = 0, pretend = 0, frame = 80
 501              		@ frame_needed = 0, uses_anonymous_args = 0
 502              	.LVL43:
 503 0000 F04F2DE9 		push	{r4, r5, r6, r7, r8, r9, r10, fp, lr}
 504              		.save {r4, r5, r6, r7, r8, r9, r10, fp, lr}
 505              		.cfi_def_cfa_offset 36
 506              		.cfi_offset 4, -36
 507              		.cfi_offset 5, -32
 508              		.cfi_offset 6, -28
 509              		.cfi_offset 7, -24
 510              		.cfi_offset 8, -20
 511              		.cfi_offset 9, -16
 512              		.cfi_offset 10, -12
 513              		.cfi_offset 11, -8
 514              		.cfi_offset 14, -4
 515 0004 0240A0E1 		mov	r4, r2
 516 0008 005091E5 		ldr	r5, [r1]
  41:C:/Renesas/e2studio_2021_01_workspace_RZA2M_ANPR/ANPR_RZA2M_RDK/src/tensorflow_lite/src/tensorflow/lite/kernels/internal/reference\process_broadcast_shapes.h ****   const int dims_count =
  42:C:/Renesas/e2studio_2021_01_workspace_RZA2M_ANPR/ANPR_RZA2M_RDK/src/tensorflow_lite/src/tensorflow/lite/kernels/internal/reference\process_broadcast_shapes.h ****       std::max(shape0.DimensionsCount(), shape1.DimensionsCount());
  43:C:/Renesas/e2studio_2021_01_workspace_RZA2M_ANPR/ANPR_RZA2M_RDK/src/tensorflow_lite/src/tensorflow/lite/kernels/internal/reference\process_broadcast_shapes.h **** 
  44:C:/Renesas/e2studio_2021_01_workspace_RZA2M_ANPR/ANPR_RZA2M_RDK/src/tensorflow_lite/src/tensorflow/lite/kernels/internal/reference\process_broadcast_shapes.h ****   params->broadcast_category = BroadcastableOpCategory::kGenericBroadcast;
 517              		.loc 4 44 0
 518 000c 0420A0E3 		mov	r2, #4
 519              	.LVL44:
  40:C:/Renesas/e2studio_2021_01_workspace_RZA2M_ANPR/ANPR_RZA2M_RDK/src/tensorflow_lite/src/tensorflow/lite/kernels/internal/reference\process_broadcast_shapes.h ****   const int dims_count =
 520              		.loc 4 40 0
 521              		.pad #84
 522 0010 54D04DE2 		sub	sp, sp, #84
 523              		.cfi_def_cfa_offset 120
  40:C:/Renesas/e2studio_2021_01_workspace_RZA2M_ANPR/ANPR_RZA2M_RDK/src/tensorflow_lite/src/tensorflow/lite/kernels/internal/reference\process_broadcast_shapes.h ****   const int dims_count =
 524              		.loc 4 40 0
 525 0014 0070A0E1 		mov	r7, r0
 526              	.LVL45:
 527 0018 003090E5 		ldr	r3, [r0]
 528 001c 0160A0E1 		mov	r6, r1
 529              		.loc 4 44 0
 530 0020 0020C4E5 		strb	r2, [r4]
 531 0024 050053E1 		cmp	r3, r5
 532 0028 0350A0A1 		movge	r5, r3
 533              	.LVL46:
 534              	.LBB548:
 535              	.LBB549:
 536              	.LBB550:
 537              	.LBB551:
 538              		.file 5 "C:/Renesas/e2studio_2021_01_workspace_RZA2M_ANPR/ANPR_RZA2M_RDK/src/tensorflow_lite/src/t
   1:C:/Renesas/e2studio_2021_01_workspace_RZA2M_ANPR/ANPR_RZA2M_RDK/src/tensorflow_lite/src/tensorflow/lite/kernels/internal\types.h **** /* Copyright 2018 The TensorFlow Authors. All Rights Reserved.
   2:C:/Renesas/e2studio_2021_01_workspace_RZA2M_ANPR/ANPR_RZA2M_RDK/src/tensorflow_lite/src/tensorflow/lite/kernels/internal\types.h **** 
   3:C:/Renesas/e2studio_2021_01_workspace_RZA2M_ANPR/ANPR_RZA2M_RDK/src/tensorflow_lite/src/tensorflow/lite/kernels/internal\types.h **** Licensed under the Apache License, Version 2.0 (the "License");
   4:C:/Renesas/e2studio_2021_01_workspace_RZA2M_ANPR/ANPR_RZA2M_RDK/src/tensorflow_lite/src/tensorflow/lite/kernels/internal\types.h **** you may not use this file except in compliance with the License.
   5:C:/Renesas/e2studio_2021_01_workspace_RZA2M_ANPR/ANPR_RZA2M_RDK/src/tensorflow_lite/src/tensorflow/lite/kernels/internal\types.h **** You may obtain a copy of the License at
   6:C:/Renesas/e2studio_2021_01_workspace_RZA2M_ANPR/ANPR_RZA2M_RDK/src/tensorflow_lite/src/tensorflow/lite/kernels/internal\types.h **** 
   7:C:/Renesas/e2studio_2021_01_workspace_RZA2M_ANPR/ANPR_RZA2M_RDK/src/tensorflow_lite/src/tensorflow/lite/kernels/internal\types.h ****     http://www.apache.org/licenses/LICENSE-2.0
   8:C:/Renesas/e2studio_2021_01_workspace_RZA2M_ANPR/ANPR_RZA2M_RDK/src/tensorflow_lite/src/tensorflow/lite/kernels/internal\types.h **** 
   9:C:/Renesas/e2studio_2021_01_workspace_RZA2M_ANPR/ANPR_RZA2M_RDK/src/tensorflow_lite/src/tensorflow/lite/kernels/internal\types.h **** Unless required by applicable law or agreed to in writing, software
  10:C:/Renesas/e2studio_2021_01_workspace_RZA2M_ANPR/ANPR_RZA2M_RDK/src/tensorflow_lite/src/tensorflow/lite/kernels/internal\types.h **** distributed under the License is distributed on an "AS IS" BASIS,
  11:C:/Renesas/e2studio_2021_01_workspace_RZA2M_ANPR/ANPR_RZA2M_RDK/src/tensorflow_lite/src/tensorflow/lite/kernels/internal\types.h **** WITHOUT WARRANTIES OR CONDITIONS OF ANY KIND, either express or implied.
  12:C:/Renesas/e2studio_2021_01_workspace_RZA2M_ANPR/ANPR_RZA2M_RDK/src/tensorflow_lite/src/tensorflow/lite/kernels/internal\types.h **** See the License for the specific language governing permissions and
  13:C:/Renesas/e2studio_2021_01_workspace_RZA2M_ANPR/ANPR_RZA2M_RDK/src/tensorflow_lite/src/tensorflow/lite/kernels/internal\types.h **** limitations under the License.
  14:C:/Renesas/e2studio_2021_01_workspace_RZA2M_ANPR/ANPR_RZA2M_RDK/src/tensorflow_lite/src/tensorflow/lite/kernels/internal\types.h **** ==============================================================================*/
  15:C:/Renesas/e2studio_2021_01_workspace_RZA2M_ANPR/ANPR_RZA2M_RDK/src/tensorflow_lite/src/tensorflow/lite/kernels/internal\types.h **** #ifndef TENSORFLOW_LITE_KERNELS_INTERNAL_TYPES_H_
  16:C:/Renesas/e2studio_2021_01_workspace_RZA2M_ANPR/ANPR_RZA2M_RDK/src/tensorflow_lite/src/tensorflow/lite/kernels/internal\types.h **** #define TENSORFLOW_LITE_KERNELS_INTERNAL_TYPES_H_
  17:C:/Renesas/e2studio_2021_01_workspace_RZA2M_ANPR/ANPR_RZA2M_RDK/src/tensorflow_lite/src/tensorflow/lite/kernels/internal\types.h **** 
  18:C:/Renesas/e2studio_2021_01_workspace_RZA2M_ANPR/ANPR_RZA2M_RDK/src/tensorflow_lite/src/tensorflow/lite/kernels/internal\types.h **** #include <algorithm>
  19:C:/Renesas/e2studio_2021_01_workspace_RZA2M_ANPR/ANPR_RZA2M_RDK/src/tensorflow_lite/src/tensorflow/lite/kernels/internal\types.h **** #include <cstdint>
  20:C:/Renesas/e2studio_2021_01_workspace_RZA2M_ANPR/ANPR_RZA2M_RDK/src/tensorflow_lite/src/tensorflow/lite/kernels/internal\types.h **** #include <cstring>
  21:C:/Renesas/e2studio_2021_01_workspace_RZA2M_ANPR/ANPR_RZA2M_RDK/src/tensorflow_lite/src/tensorflow/lite/kernels/internal\types.h **** #include <initializer_list>
  22:C:/Renesas/e2studio_2021_01_workspace_RZA2M_ANPR/ANPR_RZA2M_RDK/src/tensorflow_lite/src/tensorflow/lite/kernels/internal\types.h **** 
  23:C:/Renesas/e2studio_2021_01_workspace_RZA2M_ANPR/ANPR_RZA2M_RDK/src/tensorflow_lite/src/tensorflow/lite/kernels/internal\types.h **** #include "tensorflow/lite/kernels/internal/compatibility.h"
  24:C:/Renesas/e2studio_2021_01_workspace_RZA2M_ANPR/ANPR_RZA2M_RDK/src/tensorflow_lite/src/tensorflow/lite/kernels/internal\types.h **** 
  25:C:/Renesas/e2studio_2021_01_workspace_RZA2M_ANPR/ANPR_RZA2M_RDK/src/tensorflow_lite/src/tensorflow/lite/kernels/internal\types.h **** namespace tflite {
  26:C:/Renesas/e2studio_2021_01_workspace_RZA2M_ANPR/ANPR_RZA2M_RDK/src/tensorflow_lite/src/tensorflow/lite/kernels/internal\types.h **** 
  27:C:/Renesas/e2studio_2021_01_workspace_RZA2M_ANPR/ANPR_RZA2M_RDK/src/tensorflow_lite/src/tensorflow/lite/kernels/internal\types.h **** enum class FusedActivationFunctionType : uint8_t {
  28:C:/Renesas/e2studio_2021_01_workspace_RZA2M_ANPR/ANPR_RZA2M_RDK/src/tensorflow_lite/src/tensorflow/lite/kernels/internal\types.h ****   kNone,
  29:C:/Renesas/e2studio_2021_01_workspace_RZA2M_ANPR/ANPR_RZA2M_RDK/src/tensorflow_lite/src/tensorflow/lite/kernels/internal\types.h ****   kRelu6,
  30:C:/Renesas/e2studio_2021_01_workspace_RZA2M_ANPR/ANPR_RZA2M_RDK/src/tensorflow_lite/src/tensorflow/lite/kernels/internal\types.h ****   kRelu1,
  31:C:/Renesas/e2studio_2021_01_workspace_RZA2M_ANPR/ANPR_RZA2M_RDK/src/tensorflow_lite/src/tensorflow/lite/kernels/internal\types.h ****   kRelu
  32:C:/Renesas/e2studio_2021_01_workspace_RZA2M_ANPR/ANPR_RZA2M_RDK/src/tensorflow_lite/src/tensorflow/lite/kernels/internal\types.h **** };
  33:C:/Renesas/e2studio_2021_01_workspace_RZA2M_ANPR/ANPR_RZA2M_RDK/src/tensorflow_lite/src/tensorflow/lite/kernels/internal\types.h **** enum class PaddingType : uint8_t { kNone, kSame, kValid };
  34:C:/Renesas/e2studio_2021_01_workspace_RZA2M_ANPR/ANPR_RZA2M_RDK/src/tensorflow_lite/src/tensorflow/lite/kernels/internal\types.h **** 
  35:C:/Renesas/e2studio_2021_01_workspace_RZA2M_ANPR/ANPR_RZA2M_RDK/src/tensorflow_lite/src/tensorflow/lite/kernels/internal\types.h **** struct PaddingValues {
  36:C:/Renesas/e2studio_2021_01_workspace_RZA2M_ANPR/ANPR_RZA2M_RDK/src/tensorflow_lite/src/tensorflow/lite/kernels/internal\types.h ****   int16_t width;
  37:C:/Renesas/e2studio_2021_01_workspace_RZA2M_ANPR/ANPR_RZA2M_RDK/src/tensorflow_lite/src/tensorflow/lite/kernels/internal\types.h ****   int16_t height;
  38:C:/Renesas/e2studio_2021_01_workspace_RZA2M_ANPR/ANPR_RZA2M_RDK/src/tensorflow_lite/src/tensorflow/lite/kernels/internal\types.h ****   // offset is used for calculating "remaining" padding, for example, `width`
  39:C:/Renesas/e2studio_2021_01_workspace_RZA2M_ANPR/ANPR_RZA2M_RDK/src/tensorflow_lite/src/tensorflow/lite/kernels/internal\types.h ****   // is 1 and `width_offset` is 1, so padding_left is 1 while padding_right is
  40:C:/Renesas/e2studio_2021_01_workspace_RZA2M_ANPR/ANPR_RZA2M_RDK/src/tensorflow_lite/src/tensorflow/lite/kernels/internal\types.h ****   // 1 + 1 = 2.
  41:C:/Renesas/e2studio_2021_01_workspace_RZA2M_ANPR/ANPR_RZA2M_RDK/src/tensorflow_lite/src/tensorflow/lite/kernels/internal\types.h ****   int16_t width_offset;
  42:C:/Renesas/e2studio_2021_01_workspace_RZA2M_ANPR/ANPR_RZA2M_RDK/src/tensorflow_lite/src/tensorflow/lite/kernels/internal\types.h ****   // Same as width_offset except it's over the height dimension.
  43:C:/Renesas/e2studio_2021_01_workspace_RZA2M_ANPR/ANPR_RZA2M_RDK/src/tensorflow_lite/src/tensorflow/lite/kernels/internal\types.h ****   int16_t height_offset;
  44:C:/Renesas/e2studio_2021_01_workspace_RZA2M_ANPR/ANPR_RZA2M_RDK/src/tensorflow_lite/src/tensorflow/lite/kernels/internal\types.h **** };
  45:C:/Renesas/e2studio_2021_01_workspace_RZA2M_ANPR/ANPR_RZA2M_RDK/src/tensorflow_lite/src/tensorflow/lite/kernels/internal\types.h **** 
  46:C:/Renesas/e2studio_2021_01_workspace_RZA2M_ANPR/ANPR_RZA2M_RDK/src/tensorflow_lite/src/tensorflow/lite/kernels/internal\types.h **** struct Padding3DValues {
  47:C:/Renesas/e2studio_2021_01_workspace_RZA2M_ANPR/ANPR_RZA2M_RDK/src/tensorflow_lite/src/tensorflow/lite/kernels/internal\types.h ****   int16_t width;
  48:C:/Renesas/e2studio_2021_01_workspace_RZA2M_ANPR/ANPR_RZA2M_RDK/src/tensorflow_lite/src/tensorflow/lite/kernels/internal\types.h ****   int16_t height;
  49:C:/Renesas/e2studio_2021_01_workspace_RZA2M_ANPR/ANPR_RZA2M_RDK/src/tensorflow_lite/src/tensorflow/lite/kernels/internal\types.h ****   int16_t depth;
  50:C:/Renesas/e2studio_2021_01_workspace_RZA2M_ANPR/ANPR_RZA2M_RDK/src/tensorflow_lite/src/tensorflow/lite/kernels/internal\types.h ****   // offset is used for calculating "remaining" padding, for example, `width`
  51:C:/Renesas/e2studio_2021_01_workspace_RZA2M_ANPR/ANPR_RZA2M_RDK/src/tensorflow_lite/src/tensorflow/lite/kernels/internal\types.h ****   // is 1 and `width_offset` is 1, so padding_left is 1 while padding_right is
  52:C:/Renesas/e2studio_2021_01_workspace_RZA2M_ANPR/ANPR_RZA2M_RDK/src/tensorflow_lite/src/tensorflow/lite/kernels/internal\types.h ****   // 1 + 1 = 2.
  53:C:/Renesas/e2studio_2021_01_workspace_RZA2M_ANPR/ANPR_RZA2M_RDK/src/tensorflow_lite/src/tensorflow/lite/kernels/internal\types.h ****   int16_t width_offset;
  54:C:/Renesas/e2studio_2021_01_workspace_RZA2M_ANPR/ANPR_RZA2M_RDK/src/tensorflow_lite/src/tensorflow/lite/kernels/internal\types.h ****   // Same as width_offset except it's over the height dimension.
  55:C:/Renesas/e2studio_2021_01_workspace_RZA2M_ANPR/ANPR_RZA2M_RDK/src/tensorflow_lite/src/tensorflow/lite/kernels/internal\types.h ****   int16_t height_offset;
  56:C:/Renesas/e2studio_2021_01_workspace_RZA2M_ANPR/ANPR_RZA2M_RDK/src/tensorflow_lite/src/tensorflow/lite/kernels/internal\types.h ****   // Same as width_offset except it's over the depth dimension.
  57:C:/Renesas/e2studio_2021_01_workspace_RZA2M_ANPR/ANPR_RZA2M_RDK/src/tensorflow_lite/src/tensorflow/lite/kernels/internal\types.h ****   int16_t depth_offset;
  58:C:/Renesas/e2studio_2021_01_workspace_RZA2M_ANPR/ANPR_RZA2M_RDK/src/tensorflow_lite/src/tensorflow/lite/kernels/internal\types.h **** };
  59:C:/Renesas/e2studio_2021_01_workspace_RZA2M_ANPR/ANPR_RZA2M_RDK/src/tensorflow_lite/src/tensorflow/lite/kernels/internal\types.h **** 
  60:C:/Renesas/e2studio_2021_01_workspace_RZA2M_ANPR/ANPR_RZA2M_RDK/src/tensorflow_lite/src/tensorflow/lite/kernels/internal\types.h **** // This enumeration allows for non-default formats for the weights array
  61:C:/Renesas/e2studio_2021_01_workspace_RZA2M_ANPR/ANPR_RZA2M_RDK/src/tensorflow_lite/src/tensorflow/lite/kernels/internal\types.h **** // of a fully-connected operator, allowing the use of special optimized
  62:C:/Renesas/e2studio_2021_01_workspace_RZA2M_ANPR/ANPR_RZA2M_RDK/src/tensorflow_lite/src/tensorflow/lite/kernels/internal\types.h **** // runtime paths.
  63:C:/Renesas/e2studio_2021_01_workspace_RZA2M_ANPR/ANPR_RZA2M_RDK/src/tensorflow_lite/src/tensorflow/lite/kernels/internal\types.h **** enum class FullyConnectedWeightsFormat : uint8_t {
  64:C:/Renesas/e2studio_2021_01_workspace_RZA2M_ANPR/ANPR_RZA2M_RDK/src/tensorflow_lite/src/tensorflow/lite/kernels/internal\types.h ****   // Default format (flat 2D layout, the inner contiguous dimension
  65:C:/Renesas/e2studio_2021_01_workspace_RZA2M_ANPR/ANPR_RZA2M_RDK/src/tensorflow_lite/src/tensorflow/lite/kernels/internal\types.h ****   // is input_depth, the outer non-contiguous dimension is output_depth)
  66:C:/Renesas/e2studio_2021_01_workspace_RZA2M_ANPR/ANPR_RZA2M_RDK/src/tensorflow_lite/src/tensorflow/lite/kernels/internal\types.h ****   kDefault,
  67:C:/Renesas/e2studio_2021_01_workspace_RZA2M_ANPR/ANPR_RZA2M_RDK/src/tensorflow_lite/src/tensorflow/lite/kernels/internal\types.h ****   // Summary: optimized layout for fast CPU runtime implementation,
  68:C:/Renesas/e2studio_2021_01_workspace_RZA2M_ANPR/ANPR_RZA2M_RDK/src/tensorflow_lite/src/tensorflow/lite/kernels/internal\types.h ****   // aimed specifically at ARM CPUs at the moment, and specialized for
  69:C:/Renesas/e2studio_2021_01_workspace_RZA2M_ANPR/ANPR_RZA2M_RDK/src/tensorflow_lite/src/tensorflow/lite/kernels/internal\types.h ****   // 8-bit quantized layers.
  70:C:/Renesas/e2studio_2021_01_workspace_RZA2M_ANPR/ANPR_RZA2M_RDK/src/tensorflow_lite/src/tensorflow/lite/kernels/internal\types.h ****   //
  71:C:/Renesas/e2studio_2021_01_workspace_RZA2M_ANPR/ANPR_RZA2M_RDK/src/tensorflow_lite/src/tensorflow/lite/kernels/internal\types.h ****   // The use case we're concerned with here is: 8-bit quantization,
  72:C:/Renesas/e2studio_2021_01_workspace_RZA2M_ANPR/ANPR_RZA2M_RDK/src/tensorflow_lite/src/tensorflow/lite/kernels/internal\types.h ****   // large weights matrix that doesn't fit in cache (e.g. 4096x2048 in
  73:C:/Renesas/e2studio_2021_01_workspace_RZA2M_ANPR/ANPR_RZA2M_RDK/src/tensorflow_lite/src/tensorflow/lite/kernels/internal\types.h ****   // a key application that drove this), very small batch size (e.g. 1 -- 4).
  74:C:/Renesas/e2studio_2021_01_workspace_RZA2M_ANPR/ANPR_RZA2M_RDK/src/tensorflow_lite/src/tensorflow/lite/kernels/internal\types.h ****   //
  75:C:/Renesas/e2studio_2021_01_workspace_RZA2M_ANPR/ANPR_RZA2M_RDK/src/tensorflow_lite/src/tensorflow/lite/kernels/internal\types.h ****   // Even with 8-bit quantization of weights, the performance of memory
  76:C:/Renesas/e2studio_2021_01_workspace_RZA2M_ANPR/ANPR_RZA2M_RDK/src/tensorflow_lite/src/tensorflow/lite/kernels/internal\types.h ****   // accesses to the weights can become the dominant issue when
  77:C:/Renesas/e2studio_2021_01_workspace_RZA2M_ANPR/ANPR_RZA2M_RDK/src/tensorflow_lite/src/tensorflow/lite/kernels/internal\types.h ****   // the batch size is small, so each weight value is used in only a few
  78:C:/Renesas/e2studio_2021_01_workspace_RZA2M_ANPR/ANPR_RZA2M_RDK/src/tensorflow_lite/src/tensorflow/lite/kernels/internal\types.h ****   // arithmetic ops, i.e. the fully-connected node has a low arithmetic
  79:C:/Renesas/e2studio_2021_01_workspace_RZA2M_ANPR/ANPR_RZA2M_RDK/src/tensorflow_lite/src/tensorflow/lite/kernels/internal\types.h ****   // intensity. The specific issues that arise are of three kinds:
  80:C:/Renesas/e2studio_2021_01_workspace_RZA2M_ANPR/ANPR_RZA2M_RDK/src/tensorflow_lite/src/tensorflow/lite/kernels/internal\types.h ****   // (1) One may, ideally, max out DRAM bandwidth, i.e. be truly memory
  81:C:/Renesas/e2studio_2021_01_workspace_RZA2M_ANPR/ANPR_RZA2M_RDK/src/tensorflow_lite/src/tensorflow/lite/kernels/internal\types.h ****   //     bound. That's the "good" issue to run into.
  82:C:/Renesas/e2studio_2021_01_workspace_RZA2M_ANPR/ANPR_RZA2M_RDK/src/tensorflow_lite/src/tensorflow/lite/kernels/internal\types.h ****   // (2) One may run into sub-optimal pre-fetching: the data hasn't been
  83:C:/Renesas/e2studio_2021_01_workspace_RZA2M_ANPR/ANPR_RZA2M_RDK/src/tensorflow_lite/src/tensorflow/lite/kernels/internal\types.h ****   //     prefetched into the cache by the time we need it.
  84:C:/Renesas/e2studio_2021_01_workspace_RZA2M_ANPR/ANPR_RZA2M_RDK/src/tensorflow_lite/src/tensorflow/lite/kernels/internal\types.h ****   // (3) One may run into cache aliasing: multiple values that are
  85:C:/Renesas/e2studio_2021_01_workspace_RZA2M_ANPR/ANPR_RZA2M_RDK/src/tensorflow_lite/src/tensorflow/lite/kernels/internal\types.h ****   //     pre-fetched, alias each other in the L1 cache (which typically
  86:C:/Renesas/e2studio_2021_01_workspace_RZA2M_ANPR/ANPR_RZA2M_RDK/src/tensorflow_lite/src/tensorflow/lite/kernels/internal\types.h ****   //     has only 4-way set associativity in ARM CPUs) and thus evict
  87:C:/Renesas/e2studio_2021_01_workspace_RZA2M_ANPR/ANPR_RZA2M_RDK/src/tensorflow_lite/src/tensorflow/lite/kernels/internal\types.h ****   //     each other before we get to using them.
  88:C:/Renesas/e2studio_2021_01_workspace_RZA2M_ANPR/ANPR_RZA2M_RDK/src/tensorflow_lite/src/tensorflow/lite/kernels/internal\types.h ****   //
  89:C:/Renesas/e2studio_2021_01_workspace_RZA2M_ANPR/ANPR_RZA2M_RDK/src/tensorflow_lite/src/tensorflow/lite/kernels/internal\types.h ****   // The point of this shuffling is to avoid issues (2) and (3) so that
  90:C:/Renesas/e2studio_2021_01_workspace_RZA2M_ANPR/ANPR_RZA2M_RDK/src/tensorflow_lite/src/tensorflow/lite/kernels/internal\types.h ****   // we get as fast as possible given only the hard constraint (1).
  91:C:/Renesas/e2studio_2021_01_workspace_RZA2M_ANPR/ANPR_RZA2M_RDK/src/tensorflow_lite/src/tensorflow/lite/kernels/internal\types.h ****   // This is achieved by turning the difficulty into a solution: the
  92:C:/Renesas/e2studio_2021_01_workspace_RZA2M_ANPR/ANPR_RZA2M_RDK/src/tensorflow_lite/src/tensorflow/lite/kernels/internal\types.h ****   // difficulty, that each value loaded from memory is used only in
  93:C:/Renesas/e2studio_2021_01_workspace_RZA2M_ANPR/ANPR_RZA2M_RDK/src/tensorflow_lite/src/tensorflow/lite/kernels/internal\types.h ****   // one kernel iteration, making this operation memory-intensive, hints at
  94:C:/Renesas/e2studio_2021_01_workspace_RZA2M_ANPR/ANPR_RZA2M_RDK/src/tensorflow_lite/src/tensorflow/lite/kernels/internal\types.h ****   // the solution, of shuffling the weights so that they are stored in the
  95:C:/Renesas/e2studio_2021_01_workspace_RZA2M_ANPR/ANPR_RZA2M_RDK/src/tensorflow_lite/src/tensorflow/lite/kernels/internal\types.h ****   // exact order as the kernel needs to load them, so that the memory
  96:C:/Renesas/e2studio_2021_01_workspace_RZA2M_ANPR/ANPR_RZA2M_RDK/src/tensorflow_lite/src/tensorflow/lite/kernels/internal\types.h ****   // accesses made by the kernel are trivial. This solves (2) because the
  97:C:/Renesas/e2studio_2021_01_workspace_RZA2M_ANPR/ANPR_RZA2M_RDK/src/tensorflow_lite/src/tensorflow/lite/kernels/internal\types.h ****   // trivial memory access pattern allows the CPU's automatic prefetching
  98:C:/Renesas/e2studio_2021_01_workspace_RZA2M_ANPR/ANPR_RZA2M_RDK/src/tensorflow_lite/src/tensorflow/lite/kernels/internal\types.h ****   // to perform very well (no need even for preload instructions), and this
  99:C:/Renesas/e2studio_2021_01_workspace_RZA2M_ANPR/ANPR_RZA2M_RDK/src/tensorflow_lite/src/tensorflow/lite/kernels/internal\types.h ****   // solves (3) because the values being loaded concurrently are now
 100:C:/Renesas/e2studio_2021_01_workspace_RZA2M_ANPR/ANPR_RZA2M_RDK/src/tensorflow_lite/src/tensorflow/lite/kernels/internal\types.h ****   // contiguous in the address space, thus don't alias each other in the cache.
 101:C:/Renesas/e2studio_2021_01_workspace_RZA2M_ANPR/ANPR_RZA2M_RDK/src/tensorflow_lite/src/tensorflow/lite/kernels/internal\types.h ****   //
 102:C:/Renesas/e2studio_2021_01_workspace_RZA2M_ANPR/ANPR_RZA2M_RDK/src/tensorflow_lite/src/tensorflow/lite/kernels/internal\types.h ****   // On ARM, we typically want our kernel to process a 4x16 block of weights
 103:C:/Renesas/e2studio_2021_01_workspace_RZA2M_ANPR/ANPR_RZA2M_RDK/src/tensorflow_lite/src/tensorflow/lite/kernels/internal\types.h ****   // at a time, because:
 104:C:/Renesas/e2studio_2021_01_workspace_RZA2M_ANPR/ANPR_RZA2M_RDK/src/tensorflow_lite/src/tensorflow/lite/kernels/internal\types.h ****   //   - 16 is the number of bytes in a NEON register.
 105:C:/Renesas/e2studio_2021_01_workspace_RZA2M_ANPR/ANPR_RZA2M_RDK/src/tensorflow_lite/src/tensorflow/lite/kernels/internal\types.h ****   //   - 4 is how many rows we need to handle concurrently in the kernel in
 106:C:/Renesas/e2studio_2021_01_workspace_RZA2M_ANPR/ANPR_RZA2M_RDK/src/tensorflow_lite/src/tensorflow/lite/kernels/internal\types.h ****   //     order to have sufficient mutual independence of instructions to
 107:C:/Renesas/e2studio_2021_01_workspace_RZA2M_ANPR/ANPR_RZA2M_RDK/src/tensorflow_lite/src/tensorflow/lite/kernels/internal\types.h ****   //     maximize arithmetic throughput.
 108:C:/Renesas/e2studio_2021_01_workspace_RZA2M_ANPR/ANPR_RZA2M_RDK/src/tensorflow_lite/src/tensorflow/lite/kernels/internal\types.h ****   //
 109:C:/Renesas/e2studio_2021_01_workspace_RZA2M_ANPR/ANPR_RZA2M_RDK/src/tensorflow_lite/src/tensorflow/lite/kernels/internal\types.h ****   // Finally, the 'Int8' part in the name refers to the fact that this
 110:C:/Renesas/e2studio_2021_01_workspace_RZA2M_ANPR/ANPR_RZA2M_RDK/src/tensorflow_lite/src/tensorflow/lite/kernels/internal\types.h ****   // weights format has each weights value encoded as a signed int8_t value,
 111:C:/Renesas/e2studio_2021_01_workspace_RZA2M_ANPR/ANPR_RZA2M_RDK/src/tensorflow_lite/src/tensorflow/lite/kernels/internal\types.h ****   // even if the data type of the weights buffer is uint8_t.  This is intended
 112:C:/Renesas/e2studio_2021_01_workspace_RZA2M_ANPR/ANPR_RZA2M_RDK/src/tensorflow_lite/src/tensorflow/lite/kernels/internal\types.h ****   // to save runtime kernels the effort to have to XOR the top bit of these
 113:C:/Renesas/e2studio_2021_01_workspace_RZA2M_ANPR/ANPR_RZA2M_RDK/src/tensorflow_lite/src/tensorflow/lite/kernels/internal\types.h ****   // bytes before using them in signed arithmetic, see this file for more
 114:C:/Renesas/e2studio_2021_01_workspace_RZA2M_ANPR/ANPR_RZA2M_RDK/src/tensorflow_lite/src/tensorflow/lite/kernels/internal\types.h ****   // explanations on the 'signed int8_t trick' in matrix multiplication kernels:
 115:C:/Renesas/e2studio_2021_01_workspace_RZA2M_ANPR/ANPR_RZA2M_RDK/src/tensorflow_lite/src/tensorflow/lite/kernels/internal\types.h ****   //
 116:C:/Renesas/e2studio_2021_01_workspace_RZA2M_ANPR/ANPR_RZA2M_RDK/src/tensorflow_lite/src/tensorflow/lite/kernels/internal\types.h ****   //   tensorflow/lite/toco/graph_transformations/ensure_uint8_weights_safe_for_fast_int8_kernels.c
 117:C:/Renesas/e2studio_2021_01_workspace_RZA2M_ANPR/ANPR_RZA2M_RDK/src/tensorflow_lite/src/tensorflow/lite/kernels/internal\types.h ****   //
 118:C:/Renesas/e2studio_2021_01_workspace_RZA2M_ANPR/ANPR_RZA2M_RDK/src/tensorflow_lite/src/tensorflow/lite/kernels/internal\types.h ****   kShuffled4x16Int8,
 119:C:/Renesas/e2studio_2021_01_workspace_RZA2M_ANPR/ANPR_RZA2M_RDK/src/tensorflow_lite/src/tensorflow/lite/kernels/internal\types.h **** };
 120:C:/Renesas/e2studio_2021_01_workspace_RZA2M_ANPR/ANPR_RZA2M_RDK/src/tensorflow_lite/src/tensorflow/lite/kernels/internal\types.h **** 
 121:C:/Renesas/e2studio_2021_01_workspace_RZA2M_ANPR/ANPR_RZA2M_RDK/src/tensorflow_lite/src/tensorflow/lite/kernels/internal\types.h **** // Quantization parameters, determining the mapping of quantized values
 122:C:/Renesas/e2studio_2021_01_workspace_RZA2M_ANPR/ANPR_RZA2M_RDK/src/tensorflow_lite/src/tensorflow/lite/kernels/internal\types.h **** // to real values (i.e. determining how quantized values are mathematically
 123:C:/Renesas/e2studio_2021_01_workspace_RZA2M_ANPR/ANPR_RZA2M_RDK/src/tensorflow_lite/src/tensorflow/lite/kernels/internal\types.h **** // interpreted).
 124:C:/Renesas/e2studio_2021_01_workspace_RZA2M_ANPR/ANPR_RZA2M_RDK/src/tensorflow_lite/src/tensorflow/lite/kernels/internal\types.h **** //
 125:C:/Renesas/e2studio_2021_01_workspace_RZA2M_ANPR/ANPR_RZA2M_RDK/src/tensorflow_lite/src/tensorflow/lite/kernels/internal\types.h **** // The correspondence is as follows:
 126:C:/Renesas/e2studio_2021_01_workspace_RZA2M_ANPR/ANPR_RZA2M_RDK/src/tensorflow_lite/src/tensorflow/lite/kernels/internal\types.h **** //
 127:C:/Renesas/e2studio_2021_01_workspace_RZA2M_ANPR/ANPR_RZA2M_RDK/src/tensorflow_lite/src/tensorflow/lite/kernels/internal\types.h **** //   real_value = scale * (quantized_value - zero_point);
 128:C:/Renesas/e2studio_2021_01_workspace_RZA2M_ANPR/ANPR_RZA2M_RDK/src/tensorflow_lite/src/tensorflow/lite/kernels/internal\types.h **** //
 129:C:/Renesas/e2studio_2021_01_workspace_RZA2M_ANPR/ANPR_RZA2M_RDK/src/tensorflow_lite/src/tensorflow/lite/kernels/internal\types.h **** // In other words, zero_point designates which quantized value corresponds to
 130:C:/Renesas/e2studio_2021_01_workspace_RZA2M_ANPR/ANPR_RZA2M_RDK/src/tensorflow_lite/src/tensorflow/lite/kernels/internal\types.h **** // the real 0 value, and scale designates the difference between the real values
 131:C:/Renesas/e2studio_2021_01_workspace_RZA2M_ANPR/ANPR_RZA2M_RDK/src/tensorflow_lite/src/tensorflow/lite/kernels/internal\types.h **** // corresponding to consecutive quantized values differing by 1.
 132:C:/Renesas/e2studio_2021_01_workspace_RZA2M_ANPR/ANPR_RZA2M_RDK/src/tensorflow_lite/src/tensorflow/lite/kernels/internal\types.h **** struct QuantizationParams {
 133:C:/Renesas/e2studio_2021_01_workspace_RZA2M_ANPR/ANPR_RZA2M_RDK/src/tensorflow_lite/src/tensorflow/lite/kernels/internal\types.h ****   int32_t zero_point = 0;
 134:C:/Renesas/e2studio_2021_01_workspace_RZA2M_ANPR/ANPR_RZA2M_RDK/src/tensorflow_lite/src/tensorflow/lite/kernels/internal\types.h ****   double scale = 0.0;
 135:C:/Renesas/e2studio_2021_01_workspace_RZA2M_ANPR/ANPR_RZA2M_RDK/src/tensorflow_lite/src/tensorflow/lite/kernels/internal\types.h **** };
 136:C:/Renesas/e2studio_2021_01_workspace_RZA2M_ANPR/ANPR_RZA2M_RDK/src/tensorflow_lite/src/tensorflow/lite/kernels/internal\types.h **** 
 137:C:/Renesas/e2studio_2021_01_workspace_RZA2M_ANPR/ANPR_RZA2M_RDK/src/tensorflow_lite/src/tensorflow/lite/kernels/internal\types.h **** inline bool operator==(const QuantizationParams& qp1,
 138:C:/Renesas/e2studio_2021_01_workspace_RZA2M_ANPR/ANPR_RZA2M_RDK/src/tensorflow_lite/src/tensorflow/lite/kernels/internal\types.h ****                        const QuantizationParams& qp2) {
 139:C:/Renesas/e2studio_2021_01_workspace_RZA2M_ANPR/ANPR_RZA2M_RDK/src/tensorflow_lite/src/tensorflow/lite/kernels/internal\types.h ****   return qp1.zero_point == qp2.zero_point && qp1.scale == qp2.scale;
 140:C:/Renesas/e2studio_2021_01_workspace_RZA2M_ANPR/ANPR_RZA2M_RDK/src/tensorflow_lite/src/tensorflow/lite/kernels/internal\types.h **** }
 141:C:/Renesas/e2studio_2021_01_workspace_RZA2M_ANPR/ANPR_RZA2M_RDK/src/tensorflow_lite/src/tensorflow/lite/kernels/internal\types.h **** 
 142:C:/Renesas/e2studio_2021_01_workspace_RZA2M_ANPR/ANPR_RZA2M_RDK/src/tensorflow_lite/src/tensorflow/lite/kernels/internal\types.h **** template <int N>
 143:C:/Renesas/e2studio_2021_01_workspace_RZA2M_ANPR/ANPR_RZA2M_RDK/src/tensorflow_lite/src/tensorflow/lite/kernels/internal\types.h **** struct Dims {
 144:C:/Renesas/e2studio_2021_01_workspace_RZA2M_ANPR/ANPR_RZA2M_RDK/src/tensorflow_lite/src/tensorflow/lite/kernels/internal\types.h ****   int sizes[N];
 145:C:/Renesas/e2studio_2021_01_workspace_RZA2M_ANPR/ANPR_RZA2M_RDK/src/tensorflow_lite/src/tensorflow/lite/kernels/internal\types.h ****   int strides[N];
 146:C:/Renesas/e2studio_2021_01_workspace_RZA2M_ANPR/ANPR_RZA2M_RDK/src/tensorflow_lite/src/tensorflow/lite/kernels/internal\types.h **** };
 147:C:/Renesas/e2studio_2021_01_workspace_RZA2M_ANPR/ANPR_RZA2M_RDK/src/tensorflow_lite/src/tensorflow/lite/kernels/internal\types.h **** 
 148:C:/Renesas/e2studio_2021_01_workspace_RZA2M_ANPR/ANPR_RZA2M_RDK/src/tensorflow_lite/src/tensorflow/lite/kernels/internal\types.h **** class RuntimeShape {
 149:C:/Renesas/e2studio_2021_01_workspace_RZA2M_ANPR/ANPR_RZA2M_RDK/src/tensorflow_lite/src/tensorflow/lite/kernels/internal\types.h ****  public:
 150:C:/Renesas/e2studio_2021_01_workspace_RZA2M_ANPR/ANPR_RZA2M_RDK/src/tensorflow_lite/src/tensorflow/lite/kernels/internal\types.h ****   // Shapes with dimensions up to 5 are stored directly in the structure, while
 151:C:/Renesas/e2studio_2021_01_workspace_RZA2M_ANPR/ANPR_RZA2M_RDK/src/tensorflow_lite/src/tensorflow/lite/kernels/internal\types.h ****   // larger shapes are separately allocated.
 152:C:/Renesas/e2studio_2021_01_workspace_RZA2M_ANPR/ANPR_RZA2M_RDK/src/tensorflow_lite/src/tensorflow/lite/kernels/internal\types.h ****   static constexpr int kMaxSmallSize = 5;
 153:C:/Renesas/e2studio_2021_01_workspace_RZA2M_ANPR/ANPR_RZA2M_RDK/src/tensorflow_lite/src/tensorflow/lite/kernels/internal\types.h **** 
 154:C:/Renesas/e2studio_2021_01_workspace_RZA2M_ANPR/ANPR_RZA2M_RDK/src/tensorflow_lite/src/tensorflow/lite/kernels/internal\types.h ****   RuntimeShape& operator=(RuntimeShape const&) = delete;
 155:C:/Renesas/e2studio_2021_01_workspace_RZA2M_ANPR/ANPR_RZA2M_RDK/src/tensorflow_lite/src/tensorflow/lite/kernels/internal\types.h **** 
 156:C:/Renesas/e2studio_2021_01_workspace_RZA2M_ANPR/ANPR_RZA2M_RDK/src/tensorflow_lite/src/tensorflow/lite/kernels/internal\types.h ****   RuntimeShape() : size_(0) {}
 157:C:/Renesas/e2studio_2021_01_workspace_RZA2M_ANPR/ANPR_RZA2M_RDK/src/tensorflow_lite/src/tensorflow/lite/kernels/internal\types.h **** 
 158:C:/Renesas/e2studio_2021_01_workspace_RZA2M_ANPR/ANPR_RZA2M_RDK/src/tensorflow_lite/src/tensorflow/lite/kernels/internal\types.h ****   explicit RuntimeShape(int dimensions_count) : size_(dimensions_count) {
 159:C:/Renesas/e2studio_2021_01_workspace_RZA2M_ANPR/ANPR_RZA2M_RDK/src/tensorflow_lite/src/tensorflow/lite/kernels/internal\types.h ****     if (dimensions_count > kMaxSmallSize) {
 160:C:/Renesas/e2studio_2021_01_workspace_RZA2M_ANPR/ANPR_RZA2M_RDK/src/tensorflow_lite/src/tensorflow/lite/kernels/internal\types.h **** #ifdef TF_LITE_STATIC_MEMORY
 161:C:/Renesas/e2studio_2021_01_workspace_RZA2M_ANPR/ANPR_RZA2M_RDK/src/tensorflow_lite/src/tensorflow/lite/kernels/internal\types.h ****       TFLITE_CHECK(false && "No shape resizing supported on this platform");
 162:C:/Renesas/e2studio_2021_01_workspace_RZA2M_ANPR/ANPR_RZA2M_RDK/src/tensorflow_lite/src/tensorflow/lite/kernels/internal\types.h **** #else  // TF_LITE_STATIC_MEMORY
 163:C:/Renesas/e2studio_2021_01_workspace_RZA2M_ANPR/ANPR_RZA2M_RDK/src/tensorflow_lite/src/tensorflow/lite/kernels/internal\types.h ****       dims_pointer_ = new int32_t[dimensions_count];
 164:C:/Renesas/e2studio_2021_01_workspace_RZA2M_ANPR/ANPR_RZA2M_RDK/src/tensorflow_lite/src/tensorflow/lite/kernels/internal\types.h **** #endif  // TF_LITE_STATIC_MEMORY
 165:C:/Renesas/e2studio_2021_01_workspace_RZA2M_ANPR/ANPR_RZA2M_RDK/src/tensorflow_lite/src/tensorflow/lite/kernels/internal\types.h ****     }
 166:C:/Renesas/e2studio_2021_01_workspace_RZA2M_ANPR/ANPR_RZA2M_RDK/src/tensorflow_lite/src/tensorflow/lite/kernels/internal\types.h ****   }
 167:C:/Renesas/e2studio_2021_01_workspace_RZA2M_ANPR/ANPR_RZA2M_RDK/src/tensorflow_lite/src/tensorflow/lite/kernels/internal\types.h **** 
 168:C:/Renesas/e2studio_2021_01_workspace_RZA2M_ANPR/ANPR_RZA2M_RDK/src/tensorflow_lite/src/tensorflow/lite/kernels/internal\types.h ****   RuntimeShape(int shape_size, int32_t value) : size_(0) {
 169:C:/Renesas/e2studio_2021_01_workspace_RZA2M_ANPR/ANPR_RZA2M_RDK/src/tensorflow_lite/src/tensorflow/lite/kernels/internal\types.h ****     Resize(shape_size);
 170:C:/Renesas/e2studio_2021_01_workspace_RZA2M_ANPR/ANPR_RZA2M_RDK/src/tensorflow_lite/src/tensorflow/lite/kernels/internal\types.h ****     for (int i = 0; i < shape_size; ++i) {
 171:C:/Renesas/e2studio_2021_01_workspace_RZA2M_ANPR/ANPR_RZA2M_RDK/src/tensorflow_lite/src/tensorflow/lite/kernels/internal\types.h ****       SetDim(i, value);
 172:C:/Renesas/e2studio_2021_01_workspace_RZA2M_ANPR/ANPR_RZA2M_RDK/src/tensorflow_lite/src/tensorflow/lite/kernels/internal\types.h ****     }
 173:C:/Renesas/e2studio_2021_01_workspace_RZA2M_ANPR/ANPR_RZA2M_RDK/src/tensorflow_lite/src/tensorflow/lite/kernels/internal\types.h ****   }
 174:C:/Renesas/e2studio_2021_01_workspace_RZA2M_ANPR/ANPR_RZA2M_RDK/src/tensorflow_lite/src/tensorflow/lite/kernels/internal\types.h **** 
 175:C:/Renesas/e2studio_2021_01_workspace_RZA2M_ANPR/ANPR_RZA2M_RDK/src/tensorflow_lite/src/tensorflow/lite/kernels/internal\types.h ****   RuntimeShape(int dimensions_count, const int32_t* dims_data) : size_(0) {
 176:C:/Renesas/e2studio_2021_01_workspace_RZA2M_ANPR/ANPR_RZA2M_RDK/src/tensorflow_lite/src/tensorflow/lite/kernels/internal\types.h ****     ReplaceWith(dimensions_count, dims_data);
 177:C:/Renesas/e2studio_2021_01_workspace_RZA2M_ANPR/ANPR_RZA2M_RDK/src/tensorflow_lite/src/tensorflow/lite/kernels/internal\types.h ****   }
 178:C:/Renesas/e2studio_2021_01_workspace_RZA2M_ANPR/ANPR_RZA2M_RDK/src/tensorflow_lite/src/tensorflow/lite/kernels/internal\types.h **** 
 179:C:/Renesas/e2studio_2021_01_workspace_RZA2M_ANPR/ANPR_RZA2M_RDK/src/tensorflow_lite/src/tensorflow/lite/kernels/internal\types.h ****   RuntimeShape(const std::initializer_list<int> init_list) : size_(0) {
 180:C:/Renesas/e2studio_2021_01_workspace_RZA2M_ANPR/ANPR_RZA2M_RDK/src/tensorflow_lite/src/tensorflow/lite/kernels/internal\types.h ****     BuildFrom(init_list);
 181:C:/Renesas/e2studio_2021_01_workspace_RZA2M_ANPR/ANPR_RZA2M_RDK/src/tensorflow_lite/src/tensorflow/lite/kernels/internal\types.h ****   }
 182:C:/Renesas/e2studio_2021_01_workspace_RZA2M_ANPR/ANPR_RZA2M_RDK/src/tensorflow_lite/src/tensorflow/lite/kernels/internal\types.h **** 
 183:C:/Renesas/e2studio_2021_01_workspace_RZA2M_ANPR/ANPR_RZA2M_RDK/src/tensorflow_lite/src/tensorflow/lite/kernels/internal\types.h ****   // Avoid using this constructor.  We should be able to delete it when C++17
 184:C:/Renesas/e2studio_2021_01_workspace_RZA2M_ANPR/ANPR_RZA2M_RDK/src/tensorflow_lite/src/tensorflow/lite/kernels/internal\types.h ****   // rolls out.
 185:C:/Renesas/e2studio_2021_01_workspace_RZA2M_ANPR/ANPR_RZA2M_RDK/src/tensorflow_lite/src/tensorflow/lite/kernels/internal\types.h ****   RuntimeShape(RuntimeShape const& other) : size_(other.DimensionsCount()) {
 186:C:/Renesas/e2studio_2021_01_workspace_RZA2M_ANPR/ANPR_RZA2M_RDK/src/tensorflow_lite/src/tensorflow/lite/kernels/internal\types.h ****     if (size_ > kMaxSmallSize) {
 187:C:/Renesas/e2studio_2021_01_workspace_RZA2M_ANPR/ANPR_RZA2M_RDK/src/tensorflow_lite/src/tensorflow/lite/kernels/internal\types.h **** #ifdef TF_LITE_STATIC_MEMORY
 188:C:/Renesas/e2studio_2021_01_workspace_RZA2M_ANPR/ANPR_RZA2M_RDK/src/tensorflow_lite/src/tensorflow/lite/kernels/internal\types.h ****       TFLITE_CHECK(false && "No shape resizing supported on this platform");
 189:C:/Renesas/e2studio_2021_01_workspace_RZA2M_ANPR/ANPR_RZA2M_RDK/src/tensorflow_lite/src/tensorflow/lite/kernels/internal\types.h **** #else
 190:C:/Renesas/e2studio_2021_01_workspace_RZA2M_ANPR/ANPR_RZA2M_RDK/src/tensorflow_lite/src/tensorflow/lite/kernels/internal\types.h ****       dims_pointer_ = new int32_t[size_];
 191:C:/Renesas/e2studio_2021_01_workspace_RZA2M_ANPR/ANPR_RZA2M_RDK/src/tensorflow_lite/src/tensorflow/lite/kernels/internal\types.h **** #endif
 192:C:/Renesas/e2studio_2021_01_workspace_RZA2M_ANPR/ANPR_RZA2M_RDK/src/tensorflow_lite/src/tensorflow/lite/kernels/internal\types.h ****     }
 193:C:/Renesas/e2studio_2021_01_workspace_RZA2M_ANPR/ANPR_RZA2M_RDK/src/tensorflow_lite/src/tensorflow/lite/kernels/internal\types.h ****     std::memcpy(DimsData(), other.DimsData(), sizeof(int32_t) * size_);
 194:C:/Renesas/e2studio_2021_01_workspace_RZA2M_ANPR/ANPR_RZA2M_RDK/src/tensorflow_lite/src/tensorflow/lite/kernels/internal\types.h ****   }
 195:C:/Renesas/e2studio_2021_01_workspace_RZA2M_ANPR/ANPR_RZA2M_RDK/src/tensorflow_lite/src/tensorflow/lite/kernels/internal\types.h **** 
 196:C:/Renesas/e2studio_2021_01_workspace_RZA2M_ANPR/ANPR_RZA2M_RDK/src/tensorflow_lite/src/tensorflow/lite/kernels/internal\types.h ****   bool operator==(const RuntimeShape& comp) const {
 197:C:/Renesas/e2studio_2021_01_workspace_RZA2M_ANPR/ANPR_RZA2M_RDK/src/tensorflow_lite/src/tensorflow/lite/kernels/internal\types.h ****     return this->size_ == comp.size_ &&
 198:C:/Renesas/e2studio_2021_01_workspace_RZA2M_ANPR/ANPR_RZA2M_RDK/src/tensorflow_lite/src/tensorflow/lite/kernels/internal\types.h ****            std::memcmp(DimsData(), comp.DimsData(), size_ * sizeof(int32_t)) ==
 199:C:/Renesas/e2studio_2021_01_workspace_RZA2M_ANPR/ANPR_RZA2M_RDK/src/tensorflow_lite/src/tensorflow/lite/kernels/internal\types.h ****                0;
 200:C:/Renesas/e2studio_2021_01_workspace_RZA2M_ANPR/ANPR_RZA2M_RDK/src/tensorflow_lite/src/tensorflow/lite/kernels/internal\types.h ****   }
 201:C:/Renesas/e2studio_2021_01_workspace_RZA2M_ANPR/ANPR_RZA2M_RDK/src/tensorflow_lite/src/tensorflow/lite/kernels/internal\types.h **** 
 202:C:/Renesas/e2studio_2021_01_workspace_RZA2M_ANPR/ANPR_RZA2M_RDK/src/tensorflow_lite/src/tensorflow/lite/kernels/internal\types.h ****   ~RuntimeShape() {
 203:C:/Renesas/e2studio_2021_01_workspace_RZA2M_ANPR/ANPR_RZA2M_RDK/src/tensorflow_lite/src/tensorflow/lite/kernels/internal\types.h ****     if (size_ > kMaxSmallSize) {
 204:C:/Renesas/e2studio_2021_01_workspace_RZA2M_ANPR/ANPR_RZA2M_RDK/src/tensorflow_lite/src/tensorflow/lite/kernels/internal\types.h **** #ifdef TF_LITE_STATIC_MEMORY
 205:C:/Renesas/e2studio_2021_01_workspace_RZA2M_ANPR/ANPR_RZA2M_RDK/src/tensorflow_lite/src/tensorflow/lite/kernels/internal\types.h ****       TFLITE_CHECK(false && "No shape resizing supported on this platform");
 206:C:/Renesas/e2studio_2021_01_workspace_RZA2M_ANPR/ANPR_RZA2M_RDK/src/tensorflow_lite/src/tensorflow/lite/kernels/internal\types.h **** #else  // TF_LITE_STATIC_MEMORY
 207:C:/Renesas/e2studio_2021_01_workspace_RZA2M_ANPR/ANPR_RZA2M_RDK/src/tensorflow_lite/src/tensorflow/lite/kernels/internal\types.h ****       delete[] dims_pointer_;
 208:C:/Renesas/e2studio_2021_01_workspace_RZA2M_ANPR/ANPR_RZA2M_RDK/src/tensorflow_lite/src/tensorflow/lite/kernels/internal\types.h **** #endif  // TF_LITE_STATIC_MEMORY
 209:C:/Renesas/e2studio_2021_01_workspace_RZA2M_ANPR/ANPR_RZA2M_RDK/src/tensorflow_lite/src/tensorflow/lite/kernels/internal\types.h ****     }
 210:C:/Renesas/e2studio_2021_01_workspace_RZA2M_ANPR/ANPR_RZA2M_RDK/src/tensorflow_lite/src/tensorflow/lite/kernels/internal\types.h ****   }
 211:C:/Renesas/e2studio_2021_01_workspace_RZA2M_ANPR/ANPR_RZA2M_RDK/src/tensorflow_lite/src/tensorflow/lite/kernels/internal\types.h **** 
 212:C:/Renesas/e2studio_2021_01_workspace_RZA2M_ANPR/ANPR_RZA2M_RDK/src/tensorflow_lite/src/tensorflow/lite/kernels/internal\types.h ****   inline int32_t DimensionsCount() const { return size_; }
 213:C:/Renesas/e2studio_2021_01_workspace_RZA2M_ANPR/ANPR_RZA2M_RDK/src/tensorflow_lite/src/tensorflow/lite/kernels/internal\types.h ****   inline int32_t Dims(int i) const {
 214:C:/Renesas/e2studio_2021_01_workspace_RZA2M_ANPR/ANPR_RZA2M_RDK/src/tensorflow_lite/src/tensorflow/lite/kernels/internal\types.h ****     TFLITE_DCHECK_GE(i, 0);
 215:C:/Renesas/e2studio_2021_01_workspace_RZA2M_ANPR/ANPR_RZA2M_RDK/src/tensorflow_lite/src/tensorflow/lite/kernels/internal\types.h ****     TFLITE_DCHECK_LT(i, size_);
 216:C:/Renesas/e2studio_2021_01_workspace_RZA2M_ANPR/ANPR_RZA2M_RDK/src/tensorflow_lite/src/tensorflow/lite/kernels/internal\types.h ****     return size_ > kMaxSmallSize ? dims_pointer_[i] : dims_[i];
 217:C:/Renesas/e2studio_2021_01_workspace_RZA2M_ANPR/ANPR_RZA2M_RDK/src/tensorflow_lite/src/tensorflow/lite/kernels/internal\types.h ****   }
 218:C:/Renesas/e2studio_2021_01_workspace_RZA2M_ANPR/ANPR_RZA2M_RDK/src/tensorflow_lite/src/tensorflow/lite/kernels/internal\types.h ****   inline void SetDim(int i, int32_t val) {
 219:C:/Renesas/e2studio_2021_01_workspace_RZA2M_ANPR/ANPR_RZA2M_RDK/src/tensorflow_lite/src/tensorflow/lite/kernels/internal\types.h ****     TFLITE_DCHECK_GE(i, 0);
 220:C:/Renesas/e2studio_2021_01_workspace_RZA2M_ANPR/ANPR_RZA2M_RDK/src/tensorflow_lite/src/tensorflow/lite/kernels/internal\types.h ****     TFLITE_DCHECK_LT(i, size_);
 221:C:/Renesas/e2studio_2021_01_workspace_RZA2M_ANPR/ANPR_RZA2M_RDK/src/tensorflow_lite/src/tensorflow/lite/kernels/internal\types.h ****     if (size_ > kMaxSmallSize) {
 222:C:/Renesas/e2studio_2021_01_workspace_RZA2M_ANPR/ANPR_RZA2M_RDK/src/tensorflow_lite/src/tensorflow/lite/kernels/internal\types.h ****       dims_pointer_[i] = val;
 223:C:/Renesas/e2studio_2021_01_workspace_RZA2M_ANPR/ANPR_RZA2M_RDK/src/tensorflow_lite/src/tensorflow/lite/kernels/internal\types.h ****     } else {
 224:C:/Renesas/e2studio_2021_01_workspace_RZA2M_ANPR/ANPR_RZA2M_RDK/src/tensorflow_lite/src/tensorflow/lite/kernels/internal\types.h ****       dims_[i] = val;
 225:C:/Renesas/e2studio_2021_01_workspace_RZA2M_ANPR/ANPR_RZA2M_RDK/src/tensorflow_lite/src/tensorflow/lite/kernels/internal\types.h ****     }
 226:C:/Renesas/e2studio_2021_01_workspace_RZA2M_ANPR/ANPR_RZA2M_RDK/src/tensorflow_lite/src/tensorflow/lite/kernels/internal\types.h ****   }
 227:C:/Renesas/e2studio_2021_01_workspace_RZA2M_ANPR/ANPR_RZA2M_RDK/src/tensorflow_lite/src/tensorflow/lite/kernels/internal\types.h **** 
 228:C:/Renesas/e2studio_2021_01_workspace_RZA2M_ANPR/ANPR_RZA2M_RDK/src/tensorflow_lite/src/tensorflow/lite/kernels/internal\types.h ****   inline int32_t* DimsData() {
 229:C:/Renesas/e2studio_2021_01_workspace_RZA2M_ANPR/ANPR_RZA2M_RDK/src/tensorflow_lite/src/tensorflow/lite/kernels/internal\types.h ****     return size_ > kMaxSmallSize ? dims_pointer_ : dims_;
 230:C:/Renesas/e2studio_2021_01_workspace_RZA2M_ANPR/ANPR_RZA2M_RDK/src/tensorflow_lite/src/tensorflow/lite/kernels/internal\types.h ****   }
 231:C:/Renesas/e2studio_2021_01_workspace_RZA2M_ANPR/ANPR_RZA2M_RDK/src/tensorflow_lite/src/tensorflow/lite/kernels/internal\types.h ****   inline const int32_t* DimsData() const {
 232:C:/Renesas/e2studio_2021_01_workspace_RZA2M_ANPR/ANPR_RZA2M_RDK/src/tensorflow_lite/src/tensorflow/lite/kernels/internal\types.h ****     return size_ > kMaxSmallSize ? dims_pointer_ : dims_;
 233:C:/Renesas/e2studio_2021_01_workspace_RZA2M_ANPR/ANPR_RZA2M_RDK/src/tensorflow_lite/src/tensorflow/lite/kernels/internal\types.h ****   }
 234:C:/Renesas/e2studio_2021_01_workspace_RZA2M_ANPR/ANPR_RZA2M_RDK/src/tensorflow_lite/src/tensorflow/lite/kernels/internal\types.h ****   // The caller must ensure that the shape is no bigger than 5-D.
 235:C:/Renesas/e2studio_2021_01_workspace_RZA2M_ANPR/ANPR_RZA2M_RDK/src/tensorflow_lite/src/tensorflow/lite/kernels/internal\types.h ****   inline const int32_t* DimsDataUpTo5D() const { return dims_; }
 236:C:/Renesas/e2studio_2021_01_workspace_RZA2M_ANPR/ANPR_RZA2M_RDK/src/tensorflow_lite/src/tensorflow/lite/kernels/internal\types.h **** 
 237:C:/Renesas/e2studio_2021_01_workspace_RZA2M_ANPR/ANPR_RZA2M_RDK/src/tensorflow_lite/src/tensorflow/lite/kernels/internal\types.h ****   inline void Resize(int dimensions_count) {
 238:C:/Renesas/e2studio_2021_01_workspace_RZA2M_ANPR/ANPR_RZA2M_RDK/src/tensorflow_lite/src/tensorflow/lite/kernels/internal\types.h ****     if (size_ > kMaxSmallSize) {
 239:C:/Renesas/e2studio_2021_01_workspace_RZA2M_ANPR/ANPR_RZA2M_RDK/src/tensorflow_lite/src/tensorflow/lite/kernels/internal\types.h **** #ifdef TF_LITE_STATIC_MEMORY
 240:C:/Renesas/e2studio_2021_01_workspace_RZA2M_ANPR/ANPR_RZA2M_RDK/src/tensorflow_lite/src/tensorflow/lite/kernels/internal\types.h ****       TFLITE_CHECK(false && "No shape resizing supported on this platform");
 241:C:/Renesas/e2studio_2021_01_workspace_RZA2M_ANPR/ANPR_RZA2M_RDK/src/tensorflow_lite/src/tensorflow/lite/kernels/internal\types.h **** #else  // TF_LITE_STATIC_MEMORY
 242:C:/Renesas/e2studio_2021_01_workspace_RZA2M_ANPR/ANPR_RZA2M_RDK/src/tensorflow_lite/src/tensorflow/lite/kernels/internal\types.h ****       delete[] dims_pointer_;
 243:C:/Renesas/e2studio_2021_01_workspace_RZA2M_ANPR/ANPR_RZA2M_RDK/src/tensorflow_lite/src/tensorflow/lite/kernels/internal\types.h **** #endif  // TF_LITE_STATIC_MEMORY
 244:C:/Renesas/e2studio_2021_01_workspace_RZA2M_ANPR/ANPR_RZA2M_RDK/src/tensorflow_lite/src/tensorflow/lite/kernels/internal\types.h ****     }
 245:C:/Renesas/e2studio_2021_01_workspace_RZA2M_ANPR/ANPR_RZA2M_RDK/src/tensorflow_lite/src/tensorflow/lite/kernels/internal\types.h ****     size_ = dimensions_count;
 246:C:/Renesas/e2studio_2021_01_workspace_RZA2M_ANPR/ANPR_RZA2M_RDK/src/tensorflow_lite/src/tensorflow/lite/kernels/internal\types.h ****     if (dimensions_count > kMaxSmallSize) {
 539              		.loc 5 246 0
 540 002c 050055E3 		cmp	r5, #5
 541 0030 CD0000DA 		ble	.L38
 542              	.LVL47:
 543              	.LBB552:
 544              	.LBB553:
 247:C:/Renesas/e2studio_2021_01_workspace_RZA2M_ANPR/ANPR_RZA2M_RDK/src/tensorflow_lite/src/tensorflow/lite/kernels/internal\types.h **** #ifdef TF_LITE_STATIC_MEMORY
 248:C:/Renesas/e2studio_2021_01_workspace_RZA2M_ANPR/ANPR_RZA2M_RDK/src/tensorflow_lite/src/tensorflow/lite/kernels/internal\types.h ****       TFLITE_CHECK(false && "No shape resizing supported on this platform");
 249:C:/Renesas/e2studio_2021_01_workspace_RZA2M_ANPR/ANPR_RZA2M_RDK/src/tensorflow_lite/src/tensorflow/lite/kernels/internal\types.h **** #else  // TF_LITE_STATIC_MEMORY
 250:C:/Renesas/e2studio_2021_01_workspace_RZA2M_ANPR/ANPR_RZA2M_RDK/src/tensorflow_lite/src/tensorflow/lite/kernels/internal\types.h ****       dims_pointer_ = new int32_t[dimensions_count];
 545              		.loc 5 250 0
 546 0034 2E0275E3 		cmn	r5, #-536870910
 547 0038 C50300CA 		bgt	.L39
 548 003c 0501A0E1 		lsl	r0, r5, #2
 549              	.LVL48:
 550              	.LEHB0:
 551 0040 FEFFFFEB 		bl	_Znaj
 552              	.LVL49:
 553              	.LEHE0:
 554 0044 080055E3 		cmp	r5, #8
 555 0048 0C008DE5 		str	r0, [sp, #12]
 556              	.LVL50:
 557 004c 0020A0D3 		movle	r2, #0
 558 0050 120000DA 		ble	.L41
 559 0054 091045E2 		sub	r1, r5, #9
 560 0058 883080E2 		add	r3, r0, #136
 561 005c 0710C1E3 		bic	r1, r1, #7
 562 0060 0020A0E3 		mov	r2, #0
 563 0064 081081E2 		add	r1, r1, #8
 564              	.LBE553:
 565              	.LBE552:
 566              	.LBE551:
 567              	.LBE550:
 568              	.LBB557:
 569              	.LBB558:
 570              	.LBB559:
 222:C:/Renesas/e2studio_2021_01_workspace_RZA2M_ANPR/ANPR_RZA2M_RDK/src/tensorflow_lite/src/tensorflow/lite/kernels/internal\types.h ****     } else {
 571              		.loc 5 222 0
 572 0068 01C0A0E3 		mov	ip, #1
 573              	.LVL51:
 574              	.L45:
 575 006c 082082E2 		add	r2, r2, #8
 576              	.LVL52:
 577 0070 00F0D3F5 		pld	[r3]
 578 0074 010052E1 		cmp	r2, r1
 579 0078 88C003E5 		str	ip, [r3, #-136]
 580              	.LVL53:
 581 007c 84C003E5 		str	ip, [r3, #-132]
 582 0080 203083E2 		add	r3, r3, #32
 583 0084 A0C003E5 		str	ip, [r3, #-160]
 584 0088 9CC003E5 		str	ip, [r3, #-156]
 585 008c 98C003E5 		str	ip, [r3, #-152]
 586 0090 94C003E5 		str	ip, [r3, #-148]
 587 0094 90C003E5 		str	ip, [r3, #-144]
 588 0098 8CC003E5 		str	ip, [r3, #-140]
 589              	.LVL54:
 590 009c F2FFFF1A 		bne	.L45
 591              	.LVL55:
 592              	.L41:
 593 00a0 020180E0 		add	r0, r0, r2, lsl #2
 594 00a4 0130A0E3 		mov	r3, #1
 595              	.L47:
 596              	.LVL56:
 597              	.LBE559:
 598              	.LBE558:
 170:C:/Renesas/e2studio_2021_01_workspace_RZA2M_ANPR/ANPR_RZA2M_RDK/src/tensorflow_lite/src/tensorflow/lite/kernels/internal\types.h ****       SetDim(i, value);
 599              		.loc 5 170 0
 600 00a8 012082E2 		add	r2, r2, #1
 601              	.LVL57:
 602              	.LBB563:
 603              	.LBB560:
 222:C:/Renesas/e2studio_2021_01_workspace_RZA2M_ANPR/ANPR_RZA2M_RDK/src/tensorflow_lite/src/tensorflow/lite/kernels/internal\types.h ****     } else {
 604              		.loc 5 222 0
 605 00ac 043080E4 		str	r3, [r0], #4
 606              	.LVL58:
 607              	.LBE560:
 608              	.LBE563:
 170:C:/Renesas/e2studio_2021_01_workspace_RZA2M_ANPR/ANPR_RZA2M_RDK/src/tensorflow_lite/src/tensorflow/lite/kernels/internal\types.h ****       SetDim(i, value);
 609              		.loc 5 170 0
 610 00b0 020055E1 		cmp	r5, r2
 611 00b4 FBFFFFCA 		bgt	.L47
 612              	.LVL59:
 613              	.LBE557:
 614              	.LBE549:
 615              	.LBE548:
 616              	.LBB574:
 617              	.LBB575:
 618              	.LBB576:
 619              	.LBB577:
 620              	.LBB578:
 251:C:/Renesas/e2studio_2021_01_workspace_RZA2M_ANPR/ANPR_RZA2M_RDK/src/tensorflow_lite/src/tensorflow/lite/kernels/internal\types.h **** #endif  // TF_LITE_STATIC_MEMORY
 252:C:/Renesas/e2studio_2021_01_workspace_RZA2M_ANPR/ANPR_RZA2M_RDK/src/tensorflow_lite/src/tensorflow/lite/kernels/internal\types.h ****     }
 253:C:/Renesas/e2studio_2021_01_workspace_RZA2M_ANPR/ANPR_RZA2M_RDK/src/tensorflow_lite/src/tensorflow/lite/kernels/internal\types.h ****   }
 254:C:/Renesas/e2studio_2021_01_workspace_RZA2M_ANPR/ANPR_RZA2M_RDK/src/tensorflow_lite/src/tensorflow/lite/kernels/internal\types.h **** 
 255:C:/Renesas/e2studio_2021_01_workspace_RZA2M_ANPR/ANPR_RZA2M_RDK/src/tensorflow_lite/src/tensorflow/lite/kernels/internal\types.h ****   inline void ReplaceWith(int dimensions_count, const int32_t* dims_data) {
 256:C:/Renesas/e2studio_2021_01_workspace_RZA2M_ANPR/ANPR_RZA2M_RDK/src/tensorflow_lite/src/tensorflow/lite/kernels/internal\types.h ****     Resize(dimensions_count);
 257:C:/Renesas/e2studio_2021_01_workspace_RZA2M_ANPR/ANPR_RZA2M_RDK/src/tensorflow_lite/src/tensorflow/lite/kernels/internal\types.h ****     int32_t* dst_dims = DimsData();
 258:C:/Renesas/e2studio_2021_01_workspace_RZA2M_ANPR/ANPR_RZA2M_RDK/src/tensorflow_lite/src/tensorflow/lite/kernels/internal\types.h ****     std::memcpy(dst_dims, dims_data, dimensions_count * sizeof(int32_t));
 259:C:/Renesas/e2studio_2021_01_workspace_RZA2M_ANPR/ANPR_RZA2M_RDK/src/tensorflow_lite/src/tensorflow/lite/kernels/internal\types.h ****   }
 260:C:/Renesas/e2studio_2021_01_workspace_RZA2M_ANPR/ANPR_RZA2M_RDK/src/tensorflow_lite/src/tensorflow/lite/kernels/internal\types.h **** 
 261:C:/Renesas/e2studio_2021_01_workspace_RZA2M_ANPR/ANPR_RZA2M_RDK/src/tensorflow_lite/src/tensorflow/lite/kernels/internal\types.h ****   template <typename T>
 262:C:/Renesas/e2studio_2021_01_workspace_RZA2M_ANPR/ANPR_RZA2M_RDK/src/tensorflow_lite/src/tensorflow/lite/kernels/internal\types.h ****   inline void BuildFrom(const T& src_iterable) {
 263:C:/Renesas/e2studio_2021_01_workspace_RZA2M_ANPR/ANPR_RZA2M_RDK/src/tensorflow_lite/src/tensorflow/lite/kernels/internal\types.h ****     const int dimensions_count =
 264:C:/Renesas/e2studio_2021_01_workspace_RZA2M_ANPR/ANPR_RZA2M_RDK/src/tensorflow_lite/src/tensorflow/lite/kernels/internal\types.h ****         std::distance(src_iterable.begin(), src_iterable.end());
 265:C:/Renesas/e2studio_2021_01_workspace_RZA2M_ANPR/ANPR_RZA2M_RDK/src/tensorflow_lite/src/tensorflow/lite/kernels/internal\types.h ****     Resize(dimensions_count);
 266:C:/Renesas/e2studio_2021_01_workspace_RZA2M_ANPR/ANPR_RZA2M_RDK/src/tensorflow_lite/src/tensorflow/lite/kernels/internal\types.h ****     int32_t* data = DimsData();
 267:C:/Renesas/e2studio_2021_01_workspace_RZA2M_ANPR/ANPR_RZA2M_RDK/src/tensorflow_lite/src/tensorflow/lite/kernels/internal\types.h ****     for (auto it : src_iterable) {
 268:C:/Renesas/e2studio_2021_01_workspace_RZA2M_ANPR/ANPR_RZA2M_RDK/src/tensorflow_lite/src/tensorflow/lite/kernels/internal\types.h ****       *data = it;
 269:C:/Renesas/e2studio_2021_01_workspace_RZA2M_ANPR/ANPR_RZA2M_RDK/src/tensorflow_lite/src/tensorflow/lite/kernels/internal\types.h ****       ++data;
 270:C:/Renesas/e2studio_2021_01_workspace_RZA2M_ANPR/ANPR_RZA2M_RDK/src/tensorflow_lite/src/tensorflow/lite/kernels/internal\types.h ****     }
 271:C:/Renesas/e2studio_2021_01_workspace_RZA2M_ANPR/ANPR_RZA2M_RDK/src/tensorflow_lite/src/tensorflow/lite/kernels/internal\types.h ****   }
 272:C:/Renesas/e2studio_2021_01_workspace_RZA2M_ANPR/ANPR_RZA2M_RDK/src/tensorflow_lite/src/tensorflow/lite/kernels/internal\types.h **** 
 273:C:/Renesas/e2studio_2021_01_workspace_RZA2M_ANPR/ANPR_RZA2M_RDK/src/tensorflow_lite/src/tensorflow/lite/kernels/internal\types.h ****   // This will probably be factored out. Old code made substantial use of 4-D
 274:C:/Renesas/e2studio_2021_01_workspace_RZA2M_ANPR/ANPR_RZA2M_RDK/src/tensorflow_lite/src/tensorflow/lite/kernels/internal\types.h ****   // shapes, and so this function is used to extend smaller shapes. Note that
 275:C:/Renesas/e2studio_2021_01_workspace_RZA2M_ANPR/ANPR_RZA2M_RDK/src/tensorflow_lite/src/tensorflow/lite/kernels/internal\types.h ****   // (a) as Dims<4>-dependent code is eliminated, the reliance on this should be
 276:C:/Renesas/e2studio_2021_01_workspace_RZA2M_ANPR/ANPR_RZA2M_RDK/src/tensorflow_lite/src/tensorflow/lite/kernels/internal\types.h ****   // reduced, and (b) some kernels are stricly 4-D, but then the shapes of their
 277:C:/Renesas/e2studio_2021_01_workspace_RZA2M_ANPR/ANPR_RZA2M_RDK/src/tensorflow_lite/src/tensorflow/lite/kernels/internal\types.h ****   // inputs should already be 4-D, so this function should not be needed.
 278:C:/Renesas/e2studio_2021_01_workspace_RZA2M_ANPR/ANPR_RZA2M_RDK/src/tensorflow_lite/src/tensorflow/lite/kernels/internal\types.h ****   inline static RuntimeShape ExtendedShape(int new_shape_size,
 279:C:/Renesas/e2studio_2021_01_workspace_RZA2M_ANPR/ANPR_RZA2M_RDK/src/tensorflow_lite/src/tensorflow/lite/kernels/internal\types.h ****                                            const RuntimeShape& shape) {
 280:C:/Renesas/e2studio_2021_01_workspace_RZA2M_ANPR/ANPR_RZA2M_RDK/src/tensorflow_lite/src/tensorflow/lite/kernels/internal\types.h ****     return RuntimeShape(new_shape_size, shape, 1);
 281:C:/Renesas/e2studio_2021_01_workspace_RZA2M_ANPR/ANPR_RZA2M_RDK/src/tensorflow_lite/src/tensorflow/lite/kernels/internal\types.h ****   }
 282:C:/Renesas/e2studio_2021_01_workspace_RZA2M_ANPR/ANPR_RZA2M_RDK/src/tensorflow_lite/src/tensorflow/lite/kernels/internal\types.h **** 
 283:C:/Renesas/e2studio_2021_01_workspace_RZA2M_ANPR/ANPR_RZA2M_RDK/src/tensorflow_lite/src/tensorflow/lite/kernels/internal\types.h ****   inline void BuildFrom(const std::initializer_list<int> init_list) {
 284:C:/Renesas/e2studio_2021_01_workspace_RZA2M_ANPR/ANPR_RZA2M_RDK/src/tensorflow_lite/src/tensorflow/lite/kernels/internal\types.h ****     BuildFrom<const std::initializer_list<int>>(init_list);
 285:C:/Renesas/e2studio_2021_01_workspace_RZA2M_ANPR/ANPR_RZA2M_RDK/src/tensorflow_lite/src/tensorflow/lite/kernels/internal\types.h ****   }
 286:C:/Renesas/e2studio_2021_01_workspace_RZA2M_ANPR/ANPR_RZA2M_RDK/src/tensorflow_lite/src/tensorflow/lite/kernels/internal\types.h **** 
 287:C:/Renesas/e2studio_2021_01_workspace_RZA2M_ANPR/ANPR_RZA2M_RDK/src/tensorflow_lite/src/tensorflow/lite/kernels/internal\types.h ****   // Returns the total count of elements, that is the size when flattened into a
 288:C:/Renesas/e2studio_2021_01_workspace_RZA2M_ANPR/ANPR_RZA2M_RDK/src/tensorflow_lite/src/tensorflow/lite/kernels/internal\types.h ****   // vector.
 289:C:/Renesas/e2studio_2021_01_workspace_RZA2M_ANPR/ANPR_RZA2M_RDK/src/tensorflow_lite/src/tensorflow/lite/kernels/internal\types.h ****   inline int FlatSize() const {
 290:C:/Renesas/e2studio_2021_01_workspace_RZA2M_ANPR/ANPR_RZA2M_RDK/src/tensorflow_lite/src/tensorflow/lite/kernels/internal\types.h ****     int buffer_size = 1;
 291:C:/Renesas/e2studio_2021_01_workspace_RZA2M_ANPR/ANPR_RZA2M_RDK/src/tensorflow_lite/src/tensorflow/lite/kernels/internal\types.h ****     const int* dims_data = reinterpret_cast<const int*>(DimsData());
 292:C:/Renesas/e2studio_2021_01_workspace_RZA2M_ANPR/ANPR_RZA2M_RDK/src/tensorflow_lite/src/tensorflow/lite/kernels/internal\types.h ****     for (int i = 0; i < size_; i++) {
 293:C:/Renesas/e2studio_2021_01_workspace_RZA2M_ANPR/ANPR_RZA2M_RDK/src/tensorflow_lite/src/tensorflow/lite/kernels/internal\types.h ****       buffer_size *= dims_data[i];
 294:C:/Renesas/e2studio_2021_01_workspace_RZA2M_ANPR/ANPR_RZA2M_RDK/src/tensorflow_lite/src/tensorflow/lite/kernels/internal\types.h ****     }
 295:C:/Renesas/e2studio_2021_01_workspace_RZA2M_ANPR/ANPR_RZA2M_RDK/src/tensorflow_lite/src/tensorflow/lite/kernels/internal\types.h ****     return buffer_size;
 296:C:/Renesas/e2studio_2021_01_workspace_RZA2M_ANPR/ANPR_RZA2M_RDK/src/tensorflow_lite/src/tensorflow/lite/kernels/internal\types.h ****   }
 297:C:/Renesas/e2studio_2021_01_workspace_RZA2M_ANPR/ANPR_RZA2M_RDK/src/tensorflow_lite/src/tensorflow/lite/kernels/internal\types.h **** 
 298:C:/Renesas/e2studio_2021_01_workspace_RZA2M_ANPR/ANPR_RZA2M_RDK/src/tensorflow_lite/src/tensorflow/lite/kernels/internal\types.h ****   bool operator!=(const RuntimeShape& comp) const { return !((*this) == comp); }
 299:C:/Renesas/e2studio_2021_01_workspace_RZA2M_ANPR/ANPR_RZA2M_RDK/src/tensorflow_lite/src/tensorflow/lite/kernels/internal\types.h **** 
 300:C:/Renesas/e2studio_2021_01_workspace_RZA2M_ANPR/ANPR_RZA2M_RDK/src/tensorflow_lite/src/tensorflow/lite/kernels/internal\types.h ****  private:
 301:C:/Renesas/e2studio_2021_01_workspace_RZA2M_ANPR/ANPR_RZA2M_RDK/src/tensorflow_lite/src/tensorflow/lite/kernels/internal\types.h ****   // For use only by ExtendedShape(), written to guarantee (return-value) copy
 302:C:/Renesas/e2studio_2021_01_workspace_RZA2M_ANPR/ANPR_RZA2M_RDK/src/tensorflow_lite/src/tensorflow/lite/kernels/internal\types.h ****   // elision in C++17.
 303:C:/Renesas/e2studio_2021_01_workspace_RZA2M_ANPR/ANPR_RZA2M_RDK/src/tensorflow_lite/src/tensorflow/lite/kernels/internal\types.h ****   // This creates a shape padded to the desired size with the specified value.
 304:C:/Renesas/e2studio_2021_01_workspace_RZA2M_ANPR/ANPR_RZA2M_RDK/src/tensorflow_lite/src/tensorflow/lite/kernels/internal\types.h ****   RuntimeShape(int new_shape_size, const RuntimeShape& shape, int pad_value)
 305:C:/Renesas/e2studio_2021_01_workspace_RZA2M_ANPR/ANPR_RZA2M_RDK/src/tensorflow_lite/src/tensorflow/lite/kernels/internal\types.h ****       : size_(0) {
 306:C:/Renesas/e2studio_2021_01_workspace_RZA2M_ANPR/ANPR_RZA2M_RDK/src/tensorflow_lite/src/tensorflow/lite/kernels/internal\types.h ****     // If the following check fails, it is likely because a 4D-only kernel is
 307:C:/Renesas/e2studio_2021_01_workspace_RZA2M_ANPR/ANPR_RZA2M_RDK/src/tensorflow_lite/src/tensorflow/lite/kernels/internal\types.h ****     // being used with an array of larger dimension count.
 308:C:/Renesas/e2studio_2021_01_workspace_RZA2M_ANPR/ANPR_RZA2M_RDK/src/tensorflow_lite/src/tensorflow/lite/kernels/internal\types.h ****     TFLITE_CHECK_GE(new_shape_size, shape.DimensionsCount());
 621              		.loc 5 308 0
 622 00b8 003097E5 		ldr	r3, [r7]
 623              	.LBE578:
 305:C:/Renesas/e2studio_2021_01_workspace_RZA2M_ANPR/ANPR_RZA2M_RDK/src/tensorflow_lite/src/tensorflow/lite/kernels/internal\types.h ****     // If the following check fails, it is likely because a 4D-only kernel is
 624              		.loc 5 305 0
 625 00bc 0020A0E3 		mov	r2, #0
 626 00c0 20208DE5 		str	r2, [sp, #32]
 627              	.LVL60:
 628              	.LBB629:
 629              		.loc 5 308 0
 630 00c4 050053E1 		cmp	r3, r5
 631              	.LBB579:
 632              	.LBB580:
 245:C:/Renesas/e2studio_2021_01_workspace_RZA2M_ANPR/ANPR_RZA2M_RDK/src/tensorflow_lite/src/tensorflow/lite/kernels/internal\types.h ****     if (dimensions_count > kMaxSmallSize) {
 633              		.loc 5 245 0
 634 00c8 20508DD5 		strle	r5, [sp, #32]
 635              	.LBE580:
 636              	.LBE579:
 637              		.loc 5 308 0
 638 00cc AF0000CA 		bgt	.L43
 639              	.LVL61:
 640              	.L201:
 641              	.LBB589:
 642              	.LBB585:
 643              	.LBB581:
 644              	.LBB582:
 250:C:/Renesas/e2studio_2021_01_workspace_RZA2M_ANPR/ANPR_RZA2M_RDK/src/tensorflow_lite/src/tensorflow/lite/kernels/internal\types.h **** #endif  // TF_LITE_STATIC_MEMORY
 645              		.loc 5 250 0
 646 00d0 2E0275E3 		cmn	r5, #-536870910
 647 00d4 8E0300CA 		bgt	.L49
 648 00d8 0501A0E1 		lsl	r0, r5, #2
 649              	.LEHB1:
 650 00dc FEFFFFEB 		bl	_Znaj
 651              	.LVL62:
 652              	.LEHE1:
 653 00e0 002097E5 		ldr	r2, [r7]
 654 00e4 24008DE5 		str	r0, [sp, #36]
 655              	.LVL63:
 656              	.LBE582:
 657              	.LBE581:
 658              	.LBE585:
 659              	.LBE589:
 309:C:/Renesas/e2studio_2021_01_workspace_RZA2M_ANPR/ANPR_RZA2M_RDK/src/tensorflow_lite/src/tensorflow/lite/kernels/internal\types.h ****     Resize(new_shape_size);
 310:C:/Renesas/e2studio_2021_01_workspace_RZA2M_ANPR/ANPR_RZA2M_RDK/src/tensorflow_lite/src/tensorflow/lite/kernels/internal\types.h ****     const int size_increase = new_shape_size - shape.DimensionsCount();
 660              		.loc 5 310 0
 661 00e8 023045E0 		sub	r3, r5, r2
 662              	.LVL64:
 663              	.LBB590:
 311:C:/Renesas/e2studio_2021_01_workspace_RZA2M_ANPR/ANPR_RZA2M_RDK/src/tensorflow_lite/src/tensorflow/lite/kernels/internal\types.h ****     for (int i = 0; i < size_increase; ++i) {
 664              		.loc 5 311 0
 665 00ec 000053E3 		cmp	r3, #0
 666 00f0 0D0000DA 		ble	.L195
 667              	.LVL65:
 668              	.LBB591:
 669              	.LBB592:
 220:C:/Renesas/e2studio_2021_01_workspace_RZA2M_ANPR/ANPR_RZA2M_RDK/src/tensorflow_lite/src/tensorflow/lite/kernels/internal\types.h ****     if (size_ > kMaxSmallSize) {
 670              		.loc 5 220 0
 671 00f4 000055E3 		cmp	r5, #0
 672 00f8 040040C2 		subgt	r0, r0, #4
 673 00fc 0020A0C3 		movgt	r2, #0
 222:C:/Renesas/e2studio_2021_01_workspace_RZA2M_ANPR/ANPR_RZA2M_RDK/src/tensorflow_lite/src/tensorflow/lite/kernels/internal\types.h ****     } else {
 674              		.loc 5 222 0
 675 0100 0110A0C3 		movgt	r1, #1
 220:C:/Renesas/e2studio_2021_01_workspace_RZA2M_ANPR/ANPR_RZA2M_RDK/src/tensorflow_lite/src/tensorflow/lite/kernels/internal\types.h ****     if (size_ > kMaxSmallSize) {
 676              		.loc 5 220 0
 677 0104 020000CA 		bgt	.L52
 678 0108 BF0000EA 		b	.L53
 679              	.LVL66:
 680              	.L430:
 681 010c 050052E1 		cmp	r2, r5
 682 0110 BD00000A 		beq	.L53
 683              	.LVL67:
 684              	.L52:
 685              	.LBE592:
 686              	.LBE591:
 687              		.loc 5 311 0
 688 0114 012082E2 		add	r2, r2, #1
 689              	.LVL68:
 690              	.LBB605:
 691              	.LBB593:
 222:C:/Renesas/e2studio_2021_01_workspace_RZA2M_ANPR/ANPR_RZA2M_RDK/src/tensorflow_lite/src/tensorflow/lite/kernels/internal\types.h ****     } else {
 692              		.loc 5 222 0
 693 0118 0410A0E5 		str	r1, [r0, #4]!
 694              	.LVL69:
 695              	.LBE593:
 696              	.LBE605:
 697              		.loc 5 311 0
 698 011c 030052E1 		cmp	r2, r3
 699 0120 F9FFFFBA 		blt	.L430
 700              	.LVL70:
 701 0124 24009DE5 		ldr	r0, [sp, #36]
 702 0128 002097E5 		ldr	r2, [r7]
 703              	.LVL71:
 704              	.L195:
 705              	.LBE590:
 706              	.LBB617:
 707              	.LBB618:
 232:C:/Renesas/e2studio_2021_01_workspace_RZA2M_ANPR/ANPR_RZA2M_RDK/src/tensorflow_lite/src/tensorflow/lite/kernels/internal\types.h ****   }
 708              		.loc 5 232 0
 709 012c 050052E3 		cmp	r2, #5
 710              	.LBE618:
 711              	.LBE617:
 312:C:/Renesas/e2studio_2021_01_workspace_RZA2M_ANPR/ANPR_RZA2M_RDK/src/tensorflow_lite/src/tensorflow/lite/kernels/internal\types.h ****       SetDim(i, pad_value);
 313:C:/Renesas/e2studio_2021_01_workspace_RZA2M_ANPR/ANPR_RZA2M_RDK/src/tensorflow_lite/src/tensorflow/lite/kernels/internal\types.h ****     }
 314:C:/Renesas/e2studio_2021_01_workspace_RZA2M_ANPR/ANPR_RZA2M_RDK/src/tensorflow_lite/src/tensorflow/lite/kernels/internal\types.h ****     std::memcpy(DimsData() + size_increase, shape.DimsData(),
 712              		.loc 5 314 0
 713 0130 030180E0 		add	r0, r0, r3, lsl #2
 714              	.LVL72:
 715              	.LBB620:
 716              	.LBB619:
 232:C:/Renesas/e2studio_2021_01_workspace_RZA2M_ANPR/ANPR_RZA2M_RDK/src/tensorflow_lite/src/tensorflow/lite/kernels/internal\types.h ****   }
 717              		.loc 5 232 0
 718 0134 041097C5 		ldrgt	r1, [r7, #4]
 719 0138 041087D2 		addle	r1, r7, #4
 720              	.LBE619:
 721              	.LBE620:
 315:C:/Renesas/e2studio_2021_01_workspace_RZA2M_ANPR/ANPR_RZA2M_RDK/src/tensorflow_lite/src/tensorflow/lite/kernels/internal\types.h ****                 sizeof(int32_t) * shape.DimensionsCount());
 722              		.loc 5 315 0
 723 013c 0221A0E1 		lsl	r2, r2, #2
 724 0140 FEFFFFEB 		bl	memcpy
 725              	.LVL73:
 726 0144 002096E5 		ldr	r2, [r6]
 727              	.LVL74:
 728              	.LBE629:
 729              	.LBE577:
 730              	.LBE576:
 731              	.LBE575:
 732              	.LBE574:
 733              	.LBB654:
 734              	.LBB655:
 735              	.LBB656:
 736              	.LBB657:
 305:C:/Renesas/e2studio_2021_01_workspace_RZA2M_ANPR/ANPR_RZA2M_RDK/src/tensorflow_lite/src/tensorflow/lite/kernels/internal\types.h ****     // If the following check fails, it is likely because a 4D-only kernel is
 737              		.loc 5 305 0
 738 0148 0030A0E3 		mov	r3, #0
 739 014c 38308DE5 		str	r3, [sp, #56]
 740              	.LBB658:
 308:C:/Renesas/e2studio_2021_01_workspace_RZA2M_ANPR/ANPR_RZA2M_RDK/src/tensorflow_lite/src/tensorflow/lite/kernels/internal\types.h ****     Resize(new_shape_size);
 741              		.loc 5 308 0
 742 0150 050052E1 		cmp	r2, r5
 743 0154 710300CA 		bgt	.L504
 744              	.LVL75:
 745              	.LBB659:
 746              	.LBB660:
 246:C:/Renesas/e2studio_2021_01_workspace_RZA2M_ANPR/ANPR_RZA2M_RDK/src/tensorflow_lite/src/tensorflow/lite/kernels/internal\types.h **** #ifdef TF_LITE_STATIC_MEMORY
 747              		.loc 5 246 0
 748 0158 050055E3 		cmp	r5, #5
 245:C:/Renesas/e2studio_2021_01_workspace_RZA2M_ANPR/ANPR_RZA2M_RDK/src/tensorflow_lite/src/tensorflow/lite/kernels/internal\types.h ****     if (dimensions_count > kMaxSmallSize) {
 749              		.loc 5 245 0
 750 015c 38508DE5 		str	r5, [sp, #56]
 246:C:/Renesas/e2studio_2021_01_workspace_RZA2M_ANPR/ANPR_RZA2M_RDK/src/tensorflow_lite/src/tensorflow/lite/kernels/internal\types.h **** #ifdef TF_LITE_STATIC_MEMORY
 751              		.loc 5 246 0
 752 0160 AD0000DA 		ble	.L60
 753              	.LVL76:
 754              	.LBB661:
 755              	.LBB662:
 250:C:/Renesas/e2studio_2021_01_workspace_RZA2M_ANPR/ANPR_RZA2M_RDK/src/tensorflow_lite/src/tensorflow/lite/kernels/internal\types.h **** #endif  // TF_LITE_STATIC_MEMORY
 756              		.loc 5 250 0
 757 0164 2E0275E3 		cmn	r5, #-536870910
 758 0168 760300CA 		bgt	.L61
 759 016c 0501A0E1 		lsl	r0, r5, #2
 760              	.LEHB2:
 761 0170 FEFFFFEB 		bl	_Znaj
 762              	.LVL77:
 763              	.LEHE2:
 764 0174 002096E5 		ldr	r2, [r6]
 765 0178 3C008DE5 		str	r0, [sp, #60]
 766              	.LVL78:
 767              	.LBE662:
 768              	.LBE661:
 769              	.LBE660:
 770              	.LBE659:
 310:C:/Renesas/e2studio_2021_01_workspace_RZA2M_ANPR/ANPR_RZA2M_RDK/src/tensorflow_lite/src/tensorflow/lite/kernels/internal\types.h ****     for (int i = 0; i < size_increase; ++i) {
 771              		.loc 5 310 0
 772 017c 021045E0 		sub	r1, r5, r2
 773              	.LVL79:
 774              	.LBB666:
 311:C:/Renesas/e2studio_2021_01_workspace_RZA2M_ANPR/ANPR_RZA2M_RDK/src/tensorflow_lite/src/tensorflow/lite/kernels/internal\types.h ****       SetDim(i, pad_value);
 775              		.loc 5 311 0
 776 0180 000051E3 		cmp	r1, #0
 777 0184 042040C2 		subgt	r2, r0, #4
 778 0188 0030A0C3 		movgt	r3, #0
 779              	.LBB667:
 780              	.LBB668:
 222:C:/Renesas/e2studio_2021_01_workspace_RZA2M_ANPR/ANPR_RZA2M_RDK/src/tensorflow_lite/src/tensorflow/lite/kernels/internal\types.h ****     } else {
 781              		.loc 5 222 0
 782 018c 0100A0C3 		movgt	r0, #1
 783              	.LBE668:
 784              	.LBE667:
 311:C:/Renesas/e2studio_2021_01_workspace_RZA2M_ANPR/ANPR_RZA2M_RDK/src/tensorflow_lite/src/tensorflow/lite/kernels/internal\types.h ****       SetDim(i, pad_value);
 785              		.loc 5 311 0
 786 0190 020000CA 		bgt	.L64
 787 0194 070000EA 		b	.L197
 788              	.LVL80:
 789              	.L432:
 790              	.LBB682:
 791              	.LBB669:
 220:C:/Renesas/e2studio_2021_01_workspace_RZA2M_ANPR/ANPR_RZA2M_RDK/src/tensorflow_lite/src/tensorflow/lite/kernels/internal\types.h ****     if (size_ > kMaxSmallSize) {
 792              		.loc 5 220 0
 793 0198 050053E1 		cmp	r3, r5
 794 019c BB00000A 		beq	.L65
 795              	.LVL81:
 796              	.L64:
 797              	.LBE669:
 798              	.LBE682:
 311:C:/Renesas/e2studio_2021_01_workspace_RZA2M_ANPR/ANPR_RZA2M_RDK/src/tensorflow_lite/src/tensorflow/lite/kernels/internal\types.h ****       SetDim(i, pad_value);
 799              		.loc 5 311 0
 800 01a0 013083E2 		add	r3, r3, #1
 801              	.LVL82:
 802              	.LBB683:
 803              	.LBB670:
 222:C:/Renesas/e2studio_2021_01_workspace_RZA2M_ANPR/ANPR_RZA2M_RDK/src/tensorflow_lite/src/tensorflow/lite/kernels/internal\types.h ****     } else {
 804              		.loc 5 222 0
 805 01a4 0400A2E5 		str	r0, [r2, #4]!
 806              	.LVL83:
 807              	.LBE670:
 808              	.LBE683:
 311:C:/Renesas/e2studio_2021_01_workspace_RZA2M_ANPR/ANPR_RZA2M_RDK/src/tensorflow_lite/src/tensorflow/lite/kernels/internal\types.h ****       SetDim(i, pad_value);
 809              		.loc 5 311 0
 810 01a8 010053E1 		cmp	r3, r1
 811 01ac F9FFFFBA 		blt	.L432
 812              	.LVL84:
 813 01b0 3C009DE5 		ldr	r0, [sp, #60]
 814 01b4 002096E5 		ldr	r2, [r6]
 815              	.LVL85:
 816              	.L197:
 817              	.LBE666:
 818              	.LBB695:
 819              	.LBB696:
 232:C:/Renesas/e2studio_2021_01_workspace_RZA2M_ANPR/ANPR_RZA2M_RDK/src/tensorflow_lite/src/tensorflow/lite/kernels/internal\types.h ****   }
 820              		.loc 5 232 0
 821 01b8 050052E3 		cmp	r2, #5
 822              	.LBE696:
 823              	.LBE695:
 314:C:/Renesas/e2studio_2021_01_workspace_RZA2M_ANPR/ANPR_RZA2M_RDK/src/tensorflow_lite/src/tensorflow/lite/kernels/internal\types.h ****                 sizeof(int32_t) * shape.DimensionsCount());
 824              		.loc 5 314 0
 825 01bc 010180E0 		add	r0, r0, r1, lsl #2
 826              	.LVL86:
 827              		.loc 5 315 0
 828 01c0 0221A0E1 		lsl	r2, r2, #2
 829              	.LBB698:
 830              	.LBB697:
 232:C:/Renesas/e2studio_2021_01_workspace_RZA2M_ANPR/ANPR_RZA2M_RDK/src/tensorflow_lite/src/tensorflow/lite/kernels/internal\types.h ****   }
 831              		.loc 5 232 0
 832 01c4 041096C5 		ldrgt	r1, [r6, #4]
 833              	.LVL87:
 834 01c8 041086D2 		addle	r1, r6, #4
 835              	.LBE697:
 836              	.LBE698:
 837              		.loc 5 315 0
 838 01cc FEFFFFEB 		bl	memcpy
 839              	.LVL88:
 840              	.LBE658:
 841              	.LBE657:
 842              	.LBE656:
 843              	.LBE655:
 844              	.LBE654:
 845              	.LBB719:
 846              	.LBB720:
 197:C:/Renesas/e2studio_2021_01_workspace_RZA2M_ANPR/ANPR_RZA2M_RDK/src/tensorflow_lite/src/tensorflow/lite/kernels/internal\types.h ****            std::memcmp(DimsData(), comp.DimsData(), size_ * sizeof(int32_t)) ==
 847              		.loc 5 197 0
 848 01d0 20709DE5 		ldr	r7, [sp, #32]
 849              	.LVL89:
 850 01d4 38609DE5 		ldr	r6, [sp, #56]
 851              	.LVL90:
 852 01d8 060057E1 		cmp	r7, r6
 853 01dc AC00000A 		beq	.L505
 854              	.L71:
 855              	.LVL91:
 856              	.LBE720:
 857              	.LBE719:
 858              	.LBB730:
  45:C:/Renesas/e2studio_2021_01_workspace_RZA2M_ANPR/ANPR_RZA2M_RDK/src/tensorflow_lite/src/tensorflow/lite/kernels/internal/reference\process_broadcast_shapes.h ****   RuntimeShape scalar_shape(dims_count, 1);
  46:C:/Renesas/e2studio_2021_01_workspace_RZA2M_ANPR/ANPR_RZA2M_RDK/src/tensorflow_lite/src/tensorflow/lite/kernels/internal/reference\process_broadcast_shapes.h **** 
  47:C:/Renesas/e2studio_2021_01_workspace_RZA2M_ANPR/ANPR_RZA2M_RDK/src/tensorflow_lite/src/tensorflow/lite/kernels/internal/reference\process_broadcast_shapes.h ****   auto extended_shape0 = RuntimeShape::ExtendedShape(dims_count, shape0);
  48:C:/Renesas/e2studio_2021_01_workspace_RZA2M_ANPR/ANPR_RZA2M_RDK/src/tensorflow_lite/src/tensorflow/lite/kernels/internal/reference\process_broadcast_shapes.h ****   auto extended_shape1 = RuntimeShape::ExtendedShape(dims_count, shape1);
  49:C:/Renesas/e2studio_2021_01_workspace_RZA2M_ANPR/ANPR_RZA2M_RDK/src/tensorflow_lite/src/tensorflow/lite/kernels/internal/reference\process_broadcast_shapes.h **** 
  50:C:/Renesas/e2studio_2021_01_workspace_RZA2M_ANPR/ANPR_RZA2M_RDK/src/tensorflow_lite/src/tensorflow/lite/kernels/internal/reference\process_broadcast_shapes.h ****   // Check for "exact" match, implicitly accepting any scalar shapes.
  51:C:/Renesas/e2studio_2021_01_workspace_RZA2M_ANPR/ANPR_RZA2M_RDK/src/tensorflow_lite/src/tensorflow/lite/kernels/internal/reference\process_broadcast_shapes.h ****   if (extended_shape0 == extended_shape1) {
  52:C:/Renesas/e2studio_2021_01_workspace_RZA2M_ANPR/ANPR_RZA2M_RDK/src/tensorflow_lite/src/tensorflow/lite/kernels/internal/reference\process_broadcast_shapes.h ****     params->broadcast_category = BroadcastableOpCategory::kNonBroadcast;
  53:C:/Renesas/e2studio_2021_01_workspace_RZA2M_ANPR/ANPR_RZA2M_RDK/src/tensorflow_lite/src/tensorflow/lite/kernels/internal/reference\process_broadcast_shapes.h ****     return false;
  54:C:/Renesas/e2studio_2021_01_workspace_RZA2M_ANPR/ANPR_RZA2M_RDK/src/tensorflow_lite/src/tensorflow/lite/kernels/internal/reference\process_broadcast_shapes.h ****   }
  55:C:/Renesas/e2studio_2021_01_workspace_RZA2M_ANPR/ANPR_RZA2M_RDK/src/tensorflow_lite/src/tensorflow/lite/kernels/internal/reference\process_broadcast_shapes.h **** 
  56:C:/Renesas/e2studio_2021_01_workspace_RZA2M_ANPR/ANPR_RZA2M_RDK/src/tensorflow_lite/src/tensorflow/lite/kernels/internal/reference\process_broadcast_shapes.h ****   for (int i = dims_count - 1; i >= 0; --i) {
 859              		.loc 4 56 0
 860 01e0 013055E2 		subs	r3, r5, #1
 861              	.LVL92:
 862 01e4 3900004A 		bmi	.L83
 863              	.LVL93:
 864              	.LBB731:
 865              	.LBB732:
 215:C:/Renesas/e2studio_2021_01_workspace_RZA2M_ANPR/ANPR_RZA2M_RDK/src/tensorflow_lite/src/tensorflow/lite/kernels/internal\types.h ****     return size_ > kMaxSmallSize ? dims_pointer_[i] : dims_[i];
 866              		.loc 5 215 0
 867 01e8 070053E1 		cmp	r3, r7
 868 01ec 7E0100AA 		bge	.L77
 869 01f0 050057E3 		cmp	r7, #5
 216:C:/Renesas/e2studio_2021_01_workspace_RZA2M_ANPR/ANPR_RZA2M_RDK/src/tensorflow_lite/src/tensorflow/lite/kernels/internal\types.h ****   }
 870              		.loc 5 216 0
 871 01f4 24809DE5 		ldr	r8, [sp, #36]
 872              	.LBE732:
 873              	.LBE731:
 874              	.LBB761:
 875              	.LBB762:
 876 01f8 3C009DE5 		ldr	r0, [sp, #60]
 877 01fc B60000CA 		bgt	.L79
 878 0200 050056E3 		cmp	r6, #5
 879 0204 430100CA 		bgt	.L80
 880              	.LBE762:
 881              	.LBE761:
 882              	.LBB792:
 883              	.LBB733:
 884 0208 50208DE2 		add	r2, sp, #80
 885              	.LBE733:
 886              	.LBE792:
 887              	.LBB793:
 888              	.LBB763:
 215:C:/Renesas/e2studio_2021_01_workspace_RZA2M_ANPR/ANPR_RZA2M_RDK/src/tensorflow_lite/src/tensorflow/lite/kernels/internal\types.h ****     return size_ > kMaxSmallSize ? dims_pointer_[i] : dims_[i];
 889              		.loc 5 215 0
 890 020c 060053E1 		cmp	r3, r6
 891              	.LBE763:
 892              	.LBE793:
 893              	.LBB794:
 894              	.LBB734:
 216:C:/Renesas/e2studio_2021_01_workspace_RZA2M_ANPR/ANPR_RZA2M_RDK/src/tensorflow_lite/src/tensorflow/lite/kernels/internal\types.h ****   }
 895              		.loc 5 216 0
 896 0210 032182E0 		add	r2, r2, r3, lsl #2
 897 0214 2CC012E5 		ldr	ip, [r2, #-44]
 898              	.LVL94:
 899              	.LBE734:
 900              	.LBE794:
 901              	.LBB795:
 902              	.LBB764:
 215:C:/Renesas/e2studio_2021_01_workspace_RZA2M_ANPR/ANPR_RZA2M_RDK/src/tensorflow_lite/src/tensorflow/lite/kernels/internal\types.h ****     return size_ > kMaxSmallSize ? dims_pointer_[i] : dims_[i];
 903              		.loc 5 215 0
 904 0218 370300AA 		bge	.L81
 216:C:/Renesas/e2studio_2021_01_workspace_RZA2M_ANPR/ANPR_RZA2M_RDK/src/tensorflow_lite/src/tensorflow/lite/kernels/internal\types.h ****   }
 905              		.loc 5 216 0
 906 021c 14E012E5 		ldr	lr, [r2, #-20]
 907              	.LVL95:
 908              	.LBE764:
 909              	.LBE795:
  57:C:/Renesas/e2studio_2021_01_workspace_RZA2M_ANPR/ANPR_RZA2M_RDK/src/tensorflow_lite/src/tensorflow/lite/kernels/internal/reference\process_broadcast_shapes.h ****     if (extended_shape0.Dims(i) == extended_shape1.Dims(i)) {
 910              		.loc 4 57 0
 911 0220 0C005EE1 		cmp	lr, ip
 912 0224 DD00001A 		bne	.L82
 913              	.LVL96:
  56:C:/Renesas/e2studio_2021_01_workspace_RZA2M_ANPR/ANPR_RZA2M_RDK/src/tensorflow_lite/src/tensorflow/lite/kernels/internal/reference\process_broadcast_shapes.h ****     if (extended_shape0.Dims(i) == extended_shape1.Dims(i)) {
 914              		.loc 4 56 0
 915 0228 022055E2 		subs	r2, r5, #2
 916              	.LVL97:
 917 022c 2700004A 		bmi	.L83
 918              	.LVL98:
 919              	.LBB796:
 920              	.LBB735:
 215:C:/Renesas/e2studio_2021_01_workspace_RZA2M_ANPR/ANPR_RZA2M_RDK/src/tensorflow_lite/src/tensorflow/lite/kernels/internal\types.h ****     return size_ > kMaxSmallSize ? dims_pointer_[i] : dims_[i];
 921              		.loc 5 215 0
 922 0230 070052E1 		cmp	r2, r7
 923 0234 6C0100AA 		bge	.L77
 216:C:/Renesas/e2studio_2021_01_workspace_RZA2M_ANPR/ANPR_RZA2M_RDK/src/tensorflow_lite/src/tensorflow/lite/kernels/internal\types.h ****   }
 924              		.loc 5 216 0
 925 0238 50108DE2 		add	r1, sp, #80
 926              	.LBE735:
 927              	.LBE796:
 928              	.LBB797:
 929              	.LBB765:
 215:C:/Renesas/e2studio_2021_01_workspace_RZA2M_ANPR/ANPR_RZA2M_RDK/src/tensorflow_lite/src/tensorflow/lite/kernels/internal\types.h ****     return size_ > kMaxSmallSize ? dims_pointer_[i] : dims_[i];
 930              		.loc 5 215 0
 931 023c 060052E1 		cmp	r2, r6
 932              	.LBE765:
 933              	.LBE797:
 934              	.LBB798:
 935              	.LBB736:
 216:C:/Renesas/e2studio_2021_01_workspace_RZA2M_ANPR/ANPR_RZA2M_RDK/src/tensorflow_lite/src/tensorflow/lite/kernels/internal\types.h ****   }
 936              		.loc 5 216 0
 937 0240 022181E0 		add	r2, r1, r2, lsl #2
 938              	.LVL99:
 939 0244 2CC012E5 		ldr	ip, [r2, #-44]
 940              	.LVL100:
 941              	.LBE736:
 942              	.LBE798:
 943              	.LBB799:
 944              	.LBB766:
 215:C:/Renesas/e2studio_2021_01_workspace_RZA2M_ANPR/ANPR_RZA2M_RDK/src/tensorflow_lite/src/tensorflow/lite/kernels/internal\types.h ****     return size_ > kMaxSmallSize ? dims_pointer_[i] : dims_[i];
 945              		.loc 5 215 0
 946 0248 2B0300AA 		bge	.L81
 216:C:/Renesas/e2studio_2021_01_workspace_RZA2M_ANPR/ANPR_RZA2M_RDK/src/tensorflow_lite/src/tensorflow/lite/kernels/internal\types.h ****   }
 947              		.loc 5 216 0
 948 024c 14E012E5 		ldr	lr, [r2, #-20]
 949              	.LVL101:
 950              	.LBE766:
 951              	.LBE799:
 952              		.loc 4 57 0
 953 0250 0E005CE1 		cmp	ip, lr
 954 0254 D100001A 		bne	.L82
  56:C:/Renesas/e2studio_2021_01_workspace_RZA2M_ANPR/ANPR_RZA2M_RDK/src/tensorflow_lite/src/tensorflow/lite/kernels/internal/reference\process_broadcast_shapes.h ****     if (extended_shape0.Dims(i) == extended_shape1.Dims(i)) {
 955              		.loc 4 56 0
 956 0258 032045E2 		sub	r2, r5, #3
 957              	.LVL102:
 958 025c 010072E3 		cmn	r2, #1
 959 0260 1A00000A 		beq	.L83
 960              	.LVL103:
 961              	.LBB800:
 962              	.LBB737:
 215:C:/Renesas/e2studio_2021_01_workspace_RZA2M_ANPR/ANPR_RZA2M_RDK/src/tensorflow_lite/src/tensorflow/lite/kernels/internal\types.h ****     return size_ > kMaxSmallSize ? dims_pointer_[i] : dims_[i];
 963              		.loc 5 215 0
 964 0264 020057E1 		cmp	r7, r2
 965 0268 5F0100DA 		ble	.L77
 966              	.LBE737:
 967              	.LBE800:
 968              	.LBB801:
 969              	.LBB767:
 970 026c 020056E1 		cmp	r6, r2
 971              	.LBE767:
 972              	.LBE801:
 973              	.LBB802:
 974              	.LBB738:
 216:C:/Renesas/e2studio_2021_01_workspace_RZA2M_ANPR/ANPR_RZA2M_RDK/src/tensorflow_lite/src/tensorflow/lite/kernels/internal\types.h ****   }
 975              		.loc 5 216 0
 976 0270 022181E0 		add	r2, r1, r2, lsl #2
 977              	.LVL104:
 978 0274 2CC012E5 		ldr	ip, [r2, #-44]
 979              	.LVL105:
 980              	.LBE738:
 981              	.LBE802:
 982              	.LBB803:
 983              	.LBB768:
 215:C:/Renesas/e2studio_2021_01_workspace_RZA2M_ANPR/ANPR_RZA2M_RDK/src/tensorflow_lite/src/tensorflow/lite/kernels/internal\types.h ****     return size_ > kMaxSmallSize ? dims_pointer_[i] : dims_[i];
 984              		.loc 5 215 0
 985 0278 1F0300DA 		ble	.L81
 216:C:/Renesas/e2studio_2021_01_workspace_RZA2M_ANPR/ANPR_RZA2M_RDK/src/tensorflow_lite/src/tensorflow/lite/kernels/internal\types.h ****   }
 986              		.loc 5 216 0
 987 027c 14E012E5 		ldr	lr, [r2, #-20]
 988              	.LVL106:
 989              	.LBE768:
 990              	.LBE803:
 991              		.loc 4 57 0
 992 0280 0C005EE1 		cmp	lr, ip
 993 0284 C500001A 		bne	.L82
  56:C:/Renesas/e2studio_2021_01_workspace_RZA2M_ANPR/ANPR_RZA2M_RDK/src/tensorflow_lite/src/tensorflow/lite/kernels/internal/reference\process_broadcast_shapes.h ****     if (extended_shape0.Dims(i) == extended_shape1.Dims(i)) {
 994              		.loc 4 56 0
 995 0288 042045E2 		sub	r2, r5, #4
 996              	.LVL107:
 997 028c 010072E3 		cmn	r2, #1
 998 0290 0E00000A 		beq	.L83
 999              	.LVL108:
 1000              	.LBB804:
 1001              	.LBB739:
 215:C:/Renesas/e2studio_2021_01_workspace_RZA2M_ANPR/ANPR_RZA2M_RDK/src/tensorflow_lite/src/tensorflow/lite/kernels/internal\types.h ****     return size_ > kMaxSmallSize ? dims_pointer_[i] : dims_[i];
 1002              		.loc 5 215 0
 1003 0294 020057E1 		cmp	r7, r2
 1004 0298 530100DA 		ble	.L77
 1005              	.LBE739:
 1006              	.LBE804:
 1007              	.LBB805:
 1008              	.LBB769:
 1009 029c 020056E1 		cmp	r6, r2
 1010              	.LBE769:
 1011              	.LBE805:
 1012              	.LBB806:
 1013              	.LBB740:
 216:C:/Renesas/e2studio_2021_01_workspace_RZA2M_ANPR/ANPR_RZA2M_RDK/src/tensorflow_lite/src/tensorflow/lite/kernels/internal\types.h ****   }
 1014              		.loc 5 216 0
 1015 02a0 022181E0 		add	r2, r1, r2, lsl #2
 1016              	.LVL109:
 1017 02a4 2CC012E5 		ldr	ip, [r2, #-44]
 1018              	.LVL110:
 1019              	.LBE740:
 1020              	.LBE806:
 1021              	.LBB807:
 1022              	.LBB770:
 215:C:/Renesas/e2studio_2021_01_workspace_RZA2M_ANPR/ANPR_RZA2M_RDK/src/tensorflow_lite/src/tensorflow/lite/kernels/internal\types.h ****     return size_ > kMaxSmallSize ? dims_pointer_[i] : dims_[i];
 1023              		.loc 5 215 0
 1024 02a8 130300DA 		ble	.L81
 216:C:/Renesas/e2studio_2021_01_workspace_RZA2M_ANPR/ANPR_RZA2M_RDK/src/tensorflow_lite/src/tensorflow/lite/kernels/internal\types.h ****   }
 1025              		.loc 5 216 0
 1026 02ac 14E012E5 		ldr	lr, [r2, #-20]
 1027              	.LVL111:
 1028              	.LBE770:
 1029              	.LBE807:
 1030              		.loc 4 57 0
 1031 02b0 0E005CE1 		cmp	ip, lr
 1032 02b4 B900001A 		bne	.L82
 1033              	.LVL112:
  56:C:/Renesas/e2studio_2021_01_workspace_RZA2M_ANPR/ANPR_RZA2M_RDK/src/tensorflow_lite/src/tensorflow/lite/kernels/internal/reference\process_broadcast_shapes.h ****     if (extended_shape0.Dims(i) == extended_shape1.Dims(i)) {
 1034              		.loc 4 56 0
 1035 02b8 040055E3 		cmp	r5, #4
 1036 02bc 0300000A 		beq	.L83
 1037              	.LVL113:
 1038              		.loc 4 57 0
 1039 02c0 000058E1 		cmp	r8, r0
 1040              	.LBB808:
 1041              	.LBB741:
 216:C:/Renesas/e2studio_2021_01_workspace_RZA2M_ANPR/ANPR_RZA2M_RDK/src/tensorflow_lite/src/tensorflow/lite/kernels/internal\types.h ****   }
 1042              		.loc 5 216 0
 1043 02c4 08C0A0E1 		mov	ip, r8
 1044              	.LVL114:
 1045              	.LBE741:
 1046              	.LBE808:
 1047              	.LBB809:
 1048              	.LBB771:
 1049 02c8 00E0A0E1 		mov	lr, r0
 1050              	.LVL115:
 1051              	.LBE771:
 1052              	.LBE809:
 1053              		.loc 4 57 0
 1054 02cc B300001A 		bne	.L82
 1055              	.LVL116:
 1056              	.L83:
 1057              	.LBE730:
  58:C:/Renesas/e2studio_2021_01_workspace_RZA2M_ANPR/ANPR_RZA2M_RDK/src/tensorflow_lite/src/tensorflow/lite/kernels/internal/reference\process_broadcast_shapes.h ****       continue;
  59:C:/Renesas/e2studio_2021_01_workspace_RZA2M_ANPR/ANPR_RZA2M_RDK/src/tensorflow_lite/src/tensorflow/lite/kernels/internal/reference\process_broadcast_shapes.h ****     } else if (extended_shape0.Dims(i) == 1) {
  60:C:/Renesas/e2studio_2021_01_workspace_RZA2M_ANPR/ANPR_RZA2M_RDK/src/tensorflow_lite/src/tensorflow/lite/kernels/internal/reference\process_broadcast_shapes.h ****       params->broadcast_category =
  61:C:/Renesas/e2studio_2021_01_workspace_RZA2M_ANPR/ANPR_RZA2M_RDK/src/tensorflow_lite/src/tensorflow/lite/kernels/internal/reference\process_broadcast_shapes.h ****           BroadcastableOpCategory::kFirstInputBroadcastsFast;
  62:C:/Renesas/e2studio_2021_01_workspace_RZA2M_ANPR/ANPR_RZA2M_RDK/src/tensorflow_lite/src/tensorflow/lite/kernels/internal/reference\process_broadcast_shapes.h ****       break;
  63:C:/Renesas/e2studio_2021_01_workspace_RZA2M_ANPR/ANPR_RZA2M_RDK/src/tensorflow_lite/src/tensorflow/lite/kernels/internal/reference\process_broadcast_shapes.h ****     } else if (extended_shape1.Dims(i) == 1) {
  64:C:/Renesas/e2studio_2021_01_workspace_RZA2M_ANPR/ANPR_RZA2M_RDK/src/tensorflow_lite/src/tensorflow/lite/kernels/internal/reference\process_broadcast_shapes.h ****       params->broadcast_category =
  65:C:/Renesas/e2studio_2021_01_workspace_RZA2M_ANPR/ANPR_RZA2M_RDK/src/tensorflow_lite/src/tensorflow/lite/kernels/internal/reference\process_broadcast_shapes.h ****           BroadcastableOpCategory::kSecondInputBroadcastsFast;
  66:C:/Renesas/e2studio_2021_01_workspace_RZA2M_ANPR/ANPR_RZA2M_RDK/src/tensorflow_lite/src/tensorflow/lite/kernels/internal/reference\process_broadcast_shapes.h ****       break;
  67:C:/Renesas/e2studio_2021_01_workspace_RZA2M_ANPR/ANPR_RZA2M_RDK/src/tensorflow_lite/src/tensorflow/lite/kernels/internal/reference\process_broadcast_shapes.h ****     } else {
  68:C:/Renesas/e2studio_2021_01_workspace_RZA2M_ANPR/ANPR_RZA2M_RDK/src/tensorflow_lite/src/tensorflow/lite/kernels/internal/reference\process_broadcast_shapes.h ****       // This case is erroneous: there is a dimension that does not match and
  69:C:/Renesas/e2studio_2021_01_workspace_RZA2M_ANPR/ANPR_RZA2M_RDK/src/tensorflow_lite/src/tensorflow/lite/kernels/internal/reference\process_broadcast_shapes.h ****       // is not a broadcast from one shape to the other.
  70:C:/Renesas/e2studio_2021_01_workspace_RZA2M_ANPR/ANPR_RZA2M_RDK/src/tensorflow_lite/src/tensorflow/lite/kernels/internal/reference\process_broadcast_shapes.h ****       params->broadcast_category = BroadcastableOpCategory::kGenericBroadcast;
  71:C:/Renesas/e2studio_2021_01_workspace_RZA2M_ANPR/ANPR_RZA2M_RDK/src/tensorflow_lite/src/tensorflow/lite/kernels/internal/reference\process_broadcast_shapes.h ****       return true;
  72:C:/Renesas/e2studio_2021_01_workspace_RZA2M_ANPR/ANPR_RZA2M_RDK/src/tensorflow_lite/src/tensorflow/lite/kernels/internal/reference\process_broadcast_shapes.h ****     }
  73:C:/Renesas/e2studio_2021_01_workspace_RZA2M_ANPR/ANPR_RZA2M_RDK/src/tensorflow_lite/src/tensorflow/lite/kernels/internal/reference\process_broadcast_shapes.h ****   }
  74:C:/Renesas/e2studio_2021_01_workspace_RZA2M_ANPR/ANPR_RZA2M_RDK/src/tensorflow_lite/src/tensorflow/lite/kernels/internal/reference\process_broadcast_shapes.h **** 
  75:C:/Renesas/e2studio_2021_01_workspace_RZA2M_ANPR/ANPR_RZA2M_RDK/src/tensorflow_lite/src/tensorflow/lite/kernels/internal/reference\process_broadcast_shapes.h ****   if (params->broadcast_category !=
 1058              		.loc 4 75 0
 1059 02d0 0020D4E5 		ldrb	r2, [r4]	@ zero_extendqisi2
 1060 02d4 021042E2 		sub	r1, r2, #2
 1061 02d8 010051E3 		cmp	r1, #1
 1062 02dc 0E03008A 		bhi	.L506
 1063              	.LVL117:
  76:C:/Renesas/e2studio_2021_01_workspace_RZA2M_ANPR/ANPR_RZA2M_RDK/src/tensorflow_lite/src/tensorflow/lite/kernels/internal/reference\process_broadcast_shapes.h ****           BroadcastableOpCategory::kFirstInputBroadcastsFast &&
  77:C:/Renesas/e2studio_2021_01_workspace_RZA2M_ANPR/ANPR_RZA2M_RDK/src/tensorflow_lite/src/tensorflow/lite/kernels/internal/reference\process_broadcast_shapes.h ****       params->broadcast_category !=
  78:C:/Renesas/e2studio_2021_01_workspace_RZA2M_ANPR/ANPR_RZA2M_RDK/src/tensorflow_lite/src/tensorflow/lite/kernels/internal/reference\process_broadcast_shapes.h ****           BroadcastableOpCategory::kSecondInputBroadcastsFast) {
  79:C:/Renesas/e2studio_2021_01_workspace_RZA2M_ANPR/ANPR_RZA2M_RDK/src/tensorflow_lite/src/tensorflow/lite/kernels/internal/reference\process_broadcast_shapes.h ****     // This is unreachable because at least one else clause in the above loop
  80:C:/Renesas/e2studio_2021_01_workspace_RZA2M_ANPR/ANPR_RZA2M_RDK/src/tensorflow_lite/src/tensorflow/lite/kernels/internal/reference\process_broadcast_shapes.h ****     // must be reached.
  81:C:/Renesas/e2studio_2021_01_workspace_RZA2M_ANPR/ANPR_RZA2M_RDK/src/tensorflow_lite/src/tensorflow/lite/kernels/internal/reference\process_broadcast_shapes.h ****     TFLITE_DCHECK(false);
  82:C:/Renesas/e2studio_2021_01_workspace_RZA2M_ANPR/ANPR_RZA2M_RDK/src/tensorflow_lite/src/tensorflow/lite/kernels/internal/reference\process_broadcast_shapes.h ****     params->broadcast_category = BroadcastableOpCategory::kNonBroadcast;
  83:C:/Renesas/e2studio_2021_01_workspace_RZA2M_ANPR/ANPR_RZA2M_RDK/src/tensorflow_lite/src/tensorflow/lite/kernels/internal/reference\process_broadcast_shapes.h ****     return false;
  84:C:/Renesas/e2studio_2021_01_workspace_RZA2M_ANPR/ANPR_RZA2M_RDK/src/tensorflow_lite/src/tensorflow/lite/kernels/internal/reference\process_broadcast_shapes.h ****   }
  85:C:/Renesas/e2studio_2021_01_workspace_RZA2M_ANPR/ANPR_RZA2M_RDK/src/tensorflow_lite/src/tensorflow/lite/kernels/internal/reference\process_broadcast_shapes.h **** 
  86:C:/Renesas/e2studio_2021_01_workspace_RZA2M_ANPR/ANPR_RZA2M_RDK/src/tensorflow_lite/src/tensorflow/lite/kernels/internal/reference\process_broadcast_shapes.h ****   // From this point it is assumed contractually that corresponding dimensions
  87:C:/Renesas/e2studio_2021_01_workspace_RZA2M_ANPR/ANPR_RZA2M_RDK/src/tensorflow_lite/src/tensorflow/lite/kernels/internal/reference\process_broadcast_shapes.h ****   // in shape0 and shape1 are either (a) equal or (b) one or other equals 1.
  88:C:/Renesas/e2studio_2021_01_workspace_RZA2M_ANPR/ANPR_RZA2M_RDK/src/tensorflow_lite/src/tensorflow/lite/kernels/internal/reference\process_broadcast_shapes.h ****   const bool swap_inputs = params->broadcast_category ==
  89:C:/Renesas/e2studio_2021_01_workspace_RZA2M_ANPR/ANPR_RZA2M_RDK/src/tensorflow_lite/src/tensorflow/lite/kernels/internal/reference\process_broadcast_shapes.h ****                            BroadcastableOpCategory::kSecondInputBroadcastsFast;
  90:C:/Renesas/e2studio_2021_01_workspace_RZA2M_ANPR/ANPR_RZA2M_RDK/src/tensorflow_lite/src/tensorflow/lite/kernels/internal/reference\process_broadcast_shapes.h ****   const RuntimeShape* shape_a =
  91:C:/Renesas/e2studio_2021_01_workspace_RZA2M_ANPR/ANPR_RZA2M_RDK/src/tensorflow_lite/src/tensorflow/lite/kernels/internal/reference\process_broadcast_shapes.h ****       swap_inputs ? &extended_shape1 : &extended_shape0;
 1064              		.loc 4 91 0
 1065 02e0 030052E3 		cmp	r2, #3
  92:C:/Renesas/e2studio_2021_01_workspace_RZA2M_ANPR/ANPR_RZA2M_RDK/src/tensorflow_lite/src/tensorflow/lite/kernels/internal/reference\process_broadcast_shapes.h ****   const RuntimeShape* shape_b =
  93:C:/Renesas/e2studio_2021_01_workspace_RZA2M_ANPR/ANPR_RZA2M_RDK/src/tensorflow_lite/src/tensorflow/lite/kernels/internal/reference\process_broadcast_shapes.h ****       swap_inputs ? &extended_shape0 : &extended_shape1;
  94:C:/Renesas/e2studio_2021_01_workspace_RZA2M_ANPR/ANPR_RZA2M_RDK/src/tensorflow_lite/src/tensorflow/lite/kernels/internal/reference\process_broadcast_shapes.h **** 
  95:C:/Renesas/e2studio_2021_01_workspace_RZA2M_ANPR/ANPR_RZA2M_RDK/src/tensorflow_lite/src/tensorflow/lite/kernels/internal/reference\process_broadcast_shapes.h ****   int i = dims_count - 1;
  96:C:/Renesas/e2studio_2021_01_workspace_RZA2M_ANPR/ANPR_RZA2M_RDK/src/tensorflow_lite/src/tensorflow/lite/kernels/internal/reference\process_broadcast_shapes.h ****   params->broadcast_shape[0] = 1;
 1066              		.loc 4 96 0
 1067 02e4 01E0A0E3 		mov	lr, #1
 1068              	.LBB849:
 1069              	.LBB727:
 197:C:/Renesas/e2studio_2021_01_workspace_RZA2M_ANPR/ANPR_RZA2M_RDK/src/tensorflow_lite/src/tensorflow/lite/kernels/internal\types.h ****            std::memcmp(DimsData(), comp.DimsData(), size_ * sizeof(int32_t)) ==
 1070              		.loc 5 197 0
 1071 02e8 0620A001 		moveq	r2, r6
 1072              	.LVL118:
 1073 02ec 0710A001 		moveq	r1, r7
 1074              	.LVL119:
 1075              	.LBE727:
 1076              	.LBE849:
  91:C:/Renesas/e2studio_2021_01_workspace_RZA2M_ANPR/ANPR_RZA2M_RDK/src/tensorflow_lite/src/tensorflow/lite/kernels/internal/reference\process_broadcast_shapes.h ****   const RuntimeShape* shape_b =
 1077              		.loc 4 91 0
 1078 02f0 38008D02 		addeq	r0, sp, #56
  93:C:/Renesas/e2studio_2021_01_workspace_RZA2M_ANPR/ANPR_RZA2M_RDK/src/tensorflow_lite/src/tensorflow/lite/kernels/internal/reference\process_broadcast_shapes.h **** 
 1079              		.loc 4 93 0
 1080 02f4 20C08D02 		addeq	ip, sp, #32
 1081              	.LBB850:
 1082              	.LBB728:
 197:C:/Renesas/e2studio_2021_01_workspace_RZA2M_ANPR/ANPR_RZA2M_RDK/src/tensorflow_lite/src/tensorflow/lite/kernels/internal\types.h ****            std::memcmp(DimsData(), comp.DimsData(), size_ * sizeof(int32_t)) ==
 1083              		.loc 5 197 0
 1084 02f8 0720A011 		movne	r2, r7
 1085 02fc 0610A011 		movne	r1, r6
 1086              	.LBE728:
 1087              	.LBE850:
  91:C:/Renesas/e2studio_2021_01_workspace_RZA2M_ANPR/ANPR_RZA2M_RDK/src/tensorflow_lite/src/tensorflow/lite/kernels/internal/reference\process_broadcast_shapes.h ****   const RuntimeShape* shape_b =
 1088              		.loc 4 91 0
 1089 0300 20008D12 		addne	r0, sp, #32
  93:C:/Renesas/e2studio_2021_01_workspace_RZA2M_ANPR/ANPR_RZA2M_RDK/src/tensorflow_lite/src/tensorflow/lite/kernels/internal/reference\process_broadcast_shapes.h **** 
 1090              		.loc 4 93 0
 1091 0304 38C08D12 		addne	ip, sp, #56
 1092              	.LVL120:
  97:C:/Renesas/e2studio_2021_01_workspace_RZA2M_ANPR/ANPR_RZA2M_RDK/src/tensorflow_lite/src/tensorflow/lite/kernels/internal/reference\process_broadcast_shapes.h ****   params->broadcast_shape[1] = 1;
  98:C:/Renesas/e2studio_2021_01_workspace_RZA2M_ANPR/ANPR_RZA2M_RDK/src/tensorflow_lite/src/tensorflow/lite/kernels/internal/reference\process_broadcast_shapes.h ****   params->broadcast_shape[2] = 1;
  99:C:/Renesas/e2studio_2021_01_workspace_RZA2M_ANPR/ANPR_RZA2M_RDK/src/tensorflow_lite/src/tensorflow/lite/kernels/internal/reference\process_broadcast_shapes.h ****   params->broadcast_shape[3] = 1;
 100:C:/Renesas/e2studio_2021_01_workspace_RZA2M_ANPR/ANPR_RZA2M_RDK/src/tensorflow_lite/src/tensorflow/lite/kernels/internal/reference\process_broadcast_shapes.h ****   params->broadcast_shape[4] = 1;
 101:C:/Renesas/e2studio_2021_01_workspace_RZA2M_ANPR/ANPR_RZA2M_RDK/src/tensorflow_lite/src/tensorflow/lite/kernels/internal/reference\process_broadcast_shapes.h ****   // y_0 is greedy: include dims if both or neither equal 1: in other words,
 102:C:/Renesas/e2studio_2021_01_workspace_RZA2M_ANPR/ANPR_RZA2M_RDK/src/tensorflow_lite/src/tensorflow/lite/kernels/internal/reference\process_broadcast_shapes.h ****   // test for equality rather than (shape_a->Dims(i) != 1).
 103:C:/Renesas/e2studio_2021_01_workspace_RZA2M_ANPR/ANPR_RZA2M_RDK/src/tensorflow_lite/src/tensorflow/lite/kernels/internal/reference\process_broadcast_shapes.h ****   while (i >= 0 && shape_a->Dims(i) == shape_b->Dims(i)) {
 1093              		.loc 4 103 0
 1094 0308 000053E3 		cmp	r3, #0
  96:C:/Renesas/e2studio_2021_01_workspace_RZA2M_ANPR/ANPR_RZA2M_RDK/src/tensorflow_lite/src/tensorflow/lite/kernels/internal/reference\process_broadcast_shapes.h ****   params->broadcast_shape[1] = 1;
 1095              		.loc 4 96 0
 1096 030c 50E084E5 		str	lr, [r4, #80]
  97:C:/Renesas/e2studio_2021_01_workspace_RZA2M_ANPR/ANPR_RZA2M_RDK/src/tensorflow_lite/src/tensorflow/lite/kernels/internal/reference\process_broadcast_shapes.h ****   params->broadcast_shape[1] = 1;
 1097              		.loc 4 97 0
 1098 0310 54E084E5 		str	lr, [r4, #84]
  98:C:/Renesas/e2studio_2021_01_workspace_RZA2M_ANPR/ANPR_RZA2M_RDK/src/tensorflow_lite/src/tensorflow/lite/kernels/internal/reference\process_broadcast_shapes.h ****   params->broadcast_shape[3] = 1;
 1099              		.loc 4 98 0
 1100 0314 58E084E5 		str	lr, [r4, #88]
  99:C:/Renesas/e2studio_2021_01_workspace_RZA2M_ANPR/ANPR_RZA2M_RDK/src/tensorflow_lite/src/tensorflow/lite/kernels/internal/reference\process_broadcast_shapes.h ****   params->broadcast_shape[4] = 1;
 1101              		.loc 4 99 0
 1102 0318 5CE084E5 		str	lr, [r4, #92]
 100:C:/Renesas/e2studio_2021_01_workspace_RZA2M_ANPR/ANPR_RZA2M_RDK/src/tensorflow_lite/src/tensorflow/lite/kernels/internal/reference\process_broadcast_shapes.h ****   // y_0 is greedy: include dims if both or neither equal 1: in other words,
 1103              		.loc 4 100 0
 1104 031c 60E084E5 		str	lr, [r4, #96]
 1105              		.loc 4 103 0
 1106 0320 570100AA 		bge	.L90
 1107              	.LVL121:
 1108              	.L97:
 1109              	.LBB851:
 1110              	.LBB852:
 203:C:/Renesas/e2studio_2021_01_workspace_RZA2M_ANPR/ANPR_RZA2M_RDK/src/tensorflow_lite/src/tensorflow/lite/kernels/internal\types.h **** #ifdef TF_LITE_STATIC_MEMORY
 1111              		.loc 5 203 0
 1112 0324 050056E3 		cmp	r6, #5
 1113              	.LBE852:
 1114              	.LBE851:
 104:C:/Renesas/e2studio_2021_01_workspace_RZA2M_ANPR/ANPR_RZA2M_RDK/src/tensorflow_lite/src/tensorflow/lite/kernels/internal/reference\process_broadcast_shapes.h ****     params->broadcast_shape[4] *= shape_b->Dims(i);
 105:C:/Renesas/e2studio_2021_01_workspace_RZA2M_ANPR/ANPR_RZA2M_RDK/src/tensorflow_lite/src/tensorflow/lite/kernels/internal/reference\process_broadcast_shapes.h ****     --i;
 106:C:/Renesas/e2studio_2021_01_workspace_RZA2M_ANPR/ANPR_RZA2M_RDK/src/tensorflow_lite/src/tensorflow/lite/kernels/internal/reference\process_broadcast_shapes.h ****   }
 107:C:/Renesas/e2studio_2021_01_workspace_RZA2M_ANPR/ANPR_RZA2M_RDK/src/tensorflow_lite/src/tensorflow/lite/kernels/internal/reference\process_broadcast_shapes.h ****   // Here either input_a or input_b has dim of 1 (if i >= 0).  If it is input_b
 108:C:/Renesas/e2studio_2021_01_workspace_RZA2M_ANPR/ANPR_RZA2M_RDK/src/tensorflow_lite/src/tensorflow/lite/kernels/internal/reference\process_broadcast_shapes.h ****   // that has the unit dimension, the next two loops are not entered.
 109:C:/Renesas/e2studio_2021_01_workspace_RZA2M_ANPR/ANPR_RZA2M_RDK/src/tensorflow_lite/src/tensorflow/lite/kernels/internal/reference\process_broadcast_shapes.h ****   while (i >= 0 && shape_a->Dims(i) == 1) {
 110:C:/Renesas/e2studio_2021_01_workspace_RZA2M_ANPR/ANPR_RZA2M_RDK/src/tensorflow_lite/src/tensorflow/lite/kernels/internal/reference\process_broadcast_shapes.h ****     params->broadcast_shape[3] *= shape_b->Dims(i);
 111:C:/Renesas/e2studio_2021_01_workspace_RZA2M_ANPR/ANPR_RZA2M_RDK/src/tensorflow_lite/src/tensorflow/lite/kernels/internal/reference\process_broadcast_shapes.h ****     --i;
 112:C:/Renesas/e2studio_2021_01_workspace_RZA2M_ANPR/ANPR_RZA2M_RDK/src/tensorflow_lite/src/tensorflow/lite/kernels/internal/reference\process_broadcast_shapes.h ****   }
 113:C:/Renesas/e2studio_2021_01_workspace_RZA2M_ANPR/ANPR_RZA2M_RDK/src/tensorflow_lite/src/tensorflow/lite/kernels/internal/reference\process_broadcast_shapes.h ****   while (i >= 0 && shape_a->Dims(i) == shape_b->Dims(i)) {
 114:C:/Renesas/e2studio_2021_01_workspace_RZA2M_ANPR/ANPR_RZA2M_RDK/src/tensorflow_lite/src/tensorflow/lite/kernels/internal/reference\process_broadcast_shapes.h ****     params->broadcast_shape[2] *= shape_a->Dims(i);
