   1              		.cpu cortex-a9
   2              		.eabi_attribute 28, 1
   3              		.eabi_attribute 20, 1
   4              		.eabi_attribute 21, 1
   5              		.eabi_attribute 23, 3
   6              		.eabi_attribute 24, 1
   7              		.eabi_attribute 25, 1
   8              		.eabi_attribute 26, 1
   9              		.eabi_attribute 30, 2
  10              		.eabi_attribute 34, 0
  11              		.eabi_attribute 18, 4
  12              		.file	"mul.cpp"
  13              		.text
  14              	.Ltext0:
  15              		.cfi_sections	.debug_frame
  16              		.section	.text._ZN6tflite3ops5micro3mul4InitEP13TfLiteContextPKcj,"ax",%progbits
  17              		.align	2
  18              		.global	_ZN6tflite3ops5micro3mul4InitEP13TfLiteContextPKcj
  19              		.syntax unified
  20              		.arm
  21              		.fpu neon
  23              	_ZN6tflite3ops5micro3mul4InitEP13TfLiteContextPKcj:
  24              		.fnstart
  25              	.LFB9115:
  26              		.file 1 "../src/tensorflow_lite/src/tensorflow/lite/micro/kernels/cmsis_nn/mul.cpp"
   1:../src/tensorflow_lite/src/tensorflow/lite/micro/kernels/cmsis_nn/mul.cpp **** /* Copyright 2019 The TensorFlow Authors. All Rights Reserved.
   2:../src/tensorflow_lite/src/tensorflow/lite/micro/kernels/cmsis_nn/mul.cpp **** 
   3:../src/tensorflow_lite/src/tensorflow/lite/micro/kernels/cmsis_nn/mul.cpp **** Licensed under the Apache License, Version 2.0 (the "License");
   4:../src/tensorflow_lite/src/tensorflow/lite/micro/kernels/cmsis_nn/mul.cpp **** you may not use this file except in compliance with the License.
   5:../src/tensorflow_lite/src/tensorflow/lite/micro/kernels/cmsis_nn/mul.cpp **** You may obtain a copy of the License at
   6:../src/tensorflow_lite/src/tensorflow/lite/micro/kernels/cmsis_nn/mul.cpp **** 
   7:../src/tensorflow_lite/src/tensorflow/lite/micro/kernels/cmsis_nn/mul.cpp ****     http://www.apache.org/licenses/LICENSE-2.0
   8:../src/tensorflow_lite/src/tensorflow/lite/micro/kernels/cmsis_nn/mul.cpp **** 
   9:../src/tensorflow_lite/src/tensorflow/lite/micro/kernels/cmsis_nn/mul.cpp **** Unless required by applicable law or agreed to in writing, software
  10:../src/tensorflow_lite/src/tensorflow/lite/micro/kernels/cmsis_nn/mul.cpp **** distributed under the License is distributed on an "AS IS" BASIS,
  11:../src/tensorflow_lite/src/tensorflow/lite/micro/kernels/cmsis_nn/mul.cpp **** WITHOUT WARRANTIES OR CONDITIONS OF ANY KIND, either express or implied.
  12:../src/tensorflow_lite/src/tensorflow/lite/micro/kernels/cmsis_nn/mul.cpp **** See the License for the specific language governing permissions and
  13:../src/tensorflow_lite/src/tensorflow/lite/micro/kernels/cmsis_nn/mul.cpp **** limitations under the License.
  14:../src/tensorflow_lite/src/tensorflow/lite/micro/kernels/cmsis_nn/mul.cpp **** ==============================================================================*/
  15:../src/tensorflow_lite/src/tensorflow/lite/micro/kernels/cmsis_nn/mul.cpp **** 
  16:../src/tensorflow_lite/src/tensorflow/lite/micro/kernels/cmsis_nn/mul.cpp **** #include "tensorflow/lite/kernels/internal/reference/mul.h"
  17:../src/tensorflow_lite/src/tensorflow/lite/micro/kernels/cmsis_nn/mul.cpp **** 
  18:../src/tensorflow_lite/src/tensorflow/lite/micro/kernels/cmsis_nn/mul.cpp **** #include "tensorflow/lite/micro/tools/make/downloads/cmsis/CMSIS/NN/Include/arm_nnfunctions.h"
  19:../src/tensorflow_lite/src/tensorflow/lite/micro/kernels/cmsis_nn/mul.cpp **** #include "tensorflow/lite/kernels/internal/quantization_util.h"
  20:../src/tensorflow_lite/src/tensorflow/lite/micro/kernels/cmsis_nn/mul.cpp **** #include "tensorflow/lite/kernels/internal/reference/integer_ops/mul.h"
  21:../src/tensorflow_lite/src/tensorflow/lite/micro/kernels/cmsis_nn/mul.cpp **** #include "tensorflow/lite/kernels/internal/reference/process_broadcast_shapes.h"
  22:../src/tensorflow_lite/src/tensorflow/lite/micro/kernels/cmsis_nn/mul.cpp **** #include "tensorflow/lite/kernels/internal/tensor_ctypes.h"
  23:../src/tensorflow_lite/src/tensorflow/lite/micro/kernels/cmsis_nn/mul.cpp **** #include "tensorflow/lite/kernels/kernel_util.h"
  24:../src/tensorflow_lite/src/tensorflow/lite/micro/kernels/cmsis_nn/mul.cpp **** #include "tensorflow/lite/micro/kernels/kernel_util.h"
  25:../src/tensorflow_lite/src/tensorflow/lite/micro/kernels/cmsis_nn/mul.cpp **** #include "tensorflow/lite/micro/memory_helpers.h"
  26:../src/tensorflow_lite/src/tensorflow/lite/micro/kernels/cmsis_nn/mul.cpp **** 
  27:../src/tensorflow_lite/src/tensorflow/lite/micro/kernels/cmsis_nn/mul.cpp **** namespace tflite {
  28:../src/tensorflow_lite/src/tensorflow/lite/micro/kernels/cmsis_nn/mul.cpp **** namespace ops {
  29:../src/tensorflow_lite/src/tensorflow/lite/micro/kernels/cmsis_nn/mul.cpp **** namespace micro {
  30:../src/tensorflow_lite/src/tensorflow/lite/micro/kernels/cmsis_nn/mul.cpp **** namespace mul {
  31:../src/tensorflow_lite/src/tensorflow/lite/micro/kernels/cmsis_nn/mul.cpp **** 
  32:../src/tensorflow_lite/src/tensorflow/lite/micro/kernels/cmsis_nn/mul.cpp **** constexpr int kInput1Tensor = 0;
  33:../src/tensorflow_lite/src/tensorflow/lite/micro/kernels/cmsis_nn/mul.cpp **** constexpr int kInput2Tensor = 1;
  34:../src/tensorflow_lite/src/tensorflow/lite/micro/kernels/cmsis_nn/mul.cpp **** constexpr int kOutputTensor = 0;
  35:../src/tensorflow_lite/src/tensorflow/lite/micro/kernels/cmsis_nn/mul.cpp **** 
  36:../src/tensorflow_lite/src/tensorflow/lite/micro/kernels/cmsis_nn/mul.cpp **** struct OpData {
  37:../src/tensorflow_lite/src/tensorflow/lite/micro/kernels/cmsis_nn/mul.cpp ****   int32_t output_activation_min;
  38:../src/tensorflow_lite/src/tensorflow/lite/micro/kernels/cmsis_nn/mul.cpp ****   int32_t output_activation_max;
  39:../src/tensorflow_lite/src/tensorflow/lite/micro/kernels/cmsis_nn/mul.cpp **** 
  40:../src/tensorflow_lite/src/tensorflow/lite/micro/kernels/cmsis_nn/mul.cpp ****   int32_t output_multiplier;
  41:../src/tensorflow_lite/src/tensorflow/lite/micro/kernels/cmsis_nn/mul.cpp ****   int output_shift;
  42:../src/tensorflow_lite/src/tensorflow/lite/micro/kernels/cmsis_nn/mul.cpp **** 
  43:../src/tensorflow_lite/src/tensorflow/lite/micro/kernels/cmsis_nn/mul.cpp ****   // Cached tensor zero point values for quantized operations.
  44:../src/tensorflow_lite/src/tensorflow/lite/micro/kernels/cmsis_nn/mul.cpp ****   int32_t input1_zero_point;
  45:../src/tensorflow_lite/src/tensorflow/lite/micro/kernels/cmsis_nn/mul.cpp ****   int32_t input2_zero_point;
  46:../src/tensorflow_lite/src/tensorflow/lite/micro/kernels/cmsis_nn/mul.cpp ****   int32_t output_zero_point;
  47:../src/tensorflow_lite/src/tensorflow/lite/micro/kernels/cmsis_nn/mul.cpp **** 
  48:../src/tensorflow_lite/src/tensorflow/lite/micro/kernels/cmsis_nn/mul.cpp ****   float output_activation_min_f32;
  49:../src/tensorflow_lite/src/tensorflow/lite/micro/kernels/cmsis_nn/mul.cpp ****   float output_activation_max_f32;
  50:../src/tensorflow_lite/src/tensorflow/lite/micro/kernels/cmsis_nn/mul.cpp **** };
  51:../src/tensorflow_lite/src/tensorflow/lite/micro/kernels/cmsis_nn/mul.cpp **** 
  52:../src/tensorflow_lite/src/tensorflow/lite/micro/kernels/cmsis_nn/mul.cpp **** TfLiteStatus CalculateOpData(TfLiteContext* context, TfLiteNode* node,
  53:../src/tensorflow_lite/src/tensorflow/lite/micro/kernels/cmsis_nn/mul.cpp ****                              TfLiteMulParams* params, OpData* data) {
  54:../src/tensorflow_lite/src/tensorflow/lite/micro/kernels/cmsis_nn/mul.cpp ****   const TfLiteTensor* input1 = GetInput(context, node, kInput1Tensor);
  55:../src/tensorflow_lite/src/tensorflow/lite/micro/kernels/cmsis_nn/mul.cpp ****   TF_LITE_ENSURE(context, input1 != nullptr);
  56:../src/tensorflow_lite/src/tensorflow/lite/micro/kernels/cmsis_nn/mul.cpp ****   const TfLiteTensor* input2 = GetInput(context, node, kInput2Tensor);
  57:../src/tensorflow_lite/src/tensorflow/lite/micro/kernels/cmsis_nn/mul.cpp ****   TF_LITE_ENSURE(context, input2 != nullptr);
  58:../src/tensorflow_lite/src/tensorflow/lite/micro/kernels/cmsis_nn/mul.cpp ****   TfLiteTensor* output = GetOutput(context, node, kOutputTensor);
  59:../src/tensorflow_lite/src/tensorflow/lite/micro/kernels/cmsis_nn/mul.cpp ****   TF_LITE_ENSURE(context, output != nullptr);
  60:../src/tensorflow_lite/src/tensorflow/lite/micro/kernels/cmsis_nn/mul.cpp **** 
  61:../src/tensorflow_lite/src/tensorflow/lite/micro/kernels/cmsis_nn/mul.cpp ****   TF_LITE_ENSURE_EQ(context, NumInputs(node), 2);
  62:../src/tensorflow_lite/src/tensorflow/lite/micro/kernels/cmsis_nn/mul.cpp ****   TF_LITE_ENSURE_EQ(context, NumOutputs(node), 1);
  63:../src/tensorflow_lite/src/tensorflow/lite/micro/kernels/cmsis_nn/mul.cpp **** 
  64:../src/tensorflow_lite/src/tensorflow/lite/micro/kernels/cmsis_nn/mul.cpp ****   TF_LITE_ENSURE_TYPES_EQ(context, input1->type, input2->type);
  65:../src/tensorflow_lite/src/tensorflow/lite/micro/kernels/cmsis_nn/mul.cpp **** 
  66:../src/tensorflow_lite/src/tensorflow/lite/micro/kernels/cmsis_nn/mul.cpp ****   if (output->type == kTfLiteUInt8 || output->type == kTfLiteInt8) {
  67:../src/tensorflow_lite/src/tensorflow/lite/micro/kernels/cmsis_nn/mul.cpp ****     TF_LITE_ENSURE_STATUS(CalculateActivationRangeQuantized(
  68:../src/tensorflow_lite/src/tensorflow/lite/micro/kernels/cmsis_nn/mul.cpp ****         context, params->activation, output, &data->output_activation_min,
  69:../src/tensorflow_lite/src/tensorflow/lite/micro/kernels/cmsis_nn/mul.cpp ****         &data->output_activation_max));
  70:../src/tensorflow_lite/src/tensorflow/lite/micro/kernels/cmsis_nn/mul.cpp **** 
  71:../src/tensorflow_lite/src/tensorflow/lite/micro/kernels/cmsis_nn/mul.cpp ****     double real_multiplier = static_cast<double>(input1->params.scale) *
  72:../src/tensorflow_lite/src/tensorflow/lite/micro/kernels/cmsis_nn/mul.cpp ****                              static_cast<double>(input2->params.scale) /
  73:../src/tensorflow_lite/src/tensorflow/lite/micro/kernels/cmsis_nn/mul.cpp ****                              static_cast<double>(output->params.scale);
  74:../src/tensorflow_lite/src/tensorflow/lite/micro/kernels/cmsis_nn/mul.cpp ****     QuantizeMultiplier(real_multiplier, &data->output_multiplier,
  75:../src/tensorflow_lite/src/tensorflow/lite/micro/kernels/cmsis_nn/mul.cpp ****                        &data->output_shift);
  76:../src/tensorflow_lite/src/tensorflow/lite/micro/kernels/cmsis_nn/mul.cpp **** 
  77:../src/tensorflow_lite/src/tensorflow/lite/micro/kernels/cmsis_nn/mul.cpp ****     data->input1_zero_point = input1->params.zero_point;
  78:../src/tensorflow_lite/src/tensorflow/lite/micro/kernels/cmsis_nn/mul.cpp ****     data->input2_zero_point = input2->params.zero_point;
  79:../src/tensorflow_lite/src/tensorflow/lite/micro/kernels/cmsis_nn/mul.cpp ****     data->output_zero_point = output->params.zero_point;
  80:../src/tensorflow_lite/src/tensorflow/lite/micro/kernels/cmsis_nn/mul.cpp ****   } else {
  81:../src/tensorflow_lite/src/tensorflow/lite/micro/kernels/cmsis_nn/mul.cpp ****     CalculateActivationRange(params->activation,
  82:../src/tensorflow_lite/src/tensorflow/lite/micro/kernels/cmsis_nn/mul.cpp ****                              &data->output_activation_min_f32,
  83:../src/tensorflow_lite/src/tensorflow/lite/micro/kernels/cmsis_nn/mul.cpp ****                              &data->output_activation_max_f32);
  84:../src/tensorflow_lite/src/tensorflow/lite/micro/kernels/cmsis_nn/mul.cpp ****   }
  85:../src/tensorflow_lite/src/tensorflow/lite/micro/kernels/cmsis_nn/mul.cpp **** 
  86:../src/tensorflow_lite/src/tensorflow/lite/micro/kernels/cmsis_nn/mul.cpp ****   return kTfLiteOk;
  87:../src/tensorflow_lite/src/tensorflow/lite/micro/kernels/cmsis_nn/mul.cpp **** }
  88:../src/tensorflow_lite/src/tensorflow/lite/micro/kernels/cmsis_nn/mul.cpp **** 
  89:../src/tensorflow_lite/src/tensorflow/lite/micro/kernels/cmsis_nn/mul.cpp **** void* Init(TfLiteContext* context, const char* buffer, size_t length) {
  27              		.loc 1 89 0
  28              		.cfi_startproc
  29              		@ args = 0, pretend = 0, frame = 0
  30              		@ frame_needed = 0, uses_anonymous_args = 0
  31              	.LVL0:
  90:../src/tensorflow_lite/src/tensorflow/lite/micro/kernels/cmsis_nn/mul.cpp ****   TFLITE_DCHECK(context->AllocatePersistentBuffer != nullptr);
  32              		.loc 1 90 0
  33 0000 383090E5 		ldr	r3, [r0, #56]
  34 0004 000053E3 		cmp	r3, #0
  35 0008 0100000A 		beq	.L7
  91:../src/tensorflow_lite/src/tensorflow/lite/micro/kernels/cmsis_nn/mul.cpp ****   return context->AllocatePersistentBuffer(context, sizeof(OpData));
  36              		.loc 1 91 0
  37 000c 2410A0E3 		mov	r1, #36
  38              	.LVL1:
  39 0010 13FF2FE1 		bx	r3
  40              	.LVL2:
  41              	.L7:
  89:../src/tensorflow_lite/src/tensorflow/lite/micro/kernels/cmsis_nn/mul.cpp ****   TFLITE_DCHECK(context->AllocatePersistentBuffer != nullptr);
  42              		.loc 1 89 0 discriminator 1
  43 0014 10402DE9 		push	{r4, lr}
  44              		.save {r4, lr}
  45              		.cfi_def_cfa_offset 8
  46              		.cfi_offset 4, -8
  47              		.cfi_offset 14, -4
  90:../src/tensorflow_lite/src/tensorflow/lite/micro/kernels/cmsis_nn/mul.cpp ****   TFLITE_DCHECK(context->AllocatePersistentBuffer != nullptr);
  48              		.loc 1 90 0 discriminator 1
  49 0018 FEFFFFEB 		bl	abort
  50              	.LVL3:
  51              		.cfi_endproc
  52              	.LFE9115:
  53              		.fnend
  55              		.section	.text._ZN6tflite3ops5micro3mul7PrepareEP13TfLiteContextP10TfLiteNode,"ax",%progbits
  56              		.align	2
  57              		.global	_ZN6tflite3ops5micro3mul7PrepareEP13TfLiteContextP10TfLiteNode
  58              		.syntax unified
  59              		.arm
  60              		.fpu neon
  62              	_ZN6tflite3ops5micro3mul7PrepareEP13TfLiteContextP10TfLiteNode:
  63              		.fnstart
  64              	.LFB9116:
  92:../src/tensorflow_lite/src/tensorflow/lite/micro/kernels/cmsis_nn/mul.cpp **** }
  93:../src/tensorflow_lite/src/tensorflow/lite/micro/kernels/cmsis_nn/mul.cpp **** 
  94:../src/tensorflow_lite/src/tensorflow/lite/micro/kernels/cmsis_nn/mul.cpp **** TfLiteStatus Prepare(TfLiteContext* context, TfLiteNode* node) {
  65              		.loc 1 94 0
  66              		.cfi_startproc
  67              		@ args = 0, pretend = 0, frame = 0
  68              		@ frame_needed = 0, uses_anonymous_args = 0
  69              	.LVL4:
  70 0000 F04F2DE9 		push	{r4, r5, r6, r7, r8, r9, r10, fp, lr}
  71              		.save {r4, r5, r6, r7, r8, r9, r10, fp, lr}
  72              		.cfi_def_cfa_offset 36
  73              		.cfi_offset 4, -36
  74              		.cfi_offset 5, -32
  75              		.cfi_offset 6, -28
  76              		.cfi_offset 7, -24
  77              		.cfi_offset 8, -20
  78              		.cfi_offset 9, -16
  79              		.cfi_offset 10, -12
  80              		.cfi_offset 11, -8
  81              		.cfi_offset 14, -4
  82              		.pad #20
  83 0004 14D04DE2 		sub	sp, sp, #20
  84              		.cfi_def_cfa_offset 56
  95:../src/tensorflow_lite/src/tensorflow/lite/micro/kernels/cmsis_nn/mul.cpp ****   TFLITE_DCHECK(node->builtin_data != nullptr);
  85              		.loc 1 95 0
  86 0008 147091E5 		ldr	r7, [r1, #20]
  87 000c 000057E3 		cmp	r7, #0
  88 0010 C400000A 		beq	.L10
  96:../src/tensorflow_lite/src/tensorflow/lite/micro/kernels/cmsis_nn/mul.cpp ****   auto* params = reinterpret_cast<TfLiteMulParams*>(node->builtin_data);
  97:../src/tensorflow_lite/src/tensorflow/lite/micro/kernels/cmsis_nn/mul.cpp **** 
  98:../src/tensorflow_lite/src/tensorflow/lite/micro/kernels/cmsis_nn/mul.cpp ****   TFLITE_DCHECK(node->user_data != nullptr);
  89              		.loc 1 98 0
  90 0014 106091E5 		ldr	r6, [r1, #16]
  91 0018 0140A0E1 		mov	r4, r1
  92              	.LVL5:
  93 001c 000056E3 		cmp	r6, #0
  94 0020 C000000A 		beq	.L10
  95              	.LVL6:
  96              	.LBB446:
  97              	.LBB447:
  54:../src/tensorflow_lite/src/tensorflow/lite/micro/kernels/cmsis_nn/mul.cpp ****   TF_LITE_ENSURE(context, input1 != nullptr);
  98              		.loc 1 54 0
  99 0024 0020A0E3 		mov	r2, #0
 100 0028 0050A0E1 		mov	r5, r0
 101              	.LVL7:
 102 002c FEFFFFEB 		bl	_ZN6tflite8GetInputEPK13TfLiteContextPK10TfLiteNodei
 103              	.LVL8:
  55:../src/tensorflow_lite/src/tensorflow/lite/micro/kernels/cmsis_nn/mul.cpp ****   const TfLiteTensor* input2 = GetInput(context, node, kInput2Tensor);
 104              		.loc 1 55 0
 105 0030 009050E2 		subs	r9, r0, #0
 106 0034 6900000A 		beq	.L27
  56:../src/tensorflow_lite/src/tensorflow/lite/micro/kernels/cmsis_nn/mul.cpp ****   TF_LITE_ENSURE(context, input2 != nullptr);
 107              		.loc 1 56 0
 108 0038 0120A0E3 		mov	r2, #1
 109 003c 0410A0E1 		mov	r1, r4
 110 0040 0500A0E1 		mov	r0, r5
 111              	.LVL9:
 112 0044 FEFFFFEB 		bl	_ZN6tflite8GetInputEPK13TfLiteContextPK10TfLiteNodei
 113              	.LVL10:
  57:../src/tensorflow_lite/src/tensorflow/lite/micro/kernels/cmsis_nn/mul.cpp ****   TfLiteTensor* output = GetOutput(context, node, kOutputTensor);
 114              		.loc 1 57 0
 115 0048 008050E2 		subs	r8, r0, #0
 116 004c 7200000A 		beq	.L28
  58:../src/tensorflow_lite/src/tensorflow/lite/micro/kernels/cmsis_nn/mul.cpp ****   TF_LITE_ENSURE(context, output != nullptr);
 117              		.loc 1 58 0
 118 0050 0020A0E3 		mov	r2, #0
 119 0054 0410A0E1 		mov	r1, r4
 120 0058 0500A0E1 		mov	r0, r5
 121              	.LVL11:
 122 005c FEFFFFEB 		bl	_ZN6tflite9GetOutputEP13TfLiteContextPK10TfLiteNodei
 123              	.LVL12:
  59:../src/tensorflow_lite/src/tensorflow/lite/micro/kernels/cmsis_nn/mul.cpp **** 
 124              		.loc 1 59 0
 125 0060 00A050E2 		subs	r10, r0, #0
 126 0064 9400000A 		beq	.L29
 127              	.LVL13:
 128              	.LBB448:
 129              	.LBB449:
 130              		.file 2 "C:/Renesas/e2studio_2021_01_workspace_RZA2M_ANPR/ANPR_RZA2M_RDK/src/tensorflow_lite/src/t
   1:C:/Renesas/e2studio_2021_01_workspace_RZA2M_ANPR/ANPR_RZA2M_RDK/src/tensorflow_lite/src/tensorflow/lite/kernels\kernel_util.h **** /* Copyright 2017 The TensorFlow Authors. All Rights Reserved.
   2:C:/Renesas/e2studio_2021_01_workspace_RZA2M_ANPR/ANPR_RZA2M_RDK/src/tensorflow_lite/src/tensorflow/lite/kernels\kernel_util.h **** 
   3:C:/Renesas/e2studio_2021_01_workspace_RZA2M_ANPR/ANPR_RZA2M_RDK/src/tensorflow_lite/src/tensorflow/lite/kernels\kernel_util.h **** Licensed under the Apache License, Version 2.0 (the "License");
   4:C:/Renesas/e2studio_2021_01_workspace_RZA2M_ANPR/ANPR_RZA2M_RDK/src/tensorflow_lite/src/tensorflow/lite/kernels\kernel_util.h **** you may not use this file except in compliance with the License.
   5:C:/Renesas/e2studio_2021_01_workspace_RZA2M_ANPR/ANPR_RZA2M_RDK/src/tensorflow_lite/src/tensorflow/lite/kernels\kernel_util.h **** You may obtain a copy of the License at
   6:C:/Renesas/e2studio_2021_01_workspace_RZA2M_ANPR/ANPR_RZA2M_RDK/src/tensorflow_lite/src/tensorflow/lite/kernels\kernel_util.h **** 
   7:C:/Renesas/e2studio_2021_01_workspace_RZA2M_ANPR/ANPR_RZA2M_RDK/src/tensorflow_lite/src/tensorflow/lite/kernels\kernel_util.h ****     http://www.apache.org/licenses/LICENSE-2.0
   8:C:/Renesas/e2studio_2021_01_workspace_RZA2M_ANPR/ANPR_RZA2M_RDK/src/tensorflow_lite/src/tensorflow/lite/kernels\kernel_util.h **** 
   9:C:/Renesas/e2studio_2021_01_workspace_RZA2M_ANPR/ANPR_RZA2M_RDK/src/tensorflow_lite/src/tensorflow/lite/kernels\kernel_util.h **** Unless required by applicable law or agreed to in writing, software
  10:C:/Renesas/e2studio_2021_01_workspace_RZA2M_ANPR/ANPR_RZA2M_RDK/src/tensorflow_lite/src/tensorflow/lite/kernels\kernel_util.h **** distributed under the License is distributed on an "AS IS" BASIS,
  11:C:/Renesas/e2studio_2021_01_workspace_RZA2M_ANPR/ANPR_RZA2M_RDK/src/tensorflow_lite/src/tensorflow/lite/kernels\kernel_util.h **** WITHOUT WARRANTIES OR CONDITIONS OF ANY KIND, either express or implied.
  12:C:/Renesas/e2studio_2021_01_workspace_RZA2M_ANPR/ANPR_RZA2M_RDK/src/tensorflow_lite/src/tensorflow/lite/kernels\kernel_util.h **** See the License for the specific language governing permissions and
  13:C:/Renesas/e2studio_2021_01_workspace_RZA2M_ANPR/ANPR_RZA2M_RDK/src/tensorflow_lite/src/tensorflow/lite/kernels\kernel_util.h **** limitations under the License.
  14:C:/Renesas/e2studio_2021_01_workspace_RZA2M_ANPR/ANPR_RZA2M_RDK/src/tensorflow_lite/src/tensorflow/lite/kernels\kernel_util.h **** ==============================================================================*/
  15:C:/Renesas/e2studio_2021_01_workspace_RZA2M_ANPR/ANPR_RZA2M_RDK/src/tensorflow_lite/src/tensorflow/lite/kernels\kernel_util.h **** #ifndef TENSORFLOW_LITE_KERNELS_KERNEL_UTIL_H_
  16:C:/Renesas/e2studio_2021_01_workspace_RZA2M_ANPR/ANPR_RZA2M_RDK/src/tensorflow_lite/src/tensorflow/lite/kernels\kernel_util.h **** #define TENSORFLOW_LITE_KERNELS_KERNEL_UTIL_H_
  17:C:/Renesas/e2studio_2021_01_workspace_RZA2M_ANPR/ANPR_RZA2M_RDK/src/tensorflow_lite/src/tensorflow/lite/kernels\kernel_util.h **** 
  18:C:/Renesas/e2studio_2021_01_workspace_RZA2M_ANPR/ANPR_RZA2M_RDK/src/tensorflow_lite/src/tensorflow/lite/kernels\kernel_util.h **** #include <stdint.h>
  19:C:/Renesas/e2studio_2021_01_workspace_RZA2M_ANPR/ANPR_RZA2M_RDK/src/tensorflow_lite/src/tensorflow/lite/kernels\kernel_util.h **** 
  20:C:/Renesas/e2studio_2021_01_workspace_RZA2M_ANPR/ANPR_RZA2M_RDK/src/tensorflow_lite/src/tensorflow/lite/kernels\kernel_util.h **** #include <limits>
  21:C:/Renesas/e2studio_2021_01_workspace_RZA2M_ANPR/ANPR_RZA2M_RDK/src/tensorflow_lite/src/tensorflow/lite/kernels\kernel_util.h **** 
  22:C:/Renesas/e2studio_2021_01_workspace_RZA2M_ANPR/ANPR_RZA2M_RDK/src/tensorflow_lite/src/tensorflow/lite/kernels\kernel_util.h **** #include "tensorflow/lite/c/builtin_op_data.h"
  23:C:/Renesas/e2studio_2021_01_workspace_RZA2M_ANPR/ANPR_RZA2M_RDK/src/tensorflow_lite/src/tensorflow/lite/kernels\kernel_util.h **** #include "tensorflow/lite/c/common.h"
  24:C:/Renesas/e2studio_2021_01_workspace_RZA2M_ANPR/ANPR_RZA2M_RDK/src/tensorflow_lite/src/tensorflow/lite/kernels\kernel_util.h **** 
  25:C:/Renesas/e2studio_2021_01_workspace_RZA2M_ANPR/ANPR_RZA2M_RDK/src/tensorflow_lite/src/tensorflow/lite/kernels\kernel_util.h **** namespace tflite {
  26:C:/Renesas/e2studio_2021_01_workspace_RZA2M_ANPR/ANPR_RZA2M_RDK/src/tensorflow_lite/src/tensorflow/lite/kernels\kernel_util.h **** 
  27:C:/Renesas/e2studio_2021_01_workspace_RZA2M_ANPR/ANPR_RZA2M_RDK/src/tensorflow_lite/src/tensorflow/lite/kernels\kernel_util.h **** // A fair number of functions in this header have historically been inline.
  28:C:/Renesas/e2studio_2021_01_workspace_RZA2M_ANPR/ANPR_RZA2M_RDK/src/tensorflow_lite/src/tensorflow/lite/kernels\kernel_util.h **** // It is ok to change functions to not be inline if the latency with
  29:C:/Renesas/e2studio_2021_01_workspace_RZA2M_ANPR/ANPR_RZA2M_RDK/src/tensorflow_lite/src/tensorflow/lite/kernels\kernel_util.h **** // benchmark_model for MobileNet + MobileBERT is unaffected. If such a change is
  30:C:/Renesas/e2studio_2021_01_workspace_RZA2M_ANPR/ANPR_RZA2M_RDK/src/tensorflow_lite/src/tensorflow/lite/kernels\kernel_util.h **** // made, move the newly non-inlined function declarations to the top of this
  31:C:/Renesas/e2studio_2021_01_workspace_RZA2M_ANPR/ANPR_RZA2M_RDK/src/tensorflow_lite/src/tensorflow/lite/kernels\kernel_util.h **** // header file.
  32:C:/Renesas/e2studio_2021_01_workspace_RZA2M_ANPR/ANPR_RZA2M_RDK/src/tensorflow_lite/src/tensorflow/lite/kernels\kernel_util.h **** 
  33:C:/Renesas/e2studio_2021_01_workspace_RZA2M_ANPR/ANPR_RZA2M_RDK/src/tensorflow_lite/src/tensorflow/lite/kernels\kernel_util.h **** // Note: You must check if result is not null:
  34:C:/Renesas/e2studio_2021_01_workspace_RZA2M_ANPR/ANPR_RZA2M_RDK/src/tensorflow_lite/src/tensorflow/lite/kernels\kernel_util.h **** //
  35:C:/Renesas/e2studio_2021_01_workspace_RZA2M_ANPR/ANPR_RZA2M_RDK/src/tensorflow_lite/src/tensorflow/lite/kernels\kernel_util.h **** //   TfLiteTensor* my_tensor = GetInput(context, node, kMyTensorIdx);
  36:C:/Renesas/e2studio_2021_01_workspace_RZA2M_ANPR/ANPR_RZA2M_RDK/src/tensorflow_lite/src/tensorflow/lite/kernels\kernel_util.h **** //   TF_LITE_ENSURE(context, my_tensor != nullptr);
  37:C:/Renesas/e2studio_2021_01_workspace_RZA2M_ANPR/ANPR_RZA2M_RDK/src/tensorflow_lite/src/tensorflow/lite/kernels\kernel_util.h **** //
  38:C:/Renesas/e2studio_2021_01_workspace_RZA2M_ANPR/ANPR_RZA2M_RDK/src/tensorflow_lite/src/tensorflow/lite/kernels\kernel_util.h **** // This is because the index might point to the optional tensor constant
  39:C:/Renesas/e2studio_2021_01_workspace_RZA2M_ANPR/ANPR_RZA2M_RDK/src/tensorflow_lite/src/tensorflow/lite/kernels\kernel_util.h **** // (kTfLiteOptionalTensor) in which case there is no tensor to return.
  40:C:/Renesas/e2studio_2021_01_workspace_RZA2M_ANPR/ANPR_RZA2M_RDK/src/tensorflow_lite/src/tensorflow/lite/kernels\kernel_util.h **** const TfLiteTensor* GetInput(const TfLiteContext* context,
  41:C:/Renesas/e2studio_2021_01_workspace_RZA2M_ANPR/ANPR_RZA2M_RDK/src/tensorflow_lite/src/tensorflow/lite/kernels\kernel_util.h ****                              const TfLiteNode* node, int index);
  42:C:/Renesas/e2studio_2021_01_workspace_RZA2M_ANPR/ANPR_RZA2M_RDK/src/tensorflow_lite/src/tensorflow/lite/kernels\kernel_util.h **** 
  43:C:/Renesas/e2studio_2021_01_workspace_RZA2M_ANPR/ANPR_RZA2M_RDK/src/tensorflow_lite/src/tensorflow/lite/kernels\kernel_util.h **** // Same as `GetInput` but returns boolean and uses output argument for tensor.
  44:C:/Renesas/e2studio_2021_01_workspace_RZA2M_ANPR/ANPR_RZA2M_RDK/src/tensorflow_lite/src/tensorflow/lite/kernels\kernel_util.h **** //
  45:C:/Renesas/e2studio_2021_01_workspace_RZA2M_ANPR/ANPR_RZA2M_RDK/src/tensorflow_lite/src/tensorflow/lite/kernels\kernel_util.h **** //   TfLiteTensor* my_tensor;
  46:C:/Renesas/e2studio_2021_01_workspace_RZA2M_ANPR/ANPR_RZA2M_RDK/src/tensorflow_lite/src/tensorflow/lite/kernels\kernel_util.h **** //   TF_LITE_ENSURE_OK(context,
  47:C:/Renesas/e2studio_2021_01_workspace_RZA2M_ANPR/ANPR_RZA2M_RDK/src/tensorflow_lite/src/tensorflow/lite/kernels\kernel_util.h **** //                     GetInputSafe(context, node, kMyTensorIdx, &my_tensor));
  48:C:/Renesas/e2studio_2021_01_workspace_RZA2M_ANPR/ANPR_RZA2M_RDK/src/tensorflow_lite/src/tensorflow/lite/kernels\kernel_util.h **** //   // can use my_tensor directly from here onwards, it is not nullptr
  49:C:/Renesas/e2studio_2021_01_workspace_RZA2M_ANPR/ANPR_RZA2M_RDK/src/tensorflow_lite/src/tensorflow/lite/kernels\kernel_util.h **** //
  50:C:/Renesas/e2studio_2021_01_workspace_RZA2M_ANPR/ANPR_RZA2M_RDK/src/tensorflow_lite/src/tensorflow/lite/kernels\kernel_util.h **** // Should be used in cases where the binary size is too large.
  51:C:/Renesas/e2studio_2021_01_workspace_RZA2M_ANPR/ANPR_RZA2M_RDK/src/tensorflow_lite/src/tensorflow/lite/kernels\kernel_util.h **** TfLiteStatus GetInputSafe(const TfLiteContext* context, const TfLiteNode* node,
  52:C:/Renesas/e2studio_2021_01_workspace_RZA2M_ANPR/ANPR_RZA2M_RDK/src/tensorflow_lite/src/tensorflow/lite/kernels\kernel_util.h ****                           int index, const TfLiteTensor** tensor);
  53:C:/Renesas/e2studio_2021_01_workspace_RZA2M_ANPR/ANPR_RZA2M_RDK/src/tensorflow_lite/src/tensorflow/lite/kernels\kernel_util.h **** 
  54:C:/Renesas/e2studio_2021_01_workspace_RZA2M_ANPR/ANPR_RZA2M_RDK/src/tensorflow_lite/src/tensorflow/lite/kernels\kernel_util.h **** // Note: You must check if result is not null:
  55:C:/Renesas/e2studio_2021_01_workspace_RZA2M_ANPR/ANPR_RZA2M_RDK/src/tensorflow_lite/src/tensorflow/lite/kernels\kernel_util.h **** //
  56:C:/Renesas/e2studio_2021_01_workspace_RZA2M_ANPR/ANPR_RZA2M_RDK/src/tensorflow_lite/src/tensorflow/lite/kernels\kernel_util.h **** //   TfLiteTensor* my_tensor = GetVariableInput(context, node, kMyTensorIdx);
  57:C:/Renesas/e2studio_2021_01_workspace_RZA2M_ANPR/ANPR_RZA2M_RDK/src/tensorflow_lite/src/tensorflow/lite/kernels\kernel_util.h **** //   TF_LITE_ENSURE(context, my_tensor != nullptr);
  58:C:/Renesas/e2studio_2021_01_workspace_RZA2M_ANPR/ANPR_RZA2M_RDK/src/tensorflow_lite/src/tensorflow/lite/kernels\kernel_util.h **** //
  59:C:/Renesas/e2studio_2021_01_workspace_RZA2M_ANPR/ANPR_RZA2M_RDK/src/tensorflow_lite/src/tensorflow/lite/kernels\kernel_util.h **** // This is because the index might point to the optional tensor constant
  60:C:/Renesas/e2studio_2021_01_workspace_RZA2M_ANPR/ANPR_RZA2M_RDK/src/tensorflow_lite/src/tensorflow/lite/kernels\kernel_util.h **** // (kTfLiteOptionalTensor) in which case there is no tensor to return.
  61:C:/Renesas/e2studio_2021_01_workspace_RZA2M_ANPR/ANPR_RZA2M_RDK/src/tensorflow_lite/src/tensorflow/lite/kernels\kernel_util.h **** TfLiteTensor* GetVariableInput(TfLiteContext* context, const TfLiteNode* node,
  62:C:/Renesas/e2studio_2021_01_workspace_RZA2M_ANPR/ANPR_RZA2M_RDK/src/tensorflow_lite/src/tensorflow/lite/kernels\kernel_util.h ****                                int index);
  63:C:/Renesas/e2studio_2021_01_workspace_RZA2M_ANPR/ANPR_RZA2M_RDK/src/tensorflow_lite/src/tensorflow/lite/kernels\kernel_util.h **** 
  64:C:/Renesas/e2studio_2021_01_workspace_RZA2M_ANPR/ANPR_RZA2M_RDK/src/tensorflow_lite/src/tensorflow/lite/kernels\kernel_util.h **** // Note: You must check if result is not null:
  65:C:/Renesas/e2studio_2021_01_workspace_RZA2M_ANPR/ANPR_RZA2M_RDK/src/tensorflow_lite/src/tensorflow/lite/kernels\kernel_util.h **** //
  66:C:/Renesas/e2studio_2021_01_workspace_RZA2M_ANPR/ANPR_RZA2M_RDK/src/tensorflow_lite/src/tensorflow/lite/kernels\kernel_util.h **** //   TfLiteTensor* my_tensor = GetOutput(context, node, kMyTensorIdx);
  67:C:/Renesas/e2studio_2021_01_workspace_RZA2M_ANPR/ANPR_RZA2M_RDK/src/tensorflow_lite/src/tensorflow/lite/kernels\kernel_util.h **** //   TF_LITE_ENSURE(context, my_tensor != nullptr);
  68:C:/Renesas/e2studio_2021_01_workspace_RZA2M_ANPR/ANPR_RZA2M_RDK/src/tensorflow_lite/src/tensorflow/lite/kernels\kernel_util.h **** //
  69:C:/Renesas/e2studio_2021_01_workspace_RZA2M_ANPR/ANPR_RZA2M_RDK/src/tensorflow_lite/src/tensorflow/lite/kernels\kernel_util.h **** // This is because the index might point to the optional tensor constant
  70:C:/Renesas/e2studio_2021_01_workspace_RZA2M_ANPR/ANPR_RZA2M_RDK/src/tensorflow_lite/src/tensorflow/lite/kernels\kernel_util.h **** // (kTfLiteOptionalTensor) in which case there is no tensor to return.
  71:C:/Renesas/e2studio_2021_01_workspace_RZA2M_ANPR/ANPR_RZA2M_RDK/src/tensorflow_lite/src/tensorflow/lite/kernels\kernel_util.h **** TfLiteTensor* GetOutput(TfLiteContext* context, const TfLiteNode* node,
  72:C:/Renesas/e2studio_2021_01_workspace_RZA2M_ANPR/ANPR_RZA2M_RDK/src/tensorflow_lite/src/tensorflow/lite/kernels\kernel_util.h ****                         int index);
  73:C:/Renesas/e2studio_2021_01_workspace_RZA2M_ANPR/ANPR_RZA2M_RDK/src/tensorflow_lite/src/tensorflow/lite/kernels\kernel_util.h **** 
  74:C:/Renesas/e2studio_2021_01_workspace_RZA2M_ANPR/ANPR_RZA2M_RDK/src/tensorflow_lite/src/tensorflow/lite/kernels\kernel_util.h **** // Same as `GetOutput` but returns boolean and uses output argument for tensor.
  75:C:/Renesas/e2studio_2021_01_workspace_RZA2M_ANPR/ANPR_RZA2M_RDK/src/tensorflow_lite/src/tensorflow/lite/kernels\kernel_util.h **** //
  76:C:/Renesas/e2studio_2021_01_workspace_RZA2M_ANPR/ANPR_RZA2M_RDK/src/tensorflow_lite/src/tensorflow/lite/kernels\kernel_util.h **** //   TfLiteTensor* my_tensor;
  77:C:/Renesas/e2studio_2021_01_workspace_RZA2M_ANPR/ANPR_RZA2M_RDK/src/tensorflow_lite/src/tensorflow/lite/kernels\kernel_util.h **** //   TF_LITE_ENSURE_OK(context,
  78:C:/Renesas/e2studio_2021_01_workspace_RZA2M_ANPR/ANPR_RZA2M_RDK/src/tensorflow_lite/src/tensorflow/lite/kernels\kernel_util.h **** //                     GetOutputSafe(context, node, kMyTensorIdx, &my_tensor));
  79:C:/Renesas/e2studio_2021_01_workspace_RZA2M_ANPR/ANPR_RZA2M_RDK/src/tensorflow_lite/src/tensorflow/lite/kernels\kernel_util.h **** //   // can use my_tensor directly from here onwards, it is not nullptr
  80:C:/Renesas/e2studio_2021_01_workspace_RZA2M_ANPR/ANPR_RZA2M_RDK/src/tensorflow_lite/src/tensorflow/lite/kernels\kernel_util.h **** //
  81:C:/Renesas/e2studio_2021_01_workspace_RZA2M_ANPR/ANPR_RZA2M_RDK/src/tensorflow_lite/src/tensorflow/lite/kernels\kernel_util.h **** // Should be used in cases where the binary size is too large.
  82:C:/Renesas/e2studio_2021_01_workspace_RZA2M_ANPR/ANPR_RZA2M_RDK/src/tensorflow_lite/src/tensorflow/lite/kernels\kernel_util.h **** TfLiteStatus GetOutputSafe(const TfLiteContext* context, const TfLiteNode* node,
  83:C:/Renesas/e2studio_2021_01_workspace_RZA2M_ANPR/ANPR_RZA2M_RDK/src/tensorflow_lite/src/tensorflow/lite/kernels\kernel_util.h ****                            int index, TfLiteTensor** tensor);
  84:C:/Renesas/e2studio_2021_01_workspace_RZA2M_ANPR/ANPR_RZA2M_RDK/src/tensorflow_lite/src/tensorflow/lite/kernels\kernel_util.h **** 
  85:C:/Renesas/e2studio_2021_01_workspace_RZA2M_ANPR/ANPR_RZA2M_RDK/src/tensorflow_lite/src/tensorflow/lite/kernels\kernel_util.h **** // Note: You must check if result is not null:
  86:C:/Renesas/e2studio_2021_01_workspace_RZA2M_ANPR/ANPR_RZA2M_RDK/src/tensorflow_lite/src/tensorflow/lite/kernels\kernel_util.h **** //
  87:C:/Renesas/e2studio_2021_01_workspace_RZA2M_ANPR/ANPR_RZA2M_RDK/src/tensorflow_lite/src/tensorflow/lite/kernels\kernel_util.h **** //   TfLiteTensor* my_tensor = GetOptionalInputTensor(context, node, kIdx);
  88:C:/Renesas/e2studio_2021_01_workspace_RZA2M_ANPR/ANPR_RZA2M_RDK/src/tensorflow_lite/src/tensorflow/lite/kernels\kernel_util.h **** //   TF_LITE_ENSURE(context, my_tensor != nullptr);
  89:C:/Renesas/e2studio_2021_01_workspace_RZA2M_ANPR/ANPR_RZA2M_RDK/src/tensorflow_lite/src/tensorflow/lite/kernels\kernel_util.h **** //
  90:C:/Renesas/e2studio_2021_01_workspace_RZA2M_ANPR/ANPR_RZA2M_RDK/src/tensorflow_lite/src/tensorflow/lite/kernels\kernel_util.h **** // This is because the index might point to the optional tensor constant
  91:C:/Renesas/e2studio_2021_01_workspace_RZA2M_ANPR/ANPR_RZA2M_RDK/src/tensorflow_lite/src/tensorflow/lite/kernels\kernel_util.h **** // (kTfLiteOptionalTensor) in which case there is no tensor to return.
  92:C:/Renesas/e2studio_2021_01_workspace_RZA2M_ANPR/ANPR_RZA2M_RDK/src/tensorflow_lite/src/tensorflow/lite/kernels\kernel_util.h **** //
  93:C:/Renesas/e2studio_2021_01_workspace_RZA2M_ANPR/ANPR_RZA2M_RDK/src/tensorflow_lite/src/tensorflow/lite/kernels\kernel_util.h **** // Deprecated. GetInput has the same functionality.
  94:C:/Renesas/e2studio_2021_01_workspace_RZA2M_ANPR/ANPR_RZA2M_RDK/src/tensorflow_lite/src/tensorflow/lite/kernels\kernel_util.h **** const TfLiteTensor* GetOptionalInputTensor(const TfLiteContext* context,
  95:C:/Renesas/e2studio_2021_01_workspace_RZA2M_ANPR/ANPR_RZA2M_RDK/src/tensorflow_lite/src/tensorflow/lite/kernels\kernel_util.h ****                                            const TfLiteNode* node, int index);
  96:C:/Renesas/e2studio_2021_01_workspace_RZA2M_ANPR/ANPR_RZA2M_RDK/src/tensorflow_lite/src/tensorflow/lite/kernels\kernel_util.h **** 
  97:C:/Renesas/e2studio_2021_01_workspace_RZA2M_ANPR/ANPR_RZA2M_RDK/src/tensorflow_lite/src/tensorflow/lite/kernels\kernel_util.h **** #ifndef TF_LITE_STATIC_MEMORY
  98:C:/Renesas/e2studio_2021_01_workspace_RZA2M_ANPR/ANPR_RZA2M_RDK/src/tensorflow_lite/src/tensorflow/lite/kernels\kernel_util.h **** // Note: You must check if result is not null:
  99:C:/Renesas/e2studio_2021_01_workspace_RZA2M_ANPR/ANPR_RZA2M_RDK/src/tensorflow_lite/src/tensorflow/lite/kernels\kernel_util.h **** //
 100:C:/Renesas/e2studio_2021_01_workspace_RZA2M_ANPR/ANPR_RZA2M_RDK/src/tensorflow_lite/src/tensorflow/lite/kernels\kernel_util.h **** //   TfLiteTensor* my_tensor = GetTemporary(context, node, kMyTensorIdx);
 101:C:/Renesas/e2studio_2021_01_workspace_RZA2M_ANPR/ANPR_RZA2M_RDK/src/tensorflow_lite/src/tensorflow/lite/kernels\kernel_util.h **** //   TF_LITE_ENSURE(context, my_tensor != nullptr);
 102:C:/Renesas/e2studio_2021_01_workspace_RZA2M_ANPR/ANPR_RZA2M_RDK/src/tensorflow_lite/src/tensorflow/lite/kernels\kernel_util.h **** //
 103:C:/Renesas/e2studio_2021_01_workspace_RZA2M_ANPR/ANPR_RZA2M_RDK/src/tensorflow_lite/src/tensorflow/lite/kernels\kernel_util.h **** // This is because the index might point to the optional tensor constant
 104:C:/Renesas/e2studio_2021_01_workspace_RZA2M_ANPR/ANPR_RZA2M_RDK/src/tensorflow_lite/src/tensorflow/lite/kernels\kernel_util.h **** // (kTfLiteOptionalTensor) in which case there is no tensor to return.
 105:C:/Renesas/e2studio_2021_01_workspace_RZA2M_ANPR/ANPR_RZA2M_RDK/src/tensorflow_lite/src/tensorflow/lite/kernels\kernel_util.h **** TfLiteTensor* GetTemporary(TfLiteContext* context, const TfLiteNode* node,
 106:C:/Renesas/e2studio_2021_01_workspace_RZA2M_ANPR/ANPR_RZA2M_RDK/src/tensorflow_lite/src/tensorflow/lite/kernels\kernel_util.h ****                            int index);
 107:C:/Renesas/e2studio_2021_01_workspace_RZA2M_ANPR/ANPR_RZA2M_RDK/src/tensorflow_lite/src/tensorflow/lite/kernels\kernel_util.h **** 
 108:C:/Renesas/e2studio_2021_01_workspace_RZA2M_ANPR/ANPR_RZA2M_RDK/src/tensorflow_lite/src/tensorflow/lite/kernels\kernel_util.h **** // Same as `GetTemporary` but returns boolean and uses output argument for
 109:C:/Renesas/e2studio_2021_01_workspace_RZA2M_ANPR/ANPR_RZA2M_RDK/src/tensorflow_lite/src/tensorflow/lite/kernels\kernel_util.h **** // tensor.
 110:C:/Renesas/e2studio_2021_01_workspace_RZA2M_ANPR/ANPR_RZA2M_RDK/src/tensorflow_lite/src/tensorflow/lite/kernels\kernel_util.h **** //
 111:C:/Renesas/e2studio_2021_01_workspace_RZA2M_ANPR/ANPR_RZA2M_RDK/src/tensorflow_lite/src/tensorflow/lite/kernels\kernel_util.h **** //   TfLiteTensor* my_tensor;
 112:C:/Renesas/e2studio_2021_01_workspace_RZA2M_ANPR/ANPR_RZA2M_RDK/src/tensorflow_lite/src/tensorflow/lite/kernels\kernel_util.h **** //   TF_LITE_ENSURE_OK(context,
 113:C:/Renesas/e2studio_2021_01_workspace_RZA2M_ANPR/ANPR_RZA2M_RDK/src/tensorflow_lite/src/tensorflow/lite/kernels\kernel_util.h **** //                     GetTemporarySafe(context, node, kMyTensorIdx,
 114:C:/Renesas/e2studio_2021_01_workspace_RZA2M_ANPR/ANPR_RZA2M_RDK/src/tensorflow_lite/src/tensorflow/lite/kernels\kernel_util.h **** //                     &my_tensor));
 115:C:/Renesas/e2studio_2021_01_workspace_RZA2M_ANPR/ANPR_RZA2M_RDK/src/tensorflow_lite/src/tensorflow/lite/kernels\kernel_util.h **** //   // can use my_tensor directly from here onwards, it is not nullptr
 116:C:/Renesas/e2studio_2021_01_workspace_RZA2M_ANPR/ANPR_RZA2M_RDK/src/tensorflow_lite/src/tensorflow/lite/kernels\kernel_util.h **** //
 117:C:/Renesas/e2studio_2021_01_workspace_RZA2M_ANPR/ANPR_RZA2M_RDK/src/tensorflow_lite/src/tensorflow/lite/kernels\kernel_util.h **** // Should be used in cases where the binary size is too large.
 118:C:/Renesas/e2studio_2021_01_workspace_RZA2M_ANPR/ANPR_RZA2M_RDK/src/tensorflow_lite/src/tensorflow/lite/kernels\kernel_util.h **** TfLiteStatus GetTemporarySafe(const TfLiteContext* context,
 119:C:/Renesas/e2studio_2021_01_workspace_RZA2M_ANPR/ANPR_RZA2M_RDK/src/tensorflow_lite/src/tensorflow/lite/kernels\kernel_util.h ****                               const TfLiteNode* node, int index,
 120:C:/Renesas/e2studio_2021_01_workspace_RZA2M_ANPR/ANPR_RZA2M_RDK/src/tensorflow_lite/src/tensorflow/lite/kernels\kernel_util.h ****                               TfLiteTensor** tensor);
 121:C:/Renesas/e2studio_2021_01_workspace_RZA2M_ANPR/ANPR_RZA2M_RDK/src/tensorflow_lite/src/tensorflow/lite/kernels\kernel_util.h **** 
 122:C:/Renesas/e2studio_2021_01_workspace_RZA2M_ANPR/ANPR_RZA2M_RDK/src/tensorflow_lite/src/tensorflow/lite/kernels\kernel_util.h **** // Note: You must check if result is not null:
 123:C:/Renesas/e2studio_2021_01_workspace_RZA2M_ANPR/ANPR_RZA2M_RDK/src/tensorflow_lite/src/tensorflow/lite/kernels\kernel_util.h **** //
 124:C:/Renesas/e2studio_2021_01_workspace_RZA2M_ANPR/ANPR_RZA2M_RDK/src/tensorflow_lite/src/tensorflow/lite/kernels\kernel_util.h **** //   TfLiteTensor* my_tensor = GetIntermediates(context, node, kMyTensorIdx);
 125:C:/Renesas/e2studio_2021_01_workspace_RZA2M_ANPR/ANPR_RZA2M_RDK/src/tensorflow_lite/src/tensorflow/lite/kernels\kernel_util.h **** //   TF_LITE_ENSURE(context, my_tensor != nullptr);
 126:C:/Renesas/e2studio_2021_01_workspace_RZA2M_ANPR/ANPR_RZA2M_RDK/src/tensorflow_lite/src/tensorflow/lite/kernels\kernel_util.h **** //
 127:C:/Renesas/e2studio_2021_01_workspace_RZA2M_ANPR/ANPR_RZA2M_RDK/src/tensorflow_lite/src/tensorflow/lite/kernels\kernel_util.h **** // This is because the index might point to the optional tensor constant
 128:C:/Renesas/e2studio_2021_01_workspace_RZA2M_ANPR/ANPR_RZA2M_RDK/src/tensorflow_lite/src/tensorflow/lite/kernels\kernel_util.h **** // (kTfLiteOptionalTensor) in which case there is no tensor to return.
 129:C:/Renesas/e2studio_2021_01_workspace_RZA2M_ANPR/ANPR_RZA2M_RDK/src/tensorflow_lite/src/tensorflow/lite/kernels\kernel_util.h **** const TfLiteTensor* GetIntermediates(TfLiteContext* context,
 130:C:/Renesas/e2studio_2021_01_workspace_RZA2M_ANPR/ANPR_RZA2M_RDK/src/tensorflow_lite/src/tensorflow/lite/kernels\kernel_util.h ****                                      const TfLiteNode* node, int index);
 131:C:/Renesas/e2studio_2021_01_workspace_RZA2M_ANPR/ANPR_RZA2M_RDK/src/tensorflow_lite/src/tensorflow/lite/kernels\kernel_util.h **** 
 132:C:/Renesas/e2studio_2021_01_workspace_RZA2M_ANPR/ANPR_RZA2M_RDK/src/tensorflow_lite/src/tensorflow/lite/kernels\kernel_util.h **** // Same as `GetIntermediates` but returns boolean and uses output argument for
 133:C:/Renesas/e2studio_2021_01_workspace_RZA2M_ANPR/ANPR_RZA2M_RDK/src/tensorflow_lite/src/tensorflow/lite/kernels\kernel_util.h **** // tensor.
 134:C:/Renesas/e2studio_2021_01_workspace_RZA2M_ANPR/ANPR_RZA2M_RDK/src/tensorflow_lite/src/tensorflow/lite/kernels\kernel_util.h **** //
 135:C:/Renesas/e2studio_2021_01_workspace_RZA2M_ANPR/ANPR_RZA2M_RDK/src/tensorflow_lite/src/tensorflow/lite/kernels\kernel_util.h **** //   TfLiteTensor* my_tensor;
 136:C:/Renesas/e2studio_2021_01_workspace_RZA2M_ANPR/ANPR_RZA2M_RDK/src/tensorflow_lite/src/tensorflow/lite/kernels\kernel_util.h **** //   TF_LITE_ENSURE_OK(context,
 137:C:/Renesas/e2studio_2021_01_workspace_RZA2M_ANPR/ANPR_RZA2M_RDK/src/tensorflow_lite/src/tensorflow/lite/kernels\kernel_util.h **** //                     GetIntermediatesSafe(context, node, kMyTensorIdx,
 138:C:/Renesas/e2studio_2021_01_workspace_RZA2M_ANPR/ANPR_RZA2M_RDK/src/tensorflow_lite/src/tensorflow/lite/kernels\kernel_util.h **** //                     &my_tensor));
 139:C:/Renesas/e2studio_2021_01_workspace_RZA2M_ANPR/ANPR_RZA2M_RDK/src/tensorflow_lite/src/tensorflow/lite/kernels\kernel_util.h **** //   // can use my_tensor directly from here onwards, it is not nullptr
 140:C:/Renesas/e2studio_2021_01_workspace_RZA2M_ANPR/ANPR_RZA2M_RDK/src/tensorflow_lite/src/tensorflow/lite/kernels\kernel_util.h **** //
 141:C:/Renesas/e2studio_2021_01_workspace_RZA2M_ANPR/ANPR_RZA2M_RDK/src/tensorflow_lite/src/tensorflow/lite/kernels\kernel_util.h **** // Should be used in cases where the binary size is too large.
 142:C:/Renesas/e2studio_2021_01_workspace_RZA2M_ANPR/ANPR_RZA2M_RDK/src/tensorflow_lite/src/tensorflow/lite/kernels\kernel_util.h **** TfLiteStatus GetIntermediatesSafe(const TfLiteContext* context,
 143:C:/Renesas/e2studio_2021_01_workspace_RZA2M_ANPR/ANPR_RZA2M_RDK/src/tensorflow_lite/src/tensorflow/lite/kernels\kernel_util.h ****                                   const TfLiteNode* node, int index,
 144:C:/Renesas/e2studio_2021_01_workspace_RZA2M_ANPR/ANPR_RZA2M_RDK/src/tensorflow_lite/src/tensorflow/lite/kernels\kernel_util.h ****                                   TfLiteTensor** tensor);
 145:C:/Renesas/e2studio_2021_01_workspace_RZA2M_ANPR/ANPR_RZA2M_RDK/src/tensorflow_lite/src/tensorflow/lite/kernels\kernel_util.h **** #endif  // TF_LITE_STATIC_MEMORY
 146:C:/Renesas/e2studio_2021_01_workspace_RZA2M_ANPR/ANPR_RZA2M_RDK/src/tensorflow_lite/src/tensorflow/lite/kernels\kernel_util.h **** 
 147:C:/Renesas/e2studio_2021_01_workspace_RZA2M_ANPR/ANPR_RZA2M_RDK/src/tensorflow_lite/src/tensorflow/lite/kernels\kernel_util.h **** inline int NumDimensions(const TfLiteTensor* t) { return t->dims->size; }
 148:C:/Renesas/e2studio_2021_01_workspace_RZA2M_ANPR/ANPR_RZA2M_RDK/src/tensorflow_lite/src/tensorflow/lite/kernels\kernel_util.h **** inline int SizeOfDimension(const TfLiteTensor* t, int dim) {
 149:C:/Renesas/e2studio_2021_01_workspace_RZA2M_ANPR/ANPR_RZA2M_RDK/src/tensorflow_lite/src/tensorflow/lite/kernels\kernel_util.h ****   return t->dims->data[dim];
 150:C:/Renesas/e2studio_2021_01_workspace_RZA2M_ANPR/ANPR_RZA2M_RDK/src/tensorflow_lite/src/tensorflow/lite/kernels\kernel_util.h **** }
 151:C:/Renesas/e2studio_2021_01_workspace_RZA2M_ANPR/ANPR_RZA2M_RDK/src/tensorflow_lite/src/tensorflow/lite/kernels\kernel_util.h **** 
 152:C:/Renesas/e2studio_2021_01_workspace_RZA2M_ANPR/ANPR_RZA2M_RDK/src/tensorflow_lite/src/tensorflow/lite/kernels\kernel_util.h **** inline int NumInputs(const TfLiteNode* node) { return node->inputs->size; }
 131              		.loc 2 152 0
 132 0068 003094E5 		ldr	r3, [r4]
 133 006c 003093E5 		ldr	r3, [r3]
 134              	.LBE449:
 135              	.LBE448:
  61:../src/tensorflow_lite/src/tensorflow/lite/micro/kernels/cmsis_nn/mul.cpp ****   TF_LITE_ENSURE_EQ(context, NumOutputs(node), 1);
 136              		.loc 1 61 0
 137 0070 020053E3 		cmp	r3, #2
 138 0074 1A00001A 		bne	.L30
 139              	.LVL14:
 140              	.LBB450:
 141              	.LBB451:
 153:C:/Renesas/e2studio_2021_01_workspace_RZA2M_ANPR/ANPR_RZA2M_RDK/src/tensorflow_lite/src/tensorflow/lite/kernels\kernel_util.h **** inline int NumOutputs(const TfLiteNode* node) { return node->outputs->size; }
 142              		.loc 2 153 0
 143 0078 043094E5 		ldr	r3, [r4, #4]
 144 007c 00B093E5 		ldr	fp, [r3]
 145              	.LBE451:
 146              	.LBE450:
  62:../src/tensorflow_lite/src/tensorflow/lite/micro/kernels/cmsis_nn/mul.cpp **** 
 147              		.loc 1 62 0
 148 0080 01005BE3 		cmp	fp, #1
 149 0084 4200001A 		bne	.L31
  64:../src/tensorflow_lite/src/tensorflow/lite/micro/kernels/cmsis_nn/mul.cpp **** 
 150              		.loc 1 64 0
 151 0088 0000D9E5 		ldrb	r0, [r9]	@ zero_extendqisi2
 152              	.LVL15:
 153 008c 0030D8E5 		ldrb	r3, [r8]	@ zero_extendqisi2
 154 0090 000053E1 		cmp	r3, r0
 155 0094 2700001A 		bne	.L32
 156              	.LBB452:
  66:../src/tensorflow_lite/src/tensorflow/lite/micro/kernels/cmsis_nn/mul.cpp ****     TF_LITE_ENSURE_STATUS(CalculateActivationRangeQuantized(
 157              		.loc 1 66 0
 158 0098 0030DAE5 		ldrb	r3, [r10]	@ zero_extendqisi2
 159 009c 090053E3 		cmp	r3, #9
 160 00a0 03005313 		cmpne	r3, #3
 161 00a4 6900000A 		beq	.L33
  81:../src/tensorflow_lite/src/tensorflow/lite/micro/kernels/cmsis_nn/mul.cpp ****                              &data->output_activation_min_f32,
 162              		.loc 1 81 0
 163 00a8 0030D7E5 		ldrb	r3, [r7]	@ zero_extendqisi2
 164              	.LVL16:
 165              	.LBB453:
 166              	.LBB454:
 154:C:/Renesas/e2studio_2021_01_workspace_RZA2M_ANPR/ANPR_RZA2M_RDK/src/tensorflow_lite/src/tensorflow/lite/kernels\kernel_util.h **** 
 155:C:/Renesas/e2studio_2021_01_workspace_RZA2M_ANPR/ANPR_RZA2M_RDK/src/tensorflow_lite/src/tensorflow/lite/kernels\kernel_util.h **** #ifndef TF_LITE_STATIC_MEMORY
 156:C:/Renesas/e2studio_2021_01_workspace_RZA2M_ANPR/ANPR_RZA2M_RDK/src/tensorflow_lite/src/tensorflow/lite/kernels\kernel_util.h **** inline int NumIntermediates(const TfLiteNode* node) {
 157:C:/Renesas/e2studio_2021_01_workspace_RZA2M_ANPR/ANPR_RZA2M_RDK/src/tensorflow_lite/src/tensorflow/lite/kernels\kernel_util.h ****   return node->intermediates->size;
 158:C:/Renesas/e2studio_2021_01_workspace_RZA2M_ANPR/ANPR_RZA2M_RDK/src/tensorflow_lite/src/tensorflow/lite/kernels\kernel_util.h **** }
 159:C:/Renesas/e2studio_2021_01_workspace_RZA2M_ANPR/ANPR_RZA2M_RDK/src/tensorflow_lite/src/tensorflow/lite/kernels\kernel_util.h **** #endif  // TF_LITE_STATIC_MEMORY
 160:C:/Renesas/e2studio_2021_01_workspace_RZA2M_ANPR/ANPR_RZA2M_RDK/src/tensorflow_lite/src/tensorflow/lite/kernels\kernel_util.h **** 
 161:C:/Renesas/e2studio_2021_01_workspace_RZA2M_ANPR/ANPR_RZA2M_RDK/src/tensorflow_lite/src/tensorflow/lite/kernels\kernel_util.h **** inline int64_t NumElements(const TfLiteIntArray* dims) {
 162:C:/Renesas/e2studio_2021_01_workspace_RZA2M_ANPR/ANPR_RZA2M_RDK/src/tensorflow_lite/src/tensorflow/lite/kernels\kernel_util.h ****   int64_t count = 1;
 163:C:/Renesas/e2studio_2021_01_workspace_RZA2M_ANPR/ANPR_RZA2M_RDK/src/tensorflow_lite/src/tensorflow/lite/kernels\kernel_util.h ****   for (int i = 0; i < dims->size; ++i) {
 164:C:/Renesas/e2studio_2021_01_workspace_RZA2M_ANPR/ANPR_RZA2M_RDK/src/tensorflow_lite/src/tensorflow/lite/kernels\kernel_util.h ****     count *= dims->data[i];
 165:C:/Renesas/e2studio_2021_01_workspace_RZA2M_ANPR/ANPR_RZA2M_RDK/src/tensorflow_lite/src/tensorflow/lite/kernels\kernel_util.h ****   }
 166:C:/Renesas/e2studio_2021_01_workspace_RZA2M_ANPR/ANPR_RZA2M_RDK/src/tensorflow_lite/src/tensorflow/lite/kernels\kernel_util.h ****   return count;
 167:C:/Renesas/e2studio_2021_01_workspace_RZA2M_ANPR/ANPR_RZA2M_RDK/src/tensorflow_lite/src/tensorflow/lite/kernels\kernel_util.h **** }
 168:C:/Renesas/e2studio_2021_01_workspace_RZA2M_ANPR/ANPR_RZA2M_RDK/src/tensorflow_lite/src/tensorflow/lite/kernels\kernel_util.h **** 
 169:C:/Renesas/e2studio_2021_01_workspace_RZA2M_ANPR/ANPR_RZA2M_RDK/src/tensorflow_lite/src/tensorflow/lite/kernels\kernel_util.h **** inline int64_t NumElements(const TfLiteTensor* t) {
 170:C:/Renesas/e2studio_2021_01_workspace_RZA2M_ANPR/ANPR_RZA2M_RDK/src/tensorflow_lite/src/tensorflow/lite/kernels\kernel_util.h ****   return NumElements(t->dims);
 171:C:/Renesas/e2studio_2021_01_workspace_RZA2M_ANPR/ANPR_RZA2M_RDK/src/tensorflow_lite/src/tensorflow/lite/kernels\kernel_util.h **** }
 172:C:/Renesas/e2studio_2021_01_workspace_RZA2M_ANPR/ANPR_RZA2M_RDK/src/tensorflow_lite/src/tensorflow/lite/kernels\kernel_util.h **** 
 173:C:/Renesas/e2studio_2021_01_workspace_RZA2M_ANPR/ANPR_RZA2M_RDK/src/tensorflow_lite/src/tensorflow/lite/kernels\kernel_util.h **** // Determines whether tensor is constant.
 174:C:/Renesas/e2studio_2021_01_workspace_RZA2M_ANPR/ANPR_RZA2M_RDK/src/tensorflow_lite/src/tensorflow/lite/kernels\kernel_util.h **** // TODO(b/138199592): Introduce new query which checks for constant OR
 175:C:/Renesas/e2studio_2021_01_workspace_RZA2M_ANPR/ANPR_RZA2M_RDK/src/tensorflow_lite/src/tensorflow/lite/kernels\kernel_util.h **** // persistent-read-only, which would be useful for most tensor kernels that
 176:C:/Renesas/e2studio_2021_01_workspace_RZA2M_ANPR/ANPR_RZA2M_RDK/src/tensorflow_lite/src/tensorflow/lite/kernels\kernel_util.h **** // are potentially dynamic based on the input tensor value availability at the
 177:C:/Renesas/e2studio_2021_01_workspace_RZA2M_ANPR/ANPR_RZA2M_RDK/src/tensorflow_lite/src/tensorflow/lite/kernels\kernel_util.h **** // time of prepare.
 178:C:/Renesas/e2studio_2021_01_workspace_RZA2M_ANPR/ANPR_RZA2M_RDK/src/tensorflow_lite/src/tensorflow/lite/kernels\kernel_util.h **** inline bool IsConstantTensor(const TfLiteTensor* tensor) {
 179:C:/Renesas/e2studio_2021_01_workspace_RZA2M_ANPR/ANPR_RZA2M_RDK/src/tensorflow_lite/src/tensorflow/lite/kernels\kernel_util.h ****   return tensor->allocation_type == kTfLiteMmapRo;
 180:C:/Renesas/e2studio_2021_01_workspace_RZA2M_ANPR/ANPR_RZA2M_RDK/src/tensorflow_lite/src/tensorflow/lite/kernels\kernel_util.h **** }
 181:C:/Renesas/e2studio_2021_01_workspace_RZA2M_ANPR/ANPR_RZA2M_RDK/src/tensorflow_lite/src/tensorflow/lite/kernels\kernel_util.h **** 
 182:C:/Renesas/e2studio_2021_01_workspace_RZA2M_ANPR/ANPR_RZA2M_RDK/src/tensorflow_lite/src/tensorflow/lite/kernels\kernel_util.h **** // Determines whether tensor is dynamic. Note that a tensor can be non-const and
 183:C:/Renesas/e2studio_2021_01_workspace_RZA2M_ANPR/ANPR_RZA2M_RDK/src/tensorflow_lite/src/tensorflow/lite/kernels\kernel_util.h **** // not dynamic. This function specifically checks for a dynamic tensor.
 184:C:/Renesas/e2studio_2021_01_workspace_RZA2M_ANPR/ANPR_RZA2M_RDK/src/tensorflow_lite/src/tensorflow/lite/kernels\kernel_util.h **** inline bool IsDynamicTensor(const TfLiteTensor* tensor) {
 185:C:/Renesas/e2studio_2021_01_workspace_RZA2M_ANPR/ANPR_RZA2M_RDK/src/tensorflow_lite/src/tensorflow/lite/kernels\kernel_util.h ****   return tensor->allocation_type == kTfLiteDynamic;
 186:C:/Renesas/e2studio_2021_01_workspace_RZA2M_ANPR/ANPR_RZA2M_RDK/src/tensorflow_lite/src/tensorflow/lite/kernels\kernel_util.h **** }
 187:C:/Renesas/e2studio_2021_01_workspace_RZA2M_ANPR/ANPR_RZA2M_RDK/src/tensorflow_lite/src/tensorflow/lite/kernels\kernel_util.h **** 
 188:C:/Renesas/e2studio_2021_01_workspace_RZA2M_ANPR/ANPR_RZA2M_RDK/src/tensorflow_lite/src/tensorflow/lite/kernels\kernel_util.h **** // Sets tensor to dynamic.
 189:C:/Renesas/e2studio_2021_01_workspace_RZA2M_ANPR/ANPR_RZA2M_RDK/src/tensorflow_lite/src/tensorflow/lite/kernels\kernel_util.h **** inline void SetTensorToDynamic(TfLiteTensor* tensor) {
 190:C:/Renesas/e2studio_2021_01_workspace_RZA2M_ANPR/ANPR_RZA2M_RDK/src/tensorflow_lite/src/tensorflow/lite/kernels\kernel_util.h ****   if (tensor->allocation_type != kTfLiteDynamic) {
 191:C:/Renesas/e2studio_2021_01_workspace_RZA2M_ANPR/ANPR_RZA2M_RDK/src/tensorflow_lite/src/tensorflow/lite/kernels\kernel_util.h ****     tensor->allocation_type = kTfLiteDynamic;
 192:C:/Renesas/e2studio_2021_01_workspace_RZA2M_ANPR/ANPR_RZA2M_RDK/src/tensorflow_lite/src/tensorflow/lite/kernels\kernel_util.h ****     tensor->data.raw = nullptr;
 193:C:/Renesas/e2studio_2021_01_workspace_RZA2M_ANPR/ANPR_RZA2M_RDK/src/tensorflow_lite/src/tensorflow/lite/kernels\kernel_util.h ****   }
 194:C:/Renesas/e2studio_2021_01_workspace_RZA2M_ANPR/ANPR_RZA2M_RDK/src/tensorflow_lite/src/tensorflow/lite/kernels\kernel_util.h **** }
 195:C:/Renesas/e2studio_2021_01_workspace_RZA2M_ANPR/ANPR_RZA2M_RDK/src/tensorflow_lite/src/tensorflow/lite/kernels\kernel_util.h **** 
 196:C:/Renesas/e2studio_2021_01_workspace_RZA2M_ANPR/ANPR_RZA2M_RDK/src/tensorflow_lite/src/tensorflow/lite/kernels\kernel_util.h **** // Sets tensor to persistent and read-only.
 197:C:/Renesas/e2studio_2021_01_workspace_RZA2M_ANPR/ANPR_RZA2M_RDK/src/tensorflow_lite/src/tensorflow/lite/kernels\kernel_util.h **** inline void SetTensorToPersistentRo(TfLiteTensor* tensor) {
 198:C:/Renesas/e2studio_2021_01_workspace_RZA2M_ANPR/ANPR_RZA2M_RDK/src/tensorflow_lite/src/tensorflow/lite/kernels\kernel_util.h ****   if (tensor->allocation_type != kTfLitePersistentRo) {
 199:C:/Renesas/e2studio_2021_01_workspace_RZA2M_ANPR/ANPR_RZA2M_RDK/src/tensorflow_lite/src/tensorflow/lite/kernels\kernel_util.h ****     tensor->allocation_type = kTfLitePersistentRo;
 200:C:/Renesas/e2studio_2021_01_workspace_RZA2M_ANPR/ANPR_RZA2M_RDK/src/tensorflow_lite/src/tensorflow/lite/kernels\kernel_util.h ****     tensor->data.raw = nullptr;
 201:C:/Renesas/e2studio_2021_01_workspace_RZA2M_ANPR/ANPR_RZA2M_RDK/src/tensorflow_lite/src/tensorflow/lite/kernels\kernel_util.h ****   }
 202:C:/Renesas/e2studio_2021_01_workspace_RZA2M_ANPR/ANPR_RZA2M_RDK/src/tensorflow_lite/src/tensorflow/lite/kernels\kernel_util.h **** }
 203:C:/Renesas/e2studio_2021_01_workspace_RZA2M_ANPR/ANPR_RZA2M_RDK/src/tensorflow_lite/src/tensorflow/lite/kernels\kernel_util.h **** 
 204:C:/Renesas/e2studio_2021_01_workspace_RZA2M_ANPR/ANPR_RZA2M_RDK/src/tensorflow_lite/src/tensorflow/lite/kernels\kernel_util.h **** // Determines whether it is a hybrid op - one that has float inputs and
 205:C:/Renesas/e2studio_2021_01_workspace_RZA2M_ANPR/ANPR_RZA2M_RDK/src/tensorflow_lite/src/tensorflow/lite/kernels\kernel_util.h **** // quantized weights.
 206:C:/Renesas/e2studio_2021_01_workspace_RZA2M_ANPR/ANPR_RZA2M_RDK/src/tensorflow_lite/src/tensorflow/lite/kernels\kernel_util.h **** inline bool IsHybridOp(const TfLiteTensor* input, const TfLiteTensor* weight) {
 207:C:/Renesas/e2studio_2021_01_workspace_RZA2M_ANPR/ANPR_RZA2M_RDK/src/tensorflow_lite/src/tensorflow/lite/kernels\kernel_util.h ****   return ((weight->type == kTfLiteUInt8 || weight->type == kTfLiteInt8) &&
 208:C:/Renesas/e2studio_2021_01_workspace_RZA2M_ANPR/ANPR_RZA2M_RDK/src/tensorflow_lite/src/tensorflow/lite/kernels\kernel_util.h ****           input->type == kTfLiteFloat32);
 209:C:/Renesas/e2studio_2021_01_workspace_RZA2M_ANPR/ANPR_RZA2M_RDK/src/tensorflow_lite/src/tensorflow/lite/kernels\kernel_util.h **** }
 210:C:/Renesas/e2studio_2021_01_workspace_RZA2M_ANPR/ANPR_RZA2M_RDK/src/tensorflow_lite/src/tensorflow/lite/kernels\kernel_util.h **** 
 211:C:/Renesas/e2studio_2021_01_workspace_RZA2M_ANPR/ANPR_RZA2M_RDK/src/tensorflow_lite/src/tensorflow/lite/kernels\kernel_util.h **** // Check dimensionality match and populate OpData for Conv and DepthwiseConv.
 212:C:/Renesas/e2studio_2021_01_workspace_RZA2M_ANPR/ANPR_RZA2M_RDK/src/tensorflow_lite/src/tensorflow/lite/kernels\kernel_util.h **** TfLiteStatus PopulateConvolutionQuantizationParams(
 213:C:/Renesas/e2studio_2021_01_workspace_RZA2M_ANPR/ANPR_RZA2M_RDK/src/tensorflow_lite/src/tensorflow/lite/kernels\kernel_util.h ****     TfLiteContext* context, const TfLiteTensor* input,
 214:C:/Renesas/e2studio_2021_01_workspace_RZA2M_ANPR/ANPR_RZA2M_RDK/src/tensorflow_lite/src/tensorflow/lite/kernels\kernel_util.h ****     const TfLiteTensor* filter, const TfLiteTensor* bias, TfLiteTensor* output,
 215:C:/Renesas/e2studio_2021_01_workspace_RZA2M_ANPR/ANPR_RZA2M_RDK/src/tensorflow_lite/src/tensorflow/lite/kernels\kernel_util.h ****     const TfLiteFusedActivation& activation, int32_t* multiplier, int* shift,
 216:C:/Renesas/e2studio_2021_01_workspace_RZA2M_ANPR/ANPR_RZA2M_RDK/src/tensorflow_lite/src/tensorflow/lite/kernels\kernel_util.h ****     int32_t* output_activation_min, int32_t* output_activation_max,
 217:C:/Renesas/e2studio_2021_01_workspace_RZA2M_ANPR/ANPR_RZA2M_RDK/src/tensorflow_lite/src/tensorflow/lite/kernels\kernel_util.h ****     int32_t* per_channel_multiplier, int32_t* per_channel_shift);
 218:C:/Renesas/e2studio_2021_01_workspace_RZA2M_ANPR/ANPR_RZA2M_RDK/src/tensorflow_lite/src/tensorflow/lite/kernels\kernel_util.h **** 
 219:C:/Renesas/e2studio_2021_01_workspace_RZA2M_ANPR/ANPR_RZA2M_RDK/src/tensorflow_lite/src/tensorflow/lite/kernels\kernel_util.h **** TfLiteStatus PopulateConvolutionQuantizationParams(
 220:C:/Renesas/e2studio_2021_01_workspace_RZA2M_ANPR/ANPR_RZA2M_RDK/src/tensorflow_lite/src/tensorflow/lite/kernels\kernel_util.h ****     TfLiteContext* context, const TfLiteTensor* input,
 221:C:/Renesas/e2studio_2021_01_workspace_RZA2M_ANPR/ANPR_RZA2M_RDK/src/tensorflow_lite/src/tensorflow/lite/kernels\kernel_util.h ****     const TfLiteTensor* filter, const TfLiteTensor* bias, TfLiteTensor* output,
 222:C:/Renesas/e2studio_2021_01_workspace_RZA2M_ANPR/ANPR_RZA2M_RDK/src/tensorflow_lite/src/tensorflow/lite/kernels\kernel_util.h ****     const TfLiteFusedActivation& activation, int32_t* multiplier, int* shift,
 223:C:/Renesas/e2studio_2021_01_workspace_RZA2M_ANPR/ANPR_RZA2M_RDK/src/tensorflow_lite/src/tensorflow/lite/kernels\kernel_util.h ****     int32_t* output_activation_min, int32_t* output_activation_max,
 224:C:/Renesas/e2studio_2021_01_workspace_RZA2M_ANPR/ANPR_RZA2M_RDK/src/tensorflow_lite/src/tensorflow/lite/kernels\kernel_util.h ****     int32_t* per_channel_multiplier, int32_t* per_channel_shift,
 225:C:/Renesas/e2studio_2021_01_workspace_RZA2M_ANPR/ANPR_RZA2M_RDK/src/tensorflow_lite/src/tensorflow/lite/kernels\kernel_util.h ****     int num_channels);
 226:C:/Renesas/e2studio_2021_01_workspace_RZA2M_ANPR/ANPR_RZA2M_RDK/src/tensorflow_lite/src/tensorflow/lite/kernels\kernel_util.h **** 
 227:C:/Renesas/e2studio_2021_01_workspace_RZA2M_ANPR/ANPR_RZA2M_RDK/src/tensorflow_lite/src/tensorflow/lite/kernels\kernel_util.h **** // Calculates the multiplication factor for a quantized convolution (or
 228:C:/Renesas/e2studio_2021_01_workspace_RZA2M_ANPR/ANPR_RZA2M_RDK/src/tensorflow_lite/src/tensorflow/lite/kernels\kernel_util.h **** // quantized depthwise convolution) involving the given tensors. Returns an
 229:C:/Renesas/e2studio_2021_01_workspace_RZA2M_ANPR/ANPR_RZA2M_RDK/src/tensorflow_lite/src/tensorflow/lite/kernels\kernel_util.h **** // error if the scales of the tensors are not compatible.
 230:C:/Renesas/e2studio_2021_01_workspace_RZA2M_ANPR/ANPR_RZA2M_RDK/src/tensorflow_lite/src/tensorflow/lite/kernels\kernel_util.h **** TfLiteStatus GetQuantizedConvolutionMultipler(TfLiteContext* context,
 231:C:/Renesas/e2studio_2021_01_workspace_RZA2M_ANPR/ANPR_RZA2M_RDK/src/tensorflow_lite/src/tensorflow/lite/kernels\kernel_util.h ****                                               const TfLiteTensor* input,
 232:C:/Renesas/e2studio_2021_01_workspace_RZA2M_ANPR/ANPR_RZA2M_RDK/src/tensorflow_lite/src/tensorflow/lite/kernels\kernel_util.h ****                                               const TfLiteTensor* filter,
 233:C:/Renesas/e2studio_2021_01_workspace_RZA2M_ANPR/ANPR_RZA2M_RDK/src/tensorflow_lite/src/tensorflow/lite/kernels\kernel_util.h ****                                               const TfLiteTensor* bias,
 234:C:/Renesas/e2studio_2021_01_workspace_RZA2M_ANPR/ANPR_RZA2M_RDK/src/tensorflow_lite/src/tensorflow/lite/kernels\kernel_util.h ****                                               TfLiteTensor* output,
 235:C:/Renesas/e2studio_2021_01_workspace_RZA2M_ANPR/ANPR_RZA2M_RDK/src/tensorflow_lite/src/tensorflow/lite/kernels\kernel_util.h ****                                               double* multiplier);
 236:C:/Renesas/e2studio_2021_01_workspace_RZA2M_ANPR/ANPR_RZA2M_RDK/src/tensorflow_lite/src/tensorflow/lite/kernels\kernel_util.h **** 
 237:C:/Renesas/e2studio_2021_01_workspace_RZA2M_ANPR/ANPR_RZA2M_RDK/src/tensorflow_lite/src/tensorflow/lite/kernels\kernel_util.h **** TfLiteStatus GetQuantizedConvolutionMultipler(TfLiteContext* context,
 238:C:/Renesas/e2studio_2021_01_workspace_RZA2M_ANPR/ANPR_RZA2M_RDK/src/tensorflow_lite/src/tensorflow/lite/kernels\kernel_util.h ****                                               const TfLiteTensor* input,
 239:C:/Renesas/e2studio_2021_01_workspace_RZA2M_ANPR/ANPR_RZA2M_RDK/src/tensorflow_lite/src/tensorflow/lite/kernels\kernel_util.h ****                                               const TfLiteTensor* filter,
 240:C:/Renesas/e2studio_2021_01_workspace_RZA2M_ANPR/ANPR_RZA2M_RDK/src/tensorflow_lite/src/tensorflow/lite/kernels\kernel_util.h ****                                               TfLiteTensor* output,
 241:C:/Renesas/e2studio_2021_01_workspace_RZA2M_ANPR/ANPR_RZA2M_RDK/src/tensorflow_lite/src/tensorflow/lite/kernels\kernel_util.h ****                                               double* multiplier);
 242:C:/Renesas/e2studio_2021_01_workspace_RZA2M_ANPR/ANPR_RZA2M_RDK/src/tensorflow_lite/src/tensorflow/lite/kernels\kernel_util.h **** 
 243:C:/Renesas/e2studio_2021_01_workspace_RZA2M_ANPR/ANPR_RZA2M_RDK/src/tensorflow_lite/src/tensorflow/lite/kernels\kernel_util.h **** // Calculates the useful quantized range of an activation layer given its
 244:C:/Renesas/e2studio_2021_01_workspace_RZA2M_ANPR/ANPR_RZA2M_RDK/src/tensorflow_lite/src/tensorflow/lite/kernels\kernel_util.h **** // activation tensor.
 245:C:/Renesas/e2studio_2021_01_workspace_RZA2M_ANPR/ANPR_RZA2M_RDK/src/tensorflow_lite/src/tensorflow/lite/kernels\kernel_util.h **** TfLiteStatus CalculateActivationRangeQuantized(TfLiteContext* context,
 246:C:/Renesas/e2studio_2021_01_workspace_RZA2M_ANPR/ANPR_RZA2M_RDK/src/tensorflow_lite/src/tensorflow/lite/kernels\kernel_util.h ****                                                TfLiteFusedActivation activation,
 247:C:/Renesas/e2studio_2021_01_workspace_RZA2M_ANPR/ANPR_RZA2M_RDK/src/tensorflow_lite/src/tensorflow/lite/kernels\kernel_util.h ****                                                TfLiteTensor* output,
 248:C:/Renesas/e2studio_2021_01_workspace_RZA2M_ANPR/ANPR_RZA2M_RDK/src/tensorflow_lite/src/tensorflow/lite/kernels\kernel_util.h ****                                                int32_t* act_min,
 249:C:/Renesas/e2studio_2021_01_workspace_RZA2M_ANPR/ANPR_RZA2M_RDK/src/tensorflow_lite/src/tensorflow/lite/kernels\kernel_util.h ****                                                int32_t* act_max);
 250:C:/Renesas/e2studio_2021_01_workspace_RZA2M_ANPR/ANPR_RZA2M_RDK/src/tensorflow_lite/src/tensorflow/lite/kernels\kernel_util.h **** 
 251:C:/Renesas/e2studio_2021_01_workspace_RZA2M_ANPR/ANPR_RZA2M_RDK/src/tensorflow_lite/src/tensorflow/lite/kernels\kernel_util.h **** // Calculates the useful range of an activation layer given its activation
 252:C:/Renesas/e2studio_2021_01_workspace_RZA2M_ANPR/ANPR_RZA2M_RDK/src/tensorflow_lite/src/tensorflow/lite/kernels\kernel_util.h **** // tensor.a
 253:C:/Renesas/e2studio_2021_01_workspace_RZA2M_ANPR/ANPR_RZA2M_RDK/src/tensorflow_lite/src/tensorflow/lite/kernels\kernel_util.h **** template <typename T>
 254:C:/Renesas/e2studio_2021_01_workspace_RZA2M_ANPR/ANPR_RZA2M_RDK/src/tensorflow_lite/src/tensorflow/lite/kernels\kernel_util.h **** void CalculateActivationRange(TfLiteFusedActivation activation,
 255:C:/Renesas/e2studio_2021_01_workspace_RZA2M_ANPR/ANPR_RZA2M_RDK/src/tensorflow_lite/src/tensorflow/lite/kernels\kernel_util.h ****                               T* activation_min, T* activation_max) {
 256:C:/Renesas/e2studio_2021_01_workspace_RZA2M_ANPR/ANPR_RZA2M_RDK/src/tensorflow_lite/src/tensorflow/lite/kernels\kernel_util.h ****   if (activation == kTfLiteActRelu) {
 167              		.loc 2 256 0
 168 00ac 010053E3 		cmp	r3, #1
 257:C:/Renesas/e2studio_2021_01_workspace_RZA2M_ANPR/ANPR_RZA2M_RDK/src/tensorflow_lite/src/tensorflow/lite/kernels\kernel_util.h ****     *activation_min = 0;
 169              		.loc 2 257 0
 170 00b0 0020A003 		moveq	r2, #0
 256:C:/Renesas/e2studio_2021_01_workspace_RZA2M_ANPR/ANPR_RZA2M_RDK/src/tensorflow_lite/src/tensorflow/lite/kernels\kernel_util.h ****     *activation_min = 0;
 171              		.loc 2 256 0
 172 00b4 0400000A 		beq	.L26
 258:C:/Renesas/e2studio_2021_01_workspace_RZA2M_ANPR/ANPR_RZA2M_RDK/src/tensorflow_lite/src/tensorflow/lite/kernels\kernel_util.h ****     *activation_max = std::numeric_limits<T>::max();
 259:C:/Renesas/e2studio_2021_01_workspace_RZA2M_ANPR/ANPR_RZA2M_RDK/src/tensorflow_lite/src/tensorflow/lite/kernels\kernel_util.h ****   } else if (activation == kTfLiteActRelu6) {
 173              		.loc 2 259 0
 174 00b8 030053E3 		cmp	r3, #3
 175 00bc 8B00000A 		beq	.L34
 260:C:/Renesas/e2studio_2021_01_workspace_RZA2M_ANPR/ANPR_RZA2M_RDK/src/tensorflow_lite/src/tensorflow/lite/kernels\kernel_util.h ****     *activation_min = 0;
 261:C:/Renesas/e2studio_2021_01_workspace_RZA2M_ANPR/ANPR_RZA2M_RDK/src/tensorflow_lite/src/tensorflow/lite/kernels\kernel_util.h ****     *activation_max = 6;
 262:C:/Renesas/e2studio_2021_01_workspace_RZA2M_ANPR/ANPR_RZA2M_RDK/src/tensorflow_lite/src/tensorflow/lite/kernels\kernel_util.h ****   } else if (activation == kTfLiteActReluN1To1) {
 176              		.loc 2 262 0
 177 00c0 020053E3 		cmp	r3, #2
 263:C:/Renesas/e2studio_2021_01_workspace_RZA2M_ANPR/ANPR_RZA2M_RDK/src/tensorflow_lite/src/tensorflow/lite/kernels\kernel_util.h ****     *activation_min = -1;
 264:C:/Renesas/e2studio_2021_01_workspace_RZA2M_ANPR/ANPR_RZA2M_RDK/src/tensorflow_lite/src/tensorflow/lite/kernels\kernel_util.h ****     *activation_max = 1;
 265:C:/Renesas/e2studio_2021_01_workspace_RZA2M_ANPR/ANPR_RZA2M_RDK/src/tensorflow_lite/src/tensorflow/lite/kernels\kernel_util.h ****   } else {
 266:C:/Renesas/e2studio_2021_01_workspace_RZA2M_ANPR/ANPR_RZA2M_RDK/src/tensorflow_lite/src/tensorflow/lite/kernels\kernel_util.h ****     *activation_min = std::numeric_limits<T>::lowest();
 178              		.loc 2 266 0
 179 00c4 0225E013 		mvnne	r2, #8388608
 262:C:/Renesas/e2studio_2021_01_workspace_RZA2M_ANPR/ANPR_RZA2M_RDK/src/tensorflow_lite/src/tensorflow/lite/kernels\kernel_util.h ****     *activation_min = -1;
 180              		.loc 2 262 0
 181 00c8 8F00000A 		beq	.L35
 182              	.L26:
 267:C:/Renesas/e2studio_2021_01_workspace_RZA2M_ANPR/ANPR_RZA2M_RDK/src/tensorflow_lite/src/tensorflow/lite/kernels\kernel_util.h ****     *activation_max = std::numeric_limits<T>::max();
 183              		.loc 2 267 0
 184 00cc FF3F0FE3 		movw	r3, #65535
 185              	.LVL17:
 186              	.LBE454:
 187              	.LBE453:
 188              	.LBE452:
  86:../src/tensorflow_lite/src/tensorflow/lite/micro/kernels/cmsis_nn/mul.cpp **** }
 189              		.loc 1 86 0
 190 00d0 0040A0E3 		mov	r4, #0
 191              	.LVL18:
 192              	.LBB465:
 193              	.LBB459:
 194              	.LBB455:
 195              		.loc 2 267 0
 196 00d4 7F3F47E3 		movt	r3, 32639
 266:C:/Renesas/e2studio_2021_01_workspace_RZA2M_ANPR/ANPR_RZA2M_RDK/src/tensorflow_lite/src/tensorflow/lite/kernels\kernel_util.h ****     *activation_max = std::numeric_limits<T>::max();
 197              		.loc 2 266 0
 198 00d8 1C2086E5 		str	r2, [r6, #28]	@ float
 199              		.loc 2 267 0
 200 00dc 203086E5 		str	r3, [r6, #32]	@ float
 201 00e0 110000EA 		b	.L12
 202              	.LVL19:
 203              	.L30:
 204              	.LBE455:
 205              	.LBE459:
 206              	.LBE465:
  61:../src/tensorflow_lite/src/tensorflow/lite/micro/kernels/cmsis_nn/mul.cpp ****   TF_LITE_ENSURE_EQ(context, NumOutputs(node), 1);
 207              		.loc 1 61 0
 208 00e4 00C000E3 		movw	ip, #:lower16:.LC7
 209 00e8 000000E3 		movw	r0, #:lower16:.LC8
 210              	.LVL20:
 211 00ec 00C040E3 		movt	ip, #:upper16:.LC7
 212 00f0 000040E3 		movt	r0, #:upper16:.LC8
 213 00f4 02E0A0E3 		mov	lr, #2
 214 00f8 002000E3 		movw	r2, #:lower16:.LC1
 215 00fc 001000E3 		movw	r1, #:lower16:.LC6
 216 0100 08308DE5 		str	r3, [sp, #8]
 217 0104 00008DE5 		str	r0, [sp]
 218 0108 002040E3 		movt	r2, #:upper16:.LC1
 219 010c 04C08DE5 		str	ip, [sp, #4]
 220 0110 001040E3 		movt	r1, #:upper16:.LC6
 221 0114 0CE08DE5 		str	lr, [sp, #12]
 222 0118 0500A0E1 		mov	r0, r5
 223 011c 144095E5 		ldr	r4, [r5, #20]
 224              	.LVL21:
 225 0120 3D30A0E3 		mov	r3, #61
 226 0124 34FF2FE1 		blx	r4
 227              	.LVL22:
 228 0128 0140A0E3 		mov	r4, #1
 229              	.LVL23:
 230              	.L12:
 231              	.LBE447:
 232              	.LBE446:
  99:../src/tensorflow_lite/src/tensorflow/lite/micro/kernels/cmsis_nn/mul.cpp ****   OpData* data = static_cast<OpData*>(node->user_data);
 100:../src/tensorflow_lite/src/tensorflow/lite/micro/kernels/cmsis_nn/mul.cpp **** 
 101:../src/tensorflow_lite/src/tensorflow/lite/micro/kernels/cmsis_nn/mul.cpp ****   return CalculateOpData(context, node, params, data);
 102:../src/tensorflow_lite/src/tensorflow/lite/micro/kernels/cmsis_nn/mul.cpp **** }
 233              		.loc 1 102 0
 234 012c 0400A0E1 		mov	r0, r4
 235 0130 14D08DE2 		add	sp, sp, #20
 236              		.cfi_remember_state
 237              		.cfi_def_cfa_offset 36
 238              		@ sp needed
 239 0134 F08FBDE8 		pop	{r4, r5, r6, r7, r8, r9, r10, fp, pc}
 240              	.LVL24:
 241              	.L32:
 242              		.cfi_restore_state
 243              	.LBB474:
 244              	.LBB470:
  64:../src/tensorflow_lite/src/tensorflow/lite/micro/kernels/cmsis_nn/mul.cpp **** 
 245              		.loc 1 64 0
 246 0138 146095E5 		ldr	r6, [r5, #20]
 247              	.LVL25:
 248 013c FEFFFFEB 		bl	TfLiteTypeGetName
 249              	.LVL26:
 250 0140 0040A0E1 		mov	r4, r0
 251              	.LVL27:
 252 0144 0000D8E5 		ldrb	r0, [r8]	@ zero_extendqisi2
 253 0148 FEFFFFEB 		bl	TfLiteTypeGetName
 254              	.LVL28:
 255 014c 00C000E3 		movw	ip, #:lower16:.LC12
 256 0150 003000E3 		movw	r3, #:lower16:.LC13
 257 0154 00C040E3 		movt	ip, #:upper16:.LC12
 258 0158 003040E3 		movt	r3, #:upper16:.LC13
 259 015c 002000E3 		movw	r2, #:lower16:.LC1
 260 0160 001000E3 		movw	r1, #:lower16:.LC11
 261 0164 0C008DE5 		str	r0, [sp, #12]
 262 0168 002040E3 		movt	r2, #:upper16:.LC1
 263 016c 08408DE5 		str	r4, [sp, #8]
 264 0170 0500A0E1 		mov	r0, r5
 265 0174 08108DE8 		stm	sp, {r3, ip}
 266 0178 001040E3 		movt	r1, #:upper16:.LC11
 267 017c 4030A0E3 		mov	r3, #64
 268 0180 0B40A0E1 		mov	r4, fp
 269 0184 36FF2FE1 		blx	r6
 270              	.LVL29:
 271              	.LBE470:
 272              	.LBE474:
 273              		.loc 1 102 0
 274 0188 0400A0E1 		mov	r0, r4
 275 018c 14D08DE2 		add	sp, sp, #20
 276              		.cfi_remember_state
 277              		.cfi_def_cfa_offset 36
 278              		@ sp needed
 279 0190 F08FBDE8 		pop	{r4, r5, r6, r7, r8, r9, r10, fp, pc}
 280              	.LVL30:
 281              	.L31:
 282              		.cfi_restore_state
 283              	.LBB475:
 284              	.LBB471:
  62:../src/tensorflow_lite/src/tensorflow/lite/micro/kernels/cmsis_nn/mul.cpp **** 
 285              		.loc 1 62 0
 286 0194 000000E3 		movw	r0, #:lower16:.LC9
 287              	.LVL31:
 288 0198 003000E3 		movw	r3, #:lower16:.LC10
 289 019c 0140A0E3 		mov	r4, #1
 290              	.LVL32:
 291 01a0 000040E3 		movt	r0, #:upper16:.LC9
 292 01a4 003040E3 		movt	r3, #:upper16:.LC10
 293 01a8 002000E3 		movw	r2, #:lower16:.LC1
 294 01ac 001000E3 		movw	r1, #:lower16:.LC6
 295 01b0 01088DE9 		stmib	sp, {r0, fp}
 296 01b4 00308DE5 		str	r3, [sp]
 297 01b8 0500A0E1 		mov	r0, r5
 298 01bc 0C408DE5 		str	r4, [sp, #12]
 299 01c0 002040E3 		movt	r2, #:upper16:.LC1
 300 01c4 001040E3 		movt	r1, #:upper16:.LC6
 301 01c8 145095E5 		ldr	r5, [r5, #20]
 302              	.LVL33:
 303 01cc 3E30A0E3 		mov	r3, #62
 304 01d0 35FF2FE1 		blx	r5
 305              	.LVL34:
 306              	.LBE471:
 307              	.LBE475:
 308              		.loc 1 102 0
 309 01d4 0400A0E1 		mov	r0, r4
 310 01d8 14D08DE2 		add	sp, sp, #20
 311              		.cfi_remember_state
 312              		.cfi_def_cfa_offset 36
 313              		@ sp needed
 314 01dc F08FBDE8 		pop	{r4, r5, r6, r7, r8, r9, r10, fp, pc}
 315              	.LVL35:
 316              	.L27:
 317              		.cfi_restore_state
 318              	.LBB476:
 319              	.LBB472:
  55:../src/tensorflow_lite/src/tensorflow/lite/micro/kernels/cmsis_nn/mul.cpp ****   const TfLiteTensor* input2 = GetInput(context, node, kInput2Tensor);
 320              		.loc 1 55 0
 321 01e0 003000E3 		movw	r3, #:lower16:.LC3
 322 01e4 002000E3 		movw	r2, #:lower16:.LC1
 323 01e8 003040E3 		movt	r3, #:upper16:.LC3
 324 01ec 001000E3 		movw	r1, #:lower16:.LC2
 325 01f0 00308DE5 		str	r3, [sp]
 326 01f4 0500A0E1 		mov	r0, r5
 327              	.LVL36:
 328 01f8 144095E5 		ldr	r4, [r5, #20]
 329              	.LVL37:
 330 01fc 002040E3 		movt	r2, #:upper16:.LC1
 331 0200 001040E3 		movt	r1, #:upper16:.LC2
 332 0204 3730A0E3 		mov	r3, #55
 333 0208 34FF2FE1 		blx	r4
 334              	.LVL38:
 335 020c 0140A0E3 		mov	r4, #1
 336              	.LVL39:
 337              	.LBE472:
 338              	.LBE476:
 339              		.loc 1 102 0
 340 0210 0400A0E1 		mov	r0, r4
 341 0214 14D08DE2 		add	sp, sp, #20
 342              		.cfi_remember_state
 343              		.cfi_def_cfa_offset 36
 344              		@ sp needed
 345 0218 F08FBDE8 		pop	{r4, r5, r6, r7, r8, r9, r10, fp, pc}
 346              	.LVL40:
 347              	.L28:
 348              		.cfi_restore_state
 349              	.LBB477:
 350              	.LBB473:
  57:../src/tensorflow_lite/src/tensorflow/lite/micro/kernels/cmsis_nn/mul.cpp ****   TfLiteTensor* output = GetOutput(context, node, kOutputTensor);
 351              		.loc 1 57 0
 352 021c 003000E3 		movw	r3, #:lower16:.LC4
 353 0220 002000E3 		movw	r2, #:lower16:.LC1
 354 0224 003040E3 		movt	r3, #:upper16:.LC4
 355 0228 001000E3 		movw	r1, #:lower16:.LC2
 356 022c 00308DE5 		str	r3, [sp]
 357 0230 002040E3 		movt	r2, #:upper16:.LC1
 358 0234 144095E5 		ldr	r4, [r5, #20]
 359              	.LVL41:
 360 0238 001040E3 		movt	r1, #:upper16:.LC2
 361 023c 0500A0E1 		mov	r0, r5
 362              	.LVL42:
 363 0240 3930A0E3 		mov	r3, #57
 364 0244 34FF2FE1 		blx	r4
 365              	.LVL43:
 366 0248 0140A0E3 		mov	r4, #1
 367 024c B6FFFFEA 		b	.L12
 368              	.LVL44:
 369              	.L33:
 370              	.LBB466:
 371              	.LBB460:
 372              	.LBB461:
  67:../src/tensorflow_lite/src/tensorflow/lite/micro/kernels/cmsis_nn/mul.cpp ****         context, params->activation, output, &data->output_activation_min,
 373              		.loc 1 67 0
 374 0250 043086E2 		add	r3, r6, #4
 375 0254 0010D7E5 		ldrb	r1, [r7]	@ zero_extendqisi2
 376 0258 0500A0E1 		mov	r0, r5
 377 025c 00308DE5 		str	r3, [sp]
 378 0260 0A20A0E1 		mov	r2, r10
 379 0264 0630A0E1 		mov	r3, r6
 380 0268 FEFFFFEB 		bl	_ZN6tflite33CalculateActivationRangeQuantizedEP13TfLiteContext21TfLiteFusedActivationP12TfLiteT
 381              	.LVL45:
 382 026c 004050E2 		subs	r4, r0, #0
 383              	.LVL46:
 384 0270 ADFFFF1A 		bne	.L12
 385              	.LVL47:
 386              	.LBE461:
  71:../src/tensorflow_lite/src/tensorflow/lite/micro/kernels/cmsis_nn/mul.cpp ****                              static_cast<double>(input2->params.scale) /
 387              		.loc 1 71 0
 388 0274 037AD9ED 		vldr.32	s15, [r9, #12]
  75:../src/tensorflow_lite/src/tensorflow/lite/micro/kernels/cmsis_nn/mul.cpp **** 
 389              		.loc 1 75 0
 390 0278 0C1086E2 		add	r1, r6, #12
  72:../src/tensorflow_lite/src/tensorflow/lite/micro/kernels/cmsis_nn/mul.cpp ****                              static_cast<double>(output->params.scale);
 391              		.loc 1 72 0
 392 027c 037A98ED 		vldr.32	s14, [r8, #12]
  75:../src/tensorflow_lite/src/tensorflow/lite/micro/kernels/cmsis_nn/mul.cpp **** 
 393              		.loc 1 75 0
 394 0280 080086E2 		add	r0, r6, #8
 395              	.LVL48:
  73:../src/tensorflow_lite/src/tensorflow/lite/micro/kernels/cmsis_nn/mul.cpp ****     QuantizeMultiplier(real_multiplier, &data->output_multiplier,
 396              		.loc 1 73 0
 397 0284 030A9AED 		vldr.32	s0, [r10, #12]
  71:../src/tensorflow_lite/src/tensorflow/lite/micro/kernels/cmsis_nn/mul.cpp ****                              static_cast<double>(input2->params.scale) /
 398              		.loc 1 71 0
 399 0288 E70AF7EE 		vcvt.f64.f32	d16, s15
  72:../src/tensorflow_lite/src/tensorflow/lite/micro/kernels/cmsis_nn/mul.cpp ****                              static_cast<double>(output->params.scale);
 400              		.loc 1 72 0
 401 028c C77AB7EE 		vcvt.f64.f32	d7, s14
  73:../src/tensorflow_lite/src/tensorflow/lite/micro/kernels/cmsis_nn/mul.cpp ****     QuantizeMultiplier(real_multiplier, &data->output_multiplier,
 402              		.loc 1 73 0
 403 0290 C00AB7EE 		vcvt.f64.f32	d0, s0
  71:../src/tensorflow_lite/src/tensorflow/lite/micro/kernels/cmsis_nn/mul.cpp ****                              static_cast<double>(input2->params.scale) /
 404              		.loc 1 71 0
 405 0294 870B60EE 		vmul.f64	d16, d16, d7
  75:../src/tensorflow_lite/src/tensorflow/lite/micro/kernels/cmsis_nn/mul.cpp **** 
 406              		.loc 1 75 0
 407 0298 800B80EE 		vdiv.f64	d0, d16, d0
 408 029c FEFFFFEB 		bl	_ZN6tflite18QuantizeMultiplierEdPlPi
 409              	.LVL49:
  77:../src/tensorflow_lite/src/tensorflow/lite/micro/kernels/cmsis_nn/mul.cpp ****     data->input2_zero_point = input2->params.zero_point;
 410              		.loc 1 77 0
 411 02a0 101099E5 		ldr	r1, [r9, #16]
  78:../src/tensorflow_lite/src/tensorflow/lite/micro/kernels/cmsis_nn/mul.cpp ****     data->output_zero_point = output->params.zero_point;
 412              		.loc 1 78 0
 413 02a4 102098E5 		ldr	r2, [r8, #16]
  79:../src/tensorflow_lite/src/tensorflow/lite/micro/kernels/cmsis_nn/mul.cpp ****   } else {
 414              		.loc 1 79 0
 415 02a8 10309AE5 		ldr	r3, [r10, #16]
  77:../src/tensorflow_lite/src/tensorflow/lite/micro/kernels/cmsis_nn/mul.cpp ****     data->input2_zero_point = input2->params.zero_point;
 416              		.loc 1 77 0
 417 02ac 101086E5 		str	r1, [r6, #16]
  78:../src/tensorflow_lite/src/tensorflow/lite/micro/kernels/cmsis_nn/mul.cpp ****     data->output_zero_point = output->params.zero_point;
 418              		.loc 1 78 0
 419 02b0 142086E5 		str	r2, [r6, #20]
  79:../src/tensorflow_lite/src/tensorflow/lite/micro/kernels/cmsis_nn/mul.cpp ****   } else {
 420              		.loc 1 79 0
 421 02b4 183086E5 		str	r3, [r6, #24]
 422 02b8 9BFFFFEA 		b	.L12
 423              	.LVL50:
 424              	.L29:
 425              	.LBE460:
 426              	.LBE466:
  59:../src/tensorflow_lite/src/tensorflow/lite/micro/kernels/cmsis_nn/mul.cpp **** 
 427              		.loc 1 59 0
 428 02bc 003000E3 		movw	r3, #:lower16:.LC5
 429 02c0 002000E3 		movw	r2, #:lower16:.LC1
 430 02c4 003040E3 		movt	r3, #:upper16:.LC5
 431 02c8 001000E3 		movw	r1, #:lower16:.LC2
 432 02cc 00308DE5 		str	r3, [sp]
 433 02d0 002040E3 		movt	r2, #:upper16:.LC1
 434 02d4 144095E5 		ldr	r4, [r5, #20]
 435              	.LVL51:
 436 02d8 001040E3 		movt	r1, #:upper16:.LC2
 437 02dc 0500A0E1 		mov	r0, r5
 438              	.LVL52:
 439 02e0 3B30A0E3 		mov	r3, #59
 440 02e4 34FF2FE1 		blx	r4
 441              	.LVL53:
 442 02e8 0140A0E3 		mov	r4, #1
 443 02ec 8EFFFFEA 		b	.L12
 444              	.LVL54:
 445              	.L34:
 446              	.LBB467:
 447              	.LBB462:
 448              	.LBB456:
 261:C:/Renesas/e2studio_2021_01_workspace_RZA2M_ANPR/ANPR_RZA2M_RDK/src/tensorflow_lite/src/tensorflow/lite/kernels\kernel_util.h ****   } else if (activation == kTfLiteActReluN1To1) {
 449              		.loc 2 261 0
 450 02f0 0030A0E3 		mov	r3, #0
 451              	.LVL55:
 260:C:/Renesas/e2studio_2021_01_workspace_RZA2M_ANPR/ANPR_RZA2M_RDK/src/tensorflow_lite/src/tensorflow/lite/kernels\kernel_util.h ****     *activation_max = 6;
 452              		.loc 2 260 0
 453 02f4 0020A0E3 		mov	r2, #0
 261:C:/Renesas/e2studio_2021_01_workspace_RZA2M_ANPR/ANPR_RZA2M_RDK/src/tensorflow_lite/src/tensorflow/lite/kernels\kernel_util.h ****   } else if (activation == kTfLiteActReluN1To1) {
 454              		.loc 2 261 0
 455 02f8 C03044E3 		movt	r3, 16576
 456              	.LBE456:
 457              	.LBE462:
 458              	.LBE467:
  86:../src/tensorflow_lite/src/tensorflow/lite/micro/kernels/cmsis_nn/mul.cpp **** }
 459              		.loc 1 86 0
 460 02fc 0040A0E3 		mov	r4, #0
 461              	.LVL56:
 462              	.LBB468:
 463              	.LBB463:
 464              	.LBB457:
 260:C:/Renesas/e2studio_2021_01_workspace_RZA2M_ANPR/ANPR_RZA2M_RDK/src/tensorflow_lite/src/tensorflow/lite/kernels\kernel_util.h ****     *activation_max = 6;
 465              		.loc 2 260 0
 466 0300 1C2086E5 		str	r2, [r6, #28]	@ float
 261:C:/Renesas/e2studio_2021_01_workspace_RZA2M_ANPR/ANPR_RZA2M_RDK/src/tensorflow_lite/src/tensorflow/lite/kernels\kernel_util.h ****   } else if (activation == kTfLiteActReluN1To1) {
 467              		.loc 2 261 0
 468 0304 203086E5 		str	r3, [r6, #32]	@ float
 469 0308 87FFFFEA 		b	.L12
 470              	.LVL57:
 471              	.L35:
 263:C:/Renesas/e2studio_2021_01_workspace_RZA2M_ANPR/ANPR_RZA2M_RDK/src/tensorflow_lite/src/tensorflow/lite/kernels\kernel_util.h ****     *activation_max = 1;
 472              		.loc 2 263 0
 473 030c 0020A0E3 		mov	r2, #0
 264:C:/Renesas/e2studio_2021_01_workspace_RZA2M_ANPR/ANPR_RZA2M_RDK/src/tensorflow_lite/src/tensorflow/lite/kernels\kernel_util.h ****   } else {
 474              		.loc 2 264 0
 475 0310 FE35A0E3 		mov	r3, #1065353216
 476              	.LVL58:
 263:C:/Renesas/e2studio_2021_01_workspace_RZA2M_ANPR/ANPR_RZA2M_RDK/src/tensorflow_lite/src/tensorflow/lite/kernels\kernel_util.h ****     *activation_max = 1;
 477              		.loc 2 263 0
 478 0314 802F4BE3 		movt	r2, 49024
 479              	.LBE457:
 480              	.LBE463:
 481              	.LBE468:
  86:../src/tensorflow_lite/src/tensorflow/lite/micro/kernels/cmsis_nn/mul.cpp **** }
 482              		.loc 1 86 0
 483 0318 0040A0E3 		mov	r4, #0
 484              	.LVL59:
 485              	.LBB469:
 486              	.LBB464:
 487              	.LBB458:
 263:C:/Renesas/e2studio_2021_01_workspace_RZA2M_ANPR/ANPR_RZA2M_RDK/src/tensorflow_lite/src/tensorflow/lite/kernels\kernel_util.h ****     *activation_max = 1;
 488              		.loc 2 263 0
 489 031c 1C2086E5 		str	r2, [r6, #28]	@ float
 264:C:/Renesas/e2studio_2021_01_workspace_RZA2M_ANPR/ANPR_RZA2M_RDK/src/tensorflow_lite/src/tensorflow/lite/kernels\kernel_util.h ****   } else {
 490              		.loc 2 264 0
 491 0320 203086E5 		str	r3, [r6, #32]	@ float
 492 0324 80FFFFEA 		b	.L12
 493              	.LVL60:
 494              	.L10:
 495              	.LBE458:
 496              	.LBE464:
 497              	.LBE469:
 498              	.LBE473:
 499              	.LBE477:
  95:../src/tensorflow_lite/src/tensorflow/lite/micro/kernels/cmsis_nn/mul.cpp ****   auto* params = reinterpret_cast<TfLiteMulParams*>(node->builtin_data);
 500              		.loc 1 95 0 discriminator 1
 501 0328 FEFFFFEB 		bl	abort
 502              	.LVL61:
 503              		.cfi_endproc
 504              	.LFE9116:
 505              		.fnend
 507              		.section	.text._ZN6tflite13reference_ops22ProcessBroadcastShapesERKNS_12RuntimeShapeES3_PNS_16Arit
 508              		.align	2
 509              		.weak	_ZN6tflite13reference_ops22ProcessBroadcastShapesERKNS_12RuntimeShapeES3_PNS_16ArithmeticPar
 510              		.syntax unified
 511              		.arm
 512              		.fpu neon
 514              	_ZN6tflite13reference_ops22ProcessBroadcastShapesERKNS_12RuntimeShapeES3_PNS_16ArithmeticParamsE:
 515              		.fnstart
 516              	.LFB4246:
 517              		.file 3 "C:/Renesas/e2studio_2021_01_workspace_RZA2M_ANPR/ANPR_RZA2M_RDK/src/tensorflow_lite/src/t
   1:C:/Renesas/e2studio_2021_01_workspace_RZA2M_ANPR/ANPR_RZA2M_RDK/src/tensorflow_lite/src/tensorflow/lite/kernels/internal/reference\process_broadcast_shapes.h **** /* Copyright 2019 The TensorFlow Authors. All Rights Reserved.
   2:C:/Renesas/e2studio_2021_01_workspace_RZA2M_ANPR/ANPR_RZA2M_RDK/src/tensorflow_lite/src/tensorflow/lite/kernels/internal/reference\process_broadcast_shapes.h **** 
   3:C:/Renesas/e2studio_2021_01_workspace_RZA2M_ANPR/ANPR_RZA2M_RDK/src/tensorflow_lite/src/tensorflow/lite/kernels/internal/reference\process_broadcast_shapes.h **** Licensed under the Apache License, Version 2.0 (the "License");
   4:C:/Renesas/e2studio_2021_01_workspace_RZA2M_ANPR/ANPR_RZA2M_RDK/src/tensorflow_lite/src/tensorflow/lite/kernels/internal/reference\process_broadcast_shapes.h **** you may not use this file except in compliance with the License.
   5:C:/Renesas/e2studio_2021_01_workspace_RZA2M_ANPR/ANPR_RZA2M_RDK/src/tensorflow_lite/src/tensorflow/lite/kernels/internal/reference\process_broadcast_shapes.h **** You may obtain a copy of the License at
   6:C:/Renesas/e2studio_2021_01_workspace_RZA2M_ANPR/ANPR_RZA2M_RDK/src/tensorflow_lite/src/tensorflow/lite/kernels/internal/reference\process_broadcast_shapes.h **** 
   7:C:/Renesas/e2studio_2021_01_workspace_RZA2M_ANPR/ANPR_RZA2M_RDK/src/tensorflow_lite/src/tensorflow/lite/kernels/internal/reference\process_broadcast_shapes.h ****     http://www.apache.org/licenses/LICENSE-2.0
   8:C:/Renesas/e2studio_2021_01_workspace_RZA2M_ANPR/ANPR_RZA2M_RDK/src/tensorflow_lite/src/tensorflow/lite/kernels/internal/reference\process_broadcast_shapes.h **** 
   9:C:/Renesas/e2studio_2021_01_workspace_RZA2M_ANPR/ANPR_RZA2M_RDK/src/tensorflow_lite/src/tensorflow/lite/kernels/internal/reference\process_broadcast_shapes.h **** Unless required by applicable law or agreed to in writing, software
  10:C:/Renesas/e2studio_2021_01_workspace_RZA2M_ANPR/ANPR_RZA2M_RDK/src/tensorflow_lite/src/tensorflow/lite/kernels/internal/reference\process_broadcast_shapes.h **** distributed under the License is distributed on an "AS IS" BASIS,
  11:C:/Renesas/e2studio_2021_01_workspace_RZA2M_ANPR/ANPR_RZA2M_RDK/src/tensorflow_lite/src/tensorflow/lite/kernels/internal/reference\process_broadcast_shapes.h **** WITHOUT WARRANTIES OR CONDITIONS OF ANY KIND, either express or implied.
  12:C:/Renesas/e2studio_2021_01_workspace_RZA2M_ANPR/ANPR_RZA2M_RDK/src/tensorflow_lite/src/tensorflow/lite/kernels/internal/reference\process_broadcast_shapes.h **** See the License for the specific language governing permissions and
  13:C:/Renesas/e2studio_2021_01_workspace_RZA2M_ANPR/ANPR_RZA2M_RDK/src/tensorflow_lite/src/tensorflow/lite/kernels/internal/reference\process_broadcast_shapes.h **** limitations under the License.
  14:C:/Renesas/e2studio_2021_01_workspace_RZA2M_ANPR/ANPR_RZA2M_RDK/src/tensorflow_lite/src/tensorflow/lite/kernels/internal/reference\process_broadcast_shapes.h **** ==============================================================================*/
  15:C:/Renesas/e2studio_2021_01_workspace_RZA2M_ANPR/ANPR_RZA2M_RDK/src/tensorflow_lite/src/tensorflow/lite/kernels/internal/reference\process_broadcast_shapes.h **** #ifndef TENSORFLOW_LITE_KERNELS_INTERNAL_REFERENCE_PROCESS_BROADCAST_SHAPES_H_
  16:C:/Renesas/e2studio_2021_01_workspace_RZA2M_ANPR/ANPR_RZA2M_RDK/src/tensorflow_lite/src/tensorflow/lite/kernels/internal/reference\process_broadcast_shapes.h **** #define TENSORFLOW_LITE_KERNELS_INTERNAL_REFERENCE_PROCESS_BROADCAST_SHAPES_H_
  17:C:/Renesas/e2studio_2021_01_workspace_RZA2M_ANPR/ANPR_RZA2M_RDK/src/tensorflow_lite/src/tensorflow/lite/kernels/internal/reference\process_broadcast_shapes.h **** 
  18:C:/Renesas/e2studio_2021_01_workspace_RZA2M_ANPR/ANPR_RZA2M_RDK/src/tensorflow_lite/src/tensorflow/lite/kernels/internal/reference\process_broadcast_shapes.h **** #include "tensorflow/lite/kernels/internal/types.h"
  19:C:/Renesas/e2studio_2021_01_workspace_RZA2M_ANPR/ANPR_RZA2M_RDK/src/tensorflow_lite/src/tensorflow/lite/kernels/internal/reference\process_broadcast_shapes.h **** 
  20:C:/Renesas/e2studio_2021_01_workspace_RZA2M_ANPR/ANPR_RZA2M_RDK/src/tensorflow_lite/src/tensorflow/lite/kernels/internal/reference\process_broadcast_shapes.h **** namespace tflite {
  21:C:/Renesas/e2studio_2021_01_workspace_RZA2M_ANPR/ANPR_RZA2M_RDK/src/tensorflow_lite/src/tensorflow/lite/kernels/internal/reference\process_broadcast_shapes.h **** 
  22:C:/Renesas/e2studio_2021_01_workspace_RZA2M_ANPR/ANPR_RZA2M_RDK/src/tensorflow_lite/src/tensorflow/lite/kernels/internal/reference\process_broadcast_shapes.h **** namespace reference_ops {
  23:C:/Renesas/e2studio_2021_01_workspace_RZA2M_ANPR/ANPR_RZA2M_RDK/src/tensorflow_lite/src/tensorflow/lite/kernels/internal/reference\process_broadcast_shapes.h **** 
  24:C:/Renesas/e2studio_2021_01_workspace_RZA2M_ANPR/ANPR_RZA2M_RDK/src/tensorflow_lite/src/tensorflow/lite/kernels/internal/reference\process_broadcast_shapes.h **** // Consolidates dimensions in broadcast inputs, checks for five-fold pattern.
  25:C:/Renesas/e2studio_2021_01_workspace_RZA2M_ANPR/ANPR_RZA2M_RDK/src/tensorflow_lite/src/tensorflow/lite/kernels/internal/reference\process_broadcast_shapes.h **** //
  26:C:/Renesas/e2studio_2021_01_workspace_RZA2M_ANPR/ANPR_RZA2M_RDK/src/tensorflow_lite/src/tensorflow/lite/kernels/internal/reference\process_broadcast_shapes.h **** // For example, if sequence of dimensions of one input is
  27:C:/Renesas/e2studio_2021_01_workspace_RZA2M_ANPR/ANPR_RZA2M_RDK/src/tensorflow_lite/src/tensorflow/lite/kernels/internal/reference\process_broadcast_shapes.h **** // ..., 1, 3, 1, 7, 9, 5,... and the other is ..., 2, 3, 1, 7, 1, 1, ...
  28:C:/Renesas/e2studio_2021_01_workspace_RZA2M_ANPR/ANPR_RZA2M_RDK/src/tensorflow_lite/src/tensorflow/lite/kernels/internal/reference\process_broadcast_shapes.h **** // we can consolidate these as
  29:C:/Renesas/e2studio_2021_01_workspace_RZA2M_ANPR/ANPR_RZA2M_RDK/src/tensorflow_lite/src/tensorflow/lite/kernels/internal/reference\process_broadcast_shapes.h **** // ..., 1, 3*7, 9*5, ... and 2, 3*7, 1.
  30:C:/Renesas/e2studio_2021_01_workspace_RZA2M_ANPR/ANPR_RZA2M_RDK/src/tensorflow_lite/src/tensorflow/lite/kernels/internal/reference\process_broadcast_shapes.h **** //
  31:C:/Renesas/e2studio_2021_01_workspace_RZA2M_ANPR/ANPR_RZA2M_RDK/src/tensorflow_lite/src/tensorflow/lite/kernels/internal/reference\process_broadcast_shapes.h **** // The category is updated in the less-frequent case of shapes that are
  32:C:/Renesas/e2studio_2021_01_workspace_RZA2M_ANPR/ANPR_RZA2M_RDK/src/tensorflow_lite/src/tensorflow/lite/kernels/internal/reference\process_broadcast_shapes.h **** // not suited to a fivefold-loop broadcast.
  33:C:/Renesas/e2studio_2021_01_workspace_RZA2M_ANPR/ANPR_RZA2M_RDK/src/tensorflow_lite/src/tensorflow/lite/kernels/internal/reference\process_broadcast_shapes.h **** //
  34:C:/Renesas/e2studio_2021_01_workspace_RZA2M_ANPR/ANPR_RZA2M_RDK/src/tensorflow_lite/src/tensorflow/lite/kernels/internal/reference\process_broadcast_shapes.h **** // Falls back to generic pattern when it does not know how to process properly.
  35:C:/Renesas/e2studio_2021_01_workspace_RZA2M_ANPR/ANPR_RZA2M_RDK/src/tensorflow_lite/src/tensorflow/lite/kernels/internal/reference\process_broadcast_shapes.h **** //
  36:C:/Renesas/e2studio_2021_01_workspace_RZA2M_ANPR/ANPR_RZA2M_RDK/src/tensorflow_lite/src/tensorflow/lite/kernels/internal/reference\process_broadcast_shapes.h **** // Returns true iff there is some sort of broadcast, which includes five-fold
  37:C:/Renesas/e2studio_2021_01_workspace_RZA2M_ANPR/ANPR_RZA2M_RDK/src/tensorflow_lite/src/tensorflow/lite/kernels/internal/reference\process_broadcast_shapes.h **** // patterns and falling back to generic broadcast.
  38:C:/Renesas/e2studio_2021_01_workspace_RZA2M_ANPR/ANPR_RZA2M_RDK/src/tensorflow_lite/src/tensorflow/lite/kernels/internal/reference\process_broadcast_shapes.h **** inline bool ProcessBroadcastShapes(const RuntimeShape& shape0,
  39:C:/Renesas/e2studio_2021_01_workspace_RZA2M_ANPR/ANPR_RZA2M_RDK/src/tensorflow_lite/src/tensorflow/lite/kernels/internal/reference\process_broadcast_shapes.h ****                                    const RuntimeShape& shape1,
  40:C:/Renesas/e2studio_2021_01_workspace_RZA2M_ANPR/ANPR_RZA2M_RDK/src/tensorflow_lite/src/tensorflow/lite/kernels/internal/reference\process_broadcast_shapes.h ****                                    tflite::ArithmeticParams* params) {
 518              		.loc 3 40 0
 519              		.cfi_startproc
 520              		.cfi_personality 0,__gxx_personality_v0
 521              		.cfi_lsda 0,.LLSDA4246
 522              		@ args = 0, pretend = 0, frame = 80
 523              		@ frame_needed = 0, uses_anonymous_args = 0
 524              	.LVL62:
 525 0000 F04F2DE9 		push	{r4, r5, r6, r7, r8, r9, r10, fp, lr}
 526              		.save {r4, r5, r6, r7, r8, r9, r10, fp, lr}
 527              		.cfi_def_cfa_offset 36
 528              		.cfi_offset 4, -36
 529              		.cfi_offset 5, -32
 530              		.cfi_offset 6, -28
 531              		.cfi_offset 7, -24
 532              		.cfi_offset 8, -20
 533              		.cfi_offset 9, -16
 534              		.cfi_offset 10, -12
 535              		.cfi_offset 11, -8
 536              		.cfi_offset 14, -4
 537 0004 0240A0E1 		mov	r4, r2
 538 0008 005091E5 		ldr	r5, [r1]
  41:C:/Renesas/e2studio_2021_01_workspace_RZA2M_ANPR/ANPR_RZA2M_RDK/src/tensorflow_lite/src/tensorflow/lite/kernels/internal/reference\process_broadcast_shapes.h ****   const int dims_count =
  42:C:/Renesas/e2studio_2021_01_workspace_RZA2M_ANPR/ANPR_RZA2M_RDK/src/tensorflow_lite/src/tensorflow/lite/kernels/internal/reference\process_broadcast_shapes.h ****       std::max(shape0.DimensionsCount(), shape1.DimensionsCount());
  43:C:/Renesas/e2studio_2021_01_workspace_RZA2M_ANPR/ANPR_RZA2M_RDK/src/tensorflow_lite/src/tensorflow/lite/kernels/internal/reference\process_broadcast_shapes.h **** 
  44:C:/Renesas/e2studio_2021_01_workspace_RZA2M_ANPR/ANPR_RZA2M_RDK/src/tensorflow_lite/src/tensorflow/lite/kernels/internal/reference\process_broadcast_shapes.h ****   params->broadcast_category = BroadcastableOpCategory::kGenericBroadcast;
 539              		.loc 3 44 0
 540 000c 0420A0E3 		mov	r2, #4
 541              	.LVL63:
  40:C:/Renesas/e2studio_2021_01_workspace_RZA2M_ANPR/ANPR_RZA2M_RDK/src/tensorflow_lite/src/tensorflow/lite/kernels/internal/reference\process_broadcast_shapes.h ****   const int dims_count =
 542              		.loc 3 40 0
 543              		.pad #84
 544 0010 54D04DE2 		sub	sp, sp, #84
 545              		.cfi_def_cfa_offset 120
  40:C:/Renesas/e2studio_2021_01_workspace_RZA2M_ANPR/ANPR_RZA2M_RDK/src/tensorflow_lite/src/tensorflow/lite/kernels/internal/reference\process_broadcast_shapes.h ****   const int dims_count =
 546              		.loc 3 40 0
 547 0014 0070A0E1 		mov	r7, r0
 548              	.LVL64:
 549 0018 003090E5 		ldr	r3, [r0]
 550 001c 0160A0E1 		mov	r6, r1
 551              		.loc 3 44 0
 552 0020 0020C4E5 		strb	r2, [r4]
 553 0024 050053E1 		cmp	r3, r5
 554 0028 0350A0A1 		movge	r5, r3
 555              	.LVL65:
 556              	.LBB584:
 557              	.LBB585:
 558              	.LBB586:
 559              	.LBB587:
 560              		.file 4 "C:/Renesas/e2studio_2021_01_workspace_RZA2M_ANPR/ANPR_RZA2M_RDK/src/tensorflow_lite/src/t
   1:C:/Renesas/e2studio_2021_01_workspace_RZA2M_ANPR/ANPR_RZA2M_RDK/src/tensorflow_lite/src/tensorflow/lite/kernels/internal\types.h **** /* Copyright 2018 The TensorFlow Authors. All Rights Reserved.
   2:C:/Renesas/e2studio_2021_01_workspace_RZA2M_ANPR/ANPR_RZA2M_RDK/src/tensorflow_lite/src/tensorflow/lite/kernels/internal\types.h **** 
   3:C:/Renesas/e2studio_2021_01_workspace_RZA2M_ANPR/ANPR_RZA2M_RDK/src/tensorflow_lite/src/tensorflow/lite/kernels/internal\types.h **** Licensed under the Apache License, Version 2.0 (the "License");
   4:C:/Renesas/e2studio_2021_01_workspace_RZA2M_ANPR/ANPR_RZA2M_RDK/src/tensorflow_lite/src/tensorflow/lite/kernels/internal\types.h **** you may not use this file except in compliance with the License.
   5:C:/Renesas/e2studio_2021_01_workspace_RZA2M_ANPR/ANPR_RZA2M_RDK/src/tensorflow_lite/src/tensorflow/lite/kernels/internal\types.h **** You may obtain a copy of the License at
   6:C:/Renesas/e2studio_2021_01_workspace_RZA2M_ANPR/ANPR_RZA2M_RDK/src/tensorflow_lite/src/tensorflow/lite/kernels/internal\types.h **** 
   7:C:/Renesas/e2studio_2021_01_workspace_RZA2M_ANPR/ANPR_RZA2M_RDK/src/tensorflow_lite/src/tensorflow/lite/kernels/internal\types.h ****     http://www.apache.org/licenses/LICENSE-2.0
   8:C:/Renesas/e2studio_2021_01_workspace_RZA2M_ANPR/ANPR_RZA2M_RDK/src/tensorflow_lite/src/tensorflow/lite/kernels/internal\types.h **** 
   9:C:/Renesas/e2studio_2021_01_workspace_RZA2M_ANPR/ANPR_RZA2M_RDK/src/tensorflow_lite/src/tensorflow/lite/kernels/internal\types.h **** Unless required by applicable law or agreed to in writing, software
  10:C:/Renesas/e2studio_2021_01_workspace_RZA2M_ANPR/ANPR_RZA2M_RDK/src/tensorflow_lite/src/tensorflow/lite/kernels/internal\types.h **** distributed under the License is distributed on an "AS IS" BASIS,
  11:C:/Renesas/e2studio_2021_01_workspace_RZA2M_ANPR/ANPR_RZA2M_RDK/src/tensorflow_lite/src/tensorflow/lite/kernels/internal\types.h **** WITHOUT WARRANTIES OR CONDITIONS OF ANY KIND, either express or implied.
  12:C:/Renesas/e2studio_2021_01_workspace_RZA2M_ANPR/ANPR_RZA2M_RDK/src/tensorflow_lite/src/tensorflow/lite/kernels/internal\types.h **** See the License for the specific language governing permissions and
  13:C:/Renesas/e2studio_2021_01_workspace_RZA2M_ANPR/ANPR_RZA2M_RDK/src/tensorflow_lite/src/tensorflow/lite/kernels/internal\types.h **** limitations under the License.
  14:C:/Renesas/e2studio_2021_01_workspace_RZA2M_ANPR/ANPR_RZA2M_RDK/src/tensorflow_lite/src/tensorflow/lite/kernels/internal\types.h **** ==============================================================================*/
  15:C:/Renesas/e2studio_2021_01_workspace_RZA2M_ANPR/ANPR_RZA2M_RDK/src/tensorflow_lite/src/tensorflow/lite/kernels/internal\types.h **** #ifndef TENSORFLOW_LITE_KERNELS_INTERNAL_TYPES_H_
  16:C:/Renesas/e2studio_2021_01_workspace_RZA2M_ANPR/ANPR_RZA2M_RDK/src/tensorflow_lite/src/tensorflow/lite/kernels/internal\types.h **** #define TENSORFLOW_LITE_KERNELS_INTERNAL_TYPES_H_
  17:C:/Renesas/e2studio_2021_01_workspace_RZA2M_ANPR/ANPR_RZA2M_RDK/src/tensorflow_lite/src/tensorflow/lite/kernels/internal\types.h **** 
  18:C:/Renesas/e2studio_2021_01_workspace_RZA2M_ANPR/ANPR_RZA2M_RDK/src/tensorflow_lite/src/tensorflow/lite/kernels/internal\types.h **** #include <algorithm>
  19:C:/Renesas/e2studio_2021_01_workspace_RZA2M_ANPR/ANPR_RZA2M_RDK/src/tensorflow_lite/src/tensorflow/lite/kernels/internal\types.h **** #include <cstdint>
  20:C:/Renesas/e2studio_2021_01_workspace_RZA2M_ANPR/ANPR_RZA2M_RDK/src/tensorflow_lite/src/tensorflow/lite/kernels/internal\types.h **** #include <cstring>
  21:C:/Renesas/e2studio_2021_01_workspace_RZA2M_ANPR/ANPR_RZA2M_RDK/src/tensorflow_lite/src/tensorflow/lite/kernels/internal\types.h **** #include <initializer_list>
  22:C:/Renesas/e2studio_2021_01_workspace_RZA2M_ANPR/ANPR_RZA2M_RDK/src/tensorflow_lite/src/tensorflow/lite/kernels/internal\types.h **** 
  23:C:/Renesas/e2studio_2021_01_workspace_RZA2M_ANPR/ANPR_RZA2M_RDK/src/tensorflow_lite/src/tensorflow/lite/kernels/internal\types.h **** #include "tensorflow/lite/kernels/internal/compatibility.h"
  24:C:/Renesas/e2studio_2021_01_workspace_RZA2M_ANPR/ANPR_RZA2M_RDK/src/tensorflow_lite/src/tensorflow/lite/kernels/internal\types.h **** 
  25:C:/Renesas/e2studio_2021_01_workspace_RZA2M_ANPR/ANPR_RZA2M_RDK/src/tensorflow_lite/src/tensorflow/lite/kernels/internal\types.h **** namespace tflite {
  26:C:/Renesas/e2studio_2021_01_workspace_RZA2M_ANPR/ANPR_RZA2M_RDK/src/tensorflow_lite/src/tensorflow/lite/kernels/internal\types.h **** 
  27:C:/Renesas/e2studio_2021_01_workspace_RZA2M_ANPR/ANPR_RZA2M_RDK/src/tensorflow_lite/src/tensorflow/lite/kernels/internal\types.h **** enum class FusedActivationFunctionType : uint8_t {
  28:C:/Renesas/e2studio_2021_01_workspace_RZA2M_ANPR/ANPR_RZA2M_RDK/src/tensorflow_lite/src/tensorflow/lite/kernels/internal\types.h ****   kNone,
  29:C:/Renesas/e2studio_2021_01_workspace_RZA2M_ANPR/ANPR_RZA2M_RDK/src/tensorflow_lite/src/tensorflow/lite/kernels/internal\types.h ****   kRelu6,
  30:C:/Renesas/e2studio_2021_01_workspace_RZA2M_ANPR/ANPR_RZA2M_RDK/src/tensorflow_lite/src/tensorflow/lite/kernels/internal\types.h ****   kRelu1,
  31:C:/Renesas/e2studio_2021_01_workspace_RZA2M_ANPR/ANPR_RZA2M_RDK/src/tensorflow_lite/src/tensorflow/lite/kernels/internal\types.h ****   kRelu
  32:C:/Renesas/e2studio_2021_01_workspace_RZA2M_ANPR/ANPR_RZA2M_RDK/src/tensorflow_lite/src/tensorflow/lite/kernels/internal\types.h **** };
  33:C:/Renesas/e2studio_2021_01_workspace_RZA2M_ANPR/ANPR_RZA2M_RDK/src/tensorflow_lite/src/tensorflow/lite/kernels/internal\types.h **** enum class PaddingType : uint8_t { kNone, kSame, kValid };
  34:C:/Renesas/e2studio_2021_01_workspace_RZA2M_ANPR/ANPR_RZA2M_RDK/src/tensorflow_lite/src/tensorflow/lite/kernels/internal\types.h **** 
  35:C:/Renesas/e2studio_2021_01_workspace_RZA2M_ANPR/ANPR_RZA2M_RDK/src/tensorflow_lite/src/tensorflow/lite/kernels/internal\types.h **** struct PaddingValues {
  36:C:/Renesas/e2studio_2021_01_workspace_RZA2M_ANPR/ANPR_RZA2M_RDK/src/tensorflow_lite/src/tensorflow/lite/kernels/internal\types.h ****   int16_t width;
  37:C:/Renesas/e2studio_2021_01_workspace_RZA2M_ANPR/ANPR_RZA2M_RDK/src/tensorflow_lite/src/tensorflow/lite/kernels/internal\types.h ****   int16_t height;
  38:C:/Renesas/e2studio_2021_01_workspace_RZA2M_ANPR/ANPR_RZA2M_RDK/src/tensorflow_lite/src/tensorflow/lite/kernels/internal\types.h ****   // offset is used for calculating "remaining" padding, for example, `width`
  39:C:/Renesas/e2studio_2021_01_workspace_RZA2M_ANPR/ANPR_RZA2M_RDK/src/tensorflow_lite/src/tensorflow/lite/kernels/internal\types.h ****   // is 1 and `width_offset` is 1, so padding_left is 1 while padding_right is
  40:C:/Renesas/e2studio_2021_01_workspace_RZA2M_ANPR/ANPR_RZA2M_RDK/src/tensorflow_lite/src/tensorflow/lite/kernels/internal\types.h ****   // 1 + 1 = 2.
  41:C:/Renesas/e2studio_2021_01_workspace_RZA2M_ANPR/ANPR_RZA2M_RDK/src/tensorflow_lite/src/tensorflow/lite/kernels/internal\types.h ****   int16_t width_offset;
  42:C:/Renesas/e2studio_2021_01_workspace_RZA2M_ANPR/ANPR_RZA2M_RDK/src/tensorflow_lite/src/tensorflow/lite/kernels/internal\types.h ****   // Same as width_offset except it's over the height dimension.
  43:C:/Renesas/e2studio_2021_01_workspace_RZA2M_ANPR/ANPR_RZA2M_RDK/src/tensorflow_lite/src/tensorflow/lite/kernels/internal\types.h ****   int16_t height_offset;
  44:C:/Renesas/e2studio_2021_01_workspace_RZA2M_ANPR/ANPR_RZA2M_RDK/src/tensorflow_lite/src/tensorflow/lite/kernels/internal\types.h **** };
  45:C:/Renesas/e2studio_2021_01_workspace_RZA2M_ANPR/ANPR_RZA2M_RDK/src/tensorflow_lite/src/tensorflow/lite/kernels/internal\types.h **** 
  46:C:/Renesas/e2studio_2021_01_workspace_RZA2M_ANPR/ANPR_RZA2M_RDK/src/tensorflow_lite/src/tensorflow/lite/kernels/internal\types.h **** struct Padding3DValues {
  47:C:/Renesas/e2studio_2021_01_workspace_RZA2M_ANPR/ANPR_RZA2M_RDK/src/tensorflow_lite/src/tensorflow/lite/kernels/internal\types.h ****   int16_t width;
  48:C:/Renesas/e2studio_2021_01_workspace_RZA2M_ANPR/ANPR_RZA2M_RDK/src/tensorflow_lite/src/tensorflow/lite/kernels/internal\types.h ****   int16_t height;
  49:C:/Renesas/e2studio_2021_01_workspace_RZA2M_ANPR/ANPR_RZA2M_RDK/src/tensorflow_lite/src/tensorflow/lite/kernels/internal\types.h ****   int16_t depth;
  50:C:/Renesas/e2studio_2021_01_workspace_RZA2M_ANPR/ANPR_RZA2M_RDK/src/tensorflow_lite/src/tensorflow/lite/kernels/internal\types.h ****   // offset is used for calculating "remaining" padding, for example, `width`
  51:C:/Renesas/e2studio_2021_01_workspace_RZA2M_ANPR/ANPR_RZA2M_RDK/src/tensorflow_lite/src/tensorflow/lite/kernels/internal\types.h ****   // is 1 and `width_offset` is 1, so padding_left is 1 while padding_right is
  52:C:/Renesas/e2studio_2021_01_workspace_RZA2M_ANPR/ANPR_RZA2M_RDK/src/tensorflow_lite/src/tensorflow/lite/kernels/internal\types.h ****   // 1 + 1 = 2.
  53:C:/Renesas/e2studio_2021_01_workspace_RZA2M_ANPR/ANPR_RZA2M_RDK/src/tensorflow_lite/src/tensorflow/lite/kernels/internal\types.h ****   int16_t width_offset;
  54:C:/Renesas/e2studio_2021_01_workspace_RZA2M_ANPR/ANPR_RZA2M_RDK/src/tensorflow_lite/src/tensorflow/lite/kernels/internal\types.h ****   // Same as width_offset except it's over the height dimension.
  55:C:/Renesas/e2studio_2021_01_workspace_RZA2M_ANPR/ANPR_RZA2M_RDK/src/tensorflow_lite/src/tensorflow/lite/kernels/internal\types.h ****   int16_t height_offset;
  56:C:/Renesas/e2studio_2021_01_workspace_RZA2M_ANPR/ANPR_RZA2M_RDK/src/tensorflow_lite/src/tensorflow/lite/kernels/internal\types.h ****   // Same as width_offset except it's over the depth dimension.
  57:C:/Renesas/e2studio_2021_01_workspace_RZA2M_ANPR/ANPR_RZA2M_RDK/src/tensorflow_lite/src/tensorflow/lite/kernels/internal\types.h ****   int16_t depth_offset;
  58:C:/Renesas/e2studio_2021_01_workspace_RZA2M_ANPR/ANPR_RZA2M_RDK/src/tensorflow_lite/src/tensorflow/lite/kernels/internal\types.h **** };
  59:C:/Renesas/e2studio_2021_01_workspace_RZA2M_ANPR/ANPR_RZA2M_RDK/src/tensorflow_lite/src/tensorflow/lite/kernels/internal\types.h **** 
  60:C:/Renesas/e2studio_2021_01_workspace_RZA2M_ANPR/ANPR_RZA2M_RDK/src/tensorflow_lite/src/tensorflow/lite/kernels/internal\types.h **** // This enumeration allows for non-default formats for the weights array
  61:C:/Renesas/e2studio_2021_01_workspace_RZA2M_ANPR/ANPR_RZA2M_RDK/src/tensorflow_lite/src/tensorflow/lite/kernels/internal\types.h **** // of a fully-connected operator, allowing the use of special optimized
  62:C:/Renesas/e2studio_2021_01_workspace_RZA2M_ANPR/ANPR_RZA2M_RDK/src/tensorflow_lite/src/tensorflow/lite/kernels/internal\types.h **** // runtime paths.
  63:C:/Renesas/e2studio_2021_01_workspace_RZA2M_ANPR/ANPR_RZA2M_RDK/src/tensorflow_lite/src/tensorflow/lite/kernels/internal\types.h **** enum class FullyConnectedWeightsFormat : uint8_t {
  64:C:/Renesas/e2studio_2021_01_workspace_RZA2M_ANPR/ANPR_RZA2M_RDK/src/tensorflow_lite/src/tensorflow/lite/kernels/internal\types.h ****   // Default format (flat 2D layout, the inner contiguous dimension
  65:C:/Renesas/e2studio_2021_01_workspace_RZA2M_ANPR/ANPR_RZA2M_RDK/src/tensorflow_lite/src/tensorflow/lite/kernels/internal\types.h ****   // is input_depth, the outer non-contiguous dimension is output_depth)
  66:C:/Renesas/e2studio_2021_01_workspace_RZA2M_ANPR/ANPR_RZA2M_RDK/src/tensorflow_lite/src/tensorflow/lite/kernels/internal\types.h ****   kDefault,
  67:C:/Renesas/e2studio_2021_01_workspace_RZA2M_ANPR/ANPR_RZA2M_RDK/src/tensorflow_lite/src/tensorflow/lite/kernels/internal\types.h ****   // Summary: optimized layout for fast CPU runtime implementation,
  68:C:/Renesas/e2studio_2021_01_workspace_RZA2M_ANPR/ANPR_RZA2M_RDK/src/tensorflow_lite/src/tensorflow/lite/kernels/internal\types.h ****   // aimed specifically at ARM CPUs at the moment, and specialized for
  69:C:/Renesas/e2studio_2021_01_workspace_RZA2M_ANPR/ANPR_RZA2M_RDK/src/tensorflow_lite/src/tensorflow/lite/kernels/internal\types.h ****   // 8-bit quantized layers.
  70:C:/Renesas/e2studio_2021_01_workspace_RZA2M_ANPR/ANPR_RZA2M_RDK/src/tensorflow_lite/src/tensorflow/lite/kernels/internal\types.h ****   //
  71:C:/Renesas/e2studio_2021_01_workspace_RZA2M_ANPR/ANPR_RZA2M_RDK/src/tensorflow_lite/src/tensorflow/lite/kernels/internal\types.h ****   // The use case we're concerned with here is: 8-bit quantization,
  72:C:/Renesas/e2studio_2021_01_workspace_RZA2M_ANPR/ANPR_RZA2M_RDK/src/tensorflow_lite/src/tensorflow/lite/kernels/internal\types.h ****   // large weights matrix that doesn't fit in cache (e.g. 4096x2048 in
  73:C:/Renesas/e2studio_2021_01_workspace_RZA2M_ANPR/ANPR_RZA2M_RDK/src/tensorflow_lite/src/tensorflow/lite/kernels/internal\types.h ****   // a key application that drove this), very small batch size (e.g. 1 -- 4).
  74:C:/Renesas/e2studio_2021_01_workspace_RZA2M_ANPR/ANPR_RZA2M_RDK/src/tensorflow_lite/src/tensorflow/lite/kernels/internal\types.h ****   //
  75:C:/Renesas/e2studio_2021_01_workspace_RZA2M_ANPR/ANPR_RZA2M_RDK/src/tensorflow_lite/src/tensorflow/lite/kernels/internal\types.h ****   // Even with 8-bit quantization of weights, the performance of memory
  76:C:/Renesas/e2studio_2021_01_workspace_RZA2M_ANPR/ANPR_RZA2M_RDK/src/tensorflow_lite/src/tensorflow/lite/kernels/internal\types.h ****   // accesses to the weights can become the dominant issue when
  77:C:/Renesas/e2studio_2021_01_workspace_RZA2M_ANPR/ANPR_RZA2M_RDK/src/tensorflow_lite/src/tensorflow/lite/kernels/internal\types.h ****   // the batch size is small, so each weight value is used in only a few
  78:C:/Renesas/e2studio_2021_01_workspace_RZA2M_ANPR/ANPR_RZA2M_RDK/src/tensorflow_lite/src/tensorflow/lite/kernels/internal\types.h ****   // arithmetic ops, i.e. the fully-connected node has a low arithmetic
  79:C:/Renesas/e2studio_2021_01_workspace_RZA2M_ANPR/ANPR_RZA2M_RDK/src/tensorflow_lite/src/tensorflow/lite/kernels/internal\types.h ****   // intensity. The specific issues that arise are of three kinds:
  80:C:/Renesas/e2studio_2021_01_workspace_RZA2M_ANPR/ANPR_RZA2M_RDK/src/tensorflow_lite/src/tensorflow/lite/kernels/internal\types.h ****   // (1) One may, ideally, max out DRAM bandwidth, i.e. be truly memory
  81:C:/Renesas/e2studio_2021_01_workspace_RZA2M_ANPR/ANPR_RZA2M_RDK/src/tensorflow_lite/src/tensorflow/lite/kernels/internal\types.h ****   //     bound. That's the "good" issue to run into.
  82:C:/Renesas/e2studio_2021_01_workspace_RZA2M_ANPR/ANPR_RZA2M_RDK/src/tensorflow_lite/src/tensorflow/lite/kernels/internal\types.h ****   // (2) One may run into sub-optimal pre-fetching: the data hasn't been
  83:C:/Renesas/e2studio_2021_01_workspace_RZA2M_ANPR/ANPR_RZA2M_RDK/src/tensorflow_lite/src/tensorflow/lite/kernels/internal\types.h ****   //     prefetched into the cache by the time we need it.
  84:C:/Renesas/e2studio_2021_01_workspace_RZA2M_ANPR/ANPR_RZA2M_RDK/src/tensorflow_lite/src/tensorflow/lite/kernels/internal\types.h ****   // (3) One may run into cache aliasing: multiple values that are
  85:C:/Renesas/e2studio_2021_01_workspace_RZA2M_ANPR/ANPR_RZA2M_RDK/src/tensorflow_lite/src/tensorflow/lite/kernels/internal\types.h ****   //     pre-fetched, alias each other in the L1 cache (which typically
  86:C:/Renesas/e2studio_2021_01_workspace_RZA2M_ANPR/ANPR_RZA2M_RDK/src/tensorflow_lite/src/tensorflow/lite/kernels/internal\types.h ****   //     has only 4-way set associativity in ARM CPUs) and thus evict
  87:C:/Renesas/e2studio_2021_01_workspace_RZA2M_ANPR/ANPR_RZA2M_RDK/src/tensorflow_lite/src/tensorflow/lite/kernels/internal\types.h ****   //     each other before we get to using them.
  88:C:/Renesas/e2studio_2021_01_workspace_RZA2M_ANPR/ANPR_RZA2M_RDK/src/tensorflow_lite/src/tensorflow/lite/kernels/internal\types.h ****   //
  89:C:/Renesas/e2studio_2021_01_workspace_RZA2M_ANPR/ANPR_RZA2M_RDK/src/tensorflow_lite/src/tensorflow/lite/kernels/internal\types.h ****   // The point of this shuffling is to avoid issues (2) and (3) so that
  90:C:/Renesas/e2studio_2021_01_workspace_RZA2M_ANPR/ANPR_RZA2M_RDK/src/tensorflow_lite/src/tensorflow/lite/kernels/internal\types.h ****   // we get as fast as possible given only the hard constraint (1).
  91:C:/Renesas/e2studio_2021_01_workspace_RZA2M_ANPR/ANPR_RZA2M_RDK/src/tensorflow_lite/src/tensorflow/lite/kernels/internal\types.h ****   // This is achieved by turning the difficulty into a solution: the
  92:C:/Renesas/e2studio_2021_01_workspace_RZA2M_ANPR/ANPR_RZA2M_RDK/src/tensorflow_lite/src/tensorflow/lite/kernels/internal\types.h ****   // difficulty, that each value loaded from memory is used only in
  93:C:/Renesas/e2studio_2021_01_workspace_RZA2M_ANPR/ANPR_RZA2M_RDK/src/tensorflow_lite/src/tensorflow/lite/kernels/internal\types.h ****   // one kernel iteration, making this operation memory-intensive, hints at
  94:C:/Renesas/e2studio_2021_01_workspace_RZA2M_ANPR/ANPR_RZA2M_RDK/src/tensorflow_lite/src/tensorflow/lite/kernels/internal\types.h ****   // the solution, of shuffling the weights so that they are stored in the
  95:C:/Renesas/e2studio_2021_01_workspace_RZA2M_ANPR/ANPR_RZA2M_RDK/src/tensorflow_lite/src/tensorflow/lite/kernels/internal\types.h ****   // exact order as the kernel needs to load them, so that the memory
  96:C:/Renesas/e2studio_2021_01_workspace_RZA2M_ANPR/ANPR_RZA2M_RDK/src/tensorflow_lite/src/tensorflow/lite/kernels/internal\types.h ****   // accesses made by the kernel are trivial. This solves (2) because the
  97:C:/Renesas/e2studio_2021_01_workspace_RZA2M_ANPR/ANPR_RZA2M_RDK/src/tensorflow_lite/src/tensorflow/lite/kernels/internal\types.h ****   // trivial memory access pattern allows the CPU's automatic prefetching
  98:C:/Renesas/e2studio_2021_01_workspace_RZA2M_ANPR/ANPR_RZA2M_RDK/src/tensorflow_lite/src/tensorflow/lite/kernels/internal\types.h ****   // to perform very well (no need even for preload instructions), and this
  99:C:/Renesas/e2studio_2021_01_workspace_RZA2M_ANPR/ANPR_RZA2M_RDK/src/tensorflow_lite/src/tensorflow/lite/kernels/internal\types.h ****   // solves (3) because the values being loaded concurrently are now
 100:C:/Renesas/e2studio_2021_01_workspace_RZA2M_ANPR/ANPR_RZA2M_RDK/src/tensorflow_lite/src/tensorflow/lite/kernels/internal\types.h ****   // contiguous in the address space, thus don't alias each other in the cache.
 101:C:/Renesas/e2studio_2021_01_workspace_RZA2M_ANPR/ANPR_RZA2M_RDK/src/tensorflow_lite/src/tensorflow/lite/kernels/internal\types.h ****   //
 102:C:/Renesas/e2studio_2021_01_workspace_RZA2M_ANPR/ANPR_RZA2M_RDK/src/tensorflow_lite/src/tensorflow/lite/kernels/internal\types.h ****   // On ARM, we typically want our kernel to process a 4x16 block of weights
 103:C:/Renesas/e2studio_2021_01_workspace_RZA2M_ANPR/ANPR_RZA2M_RDK/src/tensorflow_lite/src/tensorflow/lite/kernels/internal\types.h ****   // at a time, because:
 104:C:/Renesas/e2studio_2021_01_workspace_RZA2M_ANPR/ANPR_RZA2M_RDK/src/tensorflow_lite/src/tensorflow/lite/kernels/internal\types.h ****   //   - 16 is the number of bytes in a NEON register.
 105:C:/Renesas/e2studio_2021_01_workspace_RZA2M_ANPR/ANPR_RZA2M_RDK/src/tensorflow_lite/src/tensorflow/lite/kernels/internal\types.h ****   //   - 4 is how many rows we need to handle concurrently in the kernel in
 106:C:/Renesas/e2studio_2021_01_workspace_RZA2M_ANPR/ANPR_RZA2M_RDK/src/tensorflow_lite/src/tensorflow/lite/kernels/internal\types.h ****   //     order to have sufficient mutual independence of instructions to
 107:C:/Renesas/e2studio_2021_01_workspace_RZA2M_ANPR/ANPR_RZA2M_RDK/src/tensorflow_lite/src/tensorflow/lite/kernels/internal\types.h ****   //     maximize arithmetic throughput.
 108:C:/Renesas/e2studio_2021_01_workspace_RZA2M_ANPR/ANPR_RZA2M_RDK/src/tensorflow_lite/src/tensorflow/lite/kernels/internal\types.h ****   //
 109:C:/Renesas/e2studio_2021_01_workspace_RZA2M_ANPR/ANPR_RZA2M_RDK/src/tensorflow_lite/src/tensorflow/lite/kernels/internal\types.h ****   // Finally, the 'Int8' part in the name refers to the fact that this
 110:C:/Renesas/e2studio_2021_01_workspace_RZA2M_ANPR/ANPR_RZA2M_RDK/src/tensorflow_lite/src/tensorflow/lite/kernels/internal\types.h ****   // weights format has each weights value encoded as a signed int8_t value,
 111:C:/Renesas/e2studio_2021_01_workspace_RZA2M_ANPR/ANPR_RZA2M_RDK/src/tensorflow_lite/src/tensorflow/lite/kernels/internal\types.h ****   // even if the data type of the weights buffer is uint8_t.  This is intended
 112:C:/Renesas/e2studio_2021_01_workspace_RZA2M_ANPR/ANPR_RZA2M_RDK/src/tensorflow_lite/src/tensorflow/lite/kernels/internal\types.h ****   // to save runtime kernels the effort to have to XOR the top bit of these
 113:C:/Renesas/e2studio_2021_01_workspace_RZA2M_ANPR/ANPR_RZA2M_RDK/src/tensorflow_lite/src/tensorflow/lite/kernels/internal\types.h ****   // bytes before using them in signed arithmetic, see this file for more
 114:C:/Renesas/e2studio_2021_01_workspace_RZA2M_ANPR/ANPR_RZA2M_RDK/src/tensorflow_lite/src/tensorflow/lite/kernels/internal\types.h ****   // explanations on the 'signed int8_t trick' in matrix multiplication kernels:
 115:C:/Renesas/e2studio_2021_01_workspace_RZA2M_ANPR/ANPR_RZA2M_RDK/src/tensorflow_lite/src/tensorflow/lite/kernels/internal\types.h ****   //
 116:C:/Renesas/e2studio_2021_01_workspace_RZA2M_ANPR/ANPR_RZA2M_RDK/src/tensorflow_lite/src/tensorflow/lite/kernels/internal\types.h ****   //   tensorflow/lite/toco/graph_transformations/ensure_uint8_weights_safe_for_fast_int8_kernels.c
 117:C:/Renesas/e2studio_2021_01_workspace_RZA2M_ANPR/ANPR_RZA2M_RDK/src/tensorflow_lite/src/tensorflow/lite/kernels/internal\types.h ****   //
 118:C:/Renesas/e2studio_2021_01_workspace_RZA2M_ANPR/ANPR_RZA2M_RDK/src/tensorflow_lite/src/tensorflow/lite/kernels/internal\types.h ****   kShuffled4x16Int8,
 119:C:/Renesas/e2studio_2021_01_workspace_RZA2M_ANPR/ANPR_RZA2M_RDK/src/tensorflow_lite/src/tensorflow/lite/kernels/internal\types.h **** };
 120:C:/Renesas/e2studio_2021_01_workspace_RZA2M_ANPR/ANPR_RZA2M_RDK/src/tensorflow_lite/src/tensorflow/lite/kernels/internal\types.h **** 
 121:C:/Renesas/e2studio_2021_01_workspace_RZA2M_ANPR/ANPR_RZA2M_RDK/src/tensorflow_lite/src/tensorflow/lite/kernels/internal\types.h **** // Quantization parameters, determining the mapping of quantized values
 122:C:/Renesas/e2studio_2021_01_workspace_RZA2M_ANPR/ANPR_RZA2M_RDK/src/tensorflow_lite/src/tensorflow/lite/kernels/internal\types.h **** // to real values (i.e. determining how quantized values are mathematically
 123:C:/Renesas/e2studio_2021_01_workspace_RZA2M_ANPR/ANPR_RZA2M_RDK/src/tensorflow_lite/src/tensorflow/lite/kernels/internal\types.h **** // interpreted).
 124:C:/Renesas/e2studio_2021_01_workspace_RZA2M_ANPR/ANPR_RZA2M_RDK/src/tensorflow_lite/src/tensorflow/lite/kernels/internal\types.h **** //
 125:C:/Renesas/e2studio_2021_01_workspace_RZA2M_ANPR/ANPR_RZA2M_RDK/src/tensorflow_lite/src/tensorflow/lite/kernels/internal\types.h **** // The correspondence is as follows:
 126:C:/Renesas/e2studio_2021_01_workspace_RZA2M_ANPR/ANPR_RZA2M_RDK/src/tensorflow_lite/src/tensorflow/lite/kernels/internal\types.h **** //
 127:C:/Renesas/e2studio_2021_01_workspace_RZA2M_ANPR/ANPR_RZA2M_RDK/src/tensorflow_lite/src/tensorflow/lite/kernels/internal\types.h **** //   real_value = scale * (quantized_value - zero_point);
 128:C:/Renesas/e2studio_2021_01_workspace_RZA2M_ANPR/ANPR_RZA2M_RDK/src/tensorflow_lite/src/tensorflow/lite/kernels/internal\types.h **** //
 129:C:/Renesas/e2studio_2021_01_workspace_RZA2M_ANPR/ANPR_RZA2M_RDK/src/tensorflow_lite/src/tensorflow/lite/kernels/internal\types.h **** // In other words, zero_point designates which quantized value corresponds to
 130:C:/Renesas/e2studio_2021_01_workspace_RZA2M_ANPR/ANPR_RZA2M_RDK/src/tensorflow_lite/src/tensorflow/lite/kernels/internal\types.h **** // the real 0 value, and scale designates the difference between the real values
 131:C:/Renesas/e2studio_2021_01_workspace_RZA2M_ANPR/ANPR_RZA2M_RDK/src/tensorflow_lite/src/tensorflow/lite/kernels/internal\types.h **** // corresponding to consecutive quantized values differing by 1.
 132:C:/Renesas/e2studio_2021_01_workspace_RZA2M_ANPR/ANPR_RZA2M_RDK/src/tensorflow_lite/src/tensorflow/lite/kernels/internal\types.h **** struct QuantizationParams {
 133:C:/Renesas/e2studio_2021_01_workspace_RZA2M_ANPR/ANPR_RZA2M_RDK/src/tensorflow_lite/src/tensorflow/lite/kernels/internal\types.h ****   int32_t zero_point = 0;
 134:C:/Renesas/e2studio_2021_01_workspace_RZA2M_ANPR/ANPR_RZA2M_RDK/src/tensorflow_lite/src/tensorflow/lite/kernels/internal\types.h ****   double scale = 0.0;
 135:C:/Renesas/e2studio_2021_01_workspace_RZA2M_ANPR/ANPR_RZA2M_RDK/src/tensorflow_lite/src/tensorflow/lite/kernels/internal\types.h **** };
 136:C:/Renesas/e2studio_2021_01_workspace_RZA2M_ANPR/ANPR_RZA2M_RDK/src/tensorflow_lite/src/tensorflow/lite/kernels/internal\types.h **** 
 137:C:/Renesas/e2studio_2021_01_workspace_RZA2M_ANPR/ANPR_RZA2M_RDK/src/tensorflow_lite/src/tensorflow/lite/kernels/internal\types.h **** inline bool operator==(const QuantizationParams& qp1,
 138:C:/Renesas/e2studio_2021_01_workspace_RZA2M_ANPR/ANPR_RZA2M_RDK/src/tensorflow_lite/src/tensorflow/lite/kernels/internal\types.h ****                        const QuantizationParams& qp2) {
 139:C:/Renesas/e2studio_2021_01_workspace_RZA2M_ANPR/ANPR_RZA2M_RDK/src/tensorflow_lite/src/tensorflow/lite/kernels/internal\types.h ****   return qp1.zero_point == qp2.zero_point && qp1.scale == qp2.scale;
 140:C:/Renesas/e2studio_2021_01_workspace_RZA2M_ANPR/ANPR_RZA2M_RDK/src/tensorflow_lite/src/tensorflow/lite/kernels/internal\types.h **** }
 141:C:/Renesas/e2studio_2021_01_workspace_RZA2M_ANPR/ANPR_RZA2M_RDK/src/tensorflow_lite/src/tensorflow/lite/kernels/internal\types.h **** 
 142:C:/Renesas/e2studio_2021_01_workspace_RZA2M_ANPR/ANPR_RZA2M_RDK/src/tensorflow_lite/src/tensorflow/lite/kernels/internal\types.h **** template <int N>
 143:C:/Renesas/e2studio_2021_01_workspace_RZA2M_ANPR/ANPR_RZA2M_RDK/src/tensorflow_lite/src/tensorflow/lite/kernels/internal\types.h **** struct Dims {
 144:C:/Renesas/e2studio_2021_01_workspace_RZA2M_ANPR/ANPR_RZA2M_RDK/src/tensorflow_lite/src/tensorflow/lite/kernels/internal\types.h ****   int sizes[N];
 145:C:/Renesas/e2studio_2021_01_workspace_RZA2M_ANPR/ANPR_RZA2M_RDK/src/tensorflow_lite/src/tensorflow/lite/kernels/internal\types.h ****   int strides[N];
 146:C:/Renesas/e2studio_2021_01_workspace_RZA2M_ANPR/ANPR_RZA2M_RDK/src/tensorflow_lite/src/tensorflow/lite/kernels/internal\types.h **** };
 147:C:/Renesas/e2studio_2021_01_workspace_RZA2M_ANPR/ANPR_RZA2M_RDK/src/tensorflow_lite/src/tensorflow/lite/kernels/internal\types.h **** 
 148:C:/Renesas/e2studio_2021_01_workspace_RZA2M_ANPR/ANPR_RZA2M_RDK/src/tensorflow_lite/src/tensorflow/lite/kernels/internal\types.h **** class RuntimeShape {
 149:C:/Renesas/e2studio_2021_01_workspace_RZA2M_ANPR/ANPR_RZA2M_RDK/src/tensorflow_lite/src/tensorflow/lite/kernels/internal\types.h ****  public:
 150:C:/Renesas/e2studio_2021_01_workspace_RZA2M_ANPR/ANPR_RZA2M_RDK/src/tensorflow_lite/src/tensorflow/lite/kernels/internal\types.h ****   // Shapes with dimensions up to 5 are stored directly in the structure, while
 151:C:/Renesas/e2studio_2021_01_workspace_RZA2M_ANPR/ANPR_RZA2M_RDK/src/tensorflow_lite/src/tensorflow/lite/kernels/internal\types.h ****   // larger shapes are separately allocated.
 152:C:/Renesas/e2studio_2021_01_workspace_RZA2M_ANPR/ANPR_RZA2M_RDK/src/tensorflow_lite/src/tensorflow/lite/kernels/internal\types.h ****   static constexpr int kMaxSmallSize = 5;
 153:C:/Renesas/e2studio_2021_01_workspace_RZA2M_ANPR/ANPR_RZA2M_RDK/src/tensorflow_lite/src/tensorflow/lite/kernels/internal\types.h **** 
 154:C:/Renesas/e2studio_2021_01_workspace_RZA2M_ANPR/ANPR_RZA2M_RDK/src/tensorflow_lite/src/tensorflow/lite/kernels/internal\types.h ****   RuntimeShape& operator=(RuntimeShape const&) = delete;
 155:C:/Renesas/e2studio_2021_01_workspace_RZA2M_ANPR/ANPR_RZA2M_RDK/src/tensorflow_lite/src/tensorflow/lite/kernels/internal\types.h **** 
 156:C:/Renesas/e2studio_2021_01_workspace_RZA2M_ANPR/ANPR_RZA2M_RDK/src/tensorflow_lite/src/tensorflow/lite/kernels/internal\types.h ****   RuntimeShape() : size_(0) {}
 157:C:/Renesas/e2studio_2021_01_workspace_RZA2M_ANPR/ANPR_RZA2M_RDK/src/tensorflow_lite/src/tensorflow/lite/kernels/internal\types.h **** 
 158:C:/Renesas/e2studio_2021_01_workspace_RZA2M_ANPR/ANPR_RZA2M_RDK/src/tensorflow_lite/src/tensorflow/lite/kernels/internal\types.h ****   explicit RuntimeShape(int dimensions_count) : size_(dimensions_count) {
 159:C:/Renesas/e2studio_2021_01_workspace_RZA2M_ANPR/ANPR_RZA2M_RDK/src/tensorflow_lite/src/tensorflow/lite/kernels/internal\types.h ****     if (dimensions_count > kMaxSmallSize) {
 160:C:/Renesas/e2studio_2021_01_workspace_RZA2M_ANPR/ANPR_RZA2M_RDK/src/tensorflow_lite/src/tensorflow/lite/kernels/internal\types.h **** #ifdef TF_LITE_STATIC_MEMORY
 161:C:/Renesas/e2studio_2021_01_workspace_RZA2M_ANPR/ANPR_RZA2M_RDK/src/tensorflow_lite/src/tensorflow/lite/kernels/internal\types.h ****       TFLITE_CHECK(false && "No shape resizing supported on this platform");
 162:C:/Renesas/e2studio_2021_01_workspace_RZA2M_ANPR/ANPR_RZA2M_RDK/src/tensorflow_lite/src/tensorflow/lite/kernels/internal\types.h **** #else  // TF_LITE_STATIC_MEMORY
 163:C:/Renesas/e2studio_2021_01_workspace_RZA2M_ANPR/ANPR_RZA2M_RDK/src/tensorflow_lite/src/tensorflow/lite/kernels/internal\types.h ****       dims_pointer_ = new int32_t[dimensions_count];
 164:C:/Renesas/e2studio_2021_01_workspace_RZA2M_ANPR/ANPR_RZA2M_RDK/src/tensorflow_lite/src/tensorflow/lite/kernels/internal\types.h **** #endif  // TF_LITE_STATIC_MEMORY
 165:C:/Renesas/e2studio_2021_01_workspace_RZA2M_ANPR/ANPR_RZA2M_RDK/src/tensorflow_lite/src/tensorflow/lite/kernels/internal\types.h ****     }
 166:C:/Renesas/e2studio_2021_01_workspace_RZA2M_ANPR/ANPR_RZA2M_RDK/src/tensorflow_lite/src/tensorflow/lite/kernels/internal\types.h ****   }
 167:C:/Renesas/e2studio_2021_01_workspace_RZA2M_ANPR/ANPR_RZA2M_RDK/src/tensorflow_lite/src/tensorflow/lite/kernels/internal\types.h **** 
 168:C:/Renesas/e2studio_2021_01_workspace_RZA2M_ANPR/ANPR_RZA2M_RDK/src/tensorflow_lite/src/tensorflow/lite/kernels/internal\types.h ****   RuntimeShape(int shape_size, int32_t value) : size_(0) {
 169:C:/Renesas/e2studio_2021_01_workspace_RZA2M_ANPR/ANPR_RZA2M_RDK/src/tensorflow_lite/src/tensorflow/lite/kernels/internal\types.h ****     Resize(shape_size);
 170:C:/Renesas/e2studio_2021_01_workspace_RZA2M_ANPR/ANPR_RZA2M_RDK/src/tensorflow_lite/src/tensorflow/lite/kernels/internal\types.h ****     for (int i = 0; i < shape_size; ++i) {
 171:C:/Renesas/e2studio_2021_01_workspace_RZA2M_ANPR/ANPR_RZA2M_RDK/src/tensorflow_lite/src/tensorflow/lite/kernels/internal\types.h ****       SetDim(i, value);
 172:C:/Renesas/e2studio_2021_01_workspace_RZA2M_ANPR/ANPR_RZA2M_RDK/src/tensorflow_lite/src/tensorflow/lite/kernels/internal\types.h ****     }
 173:C:/Renesas/e2studio_2021_01_workspace_RZA2M_ANPR/ANPR_RZA2M_RDK/src/tensorflow_lite/src/tensorflow/lite/kernels/internal\types.h ****   }
 174:C:/Renesas/e2studio_2021_01_workspace_RZA2M_ANPR/ANPR_RZA2M_RDK/src/tensorflow_lite/src/tensorflow/lite/kernels/internal\types.h **** 
 175:C:/Renesas/e2studio_2021_01_workspace_RZA2M_ANPR/ANPR_RZA2M_RDK/src/tensorflow_lite/src/tensorflow/lite/kernels/internal\types.h ****   RuntimeShape(int dimensions_count, const int32_t* dims_data) : size_(0) {
 176:C:/Renesas/e2studio_2021_01_workspace_RZA2M_ANPR/ANPR_RZA2M_RDK/src/tensorflow_lite/src/tensorflow/lite/kernels/internal\types.h ****     ReplaceWith(dimensions_count, dims_data);
 177:C:/Renesas/e2studio_2021_01_workspace_RZA2M_ANPR/ANPR_RZA2M_RDK/src/tensorflow_lite/src/tensorflow/lite/kernels/internal\types.h ****   }
 178:C:/Renesas/e2studio_2021_01_workspace_RZA2M_ANPR/ANPR_RZA2M_RDK/src/tensorflow_lite/src/tensorflow/lite/kernels/internal\types.h **** 
 179:C:/Renesas/e2studio_2021_01_workspace_RZA2M_ANPR/ANPR_RZA2M_RDK/src/tensorflow_lite/src/tensorflow/lite/kernels/internal\types.h ****   RuntimeShape(const std::initializer_list<int> init_list) : size_(0) {
 180:C:/Renesas/e2studio_2021_01_workspace_RZA2M_ANPR/ANPR_RZA2M_RDK/src/tensorflow_lite/src/tensorflow/lite/kernels/internal\types.h ****     BuildFrom(init_list);
 181:C:/Renesas/e2studio_2021_01_workspace_RZA2M_ANPR/ANPR_RZA2M_RDK/src/tensorflow_lite/src/tensorflow/lite/kernels/internal\types.h ****   }
 182:C:/Renesas/e2studio_2021_01_workspace_RZA2M_ANPR/ANPR_RZA2M_RDK/src/tensorflow_lite/src/tensorflow/lite/kernels/internal\types.h **** 
 183:C:/Renesas/e2studio_2021_01_workspace_RZA2M_ANPR/ANPR_RZA2M_RDK/src/tensorflow_lite/src/tensorflow/lite/kernels/internal\types.h ****   // Avoid using this constructor.  We should be able to delete it when C++17
 184:C:/Renesas/e2studio_2021_01_workspace_RZA2M_ANPR/ANPR_RZA2M_RDK/src/tensorflow_lite/src/tensorflow/lite/kernels/internal\types.h ****   // rolls out.
 185:C:/Renesas/e2studio_2021_01_workspace_RZA2M_ANPR/ANPR_RZA2M_RDK/src/tensorflow_lite/src/tensorflow/lite/kernels/internal\types.h ****   RuntimeShape(RuntimeShape const& other) : size_(other.DimensionsCount()) {
 186:C:/Renesas/e2studio_2021_01_workspace_RZA2M_ANPR/ANPR_RZA2M_RDK/src/tensorflow_lite/src/tensorflow/lite/kernels/internal\types.h ****     if (size_ > kMaxSmallSize) {
 187:C:/Renesas/e2studio_2021_01_workspace_RZA2M_ANPR/ANPR_RZA2M_RDK/src/tensorflow_lite/src/tensorflow/lite/kernels/internal\types.h **** #ifdef TF_LITE_STATIC_MEMORY
 188:C:/Renesas/e2studio_2021_01_workspace_RZA2M_ANPR/ANPR_RZA2M_RDK/src/tensorflow_lite/src/tensorflow/lite/kernels/internal\types.h ****       TFLITE_CHECK(false && "No shape resizing supported on this platform");
 189:C:/Renesas/e2studio_2021_01_workspace_RZA2M_ANPR/ANPR_RZA2M_RDK/src/tensorflow_lite/src/tensorflow/lite/kernels/internal\types.h **** #else
 190:C:/Renesas/e2studio_2021_01_workspace_RZA2M_ANPR/ANPR_RZA2M_RDK/src/tensorflow_lite/src/tensorflow/lite/kernels/internal\types.h ****       dims_pointer_ = new int32_t[size_];
 191:C:/Renesas/e2studio_2021_01_workspace_RZA2M_ANPR/ANPR_RZA2M_RDK/src/tensorflow_lite/src/tensorflow/lite/kernels/internal\types.h **** #endif
 192:C:/Renesas/e2studio_2021_01_workspace_RZA2M_ANPR/ANPR_RZA2M_RDK/src/tensorflow_lite/src/tensorflow/lite/kernels/internal\types.h ****     }
 193:C:/Renesas/e2studio_2021_01_workspace_RZA2M_ANPR/ANPR_RZA2M_RDK/src/tensorflow_lite/src/tensorflow/lite/kernels/internal\types.h ****     std::memcpy(DimsData(), other.DimsData(), sizeof(int32_t) * size_);
 194:C:/Renesas/e2studio_2021_01_workspace_RZA2M_ANPR/ANPR_RZA2M_RDK/src/tensorflow_lite/src/tensorflow/lite/kernels/internal\types.h ****   }
 195:C:/Renesas/e2studio_2021_01_workspace_RZA2M_ANPR/ANPR_RZA2M_RDK/src/tensorflow_lite/src/tensorflow/lite/kernels/internal\types.h **** 
 196:C:/Renesas/e2studio_2021_01_workspace_RZA2M_ANPR/ANPR_RZA2M_RDK/src/tensorflow_lite/src/tensorflow/lite/kernels/internal\types.h ****   bool operator==(const RuntimeShape& comp) const {
 197:C:/Renesas/e2studio_2021_01_workspace_RZA2M_ANPR/ANPR_RZA2M_RDK/src/tensorflow_lite/src/tensorflow/lite/kernels/internal\types.h ****     return this->size_ == comp.size_ &&
 198:C:/Renesas/e2studio_2021_01_workspace_RZA2M_ANPR/ANPR_RZA2M_RDK/src/tensorflow_lite/src/tensorflow/lite/kernels/internal\types.h ****            std::memcmp(DimsData(), comp.DimsData(), size_ * sizeof(int32_t)) ==
 199:C:/Renesas/e2studio_2021_01_workspace_RZA2M_ANPR/ANPR_RZA2M_RDK/src/tensorflow_lite/src/tensorflow/lite/kernels/internal\types.h ****                0;
 200:C:/Renesas/e2studio_2021_01_workspace_RZA2M_ANPR/ANPR_RZA2M_RDK/src/tensorflow_lite/src/tensorflow/lite/kernels/internal\types.h ****   }
 201:C:/Renesas/e2studio_2021_01_workspace_RZA2M_ANPR/ANPR_RZA2M_RDK/src/tensorflow_lite/src/tensorflow/lite/kernels/internal\types.h **** 
 202:C:/Renesas/e2studio_2021_01_workspace_RZA2M_ANPR/ANPR_RZA2M_RDK/src/tensorflow_lite/src/tensorflow/lite/kernels/internal\types.h ****   ~RuntimeShape() {
 203:C:/Renesas/e2studio_2021_01_workspace_RZA2M_ANPR/ANPR_RZA2M_RDK/src/tensorflow_lite/src/tensorflow/lite/kernels/internal\types.h ****     if (size_ > kMaxSmallSize) {
 204:C:/Renesas/e2studio_2021_01_workspace_RZA2M_ANPR/ANPR_RZA2M_RDK/src/tensorflow_lite/src/tensorflow/lite/kernels/internal\types.h **** #ifdef TF_LITE_STATIC_MEMORY
 205:C:/Renesas/e2studio_2021_01_workspace_RZA2M_ANPR/ANPR_RZA2M_RDK/src/tensorflow_lite/src/tensorflow/lite/kernels/internal\types.h ****       TFLITE_CHECK(false && "No shape resizing supported on this platform");
 206:C:/Renesas/e2studio_2021_01_workspace_RZA2M_ANPR/ANPR_RZA2M_RDK/src/tensorflow_lite/src/tensorflow/lite/kernels/internal\types.h **** #else  // TF_LITE_STATIC_MEMORY
 207:C:/Renesas/e2studio_2021_01_workspace_RZA2M_ANPR/ANPR_RZA2M_RDK/src/tensorflow_lite/src/tensorflow/lite/kernels/internal\types.h ****       delete[] dims_pointer_;
 208:C:/Renesas/e2studio_2021_01_workspace_RZA2M_ANPR/ANPR_RZA2M_RDK/src/tensorflow_lite/src/tensorflow/lite/kernels/internal\types.h **** #endif  // TF_LITE_STATIC_MEMORY
 209:C:/Renesas/e2studio_2021_01_workspace_RZA2M_ANPR/ANPR_RZA2M_RDK/src/tensorflow_lite/src/tensorflow/lite/kernels/internal\types.h ****     }
 210:C:/Renesas/e2studio_2021_01_workspace_RZA2M_ANPR/ANPR_RZA2M_RDK/src/tensorflow_lite/src/tensorflow/lite/kernels/internal\types.h ****   }
 211:C:/Renesas/e2studio_2021_01_workspace_RZA2M_ANPR/ANPR_RZA2M_RDK/src/tensorflow_lite/src/tensorflow/lite/kernels/internal\types.h **** 
 212:C:/Renesas/e2studio_2021_01_workspace_RZA2M_ANPR/ANPR_RZA2M_RDK/src/tensorflow_lite/src/tensorflow/lite/kernels/internal\types.h ****   inline int32_t DimensionsCount() const { return size_; }
 213:C:/Renesas/e2studio_2021_01_workspace_RZA2M_ANPR/ANPR_RZA2M_RDK/src/tensorflow_lite/src/tensorflow/lite/kernels/internal\types.h ****   inline int32_t Dims(int i) const {
 214:C:/Renesas/e2studio_2021_01_workspace_RZA2M_ANPR/ANPR_RZA2M_RDK/src/tensorflow_lite/src/tensorflow/lite/kernels/internal\types.h ****     TFLITE_DCHECK_GE(i, 0);
 215:C:/Renesas/e2studio_2021_01_workspace_RZA2M_ANPR/ANPR_RZA2M_RDK/src/tensorflow_lite/src/tensorflow/lite/kernels/internal\types.h ****     TFLITE_DCHECK_LT(i, size_);
 216:C:/Renesas/e2studio_2021_01_workspace_RZA2M_ANPR/ANPR_RZA2M_RDK/src/tensorflow_lite/src/tensorflow/lite/kernels/internal\types.h ****     return size_ > kMaxSmallSize ? dims_pointer_[i] : dims_[i];
 217:C:/Renesas/e2studio_2021_01_workspace_RZA2M_ANPR/ANPR_RZA2M_RDK/src/tensorflow_lite/src/tensorflow/lite/kernels/internal\types.h ****   }
 218:C:/Renesas/e2studio_2021_01_workspace_RZA2M_ANPR/ANPR_RZA2M_RDK/src/tensorflow_lite/src/tensorflow/lite/kernels/internal\types.h ****   inline void SetDim(int i, int32_t val) {
 219:C:/Renesas/e2studio_2021_01_workspace_RZA2M_ANPR/ANPR_RZA2M_RDK/src/tensorflow_lite/src/tensorflow/lite/kernels/internal\types.h ****     TFLITE_DCHECK_GE(i, 0);
 220:C:/Renesas/e2studio_2021_01_workspace_RZA2M_ANPR/ANPR_RZA2M_RDK/src/tensorflow_lite/src/tensorflow/lite/kernels/internal\types.h ****     TFLITE_DCHECK_LT(i, size_);
 221:C:/Renesas/e2studio_2021_01_workspace_RZA2M_ANPR/ANPR_RZA2M_RDK/src/tensorflow_lite/src/tensorflow/lite/kernels/internal\types.h ****     if (size_ > kMaxSmallSize) {
 222:C:/Renesas/e2studio_2021_01_workspace_RZA2M_ANPR/ANPR_RZA2M_RDK/src/tensorflow_lite/src/tensorflow/lite/kernels/internal\types.h ****       dims_pointer_[i] = val;
 223:C:/Renesas/e2studio_2021_01_workspace_RZA2M_ANPR/ANPR_RZA2M_RDK/src/tensorflow_lite/src/tensorflow/lite/kernels/internal\types.h ****     } else {
 224:C:/Renesas/e2studio_2021_01_workspace_RZA2M_ANPR/ANPR_RZA2M_RDK/src/tensorflow_lite/src/tensorflow/lite/kernels/internal\types.h ****       dims_[i] = val;
 225:C:/Renesas/e2studio_2021_01_workspace_RZA2M_ANPR/ANPR_RZA2M_RDK/src/tensorflow_lite/src/tensorflow/lite/kernels/internal\types.h ****     }
 226:C:/Renesas/e2studio_2021_01_workspace_RZA2M_ANPR/ANPR_RZA2M_RDK/src/tensorflow_lite/src/tensorflow/lite/kernels/internal\types.h ****   }
 227:C:/Renesas/e2studio_2021_01_workspace_RZA2M_ANPR/ANPR_RZA2M_RDK/src/tensorflow_lite/src/tensorflow/lite/kernels/internal\types.h **** 
 228:C:/Renesas/e2studio_2021_01_workspace_RZA2M_ANPR/ANPR_RZA2M_RDK/src/tensorflow_lite/src/tensorflow/lite/kernels/internal\types.h ****   inline int32_t* DimsData() {
 229:C:/Renesas/e2studio_2021_01_workspace_RZA2M_ANPR/ANPR_RZA2M_RDK/src/tensorflow_lite/src/tensorflow/lite/kernels/internal\types.h ****     return size_ > kMaxSmallSize ? dims_pointer_ : dims_;
 230:C:/Renesas/e2studio_2021_01_workspace_RZA2M_ANPR/ANPR_RZA2M_RDK/src/tensorflow_lite/src/tensorflow/lite/kernels/internal\types.h ****   }
 231:C:/Renesas/e2studio_2021_01_workspace_RZA2M_ANPR/ANPR_RZA2M_RDK/src/tensorflow_lite/src/tensorflow/lite/kernels/internal\types.h ****   inline const int32_t* DimsData() const {
 232:C:/Renesas/e2studio_2021_01_workspace_RZA2M_ANPR/ANPR_RZA2M_RDK/src/tensorflow_lite/src/tensorflow/lite/kernels/internal\types.h ****     return size_ > kMaxSmallSize ? dims_pointer_ : dims_;
 233:C:/Renesas/e2studio_2021_01_workspace_RZA2M_ANPR/ANPR_RZA2M_RDK/src/tensorflow_lite/src/tensorflow/lite/kernels/internal\types.h ****   }
 234:C:/Renesas/e2studio_2021_01_workspace_RZA2M_ANPR/ANPR_RZA2M_RDK/src/tensorflow_lite/src/tensorflow/lite/kernels/internal\types.h ****   // The caller must ensure that the shape is no bigger than 5-D.
 235:C:/Renesas/e2studio_2021_01_workspace_RZA2M_ANPR/ANPR_RZA2M_RDK/src/tensorflow_lite/src/tensorflow/lite/kernels/internal\types.h ****   inline const int32_t* DimsDataUpTo5D() const { return dims_; }
 236:C:/Renesas/e2studio_2021_01_workspace_RZA2M_ANPR/ANPR_RZA2M_RDK/src/tensorflow_lite/src/tensorflow/lite/kernels/internal\types.h **** 
 237:C:/Renesas/e2studio_2021_01_workspace_RZA2M_ANPR/ANPR_RZA2M_RDK/src/tensorflow_lite/src/tensorflow/lite/kernels/internal\types.h ****   inline void Resize(int dimensions_count) {
 238:C:/Renesas/e2studio_2021_01_workspace_RZA2M_ANPR/ANPR_RZA2M_RDK/src/tensorflow_lite/src/tensorflow/lite/kernels/internal\types.h ****     if (size_ > kMaxSmallSize) {
 239:C:/Renesas/e2studio_2021_01_workspace_RZA2M_ANPR/ANPR_RZA2M_RDK/src/tensorflow_lite/src/tensorflow/lite/kernels/internal\types.h **** #ifdef TF_LITE_STATIC_MEMORY
 240:C:/Renesas/e2studio_2021_01_workspace_RZA2M_ANPR/ANPR_RZA2M_RDK/src/tensorflow_lite/src/tensorflow/lite/kernels/internal\types.h ****       TFLITE_CHECK(false && "No shape resizing supported on this platform");
 241:C:/Renesas/e2studio_2021_01_workspace_RZA2M_ANPR/ANPR_RZA2M_RDK/src/tensorflow_lite/src/tensorflow/lite/kernels/internal\types.h **** #else  // TF_LITE_STATIC_MEMORY
 242:C:/Renesas/e2studio_2021_01_workspace_RZA2M_ANPR/ANPR_RZA2M_RDK/src/tensorflow_lite/src/tensorflow/lite/kernels/internal\types.h ****       delete[] dims_pointer_;
 243:C:/Renesas/e2studio_2021_01_workspace_RZA2M_ANPR/ANPR_RZA2M_RDK/src/tensorflow_lite/src/tensorflow/lite/kernels/internal\types.h **** #endif  // TF_LITE_STATIC_MEMORY
 244:C:/Renesas/e2studio_2021_01_workspace_RZA2M_ANPR/ANPR_RZA2M_RDK/src/tensorflow_lite/src/tensorflow/lite/kernels/internal\types.h ****     }
 245:C:/Renesas/e2studio_2021_01_workspace_RZA2M_ANPR/ANPR_RZA2M_RDK/src/tensorflow_lite/src/tensorflow/lite/kernels/internal\types.h ****     size_ = dimensions_count;
 246:C:/Renesas/e2studio_2021_01_workspace_RZA2M_ANPR/ANPR_RZA2M_RDK/src/tensorflow_lite/src/tensorflow/lite/kernels/internal\types.h ****     if (dimensions_count > kMaxSmallSize) {
 561              		.loc 4 246 0
 562 002c 050055E3 		cmp	r5, #5
 563 0030 CD0000DA 		ble	.L37
 564              	.LVL66:
 565              	.LBB588:
 566              	.LBB589:
 247:C:/Renesas/e2studio_2021_01_workspace_RZA2M_ANPR/ANPR_RZA2M_RDK/src/tensorflow_lite/src/tensorflow/lite/kernels/internal\types.h **** #ifdef TF_LITE_STATIC_MEMORY
 248:C:/Renesas/e2studio_2021_01_workspace_RZA2M_ANPR/ANPR_RZA2M_RDK/src/tensorflow_lite/src/tensorflow/lite/kernels/internal\types.h ****       TFLITE_CHECK(false && "No shape resizing supported on this platform");
 249:C:/Renesas/e2studio_2021_01_workspace_RZA2M_ANPR/ANPR_RZA2M_RDK/src/tensorflow_lite/src/tensorflow/lite/kernels/internal\types.h **** #else  // TF_LITE_STATIC_MEMORY
 250:C:/Renesas/e2studio_2021_01_workspace_RZA2M_ANPR/ANPR_RZA2M_RDK/src/tensorflow_lite/src/tensorflow/lite/kernels/internal\types.h ****       dims_pointer_ = new int32_t[dimensions_count];
 567              		.loc 4 250 0
 568 0034 2E0275E3 		cmn	r5, #-536870910
 569 0038 C50300CA 		bgt	.L38
 570 003c 0501A0E1 		lsl	r0, r5, #2
 571              	.LVL67:
 572              	.LEHB0:
 573 0040 FEFFFFEB 		bl	_Znaj
 574              	.LVL68:
 575              	.LEHE0:
 576 0044 080055E3 		cmp	r5, #8
 577 0048 0C008DE5 		str	r0, [sp, #12]
 578              	.LVL69:
 579 004c 0020A0D3 		movle	r2, #0
 580 0050 120000DA 		ble	.L40
 581 0054 091045E2 		sub	r1, r5, #9
 582 0058 883080E2 		add	r3, r0, #136
 583 005c 0710C1E3 		bic	r1, r1, #7
 584 0060 0020A0E3 		mov	r2, #0
 585 0064 081081E2 		add	r1, r1, #8
 586              	.LBE589:
 587              	.LBE588:
 588              	.LBE587:
 589              	.LBE586:
 590              	.LBB593:
 591              	.LBB594:
 592              	.LBB595:
 222:C:/Renesas/e2studio_2021_01_workspace_RZA2M_ANPR/ANPR_RZA2M_RDK/src/tensorflow_lite/src/tensorflow/lite/kernels/internal\types.h ****     } else {
 593              		.loc 4 222 0
 594 0068 01C0A0E3 		mov	ip, #1
 595              	.LVL70:
 596              	.L44:
 597 006c 082082E2 		add	r2, r2, #8
 598              	.LVL71:
 599 0070 00F0D3F5 		pld	[r3]
 600 0074 010052E1 		cmp	r2, r1
 601 0078 88C003E5 		str	ip, [r3, #-136]
 602              	.LVL72:
 603 007c 84C003E5 		str	ip, [r3, #-132]
 604 0080 203083E2 		add	r3, r3, #32
 605 0084 A0C003E5 		str	ip, [r3, #-160]
 606 0088 9CC003E5 		str	ip, [r3, #-156]
 607 008c 98C003E5 		str	ip, [r3, #-152]
 608 0090 94C003E5 		str	ip, [r3, #-148]
 609 0094 90C003E5 		str	ip, [r3, #-144]
 610 0098 8CC003E5 		str	ip, [r3, #-140]
 611              	.LVL73:
 612 009c F2FFFF1A 		bne	.L44
 613              	.LVL74:
 614              	.L40:
 615 00a0 020180E0 		add	r0, r0, r2, lsl #2
 616 00a4 0130A0E3 		mov	r3, #1
 617              	.L46:
 618              	.LVL75:
 619              	.LBE595:
 620              	.LBE594:
 170:C:/Renesas/e2studio_2021_01_workspace_RZA2M_ANPR/ANPR_RZA2M_RDK/src/tensorflow_lite/src/tensorflow/lite/kernels/internal\types.h ****       SetDim(i, value);
 621              		.loc 4 170 0
 622 00a8 012082E2 		add	r2, r2, #1
 623              	.LVL76:
 624              	.LBB599:
 625              	.LBB596:
 222:C:/Renesas/e2studio_2021_01_workspace_RZA2M_ANPR/ANPR_RZA2M_RDK/src/tensorflow_lite/src/tensorflow/lite/kernels/internal\types.h ****     } else {
 626              		.loc 4 222 0
 627 00ac 043080E4 		str	r3, [r0], #4
 628              	.LVL77:
 629              	.LBE596:
 630              	.LBE599:
 170:C:/Renesas/e2studio_2021_01_workspace_RZA2M_ANPR/ANPR_RZA2M_RDK/src/tensorflow_lite/src/tensorflow/lite/kernels/internal\types.h ****       SetDim(i, value);
 631              		.loc 4 170 0
 632 00b0 020055E1 		cmp	r5, r2
 633 00b4 FBFFFFCA 		bgt	.L46
 634              	.LVL78:
 635              	.LBE593:
 636              	.LBE585:
 637              	.LBE584:
 638              	.LBB610:
 639              	.LBB611:
 640              	.LBB612:
 641              	.LBB613:
 642              	.LBB614:
 251:C:/Renesas/e2studio_2021_01_workspace_RZA2M_ANPR/ANPR_RZA2M_RDK/src/tensorflow_lite/src/tensorflow/lite/kernels/internal\types.h **** #endif  // TF_LITE_STATIC_MEMORY
 252:C:/Renesas/e2studio_2021_01_workspace_RZA2M_ANPR/ANPR_RZA2M_RDK/src/tensorflow_lite/src/tensorflow/lite/kernels/internal\types.h ****     }
 253:C:/Renesas/e2studio_2021_01_workspace_RZA2M_ANPR/ANPR_RZA2M_RDK/src/tensorflow_lite/src/tensorflow/lite/kernels/internal\types.h ****   }
 254:C:/Renesas/e2studio_2021_01_workspace_RZA2M_ANPR/ANPR_RZA2M_RDK/src/tensorflow_lite/src/tensorflow/lite/kernels/internal\types.h **** 
 255:C:/Renesas/e2studio_2021_01_workspace_RZA2M_ANPR/ANPR_RZA2M_RDK/src/tensorflow_lite/src/tensorflow/lite/kernels/internal\types.h ****   inline void ReplaceWith(int dimensions_count, const int32_t* dims_data) {
 256:C:/Renesas/e2studio_2021_01_workspace_RZA2M_ANPR/ANPR_RZA2M_RDK/src/tensorflow_lite/src/tensorflow/lite/kernels/internal\types.h ****     Resize(dimensions_count);
 257:C:/Renesas/e2studio_2021_01_workspace_RZA2M_ANPR/ANPR_RZA2M_RDK/src/tensorflow_lite/src/tensorflow/lite/kernels/internal\types.h ****     int32_t* dst_dims = DimsData();
 258:C:/Renesas/e2studio_2021_01_workspace_RZA2M_ANPR/ANPR_RZA2M_RDK/src/tensorflow_lite/src/tensorflow/lite/kernels/internal\types.h ****     std::memcpy(dst_dims, dims_data, dimensions_count * sizeof(int32_t));
 259:C:/Renesas/e2studio_2021_01_workspace_RZA2M_ANPR/ANPR_RZA2M_RDK/src/tensorflow_lite/src/tensorflow/lite/kernels/internal\types.h ****   }
 260:C:/Renesas/e2studio_2021_01_workspace_RZA2M_ANPR/ANPR_RZA2M_RDK/src/tensorflow_lite/src/tensorflow/lite/kernels/internal\types.h **** 
 261:C:/Renesas/e2studio_2021_01_workspace_RZA2M_ANPR/ANPR_RZA2M_RDK/src/tensorflow_lite/src/tensorflow/lite/kernels/internal\types.h ****   template <typename T>
 262:C:/Renesas/e2studio_2021_01_workspace_RZA2M_ANPR/ANPR_RZA2M_RDK/src/tensorflow_lite/src/tensorflow/lite/kernels/internal\types.h ****   inline void BuildFrom(const T& src_iterable) {
 263:C:/Renesas/e2studio_2021_01_workspace_RZA2M_ANPR/ANPR_RZA2M_RDK/src/tensorflow_lite/src/tensorflow/lite/kernels/internal\types.h ****     const int dimensions_count =
 264:C:/Renesas/e2studio_2021_01_workspace_RZA2M_ANPR/ANPR_RZA2M_RDK/src/tensorflow_lite/src/tensorflow/lite/kernels/internal\types.h ****         std::distance(src_iterable.begin(), src_iterable.end());
 265:C:/Renesas/e2studio_2021_01_workspace_RZA2M_ANPR/ANPR_RZA2M_RDK/src/tensorflow_lite/src/tensorflow/lite/kernels/internal\types.h ****     Resize(dimensions_count);
 266:C:/Renesas/e2studio_2021_01_workspace_RZA2M_ANPR/ANPR_RZA2M_RDK/src/tensorflow_lite/src/tensorflow/lite/kernels/internal\types.h ****     int32_t* data = DimsData();
 267:C:/Renesas/e2studio_2021_01_workspace_RZA2M_ANPR/ANPR_RZA2M_RDK/src/tensorflow_lite/src/tensorflow/lite/kernels/internal\types.h ****     for (auto it : src_iterable) {
 268:C:/Renesas/e2studio_2021_01_workspace_RZA2M_ANPR/ANPR_RZA2M_RDK/src/tensorflow_lite/src/tensorflow/lite/kernels/internal\types.h ****       *data = it;
 269:C:/Renesas/e2studio_2021_01_workspace_RZA2M_ANPR/ANPR_RZA2M_RDK/src/tensorflow_lite/src/tensorflow/lite/kernels/internal\types.h ****       ++data;
 270:C:/Renesas/e2studio_2021_01_workspace_RZA2M_ANPR/ANPR_RZA2M_RDK/src/tensorflow_lite/src/tensorflow/lite/kernels/internal\types.h ****     }
 271:C:/Renesas/e2studio_2021_01_workspace_RZA2M_ANPR/ANPR_RZA2M_RDK/src/tensorflow_lite/src/tensorflow/lite/kernels/internal\types.h ****   }
 272:C:/Renesas/e2studio_2021_01_workspace_RZA2M_ANPR/ANPR_RZA2M_RDK/src/tensorflow_lite/src/tensorflow/lite/kernels/internal\types.h **** 
 273:C:/Renesas/e2studio_2021_01_workspace_RZA2M_ANPR/ANPR_RZA2M_RDK/src/tensorflow_lite/src/tensorflow/lite/kernels/internal\types.h ****   // This will probably be factored out. Old code made substantial use of 4-D
 274:C:/Renesas/e2studio_2021_01_workspace_RZA2M_ANPR/ANPR_RZA2M_RDK/src/tensorflow_lite/src/tensorflow/lite/kernels/internal\types.h ****   // shapes, and so this function is used to extend smaller shapes. Note that
 275:C:/Renesas/e2studio_2021_01_workspace_RZA2M_ANPR/ANPR_RZA2M_RDK/src/tensorflow_lite/src/tensorflow/lite/kernels/internal\types.h ****   // (a) as Dims<4>-dependent code is eliminated, the reliance on this should be
 276:C:/Renesas/e2studio_2021_01_workspace_RZA2M_ANPR/ANPR_RZA2M_RDK/src/tensorflow_lite/src/tensorflow/lite/kernels/internal\types.h ****   // reduced, and (b) some kernels are stricly 4-D, but then the shapes of their
 277:C:/Renesas/e2studio_2021_01_workspace_RZA2M_ANPR/ANPR_RZA2M_RDK/src/tensorflow_lite/src/tensorflow/lite/kernels/internal\types.h ****   // inputs should already be 4-D, so this function should not be needed.
 278:C:/Renesas/e2studio_2021_01_workspace_RZA2M_ANPR/ANPR_RZA2M_RDK/src/tensorflow_lite/src/tensorflow/lite/kernels/internal\types.h ****   inline static RuntimeShape ExtendedShape(int new_shape_size,
 279:C:/Renesas/e2studio_2021_01_workspace_RZA2M_ANPR/ANPR_RZA2M_RDK/src/tensorflow_lite/src/tensorflow/lite/kernels/internal\types.h ****                                            const RuntimeShape& shape) {
 280:C:/Renesas/e2studio_2021_01_workspace_RZA2M_ANPR/ANPR_RZA2M_RDK/src/tensorflow_lite/src/tensorflow/lite/kernels/internal\types.h ****     return RuntimeShape(new_shape_size, shape, 1);
 281:C:/Renesas/e2studio_2021_01_workspace_RZA2M_ANPR/ANPR_RZA2M_RDK/src/tensorflow_lite/src/tensorflow/lite/kernels/internal\types.h ****   }
 282:C:/Renesas/e2studio_2021_01_workspace_RZA2M_ANPR/ANPR_RZA2M_RDK/src/tensorflow_lite/src/tensorflow/lite/kernels/internal\types.h **** 
 283:C:/Renesas/e2studio_2021_01_workspace_RZA2M_ANPR/ANPR_RZA2M_RDK/src/tensorflow_lite/src/tensorflow/lite/kernels/internal\types.h ****   inline void BuildFrom(const std::initializer_list<int> init_list) {
 284:C:/Renesas/e2studio_2021_01_workspace_RZA2M_ANPR/ANPR_RZA2M_RDK/src/tensorflow_lite/src/tensorflow/lite/kernels/internal\types.h ****     BuildFrom<const std::initializer_list<int>>(init_list);
 285:C:/Renesas/e2studio_2021_01_workspace_RZA2M_ANPR/ANPR_RZA2M_RDK/src/tensorflow_lite/src/tensorflow/lite/kernels/internal\types.h ****   }
 286:C:/Renesas/e2studio_2021_01_workspace_RZA2M_ANPR/ANPR_RZA2M_RDK/src/tensorflow_lite/src/tensorflow/lite/kernels/internal\types.h **** 
 287:C:/Renesas/e2studio_2021_01_workspace_RZA2M_ANPR/ANPR_RZA2M_RDK/src/tensorflow_lite/src/tensorflow/lite/kernels/internal\types.h ****   // Returns the total count of elements, that is the size when flattened into a
 288:C:/Renesas/e2studio_2021_01_workspace_RZA2M_ANPR/ANPR_RZA2M_RDK/src/tensorflow_lite/src/tensorflow/lite/kernels/internal\types.h ****   // vector.
 289:C:/Renesas/e2studio_2021_01_workspace_RZA2M_ANPR/ANPR_RZA2M_RDK/src/tensorflow_lite/src/tensorflow/lite/kernels/internal\types.h ****   inline int FlatSize() const {
 290:C:/Renesas/e2studio_2021_01_workspace_RZA2M_ANPR/ANPR_RZA2M_RDK/src/tensorflow_lite/src/tensorflow/lite/kernels/internal\types.h ****     int buffer_size = 1;
 291:C:/Renesas/e2studio_2021_01_workspace_RZA2M_ANPR/ANPR_RZA2M_RDK/src/tensorflow_lite/src/tensorflow/lite/kernels/internal\types.h ****     const int* dims_data = reinterpret_cast<const int*>(DimsData());
 292:C:/Renesas/e2studio_2021_01_workspace_RZA2M_ANPR/ANPR_RZA2M_RDK/src/tensorflow_lite/src/tensorflow/lite/kernels/internal\types.h ****     for (int i = 0; i < size_; i++) {
 293:C:/Renesas/e2studio_2021_01_workspace_RZA2M_ANPR/ANPR_RZA2M_RDK/src/tensorflow_lite/src/tensorflow/lite/kernels/internal\types.h ****       buffer_size *= dims_data[i];
 294:C:/Renesas/e2studio_2021_01_workspace_RZA2M_ANPR/ANPR_RZA2M_RDK/src/tensorflow_lite/src/tensorflow/lite/kernels/internal\types.h ****     }
 295:C:/Renesas/e2studio_2021_01_workspace_RZA2M_ANPR/ANPR_RZA2M_RDK/src/tensorflow_lite/src/tensorflow/lite/kernels/internal\types.h ****     return buffer_size;
 296:C:/Renesas/e2studio_2021_01_workspace_RZA2M_ANPR/ANPR_RZA2M_RDK/src/tensorflow_lite/src/tensorflow/lite/kernels/internal\types.h ****   }
 297:C:/Renesas/e2studio_2021_01_workspace_RZA2M_ANPR/ANPR_RZA2M_RDK/src/tensorflow_lite/src/tensorflow/lite/kernels/internal\types.h **** 
 298:C:/Renesas/e2studio_2021_01_workspace_RZA2M_ANPR/ANPR_RZA2M_RDK/src/tensorflow_lite/src/tensorflow/lite/kernels/internal\types.h ****   bool operator!=(const RuntimeShape& comp) const { return !((*this) == comp); }
 299:C:/Renesas/e2studio_2021_01_workspace_RZA2M_ANPR/ANPR_RZA2M_RDK/src/tensorflow_lite/src/tensorflow/lite/kernels/internal\types.h **** 
 300:C:/Renesas/e2studio_2021_01_workspace_RZA2M_ANPR/ANPR_RZA2M_RDK/src/tensorflow_lite/src/tensorflow/lite/kernels/internal\types.h ****  private:
 301:C:/Renesas/e2studio_2021_01_workspace_RZA2M_ANPR/ANPR_RZA2M_RDK/src/tensorflow_lite/src/tensorflow/lite/kernels/internal\types.h ****   // For use only by ExtendedShape(), written to guarantee (return-value) copy
 302:C:/Renesas/e2studio_2021_01_workspace_RZA2M_ANPR/ANPR_RZA2M_RDK/src/tensorflow_lite/src/tensorflow/lite/kernels/internal\types.h ****   // elision in C++17.
 303:C:/Renesas/e2studio_2021_01_workspace_RZA2M_ANPR/ANPR_RZA2M_RDK/src/tensorflow_lite/src/tensorflow/lite/kernels/internal\types.h ****   // This creates a shape padded to the desired size with the specified value.
 304:C:/Renesas/e2studio_2021_01_workspace_RZA2M_ANPR/ANPR_RZA2M_RDK/src/tensorflow_lite/src/tensorflow/lite/kernels/internal\types.h ****   RuntimeShape(int new_shape_size, const RuntimeShape& shape, int pad_value)
 305:C:/Renesas/e2studio_2021_01_workspace_RZA2M_ANPR/ANPR_RZA2M_RDK/src/tensorflow_lite/src/tensorflow/lite/kernels/internal\types.h ****       : size_(0) {
 306:C:/Renesas/e2studio_2021_01_workspace_RZA2M_ANPR/ANPR_RZA2M_RDK/src/tensorflow_lite/src/tensorflow/lite/kernels/internal\types.h ****     // If the following check fails, it is likely because a 4D-only kernel is
 307:C:/Renesas/e2studio_2021_01_workspace_RZA2M_ANPR/ANPR_RZA2M_RDK/src/tensorflow_lite/src/tensorflow/lite/kernels/internal\types.h ****     // being used with an array of larger dimension count.
 308:C:/Renesas/e2studio_2021_01_workspace_RZA2M_ANPR/ANPR_RZA2M_RDK/src/tensorflow_lite/src/tensorflow/lite/kernels/internal\types.h ****     TFLITE_CHECK_GE(new_shape_size, shape.DimensionsCount());
 643              		.loc 4 308 0
 644 00b8 003097E5 		ldr	r3, [r7]
 645              	.LBE614:
 305:C:/Renesas/e2studio_2021_01_workspace_RZA2M_ANPR/ANPR_RZA2M_RDK/src/tensorflow_lite/src/tensorflow/lite/kernels/internal\types.h ****     // If the following check fails, it is likely because a 4D-only kernel is
 646              		.loc 4 305 0
 647 00bc 0020A0E3 		mov	r2, #0
 648 00c0 20208DE5 		str	r2, [sp, #32]
 649              	.LVL79:
 650              	.LBB665:
 651              		.loc 4 308 0
 652 00c4 050053E1 		cmp	r3, r5
 653              	.LBB615:
 654              	.LBB616:
 245:C:/Renesas/e2studio_2021_01_workspace_RZA2M_ANPR/ANPR_RZA2M_RDK/src/tensorflow_lite/src/tensorflow/lite/kernels/internal\types.h ****     if (dimensions_count > kMaxSmallSize) {
 655              		.loc 4 245 0
 656 00c8 20508DD5 		strle	r5, [sp, #32]
 657              	.LBE616:
 658              	.LBE615:
 659              		.loc 4 308 0
 660 00cc AF0000CA 		bgt	.L42
 661              	.LVL80:
 662              	.L200:
 663              	.LBB625:
 664              	.LBB621:
 665              	.LBB617:
 666              	.LBB618:
 250:C:/Renesas/e2studio_2021_01_workspace_RZA2M_ANPR/ANPR_RZA2M_RDK/src/tensorflow_lite/src/tensorflow/lite/kernels/internal\types.h **** #endif  // TF_LITE_STATIC_MEMORY
 667              		.loc 4 250 0
 668 00d0 2E0275E3 		cmn	r5, #-536870910
 669 00d4 8E0300CA 		bgt	.L48
 670 00d8 0501A0E1 		lsl	r0, r5, #2
 671              	.LEHB1:
 672 00dc FEFFFFEB 		bl	_Znaj
 673              	.LVL81:
 674              	.LEHE1:
 675 00e0 002097E5 		ldr	r2, [r7]
 676 00e4 24008DE5 		str	r0, [sp, #36]
 677              	.LVL82:
 678              	.LBE618:
 679              	.LBE617:
 680              	.LBE621:
 681              	.LBE625:
 309:C:/Renesas/e2studio_2021_01_workspace_RZA2M_ANPR/ANPR_RZA2M_RDK/src/tensorflow_lite/src/tensorflow/lite/kernels/internal\types.h ****     Resize(new_shape_size);
 310:C:/Renesas/e2studio_2021_01_workspace_RZA2M_ANPR/ANPR_RZA2M_RDK/src/tensorflow_lite/src/tensorflow/lite/kernels/internal\types.h ****     const int size_increase = new_shape_size - shape.DimensionsCount();
 682              		.loc 4 310 0
 683 00e8 023045E0 		sub	r3, r5, r2
 684              	.LVL83:
 685              	.LBB626:
 311:C:/Renesas/e2studio_2021_01_workspace_RZA2M_ANPR/ANPR_RZA2M_RDK/src/tensorflow_lite/src/tensorflow/lite/kernels/internal\types.h ****     for (int i = 0; i < size_increase; ++i) {
 686              		.loc 4 311 0
 687 00ec 000053E3 		cmp	r3, #0
 688 00f0 0D0000DA 		ble	.L194
 689              	.LVL84:
 690              	.LBB627:
 691              	.LBB628:
 220:C:/Renesas/e2studio_2021_01_workspace_RZA2M_ANPR/ANPR_RZA2M_RDK/src/tensorflow_lite/src/tensorflow/lite/kernels/internal\types.h ****     if (size_ > kMaxSmallSize) {
 692              		.loc 4 220 0
 693 00f4 000055E3 		cmp	r5, #0
 694 00f8 040040C2 		subgt	r0, r0, #4
 695 00fc 0020A0C3 		movgt	r2, #0
 222:C:/Renesas/e2studio_2021_01_workspace_RZA2M_ANPR/ANPR_RZA2M_RDK/src/tensorflow_lite/src/tensorflow/lite/kernels/internal\types.h ****     } else {
 696              		.loc 4 222 0
 697 0100 0110A0C3 		movgt	r1, #1
 220:C:/Renesas/e2studio_2021_01_workspace_RZA2M_ANPR/ANPR_RZA2M_RDK/src/tensorflow_lite/src/tensorflow/lite/kernels/internal\types.h ****     if (size_ > kMaxSmallSize) {
 698              		.loc 4 220 0
 699 0104 020000CA 		bgt	.L51
 700 0108 BF0000EA 		b	.L52
 701              	.LVL85:
 702              	.L429:
 703 010c 050052E1 		cmp	r2, r5
 704 0110 BD00000A 		beq	.L52
 705              	.LVL86:
 706              	.L51:
 707              	.LBE628:
 708              	.LBE627:
 709              		.loc 4 311 0
 710 0114 012082E2 		add	r2, r2, #1
 711              	.LVL87:
 712              	.LBB641:
 713              	.LBB629:
 222:C:/Renesas/e2studio_2021_01_workspace_RZA2M_ANPR/ANPR_RZA2M_RDK/src/tensorflow_lite/src/tensorflow/lite/kernels/internal\types.h ****     } else {
 714              		.loc 4 222 0
 715 0118 0410A0E5 		str	r1, [r0, #4]!
 716              	.LVL88:
 717              	.LBE629:
 718              	.LBE641:
 719              		.loc 4 311 0
 720 011c 030052E1 		cmp	r2, r3
 721 0120 F9FFFFBA 		blt	.L429
 722              	.LVL89:
 723 0124 24009DE5 		ldr	r0, [sp, #36]
 724 0128 002097E5 		ldr	r2, [r7]
 725              	.LVL90:
 726              	.L194:
 727              	.LBE626:
 728              	.LBB653:
 729              	.LBB654:
 232:C:/Renesas/e2studio_2021_01_workspace_RZA2M_ANPR/ANPR_RZA2M_RDK/src/tensorflow_lite/src/tensorflow/lite/kernels/internal\types.h ****   }
 730              		.loc 4 232 0
 731 012c 050052E3 		cmp	r2, #5
 732              	.LBE654:
 733              	.LBE653:
 312:C:/Renesas/e2studio_2021_01_workspace_RZA2M_ANPR/ANPR_RZA2M_RDK/src/tensorflow_lite/src/tensorflow/lite/kernels/internal\types.h ****       SetDim(i, pad_value);
 313:C:/Renesas/e2studio_2021_01_workspace_RZA2M_ANPR/ANPR_RZA2M_RDK/src/tensorflow_lite/src/tensorflow/lite/kernels/internal\types.h ****     }
 314:C:/Renesas/e2studio_2021_01_workspace_RZA2M_ANPR/ANPR_RZA2M_RDK/src/tensorflow_lite/src/tensorflow/lite/kernels/internal\types.h ****     std::memcpy(DimsData() + size_increase, shape.DimsData(),
 734              		.loc 4 314 0
 735 0130 030180E0 		add	r0, r0, r3, lsl #2
 736              	.LVL91:
 737              	.LBB656:
 738              	.LBB655:
 232:C:/Renesas/e2studio_2021_01_workspace_RZA2M_ANPR/ANPR_RZA2M_RDK/src/tensorflow_lite/src/tensorflow/lite/kernels/internal\types.h ****   }
 739              		.loc 4 232 0
 740 0134 041097C5 		ldrgt	r1, [r7, #4]
 741 0138 041087D2 		addle	r1, r7, #4
 742              	.LBE655:
 743              	.LBE656:
 315:C:/Renesas/e2studio_2021_01_workspace_RZA2M_ANPR/ANPR_RZA2M_RDK/src/tensorflow_lite/src/tensorflow/lite/kernels/internal\types.h ****                 sizeof(int32_t) * shape.DimensionsCount());
 744              		.loc 4 315 0
 745 013c 0221A0E1 		lsl	r2, r2, #2
 746 0140 FEFFFFEB 		bl	memcpy
 747              	.LVL92:
 748 0144 002096E5 		ldr	r2, [r6]
 749              	.LVL93:
 750              	.LBE665:
 751              	.LBE613:
 752              	.LBE612:
 753              	.LBE611:
 754              	.LBE610:
 755              	.LBB690:
 756              	.LBB691:
 757              	.LBB692:
 758              	.LBB693:
 305:C:/Renesas/e2studio_2021_01_workspace_RZA2M_ANPR/ANPR_RZA2M_RDK/src/tensorflow_lite/src/tensorflow/lite/kernels/internal\types.h ****     // If the following check fails, it is likely because a 4D-only kernel is
 759              		.loc 4 305 0
 760 0148 0030A0E3 		mov	r3, #0
 761 014c 38308DE5 		str	r3, [sp, #56]
 762              	.LBB694:
 308:C:/Renesas/e2studio_2021_01_workspace_RZA2M_ANPR/ANPR_RZA2M_RDK/src/tensorflow_lite/src/tensorflow/lite/kernels/internal\types.h ****     Resize(new_shape_size);
 763              		.loc 4 308 0
 764 0150 050052E1 		cmp	r2, r5
 765 0154 710300CA 		bgt	.L503
 766              	.LVL94:
 767              	.LBB695:
 768              	.LBB696:
 246:C:/Renesas/e2studio_2021_01_workspace_RZA2M_ANPR/ANPR_RZA2M_RDK/src/tensorflow_lite/src/tensorflow/lite/kernels/internal\types.h **** #ifdef TF_LITE_STATIC_MEMORY
 769              		.loc 4 246 0
 770 0158 050055E3 		cmp	r5, #5
 245:C:/Renesas/e2studio_2021_01_workspace_RZA2M_ANPR/ANPR_RZA2M_RDK/src/tensorflow_lite/src/tensorflow/lite/kernels/internal\types.h ****     if (dimensions_count > kMaxSmallSize) {
 771              		.loc 4 245 0
 772 015c 38508DE5 		str	r5, [sp, #56]
 246:C:/Renesas/e2studio_2021_01_workspace_RZA2M_ANPR/ANPR_RZA2M_RDK/src/tensorflow_lite/src/tensorflow/lite/kernels/internal\types.h **** #ifdef TF_LITE_STATIC_MEMORY
 773              		.loc 4 246 0
 774 0160 AD0000DA 		ble	.L59
 775              	.LVL95:
 776              	.LBB697:
 777              	.LBB698:
 250:C:/Renesas/e2studio_2021_01_workspace_RZA2M_ANPR/ANPR_RZA2M_RDK/src/tensorflow_lite/src/tensorflow/lite/kernels/internal\types.h **** #endif  // TF_LITE_STATIC_MEMORY
 778              		.loc 4 250 0
 779 0164 2E0275E3 		cmn	r5, #-536870910
 780 0168 760300CA 		bgt	.L60
 781 016c 0501A0E1 		lsl	r0, r5, #2
 782              	.LEHB2:
 783 0170 FEFFFFEB 		bl	_Znaj
 784              	.LVL96:
 785              	.LEHE2:
 786 0174 002096E5 		ldr	r2, [r6]
 787 0178 3C008DE5 		str	r0, [sp, #60]
 788              	.LVL97:
 789              	.LBE698:
 790              	.LBE697:
 791              	.LBE696:
 792              	.LBE695:
 310:C:/Renesas/e2studio_2021_01_workspace_RZA2M_ANPR/ANPR_RZA2M_RDK/src/tensorflow_lite/src/tensorflow/lite/kernels/internal\types.h ****     for (int i = 0; i < size_increase; ++i) {
 793              		.loc 4 310 0
 794 017c 021045E0 		sub	r1, r5, r2
 795              	.LVL98:
 796              	.LBB702:
 311:C:/Renesas/e2studio_2021_01_workspace_RZA2M_ANPR/ANPR_RZA2M_RDK/src/tensorflow_lite/src/tensorflow/lite/kernels/internal\types.h ****       SetDim(i, pad_value);
 797              		.loc 4 311 0
 798 0180 000051E3 		cmp	r1, #0
 799 0184 042040C2 		subgt	r2, r0, #4
 800 0188 0030A0C3 		movgt	r3, #0
 801              	.LBB703:
 802              	.LBB704:
 222:C:/Renesas/e2studio_2021_01_workspace_RZA2M_ANPR/ANPR_RZA2M_RDK/src/tensorflow_lite/src/tensorflow/lite/kernels/internal\types.h ****     } else {
 803              		.loc 4 222 0
 804 018c 0100A0C3 		movgt	r0, #1
 805              	.LBE704:
 806              	.LBE703:
 311:C:/Renesas/e2studio_2021_01_workspace_RZA2M_ANPR/ANPR_RZA2M_RDK/src/tensorflow_lite/src/tensorflow/lite/kernels/internal\types.h ****       SetDim(i, pad_value);
 807              		.loc 4 311 0
 808 0190 020000CA 		bgt	.L63
 809 0194 070000EA 		b	.L196
 810              	.LVL99:
 811              	.L431:
 812              	.LBB718:
 813              	.LBB705:
 220:C:/Renesas/e2studio_2021_01_workspace_RZA2M_ANPR/ANPR_RZA2M_RDK/src/tensorflow_lite/src/tensorflow/lite/kernels/internal\types.h ****     if (size_ > kMaxSmallSize) {
 814              		.loc 4 220 0
 815 0198 050053E1 		cmp	r3, r5
 816 019c BB00000A 		beq	.L64
 817              	.LVL100:
 818              	.L63:
 819              	.LBE705:
 820              	.LBE718:
 311:C:/Renesas/e2studio_2021_01_workspace_RZA2M_ANPR/ANPR_RZA2M_RDK/src/tensorflow_lite/src/tensorflow/lite/kernels/internal\types.h ****       SetDim(i, pad_value);
 821              		.loc 4 311 0
 822 01a0 013083E2 		add	r3, r3, #1
 823              	.LVL101:
 824              	.LBB719:
 825              	.LBB706:
 222:C:/Renesas/e2studio_2021_01_workspace_RZA2M_ANPR/ANPR_RZA2M_RDK/src/tensorflow_lite/src/tensorflow/lite/kernels/internal\types.h ****     } else {
 826              		.loc 4 222 0
 827 01a4 0400A2E5 		str	r0, [r2, #4]!
 828              	.LVL102:
 829              	.LBE706:
 830              	.LBE719:
 311:C:/Renesas/e2studio_2021_01_workspace_RZA2M_ANPR/ANPR_RZA2M_RDK/src/tensorflow_lite/src/tensorflow/lite/kernels/internal\types.h ****       SetDim(i, pad_value);
 831              		.loc 4 311 0
 832 01a8 010053E1 		cmp	r3, r1
 833 01ac F9FFFFBA 		blt	.L431
 834              	.LVL103:
 835 01b0 3C009DE5 		ldr	r0, [sp, #60]
 836 01b4 002096E5 		ldr	r2, [r6]
 837              	.LVL104:
 838              	.L196:
 839              	.LBE702:
 840              	.LBB731:
 841              	.LBB732:
 232:C:/Renesas/e2studio_2021_01_workspace_RZA2M_ANPR/ANPR_RZA2M_RDK/src/tensorflow_lite/src/tensorflow/lite/kernels/internal\types.h ****   }
 842              		.loc 4 232 0
 843 01b8 050052E3 		cmp	r2, #5
 844              	.LBE732:
 845              	.LBE731:
 314:C:/Renesas/e2studio_2021_01_workspace_RZA2M_ANPR/ANPR_RZA2M_RDK/src/tensorflow_lite/src/tensorflow/lite/kernels/internal\types.h ****                 sizeof(int32_t) * shape.DimensionsCount());
 846              		.loc 4 314 0
 847 01bc 010180E0 		add	r0, r0, r1, lsl #2
 848              	.LVL105:
 849              		.loc 4 315 0
 850 01c0 0221A0E1 		lsl	r2, r2, #2
 851              	.LBB734:
 852              	.LBB733:
 232:C:/Renesas/e2studio_2021_01_workspace_RZA2M_ANPR/ANPR_RZA2M_RDK/src/tensorflow_lite/src/tensorflow/lite/kernels/internal\types.h ****   }
 853              		.loc 4 232 0
 854 01c4 041096C5 		ldrgt	r1, [r6, #4]
 855              	.LVL106:
 856 01c8 041086D2 		addle	r1, r6, #4
 857              	.LBE733:
 858              	.LBE734:
 859              		.loc 4 315 0
 860 01cc FEFFFFEB 		bl	memcpy
 861              	.LVL107:
 862              	.LBE694:
 863              	.LBE693:
 864              	.LBE692:
 865              	.LBE691:
 866              	.LBE690:
 867              	.LBB755:
 868              	.LBB756:
 197:C:/Renesas/e2studio_2021_01_workspace_RZA2M_ANPR/ANPR_RZA2M_RDK/src/tensorflow_lite/src/tensorflow/lite/kernels/internal\types.h ****            std::memcmp(DimsData(), comp.DimsData(), size_ * sizeof(int32_t)) ==
 869              		.loc 4 197 0
 870 01d0 20709DE5 		ldr	r7, [sp, #32]
 871              	.LVL108:
 872 01d4 38609DE5 		ldr	r6, [sp, #56]
 873              	.LVL109:
 874 01d8 060057E1 		cmp	r7, r6
 875 01dc AC00000A 		beq	.L504
 876              	.L70:
 877              	.LVL110:
 878              	.LBE756:
 879              	.LBE755:
 880              	.LBB766:
  45:C:/Renesas/e2studio_2021_01_workspace_RZA2M_ANPR/ANPR_RZA2M_RDK/src/tensorflow_lite/src/tensorflow/lite/kernels/internal/reference\process_broadcast_shapes.h ****   RuntimeShape scalar_shape(dims_count, 1);
  46:C:/Renesas/e2studio_2021_01_workspace_RZA2M_ANPR/ANPR_RZA2M_RDK/src/tensorflow_lite/src/tensorflow/lite/kernels/internal/reference\process_broadcast_shapes.h **** 
  47:C:/Renesas/e2studio_2021_01_workspace_RZA2M_ANPR/ANPR_RZA2M_RDK/src/tensorflow_lite/src/tensorflow/lite/kernels/internal/reference\process_broadcast_shapes.h ****   auto extended_shape0 = RuntimeShape::ExtendedShape(dims_count, shape0);
  48:C:/Renesas/e2studio_2021_01_workspace_RZA2M_ANPR/ANPR_RZA2M_RDK/src/tensorflow_lite/src/tensorflow/lite/kernels/internal/reference\process_broadcast_shapes.h ****   auto extended_shape1 = RuntimeShape::ExtendedShape(dims_count, shape1);
  49:C:/Renesas/e2studio_2021_01_workspace_RZA2M_ANPR/ANPR_RZA2M_RDK/src/tensorflow_lite/src/tensorflow/lite/kernels/internal/reference\process_broadcast_shapes.h **** 
  50:C:/Renesas/e2studio_2021_01_workspace_RZA2M_ANPR/ANPR_RZA2M_RDK/src/tensorflow_lite/src/tensorflow/lite/kernels/internal/reference\process_broadcast_shapes.h ****   // Check for "exact" match, implicitly accepting any scalar shapes.
  51:C:/Renesas/e2studio_2021_01_workspace_RZA2M_ANPR/ANPR_RZA2M_RDK/src/tensorflow_lite/src/tensorflow/lite/kernels/internal/reference\process_broadcast_shapes.h ****   if (extended_shape0 == extended_shape1) {
  52:C:/Renesas/e2studio_2021_01_workspace_RZA2M_ANPR/ANPR_RZA2M_RDK/src/tensorflow_lite/src/tensorflow/lite/kernels/internal/reference\process_broadcast_shapes.h ****     params->broadcast_category = BroadcastableOpCategory::kNonBroadcast;
  53:C:/Renesas/e2studio_2021_01_workspace_RZA2M_ANPR/ANPR_RZA2M_RDK/src/tensorflow_lite/src/tensorflow/lite/kernels/internal/reference\process_broadcast_shapes.h ****     return false;
  54:C:/Renesas/e2studio_2021_01_workspace_RZA2M_ANPR/ANPR_RZA2M_RDK/src/tensorflow_lite/src/tensorflow/lite/kernels/internal/reference\process_broadcast_shapes.h ****   }
  55:C:/Renesas/e2studio_2021_01_workspace_RZA2M_ANPR/ANPR_RZA2M_RDK/src/tensorflow_lite/src/tensorflow/lite/kernels/internal/reference\process_broadcast_shapes.h **** 
  56:C:/Renesas/e2studio_2021_01_workspace_RZA2M_ANPR/ANPR_RZA2M_RDK/src/tensorflow_lite/src/tensorflow/lite/kernels/internal/reference\process_broadcast_shapes.h ****   for (int i = dims_count - 1; i >= 0; --i) {
 881              		.loc 3 56 0
 882 01e0 013055E2 		subs	r3, r5, #1
 883              	.LVL111:
 884 01e4 3900004A 		bmi	.L82
 885              	.LVL112:
 886              	.LBB767:
 887              	.LBB768:
 215:C:/Renesas/e2studio_2021_01_workspace_RZA2M_ANPR/ANPR_RZA2M_RDK/src/tensorflow_lite/src/tensorflow/lite/kernels/internal\types.h ****     return size_ > kMaxSmallSize ? dims_pointer_[i] : dims_[i];
 888              		.loc 4 215 0
 889 01e8 070053E1 		cmp	r3, r7
 890 01ec 7E0100AA 		bge	.L76
 891 01f0 050057E3 		cmp	r7, #5
 216:C:/Renesas/e2studio_2021_01_workspace_RZA2M_ANPR/ANPR_RZA2M_RDK/src/tensorflow_lite/src/tensorflow/lite/kernels/internal\types.h ****   }
 892              		.loc 4 216 0
 893 01f4 24809DE5 		ldr	r8, [sp, #36]
 894              	.LBE768:
 895              	.LBE767:
 896              	.LBB797:
 897              	.LBB798:
 898 01f8 3C009DE5 		ldr	r0, [sp, #60]
 899 01fc B60000CA 		bgt	.L78
 900 0200 050056E3 		cmp	r6, #5
 901 0204 430100CA 		bgt	.L79
 902              	.LBE798:
 903              	.LBE797:
 904              	.LBB828:
 905              	.LBB769:
 906 0208 50208DE2 		add	r2, sp, #80
 907              	.LBE769:
 908              	.LBE828:
 909              	.LBB829:
 910              	.LBB799:
 215:C:/Renesas/e2studio_2021_01_workspace_RZA2M_ANPR/ANPR_RZA2M_RDK/src/tensorflow_lite/src/tensorflow/lite/kernels/internal\types.h ****     return size_ > kMaxSmallSize ? dims_pointer_[i] : dims_[i];
 911              		.loc 4 215 0
 912 020c 060053E1 		cmp	r3, r6
 913              	.LBE799:
 914              	.LBE829:
 915              	.LBB830:
 916              	.LBB770:
 216:C:/Renesas/e2studio_2021_01_workspace_RZA2M_ANPR/ANPR_RZA2M_RDK/src/tensorflow_lite/src/tensorflow/lite/kernels/internal\types.h ****   }
 917              		.loc 4 216 0
 918 0210 032182E0 		add	r2, r2, r3, lsl #2
 919 0214 2CC012E5 		ldr	ip, [r2, #-44]
 920              	.LVL113:
 921              	.LBE770:
 922              	.LBE830:
 923              	.LBB831:
 924              	.LBB800:
 215:C:/Renesas/e2studio_2021_01_workspace_RZA2M_ANPR/ANPR_RZA2M_RDK/src/tensorflow_lite/src/tensorflow/lite/kernels/internal\types.h ****     return size_ > kMaxSmallSize ? dims_pointer_[i] : dims_[i];
 925              		.loc 4 215 0
 926 0218 370300AA 		bge	.L80
 216:C:/Renesas/e2studio_2021_01_workspace_RZA2M_ANPR/ANPR_RZA2M_RDK/src/tensorflow_lite/src/tensorflow/lite/kernels/internal\types.h ****   }
 927              		.loc 4 216 0
 928 021c 14E012E5 		ldr	lr, [r2, #-20]
 929              	.LVL114:
 930              	.LBE800:
 931              	.LBE831:
  57:C:/Renesas/e2studio_2021_01_workspace_RZA2M_ANPR/ANPR_RZA2M_RDK/src/tensorflow_lite/src/tensorflow/lite/kernels/internal/reference\process_broadcast_shapes.h ****     if (extended_shape0.Dims(i) == extended_shape1.Dims(i)) {
 932              		.loc 3 57 0
 933 0220 0C005EE1 		cmp	lr, ip
 934 0224 DD00001A 		bne	.L81
 935              	.LVL115:
  56:C:/Renesas/e2studio_2021_01_workspace_RZA2M_ANPR/ANPR_RZA2M_RDK/src/tensorflow_lite/src/tensorflow/lite/kernels/internal/reference\process_broadcast_shapes.h ****     if (extended_shape0.Dims(i) == extended_shape1.Dims(i)) {
 936              		.loc 3 56 0
 937 0228 022055E2 		subs	r2, r5, #2
 938              	.LVL116:
 939 022c 2700004A 		bmi	.L82
 940              	.LVL117:
 941              	.LBB832:
 942              	.LBB771:
 215:C:/Renesas/e2studio_2021_01_workspace_RZA2M_ANPR/ANPR_RZA2M_RDK/src/tensorflow_lite/src/tensorflow/lite/kernels/internal\types.h ****     return size_ > kMaxSmallSize ? dims_pointer_[i] : dims_[i];
 943              		.loc 4 215 0
 944 0230 070052E1 		cmp	r2, r7
 945 0234 6C0100AA 		bge	.L76
 216:C:/Renesas/e2studio_2021_01_workspace_RZA2M_ANPR/ANPR_RZA2M_RDK/src/tensorflow_lite/src/tensorflow/lite/kernels/internal\types.h ****   }
 946              		.loc 4 216 0
 947 0238 50108DE2 		add	r1, sp, #80
 948              	.LBE771:
 949              	.LBE832:
 950              	.LBB833:
 951              	.LBB801:
 215:C:/Renesas/e2studio_2021_01_workspace_RZA2M_ANPR/ANPR_RZA2M_RDK/src/tensorflow_lite/src/tensorflow/lite/kernels/internal\types.h ****     return size_ > kMaxSmallSize ? dims_pointer_[i] : dims_[i];
 952              		.loc 4 215 0
 953 023c 060052E1 		cmp	r2, r6
 954              	.LBE801:
 955              	.LBE833:
 956              	.LBB834:
 957              	.LBB772:
 216:C:/Renesas/e2studio_2021_01_workspace_RZA2M_ANPR/ANPR_RZA2M_RDK/src/tensorflow_lite/src/tensorflow/lite/kernels/internal\types.h ****   }
 958              		.loc 4 216 0
 959 0240 022181E0 		add	r2, r1, r2, lsl #2
 960              	.LVL118:
 961 0244 2CC012E5 		ldr	ip, [r2, #-44]
 962              	.LVL119:
 963              	.LBE772:
 964              	.LBE834:
 965              	.LBB835:
 966              	.LBB802:
 215:C:/Renesas/e2studio_2021_01_workspace_RZA2M_ANPR/ANPR_RZA2M_RDK/src/tensorflow_lite/src/tensorflow/lite/kernels/internal\types.h ****     return size_ > kMaxSmallSize ? dims_pointer_[i] : dims_[i];
 967              		.loc 4 215 0
 968 0248 2B0300AA 		bge	.L80
 216:C:/Renesas/e2studio_2021_01_workspace_RZA2M_ANPR/ANPR_RZA2M_RDK/src/tensorflow_lite/src/tensorflow/lite/kernels/internal\types.h ****   }
 969              		.loc 4 216 0
 970 024c 14E012E5 		ldr	lr, [r2, #-20]
 971              	.LVL120:
 972              	.LBE802:
 973              	.LBE835:
 974              		.loc 3 57 0
 975 0250 0E005CE1 		cmp	ip, lr
 976 0254 D100001A 		bne	.L81
  56:C:/Renesas/e2studio_2021_01_workspace_RZA2M_ANPR/ANPR_RZA2M_RDK/src/tensorflow_lite/src/tensorflow/lite/kernels/internal/reference\process_broadcast_shapes.h ****     if (extended_shape0.Dims(i) == extended_shape1.Dims(i)) {
 977              		.loc 3 56 0
 978 0258 032045E2 		sub	r2, r5, #3
 979              	.LVL121:
 980 025c 010072E3 		cmn	r2, #1
 981 0260 1A00000A 		beq	.L82
 982              	.LVL122:
 983              	.LBB836:
 984              	.LBB773:
 215:C:/Renesas/e2studio_2021_01_workspace_RZA2M_ANPR/ANPR_RZA2M_RDK/src/tensorflow_lite/src/tensorflow/lite/kernels/internal\types.h ****     return size_ > kMaxSmallSize ? dims_pointer_[i] : dims_[i];
 985              		.loc 4 215 0
 986 0264 020057E1 		cmp	r7, r2
 987 0268 5F0100DA 		ble	.L76
 988              	.LBE773:
 989              	.LBE836:
 990              	.LBB837:
 991              	.LBB803:
 992 026c 020056E1 		cmp	r6, r2
 993              	.LBE803:
 994              	.LBE837:
 995              	.LBB838:
 996              	.LBB774:
 216:C:/Renesas/e2studio_2021_01_workspace_RZA2M_ANPR/ANPR_RZA2M_RDK/src/tensorflow_lite/src/tensorflow/lite/kernels/internal\types.h ****   }
 997              		.loc 4 216 0
 998 0270 022181E0 		add	r2, r1, r2, lsl #2
 999              	.LVL123:
 1000 0274 2CC012E5 		ldr	ip, [r2, #-44]
 1001              	.LVL124:
 1002              	.LBE774:
 1003              	.LBE838:
 1004              	.LBB839:
 1005              	.LBB804:
 215:C:/Renesas/e2studio_2021_01_workspace_RZA2M_ANPR/ANPR_RZA2M_RDK/src/tensorflow_lite/src/tensorflow/lite/kernels/internal\types.h ****     return size_ > kMaxSmallSize ? dims_pointer_[i] : dims_[i];
 1006              		.loc 4 215 0
 1007 0278 1F0300DA 		ble	.L80
 216:C:/Renesas/e2studio_2021_01_workspace_RZA2M_ANPR/ANPR_RZA2M_RDK/src/tensorflow_lite/src/tensorflow/lite/kernels/internal\types.h ****   }
 1008              		.loc 4 216 0
 1009 027c 14E012E5 		ldr	lr, [r2, #-20]
 1010              	.LVL125:
 1011              	.LBE804:
 1012              	.LBE839:
 1013              		.loc 3 57 0
 1014 0280 0C005EE1 		cmp	lr, ip
 1015 0284 C500001A 		bne	.L81
  56:C:/Renesas/e2studio_2021_01_workspace_RZA2M_ANPR/ANPR_RZA2M_RDK/src/tensorflow_lite/src/tensorflow/lite/kernels/internal/reference\process_broadcast_shapes.h ****     if (extended_shape0.Dims(i) == extended_shape1.Dims(i)) {
 1016              		.loc 3 56 0
 1017 0288 042045E2 		sub	r2, r5, #4
 1018              	.LVL126:
 1019 028c 010072E3 		cmn	r2, #1
 1020 0290 0E00000A 		beq	.L82
 1021              	.LVL127:
 1022              	.LBB840:
 1023              	.LBB775:
 215:C:/Renesas/e2studio_2021_01_workspace_RZA2M_ANPR/ANPR_RZA2M_RDK/src/tensorflow_lite/src/tensorflow/lite/kernels/internal\types.h ****     return size_ > kMaxSmallSize ? dims_pointer_[i] : dims_[i];
 1024              		.loc 4 215 0
 1025 0294 020057E1 		cmp	r7, r2
 1026 0298 530100DA 		ble	.L76
 1027              	.LBE775:
 1028              	.LBE840:
 1029              	.LBB841:
 1030              	.LBB805:
 1031 029c 020056E1 		cmp	r6, r2
 1032              	.LBE805:
 1033              	.LBE841:
 1034              	.LBB842:
 1035              	.LBB776:
 216:C:/Renesas/e2studio_2021_01_workspace_RZA2M_ANPR/ANPR_RZA2M_RDK/src/tensorflow_lite/src/tensorflow/lite/kernels/internal\types.h ****   }
 1036              		.loc 4 216 0
 1037 02a0 022181E0 		add	r2, r1, r2, lsl #2
 1038              	.LVL128:
 1039 02a4 2CC012E5 		ldr	ip, [r2, #-44]
 1040              	.LVL129:
 1041              	.LBE776:
 1042              	.LBE842:
 1043              	.LBB843:
 1044              	.LBB806:
 215:C:/Renesas/e2studio_2021_01_workspace_RZA2M_ANPR/ANPR_RZA2M_RDK/src/tensorflow_lite/src/tensorflow/lite/kernels/internal\types.h ****     return size_ > kMaxSmallSize ? dims_pointer_[i] : dims_[i];
 1045              		.loc 4 215 0
 1046 02a8 130300DA 		ble	.L80
 216:C:/Renesas/e2studio_2021_01_workspace_RZA2M_ANPR/ANPR_RZA2M_RDK/src/tensorflow_lite/src/tensorflow/lite/kernels/internal\types.h ****   }
 1047              		.loc 4 216 0
 1048 02ac 14E012E5 		ldr	lr, [r2, #-20]
 1049              	.LVL130:
 1050              	.LBE806:
 1051              	.LBE843:
 1052              		.loc 3 57 0
 1053 02b0 0E005CE1 		cmp	ip, lr
 1054 02b4 B900001A 		bne	.L81
 1055              	.LVL131:
  56:C:/Renesas/e2studio_2021_01_workspace_RZA2M_ANPR/ANPR_RZA2M_RDK/src/tensorflow_lite/src/tensorflow/lite/kernels/internal/reference\process_broadcast_shapes.h ****     if (extended_shape0.Dims(i) == extended_shape1.Dims(i)) {
 1056              		.loc 3 56 0
 1057 02b8 040055E3 		cmp	r5, #4
 1058 02bc 0300000A 		beq	.L82
 1059              	.LVL132:
 1060              		.loc 3 57 0
 1061 02c0 000058E1 		cmp	r8, r0
 1062              	.LBB844:
 1063              	.LBB777:
 216:C:/Renesas/e2studio_2021_01_workspace_RZA2M_ANPR/ANPR_RZA2M_RDK/src/tensorflow_lite/src/tensorflow/lite/kernels/internal\types.h ****   }
 1064              		.loc 4 216 0
 1065 02c4 08C0A0E1 		mov	ip, r8
 1066              	.LVL133:
 1067              	.LBE777:
 1068              	.LBE844:
 1069              	.LBB845:
 1070              	.LBB807:
 1071 02c8 00E0A0E1 		mov	lr, r0
 1072              	.LVL134:
 1073              	.LBE807:
 1074              	.LBE845:
 1075              		.loc 3 57 0
 1076 02cc B300001A 		bne	.L81
 1077              	.LVL135:
 1078              	.L82:
 1079              	.LBE766:
  58:C:/Renesas/e2studio_2021_01_workspace_RZA2M_ANPR/ANPR_RZA2M_RDK/src/tensorflow_lite/src/tensorflow/lite/kernels/internal/reference\process_broadcast_shapes.h ****       continue;
  59:C:/Renesas/e2studio_2021_01_workspace_RZA2M_ANPR/ANPR_RZA2M_RDK/src/tensorflow_lite/src/tensorflow/lite/kernels/internal/reference\process_broadcast_shapes.h ****     } else if (extended_shape0.Dims(i) == 1) {
  60:C:/Renesas/e2studio_2021_01_workspace_RZA2M_ANPR/ANPR_RZA2M_RDK/src/tensorflow_lite/src/tensorflow/lite/kernels/internal/reference\process_broadcast_shapes.h ****       params->broadcast_category =
  61:C:/Renesas/e2studio_2021_01_workspace_RZA2M_ANPR/ANPR_RZA2M_RDK/src/tensorflow_lite/src/tensorflow/lite/kernels/internal/reference\process_broadcast_shapes.h ****           BroadcastableOpCategory::kFirstInputBroadcastsFast;
  62:C:/Renesas/e2studio_2021_01_workspace_RZA2M_ANPR/ANPR_RZA2M_RDK/src/tensorflow_lite/src/tensorflow/lite/kernels/internal/reference\process_broadcast_shapes.h ****       break;
  63:C:/Renesas/e2studio_2021_01_workspace_RZA2M_ANPR/ANPR_RZA2M_RDK/src/tensorflow_lite/src/tensorflow/lite/kernels/internal/reference\process_broadcast_shapes.h ****     } else if (extended_shape1.Dims(i) == 1) {
  64:C:/Renesas/e2studio_2021_01_workspace_RZA2M_ANPR/ANPR_RZA2M_RDK/src/tensorflow_lite/src/tensorflow/lite/kernels/internal/reference\process_broadcast_shapes.h ****       params->broadcast_category =
  65:C:/Renesas/e2studio_2021_01_workspace_RZA2M_ANPR/ANPR_RZA2M_RDK/src/tensorflow_lite/src/tensorflow/lite/kernels/internal/reference\process_broadcast_shapes.h ****           BroadcastableOpCategory::kSecondInputBroadcastsFast;
  66:C:/Renesas/e2studio_2021_01_workspace_RZA2M_ANPR/ANPR_RZA2M_RDK/src/tensorflow_lite/src/tensorflow/lite/kernels/internal/reference\process_broadcast_shapes.h ****       break;
  67:C:/Renesas/e2studio_2021_01_workspace_RZA2M_ANPR/ANPR_RZA2M_RDK/src/tensorflow_lite/src/tensorflow/lite/kernels/internal/reference\process_broadcast_shapes.h ****     } else {
  68:C:/Renesas/e2studio_2021_01_workspace_RZA2M_ANPR/ANPR_RZA2M_RDK/src/tensorflow_lite/src/tensorflow/lite/kernels/internal/reference\process_broadcast_shapes.h ****       // This case is erroneous: there is a dimension that does not match and
  69:C:/Renesas/e2studio_2021_01_workspace_RZA2M_ANPR/ANPR_RZA2M_RDK/src/tensorflow_lite/src/tensorflow/lite/kernels/internal/reference\process_broadcast_shapes.h ****       // is not a broadcast from one shape to the other.
  70:C:/Renesas/e2studio_2021_01_workspace_RZA2M_ANPR/ANPR_RZA2M_RDK/src/tensorflow_lite/src/tensorflow/lite/kernels/internal/reference\process_broadcast_shapes.h ****       params->broadcast_category = BroadcastableOpCategory::kGenericBroadcast;
  71:C:/Renesas/e2studio_2021_01_workspace_RZA2M_ANPR/ANPR_RZA2M_RDK/src/tensorflow_lite/src/tensorflow/lite/kernels/internal/reference\process_broadcast_shapes.h ****       return true;
  72:C:/Renesas/e2studio_2021_01_workspace_RZA2M_ANPR/ANPR_RZA2M_RDK/src/tensorflow_lite/src/tensorflow/lite/kernels/internal/reference\process_broadcast_shapes.h ****     }
  73:C:/Renesas/e2studio_2021_01_workspace_RZA2M_ANPR/ANPR_RZA2M_RDK/src/tensorflow_lite/src/tensorflow/lite/kernels/internal/reference\process_broadcast_shapes.h ****   }
  74:C:/Renesas/e2studio_2021_01_workspace_RZA2M_ANPR/ANPR_RZA2M_RDK/src/tensorflow_lite/src/tensorflow/lite/kernels/internal/reference\process_broadcast_shapes.h **** 
  75:C:/Renesas/e2studio_2021_01_workspace_RZA2M_ANPR/ANPR_RZA2M_RDK/src/tensorflow_lite/src/tensorflow/lite/kernels/internal/reference\process_broadcast_shapes.h ****   if (params->broadcast_category !=
 1080              		.loc 3 75 0
 1081 02d0 0020D4E5 		ldrb	r2, [r4]	@ zero_extendqisi2
 1082 02d4 021042E2 		sub	r1, r2, #2
 1083 02d8 010051E3 		cmp	r1, #1
 1084 02dc 0E03008A 		bhi	.L505
 1085              	.LVL136:
  76:C:/Renesas/e2studio_2021_01_workspace_RZA2M_ANPR/ANPR_RZA2M_RDK/src/tensorflow_lite/src/tensorflow/lite/kernels/internal/reference\process_broadcast_shapes.h ****           BroadcastableOpCategory::kFirstInputBroadcastsFast &&
  77:C:/Renesas/e2studio_2021_01_workspace_RZA2M_ANPR/ANPR_RZA2M_RDK/src/tensorflow_lite/src/tensorflow/lite/kernels/internal/reference\process_broadcast_shapes.h ****       params->broadcast_category !=
  78:C:/Renesas/e2studio_2021_01_workspace_RZA2M_ANPR/ANPR_RZA2M_RDK/src/tensorflow_lite/src/tensorflow/lite/kernels/internal/reference\process_broadcast_shapes.h ****           BroadcastableOpCategory::kSecondInputBroadcastsFast) {
  79:C:/Renesas/e2studio_2021_01_workspace_RZA2M_ANPR/ANPR_RZA2M_RDK/src/tensorflow_lite/src/tensorflow/lite/kernels/internal/reference\process_broadcast_shapes.h ****     // This is unreachable because at least one else clause in the above loop
  80:C:/Renesas/e2studio_2021_01_workspace_RZA2M_ANPR/ANPR_RZA2M_RDK/src/tensorflow_lite/src/tensorflow/lite/kernels/internal/reference\process_broadcast_shapes.h ****     // must be reached.
  81:C:/Renesas/e2studio_2021_01_workspace_RZA2M_ANPR/ANPR_RZA2M_RDK/src/tensorflow_lite/src/tensorflow/lite/kernels/internal/reference\process_broadcast_shapes.h ****     TFLITE_DCHECK(false);
  82:C:/Renesas/e2studio_2021_01_workspace_RZA2M_ANPR/ANPR_RZA2M_RDK/src/tensorflow_lite/src/tensorflow/lite/kernels/internal/reference\process_broadcast_shapes.h ****     params->broadcast_category = BroadcastableOpCategory::kNonBroadcast;
  83:C:/Renesas/e2studio_2021_01_workspace_RZA2M_ANPR/ANPR_RZA2M_RDK/src/tensorflow_lite/src/tensorflow/lite/kernels/internal/reference\process_broadcast_shapes.h ****     return false;
  84:C:/Renesas/e2studio_2021_01_workspace_RZA2M_ANPR/ANPR_RZA2M_RDK/src/tensorflow_lite/src/tensorflow/lite/kernels/internal/reference\process_broadcast_shapes.h ****   }
  85:C:/Renesas/e2studio_2021_01_workspace_RZA2M_ANPR/ANPR_RZA2M_RDK/src/tensorflow_lite/src/tensorflow/lite/kernels/internal/reference\process_broadcast_shapes.h **** 
  86:C:/Renesas/e2studio_2021_01_workspace_RZA2M_ANPR/ANPR_RZA2M_RDK/src/tensorflow_lite/src/tensorflow/lite/kernels/internal/reference\process_broadcast_shapes.h ****   // From this point it is assumed contractually that corresponding dimensions
  87:C:/Renesas/e2studio_2021_01_workspace_RZA2M_ANPR/ANPR_RZA2M_RDK/src/tensorflow_lite/src/tensorflow/lite/kernels/internal/reference\process_broadcast_shapes.h ****   // in shape0 and shape1 are either (a) equal or (b) one or other equals 1.
  88:C:/Renesas/e2studio_2021_01_workspace_RZA2M_ANPR/ANPR_RZA2M_RDK/src/tensorflow_lite/src/tensorflow/lite/kernels/internal/reference\process_broadcast_shapes.h ****   const bool swap_inputs = params->broadcast_category ==
  89:C:/Renesas/e2studio_2021_01_workspace_RZA2M_ANPR/ANPR_RZA2M_RDK/src/tensorflow_lite/src/tensorflow/lite/kernels/internal/reference\process_broadcast_shapes.h ****                            BroadcastableOpCategory::kSecondInputBroadcastsFast;
  90:C:/Renesas/e2studio_2021_01_workspace_RZA2M_ANPR/ANPR_RZA2M_RDK/src/tensorflow_lite/src/tensorflow/lite/kernels/internal/reference\process_broadcast_shapes.h ****   const RuntimeShape* shape_a =
  91:C:/Renesas/e2studio_2021_01_workspace_RZA2M_ANPR/ANPR_RZA2M_RDK/src/tensorflow_lite/src/tensorflow/lite/kernels/internal/reference\process_broadcast_shapes.h ****       swap_inputs ? &extended_shape1 : &extended_shape0;
 1086              		.loc 3 91 0
 1087 02e0 030052E3 		cmp	r2, #3
  92:C:/Renesas/e2studio_2021_01_workspace_RZA2M_ANPR/ANPR_RZA2M_RDK/src/tensorflow_lite/src/tensorflow/lite/kernels/internal/reference\process_broadcast_shapes.h ****   const RuntimeShape* shape_b =
  93:C:/Renesas/e2studio_2021_01_workspace_RZA2M_ANPR/ANPR_RZA2M_RDK/src/tensorflow_lite/src/tensorflow/lite/kernels/internal/reference\process_broadcast_shapes.h ****       swap_inputs ? &extended_shape0 : &extended_shape1;
  94:C:/Renesas/e2studio_2021_01_workspace_RZA2M_ANPR/ANPR_RZA2M_RDK/src/tensorflow_lite/src/tensorflow/lite/kernels/internal/reference\process_broadcast_shapes.h **** 
  95:C:/Renesas/e2studio_2021_01_workspace_RZA2M_ANPR/ANPR_RZA2M_RDK/src/tensorflow_lite/src/tensorflow/lite/kernels/internal/reference\process_broadcast_shapes.h ****   int i = dims_count - 1;
  96:C:/Renesas/e2studio_2021_01_workspace_RZA2M_ANPR/ANPR_RZA2M_RDK/src/tensorflow_lite/src/tensorflow/lite/kernels/internal/reference\process_broadcast_shapes.h ****   params->broadcast_shape[0] = 1;
 1088              		.loc 3 96 0
 1089 02e4 01E0A0E3 		mov	lr, #1
 1090              	.LBB885:
 1091              	.LBB763:
 197:C:/Renesas/e2studio_2021_01_workspace_RZA2M_ANPR/ANPR_RZA2M_RDK/src/tensorflow_lite/src/tensorflow/lite/kernels/internal\types.h ****            std::memcmp(DimsData(), comp.DimsData(), size_ * sizeof(int32_t)) ==
 1092              		.loc 4 197 0
 1093 02e8 0620A001 		moveq	r2, r6
 1094              	.LVL137:
 1095 02ec 0710A001 		moveq	r1, r7
 1096              	.LVL138:
 1097              	.LBE763:
 1098              	.LBE885:
  91:C:/Renesas/e2studio_2021_01_workspace_RZA2M_ANPR/ANPR_RZA2M_RDK/src/tensorflow_lite/src/tensorflow/lite/kernels/internal/reference\process_broadcast_shapes.h ****   const RuntimeShape* shape_b =
 1099              		.loc 3 91 0
 1100 02f0 38008D02 		addeq	r0, sp, #56
  93:C:/Renesas/e2studio_2021_01_workspace_RZA2M_ANPR/ANPR_RZA2M_RDK/src/tensorflow_lite/src/tensorflow/lite/kernels/internal/reference\process_broadcast_shapes.h **** 
 1101              		.loc 3 93 0
 1102 02f4 20C08D02 		addeq	ip, sp, #32
 1103              	.LBB886:
 1104              	.LBB764:
 197:C:/Renesas/e2studio_2021_01_workspace_RZA2M_ANPR/ANPR_RZA2M_RDK/src/tensorflow_lite/src/tensorflow/lite/kernels/internal\types.h ****            std::memcmp(DimsData(), comp.DimsData(), size_ * sizeof(int32_t)) ==
 1105              		.loc 4 197 0
 1106 02f8 0720A011 		movne	r2, r7
 1107 02fc 0610A011 		movne	r1, r6
 1108              	.LBE764:
 1109              	.LBE886:
  91:C:/Renesas/e2studio_2021_01_workspace_RZA2M_ANPR/ANPR_RZA2M_RDK/src/tensorflow_lite/src/tensorflow/lite/kernels/internal/reference\process_broadcast_shapes.h ****   const RuntimeShape* shape_b =
 1110              		.loc 3 91 0
 1111 0300 20008D12 		addne	r0, sp, #32
  93:C:/Renesas/e2studio_2021_01_workspace_RZA2M_ANPR/ANPR_RZA2M_RDK/src/tensorflow_lite/src/tensorflow/lite/kernels/internal/reference\process_broadcast_shapes.h **** 
 1112              		.loc 3 93 0
 1113 0304 38C08D12 		addne	ip, sp, #56
 1114              	.LVL139:
  97:C:/Renesas/e2studio_2021_01_workspace_RZA2M_ANPR/ANPR_RZA2M_RDK/src/tensorflow_lite/src/tensorflow/lite/kernels/internal/reference\process_broadcast_shapes.h ****   params->broadcast_shape[1] = 1;
  98:C:/Renesas/e2studio_2021_01_workspace_RZA2M_ANPR/ANPR_RZA2M_RDK/src/tensorflow_lite/src/tensorflow/lite/kernels/internal/reference\process_broadcast_shapes.h ****   params->broadcast_shape[2] = 1;
  99:C:/Renesas/e2studio_2021_01_workspace_RZA2M_ANPR/ANPR_RZA2M_RDK/src/tensorflow_lite/src/tensorflow/lite/kernels/internal/reference\process_broadcast_shapes.h ****   params->broadcast_shape[3] = 1;
 100:C:/Renesas/e2studio_2021_01_workspace_RZA2M_ANPR/ANPR_RZA2M_RDK/src/tensorflow_lite/src/tensorflow/lite/kernels/internal/reference\process_broadcast_shapes.h ****   params->broadcast_shape[4] = 1;
 101:C:/Renesas/e2studio_2021_01_workspace_RZA2M_ANPR/ANPR_RZA2M_RDK/src/tensorflow_lite/src/tensorflow/lite/kernels/internal/reference\process_broadcast_shapes.h ****   // y_0 is greedy: include dims if both or neither equal 1: in other words,
 102:C:/Renesas/e2studio_2021_01_workspace_RZA2M_ANPR/ANPR_RZA2M_RDK/src/tensorflow_lite/src/tensorflow/lite/kernels/internal/reference\process_broadcast_shapes.h ****   // test for equality rather than (shape_a->Dims(i) != 1).
 103:C:/Renesas/e2studio_2021_01_workspace_RZA2M_ANPR/ANPR_RZA2M_RDK/src/tensorflow_lite/src/tensorflow/lite/kernels/internal/reference\process_broadcast_shapes.h ****   while (i >= 0 && shape_a->Dims(i) == shape_b->Dims(i)) {
 1115              		.loc 3 103 0
 1116 0308 000053E3 		cmp	r3, #0
  96:C:/Renesas/e2studio_2021_01_workspace_RZA2M_ANPR/ANPR_RZA2M_RDK/src/tensorflow_lite/src/tensorflow/lite/kernels/internal/reference\process_broadcast_shapes.h ****   params->broadcast_shape[1] = 1;
 1117              		.loc 3 96 0
 1118 030c 50E084E5 		str	lr, [r4, #80]
  97:C:/Renesas/e2studio_2021_01_workspace_RZA2M_ANPR/ANPR_RZA2M_RDK/src/tensorflow_lite/src/tensorflow/lite/kernels/internal/reference\process_broadcast_shapes.h ****   params->broadcast_shape[1] = 1;
 1119              		.loc 3 97 0
 1120 0310 54E084E5 		str	lr, [r4, #84]
  98:C:/Renesas/e2studio_2021_01_workspace_RZA2M_ANPR/ANPR_RZA2M_RDK/src/tensorflow_lite/src/tensorflow/lite/kernels/internal/reference\process_broadcast_shapes.h ****   params->broadcast_shape[3] = 1;
 1121              		.loc 3 98 0
 1122 0314 58E084E5 		str	lr, [r4, #88]
  99:C:/Renesas/e2studio_2021_01_workspace_RZA2M_ANPR/ANPR_RZA2M_RDK/src/tensorflow_lite/src/tensorflow/lite/kernels/internal/reference\process_broadcast_shapes.h ****   params->broadcast_shape[4] = 1;
 1123              		.loc 3 99 0
 1124 0318 5CE084E5 		str	lr, [r4, #92]
 100:C:/Renesas/e2studio_2021_01_workspace_RZA2M_ANPR/ANPR_RZA2M_RDK/src/tensorflow_lite/src/tensorflow/lite/kernels/internal/reference\process_broadcast_shapes.h ****   // y_0 is greedy: include dims if both or neither equal 1: in other words,
 1125              		.loc 3 100 0
 1126 031c 60E084E5 		str	lr, [r4, #96]
 1127              		.loc 3 103 0
 1128 0320 570100AA 		bge	.L89
 1129              	.LVL140:
 1130              	.L96:
 1131              	.LBB887:
 1132              	.LBB888:
 203:C:/Renesas/e2studio_2021_01_workspace_RZA2M_ANPR/ANPR_RZA2M_RDK/src/tensorflow_lite/src/tensorflow/lite/kernels/internal\types.h **** #ifdef TF_LITE_STATIC_MEMORY
 1133              		.loc 4 203 0
 1134 0324 050056E3 		cmp	r6, #5
 1135              	.LBE888:
 1136              	.LBE887:
 104:C:/Renesas/e2studio_2021_01_workspace_RZA2M_ANPR/ANPR_RZA2M_RDK/src/tensorflow_lite/src/tensorflow/lite/kernels/internal/reference\process_broadcast_shapes.h ****     params->broadcast_shape[4] *= shape_b->Dims(i);
 105:C:/Renesas/e2studio_2021_01_workspace_RZA2M_ANPR/ANPR_RZA2M_RDK/src/tensorflow_lite/src/tensorflow/lite/kernels/internal/reference\process_broadcast_shapes.h ****     --i;
 106:C:/Renesas/e2studio_2021_01_workspace_RZA2M_ANPR/ANPR_RZA2M_RDK/src/tensorflow_lite/src/tensorflow/lite/kernels/internal/reference\process_broadcast_shapes.h ****   }
 107:C:/Renesas/e2studio_2021_01_workspace_RZA2M_ANPR/ANPR_RZA2M_RDK/src/tensorflow_lite/src/tensorflow/lite/kernels/internal/reference\process_broadcast_shapes.h ****   // Here either input_a or input_b has dim of 1 (if i >= 0).  If it is input_b
 108:C:/Renesas/e2studio_2021_01_workspace_RZA2M_ANPR/ANPR_RZA2M_RDK/src/tensorflow_lite/src/tensorflow/lite/kernels/internal/reference\process_broadcast_shapes.h ****   // that has the unit dimension, the next two loops are not entered.
 109:C:/Renesas/e2studio_2021_01_workspace_RZA2M_ANPR/ANPR_RZA2M_RDK/src/tensorflow_lite/src/tensorflow/lite/kernels/internal/reference\process_broadcast_shapes.h ****   while (i >= 0 && shape_a->Dims(i) == 1) {
 110:C:/Renesas/e2studio_2021_01_workspace_RZA2M_ANPR/ANPR_RZA2M_RDK/src/tensorflow_lite/src/tensorflow/lite/kernels/internal/reference\process_broadcast_shapes.h ****     params->broadcast_shape[3] *= shape_b->Dims(i);
 111:C:/Renesas/e2studio_2021_01_workspace_RZA2M_ANPR/ANPR_RZA2M_RDK/src/tensorflow_lite/src/tensorflow/lite/kernels/internal/reference\process_broadcast_shapes.h ****     --i;
 112:C:/Renesas/e2studio_2021_01_workspace_RZA2M_ANPR/ANPR_RZA2M_RDK/src/tensorflow_lite/src/tensorflow/lite/kernels/internal/reference\process_broadcast_shapes.h ****   }
 113:C:/Renesas/e2studio_2021_01_workspace_RZA2M_ANPR/ANPR_RZA2M_RDK/src/tensorflow_lite/src/tensorflow/lite/kernels/internal/reference\process_broadcast_shapes.h ****   while (i >= 0 && shape_a->Dims(i) == shape_b->Dims(i)) {
 114:C:/Renesas/e2studio_2021_01_workspace_RZA2M_ANPR/ANPR_RZA2M_RDK/src/tensorflow_lite/src/tensorflow/lite/kernels/internal/reference\process_broadcast_shapes.h ****     params->broadcast_shape[2] *= shape_a->Dims(i);
 115:C:/Renesas/e2studio_2021_01_workspace_RZA2M_ANPR/ANPR_RZA2M_RDK/src/tensorflow_lite/src/tensorflow/lite/kernels/internal/reference\process_broadcast_shapes.h ****     --i;
 116:C:/Renesas/e2studio_2021_01_workspace_RZA2M_ANPR/ANPR_RZA2M_RDK/src/tensorflow_lite/src/tensorflow/lite/kernels/internal/reference\process_broadcast_shapes.h ****   }
 117:C:/Renesas/e2studio_2021_01_workspace_RZA2M_ANPR/ANPR_RZA2M_RDK/src/tensorflow_lite/src/tensorflow/lite/kernels/internal/reference\process_broadcast_shapes.h ****   // Here either input_a or input_b has dim of 1 (if i >= 0).
 118:C:/Renesas/e2studio_2021_01_workspace_RZA2M_ANPR/ANPR_RZA2M_RDK/src/tensorflow_lite/src/tensorflow/lite/kernels/internal/reference\process_broadcast_shapes.h ****   while (i >= 0 && shape_b->Dims(i) == 1) {
 119:C:/Renesas/e2studio_2021_01_workspace_RZA2M_ANPR/ANPR_RZA2M_RDK/src/tensorflow_lite/src/tensorflow/lite/kernels/internal/reference\process_broadcast_shapes.h ****     params->broadcast_shape[1] *= shape_a->Dims(i);
 120:C:/Renesas/e2studio_2021_01_workspace_RZA2M_ANPR/ANPR_RZA2M_RDK/src/tensorflow_lite/src/tensorflow/lite/kernels/internal/reference\process_broadcast_shapes.h ****     --i;
 121:C:/Renesas/e2studio_2021_01_workspace_RZA2M_ANPR/ANPR_RZA2M_RDK/src/tensorflow_lite/src/tensorflow/lite/kernels/internal/reference\process_broadcast_shapes.h ****   }
 122:C:/Renesas/e2studio_2021_01_workspace_RZA2M_ANPR/ANPR_RZA2M_RDK/src/tensorflow_lite/src/tensorflow/lite/kernels/internal/reference\process_broadcast_shapes.h ****   while (i >= 0 && shape_a->Dims(i) == shape_b->Dims(i)) {
 123:C:/Renesas/e2studio_2021_01_workspace_RZA2M_ANPR/ANPR_RZA2M_RDK/src/tensorflow_lite/src/tensorflow/lite/kernels/internal/reference\process_broadcast_shapes.h ****     params->broadcast_shape[0] *= shape_b->Dims(i);
 124:C:/Renesas/e2studio_2021_01_workspace_RZA2M_ANPR/ANPR_RZA2M_RDK/src/tensorflow_lite/src/tensorflow/lite/kernels/internal/reference\process_broadcast_shapes.h ****     --i;
 125:C:/Renesas/e2studio_2021_01_workspace_RZA2M_ANPR/ANPR_RZA2M_RDK/src/tensorflow_lite/src/tensorflow/lite/kernels/internal/reference\process_broadcast_shapes.h ****   }
 126:C:/Renesas/e2studio_2021_01_workspace_RZA2M_ANPR/ANPR_RZA2M_RDK/src/tensorflow_lite/src/tensorflow/lite/kernels/internal/reference\process_broadcast_shapes.h **** 
 127:C:/Renesas/e2studio_2021_01_workspace_RZA2M_ANPR/ANPR_RZA2M_RDK/src/tensorflow_lite/src/tensorflow/lite/kernels/internal/reference\process_broadcast_shapes.h ****   // Rarer case is when the broadcast dimensions cannot be handled by a fivefold
 128:C:/Renesas/e2studio_2021_01_workspace_RZA2M_ANPR/ANPR_RZA2M_RDK/src/tensorflow_lite/src/tensorflow/lite/kernels/internal/reference\process_broadcast_shapes.h ****   // loop.
 129:C:/Renesas/e2studio_2021_01_workspace_RZA2M_ANPR/ANPR_RZA2M_RDK/src/tensorflow_lite/src/tensorflow/lite/kernels/internal/reference\process_broadcast_shapes.h ****   if (i >= 0) {
 130:C:/Renesas/e2studio_2021_01_workspace_RZA2M_ANPR/ANPR_RZA2M_RDK/src/tensorflow_lite/src/tensorflow/lite/kernels/internal/reference\process_broadcast_shapes.h ****     params->broadcast_category = BroadcastableOpCategory::kGenericBroadcast;
 131:C:/Renesas/e2studio_2021_01_workspace_RZA2M_ANPR/ANPR_RZA2M_RDK/src/tensorflow_lite/src/tensorflow/lite/kernels/internal/reference\process_broadcast_shapes.h ****   }
 132:C:/Renesas/e2studio_2021_01_workspace_RZA2M_ANPR/ANPR_RZA2M_RDK/src/tensorflow_lite/src/tensorflow/lite/kernels/internal/reference\process_broadcast_shapes.h ****   return true;
 1137              		.loc 3 132 0
 1138 0328 0180A0E3 		mov	r8, #1
 1139              	.LVL141:
 1140              	.LBB891:
 1141              	.LBB889:
 203:C:/Renesas/e2studio_2021_01_workspace_RZA2M_ANPR/ANPR_RZA2M_RDK/src/tensorflow_lite/src/tensorflow/lite/kernels/internal\types.h **** #ifdef TF_LITE_STATIC_MEMORY
 1142              		.loc 4 203 0
 1143 032c 650000CA 		bgt	.L506
 1144              	.L179:
 1145              	.LVL142:
 1146              	.LBE889:
 1147              	.LBE891:
 1148              	.LBB892:
 1149              	.LBB893:
 1150 0330 050057E3 		cmp	r7, #5
 1151 0334 030000DA 		ble	.L180
 207:C:/Renesas/e2studio_2021_01_workspace_RZA2M_ANPR/ANPR_RZA2M_RDK/src/tensorflow_lite/src/tensorflow/lite/kernels/internal\types.h **** #endif  // TF_LITE_STATIC_MEMORY
 1152              		.loc 4 207 0
 1153 0338 24009DE5 		ldr	r0, [sp, #36]
 1154 033c 000050E3 		cmp	r0, #0
 1155 0340 0000000A 		beq	.L180
 1156 0344 FEFFFFEB 		bl	_ZdaPv
 1157              	.LVL143:
 1158              	.L180:
 1159              	.LBE893:
 1160              	.LBE892:
 1161              	.LBB894:
 1162              	.LBB895:
 203:C:/Renesas/e2studio_2021_01_workspace_RZA2M_ANPR/ANPR_RZA2M_RDK/src/tensorflow_lite/src/tensorflow/lite/kernels/internal\types.h **** #ifdef TF_LITE_STATIC_MEMORY
 1163              		.loc 4 203 0
 1164 0348 050055E3 		cmp	r5, #5
 1165 034c 030000DA 		ble	.L237
 207:C:/Renesas/e2studio_2021_01_workspace_RZA2M_ANPR/ANPR_RZA2M_RDK/src/tensorflow_lite/src/tensorflow/lite/kernels/internal\types.h **** #endif  // TF_LITE_STATIC_MEMORY
 1166              		.loc 4 207 0
 1167 0350 0C009DE5 		ldr	r0, [sp, #12]
 1168 0354 000050E3 		cmp	r0, #0
 1169 0358 0000000A 		beq	.L237
 1170 035c FEFFFFEB 		bl	_ZdaPv
 1171              	.LVL144:
 1172              	.L237:
 1173              	.LBE895:
 1174              	.LBE894:
 133:C:/Renesas/e2studio_2021_01_workspace_RZA2M_ANPR/ANPR_RZA2M_RDK/src/tensorflow_lite/src/tensorflow/lite/kernels/internal/reference\process_broadcast_shapes.h **** }
 1175              		.loc 3 133 0
 1176 0360 0800A0E1 		mov	r0, r8
 1177 0364 54D08DE2 		add	sp, sp, #84
 1178              		.cfi_remember_state
 1179              		.cfi_def_cfa_offset 36
 1180              		@ sp needed
 1181 0368 F08FBDE8 		pop	{r4, r5, r6, r7, r8, r9, r10, fp, pc}
 1182              	.LVL145:
 1183              	.L37:
 1184              		.cfi_restore_state
 1185              	.LBB896:
 1186              	.LBB606:
 1187              	.LBB602:
 170:C:/Renesas/e2studio_2021_01_workspace_RZA2M_ANPR/ANPR_RZA2M_RDK/src/tensorflow_lite/src/tensorflow/lite/kernels/internal\types.h ****       SetDim(i, value);
 1188              		.loc 4 170 0
 1189 036c 000055E3 		cmp	r5, #0
 1190 0370 EB0200DA 		ble	.L507
 1191              	.LVL146:
 1192              	.LBE602:
 1193              	.LBE606:
 1194              	.LBE896:
 1195              	.LBB897:
 1196              	.LBB684:
 1197              	.LBB678:
 1198              	.LBB672:
 1199              	.LBB666:
 308:C:/Renesas/e2studio_2021_01_workspace_RZA2M_ANPR/ANPR_RZA2M_RDK/src/tensorflow_lite/src/tensorflow/lite/kernels/internal\types.h ****     Resize(new_shape_size);
 1200              		.loc 4 308 0
 1201 0374 030055E1 		cmp	r5, r3
 1202              	.LBE666:
 305:C:/Renesas/e2studio_2021_01_workspace_RZA2M_ANPR/ANPR_RZA2M_RDK/src/tensorflow_lite/src/tensorflow/lite/kernels/internal\types.h ****     // If the following check fails, it is likely because a 4D-only kernel is
 1203              		.loc 4 305 0
 1204 0378 0020A0E3 		mov	r2, #0
 1205              	.LBE672:
 1206              	.LBE678:
 1207              	.LBE684:
 1208              	.LBE897:
 1209              	.LBB898:
 1210              	.LBB607:
 1211              	.LBB603:
 1212              	.LBB600:
 1213              	.LBB597:
 224:C:/Renesas/e2studio_2021_01_workspace_RZA2M_ANPR/ANPR_RZA2M_RDK/src/tensorflow_lite/src/tensorflow/lite/kernels/internal\types.h ****     }
 1214              		.loc 4 224 0
 1215 037c 0110A0E3 		mov	r1, #1
 1216              	.LVL147:
 1217              	.LBE597:
 1218              	.LBE600:
 1219              	.LBE603:
 1220              	.LBE607:
 1221              	.LBE898:
 1222              	.LBB899:
 1223              	.LBB685:
 1224              	.LBB679:
 1225              	.LBB673:
 305:C:/Renesas/e2studio_2021_01_workspace_RZA2M_ANPR/ANPR_RZA2M_RDK/src/tensorflow_lite/src/tensorflow/lite/kernels/internal\types.h ****     // If the following check fails, it is likely because a 4D-only kernel is
 1226              		.loc 4 305 0
 1227 0380 20208DE5 		str	r2, [sp, #32]
 1228              	.LBE673:
 1229              	.LBE679:
 1230              	.LBE685:
 1231              	.LBE899:
 1232              	.LBB900:
 1233              	.LBB608:
 1234              	.LBB604:
 1235              	.LBB601:
 1236              	.LBB598:
 224:C:/Renesas/e2studio_2021_01_workspace_RZA2M_ANPR/ANPR_RZA2M_RDK/src/tensorflow_lite/src/tensorflow/lite/kernels/internal\types.h ****     }
 1237              		.loc 4 224 0
 1238 0384 0C108DE5 		str	r1, [sp, #12]
 1239              	.LVL148:
 1240 0388 0320A0E1 		mov	r2, r3
 1241              	.LVL149:
 1242              	.LBE598:
 1243              	.LBE601:
 1244              	.LBE604:
 1245              	.LBE608:
 1246              	.LBE900:
 1247              	.LBB901:
 1248              	.LBB686:
 1249              	.LBB680:
 1250              	.LBB674:
 1251              	.LBB667:
 308:C:/Renesas/e2studio_2021_01_workspace_RZA2M_ANPR/ANPR_RZA2M_RDK/src/tensorflow_lite/src/tensorflow/lite/kernels/internal\types.h ****     Resize(new_shape_size);
 1252              		.loc 4 308 0
 1253 038c 000000AA 		bge	.L508
 1254              	.LVL150:
 1255              	.L42:
 1256              	.LEHB3:
 1257 0390 FEFFFFEB 		bl	abort
 1258              	.LVL151:
 1259              	.L508:
 1260              	.LBB657:
 1261              	.LBB622:
 245:C:/Renesas/e2studio_2021_01_workspace_RZA2M_ANPR/ANPR_RZA2M_RDK/src/tensorflow_lite/src/tensorflow/lite/kernels/internal\types.h ****     if (dimensions_count > kMaxSmallSize) {
 1262              		.loc 4 245 0
 1263 0394 20508DE5 		str	r5, [sp, #32]
 1264              	.L47:
 1265              	.LVL152:
 1266              	.LBE622:
 1267              	.LBE657:
 310:C:/Renesas/e2studio_2021_01_workspace_RZA2M_ANPR/ANPR_RZA2M_RDK/src/tensorflow_lite/src/tensorflow/lite/kernels/internal\types.h ****     for (int i = 0; i < size_increase; ++i) {
 1268              		.loc 4 310 0
 1269 0398 033045E0 		sub	r3, r5, r3
 1270              	.LVL153:
 1271              	.LBB658:
 311:C:/Renesas/e2studio_2021_01_workspace_RZA2M_ANPR/ANPR_RZA2M_RDK/src/tensorflow_lite/src/tensorflow/lite/kernels/internal\types.h ****       SetDim(i, pad_value);
 1272              		.loc 4 311 0
 1273 039c 000053E3 		cmp	r3, #0
 1274 03a0 E90200DA 		ble	.L509
 1275              	.LVL154:
 1276              	.LBB642:
 1277              	.LBB630:
 220:C:/Renesas/e2studio_2021_01_workspace_RZA2M_ANPR/ANPR_RZA2M_RDK/src/tensorflow_lite/src/tensorflow/lite/kernels/internal\types.h ****     if (size_ > kMaxSmallSize) {
 1278              		.loc 4 220 0
 1279 03a4 000055E3 		cmp	r5, #0
 1280 03a8 170000DA 		ble	.L52
 1281              	.LBE630:
 1282              	.LBE642:
 311:C:/Renesas/e2studio_2021_01_workspace_RZA2M_ANPR/ANPR_RZA2M_RDK/src/tensorflow_lite/src/tensorflow/lite/kernels/internal\types.h ****       SetDim(i, pad_value);
 1283              		.loc 4 311 0
 1284 03ac 010053E3 		cmp	r3, #1
 1285              	.LBB643:
 1286              	.LBB631:
 224:C:/Renesas/e2studio_2021_01_workspace_RZA2M_ANPR/ANPR_RZA2M_RDK/src/tensorflow_lite/src/tensorflow/lite/kernels/internal\types.h ****     }
 1287              		.loc 4 224 0
 1288 03b0 0120A0E3 		mov	r2, #1
 1289 03b4 24208DE5 		str	r2, [sp, #36]
 1290              	.LVL155:
 1291              	.LBE631:
 1292              	.LBE643:
 311:C:/Renesas/e2studio_2021_01_workspace_RZA2M_ANPR/ANPR_RZA2M_RDK/src/tensorflow_lite/src/tensorflow/lite/kernels/internal\types.h ****       SetDim(i, pad_value);
 1293              		.loc 4 311 0
 1294 03b8 1400000A 		beq	.L53
 1295              	.LVL156:
 1296              	.LBB644:
 1297              	.LBB632:
 220:C:/Renesas/e2studio_2021_01_workspace_RZA2M_ANPR/ANPR_RZA2M_RDK/src/tensorflow_lite/src/tensorflow/lite/kernels/internal\types.h ****     if (size_ > kMaxSmallSize) {
 1298              		.loc 4 220 0
 1299 03bc 020055E1 		cmp	r5, r2
 1300 03c0 1100000A 		beq	.L52
 1301              	.LBE632:
 1302              	.LBE644:
 311:C:/Renesas/e2studio_2021_01_workspace_RZA2M_ANPR/ANPR_RZA2M_RDK/src/tensorflow_lite/src/tensorflow/lite/kernels/internal\types.h ****       SetDim(i, pad_value);
 1303              		.loc 4 311 0
 1304 03c4 020053E3 		cmp	r3, #2
 1305              	.LBB645:
 1306              	.LBB633:
 224:C:/Renesas/e2studio_2021_01_workspace_RZA2M_ANPR/ANPR_RZA2M_RDK/src/tensorflow_lite/src/tensorflow/lite/kernels/internal\types.h ****     }
 1307              		.loc 4 224 0
 1308 03c8 28208DE5 		str	r2, [sp, #40]
 1309              	.LVL157:
 1310              	.LBE633:
 1311              	.LBE645:
 311:C:/Renesas/e2studio_2021_01_workspace_RZA2M_ANPR/ANPR_RZA2M_RDK/src/tensorflow_lite/src/tensorflow/lite/kernels/internal\types.h ****       SetDim(i, pad_value);
 1312              		.loc 4 311 0
 1313 03cc 0F00000A 		beq	.L53
 1314              	.LVL158:
 1315              	.LBB646:
 1316              	.LBB634:
 220:C:/Renesas/e2studio_2021_01_workspace_RZA2M_ANPR/ANPR_RZA2M_RDK/src/tensorflow_lite/src/tensorflow/lite/kernels/internal\types.h ****     if (size_ > kMaxSmallSize) {
 1317              		.loc 4 220 0
 1318 03d0 020055E3 		cmp	r5, #2
 1319 03d4 0C00000A 		beq	.L52
 1320              	.LBE634:
 1321              	.LBE646:
 311:C:/Renesas/e2studio_2021_01_workspace_RZA2M_ANPR/ANPR_RZA2M_RDK/src/tensorflow_lite/src/tensorflow/lite/kernels/internal\types.h ****       SetDim(i, pad_value);
 1322              		.loc 4 311 0
 1323 03d8 030053E3 		cmp	r3, #3
 1324              	.LBB647:
 1325              	.LBB635:
 224:C:/Renesas/e2studio_2021_01_workspace_RZA2M_ANPR/ANPR_RZA2M_RDK/src/tensorflow_lite/src/tensorflow/lite/kernels/internal\types.h ****     }
 1326              		.loc 4 224 0
 1327 03dc 2C208DE5 		str	r2, [sp, #44]
 1328              	.LVL159:
 1329              	.LBE635:
 1330              	.LBE647:
 311:C:/Renesas/e2studio_2021_01_workspace_RZA2M_ANPR/ANPR_RZA2M_RDK/src/tensorflow_lite/src/tensorflow/lite/kernels/internal\types.h ****       SetDim(i, pad_value);
 1331              		.loc 4 311 0
 1332 03e0 0A00000A 		beq	.L53
 1333              	.LVL160:
 1334              	.LBB648:
 1335              	.LBB636:
 220:C:/Renesas/e2studio_2021_01_workspace_RZA2M_ANPR/ANPR_RZA2M_RDK/src/tensorflow_lite/src/tensorflow/lite/kernels/internal\types.h ****     if (size_ > kMaxSmallSize) {
 1336              		.loc 4 220 0
 1337 03e4 030055E3 		cmp	r5, #3
 1338 03e8 0700000A 		beq	.L52
 1339              	.LBE636:
 1340              	.LBE648:
 311:C:/Renesas/e2studio_2021_01_workspace_RZA2M_ANPR/ANPR_RZA2M_RDK/src/tensorflow_lite/src/tensorflow/lite/kernels/internal\types.h ****       SetDim(i, pad_value);
 1341              		.loc 4 311 0
 1342 03ec 040053E3 		cmp	r3, #4
 1343              	.LBB649:
 1344              	.LBB637:
 224:C:/Renesas/e2studio_2021_01_workspace_RZA2M_ANPR/ANPR_RZA2M_RDK/src/tensorflow_lite/src/tensorflow/lite/kernels/internal\types.h ****     }
 1345              		.loc 4 224 0
 1346 03f0 30208DE5 		str	r2, [sp, #48]
 1347              	.LVL161:
 1348              	.LBE637:
 1349              	.LBE649:
 311:C:/Renesas/e2studio_2021_01_workspace_RZA2M_ANPR/ANPR_RZA2M_RDK/src/tensorflow_lite/src/tensorflow/lite/kernels/internal\types.h ****       SetDim(i, pad_value);
 1350              		.loc 4 311 0
 1351 03f4 0500000A 		beq	.L53
 1352              	.LVL162:
 1353              	.LBB650:
 1354              	.LBB638:
 220:C:/Renesas/e2studio_2021_01_workspace_RZA2M_ANPR/ANPR_RZA2M_RDK/src/tensorflow_lite/src/tensorflow/lite/kernels/internal\types.h ****     if (size_ > kMaxSmallSize) {
 1355              		.loc 4 220 0
 1356 03f8 040055E3 		cmp	r5, #4
 1357 03fc 0200000A 		beq	.L52
 1358              	.LBE638:
 1359              	.LBE650:
 311:C:/Renesas/e2studio_2021_01_workspace_RZA2M_ANPR/ANPR_RZA2M_RDK/src/tensorflow_lite/src/tensorflow/lite/kernels/internal\types.h ****       SetDim(i, pad_value);
 1360              		.loc 4 311 0
 1361 0400 050053E3 		cmp	r3, #5
 1362              	.LBB651:
 1363              	.LBB639:
 224:C:/Renesas/e2studio_2021_01_workspace_RZA2M_ANPR/ANPR_RZA2M_RDK/src/tensorflow_lite/src/tensorflow/lite/kernels/internal\types.h ****     }
 1364              		.loc 4 224 0
 1365 0404 34208DE5 		str	r2, [sp, #52]
 1366              	.LVL163:
 1367              	.LBE639:
 1368              	.LBE651:
 311:C:/Renesas/e2studio_2021_01_workspace_RZA2M_ANPR/ANPR_RZA2M_RDK/src/tensorflow_lite/src/tensorflow/lite/kernels/internal\types.h ****       SetDim(i, pad_value);
 1369              		.loc 4 311 0
 1370 0408 0000000A 		beq	.L53
 1371              	.LVL164:
 1372              	.L52:
 1373              	.LBB652:
 1374              	.LBB640:
 220:C:/Renesas/e2studio_2021_01_workspace_RZA2M_ANPR/ANPR_RZA2M_RDK/src/tensorflow_lite/src/tensorflow/lite/kernels/internal\types.h ****     if (size_ > kMaxSmallSize) {
 1375              		.loc 4 220 0
 1376 040c FEFFFFEB 		bl	abort
 1377              	.LVL165:
 1378              	.LEHE3:
 1379              	.L53:
 1380 0410 002097E5 		ldr	r2, [r7]
 1381              	.LBE640:
 1382              	.LBE652:
 1383              	.LBE658:
 1384              	.LBB659:
 1385              	.LBB660:
 229:C:/Renesas/e2studio_2021_01_workspace_RZA2M_ANPR/ANPR_RZA2M_RDK/src/tensorflow_lite/src/tensorflow/lite/kernels/internal\types.h ****   }
 1386              		.loc 4 229 0
 1387 0414 24008DE2 		add	r0, sp, #36
 1388              	.LVL166:
 1389 0418 43FFFFEA 		b	.L194
 1390              	.LVL167:
 1391              	.L59:
 1392              	.LBE660:
 1393              	.LBE659:
 1394              	.LBE667:
 1395              	.LBE674:
 1396              	.LBE680:
 1397              	.LBE686:
 1398              	.LBE901:
 1399              	.LBB902:
 1400              	.LBB751:
 1401              	.LBB747:
 1402              	.LBB743:
 1403              	.LBB739:
 310:C:/Renesas/e2studio_2021_01_workspace_RZA2M_ANPR/ANPR_RZA2M_RDK/src/tensorflow_lite/src/tensorflow/lite/kernels/internal\types.h ****     for (int i = 0; i < size_increase; ++i) {
 1404              		.loc 4 310 0
 1405 041c 021045E0 		sub	r1, r5, r2
 1406              	.LVL168:
 1407              	.LBB735:
 311:C:/Renesas/e2studio_2021_01_workspace_RZA2M_ANPR/ANPR_RZA2M_RDK/src/tensorflow_lite/src/tensorflow/lite/kernels/internal\types.h ****       SetDim(i, pad_value);
 1408              		.loc 4 311 0
 1409 0420 000051E3 		cmp	r1, #0
 1410 0424 010100DA 		ble	.L510
 1411              	.LVL169:
 1412              	.LBB720:
 1413              	.LBB707:
 220:C:/Renesas/e2studio_2021_01_workspace_RZA2M_ANPR/ANPR_RZA2M_RDK/src/tensorflow_lite/src/tensorflow/lite/kernels/internal\types.h ****     if (size_ > kMaxSmallSize) {
 1414              		.loc 4 220 0
 1415 0428 000055E3 		cmp	r5, #0
 1416 042c 170000DA 		ble	.L64
 1417              	.LBE707:
 1418              	.LBE720:
 311:C:/Renesas/e2studio_2021_01_workspace_RZA2M_ANPR/ANPR_RZA2M_RDK/src/tensorflow_lite/src/tensorflow/lite/kernels/internal\types.h ****       SetDim(i, pad_value);
 1419              		.loc 4 311 0
 1420 0430 010051E3 		cmp	r1, #1
 1421              	.LBB721:
 1422              	.LBB708:
 224:C:/Renesas/e2studio_2021_01_workspace_RZA2M_ANPR/ANPR_RZA2M_RDK/src/tensorflow_lite/src/tensorflow/lite/kernels/internal\types.h ****     }
 1423              		.loc 4 224 0
 1424 0434 0130A0E3 		mov	r3, #1
 1425 0438 3C308DE5 		str	r3, [sp, #60]
 1426              	.LVL170:
 1427              	.LBE708:
 1428              	.LBE721:
 311:C:/Renesas/e2studio_2021_01_workspace_RZA2M_ANPR/ANPR_RZA2M_RDK/src/tensorflow_lite/src/tensorflow/lite/kernels/internal\types.h ****       SetDim(i, pad_value);
 1429              		.loc 4 311 0
 1430 043c FD00000A 		beq	.L65
 1431              	.LVL171:
 1432              	.LBB722:
 1433              	.LBB709:
 220:C:/Renesas/e2studio_2021_01_workspace_RZA2M_ANPR/ANPR_RZA2M_RDK/src/tensorflow_lite/src/tensorflow/lite/kernels/internal\types.h ****     if (size_ > kMaxSmallSize) {
 1434              		.loc 4 220 0
 1435 0440 030055E1 		cmp	r5, r3
 1436 0444 1100000A 		beq	.L64
 1437              	.LBE709:
 1438              	.LBE722:
 311:C:/Renesas/e2studio_2021_01_workspace_RZA2M_ANPR/ANPR_RZA2M_RDK/src/tensorflow_lite/src/tensorflow/lite/kernels/internal\types.h ****       SetDim(i, pad_value);
 1439              		.loc 4 311 0
 1440 0448 020051E3 		cmp	r1, #2
 1441              	.LBB723:
 1442              	.LBB710:
 224:C:/Renesas/e2studio_2021_01_workspace_RZA2M_ANPR/ANPR_RZA2M_RDK/src/tensorflow_lite/src/tensorflow/lite/kernels/internal\types.h ****     }
 1443              		.loc 4 224 0
 1444 044c 40308DE5 		str	r3, [sp, #64]
 1445              	.LVL172:
 1446              	.LBE710:
 1447              	.LBE723:
 311:C:/Renesas/e2studio_2021_01_workspace_RZA2M_ANPR/ANPR_RZA2M_RDK/src/tensorflow_lite/src/tensorflow/lite/kernels/internal\types.h ****       SetDim(i, pad_value);
 1448              		.loc 4 311 0
 1449 0450 F800000A 		beq	.L65
 1450              	.LVL173:
 1451              	.LBB724:
 1452              	.LBB711:
 220:C:/Renesas/e2studio_2021_01_workspace_RZA2M_ANPR/ANPR_RZA2M_RDK/src/tensorflow_lite/src/tensorflow/lite/kernels/internal\types.h ****     if (size_ > kMaxSmallSize) {
 1453              		.loc 4 220 0
 1454 0454 020055E3 		cmp	r5, #2
 1455 0458 0C00000A 		beq	.L64
 1456              	.LBE711:
 1457              	.LBE724:
 311:C:/Renesas/e2studio_2021_01_workspace_RZA2M_ANPR/ANPR_RZA2M_RDK/src/tensorflow_lite/src/tensorflow/lite/kernels/internal\types.h ****       SetDim(i, pad_value);
 1458              		.loc 4 311 0
 1459 045c 030051E3 		cmp	r1, #3
 1460              	.LBB725:
 1461              	.LBB712:
 224:C:/Renesas/e2studio_2021_01_workspace_RZA2M_ANPR/ANPR_RZA2M_RDK/src/tensorflow_lite/src/tensorflow/lite/kernels/internal\types.h ****     }
 1462              		.loc 4 224 0
 1463 0460 44308DE5 		str	r3, [sp, #68]
 1464              	.LVL174:
 1465              	.LBE712:
 1466              	.LBE725:
 311:C:/Renesas/e2studio_2021_01_workspace_RZA2M_ANPR/ANPR_RZA2M_RDK/src/tensorflow_lite/src/tensorflow/lite/kernels/internal\types.h ****       SetDim(i, pad_value);
 1467              		.loc 4 311 0
 1468 0464 F300000A 		beq	.L65
 1469              	.LVL175:
 1470              	.LBB726:
 1471              	.LBB713:
 220:C:/Renesas/e2studio_2021_01_workspace_RZA2M_ANPR/ANPR_RZA2M_RDK/src/tensorflow_lite/src/tensorflow/lite/kernels/internal\types.h ****     if (size_ > kMaxSmallSize) {
 1472              		.loc 4 220 0
 1473 0468 030055E3 		cmp	r5, #3
 1474 046c 0700000A 		beq	.L64
 1475              	.LBE713:
 1476              	.LBE726:
 311:C:/Renesas/e2studio_2021_01_workspace_RZA2M_ANPR/ANPR_RZA2M_RDK/src/tensorflow_lite/src/tensorflow/lite/kernels/internal\types.h ****       SetDim(i, pad_value);
 1477              		.loc 4 311 0
 1478 0470 040051E3 		cmp	r1, #4
 1479              	.LBB727:
 1480              	.LBB714:
 224:C:/Renesas/e2studio_2021_01_workspace_RZA2M_ANPR/ANPR_RZA2M_RDK/src/tensorflow_lite/src/tensorflow/lite/kernels/internal\types.h ****     }
 1481              		.loc 4 224 0
 1482 0474 48308DE5 		str	r3, [sp, #72]
 1483              	.LVL176:
 1484              	.LBE714:
 1485              	.LBE727:
 311:C:/Renesas/e2studio_2021_01_workspace_RZA2M_ANPR/ANPR_RZA2M_RDK/src/tensorflow_lite/src/tensorflow/lite/kernels/internal\types.h ****       SetDim(i, pad_value);
 1486              		.loc 4 311 0
 1487 0478 EE00000A 		beq	.L65
 1488              	.LVL177:
 1489              	.LBB728:
 1490              	.LBB715:
 220:C:/Renesas/e2studio_2021_01_workspace_RZA2M_ANPR/ANPR_RZA2M_RDK/src/tensorflow_lite/src/tensorflow/lite/kernels/internal\types.h ****     if (size_ > kMaxSmallSize) {
 1491              		.loc 4 220 0
 1492 047c 050055E3 		cmp	r5, #5
 1493 0480 0200001A 		bne	.L64
 1494              	.LBE715:
 1495              	.LBE728:
 311:C:/Renesas/e2studio_2021_01_workspace_RZA2M_ANPR/ANPR_RZA2M_RDK/src/tensorflow_lite/src/tensorflow/lite/kernels/internal\types.h ****       SetDim(i, pad_value);
 1496              		.loc 4 311 0
 1497 0484 050051E3 		cmp	r1, #5
 1498              	.LBB729:
 1499              	.LBB716:
 224:C:/Renesas/e2studio_2021_01_workspace_RZA2M_ANPR/ANPR_RZA2M_RDK/src/tensorflow_lite/src/tensorflow/lite/kernels/internal\types.h ****     }
 1500              		.loc 4 224 0
 1501 0488 4C308DE5 		str	r3, [sp, #76]
 1502              	.LVL178:
 1503              	.LBE716:
 1504              	.LBE729:
 311:C:/Renesas/e2studio_2021_01_workspace_RZA2M_ANPR/ANPR_RZA2M_RDK/src/tensorflow_lite/src/tensorflow/lite/kernels/internal\types.h ****       SetDim(i, pad_value);
 1505              		.loc 4 311 0
 1506 048c E900000A 		beq	.L65
 1507              	.LVL179:
 1508              	.L64:
 1509              	.LEHB4:
 1510              	.LBB730:
 1511              	.LBB717:
 220:C:/Renesas/e2studio_2021_01_workspace_RZA2M_ANPR/ANPR_RZA2M_RDK/src/tensorflow_lite/src/tensorflow/lite/kernels/internal\types.h ****     if (size_ > kMaxSmallSize) {
 1512              		.loc 4 220 0
 1513 0490 FEFFFFEB 		bl	abort
 1514              	.LVL180:
 1515              	.LEHE4:
 1516              	.L504:
 1517              	.LBE717:
 1518              	.LBE730:
 1519              	.LBE735:
 1520              	.LBE739:
 1521              	.LBE743:
 1522              	.LBE747:
 1523              	.LBE751:
 1524              	.LBE902:
 1525              	.LBB903:
 1526              	.LBB765:
 1527              	.LBB757:
 1528              	.LBB758:
 232:C:/Renesas/e2studio_2021_01_workspace_RZA2M_ANPR/ANPR_RZA2M_RDK/src/tensorflow_lite/src/tensorflow/lite/kernels/internal\types.h ****   }
 1529              		.loc 4 232 0
 1530 0494 050057E3 		cmp	r7, #5
 1531              	.LBE758:
 1532              	.LBE757:
 198:C:/Renesas/e2studio_2021_01_workspace_RZA2M_ANPR/ANPR_RZA2M_RDK/src/tensorflow_lite/src/tensorflow/lite/kernels/internal\types.h ****                0;
 1533              		.loc 4 198 0
 1534 0498 0721A0E1 		lsl	r2, r7, #2
 1535              	.LBB760:
 1536              	.LBB759:
 232:C:/Renesas/e2studio_2021_01_workspace_RZA2M_ANPR/ANPR_RZA2M_RDK/src/tensorflow_lite/src/tensorflow/lite/kernels/internal\types.h ****   }
 1537              		.loc 4 232 0
 1538 049c 24009DC5 		ldrgt	r0, [sp, #36]
 1539              	.LVL181:
 1540 04a0 24008DD2 		addle	r0, sp, #36
 1541              	.LBE759:
 1542              	.LBE760:
 1543              	.LBB761:
 1544              	.LBB762:
 1545 04a4 3C109DC5 		ldrgt	r1, [sp, #60]
 1546 04a8 3C108DD2 		addle	r1, sp, #60
 1547              	.LBE762:
 1548              	.LBE761:
 198:C:/Renesas/e2studio_2021_01_workspace_RZA2M_ANPR/ANPR_RZA2M_RDK/src/tensorflow_lite/src/tensorflow/lite/kernels/internal\types.h ****                0;
 1549              		.loc 4 198 0
 1550 04ac FEFFFFEB 		bl	memcmp
 1551              	.LVL182:
 197:C:/Renesas/e2studio_2021_01_workspace_RZA2M_ANPR/ANPR_RZA2M_RDK/src/tensorflow_lite/src/tensorflow/lite/kernels/internal\types.h ****            std::memcmp(DimsData(), comp.DimsData(), size_ * sizeof(int32_t)) ==
 1552              		.loc 4 197 0
 1553 04b0 008050E2 		subs	r8, r0, #0
 1554 04b4 49FFFF1A 		bne	.L70
 1555              	.LVL183:
 1556              	.LBE765:
 1557              	.LBE903:
  52:C:/Renesas/e2studio_2021_01_workspace_RZA2M_ANPR/ANPR_RZA2M_RDK/src/tensorflow_lite/src/tensorflow/lite/kernels/internal/reference\process_broadcast_shapes.h ****     return false;
 1558              		.loc 3 52 0
 1559 04b8 0130A0E3 		mov	r3, #1
 1560 04bc 0030C4E5 		strb	r3, [r4]
 1561              	.L90:
 1562              	.LVL184:
 1563              	.LBB904:
 1564              	.LBB890:
 203:C:/Renesas/e2studio_2021_01_workspace_RZA2M_ANPR/ANPR_RZA2M_RDK/src/tensorflow_lite/src/tensorflow/lite/kernels/internal\types.h **** #ifdef TF_LITE_STATIC_MEMORY
 1565              		.loc 4 203 0
 1566 04c0 050056E3 		cmp	r6, #5
 1567 04c4 99FFFFDA 		ble	.L179
 1568              	.L506:
 207:C:/Renesas/e2studio_2021_01_workspace_RZA2M_ANPR/ANPR_RZA2M_RDK/src/tensorflow_lite/src/tensorflow/lite/kernels/internal\types.h **** #endif  // TF_LITE_STATIC_MEMORY
 1569              		.loc 4 207 0
 1570 04c8 3C009DE5 		ldr	r0, [sp, #60]
 1571 04cc 000050E3 		cmp	r0, #0
 1572 04d0 96FFFF0A 		beq	.L179
 1573 04d4 FEFFFFEB 		bl	_ZdaPv
 1574              	.LVL185:
 1575 04d8 94FFFFEA 		b	.L179
 1576              	.LVL186:
 1577              	.L78:
 1578 04dc 050056E3 		cmp	r6, #5
 1579 04e0 C20000CA 		bgt	.L83
 1580              	.LBE890:
 1581              	.LBE904:
 1582              	.LBB905:
 1583              	.LBB846:
 1584              	.LBB808:
 215:C:/Renesas/e2studio_2021_01_workspace_RZA2M_ANPR/ANPR_RZA2M_RDK/src/tensorflow_lite/src/tensorflow/lite/kernels/internal\types.h ****     return size_ > kMaxSmallSize ? dims_pointer_[i] : dims_[i];
 1585              		.loc 4 215 0
 1586 04e4 060053E1 		cmp	r3, r6
 1587              	.LBE808:
 1588              	.LBE846:
 1589              	.LBB847:
 1590              	.LBB778:
 216:C:/Renesas/e2studio_2021_01_workspace_RZA2M_ANPR/ANPR_RZA2M_RDK/src/tensorflow_lite/src/tensorflow/lite/kernels/internal\types.h ****   }
 1591              		.loc 4 216 0
 1592 04e8 0321A0E1 		lsl	r2, r3, #2
 1593 04ec 03C198E7 		ldr	ip, [r8, r3, lsl #2]
 1594              	.LVL187:
 1595              	.LBE778:
 1596              	.LBE847:
 1597              	.LBB848:
 1598              	.LBB809:
 215:C:/Renesas/e2studio_2021_01_workspace_RZA2M_ANPR/ANPR_RZA2M_RDK/src/tensorflow_lite/src/tensorflow/lite/kernels/internal\types.h ****     return size_ > kMaxSmallSize ? dims_pointer_[i] : dims_[i];
 1599              		.loc 4 215 0
 1600 04f0 810200AA 		bge	.L80
 216:C:/Renesas/e2studio_2021_01_workspace_RZA2M_ANPR/ANPR_RZA2M_RDK/src/tensorflow_lite/src/tensorflow/lite/kernels/internal\types.h ****   }
 1601              		.loc 4 216 0
 1602 04f4 50108DE2 		add	r1, sp, #80
 1603 04f8 021081E0 		add	r1, r1, r2
 1604 04fc 14E011E5 		ldr	lr, [r1, #-20]
 1605              	.LVL188:
 1606              	.LBE809:
 1607              	.LBE848:
  57:C:/Renesas/e2studio_2021_01_workspace_RZA2M_ANPR/ANPR_RZA2M_RDK/src/tensorflow_lite/src/tensorflow/lite/kernels/internal/reference\process_broadcast_shapes.h ****       continue;
 1608              		.loc 3 57 0
 1609 0500 0E005CE1 		cmp	ip, lr
 1610 0504 2500001A 		bne	.L81
 1611              	.LVL189:
  56:C:/Renesas/e2studio_2021_01_workspace_RZA2M_ANPR/ANPR_RZA2M_RDK/src/tensorflow_lite/src/tensorflow/lite/kernels/internal/reference\process_broadcast_shapes.h ****     if (extended_shape0.Dims(i) == extended_shape1.Dims(i)) {
 1612              		.loc 3 56 0
 1613 0508 021055E2 		subs	r1, r5, #2
 1614              	.LVL190:
 1615 050c 6FFFFF4A 		bmi	.L82
 1616              	.LVL191:
 1617              	.LBB849:
 1618              	.LBB810:
 215:C:/Renesas/e2studio_2021_01_workspace_RZA2M_ANPR/ANPR_RZA2M_RDK/src/tensorflow_lite/src/tensorflow/lite/kernels/internal\types.h ****     return size_ > kMaxSmallSize ? dims_pointer_[i] : dims_[i];
 1619              		.loc 4 215 0
 1620 0510 010056E1 		cmp	r6, r1
 1621              	.LBE810:
 1622              	.LBE849:
 1623              	.LBB850:
 1624              	.LBB779:
 216:C:/Renesas/e2studio_2021_01_workspace_RZA2M_ANPR/ANPR_RZA2M_RDK/src/tensorflow_lite/src/tensorflow/lite/kernels/internal\types.h ****   }
 1625              		.loc 4 216 0
 1626 0514 028088E0 		add	r8, r8, r2
 1627 0518 04C018E5 		ldr	ip, [r8, #-4]
 1628              	.LVL192:
 1629              	.LBE779:
 1630              	.LBE850:
 1631              	.LBB851:
 1632              	.LBB811:
 215:C:/Renesas/e2studio_2021_01_workspace_RZA2M_ANPR/ANPR_RZA2M_RDK/src/tensorflow_lite/src/tensorflow/lite/kernels/internal\types.h ****     return size_ > kMaxSmallSize ? dims_pointer_[i] : dims_[i];
 1633              		.loc 4 215 0
 1634 051c 760200DA 		ble	.L80
 216:C:/Renesas/e2studio_2021_01_workspace_RZA2M_ANPR/ANPR_RZA2M_RDK/src/tensorflow_lite/src/tensorflow/lite/kernels/internal\types.h ****   }
 1635              		.loc 4 216 0
 1636 0520 50208DE2 		add	r2, sp, #80
 1637 0524 011182E0 		add	r1, r2, r1, lsl #2
 1638              	.LVL193:
 1639 0528 14E011E5 		ldr	lr, [r1, #-20]
 1640              	.LVL194:
 1641              	.LBE811:
 1642              	.LBE851:
  57:C:/Renesas/e2studio_2021_01_workspace_RZA2M_ANPR/ANPR_RZA2M_RDK/src/tensorflow_lite/src/tensorflow/lite/kernels/internal/reference\process_broadcast_shapes.h ****       continue;
 1643              		.loc 3 57 0
 1644 052c 0C005EE1 		cmp	lr, ip
 1645 0530 1A00001A 		bne	.L81
  56:C:/Renesas/e2studio_2021_01_workspace_RZA2M_ANPR/ANPR_RZA2M_RDK/src/tensorflow_lite/src/tensorflow/lite/kernels/internal/reference\process_broadcast_shapes.h ****     if (extended_shape0.Dims(i) == extended_shape1.Dims(i)) {
 1646              		.loc 3 56 0
 1647 0534 032045E2 		sub	r2, r5, #3
 1648              	.LVL195:
 1649 0538 010072E3 		cmn	r2, #1
 1650 053c 63FFFF0A 		beq	.L82
 1651              	.LVL196:
 1652              	.LBB852:
 1653              	.LBB812:
 215:C:/Renesas/e2studio_2021_01_workspace_RZA2M_ANPR/ANPR_RZA2M_RDK/src/tensorflow_lite/src/tensorflow/lite/kernels/internal\types.h ****     return size_ > kMaxSmallSize ? dims_pointer_[i] : dims_[i];
 1654              		.loc 4 215 0
 1655 0540 020056E1 		cmp	r6, r2
 1656              	.LBE812:
 1657              	.LBE852:
 1658              	.LBB853:
 1659              	.LBB780:
 216:C:/Renesas/e2studio_2021_01_workspace_RZA2M_ANPR/ANPR_RZA2M_RDK/src/tensorflow_lite/src/tensorflow/lite/kernels/internal\types.h ****   }
 1660              		.loc 4 216 0
 1661 0544 08C018E5 		ldr	ip, [r8, #-8]
 1662              	.LVL197:
 1663              	.LBE780:
 1664              	.LBE853:
 1665              	.LBB854:
 1666              	.LBB813:
 215:C:/Renesas/e2studio_2021_01_workspace_RZA2M_ANPR/ANPR_RZA2M_RDK/src/tensorflow_lite/src/tensorflow/lite/kernels/internal\types.h ****     return size_ > kMaxSmallSize ? dims_pointer_[i] : dims_[i];
 1667              		.loc 4 215 0
 1668 0548 6B0200DA 		ble	.L80
 216:C:/Renesas/e2studio_2021_01_workspace_RZA2M_ANPR/ANPR_RZA2M_RDK/src/tensorflow_lite/src/tensorflow/lite/kernels/internal\types.h ****   }
 1669              		.loc 4 216 0
 1670 054c 50108DE2 		add	r1, sp, #80
 1671 0550 022181E0 		add	r2, r1, r2, lsl #2
 1672              	.LVL198:
 1673 0554 14E012E5 		ldr	lr, [r2, #-20]
 1674              	.LVL199:
 1675              	.LBE813:
 1676              	.LBE854:
  57:C:/Renesas/e2studio_2021_01_workspace_RZA2M_ANPR/ANPR_RZA2M_RDK/src/tensorflow_lite/src/tensorflow/lite/kernels/internal/reference\process_broadcast_shapes.h ****       continue;
 1677              		.loc 3 57 0
 1678 0558 0E005CE1 		cmp	ip, lr
 1679 055c 0F00001A 		bne	.L81
  56:C:/Renesas/e2studio_2021_01_workspace_RZA2M_ANPR/ANPR_RZA2M_RDK/src/tensorflow_lite/src/tensorflow/lite/kernels/internal/reference\process_broadcast_shapes.h ****     if (extended_shape0.Dims(i) == extended_shape1.Dims(i)) {
 1680              		.loc 3 56 0
 1681 0560 042045E2 		sub	r2, r5, #4
 1682              	.LVL200:
 1683 0564 010072E3 		cmn	r2, #1
 1684 0568 58FFFF0A 		beq	.L82
 1685              	.LVL201:
 1686              	.LBB855:
 1687              	.LBB814:
 215:C:/Renesas/e2studio_2021_01_workspace_RZA2M_ANPR/ANPR_RZA2M_RDK/src/tensorflow_lite/src/tensorflow/lite/kernels/internal\types.h ****     return size_ > kMaxSmallSize ? dims_pointer_[i] : dims_[i];
 1688              		.loc 4 215 0
 1689 056c 020056E1 		cmp	r6, r2
 1690              	.LBE814:
 1691              	.LBE855:
 1692              	.LBB856:
 1693              	.LBB781:
 216:C:/Renesas/e2studio_2021_01_workspace_RZA2M_ANPR/ANPR_RZA2M_RDK/src/tensorflow_lite/src/tensorflow/lite/kernels/internal\types.h ****   }
 1694              		.loc 4 216 0
 1695 0570 0CC018E5 		ldr	ip, [r8, #-12]
 1696              	.LVL202:
 1697              	.LBE781:
 1698              	.LBE856:
 1699              	.LBB857:
 1700              	.LBB815:
 215:C:/Renesas/e2studio_2021_01_workspace_RZA2M_ANPR/ANPR_RZA2M_RDK/src/tensorflow_lite/src/tensorflow/lite/kernels/internal\types.h ****     return size_ > kMaxSmallSize ? dims_pointer_[i] : dims_[i];
 1701              		.loc 4 215 0
 1702 0574 600200DA 		ble	.L80
 216:C:/Renesas/e2studio_2021_01_workspace_RZA2M_ANPR/ANPR_RZA2M_RDK/src/tensorflow_lite/src/tensorflow/lite/kernels/internal\types.h ****   }
 1703              		.loc 4 216 0
 1704 0578 022181E0 		add	r2, r1, r2, lsl #2
 1705              	.LVL203:
 1706 057c 14E012E5 		ldr	lr, [r2, #-20]
 1707              	.LVL204:
 1708              	.LBE815:
 1709              	.LBE857:
  57:C:/Renesas/e2studio_2021_01_workspace_RZA2M_ANPR/ANPR_RZA2M_RDK/src/tensorflow_lite/src/tensorflow/lite/kernels/internal/reference\process_broadcast_shapes.h ****       continue;
 1710              		.loc 3 57 0
 1711 0580 0C005EE1 		cmp	lr, ip
 1712 0584 0500001A 		bne	.L81
 1713              	.LVL205:
  56:C:/Renesas/e2studio_2021_01_workspace_RZA2M_ANPR/ANPR_RZA2M_RDK/src/tensorflow_lite/src/tensorflow/lite/kernels/internal/reference\process_broadcast_shapes.h ****     if (extended_shape0.Dims(i) == extended_shape1.Dims(i)) {
 1714              		.loc 3 56 0
 1715 0588 040055E3 		cmp	r5, #4
 1716 058c 4FFFFF0A 		beq	.L82
 1717              	.LVL206:
 1718              	.LBB858:
 1719              	.LBB782:
 216:C:/Renesas/e2studio_2021_01_workspace_RZA2M_ANPR/ANPR_RZA2M_RDK/src/tensorflow_lite/src/tensorflow/lite/kernels/internal\types.h ****   }
 1720              		.loc 4 216 0
 1721 0590 10C018E5 		ldr	ip, [r8, #-16]
 1722              	.LVL207:
 1723              	.LBE782:
 1724              	.LBE858:
 1725              	.LBB859:
 1726              	.LBB816:
 1727 0594 3CE09DE5 		ldr	lr, [sp, #60]
 1728              	.LVL208:
 1729              	.LBE816:
 1730              	.LBE859:
  57:C:/Renesas/e2studio_2021_01_workspace_RZA2M_ANPR/ANPR_RZA2M_RDK/src/tensorflow_lite/src/tensorflow/lite/kernels/internal/reference\process_broadcast_shapes.h ****       continue;
 1731              		.loc 3 57 0
 1732 0598 0E005CE1 		cmp	ip, lr
 1733 059c 4BFFFF0A 		beq	.L82
 1734              	.LVL209:
 1735              	.L81:
  59:C:/Renesas/e2studio_2021_01_workspace_RZA2M_ANPR/ANPR_RZA2M_RDK/src/tensorflow_lite/src/tensorflow/lite/kernels/internal/reference\process_broadcast_shapes.h ****       params->broadcast_category =
 1736              		.loc 3 59 0
 1737 05a0 01005CE3 		cmp	ip, #1
 1738 05a4 A600001A 		bne	.L86
 1739              	.LBE905:
  96:C:/Renesas/e2studio_2021_01_workspace_RZA2M_ANPR/ANPR_RZA2M_RDK/src/tensorflow_lite/src/tensorflow/lite/kernels/internal/reference\process_broadcast_shapes.h ****   params->broadcast_shape[1] = 1;
 1740              		.loc 3 96 0
 1741 05a8 50C084E5 		str	ip, [r4, #80]
 100:C:/Renesas/e2studio_2021_01_workspace_RZA2M_ANPR/ANPR_RZA2M_RDK/src/tensorflow_lite/src/tensorflow/lite/kernels/internal/reference\process_broadcast_shapes.h ****   // y_0 is greedy: include dims if both or neither equal 1: in other words,
 1742              		.loc 3 100 0
 1743 05ac 0610A0E1 		mov	r1, r6
  97:C:/Renesas/e2studio_2021_01_workspace_RZA2M_ANPR/ANPR_RZA2M_RDK/src/tensorflow_lite/src/tensorflow/lite/kernels/internal/reference\process_broadcast_shapes.h ****   params->broadcast_shape[2] = 1;
 1744              		.loc 3 97 0
 1745 05b0 54C084E5 		str	ip, [r4, #84]
 100:C:/Renesas/e2studio_2021_01_workspace_RZA2M_ANPR/ANPR_RZA2M_RDK/src/tensorflow_lite/src/tensorflow/lite/kernels/internal/reference\process_broadcast_shapes.h ****   // y_0 is greedy: include dims if both or neither equal 1: in other words,
 1746              		.loc 3 100 0
 1747 05b4 0720A0E1 		mov	r2, r7
  98:C:/Renesas/e2studio_2021_01_workspace_RZA2M_ANPR/ANPR_RZA2M_RDK/src/tensorflow_lite/src/tensorflow/lite/kernels/internal/reference\process_broadcast_shapes.h ****   params->broadcast_shape[3] = 1;
 1748              		.loc 3 98 0
 1749 05b8 58C084E5 		str	ip, [r4, #88]
  91:C:/Renesas/e2studio_2021_01_workspace_RZA2M_ANPR/ANPR_RZA2M_RDK/src/tensorflow_lite/src/tensorflow/lite/kernels/internal/reference\process_broadcast_shapes.h ****   const RuntimeShape* shape_b =
 1750              		.loc 3 91 0
 1751 05bc 20008DE2 		add	r0, sp, #32
  99:C:/Renesas/e2studio_2021_01_workspace_RZA2M_ANPR/ANPR_RZA2M_RDK/src/tensorflow_lite/src/tensorflow/lite/kernels/internal/reference\process_broadcast_shapes.h ****   params->broadcast_shape[4] = 1;
 1752              		.loc 3 99 0
 1753 05c0 5CC084E5 		str	ip, [r4, #92]
 1754              	.LBB906:
  60:C:/Renesas/e2studio_2021_01_workspace_RZA2M_ANPR/ANPR_RZA2M_RDK/src/tensorflow_lite/src/tensorflow/lite/kernels/internal/reference\process_broadcast_shapes.h ****           BroadcastableOpCategory::kFirstInputBroadcastsFast;
 1755              		.loc 3 60 0
 1756 05c4 02E0A0E3 		mov	lr, #2
 1757              	.LBE906:
 100:C:/Renesas/e2studio_2021_01_workspace_RZA2M_ANPR/ANPR_RZA2M_RDK/src/tensorflow_lite/src/tensorflow/lite/kernels/internal/reference\process_broadcast_shapes.h ****   // y_0 is greedy: include dims if both or neither equal 1: in other words,
 1758              		.loc 3 100 0
 1759 05c8 60C084E5 		str	ip, [r4, #96]
  93:C:/Renesas/e2studio_2021_01_workspace_RZA2M_ANPR/ANPR_RZA2M_RDK/src/tensorflow_lite/src/tensorflow/lite/kernels/internal/reference\process_broadcast_shapes.h **** 
 1760              		.loc 3 93 0
 1761 05cc 38C08DE2 		add	ip, sp, #56
 1762              	.LVL210:
 1763              	.LBB907:
  60:C:/Renesas/e2studio_2021_01_workspace_RZA2M_ANPR/ANPR_RZA2M_RDK/src/tensorflow_lite/src/tensorflow/lite/kernels/internal/reference\process_broadcast_shapes.h ****           BroadcastableOpCategory::kFirstInputBroadcastsFast;
 1764              		.loc 3 60 0
 1765 05d0 00E0C4E5 		strb	lr, [r4]
 1766              	.LVL211:
 1767              	.L87:
 1768 05d4 050052E3 		cmp	r2, #5
 1769 05d8 AC0000CA 		bgt	.L99
 1770 05dc 050051E3 		cmp	r1, #5
 1771 05e0 C00000CA 		bgt	.L100
 1772 05e4 0591A0E1 		lsl	r9, r5, #2
 1773              	.LBE907:
  93:C:/Renesas/e2studio_2021_01_workspace_RZA2M_ANPR/ANPR_RZA2M_RDK/src/tensorflow_lite/src/tensorflow/lite/kernels/internal/reference\process_broadcast_shapes.h **** 
 1774              		.loc 3 93 0
 1775 05e8 01E0A0E3 		mov	lr, #1
 1776 05ec 09A080E0 		add	r10, r0, r9
 1777 05f0 09908CE0 		add	r9, ip, r9
 1778              	.L105:
 1779              	.LBB908:
 1780              	.LBB909:
 215:C:/Renesas/e2studio_2021_01_workspace_RZA2M_ANPR/ANPR_RZA2M_RDK/src/tensorflow_lite/src/tensorflow/lite/kernels/internal\types.h ****     return size_ > kMaxSmallSize ? dims_pointer_[i] : dims_[i];
 1781              		.loc 4 215 0
 1782 05f4 010053E1 		cmp	r3, r1
 1783              	.LBE909:
 1784              	.LBE908:
 1785              	.LBB919:
 1786              	.LBB920:
 216:C:/Renesas/e2studio_2021_01_workspace_RZA2M_ANPR/ANPR_RZA2M_RDK/src/tensorflow_lite/src/tensorflow/lite/kernels/internal\types.h ****   }
 1787              		.loc 4 216 0
 1788 05f8 04801AE4 		ldr	r8, [r10], #-4
 1789              	.LVL212:
 1790              	.LBE920:
 1791              	.LBE919:
 1792              	.LBB928:
 1793              	.LBB910:
 215:C:/Renesas/e2studio_2021_01_workspace_RZA2M_ANPR/ANPR_RZA2M_RDK/src/tensorflow_lite/src/tensorflow/lite/kernels/internal\types.h ****     return size_ > kMaxSmallSize ? dims_pointer_[i] : dims_[i];
 1794              		.loc 4 215 0
 1795 05fc 430200AA 		bge	.L101
 216:C:/Renesas/e2studio_2021_01_workspace_RZA2M_ANPR/ANPR_RZA2M_RDK/src/tensorflow_lite/src/tensorflow/lite/kernels/internal\types.h ****   }
 1796              		.loc 4 216 0
 1797 0600 04B019E4 		ldr	fp, [r9], #-4
 1798              	.LVL213:
 1799              	.LBE910:
 1800              	.LBE928:
 103:C:/Renesas/e2studio_2021_01_workspace_RZA2M_ANPR/ANPR_RZA2M_RDK/src/tensorflow_lite/src/tensorflow/lite/kernels/internal/reference\process_broadcast_shapes.h ****     params->broadcast_shape[4] *= shape_b->Dims(i);
 1801              		.loc 3 103 0
 1802 0604 0B0058E1 		cmp	r8, fp
 1803 0608 EF00000A 		beq	.L511
 1804              	.L102:
 109:C:/Renesas/e2studio_2021_01_workspace_RZA2M_ANPR/ANPR_RZA2M_RDK/src/tensorflow_lite/src/tensorflow/lite/kernels/internal/reference\process_broadcast_shapes.h ****     params->broadcast_shape[3] *= shape_b->Dims(i);
 1805              		.loc 3 109 0
 1806 060c 000053E3 		cmp	r3, #0
 1807 0610 43FFFFBA 		blt	.L96
 1808              	.LVL214:
 1809              	.LBB929:
 1810              	.LBB930:
 215:C:/Renesas/e2studio_2021_01_workspace_RZA2M_ANPR/ANPR_RZA2M_RDK/src/tensorflow_lite/src/tensorflow/lite/kernels/internal\types.h ****     return size_ > kMaxSmallSize ? dims_pointer_[i] : dims_[i];
 1811              		.loc 4 215 0
 1812 0614 020053E1 		cmp	r3, r2
 1813 0618 160100AA 		bge	.L116
 1814 061c 050052E3 		cmp	r2, #5
 1815 0620 2B0100CA 		bgt	.L117
 1816 0624 050051E3 		cmp	r1, #5
 1817 0628 820100CA 		bgt	.L118
 1818 062c 03E1A0E1 		lsl	lr, r3, #2
 1819 0630 0180A0E3 		mov	r8, #1
 1820 0634 08E08EE2 		add	lr, lr, #8
 1821 0638 0EA080E0 		add	r10, r0, lr
 1822 063c 0EE08CE0 		add	lr, ip, lr
 1823              	.L123:
 1824              	.LVL215:
 1825              	.LBE930:
 1826              	.LBE929:
 109:C:/Renesas/e2studio_2021_01_workspace_RZA2M_ANPR/ANPR_RZA2M_RDK/src/tensorflow_lite/src/tensorflow/lite/kernels/internal/reference\process_broadcast_shapes.h ****     params->broadcast_shape[3] *= shape_b->Dims(i);
 1827              		.loc 3 109 0
 1828 0640 04903AE5 		ldr	r9, [r10, #-4]!
 1829 0644 010059E3 		cmp	r9, #1
 1830 0648 FE00000A 		beq	.L512
 1831              	.L119:
 113:C:/Renesas/e2studio_2021_01_workspace_RZA2M_ANPR/ANPR_RZA2M_RDK/src/tensorflow_lite/src/tensorflow/lite/kernels/internal/reference\process_broadcast_shapes.h ****     params->broadcast_shape[2] *= shape_a->Dims(i);
 1832              		.loc 3 113 0
 1833 064c 000053E3 		cmp	r3, #0
 1834 0650 33FFFFBA 		blt	.L96
 1835              	.LVL216:
 1836              	.LBB939:
 1837              	.LBB940:
 215:C:/Renesas/e2studio_2021_01_workspace_RZA2M_ANPR/ANPR_RZA2M_RDK/src/tensorflow_lite/src/tensorflow/lite/kernels/internal\types.h ****     return size_ > kMaxSmallSize ? dims_pointer_[i] : dims_[i];
 1838              		.loc 4 215 0
 1839 0654 020053E1 		cmp	r3, r2
 1840 0658 EE0000AA 		bge	.L132
 1841 065c 050052E3 		cmp	r2, #5
 1842 0660 320100CA 		bgt	.L133
 1843 0664 050051E3 		cmp	r1, #5
 1844 0668 870100CA 		bgt	.L134
 1845 066c 0391A0E1 		lsl	r9, r3, #2
 1846 0670 01E0A0E3 		mov	lr, #1
 1847 0674 089089E2 		add	r9, r9, #8
 1848 0678 09A080E0 		add	r10, r0, r9
 1849 067c 09908CE0 		add	r9, ip, r9
 1850              	.L139:
 1851              	.LBE940:
 1852              	.LBE939:
 1853              	.LBB951:
 1854              	.LBB952:
 1855 0680 010053E1 		cmp	r3, r1
 1856              	.LBE952:
 1857              	.LBE951:
 1858              	.LBB962:
 1859              	.LBB941:
 216:C:/Renesas/e2studio_2021_01_workspace_RZA2M_ANPR/ANPR_RZA2M_RDK/src/tensorflow_lite/src/tensorflow/lite/kernels/internal\types.h ****   }
 1860              		.loc 4 216 0
 1861 0684 04B03AE5 		ldr	fp, [r10, #-4]!
 1862              	.LVL217:
 1863              	.LBE941:
 1864              	.LBE962:
 1865              	.LBB963:
 1866              	.LBB953:
 215:C:/Renesas/e2studio_2021_01_workspace_RZA2M_ANPR/ANPR_RZA2M_RDK/src/tensorflow_lite/src/tensorflow/lite/kernels/internal\types.h ****     return size_ > kMaxSmallSize ? dims_pointer_[i] : dims_[i];
 1867              		.loc 4 215 0
 1868 0688 1C0200AA 		bge	.L135
 216:C:/Renesas/e2studio_2021_01_workspace_RZA2M_ANPR/ANPR_RZA2M_RDK/src/tensorflow_lite/src/tensorflow/lite/kernels/internal\types.h ****   }
 1869              		.loc 4 216 0
 1870 068c 048039E5 		ldr	r8, [r9, #-4]!
 1871              	.LVL218:
 1872              	.LBE953:
 1873              	.LBE963:
 113:C:/Renesas/e2studio_2021_01_workspace_RZA2M_ANPR/ANPR_RZA2M_RDK/src/tensorflow_lite/src/tensorflow/lite/kernels/internal/reference\process_broadcast_shapes.h ****     params->broadcast_shape[2] *= shape_a->Dims(i);
 1874              		.loc 3 113 0
 1875 0690 0B0058E1 		cmp	r8, fp
 1876 0694 D600000A 		beq	.L513
 1877              	.LVL219:
 118:C:/Renesas/e2studio_2021_01_workspace_RZA2M_ANPR/ANPR_RZA2M_RDK/src/tensorflow_lite/src/tensorflow/lite/kernels/internal/reference\process_broadcast_shapes.h ****     params->broadcast_shape[1] *= shape_a->Dims(i);
 1878              		.loc 3 118 0
 1879 0698 000053E3 		cmp	r3, #0
 1880 069c 0391A0A1 		lslge	r9, r3, #2
 1881 06a0 089089A2 		addge	r9, r9, #8
 1882 06a4 09A08CA0 		addge	r10, ip, r9
 1883 06a8 099080A0 		addge	r9, r0, r9
 1884 06ac 1CFFFFBA 		blt	.L96
 1885              	.L155:
 1886              	.LVL220:
 1887 06b0 04E03AE5 		ldr	lr, [r10, #-4]!
 1888 06b4 01005EE3 		cmp	lr, #1
 1889 06b8 EF00000A 		beq	.L514
 1890              	.L152:
 1891              	.LVL221:
 1892              	.LBB964:
 1893              	.LBB965:
 215:C:/Renesas/e2studio_2021_01_workspace_RZA2M_ANPR/ANPR_RZA2M_RDK/src/tensorflow_lite/src/tensorflow/lite/kernels/internal\types.h ****     return size_ > kMaxSmallSize ? dims_pointer_[i] : dims_[i];
