   1              		.cpu cortex-a9
   2              		.eabi_attribute 28, 1
   3              		.eabi_attribute 20, 1
   4              		.eabi_attribute 21, 1
   5              		.eabi_attribute 23, 3
   6              		.eabi_attribute 24, 1
   7              		.eabi_attribute 25, 1
   8              		.eabi_attribute 26, 1
   9              		.eabi_attribute 30, 2
  10              		.eabi_attribute 34, 0
  11              		.eabi_attribute 18, 4
  12              		.file	"pooling.cpp"
  13              		.text
  14              	.Ltext0:
  15              		.cfi_sections	.debug_frame
  16              		.section	.text._ZN6tflite3ops5micro7pooling4InitEP13TfLiteContextPKcj,"ax",%progbits
  17              		.align	2
  18              		.global	_ZN6tflite3ops5micro7pooling4InitEP13TfLiteContextPKcj
  19              		.syntax unified
  20              		.arm
  21              		.fpu neon
  23              	_ZN6tflite3ops5micro7pooling4InitEP13TfLiteContextPKcj:
  24              		.fnstart
  25              	.LFB5919:
  26              		.file 1 "../src/tensorflow_lite/src/tensorflow/lite/micro/kernels/cmsis_nn/pooling.cpp"
   1:../src/tensorflow_lite/src/tensorflow/lite/micro/kernels/cmsis_nn/pooling.cpp **** /* Copyright 2020 The TensorFlow Authors. All Rights Reserved.
   2:../src/tensorflow_lite/src/tensorflow/lite/micro/kernels/cmsis_nn/pooling.cpp **** 
   3:../src/tensorflow_lite/src/tensorflow/lite/micro/kernels/cmsis_nn/pooling.cpp **** Licensed under the Apache License, Version 2.0 (the "License");
   4:../src/tensorflow_lite/src/tensorflow/lite/micro/kernels/cmsis_nn/pooling.cpp **** you may not use this file except in compliance with the License.
   5:../src/tensorflow_lite/src/tensorflow/lite/micro/kernels/cmsis_nn/pooling.cpp **** You may obtain a copy of the License at
   6:../src/tensorflow_lite/src/tensorflow/lite/micro/kernels/cmsis_nn/pooling.cpp **** 
   7:../src/tensorflow_lite/src/tensorflow/lite/micro/kernels/cmsis_nn/pooling.cpp ****     http://www.apache.org/licenses/LICENSE-2.0
   8:../src/tensorflow_lite/src/tensorflow/lite/micro/kernels/cmsis_nn/pooling.cpp **** 
   9:../src/tensorflow_lite/src/tensorflow/lite/micro/kernels/cmsis_nn/pooling.cpp **** Unless required by applicable law or agreed to in writing, software
  10:../src/tensorflow_lite/src/tensorflow/lite/micro/kernels/cmsis_nn/pooling.cpp **** distributed under the License is distributed on an "AS IS" BASIS,
  11:../src/tensorflow_lite/src/tensorflow/lite/micro/kernels/cmsis_nn/pooling.cpp **** WITHOUT WARRANTIES OR CONDITIONS OF ANY KIND, either express or implied.
  12:../src/tensorflow_lite/src/tensorflow/lite/micro/kernels/cmsis_nn/pooling.cpp **** See the License for the specific language governing permissions and
  13:../src/tensorflow_lite/src/tensorflow/lite/micro/kernels/cmsis_nn/pooling.cpp **** limitations under the License.
  14:../src/tensorflow_lite/src/tensorflow/lite/micro/kernels/cmsis_nn/pooling.cpp **** ==============================================================================*/
  15:../src/tensorflow_lite/src/tensorflow/lite/micro/kernels/cmsis_nn/pooling.cpp **** #include "tensorflow/lite/kernels/internal/reference/pooling.h"
  16:../src/tensorflow_lite/src/tensorflow/lite/micro/kernels/cmsis_nn/pooling.cpp **** 
  17:../src/tensorflow_lite/src/tensorflow/lite/micro/kernels/cmsis_nn/pooling.cpp **** #include "tensorflow/lite/micro/tools/make/downloads/cmsis/CMSIS/NN/Include/arm_nnfunctions.h"
  18:../src/tensorflow_lite/src/tensorflow/lite/micro/kernels/cmsis_nn/pooling.cpp **** #include "third_party/flatbuffers/include/flatbuffers/base.h"
  19:../src/tensorflow_lite/src/tensorflow/lite/micro/kernels/cmsis_nn/pooling.cpp **** #include "tensorflow/lite/c/builtin_op_data.h"
  20:../src/tensorflow_lite/src/tensorflow/lite/micro/kernels/cmsis_nn/pooling.cpp **** #include "tensorflow/lite/kernels/internal/reference/integer_ops/pooling.h"
  21:../src/tensorflow_lite/src/tensorflow/lite/micro/kernels/cmsis_nn/pooling.cpp **** #include "tensorflow/lite/kernels/internal/tensor_ctypes.h"
  22:../src/tensorflow_lite/src/tensorflow/lite/micro/kernels/cmsis_nn/pooling.cpp **** #include "tensorflow/lite/kernels/kernel_util.h"
  23:../src/tensorflow_lite/src/tensorflow/lite/micro/kernels/cmsis_nn/pooling.cpp **** #include "tensorflow/lite/kernels/padding.h"
  24:../src/tensorflow_lite/src/tensorflow/lite/micro/kernels/cmsis_nn/pooling.cpp **** #include "tensorflow/lite/micro/kernels/kernel_util.h"
  25:../src/tensorflow_lite/src/tensorflow/lite/micro/kernels/cmsis_nn/pooling.cpp **** 
  26:../src/tensorflow_lite/src/tensorflow/lite/micro/kernels/cmsis_nn/pooling.cpp **** namespace tflite {
  27:../src/tensorflow_lite/src/tensorflow/lite/micro/kernels/cmsis_nn/pooling.cpp **** namespace ops {
  28:../src/tensorflow_lite/src/tensorflow/lite/micro/kernels/cmsis_nn/pooling.cpp **** namespace micro {
  29:../src/tensorflow_lite/src/tensorflow/lite/micro/kernels/cmsis_nn/pooling.cpp **** namespace pooling {
  30:../src/tensorflow_lite/src/tensorflow/lite/micro/kernels/cmsis_nn/pooling.cpp **** 
  31:../src/tensorflow_lite/src/tensorflow/lite/micro/kernels/cmsis_nn/pooling.cpp **** namespace {
  32:../src/tensorflow_lite/src/tensorflow/lite/micro/kernels/cmsis_nn/pooling.cpp **** 
  33:../src/tensorflow_lite/src/tensorflow/lite/micro/kernels/cmsis_nn/pooling.cpp **** constexpr int kInputTensor = 0;
  34:../src/tensorflow_lite/src/tensorflow/lite/micro/kernels/cmsis_nn/pooling.cpp **** constexpr int kOutputTensor = 0;
  35:../src/tensorflow_lite/src/tensorflow/lite/micro/kernels/cmsis_nn/pooling.cpp **** 
  36:../src/tensorflow_lite/src/tensorflow/lite/micro/kernels/cmsis_nn/pooling.cpp **** struct OpData {
  37:../src/tensorflow_lite/src/tensorflow/lite/micro/kernels/cmsis_nn/pooling.cpp ****   TfLitePaddingValues padding;
  38:../src/tensorflow_lite/src/tensorflow/lite/micro/kernels/cmsis_nn/pooling.cpp ****   // Index to buffer for optimizations if applicable.
  39:../src/tensorflow_lite/src/tensorflow/lite/micro/kernels/cmsis_nn/pooling.cpp ****   int buffer_idx;
  40:../src/tensorflow_lite/src/tensorflow/lite/micro/kernels/cmsis_nn/pooling.cpp **** 
  41:../src/tensorflow_lite/src/tensorflow/lite/micro/kernels/cmsis_nn/pooling.cpp ****   int32_t activation_min;
  42:../src/tensorflow_lite/src/tensorflow/lite/micro/kernels/cmsis_nn/pooling.cpp ****   int32_t activation_max;
  43:../src/tensorflow_lite/src/tensorflow/lite/micro/kernels/cmsis_nn/pooling.cpp ****   float activation_min_f32;
  44:../src/tensorflow_lite/src/tensorflow/lite/micro/kernels/cmsis_nn/pooling.cpp ****   float activation_max_f32;
  45:../src/tensorflow_lite/src/tensorflow/lite/micro/kernels/cmsis_nn/pooling.cpp **** };
  46:../src/tensorflow_lite/src/tensorflow/lite/micro/kernels/cmsis_nn/pooling.cpp **** 
  47:../src/tensorflow_lite/src/tensorflow/lite/micro/kernels/cmsis_nn/pooling.cpp **** TfLiteStatus CalculateOpData(TfLiteContext* context,
  48:../src/tensorflow_lite/src/tensorflow/lite/micro/kernels/cmsis_nn/pooling.cpp ****                              const TfLitePoolParams* params,
  49:../src/tensorflow_lite/src/tensorflow/lite/micro/kernels/cmsis_nn/pooling.cpp ****                              const TfLiteTensor* input, TfLiteTensor* output,
  50:../src/tensorflow_lite/src/tensorflow/lite/micro/kernels/cmsis_nn/pooling.cpp ****                              OpData* data) {
  51:../src/tensorflow_lite/src/tensorflow/lite/micro/kernels/cmsis_nn/pooling.cpp ****   // input: batch, height, width, channel
  52:../src/tensorflow_lite/src/tensorflow/lite/micro/kernels/cmsis_nn/pooling.cpp ****   int height = SizeOfDimension(input, 1);
  53:../src/tensorflow_lite/src/tensorflow/lite/micro/kernels/cmsis_nn/pooling.cpp ****   int width = SizeOfDimension(input, 2);
  54:../src/tensorflow_lite/src/tensorflow/lite/micro/kernels/cmsis_nn/pooling.cpp **** 
  55:../src/tensorflow_lite/src/tensorflow/lite/micro/kernels/cmsis_nn/pooling.cpp ****   int out_height, out_width;
  56:../src/tensorflow_lite/src/tensorflow/lite/micro/kernels/cmsis_nn/pooling.cpp **** 
  57:../src/tensorflow_lite/src/tensorflow/lite/micro/kernels/cmsis_nn/pooling.cpp ****   data->padding = ComputePaddingHeightWidth(
  58:../src/tensorflow_lite/src/tensorflow/lite/micro/kernels/cmsis_nn/pooling.cpp ****       params->stride_height, params->stride_width,
  59:../src/tensorflow_lite/src/tensorflow/lite/micro/kernels/cmsis_nn/pooling.cpp ****       /*dilation_rate_height=*/1,
  60:../src/tensorflow_lite/src/tensorflow/lite/micro/kernels/cmsis_nn/pooling.cpp ****       /*dilation_rate_width=*/1, height, width, params->filter_height,
  61:../src/tensorflow_lite/src/tensorflow/lite/micro/kernels/cmsis_nn/pooling.cpp ****       params->filter_width, params->padding, &out_height, &out_width);
  62:../src/tensorflow_lite/src/tensorflow/lite/micro/kernels/cmsis_nn/pooling.cpp **** 
  63:../src/tensorflow_lite/src/tensorflow/lite/micro/kernels/cmsis_nn/pooling.cpp ****   if (input->type == kTfLiteFloat32) {
  64:../src/tensorflow_lite/src/tensorflow/lite/micro/kernels/cmsis_nn/pooling.cpp ****     CalculateActivationRange(params->activation, &data->activation_min_f32,
  65:../src/tensorflow_lite/src/tensorflow/lite/micro/kernels/cmsis_nn/pooling.cpp ****                              &data->activation_max_f32);
  66:../src/tensorflow_lite/src/tensorflow/lite/micro/kernels/cmsis_nn/pooling.cpp ****   } else {
  67:../src/tensorflow_lite/src/tensorflow/lite/micro/kernels/cmsis_nn/pooling.cpp ****     TF_LITE_ENSURE_STATUS(CalculateActivationRangeQuantized(
  68:../src/tensorflow_lite/src/tensorflow/lite/micro/kernels/cmsis_nn/pooling.cpp ****         context, params->activation, output, &data->activation_min,
  69:../src/tensorflow_lite/src/tensorflow/lite/micro/kernels/cmsis_nn/pooling.cpp ****         &data->activation_max));
  70:../src/tensorflow_lite/src/tensorflow/lite/micro/kernels/cmsis_nn/pooling.cpp ****     TFLITE_DCHECK_LE(data->activation_min, data->activation_max);
  71:../src/tensorflow_lite/src/tensorflow/lite/micro/kernels/cmsis_nn/pooling.cpp ****   }
  72:../src/tensorflow_lite/src/tensorflow/lite/micro/kernels/cmsis_nn/pooling.cpp **** 
  73:../src/tensorflow_lite/src/tensorflow/lite/micro/kernels/cmsis_nn/pooling.cpp ****   // Set buffer index to a reset value
  74:../src/tensorflow_lite/src/tensorflow/lite/micro/kernels/cmsis_nn/pooling.cpp ****   data->buffer_idx = -1;
  75:../src/tensorflow_lite/src/tensorflow/lite/micro/kernels/cmsis_nn/pooling.cpp **** 
  76:../src/tensorflow_lite/src/tensorflow/lite/micro/kernels/cmsis_nn/pooling.cpp ****   return kTfLiteOk;
  77:../src/tensorflow_lite/src/tensorflow/lite/micro/kernels/cmsis_nn/pooling.cpp **** }
  78:../src/tensorflow_lite/src/tensorflow/lite/micro/kernels/cmsis_nn/pooling.cpp **** 
  79:../src/tensorflow_lite/src/tensorflow/lite/micro/kernels/cmsis_nn/pooling.cpp **** void AverageEvalFloat(const TfLiteContext* context, const TfLiteNode* node,
  80:../src/tensorflow_lite/src/tensorflow/lite/micro/kernels/cmsis_nn/pooling.cpp ****                       const TfLitePoolParams* params, const OpData& data,
  81:../src/tensorflow_lite/src/tensorflow/lite/micro/kernels/cmsis_nn/pooling.cpp ****                       const TfLiteEvalTensor* input, TfLiteEvalTensor* output) {
  82:../src/tensorflow_lite/src/tensorflow/lite/micro/kernels/cmsis_nn/pooling.cpp ****   float activation_min, activation_max;
  83:../src/tensorflow_lite/src/tensorflow/lite/micro/kernels/cmsis_nn/pooling.cpp ****   CalculateActivationRange(params->activation, &activation_min,
  84:../src/tensorflow_lite/src/tensorflow/lite/micro/kernels/cmsis_nn/pooling.cpp ****                            &activation_max);
  85:../src/tensorflow_lite/src/tensorflow/lite/micro/kernels/cmsis_nn/pooling.cpp **** 
  86:../src/tensorflow_lite/src/tensorflow/lite/micro/kernels/cmsis_nn/pooling.cpp ****   PoolParams op_params;
  87:../src/tensorflow_lite/src/tensorflow/lite/micro/kernels/cmsis_nn/pooling.cpp ****   op_params.stride_height = params->stride_height;
  88:../src/tensorflow_lite/src/tensorflow/lite/micro/kernels/cmsis_nn/pooling.cpp ****   op_params.stride_width = params->stride_width;
  89:../src/tensorflow_lite/src/tensorflow/lite/micro/kernels/cmsis_nn/pooling.cpp ****   op_params.filter_height = params->filter_height;
  90:../src/tensorflow_lite/src/tensorflow/lite/micro/kernels/cmsis_nn/pooling.cpp ****   op_params.filter_width = params->filter_width;
  91:../src/tensorflow_lite/src/tensorflow/lite/micro/kernels/cmsis_nn/pooling.cpp ****   op_params.padding_values.height = data.padding.height;
  92:../src/tensorflow_lite/src/tensorflow/lite/micro/kernels/cmsis_nn/pooling.cpp ****   op_params.padding_values.width = data.padding.width;
  93:../src/tensorflow_lite/src/tensorflow/lite/micro/kernels/cmsis_nn/pooling.cpp ****   op_params.float_activation_min = activation_min;
  94:../src/tensorflow_lite/src/tensorflow/lite/micro/kernels/cmsis_nn/pooling.cpp ****   op_params.float_activation_max = activation_max;
  95:../src/tensorflow_lite/src/tensorflow/lite/micro/kernels/cmsis_nn/pooling.cpp ****   reference_ops::AveragePool(op_params, tflite::micro::GetTensorShape(input),
  96:../src/tensorflow_lite/src/tensorflow/lite/micro/kernels/cmsis_nn/pooling.cpp ****                              tflite::micro::GetTensorData<float>(input),
  97:../src/tensorflow_lite/src/tensorflow/lite/micro/kernels/cmsis_nn/pooling.cpp ****                              tflite::micro::GetTensorShape(output),
  98:../src/tensorflow_lite/src/tensorflow/lite/micro/kernels/cmsis_nn/pooling.cpp ****                              tflite::micro::GetTensorData<float>(output));
  99:../src/tensorflow_lite/src/tensorflow/lite/micro/kernels/cmsis_nn/pooling.cpp **** }
 100:../src/tensorflow_lite/src/tensorflow/lite/micro/kernels/cmsis_nn/pooling.cpp **** 
 101:../src/tensorflow_lite/src/tensorflow/lite/micro/kernels/cmsis_nn/pooling.cpp **** void AverageEvalQuantized(TfLiteContext* context, const TfLiteNode* node,
 102:../src/tensorflow_lite/src/tensorflow/lite/micro/kernels/cmsis_nn/pooling.cpp ****                           const TfLitePoolParams* params, const OpData& data,
 103:../src/tensorflow_lite/src/tensorflow/lite/micro/kernels/cmsis_nn/pooling.cpp ****                           const TfLiteEvalTensor* input,
 104:../src/tensorflow_lite/src/tensorflow/lite/micro/kernels/cmsis_nn/pooling.cpp ****                           TfLiteEvalTensor* output) {
 105:../src/tensorflow_lite/src/tensorflow/lite/micro/kernels/cmsis_nn/pooling.cpp ****   TFLITE_DCHECK(input->type == kTfLiteUInt8 || input->type == kTfLiteInt8);
 106:../src/tensorflow_lite/src/tensorflow/lite/micro/kernels/cmsis_nn/pooling.cpp **** 
 107:../src/tensorflow_lite/src/tensorflow/lite/micro/kernels/cmsis_nn/pooling.cpp ****   if (input->type == kTfLiteUInt8) {
 108:../src/tensorflow_lite/src/tensorflow/lite/micro/kernels/cmsis_nn/pooling.cpp ****     PoolParams op_params;
 109:../src/tensorflow_lite/src/tensorflow/lite/micro/kernels/cmsis_nn/pooling.cpp ****     op_params.stride_height = params->stride_height;
 110:../src/tensorflow_lite/src/tensorflow/lite/micro/kernels/cmsis_nn/pooling.cpp ****     op_params.stride_width = params->stride_width;
 111:../src/tensorflow_lite/src/tensorflow/lite/micro/kernels/cmsis_nn/pooling.cpp ****     op_params.filter_height = params->filter_height;
 112:../src/tensorflow_lite/src/tensorflow/lite/micro/kernels/cmsis_nn/pooling.cpp ****     op_params.filter_width = params->filter_width;
 113:../src/tensorflow_lite/src/tensorflow/lite/micro/kernels/cmsis_nn/pooling.cpp ****     op_params.padding_values.height = data.padding.height;
 114:../src/tensorflow_lite/src/tensorflow/lite/micro/kernels/cmsis_nn/pooling.cpp ****     op_params.padding_values.width = data.padding.width;
 115:../src/tensorflow_lite/src/tensorflow/lite/micro/kernels/cmsis_nn/pooling.cpp ****     op_params.quantized_activation_min = data.activation_min;
 116:../src/tensorflow_lite/src/tensorflow/lite/micro/kernels/cmsis_nn/pooling.cpp ****     op_params.quantized_activation_max = data.activation_max;
 117:../src/tensorflow_lite/src/tensorflow/lite/micro/kernels/cmsis_nn/pooling.cpp **** 
 118:../src/tensorflow_lite/src/tensorflow/lite/micro/kernels/cmsis_nn/pooling.cpp ****     reference_ops::AveragePool(op_params, tflite::micro::GetTensorShape(input),
 119:../src/tensorflow_lite/src/tensorflow/lite/micro/kernels/cmsis_nn/pooling.cpp ****                                tflite::micro::GetTensorData<uint8_t>(input),
 120:../src/tensorflow_lite/src/tensorflow/lite/micro/kernels/cmsis_nn/pooling.cpp ****                                tflite::micro::GetTensorShape(output),
 121:../src/tensorflow_lite/src/tensorflow/lite/micro/kernels/cmsis_nn/pooling.cpp ****                                tflite::micro::GetTensorData<uint8_t>(output));
 122:../src/tensorflow_lite/src/tensorflow/lite/micro/kernels/cmsis_nn/pooling.cpp ****   } else {
 123:../src/tensorflow_lite/src/tensorflow/lite/micro/kernels/cmsis_nn/pooling.cpp ****     RuntimeShape input_shape = tflite::micro::GetTensorShape(input);
 124:../src/tensorflow_lite/src/tensorflow/lite/micro/kernels/cmsis_nn/pooling.cpp ****     TFLITE_DCHECK_EQ(input_shape.DimensionsCount(), 4);
 125:../src/tensorflow_lite/src/tensorflow/lite/micro/kernels/cmsis_nn/pooling.cpp **** 
 126:../src/tensorflow_lite/src/tensorflow/lite/micro/kernels/cmsis_nn/pooling.cpp ****     RuntimeShape output_shape = tflite::micro::GetTensorShape(output);
 127:../src/tensorflow_lite/src/tensorflow/lite/micro/kernels/cmsis_nn/pooling.cpp ****     TFLITE_DCHECK_EQ(output_shape.DimensionsCount(), 4);
 128:../src/tensorflow_lite/src/tensorflow/lite/micro/kernels/cmsis_nn/pooling.cpp **** 
 129:../src/tensorflow_lite/src/tensorflow/lite/micro/kernels/cmsis_nn/pooling.cpp ****     const int depth = MatchingDim(input_shape, 3, output_shape, 3);
 130:../src/tensorflow_lite/src/tensorflow/lite/micro/kernels/cmsis_nn/pooling.cpp **** 
 131:../src/tensorflow_lite/src/tensorflow/lite/micro/kernels/cmsis_nn/pooling.cpp ****     cmsis_nn_dims input_dims;
 132:../src/tensorflow_lite/src/tensorflow/lite/micro/kernels/cmsis_nn/pooling.cpp ****     input_dims.n = 1;
 133:../src/tensorflow_lite/src/tensorflow/lite/micro/kernels/cmsis_nn/pooling.cpp ****     input_dims.h = input_shape.Dims(1);
 134:../src/tensorflow_lite/src/tensorflow/lite/micro/kernels/cmsis_nn/pooling.cpp ****     input_dims.w = input_shape.Dims(2);
 135:../src/tensorflow_lite/src/tensorflow/lite/micro/kernels/cmsis_nn/pooling.cpp ****     input_dims.c = depth;
 136:../src/tensorflow_lite/src/tensorflow/lite/micro/kernels/cmsis_nn/pooling.cpp **** 
 137:../src/tensorflow_lite/src/tensorflow/lite/micro/kernels/cmsis_nn/pooling.cpp ****     cmsis_nn_dims output_dims;
 138:../src/tensorflow_lite/src/tensorflow/lite/micro/kernels/cmsis_nn/pooling.cpp ****     output_dims.n = 1;
 139:../src/tensorflow_lite/src/tensorflow/lite/micro/kernels/cmsis_nn/pooling.cpp ****     output_dims.h = output_shape.Dims(1);
 140:../src/tensorflow_lite/src/tensorflow/lite/micro/kernels/cmsis_nn/pooling.cpp ****     output_dims.w = output_shape.Dims(2);
 141:../src/tensorflow_lite/src/tensorflow/lite/micro/kernels/cmsis_nn/pooling.cpp ****     output_dims.c = depth;
 142:../src/tensorflow_lite/src/tensorflow/lite/micro/kernels/cmsis_nn/pooling.cpp **** 
 143:../src/tensorflow_lite/src/tensorflow/lite/micro/kernels/cmsis_nn/pooling.cpp ****     cmsis_nn_pool_params pool_params;
 144:../src/tensorflow_lite/src/tensorflow/lite/micro/kernels/cmsis_nn/pooling.cpp ****     pool_params.stride.h = params->stride_height;
 145:../src/tensorflow_lite/src/tensorflow/lite/micro/kernels/cmsis_nn/pooling.cpp ****     pool_params.stride.w = params->stride_width;
 146:../src/tensorflow_lite/src/tensorflow/lite/micro/kernels/cmsis_nn/pooling.cpp ****     pool_params.padding.h = data.padding.height;
 147:../src/tensorflow_lite/src/tensorflow/lite/micro/kernels/cmsis_nn/pooling.cpp ****     pool_params.padding.w = data.padding.width;
 148:../src/tensorflow_lite/src/tensorflow/lite/micro/kernels/cmsis_nn/pooling.cpp ****     pool_params.activation.min = data.activation_min;
 149:../src/tensorflow_lite/src/tensorflow/lite/micro/kernels/cmsis_nn/pooling.cpp ****     pool_params.activation.max = data.activation_max;
 150:../src/tensorflow_lite/src/tensorflow/lite/micro/kernels/cmsis_nn/pooling.cpp **** 
 151:../src/tensorflow_lite/src/tensorflow/lite/micro/kernels/cmsis_nn/pooling.cpp ****     cmsis_nn_dims filter_dims;
 152:../src/tensorflow_lite/src/tensorflow/lite/micro/kernels/cmsis_nn/pooling.cpp ****     filter_dims.n = 1;
 153:../src/tensorflow_lite/src/tensorflow/lite/micro/kernels/cmsis_nn/pooling.cpp ****     filter_dims.h = params->filter_height;
 154:../src/tensorflow_lite/src/tensorflow/lite/micro/kernels/cmsis_nn/pooling.cpp ****     filter_dims.w = params->filter_width;
 155:../src/tensorflow_lite/src/tensorflow/lite/micro/kernels/cmsis_nn/pooling.cpp ****     filter_dims.c = 1;
 156:../src/tensorflow_lite/src/tensorflow/lite/micro/kernels/cmsis_nn/pooling.cpp **** 
 157:../src/tensorflow_lite/src/tensorflow/lite/micro/kernels/cmsis_nn/pooling.cpp ****     cmsis_nn_context ctx;
 158:../src/tensorflow_lite/src/tensorflow/lite/micro/kernels/cmsis_nn/pooling.cpp ****     ctx.buf = nullptr;
 159:../src/tensorflow_lite/src/tensorflow/lite/micro/kernels/cmsis_nn/pooling.cpp ****     ctx.size = 0;
 160:../src/tensorflow_lite/src/tensorflow/lite/micro/kernels/cmsis_nn/pooling.cpp ****     if (data.buffer_idx > -1) {
 161:../src/tensorflow_lite/src/tensorflow/lite/micro/kernels/cmsis_nn/pooling.cpp ****       ctx.buf = context->GetScratchBuffer(context, data.buffer_idx);
 162:../src/tensorflow_lite/src/tensorflow/lite/micro/kernels/cmsis_nn/pooling.cpp ****     }
 163:../src/tensorflow_lite/src/tensorflow/lite/micro/kernels/cmsis_nn/pooling.cpp **** 
 164:../src/tensorflow_lite/src/tensorflow/lite/micro/kernels/cmsis_nn/pooling.cpp ****     TFLITE_DCHECK_EQ(
 165:../src/tensorflow_lite/src/tensorflow/lite/micro/kernels/cmsis_nn/pooling.cpp ****         arm_avgpool_s8(&ctx, &pool_params, &input_dims,
 166:../src/tensorflow_lite/src/tensorflow/lite/micro/kernels/cmsis_nn/pooling.cpp ****                        tflite::micro::GetTensorData<int8_t>(input),
 167:../src/tensorflow_lite/src/tensorflow/lite/micro/kernels/cmsis_nn/pooling.cpp ****                        &filter_dims, &output_dims,
 168:../src/tensorflow_lite/src/tensorflow/lite/micro/kernels/cmsis_nn/pooling.cpp ****                        tflite::micro::GetTensorData<int8_t>(output)),
 169:../src/tensorflow_lite/src/tensorflow/lite/micro/kernels/cmsis_nn/pooling.cpp ****         ARM_MATH_SUCCESS);
 170:../src/tensorflow_lite/src/tensorflow/lite/micro/kernels/cmsis_nn/pooling.cpp ****   }
 171:../src/tensorflow_lite/src/tensorflow/lite/micro/kernels/cmsis_nn/pooling.cpp **** }
 172:../src/tensorflow_lite/src/tensorflow/lite/micro/kernels/cmsis_nn/pooling.cpp **** 
 173:../src/tensorflow_lite/src/tensorflow/lite/micro/kernels/cmsis_nn/pooling.cpp **** void MaxEvalFloat(TfLiteContext* context, TfLiteNode* node,
 174:../src/tensorflow_lite/src/tensorflow/lite/micro/kernels/cmsis_nn/pooling.cpp ****                   TfLitePoolParams* params, const OpData& data,
 175:../src/tensorflow_lite/src/tensorflow/lite/micro/kernels/cmsis_nn/pooling.cpp ****                   const TfLiteEvalTensor* input, TfLiteEvalTensor* output) {
 176:../src/tensorflow_lite/src/tensorflow/lite/micro/kernels/cmsis_nn/pooling.cpp ****   float activation_min, activation_max;
 177:../src/tensorflow_lite/src/tensorflow/lite/micro/kernels/cmsis_nn/pooling.cpp ****   CalculateActivationRange(params->activation, &activation_min,
 178:../src/tensorflow_lite/src/tensorflow/lite/micro/kernels/cmsis_nn/pooling.cpp ****                            &activation_max);
 179:../src/tensorflow_lite/src/tensorflow/lite/micro/kernels/cmsis_nn/pooling.cpp ****   tflite::PoolParams op_params;
 180:../src/tensorflow_lite/src/tensorflow/lite/micro/kernels/cmsis_nn/pooling.cpp ****   op_params.stride_height = params->stride_height;
 181:../src/tensorflow_lite/src/tensorflow/lite/micro/kernels/cmsis_nn/pooling.cpp ****   op_params.stride_width = params->stride_width;
 182:../src/tensorflow_lite/src/tensorflow/lite/micro/kernels/cmsis_nn/pooling.cpp ****   op_params.filter_height = params->filter_height;
 183:../src/tensorflow_lite/src/tensorflow/lite/micro/kernels/cmsis_nn/pooling.cpp ****   op_params.filter_width = params->filter_width;
 184:../src/tensorflow_lite/src/tensorflow/lite/micro/kernels/cmsis_nn/pooling.cpp ****   op_params.padding_values.height = data.padding.height;
 185:../src/tensorflow_lite/src/tensorflow/lite/micro/kernels/cmsis_nn/pooling.cpp ****   op_params.padding_values.width = data.padding.width;
 186:../src/tensorflow_lite/src/tensorflow/lite/micro/kernels/cmsis_nn/pooling.cpp ****   op_params.float_activation_min = data.activation_min_f32;
 187:../src/tensorflow_lite/src/tensorflow/lite/micro/kernels/cmsis_nn/pooling.cpp ****   op_params.float_activation_max = data.activation_max_f32;
 188:../src/tensorflow_lite/src/tensorflow/lite/micro/kernels/cmsis_nn/pooling.cpp ****   reference_ops::MaxPool(op_params, tflite::micro::GetTensorShape(input),
 189:../src/tensorflow_lite/src/tensorflow/lite/micro/kernels/cmsis_nn/pooling.cpp ****                          tflite::micro::GetTensorData<float>(input),
 190:../src/tensorflow_lite/src/tensorflow/lite/micro/kernels/cmsis_nn/pooling.cpp ****                          tflite::micro::GetTensorShape(output),
 191:../src/tensorflow_lite/src/tensorflow/lite/micro/kernels/cmsis_nn/pooling.cpp ****                          tflite::micro::GetTensorData<float>(output));
 192:../src/tensorflow_lite/src/tensorflow/lite/micro/kernels/cmsis_nn/pooling.cpp **** }
 193:../src/tensorflow_lite/src/tensorflow/lite/micro/kernels/cmsis_nn/pooling.cpp **** 
 194:../src/tensorflow_lite/src/tensorflow/lite/micro/kernels/cmsis_nn/pooling.cpp **** void MaxEvalQuantizedUInt8(TfLiteContext* context, TfLiteNode* node,
 195:../src/tensorflow_lite/src/tensorflow/lite/micro/kernels/cmsis_nn/pooling.cpp ****                            TfLitePoolParams* params, const OpData& data,
 196:../src/tensorflow_lite/src/tensorflow/lite/micro/kernels/cmsis_nn/pooling.cpp ****                            const TfLiteEvalTensor* input,
 197:../src/tensorflow_lite/src/tensorflow/lite/micro/kernels/cmsis_nn/pooling.cpp ****                            TfLiteEvalTensor* output) {
 198:../src/tensorflow_lite/src/tensorflow/lite/micro/kernels/cmsis_nn/pooling.cpp ****   tflite::PoolParams op_params;
 199:../src/tensorflow_lite/src/tensorflow/lite/micro/kernels/cmsis_nn/pooling.cpp ****   op_params.stride_height = params->stride_height;
 200:../src/tensorflow_lite/src/tensorflow/lite/micro/kernels/cmsis_nn/pooling.cpp ****   op_params.stride_width = params->stride_width;
 201:../src/tensorflow_lite/src/tensorflow/lite/micro/kernels/cmsis_nn/pooling.cpp ****   op_params.filter_height = params->filter_height;
 202:../src/tensorflow_lite/src/tensorflow/lite/micro/kernels/cmsis_nn/pooling.cpp ****   op_params.filter_width = params->filter_width;
 203:../src/tensorflow_lite/src/tensorflow/lite/micro/kernels/cmsis_nn/pooling.cpp ****   op_params.padding_values.height = data.padding.height;
 204:../src/tensorflow_lite/src/tensorflow/lite/micro/kernels/cmsis_nn/pooling.cpp ****   op_params.padding_values.width = data.padding.width;
 205:../src/tensorflow_lite/src/tensorflow/lite/micro/kernels/cmsis_nn/pooling.cpp ****   op_params.quantized_activation_min = data.activation_min;
 206:../src/tensorflow_lite/src/tensorflow/lite/micro/kernels/cmsis_nn/pooling.cpp ****   op_params.quantized_activation_max = data.activation_max;
 207:../src/tensorflow_lite/src/tensorflow/lite/micro/kernels/cmsis_nn/pooling.cpp ****   reference_ops::MaxPool(op_params, tflite::micro::GetTensorShape(input),
 208:../src/tensorflow_lite/src/tensorflow/lite/micro/kernels/cmsis_nn/pooling.cpp ****                          tflite::micro::GetTensorData<uint8_t>(input),
 209:../src/tensorflow_lite/src/tensorflow/lite/micro/kernels/cmsis_nn/pooling.cpp ****                          tflite::micro::GetTensorShape(output),
 210:../src/tensorflow_lite/src/tensorflow/lite/micro/kernels/cmsis_nn/pooling.cpp ****                          tflite::micro::GetTensorData<uint8_t>(output));
 211:../src/tensorflow_lite/src/tensorflow/lite/micro/kernels/cmsis_nn/pooling.cpp **** }
 212:../src/tensorflow_lite/src/tensorflow/lite/micro/kernels/cmsis_nn/pooling.cpp **** 
 213:../src/tensorflow_lite/src/tensorflow/lite/micro/kernels/cmsis_nn/pooling.cpp **** TfLiteStatus MaxEvalInt8(TfLiteContext* context, const TfLiteNode* node,
 214:../src/tensorflow_lite/src/tensorflow/lite/micro/kernels/cmsis_nn/pooling.cpp ****                          const TfLitePoolParams* params, const OpData& data,
 215:../src/tensorflow_lite/src/tensorflow/lite/micro/kernels/cmsis_nn/pooling.cpp ****                          const TfLiteEvalTensor* input,
 216:../src/tensorflow_lite/src/tensorflow/lite/micro/kernels/cmsis_nn/pooling.cpp ****                          TfLiteEvalTensor* output) {
 217:../src/tensorflow_lite/src/tensorflow/lite/micro/kernels/cmsis_nn/pooling.cpp ****   RuntimeShape input_shape = tflite::micro::GetTensorShape(input);
 218:../src/tensorflow_lite/src/tensorflow/lite/micro/kernels/cmsis_nn/pooling.cpp ****   RuntimeShape output_shape = tflite::micro::GetTensorShape(output);
 219:../src/tensorflow_lite/src/tensorflow/lite/micro/kernels/cmsis_nn/pooling.cpp ****   const int depth = MatchingDim(input_shape, 3, output_shape, 3);
 220:../src/tensorflow_lite/src/tensorflow/lite/micro/kernels/cmsis_nn/pooling.cpp **** 
 221:../src/tensorflow_lite/src/tensorflow/lite/micro/kernels/cmsis_nn/pooling.cpp ****   cmsis_nn_dims input_dims;
 222:../src/tensorflow_lite/src/tensorflow/lite/micro/kernels/cmsis_nn/pooling.cpp ****   input_dims.n = 1;
 223:../src/tensorflow_lite/src/tensorflow/lite/micro/kernels/cmsis_nn/pooling.cpp ****   input_dims.h = input_shape.Dims(1);
 224:../src/tensorflow_lite/src/tensorflow/lite/micro/kernels/cmsis_nn/pooling.cpp ****   input_dims.w = input_shape.Dims(2);
 225:../src/tensorflow_lite/src/tensorflow/lite/micro/kernels/cmsis_nn/pooling.cpp ****   input_dims.c = depth;
 226:../src/tensorflow_lite/src/tensorflow/lite/micro/kernels/cmsis_nn/pooling.cpp **** 
 227:../src/tensorflow_lite/src/tensorflow/lite/micro/kernels/cmsis_nn/pooling.cpp ****   cmsis_nn_dims output_dims;
 228:../src/tensorflow_lite/src/tensorflow/lite/micro/kernels/cmsis_nn/pooling.cpp ****   output_dims.n = 1;
 229:../src/tensorflow_lite/src/tensorflow/lite/micro/kernels/cmsis_nn/pooling.cpp ****   output_dims.h = output_shape.Dims(1);
 230:../src/tensorflow_lite/src/tensorflow/lite/micro/kernels/cmsis_nn/pooling.cpp ****   output_dims.w = output_shape.Dims(2);
 231:../src/tensorflow_lite/src/tensorflow/lite/micro/kernels/cmsis_nn/pooling.cpp ****   output_dims.c = depth;
 232:../src/tensorflow_lite/src/tensorflow/lite/micro/kernels/cmsis_nn/pooling.cpp **** 
 233:../src/tensorflow_lite/src/tensorflow/lite/micro/kernels/cmsis_nn/pooling.cpp ****   cmsis_nn_pool_params pool_params;
 234:../src/tensorflow_lite/src/tensorflow/lite/micro/kernels/cmsis_nn/pooling.cpp ****   pool_params.stride.h = params->stride_height;
 235:../src/tensorflow_lite/src/tensorflow/lite/micro/kernels/cmsis_nn/pooling.cpp ****   pool_params.stride.w = params->stride_width;
 236:../src/tensorflow_lite/src/tensorflow/lite/micro/kernels/cmsis_nn/pooling.cpp ****   pool_params.padding.h = data.padding.height;
 237:../src/tensorflow_lite/src/tensorflow/lite/micro/kernels/cmsis_nn/pooling.cpp ****   pool_params.padding.w = data.padding.width;
 238:../src/tensorflow_lite/src/tensorflow/lite/micro/kernels/cmsis_nn/pooling.cpp ****   pool_params.activation.min = data.activation_min;
 239:../src/tensorflow_lite/src/tensorflow/lite/micro/kernels/cmsis_nn/pooling.cpp ****   pool_params.activation.max = data.activation_max;
 240:../src/tensorflow_lite/src/tensorflow/lite/micro/kernels/cmsis_nn/pooling.cpp **** 
 241:../src/tensorflow_lite/src/tensorflow/lite/micro/kernels/cmsis_nn/pooling.cpp ****   cmsis_nn_dims filter_dims;
 242:../src/tensorflow_lite/src/tensorflow/lite/micro/kernels/cmsis_nn/pooling.cpp ****   filter_dims.n = 1;
 243:../src/tensorflow_lite/src/tensorflow/lite/micro/kernels/cmsis_nn/pooling.cpp ****   filter_dims.h = params->filter_height;
 244:../src/tensorflow_lite/src/tensorflow/lite/micro/kernels/cmsis_nn/pooling.cpp ****   filter_dims.w = params->filter_width;
 245:../src/tensorflow_lite/src/tensorflow/lite/micro/kernels/cmsis_nn/pooling.cpp ****   filter_dims.c = 1;
 246:../src/tensorflow_lite/src/tensorflow/lite/micro/kernels/cmsis_nn/pooling.cpp **** 
 247:../src/tensorflow_lite/src/tensorflow/lite/micro/kernels/cmsis_nn/pooling.cpp ****   cmsis_nn_context ctx;
 248:../src/tensorflow_lite/src/tensorflow/lite/micro/kernels/cmsis_nn/pooling.cpp ****   ctx.buf = nullptr;
 249:../src/tensorflow_lite/src/tensorflow/lite/micro/kernels/cmsis_nn/pooling.cpp ****   ctx.size = 0;
 250:../src/tensorflow_lite/src/tensorflow/lite/micro/kernels/cmsis_nn/pooling.cpp ****   if (data.buffer_idx > -1) {
 251:../src/tensorflow_lite/src/tensorflow/lite/micro/kernels/cmsis_nn/pooling.cpp ****     ctx.buf = context->GetScratchBuffer(context, data.buffer_idx);
 252:../src/tensorflow_lite/src/tensorflow/lite/micro/kernels/cmsis_nn/pooling.cpp ****   }
 253:../src/tensorflow_lite/src/tensorflow/lite/micro/kernels/cmsis_nn/pooling.cpp **** 
 254:../src/tensorflow_lite/src/tensorflow/lite/micro/kernels/cmsis_nn/pooling.cpp ****   TFLITE_DCHECK_EQ(
 255:../src/tensorflow_lite/src/tensorflow/lite/micro/kernels/cmsis_nn/pooling.cpp ****       arm_max_pool_s8(&ctx, &pool_params, &input_dims,
 256:../src/tensorflow_lite/src/tensorflow/lite/micro/kernels/cmsis_nn/pooling.cpp ****                       tflite::micro::GetTensorData<int8_t>(input), &filter_dims,
 257:../src/tensorflow_lite/src/tensorflow/lite/micro/kernels/cmsis_nn/pooling.cpp ****                       &output_dims,
 258:../src/tensorflow_lite/src/tensorflow/lite/micro/kernels/cmsis_nn/pooling.cpp ****                       tflite::micro::GetTensorData<int8_t>(output)),
 259:../src/tensorflow_lite/src/tensorflow/lite/micro/kernels/cmsis_nn/pooling.cpp ****       ARM_MATH_SUCCESS);
 260:../src/tensorflow_lite/src/tensorflow/lite/micro/kernels/cmsis_nn/pooling.cpp **** 
 261:../src/tensorflow_lite/src/tensorflow/lite/micro/kernels/cmsis_nn/pooling.cpp ****   return kTfLiteOk;
 262:../src/tensorflow_lite/src/tensorflow/lite/micro/kernels/cmsis_nn/pooling.cpp **** }
 263:../src/tensorflow_lite/src/tensorflow/lite/micro/kernels/cmsis_nn/pooling.cpp **** 
 264:../src/tensorflow_lite/src/tensorflow/lite/micro/kernels/cmsis_nn/pooling.cpp **** }  // namespace
 265:../src/tensorflow_lite/src/tensorflow/lite/micro/kernels/cmsis_nn/pooling.cpp **** 
 266:../src/tensorflow_lite/src/tensorflow/lite/micro/kernels/cmsis_nn/pooling.cpp **** void* Init(TfLiteContext* context, const char* buffer, size_t length) {
  27              		.loc 1 266 0
  28              		.cfi_startproc
  29              		@ args = 0, pretend = 0, frame = 0
  30              		@ frame_needed = 0, uses_anonymous_args = 0
  31              	.LVL0:
 267:../src/tensorflow_lite/src/tensorflow/lite/micro/kernels/cmsis_nn/pooling.cpp ****   TFLITE_DCHECK(context->AllocatePersistentBuffer != nullptr);
  32              		.loc 1 267 0
  33 0000 383090E5 		ldr	r3, [r0, #56]
  34 0004 000053E3 		cmp	r3, #0
  35 0008 0100000A 		beq	.L7
 268:../src/tensorflow_lite/src/tensorflow/lite/micro/kernels/cmsis_nn/pooling.cpp ****   return context->AllocatePersistentBuffer(context, sizeof(OpData));
  36              		.loc 1 268 0
  37 000c 2410A0E3 		mov	r1, #36
  38              	.LVL1:
  39 0010 13FF2FE1 		bx	r3
  40              	.LVL2:
  41              	.L7:
 266:../src/tensorflow_lite/src/tensorflow/lite/micro/kernels/cmsis_nn/pooling.cpp ****   TFLITE_DCHECK(context->AllocatePersistentBuffer != nullptr);
  42              		.loc 1 266 0 discriminator 1
  43 0014 10402DE9 		push	{r4, lr}
  44              		.save {r4, lr}
  45              		.cfi_def_cfa_offset 8
  46              		.cfi_offset 4, -8
  47              		.cfi_offset 14, -4
 267:../src/tensorflow_lite/src/tensorflow/lite/micro/kernels/cmsis_nn/pooling.cpp ****   TFLITE_DCHECK(context->AllocatePersistentBuffer != nullptr);
  48              		.loc 1 267 0 discriminator 1
  49 0018 FEFFFFEB 		bl	abort
  50              	.LVL3:
  51              		.cfi_endproc
  52              	.LFE5919:
  53              		.fnend
  55              		.global	__aeabi_idiv
  56              		.section	.text._ZN6tflite3ops5micro7pooling10MaxPrepareEP13TfLiteContextP10TfLiteNode,"ax",%progbi
  57              		.align	2
  58              		.global	_ZN6tflite3ops5micro7pooling10MaxPrepareEP13TfLiteContextP10TfLiteNode
  59              		.syntax unified
  60              		.arm
  61              		.fpu neon
  63              	_ZN6tflite3ops5micro7pooling10MaxPrepareEP13TfLiteContextP10TfLiteNode:
  64              		.fnstart
  65              	.LFB5920:
 269:../src/tensorflow_lite/src/tensorflow/lite/micro/kernels/cmsis_nn/pooling.cpp **** }
 270:../src/tensorflow_lite/src/tensorflow/lite/micro/kernels/cmsis_nn/pooling.cpp **** 
 271:../src/tensorflow_lite/src/tensorflow/lite/micro/kernels/cmsis_nn/pooling.cpp **** TfLiteStatus MaxPrepare(TfLiteContext* context, TfLiteNode* node) {
  66              		.loc 1 271 0
  67              		.cfi_startproc
  68              		@ args = 0, pretend = 0, frame = 16
  69              		@ frame_needed = 0, uses_anonymous_args = 0
  70              	.LVL4:
  71 0000 F04F2DE9 		push	{r4, r5, r6, r7, r8, r9, r10, fp, lr}
  72              		.save {r4, r5, r6, r7, r8, r9, r10, fp, lr}
  73              		.cfi_def_cfa_offset 36
  74              		.cfi_offset 4, -36
  75              		.cfi_offset 5, -32
  76              		.cfi_offset 6, -28
  77              		.cfi_offset 7, -24
  78              		.cfi_offset 8, -20
  79              		.cfi_offset 9, -16
  80              		.cfi_offset 10, -12
  81              		.cfi_offset 11, -8
  82              		.cfi_offset 14, -4
  83              		.pad #28
  84 0004 1CD04DE2 		sub	sp, sp, #28
  85              		.cfi_def_cfa_offset 64
 272:../src/tensorflow_lite/src/tensorflow/lite/micro/kernels/cmsis_nn/pooling.cpp ****   TFLITE_DCHECK(node->user_data != nullptr);
  86              		.loc 1 272 0
  87 0008 106091E5 		ldr	r6, [r1, #16]
  88 000c 000056E3 		cmp	r6, #0
  89 0010 6B00000A 		beq	.L10
 273:../src/tensorflow_lite/src/tensorflow/lite/micro/kernels/cmsis_nn/pooling.cpp ****   TFLITE_DCHECK(node->builtin_data != nullptr);
  90              		.loc 1 273 0
  91 0014 147091E5 		ldr	r7, [r1, #20]
  92 0018 0140A0E1 		mov	r4, r1
  93 001c 000057E3 		cmp	r7, #0
  94 0020 6700000A 		beq	.L10
  95              	.LVL5:
 274:../src/tensorflow_lite/src/tensorflow/lite/micro/kernels/cmsis_nn/pooling.cpp **** 
 275:../src/tensorflow_lite/src/tensorflow/lite/micro/kernels/cmsis_nn/pooling.cpp ****   OpData* data = static_cast<OpData*>(node->user_data);
 276:../src/tensorflow_lite/src/tensorflow/lite/micro/kernels/cmsis_nn/pooling.cpp ****   auto* params = reinterpret_cast<TfLitePoolParams*>(node->builtin_data);
 277:../src/tensorflow_lite/src/tensorflow/lite/micro/kernels/cmsis_nn/pooling.cpp **** 
 278:../src/tensorflow_lite/src/tensorflow/lite/micro/kernels/cmsis_nn/pooling.cpp ****   const TfLiteTensor* input = GetInput(context, node, kInputTensor);
  96              		.loc 1 278 0
  97 0024 0020A0E3 		mov	r2, #0
  98 0028 0080A0E1 		mov	r8, r0
  99 002c FEFFFFEB 		bl	_ZN6tflite8GetInputEPK13TfLiteContextPK10TfLiteNodei
 100              	.LVL6:
 279:../src/tensorflow_lite/src/tensorflow/lite/micro/kernels/cmsis_nn/pooling.cpp ****   TF_LITE_ENSURE(context, input != nullptr);
 101              		.loc 1 279 0
 102 0030 009050E2 		subs	r9, r0, #0
 103 0034 8200000A 		beq	.L41
 280:../src/tensorflow_lite/src/tensorflow/lite/micro/kernels/cmsis_nn/pooling.cpp ****   TfLiteTensor* output = GetOutput(context, node, kOutputTensor);
 104              		.loc 1 280 0
 105 0038 0410A0E1 		mov	r1, r4
 106 003c 0020A0E3 		mov	r2, #0
 107 0040 0800A0E1 		mov	r0, r8
 108              	.LVL7:
 109 0044 FEFFFFEB 		bl	_ZN6tflite9GetOutputEP13TfLiteContextPK10TfLiteNodei
 110              	.LVL8:
 281:../src/tensorflow_lite/src/tensorflow/lite/micro/kernels/cmsis_nn/pooling.cpp ****   TF_LITE_ENSURE(context, output != nullptr);
 111              		.loc 1 281 0
 112 0048 003050E2 		subs	r3, r0, #0
 113 004c 0C308DE5 		str	r3, [sp, #12]
 114 0050 8900000A 		beq	.L42
 115              	.LVL9:
 116              	.LBB400:
 117              	.LBB401:
 118              	.LBB402:
  58:../src/tensorflow_lite/src/tensorflow/lite/micro/kernels/cmsis_nn/pooling.cpp ****       /*dilation_rate_height=*/1,
 119              		.loc 1 58 0
 120 0054 045097E5 		ldr	r5, [r7, #4]
 121 0058 083099E5 		ldr	r3, [r9, #8]
 122              	.LVL10:
  61:../src/tensorflow_lite/src/tensorflow/lite/micro/kernels/cmsis_nn/pooling.cpp **** 
 123              		.loc 1 61 0
 124 005c 0C1097E5 		ldr	r1, [r7, #12]
 125              	.LBB403:
 126              	.LBB404:
 127              	.LBB405:
 128              	.LBB406:
 129              		.file 2 "C:/Renesas/e2studio_2021_01_workspace_RZA2M_ANPR/ANPR_RZA2M_RDK/src/tensorflow_lite/src/t
   1:C:/Renesas/e2studio_2021_01_workspace_RZA2M_ANPR/ANPR_RZA2M_RDK/src/tensorflow_lite/src/tensorflow/lite/kernels\padding.h **** /* Copyright 2017 The TensorFlow Authors. All Rights Reserved.
   2:C:/Renesas/e2studio_2021_01_workspace_RZA2M_ANPR/ANPR_RZA2M_RDK/src/tensorflow_lite/src/tensorflow/lite/kernels\padding.h **** 
   3:C:/Renesas/e2studio_2021_01_workspace_RZA2M_ANPR/ANPR_RZA2M_RDK/src/tensorflow_lite/src/tensorflow/lite/kernels\padding.h **** Licensed under the Apache License, Version 2.0 (the "License");
   4:C:/Renesas/e2studio_2021_01_workspace_RZA2M_ANPR/ANPR_RZA2M_RDK/src/tensorflow_lite/src/tensorflow/lite/kernels\padding.h **** you may not use this file except in compliance with the License.
   5:C:/Renesas/e2studio_2021_01_workspace_RZA2M_ANPR/ANPR_RZA2M_RDK/src/tensorflow_lite/src/tensorflow/lite/kernels\padding.h **** You may obtain a copy of the License at
   6:C:/Renesas/e2studio_2021_01_workspace_RZA2M_ANPR/ANPR_RZA2M_RDK/src/tensorflow_lite/src/tensorflow/lite/kernels\padding.h **** 
   7:C:/Renesas/e2studio_2021_01_workspace_RZA2M_ANPR/ANPR_RZA2M_RDK/src/tensorflow_lite/src/tensorflow/lite/kernels\padding.h ****     http://www.apache.org/licenses/LICENSE-2.0
   8:C:/Renesas/e2studio_2021_01_workspace_RZA2M_ANPR/ANPR_RZA2M_RDK/src/tensorflow_lite/src/tensorflow/lite/kernels\padding.h **** 
   9:C:/Renesas/e2studio_2021_01_workspace_RZA2M_ANPR/ANPR_RZA2M_RDK/src/tensorflow_lite/src/tensorflow/lite/kernels\padding.h **** Unless required by applicable law or agreed to in writing, software
  10:C:/Renesas/e2studio_2021_01_workspace_RZA2M_ANPR/ANPR_RZA2M_RDK/src/tensorflow_lite/src/tensorflow/lite/kernels\padding.h **** distributed under the License is distributed on an "AS IS" BASIS,
  11:C:/Renesas/e2studio_2021_01_workspace_RZA2M_ANPR/ANPR_RZA2M_RDK/src/tensorflow_lite/src/tensorflow/lite/kernels\padding.h **** WITHOUT WARRANTIES OR CONDITIONS OF ANY KIND, either express or implied.
  12:C:/Renesas/e2studio_2021_01_workspace_RZA2M_ANPR/ANPR_RZA2M_RDK/src/tensorflow_lite/src/tensorflow/lite/kernels\padding.h **** See the License for the specific language governing permissions and
  13:C:/Renesas/e2studio_2021_01_workspace_RZA2M_ANPR/ANPR_RZA2M_RDK/src/tensorflow_lite/src/tensorflow/lite/kernels\padding.h **** limitations under the License.
  14:C:/Renesas/e2studio_2021_01_workspace_RZA2M_ANPR/ANPR_RZA2M_RDK/src/tensorflow_lite/src/tensorflow/lite/kernels\padding.h **** ==============================================================================*/
  15:C:/Renesas/e2studio_2021_01_workspace_RZA2M_ANPR/ANPR_RZA2M_RDK/src/tensorflow_lite/src/tensorflow/lite/kernels\padding.h **** #ifndef TENSORFLOW_LITE_KERNELS_PADDING_H_
  16:C:/Renesas/e2studio_2021_01_workspace_RZA2M_ANPR/ANPR_RZA2M_RDK/src/tensorflow_lite/src/tensorflow/lite/kernels\padding.h **** #define TENSORFLOW_LITE_KERNELS_PADDING_H_
  17:C:/Renesas/e2studio_2021_01_workspace_RZA2M_ANPR/ANPR_RZA2M_RDK/src/tensorflow_lite/src/tensorflow/lite/kernels\padding.h **** 
  18:C:/Renesas/e2studio_2021_01_workspace_RZA2M_ANPR/ANPR_RZA2M_RDK/src/tensorflow_lite/src/tensorflow/lite/kernels\padding.h **** #include "tensorflow/lite/c/builtin_op_data.h"
  19:C:/Renesas/e2studio_2021_01_workspace_RZA2M_ANPR/ANPR_RZA2M_RDK/src/tensorflow_lite/src/tensorflow/lite/kernels\padding.h **** #include "tensorflow/lite/kernels/internal/types.h"
  20:C:/Renesas/e2studio_2021_01_workspace_RZA2M_ANPR/ANPR_RZA2M_RDK/src/tensorflow_lite/src/tensorflow/lite/kernels\padding.h **** 
  21:C:/Renesas/e2studio_2021_01_workspace_RZA2M_ANPR/ANPR_RZA2M_RDK/src/tensorflow_lite/src/tensorflow/lite/kernels\padding.h **** namespace tflite {
  22:C:/Renesas/e2studio_2021_01_workspace_RZA2M_ANPR/ANPR_RZA2M_RDK/src/tensorflow_lite/src/tensorflow/lite/kernels\padding.h **** 
  23:C:/Renesas/e2studio_2021_01_workspace_RZA2M_ANPR/ANPR_RZA2M_RDK/src/tensorflow_lite/src/tensorflow/lite/kernels\padding.h **** inline int ComputePadding(int stride, int dilation_rate, int in_size,
  24:C:/Renesas/e2studio_2021_01_workspace_RZA2M_ANPR/ANPR_RZA2M_RDK/src/tensorflow_lite/src/tensorflow/lite/kernels\padding.h ****                           int filter_size, int out_size) {
  25:C:/Renesas/e2studio_2021_01_workspace_RZA2M_ANPR/ANPR_RZA2M_RDK/src/tensorflow_lite/src/tensorflow/lite/kernels\padding.h ****   int effective_filter_size = (filter_size - 1) * dilation_rate + 1;
  26:C:/Renesas/e2studio_2021_01_workspace_RZA2M_ANPR/ANPR_RZA2M_RDK/src/tensorflow_lite/src/tensorflow/lite/kernels\padding.h ****   int padding = ((out_size - 1) * stride + effective_filter_size - in_size) / 2;
  27:C:/Renesas/e2studio_2021_01_workspace_RZA2M_ANPR/ANPR_RZA2M_RDK/src/tensorflow_lite/src/tensorflow/lite/kernels\padding.h ****   return padding > 0 ? padding : 0;
  28:C:/Renesas/e2studio_2021_01_workspace_RZA2M_ANPR/ANPR_RZA2M_RDK/src/tensorflow_lite/src/tensorflow/lite/kernels\padding.h **** }
  29:C:/Renesas/e2studio_2021_01_workspace_RZA2M_ANPR/ANPR_RZA2M_RDK/src/tensorflow_lite/src/tensorflow/lite/kernels\padding.h **** 
  30:C:/Renesas/e2studio_2021_01_workspace_RZA2M_ANPR/ANPR_RZA2M_RDK/src/tensorflow_lite/src/tensorflow/lite/kernels\padding.h **** // It's not guaranteed that padding is symmetric. It's important to keep
  31:C:/Renesas/e2studio_2021_01_workspace_RZA2M_ANPR/ANPR_RZA2M_RDK/src/tensorflow_lite/src/tensorflow/lite/kernels\padding.h **** // offset for algorithms need all paddings.
  32:C:/Renesas/e2studio_2021_01_workspace_RZA2M_ANPR/ANPR_RZA2M_RDK/src/tensorflow_lite/src/tensorflow/lite/kernels\padding.h **** inline int ComputePaddingWithOffset(int stride, int dilation_rate, int in_size,
  33:C:/Renesas/e2studio_2021_01_workspace_RZA2M_ANPR/ANPR_RZA2M_RDK/src/tensorflow_lite/src/tensorflow/lite/kernels\padding.h ****                                     int filter_size, int out_size,
  34:C:/Renesas/e2studio_2021_01_workspace_RZA2M_ANPR/ANPR_RZA2M_RDK/src/tensorflow_lite/src/tensorflow/lite/kernels\padding.h ****                                     int* offset) {
  35:C:/Renesas/e2studio_2021_01_workspace_RZA2M_ANPR/ANPR_RZA2M_RDK/src/tensorflow_lite/src/tensorflow/lite/kernels\padding.h ****   int effective_filter_size = (filter_size - 1) * dilation_rate + 1;
  36:C:/Renesas/e2studio_2021_01_workspace_RZA2M_ANPR/ANPR_RZA2M_RDK/src/tensorflow_lite/src/tensorflow/lite/kernels\padding.h ****   int total_padding =
  37:C:/Renesas/e2studio_2021_01_workspace_RZA2M_ANPR/ANPR_RZA2M_RDK/src/tensorflow_lite/src/tensorflow/lite/kernels\padding.h ****       ((out_size - 1) * stride + effective_filter_size - in_size);
  38:C:/Renesas/e2studio_2021_01_workspace_RZA2M_ANPR/ANPR_RZA2M_RDK/src/tensorflow_lite/src/tensorflow/lite/kernels\padding.h ****   total_padding = total_padding > 0 ? total_padding : 0;
  39:C:/Renesas/e2studio_2021_01_workspace_RZA2M_ANPR/ANPR_RZA2M_RDK/src/tensorflow_lite/src/tensorflow/lite/kernels\padding.h ****   *offset = total_padding % 2;
  40:C:/Renesas/e2studio_2021_01_workspace_RZA2M_ANPR/ANPR_RZA2M_RDK/src/tensorflow_lite/src/tensorflow/lite/kernels\padding.h ****   return total_padding / 2;
  41:C:/Renesas/e2studio_2021_01_workspace_RZA2M_ANPR/ANPR_RZA2M_RDK/src/tensorflow_lite/src/tensorflow/lite/kernels\padding.h **** }
  42:C:/Renesas/e2studio_2021_01_workspace_RZA2M_ANPR/ANPR_RZA2M_RDK/src/tensorflow_lite/src/tensorflow/lite/kernels\padding.h **** 
  43:C:/Renesas/e2studio_2021_01_workspace_RZA2M_ANPR/ANPR_RZA2M_RDK/src/tensorflow_lite/src/tensorflow/lite/kernels\padding.h **** // Matching GetWindowedOutputSize in TensorFlow.
  44:C:/Renesas/e2studio_2021_01_workspace_RZA2M_ANPR/ANPR_RZA2M_RDK/src/tensorflow_lite/src/tensorflow/lite/kernels\padding.h **** inline int ComputeOutSize(TfLitePadding padding, int image_size,
  45:C:/Renesas/e2studio_2021_01_workspace_RZA2M_ANPR/ANPR_RZA2M_RDK/src/tensorflow_lite/src/tensorflow/lite/kernels\padding.h ****                           int filter_size, int stride, int dilation_rate = 1) {
  46:C:/Renesas/e2studio_2021_01_workspace_RZA2M_ANPR/ANPR_RZA2M_RDK/src/tensorflow_lite/src/tensorflow/lite/kernels\padding.h ****   int effective_filter_size = (filter_size - 1) * dilation_rate + 1;
  47:C:/Renesas/e2studio_2021_01_workspace_RZA2M_ANPR/ANPR_RZA2M_RDK/src/tensorflow_lite/src/tensorflow/lite/kernels\padding.h **** 
  48:C:/Renesas/e2studio_2021_01_workspace_RZA2M_ANPR/ANPR_RZA2M_RDK/src/tensorflow_lite/src/tensorflow/lite/kernels\padding.h ****   // TODO(b/186448822): This uses 0 since the function has no other way to
  49:C:/Renesas/e2studio_2021_01_workspace_RZA2M_ANPR/ANPR_RZA2M_RDK/src/tensorflow_lite/src/tensorflow/lite/kernels\padding.h ****   // report error case
  50:C:/Renesas/e2studio_2021_01_workspace_RZA2M_ANPR/ANPR_RZA2M_RDK/src/tensorflow_lite/src/tensorflow/lite/kernels\padding.h ****   if (stride == 0) return 0;
 130              		.loc 2 50 0
 131 0060 000055E3 		cmp	r5, #0
 132              	.LBE406:
 133              	.LBE405:
 134              	.LBE404:
 135              	.LBE403:
  58:../src/tensorflow_lite/src/tensorflow/lite/micro/kernels/cmsis_nn/pooling.cpp ****       /*dilation_rate_height=*/1,
 136              		.loc 1 58 0
 137 0064 084097E5 		ldr	r4, [r7, #8]
 138              	.LVL11:
 139              	.LBB445:
 140              	.LBB446:
 141              		.file 3 "C:/Renesas/e2studio_2021_01_workspace_RZA2M_ANPR/ANPR_RZA2M_RDK/src/tensorflow_lite/src/t
   1:C:/Renesas/e2studio_2021_01_workspace_RZA2M_ANPR/ANPR_RZA2M_RDK/src/tensorflow_lite/src/tensorflow/lite/kernels\kernel_util.h **** /* Copyright 2017 The TensorFlow Authors. All Rights Reserved.
   2:C:/Renesas/e2studio_2021_01_workspace_RZA2M_ANPR/ANPR_RZA2M_RDK/src/tensorflow_lite/src/tensorflow/lite/kernels\kernel_util.h **** 
   3:C:/Renesas/e2studio_2021_01_workspace_RZA2M_ANPR/ANPR_RZA2M_RDK/src/tensorflow_lite/src/tensorflow/lite/kernels\kernel_util.h **** Licensed under the Apache License, Version 2.0 (the "License");
   4:C:/Renesas/e2studio_2021_01_workspace_RZA2M_ANPR/ANPR_RZA2M_RDK/src/tensorflow_lite/src/tensorflow/lite/kernels\kernel_util.h **** you may not use this file except in compliance with the License.
   5:C:/Renesas/e2studio_2021_01_workspace_RZA2M_ANPR/ANPR_RZA2M_RDK/src/tensorflow_lite/src/tensorflow/lite/kernels\kernel_util.h **** You may obtain a copy of the License at
   6:C:/Renesas/e2studio_2021_01_workspace_RZA2M_ANPR/ANPR_RZA2M_RDK/src/tensorflow_lite/src/tensorflow/lite/kernels\kernel_util.h **** 
   7:C:/Renesas/e2studio_2021_01_workspace_RZA2M_ANPR/ANPR_RZA2M_RDK/src/tensorflow_lite/src/tensorflow/lite/kernels\kernel_util.h ****     http://www.apache.org/licenses/LICENSE-2.0
   8:C:/Renesas/e2studio_2021_01_workspace_RZA2M_ANPR/ANPR_RZA2M_RDK/src/tensorflow_lite/src/tensorflow/lite/kernels\kernel_util.h **** 
   9:C:/Renesas/e2studio_2021_01_workspace_RZA2M_ANPR/ANPR_RZA2M_RDK/src/tensorflow_lite/src/tensorflow/lite/kernels\kernel_util.h **** Unless required by applicable law or agreed to in writing, software
  10:C:/Renesas/e2studio_2021_01_workspace_RZA2M_ANPR/ANPR_RZA2M_RDK/src/tensorflow_lite/src/tensorflow/lite/kernels\kernel_util.h **** distributed under the License is distributed on an "AS IS" BASIS,
  11:C:/Renesas/e2studio_2021_01_workspace_RZA2M_ANPR/ANPR_RZA2M_RDK/src/tensorflow_lite/src/tensorflow/lite/kernels\kernel_util.h **** WITHOUT WARRANTIES OR CONDITIONS OF ANY KIND, either express or implied.
  12:C:/Renesas/e2studio_2021_01_workspace_RZA2M_ANPR/ANPR_RZA2M_RDK/src/tensorflow_lite/src/tensorflow/lite/kernels\kernel_util.h **** See the License for the specific language governing permissions and
  13:C:/Renesas/e2studio_2021_01_workspace_RZA2M_ANPR/ANPR_RZA2M_RDK/src/tensorflow_lite/src/tensorflow/lite/kernels\kernel_util.h **** limitations under the License.
  14:C:/Renesas/e2studio_2021_01_workspace_RZA2M_ANPR/ANPR_RZA2M_RDK/src/tensorflow_lite/src/tensorflow/lite/kernels\kernel_util.h **** ==============================================================================*/
  15:C:/Renesas/e2studio_2021_01_workspace_RZA2M_ANPR/ANPR_RZA2M_RDK/src/tensorflow_lite/src/tensorflow/lite/kernels\kernel_util.h **** #ifndef TENSORFLOW_LITE_KERNELS_KERNEL_UTIL_H_
  16:C:/Renesas/e2studio_2021_01_workspace_RZA2M_ANPR/ANPR_RZA2M_RDK/src/tensorflow_lite/src/tensorflow/lite/kernels\kernel_util.h **** #define TENSORFLOW_LITE_KERNELS_KERNEL_UTIL_H_
  17:C:/Renesas/e2studio_2021_01_workspace_RZA2M_ANPR/ANPR_RZA2M_RDK/src/tensorflow_lite/src/tensorflow/lite/kernels\kernel_util.h **** 
  18:C:/Renesas/e2studio_2021_01_workspace_RZA2M_ANPR/ANPR_RZA2M_RDK/src/tensorflow_lite/src/tensorflow/lite/kernels\kernel_util.h **** #include <stdint.h>
  19:C:/Renesas/e2studio_2021_01_workspace_RZA2M_ANPR/ANPR_RZA2M_RDK/src/tensorflow_lite/src/tensorflow/lite/kernels\kernel_util.h **** 
  20:C:/Renesas/e2studio_2021_01_workspace_RZA2M_ANPR/ANPR_RZA2M_RDK/src/tensorflow_lite/src/tensorflow/lite/kernels\kernel_util.h **** #include <limits>
  21:C:/Renesas/e2studio_2021_01_workspace_RZA2M_ANPR/ANPR_RZA2M_RDK/src/tensorflow_lite/src/tensorflow/lite/kernels\kernel_util.h **** 
  22:C:/Renesas/e2studio_2021_01_workspace_RZA2M_ANPR/ANPR_RZA2M_RDK/src/tensorflow_lite/src/tensorflow/lite/kernels\kernel_util.h **** #include "tensorflow/lite/c/builtin_op_data.h"
  23:C:/Renesas/e2studio_2021_01_workspace_RZA2M_ANPR/ANPR_RZA2M_RDK/src/tensorflow_lite/src/tensorflow/lite/kernels\kernel_util.h **** #include "tensorflow/lite/c/common.h"
  24:C:/Renesas/e2studio_2021_01_workspace_RZA2M_ANPR/ANPR_RZA2M_RDK/src/tensorflow_lite/src/tensorflow/lite/kernels\kernel_util.h **** 
  25:C:/Renesas/e2studio_2021_01_workspace_RZA2M_ANPR/ANPR_RZA2M_RDK/src/tensorflow_lite/src/tensorflow/lite/kernels\kernel_util.h **** namespace tflite {
  26:C:/Renesas/e2studio_2021_01_workspace_RZA2M_ANPR/ANPR_RZA2M_RDK/src/tensorflow_lite/src/tensorflow/lite/kernels\kernel_util.h **** 
  27:C:/Renesas/e2studio_2021_01_workspace_RZA2M_ANPR/ANPR_RZA2M_RDK/src/tensorflow_lite/src/tensorflow/lite/kernels\kernel_util.h **** // A fair number of functions in this header have historically been inline.
  28:C:/Renesas/e2studio_2021_01_workspace_RZA2M_ANPR/ANPR_RZA2M_RDK/src/tensorflow_lite/src/tensorflow/lite/kernels\kernel_util.h **** // It is ok to change functions to not be inline if the latency with
  29:C:/Renesas/e2studio_2021_01_workspace_RZA2M_ANPR/ANPR_RZA2M_RDK/src/tensorflow_lite/src/tensorflow/lite/kernels\kernel_util.h **** // benchmark_model for MobileNet + MobileBERT is unaffected. If such a change is
  30:C:/Renesas/e2studio_2021_01_workspace_RZA2M_ANPR/ANPR_RZA2M_RDK/src/tensorflow_lite/src/tensorflow/lite/kernels\kernel_util.h **** // made, move the newly non-inlined function declarations to the top of this
  31:C:/Renesas/e2studio_2021_01_workspace_RZA2M_ANPR/ANPR_RZA2M_RDK/src/tensorflow_lite/src/tensorflow/lite/kernels\kernel_util.h **** // header file.
  32:C:/Renesas/e2studio_2021_01_workspace_RZA2M_ANPR/ANPR_RZA2M_RDK/src/tensorflow_lite/src/tensorflow/lite/kernels\kernel_util.h **** 
  33:C:/Renesas/e2studio_2021_01_workspace_RZA2M_ANPR/ANPR_RZA2M_RDK/src/tensorflow_lite/src/tensorflow/lite/kernels\kernel_util.h **** // Note: You must check if result is not null:
  34:C:/Renesas/e2studio_2021_01_workspace_RZA2M_ANPR/ANPR_RZA2M_RDK/src/tensorflow_lite/src/tensorflow/lite/kernels\kernel_util.h **** //
  35:C:/Renesas/e2studio_2021_01_workspace_RZA2M_ANPR/ANPR_RZA2M_RDK/src/tensorflow_lite/src/tensorflow/lite/kernels\kernel_util.h **** //   TfLiteTensor* my_tensor = GetInput(context, node, kMyTensorIdx);
  36:C:/Renesas/e2studio_2021_01_workspace_RZA2M_ANPR/ANPR_RZA2M_RDK/src/tensorflow_lite/src/tensorflow/lite/kernels\kernel_util.h **** //   TF_LITE_ENSURE(context, my_tensor != nullptr);
  37:C:/Renesas/e2studio_2021_01_workspace_RZA2M_ANPR/ANPR_RZA2M_RDK/src/tensorflow_lite/src/tensorflow/lite/kernels\kernel_util.h **** //
  38:C:/Renesas/e2studio_2021_01_workspace_RZA2M_ANPR/ANPR_RZA2M_RDK/src/tensorflow_lite/src/tensorflow/lite/kernels\kernel_util.h **** // This is because the index might point to the optional tensor constant
  39:C:/Renesas/e2studio_2021_01_workspace_RZA2M_ANPR/ANPR_RZA2M_RDK/src/tensorflow_lite/src/tensorflow/lite/kernels\kernel_util.h **** // (kTfLiteOptionalTensor) in which case there is no tensor to return.
  40:C:/Renesas/e2studio_2021_01_workspace_RZA2M_ANPR/ANPR_RZA2M_RDK/src/tensorflow_lite/src/tensorflow/lite/kernels\kernel_util.h **** const TfLiteTensor* GetInput(const TfLiteContext* context,
  41:C:/Renesas/e2studio_2021_01_workspace_RZA2M_ANPR/ANPR_RZA2M_RDK/src/tensorflow_lite/src/tensorflow/lite/kernels\kernel_util.h ****                              const TfLiteNode* node, int index);
  42:C:/Renesas/e2studio_2021_01_workspace_RZA2M_ANPR/ANPR_RZA2M_RDK/src/tensorflow_lite/src/tensorflow/lite/kernels\kernel_util.h **** 
  43:C:/Renesas/e2studio_2021_01_workspace_RZA2M_ANPR/ANPR_RZA2M_RDK/src/tensorflow_lite/src/tensorflow/lite/kernels\kernel_util.h **** // Same as `GetInput` but returns boolean and uses output argument for tensor.
  44:C:/Renesas/e2studio_2021_01_workspace_RZA2M_ANPR/ANPR_RZA2M_RDK/src/tensorflow_lite/src/tensorflow/lite/kernels\kernel_util.h **** //
  45:C:/Renesas/e2studio_2021_01_workspace_RZA2M_ANPR/ANPR_RZA2M_RDK/src/tensorflow_lite/src/tensorflow/lite/kernels\kernel_util.h **** //   TfLiteTensor* my_tensor;
  46:C:/Renesas/e2studio_2021_01_workspace_RZA2M_ANPR/ANPR_RZA2M_RDK/src/tensorflow_lite/src/tensorflow/lite/kernels\kernel_util.h **** //   TF_LITE_ENSURE_OK(context,
  47:C:/Renesas/e2studio_2021_01_workspace_RZA2M_ANPR/ANPR_RZA2M_RDK/src/tensorflow_lite/src/tensorflow/lite/kernels\kernel_util.h **** //                     GetInputSafe(context, node, kMyTensorIdx, &my_tensor));
  48:C:/Renesas/e2studio_2021_01_workspace_RZA2M_ANPR/ANPR_RZA2M_RDK/src/tensorflow_lite/src/tensorflow/lite/kernels\kernel_util.h **** //   // can use my_tensor directly from here onwards, it is not nullptr
  49:C:/Renesas/e2studio_2021_01_workspace_RZA2M_ANPR/ANPR_RZA2M_RDK/src/tensorflow_lite/src/tensorflow/lite/kernels\kernel_util.h **** //
  50:C:/Renesas/e2studio_2021_01_workspace_RZA2M_ANPR/ANPR_RZA2M_RDK/src/tensorflow_lite/src/tensorflow/lite/kernels\kernel_util.h **** // Should be used in cases where the binary size is too large.
  51:C:/Renesas/e2studio_2021_01_workspace_RZA2M_ANPR/ANPR_RZA2M_RDK/src/tensorflow_lite/src/tensorflow/lite/kernels\kernel_util.h **** TfLiteStatus GetInputSafe(const TfLiteContext* context, const TfLiteNode* node,
  52:C:/Renesas/e2studio_2021_01_workspace_RZA2M_ANPR/ANPR_RZA2M_RDK/src/tensorflow_lite/src/tensorflow/lite/kernels\kernel_util.h ****                           int index, const TfLiteTensor** tensor);
  53:C:/Renesas/e2studio_2021_01_workspace_RZA2M_ANPR/ANPR_RZA2M_RDK/src/tensorflow_lite/src/tensorflow/lite/kernels\kernel_util.h **** 
  54:C:/Renesas/e2studio_2021_01_workspace_RZA2M_ANPR/ANPR_RZA2M_RDK/src/tensorflow_lite/src/tensorflow/lite/kernels\kernel_util.h **** // Note: You must check if result is not null:
  55:C:/Renesas/e2studio_2021_01_workspace_RZA2M_ANPR/ANPR_RZA2M_RDK/src/tensorflow_lite/src/tensorflow/lite/kernels\kernel_util.h **** //
  56:C:/Renesas/e2studio_2021_01_workspace_RZA2M_ANPR/ANPR_RZA2M_RDK/src/tensorflow_lite/src/tensorflow/lite/kernels\kernel_util.h **** //   TfLiteTensor* my_tensor = GetVariableInput(context, node, kMyTensorIdx);
  57:C:/Renesas/e2studio_2021_01_workspace_RZA2M_ANPR/ANPR_RZA2M_RDK/src/tensorflow_lite/src/tensorflow/lite/kernels\kernel_util.h **** //   TF_LITE_ENSURE(context, my_tensor != nullptr);
  58:C:/Renesas/e2studio_2021_01_workspace_RZA2M_ANPR/ANPR_RZA2M_RDK/src/tensorflow_lite/src/tensorflow/lite/kernels\kernel_util.h **** //
  59:C:/Renesas/e2studio_2021_01_workspace_RZA2M_ANPR/ANPR_RZA2M_RDK/src/tensorflow_lite/src/tensorflow/lite/kernels\kernel_util.h **** // This is because the index might point to the optional tensor constant
  60:C:/Renesas/e2studio_2021_01_workspace_RZA2M_ANPR/ANPR_RZA2M_RDK/src/tensorflow_lite/src/tensorflow/lite/kernels\kernel_util.h **** // (kTfLiteOptionalTensor) in which case there is no tensor to return.
  61:C:/Renesas/e2studio_2021_01_workspace_RZA2M_ANPR/ANPR_RZA2M_RDK/src/tensorflow_lite/src/tensorflow/lite/kernels\kernel_util.h **** TfLiteTensor* GetVariableInput(TfLiteContext* context, const TfLiteNode* node,
  62:C:/Renesas/e2studio_2021_01_workspace_RZA2M_ANPR/ANPR_RZA2M_RDK/src/tensorflow_lite/src/tensorflow/lite/kernels\kernel_util.h ****                                int index);
  63:C:/Renesas/e2studio_2021_01_workspace_RZA2M_ANPR/ANPR_RZA2M_RDK/src/tensorflow_lite/src/tensorflow/lite/kernels\kernel_util.h **** 
  64:C:/Renesas/e2studio_2021_01_workspace_RZA2M_ANPR/ANPR_RZA2M_RDK/src/tensorflow_lite/src/tensorflow/lite/kernels\kernel_util.h **** // Note: You must check if result is not null:
  65:C:/Renesas/e2studio_2021_01_workspace_RZA2M_ANPR/ANPR_RZA2M_RDK/src/tensorflow_lite/src/tensorflow/lite/kernels\kernel_util.h **** //
  66:C:/Renesas/e2studio_2021_01_workspace_RZA2M_ANPR/ANPR_RZA2M_RDK/src/tensorflow_lite/src/tensorflow/lite/kernels\kernel_util.h **** //   TfLiteTensor* my_tensor = GetOutput(context, node, kMyTensorIdx);
  67:C:/Renesas/e2studio_2021_01_workspace_RZA2M_ANPR/ANPR_RZA2M_RDK/src/tensorflow_lite/src/tensorflow/lite/kernels\kernel_util.h **** //   TF_LITE_ENSURE(context, my_tensor != nullptr);
  68:C:/Renesas/e2studio_2021_01_workspace_RZA2M_ANPR/ANPR_RZA2M_RDK/src/tensorflow_lite/src/tensorflow/lite/kernels\kernel_util.h **** //
  69:C:/Renesas/e2studio_2021_01_workspace_RZA2M_ANPR/ANPR_RZA2M_RDK/src/tensorflow_lite/src/tensorflow/lite/kernels\kernel_util.h **** // This is because the index might point to the optional tensor constant
  70:C:/Renesas/e2studio_2021_01_workspace_RZA2M_ANPR/ANPR_RZA2M_RDK/src/tensorflow_lite/src/tensorflow/lite/kernels\kernel_util.h **** // (kTfLiteOptionalTensor) in which case there is no tensor to return.
  71:C:/Renesas/e2studio_2021_01_workspace_RZA2M_ANPR/ANPR_RZA2M_RDK/src/tensorflow_lite/src/tensorflow/lite/kernels\kernel_util.h **** TfLiteTensor* GetOutput(TfLiteContext* context, const TfLiteNode* node,
  72:C:/Renesas/e2studio_2021_01_workspace_RZA2M_ANPR/ANPR_RZA2M_RDK/src/tensorflow_lite/src/tensorflow/lite/kernels\kernel_util.h ****                         int index);
  73:C:/Renesas/e2studio_2021_01_workspace_RZA2M_ANPR/ANPR_RZA2M_RDK/src/tensorflow_lite/src/tensorflow/lite/kernels\kernel_util.h **** 
  74:C:/Renesas/e2studio_2021_01_workspace_RZA2M_ANPR/ANPR_RZA2M_RDK/src/tensorflow_lite/src/tensorflow/lite/kernels\kernel_util.h **** // Same as `GetOutput` but returns boolean and uses output argument for tensor.
  75:C:/Renesas/e2studio_2021_01_workspace_RZA2M_ANPR/ANPR_RZA2M_RDK/src/tensorflow_lite/src/tensorflow/lite/kernels\kernel_util.h **** //
  76:C:/Renesas/e2studio_2021_01_workspace_RZA2M_ANPR/ANPR_RZA2M_RDK/src/tensorflow_lite/src/tensorflow/lite/kernels\kernel_util.h **** //   TfLiteTensor* my_tensor;
  77:C:/Renesas/e2studio_2021_01_workspace_RZA2M_ANPR/ANPR_RZA2M_RDK/src/tensorflow_lite/src/tensorflow/lite/kernels\kernel_util.h **** //   TF_LITE_ENSURE_OK(context,
  78:C:/Renesas/e2studio_2021_01_workspace_RZA2M_ANPR/ANPR_RZA2M_RDK/src/tensorflow_lite/src/tensorflow/lite/kernels\kernel_util.h **** //                     GetOutputSafe(context, node, kMyTensorIdx, &my_tensor));
  79:C:/Renesas/e2studio_2021_01_workspace_RZA2M_ANPR/ANPR_RZA2M_RDK/src/tensorflow_lite/src/tensorflow/lite/kernels\kernel_util.h **** //   // can use my_tensor directly from here onwards, it is not nullptr
  80:C:/Renesas/e2studio_2021_01_workspace_RZA2M_ANPR/ANPR_RZA2M_RDK/src/tensorflow_lite/src/tensorflow/lite/kernels\kernel_util.h **** //
  81:C:/Renesas/e2studio_2021_01_workspace_RZA2M_ANPR/ANPR_RZA2M_RDK/src/tensorflow_lite/src/tensorflow/lite/kernels\kernel_util.h **** // Should be used in cases where the binary size is too large.
  82:C:/Renesas/e2studio_2021_01_workspace_RZA2M_ANPR/ANPR_RZA2M_RDK/src/tensorflow_lite/src/tensorflow/lite/kernels\kernel_util.h **** TfLiteStatus GetOutputSafe(const TfLiteContext* context, const TfLiteNode* node,
  83:C:/Renesas/e2studio_2021_01_workspace_RZA2M_ANPR/ANPR_RZA2M_RDK/src/tensorflow_lite/src/tensorflow/lite/kernels\kernel_util.h ****                            int index, TfLiteTensor** tensor);
  84:C:/Renesas/e2studio_2021_01_workspace_RZA2M_ANPR/ANPR_RZA2M_RDK/src/tensorflow_lite/src/tensorflow/lite/kernels\kernel_util.h **** 
  85:C:/Renesas/e2studio_2021_01_workspace_RZA2M_ANPR/ANPR_RZA2M_RDK/src/tensorflow_lite/src/tensorflow/lite/kernels\kernel_util.h **** // Note: You must check if result is not null:
  86:C:/Renesas/e2studio_2021_01_workspace_RZA2M_ANPR/ANPR_RZA2M_RDK/src/tensorflow_lite/src/tensorflow/lite/kernels\kernel_util.h **** //
  87:C:/Renesas/e2studio_2021_01_workspace_RZA2M_ANPR/ANPR_RZA2M_RDK/src/tensorflow_lite/src/tensorflow/lite/kernels\kernel_util.h **** //   TfLiteTensor* my_tensor = GetOptionalInputTensor(context, node, kIdx);
  88:C:/Renesas/e2studio_2021_01_workspace_RZA2M_ANPR/ANPR_RZA2M_RDK/src/tensorflow_lite/src/tensorflow/lite/kernels\kernel_util.h **** //   TF_LITE_ENSURE(context, my_tensor != nullptr);
  89:C:/Renesas/e2studio_2021_01_workspace_RZA2M_ANPR/ANPR_RZA2M_RDK/src/tensorflow_lite/src/tensorflow/lite/kernels\kernel_util.h **** //
  90:C:/Renesas/e2studio_2021_01_workspace_RZA2M_ANPR/ANPR_RZA2M_RDK/src/tensorflow_lite/src/tensorflow/lite/kernels\kernel_util.h **** // This is because the index might point to the optional tensor constant
  91:C:/Renesas/e2studio_2021_01_workspace_RZA2M_ANPR/ANPR_RZA2M_RDK/src/tensorflow_lite/src/tensorflow/lite/kernels\kernel_util.h **** // (kTfLiteOptionalTensor) in which case there is no tensor to return.
  92:C:/Renesas/e2studio_2021_01_workspace_RZA2M_ANPR/ANPR_RZA2M_RDK/src/tensorflow_lite/src/tensorflow/lite/kernels\kernel_util.h **** //
  93:C:/Renesas/e2studio_2021_01_workspace_RZA2M_ANPR/ANPR_RZA2M_RDK/src/tensorflow_lite/src/tensorflow/lite/kernels\kernel_util.h **** // Deprecated. GetInput has the same functionality.
  94:C:/Renesas/e2studio_2021_01_workspace_RZA2M_ANPR/ANPR_RZA2M_RDK/src/tensorflow_lite/src/tensorflow/lite/kernels\kernel_util.h **** const TfLiteTensor* GetOptionalInputTensor(const TfLiteContext* context,
  95:C:/Renesas/e2studio_2021_01_workspace_RZA2M_ANPR/ANPR_RZA2M_RDK/src/tensorflow_lite/src/tensorflow/lite/kernels\kernel_util.h ****                                            const TfLiteNode* node, int index);
  96:C:/Renesas/e2studio_2021_01_workspace_RZA2M_ANPR/ANPR_RZA2M_RDK/src/tensorflow_lite/src/tensorflow/lite/kernels\kernel_util.h **** 
  97:C:/Renesas/e2studio_2021_01_workspace_RZA2M_ANPR/ANPR_RZA2M_RDK/src/tensorflow_lite/src/tensorflow/lite/kernels\kernel_util.h **** #ifndef TF_LITE_STATIC_MEMORY
  98:C:/Renesas/e2studio_2021_01_workspace_RZA2M_ANPR/ANPR_RZA2M_RDK/src/tensorflow_lite/src/tensorflow/lite/kernels\kernel_util.h **** // Note: You must check if result is not null:
  99:C:/Renesas/e2studio_2021_01_workspace_RZA2M_ANPR/ANPR_RZA2M_RDK/src/tensorflow_lite/src/tensorflow/lite/kernels\kernel_util.h **** //
 100:C:/Renesas/e2studio_2021_01_workspace_RZA2M_ANPR/ANPR_RZA2M_RDK/src/tensorflow_lite/src/tensorflow/lite/kernels\kernel_util.h **** //   TfLiteTensor* my_tensor = GetTemporary(context, node, kMyTensorIdx);
 101:C:/Renesas/e2studio_2021_01_workspace_RZA2M_ANPR/ANPR_RZA2M_RDK/src/tensorflow_lite/src/tensorflow/lite/kernels\kernel_util.h **** //   TF_LITE_ENSURE(context, my_tensor != nullptr);
 102:C:/Renesas/e2studio_2021_01_workspace_RZA2M_ANPR/ANPR_RZA2M_RDK/src/tensorflow_lite/src/tensorflow/lite/kernels\kernel_util.h **** //
 103:C:/Renesas/e2studio_2021_01_workspace_RZA2M_ANPR/ANPR_RZA2M_RDK/src/tensorflow_lite/src/tensorflow/lite/kernels\kernel_util.h **** // This is because the index might point to the optional tensor constant
 104:C:/Renesas/e2studio_2021_01_workspace_RZA2M_ANPR/ANPR_RZA2M_RDK/src/tensorflow_lite/src/tensorflow/lite/kernels\kernel_util.h **** // (kTfLiteOptionalTensor) in which case there is no tensor to return.
 105:C:/Renesas/e2studio_2021_01_workspace_RZA2M_ANPR/ANPR_RZA2M_RDK/src/tensorflow_lite/src/tensorflow/lite/kernels\kernel_util.h **** TfLiteTensor* GetTemporary(TfLiteContext* context, const TfLiteNode* node,
 106:C:/Renesas/e2studio_2021_01_workspace_RZA2M_ANPR/ANPR_RZA2M_RDK/src/tensorflow_lite/src/tensorflow/lite/kernels\kernel_util.h ****                            int index);
 107:C:/Renesas/e2studio_2021_01_workspace_RZA2M_ANPR/ANPR_RZA2M_RDK/src/tensorflow_lite/src/tensorflow/lite/kernels\kernel_util.h **** 
 108:C:/Renesas/e2studio_2021_01_workspace_RZA2M_ANPR/ANPR_RZA2M_RDK/src/tensorflow_lite/src/tensorflow/lite/kernels\kernel_util.h **** // Same as `GetTemporary` but returns boolean and uses output argument for
 109:C:/Renesas/e2studio_2021_01_workspace_RZA2M_ANPR/ANPR_RZA2M_RDK/src/tensorflow_lite/src/tensorflow/lite/kernels\kernel_util.h **** // tensor.
 110:C:/Renesas/e2studio_2021_01_workspace_RZA2M_ANPR/ANPR_RZA2M_RDK/src/tensorflow_lite/src/tensorflow/lite/kernels\kernel_util.h **** //
 111:C:/Renesas/e2studio_2021_01_workspace_RZA2M_ANPR/ANPR_RZA2M_RDK/src/tensorflow_lite/src/tensorflow/lite/kernels\kernel_util.h **** //   TfLiteTensor* my_tensor;
 112:C:/Renesas/e2studio_2021_01_workspace_RZA2M_ANPR/ANPR_RZA2M_RDK/src/tensorflow_lite/src/tensorflow/lite/kernels\kernel_util.h **** //   TF_LITE_ENSURE_OK(context,
 113:C:/Renesas/e2studio_2021_01_workspace_RZA2M_ANPR/ANPR_RZA2M_RDK/src/tensorflow_lite/src/tensorflow/lite/kernels\kernel_util.h **** //                     GetTemporarySafe(context, node, kMyTensorIdx,
 114:C:/Renesas/e2studio_2021_01_workspace_RZA2M_ANPR/ANPR_RZA2M_RDK/src/tensorflow_lite/src/tensorflow/lite/kernels\kernel_util.h **** //                     &my_tensor));
 115:C:/Renesas/e2studio_2021_01_workspace_RZA2M_ANPR/ANPR_RZA2M_RDK/src/tensorflow_lite/src/tensorflow/lite/kernels\kernel_util.h **** //   // can use my_tensor directly from here onwards, it is not nullptr
 116:C:/Renesas/e2studio_2021_01_workspace_RZA2M_ANPR/ANPR_RZA2M_RDK/src/tensorflow_lite/src/tensorflow/lite/kernels\kernel_util.h **** //
 117:C:/Renesas/e2studio_2021_01_workspace_RZA2M_ANPR/ANPR_RZA2M_RDK/src/tensorflow_lite/src/tensorflow/lite/kernels\kernel_util.h **** // Should be used in cases where the binary size is too large.
 118:C:/Renesas/e2studio_2021_01_workspace_RZA2M_ANPR/ANPR_RZA2M_RDK/src/tensorflow_lite/src/tensorflow/lite/kernels\kernel_util.h **** TfLiteStatus GetTemporarySafe(const TfLiteContext* context,
 119:C:/Renesas/e2studio_2021_01_workspace_RZA2M_ANPR/ANPR_RZA2M_RDK/src/tensorflow_lite/src/tensorflow/lite/kernels\kernel_util.h ****                               const TfLiteNode* node, int index,
 120:C:/Renesas/e2studio_2021_01_workspace_RZA2M_ANPR/ANPR_RZA2M_RDK/src/tensorflow_lite/src/tensorflow/lite/kernels\kernel_util.h ****                               TfLiteTensor** tensor);
 121:C:/Renesas/e2studio_2021_01_workspace_RZA2M_ANPR/ANPR_RZA2M_RDK/src/tensorflow_lite/src/tensorflow/lite/kernels\kernel_util.h **** 
 122:C:/Renesas/e2studio_2021_01_workspace_RZA2M_ANPR/ANPR_RZA2M_RDK/src/tensorflow_lite/src/tensorflow/lite/kernels\kernel_util.h **** // Note: You must check if result is not null:
 123:C:/Renesas/e2studio_2021_01_workspace_RZA2M_ANPR/ANPR_RZA2M_RDK/src/tensorflow_lite/src/tensorflow/lite/kernels\kernel_util.h **** //
 124:C:/Renesas/e2studio_2021_01_workspace_RZA2M_ANPR/ANPR_RZA2M_RDK/src/tensorflow_lite/src/tensorflow/lite/kernels\kernel_util.h **** //   TfLiteTensor* my_tensor = GetIntermediates(context, node, kMyTensorIdx);
 125:C:/Renesas/e2studio_2021_01_workspace_RZA2M_ANPR/ANPR_RZA2M_RDK/src/tensorflow_lite/src/tensorflow/lite/kernels\kernel_util.h **** //   TF_LITE_ENSURE(context, my_tensor != nullptr);
 126:C:/Renesas/e2studio_2021_01_workspace_RZA2M_ANPR/ANPR_RZA2M_RDK/src/tensorflow_lite/src/tensorflow/lite/kernels\kernel_util.h **** //
 127:C:/Renesas/e2studio_2021_01_workspace_RZA2M_ANPR/ANPR_RZA2M_RDK/src/tensorflow_lite/src/tensorflow/lite/kernels\kernel_util.h **** // This is because the index might point to the optional tensor constant
 128:C:/Renesas/e2studio_2021_01_workspace_RZA2M_ANPR/ANPR_RZA2M_RDK/src/tensorflow_lite/src/tensorflow/lite/kernels\kernel_util.h **** // (kTfLiteOptionalTensor) in which case there is no tensor to return.
 129:C:/Renesas/e2studio_2021_01_workspace_RZA2M_ANPR/ANPR_RZA2M_RDK/src/tensorflow_lite/src/tensorflow/lite/kernels\kernel_util.h **** const TfLiteTensor* GetIntermediates(TfLiteContext* context,
 130:C:/Renesas/e2studio_2021_01_workspace_RZA2M_ANPR/ANPR_RZA2M_RDK/src/tensorflow_lite/src/tensorflow/lite/kernels\kernel_util.h ****                                      const TfLiteNode* node, int index);
 131:C:/Renesas/e2studio_2021_01_workspace_RZA2M_ANPR/ANPR_RZA2M_RDK/src/tensorflow_lite/src/tensorflow/lite/kernels\kernel_util.h **** 
 132:C:/Renesas/e2studio_2021_01_workspace_RZA2M_ANPR/ANPR_RZA2M_RDK/src/tensorflow_lite/src/tensorflow/lite/kernels\kernel_util.h **** // Same as `GetIntermediates` but returns boolean and uses output argument for
 133:C:/Renesas/e2studio_2021_01_workspace_RZA2M_ANPR/ANPR_RZA2M_RDK/src/tensorflow_lite/src/tensorflow/lite/kernels\kernel_util.h **** // tensor.
 134:C:/Renesas/e2studio_2021_01_workspace_RZA2M_ANPR/ANPR_RZA2M_RDK/src/tensorflow_lite/src/tensorflow/lite/kernels\kernel_util.h **** //
 135:C:/Renesas/e2studio_2021_01_workspace_RZA2M_ANPR/ANPR_RZA2M_RDK/src/tensorflow_lite/src/tensorflow/lite/kernels\kernel_util.h **** //   TfLiteTensor* my_tensor;
 136:C:/Renesas/e2studio_2021_01_workspace_RZA2M_ANPR/ANPR_RZA2M_RDK/src/tensorflow_lite/src/tensorflow/lite/kernels\kernel_util.h **** //   TF_LITE_ENSURE_OK(context,
 137:C:/Renesas/e2studio_2021_01_workspace_RZA2M_ANPR/ANPR_RZA2M_RDK/src/tensorflow_lite/src/tensorflow/lite/kernels\kernel_util.h **** //                     GetIntermediatesSafe(context, node, kMyTensorIdx,
 138:C:/Renesas/e2studio_2021_01_workspace_RZA2M_ANPR/ANPR_RZA2M_RDK/src/tensorflow_lite/src/tensorflow/lite/kernels\kernel_util.h **** //                     &my_tensor));
 139:C:/Renesas/e2studio_2021_01_workspace_RZA2M_ANPR/ANPR_RZA2M_RDK/src/tensorflow_lite/src/tensorflow/lite/kernels\kernel_util.h **** //   // can use my_tensor directly from here onwards, it is not nullptr
 140:C:/Renesas/e2studio_2021_01_workspace_RZA2M_ANPR/ANPR_RZA2M_RDK/src/tensorflow_lite/src/tensorflow/lite/kernels\kernel_util.h **** //
 141:C:/Renesas/e2studio_2021_01_workspace_RZA2M_ANPR/ANPR_RZA2M_RDK/src/tensorflow_lite/src/tensorflow/lite/kernels\kernel_util.h **** // Should be used in cases where the binary size is too large.
 142:C:/Renesas/e2studio_2021_01_workspace_RZA2M_ANPR/ANPR_RZA2M_RDK/src/tensorflow_lite/src/tensorflow/lite/kernels\kernel_util.h **** TfLiteStatus GetIntermediatesSafe(const TfLiteContext* context,
 143:C:/Renesas/e2studio_2021_01_workspace_RZA2M_ANPR/ANPR_RZA2M_RDK/src/tensorflow_lite/src/tensorflow/lite/kernels\kernel_util.h ****                                   const TfLiteNode* node, int index,
 144:C:/Renesas/e2studio_2021_01_workspace_RZA2M_ANPR/ANPR_RZA2M_RDK/src/tensorflow_lite/src/tensorflow/lite/kernels\kernel_util.h ****                                   TfLiteTensor** tensor);
 145:C:/Renesas/e2studio_2021_01_workspace_RZA2M_ANPR/ANPR_RZA2M_RDK/src/tensorflow_lite/src/tensorflow/lite/kernels\kernel_util.h **** #endif  // TF_LITE_STATIC_MEMORY
 146:C:/Renesas/e2studio_2021_01_workspace_RZA2M_ANPR/ANPR_RZA2M_RDK/src/tensorflow_lite/src/tensorflow/lite/kernels\kernel_util.h **** 
 147:C:/Renesas/e2studio_2021_01_workspace_RZA2M_ANPR/ANPR_RZA2M_RDK/src/tensorflow_lite/src/tensorflow/lite/kernels\kernel_util.h **** inline int NumDimensions(const TfLiteTensor* t) { return t->dims->size; }
 148:C:/Renesas/e2studio_2021_01_workspace_RZA2M_ANPR/ANPR_RZA2M_RDK/src/tensorflow_lite/src/tensorflow/lite/kernels\kernel_util.h **** inline int SizeOfDimension(const TfLiteTensor* t, int dim) {
 149:C:/Renesas/e2studio_2021_01_workspace_RZA2M_ANPR/ANPR_RZA2M_RDK/src/tensorflow_lite/src/tensorflow/lite/kernels\kernel_util.h ****   return t->dims->data[dim];
 142              		.loc 3 149 0
 143 0068 08B093E5 		ldr	fp, [r3, #8]
 144              	.LVL12:
 145              	.LBE446:
 146              	.LBE445:
  61:../src/tensorflow_lite/src/tensorflow/lite/micro/kernels/cmsis_nn/pooling.cpp **** 
 147              		.loc 1 61 0
 148 006c 08108DE5 		str	r1, [sp, #8]
  60:../src/tensorflow_lite/src/tensorflow/lite/micro/kernels/cmsis_nn/pooling.cpp ****       params->filter_width, params->padding, &out_height, &out_width);
 149              		.loc 1 60 0
 150 0070 102097E5 		ldr	r2, [r7, #16]
 151              	.LBB447:
 152              	.LBB448:
 153              		.loc 3 149 0
 154 0074 0C3093E5 		ldr	r3, [r3, #12]
 155              	.LVL13:
 156              	.LBE448:
 157              	.LBE447:
  61:../src/tensorflow_lite/src/tensorflow/lite/micro/kernels/cmsis_nn/pooling.cpp **** 
 158              		.loc 1 61 0
 159 0078 0010D7E5 		ldrb	r1, [r7]	@ zero_extendqisi2
 160              	.LVL14:
 161              	.LBB449:
 162              	.LBB439:
 163              	.LBB409:
 164              	.LBB407:
 165              		.loc 2 50 0
 166 007c 1900000A 		beq	.L14
  51:C:/Renesas/e2studio_2021_01_workspace_RZA2M_ANPR/ANPR_RZA2M_RDK/src/tensorflow_lite/src/tensorflow/lite/kernels\padding.h **** 
  52:C:/Renesas/e2studio_2021_01_workspace_RZA2M_ANPR/ANPR_RZA2M_RDK/src/tensorflow_lite/src/tensorflow/lite/kernels\padding.h ****   switch (padding) {
 167              		.loc 2 52 0
 168 0080 010051E3 		cmp	r1, #1
 169 0084 5100000A 		beq	.L15
 170 0088 020051E3 		cmp	r1, #2
 171 008c 1500001A 		bne	.L14
  53:C:/Renesas/e2studio_2021_01_workspace_RZA2M_ANPR/ANPR_RZA2M_RDK/src/tensorflow_lite/src/tensorflow/lite/kernels\padding.h ****     case kTfLitePaddingSame:
  54:C:/Renesas/e2studio_2021_01_workspace_RZA2M_ANPR/ANPR_RZA2M_RDK/src/tensorflow_lite/src/tensorflow/lite/kernels\padding.h ****       return (image_size + stride - 1) / stride;
  55:C:/Renesas/e2studio_2021_01_workspace_RZA2M_ANPR/ANPR_RZA2M_RDK/src/tensorflow_lite/src/tensorflow/lite/kernels\padding.h ****     case kTfLitePaddingValid:
  56:C:/Renesas/e2studio_2021_01_workspace_RZA2M_ANPR/ANPR_RZA2M_RDK/src/tensorflow_lite/src/tensorflow/lite/kernels\padding.h ****       return (image_size + stride - effective_filter_size) / stride;
 172              		.loc 2 56 0
 173 0090 050083E0 		add	r0, r3, r5
 174              	.LVL15:
 175 0094 10308DE5 		str	r3, [sp, #16]
 176 0098 08309DE5 		ldr	r3, [sp, #8]
 177              	.LVL16:
 178 009c 0510A0E1 		mov	r1, r5
 179              	.LVL17:
 180 00a0 14208DE5 		str	r2, [sp, #20]
 181 00a4 030040E0 		sub	r0, r0, r3
 182 00a8 FEFFFFEB 		bl	__aeabi_idiv
 183              	.LVL18:
 184              	.LBE407:
 185              	.LBE409:
 186              	.LBB410:
 187              	.LBB411:
  50:C:/Renesas/e2studio_2021_01_workspace_RZA2M_ANPR/ANPR_RZA2M_RDK/src/tensorflow_lite/src/tensorflow/lite/kernels\padding.h **** 
 188              		.loc 2 50 0
 189 00ac 000054E3 		cmp	r4, #0
 190 00b0 01A040E2 		sub	r10, r0, #1
 191 00b4 10309DE5 		ldr	r3, [sp, #16]
 192 00b8 14209DE5 		ldr	r2, [sp, #20]
 193 00bc 5E00000A 		beq	.L39
 194              	.LVL19:
 195              	.L21:
 196              		.loc 2 56 0
 197 00c0 04008BE0 		add	r0, fp, r4
 198 00c4 0410A0E1 		mov	r1, r4
 199 00c8 020040E0 		sub	r0, r0, r2
 200 00cc 14308DE5 		str	r3, [sp, #20]
 201 00d0 10208DE5 		str	r2, [sp, #16]
 202 00d4 FEFFFFEB 		bl	__aeabi_idiv
 203              	.LVL20:
 204 00d8 10209DE5 		ldr	r2, [sp, #16]
 205 00dc 010040E2 		sub	r0, r0, #1
 206 00e0 14309DE5 		ldr	r3, [sp, #20]
 207 00e4 070000EA 		b	.L19
 208              	.LVL21:
 209              	.L14:
  50:C:/Renesas/e2studio_2021_01_workspace_RZA2M_ANPR/ANPR_RZA2M_RDK/src/tensorflow_lite/src/tensorflow/lite/kernels\padding.h **** 
 210              		.loc 2 50 0
 211 00e8 000054E3 		cmp	r4, #0
 212 00ec 0300000A 		beq	.L37
  52:C:/Renesas/e2studio_2021_01_workspace_RZA2M_ANPR/ANPR_RZA2M_RDK/src/tensorflow_lite/src/tensorflow/lite/kernels\padding.h ****     case kTfLitePaddingSame:
 213              		.loc 2 52 0
 214 00f0 010051E3 		cmp	r1, #1
 215 00f4 6D00000A 		beq	.L29
 216 00f8 020051E3 		cmp	r1, #2
 217 00fc 3100000A 		beq	.L43
 218              	.L37:
 219 0100 00A0E0E3 		mvn	r10, #0
 220 0104 0A00A0E1 		mov	r0, r10
 221              	.LVL22:
 222              	.L19:
 223              	.LBE411:
 224              	.LBE410:
 225              	.LBB416:
 226              	.LBB417:
  37:C:/Renesas/e2studio_2021_01_workspace_RZA2M_ANPR/ANPR_RZA2M_RDK/src/tensorflow_lite/src/tensorflow/lite/kernels\padding.h ****   total_padding = total_padding > 0 ? total_padding : 0;
 227              		.loc 2 37 0
 228 0108 08109DE5 		ldr	r1, [sp, #8]
 229              	.LBE417:
 230              	.LBE416:
 231              	.LBB422:
 232              	.LBB423:
 233 010c 902424E0 		mla	r4, r0, r4, r2
 234              	.LVL23:
 235              	.LBE423:
 236              	.LBE422:
 237              	.LBE439:
 238              	.LBE449:
 239              	.LBB450:
  63:../src/tensorflow_lite/src/tensorflow/lite/micro/kernels/cmsis_nn/pooling.cpp ****     CalculateActivationRange(params->activation, &data->activation_min_f32,
 240              		.loc 1 63 0
 241 0110 0020D9E5 		ldrb	r2, [r9]	@ zero_extendqisi2
 242              	.LVL24:
 243              	.LBE450:
 244              	.LBB459:
 245              	.LBB440:
 246              	.LBB427:
 247              	.LBB418:
  37:C:/Renesas/e2studio_2021_01_workspace_RZA2M_ANPR/ANPR_RZA2M_RDK/src/tensorflow_lite/src/tensorflow/lite/kernels\padding.h ****   total_padding = total_padding > 0 ? total_padding : 0;
 248              		.loc 2 37 0
 249 0114 9A1525E0 		mla	r5, r10, r5, r1
 250              	.LVL25:
 251              	.LBE418:
 252              	.LBE427:
 253              	.LBB428:
 254              	.LBB424:
 255 0118 0BB044E0 		sub	fp, r4, fp
 256              	.LVL26:
  38:C:/Renesas/e2studio_2021_01_workspace_RZA2M_ANPR/ANPR_RZA2M_RDK/src/tensorflow_lite/src/tensorflow/lite/kernels\padding.h ****   *offset = total_padding % 2;
 257              		.loc 2 38 0
 258 011c CBBFCBE1 		bic	fp, fp, fp, asr #31
 259              	.LVL27:
 260              	.LBE424:
 261              	.LBE428:
 262              	.LBE440:
 263              	.LBE459:
 264              	.LBB460:
  63:../src/tensorflow_lite/src/tensorflow/lite/micro/kernels/cmsis_nn/pooling.cpp ****     CalculateActivationRange(params->activation, &data->activation_min_f32,
 265              		.loc 1 63 0
 266 0120 010052E3 		cmp	r2, #1
 267              	.LBE460:
 268              	.LBB461:
 269              	.LBB441:
 270              	.LBB429:
 271              	.LBB419:
  37:C:/Renesas/e2studio_2021_01_workspace_RZA2M_ANPR/ANPR_RZA2M_RDK/src/tensorflow_lite/src/tensorflow/lite/kernels\padding.h ****   total_padding = total_padding > 0 ? total_padding : 0;
 272              		.loc 2 37 0
 273 0124 033045E0 		sub	r3, r5, r3
 274              	.LVL28:
  38:C:/Renesas/e2studio_2021_01_workspace_RZA2M_ANPR/ANPR_RZA2M_RDK/src/tensorflow_lite/src/tensorflow/lite/kernels\padding.h ****   *offset = total_padding % 2;
 275              		.loc 2 38 0
 276 0128 C33FC3E1 		bic	r3, r3, r3, asr #31
 277              	.LVL29:
 278              	.LBE419:
 279              	.LBE429:
 280              	.LBB430:
 281              	.LBB425:
  40:C:/Renesas/e2studio_2021_01_workspace_RZA2M_ANPR/ANPR_RZA2M_RDK/src/tensorflow_lite/src/tensorflow/lite/kernels\padding.h **** }
 282              		.loc 2 40 0
 283 012c CB20A0E1 		asr	r2, fp, #1
 284              	.LBE425:
 285              	.LBE430:
 286              	.LBB431:
 287              	.LBB420:
 288 0130 C310A0E1 		asr	r1, r3, #1
 289              	.LBE420:
 290              	.LBE431:
 291              	.LBB432:
 292              	.LBB426:
  39:C:/Renesas/e2studio_2021_01_workspace_RZA2M_ANPR/ANPR_RZA2M_RDK/src/tensorflow_lite/src/tensorflow/lite/kernels\padding.h ****   return total_padding / 2;
 293              		.loc 2 39 0
 294 0134 01B00BE2 		and	fp, fp, #1
 295              	.LBE426:
 296              	.LBE432:
 297              	.LBB433:
 298              	.LBB421:
 299 0138 013003E2 		and	r3, r3, #1
 300              	.LBE421:
 301              	.LBE433:
 302              	.LBE441:
 303              	.LBE461:
  61:../src/tensorflow_lite/src/tensorflow/lite/micro/kernels/cmsis_nn/pooling.cpp **** 
 304              		.loc 1 61 0
 305 013c 0E0886E8 		stm	r6, {r1, r2, r3, fp}
 306              	.LBB462:
  63:../src/tensorflow_lite/src/tensorflow/lite/micro/kernels/cmsis_nn/pooling.cpp ****     CalculateActivationRange(params->activation, &data->activation_min_f32,
 307              		.loc 1 63 0
 308 0140 1200001A 		bne	.L22
  64:../src/tensorflow_lite/src/tensorflow/lite/micro/kernels/cmsis_nn/pooling.cpp ****                              &data->activation_max_f32);
 309              		.loc 1 64 0
 310 0144 1430D7E5 		ldrb	r3, [r7, #20]	@ zero_extendqisi2
 311              	.LVL30:
 312              	.LBB451:
 313              	.LBB452:
 150:C:/Renesas/e2studio_2021_01_workspace_RZA2M_ANPR/ANPR_RZA2M_RDK/src/tensorflow_lite/src/tensorflow/lite/kernels\kernel_util.h **** }
 151:C:/Renesas/e2studio_2021_01_workspace_RZA2M_ANPR/ANPR_RZA2M_RDK/src/tensorflow_lite/src/tensorflow/lite/kernels\kernel_util.h **** 
 152:C:/Renesas/e2studio_2021_01_workspace_RZA2M_ANPR/ANPR_RZA2M_RDK/src/tensorflow_lite/src/tensorflow/lite/kernels\kernel_util.h **** inline int NumInputs(const TfLiteNode* node) { return node->inputs->size; }
 153:C:/Renesas/e2studio_2021_01_workspace_RZA2M_ANPR/ANPR_RZA2M_RDK/src/tensorflow_lite/src/tensorflow/lite/kernels\kernel_util.h **** inline int NumOutputs(const TfLiteNode* node) { return node->outputs->size; }
 154:C:/Renesas/e2studio_2021_01_workspace_RZA2M_ANPR/ANPR_RZA2M_RDK/src/tensorflow_lite/src/tensorflow/lite/kernels\kernel_util.h **** 
 155:C:/Renesas/e2studio_2021_01_workspace_RZA2M_ANPR/ANPR_RZA2M_RDK/src/tensorflow_lite/src/tensorflow/lite/kernels\kernel_util.h **** #ifndef TF_LITE_STATIC_MEMORY
 156:C:/Renesas/e2studio_2021_01_workspace_RZA2M_ANPR/ANPR_RZA2M_RDK/src/tensorflow_lite/src/tensorflow/lite/kernels\kernel_util.h **** inline int NumIntermediates(const TfLiteNode* node) {
 157:C:/Renesas/e2studio_2021_01_workspace_RZA2M_ANPR/ANPR_RZA2M_RDK/src/tensorflow_lite/src/tensorflow/lite/kernels\kernel_util.h ****   return node->intermediates->size;
 158:C:/Renesas/e2studio_2021_01_workspace_RZA2M_ANPR/ANPR_RZA2M_RDK/src/tensorflow_lite/src/tensorflow/lite/kernels\kernel_util.h **** }
 159:C:/Renesas/e2studio_2021_01_workspace_RZA2M_ANPR/ANPR_RZA2M_RDK/src/tensorflow_lite/src/tensorflow/lite/kernels\kernel_util.h **** #endif  // TF_LITE_STATIC_MEMORY
 160:C:/Renesas/e2studio_2021_01_workspace_RZA2M_ANPR/ANPR_RZA2M_RDK/src/tensorflow_lite/src/tensorflow/lite/kernels\kernel_util.h **** 
 161:C:/Renesas/e2studio_2021_01_workspace_RZA2M_ANPR/ANPR_RZA2M_RDK/src/tensorflow_lite/src/tensorflow/lite/kernels\kernel_util.h **** inline int64_t NumElements(const TfLiteIntArray* dims) {
 162:C:/Renesas/e2studio_2021_01_workspace_RZA2M_ANPR/ANPR_RZA2M_RDK/src/tensorflow_lite/src/tensorflow/lite/kernels\kernel_util.h ****   int64_t count = 1;
 163:C:/Renesas/e2studio_2021_01_workspace_RZA2M_ANPR/ANPR_RZA2M_RDK/src/tensorflow_lite/src/tensorflow/lite/kernels\kernel_util.h ****   for (int i = 0; i < dims->size; ++i) {
 164:C:/Renesas/e2studio_2021_01_workspace_RZA2M_ANPR/ANPR_RZA2M_RDK/src/tensorflow_lite/src/tensorflow/lite/kernels\kernel_util.h ****     count *= dims->data[i];
 165:C:/Renesas/e2studio_2021_01_workspace_RZA2M_ANPR/ANPR_RZA2M_RDK/src/tensorflow_lite/src/tensorflow/lite/kernels\kernel_util.h ****   }
 166:C:/Renesas/e2studio_2021_01_workspace_RZA2M_ANPR/ANPR_RZA2M_RDK/src/tensorflow_lite/src/tensorflow/lite/kernels\kernel_util.h ****   return count;
 167:C:/Renesas/e2studio_2021_01_workspace_RZA2M_ANPR/ANPR_RZA2M_RDK/src/tensorflow_lite/src/tensorflow/lite/kernels\kernel_util.h **** }
 168:C:/Renesas/e2studio_2021_01_workspace_RZA2M_ANPR/ANPR_RZA2M_RDK/src/tensorflow_lite/src/tensorflow/lite/kernels\kernel_util.h **** 
 169:C:/Renesas/e2studio_2021_01_workspace_RZA2M_ANPR/ANPR_RZA2M_RDK/src/tensorflow_lite/src/tensorflow/lite/kernels\kernel_util.h **** inline int64_t NumElements(const TfLiteTensor* t) {
 170:C:/Renesas/e2studio_2021_01_workspace_RZA2M_ANPR/ANPR_RZA2M_RDK/src/tensorflow_lite/src/tensorflow/lite/kernels\kernel_util.h ****   return NumElements(t->dims);
 171:C:/Renesas/e2studio_2021_01_workspace_RZA2M_ANPR/ANPR_RZA2M_RDK/src/tensorflow_lite/src/tensorflow/lite/kernels\kernel_util.h **** }
 172:C:/Renesas/e2studio_2021_01_workspace_RZA2M_ANPR/ANPR_RZA2M_RDK/src/tensorflow_lite/src/tensorflow/lite/kernels\kernel_util.h **** 
 173:C:/Renesas/e2studio_2021_01_workspace_RZA2M_ANPR/ANPR_RZA2M_RDK/src/tensorflow_lite/src/tensorflow/lite/kernels\kernel_util.h **** // Determines whether tensor is constant.
 174:C:/Renesas/e2studio_2021_01_workspace_RZA2M_ANPR/ANPR_RZA2M_RDK/src/tensorflow_lite/src/tensorflow/lite/kernels\kernel_util.h **** // TODO(b/138199592): Introduce new query which checks for constant OR
 175:C:/Renesas/e2studio_2021_01_workspace_RZA2M_ANPR/ANPR_RZA2M_RDK/src/tensorflow_lite/src/tensorflow/lite/kernels\kernel_util.h **** // persistent-read-only, which would be useful for most tensor kernels that
 176:C:/Renesas/e2studio_2021_01_workspace_RZA2M_ANPR/ANPR_RZA2M_RDK/src/tensorflow_lite/src/tensorflow/lite/kernels\kernel_util.h **** // are potentially dynamic based on the input tensor value availability at the
 177:C:/Renesas/e2studio_2021_01_workspace_RZA2M_ANPR/ANPR_RZA2M_RDK/src/tensorflow_lite/src/tensorflow/lite/kernels\kernel_util.h **** // time of prepare.
 178:C:/Renesas/e2studio_2021_01_workspace_RZA2M_ANPR/ANPR_RZA2M_RDK/src/tensorflow_lite/src/tensorflow/lite/kernels\kernel_util.h **** inline bool IsConstantTensor(const TfLiteTensor* tensor) {
 179:C:/Renesas/e2studio_2021_01_workspace_RZA2M_ANPR/ANPR_RZA2M_RDK/src/tensorflow_lite/src/tensorflow/lite/kernels\kernel_util.h ****   return tensor->allocation_type == kTfLiteMmapRo;
 180:C:/Renesas/e2studio_2021_01_workspace_RZA2M_ANPR/ANPR_RZA2M_RDK/src/tensorflow_lite/src/tensorflow/lite/kernels\kernel_util.h **** }
 181:C:/Renesas/e2studio_2021_01_workspace_RZA2M_ANPR/ANPR_RZA2M_RDK/src/tensorflow_lite/src/tensorflow/lite/kernels\kernel_util.h **** 
 182:C:/Renesas/e2studio_2021_01_workspace_RZA2M_ANPR/ANPR_RZA2M_RDK/src/tensorflow_lite/src/tensorflow/lite/kernels\kernel_util.h **** // Determines whether tensor is dynamic. Note that a tensor can be non-const and
 183:C:/Renesas/e2studio_2021_01_workspace_RZA2M_ANPR/ANPR_RZA2M_RDK/src/tensorflow_lite/src/tensorflow/lite/kernels\kernel_util.h **** // not dynamic. This function specifically checks for a dynamic tensor.
 184:C:/Renesas/e2studio_2021_01_workspace_RZA2M_ANPR/ANPR_RZA2M_RDK/src/tensorflow_lite/src/tensorflow/lite/kernels\kernel_util.h **** inline bool IsDynamicTensor(const TfLiteTensor* tensor) {
 185:C:/Renesas/e2studio_2021_01_workspace_RZA2M_ANPR/ANPR_RZA2M_RDK/src/tensorflow_lite/src/tensorflow/lite/kernels\kernel_util.h ****   return tensor->allocation_type == kTfLiteDynamic;
 186:C:/Renesas/e2studio_2021_01_workspace_RZA2M_ANPR/ANPR_RZA2M_RDK/src/tensorflow_lite/src/tensorflow/lite/kernels\kernel_util.h **** }
 187:C:/Renesas/e2studio_2021_01_workspace_RZA2M_ANPR/ANPR_RZA2M_RDK/src/tensorflow_lite/src/tensorflow/lite/kernels\kernel_util.h **** 
 188:C:/Renesas/e2studio_2021_01_workspace_RZA2M_ANPR/ANPR_RZA2M_RDK/src/tensorflow_lite/src/tensorflow/lite/kernels\kernel_util.h **** // Sets tensor to dynamic.
 189:C:/Renesas/e2studio_2021_01_workspace_RZA2M_ANPR/ANPR_RZA2M_RDK/src/tensorflow_lite/src/tensorflow/lite/kernels\kernel_util.h **** inline void SetTensorToDynamic(TfLiteTensor* tensor) {
 190:C:/Renesas/e2studio_2021_01_workspace_RZA2M_ANPR/ANPR_RZA2M_RDK/src/tensorflow_lite/src/tensorflow/lite/kernels\kernel_util.h ****   if (tensor->allocation_type != kTfLiteDynamic) {
 191:C:/Renesas/e2studio_2021_01_workspace_RZA2M_ANPR/ANPR_RZA2M_RDK/src/tensorflow_lite/src/tensorflow/lite/kernels\kernel_util.h ****     tensor->allocation_type = kTfLiteDynamic;
 192:C:/Renesas/e2studio_2021_01_workspace_RZA2M_ANPR/ANPR_RZA2M_RDK/src/tensorflow_lite/src/tensorflow/lite/kernels\kernel_util.h ****     tensor->data.raw = nullptr;
 193:C:/Renesas/e2studio_2021_01_workspace_RZA2M_ANPR/ANPR_RZA2M_RDK/src/tensorflow_lite/src/tensorflow/lite/kernels\kernel_util.h ****   }
 194:C:/Renesas/e2studio_2021_01_workspace_RZA2M_ANPR/ANPR_RZA2M_RDK/src/tensorflow_lite/src/tensorflow/lite/kernels\kernel_util.h **** }
 195:C:/Renesas/e2studio_2021_01_workspace_RZA2M_ANPR/ANPR_RZA2M_RDK/src/tensorflow_lite/src/tensorflow/lite/kernels\kernel_util.h **** 
 196:C:/Renesas/e2studio_2021_01_workspace_RZA2M_ANPR/ANPR_RZA2M_RDK/src/tensorflow_lite/src/tensorflow/lite/kernels\kernel_util.h **** // Sets tensor to persistent and read-only.
 197:C:/Renesas/e2studio_2021_01_workspace_RZA2M_ANPR/ANPR_RZA2M_RDK/src/tensorflow_lite/src/tensorflow/lite/kernels\kernel_util.h **** inline void SetTensorToPersistentRo(TfLiteTensor* tensor) {
 198:C:/Renesas/e2studio_2021_01_workspace_RZA2M_ANPR/ANPR_RZA2M_RDK/src/tensorflow_lite/src/tensorflow/lite/kernels\kernel_util.h ****   if (tensor->allocation_type != kTfLitePersistentRo) {
 199:C:/Renesas/e2studio_2021_01_workspace_RZA2M_ANPR/ANPR_RZA2M_RDK/src/tensorflow_lite/src/tensorflow/lite/kernels\kernel_util.h ****     tensor->allocation_type = kTfLitePersistentRo;
 200:C:/Renesas/e2studio_2021_01_workspace_RZA2M_ANPR/ANPR_RZA2M_RDK/src/tensorflow_lite/src/tensorflow/lite/kernels\kernel_util.h ****     tensor->data.raw = nullptr;
 201:C:/Renesas/e2studio_2021_01_workspace_RZA2M_ANPR/ANPR_RZA2M_RDK/src/tensorflow_lite/src/tensorflow/lite/kernels\kernel_util.h ****   }
 202:C:/Renesas/e2studio_2021_01_workspace_RZA2M_ANPR/ANPR_RZA2M_RDK/src/tensorflow_lite/src/tensorflow/lite/kernels\kernel_util.h **** }
 203:C:/Renesas/e2studio_2021_01_workspace_RZA2M_ANPR/ANPR_RZA2M_RDK/src/tensorflow_lite/src/tensorflow/lite/kernels\kernel_util.h **** 
 204:C:/Renesas/e2studio_2021_01_workspace_RZA2M_ANPR/ANPR_RZA2M_RDK/src/tensorflow_lite/src/tensorflow/lite/kernels\kernel_util.h **** // Determines whether it is a hybrid op - one that has float inputs and
 205:C:/Renesas/e2studio_2021_01_workspace_RZA2M_ANPR/ANPR_RZA2M_RDK/src/tensorflow_lite/src/tensorflow/lite/kernels\kernel_util.h **** // quantized weights.
 206:C:/Renesas/e2studio_2021_01_workspace_RZA2M_ANPR/ANPR_RZA2M_RDK/src/tensorflow_lite/src/tensorflow/lite/kernels\kernel_util.h **** inline bool IsHybridOp(const TfLiteTensor* input, const TfLiteTensor* weight) {
 207:C:/Renesas/e2studio_2021_01_workspace_RZA2M_ANPR/ANPR_RZA2M_RDK/src/tensorflow_lite/src/tensorflow/lite/kernels\kernel_util.h ****   return ((weight->type == kTfLiteUInt8 || weight->type == kTfLiteInt8) &&
 208:C:/Renesas/e2studio_2021_01_workspace_RZA2M_ANPR/ANPR_RZA2M_RDK/src/tensorflow_lite/src/tensorflow/lite/kernels\kernel_util.h ****           input->type == kTfLiteFloat32);
 209:C:/Renesas/e2studio_2021_01_workspace_RZA2M_ANPR/ANPR_RZA2M_RDK/src/tensorflow_lite/src/tensorflow/lite/kernels\kernel_util.h **** }
 210:C:/Renesas/e2studio_2021_01_workspace_RZA2M_ANPR/ANPR_RZA2M_RDK/src/tensorflow_lite/src/tensorflow/lite/kernels\kernel_util.h **** 
 211:C:/Renesas/e2studio_2021_01_workspace_RZA2M_ANPR/ANPR_RZA2M_RDK/src/tensorflow_lite/src/tensorflow/lite/kernels\kernel_util.h **** // Check dimensionality match and populate OpData for Conv and DepthwiseConv.
 212:C:/Renesas/e2studio_2021_01_workspace_RZA2M_ANPR/ANPR_RZA2M_RDK/src/tensorflow_lite/src/tensorflow/lite/kernels\kernel_util.h **** TfLiteStatus PopulateConvolutionQuantizationParams(
 213:C:/Renesas/e2studio_2021_01_workspace_RZA2M_ANPR/ANPR_RZA2M_RDK/src/tensorflow_lite/src/tensorflow/lite/kernels\kernel_util.h ****     TfLiteContext* context, const TfLiteTensor* input,
 214:C:/Renesas/e2studio_2021_01_workspace_RZA2M_ANPR/ANPR_RZA2M_RDK/src/tensorflow_lite/src/tensorflow/lite/kernels\kernel_util.h ****     const TfLiteTensor* filter, const TfLiteTensor* bias, TfLiteTensor* output,
 215:C:/Renesas/e2studio_2021_01_workspace_RZA2M_ANPR/ANPR_RZA2M_RDK/src/tensorflow_lite/src/tensorflow/lite/kernels\kernel_util.h ****     const TfLiteFusedActivation& activation, int32_t* multiplier, int* shift,
 216:C:/Renesas/e2studio_2021_01_workspace_RZA2M_ANPR/ANPR_RZA2M_RDK/src/tensorflow_lite/src/tensorflow/lite/kernels\kernel_util.h ****     int32_t* output_activation_min, int32_t* output_activation_max,
 217:C:/Renesas/e2studio_2021_01_workspace_RZA2M_ANPR/ANPR_RZA2M_RDK/src/tensorflow_lite/src/tensorflow/lite/kernels\kernel_util.h ****     int32_t* per_channel_multiplier, int32_t* per_channel_shift);
 218:C:/Renesas/e2studio_2021_01_workspace_RZA2M_ANPR/ANPR_RZA2M_RDK/src/tensorflow_lite/src/tensorflow/lite/kernels\kernel_util.h **** 
 219:C:/Renesas/e2studio_2021_01_workspace_RZA2M_ANPR/ANPR_RZA2M_RDK/src/tensorflow_lite/src/tensorflow/lite/kernels\kernel_util.h **** TfLiteStatus PopulateConvolutionQuantizationParams(
 220:C:/Renesas/e2studio_2021_01_workspace_RZA2M_ANPR/ANPR_RZA2M_RDK/src/tensorflow_lite/src/tensorflow/lite/kernels\kernel_util.h ****     TfLiteContext* context, const TfLiteTensor* input,
 221:C:/Renesas/e2studio_2021_01_workspace_RZA2M_ANPR/ANPR_RZA2M_RDK/src/tensorflow_lite/src/tensorflow/lite/kernels\kernel_util.h ****     const TfLiteTensor* filter, const TfLiteTensor* bias, TfLiteTensor* output,
 222:C:/Renesas/e2studio_2021_01_workspace_RZA2M_ANPR/ANPR_RZA2M_RDK/src/tensorflow_lite/src/tensorflow/lite/kernels\kernel_util.h ****     const TfLiteFusedActivation& activation, int32_t* multiplier, int* shift,
 223:C:/Renesas/e2studio_2021_01_workspace_RZA2M_ANPR/ANPR_RZA2M_RDK/src/tensorflow_lite/src/tensorflow/lite/kernels\kernel_util.h ****     int32_t* output_activation_min, int32_t* output_activation_max,
 224:C:/Renesas/e2studio_2021_01_workspace_RZA2M_ANPR/ANPR_RZA2M_RDK/src/tensorflow_lite/src/tensorflow/lite/kernels\kernel_util.h ****     int32_t* per_channel_multiplier, int32_t* per_channel_shift,
 225:C:/Renesas/e2studio_2021_01_workspace_RZA2M_ANPR/ANPR_RZA2M_RDK/src/tensorflow_lite/src/tensorflow/lite/kernels\kernel_util.h ****     int num_channels);
 226:C:/Renesas/e2studio_2021_01_workspace_RZA2M_ANPR/ANPR_RZA2M_RDK/src/tensorflow_lite/src/tensorflow/lite/kernels\kernel_util.h **** 
 227:C:/Renesas/e2studio_2021_01_workspace_RZA2M_ANPR/ANPR_RZA2M_RDK/src/tensorflow_lite/src/tensorflow/lite/kernels\kernel_util.h **** // Calculates the multiplication factor for a quantized convolution (or
 228:C:/Renesas/e2studio_2021_01_workspace_RZA2M_ANPR/ANPR_RZA2M_RDK/src/tensorflow_lite/src/tensorflow/lite/kernels\kernel_util.h **** // quantized depthwise convolution) involving the given tensors. Returns an
 229:C:/Renesas/e2studio_2021_01_workspace_RZA2M_ANPR/ANPR_RZA2M_RDK/src/tensorflow_lite/src/tensorflow/lite/kernels\kernel_util.h **** // error if the scales of the tensors are not compatible.
 230:C:/Renesas/e2studio_2021_01_workspace_RZA2M_ANPR/ANPR_RZA2M_RDK/src/tensorflow_lite/src/tensorflow/lite/kernels\kernel_util.h **** TfLiteStatus GetQuantizedConvolutionMultipler(TfLiteContext* context,
 231:C:/Renesas/e2studio_2021_01_workspace_RZA2M_ANPR/ANPR_RZA2M_RDK/src/tensorflow_lite/src/tensorflow/lite/kernels\kernel_util.h ****                                               const TfLiteTensor* input,
 232:C:/Renesas/e2studio_2021_01_workspace_RZA2M_ANPR/ANPR_RZA2M_RDK/src/tensorflow_lite/src/tensorflow/lite/kernels\kernel_util.h ****                                               const TfLiteTensor* filter,
 233:C:/Renesas/e2studio_2021_01_workspace_RZA2M_ANPR/ANPR_RZA2M_RDK/src/tensorflow_lite/src/tensorflow/lite/kernels\kernel_util.h ****                                               const TfLiteTensor* bias,
 234:C:/Renesas/e2studio_2021_01_workspace_RZA2M_ANPR/ANPR_RZA2M_RDK/src/tensorflow_lite/src/tensorflow/lite/kernels\kernel_util.h ****                                               TfLiteTensor* output,
 235:C:/Renesas/e2studio_2021_01_workspace_RZA2M_ANPR/ANPR_RZA2M_RDK/src/tensorflow_lite/src/tensorflow/lite/kernels\kernel_util.h ****                                               double* multiplier);
 236:C:/Renesas/e2studio_2021_01_workspace_RZA2M_ANPR/ANPR_RZA2M_RDK/src/tensorflow_lite/src/tensorflow/lite/kernels\kernel_util.h **** 
 237:C:/Renesas/e2studio_2021_01_workspace_RZA2M_ANPR/ANPR_RZA2M_RDK/src/tensorflow_lite/src/tensorflow/lite/kernels\kernel_util.h **** TfLiteStatus GetQuantizedConvolutionMultipler(TfLiteContext* context,
 238:C:/Renesas/e2studio_2021_01_workspace_RZA2M_ANPR/ANPR_RZA2M_RDK/src/tensorflow_lite/src/tensorflow/lite/kernels\kernel_util.h ****                                               const TfLiteTensor* input,
 239:C:/Renesas/e2studio_2021_01_workspace_RZA2M_ANPR/ANPR_RZA2M_RDK/src/tensorflow_lite/src/tensorflow/lite/kernels\kernel_util.h ****                                               const TfLiteTensor* filter,
 240:C:/Renesas/e2studio_2021_01_workspace_RZA2M_ANPR/ANPR_RZA2M_RDK/src/tensorflow_lite/src/tensorflow/lite/kernels\kernel_util.h ****                                               TfLiteTensor* output,
 241:C:/Renesas/e2studio_2021_01_workspace_RZA2M_ANPR/ANPR_RZA2M_RDK/src/tensorflow_lite/src/tensorflow/lite/kernels\kernel_util.h ****                                               double* multiplier);
 242:C:/Renesas/e2studio_2021_01_workspace_RZA2M_ANPR/ANPR_RZA2M_RDK/src/tensorflow_lite/src/tensorflow/lite/kernels\kernel_util.h **** 
 243:C:/Renesas/e2studio_2021_01_workspace_RZA2M_ANPR/ANPR_RZA2M_RDK/src/tensorflow_lite/src/tensorflow/lite/kernels\kernel_util.h **** // Calculates the useful quantized range of an activation layer given its
 244:C:/Renesas/e2studio_2021_01_workspace_RZA2M_ANPR/ANPR_RZA2M_RDK/src/tensorflow_lite/src/tensorflow/lite/kernels\kernel_util.h **** // activation tensor.
 245:C:/Renesas/e2studio_2021_01_workspace_RZA2M_ANPR/ANPR_RZA2M_RDK/src/tensorflow_lite/src/tensorflow/lite/kernels\kernel_util.h **** TfLiteStatus CalculateActivationRangeQuantized(TfLiteContext* context,
 246:C:/Renesas/e2studio_2021_01_workspace_RZA2M_ANPR/ANPR_RZA2M_RDK/src/tensorflow_lite/src/tensorflow/lite/kernels\kernel_util.h ****                                                TfLiteFusedActivation activation,
 247:C:/Renesas/e2studio_2021_01_workspace_RZA2M_ANPR/ANPR_RZA2M_RDK/src/tensorflow_lite/src/tensorflow/lite/kernels\kernel_util.h ****                                                TfLiteTensor* output,
 248:C:/Renesas/e2studio_2021_01_workspace_RZA2M_ANPR/ANPR_RZA2M_RDK/src/tensorflow_lite/src/tensorflow/lite/kernels\kernel_util.h ****                                                int32_t* act_min,
 249:C:/Renesas/e2studio_2021_01_workspace_RZA2M_ANPR/ANPR_RZA2M_RDK/src/tensorflow_lite/src/tensorflow/lite/kernels\kernel_util.h ****                                                int32_t* act_max);
 250:C:/Renesas/e2studio_2021_01_workspace_RZA2M_ANPR/ANPR_RZA2M_RDK/src/tensorflow_lite/src/tensorflow/lite/kernels\kernel_util.h **** 
 251:C:/Renesas/e2studio_2021_01_workspace_RZA2M_ANPR/ANPR_RZA2M_RDK/src/tensorflow_lite/src/tensorflow/lite/kernels\kernel_util.h **** // Calculates the useful range of an activation layer given its activation
 252:C:/Renesas/e2studio_2021_01_workspace_RZA2M_ANPR/ANPR_RZA2M_RDK/src/tensorflow_lite/src/tensorflow/lite/kernels\kernel_util.h **** // tensor.a
 253:C:/Renesas/e2studio_2021_01_workspace_RZA2M_ANPR/ANPR_RZA2M_RDK/src/tensorflow_lite/src/tensorflow/lite/kernels\kernel_util.h **** template <typename T>
 254:C:/Renesas/e2studio_2021_01_workspace_RZA2M_ANPR/ANPR_RZA2M_RDK/src/tensorflow_lite/src/tensorflow/lite/kernels\kernel_util.h **** void CalculateActivationRange(TfLiteFusedActivation activation,
 255:C:/Renesas/e2studio_2021_01_workspace_RZA2M_ANPR/ANPR_RZA2M_RDK/src/tensorflow_lite/src/tensorflow/lite/kernels\kernel_util.h ****                               T* activation_min, T* activation_max) {
 256:C:/Renesas/e2studio_2021_01_workspace_RZA2M_ANPR/ANPR_RZA2M_RDK/src/tensorflow_lite/src/tensorflow/lite/kernels\kernel_util.h ****   if (activation == kTfLiteActRelu) {
 314              		.loc 3 256 0
 315 0148 010053E3 		cmp	r3, #1
 316 014c 3400000A 		beq	.L44
 257:C:/Renesas/e2studio_2021_01_workspace_RZA2M_ANPR/ANPR_RZA2M_RDK/src/tensorflow_lite/src/tensorflow/lite/kernels\kernel_util.h ****     *activation_min = 0;
 258:C:/Renesas/e2studio_2021_01_workspace_RZA2M_ANPR/ANPR_RZA2M_RDK/src/tensorflow_lite/src/tensorflow/lite/kernels\kernel_util.h ****     *activation_max = std::numeric_limits<T>::max();
 259:C:/Renesas/e2studio_2021_01_workspace_RZA2M_ANPR/ANPR_RZA2M_RDK/src/tensorflow_lite/src/tensorflow/lite/kernels\kernel_util.h ****   } else if (activation == kTfLiteActRelu6) {
 317              		.loc 3 259 0
 318 0150 030053E3 		cmp	r3, #3
 319 0154 5700000A 		beq	.L45
 260:C:/Renesas/e2studio_2021_01_workspace_RZA2M_ANPR/ANPR_RZA2M_RDK/src/tensorflow_lite/src/tensorflow/lite/kernels\kernel_util.h ****     *activation_min = 0;
 261:C:/Renesas/e2studio_2021_01_workspace_RZA2M_ANPR/ANPR_RZA2M_RDK/src/tensorflow_lite/src/tensorflow/lite/kernels\kernel_util.h ****     *activation_max = 6;
 262:C:/Renesas/e2studio_2021_01_workspace_RZA2M_ANPR/ANPR_RZA2M_RDK/src/tensorflow_lite/src/tensorflow/lite/kernels\kernel_util.h ****   } else if (activation == kTfLiteActReluN1To1) {
 320              		.loc 3 262 0
 321 0158 020053E3 		cmp	r3, #2
 263:C:/Renesas/e2studio_2021_01_workspace_RZA2M_ANPR/ANPR_RZA2M_RDK/src/tensorflow_lite/src/tensorflow/lite/kernels\kernel_util.h ****     *activation_min = -1;
 322              		.loc 3 263 0
 323 015c 0020A003 		moveq	r2, #0
 264:C:/Renesas/e2studio_2021_01_workspace_RZA2M_ANPR/ANPR_RZA2M_RDK/src/tensorflow_lite/src/tensorflow/lite/kernels\kernel_util.h ****     *activation_max = 1;
 265:C:/Renesas/e2studio_2021_01_workspace_RZA2M_ANPR/ANPR_RZA2M_RDK/src/tensorflow_lite/src/tensorflow/lite/kernels\kernel_util.h ****   } else {
 266:C:/Renesas/e2studio_2021_01_workspace_RZA2M_ANPR/ANPR_RZA2M_RDK/src/tensorflow_lite/src/tensorflow/lite/kernels\kernel_util.h ****     *activation_min = std::numeric_limits<T>::lowest();
 267:C:/Renesas/e2studio_2021_01_workspace_RZA2M_ANPR/ANPR_RZA2M_RDK/src/tensorflow_lite/src/tensorflow/lite/kernels\kernel_util.h ****     *activation_max = std::numeric_limits<T>::max();
 324              		.loc 3 267 0
 325 0160 FF3F0F13 		movwne	r3, #65535
 326              	.LVL31:
 263:C:/Renesas/e2studio_2021_01_workspace_RZA2M_ANPR/ANPR_RZA2M_RDK/src/tensorflow_lite/src/tensorflow/lite/kernels\kernel_util.h ****     *activation_min = -1;
 327              		.loc 3 263 0
 328 0164 802F4B03 		movteq	r2, 49024
 264:C:/Renesas/e2studio_2021_01_workspace_RZA2M_ANPR/ANPR_RZA2M_RDK/src/tensorflow_lite/src/tensorflow/lite/kernels\kernel_util.h ****     *activation_max = 1;
 329              		.loc 3 264 0
 330 0168 FE35A003 		moveq	r3, #1065353216
 266:C:/Renesas/e2studio_2021_01_workspace_RZA2M_ANPR/ANPR_RZA2M_RDK/src/tensorflow_lite/src/tensorflow/lite/kernels\kernel_util.h ****     *activation_max = std::numeric_limits<T>::max();
 331              		.loc 3 266 0
 332 016c 0225E013 		mvnne	r2, #8388608
 333              		.loc 3 267 0
 334 0170 7F3F4713 		movtne	r3, 32639
 266:C:/Renesas/e2studio_2021_01_workspace_RZA2M_ANPR/ANPR_RZA2M_RDK/src/tensorflow_lite/src/tensorflow/lite/kernels\kernel_util.h ****     *activation_max = std::numeric_limits<T>::max();
 335              		.loc 3 266 0
 336 0174 1C2086E5 		str	r2, [r6, #28]	@ float
 337              		.loc 3 267 0
 338 0178 203086E5 		str	r3, [r6, #32]	@ float
 339              	.LVL32:
 340              	.L24:
 341              	.LBE452:
 342              	.LBE451:
 343              	.LBE462:
 344              	.LBE402:
 345              	.LBE401:
 346              	.LBE400:
 282:../src/tensorflow_lite/src/tensorflow/lite/micro/kernels/cmsis_nn/pooling.cpp **** 
 283:../src/tensorflow_lite/src/tensorflow/lite/micro/kernels/cmsis_nn/pooling.cpp ****   TF_LITE_ENSURE_STATUS(CalculateOpData(context, params, input, output, data));
 284:../src/tensorflow_lite/src/tensorflow/lite/micro/kernels/cmsis_nn/pooling.cpp **** 
 285:../src/tensorflow_lite/src/tensorflow/lite/micro/kernels/cmsis_nn/pooling.cpp ****   return kTfLiteOk;
 347              		.loc 1 285 0
 348 017c 0000A0E3 		mov	r0, #0
 349              	.LBB477:
 350              	.LBB473:
 351              	.LBB469:
  74:../src/tensorflow_lite/src/tensorflow/lite/micro/kernels/cmsis_nn/pooling.cpp **** 
 352              		.loc 1 74 0
 353 0180 0030E0E3 		mvn	r3, #0
 354 0184 103086E5 		str	r3, [r6, #16]
 355              	.LVL33:
 356              	.L12:
 357              	.LBE469:
 358              	.LBE473:
 359              	.LBE477:
 286:../src/tensorflow_lite/src/tensorflow/lite/micro/kernels/cmsis_nn/pooling.cpp **** }
 360              		.loc 1 286 0
 361 0188 1CD08DE2 		add	sp, sp, #28
 362              		.cfi_remember_state
 363              		.cfi_def_cfa_offset 36
 364              		@ sp needed
 365 018c F08FBDE8 		pop	{r4, r5, r6, r7, r8, r9, r10, fp, pc}
 366              	.LVL34:
 367              	.L22:
 368              		.cfi_restore_state
 369              	.LBB478:
 370              	.LBB474:
 371              	.LBB470:
 372              	.LBB463:
 373              	.LBB455:
 374              	.LBB456:
  67:../src/tensorflow_lite/src/tensorflow/lite/micro/kernels/cmsis_nn/pooling.cpp ****         context, params->activation, output, &data->activation_min,
 375              		.loc 1 67 0
 376 0190 183086E2 		add	r3, r6, #24
 377 0194 1410D7E5 		ldrb	r1, [r7, #20]	@ zero_extendqisi2
 378 0198 0C209DE5 		ldr	r2, [sp, #12]
 379 019c 0800A0E1 		mov	r0, r8
 380 01a0 00308DE5 		str	r3, [sp]
 381 01a4 143086E2 		add	r3, r6, #20
 382 01a8 FEFFFFEB 		bl	_ZN6tflite33CalculateActivationRangeQuantizedEP13TfLiteContext21TfLiteFusedActivationP12TfLiteT
 383              	.LVL35:
 384 01ac 000050E3 		cmp	r0, #0
 385              	.LVL36:
 386 01b0 F4FFFF1A 		bne	.L12
 387              	.LBE456:
  70:../src/tensorflow_lite/src/tensorflow/lite/micro/kernels/cmsis_nn/pooling.cpp ****   }
 388              		.loc 1 70 0
 389 01b4 142096E5 		ldr	r2, [r6, #20]
 390 01b8 183096E5 		ldr	r3, [r6, #24]
 391 01bc 030052E1 		cmp	r2, r3
 392 01c0 EDFFFFDA 		ble	.L24
 393              	.LVL37:
 394              	.L10:
 395              	.LBE455:
 396              	.LBE463:
 397              	.LBE470:
 398              	.LBE474:
 399              	.LBE478:
 272:../src/tensorflow_lite/src/tensorflow/lite/micro/kernels/cmsis_nn/pooling.cpp ****   TFLITE_DCHECK(node->builtin_data != nullptr);
 400              		.loc 1 272 0 discriminator 1
 401 01c4 FEFFFFEB 		bl	abort
 402              	.LVL38:
 403              	.L43:
 404              	.LBB479:
 405              	.LBB475:
 406              	.LBB471:
 407              	.LBB464:
 408              	.LBB442:
 409              	.LBB434:
 410              	.LBB412:
  52:C:/Renesas/e2studio_2021_01_workspace_RZA2M_ANPR/ANPR_RZA2M_RDK/src/tensorflow_lite/src/tensorflow/lite/kernels\padding.h ****     case kTfLitePaddingSame:
 411              		.loc 2 52 0
 412 01c8 00A0E0E3 		mvn	r10, #0
 413 01cc BBFFFFEA 		b	.L21
 414              	.LVL39:
 415              	.L15:
 416              	.LBE412:
 417              	.LBE434:
 418              	.LBB435:
 419              	.LBB408:
  54:C:/Renesas/e2studio_2021_01_workspace_RZA2M_ANPR/ANPR_RZA2M_RDK/src/tensorflow_lite/src/tensorflow/lite/kernels\padding.h ****     case kTfLitePaddingValid:
 420              		.loc 2 54 0
 421 01d0 050083E0 		add	r0, r3, r5
 422              	.LVL40:
 423 01d4 0510A0E1 		mov	r1, r5
 424              	.LVL41:
 425 01d8 010040E2 		sub	r0, r0, #1
 426 01dc 14208DE5 		str	r2, [sp, #20]
 427 01e0 10308DE5 		str	r3, [sp, #16]
 428 01e4 FEFFFFEB 		bl	__aeabi_idiv
 429              	.LVL42:
 430              	.LBE408:
 431              	.LBE435:
 432              	.LBB436:
 433              	.LBB413:
  50:C:/Renesas/e2studio_2021_01_workspace_RZA2M_ANPR/ANPR_RZA2M_RDK/src/tensorflow_lite/src/tensorflow/lite/kernels\padding.h **** 
 434              		.loc 2 50 0
 435 01e8 000054E3 		cmp	r4, #0
 436 01ec 01A040E2 		sub	r10, r0, #1
 437 01f0 10309DE5 		ldr	r3, [sp, #16]
 438 01f4 14209DE5 		ldr	r2, [sp, #20]
 439 01f8 0F00000A 		beq	.L39
 440              	.LVL43:
 441              	.L18:
  54:C:/Renesas/e2studio_2021_01_workspace_RZA2M_ANPR/ANPR_RZA2M_RDK/src/tensorflow_lite/src/tensorflow/lite/kernels\padding.h ****     case kTfLitePaddingValid:
 442              		.loc 2 54 0
 443 01fc 04008BE0 		add	r0, fp, r4
 444 0200 0410A0E1 		mov	r1, r4
 445 0204 010040E2 		sub	r0, r0, #1
 446 0208 14208DE5 		str	r2, [sp, #20]
 447 020c 10308DE5 		str	r3, [sp, #16]
 448 0210 FEFFFFEB 		bl	__aeabi_idiv
 449              	.LVL44:
 450 0214 10309DE5 		ldr	r3, [sp, #16]
 451 0218 010040E2 		sub	r0, r0, #1
 452 021c 14209DE5 		ldr	r2, [sp, #20]
 453 0220 B8FFFFEA 		b	.L19
 454              	.LVL45:
 455              	.L44:
 456              	.LBE413:
 457              	.LBE436:
 458              	.LBE442:
 459              	.LBE464:
 460              	.LBB465:
 461              	.LBB457:
 462              	.LBB453:
 258:C:/Renesas/e2studio_2021_01_workspace_RZA2M_ANPR/ANPR_RZA2M_RDK/src/tensorflow_lite/src/tensorflow/lite/kernels\kernel_util.h ****   } else if (activation == kTfLiteActRelu6) {
 463              		.loc 3 258 0
 464 0224 FF3F0FE3 		movw	r3, #65535
 465              	.LVL46:
 257:C:/Renesas/e2studio_2021_01_workspace_RZA2M_ANPR/ANPR_RZA2M_RDK/src/tensorflow_lite/src/tensorflow/lite/kernels\kernel_util.h ****     *activation_max = std::numeric_limits<T>::max();
 466              		.loc 3 257 0
 467 0228 0020A0E3 		mov	r2, #0
 258:C:/Renesas/e2studio_2021_01_workspace_RZA2M_ANPR/ANPR_RZA2M_RDK/src/tensorflow_lite/src/tensorflow/lite/kernels\kernel_util.h ****   } else if (activation == kTfLiteActRelu6) {
 468              		.loc 3 258 0
 469 022c 7F3F47E3 		movt	r3, 32639
 257:C:/Renesas/e2studio_2021_01_workspace_RZA2M_ANPR/ANPR_RZA2M_RDK/src/tensorflow_lite/src/tensorflow/lite/kernels\kernel_util.h ****     *activation_max = std::numeric_limits<T>::max();
 470              		.loc 3 257 0
 471 0230 1C2086E5 		str	r2, [r6, #28]	@ float
 258:C:/Renesas/e2studio_2021_01_workspace_RZA2M_ANPR/ANPR_RZA2M_RDK/src/tensorflow_lite/src/tensorflow/lite/kernels\kernel_util.h ****   } else if (activation == kTfLiteActRelu6) {
 472              		.loc 3 258 0
 473 0234 203086E5 		str	r3, [r6, #32]	@ float
 474 0238 CFFFFFEA 		b	.L24
 475              	.LVL47:
 476              	.L39:
 477              	.LBE453:
 478              	.LBE457:
 479              	.LBE465:
 480              	.LBB466:
 481              	.LBB443:
 482              	.LBB437:
 483              	.LBB414:
  50:C:/Renesas/e2studio_2021_01_workspace_RZA2M_ANPR/ANPR_RZA2M_RDK/src/tensorflow_lite/src/tensorflow/lite/kernels\padding.h **** 
 484              		.loc 2 50 0
 485 023c 0000E0E3 		mvn	r0, #0
 486              	.LVL48:
 487 0240 B0FFFFEA 		b	.L19
 488              	.LVL49:
 489              	.L41:
 490              	.LBE414:
 491              	.LBE437:
 492              	.LBE443:
 493              	.LBE466:
 494              	.LBE471:
 495              	.LBE475:
 496              	.LBE479:
 279:../src/tensorflow_lite/src/tensorflow/lite/micro/kernels/cmsis_nn/pooling.cpp ****   TfLiteTensor* output = GetOutput(context, node, kOutputTensor);
 497              		.loc 1 279 0 discriminator 1
 498 0244 003000E3 		movw	r3, #:lower16:.LC4
 499 0248 002000E3 		movw	r2, #:lower16:.LC2
 500 024c 003040E3 		movt	r3, #:upper16:.LC4
 501 0250 001000E3 		movw	r1, #:lower16:.LC3
 502 0254 00308DE5 		str	r3, [sp]
 503 0258 0800A0E1 		mov	r0, r8
 504              	.LVL50:
 505 025c 002040E3 		movt	r2, #:upper16:.LC2
 506 0260 001040E3 		movt	r1, #:upper16:.LC3
 507 0264 144098E5 		ldr	r4, [r8, #20]
 508              	.LVL51:
 509 0268 173100E3 		movw	r3, #279
 510 026c 34FF2FE1 		blx	r4
 511              	.LVL52:
 512 0270 0100A0E3 		mov	r0, #1
 513              		.loc 1 286 0 discriminator 1
 514 0274 1CD08DE2 		add	sp, sp, #28
 515              		.cfi_remember_state
 516              		.cfi_def_cfa_offset 36
 517              		@ sp needed
 518 0278 F08FBDE8 		pop	{r4, r5, r6, r7, r8, r9, r10, fp, pc}
 519              	.LVL53:
 520              	.L42:
 521              		.cfi_restore_state
 281:../src/tensorflow_lite/src/tensorflow/lite/micro/kernels/cmsis_nn/pooling.cpp **** 
 522              		.loc 1 281 0 discriminator 1
 523 027c 003000E3 		movw	r3, #:lower16:.LC5
 524 0280 002000E3 		movw	r2, #:lower16:.LC2
 525 0284 003040E3 		movt	r3, #:upper16:.LC5
 526 0288 001000E3 		movw	r1, #:lower16:.LC3
 527 028c 00308DE5 		str	r3, [sp]
 528 0290 0800A0E1 		mov	r0, r8
 529              	.LVL54:
 530 0294 002040E3 		movt	r2, #:upper16:.LC2
 531 0298 001040E3 		movt	r1, #:upper16:.LC3
 532 029c 144098E5 		ldr	r4, [r8, #20]
 533              	.LVL55:
 534 02a0 193100E3 		movw	r3, #281
 535 02a4 34FF2FE1 		blx	r4
 536              	.LVL56:
 537 02a8 0100A0E3 		mov	r0, #1
 538 02ac B5FFFFEA 		b	.L12
 539              	.LVL57:
 540              	.L29:
 541              	.LBB480:
 542              	.LBB476:
 543              	.LBB472:
 544              	.LBB467:
 545              	.LBB444:
 546              	.LBB438:
 547              	.LBB415:
  52:C:/Renesas/e2studio_2021_01_workspace_RZA2M_ANPR/ANPR_RZA2M_RDK/src/tensorflow_lite/src/tensorflow/lite/kernels\padding.h ****     case kTfLitePaddingSame:
 548              		.loc 2 52 0
 549 02b0 00A0E0E3 		mvn	r10, #0
 550 02b4 D0FFFFEA 		b	.L18
 551              	.LVL58:
 552              	.L45:
 553              	.LBE415:
 554              	.LBE438:
 555              	.LBE444:
 556              	.LBE467:
 557              	.LBB468:
 558              	.LBB458:
 559              	.LBB454:
 261:C:/Renesas/e2studio_2021_01_workspace_RZA2M_ANPR/ANPR_RZA2M_RDK/src/tensorflow_lite/src/tensorflow/lite/kernels\kernel_util.h ****   } else if (activation == kTfLiteActReluN1To1) {
 560              		.loc 3 261 0
 561 02b8 0030A0E3 		mov	r3, #0
 562              	.LVL59:
 260:C:/Renesas/e2studio_2021_01_workspace_RZA2M_ANPR/ANPR_RZA2M_RDK/src/tensorflow_lite/src/tensorflow/lite/kernels\kernel_util.h ****     *activation_max = 6;
 563              		.loc 3 260 0
 564 02bc 0020A0E3 		mov	r2, #0
 261:C:/Renesas/e2studio_2021_01_workspace_RZA2M_ANPR/ANPR_RZA2M_RDK/src/tensorflow_lite/src/tensorflow/lite/kernels\kernel_util.h ****   } else if (activation == kTfLiteActReluN1To1) {
 565              		.loc 3 261 0
 566 02c0 C03044E3 		movt	r3, 16576
 260:C:/Renesas/e2studio_2021_01_workspace_RZA2M_ANPR/ANPR_RZA2M_RDK/src/tensorflow_lite/src/tensorflow/lite/kernels\kernel_util.h ****     *activation_max = 6;
 567              		.loc 3 260 0
 568 02c4 1C2086E5 		str	r2, [r6, #28]	@ float
 261:C:/Renesas/e2studio_2021_01_workspace_RZA2M_ANPR/ANPR_RZA2M_RDK/src/tensorflow_lite/src/tensorflow/lite/kernels\kernel_util.h ****   } else if (activation == kTfLiteActReluN1To1) {
 569              		.loc 3 261 0
 570 02c8 203086E5 		str	r3, [r6, #32]	@ float
 571 02cc AAFFFFEA 		b	.L24
 572              	.LBE454:
 573              	.LBE458:
 574              	.LBE468:
 575              	.LBE472:
 576              	.LBE476:
 577              	.LBE480:
 578              		.cfi_endproc
 579              	.LFE5920:
 580              		.fnend
 582              		.section	.text._ZN6tflite3ops5micro7pooling7MaxEvalEP13TfLiteContextP10TfLiteNode,"ax",%progbits
 583              		.align	2
 584              		.global	_ZN6tflite3ops5micro7pooling7MaxEvalEP13TfLiteContextP10TfLiteNode
 585              		.syntax unified
 586              		.arm
 587              		.fpu neon
 589              	_ZN6tflite3ops5micro7pooling7MaxEvalEP13TfLiteContextP10TfLiteNode:
 590              		.fnstart
 591              	.LFB5923:
 287:../src/tensorflow_lite/src/tensorflow/lite/micro/kernels/cmsis_nn/pooling.cpp **** 
 288:../src/tensorflow_lite/src/tensorflow/lite/micro/kernels/cmsis_nn/pooling.cpp **** TfLiteStatus AveragePrepare(TfLiteContext* context, TfLiteNode* node) {
 289:../src/tensorflow_lite/src/tensorflow/lite/micro/kernels/cmsis_nn/pooling.cpp ****   TFLITE_DCHECK(node->user_data != nullptr);
 290:../src/tensorflow_lite/src/tensorflow/lite/micro/kernels/cmsis_nn/pooling.cpp ****   TFLITE_DCHECK(node->builtin_data != nullptr);
 291:../src/tensorflow_lite/src/tensorflow/lite/micro/kernels/cmsis_nn/pooling.cpp **** 
 292:../src/tensorflow_lite/src/tensorflow/lite/micro/kernels/cmsis_nn/pooling.cpp ****   OpData* data = static_cast<OpData*>(node->user_data);
 293:../src/tensorflow_lite/src/tensorflow/lite/micro/kernels/cmsis_nn/pooling.cpp ****   auto* params = reinterpret_cast<TfLitePoolParams*>(node->builtin_data);
 294:../src/tensorflow_lite/src/tensorflow/lite/micro/kernels/cmsis_nn/pooling.cpp **** 
 295:../src/tensorflow_lite/src/tensorflow/lite/micro/kernels/cmsis_nn/pooling.cpp ****   const TfLiteTensor* input = GetInput(context, node, kInputTensor);
 296:../src/tensorflow_lite/src/tensorflow/lite/micro/kernels/cmsis_nn/pooling.cpp ****   TfLiteTensor* output = GetOutput(context, node, kOutputTensor);
 297:../src/tensorflow_lite/src/tensorflow/lite/micro/kernels/cmsis_nn/pooling.cpp **** 
 298:../src/tensorflow_lite/src/tensorflow/lite/micro/kernels/cmsis_nn/pooling.cpp ****   TF_LITE_ENSURE_STATUS(CalculateOpData(context, params, input, output, data));
 299:../src/tensorflow_lite/src/tensorflow/lite/micro/kernels/cmsis_nn/pooling.cpp **** 
 300:../src/tensorflow_lite/src/tensorflow/lite/micro/kernels/cmsis_nn/pooling.cpp ****   if (input->type == kTfLiteInt8) {
 301:../src/tensorflow_lite/src/tensorflow/lite/micro/kernels/cmsis_nn/pooling.cpp ****     RuntimeShape input_shape = GetTensorShape(input);
 302:../src/tensorflow_lite/src/tensorflow/lite/micro/kernels/cmsis_nn/pooling.cpp ****     TFLITE_DCHECK_EQ(input_shape.DimensionsCount(), 4);
 303:../src/tensorflow_lite/src/tensorflow/lite/micro/kernels/cmsis_nn/pooling.cpp **** 
 304:../src/tensorflow_lite/src/tensorflow/lite/micro/kernels/cmsis_nn/pooling.cpp ****     RuntimeShape output_shape = GetTensorShape(output);
 305:../src/tensorflow_lite/src/tensorflow/lite/micro/kernels/cmsis_nn/pooling.cpp ****     TFLITE_DCHECK_EQ(output_shape.DimensionsCount(), 4);
 306:../src/tensorflow_lite/src/tensorflow/lite/micro/kernels/cmsis_nn/pooling.cpp **** 
 307:../src/tensorflow_lite/src/tensorflow/lite/micro/kernels/cmsis_nn/pooling.cpp ****     const int depth = MatchingDim(input_shape, 3, output_shape, 3);
 308:../src/tensorflow_lite/src/tensorflow/lite/micro/kernels/cmsis_nn/pooling.cpp ****     const int output_width = output_shape.Dims(2);
 309:../src/tensorflow_lite/src/tensorflow/lite/micro/kernels/cmsis_nn/pooling.cpp **** 
 310:../src/tensorflow_lite/src/tensorflow/lite/micro/kernels/cmsis_nn/pooling.cpp ****     const int32_t buffer_size =
 311:../src/tensorflow_lite/src/tensorflow/lite/micro/kernels/cmsis_nn/pooling.cpp ****         arm_avgpool_s8_get_buffer_size(output_width, depth);
 312:../src/tensorflow_lite/src/tensorflow/lite/micro/kernels/cmsis_nn/pooling.cpp **** 
 313:../src/tensorflow_lite/src/tensorflow/lite/micro/kernels/cmsis_nn/pooling.cpp ****     if (buffer_size > 0) {
 314:../src/tensorflow_lite/src/tensorflow/lite/micro/kernels/cmsis_nn/pooling.cpp ****       TF_LITE_ENSURE_STATUS(context->RequestScratchBufferInArena(
 315:../src/tensorflow_lite/src/tensorflow/lite/micro/kernels/cmsis_nn/pooling.cpp ****           context, buffer_size, &data->buffer_idx));
 316:../src/tensorflow_lite/src/tensorflow/lite/micro/kernels/cmsis_nn/pooling.cpp ****     } else {
 317:../src/tensorflow_lite/src/tensorflow/lite/micro/kernels/cmsis_nn/pooling.cpp ****       data->buffer_idx = -1;
 318:../src/tensorflow_lite/src/tensorflow/lite/micro/kernels/cmsis_nn/pooling.cpp ****     }
 319:../src/tensorflow_lite/src/tensorflow/lite/micro/kernels/cmsis_nn/pooling.cpp ****   }
 320:../src/tensorflow_lite/src/tensorflow/lite/micro/kernels/cmsis_nn/pooling.cpp ****   return kTfLiteOk;
 321:../src/tensorflow_lite/src/tensorflow/lite/micro/kernels/cmsis_nn/pooling.cpp **** }
 322:../src/tensorflow_lite/src/tensorflow/lite/micro/kernels/cmsis_nn/pooling.cpp **** 
 323:../src/tensorflow_lite/src/tensorflow/lite/micro/kernels/cmsis_nn/pooling.cpp **** TfLiteStatus AverageEval(TfLiteContext* context, TfLiteNode* node) {
 324:../src/tensorflow_lite/src/tensorflow/lite/micro/kernels/cmsis_nn/pooling.cpp ****   TFLITE_DCHECK(node->builtin_data != nullptr);
 325:../src/tensorflow_lite/src/tensorflow/lite/micro/kernels/cmsis_nn/pooling.cpp ****   auto* params = reinterpret_cast<TfLitePoolParams*>(node->builtin_data);
 326:../src/tensorflow_lite/src/tensorflow/lite/micro/kernels/cmsis_nn/pooling.cpp **** 
 327:../src/tensorflow_lite/src/tensorflow/lite/micro/kernels/cmsis_nn/pooling.cpp ****   TFLITE_DCHECK(node->user_data != nullptr);
 328:../src/tensorflow_lite/src/tensorflow/lite/micro/kernels/cmsis_nn/pooling.cpp ****   const OpData& data = *(static_cast<const OpData*>(node->user_data));
 329:../src/tensorflow_lite/src/tensorflow/lite/micro/kernels/cmsis_nn/pooling.cpp **** 
 330:../src/tensorflow_lite/src/tensorflow/lite/micro/kernels/cmsis_nn/pooling.cpp ****   const TfLiteEvalTensor* input =
 331:../src/tensorflow_lite/src/tensorflow/lite/micro/kernels/cmsis_nn/pooling.cpp ****       tflite::micro::GetEvalInput(context, node, kInputTensor);
 332:../src/tensorflow_lite/src/tensorflow/lite/micro/kernels/cmsis_nn/pooling.cpp ****   TfLiteEvalTensor* output =
 333:../src/tensorflow_lite/src/tensorflow/lite/micro/kernels/cmsis_nn/pooling.cpp ****       tflite::micro::GetEvalOutput(context, node, kOutputTensor);
 334:../src/tensorflow_lite/src/tensorflow/lite/micro/kernels/cmsis_nn/pooling.cpp **** 
 335:../src/tensorflow_lite/src/tensorflow/lite/micro/kernels/cmsis_nn/pooling.cpp ****   // Inputs and outputs share the same type, guaranteed by the converter.
 336:../src/tensorflow_lite/src/tensorflow/lite/micro/kernels/cmsis_nn/pooling.cpp ****   switch (input->type) {
 337:../src/tensorflow_lite/src/tensorflow/lite/micro/kernels/cmsis_nn/pooling.cpp ****     case kTfLiteFloat32:
 338:../src/tensorflow_lite/src/tensorflow/lite/micro/kernels/cmsis_nn/pooling.cpp ****       AverageEvalFloat(context, node, params, data, input, output);
 339:../src/tensorflow_lite/src/tensorflow/lite/micro/kernels/cmsis_nn/pooling.cpp ****       break;
 340:../src/tensorflow_lite/src/tensorflow/lite/micro/kernels/cmsis_nn/pooling.cpp ****     case kTfLiteUInt8:
 341:../src/tensorflow_lite/src/tensorflow/lite/micro/kernels/cmsis_nn/pooling.cpp ****     case kTfLiteInt8:
 342:../src/tensorflow_lite/src/tensorflow/lite/micro/kernels/cmsis_nn/pooling.cpp ****       AverageEvalQuantized(context, node, params, data, input, output);
 343:../src/tensorflow_lite/src/tensorflow/lite/micro/kernels/cmsis_nn/pooling.cpp ****       break;
 344:../src/tensorflow_lite/src/tensorflow/lite/micro/kernels/cmsis_nn/pooling.cpp ****     default:
 345:../src/tensorflow_lite/src/tensorflow/lite/micro/kernels/cmsis_nn/pooling.cpp ****       TF_LITE_KERNEL_LOG(context, "Input type %s is not currently supported",
 346:../src/tensorflow_lite/src/tensorflow/lite/micro/kernels/cmsis_nn/pooling.cpp ****                          TfLiteTypeGetName(input->type));
 347:../src/tensorflow_lite/src/tensorflow/lite/micro/kernels/cmsis_nn/pooling.cpp ****       return kTfLiteError;
 348:../src/tensorflow_lite/src/tensorflow/lite/micro/kernels/cmsis_nn/pooling.cpp ****   }
 349:../src/tensorflow_lite/src/tensorflow/lite/micro/kernels/cmsis_nn/pooling.cpp ****   return kTfLiteOk;
 350:../src/tensorflow_lite/src/tensorflow/lite/micro/kernels/cmsis_nn/pooling.cpp **** }
 351:../src/tensorflow_lite/src/tensorflow/lite/micro/kernels/cmsis_nn/pooling.cpp **** 
 352:../src/tensorflow_lite/src/tensorflow/lite/micro/kernels/cmsis_nn/pooling.cpp **** TfLiteStatus MaxEval(TfLiteContext* context, TfLiteNode* node) {
 592              		.loc 1 352 0
 593              		.cfi_startproc
 594              		.cfi_personality 0,__gxx_personality_v0
 595              		.cfi_lsda 0,.LLSDA5923
 596              		@ args = 0, pretend = 0, frame = 256
 597              		@ frame_needed = 0, uses_anonymous_args = 0
 598              	.LVL60:
 599 0000 F04F2DE9 		push	{r4, r5, r6, r7, r8, r9, r10, fp, lr}
 600              		.save {r4, r5, r6, r7, r8, r9, r10, fp, lr}
 601              		.cfi_def_cfa_offset 36
 602              		.cfi_offset 4, -36
 603              		.cfi_offset 5, -32
 604              		.cfi_offset 6, -28
 605              		.cfi_offset 7, -24
 606              		.cfi_offset 8, -20
 607              		.cfi_offset 9, -16
 608              		.cfi_offset 10, -12
 609              		.cfi_offset 11, -8
 610              		.cfi_offset 14, -4
 353:../src/tensorflow_lite/src/tensorflow/lite/micro/kernels/cmsis_nn/pooling.cpp ****   TFLITE_DCHECK(node->builtin_data != nullptr);
 611              		.loc 1 353 0
 612 0004 144091E5 		ldr	r4, [r1, #20]
 352:../src/tensorflow_lite/src/tensorflow/lite/micro/kernels/cmsis_nn/pooling.cpp ****   TFLITE_DCHECK(node->builtin_data != nullptr);
 613              		.loc 1 352 0
 614 0008 028B2DED 		vpush.64	{d8}
 615              		.vsave {d8}
 616              		.cfi_def_cfa_offset 44
 617              		.cfi_offset 80, -44
 618              		.cfi_offset 81, -40
 619              		.pad #276
 620 000c 45DF4DE2 		sub	sp, sp, #276
 621              		.cfi_def_cfa_offset 320
 622              		.loc 1 353 0
 623 0010 000054E3 		cmp	r4, #0
 624 0014 E002000A 		beq	.L48
 354:../src/tensorflow_lite/src/tensorflow/lite/micro/kernels/cmsis_nn/pooling.cpp ****   auto* params = reinterpret_cast<TfLitePoolParams*>(node->builtin_data);
 355:../src/tensorflow_lite/src/tensorflow/lite/micro/kernels/cmsis_nn/pooling.cpp **** 
 356:../src/tensorflow_lite/src/tensorflow/lite/micro/kernels/cmsis_nn/pooling.cpp ****   TFLITE_DCHECK(node->user_data != nullptr);
 625              		.loc 1 356 0
 626 0018 107091E5 		ldr	r7, [r1, #16]
 627 001c 0150A0E1 		mov	r5, r1
 628              	.LVL61:
 629 0020 000057E3 		cmp	r7, #0
 630 0024 DC02000A 		beq	.L48
 631              	.LBB671:
 632              	.LBB672:
 633              	.LBB673:
 634              		.file 4 "C:/Renesas/e2studio_2021_01_workspace_RZA2M_ANPR/ANPR_RZA2M_RDK/src/tensorflow_lite/src/t
   1:C:/Renesas/e2studio_2021_01_workspace_RZA2M_ANPR/ANPR_RZA2M_RDK/src/tensorflow_lite/src/tensorflow/lite/micro/kernels\kernel_util.h **** /* Copyright 2020 The TensorFlow Authors. All Rights Reserved.
   2:C:/Renesas/e2studio_2021_01_workspace_RZA2M_ANPR/ANPR_RZA2M_RDK/src/tensorflow_lite/src/tensorflow/lite/micro/kernels\kernel_util.h **** 
   3:C:/Renesas/e2studio_2021_01_workspace_RZA2M_ANPR/ANPR_RZA2M_RDK/src/tensorflow_lite/src/tensorflow/lite/micro/kernels\kernel_util.h **** Licensed under the Apache License, Version 2.0 (the "License");
   4:C:/Renesas/e2studio_2021_01_workspace_RZA2M_ANPR/ANPR_RZA2M_RDK/src/tensorflow_lite/src/tensorflow/lite/micro/kernels\kernel_util.h **** you may not use this file except in compliance with the License.
   5:C:/Renesas/e2studio_2021_01_workspace_RZA2M_ANPR/ANPR_RZA2M_RDK/src/tensorflow_lite/src/tensorflow/lite/micro/kernels\kernel_util.h **** You may obtain a copy of the License at
   6:C:/Renesas/e2studio_2021_01_workspace_RZA2M_ANPR/ANPR_RZA2M_RDK/src/tensorflow_lite/src/tensorflow/lite/micro/kernels\kernel_util.h **** 
   7:C:/Renesas/e2studio_2021_01_workspace_RZA2M_ANPR/ANPR_RZA2M_RDK/src/tensorflow_lite/src/tensorflow/lite/micro/kernels\kernel_util.h ****     http://www.apache.org/licenses/LICENSE-2.0
   8:C:/Renesas/e2studio_2021_01_workspace_RZA2M_ANPR/ANPR_RZA2M_RDK/src/tensorflow_lite/src/tensorflow/lite/micro/kernels\kernel_util.h **** 
   9:C:/Renesas/e2studio_2021_01_workspace_RZA2M_ANPR/ANPR_RZA2M_RDK/src/tensorflow_lite/src/tensorflow/lite/micro/kernels\kernel_util.h **** Unless required by applicable law or agreed to in writing, software
  10:C:/Renesas/e2studio_2021_01_workspace_RZA2M_ANPR/ANPR_RZA2M_RDK/src/tensorflow_lite/src/tensorflow/lite/micro/kernels\kernel_util.h **** distributed under the License is distributed on an "AS IS" BASIS,
  11:C:/Renesas/e2studio_2021_01_workspace_RZA2M_ANPR/ANPR_RZA2M_RDK/src/tensorflow_lite/src/tensorflow/lite/micro/kernels\kernel_util.h **** WITHOUT WARRANTIES OR CONDITIONS OF ANY KIND, either express or implied.
  12:C:/Renesas/e2studio_2021_01_workspace_RZA2M_ANPR/ANPR_RZA2M_RDK/src/tensorflow_lite/src/tensorflow/lite/micro/kernels\kernel_util.h **** See the License for the specific language governing permissions and
  13:C:/Renesas/e2studio_2021_01_workspace_RZA2M_ANPR/ANPR_RZA2M_RDK/src/tensorflow_lite/src/tensorflow/lite/micro/kernels\kernel_util.h **** limitations under the License.
  14:C:/Renesas/e2studio_2021_01_workspace_RZA2M_ANPR/ANPR_RZA2M_RDK/src/tensorflow_lite/src/tensorflow/lite/micro/kernels\kernel_util.h **** ==============================================================================*/
  15:C:/Renesas/e2studio_2021_01_workspace_RZA2M_ANPR/ANPR_RZA2M_RDK/src/tensorflow_lite/src/tensorflow/lite/micro/kernels\kernel_util.h **** 
  16:C:/Renesas/e2studio_2021_01_workspace_RZA2M_ANPR/ANPR_RZA2M_RDK/src/tensorflow_lite/src/tensorflow/lite/micro/kernels\kernel_util.h **** #ifndef TENSORFLOW_LITE_MICRO_KERNELS_KERNEL_UTIL_H_
  17:C:/Renesas/e2studio_2021_01_workspace_RZA2M_ANPR/ANPR_RZA2M_RDK/src/tensorflow_lite/src/tensorflow/lite/micro/kernels\kernel_util.h **** #define TENSORFLOW_LITE_MICRO_KERNELS_KERNEL_UTIL_H_
  18:C:/Renesas/e2studio_2021_01_workspace_RZA2M_ANPR/ANPR_RZA2M_RDK/src/tensorflow_lite/src/tensorflow/lite/micro/kernels\kernel_util.h **** 
  19:C:/Renesas/e2studio_2021_01_workspace_RZA2M_ANPR/ANPR_RZA2M_RDK/src/tensorflow_lite/src/tensorflow/lite/micro/kernels\kernel_util.h **** #include <cstdint>
  20:C:/Renesas/e2studio_2021_01_workspace_RZA2M_ANPR/ANPR_RZA2M_RDK/src/tensorflow_lite/src/tensorflow/lite/micro/kernels\kernel_util.h **** 
  21:C:/Renesas/e2studio_2021_01_workspace_RZA2M_ANPR/ANPR_RZA2M_RDK/src/tensorflow_lite/src/tensorflow/lite/micro/kernels\kernel_util.h **** #include "tensorflow/lite/c/builtin_op_data.h"
  22:C:/Renesas/e2studio_2021_01_workspace_RZA2M_ANPR/ANPR_RZA2M_RDK/src/tensorflow_lite/src/tensorflow/lite/micro/kernels\kernel_util.h **** #include "tensorflow/lite/c/common.h"
  23:C:/Renesas/e2studio_2021_01_workspace_RZA2M_ANPR/ANPR_RZA2M_RDK/src/tensorflow_lite/src/tensorflow/lite/micro/kernels\kernel_util.h **** #include "tensorflow/lite/kernels/internal/compatibility.h"
  24:C:/Renesas/e2studio_2021_01_workspace_RZA2M_ANPR/ANPR_RZA2M_RDK/src/tensorflow_lite/src/tensorflow/lite/micro/kernels\kernel_util.h **** #include "tensorflow/lite/kernels/internal/types.h"
  25:C:/Renesas/e2studio_2021_01_workspace_RZA2M_ANPR/ANPR_RZA2M_RDK/src/tensorflow_lite/src/tensorflow/lite/micro/kernels\kernel_util.h **** 
  26:C:/Renesas/e2studio_2021_01_workspace_RZA2M_ANPR/ANPR_RZA2M_RDK/src/tensorflow_lite/src/tensorflow/lite/micro/kernels\kernel_util.h **** namespace tflite {
  27:C:/Renesas/e2studio_2021_01_workspace_RZA2M_ANPR/ANPR_RZA2M_RDK/src/tensorflow_lite/src/tensorflow/lite/micro/kernels\kernel_util.h **** namespace micro {
  28:C:/Renesas/e2studio_2021_01_workspace_RZA2M_ANPR/ANPR_RZA2M_RDK/src/tensorflow_lite/src/tensorflow/lite/micro/kernels\kernel_util.h **** 
  29:C:/Renesas/e2studio_2021_01_workspace_RZA2M_ANPR/ANPR_RZA2M_RDK/src/tensorflow_lite/src/tensorflow/lite/micro/kernels\kernel_util.h **** // Returns a mutable tensor for a given input index. is_variable must be checked
  30:C:/Renesas/e2studio_2021_01_workspace_RZA2M_ANPR/ANPR_RZA2M_RDK/src/tensorflow_lite/src/tensorflow/lite/micro/kernels\kernel_util.h **** // during prepare when the full TfLiteTensor is available.
  31:C:/Renesas/e2studio_2021_01_workspace_RZA2M_ANPR/ANPR_RZA2M_RDK/src/tensorflow_lite/src/tensorflow/lite/micro/kernels\kernel_util.h **** inline TfLiteEvalTensor* GetMutableEvalInput(const TfLiteContext* context,
  32:C:/Renesas/e2studio_2021_01_workspace_RZA2M_ANPR/ANPR_RZA2M_RDK/src/tensorflow_lite/src/tensorflow/lite/micro/kernels\kernel_util.h ****                                              const TfLiteNode* node,
  33:C:/Renesas/e2studio_2021_01_workspace_RZA2M_ANPR/ANPR_RZA2M_RDK/src/tensorflow_lite/src/tensorflow/lite/micro/kernels\kernel_util.h ****                                              int index) {
  34:C:/Renesas/e2studio_2021_01_workspace_RZA2M_ANPR/ANPR_RZA2M_RDK/src/tensorflow_lite/src/tensorflow/lite/micro/kernels\kernel_util.h ****   TFLITE_DCHECK(context != nullptr);
 635              		.loc 4 34 0
 636 0028 000050E3 		cmp	r0, #0
 637 002c 0080A0E1 		mov	r8, r0
 638              	.LVL62:
 639 0030 D902000A 		beq	.L48
  35:C:/Renesas/e2studio_2021_01_workspace_RZA2M_ANPR/ANPR_RZA2M_RDK/src/tensorflow_lite/src/tensorflow/lite/micro/kernels\kernel_util.h ****   TFLITE_DCHECK(node != nullptr);
  36:C:/Renesas/e2studio_2021_01_workspace_RZA2M_ANPR/ANPR_RZA2M_RDK/src/tensorflow_lite/src/tensorflow/lite/micro/kernels\kernel_util.h ****   return context->GetEvalTensor(context, node->inputs->data[index]);
 640              		.loc 4 36 0
 641 0034 002091E5 		ldr	r2, [r1]
 642 0038 543090E5 		ldr	r3, [r0, #84]
 643 003c 041092E5 		ldr	r1, [r2, #4]
 644              	.LVL63:
 645              	.LEHB0:
 646 0040 33FF2FE1 		blx	r3
 647              	.LVL64:
 648              	.LBE673:
 649              	.LBE672:
 650              	.LBE671:
 651              	.LBB676:
 652              	.LBB677:
  37:C:/Renesas/e2studio_2021_01_workspace_RZA2M_ANPR/ANPR_RZA2M_RDK/src/tensorflow_lite/src/tensorflow/lite/micro/kernels\kernel_util.h **** }
  38:C:/Renesas/e2studio_2021_01_workspace_RZA2M_ANPR/ANPR_RZA2M_RDK/src/tensorflow_lite/src/tensorflow/lite/micro/kernels\kernel_util.h **** 
  39:C:/Renesas/e2studio_2021_01_workspace_RZA2M_ANPR/ANPR_RZA2M_RDK/src/tensorflow_lite/src/tensorflow/lite/micro/kernels\kernel_util.h **** // Returns the TfLiteEvalTensor struct for a given input index in a node.
  40:C:/Renesas/e2studio_2021_01_workspace_RZA2M_ANPR/ANPR_RZA2M_RDK/src/tensorflow_lite/src/tensorflow/lite/micro/kernels\kernel_util.h **** inline const TfLiteEvalTensor* GetEvalInput(const TfLiteContext* context,
  41:C:/Renesas/e2studio_2021_01_workspace_RZA2M_ANPR/ANPR_RZA2M_RDK/src/tensorflow_lite/src/tensorflow/lite/micro/kernels\kernel_util.h ****                                             const TfLiteNode* node, int index) {
  42:C:/Renesas/e2studio_2021_01_workspace_RZA2M_ANPR/ANPR_RZA2M_RDK/src/tensorflow_lite/src/tensorflow/lite/micro/kernels\kernel_util.h ****   return GetMutableEvalInput(context, node, index);
  43:C:/Renesas/e2studio_2021_01_workspace_RZA2M_ANPR/ANPR_RZA2M_RDK/src/tensorflow_lite/src/tensorflow/lite/micro/kernels\kernel_util.h **** }
  44:C:/Renesas/e2studio_2021_01_workspace_RZA2M_ANPR/ANPR_RZA2M_RDK/src/tensorflow_lite/src/tensorflow/lite/micro/kernels\kernel_util.h **** 
  45:C:/Renesas/e2studio_2021_01_workspace_RZA2M_ANPR/ANPR_RZA2M_RDK/src/tensorflow_lite/src/tensorflow/lite/micro/kernels\kernel_util.h **** // Returns the TfLiteEvalTensor struct for a given output index in a node.
  46:C:/Renesas/e2studio_2021_01_workspace_RZA2M_ANPR/ANPR_RZA2M_RDK/src/tensorflow_lite/src/tensorflow/lite/micro/kernels\kernel_util.h **** inline TfLiteEvalTensor* GetEvalOutput(const TfLiteContext* context,
  47:C:/Renesas/e2studio_2021_01_workspace_RZA2M_ANPR/ANPR_RZA2M_RDK/src/tensorflow_lite/src/tensorflow/lite/micro/kernels\kernel_util.h ****                                        const TfLiteNode* node, int index) {
  48:C:/Renesas/e2studio_2021_01_workspace_RZA2M_ANPR/ANPR_RZA2M_RDK/src/tensorflow_lite/src/tensorflow/lite/micro/kernels\kernel_util.h ****   TFLITE_DCHECK(context != nullptr);
  49:C:/Renesas/e2studio_2021_01_workspace_RZA2M_ANPR/ANPR_RZA2M_RDK/src/tensorflow_lite/src/tensorflow/lite/micro/kernels\kernel_util.h ****   TFLITE_DCHECK(node != nullptr);
  50:C:/Renesas/e2studio_2021_01_workspace_RZA2M_ANPR/ANPR_RZA2M_RDK/src/tensorflow_lite/src/tensorflow/lite/micro/kernels\kernel_util.h ****   return context->GetEvalTensor(context, node->outputs->data[index]);
 653              		.loc 4 50 0
 654 0044 042095E5 		ldr	r2, [r5, #4]
 655              	.LBE677:
 656              	.LBE676:
 657              	.LBB679:
 658              	.LBB675:
 659              	.LBB674:
  36:C:/Renesas/e2studio_2021_01_workspace_RZA2M_ANPR/ANPR_RZA2M_RDK/src/tensorflow_lite/src/tensorflow/lite/micro/kernels\kernel_util.h **** }
 660              		.loc 4 36 0
 661 0048 0060A0E1 		mov	r6, r0
 662              	.LVL65:
 663              	.LBE674:
 664              	.LBE675:
 665              	.LBE679:
 666              	.LBB680:
 667              	.LBB678:
 668              		.loc 4 50 0
 669 004c 543098E5 		ldr	r3, [r8, #84]
 670 0050 0800A0E1 		mov	r0, r8
 671 0054 041092E5 		ldr	r1, [r2, #4]
 672 0058 33FF2FE1 		blx	r3
 673              	.LVL66:
 674 005c 0050A0E1 		mov	r5, r0
 675              	.LVL67:
 676              	.LBE678:
 677              	.LBE680:
 357:../src/tensorflow_lite/src/tensorflow/lite/micro/kernels/cmsis_nn/pooling.cpp ****   const OpData& data = *(static_cast<const OpData*>(node->user_data));
 358:../src/tensorflow_lite/src/tensorflow/lite/micro/kernels/cmsis_nn/pooling.cpp **** 
 359:../src/tensorflow_lite/src/tensorflow/lite/micro/kernels/cmsis_nn/pooling.cpp ****   const TfLiteEvalTensor* input =
 360:../src/tensorflow_lite/src/tensorflow/lite/micro/kernels/cmsis_nn/pooling.cpp ****       tflite::micro::GetEvalInput(context, node, kInputTensor);
 361:../src/tensorflow_lite/src/tensorflow/lite/micro/kernels/cmsis_nn/pooling.cpp ****   TfLiteEvalTensor* output =
 362:../src/tensorflow_lite/src/tensorflow/lite/micro/kernels/cmsis_nn/pooling.cpp ****       tflite::micro::GetEvalOutput(context, node, kOutputTensor);
 363:../src/tensorflow_lite/src/tensorflow/lite/micro/kernels/cmsis_nn/pooling.cpp **** 
 364:../src/tensorflow_lite/src/tensorflow/lite/micro/kernels/cmsis_nn/pooling.cpp ****   switch (input->type) {
 678              		.loc 1 364 0
 679 0060 0800D6E5 		ldrb	r0, [r6, #8]	@ zero_extendqisi2
 680 0064 030050E3 		cmp	r0, #3
 681 0068 8001000A 		beq	.L50
 682 006c 090050E3 		cmp	r0, #9
 683 0070 1701000A 		beq	.L51
 684 0074 010050E3 		cmp	r0, #1
 685 0078 0A00000A 		beq	.L326
 365:../src/tensorflow_lite/src/tensorflow/lite/micro/kernels/cmsis_nn/pooling.cpp ****     case kTfLiteFloat32:
 366:../src/tensorflow_lite/src/tensorflow/lite/micro/kernels/cmsis_nn/pooling.cpp ****       MaxEvalFloat(context, node, params, data, input, output);
 367:../src/tensorflow_lite/src/tensorflow/lite/micro/kernels/cmsis_nn/pooling.cpp ****       break;
 368:../src/tensorflow_lite/src/tensorflow/lite/micro/kernels/cmsis_nn/pooling.cpp ****     case kTfLiteUInt8:
 369:../src/tensorflow_lite/src/tensorflow/lite/micro/kernels/cmsis_nn/pooling.cpp ****       MaxEvalQuantizedUInt8(context, node, params, data, input, output);
 370:../src/tensorflow_lite/src/tensorflow/lite/micro/kernels/cmsis_nn/pooling.cpp ****       break;
 371:../src/tensorflow_lite/src/tensorflow/lite/micro/kernels/cmsis_nn/pooling.cpp ****     case kTfLiteInt8:
 372:../src/tensorflow_lite/src/tensorflow/lite/micro/kernels/cmsis_nn/pooling.cpp ****       MaxEvalInt8(context, node, params, data, input, output);
 373:../src/tensorflow_lite/src/tensorflow/lite/micro/kernels/cmsis_nn/pooling.cpp ****       break;
 374:../src/tensorflow_lite/src/tensorflow/lite/micro/kernels/cmsis_nn/pooling.cpp ****     default:
 375:../src/tensorflow_lite/src/tensorflow/lite/micro/kernels/cmsis_nn/pooling.cpp ****       TF_LITE_KERNEL_LOG(context, "Type %s not currently supported.",
 686              		.loc 1 375 0
 687 007c 144098E5 		ldr	r4, [r8, #20]
 688              	.LVL68:
 689 0080 FEFFFFEB 		bl	TfLiteTypeGetName
 690              	.LVL69:
 691 0084 001000E3 		movw	r1, #:lower16:.LC6
 692 0088 0020A0E1 		mov	r2, r0
 693 008c 001040E3 		movt	r1, #:upper16:.LC6
 694 0090 0800A0E1 		mov	r0, r8
 695 0094 34FF2FE1 		blx	r4
 696              	.LVL70:
 376:../src/tensorflow_lite/src/tensorflow/lite/micro/kernels/cmsis_nn/pooling.cpp ****                          TfLiteTypeGetName(input->type));
 377:../src/tensorflow_lite/src/tensorflow/lite/micro/kernels/cmsis_nn/pooling.cpp ****       return kTfLiteError;
 697              		.loc 1 377 0
 698 0098 0100A0E3 		mov	r0, #1
 378:../src/tensorflow_lite/src/tensorflow/lite/micro/kernels/cmsis_nn/pooling.cpp ****   }
 379:../src/tensorflow_lite/src/tensorflow/lite/micro/kernels/cmsis_nn/pooling.cpp ****   return kTfLiteOk;
 380:../src/tensorflow_lite/src/tensorflow/lite/micro/kernels/cmsis_nn/pooling.cpp **** }
 699              		.loc 1 380 0
 700 009c 45DF8DE2 		add	sp, sp, #276
 701              		.cfi_remember_state
 702              		.cfi_def_cfa_offset 44
 703              		@ sp needed
 704 00a0 028BBDEC 		vldm	sp!, {d8}
 705              		.cfi_restore 80
 706              		.cfi_restore 81
 707              		.cfi_def_cfa_offset 36
 708 00a4 F08FBDE8 		pop	{r4, r5, r6, r7, r8, r9, r10, fp, pc}
 709              	.LVL71:
 710              	.L326:
 711              		.cfi_restore_state
 712              	.LBB681:
 713              	.LBB682:
 180:../src/tensorflow_lite/src/tensorflow/lite/micro/kernels/cmsis_nn/pooling.cpp ****   op_params.stride_width = params->stride_width;
 714              		.loc 1 180 0
 715 00a8 083094E5 		ldr	r3, [r4, #8]
 188:../src/tensorflow_lite/src/tensorflow/lite/micro/kernels/cmsis_nn/pooling.cpp ****                          tflite::micro::GetTensorData<float>(input),
 716              		.loc 1 188 0
 717 00ac 0610A0E1 		mov	r1, r6
 718 00b0 E0008DE2 		add	r0, sp, #224
 186:../src/tensorflow_lite/src/tensorflow/lite/micro/kernels/cmsis_nn/pooling.cpp ****   op_params.float_activation_max = data.activation_max_f32;
 719              		.loc 1 186 0
 720 00b4 078A97ED 		vldr.32	s16, [r7, #28]
 187:../src/tensorflow_lite/src/tensorflow/lite/micro/kernels/cmsis_nn/pooling.cpp ****   reference_ops::MaxPool(op_params, tflite::micro::GetTensorShape(input),
 721              		.loc 1 187 0
 722 00b8 088AD7ED 		vldr.32	s17, [r7, #32]
 180:../src/tensorflow_lite/src/tensorflow/lite/micro/kernels/cmsis_nn/pooling.cpp ****   op_params.stride_width = params->stride_width;
 723              		.loc 1 180 0
 724 00bc 7C308DE5 		str	r3, [sp, #124]
 725              	.LVL72:
 181:../src/tensorflow_lite/src/tensorflow/lite/micro/kernels/cmsis_nn/pooling.cpp ****   op_params.filter_height = params->filter_height;
 726              		.loc 1 181 0
 727 00c0 043094E5 		ldr	r3, [r4, #4]
 728              	.LVL73:
 729 00c4 80308DE5 		str	r3, [sp, #128]
 730              	.LVL74:
 182:../src/tensorflow_lite/src/tensorflow/lite/micro/kernels/cmsis_nn/pooling.cpp ****   op_params.filter_width = params->filter_width;
 731              		.loc 1 182 0
 732 00c8 103094E5 		ldr	r3, [r4, #16]
 733              	.LVL75:
 734 00cc 70308DE5 		str	r3, [sp, #112]
 735              	.LVL76:
 183:../src/tensorflow_lite/src/tensorflow/lite/micro/kernels/cmsis_nn/pooling.cpp ****   op_params.padding_values.height = data.padding.height;
 736              		.loc 1 183 0
 737 00d0 0C3094E5 		ldr	r3, [r4, #12]
 738              	.LVL77:
 739 00d4 68308DE5 		str	r3, [sp, #104]
 740              	.LVL78:
 184:../src/tensorflow_lite/src/tensorflow/lite/micro/kernels/cmsis_nn/pooling.cpp ****   op_params.padding_values.width = data.padding.width;
 741              		.loc 1 184 0
 742 00d8 F430D7E1 		ldrsh	r3, [r7, #4]
 743              	.LVL79:
 744 00dc 74308DE5 		str	r3, [sp, #116]
 745              	.LVL80:
 185:../src/tensorflow_lite/src/tensorflow/lite/micro/kernels/cmsis_nn/pooling.cpp ****   op_params.float_activation_min = data.activation_min_f32;
 746              		.loc 1 185 0
 747 00e0 F030D7E1 		ldrsh	r3, [r7]
 748 00e4 78308DE5 		str	r3, [sp, #120]
 749              	.LVL81:
 188:../src/tensorflow_lite/src/tensorflow/lite/micro/kernels/cmsis_nn/pooling.cpp ****                          tflite::micro::GetTensorData<float>(input),
 750              		.loc 1 188 0
 751 00e8 FEFFFFEB 		bl	_ZN6tflite5micro14GetTensorShapeEPK16TfLiteEvalTensor
 752              	.LVL82:
 753              	.LEHE0:
 190:../src/tensorflow_lite/src/tensorflow/lite/micro/kernels/cmsis_nn/pooling.cpp ****                          tflite::micro::GetTensorData<float>(output));
 754              		.loc 1 190 0
 755 00ec 0510A0E1 		mov	r1, r5
 756 00f0 F8008DE2 		add	r0, sp, #248
 757              	.LBB683:
 758              	.LBB684:
  51:C:/Renesas/e2studio_2021_01_workspace_RZA2M_ANPR/ANPR_RZA2M_RDK/src/tensorflow_lite/src/tensorflow/lite/micro/kernels\kernel_util.h **** }
  52:C:/Renesas/e2studio_2021_01_workspace_RZA2M_ANPR/ANPR_RZA2M_RDK/src/tensorflow_lite/src/tensorflow/lite/micro/kernels\kernel_util.h **** 
  53:C:/Renesas/e2studio_2021_01_workspace_RZA2M_ANPR/ANPR_RZA2M_RDK/src/tensorflow_lite/src/tensorflow/lite/micro/kernels\kernel_util.h **** // Returns data for a TfLiteEvalTensor struct.
  54:C:/Renesas/e2studio_2021_01_workspace_RZA2M_ANPR/ANPR_RZA2M_RDK/src/tensorflow_lite/src/tensorflow/lite/micro/kernels\kernel_util.h **** template <typename T>
  55:C:/Renesas/e2studio_2021_01_workspace_RZA2M_ANPR/ANPR_RZA2M_RDK/src/tensorflow_lite/src/tensorflow/lite/micro/kernels\kernel_util.h **** T* GetTensorData(TfLiteEvalTensor* tensor) {
  56:C:/Renesas/e2studio_2021_01_workspace_RZA2M_ANPR/ANPR_RZA2M_RDK/src/tensorflow_lite/src/tensorflow/lite/micro/kernels\kernel_util.h ****   return tensor != nullptr ? reinterpret_cast<T*>(tensor->data.raw) : nullptr;
  57:C:/Renesas/e2studio_2021_01_workspace_RZA2M_ANPR/ANPR_RZA2M_RDK/src/tensorflow_lite/src/tensorflow/lite/micro/kernels\kernel_util.h **** }
  58:C:/Renesas/e2studio_2021_01_workspace_RZA2M_ANPR/ANPR_RZA2M_RDK/src/tensorflow_lite/src/tensorflow/lite/micro/kernels\kernel_util.h **** 
  59:C:/Renesas/e2studio_2021_01_workspace_RZA2M_ANPR/ANPR_RZA2M_RDK/src/tensorflow_lite/src/tensorflow/lite/micro/kernels\kernel_util.h **** // Returns const data for a TfLiteEvalTensor struct.
  60:C:/Renesas/e2studio_2021_01_workspace_RZA2M_ANPR/ANPR_RZA2M_RDK/src/tensorflow_lite/src/tensorflow/lite/micro/kernels\kernel_util.h **** template <typename T>
  61:C:/Renesas/e2studio_2021_01_workspace_RZA2M_ANPR/ANPR_RZA2M_RDK/src/tensorflow_lite/src/tensorflow/lite/micro/kernels\kernel_util.h **** const T* GetTensorData(const TfLiteEvalTensor* tensor) {
  62:C:/Renesas/e2studio_2021_01_workspace_RZA2M_ANPR/ANPR_RZA2M_RDK/src/tensorflow_lite/src/tensorflow/lite/micro/kernels\kernel_util.h ****   TFLITE_DCHECK(tensor != nullptr);
  63:C:/Renesas/e2studio_2021_01_workspace_RZA2M_ANPR/ANPR_RZA2M_RDK/src/tensorflow_lite/src/tensorflow/lite/micro/kernels\kernel_util.h ****   return reinterpret_cast<const T*>(tensor->data.raw);
 759              		.loc 4 63 0
 760 00f4 009096E5 		ldr	r9, [r6]
 761              	.LVL83:
 762              	.LEHB1:
 763              	.LBE684:
 764              	.LBE683:
 190:../src/tensorflow_lite/src/tensorflow/lite/micro/kernels/cmsis_nn/pooling.cpp ****                          tflite::micro::GetTensorData<float>(output));
 765              		.loc 1 190 0
 766 00f8 FEFFFFEB 		bl	_ZN6tflite5micro14GetTensorShapeEPK16TfLiteEvalTensor
 767              	.LVL84:
 768              	.LEHE1:
 769              	.LBB685:
 770              	.LBB686:
 771              		.file 5 "C:/Renesas/e2studio_2021_01_workspace_RZA2M_ANPR/ANPR_RZA2M_RDK/src/tensorflow_lite/src/t
   1:C:/Renesas/e2studio_2021_01_workspace_RZA2M_ANPR/ANPR_RZA2M_RDK/src/tensorflow_lite/src/tensorflow/lite/kernels/internal/reference\pooling.h **** /* Copyright 2019 The TensorFlow Authors. All Rights Reserved.
   2:C:/Renesas/e2studio_2021_01_workspace_RZA2M_ANPR/ANPR_RZA2M_RDK/src/tensorflow_lite/src/tensorflow/lite/kernels/internal/reference\pooling.h **** 
   3:C:/Renesas/e2studio_2021_01_workspace_RZA2M_ANPR/ANPR_RZA2M_RDK/src/tensorflow_lite/src/tensorflow/lite/kernels/internal/reference\pooling.h **** Licensed under the Apache License, Version 2.0 (the "License");
   4:C:/Renesas/e2studio_2021_01_workspace_RZA2M_ANPR/ANPR_RZA2M_RDK/src/tensorflow_lite/src/tensorflow/lite/kernels/internal/reference\pooling.h **** you may not use this file except in compliance with the License.
   5:C:/Renesas/e2studio_2021_01_workspace_RZA2M_ANPR/ANPR_RZA2M_RDK/src/tensorflow_lite/src/tensorflow/lite/kernels/internal/reference\pooling.h **** You may obtain a copy of the License at
   6:C:/Renesas/e2studio_2021_01_workspace_RZA2M_ANPR/ANPR_RZA2M_RDK/src/tensorflow_lite/src/tensorflow/lite/kernels/internal/reference\pooling.h **** 
   7:C:/Renesas/e2studio_2021_01_workspace_RZA2M_ANPR/ANPR_RZA2M_RDK/src/tensorflow_lite/src/tensorflow/lite/kernels/internal/reference\pooling.h ****     http://www.apache.org/licenses/LICENSE-2.0
   8:C:/Renesas/e2studio_2021_01_workspace_RZA2M_ANPR/ANPR_RZA2M_RDK/src/tensorflow_lite/src/tensorflow/lite/kernels/internal/reference\pooling.h **** 
   9:C:/Renesas/e2studio_2021_01_workspace_RZA2M_ANPR/ANPR_RZA2M_RDK/src/tensorflow_lite/src/tensorflow/lite/kernels/internal/reference\pooling.h **** Unless required by applicable law or agreed to in writing, software
  10:C:/Renesas/e2studio_2021_01_workspace_RZA2M_ANPR/ANPR_RZA2M_RDK/src/tensorflow_lite/src/tensorflow/lite/kernels/internal/reference\pooling.h **** distributed under the License is distributed on an "AS IS" BASIS,
  11:C:/Renesas/e2studio_2021_01_workspace_RZA2M_ANPR/ANPR_RZA2M_RDK/src/tensorflow_lite/src/tensorflow/lite/kernels/internal/reference\pooling.h **** WITHOUT WARRANTIES OR CONDITIONS OF ANY KIND, either express or implied.
  12:C:/Renesas/e2studio_2021_01_workspace_RZA2M_ANPR/ANPR_RZA2M_RDK/src/tensorflow_lite/src/tensorflow/lite/kernels/internal/reference\pooling.h **** See the License for the specific language governing permissions and
  13:C:/Renesas/e2studio_2021_01_workspace_RZA2M_ANPR/ANPR_RZA2M_RDK/src/tensorflow_lite/src/tensorflow/lite/kernels/internal/reference\pooling.h **** limitations under the License.
  14:C:/Renesas/e2studio_2021_01_workspace_RZA2M_ANPR/ANPR_RZA2M_RDK/src/tensorflow_lite/src/tensorflow/lite/kernels/internal/reference\pooling.h **** ==============================================================================*/
  15:C:/Renesas/e2studio_2021_01_workspace_RZA2M_ANPR/ANPR_RZA2M_RDK/src/tensorflow_lite/src/tensorflow/lite/kernels/internal/reference\pooling.h **** #ifndef TENSORFLOW_LITE_KERNELS_INTERNAL_REFERENCE_POOLING_H_
  16:C:/Renesas/e2studio_2021_01_workspace_RZA2M_ANPR/ANPR_RZA2M_RDK/src/tensorflow_lite/src/tensorflow/lite/kernels/internal/reference\pooling.h **** #define TENSORFLOW_LITE_KERNELS_INTERNAL_REFERENCE_POOLING_H_
  17:C:/Renesas/e2studio_2021_01_workspace_RZA2M_ANPR/ANPR_RZA2M_RDK/src/tensorflow_lite/src/tensorflow/lite/kernels/internal/reference\pooling.h **** 
  18:C:/Renesas/e2studio_2021_01_workspace_RZA2M_ANPR/ANPR_RZA2M_RDK/src/tensorflow_lite/src/tensorflow/lite/kernels/internal/reference\pooling.h **** #include "tensorflow/lite/kernels/internal/common.h"
  19:C:/Renesas/e2studio_2021_01_workspace_RZA2M_ANPR/ANPR_RZA2M_RDK/src/tensorflow_lite/src/tensorflow/lite/kernels/internal/reference\pooling.h **** #include "tensorflow/lite/kernels/internal/cppmath.h"
  20:C:/Renesas/e2studio_2021_01_workspace_RZA2M_ANPR/ANPR_RZA2M_RDK/src/tensorflow_lite/src/tensorflow/lite/kernels/internal/reference\pooling.h **** #include "tensorflow/lite/kernels/internal/quantization_util.h"
  21:C:/Renesas/e2studio_2021_01_workspace_RZA2M_ANPR/ANPR_RZA2M_RDK/src/tensorflow_lite/src/tensorflow/lite/kernels/internal/reference\pooling.h **** #include "tensorflow/lite/kernels/internal/types.h"
  22:C:/Renesas/e2studio_2021_01_workspace_RZA2M_ANPR/ANPR_RZA2M_RDK/src/tensorflow_lite/src/tensorflow/lite/kernels/internal/reference\pooling.h **** 
  23:C:/Renesas/e2studio_2021_01_workspace_RZA2M_ANPR/ANPR_RZA2M_RDK/src/tensorflow_lite/src/tensorflow/lite/kernels/internal/reference\pooling.h **** namespace tflite {
  24:C:/Renesas/e2studio_2021_01_workspace_RZA2M_ANPR/ANPR_RZA2M_RDK/src/tensorflow_lite/src/tensorflow/lite/kernels/internal/reference\pooling.h **** namespace reference_ops {
  25:C:/Renesas/e2studio_2021_01_workspace_RZA2M_ANPR/ANPR_RZA2M_RDK/src/tensorflow_lite/src/tensorflow/lite/kernels/internal/reference\pooling.h **** 
  26:C:/Renesas/e2studio_2021_01_workspace_RZA2M_ANPR/ANPR_RZA2M_RDK/src/tensorflow_lite/src/tensorflow/lite/kernels/internal/reference\pooling.h **** inline void AveragePool(const PoolParams& params,
  27:C:/Renesas/e2studio_2021_01_workspace_RZA2M_ANPR/ANPR_RZA2M_RDK/src/tensorflow_lite/src/tensorflow/lite/kernels/internal/reference\pooling.h ****                         const RuntimeShape& input_shape,
  28:C:/Renesas/e2studio_2021_01_workspace_RZA2M_ANPR/ANPR_RZA2M_RDK/src/tensorflow_lite/src/tensorflow/lite/kernels/internal/reference\pooling.h ****                         const float* input_data,
  29:C:/Renesas/e2studio_2021_01_workspace_RZA2M_ANPR/ANPR_RZA2M_RDK/src/tensorflow_lite/src/tensorflow/lite/kernels/internal/reference\pooling.h ****                         const RuntimeShape& output_shape, float* output_data) {
  30:C:/Renesas/e2studio_2021_01_workspace_RZA2M_ANPR/ANPR_RZA2M_RDK/src/tensorflow_lite/src/tensorflow/lite/kernels/internal/reference\pooling.h ****   TFLITE_DCHECK_EQ(input_shape.DimensionsCount(), 4);
  31:C:/Renesas/e2studio_2021_01_workspace_RZA2M_ANPR/ANPR_RZA2M_RDK/src/tensorflow_lite/src/tensorflow/lite/kernels/internal/reference\pooling.h ****   TFLITE_DCHECK_EQ(output_shape.DimensionsCount(), 4);
  32:C:/Renesas/e2studio_2021_01_workspace_RZA2M_ANPR/ANPR_RZA2M_RDK/src/tensorflow_lite/src/tensorflow/lite/kernels/internal/reference\pooling.h ****   const int batches = MatchingDim(input_shape, 0, output_shape, 0);
  33:C:/Renesas/e2studio_2021_01_workspace_RZA2M_ANPR/ANPR_RZA2M_RDK/src/tensorflow_lite/src/tensorflow/lite/kernels/internal/reference\pooling.h ****   const int depth = MatchingDim(input_shape, 3, output_shape, 3);
  34:C:/Renesas/e2studio_2021_01_workspace_RZA2M_ANPR/ANPR_RZA2M_RDK/src/tensorflow_lite/src/tensorflow/lite/kernels/internal/reference\pooling.h ****   const int input_height = input_shape.Dims(1);
  35:C:/Renesas/e2studio_2021_01_workspace_RZA2M_ANPR/ANPR_RZA2M_RDK/src/tensorflow_lite/src/tensorflow/lite/kernels/internal/reference\pooling.h ****   const int input_width = input_shape.Dims(2);
  36:C:/Renesas/e2studio_2021_01_workspace_RZA2M_ANPR/ANPR_RZA2M_RDK/src/tensorflow_lite/src/tensorflow/lite/kernels/internal/reference\pooling.h ****   const int output_height = output_shape.Dims(1);
  37:C:/Renesas/e2studio_2021_01_workspace_RZA2M_ANPR/ANPR_RZA2M_RDK/src/tensorflow_lite/src/tensorflow/lite/kernels/internal/reference\pooling.h ****   const int output_width = output_shape.Dims(2);
  38:C:/Renesas/e2studio_2021_01_workspace_RZA2M_ANPR/ANPR_RZA2M_RDK/src/tensorflow_lite/src/tensorflow/lite/kernels/internal/reference\pooling.h ****   const int stride_height = params.stride_height;
  39:C:/Renesas/e2studio_2021_01_workspace_RZA2M_ANPR/ANPR_RZA2M_RDK/src/tensorflow_lite/src/tensorflow/lite/kernels/internal/reference\pooling.h ****   const int stride_width = params.stride_width;
  40:C:/Renesas/e2studio_2021_01_workspace_RZA2M_ANPR/ANPR_RZA2M_RDK/src/tensorflow_lite/src/tensorflow/lite/kernels/internal/reference\pooling.h ****   for (int batch = 0; batch < batches; ++batch) {
  41:C:/Renesas/e2studio_2021_01_workspace_RZA2M_ANPR/ANPR_RZA2M_RDK/src/tensorflow_lite/src/tensorflow/lite/kernels/internal/reference\pooling.h ****     for (int out_y = 0; out_y < output_height; ++out_y) {
  42:C:/Renesas/e2studio_2021_01_workspace_RZA2M_ANPR/ANPR_RZA2M_RDK/src/tensorflow_lite/src/tensorflow/lite/kernels/internal/reference\pooling.h ****       for (int out_x = 0; out_x < output_width; ++out_x) {
  43:C:/Renesas/e2studio_2021_01_workspace_RZA2M_ANPR/ANPR_RZA2M_RDK/src/tensorflow_lite/src/tensorflow/lite/kernels/internal/reference\pooling.h ****         for (int channel = 0; channel < depth; ++channel) {
  44:C:/Renesas/e2studio_2021_01_workspace_RZA2M_ANPR/ANPR_RZA2M_RDK/src/tensorflow_lite/src/tensorflow/lite/kernels/internal/reference\pooling.h ****           const int in_x_origin =
  45:C:/Renesas/e2studio_2021_01_workspace_RZA2M_ANPR/ANPR_RZA2M_RDK/src/tensorflow_lite/src/tensorflow/lite/kernels/internal/reference\pooling.h ****               (out_x * stride_width) - params.padding_values.width;
  46:C:/Renesas/e2studio_2021_01_workspace_RZA2M_ANPR/ANPR_RZA2M_RDK/src/tensorflow_lite/src/tensorflow/lite/kernels/internal/reference\pooling.h ****           const int in_y_origin =
  47:C:/Renesas/e2studio_2021_01_workspace_RZA2M_ANPR/ANPR_RZA2M_RDK/src/tensorflow_lite/src/tensorflow/lite/kernels/internal/reference\pooling.h ****               (out_y * stride_height) - params.padding_values.height;
  48:C:/Renesas/e2studio_2021_01_workspace_RZA2M_ANPR/ANPR_RZA2M_RDK/src/tensorflow_lite/src/tensorflow/lite/kernels/internal/reference\pooling.h ****           // Compute the boundaries of the filter region clamped so as to
  49:C:/Renesas/e2studio_2021_01_workspace_RZA2M_ANPR/ANPR_RZA2M_RDK/src/tensorflow_lite/src/tensorflow/lite/kernels/internal/reference\pooling.h ****           // ensure that the filter window fits in the input array.
  50:C:/Renesas/e2studio_2021_01_workspace_RZA2M_ANPR/ANPR_RZA2M_RDK/src/tensorflow_lite/src/tensorflow/lite/kernels/internal/reference\pooling.h ****           const int filter_x_start = std::max(0, -in_x_origin);
  51:C:/Renesas/e2studio_2021_01_workspace_RZA2M_ANPR/ANPR_RZA2M_RDK/src/tensorflow_lite/src/tensorflow/lite/kernels/internal/reference\pooling.h ****           const int filter_x_end =
  52:C:/Renesas/e2studio_2021_01_workspace_RZA2M_ANPR/ANPR_RZA2M_RDK/src/tensorflow_lite/src/tensorflow/lite/kernels/internal/reference\pooling.h ****               std::min(params.filter_width, input_width - in_x_origin);
  53:C:/Renesas/e2studio_2021_01_workspace_RZA2M_ANPR/ANPR_RZA2M_RDK/src/tensorflow_lite/src/tensorflow/lite/kernels/internal/reference\pooling.h ****           const int filter_y_start = std::max(0, -in_y_origin);
  54:C:/Renesas/e2studio_2021_01_workspace_RZA2M_ANPR/ANPR_RZA2M_RDK/src/tensorflow_lite/src/tensorflow/lite/kernels/internal/reference\pooling.h ****           const int filter_y_end =
  55:C:/Renesas/e2studio_2021_01_workspace_RZA2M_ANPR/ANPR_RZA2M_RDK/src/tensorflow_lite/src/tensorflow/lite/kernels/internal/reference\pooling.h ****               std::min(params.filter_height, input_height - in_y_origin);
  56:C:/Renesas/e2studio_2021_01_workspace_RZA2M_ANPR/ANPR_RZA2M_RDK/src/tensorflow_lite/src/tensorflow/lite/kernels/internal/reference\pooling.h ****           float total = 0.f;
  57:C:/Renesas/e2studio_2021_01_workspace_RZA2M_ANPR/ANPR_RZA2M_RDK/src/tensorflow_lite/src/tensorflow/lite/kernels/internal/reference\pooling.h ****           float filter_count = 0;
  58:C:/Renesas/e2studio_2021_01_workspace_RZA2M_ANPR/ANPR_RZA2M_RDK/src/tensorflow_lite/src/tensorflow/lite/kernels/internal/reference\pooling.h ****           for (int filter_y = filter_y_start; filter_y < filter_y_end;
  59:C:/Renesas/e2studio_2021_01_workspace_RZA2M_ANPR/ANPR_RZA2M_RDK/src/tensorflow_lite/src/tensorflow/lite/kernels/internal/reference\pooling.h ****                ++filter_y) {
  60:C:/Renesas/e2studio_2021_01_workspace_RZA2M_ANPR/ANPR_RZA2M_RDK/src/tensorflow_lite/src/tensorflow/lite/kernels/internal/reference\pooling.h ****             for (int filter_x = filter_x_start; filter_x < filter_x_end;
  61:C:/Renesas/e2studio_2021_01_workspace_RZA2M_ANPR/ANPR_RZA2M_RDK/src/tensorflow_lite/src/tensorflow/lite/kernels/internal/reference\pooling.h ****                  ++filter_x) {
  62:C:/Renesas/e2studio_2021_01_workspace_RZA2M_ANPR/ANPR_RZA2M_RDK/src/tensorflow_lite/src/tensorflow/lite/kernels/internal/reference\pooling.h ****               const int in_x = in_x_origin + filter_x;
  63:C:/Renesas/e2studio_2021_01_workspace_RZA2M_ANPR/ANPR_RZA2M_RDK/src/tensorflow_lite/src/tensorflow/lite/kernels/internal/reference\pooling.h ****               const int in_y = in_y_origin + filter_y;
  64:C:/Renesas/e2studio_2021_01_workspace_RZA2M_ANPR/ANPR_RZA2M_RDK/src/tensorflow_lite/src/tensorflow/lite/kernels/internal/reference\pooling.h ****               total +=
  65:C:/Renesas/e2studio_2021_01_workspace_RZA2M_ANPR/ANPR_RZA2M_RDK/src/tensorflow_lite/src/tensorflow/lite/kernels/internal/reference\pooling.h ****                   input_data[Offset(input_shape, batch, in_y, in_x, channel)];
  66:C:/Renesas/e2studio_2021_01_workspace_RZA2M_ANPR/ANPR_RZA2M_RDK/src/tensorflow_lite/src/tensorflow/lite/kernels/internal/reference\pooling.h ****               filter_count++;
  67:C:/Renesas/e2studio_2021_01_workspace_RZA2M_ANPR/ANPR_RZA2M_RDK/src/tensorflow_lite/src/tensorflow/lite/kernels/internal/reference\pooling.h ****             }
  68:C:/Renesas/e2studio_2021_01_workspace_RZA2M_ANPR/ANPR_RZA2M_RDK/src/tensorflow_lite/src/tensorflow/lite/kernels/internal/reference\pooling.h ****           }
  69:C:/Renesas/e2studio_2021_01_workspace_RZA2M_ANPR/ANPR_RZA2M_RDK/src/tensorflow_lite/src/tensorflow/lite/kernels/internal/reference\pooling.h ****           const float average = total / filter_count;
  70:C:/Renesas/e2studio_2021_01_workspace_RZA2M_ANPR/ANPR_RZA2M_RDK/src/tensorflow_lite/src/tensorflow/lite/kernels/internal/reference\pooling.h ****           output_data[Offset(output_shape, batch, out_y, out_x, channel)] =
  71:C:/Renesas/e2studio_2021_01_workspace_RZA2M_ANPR/ANPR_RZA2M_RDK/src/tensorflow_lite/src/tensorflow/lite/kernels/internal/reference\pooling.h ****               ActivationFunctionWithMinMax(average, params.float_activation_min,
  72:C:/Renesas/e2studio_2021_01_workspace_RZA2M_ANPR/ANPR_RZA2M_RDK/src/tensorflow_lite/src/tensorflow/lite/kernels/internal/reference\pooling.h ****                                            params.float_activation_max);
  73:C:/Renesas/e2studio_2021_01_workspace_RZA2M_ANPR/ANPR_RZA2M_RDK/src/tensorflow_lite/src/tensorflow/lite/kernels/internal/reference\pooling.h ****         }
  74:C:/Renesas/e2studio_2021_01_workspace_RZA2M_ANPR/ANPR_RZA2M_RDK/src/tensorflow_lite/src/tensorflow/lite/kernels/internal/reference\pooling.h ****       }
  75:C:/Renesas/e2studio_2021_01_workspace_RZA2M_ANPR/ANPR_RZA2M_RDK/src/tensorflow_lite/src/tensorflow/lite/kernels/internal/reference\pooling.h ****     }
  76:C:/Renesas/e2studio_2021_01_workspace_RZA2M_ANPR/ANPR_RZA2M_RDK/src/tensorflow_lite/src/tensorflow/lite/kernels/internal/reference\pooling.h ****   }
  77:C:/Renesas/e2studio_2021_01_workspace_RZA2M_ANPR/ANPR_RZA2M_RDK/src/tensorflow_lite/src/tensorflow/lite/kernels/internal/reference\pooling.h **** }
  78:C:/Renesas/e2studio_2021_01_workspace_RZA2M_ANPR/ANPR_RZA2M_RDK/src/tensorflow_lite/src/tensorflow/lite/kernels/internal/reference\pooling.h **** 
  79:C:/Renesas/e2studio_2021_01_workspace_RZA2M_ANPR/ANPR_RZA2M_RDK/src/tensorflow_lite/src/tensorflow/lite/kernels/internal/reference\pooling.h **** inline void AveragePool(const PoolParams& params,
  80:C:/Renesas/e2studio_2021_01_workspace_RZA2M_ANPR/ANPR_RZA2M_RDK/src/tensorflow_lite/src/tensorflow/lite/kernels/internal/reference\pooling.h ****                         const RuntimeShape& input_shape,
  81:C:/Renesas/e2studio_2021_01_workspace_RZA2M_ANPR/ANPR_RZA2M_RDK/src/tensorflow_lite/src/tensorflow/lite/kernels/internal/reference\pooling.h ****                         const uint8_t* input_data,
  82:C:/Renesas/e2studio_2021_01_workspace_RZA2M_ANPR/ANPR_RZA2M_RDK/src/tensorflow_lite/src/tensorflow/lite/kernels/internal/reference\pooling.h ****                         const RuntimeShape& output_shape,
  83:C:/Renesas/e2studio_2021_01_workspace_RZA2M_ANPR/ANPR_RZA2M_RDK/src/tensorflow_lite/src/tensorflow/lite/kernels/internal/reference\pooling.h ****                         uint8_t* output_data) {
  84:C:/Renesas/e2studio_2021_01_workspace_RZA2M_ANPR/ANPR_RZA2M_RDK/src/tensorflow_lite/src/tensorflow/lite/kernels/internal/reference\pooling.h ****   TFLITE_DCHECK_LE(params.quantized_activation_min,
  85:C:/Renesas/e2studio_2021_01_workspace_RZA2M_ANPR/ANPR_RZA2M_RDK/src/tensorflow_lite/src/tensorflow/lite/kernels/internal/reference\pooling.h ****                    params.quantized_activation_max);
  86:C:/Renesas/e2studio_2021_01_workspace_RZA2M_ANPR/ANPR_RZA2M_RDK/src/tensorflow_lite/src/tensorflow/lite/kernels/internal/reference\pooling.h ****   TFLITE_DCHECK_EQ(input_shape.DimensionsCount(), 4);
  87:C:/Renesas/e2studio_2021_01_workspace_RZA2M_ANPR/ANPR_RZA2M_RDK/src/tensorflow_lite/src/tensorflow/lite/kernels/internal/reference\pooling.h ****   TFLITE_DCHECK_EQ(output_shape.DimensionsCount(), 4);
  88:C:/Renesas/e2studio_2021_01_workspace_RZA2M_ANPR/ANPR_RZA2M_RDK/src/tensorflow_lite/src/tensorflow/lite/kernels/internal/reference\pooling.h ****   const int batches = MatchingDim(input_shape, 0, output_shape, 0);
  89:C:/Renesas/e2studio_2021_01_workspace_RZA2M_ANPR/ANPR_RZA2M_RDK/src/tensorflow_lite/src/tensorflow/lite/kernels/internal/reference\pooling.h ****   const int depth = MatchingDim(input_shape, 3, output_shape, 3);
  90:C:/Renesas/e2studio_2021_01_workspace_RZA2M_ANPR/ANPR_RZA2M_RDK/src/tensorflow_lite/src/tensorflow/lite/kernels/internal/reference\pooling.h ****   const int input_height = input_shape.Dims(1);
  91:C:/Renesas/e2studio_2021_01_workspace_RZA2M_ANPR/ANPR_RZA2M_RDK/src/tensorflow_lite/src/tensorflow/lite/kernels/internal/reference\pooling.h ****   const int input_width = input_shape.Dims(2);
  92:C:/Renesas/e2studio_2021_01_workspace_RZA2M_ANPR/ANPR_RZA2M_RDK/src/tensorflow_lite/src/tensorflow/lite/kernels/internal/reference\pooling.h ****   const int output_height = output_shape.Dims(1);
  93:C:/Renesas/e2studio_2021_01_workspace_RZA2M_ANPR/ANPR_RZA2M_RDK/src/tensorflow_lite/src/tensorflow/lite/kernels/internal/reference\pooling.h ****   const int output_width = output_shape.Dims(2);
  94:C:/Renesas/e2studio_2021_01_workspace_RZA2M_ANPR/ANPR_RZA2M_RDK/src/tensorflow_lite/src/tensorflow/lite/kernels/internal/reference\pooling.h ****   const int stride_height = params.stride_height;
  95:C:/Renesas/e2studio_2021_01_workspace_RZA2M_ANPR/ANPR_RZA2M_RDK/src/tensorflow_lite/src/tensorflow/lite/kernels/internal/reference\pooling.h ****   const int stride_width = params.stride_width;
  96:C:/Renesas/e2studio_2021_01_workspace_RZA2M_ANPR/ANPR_RZA2M_RDK/src/tensorflow_lite/src/tensorflow/lite/kernels/internal/reference\pooling.h ****   for (int batch = 0; batch < batches; ++batch) {
  97:C:/Renesas/e2studio_2021_01_workspace_RZA2M_ANPR/ANPR_RZA2M_RDK/src/tensorflow_lite/src/tensorflow/lite/kernels/internal/reference\pooling.h ****     for (int out_y = 0; out_y < output_height; ++out_y) {
  98:C:/Renesas/e2studio_2021_01_workspace_RZA2M_ANPR/ANPR_RZA2M_RDK/src/tensorflow_lite/src/tensorflow/lite/kernels/internal/reference\pooling.h ****       for (int out_x = 0; out_x < output_width; ++out_x) {
  99:C:/Renesas/e2studio_2021_01_workspace_RZA2M_ANPR/ANPR_RZA2M_RDK/src/tensorflow_lite/src/tensorflow/lite/kernels/internal/reference\pooling.h ****         for (int channel = 0; channel < depth; ++channel) {
 100:C:/Renesas/e2studio_2021_01_workspace_RZA2M_ANPR/ANPR_RZA2M_RDK/src/tensorflow_lite/src/tensorflow/lite/kernels/internal/reference\pooling.h ****           const int in_x_origin =
 101:C:/Renesas/e2studio_2021_01_workspace_RZA2M_ANPR/ANPR_RZA2M_RDK/src/tensorflow_lite/src/tensorflow/lite/kernels/internal/reference\pooling.h ****               (out_x * stride_width) - params.padding_values.width;
 102:C:/Renesas/e2studio_2021_01_workspace_RZA2M_ANPR/ANPR_RZA2M_RDK/src/tensorflow_lite/src/tensorflow/lite/kernels/internal/reference\pooling.h ****           const int in_y_origin =
 103:C:/Renesas/e2studio_2021_01_workspace_RZA2M_ANPR/ANPR_RZA2M_RDK/src/tensorflow_lite/src/tensorflow/lite/kernels/internal/reference\pooling.h ****               (out_y * stride_height) - params.padding_values.height;
 104:C:/Renesas/e2studio_2021_01_workspace_RZA2M_ANPR/ANPR_RZA2M_RDK/src/tensorflow_lite/src/tensorflow/lite/kernels/internal/reference\pooling.h ****           // Compute the boundaries of the filter region clamped so as to
 105:C:/Renesas/e2studio_2021_01_workspace_RZA2M_ANPR/ANPR_RZA2M_RDK/src/tensorflow_lite/src/tensorflow/lite/kernels/internal/reference\pooling.h ****           // ensure that the filter window fits in the input array.
 106:C:/Renesas/e2studio_2021_01_workspace_RZA2M_ANPR/ANPR_RZA2M_RDK/src/tensorflow_lite/src/tensorflow/lite/kernels/internal/reference\pooling.h ****           const int filter_x_start = std::max(0, -in_x_origin);
 107:C:/Renesas/e2studio_2021_01_workspace_RZA2M_ANPR/ANPR_RZA2M_RDK/src/tensorflow_lite/src/tensorflow/lite/kernels/internal/reference\pooling.h ****           const int filter_x_end =
 108:C:/Renesas/e2studio_2021_01_workspace_RZA2M_ANPR/ANPR_RZA2M_RDK/src/tensorflow_lite/src/tensorflow/lite/kernels/internal/reference\pooling.h ****               std::min(params.filter_width, input_width - in_x_origin);
 109:C:/Renesas/e2studio_2021_01_workspace_RZA2M_ANPR/ANPR_RZA2M_RDK/src/tensorflow_lite/src/tensorflow/lite/kernels/internal/reference\pooling.h ****           const int filter_y_start = std::max(0, -in_y_origin);
 110:C:/Renesas/e2studio_2021_01_workspace_RZA2M_ANPR/ANPR_RZA2M_RDK/src/tensorflow_lite/src/tensorflow/lite/kernels/internal/reference\pooling.h ****           const int filter_y_end =
 111:C:/Renesas/e2studio_2021_01_workspace_RZA2M_ANPR/ANPR_RZA2M_RDK/src/tensorflow_lite/src/tensorflow/lite/kernels/internal/reference\pooling.h ****               std::min(params.filter_height, input_height - in_y_origin);
 112:C:/Renesas/e2studio_2021_01_workspace_RZA2M_ANPR/ANPR_RZA2M_RDK/src/tensorflow_lite/src/tensorflow/lite/kernels/internal/reference\pooling.h ****           int32_t acc = 0;
 113:C:/Renesas/e2studio_2021_01_workspace_RZA2M_ANPR/ANPR_RZA2M_RDK/src/tensorflow_lite/src/tensorflow/lite/kernels/internal/reference\pooling.h ****           int filter_count = 0;
 114:C:/Renesas/e2studio_2021_01_workspace_RZA2M_ANPR/ANPR_RZA2M_RDK/src/tensorflow_lite/src/tensorflow/lite/kernels/internal/reference\pooling.h ****           for (int filter_y = filter_y_start; filter_y < filter_y_end;
 115:C:/Renesas/e2studio_2021_01_workspace_RZA2M_ANPR/ANPR_RZA2M_RDK/src/tensorflow_lite/src/tensorflow/lite/kernels/internal/reference\pooling.h ****                ++filter_y) {
 116:C:/Renesas/e2studio_2021_01_workspace_RZA2M_ANPR/ANPR_RZA2M_RDK/src/tensorflow_lite/src/tensorflow/lite/kernels/internal/reference\pooling.h ****             for (int filter_x = filter_x_start; filter_x < filter_x_end;
 117:C:/Renesas/e2studio_2021_01_workspace_RZA2M_ANPR/ANPR_RZA2M_RDK/src/tensorflow_lite/src/tensorflow/lite/kernels/internal/reference\pooling.h ****                  ++filter_x) {
 118:C:/Renesas/e2studio_2021_01_workspace_RZA2M_ANPR/ANPR_RZA2M_RDK/src/tensorflow_lite/src/tensorflow/lite/kernels/internal/reference\pooling.h ****               const int in_x = in_x_origin + filter_x;
 119:C:/Renesas/e2studio_2021_01_workspace_RZA2M_ANPR/ANPR_RZA2M_RDK/src/tensorflow_lite/src/tensorflow/lite/kernels/internal/reference\pooling.h ****               const int in_y = in_y_origin + filter_y;
 120:C:/Renesas/e2studio_2021_01_workspace_RZA2M_ANPR/ANPR_RZA2M_RDK/src/tensorflow_lite/src/tensorflow/lite/kernels/internal/reference\pooling.h ****               acc +=
 121:C:/Renesas/e2studio_2021_01_workspace_RZA2M_ANPR/ANPR_RZA2M_RDK/src/tensorflow_lite/src/tensorflow/lite/kernels/internal/reference\pooling.h ****                   input_data[Offset(input_shape, batch, in_y, in_x, channel)];
 122:C:/Renesas/e2studio_2021_01_workspace_RZA2M_ANPR/ANPR_RZA2M_RDK/src/tensorflow_lite/src/tensorflow/lite/kernels/internal/reference\pooling.h ****               filter_count++;
 123:C:/Renesas/e2studio_2021_01_workspace_RZA2M_ANPR/ANPR_RZA2M_RDK/src/tensorflow_lite/src/tensorflow/lite/kernels/internal/reference\pooling.h ****             }
 124:C:/Renesas/e2studio_2021_01_workspace_RZA2M_ANPR/ANPR_RZA2M_RDK/src/tensorflow_lite/src/tensorflow/lite/kernels/internal/reference\pooling.h ****           }
 125:C:/Renesas/e2studio_2021_01_workspace_RZA2M_ANPR/ANPR_RZA2M_RDK/src/tensorflow_lite/src/tensorflow/lite/kernels/internal/reference\pooling.h ****           acc = (acc + filter_count / 2) / filter_count;
 126:C:/Renesas/e2studio_2021_01_workspace_RZA2M_ANPR/ANPR_RZA2M_RDK/src/tensorflow_lite/src/tensorflow/lite/kernels/internal/reference\pooling.h ****           acc = std::max(acc, params.quantized_activation_min);
 127:C:/Renesas/e2studio_2021_01_workspace_RZA2M_ANPR/ANPR_RZA2M_RDK/src/tensorflow_lite/src/tensorflow/lite/kernels/internal/reference\pooling.h ****           acc = std::min(acc, params.quantized_activation_max);
 128:C:/Renesas/e2studio_2021_01_workspace_RZA2M_ANPR/ANPR_RZA2M_RDK/src/tensorflow_lite/src/tensorflow/lite/kernels/internal/reference\pooling.h ****           output_data[Offset(output_shape, batch, out_y, out_x, channel)] =
 129:C:/Renesas/e2studio_2021_01_workspace_RZA2M_ANPR/ANPR_RZA2M_RDK/src/tensorflow_lite/src/tensorflow/lite/kernels/internal/reference\pooling.h ****               static_cast<uint8_t>(acc);
 130:C:/Renesas/e2studio_2021_01_workspace_RZA2M_ANPR/ANPR_RZA2M_RDK/src/tensorflow_lite/src/tensorflow/lite/kernels/internal/reference\pooling.h ****         }
 131:C:/Renesas/e2studio_2021_01_workspace_RZA2M_ANPR/ANPR_RZA2M_RDK/src/tensorflow_lite/src/tensorflow/lite/kernels/internal/reference\pooling.h ****       }
 132:C:/Renesas/e2studio_2021_01_workspace_RZA2M_ANPR/ANPR_RZA2M_RDK/src/tensorflow_lite/src/tensorflow/lite/kernels/internal/reference\pooling.h ****     }
 133:C:/Renesas/e2studio_2021_01_workspace_RZA2M_ANPR/ANPR_RZA2M_RDK/src/tensorflow_lite/src/tensorflow/lite/kernels/internal/reference\pooling.h ****   }
 134:C:/Renesas/e2studio_2021_01_workspace_RZA2M_ANPR/ANPR_RZA2M_RDK/src/tensorflow_lite/src/tensorflow/lite/kernels/internal/reference\pooling.h **** }
 135:C:/Renesas/e2studio_2021_01_workspace_RZA2M_ANPR/ANPR_RZA2M_RDK/src/tensorflow_lite/src/tensorflow/lite/kernels/internal/reference\pooling.h **** 
 136:C:/Renesas/e2studio_2021_01_workspace_RZA2M_ANPR/ANPR_RZA2M_RDK/src/tensorflow_lite/src/tensorflow/lite/kernels/internal/reference\pooling.h **** inline void L2Pool(const PoolParams& params, const RuntimeShape& input_shape,
 137:C:/Renesas/e2studio_2021_01_workspace_RZA2M_ANPR/ANPR_RZA2M_RDK/src/tensorflow_lite/src/tensorflow/lite/kernels/internal/reference\pooling.h ****                    const float* input_data, const RuntimeShape& output_shape,
 138:C:/Renesas/e2studio_2021_01_workspace_RZA2M_ANPR/ANPR_RZA2M_RDK/src/tensorflow_lite/src/tensorflow/lite/kernels/internal/reference\pooling.h ****                    float* output_data) {
 139:C:/Renesas/e2studio_2021_01_workspace_RZA2M_ANPR/ANPR_RZA2M_RDK/src/tensorflow_lite/src/tensorflow/lite/kernels/internal/reference\pooling.h ****   TFLITE_DCHECK_EQ(input_shape.DimensionsCount(), 4);
 140:C:/Renesas/e2studio_2021_01_workspace_RZA2M_ANPR/ANPR_RZA2M_RDK/src/tensorflow_lite/src/tensorflow/lite/kernels/internal/reference\pooling.h ****   TFLITE_DCHECK_EQ(output_shape.DimensionsCount(), 4);
 141:C:/Renesas/e2studio_2021_01_workspace_RZA2M_ANPR/ANPR_RZA2M_RDK/src/tensorflow_lite/src/tensorflow/lite/kernels/internal/reference\pooling.h ****   const int batches = MatchingDim(input_shape, 0, output_shape, 0);
 142:C:/Renesas/e2studio_2021_01_workspace_RZA2M_ANPR/ANPR_RZA2M_RDK/src/tensorflow_lite/src/tensorflow/lite/kernels/internal/reference\pooling.h ****   const int depth = MatchingDim(input_shape, 3, output_shape, 3);
 143:C:/Renesas/e2studio_2021_01_workspace_RZA2M_ANPR/ANPR_RZA2M_RDK/src/tensorflow_lite/src/tensorflow/lite/kernels/internal/reference\pooling.h ****   const int input_height = input_shape.Dims(1);
 144:C:/Renesas/e2studio_2021_01_workspace_RZA2M_ANPR/ANPR_RZA2M_RDK/src/tensorflow_lite/src/tensorflow/lite/kernels/internal/reference\pooling.h ****   const int input_width = input_shape.Dims(2);
 145:C:/Renesas/e2studio_2021_01_workspace_RZA2M_ANPR/ANPR_RZA2M_RDK/src/tensorflow_lite/src/tensorflow/lite/kernels/internal/reference\pooling.h ****   const int output_height = output_shape.Dims(1);
 146:C:/Renesas/e2studio_2021_01_workspace_RZA2M_ANPR/ANPR_RZA2M_RDK/src/tensorflow_lite/src/tensorflow/lite/kernels/internal/reference\pooling.h ****   const int output_width = output_shape.Dims(2);
 147:C:/Renesas/e2studio_2021_01_workspace_RZA2M_ANPR/ANPR_RZA2M_RDK/src/tensorflow_lite/src/tensorflow/lite/kernels/internal/reference\pooling.h ****   const int stride_height = params.stride_height;
 148:C:/Renesas/e2studio_2021_01_workspace_RZA2M_ANPR/ANPR_RZA2M_RDK/src/tensorflow_lite/src/tensorflow/lite/kernels/internal/reference\pooling.h ****   const int stride_width = params.stride_width;
 149:C:/Renesas/e2studio_2021_01_workspace_RZA2M_ANPR/ANPR_RZA2M_RDK/src/tensorflow_lite/src/tensorflow/lite/kernels/internal/reference\pooling.h ****   for (int batch = 0; batch < batches; ++batch) {
 150:C:/Renesas/e2studio_2021_01_workspace_RZA2M_ANPR/ANPR_RZA2M_RDK/src/tensorflow_lite/src/tensorflow/lite/kernels/internal/reference\pooling.h ****     for (int out_y = 0; out_y < output_height; ++out_y) {
 151:C:/Renesas/e2studio_2021_01_workspace_RZA2M_ANPR/ANPR_RZA2M_RDK/src/tensorflow_lite/src/tensorflow/lite/kernels/internal/reference\pooling.h ****       for (int out_x = 0; out_x < output_width; ++out_x) {
 152:C:/Renesas/e2studio_2021_01_workspace_RZA2M_ANPR/ANPR_RZA2M_RDK/src/tensorflow_lite/src/tensorflow/lite/kernels/internal/reference\pooling.h ****         for (int channel = 0; channel < depth; ++channel) {
 153:C:/Renesas/e2studio_2021_01_workspace_RZA2M_ANPR/ANPR_RZA2M_RDK/src/tensorflow_lite/src/tensorflow/lite/kernels/internal/reference\pooling.h ****           const int in_x_origin =
 154:C:/Renesas/e2studio_2021_01_workspace_RZA2M_ANPR/ANPR_RZA2M_RDK/src/tensorflow_lite/src/tensorflow/lite/kernels/internal/reference\pooling.h ****               (out_x * stride_width) - params.padding_values.width;
 155:C:/Renesas/e2studio_2021_01_workspace_RZA2M_ANPR/ANPR_RZA2M_RDK/src/tensorflow_lite/src/tensorflow/lite/kernels/internal/reference\pooling.h ****           const int in_y_origin =
 156:C:/Renesas/e2studio_2021_01_workspace_RZA2M_ANPR/ANPR_RZA2M_RDK/src/tensorflow_lite/src/tensorflow/lite/kernels/internal/reference\pooling.h ****               (out_y * stride_height) - params.padding_values.height;
 157:C:/Renesas/e2studio_2021_01_workspace_RZA2M_ANPR/ANPR_RZA2M_RDK/src/tensorflow_lite/src/tensorflow/lite/kernels/internal/reference\pooling.h ****           // Compute the boundaries of the filter region clamped so as to
 158:C:/Renesas/e2studio_2021_01_workspace_RZA2M_ANPR/ANPR_RZA2M_RDK/src/tensorflow_lite/src/tensorflow/lite/kernels/internal/reference\pooling.h ****           // ensure that the filter window fits in the input array.
 159:C:/Renesas/e2studio_2021_01_workspace_RZA2M_ANPR/ANPR_RZA2M_RDK/src/tensorflow_lite/src/tensorflow/lite/kernels/internal/reference\pooling.h ****           const int filter_x_start = std::max(0, -in_x_origin);
 160:C:/Renesas/e2studio_2021_01_workspace_RZA2M_ANPR/ANPR_RZA2M_RDK/src/tensorflow_lite/src/tensorflow/lite/kernels/internal/reference\pooling.h ****           const int filter_x_end =
 161:C:/Renesas/e2studio_2021_01_workspace_RZA2M_ANPR/ANPR_RZA2M_RDK/src/tensorflow_lite/src/tensorflow/lite/kernels/internal/reference\pooling.h ****               std::min(params.filter_width, input_width - in_x_origin);
 162:C:/Renesas/e2studio_2021_01_workspace_RZA2M_ANPR/ANPR_RZA2M_RDK/src/tensorflow_lite/src/tensorflow/lite/kernels/internal/reference\pooling.h ****           const int filter_y_start = std::max(0, -in_y_origin);
 163:C:/Renesas/e2studio_2021_01_workspace_RZA2M_ANPR/ANPR_RZA2M_RDK/src/tensorflow_lite/src/tensorflow/lite/kernels/internal/reference\pooling.h ****           const int filter_y_end =
 164:C:/Renesas/e2studio_2021_01_workspace_RZA2M_ANPR/ANPR_RZA2M_RDK/src/tensorflow_lite/src/tensorflow/lite/kernels/internal/reference\pooling.h ****               std::min(params.filter_height, input_height - in_y_origin);
 165:C:/Renesas/e2studio_2021_01_workspace_RZA2M_ANPR/ANPR_RZA2M_RDK/src/tensorflow_lite/src/tensorflow/lite/kernels/internal/reference\pooling.h ****           float sum_squares = 0.f;
 166:C:/Renesas/e2studio_2021_01_workspace_RZA2M_ANPR/ANPR_RZA2M_RDK/src/tensorflow_lite/src/tensorflow/lite/kernels/internal/reference\pooling.h ****           int filter_count = 0;
 167:C:/Renesas/e2studio_2021_01_workspace_RZA2M_ANPR/ANPR_RZA2M_RDK/src/tensorflow_lite/src/tensorflow/lite/kernels/internal/reference\pooling.h ****           for (int filter_y = filter_y_start; filter_y < filter_y_end;
 168:C:/Renesas/e2studio_2021_01_workspace_RZA2M_ANPR/ANPR_RZA2M_RDK/src/tensorflow_lite/src/tensorflow/lite/kernels/internal/reference\pooling.h ****                ++filter_y) {
 169:C:/Renesas/e2studio_2021_01_workspace_RZA2M_ANPR/ANPR_RZA2M_RDK/src/tensorflow_lite/src/tensorflow/lite/kernels/internal/reference\pooling.h ****             for (int filter_x = filter_x_start; filter_x < filter_x_end;
 170:C:/Renesas/e2studio_2021_01_workspace_RZA2M_ANPR/ANPR_RZA2M_RDK/src/tensorflow_lite/src/tensorflow/lite/kernels/internal/reference\pooling.h ****                  ++filter_x) {
 171:C:/Renesas/e2studio_2021_01_workspace_RZA2M_ANPR/ANPR_RZA2M_RDK/src/tensorflow_lite/src/tensorflow/lite/kernels/internal/reference\pooling.h ****               const int in_x = in_x_origin + filter_x;
 172:C:/Renesas/e2studio_2021_01_workspace_RZA2M_ANPR/ANPR_RZA2M_RDK/src/tensorflow_lite/src/tensorflow/lite/kernels/internal/reference\pooling.h ****               const int in_y = in_y_origin + filter_y;
 173:C:/Renesas/e2studio_2021_01_workspace_RZA2M_ANPR/ANPR_RZA2M_RDK/src/tensorflow_lite/src/tensorflow/lite/kernels/internal/reference\pooling.h ****               const float val =
 174:C:/Renesas/e2studio_2021_01_workspace_RZA2M_ANPR/ANPR_RZA2M_RDK/src/tensorflow_lite/src/tensorflow/lite/kernels/internal/reference\pooling.h ****                   input_data[Offset(input_shape, batch, in_y, in_x, channel)];
 175:C:/Renesas/e2studio_2021_01_workspace_RZA2M_ANPR/ANPR_RZA2M_RDK/src/tensorflow_lite/src/tensorflow/lite/kernels/internal/reference\pooling.h ****               sum_squares += val * val;
 176:C:/Renesas/e2studio_2021_01_workspace_RZA2M_ANPR/ANPR_RZA2M_RDK/src/tensorflow_lite/src/tensorflow/lite/kernels/internal/reference\pooling.h ****               filter_count++;
 177:C:/Renesas/e2studio_2021_01_workspace_RZA2M_ANPR/ANPR_RZA2M_RDK/src/tensorflow_lite/src/tensorflow/lite/kernels/internal/reference\pooling.h ****             }
 178:C:/Renesas/e2studio_2021_01_workspace_RZA2M_ANPR/ANPR_RZA2M_RDK/src/tensorflow_lite/src/tensorflow/lite/kernels/internal/reference\pooling.h ****           }
 179:C:/Renesas/e2studio_2021_01_workspace_RZA2M_ANPR/ANPR_RZA2M_RDK/src/tensorflow_lite/src/tensorflow/lite/kernels/internal/reference\pooling.h ****           const float l2pool_result = std::sqrt(sum_squares / filter_count);
 180:C:/Renesas/e2studio_2021_01_workspace_RZA2M_ANPR/ANPR_RZA2M_RDK/src/tensorflow_lite/src/tensorflow/lite/kernels/internal/reference\pooling.h ****           output_data[Offset(output_shape, batch, out_y, out_x, channel)] =
 181:C:/Renesas/e2studio_2021_01_workspace_RZA2M_ANPR/ANPR_RZA2M_RDK/src/tensorflow_lite/src/tensorflow/lite/kernels/internal/reference\pooling.h ****               ActivationFunctionWithMinMax(l2pool_result,
 182:C:/Renesas/e2studio_2021_01_workspace_RZA2M_ANPR/ANPR_RZA2M_RDK/src/tensorflow_lite/src/tensorflow/lite/kernels/internal/reference\pooling.h ****                                            params.float_activation_min,
 183:C:/Renesas/e2studio_2021_01_workspace_RZA2M_ANPR/ANPR_RZA2M_RDK/src/tensorflow_lite/src/tensorflow/lite/kernels/internal/reference\pooling.h ****                                            params.float_activation_max);
 184:C:/Renesas/e2studio_2021_01_workspace_RZA2M_ANPR/ANPR_RZA2M_RDK/src/tensorflow_lite/src/tensorflow/lite/kernels/internal/reference\pooling.h ****         }
 185:C:/Renesas/e2studio_2021_01_workspace_RZA2M_ANPR/ANPR_RZA2M_RDK/src/tensorflow_lite/src/tensorflow/lite/kernels/internal/reference\pooling.h ****       }
 186:C:/Renesas/e2studio_2021_01_workspace_RZA2M_ANPR/ANPR_RZA2M_RDK/src/tensorflow_lite/src/tensorflow/lite/kernels/internal/reference\pooling.h ****     }
 187:C:/Renesas/e2studio_2021_01_workspace_RZA2M_ANPR/ANPR_RZA2M_RDK/src/tensorflow_lite/src/tensorflow/lite/kernels/internal/reference\pooling.h ****   }
 188:C:/Renesas/e2studio_2021_01_workspace_RZA2M_ANPR/ANPR_RZA2M_RDK/src/tensorflow_lite/src/tensorflow/lite/kernels/internal/reference\pooling.h **** }
 189:C:/Renesas/e2studio_2021_01_workspace_RZA2M_ANPR/ANPR_RZA2M_RDK/src/tensorflow_lite/src/tensorflow/lite/kernels/internal/reference\pooling.h **** 
 190:C:/Renesas/e2studio_2021_01_workspace_RZA2M_ANPR/ANPR_RZA2M_RDK/src/tensorflow_lite/src/tensorflow/lite/kernels/internal/reference\pooling.h **** inline void MaxPool(const PoolParams& params, const RuntimeShape& input_shape,
 191:C:/Renesas/e2studio_2021_01_workspace_RZA2M_ANPR/ANPR_RZA2M_RDK/src/tensorflow_lite/src/tensorflow/lite/kernels/internal/reference\pooling.h ****                     const float* input_data, const RuntimeShape& output_shape,
 192:C:/Renesas/e2studio_2021_01_workspace_RZA2M_ANPR/ANPR_RZA2M_RDK/src/tensorflow_lite/src/tensorflow/lite/kernels/internal/reference\pooling.h ****                     float* output_data) {
 193:C:/Renesas/e2studio_2021_01_workspace_RZA2M_ANPR/ANPR_RZA2M_RDK/src/tensorflow_lite/src/tensorflow/lite/kernels/internal/reference\pooling.h ****   TFLITE_DCHECK_EQ(input_shape.DimensionsCount(), 4);
 772              		.loc 5 193 0
 773 00fc E0309DE5 		ldr	r3, [sp, #224]
 774              	.LBE686:
 775              	.LBE685:
 776              	.LBB805:
 777              	.LBB806:
  56:C:/Renesas/e2studio_2021_01_workspace_RZA2M_ANPR/ANPR_RZA2M_RDK/src/tensorflow_lite/src/tensorflow/lite/micro/kernels\kernel_util.h **** }
 778              		.loc 4 56 0
 779 0100 000055E3 		cmp	r5, #0
 780 0104 00109515 		ldrne	r1, [r5]
 781 0108 0510A001 		moveq	r1, r5
 782              	.LVL85:
 783              	.LBE806:
 784              	.LBE805:
 785              	.LBB807:
 786              	.LBB796:
 787              		.loc 5 193 0
 788 010c 040053E3 		cmp	r3, #4
 789 0110 A902001A 		bne	.L327
 790              	.LVL86:
 194:C:/Renesas/e2studio_2021_01_workspace_RZA2M_ANPR/ANPR_RZA2M_RDK/src/tensorflow_lite/src/tensorflow/lite/kernels/internal/reference\pooling.h ****   TFLITE_DCHECK_EQ(output_shape.DimensionsCount(), 4);
 791              		.loc 5 194 0
 792 0114 F8309DE5 		ldr	r3, [sp, #248]
 793 0118 040053E3 		cmp	r3, #4
 794 011c B902001A 		bne	.L328
 795              	.LVL87:
 796              	.LBB687:
 797              	.LBB688:
 798              	.LBB689:
 799              	.LBB690:
 800              		.file 6 "C:/Renesas/e2studio_2021_01_workspace_RZA2M_ANPR/ANPR_RZA2M_RDK/src/tensorflow_lite/src/t
   1:C:/Renesas/e2studio_2021_01_workspace_RZA2M_ANPR/ANPR_RZA2M_RDK/src/tensorflow_lite/src/tensorflow/lite/kernels/internal\types.h **** /* Copyright 2018 The TensorFlow Authors. All Rights Reserved.
   2:C:/Renesas/e2studio_2021_01_workspace_RZA2M_ANPR/ANPR_RZA2M_RDK/src/tensorflow_lite/src/tensorflow/lite/kernels/internal\types.h **** 
   3:C:/Renesas/e2studio_2021_01_workspace_RZA2M_ANPR/ANPR_RZA2M_RDK/src/tensorflow_lite/src/tensorflow/lite/kernels/internal\types.h **** Licensed under the Apache License, Version 2.0 (the "License");
   4:C:/Renesas/e2studio_2021_01_workspace_RZA2M_ANPR/ANPR_RZA2M_RDK/src/tensorflow_lite/src/tensorflow/lite/kernels/internal\types.h **** you may not use this file except in compliance with the License.
   5:C:/Renesas/e2studio_2021_01_workspace_RZA2M_ANPR/ANPR_RZA2M_RDK/src/tensorflow_lite/src/tensorflow/lite/kernels/internal\types.h **** You may obtain a copy of the License at
   6:C:/Renesas/e2studio_2021_01_workspace_RZA2M_ANPR/ANPR_RZA2M_RDK/src/tensorflow_lite/src/tensorflow/lite/kernels/internal\types.h **** 
   7:C:/Renesas/e2studio_2021_01_workspace_RZA2M_ANPR/ANPR_RZA2M_RDK/src/tensorflow_lite/src/tensorflow/lite/kernels/internal\types.h ****     http://www.apache.org/licenses/LICENSE-2.0
   8:C:/Renesas/e2studio_2021_01_workspace_RZA2M_ANPR/ANPR_RZA2M_RDK/src/tensorflow_lite/src/tensorflow/lite/kernels/internal\types.h **** 
   9:C:/Renesas/e2studio_2021_01_workspace_RZA2M_ANPR/ANPR_RZA2M_RDK/src/tensorflow_lite/src/tensorflow/lite/kernels/internal\types.h **** Unless required by applicable law or agreed to in writing, software
  10:C:/Renesas/e2studio_2021_01_workspace_RZA2M_ANPR/ANPR_RZA2M_RDK/src/tensorflow_lite/src/tensorflow/lite/kernels/internal\types.h **** distributed under the License is distributed on an "AS IS" BASIS,
  11:C:/Renesas/e2studio_2021_01_workspace_RZA2M_ANPR/ANPR_RZA2M_RDK/src/tensorflow_lite/src/tensorflow/lite/kernels/internal\types.h **** WITHOUT WARRANTIES OR CONDITIONS OF ANY KIND, either express or implied.
  12:C:/Renesas/e2studio_2021_01_workspace_RZA2M_ANPR/ANPR_RZA2M_RDK/src/tensorflow_lite/src/tensorflow/lite/kernels/internal\types.h **** See the License for the specific language governing permissions and
  13:C:/Renesas/e2studio_2021_01_workspace_RZA2M_ANPR/ANPR_RZA2M_RDK/src/tensorflow_lite/src/tensorflow/lite/kernels/internal\types.h **** limitations under the License.
  14:C:/Renesas/e2studio_2021_01_workspace_RZA2M_ANPR/ANPR_RZA2M_RDK/src/tensorflow_lite/src/tensorflow/lite/kernels/internal\types.h **** ==============================================================================*/
  15:C:/Renesas/e2studio_2021_01_workspace_RZA2M_ANPR/ANPR_RZA2M_RDK/src/tensorflow_lite/src/tensorflow/lite/kernels/internal\types.h **** #ifndef TENSORFLOW_LITE_KERNELS_INTERNAL_TYPES_H_
  16:C:/Renesas/e2studio_2021_01_workspace_RZA2M_ANPR/ANPR_RZA2M_RDK/src/tensorflow_lite/src/tensorflow/lite/kernels/internal\types.h **** #define TENSORFLOW_LITE_KERNELS_INTERNAL_TYPES_H_
  17:C:/Renesas/e2studio_2021_01_workspace_RZA2M_ANPR/ANPR_RZA2M_RDK/src/tensorflow_lite/src/tensorflow/lite/kernels/internal\types.h **** 
  18:C:/Renesas/e2studio_2021_01_workspace_RZA2M_ANPR/ANPR_RZA2M_RDK/src/tensorflow_lite/src/tensorflow/lite/kernels/internal\types.h **** #include <algorithm>
  19:C:/Renesas/e2studio_2021_01_workspace_RZA2M_ANPR/ANPR_RZA2M_RDK/src/tensorflow_lite/src/tensorflow/lite/kernels/internal\types.h **** #include <cstdint>
  20:C:/Renesas/e2studio_2021_01_workspace_RZA2M_ANPR/ANPR_RZA2M_RDK/src/tensorflow_lite/src/tensorflow/lite/kernels/internal\types.h **** #include <cstring>
  21:C:/Renesas/e2studio_2021_01_workspace_RZA2M_ANPR/ANPR_RZA2M_RDK/src/tensorflow_lite/src/tensorflow/lite/kernels/internal\types.h **** #include <initializer_list>
  22:C:/Renesas/e2studio_2021_01_workspace_RZA2M_ANPR/ANPR_RZA2M_RDK/src/tensorflow_lite/src/tensorflow/lite/kernels/internal\types.h **** 
  23:C:/Renesas/e2studio_2021_01_workspace_RZA2M_ANPR/ANPR_RZA2M_RDK/src/tensorflow_lite/src/tensorflow/lite/kernels/internal\types.h **** #include "tensorflow/lite/kernels/internal/compatibility.h"
  24:C:/Renesas/e2studio_2021_01_workspace_RZA2M_ANPR/ANPR_RZA2M_RDK/src/tensorflow_lite/src/tensorflow/lite/kernels/internal\types.h **** 
  25:C:/Renesas/e2studio_2021_01_workspace_RZA2M_ANPR/ANPR_RZA2M_RDK/src/tensorflow_lite/src/tensorflow/lite/kernels/internal\types.h **** namespace tflite {
  26:C:/Renesas/e2studio_2021_01_workspace_RZA2M_ANPR/ANPR_RZA2M_RDK/src/tensorflow_lite/src/tensorflow/lite/kernels/internal\types.h **** 
  27:C:/Renesas/e2studio_2021_01_workspace_RZA2M_ANPR/ANPR_RZA2M_RDK/src/tensorflow_lite/src/tensorflow/lite/kernels/internal\types.h **** enum class FusedActivationFunctionType : uint8_t {
  28:C:/Renesas/e2studio_2021_01_workspace_RZA2M_ANPR/ANPR_RZA2M_RDK/src/tensorflow_lite/src/tensorflow/lite/kernels/internal\types.h ****   kNone,
  29:C:/Renesas/e2studio_2021_01_workspace_RZA2M_ANPR/ANPR_RZA2M_RDK/src/tensorflow_lite/src/tensorflow/lite/kernels/internal\types.h ****   kRelu6,
  30:C:/Renesas/e2studio_2021_01_workspace_RZA2M_ANPR/ANPR_RZA2M_RDK/src/tensorflow_lite/src/tensorflow/lite/kernels/internal\types.h ****   kRelu1,
  31:C:/Renesas/e2studio_2021_01_workspace_RZA2M_ANPR/ANPR_RZA2M_RDK/src/tensorflow_lite/src/tensorflow/lite/kernels/internal\types.h ****   kRelu
  32:C:/Renesas/e2studio_2021_01_workspace_RZA2M_ANPR/ANPR_RZA2M_RDK/src/tensorflow_lite/src/tensorflow/lite/kernels/internal\types.h **** };
  33:C:/Renesas/e2studio_2021_01_workspace_RZA2M_ANPR/ANPR_RZA2M_RDK/src/tensorflow_lite/src/tensorflow/lite/kernels/internal\types.h **** enum class PaddingType : uint8_t { kNone, kSame, kValid };
  34:C:/Renesas/e2studio_2021_01_workspace_RZA2M_ANPR/ANPR_RZA2M_RDK/src/tensorflow_lite/src/tensorflow/lite/kernels/internal\types.h **** 
  35:C:/Renesas/e2studio_2021_01_workspace_RZA2M_ANPR/ANPR_RZA2M_RDK/src/tensorflow_lite/src/tensorflow/lite/kernels/internal\types.h **** struct PaddingValues {
  36:C:/Renesas/e2studio_2021_01_workspace_RZA2M_ANPR/ANPR_RZA2M_RDK/src/tensorflow_lite/src/tensorflow/lite/kernels/internal\types.h ****   int16_t width;
  37:C:/Renesas/e2studio_2021_01_workspace_RZA2M_ANPR/ANPR_RZA2M_RDK/src/tensorflow_lite/src/tensorflow/lite/kernels/internal\types.h ****   int16_t height;
  38:C:/Renesas/e2studio_2021_01_workspace_RZA2M_ANPR/ANPR_RZA2M_RDK/src/tensorflow_lite/src/tensorflow/lite/kernels/internal\types.h ****   // offset is used for calculating "remaining" padding, for example, `width`
  39:C:/Renesas/e2studio_2021_01_workspace_RZA2M_ANPR/ANPR_RZA2M_RDK/src/tensorflow_lite/src/tensorflow/lite/kernels/internal\types.h ****   // is 1 and `width_offset` is 1, so padding_left is 1 while padding_right is
  40:C:/Renesas/e2studio_2021_01_workspace_RZA2M_ANPR/ANPR_RZA2M_RDK/src/tensorflow_lite/src/tensorflow/lite/kernels/internal\types.h ****   // 1 + 1 = 2.
  41:C:/Renesas/e2studio_2021_01_workspace_RZA2M_ANPR/ANPR_RZA2M_RDK/src/tensorflow_lite/src/tensorflow/lite/kernels/internal\types.h ****   int16_t width_offset;
  42:C:/Renesas/e2studio_2021_01_workspace_RZA2M_ANPR/ANPR_RZA2M_RDK/src/tensorflow_lite/src/tensorflow/lite/kernels/internal\types.h ****   // Same as width_offset except it's over the height dimension.
  43:C:/Renesas/e2studio_2021_01_workspace_RZA2M_ANPR/ANPR_RZA2M_RDK/src/tensorflow_lite/src/tensorflow/lite/kernels/internal\types.h ****   int16_t height_offset;
  44:C:/Renesas/e2studio_2021_01_workspace_RZA2M_ANPR/ANPR_RZA2M_RDK/src/tensorflow_lite/src/tensorflow/lite/kernels/internal\types.h **** };
  45:C:/Renesas/e2studio_2021_01_workspace_RZA2M_ANPR/ANPR_RZA2M_RDK/src/tensorflow_lite/src/tensorflow/lite/kernels/internal\types.h **** 
  46:C:/Renesas/e2studio_2021_01_workspace_RZA2M_ANPR/ANPR_RZA2M_RDK/src/tensorflow_lite/src/tensorflow/lite/kernels/internal\types.h **** struct Padding3DValues {
  47:C:/Renesas/e2studio_2021_01_workspace_RZA2M_ANPR/ANPR_RZA2M_RDK/src/tensorflow_lite/src/tensorflow/lite/kernels/internal\types.h ****   int16_t width;
  48:C:/Renesas/e2studio_2021_01_workspace_RZA2M_ANPR/ANPR_RZA2M_RDK/src/tensorflow_lite/src/tensorflow/lite/kernels/internal\types.h ****   int16_t height;
  49:C:/Renesas/e2studio_2021_01_workspace_RZA2M_ANPR/ANPR_RZA2M_RDK/src/tensorflow_lite/src/tensorflow/lite/kernels/internal\types.h ****   int16_t depth;
  50:C:/Renesas/e2studio_2021_01_workspace_RZA2M_ANPR/ANPR_RZA2M_RDK/src/tensorflow_lite/src/tensorflow/lite/kernels/internal\types.h ****   // offset is used for calculating "remaining" padding, for example, `width`
  51:C:/Renesas/e2studio_2021_01_workspace_RZA2M_ANPR/ANPR_RZA2M_RDK/src/tensorflow_lite/src/tensorflow/lite/kernels/internal\types.h ****   // is 1 and `width_offset` is 1, so padding_left is 1 while padding_right is
  52:C:/Renesas/e2studio_2021_01_workspace_RZA2M_ANPR/ANPR_RZA2M_RDK/src/tensorflow_lite/src/tensorflow/lite/kernels/internal\types.h ****   // 1 + 1 = 2.
  53:C:/Renesas/e2studio_2021_01_workspace_RZA2M_ANPR/ANPR_RZA2M_RDK/src/tensorflow_lite/src/tensorflow/lite/kernels/internal\types.h ****   int16_t width_offset;
  54:C:/Renesas/e2studio_2021_01_workspace_RZA2M_ANPR/ANPR_RZA2M_RDK/src/tensorflow_lite/src/tensorflow/lite/kernels/internal\types.h ****   // Same as width_offset except it's over the height dimension.
  55:C:/Renesas/e2studio_2021_01_workspace_RZA2M_ANPR/ANPR_RZA2M_RDK/src/tensorflow_lite/src/tensorflow/lite/kernels/internal\types.h ****   int16_t height_offset;
  56:C:/Renesas/e2studio_2021_01_workspace_RZA2M_ANPR/ANPR_RZA2M_RDK/src/tensorflow_lite/src/tensorflow/lite/kernels/internal\types.h ****   // Same as width_offset except it's over the depth dimension.
  57:C:/Renesas/e2studio_2021_01_workspace_RZA2M_ANPR/ANPR_RZA2M_RDK/src/tensorflow_lite/src/tensorflow/lite/kernels/internal\types.h ****   int16_t depth_offset;
  58:C:/Renesas/e2studio_2021_01_workspace_RZA2M_ANPR/ANPR_RZA2M_RDK/src/tensorflow_lite/src/tensorflow/lite/kernels/internal\types.h **** };
  59:C:/Renesas/e2studio_2021_01_workspace_RZA2M_ANPR/ANPR_RZA2M_RDK/src/tensorflow_lite/src/tensorflow/lite/kernels/internal\types.h **** 
  60:C:/Renesas/e2studio_2021_01_workspace_RZA2M_ANPR/ANPR_RZA2M_RDK/src/tensorflow_lite/src/tensorflow/lite/kernels/internal\types.h **** // This enumeration allows for non-default formats for the weights array
  61:C:/Renesas/e2studio_2021_01_workspace_RZA2M_ANPR/ANPR_RZA2M_RDK/src/tensorflow_lite/src/tensorflow/lite/kernels/internal\types.h **** // of a fully-connected operator, allowing the use of special optimized
  62:C:/Renesas/e2studio_2021_01_workspace_RZA2M_ANPR/ANPR_RZA2M_RDK/src/tensorflow_lite/src/tensorflow/lite/kernels/internal\types.h **** // runtime paths.
  63:C:/Renesas/e2studio_2021_01_workspace_RZA2M_ANPR/ANPR_RZA2M_RDK/src/tensorflow_lite/src/tensorflow/lite/kernels/internal\types.h **** enum class FullyConnectedWeightsFormat : uint8_t {
  64:C:/Renesas/e2studio_2021_01_workspace_RZA2M_ANPR/ANPR_RZA2M_RDK/src/tensorflow_lite/src/tensorflow/lite/kernels/internal\types.h ****   // Default format (flat 2D layout, the inner contiguous dimension
  65:C:/Renesas/e2studio_2021_01_workspace_RZA2M_ANPR/ANPR_RZA2M_RDK/src/tensorflow_lite/src/tensorflow/lite/kernels/internal\types.h ****   // is input_depth, the outer non-contiguous dimension is output_depth)
  66:C:/Renesas/e2studio_2021_01_workspace_RZA2M_ANPR/ANPR_RZA2M_RDK/src/tensorflow_lite/src/tensorflow/lite/kernels/internal\types.h ****   kDefault,
  67:C:/Renesas/e2studio_2021_01_workspace_RZA2M_ANPR/ANPR_RZA2M_RDK/src/tensorflow_lite/src/tensorflow/lite/kernels/internal\types.h ****   // Summary: optimized layout for fast CPU runtime implementation,
  68:C:/Renesas/e2studio_2021_01_workspace_RZA2M_ANPR/ANPR_RZA2M_RDK/src/tensorflow_lite/src/tensorflow/lite/kernels/internal\types.h ****   // aimed specifically at ARM CPUs at the moment, and specialized for
  69:C:/Renesas/e2studio_2021_01_workspace_RZA2M_ANPR/ANPR_RZA2M_RDK/src/tensorflow_lite/src/tensorflow/lite/kernels/internal\types.h ****   // 8-bit quantized layers.
  70:C:/Renesas/e2studio_2021_01_workspace_RZA2M_ANPR/ANPR_RZA2M_RDK/src/tensorflow_lite/src/tensorflow/lite/kernels/internal\types.h ****   //
  71:C:/Renesas/e2studio_2021_01_workspace_RZA2M_ANPR/ANPR_RZA2M_RDK/src/tensorflow_lite/src/tensorflow/lite/kernels/internal\types.h ****   // The use case we're concerned with here is: 8-bit quantization,
  72:C:/Renesas/e2studio_2021_01_workspace_RZA2M_ANPR/ANPR_RZA2M_RDK/src/tensorflow_lite/src/tensorflow/lite/kernels/internal\types.h ****   // large weights matrix that doesn't fit in cache (e.g. 4096x2048 in
  73:C:/Renesas/e2studio_2021_01_workspace_RZA2M_ANPR/ANPR_RZA2M_RDK/src/tensorflow_lite/src/tensorflow/lite/kernels/internal\types.h ****   // a key application that drove this), very small batch size (e.g. 1 -- 4).
  74:C:/Renesas/e2studio_2021_01_workspace_RZA2M_ANPR/ANPR_RZA2M_RDK/src/tensorflow_lite/src/tensorflow/lite/kernels/internal\types.h ****   //
  75:C:/Renesas/e2studio_2021_01_workspace_RZA2M_ANPR/ANPR_RZA2M_RDK/src/tensorflow_lite/src/tensorflow/lite/kernels/internal\types.h ****   // Even with 8-bit quantization of weights, the performance of memory
  76:C:/Renesas/e2studio_2021_01_workspace_RZA2M_ANPR/ANPR_RZA2M_RDK/src/tensorflow_lite/src/tensorflow/lite/kernels/internal\types.h ****   // accesses to the weights can become the dominant issue when
  77:C:/Renesas/e2studio_2021_01_workspace_RZA2M_ANPR/ANPR_RZA2M_RDK/src/tensorflow_lite/src/tensorflow/lite/kernels/internal\types.h ****   // the batch size is small, so each weight value is used in only a few
  78:C:/Renesas/e2studio_2021_01_workspace_RZA2M_ANPR/ANPR_RZA2M_RDK/src/tensorflow_lite/src/tensorflow/lite/kernels/internal\types.h ****   // arithmetic ops, i.e. the fully-connected node has a low arithmetic
  79:C:/Renesas/e2studio_2021_01_workspace_RZA2M_ANPR/ANPR_RZA2M_RDK/src/tensorflow_lite/src/tensorflow/lite/kernels/internal\types.h ****   // intensity. The specific issues that arise are of three kinds:
  80:C:/Renesas/e2studio_2021_01_workspace_RZA2M_ANPR/ANPR_RZA2M_RDK/src/tensorflow_lite/src/tensorflow/lite/kernels/internal\types.h ****   // (1) One may, ideally, max out DRAM bandwidth, i.e. be truly memory
  81:C:/Renesas/e2studio_2021_01_workspace_RZA2M_ANPR/ANPR_RZA2M_RDK/src/tensorflow_lite/src/tensorflow/lite/kernels/internal\types.h ****   //     bound. That's the "good" issue to run into.
  82:C:/Renesas/e2studio_2021_01_workspace_RZA2M_ANPR/ANPR_RZA2M_RDK/src/tensorflow_lite/src/tensorflow/lite/kernels/internal\types.h ****   // (2) One may run into sub-optimal pre-fetching: the data hasn't been
  83:C:/Renesas/e2studio_2021_01_workspace_RZA2M_ANPR/ANPR_RZA2M_RDK/src/tensorflow_lite/src/tensorflow/lite/kernels/internal\types.h ****   //     prefetched into the cache by the time we need it.
  84:C:/Renesas/e2studio_2021_01_workspace_RZA2M_ANPR/ANPR_RZA2M_RDK/src/tensorflow_lite/src/tensorflow/lite/kernels/internal\types.h ****   // (3) One may run into cache aliasing: multiple values that are
  85:C:/Renesas/e2studio_2021_01_workspace_RZA2M_ANPR/ANPR_RZA2M_RDK/src/tensorflow_lite/src/tensorflow/lite/kernels/internal\types.h ****   //     pre-fetched, alias each other in the L1 cache (which typically
  86:C:/Renesas/e2studio_2021_01_workspace_RZA2M_ANPR/ANPR_RZA2M_RDK/src/tensorflow_lite/src/tensorflow/lite/kernels/internal\types.h ****   //     has only 4-way set associativity in ARM CPUs) and thus evict
  87:C:/Renesas/e2studio_2021_01_workspace_RZA2M_ANPR/ANPR_RZA2M_RDK/src/tensorflow_lite/src/tensorflow/lite/kernels/internal\types.h ****   //     each other before we get to using them.
  88:C:/Renesas/e2studio_2021_01_workspace_RZA2M_ANPR/ANPR_RZA2M_RDK/src/tensorflow_lite/src/tensorflow/lite/kernels/internal\types.h ****   //
  89:C:/Renesas/e2studio_2021_01_workspace_RZA2M_ANPR/ANPR_RZA2M_RDK/src/tensorflow_lite/src/tensorflow/lite/kernels/internal\types.h ****   // The point of this shuffling is to avoid issues (2) and (3) so that
  90:C:/Renesas/e2studio_2021_01_workspace_RZA2M_ANPR/ANPR_RZA2M_RDK/src/tensorflow_lite/src/tensorflow/lite/kernels/internal\types.h ****   // we get as fast as possible given only the hard constraint (1).
  91:C:/Renesas/e2studio_2021_01_workspace_RZA2M_ANPR/ANPR_RZA2M_RDK/src/tensorflow_lite/src/tensorflow/lite/kernels/internal\types.h ****   // This is achieved by turning the difficulty into a solution: the
  92:C:/Renesas/e2studio_2021_01_workspace_RZA2M_ANPR/ANPR_RZA2M_RDK/src/tensorflow_lite/src/tensorflow/lite/kernels/internal\types.h ****   // difficulty, that each value loaded from memory is used only in
  93:C:/Renesas/e2studio_2021_01_workspace_RZA2M_ANPR/ANPR_RZA2M_RDK/src/tensorflow_lite/src/tensorflow/lite/kernels/internal\types.h ****   // one kernel iteration, making this operation memory-intensive, hints at
  94:C:/Renesas/e2studio_2021_01_workspace_RZA2M_ANPR/ANPR_RZA2M_RDK/src/tensorflow_lite/src/tensorflow/lite/kernels/internal\types.h ****   // the solution, of shuffling the weights so that they are stored in the
  95:C:/Renesas/e2studio_2021_01_workspace_RZA2M_ANPR/ANPR_RZA2M_RDK/src/tensorflow_lite/src/tensorflow/lite/kernels/internal\types.h ****   // exact order as the kernel needs to load them, so that the memory
  96:C:/Renesas/e2studio_2021_01_workspace_RZA2M_ANPR/ANPR_RZA2M_RDK/src/tensorflow_lite/src/tensorflow/lite/kernels/internal\types.h ****   // accesses made by the kernel are trivial. This solves (2) because the
  97:C:/Renesas/e2studio_2021_01_workspace_RZA2M_ANPR/ANPR_RZA2M_RDK/src/tensorflow_lite/src/tensorflow/lite/kernels/internal\types.h ****   // trivial memory access pattern allows the CPU's automatic prefetching
  98:C:/Renesas/e2studio_2021_01_workspace_RZA2M_ANPR/ANPR_RZA2M_RDK/src/tensorflow_lite/src/tensorflow/lite/kernels/internal\types.h ****   // to perform very well (no need even for preload instructions), and this
  99:C:/Renesas/e2studio_2021_01_workspace_RZA2M_ANPR/ANPR_RZA2M_RDK/src/tensorflow_lite/src/tensorflow/lite/kernels/internal\types.h ****   // solves (3) because the values being loaded concurrently are now
 100:C:/Renesas/e2studio_2021_01_workspace_RZA2M_ANPR/ANPR_RZA2M_RDK/src/tensorflow_lite/src/tensorflow/lite/kernels/internal\types.h ****   // contiguous in the address space, thus don't alias each other in the cache.
 101:C:/Renesas/e2studio_2021_01_workspace_RZA2M_ANPR/ANPR_RZA2M_RDK/src/tensorflow_lite/src/tensorflow/lite/kernels/internal\types.h ****   //
 102:C:/Renesas/e2studio_2021_01_workspace_RZA2M_ANPR/ANPR_RZA2M_RDK/src/tensorflow_lite/src/tensorflow/lite/kernels/internal\types.h ****   // On ARM, we typically want our kernel to process a 4x16 block of weights
 103:C:/Renesas/e2studio_2021_01_workspace_RZA2M_ANPR/ANPR_RZA2M_RDK/src/tensorflow_lite/src/tensorflow/lite/kernels/internal\types.h ****   // at a time, because:
 104:C:/Renesas/e2studio_2021_01_workspace_RZA2M_ANPR/ANPR_RZA2M_RDK/src/tensorflow_lite/src/tensorflow/lite/kernels/internal\types.h ****   //   - 16 is the number of bytes in a NEON register.
 105:C:/Renesas/e2studio_2021_01_workspace_RZA2M_ANPR/ANPR_RZA2M_RDK/src/tensorflow_lite/src/tensorflow/lite/kernels/internal\types.h ****   //   - 4 is how many rows we need to handle concurrently in the kernel in
 106:C:/Renesas/e2studio_2021_01_workspace_RZA2M_ANPR/ANPR_RZA2M_RDK/src/tensorflow_lite/src/tensorflow/lite/kernels/internal\types.h ****   //     order to have sufficient mutual independence of instructions to
 107:C:/Renesas/e2studio_2021_01_workspace_RZA2M_ANPR/ANPR_RZA2M_RDK/src/tensorflow_lite/src/tensorflow/lite/kernels/internal\types.h ****   //     maximize arithmetic throughput.
 108:C:/Renesas/e2studio_2021_01_workspace_RZA2M_ANPR/ANPR_RZA2M_RDK/src/tensorflow_lite/src/tensorflow/lite/kernels/internal\types.h ****   //
 109:C:/Renesas/e2studio_2021_01_workspace_RZA2M_ANPR/ANPR_RZA2M_RDK/src/tensorflow_lite/src/tensorflow/lite/kernels/internal\types.h ****   // Finally, the 'Int8' part in the name refers to the fact that this
 110:C:/Renesas/e2studio_2021_01_workspace_RZA2M_ANPR/ANPR_RZA2M_RDK/src/tensorflow_lite/src/tensorflow/lite/kernels/internal\types.h ****   // weights format has each weights value encoded as a signed int8_t value,
 111:C:/Renesas/e2studio_2021_01_workspace_RZA2M_ANPR/ANPR_RZA2M_RDK/src/tensorflow_lite/src/tensorflow/lite/kernels/internal\types.h ****   // even if the data type of the weights buffer is uint8_t.  This is intended
 112:C:/Renesas/e2studio_2021_01_workspace_RZA2M_ANPR/ANPR_RZA2M_RDK/src/tensorflow_lite/src/tensorflow/lite/kernels/internal\types.h ****   // to save runtime kernels the effort to have to XOR the top bit of these
 113:C:/Renesas/e2studio_2021_01_workspace_RZA2M_ANPR/ANPR_RZA2M_RDK/src/tensorflow_lite/src/tensorflow/lite/kernels/internal\types.h ****   // bytes before using them in signed arithmetic, see this file for more
 114:C:/Renesas/e2studio_2021_01_workspace_RZA2M_ANPR/ANPR_RZA2M_RDK/src/tensorflow_lite/src/tensorflow/lite/kernels/internal\types.h ****   // explanations on the 'signed int8_t trick' in matrix multiplication kernels:
 115:C:/Renesas/e2studio_2021_01_workspace_RZA2M_ANPR/ANPR_RZA2M_RDK/src/tensorflow_lite/src/tensorflow/lite/kernels/internal\types.h ****   //
 116:C:/Renesas/e2studio_2021_01_workspace_RZA2M_ANPR/ANPR_RZA2M_RDK/src/tensorflow_lite/src/tensorflow/lite/kernels/internal\types.h ****   //   tensorflow/lite/toco/graph_transformations/ensure_uint8_weights_safe_for_fast_int8_kernels.c
 117:C:/Renesas/e2studio_2021_01_workspace_RZA2M_ANPR/ANPR_RZA2M_RDK/src/tensorflow_lite/src/tensorflow/lite/kernels/internal\types.h ****   //
 118:C:/Renesas/e2studio_2021_01_workspace_RZA2M_ANPR/ANPR_RZA2M_RDK/src/tensorflow_lite/src/tensorflow/lite/kernels/internal\types.h ****   kShuffled4x16Int8,
 119:C:/Renesas/e2studio_2021_01_workspace_RZA2M_ANPR/ANPR_RZA2M_RDK/src/tensorflow_lite/src/tensorflow/lite/kernels/internal\types.h **** };
 120:C:/Renesas/e2studio_2021_01_workspace_RZA2M_ANPR/ANPR_RZA2M_RDK/src/tensorflow_lite/src/tensorflow/lite/kernels/internal\types.h **** 
 121:C:/Renesas/e2studio_2021_01_workspace_RZA2M_ANPR/ANPR_RZA2M_RDK/src/tensorflow_lite/src/tensorflow/lite/kernels/internal\types.h **** // Quantization parameters, determining the mapping of quantized values
 122:C:/Renesas/e2studio_2021_01_workspace_RZA2M_ANPR/ANPR_RZA2M_RDK/src/tensorflow_lite/src/tensorflow/lite/kernels/internal\types.h **** // to real values (i.e. determining how quantized values are mathematically
 123:C:/Renesas/e2studio_2021_01_workspace_RZA2M_ANPR/ANPR_RZA2M_RDK/src/tensorflow_lite/src/tensorflow/lite/kernels/internal\types.h **** // interpreted).
 124:C:/Renesas/e2studio_2021_01_workspace_RZA2M_ANPR/ANPR_RZA2M_RDK/src/tensorflow_lite/src/tensorflow/lite/kernels/internal\types.h **** //
 125:C:/Renesas/e2studio_2021_01_workspace_RZA2M_ANPR/ANPR_RZA2M_RDK/src/tensorflow_lite/src/tensorflow/lite/kernels/internal\types.h **** // The correspondence is as follows:
 126:C:/Renesas/e2studio_2021_01_workspace_RZA2M_ANPR/ANPR_RZA2M_RDK/src/tensorflow_lite/src/tensorflow/lite/kernels/internal\types.h **** //
 127:C:/Renesas/e2studio_2021_01_workspace_RZA2M_ANPR/ANPR_RZA2M_RDK/src/tensorflow_lite/src/tensorflow/lite/kernels/internal\types.h **** //   real_value = scale * (quantized_value - zero_point);
 128:C:/Renesas/e2studio_2021_01_workspace_RZA2M_ANPR/ANPR_RZA2M_RDK/src/tensorflow_lite/src/tensorflow/lite/kernels/internal\types.h **** //
 129:C:/Renesas/e2studio_2021_01_workspace_RZA2M_ANPR/ANPR_RZA2M_RDK/src/tensorflow_lite/src/tensorflow/lite/kernels/internal\types.h **** // In other words, zero_point designates which quantized value corresponds to
 130:C:/Renesas/e2studio_2021_01_workspace_RZA2M_ANPR/ANPR_RZA2M_RDK/src/tensorflow_lite/src/tensorflow/lite/kernels/internal\types.h **** // the real 0 value, and scale designates the difference between the real values
 131:C:/Renesas/e2studio_2021_01_workspace_RZA2M_ANPR/ANPR_RZA2M_RDK/src/tensorflow_lite/src/tensorflow/lite/kernels/internal\types.h **** // corresponding to consecutive quantized values differing by 1.
 132:C:/Renesas/e2studio_2021_01_workspace_RZA2M_ANPR/ANPR_RZA2M_RDK/src/tensorflow_lite/src/tensorflow/lite/kernels/internal\types.h **** struct QuantizationParams {
 133:C:/Renesas/e2studio_2021_01_workspace_RZA2M_ANPR/ANPR_RZA2M_RDK/src/tensorflow_lite/src/tensorflow/lite/kernels/internal\types.h ****   int32_t zero_point = 0;
 134:C:/Renesas/e2studio_2021_01_workspace_RZA2M_ANPR/ANPR_RZA2M_RDK/src/tensorflow_lite/src/tensorflow/lite/kernels/internal\types.h ****   double scale = 0.0;
 135:C:/Renesas/e2studio_2021_01_workspace_RZA2M_ANPR/ANPR_RZA2M_RDK/src/tensorflow_lite/src/tensorflow/lite/kernels/internal\types.h **** };
 136:C:/Renesas/e2studio_2021_01_workspace_RZA2M_ANPR/ANPR_RZA2M_RDK/src/tensorflow_lite/src/tensorflow/lite/kernels/internal\types.h **** 
 137:C:/Renesas/e2studio_2021_01_workspace_RZA2M_ANPR/ANPR_RZA2M_RDK/src/tensorflow_lite/src/tensorflow/lite/kernels/internal\types.h **** inline bool operator==(const QuantizationParams& qp1,
 138:C:/Renesas/e2studio_2021_01_workspace_RZA2M_ANPR/ANPR_RZA2M_RDK/src/tensorflow_lite/src/tensorflow/lite/kernels/internal\types.h ****                        const QuantizationParams& qp2) {
 139:C:/Renesas/e2studio_2021_01_workspace_RZA2M_ANPR/ANPR_RZA2M_RDK/src/tensorflow_lite/src/tensorflow/lite/kernels/internal\types.h ****   return qp1.zero_point == qp2.zero_point && qp1.scale == qp2.scale;
 140:C:/Renesas/e2studio_2021_01_workspace_RZA2M_ANPR/ANPR_RZA2M_RDK/src/tensorflow_lite/src/tensorflow/lite/kernels/internal\types.h **** }
 141:C:/Renesas/e2studio_2021_01_workspace_RZA2M_ANPR/ANPR_RZA2M_RDK/src/tensorflow_lite/src/tensorflow/lite/kernels/internal\types.h **** 
 142:C:/Renesas/e2studio_2021_01_workspace_RZA2M_ANPR/ANPR_RZA2M_RDK/src/tensorflow_lite/src/tensorflow/lite/kernels/internal\types.h **** template <int N>
 143:C:/Renesas/e2studio_2021_01_workspace_RZA2M_ANPR/ANPR_RZA2M_RDK/src/tensorflow_lite/src/tensorflow/lite/kernels/internal\types.h **** struct Dims {
 144:C:/Renesas/e2studio_2021_01_workspace_RZA2M_ANPR/ANPR_RZA2M_RDK/src/tensorflow_lite/src/tensorflow/lite/kernels/internal\types.h ****   int sizes[N];
 145:C:/Renesas/e2studio_2021_01_workspace_RZA2M_ANPR/ANPR_RZA2M_RDK/src/tensorflow_lite/src/tensorflow/lite/kernels/internal\types.h ****   int strides[N];
 146:C:/Renesas/e2studio_2021_01_workspace_RZA2M_ANPR/ANPR_RZA2M_RDK/src/tensorflow_lite/src/tensorflow/lite/kernels/internal\types.h **** };
 147:C:/Renesas/e2studio_2021_01_workspace_RZA2M_ANPR/ANPR_RZA2M_RDK/src/tensorflow_lite/src/tensorflow/lite/kernels/internal\types.h **** 
 148:C:/Renesas/e2studio_2021_01_workspace_RZA2M_ANPR/ANPR_RZA2M_RDK/src/tensorflow_lite/src/tensorflow/lite/kernels/internal\types.h **** class RuntimeShape {
 149:C:/Renesas/e2studio_2021_01_workspace_RZA2M_ANPR/ANPR_RZA2M_RDK/src/tensorflow_lite/src/tensorflow/lite/kernels/internal\types.h ****  public:
 150:C:/Renesas/e2studio_2021_01_workspace_RZA2M_ANPR/ANPR_RZA2M_RDK/src/tensorflow_lite/src/tensorflow/lite/kernels/internal\types.h ****   // Shapes with dimensions up to 5 are stored directly in the structure, while
 151:C:/Renesas/e2studio_2021_01_workspace_RZA2M_ANPR/ANPR_RZA2M_RDK/src/tensorflow_lite/src/tensorflow/lite/kernels/internal\types.h ****   // larger shapes are separately allocated.
 152:C:/Renesas/e2studio_2021_01_workspace_RZA2M_ANPR/ANPR_RZA2M_RDK/src/tensorflow_lite/src/tensorflow/lite/kernels/internal\types.h ****   static constexpr int kMaxSmallSize = 5;
 153:C:/Renesas/e2studio_2021_01_workspace_RZA2M_ANPR/ANPR_RZA2M_RDK/src/tensorflow_lite/src/tensorflow/lite/kernels/internal\types.h **** 
 154:C:/Renesas/e2studio_2021_01_workspace_RZA2M_ANPR/ANPR_RZA2M_RDK/src/tensorflow_lite/src/tensorflow/lite/kernels/internal\types.h ****   RuntimeShape& operator=(RuntimeShape const&) = delete;
 155:C:/Renesas/e2studio_2021_01_workspace_RZA2M_ANPR/ANPR_RZA2M_RDK/src/tensorflow_lite/src/tensorflow/lite/kernels/internal\types.h **** 
 156:C:/Renesas/e2studio_2021_01_workspace_RZA2M_ANPR/ANPR_RZA2M_RDK/src/tensorflow_lite/src/tensorflow/lite/kernels/internal\types.h ****   RuntimeShape() : size_(0) {}
 157:C:/Renesas/e2studio_2021_01_workspace_RZA2M_ANPR/ANPR_RZA2M_RDK/src/tensorflow_lite/src/tensorflow/lite/kernels/internal\types.h **** 
 158:C:/Renesas/e2studio_2021_01_workspace_RZA2M_ANPR/ANPR_RZA2M_RDK/src/tensorflow_lite/src/tensorflow/lite/kernels/internal\types.h ****   explicit RuntimeShape(int dimensions_count) : size_(dimensions_count) {
 159:C:/Renesas/e2studio_2021_01_workspace_RZA2M_ANPR/ANPR_RZA2M_RDK/src/tensorflow_lite/src/tensorflow/lite/kernels/internal\types.h ****     if (dimensions_count > kMaxSmallSize) {
 160:C:/Renesas/e2studio_2021_01_workspace_RZA2M_ANPR/ANPR_RZA2M_RDK/src/tensorflow_lite/src/tensorflow/lite/kernels/internal\types.h **** #ifdef TF_LITE_STATIC_MEMORY
 161:C:/Renesas/e2studio_2021_01_workspace_RZA2M_ANPR/ANPR_RZA2M_RDK/src/tensorflow_lite/src/tensorflow/lite/kernels/internal\types.h ****       TFLITE_CHECK(false && "No shape resizing supported on this platform");
 162:C:/Renesas/e2studio_2021_01_workspace_RZA2M_ANPR/ANPR_RZA2M_RDK/src/tensorflow_lite/src/tensorflow/lite/kernels/internal\types.h **** #else  // TF_LITE_STATIC_MEMORY
 163:C:/Renesas/e2studio_2021_01_workspace_RZA2M_ANPR/ANPR_RZA2M_RDK/src/tensorflow_lite/src/tensorflow/lite/kernels/internal\types.h ****       dims_pointer_ = new int32_t[dimensions_count];
 164:C:/Renesas/e2studio_2021_01_workspace_RZA2M_ANPR/ANPR_RZA2M_RDK/src/tensorflow_lite/src/tensorflow/lite/kernels/internal\types.h **** #endif  // TF_LITE_STATIC_MEMORY
 165:C:/Renesas/e2studio_2021_01_workspace_RZA2M_ANPR/ANPR_RZA2M_RDK/src/tensorflow_lite/src/tensorflow/lite/kernels/internal\types.h ****     }
 166:C:/Renesas/e2studio_2021_01_workspace_RZA2M_ANPR/ANPR_RZA2M_RDK/src/tensorflow_lite/src/tensorflow/lite/kernels/internal\types.h ****   }
 167:C:/Renesas/e2studio_2021_01_workspace_RZA2M_ANPR/ANPR_RZA2M_RDK/src/tensorflow_lite/src/tensorflow/lite/kernels/internal\types.h **** 
 168:C:/Renesas/e2studio_2021_01_workspace_RZA2M_ANPR/ANPR_RZA2M_RDK/src/tensorflow_lite/src/tensorflow/lite/kernels/internal\types.h ****   RuntimeShape(int shape_size, int32_t value) : size_(0) {
 169:C:/Renesas/e2studio_2021_01_workspace_RZA2M_ANPR/ANPR_RZA2M_RDK/src/tensorflow_lite/src/tensorflow/lite/kernels/internal\types.h ****     Resize(shape_size);
 170:C:/Renesas/e2studio_2021_01_workspace_RZA2M_ANPR/ANPR_RZA2M_RDK/src/tensorflow_lite/src/tensorflow/lite/kernels/internal\types.h ****     for (int i = 0; i < shape_size; ++i) {
 171:C:/Renesas/e2studio_2021_01_workspace_RZA2M_ANPR/ANPR_RZA2M_RDK/src/tensorflow_lite/src/tensorflow/lite/kernels/internal\types.h ****       SetDim(i, value);
 172:C:/Renesas/e2studio_2021_01_workspace_RZA2M_ANPR/ANPR_RZA2M_RDK/src/tensorflow_lite/src/tensorflow/lite/kernels/internal\types.h ****     }
 173:C:/Renesas/e2studio_2021_01_workspace_RZA2M_ANPR/ANPR_RZA2M_RDK/src/tensorflow_lite/src/tensorflow/lite/kernels/internal\types.h ****   }
 174:C:/Renesas/e2studio_2021_01_workspace_RZA2M_ANPR/ANPR_RZA2M_RDK/src/tensorflow_lite/src/tensorflow/lite/kernels/internal\types.h **** 
 175:C:/Renesas/e2studio_2021_01_workspace_RZA2M_ANPR/ANPR_RZA2M_RDK/src/tensorflow_lite/src/tensorflow/lite/kernels/internal\types.h ****   RuntimeShape(int dimensions_count, const int32_t* dims_data) : size_(0) {
 176:C:/Renesas/e2studio_2021_01_workspace_RZA2M_ANPR/ANPR_RZA2M_RDK/src/tensorflow_lite/src/tensorflow/lite/kernels/internal\types.h ****     ReplaceWith(dimensions_count, dims_data);
 177:C:/Renesas/e2studio_2021_01_workspace_RZA2M_ANPR/ANPR_RZA2M_RDK/src/tensorflow_lite/src/tensorflow/lite/kernels/internal\types.h ****   }
 178:C:/Renesas/e2studio_2021_01_workspace_RZA2M_ANPR/ANPR_RZA2M_RDK/src/tensorflow_lite/src/tensorflow/lite/kernels/internal\types.h **** 
 179:C:/Renesas/e2studio_2021_01_workspace_RZA2M_ANPR/ANPR_RZA2M_RDK/src/tensorflow_lite/src/tensorflow/lite/kernels/internal\types.h ****   RuntimeShape(const std::initializer_list<int> init_list) : size_(0) {
 180:C:/Renesas/e2studio_2021_01_workspace_RZA2M_ANPR/ANPR_RZA2M_RDK/src/tensorflow_lite/src/tensorflow/lite/kernels/internal\types.h ****     BuildFrom(init_list);
 181:C:/Renesas/e2studio_2021_01_workspace_RZA2M_ANPR/ANPR_RZA2M_RDK/src/tensorflow_lite/src/tensorflow/lite/kernels/internal\types.h ****   }
 182:C:/Renesas/e2studio_2021_01_workspace_RZA2M_ANPR/ANPR_RZA2M_RDK/src/tensorflow_lite/src/tensorflow/lite/kernels/internal\types.h **** 
 183:C:/Renesas/e2studio_2021_01_workspace_RZA2M_ANPR/ANPR_RZA2M_RDK/src/tensorflow_lite/src/tensorflow/lite/kernels/internal\types.h ****   // Avoid using this constructor.  We should be able to delete it when C++17
 184:C:/Renesas/e2studio_2021_01_workspace_RZA2M_ANPR/ANPR_RZA2M_RDK/src/tensorflow_lite/src/tensorflow/lite/kernels/internal\types.h ****   // rolls out.
 185:C:/Renesas/e2studio_2021_01_workspace_RZA2M_ANPR/ANPR_RZA2M_RDK/src/tensorflow_lite/src/tensorflow/lite/kernels/internal\types.h ****   RuntimeShape(RuntimeShape const& other) : size_(other.DimensionsCount()) {
 186:C:/Renesas/e2studio_2021_01_workspace_RZA2M_ANPR/ANPR_RZA2M_RDK/src/tensorflow_lite/src/tensorflow/lite/kernels/internal\types.h ****     if (size_ > kMaxSmallSize) {
 187:C:/Renesas/e2studio_2021_01_workspace_RZA2M_ANPR/ANPR_RZA2M_RDK/src/tensorflow_lite/src/tensorflow/lite/kernels/internal\types.h **** #ifdef TF_LITE_STATIC_MEMORY
 188:C:/Renesas/e2studio_2021_01_workspace_RZA2M_ANPR/ANPR_RZA2M_RDK/src/tensorflow_lite/src/tensorflow/lite/kernels/internal\types.h ****       TFLITE_CHECK(false && "No shape resizing supported on this platform");
 189:C:/Renesas/e2studio_2021_01_workspace_RZA2M_ANPR/ANPR_RZA2M_RDK/src/tensorflow_lite/src/tensorflow/lite/kernels/internal\types.h **** #else
 190:C:/Renesas/e2studio_2021_01_workspace_RZA2M_ANPR/ANPR_RZA2M_RDK/src/tensorflow_lite/src/tensorflow/lite/kernels/internal\types.h ****       dims_pointer_ = new int32_t[size_];
 191:C:/Renesas/e2studio_2021_01_workspace_RZA2M_ANPR/ANPR_RZA2M_RDK/src/tensorflow_lite/src/tensorflow/lite/kernels/internal\types.h **** #endif
 192:C:/Renesas/e2studio_2021_01_workspace_RZA2M_ANPR/ANPR_RZA2M_RDK/src/tensorflow_lite/src/tensorflow/lite/kernels/internal\types.h ****     }
 193:C:/Renesas/e2studio_2021_01_workspace_RZA2M_ANPR/ANPR_RZA2M_RDK/src/tensorflow_lite/src/tensorflow/lite/kernels/internal\types.h ****     std::memcpy(DimsData(), other.DimsData(), sizeof(int32_t) * size_);
 194:C:/Renesas/e2studio_2021_01_workspace_RZA2M_ANPR/ANPR_RZA2M_RDK/src/tensorflow_lite/src/tensorflow/lite/kernels/internal\types.h ****   }
 195:C:/Renesas/e2studio_2021_01_workspace_RZA2M_ANPR/ANPR_RZA2M_RDK/src/tensorflow_lite/src/tensorflow/lite/kernels/internal\types.h **** 
 196:C:/Renesas/e2studio_2021_01_workspace_RZA2M_ANPR/ANPR_RZA2M_RDK/src/tensorflow_lite/src/tensorflow/lite/kernels/internal\types.h ****   bool operator==(const RuntimeShape& comp) const {
 197:C:/Renesas/e2studio_2021_01_workspace_RZA2M_ANPR/ANPR_RZA2M_RDK/src/tensorflow_lite/src/tensorflow/lite/kernels/internal\types.h ****     return this->size_ == comp.size_ &&
 198:C:/Renesas/e2studio_2021_01_workspace_RZA2M_ANPR/ANPR_RZA2M_RDK/src/tensorflow_lite/src/tensorflow/lite/kernels/internal\types.h ****            std::memcmp(DimsData(), comp.DimsData(), size_ * sizeof(int32_t)) ==
 199:C:/Renesas/e2studio_2021_01_workspace_RZA2M_ANPR/ANPR_RZA2M_RDK/src/tensorflow_lite/src/tensorflow/lite/kernels/internal\types.h ****                0;
 200:C:/Renesas/e2studio_2021_01_workspace_RZA2M_ANPR/ANPR_RZA2M_RDK/src/tensorflow_lite/src/tensorflow/lite/kernels/internal\types.h ****   }
 201:C:/Renesas/e2studio_2021_01_workspace_RZA2M_ANPR/ANPR_RZA2M_RDK/src/tensorflow_lite/src/tensorflow/lite/kernels/internal\types.h **** 
 202:C:/Renesas/e2studio_2021_01_workspace_RZA2M_ANPR/ANPR_RZA2M_RDK/src/tensorflow_lite/src/tensorflow/lite/kernels/internal\types.h ****   ~RuntimeShape() {
 203:C:/Renesas/e2studio_2021_01_workspace_RZA2M_ANPR/ANPR_RZA2M_RDK/src/tensorflow_lite/src/tensorflow/lite/kernels/internal\types.h ****     if (size_ > kMaxSmallSize) {
 204:C:/Renesas/e2studio_2021_01_workspace_RZA2M_ANPR/ANPR_RZA2M_RDK/src/tensorflow_lite/src/tensorflow/lite/kernels/internal\types.h **** #ifdef TF_LITE_STATIC_MEMORY
 205:C:/Renesas/e2studio_2021_01_workspace_RZA2M_ANPR/ANPR_RZA2M_RDK/src/tensorflow_lite/src/tensorflow/lite/kernels/internal\types.h ****       TFLITE_CHECK(false && "No shape resizing supported on this platform");
 206:C:/Renesas/e2studio_2021_01_workspace_RZA2M_ANPR/ANPR_RZA2M_RDK/src/tensorflow_lite/src/tensorflow/lite/kernels/internal\types.h **** #else  // TF_LITE_STATIC_MEMORY
 207:C:/Renesas/e2studio_2021_01_workspace_RZA2M_ANPR/ANPR_RZA2M_RDK/src/tensorflow_lite/src/tensorflow/lite/kernels/internal\types.h ****       delete[] dims_pointer_;
 208:C:/Renesas/e2studio_2021_01_workspace_RZA2M_ANPR/ANPR_RZA2M_RDK/src/tensorflow_lite/src/tensorflow/lite/kernels/internal\types.h **** #endif  // TF_LITE_STATIC_MEMORY
 209:C:/Renesas/e2studio_2021_01_workspace_RZA2M_ANPR/ANPR_RZA2M_RDK/src/tensorflow_lite/src/tensorflow/lite/kernels/internal\types.h ****     }
 210:C:/Renesas/e2studio_2021_01_workspace_RZA2M_ANPR/ANPR_RZA2M_RDK/src/tensorflow_lite/src/tensorflow/lite/kernels/internal\types.h ****   }
 211:C:/Renesas/e2studio_2021_01_workspace_RZA2M_ANPR/ANPR_RZA2M_RDK/src/tensorflow_lite/src/tensorflow/lite/kernels/internal\types.h **** 
 212:C:/Renesas/e2studio_2021_01_workspace_RZA2M_ANPR/ANPR_RZA2M_RDK/src/tensorflow_lite/src/tensorflow/lite/kernels/internal\types.h ****   inline int32_t DimensionsCount() const { return size_; }
 213:C:/Renesas/e2studio_2021_01_workspace_RZA2M_ANPR/ANPR_RZA2M_RDK/src/tensorflow_lite/src/tensorflow/lite/kernels/internal\types.h ****   inline int32_t Dims(int i) const {
 214:C:/Renesas/e2studio_2021_01_workspace_RZA2M_ANPR/ANPR_RZA2M_RDK/src/tensorflow_lite/src/tensorflow/lite/kernels/internal\types.h ****     TFLITE_DCHECK_GE(i, 0);
 215:C:/Renesas/e2studio_2021_01_workspace_RZA2M_ANPR/ANPR_RZA2M_RDK/src/tensorflow_lite/src/tensorflow/lite/kernels/internal\types.h ****     TFLITE_DCHECK_LT(i, size_);
 216:C:/Renesas/e2studio_2021_01_workspace_RZA2M_ANPR/ANPR_RZA2M_RDK/src/tensorflow_lite/src/tensorflow/lite/kernels/internal\types.h ****     return size_ > kMaxSmallSize ? dims_pointer_[i] : dims_[i];
 801              		.loc 6 216 0
 802 0120 E4309DE5 		ldr	r3, [sp, #228]
 803              	.LBE690:
 804              	.LBE689:
 805              	.LBB692:
 806              	.LBB693:
 807 0124 FC209DE5 		ldr	r2, [sp, #252]
 808              	.LBE693:
 809              	.LBE692:
 810              	.LBB695:
 811              	.LBB691:
 812 0128 38308DE5 		str	r3, [sp, #56]
 813              	.LVL88:
 814              	.LBE691:
 815              	.LBE695:
 217:C:/Renesas/e2studio_2021_01_workspace_RZA2M_ANPR/ANPR_RZA2M_RDK/src/tensorflow_lite/src/tensorflow/lite/kernels/internal\types.h ****   }
 218:C:/Renesas/e2studio_2021_01_workspace_RZA2M_ANPR/ANPR_RZA2M_RDK/src/tensorflow_lite/src/tensorflow/lite/kernels/internal\types.h ****   inline void SetDim(int i, int32_t val) {
 219:C:/Renesas/e2studio_2021_01_workspace_RZA2M_ANPR/ANPR_RZA2M_RDK/src/tensorflow_lite/src/tensorflow/lite/kernels/internal\types.h ****     TFLITE_DCHECK_GE(i, 0);
 220:C:/Renesas/e2studio_2021_01_workspace_RZA2M_ANPR/ANPR_RZA2M_RDK/src/tensorflow_lite/src/tensorflow/lite/kernels/internal\types.h ****     TFLITE_DCHECK_LT(i, size_);
 221:C:/Renesas/e2studio_2021_01_workspace_RZA2M_ANPR/ANPR_RZA2M_RDK/src/tensorflow_lite/src/tensorflow/lite/kernels/internal\types.h ****     if (size_ > kMaxSmallSize) {
 222:C:/Renesas/e2studio_2021_01_workspace_RZA2M_ANPR/ANPR_RZA2M_RDK/src/tensorflow_lite/src/tensorflow/lite/kernels/internal\types.h ****       dims_pointer_[i] = val;
 223:C:/Renesas/e2studio_2021_01_workspace_RZA2M_ANPR/ANPR_RZA2M_RDK/src/tensorflow_lite/src/tensorflow/lite/kernels/internal\types.h ****     } else {
 224:C:/Renesas/e2studio_2021_01_workspace_RZA2M_ANPR/ANPR_RZA2M_RDK/src/tensorflow_lite/src/tensorflow/lite/kernels/internal\types.h ****       dims_[i] = val;
 225:C:/Renesas/e2studio_2021_01_workspace_RZA2M_ANPR/ANPR_RZA2M_RDK/src/tensorflow_lite/src/tensorflow/lite/kernels/internal\types.h ****     }
 226:C:/Renesas/e2studio_2021_01_workspace_RZA2M_ANPR/ANPR_RZA2M_RDK/src/tensorflow_lite/src/tensorflow/lite/kernels/internal\types.h ****   }
 227:C:/Renesas/e2studio_2021_01_workspace_RZA2M_ANPR/ANPR_RZA2M_RDK/src/tensorflow_lite/src/tensorflow/lite/kernels/internal\types.h **** 
 228:C:/Renesas/e2studio_2021_01_workspace_RZA2M_ANPR/ANPR_RZA2M_RDK/src/tensorflow_lite/src/tensorflow/lite/kernels/internal\types.h ****   inline int32_t* DimsData() {
 229:C:/Renesas/e2studio_2021_01_workspace_RZA2M_ANPR/ANPR_RZA2M_RDK/src/tensorflow_lite/src/tensorflow/lite/kernels/internal\types.h ****     return size_ > kMaxSmallSize ? dims_pointer_ : dims_;
 230:C:/Renesas/e2studio_2021_01_workspace_RZA2M_ANPR/ANPR_RZA2M_RDK/src/tensorflow_lite/src/tensorflow/lite/kernels/internal\types.h ****   }
 231:C:/Renesas/e2studio_2021_01_workspace_RZA2M_ANPR/ANPR_RZA2M_RDK/src/tensorflow_lite/src/tensorflow/lite/kernels/internal\types.h ****   inline const int32_t* DimsData() const {
 232:C:/Renesas/e2studio_2021_01_workspace_RZA2M_ANPR/ANPR_RZA2M_RDK/src/tensorflow_lite/src/tensorflow/lite/kernels/internal\types.h ****     return size_ > kMaxSmallSize ? dims_pointer_ : dims_;
 233:C:/Renesas/e2studio_2021_01_workspace_RZA2M_ANPR/ANPR_RZA2M_RDK/src/tensorflow_lite/src/tensorflow/lite/kernels/internal\types.h ****   }
 234:C:/Renesas/e2studio_2021_01_workspace_RZA2M_ANPR/ANPR_RZA2M_RDK/src/tensorflow_lite/src/tensorflow/lite/kernels/internal\types.h ****   // The caller must ensure that the shape is no bigger than 5-D.
 235:C:/Renesas/e2studio_2021_01_workspace_RZA2M_ANPR/ANPR_RZA2M_RDK/src/tensorflow_lite/src/tensorflow/lite/kernels/internal\types.h ****   inline const int32_t* DimsDataUpTo5D() const { return dims_; }
 236:C:/Renesas/e2studio_2021_01_workspace_RZA2M_ANPR/ANPR_RZA2M_RDK/src/tensorflow_lite/src/tensorflow/lite/kernels/internal\types.h **** 
 237:C:/Renesas/e2studio_2021_01_workspace_RZA2M_ANPR/ANPR_RZA2M_RDK/src/tensorflow_lite/src/tensorflow/lite/kernels/internal\types.h ****   inline void Resize(int dimensions_count) {
 238:C:/Renesas/e2studio_2021_01_workspace_RZA2M_ANPR/ANPR_RZA2M_RDK/src/tensorflow_lite/src/tensorflow/lite/kernels/internal\types.h ****     if (size_ > kMaxSmallSize) {
 239:C:/Renesas/e2studio_2021_01_workspace_RZA2M_ANPR/ANPR_RZA2M_RDK/src/tensorflow_lite/src/tensorflow/lite/kernels/internal\types.h **** #ifdef TF_LITE_STATIC_MEMORY
 240:C:/Renesas/e2studio_2021_01_workspace_RZA2M_ANPR/ANPR_RZA2M_RDK/src/tensorflow_lite/src/tensorflow/lite/kernels/internal\types.h ****       TFLITE_CHECK(false && "No shape resizing supported on this platform");
 241:C:/Renesas/e2studio_2021_01_workspace_RZA2M_ANPR/ANPR_RZA2M_RDK/src/tensorflow_lite/src/tensorflow/lite/kernels/internal\types.h **** #else  // TF_LITE_STATIC_MEMORY
 242:C:/Renesas/e2studio_2021_01_workspace_RZA2M_ANPR/ANPR_RZA2M_RDK/src/tensorflow_lite/src/tensorflow/lite/kernels/internal\types.h ****       delete[] dims_pointer_;
 243:C:/Renesas/e2studio_2021_01_workspace_RZA2M_ANPR/ANPR_RZA2M_RDK/src/tensorflow_lite/src/tensorflow/lite/kernels/internal\types.h **** #endif  // TF_LITE_STATIC_MEMORY
 244:C:/Renesas/e2studio_2021_01_workspace_RZA2M_ANPR/ANPR_RZA2M_RDK/src/tensorflow_lite/src/tensorflow/lite/kernels/internal\types.h ****     }
 245:C:/Renesas/e2studio_2021_01_workspace_RZA2M_ANPR/ANPR_RZA2M_RDK/src/tensorflow_lite/src/tensorflow/lite/kernels/internal\types.h ****     size_ = dimensions_count;
 246:C:/Renesas/e2studio_2021_01_workspace_RZA2M_ANPR/ANPR_RZA2M_RDK/src/tensorflow_lite/src/tensorflow/lite/kernels/internal\types.h ****     if (dimensions_count > kMaxSmallSize) {
 247:C:/Renesas/e2studio_2021_01_workspace_RZA2M_ANPR/ANPR_RZA2M_RDK/src/tensorflow_lite/src/tensorflow/lite/kernels/internal\types.h **** #ifdef TF_LITE_STATIC_MEMORY
 248:C:/Renesas/e2studio_2021_01_workspace_RZA2M_ANPR/ANPR_RZA2M_RDK/src/tensorflow_lite/src/tensorflow/lite/kernels/internal\types.h ****       TFLITE_CHECK(false && "No shape resizing supported on this platform");
 249:C:/Renesas/e2studio_2021_01_workspace_RZA2M_ANPR/ANPR_RZA2M_RDK/src/tensorflow_lite/src/tensorflow/lite/kernels/internal\types.h **** #else  // TF_LITE_STATIC_MEMORY
 250:C:/Renesas/e2studio_2021_01_workspace_RZA2M_ANPR/ANPR_RZA2M_RDK/src/tensorflow_lite/src/tensorflow/lite/kernels/internal\types.h ****       dims_pointer_ = new int32_t[dimensions_count];
 251:C:/Renesas/e2studio_2021_01_workspace_RZA2M_ANPR/ANPR_RZA2M_RDK/src/tensorflow_lite/src/tensorflow/lite/kernels/internal\types.h **** #endif  // TF_LITE_STATIC_MEMORY
 252:C:/Renesas/e2studio_2021_01_workspace_RZA2M_ANPR/ANPR_RZA2M_RDK/src/tensorflow_lite/src/tensorflow/lite/kernels/internal\types.h ****     }
 253:C:/Renesas/e2studio_2021_01_workspace_RZA2M_ANPR/ANPR_RZA2M_RDK/src/tensorflow_lite/src/tensorflow/lite/kernels/internal\types.h ****   }
 254:C:/Renesas/e2studio_2021_01_workspace_RZA2M_ANPR/ANPR_RZA2M_RDK/src/tensorflow_lite/src/tensorflow/lite/kernels/internal\types.h **** 
 255:C:/Renesas/e2studio_2021_01_workspace_RZA2M_ANPR/ANPR_RZA2M_RDK/src/tensorflow_lite/src/tensorflow/lite/kernels/internal\types.h ****   inline void ReplaceWith(int dimensions_count, const int32_t* dims_data) {
 256:C:/Renesas/e2studio_2021_01_workspace_RZA2M_ANPR/ANPR_RZA2M_RDK/src/tensorflow_lite/src/tensorflow/lite/kernels/internal\types.h ****     Resize(dimensions_count);
 257:C:/Renesas/e2studio_2021_01_workspace_RZA2M_ANPR/ANPR_RZA2M_RDK/src/tensorflow_lite/src/tensorflow/lite/kernels/internal\types.h ****     int32_t* dst_dims = DimsData();
 258:C:/Renesas/e2studio_2021_01_workspace_RZA2M_ANPR/ANPR_RZA2M_RDK/src/tensorflow_lite/src/tensorflow/lite/kernels/internal\types.h ****     std::memcpy(dst_dims, dims_data, dimensions_count * sizeof(int32_t));
 259:C:/Renesas/e2studio_2021_01_workspace_RZA2M_ANPR/ANPR_RZA2M_RDK/src/tensorflow_lite/src/tensorflow/lite/kernels/internal\types.h ****   }
 260:C:/Renesas/e2studio_2021_01_workspace_RZA2M_ANPR/ANPR_RZA2M_RDK/src/tensorflow_lite/src/tensorflow/lite/kernels/internal\types.h **** 
 261:C:/Renesas/e2studio_2021_01_workspace_RZA2M_ANPR/ANPR_RZA2M_RDK/src/tensorflow_lite/src/tensorflow/lite/kernels/internal\types.h ****   template <typename T>
 262:C:/Renesas/e2studio_2021_01_workspace_RZA2M_ANPR/ANPR_RZA2M_RDK/src/tensorflow_lite/src/tensorflow/lite/kernels/internal\types.h ****   inline void BuildFrom(const T& src_iterable) {
 263:C:/Renesas/e2studio_2021_01_workspace_RZA2M_ANPR/ANPR_RZA2M_RDK/src/tensorflow_lite/src/tensorflow/lite/kernels/internal\types.h ****     const int dimensions_count =
 264:C:/Renesas/e2studio_2021_01_workspace_RZA2M_ANPR/ANPR_RZA2M_RDK/src/tensorflow_lite/src/tensorflow/lite/kernels/internal\types.h ****         std::distance(src_iterable.begin(), src_iterable.end());
 265:C:/Renesas/e2studio_2021_01_workspace_RZA2M_ANPR/ANPR_RZA2M_RDK/src/tensorflow_lite/src/tensorflow/lite/kernels/internal\types.h ****     Resize(dimensions_count);
 266:C:/Renesas/e2studio_2021_01_workspace_RZA2M_ANPR/ANPR_RZA2M_RDK/src/tensorflow_lite/src/tensorflow/lite/kernels/internal\types.h ****     int32_t* data = DimsData();
 267:C:/Renesas/e2studio_2021_01_workspace_RZA2M_ANPR/ANPR_RZA2M_RDK/src/tensorflow_lite/src/tensorflow/lite/kernels/internal\types.h ****     for (auto it : src_iterable) {
 268:C:/Renesas/e2studio_2021_01_workspace_RZA2M_ANPR/ANPR_RZA2M_RDK/src/tensorflow_lite/src/tensorflow/lite/kernels/internal\types.h ****       *data = it;
 269:C:/Renesas/e2studio_2021_01_workspace_RZA2M_ANPR/ANPR_RZA2M_RDK/src/tensorflow_lite/src/tensorflow/lite/kernels/internal\types.h ****       ++data;
 270:C:/Renesas/e2studio_2021_01_workspace_RZA2M_ANPR/ANPR_RZA2M_RDK/src/tensorflow_lite/src/tensorflow/lite/kernels/internal\types.h ****     }
 271:C:/Renesas/e2studio_2021_01_workspace_RZA2M_ANPR/ANPR_RZA2M_RDK/src/tensorflow_lite/src/tensorflow/lite/kernels/internal\types.h ****   }
 272:C:/Renesas/e2studio_2021_01_workspace_RZA2M_ANPR/ANPR_RZA2M_RDK/src/tensorflow_lite/src/tensorflow/lite/kernels/internal\types.h **** 
 273:C:/Renesas/e2studio_2021_01_workspace_RZA2M_ANPR/ANPR_RZA2M_RDK/src/tensorflow_lite/src/tensorflow/lite/kernels/internal\types.h ****   // This will probably be factored out. Old code made substantial use of 4-D
 274:C:/Renesas/e2studio_2021_01_workspace_RZA2M_ANPR/ANPR_RZA2M_RDK/src/tensorflow_lite/src/tensorflow/lite/kernels/internal\types.h ****   // shapes, and so this function is used to extend smaller shapes. Note that
 275:C:/Renesas/e2studio_2021_01_workspace_RZA2M_ANPR/ANPR_RZA2M_RDK/src/tensorflow_lite/src/tensorflow/lite/kernels/internal\types.h ****   // (a) as Dims<4>-dependent code is eliminated, the reliance on this should be
 276:C:/Renesas/e2studio_2021_01_workspace_RZA2M_ANPR/ANPR_RZA2M_RDK/src/tensorflow_lite/src/tensorflow/lite/kernels/internal\types.h ****   // reduced, and (b) some kernels are stricly 4-D, but then the shapes of their
 277:C:/Renesas/e2studio_2021_01_workspace_RZA2M_ANPR/ANPR_RZA2M_RDK/src/tensorflow_lite/src/tensorflow/lite/kernels/internal\types.h ****   // inputs should already be 4-D, so this function should not be needed.
 278:C:/Renesas/e2studio_2021_01_workspace_RZA2M_ANPR/ANPR_RZA2M_RDK/src/tensorflow_lite/src/tensorflow/lite/kernels/internal\types.h ****   inline static RuntimeShape ExtendedShape(int new_shape_size,
 279:C:/Renesas/e2studio_2021_01_workspace_RZA2M_ANPR/ANPR_RZA2M_RDK/src/tensorflow_lite/src/tensorflow/lite/kernels/internal\types.h ****                                            const RuntimeShape& shape) {
 280:C:/Renesas/e2studio_2021_01_workspace_RZA2M_ANPR/ANPR_RZA2M_RDK/src/tensorflow_lite/src/tensorflow/lite/kernels/internal\types.h ****     return RuntimeShape(new_shape_size, shape, 1);
 281:C:/Renesas/e2studio_2021_01_workspace_RZA2M_ANPR/ANPR_RZA2M_RDK/src/tensorflow_lite/src/tensorflow/lite/kernels/internal\types.h ****   }
 282:C:/Renesas/e2studio_2021_01_workspace_RZA2M_ANPR/ANPR_RZA2M_RDK/src/tensorflow_lite/src/tensorflow/lite/kernels/internal\types.h **** 
 283:C:/Renesas/e2studio_2021_01_workspace_RZA2M_ANPR/ANPR_RZA2M_RDK/src/tensorflow_lite/src/tensorflow/lite/kernels/internal\types.h ****   inline void BuildFrom(const std::initializer_list<int> init_list) {
 284:C:/Renesas/e2studio_2021_01_workspace_RZA2M_ANPR/ANPR_RZA2M_RDK/src/tensorflow_lite/src/tensorflow/lite/kernels/internal\types.h ****     BuildFrom<const std::initializer_list<int>>(init_list);
 285:C:/Renesas/e2studio_2021_01_workspace_RZA2M_ANPR/ANPR_RZA2M_RDK/src/tensorflow_lite/src/tensorflow/lite/kernels/internal\types.h ****   }
 286:C:/Renesas/e2studio_2021_01_workspace_RZA2M_ANPR/ANPR_RZA2M_RDK/src/tensorflow_lite/src/tensorflow/lite/kernels/internal\types.h **** 
 287:C:/Renesas/e2studio_2021_01_workspace_RZA2M_ANPR/ANPR_RZA2M_RDK/src/tensorflow_lite/src/tensorflow/lite/kernels/internal\types.h ****   // Returns the total count of elements, that is the size when flattened into a
 288:C:/Renesas/e2studio_2021_01_workspace_RZA2M_ANPR/ANPR_RZA2M_RDK/src/tensorflow_lite/src/tensorflow/lite/kernels/internal\types.h ****   // vector.
 289:C:/Renesas/e2studio_2021_01_workspace_RZA2M_ANPR/ANPR_RZA2M_RDK/src/tensorflow_lite/src/tensorflow/lite/kernels/internal\types.h ****   inline int FlatSize() const {
 290:C:/Renesas/e2studio_2021_01_workspace_RZA2M_ANPR/ANPR_RZA2M_RDK/src/tensorflow_lite/src/tensorflow/lite/kernels/internal\types.h ****     int buffer_size = 1;
 291:C:/Renesas/e2studio_2021_01_workspace_RZA2M_ANPR/ANPR_RZA2M_RDK/src/tensorflow_lite/src/tensorflow/lite/kernels/internal\types.h ****     const int* dims_data = reinterpret_cast<const int*>(DimsData());
 292:C:/Renesas/e2studio_2021_01_workspace_RZA2M_ANPR/ANPR_RZA2M_RDK/src/tensorflow_lite/src/tensorflow/lite/kernels/internal\types.h ****     for (int i = 0; i < size_; i++) {
 293:C:/Renesas/e2studio_2021_01_workspace_RZA2M_ANPR/ANPR_RZA2M_RDK/src/tensorflow_lite/src/tensorflow/lite/kernels/internal\types.h ****       buffer_size *= dims_data[i];
 294:C:/Renesas/e2studio_2021_01_workspace_RZA2M_ANPR/ANPR_RZA2M_RDK/src/tensorflow_lite/src/tensorflow/lite/kernels/internal\types.h ****     }
 295:C:/Renesas/e2studio_2021_01_workspace_RZA2M_ANPR/ANPR_RZA2M_RDK/src/tensorflow_lite/src/tensorflow/lite/kernels/internal\types.h ****     return buffer_size;
 296:C:/Renesas/e2studio_2021_01_workspace_RZA2M_ANPR/ANPR_RZA2M_RDK/src/tensorflow_lite/src/tensorflow/lite/kernels/internal\types.h ****   }
 297:C:/Renesas/e2studio_2021_01_workspace_RZA2M_ANPR/ANPR_RZA2M_RDK/src/tensorflow_lite/src/tensorflow/lite/kernels/internal\types.h **** 
 298:C:/Renesas/e2studio_2021_01_workspace_RZA2M_ANPR/ANPR_RZA2M_RDK/src/tensorflow_lite/src/tensorflow/lite/kernels/internal\types.h ****   bool operator!=(const RuntimeShape& comp) const { return !((*this) == comp); }
 299:C:/Renesas/e2studio_2021_01_workspace_RZA2M_ANPR/ANPR_RZA2M_RDK/src/tensorflow_lite/src/tensorflow/lite/kernels/internal\types.h **** 
 300:C:/Renesas/e2studio_2021_01_workspace_RZA2M_ANPR/ANPR_RZA2M_RDK/src/tensorflow_lite/src/tensorflow/lite/kernels/internal\types.h ****  private:
 301:C:/Renesas/e2studio_2021_01_workspace_RZA2M_ANPR/ANPR_RZA2M_RDK/src/tensorflow_lite/src/tensorflow/lite/kernels/internal\types.h ****   // For use only by ExtendedShape(), written to guarantee (return-value) copy
 302:C:/Renesas/e2studio_2021_01_workspace_RZA2M_ANPR/ANPR_RZA2M_RDK/src/tensorflow_lite/src/tensorflow/lite/kernels/internal\types.h ****   // elision in C++17.
 303:C:/Renesas/e2studio_2021_01_workspace_RZA2M_ANPR/ANPR_RZA2M_RDK/src/tensorflow_lite/src/tensorflow/lite/kernels/internal\types.h ****   // This creates a shape padded to the desired size with the specified value.
 304:C:/Renesas/e2studio_2021_01_workspace_RZA2M_ANPR/ANPR_RZA2M_RDK/src/tensorflow_lite/src/tensorflow/lite/kernels/internal\types.h ****   RuntimeShape(int new_shape_size, const RuntimeShape& shape, int pad_value)
 305:C:/Renesas/e2studio_2021_01_workspace_RZA2M_ANPR/ANPR_RZA2M_RDK/src/tensorflow_lite/src/tensorflow/lite/kernels/internal\types.h ****       : size_(0) {
 306:C:/Renesas/e2studio_2021_01_workspace_RZA2M_ANPR/ANPR_RZA2M_RDK/src/tensorflow_lite/src/tensorflow/lite/kernels/internal\types.h ****     // If the following check fails, it is likely because a 4D-only kernel is
 307:C:/Renesas/e2studio_2021_01_workspace_RZA2M_ANPR/ANPR_RZA2M_RDK/src/tensorflow_lite/src/tensorflow/lite/kernels/internal\types.h ****     // being used with an array of larger dimension count.
 308:C:/Renesas/e2studio_2021_01_workspace_RZA2M_ANPR/ANPR_RZA2M_RDK/src/tensorflow_lite/src/tensorflow/lite/kernels/internal\types.h ****     TFLITE_CHECK_GE(new_shape_size, shape.DimensionsCount());
 309:C:/Renesas/e2studio_2021_01_workspace_RZA2M_ANPR/ANPR_RZA2M_RDK/src/tensorflow_lite/src/tensorflow/lite/kernels/internal\types.h ****     Resize(new_shape_size);
 310:C:/Renesas/e2studio_2021_01_workspace_RZA2M_ANPR/ANPR_RZA2M_RDK/src/tensorflow_lite/src/tensorflow/lite/kernels/internal\types.h ****     const int size_increase = new_shape_size - shape.DimensionsCount();
 311:C:/Renesas/e2studio_2021_01_workspace_RZA2M_ANPR/ANPR_RZA2M_RDK/src/tensorflow_lite/src/tensorflow/lite/kernels/internal\types.h ****     for (int i = 0; i < size_increase; ++i) {
 312:C:/Renesas/e2studio_2021_01_workspace_RZA2M_ANPR/ANPR_RZA2M_RDK/src/tensorflow_lite/src/tensorflow/lite/kernels/internal\types.h ****       SetDim(i, pad_value);
 313:C:/Renesas/e2studio_2021_01_workspace_RZA2M_ANPR/ANPR_RZA2M_RDK/src/tensorflow_lite/src/tensorflow/lite/kernels/internal\types.h ****     }
 314:C:/Renesas/e2studio_2021_01_workspace_RZA2M_ANPR/ANPR_RZA2M_RDK/src/tensorflow_lite/src/tensorflow/lite/kernels/internal\types.h ****     std::memcpy(DimsData() + size_increase, shape.DimsData(),
 315:C:/Renesas/e2studio_2021_01_workspace_RZA2M_ANPR/ANPR_RZA2M_RDK/src/tensorflow_lite/src/tensorflow/lite/kernels/internal\types.h ****                 sizeof(int32_t) * shape.DimensionsCount());
 316:C:/Renesas/e2studio_2021_01_workspace_RZA2M_ANPR/ANPR_RZA2M_RDK/src/tensorflow_lite/src/tensorflow/lite/kernels/internal\types.h ****   }
 317:C:/Renesas/e2studio_2021_01_workspace_RZA2M_ANPR/ANPR_RZA2M_RDK/src/tensorflow_lite/src/tensorflow/lite/kernels/internal\types.h **** 
 318:C:/Renesas/e2studio_2021_01_workspace_RZA2M_ANPR/ANPR_RZA2M_RDK/src/tensorflow_lite/src/tensorflow/lite/kernels/internal\types.h ****   int32_t size_;
 319:C:/Renesas/e2studio_2021_01_workspace_RZA2M_ANPR/ANPR_RZA2M_RDK/src/tensorflow_lite/src/tensorflow/lite/kernels/internal\types.h ****   union {
 320:C:/Renesas/e2studio_2021_01_workspace_RZA2M_ANPR/ANPR_RZA2M_RDK/src/tensorflow_lite/src/tensorflow/lite/kernels/internal\types.h ****     int32_t dims_[kMaxSmallSize];
 321:C:/Renesas/e2studio_2021_01_workspace_RZA2M_ANPR/ANPR_RZA2M_RDK/src/tensorflow_lite/src/tensorflow/lite/kernels/internal\types.h ****     int32_t* dims_pointer_;
 322:C:/Renesas/e2studio_2021_01_workspace_RZA2M_ANPR/ANPR_RZA2M_RDK/src/tensorflow_lite/src/tensorflow/lite/kernels/internal\types.h ****   };
 323:C:/Renesas/e2studio_2021_01_workspace_RZA2M_ANPR/ANPR_RZA2M_RDK/src/tensorflow_lite/src/tensorflow/lite/kernels/internal\types.h **** };
 324:C:/Renesas/e2studio_2021_01_workspace_RZA2M_ANPR/ANPR_RZA2M_RDK/src/tensorflow_lite/src/tensorflow/lite/kernels/internal\types.h **** 
 325:C:/Renesas/e2studio_2021_01_workspace_RZA2M_ANPR/ANPR_RZA2M_RDK/src/tensorflow_lite/src/tensorflow/lite/kernels/internal\types.h **** // Converts inference-style shape to legacy tflite::Dims<4>.
 326:C:/Renesas/e2studio_2021_01_workspace_RZA2M_ANPR/ANPR_RZA2M_RDK/src/tensorflow_lite/src/tensorflow/lite/kernels/internal\types.h **** inline tflite::Dims<4> ToRuntimeDims(const tflite::RuntimeShape& array_shape) {
 327:C:/Renesas/e2studio_2021_01_workspace_RZA2M_ANPR/ANPR_RZA2M_RDK/src/tensorflow_lite/src/tensorflow/lite/kernels/internal\types.h ****   tflite::Dims<4> result;
 328:C:/Renesas/e2studio_2021_01_workspace_RZA2M_ANPR/ANPR_RZA2M_RDK/src/tensorflow_lite/src/tensorflow/lite/kernels/internal\types.h ****   const int dimensions_count = array_shape.DimensionsCount();
 329:C:/Renesas/e2studio_2021_01_workspace_RZA2M_ANPR/ANPR_RZA2M_RDK/src/tensorflow_lite/src/tensorflow/lite/kernels/internal\types.h ****   TFLITE_CHECK_LE(dimensions_count, 4);
 330:C:/Renesas/e2studio_2021_01_workspace_RZA2M_ANPR/ANPR_RZA2M_RDK/src/tensorflow_lite/src/tensorflow/lite/kernels/internal\types.h ****   int cum_prod = 1;
 331:C:/Renesas/e2studio_2021_01_workspace_RZA2M_ANPR/ANPR_RZA2M_RDK/src/tensorflow_lite/src/tensorflow/lite/kernels/internal\types.h ****   for (int i = 0; i < 4; i++) {
 332:C:/Renesas/e2studio_2021_01_workspace_RZA2M_ANPR/ANPR_RZA2M_RDK/src/tensorflow_lite/src/tensorflow/lite/kernels/internal\types.h ****     const int new_dim =
 333:C:/Renesas/e2studio_2021_01_workspace_RZA2M_ANPR/ANPR_RZA2M_RDK/src/tensorflow_lite/src/tensorflow/lite/kernels/internal\types.h ****         (i < dimensions_count) ? array_shape.Dims(dimensions_count - 1 - i) : 1;
 334:C:/Renesas/e2studio_2021_01_workspace_RZA2M_ANPR/ANPR_RZA2M_RDK/src/tensorflow_lite/src/tensorflow/lite/kernels/internal\types.h ****     result.sizes[i] = new_dim;
 335:C:/Renesas/e2studio_2021_01_workspace_RZA2M_ANPR/ANPR_RZA2M_RDK/src/tensorflow_lite/src/tensorflow/lite/kernels/internal\types.h ****     result.strides[i] = cum_prod;
 336:C:/Renesas/e2studio_2021_01_workspace_RZA2M_ANPR/ANPR_RZA2M_RDK/src/tensorflow_lite/src/tensorflow/lite/kernels/internal\types.h ****     cum_prod *= new_dim;
 337:C:/Renesas/e2studio_2021_01_workspace_RZA2M_ANPR/ANPR_RZA2M_RDK/src/tensorflow_lite/src/tensorflow/lite/kernels/internal\types.h ****   }
 338:C:/Renesas/e2studio_2021_01_workspace_RZA2M_ANPR/ANPR_RZA2M_RDK/src/tensorflow_lite/src/tensorflow/lite/kernels/internal\types.h ****   return result;
 339:C:/Renesas/e2studio_2021_01_workspace_RZA2M_ANPR/ANPR_RZA2M_RDK/src/tensorflow_lite/src/tensorflow/lite/kernels/internal\types.h **** }
 340:C:/Renesas/e2studio_2021_01_workspace_RZA2M_ANPR/ANPR_RZA2M_RDK/src/tensorflow_lite/src/tensorflow/lite/kernels/internal\types.h **** 
 341:C:/Renesas/e2studio_2021_01_workspace_RZA2M_ANPR/ANPR_RZA2M_RDK/src/tensorflow_lite/src/tensorflow/lite/kernels/internal\types.h **** // TODO(b/80418076): Move to legacy ops file, update invocations.
 342:C:/Renesas/e2studio_2021_01_workspace_RZA2M_ANPR/ANPR_RZA2M_RDK/src/tensorflow_lite/src/tensorflow/lite/kernels/internal\types.h **** inline RuntimeShape DimsToShape(const tflite::Dims<4>& dims) {
 343:C:/Renesas/e2studio_2021_01_workspace_RZA2M_ANPR/ANPR_RZA2M_RDK/src/tensorflow_lite/src/tensorflow/lite/kernels/internal\types.h ****   return RuntimeShape(
 344:C:/Renesas/e2studio_2021_01_workspace_RZA2M_ANPR/ANPR_RZA2M_RDK/src/tensorflow_lite/src/tensorflow/lite/kernels/internal\types.h ****       {dims.sizes[3], dims.sizes[2], dims.sizes[1], dims.sizes[0]});
 345:C:/Renesas/e2studio_2021_01_workspace_RZA2M_ANPR/ANPR_RZA2M_RDK/src/tensorflow_lite/src/tensorflow/lite/kernels/internal\types.h **** }
 346:C:/Renesas/e2studio_2021_01_workspace_RZA2M_ANPR/ANPR_RZA2M_RDK/src/tensorflow_lite/src/tensorflow/lite/kernels/internal\types.h **** 
 347:C:/Renesas/e2studio_2021_01_workspace_RZA2M_ANPR/ANPR_RZA2M_RDK/src/tensorflow_lite/src/tensorflow/lite/kernels/internal\types.h **** // Gets next index to iterate through a multidimensional array.
 348:C:/Renesas/e2studio_2021_01_workspace_RZA2M_ANPR/ANPR_RZA2M_RDK/src/tensorflow_lite/src/tensorflow/lite/kernels/internal\types.h **** inline bool NextIndex(const int num_dims, const int* dims, int* current) {
 349:C:/Renesas/e2studio_2021_01_workspace_RZA2M_ANPR/ANPR_RZA2M_RDK/src/tensorflow_lite/src/tensorflow/lite/kernels/internal\types.h ****   if (num_dims == 0) {
 350:C:/Renesas/e2studio_2021_01_workspace_RZA2M_ANPR/ANPR_RZA2M_RDK/src/tensorflow_lite/src/tensorflow/lite/kernels/internal\types.h ****     return false;
 351:C:/Renesas/e2studio_2021_01_workspace_RZA2M_ANPR/ANPR_RZA2M_RDK/src/tensorflow_lite/src/tensorflow/lite/kernels/internal\types.h ****   }
 352:C:/Renesas/e2studio_2021_01_workspace_RZA2M_ANPR/ANPR_RZA2M_RDK/src/tensorflow_lite/src/tensorflow/lite/kernels/internal\types.h ****   TFLITE_DCHECK(dims != nullptr);
 353:C:/Renesas/e2studio_2021_01_workspace_RZA2M_ANPR/ANPR_RZA2M_RDK/src/tensorflow_lite/src/tensorflow/lite/kernels/internal\types.h ****   TFLITE_DCHECK(current != nullptr);
 354:C:/Renesas/e2studio_2021_01_workspace_RZA2M_ANPR/ANPR_RZA2M_RDK/src/tensorflow_lite/src/tensorflow/lite/kernels/internal\types.h ****   int carry = 1;
 355:C:/Renesas/e2studio_2021_01_workspace_RZA2M_ANPR/ANPR_RZA2M_RDK/src/tensorflow_lite/src/tensorflow/lite/kernels/internal\types.h ****   for (int idx = num_dims - 1; idx >= 0; --idx) {
 356:C:/Renesas/e2studio_2021_01_workspace_RZA2M_ANPR/ANPR_RZA2M_RDK/src/tensorflow_lite/src/tensorflow/lite/kernels/internal\types.h ****     int current_val = current[idx] + carry;
 357:C:/Renesas/e2studio_2021_01_workspace_RZA2M_ANPR/ANPR_RZA2M_RDK/src/tensorflow_lite/src/tensorflow/lite/kernels/internal\types.h ****     TFLITE_DCHECK_GE(dims[idx], current_val);
 358:C:/Renesas/e2studio_2021_01_workspace_RZA2M_ANPR/ANPR_RZA2M_RDK/src/tensorflow_lite/src/tensorflow/lite/kernels/internal\types.h ****     if (dims[idx] == current_val) {
 359:C:/Renesas/e2studio_2021_01_workspace_RZA2M_ANPR/ANPR_RZA2M_RDK/src/tensorflow_lite/src/tensorflow/lite/kernels/internal\types.h ****       current[idx] = 0;
 360:C:/Renesas/e2studio_2021_01_workspace_RZA2M_ANPR/ANPR_RZA2M_RDK/src/tensorflow_lite/src/tensorflow/lite/kernels/internal\types.h ****     } else {
 361:C:/Renesas/e2studio_2021_01_workspace_RZA2M_ANPR/ANPR_RZA2M_RDK/src/tensorflow_lite/src/tensorflow/lite/kernels/internal\types.h ****       current[idx] = current_val;
 362:C:/Renesas/e2studio_2021_01_workspace_RZA2M_ANPR/ANPR_RZA2M_RDK/src/tensorflow_lite/src/tensorflow/lite/kernels/internal\types.h ****       carry = 0;
 363:C:/Renesas/e2studio_2021_01_workspace_RZA2M_ANPR/ANPR_RZA2M_RDK/src/tensorflow_lite/src/tensorflow/lite/kernels/internal\types.h ****       break;
 364:C:/Renesas/e2studio_2021_01_workspace_RZA2M_ANPR/ANPR_RZA2M_RDK/src/tensorflow_lite/src/tensorflow/lite/kernels/internal\types.h ****     }
 365:C:/Renesas/e2studio_2021_01_workspace_RZA2M_ANPR/ANPR_RZA2M_RDK/src/tensorflow_lite/src/tensorflow/lite/kernels/internal\types.h ****   }
 366:C:/Renesas/e2studio_2021_01_workspace_RZA2M_ANPR/ANPR_RZA2M_RDK/src/tensorflow_lite/src/tensorflow/lite/kernels/internal\types.h ****   return (carry == 0);
 367:C:/Renesas/e2studio_2021_01_workspace_RZA2M_ANPR/ANPR_RZA2M_RDK/src/tensorflow_lite/src/tensorflow/lite/kernels/internal\types.h **** }
 368:C:/Renesas/e2studio_2021_01_workspace_RZA2M_ANPR/ANPR_RZA2M_RDK/src/tensorflow_lite/src/tensorflow/lite/kernels/internal\types.h **** 
 369:C:/Renesas/e2studio_2021_01_workspace_RZA2M_ANPR/ANPR_RZA2M_RDK/src/tensorflow_lite/src/tensorflow/lite/kernels/internal\types.h **** // Gets offset of index if reducing on axis. When reducing, the flattened offset
 370:C:/Renesas/e2studio_2021_01_workspace_RZA2M_ANPR/ANPR_RZA2M_RDK/src/tensorflow_lite/src/tensorflow/lite/kernels/internal\types.h **** // will not change, if the input index changes on the given axis. For example,
 371:C:/Renesas/e2studio_2021_01_workspace_RZA2M_ANPR/ANPR_RZA2M_RDK/src/tensorflow_lite/src/tensorflow/lite/kernels/internal\types.h **** // if you have a 3D tensor and you are reducing to 2D by eliminating axis 0,
 372:C:/Renesas/e2studio_2021_01_workspace_RZA2M_ANPR/ANPR_RZA2M_RDK/src/tensorflow_lite/src/tensorflow/lite/kernels/internal\types.h **** // then index (0, 1, 2) and index (1, 1, 2) will map to the same flattened
 373:C:/Renesas/e2studio_2021_01_workspace_RZA2M_ANPR/ANPR_RZA2M_RDK/src/tensorflow_lite/src/tensorflow/lite/kernels/internal\types.h **** // offset.
 374:C:/Renesas/e2studio_2021_01_workspace_RZA2M_ANPR/ANPR_RZA2M_RDK/src/tensorflow_lite/src/tensorflow/lite/kernels/internal\types.h **** // TODO(kanlig): uses Dims to represent dimensions.
 375:C:/Renesas/e2studio_2021_01_workspace_RZA2M_ANPR/ANPR_RZA2M_RDK/src/tensorflow_lite/src/tensorflow/lite/kernels/internal\types.h **** inline size_t ReducedOutputOffset(const int num_dims, const int* dims,
 376:C:/Renesas/e2studio_2021_01_workspace_RZA2M_ANPR/ANPR_RZA2M_RDK/src/tensorflow_lite/src/tensorflow/lite/kernels/internal\types.h ****                                   const int* index, const int num_axis,
 377:C:/Renesas/e2studio_2021_01_workspace_RZA2M_ANPR/ANPR_RZA2M_RDK/src/tensorflow_lite/src/tensorflow/lite/kernels/internal\types.h ****                                   const int* axis) {
 378:C:/Renesas/e2studio_2021_01_workspace_RZA2M_ANPR/ANPR_RZA2M_RDK/src/tensorflow_lite/src/tensorflow/lite/kernels/internal\types.h ****   if (num_dims == 0) {
 379:C:/Renesas/e2studio_2021_01_workspace_RZA2M_ANPR/ANPR_RZA2M_RDK/src/tensorflow_lite/src/tensorflow/lite/kernels/internal\types.h ****     return 0;
 380:C:/Renesas/e2studio_2021_01_workspace_RZA2M_ANPR/ANPR_RZA2M_RDK/src/tensorflow_lite/src/tensorflow/lite/kernels/internal\types.h ****   }
 381:C:/Renesas/e2studio_2021_01_workspace_RZA2M_ANPR/ANPR_RZA2M_RDK/src/tensorflow_lite/src/tensorflow/lite/kernels/internal\types.h ****   TFLITE_DCHECK(dims != nullptr);
 382:C:/Renesas/e2studio_2021_01_workspace_RZA2M_ANPR/ANPR_RZA2M_RDK/src/tensorflow_lite/src/tensorflow/lite/kernels/internal\types.h ****   TFLITE_DCHECK(index != nullptr);
 383:C:/Renesas/e2studio_2021_01_workspace_RZA2M_ANPR/ANPR_RZA2M_RDK/src/tensorflow_lite/src/tensorflow/lite/kernels/internal\types.h ****   size_t offset = 0;
 384:C:/Renesas/e2studio_2021_01_workspace_RZA2M_ANPR/ANPR_RZA2M_RDK/src/tensorflow_lite/src/tensorflow/lite/kernels/internal\types.h ****   for (int idx = 0; idx < num_dims; ++idx) {
 385:C:/Renesas/e2studio_2021_01_workspace_RZA2M_ANPR/ANPR_RZA2M_RDK/src/tensorflow_lite/src/tensorflow/lite/kernels/internal\types.h ****     // if we need to skip this axis
 386:C:/Renesas/e2studio_2021_01_workspace_RZA2M_ANPR/ANPR_RZA2M_RDK/src/tensorflow_lite/src/tensorflow/lite/kernels/internal\types.h ****     bool is_axis = false;
 387:C:/Renesas/e2studio_2021_01_workspace_RZA2M_ANPR/ANPR_RZA2M_RDK/src/tensorflow_lite/src/tensorflow/lite/kernels/internal\types.h ****     if (axis != nullptr) {
 388:C:/Renesas/e2studio_2021_01_workspace_RZA2M_ANPR/ANPR_RZA2M_RDK/src/tensorflow_lite/src/tensorflow/lite/kernels/internal\types.h ****       for (int axis_idx = 0; axis_idx < num_axis; ++axis_idx) {
 389:C:/Renesas/e2studio_2021_01_workspace_RZA2M_ANPR/ANPR_RZA2M_RDK/src/tensorflow_lite/src/tensorflow/lite/kernels/internal\types.h ****         if (idx == axis[axis_idx]) {
 390:C:/Renesas/e2studio_2021_01_workspace_RZA2M_ANPR/ANPR_RZA2M_RDK/src/tensorflow_lite/src/tensorflow/lite/kernels/internal\types.h ****           is_axis = true;
 391:C:/Renesas/e2studio_2021_01_workspace_RZA2M_ANPR/ANPR_RZA2M_RDK/src/tensorflow_lite/src/tensorflow/lite/kernels/internal\types.h ****           break;
 392:C:/Renesas/e2studio_2021_01_workspace_RZA2M_ANPR/ANPR_RZA2M_RDK/src/tensorflow_lite/src/tensorflow/lite/kernels/internal\types.h ****         }
 393:C:/Renesas/e2studio_2021_01_workspace_RZA2M_ANPR/ANPR_RZA2M_RDK/src/tensorflow_lite/src/tensorflow/lite/kernels/internal\types.h ****       }
 394:C:/Renesas/e2studio_2021_01_workspace_RZA2M_ANPR/ANPR_RZA2M_RDK/src/tensorflow_lite/src/tensorflow/lite/kernels/internal\types.h ****     }
 395:C:/Renesas/e2studio_2021_01_workspace_RZA2M_ANPR/ANPR_RZA2M_RDK/src/tensorflow_lite/src/tensorflow/lite/kernels/internal\types.h ****     if (!is_axis) {
 396:C:/Renesas/e2studio_2021_01_workspace_RZA2M_ANPR/ANPR_RZA2M_RDK/src/tensorflow_lite/src/tensorflow/lite/kernels/internal\types.h ****       offset = offset * static_cast<size_t>(dims[idx]) +
 397:C:/Renesas/e2studio_2021_01_workspace_RZA2M_ANPR/ANPR_RZA2M_RDK/src/tensorflow_lite/src/tensorflow/lite/kernels/internal\types.h ****                static_cast<size_t>(index[idx]);
 398:C:/Renesas/e2studio_2021_01_workspace_RZA2M_ANPR/ANPR_RZA2M_RDK/src/tensorflow_lite/src/tensorflow/lite/kernels/internal\types.h ****     }
 399:C:/Renesas/e2studio_2021_01_workspace_RZA2M_ANPR/ANPR_RZA2M_RDK/src/tensorflow_lite/src/tensorflow/lite/kernels/internal\types.h ****   }
 400:C:/Renesas/e2studio_2021_01_workspace_RZA2M_ANPR/ANPR_RZA2M_RDK/src/tensorflow_lite/src/tensorflow/lite/kernels/internal\types.h ****   return offset;
 401:C:/Renesas/e2studio_2021_01_workspace_RZA2M_ANPR/ANPR_RZA2M_RDK/src/tensorflow_lite/src/tensorflow/lite/kernels/internal\types.h **** }
 402:C:/Renesas/e2studio_2021_01_workspace_RZA2M_ANPR/ANPR_RZA2M_RDK/src/tensorflow_lite/src/tensorflow/lite/kernels/internal\types.h **** 
 403:C:/Renesas/e2studio_2021_01_workspace_RZA2M_ANPR/ANPR_RZA2M_RDK/src/tensorflow_lite/src/tensorflow/lite/kernels/internal\types.h **** inline int Offset(const RuntimeShape& shape, int i0, int i1, int i2, int i3) {
 404:C:/Renesas/e2studio_2021_01_workspace_RZA2M_ANPR/ANPR_RZA2M_RDK/src/tensorflow_lite/src/tensorflow/lite/kernels/internal\types.h ****   TFLITE_DCHECK_EQ(shape.DimensionsCount(), 4);
 405:C:/Renesas/e2studio_2021_01_workspace_RZA2M_ANPR/ANPR_RZA2M_RDK/src/tensorflow_lite/src/tensorflow/lite/kernels/internal\types.h ****   const int* dims_data = reinterpret_cast<const int*>(shape.DimsDataUpTo5D());
 406:C:/Renesas/e2studio_2021_01_workspace_RZA2M_ANPR/ANPR_RZA2M_RDK/src/tensorflow_lite/src/tensorflow/lite/kernels/internal\types.h ****   TFLITE_DCHECK(i0 >= 0 && i0 < dims_data[0]);
 407:C:/Renesas/e2studio_2021_01_workspace_RZA2M_ANPR/ANPR_RZA2M_RDK/src/tensorflow_lite/src/tensorflow/lite/kernels/internal\types.h ****   TFLITE_DCHECK(i1 >= 0 && i1 < dims_data[1]);
 408:C:/Renesas/e2studio_2021_01_workspace_RZA2M_ANPR/ANPR_RZA2M_RDK/src/tensorflow_lite/src/tensorflow/lite/kernels/internal\types.h ****   TFLITE_DCHECK(i2 >= 0 && i2 < dims_data[2]);
 409:C:/Renesas/e2studio_2021_01_workspace_RZA2M_ANPR/ANPR_RZA2M_RDK/src/tensorflow_lite/src/tensorflow/lite/kernels/internal\types.h ****   TFLITE_DCHECK(i3 >= 0 && i3 < dims_data[3]);
 410:C:/Renesas/e2studio_2021_01_workspace_RZA2M_ANPR/ANPR_RZA2M_RDK/src/tensorflow_lite/src/tensorflow/lite/kernels/internal\types.h ****   return ((i0 * dims_data[1] + i1) * dims_data[2] + i2) * dims_data[3] + i3;
 411:C:/Renesas/e2studio_2021_01_workspace_RZA2M_ANPR/ANPR_RZA2M_RDK/src/tensorflow_lite/src/tensorflow/lite/kernels/internal\types.h **** }
 412:C:/Renesas/e2studio_2021_01_workspace_RZA2M_ANPR/ANPR_RZA2M_RDK/src/tensorflow_lite/src/tensorflow/lite/kernels/internal\types.h **** 
 413:C:/Renesas/e2studio_2021_01_workspace_RZA2M_ANPR/ANPR_RZA2M_RDK/src/tensorflow_lite/src/tensorflow/lite/kernels/internal\types.h **** inline int Offset(const RuntimeShape& shape, int i0, int i1, int i2, int i3,
 414:C:/Renesas/e2studio_2021_01_workspace_RZA2M_ANPR/ANPR_RZA2M_RDK/src/tensorflow_lite/src/tensorflow/lite/kernels/internal\types.h ****                   int i4) {
 415:C:/Renesas/e2studio_2021_01_workspace_RZA2M_ANPR/ANPR_RZA2M_RDK/src/tensorflow_lite/src/tensorflow/lite/kernels/internal\types.h ****   TFLITE_DCHECK_EQ(shape.DimensionsCount(), 5);
 416:C:/Renesas/e2studio_2021_01_workspace_RZA2M_ANPR/ANPR_RZA2M_RDK/src/tensorflow_lite/src/tensorflow/lite/kernels/internal\types.h ****   const int* dims_data = reinterpret_cast<const int*>(shape.DimsDataUpTo5D());
 417:C:/Renesas/e2studio_2021_01_workspace_RZA2M_ANPR/ANPR_RZA2M_RDK/src/tensorflow_lite/src/tensorflow/lite/kernels/internal\types.h ****   TFLITE_DCHECK(i0 >= 0 && i0 < dims_data[0]);
 418:C:/Renesas/e2studio_2021_01_workspace_RZA2M_ANPR/ANPR_RZA2M_RDK/src/tensorflow_lite/src/tensorflow/lite/kernels/internal\types.h ****   TFLITE_DCHECK(i1 >= 0 && i1 < dims_data[1]);
 419:C:/Renesas/e2studio_2021_01_workspace_RZA2M_ANPR/ANPR_RZA2M_RDK/src/tensorflow_lite/src/tensorflow/lite/kernels/internal\types.h ****   TFLITE_DCHECK(i2 >= 0 && i2 < dims_data[2]);
 420:C:/Renesas/e2studio_2021_01_workspace_RZA2M_ANPR/ANPR_RZA2M_RDK/src/tensorflow_lite/src/tensorflow/lite/kernels/internal\types.h ****   TFLITE_DCHECK(i3 >= 0 && i3 < dims_data[3]);
 421:C:/Renesas/e2studio_2021_01_workspace_RZA2M_ANPR/ANPR_RZA2M_RDK/src/tensorflow_lite/src/tensorflow/lite/kernels/internal\types.h ****   TFLITE_DCHECK(i4 >= 0 && i4 < dims_data[4]);
 422:C:/Renesas/e2studio_2021_01_workspace_RZA2M_ANPR/ANPR_RZA2M_RDK/src/tensorflow_lite/src/tensorflow/lite/kernels/internal\types.h ****   return (((i0 * dims_data[1] + i1) * dims_data[2] + i2) * dims_data[3] + i3) *
 423:C:/Renesas/e2studio_2021_01_workspace_RZA2M_ANPR/ANPR_RZA2M_RDK/src/tensorflow_lite/src/tensorflow/lite/kernels/internal\types.h ****              dims_data[4] +
 424:C:/Renesas/e2studio_2021_01_workspace_RZA2M_ANPR/ANPR_RZA2M_RDK/src/tensorflow_lite/src/tensorflow/lite/kernels/internal\types.h ****          i4;
 425:C:/Renesas/e2studio_2021_01_workspace_RZA2M_ANPR/ANPR_RZA2M_RDK/src/tensorflow_lite/src/tensorflow/lite/kernels/internal\types.h **** }
 426:C:/Renesas/e2studio_2021_01_workspace_RZA2M_ANPR/ANPR_RZA2M_RDK/src/tensorflow_lite/src/tensorflow/lite/kernels/internal\types.h **** 
 427:C:/Renesas/e2studio_2021_01_workspace_RZA2M_ANPR/ANPR_RZA2M_RDK/src/tensorflow_lite/src/tensorflow/lite/kernels/internal\types.h **** inline int Offset(const Dims<4>& dims, int i0, int i1, int i2, int i3) {
 428:C:/Renesas/e2studio_2021_01_workspace_RZA2M_ANPR/ANPR_RZA2M_RDK/src/tensorflow_lite/src/tensorflow/lite/kernels/internal\types.h ****   TFLITE_DCHECK(i0 >= 0 && i0 < dims.sizes[0]);
 429:C:/Renesas/e2studio_2021_01_workspace_RZA2M_ANPR/ANPR_RZA2M_RDK/src/tensorflow_lite/src/tensorflow/lite/kernels/internal\types.h ****   TFLITE_DCHECK(i1 >= 0 && i1 < dims.sizes[1]);
 430:C:/Renesas/e2studio_2021_01_workspace_RZA2M_ANPR/ANPR_RZA2M_RDK/src/tensorflow_lite/src/tensorflow/lite/kernels/internal\types.h ****   TFLITE_DCHECK(i2 >= 0 && i2 < dims.sizes[2]);
 431:C:/Renesas/e2studio_2021_01_workspace_RZA2M_ANPR/ANPR_RZA2M_RDK/src/tensorflow_lite/src/tensorflow/lite/kernels/internal\types.h ****   TFLITE_DCHECK(i3 >= 0 && i3 < dims.sizes[3]);
 432:C:/Renesas/e2studio_2021_01_workspace_RZA2M_ANPR/ANPR_RZA2M_RDK/src/tensorflow_lite/src/tensorflow/lite/kernels/internal\types.h ****   return i0 * dims.strides[0] + i1 * dims.strides[1] + i2 * dims.strides[2] +
 433:C:/Renesas/e2studio_2021_01_workspace_RZA2M_ANPR/ANPR_RZA2M_RDK/src/tensorflow_lite/src/tensorflow/lite/kernels/internal\types.h ****          i3 * dims.strides[3];
 434:C:/Renesas/e2studio_2021_01_workspace_RZA2M_ANPR/ANPR_RZA2M_RDK/src/tensorflow_lite/src/tensorflow/lite/kernels/internal\types.h **** }
 435:C:/Renesas/e2studio_2021_01_workspace_RZA2M_ANPR/ANPR_RZA2M_RDK/src/tensorflow_lite/src/tensorflow/lite/kernels/internal\types.h **** 
 436:C:/Renesas/e2studio_2021_01_workspace_RZA2M_ANPR/ANPR_RZA2M_RDK/src/tensorflow_lite/src/tensorflow/lite/kernels/internal\types.h **** inline int Offset(const Dims<4>& dims, int* index) {
 437:C:/Renesas/e2studio_2021_01_workspace_RZA2M_ANPR/ANPR_RZA2M_RDK/src/tensorflow_lite/src/tensorflow/lite/kernels/internal\types.h ****   return Offset(dims, index[0], index[1], index[2], index[3]);
 438:C:/Renesas/e2studio_2021_01_workspace_RZA2M_ANPR/ANPR_RZA2M_RDK/src/tensorflow_lite/src/tensorflow/lite/kernels/internal\types.h **** }
 439:C:/Renesas/e2studio_2021_01_workspace_RZA2M_ANPR/ANPR_RZA2M_RDK/src/tensorflow_lite/src/tensorflow/lite/kernels/internal\types.h **** 
 440:C:/Renesas/e2studio_2021_01_workspace_RZA2M_ANPR/ANPR_RZA2M_RDK/src/tensorflow_lite/src/tensorflow/lite/kernels/internal\types.h **** inline int Offset(const RuntimeShape& shape, int* index) {
 441:C:/Renesas/e2studio_2021_01_workspace_RZA2M_ANPR/ANPR_RZA2M_RDK/src/tensorflow_lite/src/tensorflow/lite/kernels/internal\types.h ****   return Offset(shape, index[0], index[1], index[2], index[3]);
 442:C:/Renesas/e2studio_2021_01_workspace_RZA2M_ANPR/ANPR_RZA2M_RDK/src/tensorflow_lite/src/tensorflow/lite/kernels/internal\types.h **** }
 443:C:/Renesas/e2studio_2021_01_workspace_RZA2M_ANPR/ANPR_RZA2M_RDK/src/tensorflow_lite/src/tensorflow/lite/kernels/internal\types.h **** 
 444:C:/Renesas/e2studio_2021_01_workspace_RZA2M_ANPR/ANPR_RZA2M_RDK/src/tensorflow_lite/src/tensorflow/lite/kernels/internal\types.h **** // Get array size, DCHECKing that the dim index is in range.
 445:C:/Renesas/e2studio_2021_01_workspace_RZA2M_ANPR/ANPR_RZA2M_RDK/src/tensorflow_lite/src/tensorflow/lite/kernels/internal\types.h **** //
 446:C:/Renesas/e2studio_2021_01_workspace_RZA2M_ANPR/ANPR_RZA2M_RDK/src/tensorflow_lite/src/tensorflow/lite/kernels/internal\types.h **** // Note that this will be phased out with Dims<4>, since RuntimeShape::Dims()
 447:C:/Renesas/e2studio_2021_01_workspace_RZA2M_ANPR/ANPR_RZA2M_RDK/src/tensorflow_lite/src/tensorflow/lite/kernels/internal\types.h **** // already performs this check.
 448:C:/Renesas/e2studio_2021_01_workspace_RZA2M_ANPR/ANPR_RZA2M_RDK/src/tensorflow_lite/src/tensorflow/lite/kernels/internal\types.h **** template <int N>
 449:C:/Renesas/e2studio_2021_01_workspace_RZA2M_ANPR/ANPR_RZA2M_RDK/src/tensorflow_lite/src/tensorflow/lite/kernels/internal\types.h **** int ArraySize(const Dims<N>& array, int index) {
 450:C:/Renesas/e2studio_2021_01_workspace_RZA2M_ANPR/ANPR_RZA2M_RDK/src/tensorflow_lite/src/tensorflow/lite/kernels/internal\types.h ****   TFLITE_DCHECK(index >= 0 && index < N);
 451:C:/Renesas/e2studio_2021_01_workspace_RZA2M_ANPR/ANPR_RZA2M_RDK/src/tensorflow_lite/src/tensorflow/lite/kernels/internal\types.h ****   return array.sizes[index];
 452:C:/Renesas/e2studio_2021_01_workspace_RZA2M_ANPR/ANPR_RZA2M_RDK/src/tensorflow_lite/src/tensorflow/lite/kernels/internal\types.h **** }
 453:C:/Renesas/e2studio_2021_01_workspace_RZA2M_ANPR/ANPR_RZA2M_RDK/src/tensorflow_lite/src/tensorflow/lite/kernels/internal\types.h **** 
 454:C:/Renesas/e2studio_2021_01_workspace_RZA2M_ANPR/ANPR_RZA2M_RDK/src/tensorflow_lite/src/tensorflow/lite/kernels/internal\types.h **** // Get common array size, DCHECKing that they all agree.
 455:C:/Renesas/e2studio_2021_01_workspace_RZA2M_ANPR/ANPR_RZA2M_RDK/src/tensorflow_lite/src/tensorflow/lite/kernels/internal\types.h **** template <typename ArrayType1, typename ArrayType2>
 456:C:/Renesas/e2studio_2021_01_workspace_RZA2M_ANPR/ANPR_RZA2M_RDK/src/tensorflow_lite/src/tensorflow/lite/kernels/internal\types.h **** int MatchingArraySize(const ArrayType1& array1, int index1,
 457:C:/Renesas/e2studio_2021_01_workspace_RZA2M_ANPR/ANPR_RZA2M_RDK/src/tensorflow_lite/src/tensorflow/lite/kernels/internal\types.h ****                       const ArrayType2& array2, int index2) {
 458:C:/Renesas/e2studio_2021_01_workspace_RZA2M_ANPR/ANPR_RZA2M_RDK/src/tensorflow_lite/src/tensorflow/lite/kernels/internal\types.h ****   TFLITE_DCHECK_EQ(ArraySize(array1, index1), ArraySize(array2, index2));
 459:C:/Renesas/e2studio_2021_01_workspace_RZA2M_ANPR/ANPR_RZA2M_RDK/src/tensorflow_lite/src/tensorflow/lite/kernels/internal\types.h ****   return ArraySize(array1, index1);
 460:C:/Renesas/e2studio_2021_01_workspace_RZA2M_ANPR/ANPR_RZA2M_RDK/src/tensorflow_lite/src/tensorflow/lite/kernels/internal\types.h **** }
 461:C:/Renesas/e2studio_2021_01_workspace_RZA2M_ANPR/ANPR_RZA2M_RDK/src/tensorflow_lite/src/tensorflow/lite/kernels/internal\types.h **** 
 462:C:/Renesas/e2studio_2021_01_workspace_RZA2M_ANPR/ANPR_RZA2M_RDK/src/tensorflow_lite/src/tensorflow/lite/kernels/internal\types.h **** template <typename ArrayType1, typename ArrayType2, typename... Args>
 463:C:/Renesas/e2studio_2021_01_workspace_RZA2M_ANPR/ANPR_RZA2M_RDK/src/tensorflow_lite/src/tensorflow/lite/kernels/internal\types.h **** int MatchingArraySize(const ArrayType1& array1, int index1,
 464:C:/Renesas/e2studio_2021_01_workspace_RZA2M_ANPR/ANPR_RZA2M_RDK/src/tensorflow_lite/src/tensorflow/lite/kernels/internal\types.h ****                       const ArrayType2& array2, int index2, Args... args) {
 465:C:/Renesas/e2studio_2021_01_workspace_RZA2M_ANPR/ANPR_RZA2M_RDK/src/tensorflow_lite/src/tensorflow/lite/kernels/internal\types.h ****   TFLITE_DCHECK_EQ(ArraySize(array1, index1), ArraySize(array2, index2));
 466:C:/Renesas/e2studio_2021_01_workspace_RZA2M_ANPR/ANPR_RZA2M_RDK/src/tensorflow_lite/src/tensorflow/lite/kernels/internal\types.h ****   return MatchingArraySize(array1, index1, args...);
 467:C:/Renesas/e2studio_2021_01_workspace_RZA2M_ANPR/ANPR_RZA2M_RDK/src/tensorflow_lite/src/tensorflow/lite/kernels/internal\types.h **** }
 468:C:/Renesas/e2studio_2021_01_workspace_RZA2M_ANPR/ANPR_RZA2M_RDK/src/tensorflow_lite/src/tensorflow/lite/kernels/internal\types.h **** 
 469:C:/Renesas/e2studio_2021_01_workspace_RZA2M_ANPR/ANPR_RZA2M_RDK/src/tensorflow_lite/src/tensorflow/lite/kernels/internal\types.h **** // Get common shape dim, DCHECKing that they all agree.
 470:C:/Renesas/e2studio_2021_01_workspace_RZA2M_ANPR/ANPR_RZA2M_RDK/src/tensorflow_lite/src/tensorflow/lite/kernels/internal\types.h **** inline int MatchingDim(const RuntimeShape& shape1, int index1,
 471:C:/Renesas/e2studio_2021_01_workspace_RZA2M_ANPR/ANPR_RZA2M_RDK/src/tensorflow_lite/src/tensorflow/lite/kernels/internal\types.h ****                        const RuntimeShape& shape2, int index2) {
 472:C:/Renesas/e2studio_2021_01_workspace_RZA2M_ANPR/ANPR_RZA2M_RDK/src/tensorflow_lite/src/tensorflow/lite/kernels/internal\types.h ****   TFLITE_DCHECK_EQ(shape1.Dims(index1), shape2.Dims(index2));
 816              		.loc 6 472 0
 817 012c 020053E1 		cmp	r3, r2
 818              	.LBB696:
 819              	.LBB694:
 216:C:/Renesas/e2studio_2021_01_workspace_RZA2M_ANPR/ANPR_RZA2M_RDK/src/tensorflow_lite/src/tensorflow/lite/kernels/internal\types.h ****   }
 820              		.loc 6 216 0
 821 0130 20208DE5 		str	r2, [sp, #32]
 822              	.LVL89:
 823              	.LBE694:
 824              	.LBE696:
 825              		.loc 6 472 0
 826 0134 7302001A 		bne	.L329
 827              	.LVL90:
 828              	.LBE688:
 829              	.LBE687:
 830              	.LBB698:
 831              	.LBB699:
 832              	.LBB700:
 833              	.LBB701:
 216:C:/Renesas/e2studio_2021_01_workspace_RZA2M_ANPR/ANPR_RZA2M_RDK/src/tensorflow_lite/src/tensorflow/lite/kernels/internal\types.h ****   }
 834              		.loc 6 216 0
 835 0138 F0B09DE5 		ldr	fp, [sp, #240]
 836              	.LVL91:
 837              	.LBE701:
 838              	.LBE700:
 839              	.LBB702:
 840              	.LBB703:
 841 013c 08819DE5 		ldr	r8, [sp, #264]
 842              	.LVL92:
 843              	.LBE703:
 844              	.LBE702:
 845              		.loc 6 472 0
 846 0140 08005BE1 		cmp	fp, r8
 847 0144 6C02001A 		bne	.L330
 848              	.LVL93:
 849              	.LBE699:
 850              	.LBE698:
 851              	.LBB705:
 195:C:/Renesas/e2studio_2021_01_workspace_RZA2M_ANPR/ANPR_RZA2M_RDK/src/tensorflow_lite/src/tensorflow/lite/kernels/internal/reference\pooling.h ****   const int batches = MatchingDim(input_shape, 0, output_shape, 0);
 196:C:/Renesas/e2studio_2021_01_workspace_RZA2M_ANPR/ANPR_RZA2M_RDK/src/tensorflow_lite/src/tensorflow/lite/kernels/internal/reference\pooling.h ****   const int depth = MatchingDim(input_shape, 3, output_shape, 3);
 197:C:/Renesas/e2studio_2021_01_workspace_RZA2M_ANPR/ANPR_RZA2M_RDK/src/tensorflow_lite/src/tensorflow/lite/kernels/internal/reference\pooling.h ****   const int input_height = input_shape.Dims(1);
 198:C:/Renesas/e2studio_2021_01_workspace_RZA2M_ANPR/ANPR_RZA2M_RDK/src/tensorflow_lite/src/tensorflow/lite/kernels/internal/reference\pooling.h ****   const int input_width = input_shape.Dims(2);
 199:C:/Renesas/e2studio_2021_01_workspace_RZA2M_ANPR/ANPR_RZA2M_RDK/src/tensorflow_lite/src/tensorflow/lite/kernels/internal/reference\pooling.h ****   const int output_height = output_shape.Dims(1);
 200:C:/Renesas/e2studio_2021_01_workspace_RZA2M_ANPR/ANPR_RZA2M_RDK/src/tensorflow_lite/src/tensorflow/lite/kernels/internal/reference\pooling.h ****   const int output_width = output_shape.Dims(2);
 201:C:/Renesas/e2studio_2021_01_workspace_RZA2M_ANPR/ANPR_RZA2M_RDK/src/tensorflow_lite/src/tensorflow/lite/kernels/internal/reference\pooling.h ****   const int stride_height = params.stride_height;
 202:C:/Renesas/e2studio_2021_01_workspace_RZA2M_ANPR/ANPR_RZA2M_RDK/src/tensorflow_lite/src/tensorflow/lite/kernels/internal/reference\pooling.h ****   const int stride_width = params.stride_width;
 203:C:/Renesas/e2studio_2021_01_workspace_RZA2M_ANPR/ANPR_RZA2M_RDK/src/tensorflow_lite/src/tensorflow/lite/kernels/internal/reference\pooling.h ****   for (int batch = 0; batch < batches; ++batch) {
 852              		.loc 5 203 0
 853 0148 000053E3 		cmp	r3, #0
 854              	.LBE705:
 855              	.LBB777:
 856              	.LBB778:
 216:C:/Renesas/e2studio_2021_01_workspace_RZA2M_ANPR/ANPR_RZA2M_RDK/src/tensorflow_lite/src/tensorflow/lite/kernels/internal\types.h ****   }
 857              		.loc 6 216 0
 858 014c E8309DE5 		ldr	r3, [sp, #232]
 859              	.LBE778:
 860              	.LBE777:
 861              	.LBB780:
 862              	.LBB781:
 863 0150 ECA09DE5 		ldr	r10, [sp, #236]
 864              	.LBE781:
 865              	.LBE780:
 866              	.LBB782:
 867              	.LBB779:
 868 0154 18308DE5 		str	r3, [sp, #24]
 869              	.LVL94:
 870              	.LBE779:
 871              	.LBE782:
 872              	.LBB783:
 873              	.LBB784:
 874 0158 00319DE5 		ldr	r3, [sp, #256]
 875 015c 30308DE5 		str	r3, [sp, #48]
 876              	.LVL95:
 877              	.LBE784:
 878              	.LBE783:
 879              	.LBB785:
 880              	.LBB786:
 881 0160 04319DE5 		ldr	r3, [sp, #260]
 882 0164 34308DE5 		str	r3, [sp, #52]
 883              	.LVL96:
 884              	.LBE786:
 885              	.LBE785:
 886              	.LBB787:
 887              		.loc 5 203 0
 888 0168 D50000DA 		ble	.L184
 889 016c 30009DE5 		ldr	r0, [sp, #48]
 890 0170 0320A0E1 		mov	r2, r3
 891 0174 9B0202E0 		mul	r2, fp, r2
 892 0178 0BC1A0E1 		lsl	ip, fp, #2
 893 017c 58108DE5 		str	r1, [sp, #88]
 894 0180 84C08DE5 		str	ip, [sp, #132]
 895 0184 930003E0 		mul	r3, r3, r0
 896 0188 0000A0E3 		mov	r0, #0
 897 018c 64008DE5 		str	r0, [sp, #100]
 898 0190 14008DE5 		str	r0, [sp, #20]
 899 0194 0331A0E1 		lsl	r3, r3, #2
 900 0198 9B0303E0 		mul	r3, fp, r3
 901 019c 88308DE5 		str	r3, [sp, #136]
 902 01a0 0231A0E1 		lsl	r3, r2, #2
 903 01a4 0B20A0E1 		mov	r2, fp
 904 01a8 8C308DE5 		str	r3, [sp, #140]
 905 01ac 0A30A0E1 		mov	r3, r10
 906 01b0 09B0A0E1 		mov	fp, r9
 907 01b4 08A0A0E1 		mov	r10, r8
 908 01b8 0290A0E1 		mov	r9, r2
 909              	.LVL97:
 910 01bc 0380A0E1 		mov	r8, r3
 911              	.LVL98:
 912              	.L62:
 913              	.LBB706:
 204:C:/Renesas/e2studio_2021_01_workspace_RZA2M_ANPR/ANPR_RZA2M_RDK/src/tensorflow_lite/src/tensorflow/lite/kernels/internal/reference\pooling.h ****     for (int out_y = 0; out_y < output_height; ++out_y) {
 914              		.loc 5 204 0
 915 01c0 30309DE5 		ldr	r3, [sp, #48]
 916 01c4 000053E3 		cmp	r3, #0
 917 01c8 AF0000DA 		ble	.L64
 918 01cc 74309DE5 		ldr	r3, [sp, #116]
 919 01d0 002063E2 		rsb	r2, r3, #0
 920 01d4 2C208DE5 		str	r2, [sp, #44]
 921 01d8 18209DE5 		ldr	r2, [sp, #24]
 922 01dc 023083E0 		add	r3, r3, r2
 923 01e0 60308DE5 		str	r3, [sp, #96]
 924 01e4 58309DE5 		ldr	r3, [sp, #88]
 925 01e8 5C308DE5 		str	r3, [sp, #92]
 926 01ec 0030A0E3 		mov	r3, #0
 927 01f0 48308DE5 		str	r3, [sp, #72]
 928              	.LVL99:
 929              	.L65:
 930              	.LBB707:
 205:C:/Renesas/e2studio_2021_01_workspace_RZA2M_ANPR/ANPR_RZA2M_RDK/src/tensorflow_lite/src/tensorflow/lite/kernels/internal/reference\pooling.h ****       for (int out_x = 0; out_x < output_width; ++out_x) {
 931              		.loc 5 205 0
 932 01f4 34309DE5 		ldr	r3, [sp, #52]
 933 01f8 000053E3 		cmp	r3, #0
 934 01fc 910000DA 		ble	.L67
 935 0200 2C109DE5 		ldr	r1, [sp, #44]
 936 0204 64C09DE5 		ldr	ip, [sp, #100]
 937 0208 70009DE5 		ldr	r0, [sp, #112]
 938 020c 60209DE5 		ldr	r2, [sp, #96]
 939 0210 0C3081E0 		add	r3, r1, ip
 940 0214 18C09DE5 		ldr	ip, [sp, #24]
 941 0218 000052E1 		cmp	r2, r0
 942 021c 0200A0B1 		movlt	r0, r2
 943 0220 000051E3 		cmp	r1, #0
 944 0224 0C2042B0 		sublt	r2, r2, ip
 945 0228 0020A0A3 		movge	r2, #0
 946 022c 011080E0 		add	r1, r0, r1
 947 0230 023083E0 		add	r3, r3, r2
 948 0234 24208DE5 		str	r2, [sp, #36]
 949 0238 980303E0 		mul	r3, r8, r3
 950 023c 78209DE5 		ldr	r2, [sp, #120]
 951 0240 1C108DE5 		str	r1, [sp, #28]
 952 0244 40008DE5 		str	r0, [sp, #64]
 953 0248 001062E2 		rsb	r1, r2, #0
 954 024c 6C308DE5 		str	r3, [sp, #108]
 955 0250 023088E0 		add	r3, r8, r2
 956 0254 50308DE5 		str	r3, [sp, #80]
 957 0258 5C309DE5 		ldr	r3, [sp, #92]
 958 025c 4C108DE5 		str	r1, [sp, #76]
 959 0260 54308DE5 		str	r3, [sp, #84]
 960 0264 0030A0E3 		mov	r3, #0
 961 0268 44308DE5 		str	r3, [sp, #68]
 962              	.LVL100:
 963              	.L68:
 964              	.LBB708:
 206:C:/Renesas/e2studio_2021_01_workspace_RZA2M_ANPR/ANPR_RZA2M_RDK/src/tensorflow_lite/src/tensorflow/lite/kernels/internal/reference\pooling.h ****         for (int channel = 0; channel < depth; ++channel) {
 965              		.loc 5 206 0
 966 026c 000059E3 		cmp	r9, #0
 967 0270 630000DA 		ble	.L102
 968 0274 50309DE5 		ldr	r3, [sp, #80]
 969              	.LBB709:
 970              	.LBB710:
 971              	.LBB711:
 972              	.LBB712:
 207:C:/Renesas/e2studio_2021_01_workspace_RZA2M_ANPR/ANPR_RZA2M_RDK/src/tensorflow_lite/src/tensorflow/lite/kernels/internal/reference\pooling.h ****           const int in_x_origin =
 208:C:/Renesas/e2studio_2021_01_workspace_RZA2M_ANPR/ANPR_RZA2M_RDK/src/tensorflow_lite/src/tensorflow/lite/kernels/internal/reference\pooling.h ****               (out_x * stride_width) - params.padding_values.width;
 209:C:/Renesas/e2studio_2021_01_workspace_RZA2M_ANPR/ANPR_RZA2M_RDK/src/tensorflow_lite/src/tensorflow/lite/kernels/internal/reference\pooling.h ****           const int in_y_origin =
 210:C:/Renesas/e2studio_2021_01_workspace_RZA2M_ANPR/ANPR_RZA2M_RDK/src/tensorflow_lite/src/tensorflow/lite/kernels/internal/reference\pooling.h ****               (out_y * stride_height) - params.padding_values.height;
 211:C:/Renesas/e2studio_2021_01_workspace_RZA2M_ANPR/ANPR_RZA2M_RDK/src/tensorflow_lite/src/tensorflow/lite/kernels/internal/reference\pooling.h ****           // Compute the boundaries of the filter region clamped so as to
 212:C:/Renesas/e2studio_2021_01_workspace_RZA2M_ANPR/ANPR_RZA2M_RDK/src/tensorflow_lite/src/tensorflow/lite/kernels/internal/reference\pooling.h ****           // ensure that the filter window fits in the input array.
 213:C:/Renesas/e2studio_2021_01_workspace_RZA2M_ANPR/ANPR_RZA2M_RDK/src/tensorflow_lite/src/tensorflow/lite/kernels/internal/reference\pooling.h ****           const int filter_x_start = std::max(0, -in_x_origin);
 214:C:/Renesas/e2studio_2021_01_workspace_RZA2M_ANPR/ANPR_RZA2M_RDK/src/tensorflow_lite/src/tensorflow/lite/kernels/internal/reference\pooling.h ****           const int filter_x_end =
 215:C:/Renesas/e2studio_2021_01_workspace_RZA2M_ANPR/ANPR_RZA2M_RDK/src/tensorflow_lite/src/tensorflow/lite/kernels/internal/reference\pooling.h ****               std::min(params.filter_width, input_width - in_x_origin);
 216:C:/Renesas/e2studio_2021_01_workspace_RZA2M_ANPR/ANPR_RZA2M_RDK/src/tensorflow_lite/src/tensorflow/lite/kernels/internal/reference\pooling.h ****           const int filter_y_start = std::max(0, -in_y_origin);
 217:C:/Renesas/e2studio_2021_01_workspace_RZA2M_ANPR/ANPR_RZA2M_RDK/src/tensorflow_lite/src/tensorflow/lite/kernels/internal/reference\pooling.h ****           const int filter_y_end =
 218:C:/Renesas/e2studio_2021_01_workspace_RZA2M_ANPR/ANPR_RZA2M_RDK/src/tensorflow_lite/src/tensorflow/lite/kernels/internal/reference\pooling.h ****               std::min(params.filter_height, input_height - in_y_origin);
 219:C:/Renesas/e2studio_2021_01_workspace_RZA2M_ANPR/ANPR_RZA2M_RDK/src/tensorflow_lite/src/tensorflow/lite/kernels/internal/reference\pooling.h ****           float max = std::numeric_limits<float>::lowest();
 220:C:/Renesas/e2studio_2021_01_workspace_RZA2M_ANPR/ANPR_RZA2M_RDK/src/tensorflow_lite/src/tensorflow/lite/kernels/internal/reference\pooling.h ****           for (int filter_y = filter_y_start; filter_y < filter_y_end;
 221:C:/Renesas/e2studio_2021_01_workspace_RZA2M_ANPR/ANPR_RZA2M_RDK/src/tensorflow_lite/src/tensorflow/lite/kernels/internal/reference\pooling.h ****                ++filter_y) {
 222:C:/Renesas/e2studio_2021_01_workspace_RZA2M_ANPR/ANPR_RZA2M_RDK/src/tensorflow_lite/src/tensorflow/lite/kernels/internal/reference\pooling.h ****             for (int filter_x = filter_x_start; filter_x < filter_x_end;
 223:C:/Renesas/e2studio_2021_01_workspace_RZA2M_ANPR/ANPR_RZA2M_RDK/src/tensorflow_lite/src/tensorflow/lite/kernels/internal/reference\pooling.h ****                  ++filter_x) {
 224:C:/Renesas/e2studio_2021_01_workspace_RZA2M_ANPR/ANPR_RZA2M_RDK/src/tensorflow_lite/src/tensorflow/lite/kernels/internal/reference\pooling.h ****               const int in_x = in_x_origin + filter_x;
 973              		.loc 5 224 0
 974 0278 0000A0E3 		mov	r0, #0
 975 027c 68109DE5 		ldr	r1, [sp, #104]
 976 0280 4C209DE5 		ldr	r2, [sp, #76]
 977 0284 010053E1 		cmp	r3, r1
 978 0288 0370A0B1 		movlt	r7, r3
 979 028c 0170A0A1 		movge	r7, r1
 980 0290 000052E3 		cmp	r2, #0
 981 0294 01C042E2 		sub	ip, r2, #1
 982 0298 086043B0 		sublt	r6, r3, r8
 983 029c 0060A0A3 		movge	r6, #0
 984 02a0 54309DE5 		ldr	r3, [sp, #84]
 985 02a4 025086E0 		add	r5, r6, r2
 986 02a8 07C08CE0 		add	ip, ip, r7
 987 02ac 28308DE5 		str	r3, [sp, #40]
 988 02b0 6C309DE5 		ldr	r3, [sp, #108]
 989 02b4 053083E0 		add	r3, r3, r5
 990 02b8 3C308DE5 		str	r3, [sp, #60]
 991              	.LVL101:
 992              	.L103:
 993              	.LBE712:
 994              	.LBE711:
 220:C:/Renesas/e2studio_2021_01_workspace_RZA2M_ANPR/ANPR_RZA2M_RDK/src/tensorflow_lite/src/tensorflow/lite/kernels/internal/reference\pooling.h ****                ++filter_y) {
 995              		.loc 5 220 0
 996 02bc 24309DE5 		ldr	r3, [sp, #36]
 997 02c0 40209DE5 		ldr	r2, [sp, #64]
 998              	.LBE710:
 219:C:/Renesas/e2studio_2021_01_workspace_RZA2M_ANPR/ANPR_RZA2M_RDK/src/tensorflow_lite/src/tensorflow/lite/kernels/internal/reference\pooling.h ****           for (int filter_y = filter_y_start; filter_y < filter_y_end;
 999              		.loc 5 219 0
 1000 02c4 E87ADFED 		vldr.32	s15, .L354
 1001              	.LBB731:
 220:C:/Renesas/e2studio_2021_01_workspace_RZA2M_ANPR/ANPR_RZA2M_RDK/src/tensorflow_lite/src/tensorflow/lite/kernels/internal/reference\pooling.h ****                ++filter_y) {
 1002              		.loc 5 220 0
 1003 02c8 020053E1 		cmp	r3, r2
 1004              	.LBE731:
 219:C:/Renesas/e2studio_2021_01_workspace_RZA2M_ANPR/ANPR_RZA2M_RDK/src/tensorflow_lite/src/tensorflow/lite/kernels/internal/reference\pooling.h ****           for (int filter_y = filter_y_start; filter_y < filter_y_end;
 1005              		.loc 5 219 0
 1006 02cc 327ACDED 		vstr.32	s15, [sp, #200]
 1007              	.LVL102:
 1008              	.LBB732:
 220:C:/Renesas/e2studio_2021_01_workspace_RZA2M_ANPR/ANPR_RZA2M_RDK/src/tensorflow_lite/src/tensorflow/lite/kernels/internal/reference\pooling.h ****                ++filter_y) {
 1009              		.loc 5 220 0
 1010 02d0 300000AA 		bge	.L75
 1011 02d4 0320A0E1 		mov	r2, r3
 1012 02d8 2C309DE5 		ldr	r3, [sp, #44]
 1013              	.LVL103:
 1014 02dc E27ADFED 		vldr.32	s15, .L354
 1015 02e0 3C409DE5 		ldr	r4, [sp, #60]
 1016 02e4 02E083E0 		add	lr, r3, r2
 1017 02e8 0030A0E3 		mov	r3, #0
 1018              	.LVL104:
 1019              	.L73:
 1020              	.LBB727:
 222:C:/Renesas/e2studio_2021_01_workspace_RZA2M_ANPR/ANPR_RZA2M_RDK/src/tensorflow_lite/src/tensorflow/lite/kernels/internal/reference\pooling.h ****                  ++filter_x) {
 1021              		.loc 5 222 0
 1022 02ec 070056E1 		cmp	r6, r7
 1023 02f0 210000AA 		bge	.L95
 1024              	.LVL105:
 1025              	.LBB723:
 1026              	.LBB713:
 1027              	.LBB714:
 406:C:/Renesas/e2studio_2021_01_workspace_RZA2M_ANPR/ANPR_RZA2M_RDK/src/tensorflow_lite/src/tensorflow/lite/kernels/internal\types.h ****   TFLITE_DCHECK(i1 >= 0 && i1 < dims_data[1]);
 1028              		.loc 6 406 0
 1029 02f4 20209DE5 		ldr	r2, [sp, #32]
 1030 02f8 14109DE5 		ldr	r1, [sp, #20]
 1031 02fc 010052E1 		cmp	r2, r1
 1032 0300 FA0100DA 		ble	.L76
 407:C:/Renesas/e2studio_2021_01_workspace_RZA2M_ANPR/ANPR_RZA2M_RDK/src/tensorflow_lite/src/tensorflow/lite/kernels/internal\types.h ****   TFLITE_DCHECK(i2 >= 0 && i2 < dims_data[2]);
 1033              		.loc 6 407 0
 1034 0304 00005EE3 		cmp	lr, #0
 1035 0308 470200BA 		blt	.L77
 1036 030c 18209DE5 		ldr	r2, [sp, #24]
 1037 0310 0E0052E1 		cmp	r2, lr
 1038 0314 440200DA 		ble	.L77
 408:C:/Renesas/e2studio_2021_01_workspace_RZA2M_ANPR/ANPR_RZA2M_RDK/src/tensorflow_lite/src/tensorflow/lite/kernels/internal\types.h ****   TFLITE_DCHECK(i3 >= 0 && i3 < dims_data[3]);
 1039              		.loc 6 408 0
 1040 0318 000055E3 		cmp	r5, #0
 1041 031c 0A0200BA 		blt	.L300
 1042 0320 050058E1 		cmp	r8, r5
 1043 0324 080200DA 		ble	.L300
 409:C:/Renesas/e2studio_2021_01_workspace_RZA2M_ANPR/ANPR_RZA2M_RDK/src/tensorflow_lite/src/tensorflow/lite/kernels/internal\types.h ****   return ((i0 * dims_data[1] + i1) * dims_data[2] + i2) * dims_data[3] + i3;
 1044              		.loc 6 409 0
 1045 0328 0A0050E1 		cmp	r0, r10
 1046 032c EC0100AA 		bge	.L331
 1047 0330 0520A0E1 		mov	r2, r5
 1048 0334 0410A0E1 		mov	r1, r4
 1049 0338 0930A0E1 		mov	r3, r9
 1050 033c 050000EA 		b	.L91
 1051              	.LVL106:
 1052              	.L293:
 408:C:/Renesas/e2studio_2021_01_workspace_RZA2M_ANPR/ANPR_RZA2M_RDK/src/tensorflow_lite/src/tensorflow/lite/kernels/internal\types.h ****   TFLITE_DCHECK(i3 >= 0 && i3 < dims_data[3]);
 1053              		.loc 6 408 0
 1054 0340 012092E2 		adds	r2, r2, #1
 1055 0344 0202004A 		bmi	.L299
 1056 0348 080052E1 		cmp	r2, r8
 1057 034c 011081E2 		add	r1, r1, #1
 1058 0350 FF0100AA 		bge	.L299
 1059 0354 0A30A0E1 		mov	r3, r10
 1060              	.L91:
 1061              	.LVL107:
 1062              	.LBE714:
 1063              	.LBE713:
 225:C:/Renesas/e2studio_2021_01_workspace_RZA2M_ANPR/ANPR_RZA2M_RDK/src/tensorflow_lite/src/tensorflow/lite/kernels/internal/reference\pooling.h ****               const int in_y = in_y_origin + filter_y;
 226:C:/Renesas/e2studio_2021_01_workspace_RZA2M_ANPR/ANPR_RZA2M_RDK/src/tensorflow_lite/src/tensorflow/lite/kernels/internal/reference\pooling.h ****               max = std::max(
 227:C:/Renesas/e2studio_2021_01_workspace_RZA2M_ANPR/ANPR_RZA2M_RDK/src/tensorflow_lite/src/tensorflow/lite/kernels/internal/reference\pooling.h ****                   max,
 228:C:/Renesas/e2studio_2021_01_workspace_RZA2M_ANPR/ANPR_RZA2M_RDK/src/tensorflow_lite/src/tensorflow/lite/kernels/internal/reference\pooling.h ****                   input_data[Offset(input_shape, batch, in_y, in_x, channel)]);
 1064              		.loc 5 228 0
 1065 0358 930123E0 		mla	r3, r3, r1, r0
 1066              	.LVL108:
 1067              	.LBB718:
 1068              	.LBB719:
 1069              		.file 7 "c:\\program files (x86)\\gnu tools arm embedded\\6 2017-q2-update\\arm-none-eabi\\include
   1:c:\program files (x86)\gnu tools arm embedded\6 2017-q2-update\arm-none-eabi\include\c++\6.3.1\bits\stl_algobase.h **** // Core algorithmic facilities -*- C++ -*-
   2:c:\program files (x86)\gnu tools arm embedded\6 2017-q2-update\arm-none-eabi\include\c++\6.3.1\bits\stl_algobase.h **** 
   3:c:\program files (x86)\gnu tools arm embedded\6 2017-q2-update\arm-none-eabi\include\c++\6.3.1\bits\stl_algobase.h **** // Copyright (C) 2001-2016 Free Software Foundation, Inc.
   4:c:\program files (x86)\gnu tools arm embedded\6 2017-q2-update\arm-none-eabi\include\c++\6.3.1\bits\stl_algobase.h **** //
   5:c:\program files (x86)\gnu tools arm embedded\6 2017-q2-update\arm-none-eabi\include\c++\6.3.1\bits\stl_algobase.h **** // This file is part of the GNU ISO C++ Library.  This library is free
   6:c:\program files (x86)\gnu tools arm embedded\6 2017-q2-update\arm-none-eabi\include\c++\6.3.1\bits\stl_algobase.h **** // software; you can redistribute it and/or modify it under the
   7:c:\program files (x86)\gnu tools arm embedded\6 2017-q2-update\arm-none-eabi\include\c++\6.3.1\bits\stl_algobase.h **** // terms of the GNU General Public License as published by the
   8:c:\program files (x86)\gnu tools arm embedded\6 2017-q2-update\arm-none-eabi\include\c++\6.3.1\bits\stl_algobase.h **** // Free Software Foundation; either version 3, or (at your option)
   9:c:\program files (x86)\gnu tools arm embedded\6 2017-q2-update\arm-none-eabi\include\c++\6.3.1\bits\stl_algobase.h **** // any later version.
  10:c:\program files (x86)\gnu tools arm embedded\6 2017-q2-update\arm-none-eabi\include\c++\6.3.1\bits\stl_algobase.h **** 
  11:c:\program files (x86)\gnu tools arm embedded\6 2017-q2-update\arm-none-eabi\include\c++\6.3.1\bits\stl_algobase.h **** // This library is distributed in the hope that it will be useful,
  12:c:\program files (x86)\gnu tools arm embedded\6 2017-q2-update\arm-none-eabi\include\c++\6.3.1\bits\stl_algobase.h **** // but WITHOUT ANY WARRANTY; without even the implied warranty of
  13:c:\program files (x86)\gnu tools arm embedded\6 2017-q2-update\arm-none-eabi\include\c++\6.3.1\bits\stl_algobase.h **** // MERCHANTABILITY or FITNESS FOR A PARTICULAR PURPOSE.  See the
  14:c:\program files (x86)\gnu tools arm embedded\6 2017-q2-update\arm-none-eabi\include\c++\6.3.1\bits\stl_algobase.h **** // GNU General Public License for more details.
  15:c:\program files (x86)\gnu tools arm embedded\6 2017-q2-update\arm-none-eabi\include\c++\6.3.1\bits\stl_algobase.h **** 
  16:c:\program files (x86)\gnu tools arm embedded\6 2017-q2-update\arm-none-eabi\include\c++\6.3.1\bits\stl_algobase.h **** // Under Section 7 of GPL version 3, you are granted additional
  17:c:\program files (x86)\gnu tools arm embedded\6 2017-q2-update\arm-none-eabi\include\c++\6.3.1\bits\stl_algobase.h **** // permissions described in the GCC Runtime Library Exception, version
  18:c:\program files (x86)\gnu tools arm embedded\6 2017-q2-update\arm-none-eabi\include\c++\6.3.1\bits\stl_algobase.h **** // 3.1, as published by the Free Software Foundation.
  19:c:\program files (x86)\gnu tools arm embedded\6 2017-q2-update\arm-none-eabi\include\c++\6.3.1\bits\stl_algobase.h **** 
  20:c:\program files (x86)\gnu tools arm embedded\6 2017-q2-update\arm-none-eabi\include\c++\6.3.1\bits\stl_algobase.h **** // You should have received a copy of the GNU General Public License and
  21:c:\program files (x86)\gnu tools arm embedded\6 2017-q2-update\arm-none-eabi\include\c++\6.3.1\bits\stl_algobase.h **** // a copy of the GCC Runtime Library Exception along with this program;
  22:c:\program files (x86)\gnu tools arm embedded\6 2017-q2-update\arm-none-eabi\include\c++\6.3.1\bits\stl_algobase.h **** // see the files COPYING3 and COPYING.RUNTIME respectively.  If not, see
  23:c:\program files (x86)\gnu tools arm embedded\6 2017-q2-update\arm-none-eabi\include\c++\6.3.1\bits\stl_algobase.h **** // <http://www.gnu.org/licenses/>.
  24:c:\program files (x86)\gnu tools arm embedded\6 2017-q2-update\arm-none-eabi\include\c++\6.3.1\bits\stl_algobase.h **** 
  25:c:\program files (x86)\gnu tools arm embedded\6 2017-q2-update\arm-none-eabi\include\c++\6.3.1\bits\stl_algobase.h **** /*
  26:c:\program files (x86)\gnu tools arm embedded\6 2017-q2-update\arm-none-eabi\include\c++\6.3.1\bits\stl_algobase.h ****  *
  27:c:\program files (x86)\gnu tools arm embedded\6 2017-q2-update\arm-none-eabi\include\c++\6.3.1\bits\stl_algobase.h ****  * Copyright (c) 1994
  28:c:\program files (x86)\gnu tools arm embedded\6 2017-q2-update\arm-none-eabi\include\c++\6.3.1\bits\stl_algobase.h ****  * Hewlett-Packard Company
  29:c:\program files (x86)\gnu tools arm embedded\6 2017-q2-update\arm-none-eabi\include\c++\6.3.1\bits\stl_algobase.h ****  *
  30:c:\program files (x86)\gnu tools arm embedded\6 2017-q2-update\arm-none-eabi\include\c++\6.3.1\bits\stl_algobase.h ****  * Permission to use, copy, modify, distribute and sell this software
  31:c:\program files (x86)\gnu tools arm embedded\6 2017-q2-update\arm-none-eabi\include\c++\6.3.1\bits\stl_algobase.h ****  * and its documentation for any purpose is hereby granted without fee,
  32:c:\program files (x86)\gnu tools arm embedded\6 2017-q2-update\arm-none-eabi\include\c++\6.3.1\bits\stl_algobase.h ****  * provided that the above copyright notice appear in all copies and
  33:c:\program files (x86)\gnu tools arm embedded\6 2017-q2-update\arm-none-eabi\include\c++\6.3.1\bits\stl_algobase.h ****  * that both that copyright notice and this permission notice appear
  34:c:\program files (x86)\gnu tools arm embedded\6 2017-q2-update\arm-none-eabi\include\c++\6.3.1\bits\stl_algobase.h ****  * in supporting documentation.  Hewlett-Packard Company makes no
  35:c:\program files (x86)\gnu tools arm embedded\6 2017-q2-update\arm-none-eabi\include\c++\6.3.1\bits\stl_algobase.h ****  * representations about the suitability of this software for any
  36:c:\program files (x86)\gnu tools arm embedded\6 2017-q2-update\arm-none-eabi\include\c++\6.3.1\bits\stl_algobase.h ****  * purpose.  It is provided "as is" without express or implied warranty.
  37:c:\program files (x86)\gnu tools arm embedded\6 2017-q2-update\arm-none-eabi\include\c++\6.3.1\bits\stl_algobase.h ****  *
  38:c:\program files (x86)\gnu tools arm embedded\6 2017-q2-update\arm-none-eabi\include\c++\6.3.1\bits\stl_algobase.h ****  *
  39:c:\program files (x86)\gnu tools arm embedded\6 2017-q2-update\arm-none-eabi\include\c++\6.3.1\bits\stl_algobase.h ****  * Copyright (c) 1996-1998
  40:c:\program files (x86)\gnu tools arm embedded\6 2017-q2-update\arm-none-eabi\include\c++\6.3.1\bits\stl_algobase.h ****  * Silicon Graphics Computer Systems, Inc.
  41:c:\program files (x86)\gnu tools arm embedded\6 2017-q2-update\arm-none-eabi\include\c++\6.3.1\bits\stl_algobase.h ****  *
  42:c:\program files (x86)\gnu tools arm embedded\6 2017-q2-update\arm-none-eabi\include\c++\6.3.1\bits\stl_algobase.h ****  * Permission to use, copy, modify, distribute and sell this software
  43:c:\program files (x86)\gnu tools arm embedded\6 2017-q2-update\arm-none-eabi\include\c++\6.3.1\bits\stl_algobase.h ****  * and its documentation for any purpose is hereby granted without fee,
  44:c:\program files (x86)\gnu tools arm embedded\6 2017-q2-update\arm-none-eabi\include\c++\6.3.1\bits\stl_algobase.h ****  * provided that the above copyright notice appear in all copies and
  45:c:\program files (x86)\gnu tools arm embedded\6 2017-q2-update\arm-none-eabi\include\c++\6.3.1\bits\stl_algobase.h ****  * that both that copyright notice and this permission notice appear
  46:c:\program files (x86)\gnu tools arm embedded\6 2017-q2-update\arm-none-eabi\include\c++\6.3.1\bits\stl_algobase.h ****  * in supporting documentation.  Silicon Graphics makes no
  47:c:\program files (x86)\gnu tools arm embedded\6 2017-q2-update\arm-none-eabi\include\c++\6.3.1\bits\stl_algobase.h ****  * representations about the suitability of this software for any
  48:c:\program files (x86)\gnu tools arm embedded\6 2017-q2-update\arm-none-eabi\include\c++\6.3.1\bits\stl_algobase.h ****  * purpose.  It is provided "as is" without express or implied warranty.
  49:c:\program files (x86)\gnu tools arm embedded\6 2017-q2-update\arm-none-eabi\include\c++\6.3.1\bits\stl_algobase.h ****  */
  50:c:\program files (x86)\gnu tools arm embedded\6 2017-q2-update\arm-none-eabi\include\c++\6.3.1\bits\stl_algobase.h **** 
  51:c:\program files (x86)\gnu tools arm embedded\6 2017-q2-update\arm-none-eabi\include\c++\6.3.1\bits\stl_algobase.h **** /** @file bits/stl_algobase.h
  52:c:\program files (x86)\gnu tools arm embedded\6 2017-q2-update\arm-none-eabi\include\c++\6.3.1\bits\stl_algobase.h ****  *  This is an internal header file, included by other library headers.
  53:c:\program files (x86)\gnu tools arm embedded\6 2017-q2-update\arm-none-eabi\include\c++\6.3.1\bits\stl_algobase.h ****  *  Do not attempt to use it directly. @headername{algorithm}
  54:c:\program files (x86)\gnu tools arm embedded\6 2017-q2-update\arm-none-eabi\include\c++\6.3.1\bits\stl_algobase.h ****  */
  55:c:\program files (x86)\gnu tools arm embedded\6 2017-q2-update\arm-none-eabi\include\c++\6.3.1\bits\stl_algobase.h **** 
  56:c:\program files (x86)\gnu tools arm embedded\6 2017-q2-update\arm-none-eabi\include\c++\6.3.1\bits\stl_algobase.h **** #ifndef _STL_ALGOBASE_H
  57:c:\program files (x86)\gnu tools arm embedded\6 2017-q2-update\arm-none-eabi\include\c++\6.3.1\bits\stl_algobase.h **** #define _STL_ALGOBASE_H 1
  58:c:\program files (x86)\gnu tools arm embedded\6 2017-q2-update\arm-none-eabi\include\c++\6.3.1\bits\stl_algobase.h **** 
  59:c:\program files (x86)\gnu tools arm embedded\6 2017-q2-update\arm-none-eabi\include\c++\6.3.1\bits\stl_algobase.h **** #include <bits/c++config.h>
  60:c:\program files (x86)\gnu tools arm embedded\6 2017-q2-update\arm-none-eabi\include\c++\6.3.1\bits\stl_algobase.h **** #include <bits/functexcept.h>
  61:c:\program files (x86)\gnu tools arm embedded\6 2017-q2-update\arm-none-eabi\include\c++\6.3.1\bits\stl_algobase.h **** #include <bits/cpp_type_traits.h>
  62:c:\program files (x86)\gnu tools arm embedded\6 2017-q2-update\arm-none-eabi\include\c++\6.3.1\bits\stl_algobase.h **** #include <ext/type_traits.h>
  63:c:\program files (x86)\gnu tools arm embedded\6 2017-q2-update\arm-none-eabi\include\c++\6.3.1\bits\stl_algobase.h **** #include <ext/numeric_traits.h>
  64:c:\program files (x86)\gnu tools arm embedded\6 2017-q2-update\arm-none-eabi\include\c++\6.3.1\bits\stl_algobase.h **** #include <bits/stl_pair.h>
  65:c:\program files (x86)\gnu tools arm embedded\6 2017-q2-update\arm-none-eabi\include\c++\6.3.1\bits\stl_algobase.h **** #include <bits/stl_iterator_base_types.h>
  66:c:\program files (x86)\gnu tools arm embedded\6 2017-q2-update\arm-none-eabi\include\c++\6.3.1\bits\stl_algobase.h **** #include <bits/stl_iterator_base_funcs.h>
  67:c:\program files (x86)\gnu tools arm embedded\6 2017-q2-update\arm-none-eabi\include\c++\6.3.1\bits\stl_algobase.h **** #include <bits/stl_iterator.h>
  68:c:\program files (x86)\gnu tools arm embedded\6 2017-q2-update\arm-none-eabi\include\c++\6.3.1\bits\stl_algobase.h **** #include <bits/concept_check.h>
  69:c:\program files (x86)\gnu tools arm embedded\6 2017-q2-update\arm-none-eabi\include\c++\6.3.1\bits\stl_algobase.h **** #include <debug/debug.h>
  70:c:\program files (x86)\gnu tools arm embedded\6 2017-q2-update\arm-none-eabi\include\c++\6.3.1\bits\stl_algobase.h **** #include <bits/move.h> // For std::swap and _GLIBCXX_MOVE
  71:c:\program files (x86)\gnu tools arm embedded\6 2017-q2-update\arm-none-eabi\include\c++\6.3.1\bits\stl_algobase.h **** #include <bits/predefined_ops.h>
  72:c:\program files (x86)\gnu tools arm embedded\6 2017-q2-update\arm-none-eabi\include\c++\6.3.1\bits\stl_algobase.h **** 
  73:c:\program files (x86)\gnu tools arm embedded\6 2017-q2-update\arm-none-eabi\include\c++\6.3.1\bits\stl_algobase.h **** namespace std _GLIBCXX_VISIBILITY(default)
  74:c:\program files (x86)\gnu tools arm embedded\6 2017-q2-update\arm-none-eabi\include\c++\6.3.1\bits\stl_algobase.h **** {
  75:c:\program files (x86)\gnu tools arm embedded\6 2017-q2-update\arm-none-eabi\include\c++\6.3.1\bits\stl_algobase.h **** _GLIBCXX_BEGIN_NAMESPACE_VERSION
  76:c:\program files (x86)\gnu tools arm embedded\6 2017-q2-update\arm-none-eabi\include\c++\6.3.1\bits\stl_algobase.h **** 
  77:c:\program files (x86)\gnu tools arm embedded\6 2017-q2-update\arm-none-eabi\include\c++\6.3.1\bits\stl_algobase.h **** #if __cplusplus < 201103L
  78:c:\program files (x86)\gnu tools arm embedded\6 2017-q2-update\arm-none-eabi\include\c++\6.3.1\bits\stl_algobase.h ****   // See http://gcc.gnu.org/ml/libstdc++/2004-08/msg00167.html: in a
  79:c:\program files (x86)\gnu tools arm embedded\6 2017-q2-update\arm-none-eabi\include\c++\6.3.1\bits\stl_algobase.h ****   // nutshell, we are partially implementing the resolution of DR 187,
  80:c:\program files (x86)\gnu tools arm embedded\6 2017-q2-update\arm-none-eabi\include\c++\6.3.1\bits\stl_algobase.h ****   // when it's safe, i.e., the value_types are equal.
  81:c:\program files (x86)\gnu tools arm embedded\6 2017-q2-update\arm-none-eabi\include\c++\6.3.1\bits\stl_algobase.h ****   template<bool _BoolType>
  82:c:\program files (x86)\gnu tools arm embedded\6 2017-q2-update\arm-none-eabi\include\c++\6.3.1\bits\stl_algobase.h ****     struct __iter_swap
  83:c:\program files (x86)\gnu tools arm embedded\6 2017-q2-update\arm-none-eabi\include\c++\6.3.1\bits\stl_algobase.h ****     {
  84:c:\program files (x86)\gnu tools arm embedded\6 2017-q2-update\arm-none-eabi\include\c++\6.3.1\bits\stl_algobase.h ****       template<typename _ForwardIterator1, typename _ForwardIterator2>
  85:c:\program files (x86)\gnu tools arm embedded\6 2017-q2-update\arm-none-eabi\include\c++\6.3.1\bits\stl_algobase.h ****         static void
  86:c:\program files (x86)\gnu tools arm embedded\6 2017-q2-update\arm-none-eabi\include\c++\6.3.1\bits\stl_algobase.h ****         iter_swap(_ForwardIterator1 __a, _ForwardIterator2 __b)
  87:c:\program files (x86)\gnu tools arm embedded\6 2017-q2-update\arm-none-eabi\include\c++\6.3.1\bits\stl_algobase.h ****         {
  88:c:\program files (x86)\gnu tools arm embedded\6 2017-q2-update\arm-none-eabi\include\c++\6.3.1\bits\stl_algobase.h ****           typedef typename iterator_traits<_ForwardIterator1>::value_type
  89:c:\program files (x86)\gnu tools arm embedded\6 2017-q2-update\arm-none-eabi\include\c++\6.3.1\bits\stl_algobase.h ****             _ValueType1;
  90:c:\program files (x86)\gnu tools arm embedded\6 2017-q2-update\arm-none-eabi\include\c++\6.3.1\bits\stl_algobase.h ****           _ValueType1 __tmp = _GLIBCXX_MOVE(*__a);
  91:c:\program files (x86)\gnu tools arm embedded\6 2017-q2-update\arm-none-eabi\include\c++\6.3.1\bits\stl_algobase.h ****           *__a = _GLIBCXX_MOVE(*__b);
  92:c:\program files (x86)\gnu tools arm embedded\6 2017-q2-update\arm-none-eabi\include\c++\6.3.1\bits\stl_algobase.h ****           *__b = _GLIBCXX_MOVE(__tmp);
  93:c:\program files (x86)\gnu tools arm embedded\6 2017-q2-update\arm-none-eabi\include\c++\6.3.1\bits\stl_algobase.h **** 	}
  94:c:\program files (x86)\gnu tools arm embedded\6 2017-q2-update\arm-none-eabi\include\c++\6.3.1\bits\stl_algobase.h ****     };
  95:c:\program files (x86)\gnu tools arm embedded\6 2017-q2-update\arm-none-eabi\include\c++\6.3.1\bits\stl_algobase.h **** 
  96:c:\program files (x86)\gnu tools arm embedded\6 2017-q2-update\arm-none-eabi\include\c++\6.3.1\bits\stl_algobase.h ****   template<>
  97:c:\program files (x86)\gnu tools arm embedded\6 2017-q2-update\arm-none-eabi\include\c++\6.3.1\bits\stl_algobase.h ****     struct __iter_swap<true>
  98:c:\program files (x86)\gnu tools arm embedded\6 2017-q2-update\arm-none-eabi\include\c++\6.3.1\bits\stl_algobase.h ****     {
  99:c:\program files (x86)\gnu tools arm embedded\6 2017-q2-update\arm-none-eabi\include\c++\6.3.1\bits\stl_algobase.h ****       template<typename _ForwardIterator1, typename _ForwardIterator2>
 100:c:\program files (x86)\gnu tools arm embedded\6 2017-q2-update\arm-none-eabi\include\c++\6.3.1\bits\stl_algobase.h ****         static void 
 101:c:\program files (x86)\gnu tools arm embedded\6 2017-q2-update\arm-none-eabi\include\c++\6.3.1\bits\stl_algobase.h ****         iter_swap(_ForwardIterator1 __a, _ForwardIterator2 __b)
 102:c:\program files (x86)\gnu tools arm embedded\6 2017-q2-update\arm-none-eabi\include\c++\6.3.1\bits\stl_algobase.h ****         {
 103:c:\program files (x86)\gnu tools arm embedded\6 2017-q2-update\arm-none-eabi\include\c++\6.3.1\bits\stl_algobase.h ****           swap(*__a, *__b);
 104:c:\program files (x86)\gnu tools arm embedded\6 2017-q2-update\arm-none-eabi\include\c++\6.3.1\bits\stl_algobase.h ****         }
 105:c:\program files (x86)\gnu tools arm embedded\6 2017-q2-update\arm-none-eabi\include\c++\6.3.1\bits\stl_algobase.h ****     };
 106:c:\program files (x86)\gnu tools arm embedded\6 2017-q2-update\arm-none-eabi\include\c++\6.3.1\bits\stl_algobase.h **** #endif
 107:c:\program files (x86)\gnu tools arm embedded\6 2017-q2-update\arm-none-eabi\include\c++\6.3.1\bits\stl_algobase.h **** 
 108:c:\program files (x86)\gnu tools arm embedded\6 2017-q2-update\arm-none-eabi\include\c++\6.3.1\bits\stl_algobase.h ****   /**
 109:c:\program files (x86)\gnu tools arm embedded\6 2017-q2-update\arm-none-eabi\include\c++\6.3.1\bits\stl_algobase.h ****    *  @brief Swaps the contents of two iterators.
 110:c:\program files (x86)\gnu tools arm embedded\6 2017-q2-update\arm-none-eabi\include\c++\6.3.1\bits\stl_algobase.h ****    *  @ingroup mutating_algorithms
 111:c:\program files (x86)\gnu tools arm embedded\6 2017-q2-update\arm-none-eabi\include\c++\6.3.1\bits\stl_algobase.h ****    *  @param  __a  An iterator.
 112:c:\program files (x86)\gnu tools arm embedded\6 2017-q2-update\arm-none-eabi\include\c++\6.3.1\bits\stl_algobase.h ****    *  @param  __b  Another iterator.
 113:c:\program files (x86)\gnu tools arm embedded\6 2017-q2-update\arm-none-eabi\include\c++\6.3.1\bits\stl_algobase.h ****    *  @return   Nothing.
 114:c:\program files (x86)\gnu tools arm embedded\6 2017-q2-update\arm-none-eabi\include\c++\6.3.1\bits\stl_algobase.h ****    *
 115:c:\program files (x86)\gnu tools arm embedded\6 2017-q2-update\arm-none-eabi\include\c++\6.3.1\bits\stl_algobase.h ****    *  This function swaps the values pointed to by two iterators, not the
 116:c:\program files (x86)\gnu tools arm embedded\6 2017-q2-update\arm-none-eabi\include\c++\6.3.1\bits\stl_algobase.h ****    *  iterators themselves.
 117:c:\program files (x86)\gnu tools arm embedded\6 2017-q2-update\arm-none-eabi\include\c++\6.3.1\bits\stl_algobase.h ****   */
 118:c:\program files (x86)\gnu tools arm embedded\6 2017-q2-update\arm-none-eabi\include\c++\6.3.1\bits\stl_algobase.h ****   template<typename _ForwardIterator1, typename _ForwardIterator2>
 119:c:\program files (x86)\gnu tools arm embedded\6 2017-q2-update\arm-none-eabi\include\c++\6.3.1\bits\stl_algobase.h ****     inline void
 120:c:\program files (x86)\gnu tools arm embedded\6 2017-q2-update\arm-none-eabi\include\c++\6.3.1\bits\stl_algobase.h ****     iter_swap(_ForwardIterator1 __a, _ForwardIterator2 __b)
 121:c:\program files (x86)\gnu tools arm embedded\6 2017-q2-update\arm-none-eabi\include\c++\6.3.1\bits\stl_algobase.h ****     {
 122:c:\program files (x86)\gnu tools arm embedded\6 2017-q2-update\arm-none-eabi\include\c++\6.3.1\bits\stl_algobase.h ****       // concept requirements
 123:c:\program files (x86)\gnu tools arm embedded\6 2017-q2-update\arm-none-eabi\include\c++\6.3.1\bits\stl_algobase.h ****       __glibcxx_function_requires(_Mutable_ForwardIteratorConcept<
 124:c:\program files (x86)\gnu tools arm embedded\6 2017-q2-update\arm-none-eabi\include\c++\6.3.1\bits\stl_algobase.h **** 				  _ForwardIterator1>)
 125:c:\program files (x86)\gnu tools arm embedded\6 2017-q2-update\arm-none-eabi\include\c++\6.3.1\bits\stl_algobase.h ****       __glibcxx_function_requires(_Mutable_ForwardIteratorConcept<
 126:c:\program files (x86)\gnu tools arm embedded\6 2017-q2-update\arm-none-eabi\include\c++\6.3.1\bits\stl_algobase.h **** 				  _ForwardIterator2>)
 127:c:\program files (x86)\gnu tools arm embedded\6 2017-q2-update\arm-none-eabi\include\c++\6.3.1\bits\stl_algobase.h **** 
 128:c:\program files (x86)\gnu tools arm embedded\6 2017-q2-update\arm-none-eabi\include\c++\6.3.1\bits\stl_algobase.h **** #if __cplusplus < 201103L
 129:c:\program files (x86)\gnu tools arm embedded\6 2017-q2-update\arm-none-eabi\include\c++\6.3.1\bits\stl_algobase.h ****       typedef typename iterator_traits<_ForwardIterator1>::value_type
 130:c:\program files (x86)\gnu tools arm embedded\6 2017-q2-update\arm-none-eabi\include\c++\6.3.1\bits\stl_algobase.h **** 	_ValueType1;
 131:c:\program files (x86)\gnu tools arm embedded\6 2017-q2-update\arm-none-eabi\include\c++\6.3.1\bits\stl_algobase.h ****       typedef typename iterator_traits<_ForwardIterator2>::value_type
 132:c:\program files (x86)\gnu tools arm embedded\6 2017-q2-update\arm-none-eabi\include\c++\6.3.1\bits\stl_algobase.h **** 	_ValueType2;
 133:c:\program files (x86)\gnu tools arm embedded\6 2017-q2-update\arm-none-eabi\include\c++\6.3.1\bits\stl_algobase.h **** 
 134:c:\program files (x86)\gnu tools arm embedded\6 2017-q2-update\arm-none-eabi\include\c++\6.3.1\bits\stl_algobase.h ****       __glibcxx_function_requires(_ConvertibleConcept<_ValueType1,
 135:c:\program files (x86)\gnu tools arm embedded\6 2017-q2-update\arm-none-eabi\include\c++\6.3.1\bits\stl_algobase.h **** 				  _ValueType2>)
 136:c:\program files (x86)\gnu tools arm embedded\6 2017-q2-update\arm-none-eabi\include\c++\6.3.1\bits\stl_algobase.h ****       __glibcxx_function_requires(_ConvertibleConcept<_ValueType2,
 137:c:\program files (x86)\gnu tools arm embedded\6 2017-q2-update\arm-none-eabi\include\c++\6.3.1\bits\stl_algobase.h **** 				  _ValueType1>)
 138:c:\program files (x86)\gnu tools arm embedded\6 2017-q2-update\arm-none-eabi\include\c++\6.3.1\bits\stl_algobase.h **** 
 139:c:\program files (x86)\gnu tools arm embedded\6 2017-q2-update\arm-none-eabi\include\c++\6.3.1\bits\stl_algobase.h ****       typedef typename iterator_traits<_ForwardIterator1>::reference
 140:c:\program files (x86)\gnu tools arm embedded\6 2017-q2-update\arm-none-eabi\include\c++\6.3.1\bits\stl_algobase.h **** 	_ReferenceType1;
 141:c:\program files (x86)\gnu tools arm embedded\6 2017-q2-update\arm-none-eabi\include\c++\6.3.1\bits\stl_algobase.h ****       typedef typename iterator_traits<_ForwardIterator2>::reference
 142:c:\program files (x86)\gnu tools arm embedded\6 2017-q2-update\arm-none-eabi\include\c++\6.3.1\bits\stl_algobase.h **** 	_ReferenceType2;
 143:c:\program files (x86)\gnu tools arm embedded\6 2017-q2-update\arm-none-eabi\include\c++\6.3.1\bits\stl_algobase.h ****       std::__iter_swap<__are_same<_ValueType1, _ValueType2>::__value
 144:c:\program files (x86)\gnu tools arm embedded\6 2017-q2-update\arm-none-eabi\include\c++\6.3.1\bits\stl_algobase.h **** 	&& __are_same<_ValueType1&, _ReferenceType1>::__value
 145:c:\program files (x86)\gnu tools arm embedded\6 2017-q2-update\arm-none-eabi\include\c++\6.3.1\bits\stl_algobase.h **** 	&& __are_same<_ValueType2&, _ReferenceType2>::__value>::
 146:c:\program files (x86)\gnu tools arm embedded\6 2017-q2-update\arm-none-eabi\include\c++\6.3.1\bits\stl_algobase.h **** 	iter_swap(__a, __b);
 147:c:\program files (x86)\gnu tools arm embedded\6 2017-q2-update\arm-none-eabi\include\c++\6.3.1\bits\stl_algobase.h **** #else
 148:c:\program files (x86)\gnu tools arm embedded\6 2017-q2-update\arm-none-eabi\include\c++\6.3.1\bits\stl_algobase.h ****       swap(*__a, *__b);
 149:c:\program files (x86)\gnu tools arm embedded\6 2017-q2-update\arm-none-eabi\include\c++\6.3.1\bits\stl_algobase.h **** #endif
 150:c:\program files (x86)\gnu tools arm embedded\6 2017-q2-update\arm-none-eabi\include\c++\6.3.1\bits\stl_algobase.h ****     }
 151:c:\program files (x86)\gnu tools arm embedded\6 2017-q2-update\arm-none-eabi\include\c++\6.3.1\bits\stl_algobase.h **** 
 152:c:\program files (x86)\gnu tools arm embedded\6 2017-q2-update\arm-none-eabi\include\c++\6.3.1\bits\stl_algobase.h ****   /**
 153:c:\program files (x86)\gnu tools arm embedded\6 2017-q2-update\arm-none-eabi\include\c++\6.3.1\bits\stl_algobase.h ****    *  @brief Swap the elements of two sequences.
 154:c:\program files (x86)\gnu tools arm embedded\6 2017-q2-update\arm-none-eabi\include\c++\6.3.1\bits\stl_algobase.h ****    *  @ingroup mutating_algorithms
 155:c:\program files (x86)\gnu tools arm embedded\6 2017-q2-update\arm-none-eabi\include\c++\6.3.1\bits\stl_algobase.h ****    *  @param  __first1  A forward iterator.
 156:c:\program files (x86)\gnu tools arm embedded\6 2017-q2-update\arm-none-eabi\include\c++\6.3.1\bits\stl_algobase.h ****    *  @param  __last1   A forward iterator.
 157:c:\program files (x86)\gnu tools arm embedded\6 2017-q2-update\arm-none-eabi\include\c++\6.3.1\bits\stl_algobase.h ****    *  @param  __first2  A forward iterator.
 158:c:\program files (x86)\gnu tools arm embedded\6 2017-q2-update\arm-none-eabi\include\c++\6.3.1\bits\stl_algobase.h ****    *  @return   An iterator equal to @p first2+(last1-first1).
 159:c:\program files (x86)\gnu tools arm embedded\6 2017-q2-update\arm-none-eabi\include\c++\6.3.1\bits\stl_algobase.h ****    *
 160:c:\program files (x86)\gnu tools arm embedded\6 2017-q2-update\arm-none-eabi\include\c++\6.3.1\bits\stl_algobase.h ****    *  Swaps each element in the range @p [first1,last1) with the
 161:c:\program files (x86)\gnu tools arm embedded\6 2017-q2-update\arm-none-eabi\include\c++\6.3.1\bits\stl_algobase.h ****    *  corresponding element in the range @p [first2,(last1-first1)).
 162:c:\program files (x86)\gnu tools arm embedded\6 2017-q2-update\arm-none-eabi\include\c++\6.3.1\bits\stl_algobase.h ****    *  The ranges must not overlap.
 163:c:\program files (x86)\gnu tools arm embedded\6 2017-q2-update\arm-none-eabi\include\c++\6.3.1\bits\stl_algobase.h ****   */
 164:c:\program files (x86)\gnu tools arm embedded\6 2017-q2-update\arm-none-eabi\include\c++\6.3.1\bits\stl_algobase.h ****   template<typename _ForwardIterator1, typename _ForwardIterator2>
 165:c:\program files (x86)\gnu tools arm embedded\6 2017-q2-update\arm-none-eabi\include\c++\6.3.1\bits\stl_algobase.h ****     _ForwardIterator2
 166:c:\program files (x86)\gnu tools arm embedded\6 2017-q2-update\arm-none-eabi\include\c++\6.3.1\bits\stl_algobase.h ****     swap_ranges(_ForwardIterator1 __first1, _ForwardIterator1 __last1,
 167:c:\program files (x86)\gnu tools arm embedded\6 2017-q2-update\arm-none-eabi\include\c++\6.3.1\bits\stl_algobase.h **** 		_ForwardIterator2 __first2)
 168:c:\program files (x86)\gnu tools arm embedded\6 2017-q2-update\arm-none-eabi\include\c++\6.3.1\bits\stl_algobase.h ****     {
 169:c:\program files (x86)\gnu tools arm embedded\6 2017-q2-update\arm-none-eabi\include\c++\6.3.1\bits\stl_algobase.h ****       // concept requirements
 170:c:\program files (x86)\gnu tools arm embedded\6 2017-q2-update\arm-none-eabi\include\c++\6.3.1\bits\stl_algobase.h ****       __glibcxx_function_requires(_Mutable_ForwardIteratorConcept<
 171:c:\program files (x86)\gnu tools arm embedded\6 2017-q2-update\arm-none-eabi\include\c++\6.3.1\bits\stl_algobase.h **** 				  _ForwardIterator1>)
 172:c:\program files (x86)\gnu tools arm embedded\6 2017-q2-update\arm-none-eabi\include\c++\6.3.1\bits\stl_algobase.h ****       __glibcxx_function_requires(_Mutable_ForwardIteratorConcept<
 173:c:\program files (x86)\gnu tools arm embedded\6 2017-q2-update\arm-none-eabi\include\c++\6.3.1\bits\stl_algobase.h **** 				  _ForwardIterator2>)
 174:c:\program files (x86)\gnu tools arm embedded\6 2017-q2-update\arm-none-eabi\include\c++\6.3.1\bits\stl_algobase.h ****       __glibcxx_requires_valid_range(__first1, __last1);
 175:c:\program files (x86)\gnu tools arm embedded\6 2017-q2-update\arm-none-eabi\include\c++\6.3.1\bits\stl_algobase.h **** 
 176:c:\program files (x86)\gnu tools arm embedded\6 2017-q2-update\arm-none-eabi\include\c++\6.3.1\bits\stl_algobase.h ****       for (; __first1 != __last1; ++__first1, (void)++__first2)
 177:c:\program files (x86)\gnu tools arm embedded\6 2017-q2-update\arm-none-eabi\include\c++\6.3.1\bits\stl_algobase.h **** 	std::iter_swap(__first1, __first2);
 178:c:\program files (x86)\gnu tools arm embedded\6 2017-q2-update\arm-none-eabi\include\c++\6.3.1\bits\stl_algobase.h ****       return __first2;
 179:c:\program files (x86)\gnu tools arm embedded\6 2017-q2-update\arm-none-eabi\include\c++\6.3.1\bits\stl_algobase.h ****     }
 180:c:\program files (x86)\gnu tools arm embedded\6 2017-q2-update\arm-none-eabi\include\c++\6.3.1\bits\stl_algobase.h **** 
 181:c:\program files (x86)\gnu tools arm embedded\6 2017-q2-update\arm-none-eabi\include\c++\6.3.1\bits\stl_algobase.h ****   /**
 182:c:\program files (x86)\gnu tools arm embedded\6 2017-q2-update\arm-none-eabi\include\c++\6.3.1\bits\stl_algobase.h ****    *  @brief This does what you think it does.
 183:c:\program files (x86)\gnu tools arm embedded\6 2017-q2-update\arm-none-eabi\include\c++\6.3.1\bits\stl_algobase.h ****    *  @ingroup sorting_algorithms
 184:c:\program files (x86)\gnu tools arm embedded\6 2017-q2-update\arm-none-eabi\include\c++\6.3.1\bits\stl_algobase.h ****    *  @param  __a  A thing of arbitrary type.
 185:c:\program files (x86)\gnu tools arm embedded\6 2017-q2-update\arm-none-eabi\include\c++\6.3.1\bits\stl_algobase.h ****    *  @param  __b  Another thing of arbitrary type.
 186:c:\program files (x86)\gnu tools arm embedded\6 2017-q2-update\arm-none-eabi\include\c++\6.3.1\bits\stl_algobase.h ****    *  @return   The lesser of the parameters.
 187:c:\program files (x86)\gnu tools arm embedded\6 2017-q2-update\arm-none-eabi\include\c++\6.3.1\bits\stl_algobase.h ****    *
 188:c:\program files (x86)\gnu tools arm embedded\6 2017-q2-update\arm-none-eabi\include\c++\6.3.1\bits\stl_algobase.h ****    *  This is the simple classic generic implementation.  It will work on
 189:c:\program files (x86)\gnu tools arm embedded\6 2017-q2-update\arm-none-eabi\include\c++\6.3.1\bits\stl_algobase.h ****    *  temporary expressions, since they are only evaluated once, unlike a
 190:c:\program files (x86)\gnu tools arm embedded\6 2017-q2-update\arm-none-eabi\include\c++\6.3.1\bits\stl_algobase.h ****    *  preprocessor macro.
 191:c:\program files (x86)\gnu tools arm embedded\6 2017-q2-update\arm-none-eabi\include\c++\6.3.1\bits\stl_algobase.h ****   */
 192:c:\program files (x86)\gnu tools arm embedded\6 2017-q2-update\arm-none-eabi\include\c++\6.3.1\bits\stl_algobase.h ****   template<typename _Tp>
 193:c:\program files (x86)\gnu tools arm embedded\6 2017-q2-update\arm-none-eabi\include\c++\6.3.1\bits\stl_algobase.h ****     _GLIBCXX14_CONSTEXPR
 194:c:\program files (x86)\gnu tools arm embedded\6 2017-q2-update\arm-none-eabi\include\c++\6.3.1\bits\stl_algobase.h ****     inline const _Tp&
 195:c:\program files (x86)\gnu tools arm embedded\6 2017-q2-update\arm-none-eabi\include\c++\6.3.1\bits\stl_algobase.h ****     min(const _Tp& __a, const _Tp& __b)
 196:c:\program files (x86)\gnu tools arm embedded\6 2017-q2-update\arm-none-eabi\include\c++\6.3.1\bits\stl_algobase.h ****     {
 197:c:\program files (x86)\gnu tools arm embedded\6 2017-q2-update\arm-none-eabi\include\c++\6.3.1\bits\stl_algobase.h ****       // concept requirements
 198:c:\program files (x86)\gnu tools arm embedded\6 2017-q2-update\arm-none-eabi\include\c++\6.3.1\bits\stl_algobase.h ****       __glibcxx_function_requires(_LessThanComparableConcept<_Tp>)
 199:c:\program files (x86)\gnu tools arm embedded\6 2017-q2-update\arm-none-eabi\include\c++\6.3.1\bits\stl_algobase.h ****       //return __b < __a ? __b : __a;
 200:c:\program files (x86)\gnu tools arm embedded\6 2017-q2-update\arm-none-eabi\include\c++\6.3.1\bits\stl_algobase.h ****       if (__b < __a)
 201:c:\program files (x86)\gnu tools arm embedded\6 2017-q2-update\arm-none-eabi\include\c++\6.3.1\bits\stl_algobase.h **** 	return __b;
 202:c:\program files (x86)\gnu tools arm embedded\6 2017-q2-update\arm-none-eabi\include\c++\6.3.1\bits\stl_algobase.h ****       return __a;
 203:c:\program files (x86)\gnu tools arm embedded\6 2017-q2-update\arm-none-eabi\include\c++\6.3.1\bits\stl_algobase.h ****     }
 204:c:\program files (x86)\gnu tools arm embedded\6 2017-q2-update\arm-none-eabi\include\c++\6.3.1\bits\stl_algobase.h **** 
 205:c:\program files (x86)\gnu tools arm embedded\6 2017-q2-update\arm-none-eabi\include\c++\6.3.1\bits\stl_algobase.h ****   /**
 206:c:\program files (x86)\gnu tools arm embedded\6 2017-q2-update\arm-none-eabi\include\c++\6.3.1\bits\stl_algobase.h ****    *  @brief This does what you think it does.
 207:c:\program files (x86)\gnu tools arm embedded\6 2017-q2-update\arm-none-eabi\include\c++\6.3.1\bits\stl_algobase.h ****    *  @ingroup sorting_algorithms
 208:c:\program files (x86)\gnu tools arm embedded\6 2017-q2-update\arm-none-eabi\include\c++\6.3.1\bits\stl_algobase.h ****    *  @param  __a  A thing of arbitrary type.
 209:c:\program files (x86)\gnu tools arm embedded\6 2017-q2-update\arm-none-eabi\include\c++\6.3.1\bits\stl_algobase.h ****    *  @param  __b  Another thing of arbitrary type.
 210:c:\program files (x86)\gnu tools arm embedded\6 2017-q2-update\arm-none-eabi\include\c++\6.3.1\bits\stl_algobase.h ****    *  @return   The greater of the parameters.
 211:c:\program files (x86)\gnu tools arm embedded\6 2017-q2-update\arm-none-eabi\include\c++\6.3.1\bits\stl_algobase.h ****    *
 212:c:\program files (x86)\gnu tools arm embedded\6 2017-q2-update\arm-none-eabi\include\c++\6.3.1\bits\stl_algobase.h ****    *  This is the simple classic generic implementation.  It will work on
 213:c:\program files (x86)\gnu tools arm embedded\6 2017-q2-update\arm-none-eabi\include\c++\6.3.1\bits\stl_algobase.h ****    *  temporary expressions, since they are only evaluated once, unlike a
 214:c:\program files (x86)\gnu tools arm embedded\6 2017-q2-update\arm-none-eabi\include\c++\6.3.1\bits\stl_algobase.h ****    *  preprocessor macro.
 215:c:\program files (x86)\gnu tools arm embedded\6 2017-q2-update\arm-none-eabi\include\c++\6.3.1\bits\stl_algobase.h ****   */
 216:c:\program files (x86)\gnu tools arm embedded\6 2017-q2-update\arm-none-eabi\include\c++\6.3.1\bits\stl_algobase.h ****   template<typename _Tp>
 217:c:\program files (x86)\gnu tools arm embedded\6 2017-q2-update\arm-none-eabi\include\c++\6.3.1\bits\stl_algobase.h ****     _GLIBCXX14_CONSTEXPR
 218:c:\program files (x86)\gnu tools arm embedded\6 2017-q2-update\arm-none-eabi\include\c++\6.3.1\bits\stl_algobase.h ****     inline const _Tp&
 219:c:\program files (x86)\gnu tools arm embedded\6 2017-q2-update\arm-none-eabi\include\c++\6.3.1\bits\stl_algobase.h ****     max(const _Tp& __a, const _Tp& __b)
 220:c:\program files (x86)\gnu tools arm embedded\6 2017-q2-update\arm-none-eabi\include\c++\6.3.1\bits\stl_algobase.h ****     {
 221:c:\program files (x86)\gnu tools arm embedded\6 2017-q2-update\arm-none-eabi\include\c++\6.3.1\bits\stl_algobase.h ****       // concept requirements
 222:c:\program files (x86)\gnu tools arm embedded\6 2017-q2-update\arm-none-eabi\include\c++\6.3.1\bits\stl_algobase.h ****       __glibcxx_function_requires(_LessThanComparableConcept<_Tp>)
 223:c:\program files (x86)\gnu tools arm embedded\6 2017-q2-update\arm-none-eabi\include\c++\6.3.1\bits\stl_algobase.h ****       //return  __a < __b ? __b : __a;
 224:c:\program files (x86)\gnu tools arm embedded\6 2017-q2-update\arm-none-eabi\include\c++\6.3.1\bits\stl_algobase.h ****       if (__a < __b)
 1070              		.loc 7 224 0
 1071 035c 03318BE0 		add	r3, fp, r3, lsl #2
 1072              	.LVL109:
 1073 0360 007A93ED 		vldr.32	s14, [r3]
 1074 0364 677AB4EE 		vcmp.f32	s14, s15
 1075 0368 10FAF1EE 		vmrs	APSR_nzcv, FPSCR
 1076 036c 477AF0CE 		vmovgt.f32	s15, s14
 1077              	.LVL110:
 1078              	.LBE719:
 1079              	.LBE718:
 1080              	.LBE723:
 222:C:/Renesas/e2studio_2021_01_workspace_RZA2M_ANPR/ANPR_RZA2M_RDK/src/tensorflow_lite/src/tensorflow/lite/kernels/internal/reference\pooling.h ****                  ++filter_x) {
 1081              		.loc 5 222 0
 1082 0370 02005CE1 		cmp	ip, r2
 1083 0374 F1FFFF1A 		bne	.L293
 1084 0378 0130A0E3 		mov	r3, #1
 1085              	.LVL111:
 1086              	.L95:
 1087              	.LBE727:
 220:C:/Renesas/e2studio_2021_01_workspace_RZA2M_ANPR/ANPR_RZA2M_RDK/src/tensorflow_lite/src/tensorflow/lite/kernels/internal/reference\pooling.h ****                ++filter_y) {
 1088              		.loc 5 220 0
 1089 037c 1C209DE5 		ldr	r2, [sp, #28]
 1090 0380 01E08EE2 		add	lr, lr, #1
 1091 0384 084084E0 		add	r4, r4, r8
 1092 0388 0E0052E1 		cmp	r2, lr
 1093 038c D6FFFF1A 		bne	.L73
 1094 0390 000053E3 		cmp	r3, #0
 1095 0394 327ACD1D 		vstrne.32	s15, [sp, #200]
 1096              	.L75:
 1097              	.LVL112:
 1098              	.LBE732:
 1099              	.LBB733:
 1100              	.LBB734:
 406:C:/Renesas/e2studio_2021_01_workspace_RZA2M_ANPR/ANPR_RZA2M_RDK/src/tensorflow_lite/src/tensorflow/lite/kernels/internal\types.h ****   TFLITE_DCHECK(i1 >= 0 && i1 < dims_data[1]);
 1101              		.loc 6 406 0
 1102 0398 38309DE5 		ldr	r3, [sp, #56]
 1103 039c 14209DE5 		ldr	r2, [sp, #20]
 1104 03a0 020053E1 		cmp	r3, r2
 1105 03a4 020200DA 		ble	.L332
 1106              	.LVL113:
 407:C:/Renesas/e2studio_2021_01_workspace_RZA2M_ANPR/ANPR_RZA2M_RDK/src/tensorflow_lite/src/tensorflow/lite/kernels/internal\types.h ****   TFLITE_DCHECK(i2 >= 0 && i2 < dims_data[2]);
 1107              		.loc 6 407 0
 1108 03a8 30309DE5 		ldr	r3, [sp, #48]
 1109 03ac 48209DE5 		ldr	r2, [sp, #72]
 1110 03b0 020053E1 		cmp	r3, r2
 1111 03b4 1F0200DA 		ble	.L333
 408:C:/Renesas/e2studio_2021_01_workspace_RZA2M_ANPR/ANPR_RZA2M_RDK/src/tensorflow_lite/src/tensorflow/lite/kernels/internal\types.h ****   TFLITE_DCHECK(i3 >= 0 && i3 < dims_data[3]);
 1112              		.loc 6 408 0
 1113 03b8 44309DE5 		ldr	r3, [sp, #68]
 1114 03bc 34209DE5 		ldr	r2, [sp, #52]
 1115 03c0 020053E1 		cmp	r3, r2
 1116 03c4 F00100AA 		bge	.L334
 409:C:/Renesas/e2studio_2021_01_workspace_RZA2M_ANPR/ANPR_RZA2M_RDK/src/tensorflow_lite/src/tensorflow/lite/kernels/internal\types.h ****   return ((i0 * dims_data[1] + i1) * dims_data[2] + i2) * dims_data[3] + i3;
 1117              		.loc 6 409 0
 1118 03c8 090050E1 		cmp	r0, r9
 1119 03cc 1202000A 		beq	.L335
 1120              	.LVL114:
 1121              	.LBE734:
 1122              	.LBE733:
 229:C:/Renesas/e2studio_2021_01_workspace_RZA2M_ANPR/ANPR_RZA2M_RDK/src/tensorflow_lite/src/tensorflow/lite/kernels/internal/reference\pooling.h ****             }
 230:C:/Renesas/e2studio_2021_01_workspace_RZA2M_ANPR/ANPR_RZA2M_RDK/src/tensorflow_lite/src/tensorflow/lite/kernels/internal/reference\pooling.h ****           }
 231:C:/Renesas/e2studio_2021_01_workspace_RZA2M_ANPR/ANPR_RZA2M_RDK/src/tensorflow_lite/src/tensorflow/lite/kernels/internal/reference\pooling.h ****           output_data[Offset(output_shape, batch, out_y, out_x, channel)] =
 232:C:/Renesas/e2studio_2021_01_workspace_RZA2M_ANPR/ANPR_RZA2M_RDK/src/tensorflow_lite/src/tensorflow/lite/kernels/internal/reference\pooling.h ****               ActivationFunctionWithMinMax(max, params.float_activation_min,
 1123              		.loc 5 232 0
 1124 03d0 327ADDED 		vldr.32	s15, [sp, #200]
 1125              	.LVL115:
 1126              	.LBE709:
 206:C:/Renesas/e2studio_2021_01_workspace_RZA2M_ANPR/ANPR_RZA2M_RDK/src/tensorflow_lite/src/tensorflow/lite/kernels/internal/reference\pooling.h ****           const int in_x_origin =
 1127              		.loc 5 206 0
 1128 03d4 010080E2 		add	r0, r0, #1
 1129              	.LVL116:
 1130              	.LBB751:
 231:C:/Renesas/e2studio_2021_01_workspace_RZA2M_ANPR/ANPR_RZA2M_RDK/src/tensorflow_lite/src/tensorflow/lite/kernels/internal/reference\pooling.h ****               ActivationFunctionWithMinMax(max, params.float_activation_min,
 1131              		.loc 5 231 0
 1132 03d8 28309DE5 		ldr	r3, [sp, #40]
 1133              	.LBB739:
 1134              	.LBB740:
 1135              	.LBB741:
 225:c:\program files (x86)\gnu tools arm embedded\6 2017-q2-update\arm-none-eabi\include\c++\6.3.1\bits\stl_algobase.h **** 	return __b;
 1136              		.loc 7 225 0
 1137 03dc 678AB4EE 		vcmp.f32	s16, s15
 1138 03e0 10FAF1EE 		vmrs	APSR_nzcv, FPSCR
 1139 03e4 487AF0CE 		vmovgt.f32	s15, s16
 1140              	.LVL117:
 1141              	.LBE741:
 1142              	.LBE740:
 1143              	.LBB742:
 1144              	.LBB743:
 201:c:\program files (x86)\gnu tools arm embedded\6 2017-q2-update\arm-none-eabi\include\c++\6.3.1\bits\stl_algobase.h ****       return __a;
 1145              		.loc 7 201 0
 1146 03e8 678AF4EE 		vcmp.f32	s17, s15
 1147 03ec 10FAF1EE 		vmrs	APSR_nzcv, FPSCR
 1148 03f0 687AF04E 		vmovmi.f32	s15, s17
 1149              	.LVL118:
 1150              	.LBE743:
 1151              	.LBE742:
 1152              	.LBE739:
 1153              	.LBE751:
 206:C:/Renesas/e2studio_2021_01_workspace_RZA2M_ANPR/ANPR_RZA2M_RDK/src/tensorflow_lite/src/tensorflow/lite/kernels/internal/reference\pooling.h ****           const int in_x_origin =
 1154              		.loc 5 206 0
 1155 03f4 090050E1 		cmp	r0, r9
 1156              	.LBB752:
 231:C:/Renesas/e2studio_2021_01_workspace_RZA2M_ANPR/ANPR_RZA2M_RDK/src/tensorflow_lite/src/tensorflow/lite/kernels/internal/reference\pooling.h ****               ActivationFunctionWithMinMax(max, params.float_activation_min,
 1157              		.loc 5 231 0
 1158 03f8 017AE3EC 		vstmia.32	r3!, {s15}
 1159 03fc 28308DE5 		str	r3, [sp, #40]
 1160              	.LBE752:
 206:C:/Renesas/e2studio_2021_01_workspace_RZA2M_ANPR/ANPR_RZA2M_RDK/src/tensorflow_lite/src/tensorflow/lite/kernels/internal/reference\pooling.h ****           const int in_x_origin =
 1161              		.loc 5 206 0
 1162 0400 ADFFFF1A 		bne	.L103
 1163              	.LVL119:
 1164              	.L102:
 1165 0404 54209DE5 		ldr	r2, [sp, #84]
 1166 0408 84109DE5 		ldr	r1, [sp, #132]
 1167              	.LBE708:
 205:C:/Renesas/e2studio_2021_01_workspace_RZA2M_ANPR/ANPR_RZA2M_RDK/src/tensorflow_lite/src/tensorflow/lite/kernels/internal/reference\pooling.h ****         for (int channel = 0; channel < depth; ++channel) {
 1168              		.loc 5 205 0
 1169 040c 44309DE5 		ldr	r3, [sp, #68]
 1170 0410 012082E0 		add	r2, r2, r1
 1171 0414 54208DE5 		str	r2, [sp, #84]
 1172 0418 013083E2 		add	r3, r3, #1
 1173 041c 34209DE5 		ldr	r2, [sp, #52]
 1174 0420 44308DE5 		str	r3, [sp, #68]
 1175              	.LVL120:
 1176 0424 020053E1 		cmp	r3, r2
 1177 0428 4C209DE5 		ldr	r2, [sp, #76]
 1178 042c 80309DE5 		ldr	r3, [sp, #128]
 1179              	.LVL121:
 1180 0430 032082E0 		add	r2, r2, r3
 1181 0434 4C208DE5 		str	r2, [sp, #76]
 1182 0438 50209DE5 		ldr	r2, [sp, #80]
 1183 043c 033042E0 		sub	r3, r2, r3
 1184 0440 50308DE5 		str	r3, [sp, #80]
 1185 0444 88FFFF1A 		bne	.L68
 1186              	.LVL122:
 1187              	.L67:
 1188 0448 5C209DE5 		ldr	r2, [sp, #92]
 1189 044c 8C109DE5 		ldr	r1, [sp, #140]
 1190              	.LBE707:
 204:C:/Renesas/e2studio_2021_01_workspace_RZA2M_ANPR/ANPR_RZA2M_RDK/src/tensorflow_lite/src/tensorflow/lite/kernels/internal/reference\pooling.h ****       for (int out_x = 0; out_x < output_width; ++out_x) {
 1191              		.loc 5 204 0
 1192 0450 48309DE5 		ldr	r3, [sp, #72]
 1193 0454 012082E0 		add	r2, r2, r1
 1194 0458 5C208DE5 		str	r2, [sp, #92]
 1195 045c 013083E2 		add	r3, r3, #1
 1196 0460 30209DE5 		ldr	r2, [sp, #48]
 1197 0464 48308DE5 		str	r3, [sp, #72]
 1198              	.LVL123:
 1199 0468 020053E1 		cmp	r3, r2
 1200 046c 2C209DE5 		ldr	r2, [sp, #44]
 1201 0470 7C309DE5 		ldr	r3, [sp, #124]
 1202              	.LVL124:
 1203 0474 032082E0 		add	r2, r2, r3
 1204 0478 2C208DE5 		str	r2, [sp, #44]
 1205 047c 60209DE5 		ldr	r2, [sp, #96]
 1206 0480 033042E0 		sub	r3, r2, r3
 1207 0484 60308DE5 		str	r3, [sp, #96]
 1208 0488 59FFFF1A 		bne	.L65
 1209              	.LVL125:
 1210              	.L64:
 1211 048c 58209DE5 		ldr	r2, [sp, #88]
 1212 0490 88109DE5 		ldr	r1, [sp, #136]
 1213              	.LBE706:
 203:C:/Renesas/e2studio_2021_01_workspace_RZA2M_ANPR/ANPR_RZA2M_RDK/src/tensorflow_lite/src/tensorflow/lite/kernels/internal/reference\pooling.h ****     for (int out_y = 0; out_y < output_height; ++out_y) {
 1214              		.loc 5 203 0
 1215 0494 14309DE5 		ldr	r3, [sp, #20]
 1216 0498 012082E0 		add	r2, r2, r1
 1217 049c 58208DE5 		str	r2, [sp, #88]
 1218 04a0 013083E2 		add	r3, r3, #1
 1219 04a4 38209DE5 		ldr	r2, [sp, #56]
 1220 04a8 14308DE5 		str	r3, [sp, #20]
 1221              	.LVL126:
 1222 04ac 020053E1 		cmp	r3, r2
 1223 04b0 64309DE5 		ldr	r3, [sp, #100]
 1224              	.LVL127:
 1225 04b4 18209DE5 		ldr	r2, [sp, #24]
 1226 04b8 023083E0 		add	r3, r3, r2
 1227 04bc 64308DE5 		str	r3, [sp, #100]
 1228 04c0 3EFFFF1A 		bne	.L62
 1229              	.LVL128:
 1230              	.L184:
 1231              	.LBE787:
 1232              	.LBE796:
 1233              	.LBE807:
 1234              	.LBE682:
 1235              	.LBE681:
 379:../src/tensorflow_lite/src/tensorflow/lite/micro/kernels/cmsis_nn/pooling.cpp **** }
 1236              		.loc 1 379 0
 1237 04c4 0000A0E3 		mov	r0, #0
 1238              	.L340:
 1239              		.loc 1 380 0
 1240 04c8 45DF8DE2 		add	sp, sp, #276
 1241              		.cfi_remember_state
 1242              		.cfi_def_cfa_offset 44
 1243              		@ sp needed
 1244 04cc 028BBDEC 		vldm	sp!, {d8}
 1245              		.cfi_restore 80
 1246              		.cfi_restore 81
 1247              		.cfi_def_cfa_offset 36
 1248 04d0 F08FBDE8 		pop	{r4, r5, r6, r7, r8, r9, r10, fp, pc}
 1249              	.LVL129:
 1250              	.L51:
 1251              		.cfi_restore_state
 1252              	.LBB824:
 1253              	.LBB825:
 217:../src/tensorflow_lite/src/tensorflow/lite/micro/kernels/cmsis_nn/pooling.cpp ****   RuntimeShape output_shape = tflite::micro::GetTensorShape(output);
 1254              		.loc 1 217 0
 1255 04d4 0610A0E1 		mov	r1, r6
 1256 04d8 C8008DE2 		add	r0, sp, #200
 1257              	.LEHB2:
 1258 04dc FEFFFFEB 		bl	_ZN6tflite5micro14GetTensorShapeEPK16TfLiteEvalTensor
 1259              	.LVL130:
 1260              	.LEHE2:
 218:../src/tensorflow_lite/src/tensorflow/lite/micro/kernels/cmsis_nn/pooling.cpp ****   const int depth = MatchingDim(input_shape, 3, output_shape, 3);
 1261              		.loc 1 218 0
 1262 04e0 0510A0E1 		mov	r1, r5
 1263 04e4 E0008DE2 		add	r0, sp, #224
 1264              	.LEHB3:
 1265 04e8 FEFFFFEB 		bl	_ZN6tflite5micro14GetTensorShapeEPK16TfLiteEvalTensor
 1266              	.LVL131:
 1267              	.LEHE3:
 1268              	.LBB826:
 1269              	.LBB827:
 1270              	.LBB828:
 1271              	.LBB829:
 215:C:/Renesas/e2studio_2021_01_workspace_RZA2M_ANPR/ANPR_RZA2M_RDK/src/tensorflow_lite/src/tensorflow/lite/kernels/internal\types.h ****     return size_ > kMaxSmallSize ? dims_pointer_[i] : dims_[i];
 1272              		.loc 6 215 0
 1273 04ec C8109DE5 		ldr	r1, [sp, #200]
 1274 04f0 030051E3 		cmp	r1, #3
 1275 04f4 CA0100DA 		ble	.L336
 216:C:/Renesas/e2studio_2021_01_workspace_RZA2M_ANPR/ANPR_RZA2M_RDK/src/tensorflow_lite/src/tensorflow/lite/kernels/internal\types.h ****   }
 1276              		.loc 6 216 0
 1277 04f8 050051E3 		cmp	r1, #5
 1278              	.LBE829:
 1279              	.LBE828:
 1280              	.LBB832:
 1281              	.LBB833:
 215:C:/Renesas/e2studio_2021_01_workspace_RZA2M_ANPR/ANPR_RZA2M_RDK/src/tensorflow_lite/src/tensorflow/lite/kernels/internal\types.h ****     return size_ > kMaxSmallSize ? dims_pointer_[i] : dims_[i];
 1282              		.loc 6 215 0
 1283 04fc E0209DE5 		ldr	r2, [sp, #224]
 1284              	.LBE833:
 1285              	.LBE832:
 1286              	.LBB836:
 1287              	.LBB830:
 216:C:/Renesas/e2studio_2021_01_workspace_RZA2M_ANPR/ANPR_RZA2M_RDK/src/tensorflow_lite/src/tensorflow/lite/kernels/internal\types.h ****   }
 1288              		.loc 6 216 0
 1289 0500 CC309DC5 		ldrgt	r3, [sp, #204]
 1290 0504 D8309DD5 		ldrle	r3, [sp, #216]
 1291              	.LVL132:
 1292 0508 0C3093C5 		ldrgt	r3, [r3, #12]
 1293              	.LBE830:
 1294              	.LBE836:
 1295              	.LBB837:
 1296              	.LBB834:
 215:C:/Renesas/e2studio_2021_01_workspace_RZA2M_ANPR/ANPR_RZA2M_RDK/src/tensorflow_lite/src/tensorflow/lite/kernels/internal\types.h ****     return size_ > kMaxSmallSize ? dims_pointer_[i] : dims_[i];
 1297              		.loc 6 215 0
 1298 050c 030052E3 		cmp	r2, #3
 1299 0510 C40100DA 		ble	.L337
 216:C:/Renesas/e2studio_2021_01_workspace_RZA2M_ANPR/ANPR_RZA2M_RDK/src/tensorflow_lite/src/tensorflow/lite/kernels/internal\types.h ****   }
 1300              		.loc 6 216 0
 1301 0514 050052E3 		cmp	r2, #5
 1302 0518 E4009DC5 		ldrgt	r0, [sp, #228]
 1303 051c F0009DD5 		ldrle	r0, [sp, #240]
 1304              	.LVL133:
 1305 0520 0C0090C5 		ldrgt	r0, [r0, #12]
 1306              	.LBE834:
 1307              	.LBE837:
 1308              		.loc 6 472 0
 1309 0524 000053E1 		cmp	r3, r0
 1310 0528 B501001A 		bne	.L338
 1311              	.LVL134:
 1312              	.LBE827:
 1313              	.LBE826:
 1314              	.LBB842:
 1315              	.LBB843:
 216:C:/Renesas/e2studio_2021_01_workspace_RZA2M_ANPR/ANPR_RZA2M_RDK/src/tensorflow_lite/src/tensorflow/lite/kernels/internal\types.h ****   }
 1316              		.loc 6 216 0
 1317 052c 050051E3 		cmp	r1, #5
 1318              	.LBE843:
 1319              	.LBE842:
 222:../src/tensorflow_lite/src/tensorflow/lite/micro/kernels/cmsis_nn/pooling.cpp ****   input_dims.h = input_shape.Dims(1);
 1320              		.loc 1 222 0
 1321 0530 0110A0E3 		mov	r1, #1
 1322 0534 98108DE5 		str	r1, [sp, #152]
 1323              	.LVL135:
 1324              	.LBB845:
 1325              	.LBB844:
 216:C:/Renesas/e2studio_2021_01_workspace_RZA2M_ANPR/ANPR_RZA2M_RDK/src/tensorflow_lite/src/tensorflow/lite/kernels/internal\types.h ****   }
 1326              		.loc 6 216 0
 1327 0538 CC109DC5 		ldrgt	r1, [sp, #204]
 1328              	.LBE844:
 1329              	.LBE845:
 1330              	.LBB846:
 1331              	.LBB847:
 1332 053c D4109DD5 		ldrle	r1, [sp, #212]
 1333              	.LBE847:
 1334              	.LBE846:
 223:../src/tensorflow_lite/src/tensorflow/lite/micro/kernels/cmsis_nn/pooling.cpp ****   input_dims.w = input_shape.Dims(2);
 1335              		.loc 1 223 0
 1336 0540 D0009DD5 		ldrle	r0, [sp, #208]
 1337              	.LBB849:
 1338              	.LBB848:
 216:C:/Renesas/e2studio_2021_01_workspace_RZA2M_ANPR/ANPR_RZA2M_RDK/src/tensorflow_lite/src/tensorflow/lite/kernels/internal\types.h ****   }
 1339              		.loc 6 216 0
 1340 0544 030091C9 		ldmibgt	r1, {r0, r1}
 1341              	.LVL136:
 1342              	.LBE848:
 1343              	.LBE849:
 1344              	.LBB850:
 1345              	.LBB851:
 1346 0548 050052E3 		cmp	r2, #5
 1347              	.LBE851:
 1348              	.LBE850:
 228:../src/tensorflow_lite/src/tensorflow/lite/micro/kernels/cmsis_nn/pooling.cpp ****   output_dims.h = output_shape.Dims(1);
 1349              		.loc 1 228 0
 1350 054c 0120A0E3 		mov	r2, #1
 235:../src/tensorflow_lite/src/tensorflow/lite/micro/kernels/cmsis_nn/pooling.cpp ****   pool_params.padding.h = data.padding.height;
 1351              		.loc 1 235 0
 1352 0550 04C094E5 		ldr	ip, [r4, #4]
 228:../src/tensorflow_lite/src/tensorflow/lite/micro/kernels/cmsis_nn/pooling.cpp ****   output_dims.h = output_shape.Dims(1);
 1353              		.loc 1 228 0
 1354 0554 A8208DE5 		str	r2, [sp, #168]
 1355              	.LBB853:
 1356              	.LBB852:
 216:C:/Renesas/e2studio_2021_01_workspace_RZA2M_ANPR/ANPR_RZA2M_RDK/src/tensorflow_lite/src/tensorflow/lite/kernels/internal\types.h ****   }
 1357              		.loc 6 216 0
 1358 0558 E4209DC5 		ldrgt	r2, [sp, #228]
 1359              	.LBE852:
 1360              	.LBE853:
 224:../src/tensorflow_lite/src/tensorflow/lite/micro/kernels/cmsis_nn/pooling.cpp ****   input_dims.c = depth;
 1361              		.loc 1 224 0
 1362 055c A0108DE5 		str	r1, [sp, #160]
 223:../src/tensorflow_lite/src/tensorflow/lite/micro/kernels/cmsis_nn/pooling.cpp ****   input_dims.w = input_shape.Dims(2);
 1363              		.loc 1 223 0
 1364 0560 9C008DE5 		str	r0, [sp, #156]
 1365              	.LVL137:
 242:../src/tensorflow_lite/src/tensorflow/lite/micro/kernels/cmsis_nn/pooling.cpp ****   filter_dims.h = params->filter_height;
 1366              		.loc 1 242 0
 1367 0564 0100A0E3 		mov	r0, #1
 229:../src/tensorflow_lite/src/tensorflow/lite/micro/kernels/cmsis_nn/pooling.cpp ****   output_dims.w = output_shape.Dims(2);
 1368              		.loc 1 229 0
 1369 0568 E8109DD5 		ldrle	r1, [sp, #232]
 225:../src/tensorflow_lite/src/tensorflow/lite/micro/kernels/cmsis_nn/pooling.cpp **** 
 1370              		.loc 1 225 0
 1371 056c A4308DE5 		str	r3, [sp, #164]
 1372              	.LBB854:
 1373              	.LBB855:
 216:C:/Renesas/e2studio_2021_01_workspace_RZA2M_ANPR/ANPR_RZA2M_RDK/src/tensorflow_lite/src/tensorflow/lite/kernels/internal\types.h ****   }
 1374              		.loc 6 216 0
 1375 0570 060092C9 		ldmibgt	r2, {r1, r2}
 1376              	.LVL138:
 1377              	.LBE855:
 1378              	.LBE854:
 231:../src/tensorflow_lite/src/tensorflow/lite/micro/kernels/cmsis_nn/pooling.cpp **** 
 1379              		.loc 1 231 0
 1380 0574 B4308DE5 		str	r3, [sp, #180]
 236:../src/tensorflow_lite/src/tensorflow/lite/micro/kernels/cmsis_nn/pooling.cpp ****   pool_params.padding.w = data.padding.width;
 1381              		.loc 1 236 0
 1382 0578 043097E5 		ldr	r3, [r7, #4]
 234:../src/tensorflow_lite/src/tensorflow/lite/micro/kernels/cmsis_nn/pooling.cpp ****   pool_params.stride.w = params->stride_width;
 1383              		.loc 1 234 0
 1384 057c 08E094E5 		ldr	lr, [r4, #8]
 1385              	.LBB857:
 1386              	.LBB856:
 216:C:/Renesas/e2studio_2021_01_workspace_RZA2M_ANPR/ANPR_RZA2M_RDK/src/tensorflow_lite/src/tensorflow/lite/kernels/internal\types.h ****   }
 1387              		.loc 6 216 0
 1388 0580 EC209DD5 		ldrle	r2, [sp, #236]
 1389              	.LBE856:
 1390              	.LBE857:
 229:../src/tensorflow_lite/src/tensorflow/lite/micro/kernels/cmsis_nn/pooling.cpp ****   output_dims.w = output_shape.Dims(2);
 1391              		.loc 1 229 0
 1392 0584 AC108DE5 		str	r1, [sp, #172]
 1393              	.LVL139:
 250:../src/tensorflow_lite/src/tensorflow/lite/micro/kernels/cmsis_nn/pooling.cpp ****     ctx.buf = context->GetScratchBuffer(context, data.buffer_idx);
 1394              		.loc 1 250 0
 1395 0588 101097E5 		ldr	r1, [r7, #16]
 235:../src/tensorflow_lite/src/tensorflow/lite/micro/kernels/cmsis_nn/pooling.cpp ****   pool_params.padding.h = data.padding.height;
 1396              		.loc 1 235 0
 1397 058c F8C08DE5 		str	ip, [sp, #248]
 236:../src/tensorflow_lite/src/tensorflow/lite/micro/kernels/cmsis_nn/pooling.cpp ****   pool_params.padding.w = data.padding.width;
 1398              		.loc 1 236 0
 1399 0590 04318DE5 		str	r3, [sp, #260]
 237:../src/tensorflow_lite/src/tensorflow/lite/micro/kernels/cmsis_nn/pooling.cpp ****   pool_params.activation.min = data.activation_min;
 1400              		.loc 1 237 0
 1401 0594 00C097E5 		ldr	ip, [r7]
 238:../src/tensorflow_lite/src/tensorflow/lite/micro/kernels/cmsis_nn/pooling.cpp ****   pool_params.activation.max = data.activation_max;
 1402              		.loc 1 238 0
 1403 0598 143097E5 		ldr	r3, [r7, #20]
 230:../src/tensorflow_lite/src/tensorflow/lite/micro/kernels/cmsis_nn/pooling.cpp ****   output_dims.c = depth;
 1404              		.loc 1 230 0
 1405 059c B0208DE5 		str	r2, [sp, #176]
 248:../src/tensorflow_lite/src/tensorflow/lite/micro/kernels/cmsis_nn/pooling.cpp ****   ctx.size = 0;
 1406              		.loc 1 248 0
 1407 05a0 0020A0E3 		mov	r2, #0
 234:../src/tensorflow_lite/src/tensorflow/lite/micro/kernels/cmsis_nn/pooling.cpp ****   pool_params.stride.w = params->stride_width;
 1408              		.loc 1 234 0
 1409 05a4 FCE08DE5 		str	lr, [sp, #252]
 250:../src/tensorflow_lite/src/tensorflow/lite/micro/kernels/cmsis_nn/pooling.cpp ****     ctx.buf = context->GetScratchBuffer(context, data.buffer_idx);
 1410              		.loc 1 250 0
 1411 05a8 020051E1 		cmp	r1, r2
 239:../src/tensorflow_lite/src/tensorflow/lite/micro/kernels/cmsis_nn/pooling.cpp **** 
 1412              		.loc 1 239 0
 1413 05ac 18E097E5 		ldr	lr, [r7, #24]
 237:../src/tensorflow_lite/src/tensorflow/lite/micro/kernels/cmsis_nn/pooling.cpp ****   pool_params.activation.min = data.activation_min;
 1414              		.loc 1 237 0
 1415 05b0 00C18DE5 		str	ip, [sp, #256]
 238:../src/tensorflow_lite/src/tensorflow/lite/micro/kernels/cmsis_nn/pooling.cpp ****   pool_params.activation.max = data.activation_max;
 1416              		.loc 1 238 0
 1417 05b4 08318DE5 		str	r3, [sp, #264]
 243:../src/tensorflow_lite/src/tensorflow/lite/micro/kernels/cmsis_nn/pooling.cpp ****   filter_dims.w = params->filter_width;
 1418              		.loc 1 243 0
 1419 05b8 10C094E5 		ldr	ip, [r4, #16]
 244:../src/tensorflow_lite/src/tensorflow/lite/micro/kernels/cmsis_nn/pooling.cpp ****   filter_dims.c = 1;
 1420              		.loc 1 244 0
 1421 05bc 0C3094E5 		ldr	r3, [r4, #12]
 239:../src/tensorflow_lite/src/tensorflow/lite/micro/kernels/cmsis_nn/pooling.cpp **** 
 1422              		.loc 1 239 0
 1423 05c0 0CE18DE5 		str	lr, [sp, #268]
 243:../src/tensorflow_lite/src/tensorflow/lite/micro/kernels/cmsis_nn/pooling.cpp ****   filter_dims.w = params->filter_width;
 1424              		.loc 1 243 0
 1425 05c4 BCC08DE5 		str	ip, [sp, #188]
 244:../src/tensorflow_lite/src/tensorflow/lite/micro/kernels/cmsis_nn/pooling.cpp ****   filter_dims.c = 1;
 1426              		.loc 1 244 0
 1427 05c8 C0308DE5 		str	r3, [sp, #192]
 242:../src/tensorflow_lite/src/tensorflow/lite/micro/kernels/cmsis_nn/pooling.cpp ****   filter_dims.h = params->filter_height;
 1428              		.loc 1 242 0
 1429 05cc B8008DE5 		str	r0, [sp, #184]
 245:../src/tensorflow_lite/src/tensorflow/lite/micro/kernels/cmsis_nn/pooling.cpp **** 
 1430              		.loc 1 245 0
 1431 05d0 C4008DE5 		str	r0, [sp, #196]
 248:../src/tensorflow_lite/src/tensorflow/lite/micro/kernels/cmsis_nn/pooling.cpp ****   ctx.size = 0;
 1432              		.loc 1 248 0
 1433 05d4 90208DE5 		str	r2, [sp, #144]
 249:../src/tensorflow_lite/src/tensorflow/lite/micro/kernels/cmsis_nn/pooling.cpp ****   if (data.buffer_idx > -1) {
 1434              		.loc 1 249 0
 1435 05d8 94208DE5 		str	r2, [sp, #148]
 250:../src/tensorflow_lite/src/tensorflow/lite/micro/kernels/cmsis_nn/pooling.cpp ****     ctx.buf = context->GetScratchBuffer(context, data.buffer_idx);
 1436              		.loc 1 250 0
 1437 05dc 030000BA 		blt	.L180
 251:../src/tensorflow_lite/src/tensorflow/lite/micro/kernels/cmsis_nn/pooling.cpp ****   }
 1438              		.loc 1 251 0
 1439 05e0 443098E5 		ldr	r3, [r8, #68]
 1440 05e4 0800A0E1 		mov	r0, r8
 1441              	.LEHB4:
 1442 05e8 33FF2FE1 		blx	r3
 1443              	.LVL140:
 1444 05ec 90008DE5 		str	r0, [sp, #144]
 1445              	.L180:
 1446              	.LVL141:
 1447              	.LBB858:
 1448              	.LBB859:
  56:C:/Renesas/e2studio_2021_01_workspace_RZA2M_ANPR/ANPR_RZA2M_RDK/src/tensorflow_lite/src/tensorflow/lite/micro/kernels\kernel_util.h **** }
 1449              		.loc 4 56 0
 1450 05f0 000055E3 		cmp	r5, #0
 1451              	.LBE859:
 1452              	.LBE858:
 254:../src/tensorflow_lite/src/tensorflow/lite/micro/kernels/cmsis_nn/pooling.cpp ****       arm_max_pool_s8(&ctx, &pool_params, &input_dims,
 1453              		.loc 1 254 0
 1454 05f4 A8208DE2 		add	r2, sp, #168
 1455              	.LBB861:
 1456              	.LBB860:
  56:C:/Renesas/e2studio_2021_01_workspace_RZA2M_ANPR/ANPR_RZA2M_RDK/src/tensorflow_lite/src/tensorflow/lite/micro/kernels\kernel_util.h **** }
 1457              		.loc 4 56 0
 1458 05f8 00109515 		ldrne	r1, [r5]
 1459 05fc 0510A001 		moveq	r1, r5
 1460              	.LBE860:
 1461              	.LBE861:
 254:../src/tensorflow_lite/src/tensorflow/lite/micro/kernels/cmsis_nn/pooling.cpp ****       arm_max_pool_s8(&ctx, &pool_params, &input_dims,
 1462              		.loc 1 254 0
 1463 0600 B8008DE2 		add	r0, sp, #184
 1464              	.LBB862:
 1465              	.LBB863:
 1466              		.loc 4 63 0
 1467 0604 003096E5 		ldr	r3, [r6]
 1468              	.LVL142:
 1469              	.LBE863:
 1470              	.LBE862:
 254:../src/tensorflow_lite/src/tensorflow/lite/micro/kernels/cmsis_nn/pooling.cpp ****       arm_max_pool_s8(&ctx, &pool_params, &input_dims,
 1471              		.loc 1 254 0
 1472 0608 04208DE5 		str	r2, [sp, #4]
 1473 060c 98208DE2 		add	r2, sp, #152
 1474 0610 08108DE5 		str	r1, [sp, #8]
 1475 0614 F8108DE2 		add	r1, sp, #248
 1476 0618 00008DE5 		str	r0, [sp]
 1477 061c 90008DE2 		add	r0, sp, #144
 1478 0620 FEFFFFEB 		bl	arm_max_pool_s8
 1479              	.LVL143:
 1480              	.LEHE4:
 259:../src/tensorflow_lite/src/tensorflow/lite/micro/kernels/cmsis_nn/pooling.cpp **** 
 1481              		.loc 1 259 0
 1482 0624 000050E3 		cmp	r0, #0
 1483 0628 7201001A 		bne	.L339
 1484              	.LVL144:
 1485              	.LBB864:
 1486              	.LBB865:
 203:C:/Renesas/e2studio_2021_01_workspace_RZA2M_ANPR/ANPR_RZA2M_RDK/src/tensorflow_lite/src/tensorflow/lite/kernels/internal\types.h **** #ifdef TF_LITE_STATIC_MEMORY
 1487              		.loc 6 203 0
 1488 062c E0309DE5 		ldr	r3, [sp, #224]
 1489 0630 050053E3 		cmp	r3, #5
 1490 0634 030000DA 		ble	.L183
 207:C:/Renesas/e2studio_2021_01_workspace_RZA2M_ANPR/ANPR_RZA2M_RDK/src/tensorflow_lite/src/tensorflow/lite/kernels/internal\types.h **** #endif  // TF_LITE_STATIC_MEMORY
 1491              		.loc 6 207 0
 1492 0638 E4009DE5 		ldr	r0, [sp, #228]
 1493 063c 000050E3 		cmp	r0, #0
 1494 0640 0000000A 		beq	.L183
 1495 0644 FEFFFFEB 		bl	_ZdaPv
 1496              	.LVL145:
 1497              	.L183:
 1498              	.LBE865:
 1499              	.LBE864:
 1500              	.LBB866:
 1501              	.LBB867:
 203:C:/Renesas/e2studio_2021_01_workspace_RZA2M_ANPR/ANPR_RZA2M_RDK/src/tensorflow_lite/src/tensorflow/lite/kernels/internal\types.h **** #ifdef TF_LITE_STATIC_MEMORY
 1502              		.loc 6 203 0
 1503 0648 C8309DE5 		ldr	r3, [sp, #200]
 1504 064c 050053E3 		cmp	r3, #5
 1505 0650 9BFFFFDA 		ble	.L184
 207:C:/Renesas/e2studio_2021_01_workspace_RZA2M_ANPR/ANPR_RZA2M_RDK/src/tensorflow_lite/src/tensorflow/lite/kernels/internal\types.h **** #endif  // TF_LITE_STATIC_MEMORY
 1506              		.loc 6 207 0
 1507 0654 CC009DE5 		ldr	r0, [sp, #204]
 1508 0658 000050E3 		cmp	r0, #0
 1509 065c 98FFFF0A 		beq	.L184
 1510              	.LVL146:
 1511              	.L307:
 1512 0660 FEFFFFEB 		bl	_ZdaPv
 1513              	.LVL147:
 1514              	.LBE867:
 1515              	.LBE866:
 1516              	.LBE825:
 1517              	.LBE824:
 379:../src/tensorflow_lite/src/tensorflow/lite/micro/kernels/cmsis_nn/pooling.cpp **** }
 1518              		.loc 1 379 0
 1519 0664 0000A0E3 		mov	r0, #0
 1520 0668 96FFFFEA 		b	.L340
 1521              	.L355:
 1522              		.align	2
 1523              	.L354:
 1524 066c FFFF7FFF 		.word	-8388609
 1525              	.LVL148:
 1526              	.L50:
 1527              	.LBB880:
 1528              	.LBB881:
 199:../src/tensorflow_lite/src/tensorflow/lite/micro/kernels/cmsis_nn/pooling.cpp ****   op_params.stride_width = params->stride_width;
 1529              		.loc 1 199 0
 1530 0670 083094E5 		ldr	r3, [r4, #8]
 207:../src/tensorflow_lite/src/tensorflow/lite/micro/kernels/cmsis_nn/pooling.cpp ****                          tflite::micro::GetTensorData<uint8_t>(input),
 1531              		.loc 1 207 0
 1532 0674 0610A0E1 		mov	r1, r6
 1533 0678 E0008DE2 		add	r0, sp, #224
 199:../src/tensorflow_lite/src/tensorflow/lite/micro/kernels/cmsis_nn/pooling.cpp ****   op_params.stride_width = params->stride_width;
 1534              		.loc 1 199 0
 1535 067c 88308DE5 		str	r3, [sp, #136]
 1536              	.LVL149:
 200:../src/tensorflow_lite/src/tensorflow/lite/micro/kernels/cmsis_nn/pooling.cpp ****   op_params.filter_height = params->filter_height;
 1537              		.loc 1 200 0
 1538 0680 043094E5 		ldr	r3, [r4, #4]
 1539              	.LVL150:
 1540 0684 8C308DE5 		str	r3, [sp, #140]
 1541              	.LVL151:
 201:../src/tensorflow_lite/src/tensorflow/lite/micro/kernels/cmsis_nn/pooling.cpp ****   op_params.filter_width = params->filter_width;
 1542              		.loc 1 201 0
 1543 0688 103094E5 		ldr	r3, [r4, #16]
 1544              	.LVL152:
 1545 068c 7C308DE5 		str	r3, [sp, #124]
 1546              	.LVL153:
 202:../src/tensorflow_lite/src/tensorflow/lite/micro/kernels/cmsis_nn/pooling.cpp ****   op_params.padding_values.height = data.padding.height;
 1547              		.loc 1 202 0
 1548 0690 0C3094E5 		ldr	r3, [r4, #12]
 1549              	.LVL154:
 205:../src/tensorflow_lite/src/tensorflow/lite/micro/kernels/cmsis_nn/pooling.cpp ****   op_params.quantized_activation_max = data.activation_max;
 1550              		.loc 1 205 0
 1551 0694 144097E5 		ldr	r4, [r7, #20]
 1552              	.LVL155:
 202:../src/tensorflow_lite/src/tensorflow/lite/micro/kernels/cmsis_nn/pooling.cpp ****   op_params.padding_values.height = data.padding.height;
 1553              		.loc 1 202 0
 1554 0698 6C308DE5 		str	r3, [sp, #108]
 1555              	.LVL156:
 203:../src/tensorflow_lite/src/tensorflow/lite/micro/kernels/cmsis_nn/pooling.cpp ****   op_params.padding_values.width = data.padding.width;
 1556              		.loc 1 203 0
 1557 069c F430D7E1 		ldrsh	r3, [r7, #4]
 1558              	.LVL157:
 1559 06a0 80308DE5 		str	r3, [sp, #128]
 1560              	.LVL158:
 204:../src/tensorflow_lite/src/tensorflow/lite/micro/kernels/cmsis_nn/pooling.cpp ****   op_params.quantized_activation_min = data.activation_min;
 1561              		.loc 1 204 0
 1562 06a4 F030D7E1 		ldrsh	r3, [r7]
 1563 06a8 84308DE5 		str	r3, [sp, #132]
 1564              	.LVL159:
 206:../src/tensorflow_lite/src/tensorflow/lite/micro/kernels/cmsis_nn/pooling.cpp ****   reference_ops::MaxPool(op_params, tflite::micro::GetTensorShape(input),
 1565              		.loc 1 206 0
 1566 06ac 183097E5 		ldr	r3, [r7, #24]
 1567 06b0 50308DE5 		str	r3, [sp, #80]
 1568              	.LEHB5:
 207:../src/tensorflow_lite/src/tensorflow/lite/micro/kernels/cmsis_nn/pooling.cpp ****                          tflite::micro::GetTensorData<uint8_t>(input),
 1569              		.loc 1 207 0
 1570 06b4 FEFFFFEB 		bl	_ZN6tflite5micro14GetTensorShapeEPK16TfLiteEvalTensor
 1571              	.LVL160:
 1572              	.LEHE5:
 1573              	.LBB882:
 1574              	.LBB883:
 1575              		.loc 4 63 0
 1576 06b8 003096E5 		ldr	r3, [r6]
 1577              	.LBE883:
 1578              	.LBE882:
 209:../src/tensorflow_lite/src/tensorflow/lite/micro/kernels/cmsis_nn/pooling.cpp ****                          tflite::micro::GetTensorData<uint8_t>(output));
 1579              		.loc 1 209 0
 1580 06bc 0510A0E1 		mov	r1, r5
 1581 06c0 F8008DE2 		add	r0, sp, #248
 1582              	.LBB885:
 1583              	.LBB884:
 1584              		.loc 4 63 0
 1585 06c4 48308DE5 		str	r3, [sp, #72]
 1586              	.LVL161:
 1587              	.LEHB6:
 1588              	.LBE884:
 1589              	.LBE885:
 209:../src/tensorflow_lite/src/tensorflow/lite/micro/kernels/cmsis_nn/pooling.cpp ****                          tflite::micro::GetTensorData<uint8_t>(output));
 1590              		.loc 1 209 0
 1591 06c8 FEFFFFEB 		bl	_ZN6tflite5micro14GetTensorShapeEPK16TfLiteEvalTensor
 1592              	.LVL162:
 1593              	.LEHE6:
 1594              	.LBB886:
 1595              	.LBB887:
  56:C:/Renesas/e2studio_2021_01_workspace_RZA2M_ANPR/ANPR_RZA2M_RDK/src/tensorflow_lite/src/tensorflow/lite/micro/kernels\kernel_util.h **** }
 1596              		.loc 4 56 0
 1597 06cc 000055E3 		cmp	r5, #0
 1598 06d0 00309515 		ldrne	r3, [r5]
 1599 06d4 4C508D05 		streq	r5, [sp, #76]
 1600              	.LVL163:
 1601 06d8 4C308D15 		strne	r3, [sp, #76]
 1602              	.LVL164:
 1603              	.LBE887:
 1604              	.LBE886:
 1605              	.LBB888:
 1606              	.LBB889:
 233:C:/Renesas/e2studio_2021_01_workspace_RZA2M_ANPR/ANPR_RZA2M_RDK/src/tensorflow_lite/src/tensorflow/lite/kernels/internal/reference\pooling.h ****                                            params.float_activation_max);
 234:C:/Renesas/e2studio_2021_01_workspace_RZA2M_ANPR/ANPR_RZA2M_RDK/src/tensorflow_lite/src/tensorflow/lite/kernels/internal/reference\pooling.h ****         }
 235:C:/Renesas/e2studio_2021_01_workspace_RZA2M_ANPR/ANPR_RZA2M_RDK/src/tensorflow_lite/src/tensorflow/lite/kernels/internal/reference\pooling.h ****       }
 236:C:/Renesas/e2studio_2021_01_workspace_RZA2M_ANPR/ANPR_RZA2M_RDK/src/tensorflow_lite/src/tensorflow/lite/kernels/internal/reference\pooling.h ****     }
 237:C:/Renesas/e2studio_2021_01_workspace_RZA2M_ANPR/ANPR_RZA2M_RDK/src/tensorflow_lite/src/tensorflow/lite/kernels/internal/reference\pooling.h ****   }
 238:C:/Renesas/e2studio_2021_01_workspace_RZA2M_ANPR/ANPR_RZA2M_RDK/src/tensorflow_lite/src/tensorflow/lite/kernels/internal/reference\pooling.h **** }
 239:C:/Renesas/e2studio_2021_01_workspace_RZA2M_ANPR/ANPR_RZA2M_RDK/src/tensorflow_lite/src/tensorflow/lite/kernels/internal/reference\pooling.h **** 
 240:C:/Renesas/e2studio_2021_01_workspace_RZA2M_ANPR/ANPR_RZA2M_RDK/src/tensorflow_lite/src/tensorflow/lite/kernels/internal/reference\pooling.h **** inline void MaxPool(const PoolParams& params, const RuntimeShape& input_shape,
 241:C:/Renesas/e2studio_2021_01_workspace_RZA2M_ANPR/ANPR_RZA2M_RDK/src/tensorflow_lite/src/tensorflow/lite/kernels/internal/reference\pooling.h ****                     const uint8_t* input_data, const RuntimeShape& output_shape,
 242:C:/Renesas/e2studio_2021_01_workspace_RZA2M_ANPR/ANPR_RZA2M_RDK/src/tensorflow_lite/src/tensorflow/lite/kernels/internal/reference\pooling.h ****                     uint8_t* output_data) {
 243:C:/Renesas/e2studio_2021_01_workspace_RZA2M_ANPR/ANPR_RZA2M_RDK/src/tensorflow_lite/src/tensorflow/lite/kernels/internal/reference\pooling.h ****   TFLITE_DCHECK_LE(params.quantized_activation_min,
 244:C:/Renesas/e2studio_2021_01_workspace_RZA2M_ANPR/ANPR_RZA2M_RDK/src/tensorflow_lite/src/tensorflow/lite/kernels/internal/reference\pooling.h ****                    params.quantized_activation_max);
 1607              		.loc 5 244 0
 1608 06dc 50309DE5 		ldr	r3, [sp, #80]
 1609 06e0 030054E1 		cmp	r4, r3
 1610 06e4 490100CA 		bgt	.L341
 245:C:/Renesas/e2studio_2021_01_workspace_RZA2M_ANPR/ANPR_RZA2M_RDK/src/tensorflow_lite/src/tensorflow/lite/kernels/internal/reference\pooling.h ****   TFLITE_DCHECK_GE(params.quantized_activation_min, 0);
 1611              		.loc 5 245 0
 1612 06e8 000054E3 		cmp	r4, #0
 1613 06ec 480100BA 		blt	.L342
 246:C:/Renesas/e2studio_2021_01_workspace_RZA2M_ANPR/ANPR_RZA2M_RDK/src/tensorflow_lite/src/tensorflow/lite/kernels/internal/reference\pooling.h ****   TFLITE_DCHECK_LE(params.quantized_activation_max, 255);
 1614              		.loc 5 246 0
 1615 06f0 FF0053E3 		cmp	r3, #255
 1616 06f4 470100CA 		bgt	.L343
 1617              	.LVL165:
 247:C:/Renesas/e2studio_2021_01_workspace_RZA2M_ANPR/ANPR_RZA2M_RDK/src/tensorflow_lite/src/tensorflow/lite/kernels/internal/reference\pooling.h ****   TFLITE_DCHECK_EQ(input_shape.DimensionsCount(), 4);
 1618              		.loc 5 247 0
 1619 06f8 E0309DE5 		ldr	r3, [sp, #224]
 1620 06fc 040053E3 		cmp	r3, #4
 1621 0700 3D01001A 		bne	.L344
 1622              	.LVL166:
 248:C:/Renesas/e2studio_2021_01_workspace_RZA2M_ANPR/ANPR_RZA2M_RDK/src/tensorflow_lite/src/tensorflow/lite/kernels/internal/reference\pooling.h ****   TFLITE_DCHECK_EQ(output_shape.DimensionsCount(), 4);
 1623              		.loc 5 248 0
 1624 0704 F8309DE5 		ldr	r3, [sp, #248]
 1625 0708 040053E3 		cmp	r3, #4
 1626 070c 3B01001A 		bne	.L345
 1627              	.LVL167:
 1628              	.LBB890:
 1629              	.LBB891:
 1630              	.LBB892:
 1631              	.LBB893:
 216:C:/Renesas/e2studio_2021_01_workspace_RZA2M_ANPR/ANPR_RZA2M_RDK/src/tensorflow_lite/src/tensorflow/lite/kernels/internal\types.h ****   }
 1632              		.loc 6 216 0
 1633 0710 E4309DE5 		ldr	r3, [sp, #228]
 1634 0714 0320A0E1 		mov	r2, r3
 1635 0718 70308DE5 		str	r3, [sp, #112]
 1636              	.LVL168:
 1637              	.LBE893:
 1638              	.LBE892:
 1639              		.loc 6 472 0
 1640 071c FC309DE5 		ldr	r3, [sp, #252]
 1641 0720 030052E1 		cmp	r2, r3
 1642 0724 F500001A 		bne	.L346
 1643              	.LVL169:
 1644              	.LBE891:
 1645              	.LBE890:
 1646              	.LBB895:
 1647              	.LBB896:
 1648              	.LBB897:
 1649              	.LBB898:
 216:C:/Renesas/e2studio_2021_01_workspace_RZA2M_ANPR/ANPR_RZA2M_RDK/src/tensorflow_lite/src/tensorflow/lite/kernels/internal\types.h ****   }
 1650              		.loc 6 216 0
 1651 0728 F0309DE5 		ldr	r3, [sp, #240]
 1652 072c 0320A0E1 		mov	r2, r3
 1653 0730 38308DE5 		str	r3, [sp, #56]
 1654              	.LVL170:
 1655              	.LBE898:
 1656              	.LBE897:
 1657              		.loc 6 472 0
 1658 0734 08319DE5 		ldr	r3, [sp, #264]
 1659 0738 030052E1 		cmp	r2, r3
 1660 073c F000001A 		bne	.L347
 1661              	.LVL171:
 1662              	.LBE896:
 1663              	.LBE895:
 1664              	.LBB900:
 249:C:/Renesas/e2studio_2021_01_workspace_RZA2M_ANPR/ANPR_RZA2M_RDK/src/tensorflow_lite/src/tensorflow/lite/kernels/internal/reference\pooling.h ****   const int batches = MatchingDim(input_shape, 0, output_shape, 0);
 250:C:/Renesas/e2studio_2021_01_workspace_RZA2M_ANPR/ANPR_RZA2M_RDK/src/tensorflow_lite/src/tensorflow/lite/kernels/internal/reference\pooling.h ****   const int depth = MatchingDim(input_shape, 3, output_shape, 3);
 251:C:/Renesas/e2studio_2021_01_workspace_RZA2M_ANPR/ANPR_RZA2M_RDK/src/tensorflow_lite/src/tensorflow/lite/kernels/internal/reference\pooling.h ****   const int input_height = input_shape.Dims(1);
 252:C:/Renesas/e2studio_2021_01_workspace_RZA2M_ANPR/ANPR_RZA2M_RDK/src/tensorflow_lite/src/tensorflow/lite/kernels/internal/reference\pooling.h ****   const int input_width = input_shape.Dims(2);
 253:C:/Renesas/e2studio_2021_01_workspace_RZA2M_ANPR/ANPR_RZA2M_RDK/src/tensorflow_lite/src/tensorflow/lite/kernels/internal/reference\pooling.h ****   const int output_height = output_shape.Dims(1);
 254:C:/Renesas/e2studio_2021_01_workspace_RZA2M_ANPR/ANPR_RZA2M_RDK/src/tensorflow_lite/src/tensorflow/lite/kernels/internal/reference\pooling.h ****   const int output_width = output_shape.Dims(2);
 255:C:/Renesas/e2studio_2021_01_workspace_RZA2M_ANPR/ANPR_RZA2M_RDK/src/tensorflow_lite/src/tensorflow/lite/kernels/internal/reference\pooling.h ****   const int stride_height = params.stride_height;
 256:C:/Renesas/e2studio_2021_01_workspace_RZA2M_ANPR/ANPR_RZA2M_RDK/src/tensorflow_lite/src/tensorflow/lite/kernels/internal/reference\pooling.h ****   const int stride_width = params.stride_width;
 257:C:/Renesas/e2studio_2021_01_workspace_RZA2M_ANPR/ANPR_RZA2M_RDK/src/tensorflow_lite/src/tensorflow/lite/kernels/internal/reference\pooling.h ****   for (int batch = 0; batch < batches; ++batch) {
 1665              		.loc 5 257 0
 1666 0740 70309DE5 		ldr	r3, [sp, #112]
 1667 0744 000053E3 		cmp	r3, #0
 1668              	.LBE900:
 1669              	.LBB986:
 1670              	.LBB987:
 216:C:/Renesas/e2studio_2021_01_workspace_RZA2M_ANPR/ANPR_RZA2M_RDK/src/tensorflow_lite/src/tensorflow/lite/kernels/internal\types.h ****   }
 1671              		.loc 6 216 0
 1672 0748 E8309DE5 		ldr	r3, [sp, #232]
 1673 074c 64308DE5 		str	r3, [sp, #100]
 1674              	.LVL172:
 1675              	.LBE987:
 1676              	.LBE986:
 1677              	.LBB988:
 1678              	.LBB989:
 1679 0750 EC309DE5 		ldr	r3, [sp, #236]
 1680 0754 58308DE5 		str	r3, [sp, #88]
 1681              	.LVL173:
 1682              	.LBE989:
 1683              	.LBE988:
 1684              	.LBB990:
 1685              	.LBB991:
 1686 0758 00319DE5 		ldr	r3, [sp, #256]
 1687 075c 74308DE5 		str	r3, [sp, #116]
 1688              	.LVL174:
 1689              	.LBE991:
 1690              	.LBE990:
 1691              	.LBB992:
 1692              	.LBB993:
 1693 0760 04319DE5 		ldr	r3, [sp, #260]
 1694 0764 78308DE5 		str	r3, [sp, #120]
 1695              	.LVL175:
 1696              	.LBE993:
 1697              	.LBE992:
 1698              	.LBB994:
 1699              		.loc 5 257 0
 1700 0768 55FFFFDA 		ble	.L184
 1701 076c 00A0A0E3 		mov	r10, #0
 1702              	.LBB901:
 1703              	.LBB902:
 1704              	.LBB903:
 1705              	.LBB904:
 1706              	.LBB905:
 1707              	.LBB906:
 224:c:\program files (x86)\gnu tools arm embedded\6 2017-q2-update\arm-none-eabi\include\c++\6.3.1\bits\stl_algobase.h **** 	return __b;
 1708              		.loc 7 224 0
 1709 0770 7430EFE6 		uxtb	r3, r4
 1710              	.LBE906:
 1711              	.LBE905:
 1712              	.LBE904:
 1713              	.LBE903:
 1714              	.LBE902:
 1715              	.LBE901:
 1716              		.loc 5 257 0
 1717 0774 0AB0A0E1 		mov	fp, r10
 1718              	.LBB981:
 1719              	.LBB975:
 1720              	.LBB967:
 1721              	.LBB959:
 1722              	.LBB910:
 1723              	.LBB907:
 224:c:\program files (x86)\gnu tools arm embedded\6 2017-q2-update\arm-none-eabi\include\c++\6.3.1\bits\stl_algobase.h **** 	return __b;
 1724              		.loc 7 224 0
 1725 0778 3C308DE5 		str	r3, [sp, #60]
 1726              	.LVL176:
 1727              	.L119:
 1728              	.LBE907:
 1729              	.LBE910:
 1730              	.LBE959:
 1731              	.LBE967:
 1732              	.LBE975:
 258:C:/Renesas/e2studio_2021_01_workspace_RZA2M_ANPR/ANPR_RZA2M_RDK/src/tensorflow_lite/src/tensorflow/lite/kernels/internal/reference\pooling.h ****     for (int out_y = 0; out_y < output_height; ++out_y) {
 1733              		.loc 5 258 0
 1734 077c 74309DE5 		ldr	r3, [sp, #116]
 1735 0780 000053E3 		cmp	r3, #0
 1736 0784 BC0000DA 		ble	.L121
 1737 0788 0030A0E3 		mov	r3, #0
 1738 078c 30308DE5 		str	r3, [sp, #48]
 1739 0790 80309DE5 		ldr	r3, [sp, #128]
 1740 0794 002063E2 		rsb	r2, r3, #0
 1741 0798 34208DE5 		str	r2, [sp, #52]
 1742 079c 64209DE5 		ldr	r2, [sp, #100]
 1743 07a0 033082E0 		add	r3, r2, r3
 1744 07a4 68308DE5 		str	r3, [sp, #104]
 1745              	.LVL177:
 1746              	.L122:
 1747              	.LBB976:
 259:C:/Renesas/e2studio_2021_01_workspace_RZA2M_ANPR/ANPR_RZA2M_RDK/src/tensorflow_lite/src/tensorflow/lite/kernels/internal/reference\pooling.h ****       for (int out_x = 0; out_x < output_width; ++out_x) {
 1748              		.loc 5 259 0
 1749 07a8 78309DE5 		ldr	r3, [sp, #120]
 1750 07ac 000053E3 		cmp	r3, #0
 1751 07b0 A40000DA 		ble	.L124
 1752              	.LBB968:
 1753              	.LBB960:
 1754              	.LBB911:
 1755              	.LBB912:
 200:c:\program files (x86)\gnu tools arm embedded\6 2017-q2-update\arm-none-eabi\include\c++\6.3.1\bits\stl_algobase.h **** 	return __b;
 1756              		.loc 7 200 0
 1757 07b4 5010DDE5 		ldrb	r1, [sp, #80]	@ zero_extendqisi2
 1758              	.LBE912:
 1759              	.LBE911:
 1760              	.LBE960:
 1761              	.LBE968:
 1762              		.loc 5 259 0
 1763 07b8 0B90A0E1 		mov	r9, fp
 1764 07bc 7C209DE5 		ldr	r2, [sp, #124]
 1765 07c0 68309DE5 		ldr	r3, [sp, #104]
 1766              	.LBB969:
 1767              	.LBB961:
 1768              	.LBB914:
 1769              	.LBB913:
 200:c:\program files (x86)\gnu tools arm embedded\6 2017-q2-update\arm-none-eabi\include\c++\6.3.1\bits\stl_algobase.h **** 	return __b;
 1770              		.loc 7 200 0
 1771 07c4 54108DE5 		str	r1, [sp, #84]
 1772 07c8 34109DE5 		ldr	r1, [sp, #52]
 1773 07cc 020053E1 		cmp	r3, r2
 1774 07d0 0320A0B1 		movlt	r2, r3
 1775 07d4 44208DE5 		str	r2, [sp, #68]
 1776 07d8 012082E0 		add	r2, r2, r1
 1777 07dc 24208DE5 		str	r2, [sp, #36]
 1778 07e0 000051E3 		cmp	r1, #0
 1779 07e4 64209DE5 		ldr	r2, [sp, #100]
 1780 07e8 023043B0 		sublt	r3, r3, r2
 1781 07ec 0030A0A3 		movge	r3, #0
 1782 07f0 58209DE5 		ldr	r2, [sp, #88]
 1783 07f4 40308DE5 		str	r3, [sp, #64]
 1784 07f8 84309DE5 		ldr	r3, [sp, #132]
 1785 07fc 022083E0 		add	r2, r3, r2
 1786 0800 003063E2 		rsb	r3, r3, #0
 1787 0804 5C308DE5 		str	r3, [sp, #92]
 1788              	.LBE913:
 1789              	.LBE914:
 1790              	.LBE961:
 1791              	.LBE969:
 1792              		.loc 5 259 0
 1793 0808 0030A0E3 		mov	r3, #0
 1794 080c 60208DE5 		str	r2, [sp, #96]
 1795 0810 2C308DE5 		str	r3, [sp, #44]
 1796              	.LVL178:
 1797              	.L125:
 1798              	.LBB970:
 260:C:/Renesas/e2studio_2021_01_workspace_RZA2M_ANPR/ANPR_RZA2M_RDK/src/tensorflow_lite/src/tensorflow/lite/kernels/internal/reference\pooling.h ****         for (int channel = 0; channel < depth; ++channel) {
 1799              		.loc 5 260 0
 1800 0814 38309DE5 		ldr	r3, [sp, #56]
 1801 0818 000053E3 		cmp	r3, #0
 1802 081c 7B0000DA 		ble	.L159
 1803 0820 60109DE5 		ldr	r1, [sp, #96]
 1804              	.LBB962:
 1805              	.LBB915:
 1806              	.LBB916:
 1807              	.LBB917:
 261:C:/Renesas/e2studio_2021_01_workspace_RZA2M_ANPR/ANPR_RZA2M_RDK/src/tensorflow_lite/src/tensorflow/lite/kernels/internal/reference\pooling.h ****           const int in_x_origin =
 262:C:/Renesas/e2studio_2021_01_workspace_RZA2M_ANPR/ANPR_RZA2M_RDK/src/tensorflow_lite/src/tensorflow/lite/kernels/internal/reference\pooling.h ****               (out_x * stride_width) - params.padding_values.width;
 263:C:/Renesas/e2studio_2021_01_workspace_RZA2M_ANPR/ANPR_RZA2M_RDK/src/tensorflow_lite/src/tensorflow/lite/kernels/internal/reference\pooling.h ****           const int in_y_origin =
 264:C:/Renesas/e2studio_2021_01_workspace_RZA2M_ANPR/ANPR_RZA2M_RDK/src/tensorflow_lite/src/tensorflow/lite/kernels/internal/reference\pooling.h ****               (out_y * stride_height) - params.padding_values.height;
 265:C:/Renesas/e2studio_2021_01_workspace_RZA2M_ANPR/ANPR_RZA2M_RDK/src/tensorflow_lite/src/tensorflow/lite/kernels/internal/reference\pooling.h ****           // Compute the boundaries of the filter region clamped so as to
 266:C:/Renesas/e2studio_2021_01_workspace_RZA2M_ANPR/ANPR_RZA2M_RDK/src/tensorflow_lite/src/tensorflow/lite/kernels/internal/reference\pooling.h ****           // ensure that the filter window fits in the input array.
 267:C:/Renesas/e2studio_2021_01_workspace_RZA2M_ANPR/ANPR_RZA2M_RDK/src/tensorflow_lite/src/tensorflow/lite/kernels/internal/reference\pooling.h ****           const int filter_x_start = std::max(0, -in_x_origin);
 268:C:/Renesas/e2studio_2021_01_workspace_RZA2M_ANPR/ANPR_RZA2M_RDK/src/tensorflow_lite/src/tensorflow/lite/kernels/internal/reference\pooling.h ****           const int filter_x_end =
 269:C:/Renesas/e2studio_2021_01_workspace_RZA2M_ANPR/ANPR_RZA2M_RDK/src/tensorflow_lite/src/tensorflow/lite/kernels/internal/reference\pooling.h ****               std::min(params.filter_width, input_width - in_x_origin);
 270:C:/Renesas/e2studio_2021_01_workspace_RZA2M_ANPR/ANPR_RZA2M_RDK/src/tensorflow_lite/src/tensorflow/lite/kernels/internal/reference\pooling.h ****           const int filter_y_start = std::max(0, -in_y_origin);
 271:C:/Renesas/e2studio_2021_01_workspace_RZA2M_ANPR/ANPR_RZA2M_RDK/src/tensorflow_lite/src/tensorflow/lite/kernels/internal/reference\pooling.h ****           const int filter_y_end =
 272:C:/Renesas/e2studio_2021_01_workspace_RZA2M_ANPR/ANPR_RZA2M_RDK/src/tensorflow_lite/src/tensorflow/lite/kernels/internal/reference\pooling.h ****               std::min(params.filter_height, input_height - in_y_origin);
 273:C:/Renesas/e2studio_2021_01_workspace_RZA2M_ANPR/ANPR_RZA2M_RDK/src/tensorflow_lite/src/tensorflow/lite/kernels/internal/reference\pooling.h ****           uint8_t max = 0;
 274:C:/Renesas/e2studio_2021_01_workspace_RZA2M_ANPR/ANPR_RZA2M_RDK/src/tensorflow_lite/src/tensorflow/lite/kernels/internal/reference\pooling.h ****           for (int filter_y = filter_y_start; filter_y < filter_y_end;
 275:C:/Renesas/e2studio_2021_01_workspace_RZA2M_ANPR/ANPR_RZA2M_RDK/src/tensorflow_lite/src/tensorflow/lite/kernels/internal/reference\pooling.h ****                ++filter_y) {
 276:C:/Renesas/e2studio_2021_01_workspace_RZA2M_ANPR/ANPR_RZA2M_RDK/src/tensorflow_lite/src/tensorflow/lite/kernels/internal/reference\pooling.h ****             for (int filter_x = filter_x_start; filter_x < filter_x_end;
 277:C:/Renesas/e2studio_2021_01_workspace_RZA2M_ANPR/ANPR_RZA2M_RDK/src/tensorflow_lite/src/tensorflow/lite/kernels/internal/reference\pooling.h ****                  ++filter_x) {
 278:C:/Renesas/e2studio_2021_01_workspace_RZA2M_ANPR/ANPR_RZA2M_RDK/src/tensorflow_lite/src/tensorflow/lite/kernels/internal/reference\pooling.h ****               const int in_x = in_x_origin + filter_x;
 1808              		.loc 5 278 0
 1809 0824 0080A0E3 		mov	r8, #0
 1810 0828 6C209DE5 		ldr	r2, [sp, #108]
 1811 082c 0130A0E1 		mov	r3, r1
 1812 0830 020051E1 		cmp	r1, r2
 1813 0834 0230A0A1 		movge	r3, r2
 1814 0838 5C209DE5 		ldr	r2, [sp, #92]
 1815 083c 0300A0E1 		mov	r0, r3
 1816 0840 14308DE5 		str	r3, [sp, #20]
 1817 0844 0130A0E1 		mov	r3, r1
 1818 0848 58109DE5 		ldr	r1, [sp, #88]
 1819 084c 080052E1 		cmp	r2, r8
 1820 0850 02E080E0 		add	lr, r0, r2
 1821 0854 01B043B0 		sublt	fp, r3, r1
 1822 0858 00B0A0A3 		movge	fp, #0
 1823 085c 01308BE2 		add	r3, fp, #1
 1824 0860 02608BE0 		add	r6, fp, r2
 1825 0864 18B08DE5 		str	fp, [sp, #24]
 1826 0868 08B0A0E1 		mov	fp, r8
 1827 086c 023083E0 		add	r3, r3, r2
 1828 0870 28308DE5 		str	r3, [sp, #40]
 1829              	.LVL179:
 1830              	.L160:
 1831              	.LBE917:
 1832              	.LBE916:
 274:C:/Renesas/e2studio_2021_01_workspace_RZA2M_ANPR/ANPR_RZA2M_RDK/src/tensorflow_lite/src/tensorflow/lite/kernels/internal/reference\pooling.h ****                ++filter_y) {
 1833              		.loc 5 274 0
 1834 0874 40209DE5 		ldr	r2, [sp, #64]
 1835              	.LBE915:
 273:C:/Renesas/e2studio_2021_01_workspace_RZA2M_ANPR/ANPR_RZA2M_RDK/src/tensorflow_lite/src/tensorflow/lite/kernels/internal/reference\pooling.h ****           for (int filter_y = filter_y_start; filter_y < filter_y_end;
 1836              		.loc 5 273 0
 1837 0878 0030A0E3 		mov	r3, #0
 1838              	.LBB943:
 274:C:/Renesas/e2studio_2021_01_workspace_RZA2M_ANPR/ANPR_RZA2M_RDK/src/tensorflow_lite/src/tensorflow/lite/kernels/internal/reference\pooling.h ****                ++filter_y) {
 1839              		.loc 5 274 0
 1840 087c 44109DE5 		ldr	r1, [sp, #68]
 1841              	.LBE943:
 273:C:/Renesas/e2studio_2021_01_workspace_RZA2M_ANPR/ANPR_RZA2M_RDK/src/tensorflow_lite/src/tensorflow/lite/kernels/internal/reference\pooling.h ****           for (int filter_y = filter_y_start; filter_y < filter_y_end;
 1842              		.loc 5 273 0
 1843 0880 C830CDE5 		strb	r3, [sp, #200]
 1844              	.LVL180:
 1845              	.LBB944:
 274:C:/Renesas/e2studio_2021_01_workspace_RZA2M_ANPR/ANPR_RZA2M_RDK/src/tensorflow_lite/src/tensorflow/lite/kernels/internal/reference\pooling.h ****                ++filter_y) {
 1846              		.loc 5 274 0
 1847 0884 010052E1 		cmp	r2, r1
 1848 0888 8D0000AA 		bge	.L126
 1849 088c 34109DE5 		ldr	r1, [sp, #52]
 1850              	.LBB938:
 1851              	.LBB932:
 1852              	.LBB918:
 1853              	.LBB919:
 410:C:/Renesas/e2studio_2021_01_workspace_RZA2M_ANPR/ANPR_RZA2M_RDK/src/tensorflow_lite/src/tensorflow/lite/kernels/internal\types.h **** }
 1854              		.loc 6 410 0
 1855 0890 0030A0E3 		mov	r3, #0
 407:C:/Renesas/e2studio_2021_01_workspace_RZA2M_ANPR/ANPR_RZA2M_RDK/src/tensorflow_lite/src/tensorflow/lite/kernels/internal\types.h ****   TFLITE_DCHECK(i2 >= 0 && i2 < dims_data[2]);
 1856              		.loc 6 407 0
 1857 0894 E8709DE5 		ldr	r7, [sp, #232]
 410:C:/Renesas/e2studio_2021_01_workspace_RZA2M_ANPR/ANPR_RZA2M_RDK/src/tensorflow_lite/src/tensorflow/lite/kernels/internal\types.h **** }
 1858              		.loc 6 410 0
 1859 0898 03A0A0E1 		mov	r10, r3
 1860 089c E0509DE5 		ldr	r5, [sp, #224]
 408:C:/Renesas/e2studio_2021_01_workspace_RZA2M_ANPR/ANPR_RZA2M_RDK/src/tensorflow_lite/src/tensorflow/lite/kernels/internal\types.h ****   TFLITE_DCHECK(i3 >= 0 && i3 < dims_data[3]);
 1861              		.loc 6 408 0
 1862 08a0 ECC09DE5 		ldr	ip, [sp, #236]
 1863 08a4 014082E0 		add	r4, r2, r1
 1864 08a8 F0009DE5 		ldr	r0, [sp, #240]
 1865 08ac 20508DE5 		str	r5, [sp, #32]
 1866 08b0 991725E0 		mla	r5, r9, r7, r1
 406:C:/Renesas/e2studio_2021_01_workspace_RZA2M_ANPR/ANPR_RZA2M_RDK/src/tensorflow_lite/src/tensorflow/lite/kernels/internal\types.h ****   TFLITE_DCHECK(i1 >= 0 && i1 < dims_data[1]);
 1867              		.loc 6 406 0
 1868 08b4 E4109DE5 		ldr	r1, [sp, #228]
 1869 08b8 9C0008E0 		mul	r8, ip, r0
 1870 08bc 025085E0 		add	r5, r5, r2
 1871 08c0 48209DE5 		ldr	r2, [sp, #72]
 1872              	.LVL181:
 1873 08c4 1C108DE5 		str	r1, [sp, #28]
 1874 08c8 9C6525E0 		mla	r5, ip, r5, r6
 1875 08cc 90B525E0 		mla	r5, r0, r5, fp
 1876 08d0 055082E0 		add	r5, r2, r5
 1877              	.LVL182:
 1878              	.L129:
 1879              	.LBE919:
 1880              	.LBE918:
 1881              	.LBE932:
 276:C:/Renesas/e2studio_2021_01_workspace_RZA2M_ANPR/ANPR_RZA2M_RDK/src/tensorflow_lite/src/tensorflow/lite/kernels/internal/reference\pooling.h ****                  ++filter_x) {
 1882              		.loc 5 276 0
 1883 08d4 18209DE5 		ldr	r2, [sp, #24]
 1884 08d8 14109DE5 		ldr	r1, [sp, #20]
 1885 08dc 010052E1 		cmp	r2, r1
 1886 08e0 1E0000AA 		bge	.L150
 1887              	.LVL183:
 1888              	.LBB933:
 1889              	.LBB925:
 1890              	.LBB920:
 404:C:/Renesas/e2studio_2021_01_workspace_RZA2M_ANPR/ANPR_RZA2M_RDK/src/tensorflow_lite/src/tensorflow/lite/kernels/internal\types.h ****   const int* dims_data = reinterpret_cast<const int*>(shape.DimsDataUpTo5D());
 1891              		.loc 6 404 0
 1892 08e4 20209DE5 		ldr	r2, [sp, #32]
 1893 08e8 040052E3 		cmp	r2, #4
 1894 08ec 9C00001A 		bne	.L130
 406:C:/Renesas/e2studio_2021_01_workspace_RZA2M_ANPR/ANPR_RZA2M_RDK/src/tensorflow_lite/src/tensorflow/lite/kernels/internal\types.h ****   TFLITE_DCHECK(i1 >= 0 && i1 < dims_data[1]);
 1895              		.loc 6 406 0
 1896 08f0 1C209DE5 		ldr	r2, [sp, #28]
 1897 08f4 020059E1 		cmp	r9, r2
 1898 08f8 760000AA 		bge	.L131
 407:C:/Renesas/e2studio_2021_01_workspace_RZA2M_ANPR/ANPR_RZA2M_RDK/src/tensorflow_lite/src/tensorflow/lite/kernels/internal\types.h ****   TFLITE_DCHECK(i2 >= 0 && i2 < dims_data[2]);
 1899              		.loc 6 407 0
 1900 08fc 000054E3 		cmp	r4, #0
 1901 0900 A20000BA 		blt	.L132
 1902 0904 070054E1 		cmp	r4, r7
 1903 0908 A00000AA 		bge	.L132
 408:C:/Renesas/e2studio_2021_01_workspace_RZA2M_ANPR/ANPR_RZA2M_RDK/src/tensorflow_lite/src/tensorflow/lite/kernels/internal\types.h ****   TFLITE_DCHECK(i3 >= 0 && i3 < dims_data[3]);
 1904              		.loc 6 408 0
 1905 090c 000056E3 		cmp	r6, #0
 1906 0910 990000BA 		blt	.L304
 1907 0914 06005CE1 		cmp	ip, r6
 1908 0918 970000DA 		ble	.L304
 1909 091c 00005BE1 		cmp	fp, r0
 1910 0920 A00000AA 		bge	.L348
 1911 0924 28309DE5 		ldr	r3, [sp, #40]
 1912 0928 0510A0E1 		mov	r1, r5
 1913 092c 050000EA 		b	.L145
 1914              	.LVL184:
 1915              	.L294:
 1916 0930 000053E3 		cmp	r3, #0
 1917 0934 880000BA 		blt	.L303
 1918 0938 03005CE1 		cmp	ip, r3
 1919 093c 001081E0 		add	r1, r1, r0
 1920 0940 013083E2 		add	r3, r3, #1
 1921              	.LVL185:
 1922 0944 840000DA 		ble	.L303
 1923              	.LVL186:
 1924              	.L145:
 1925              	.LBE920:
 1926              	.LBE925:
 1927              	.LBB926:
 1928              	.LBB927:
 224:c:\program files (x86)\gnu tools arm embedded\6 2017-q2-update\arm-none-eabi\include\c++\6.3.1\bits\stl_algobase.h **** 	return __b;
 1929              		.loc 7 224 0
 1930 0948 0020D1E5 		ldrb	r2, [r1]	@ zero_extendqisi2
 1931 094c 02005AE1 		cmp	r10, r2
 1932 0950 02A0A0B1 		movlt	r10, r2
 1933              	.LVL187:
 1934              	.LBE927:
 1935              	.LBE926:
 1936              	.LBE933:
 276:C:/Renesas/e2studio_2021_01_workspace_RZA2M_ANPR/ANPR_RZA2M_RDK/src/tensorflow_lite/src/tensorflow/lite/kernels/internal/reference\pooling.h ****                  ++filter_x) {
 1937              		.loc 5 276 0
 1938 0954 03005EE1 		cmp	lr, r3
 1939 0958 F4FFFF1A 		bne	.L294
 1940 095c 0130A0E3 		mov	r3, #1
 1941              	.LVL188:
 1942              	.L150:
 1943              	.LBE938:
 274:C:/Renesas/e2studio_2021_01_workspace_RZA2M_ANPR/ANPR_RZA2M_RDK/src/tensorflow_lite/src/tensorflow/lite/kernels/internal/reference\pooling.h ****                ++filter_y) {
 1944              		.loc 5 274 0
 1945 0960 24209DE5 		ldr	r2, [sp, #36]
 1946 0964 014084E2 		add	r4, r4, #1
 1947 0968 085085E0 		add	r5, r5, r8
 1948 096c 020054E1 		cmp	r4, r2
 1949 0970 D7FFFF1A 		bne	.L129
 1950 0974 000053E3 		cmp	r3, #0
 1951              	.LBE944:
 1952              	.LBB945:
 1953              	.LBB908:
 224:c:\program files (x86)\gnu tools arm embedded\6 2017-q2-update\arm-none-eabi\include\c++\6.3.1\bits\stl_algobase.h **** 	return __b;
 1954              		.loc 7 224 0
 1955 0978 3C309DE5 		ldr	r3, [sp, #60]
 1956 097c C8A0CD15 		strbne	r10, [sp, #200]
 1957 0980 C820DDE5 		ldrb	r2, [sp, #200]	@ zero_extendqisi2
 1958              	.LVL189:
 1959 0984 020053E1 		cmp	r3, r2
 1960 0988 000000DA 		ble	.L153
 1961              	.L191:
 1962              	.LBE908:
 1963              	.LBE945:
 279:C:/Renesas/e2studio_2021_01_workspace_RZA2M_ANPR/ANPR_RZA2M_RDK/src/tensorflow_lite/src/tensorflow/lite/kernels/internal/reference\pooling.h ****               const int in_y = in_y_origin + filter_y;
 280:C:/Renesas/e2studio_2021_01_workspace_RZA2M_ANPR/ANPR_RZA2M_RDK/src/tensorflow_lite/src/tensorflow/lite/kernels/internal/reference\pooling.h ****               max = std::max(
 281:C:/Renesas/e2studio_2021_01_workspace_RZA2M_ANPR/ANPR_RZA2M_RDK/src/tensorflow_lite/src/tensorflow/lite/kernels/internal/reference\pooling.h ****                   max,
 282:C:/Renesas/e2studio_2021_01_workspace_RZA2M_ANPR/ANPR_RZA2M_RDK/src/tensorflow_lite/src/tensorflow/lite/kernels/internal/reference\pooling.h ****                   input_data[Offset(input_shape, batch, in_y, in_x, channel)]);
 283:C:/Renesas/e2studio_2021_01_workspace_RZA2M_ANPR/ANPR_RZA2M_RDK/src/tensorflow_lite/src/tensorflow/lite/kernels/internal/reference\pooling.h ****             }
 284:C:/Renesas/e2studio_2021_01_workspace_RZA2M_ANPR/ANPR_RZA2M_RDK/src/tensorflow_lite/src/tensorflow/lite/kernels/internal/reference\pooling.h ****           }
 285:C:/Renesas/e2studio_2021_01_workspace_RZA2M_ANPR/ANPR_RZA2M_RDK/src/tensorflow_lite/src/tensorflow/lite/kernels/internal/reference\pooling.h ****           max = std::max<uint8_t>(max, params.quantized_activation_min);
 1964              		.loc 5 285 0
 1965 098c 3C209DE5 		ldr	r2, [sp, #60]
 1966              	.L153:
 1967              	.LVL190:
 286:C:/Renesas/e2studio_2021_01_workspace_RZA2M_ANPR/ANPR_RZA2M_RDK/src/tensorflow_lite/src/tensorflow/lite/kernels/internal/reference\pooling.h ****           max = std::min<uint8_t>(max, params.quantized_activation_max);
 1968              		.loc 5 286 0
 1969 0990 54309DE5 		ldr	r3, [sp, #84]
 1970 0994 030052E1 		cmp	r2, r3
 1971 0998 0320A0A1 		movge	r2, r3
 1972              	.LVL191:
 1973              	.L154:
 1974              	.LBB946:
 1975              	.LBB947:
 404:C:/Renesas/e2studio_2021_01_workspace_RZA2M_ANPR/ANPR_RZA2M_RDK/src/tensorflow_lite/src/tensorflow/lite/kernels/internal\types.h ****   const int* dims_data = reinterpret_cast<const int*>(shape.DimsDataUpTo5D());
 1976              		.loc 6 404 0
 1977 099c F8309DE5 		ldr	r3, [sp, #248]
 1978              	.LBE947:
 1979              	.LBE946:
 1980              		.loc 5 286 0
 1981 09a0 C820CDE5 		strb	r2, [sp, #200]
 1982              	.LVL192:
 1983              	.LBB951:
 1984              	.LBB948:
 404:C:/Renesas/e2studio_2021_01_workspace_RZA2M_ANPR/ANPR_RZA2M_RDK/src/tensorflow_lite/src/tensorflow/lite/kernels/internal\types.h ****   const int* dims_data = reinterpret_cast<const int*>(shape.DimsDataUpTo5D());
 1985              		.loc 6 404 0
 1986 09a4 040053E3 		cmp	r3, #4
 1987 09a8 7C00001A 		bne	.L349
 406:C:/Renesas/e2studio_2021_01_workspace_RZA2M_ANPR/ANPR_RZA2M_RDK/src/tensorflow_lite/src/tensorflow/lite/kernels/internal\types.h ****   TFLITE_DCHECK(i1 >= 0 && i1 < dims_data[1]);
 1988              		.loc 6 406 0
 1989 09ac FC309DE5 		ldr	r3, [sp, #252]
 1990 09b0 030059E1 		cmp	r9, r3
 1991 09b4 7A0000AA 		bge	.L350
 407:C:/Renesas/e2studio_2021_01_workspace_RZA2M_ANPR/ANPR_RZA2M_RDK/src/tensorflow_lite/src/tensorflow/lite/kernels/internal\types.h ****   TFLITE_DCHECK(i2 >= 0 && i2 < dims_data[2]);
 1992              		.loc 6 407 0
 1993 09b8 00319DE5 		ldr	r3, [sp, #256]
 1994 09bc 30109DE5 		ldr	r1, [sp, #48]
 1995 09c0 030051E1 		cmp	r1, r3
 1996 09c4 6B0000AA 		bge	.L351
 408:C:/Renesas/e2studio_2021_01_workspace_RZA2M_ANPR/ANPR_RZA2M_RDK/src/tensorflow_lite/src/tensorflow/lite/kernels/internal\types.h ****   TFLITE_DCHECK(i3 >= 0 && i3 < dims_data[3]);
 1997              		.loc 6 408 0
 1998 09c8 04019DE5 		ldr	r0, [sp, #260]
 1999 09cc 2C109DE5 		ldr	r1, [sp, #44]
 2000 09d0 000051E1 		cmp	r1, r0
 2001 09d4 650000AA 		bge	.L352
 409:C:/Renesas/e2studio_2021_01_workspace_RZA2M_ANPR/ANPR_RZA2M_RDK/src/tensorflow_lite/src/tensorflow/lite/kernels/internal\types.h ****   return ((i0 * dims_data[1] + i1) * dims_data[2] + i2) * dims_data[3] + i3;
 2002              		.loc 6 409 0
 2003 09d8 08119DE5 		ldr	r1, [sp, #264]
 2004 09dc 01005BE1 		cmp	fp, r1
 2005 09e0 630000AA 		bge	.L353
 2006              	.LVL193:
 410:C:/Renesas/e2studio_2021_01_workspace_RZA2M_ANPR/ANPR_RZA2M_RDK/src/tensorflow_lite/src/tensorflow/lite/kernels/internal\types.h **** }
 2007              		.loc 6 410 0
 2008 09e4 30C09DE5 		ldr	ip, [sp, #48]
 2009 09e8 93C923E0 		mla	r3, r3, r9, ip
 2010 09ec 2CC09DE5 		ldr	ip, [sp, #44]
 2011 09f0 90C323E0 		mla	r3, r0, r3, ip
 2012              	.LBE948:
 2013              	.LBE951:
 287:C:/Renesas/e2studio_2021_01_workspace_RZA2M_ANPR/ANPR_RZA2M_RDK/src/tensorflow_lite/src/tensorflow/lite/kernels/internal/reference\pooling.h ****           output_data[Offset(output_shape, batch, out_y, out_x, channel)] =
 2014              		.loc 5 287 0
 2015 09f4 4C009DE5 		ldr	r0, [sp, #76]
 2016 09f8 910323E0 		mla	r3, r1, r3, r0
 2017 09fc 0B20C3E7 		strb	r2, [r3, fp]
 2018              	.LVL194:
 2019              	.LBE962:
 260:C:/Renesas/e2studio_2021_01_workspace_RZA2M_ANPR/ANPR_RZA2M_RDK/src/tensorflow_lite/src/tensorflow/lite/kernels/internal/reference\pooling.h ****           const int in_x_origin =
 2020              		.loc 5 260 0
 2021 0a00 01B08BE2 		add	fp, fp, #1
 2022              	.LVL195:
 2023 0a04 38309DE5 		ldr	r3, [sp, #56]
 2024 0a08 03005BE1 		cmp	fp, r3
 2025 0a0c 98FFFF1A 		bne	.L160
 2026              	.LVL196:
 2027              	.L159:
 2028 0a10 60109DE5 		ldr	r1, [sp, #96]
 2029 0a14 8C209DE5 		ldr	r2, [sp, #140]
 2030              	.LBE970:
 259:C:/Renesas/e2studio_2021_01_workspace_RZA2M_ANPR/ANPR_RZA2M_RDK/src/tensorflow_lite/src/tensorflow/lite/kernels/internal/reference\pooling.h ****         for (int channel = 0; channel < depth; ++channel) {
 2031              		.loc 5 259 0
 2032 0a18 2C309DE5 		ldr	r3, [sp, #44]
 2033 0a1c 021041E0 		sub	r1, r1, r2
 2034 0a20 60108DE5 		str	r1, [sp, #96]
 2035 0a24 013083E2 		add	r3, r3, #1
 2036 0a28 78109DE5 		ldr	r1, [sp, #120]
 2037 0a2c 2C308DE5 		str	r3, [sp, #44]
 2038              	.LVL197:
 2039 0a30 010053E1 		cmp	r3, r1
 2040 0a34 5C309DE5 		ldr	r3, [sp, #92]
 2041              	.LVL198:
 2042 0a38 023083E0 		add	r3, r3, r2
 2043 0a3c 5C308DE5 		str	r3, [sp, #92]
 2044 0a40 73FFFF1A 		bne	.L125
 2045 0a44 09B0A0E1 		mov	fp, r9
 2046              	.LVL199:
 2047              	.L124:
 2048 0a48 34109DE5 		ldr	r1, [sp, #52]
 2049 0a4c 88209DE5 		ldr	r2, [sp, #136]
 2050              	.LBE976:
 258:C:/Renesas/e2studio_2021_01_workspace_RZA2M_ANPR/ANPR_RZA2M_RDK/src/tensorflow_lite/src/tensorflow/lite/kernels/internal/reference\pooling.h ****       for (int out_x = 0; out_x < output_width; ++out_x) {
 2051              		.loc 5 258 0
 2052 0a50 30309DE5 		ldr	r3, [sp, #48]
 2053 0a54 021081E0 		add	r1, r1, r2
 2054 0a58 34108DE5 		str	r1, [sp, #52]
 2055 0a5c 013083E2 		add	r3, r3, #1
 2056 0a60 74109DE5 		ldr	r1, [sp, #116]
 2057 0a64 30308DE5 		str	r3, [sp, #48]
 2058              	.LVL200:
 2059 0a68 010053E1 		cmp	r3, r1
 2060 0a6c 68309DE5 		ldr	r3, [sp, #104]
 2061              	.LVL201:
 2062 0a70 023043E0 		sub	r3, r3, r2
 2063 0a74 68308DE5 		str	r3, [sp, #104]
 2064 0a78 4AFFFF1A 		bne	.L122
 2065              	.LVL202:
 2066              	.L121:
 2067              	.LBE981:
 257:C:/Renesas/e2studio_2021_01_workspace_RZA2M_ANPR/ANPR_RZA2M_RDK/src/tensorflow_lite/src/tensorflow/lite/kernels/internal/reference\pooling.h ****     for (int out_y = 0; out_y < output_height; ++out_y) {
 2068              		.loc 5 257 0
 2069 0a7c 70309DE5 		ldr	r3, [sp, #112]
 2070 0a80 01B08BE2 		add	fp, fp, #1
 2071              	.LVL203:
 2072 0a84 03005BE1 		cmp	fp, r3
 2073 0a88 3BFFFF1A 		bne	.L119
 2074              	.LVL204:
 2075              	.LBE994:
 2076              	.LBE889:
 2077              	.LBE888:
 2078              	.LBB1008:
 2079              	.LBB1009:
 203:C:/Renesas/e2studio_2021_01_workspace_RZA2M_ANPR/ANPR_RZA2M_RDK/src/tensorflow_lite/src/tensorflow/lite/kernels/internal\types.h **** #ifdef TF_LITE_STATIC_MEMORY
 2080              		.loc 6 203 0
 2081 0a8c F8309DE5 		ldr	r3, [sp, #248]
 2082 0a90 050053E3 		cmp	r3, #5
 2083 0a94 030000DA 		ble	.L306
 207:C:/Renesas/e2studio_2021_01_workspace_RZA2M_ANPR/ANPR_RZA2M_RDK/src/tensorflow_lite/src/tensorflow/lite/kernels/internal\types.h **** #endif  // TF_LITE_STATIC_MEMORY
 2084              		.loc 6 207 0
 2085 0a98 FC009DE5 		ldr	r0, [sp, #252]
 2086 0a9c 000050E3 		cmp	r0, #0
 2087 0aa0 0000000A 		beq	.L306
 2088 0aa4 FEFFFFEB 		bl	_ZdaPv
 2089              	.LVL205:
 2090              	.L306:
 2091 0aa8 E0309DE5 		ldr	r3, [sp, #224]
 2092              	.LVL206:
 2093              	.LBE1009:
 2094              	.LBE1008:
 2095              	.LBB1010:
 2096              	.LBB1011:
 203:C:/Renesas/e2studio_2021_01_workspace_RZA2M_ANPR/ANPR_RZA2M_RDK/src/tensorflow_lite/src/tensorflow/lite/kernels/internal\types.h **** #ifdef TF_LITE_STATIC_MEMORY
 2097              		.loc 6 203 0
 2098 0aac 050053E3 		cmp	r3, #5
 2099 0ab0 83FEFFDA 		ble	.L184
 207:C:/Renesas/e2studio_2021_01_workspace_RZA2M_ANPR/ANPR_RZA2M_RDK/src/tensorflow_lite/src/tensorflow/lite/kernels/internal\types.h **** #endif  // TF_LITE_STATIC_MEMORY
 2100              		.loc 6 207 0
 2101 0ab4 E4009DE5 		ldr	r0, [sp, #228]
 2102 0ab8 000050E3 		cmp	r0, #0
 2103 0abc E7FEFF1A 		bne	.L307
 2104 0ac0 7FFEFFEA 		b	.L184
 2105              	.LVL207:
 2106              	.L126:
 2107              	.LBE1011:
 2108              	.LBE1010:
 2109              	.LBB1012:
 2110              	.LBB1001:
 2111              	.LBB995:
 2112              	.LBB982:
 2113              	.LBB977:
 2114              	.LBB971:
 2115              	.LBB963:
 2116              	.LBB952:
 2117              	.LBB909:
 224:c:\program files (x86)\gnu tools arm embedded\6 2017-q2-update\arm-none-eabi\include\c++\6.3.1\bits\stl_algobase.h **** 	return __b;
 2118              		.loc 7 224 0
 2119 0ac4 3C309DE5 		ldr	r3, [sp, #60]
 2120 0ac8 000053E3 		cmp	r3, #0
 2121 0acc 0020A0D3 		movle	r2, #0
 2122              	.LVL208:
 2123 0ad0 B1FFFFDA 		ble	.L154
 2124 0ad4 ACFFFFEA 		b	.L191
 2125              	.LVL209:
 2126              	.L131:
 2127 0ad8 000053E3 		cmp	r3, #0
 2128 0adc C8A0CD15 		strbne	r10, [sp, #200]
 2129              	.LEHB7:
 2130              	.LBE909:
 2131              	.LBE952:
 2132              	.LBB953:
 2133              	.LBB939:
 2134              	.LBB934:
 2135              	.LBB928:
 2136              	.LBB921:
 406:C:/Renesas/e2studio_2021_01_workspace_RZA2M_ANPR/ANPR_RZA2M_RDK/src/tensorflow_lite/src/tensorflow/lite/kernels/internal\types.h ****   TFLITE_DCHECK(i1 >= 0 && i1 < dims_data[1]);
 2137              		.loc 6 406 0
 2138 0ae0 FEFFFFEB 		bl	abort
 2139              	.LVL210:
 2140              	.LEHE7:
 2141              	.L331:
 2142 0ae4 000053E3 		cmp	r3, #0
 2143 0ae8 327ACD1D 		vstrne.32	s15, [sp, #200]
 2144              	.LEHB8:
 2145              	.LBE921:
 2146              	.LBE928:
 2147              	.LBE934:
 2148              	.LBE939:
 2149              	.LBE953:
 2150              	.LBE963:
 2151              	.LBE971:
 2152              	.LBE977:
 2153              	.LBE982:
 2154              	.LBE995:
 2155              	.LBE1001:
 2156              	.LBE1012:
 2157              	.LBE881:
 2158              	.LBE880:
 2159              	.LBB1030:
 2160              	.LBB816:
 2161              	.LBB808:
 2162              	.LBB797:
 2163              	.LBB788:
 2164              	.LBB771:
 2165              	.LBB765:
 2166              	.LBB759:
 2167              	.LBB753:
 2168              	.LBB744:
 2169              	.LBB728:
 2170              	.LBB724:
 2171              	.LBB720:
 2172              	.LBB715:
 409:C:/Renesas/e2studio_2021_01_workspace_RZA2M_ANPR/ANPR_RZA2M_RDK/src/tensorflow_lite/src/tensorflow/lite/kernels/internal\types.h ****   return ((i0 * dims_data[1] + i1) * dims_data[2] + i2) * dims_data[3] + i3;
 2173              		.loc 6 409 0
 2174 0aec FEFFFFEB 		bl	abort
 2175              	.LVL211:
 2176              	.L76:
 2177 0af0 000053E3 		cmp	r3, #0
 2178 0af4 327ACD1D 		vstrne.32	s15, [sp, #200]
 406:C:/Renesas/e2studio_2021_01_workspace_RZA2M_ANPR/ANPR_RZA2M_RDK/src/tensorflow_lite/src/tensorflow/lite/kernels/internal\types.h ****   TFLITE_DCHECK(i1 >= 0 && i1 < dims_data[1]);
 2179              		.loc 6 406 0
 2180 0af8 FEFFFFEB 		bl	abort
 2181              	.LVL212:
 2182              	.L330:
 2183              	.LBE715:
 2184              	.LBE720:
 2185              	.LBE724:
 2186              	.LBE728:
 2187              	.LBE744:
 2188              	.LBE753:
 2189              	.LBE759:
 2190              	.LBE765:
 2191              	.LBE771:
 2192              	.LBE788:
 2193              	.LBB789:
 2194              	.LBB704:
 2195              		.loc 6 472 0
 2196 0afc FEFFFFEB 		bl	abort
 2197              	.LVL213:
 2198              	.LEHE8:
 2199              	.L346:
 2200              	.LEHB9:
 2201              	.LBE704:
 2202              	.LBE789:
 2203              	.LBE797:
 2204              	.LBE808:
 2205              	.LBE816:
 2206              	.LBE1030:
 2207              	.LBB1031:
 2208              	.LBB1023:
 2209              	.LBB1013:
 2210              	.LBB1002:
 2211              	.LBB996:
 2212              	.LBB894:
 2213 0b00 FEFFFFEB 		bl	abort
 2214              	.LVL214:
 2215              	.L347:
 2216              	.LBE894:
 2217              	.LBE996:
 2218              	.LBB997:
 2219              	.LBB899:
 2220 0b04 FEFFFFEB 		bl	abort
 2221              	.LVL215:
 2222              	.LEHE9:
 2223              	.L329:
 2224              	.LEHB10:
 2225              	.LBE899:
 2226              	.LBE997:
 2227              	.LBE1002:
 2228              	.LBE1013:
 2229              	.LBE1023:
 2230              	.LBE1031:
 2231              	.LBB1032:
 2232              	.LBB817:
 2233              	.LBB809:
 2234              	.LBB798:
 2235              	.LBB790:
 2236              	.LBB697:
 2237 0b08 FEFFFFEB 		bl	abort
 2238              	.LVL216:
 2239              	.LEHE10:
 2240              	.L202:
 2241              	.L316:
 2242              	.LBE697:
 2243              	.LBE790:
 2244              	.LBE798:
 2245              	.LBE809:
 2246              	.LBE817:
 2247              	.LBE1032:
 2248              	.LBB1033:
 2249              	.LBB1024:
 2250              	.LBB1014:
 2251              	.LBB1015:
 203:C:/Renesas/e2studio_2021_01_workspace_RZA2M_ANPR/ANPR_RZA2M_RDK/src/tensorflow_lite/src/tensorflow/lite/kernels/internal\types.h **** #ifdef TF_LITE_STATIC_MEMORY
 2252              		.loc 6 203 0
 2253 0b0c F8309DE5 		ldr	r3, [sp, #248]
 2254 0b10 050053E3 		cmp	r3, #5
 2255 0b14 030000DA 		ble	.L167
 207:C:/Renesas/e2studio_2021_01_workspace_RZA2M_ANPR/ANPR_RZA2M_RDK/src/tensorflow_lite/src/tensorflow/lite/kernels/internal\types.h **** #endif  // TF_LITE_STATIC_MEMORY
 2256              		.loc 6 207 0
 2257 0b18 FC009DE5 		ldr	r0, [sp, #252]
 2258 0b1c 000050E3 		cmp	r0, #0
 2259 0b20 0000000A 		beq	.L167
 2260 0b24 FEFFFFEB 		bl	_ZdaPv
 2261              	.LVL217:
 2262              	.L167:
 2263              	.LBE1015:
 2264              	.LBE1014:
 2265              	.LBB1016:
 2266              	.LBB1017:
 203:C:/Renesas/e2studio_2021_01_workspace_RZA2M_ANPR/ANPR_RZA2M_RDK/src/tensorflow_lite/src/tensorflow/lite/kernels/internal\types.h **** #ifdef TF_LITE_STATIC_MEMORY
 2267              		.loc 6 203 0
 2268 0b28 E0309DE5 		ldr	r3, [sp, #224]
 2269 0b2c 050053E3 		cmp	r3, #5
 2270 0b30 030000DA 		ble	.L188
 207:C:/Renesas/e2studio_2021_01_workspace_RZA2M_ANPR/ANPR_RZA2M_RDK/src/tensorflow_lite/src/tensorflow/lite/kernels/internal\types.h **** #endif  // TF_LITE_STATIC_MEMORY
 2271              		.loc 6 207 0
 2272 0b34 E4009DE5 		ldr	r0, [sp, #228]
 2273 0b38 000050E3 		cmp	r0, #0
 2274 0b3c 0000000A 		beq	.L188
 2275              	.LVL218:
 2276              	.L308:
 2277              	.LBE1017:
 2278              	.LBE1016:
 2279              	.LBE1024:
 2280              	.LBE1033:
 2281              	.LBB1034:
 2282              	.LBB876:
 2283              	.LBB868:
 2284              	.LBB869:
 2285 0b40 FEFFFFEB 		bl	_ZdaPv
 2286              	.LVL219:
 2287              	.L188:
 2288              	.LEHB11:
 2289 0b44 FEFFFFEB 		bl	__cxa_end_cleanup
 2290              	.LVL220:
 2291              	.LEHE11:
 2292              	.L204:
 2293 0b48 EFFFFFEA 		b	.L316
 2294              	.LVL221:
 2295              	.L300:
 2296 0b4c 000053E3 		cmp	r3, #0
 2297 0b50 0000000A 		beq	.L85
 2298              	.LVL222:
 2299              	.L299:
 2300 0b54 327ACDED 		vstr.32	s15, [sp, #200]
 2301              	.L85:
 2302              	.LEHB12:
 2303              	.LBE869:
 2304              	.LBE868:
 2305              	.LBE876:
 2306              	.LBE1034:
 2307              	.LBB1035:
 2308              	.LBB818:
 2309              	.LBB810:
 2310              	.LBB799:
 2311              	.LBB791:
 2312              	.LBB772:
 2313              	.LBB766:
 2314              	.LBB760:
 2315              	.LBB754:
 2316              	.LBB745:
 2317              	.LBB729:
 2318              	.LBB725:
 2319              	.LBB721:
 2320              	.LBB716:
 408:C:/Renesas/e2studio_2021_01_workspace_RZA2M_ANPR/ANPR_RZA2M_RDK/src/tensorflow_lite/src/tensorflow/lite/kernels/internal\types.h ****   TFLITE_DCHECK(i3 >= 0 && i3 < dims_data[3]);
 2321              		.loc 6 408 0
 2322 0b58 FEFFFFEB 		bl	abort
 2323              	.LVL223:
 2324              	.LEHE12:
 2325              	.L303:
 2326 0b5c C8A0CDE5 		strb	r10, [sp, #200]
 2327              	.L140:
 2328              	.LEHB13:
 2329              	.LBE716:
 2330              	.LBE721:
 2331              	.LBE725:
 2332              	.LBE729:
 2333              	.LBE745:
 2334              	.LBE754:
 2335              	.LBE760:
 2336              	.LBE766:
 2337              	.LBE772:
 2338              	.LBE791:
 2339              	.LBE799:
 2340              	.LBE810:
 2341              	.LBE818:
 2342              	.LBE1035:
 2343              	.LBB1036:
 2344              	.LBB1025:
 2345              	.LBB1018:
 2346              	.LBB1003:
 2347              	.LBB998:
 2348              	.LBB983:
 2349              	.LBB978:
 2350              	.LBB972:
 2351              	.LBB964:
 2352              	.LBB954:
 2353              	.LBB940:
 2354              	.LBB935:
 2355              	.LBB929:
 2356              	.LBB922:
 2357 0b60 FEFFFFEB 		bl	abort
 2358              	.LVL224:
 2359              	.L130:
 2360 0b64 000053E3 		cmp	r3, #0
 2361 0b68 C8A0CD15 		strbne	r10, [sp, #200]
 404:C:/Renesas/e2studio_2021_01_workspace_RZA2M_ANPR/ANPR_RZA2M_RDK/src/tensorflow_lite/src/tensorflow/lite/kernels/internal\types.h ****   const int* dims_data = reinterpret_cast<const int*>(shape.DimsDataUpTo5D());
 2362              		.loc 6 404 0
 2363 0b6c FEFFFFEB 		bl	abort
 2364              	.LVL225:
 2365              	.L352:
 2366              	.LBE922:
 2367              	.LBE929:
 2368              	.LBE935:
 2369              	.LBE940:
 2370              	.LBE954:
 2371              	.LBB955:
 2372              	.LBB949:
 408:C:/Renesas/e2studio_2021_01_workspace_RZA2M_ANPR/ANPR_RZA2M_RDK/src/tensorflow_lite/src/tensorflow/lite/kernels/internal\types.h ****   TFLITE_DCHECK(i3 >= 0 && i3 < dims_data[3]);
 2373              		.loc 6 408 0
 2374 0b70 FEFFFFEB 		bl	abort
 2375              	.LVL226:
 2376              	.L353:
 409:C:/Renesas/e2studio_2021_01_workspace_RZA2M_ANPR/ANPR_RZA2M_RDK/src/tensorflow_lite/src/tensorflow/lite/kernels/internal\types.h ****   return ((i0 * dims_data[1] + i1) * dims_data[2] + i2) * dims_data[3] + i3;
 2377              		.loc 6 409 0
 2378 0b74 FEFFFFEB 		bl	abort
 2379              	.LVL227:
 2380              	.L351:
 407:C:/Renesas/e2studio_2021_01_workspace_RZA2M_ANPR/ANPR_RZA2M_RDK/src/tensorflow_lite/src/tensorflow/lite/kernels/internal\types.h ****   TFLITE_DCHECK(i2 >= 0 && i2 < dims_data[2]);
 2381              		.loc 6 407 0
 2382 0b78 FEFFFFEB 		bl	abort
 2383              	.LVL228:
 2384              	.LEHE13:
 2385              	.L304:
 2386 0b7c 000053E3 		cmp	r3, #0
 2387 0b80 0AB0A0E1 		mov	fp, r10
 2388 0b84 C8B0CD15 		strbne	fp, [sp, #200]
 2389 0b88 F4FFFFEA 		b	.L140
 2390              	.LVL229:
 2391              	.L334:
 2392              	.LEHB14:
 2393              	.LBE949:
 2394              	.LBE955:
 2395              	.LBE964:
 2396              	.LBE972:
 2397              	.LBE978:
 2398              	.LBE983:
 2399              	.LBE998:
 2400              	.LBE1003:
 2401              	.LBE1018:
 2402              	.LBE1025:
 2403              	.LBE1036:
 2404              	.LBB1037:
 2405              	.LBB819:
 2406              	.LBB811:
 2407              	.LBB800:
 2408              	.LBB792:
 2409              	.LBB773:
 2410              	.LBB767:
 2411              	.LBB761:
 2412              	.LBB755:
 2413              	.LBB746:
 2414              	.LBB735:
 408:C:/Renesas/e2studio_2021_01_workspace_RZA2M_ANPR/ANPR_RZA2M_RDK/src/tensorflow_lite/src/tensorflow/lite/kernels/internal\types.h ****   TFLITE_DCHECK(i3 >= 0 && i3 < dims_data[3]);
 2415              		.loc 6 408 0
 2416 0b8c FEFFFFEB 		bl	abort
 2417              	.LVL230:
 2418              	.LEHE14:
 2419              	.L132:
 2420 0b90 000053E3 		cmp	r3, #0
 2421 0b94 C8A0CD15 		strbne	r10, [sp, #200]
 2422              	.LEHB15:
 2423              	.LBE735:
 2424              	.LBE746:
 2425              	.LBE755:
 2426              	.LBE761:
 2427              	.LBE767:
 2428              	.LBE773:
 2429              	.LBE792:
 2430              	.LBE800:
 2431              	.LBE811:
 2432              	.LBE819:
 2433              	.LBE1037:
 2434              	.LBB1038:
 2435              	.LBB1026:
 2436              	.LBB1019:
 2437              	.LBB1004:
 2438              	.LBB999:
 2439              	.LBB984:
 2440              	.LBB979:
 2441              	.LBB973:
 2442              	.LBB965:
 2443              	.LBB956:
 2444              	.LBB941:
 2445              	.LBB936:
 2446              	.LBB930:
 2447              	.LBB923:
 407:C:/Renesas/e2studio_2021_01_workspace_RZA2M_ANPR/ANPR_RZA2M_RDK/src/tensorflow_lite/src/tensorflow/lite/kernels/internal\types.h ****   TFLITE_DCHECK(i2 >= 0 && i2 < dims_data[2]);
 2448              		.loc 6 407 0
 2449 0b98 FEFFFFEB 		bl	abort
 2450              	.LVL231:
 2451              	.LEHE15:
 2452              	.L48:
 2453              	.LEHB16:
 2454              	.LBE923:
 2455              	.LBE930:
 2456              	.LBE936:
 2457              	.LBE941:
 2458              	.LBE956:
 2459              	.LBE965:
 2460              	.LBE973:
 2461              	.LBE979:
 2462              	.LBE984:
 2463              	.LBE999:
 2464              	.LBE1004:
 2465              	.LBE1019:
 2466              	.LBE1026:
 2467              	.LBE1038:
 353:../src/tensorflow_lite/src/tensorflow/lite/micro/kernels/cmsis_nn/pooling.cpp ****   auto* params = reinterpret_cast<TfLitePoolParams*>(node->builtin_data);
 2468              		.loc 1 353 0 discriminator 1
 2469 0b9c FEFFFFEB 		bl	abort
 2470              	.LVL232:
 2471              	.LEHE16:
 2472              	.L349:
 2473              	.LEHB17:
 2474              	.LBB1039:
 2475              	.LBB1027:
 2476              	.LBB1020:
 2477              	.LBB1005:
 2478              	.LBB1000:
 2479              	.LBB985:
 2480              	.LBB980:
 2481              	.LBB974:
 2482              	.LBB966:
 2483              	.LBB957:
 2484              	.LBB950:
 404:C:/Renesas/e2studio_2021_01_workspace_RZA2M_ANPR/ANPR_RZA2M_RDK/src/tensorflow_lite/src/tensorflow/lite/kernels/internal\types.h ****   const int* dims_data = reinterpret_cast<const int*>(shape.DimsDataUpTo5D());
 2485              		.loc 6 404 0
 2486 0ba0 FEFFFFEB 		bl	abort
 2487              	.LVL233:
 2488              	.L350:
 406:C:/Renesas/e2studio_2021_01_workspace_RZA2M_ANPR/ANPR_RZA2M_RDK/src/tensorflow_lite/src/tensorflow/lite/kernels/internal\types.h ****   TFLITE_DCHECK(i1 >= 0 && i1 < dims_data[1]);
 2489              		.loc 6 406 0
 2490 0ba4 FEFFFFEB 		bl	abort
 2491              	.LVL234:
 2492              	.L348:
 2493 0ba8 000053E3 		cmp	r3, #0
 2494 0bac C8A0CD15 		strbne	r10, [sp, #200]
 2495              	.L148:
 2496              	.LBE950:
 2497              	.LBE957:
 2498              	.LBB958:
 2499              	.LBB942:
 2500              	.LBB937:
 2501              	.LBB931:
 2502              	.LBB924:
 409:C:/Renesas/e2studio_2021_01_workspace_RZA2M_ANPR/ANPR_RZA2M_RDK/src/tensorflow_lite/src/tensorflow/lite/kernels/internal\types.h ****   return ((i0 * dims_data[1] + i1) * dims_data[2] + i2) * dims_data[3] + i3;
 2503              		.loc 6 409 0
 2504 0bb0 FEFFFFEB 		bl	abort
 2505              	.LVL235:
 2506              	.LEHE17:
 2507              	.L332:
 2508              	.LEHB18:
 2509              	.LBE924:
 2510              	.LBE931:
 2511              	.LBE937:
 2512              	.LBE942:
 2513              	.LBE958:
 2514              	.LBE966:
 2515              	.LBE974:
 2516              	.LBE980:
 2517              	.LBE985:
 2518              	.LBE1000:
 2519              	.LBE1005:
 2520              	.LBE1020:
 2521              	.LBE1027:
 2522              	.LBE1039:
 2523              	.LBB1040:
 2524              	.LBB820:
 2525              	.LBB812:
 2526              	.LBB801:
 2527              	.LBB793:
 2528              	.LBB774:
 2529              	.LBB768:
 2530              	.LBB762:
 2531              	.LBB756:
 2532              	.LBB747:
 2533              	.LBB736:
 406:C:/Renesas/e2studio_2021_01_workspace_RZA2M_ANPR/ANPR_RZA2M_RDK/src/tensorflow_lite/src/tensorflow/lite/kernels/internal\types.h ****   TFLITE_DCHECK(i1 >= 0 && i1 < dims_data[1]);
 2534              		.loc 6 406 0
 2535 0bb4 FEFFFFEB 		bl	abort
 2536              	.LVL236:
 2537              	.L201:
 2538 0bb8 DAFFFFEA 		b	.L167
 2539              	.LVL237:
 2540              	.L327:
 2541              	.LBE736:
 2542              	.LBE747:
 2543              	.LBE756:
 2544              	.LBE762:
 2545              	.LBE768:
 2546              	.LBE774:
 2547              	.LBE793:
 193:C:/Renesas/e2studio_2021_01_workspace_RZA2M_ANPR/ANPR_RZA2M_RDK/src/tensorflow_lite/src/tensorflow/lite/kernels/internal/reference\pooling.h ****   TFLITE_DCHECK_EQ(output_shape.DimensionsCount(), 4);
 2548              		.loc 5 193 0
 2549 0bbc FEFFFFEB 		bl	abort
 2550              	.LVL238:
 2551              	.LEHE18:
 2552              	.L206:
 2553              	.LBE801:
 2554              	.LBE812:
 2555              	.LBE820:
 2556              	.LBE1040:
 2557              	.LBB1041:
 2558              	.LBB877:
 2559              	.LBB871:
 2560              	.LBB872:
 203:C:/Renesas/e2studio_2021_01_workspace_RZA2M_ANPR/ANPR_RZA2M_RDK/src/tensorflow_lite/src/tensorflow/lite/kernels/internal\types.h **** #ifdef TF_LITE_STATIC_MEMORY
 2561              		.loc 6 203 0
 2562 0bc0 E0309DE5 		ldr	r3, [sp, #224]
 2563 0bc4 050053E3 		cmp	r3, #5
 2564 0bc8 030000DA 		ble	.L187
 207:C:/Renesas/e2studio_2021_01_workspace_RZA2M_ANPR/ANPR_RZA2M_RDK/src/tensorflow_lite/src/tensorflow/lite/kernels/internal\types.h **** #endif  // TF_LITE_STATIC_MEMORY
 2565              		.loc 6 207 0
 2566 0bcc E4009DE5 		ldr	r0, [sp, #228]
 2567 0bd0 000050E3 		cmp	r0, #0
 2568 0bd4 0000000A 		beq	.L187
 2569 0bd8 FEFFFFEB 		bl	_ZdaPv
 2570              	.LVL239:
 2571              	.L187:
 2572              	.LBE872:
 2573              	.LBE871:
 2574              	.LBB873:
 2575              	.LBB870:
 203:C:/Renesas/e2studio_2021_01_workspace_RZA2M_ANPR/ANPR_RZA2M_RDK/src/tensorflow_lite/src/tensorflow/lite/kernels/internal\types.h **** #ifdef TF_LITE_STATIC_MEMORY
 2576              		.loc 6 203 0
 2577 0bdc C8309DE5 		ldr	r3, [sp, #200]
 2578 0be0 050053E3 		cmp	r3, #5
 2579 0be4 D6FFFFDA 		ble	.L188
 207:C:/Renesas/e2studio_2021_01_workspace_RZA2M_ANPR/ANPR_RZA2M_RDK/src/tensorflow_lite/src/tensorflow/lite/kernels/internal\types.h **** #endif  // TF_LITE_STATIC_MEMORY
 2580              		.loc 6 207 0
 2581 0be8 CC009DE5 		ldr	r0, [sp, #204]
 2582 0bec 000050E3 		cmp	r0, #0
 2583 0bf0 D2FFFF1A 		bne	.L308
 2584 0bf4 D2FFFFEA 		b	.L188
 2585              	.LVL240:
 2586              	.L339:
 2587              	.LEHB19:
 2588              	.LBE870:
 2589              	.LBE873:
 254:../src/tensorflow_lite/src/tensorflow/lite/micro/kernels/cmsis_nn/pooling.cpp ****       arm_max_pool_s8(&ctx, &pool_params, &input_dims,
 2590              		.loc 1 254 0
 2591 0bf8 FEFFFFEB 		bl	abort
 2592              	.LVL241:
 2593              	.LEHE19:
 2594              	.L344:
 2595              	.LEHB20:
 2596              	.LBE877:
 2597              	.LBE1041:
 2598              	.LBB1042:
 2599              	.LBB1028:
 2600              	.LBB1021:
 2601              	.LBB1006:
 247:C:/Renesas/e2studio_2021_01_workspace_RZA2M_ANPR/ANPR_RZA2M_RDK/src/tensorflow_lite/src/tensorflow/lite/kernels/internal/reference\pooling.h ****   TFLITE_DCHECK_EQ(output_shape.DimensionsCount(), 4);
 2602              		.loc 5 247 0
 2603 0bfc FEFFFFEB 		bl	abort
 2604              	.LVL242:
 2605              	.L345:
 248:C:/Renesas/e2studio_2021_01_workspace_RZA2M_ANPR/ANPR_RZA2M_RDK/src/tensorflow_lite/src/tensorflow/lite/kernels/internal/reference\pooling.h ****   const int batches = MatchingDim(input_shape, 0, output_shape, 0);
 2606              		.loc 5 248 0
 2607 0c00 FEFFFFEB 		bl	abort
 2608              	.LVL243:
 2609              	.LEHE20:
 2610              	.L338:
 2611              	.LEHB21:
 2612              	.LBE1006:
 2613              	.LBE1021:
 2614              	.LBE1028:
 2615              	.LBE1042:
 2616              	.LBB1043:
 2617              	.LBB878:
 2618              	.LBB874:
 2619              	.LBB840:
 2620              		.loc 6 472 0
 2621 0c04 FEFFFFEB 		bl	abort
 2622              	.LVL244:
 2623              	.LEHE21:
 2624              	.L328:
 2625              	.LEHB22:
 2626              	.LBE840:
 2627              	.LBE874:
 2628              	.LBE878:
 2629              	.LBE1043:
 2630              	.LBB1044:
 2631              	.LBB821:
 2632              	.LBB813:
 2633              	.LBB802:
 194:C:/Renesas/e2studio_2021_01_workspace_RZA2M_ANPR/ANPR_RZA2M_RDK/src/tensorflow_lite/src/tensorflow/lite/kernels/internal/reference\pooling.h ****   const int batches = MatchingDim(input_shape, 0, output_shape, 0);
 2634              		.loc 5 194 0
 2635 0c08 FEFFFFEB 		bl	abort
 2636              	.LVL245:
 2637              	.LEHE22:
 2638              	.L203:
 2639 0c0c C5FFFFEA 		b	.L167
 2640              	.LVL246:
 2641              	.L341:
 2642              	.LEHB23:
 2643              	.LBE802:
 2644              	.LBE813:
 2645              	.LBE821:
 2646              	.LBE1044:
 2647              	.LBB1045:
 2648              	.LBB1029:
 2649              	.LBB1022:
 2650              	.LBB1007:
 243:C:/Renesas/e2studio_2021_01_workspace_RZA2M_ANPR/ANPR_RZA2M_RDK/src/tensorflow_lite/src/tensorflow/lite/kernels/internal/reference\pooling.h ****                    params.quantized_activation_max);
 2651              		.loc 5 243 0
 2652 0c10 FEFFFFEB 		bl	abort
 2653              	.LVL247:
 2654              	.L342:
 245:C:/Renesas/e2studio_2021_01_workspace_RZA2M_ANPR/ANPR_RZA2M_RDK/src/tensorflow_lite/src/tensorflow/lite/kernels/internal/reference\pooling.h ****   TFLITE_DCHECK_LE(params.quantized_activation_max, 255);
 2655              		.loc 5 245 0
 2656 0c14 FEFFFFEB 		bl	abort
 2657              	.LVL248:
 2658              	.L343:
 246:C:/Renesas/e2studio_2021_01_workspace_RZA2M_ANPR/ANPR_RZA2M_RDK/src/tensorflow_lite/src/tensorflow/lite/kernels/internal/reference\pooling.h ****   TFLITE_DCHECK_EQ(input_shape.DimensionsCount(), 4);
 2659              		.loc 5 246 0
 2660 0c18 FEFFFFEB 		bl	abort
 2661              	.LVL249:
 2662              	.LEHE23:
 2663              	.L335:
 2664              	.LEHB24:
 2665              	.LBE1007:
 2666              	.LBE1022:
 2667              	.LBE1029:
 2668              	.LBE1045:
 2669              	.LBB1046:
 2670              	.LBB822:
 2671              	.LBB814:
 2672              	.LBB803:
 2673              	.LBB794:
 2674              	.LBB775:
 2675              	.LBB769:
 2676              	.LBB763:
 2677              	.LBB757:
 2678              	.LBB748:
 2679              	.LBB737:
 409:C:/Renesas/e2studio_2021_01_workspace_RZA2M_ANPR/ANPR_RZA2M_RDK/src/tensorflow_lite/src/tensorflow/lite/kernels/internal\types.h ****   return ((i0 * dims_data[1] + i1) * dims_data[2] + i2) * dims_data[3] + i3;
 2680              		.loc 6 409 0
 2681 0c1c FEFFFFEB 		bl	abort
 2682              	.LVL250:
 2683              	.LEHE24:
 2684              	.L205:
 2685 0c20 EDFFFFEA 		b	.L187
 2686              	.LVL251:
 2687              	.L336:
 2688              	.LEHB25:
 2689              	.LBE737:
 2690              	.LBE748:
 2691              	.LBE757:
 2692              	.LBE763:
 2693              	.LBE769:
 2694              	.LBE775:
 2695              	.LBE794:
 2696              	.LBE803:
 2697              	.LBE814:
 2698              	.LBE822:
 2699              	.LBE1046:
 2700              	.LBB1047:
 2701              	.LBB879:
 2702              	.LBB875:
 2703              	.LBB841:
 2704              	.LBB838:
 2705              	.LBB831:
 215:C:/Renesas/e2studio_2021_01_workspace_RZA2M_ANPR/ANPR_RZA2M_RDK/src/tensorflow_lite/src/tensorflow/lite/kernels/internal\types.h ****     return size_ > kMaxSmallSize ? dims_pointer_[i] : dims_[i];
 2706              		.loc 6 215 0
 2707 0c24 FEFFFFEB 		bl	abort
 2708              	.LVL252:
 2709              	.L337:
 2710              	.LBE831:
 2711              	.LBE838:
 2712              	.LBB839:
 2713              	.LBB835:
 2714 0c28 FEFFFFEB 		bl	abort
 2715              	.LVL253:
 2716              	.LEHE25:
 2717              	.L77:
 2718 0c2c 000053E3 		cmp	r3, #0
 2719 0c30 327ACD1D 		vstrne.32	s15, [sp, #200]
 2720              	.LEHB26:
 2721              	.LBE835:
 2722              	.LBE839:
 2723              	.LBE841:
 2724              	.LBE875:
 2725              	.LBE879:
 2726              	.LBE1047:
 2727              	.LBB1048:
 2728              	.LBB823:
 2729              	.LBB815:
 2730              	.LBB804:
 2731              	.LBB795:
 2732              	.LBB776:
 2733              	.LBB770:
 2734              	.LBB764:
 2735              	.LBB758:
 2736              	.LBB749:
 2737              	.LBB730:
 2738              	.LBB726:
 2739              	.LBB722:
 2740              	.LBB717:
 407:C:/Renesas/e2studio_2021_01_workspace_RZA2M_ANPR/ANPR_RZA2M_RDK/src/tensorflow_lite/src/tensorflow/lite/kernels/internal\types.h ****   TFLITE_DCHECK(i2 >= 0 && i2 < dims_data[2]);
 2741              		.loc 6 407 0
 2742 0c34 FEFFFFEB 		bl	abort
 2743              	.LVL254:
 2744              	.L333:
 2745              	.LBE717:
 2746              	.LBE722:
 2747              	.LBE726:
 2748              	.LBE730:
 2749              	.LBE749:
 2750              	.LBB750:
 2751              	.LBB738:
 2752 0c38 FEFFFFEB 		bl	abort
 2753              	.LVL255:
 2754              	.LEHE26:
 2755              	.LBE738:
 2756              	.LBE750:
 2757              	.LBE758:
 2758              	.LBE764:
 2759              	.LBE770:
 2760              	.LBE776:
 2761              	.LBE795:
 2762              	.LBE804:
 2763              	.LBE815:
 2764              	.LBE823:
 2765              	.LBE1048:
 2766              		.cfi_endproc
 2767              	.LFE5923:
 2768              		.global	__gxx_personality_v0
 2769              		.personality	__gxx_personality_v0
 2770              		.handlerdata
 2771              	.LLSDA5923:
 2772 000c FF       		.byte	0xff
 2773 000d FF       		.byte	0xff
 2774 000e 01       		.byte	0x1
 2775 000f 9D01     		.uleb128 .LLSDACSE5923-.LLSDACSB5923
 2776              	.LLSDACSB5923:
 2777 0011 40       		.uleb128 .LEHB0-.LFB5923
 2778 0012 AC01     		.uleb128 .LEHE0-.LEHB0
 2779 0014 00       		.uleb128 0
 2780 0015 00       		.uleb128 0
 2781 0016 F801     		.uleb128 .LEHB1-.LFB5923
 2782 0018 04       		.uleb128 .LEHE1-.LEHB1
 2783 0019 B817     		.uleb128 .L201-.LFB5923
 2784 001b 00       		.uleb128 0
 2785 001c DC09     		.uleb128 .LEHB2-.LFB5923
 2786 001e 04       		.uleb128 .LEHE2-.LEHB2
 2787 001f 00       		.uleb128 0
 2788 0020 00       		.uleb128 0
 2789 0021 E809     		.uleb128 .LEHB3-.LFB5923
 2790 0023 04       		.uleb128 .LEHE3-.LEHB3
 2791 0024 A018     		.uleb128 .L205-.LFB5923
 2792 0026 00       		.uleb128 0
 2793 0027 E80B     		.uleb128 .LEHB4-.LFB5923
 2794 0029 3C       		.uleb128 .LEHE4-.LEHB4
 2795 002a C017     		.uleb128 .L206-.LFB5923
 2796 002c 00       		.uleb128 0
 2797 002d B40D     		.uleb128 .LEHB5-.LFB5923
 2798 002f 04       		.uleb128 .LEHE5-.LEHB5
 2799 0030 00       		.uleb128 0
 2800 0031 00       		.uleb128 0
 2801 0032 C80D     		.uleb128 .LEHB6-.LFB5923
 2802 0034 04       		.uleb128 .LEHE6-.LEHB6
 2803 0035 8C18     		.uleb128 .L203-.LFB5923
 2804 0037 00       		.uleb128 0
 2805 0038 E015     		.uleb128 .LEHB7-.LFB5923
 2806 003a 04       		.uleb128 .LEHE7-.LEHB7
 2807 003b C816     		.uleb128 .L204-.LFB5923
 2808 003d 00       		.uleb128 0
 2809 003e EC15     		.uleb128 .LEHB8-.LFB5923
 2810 0040 14       		.uleb128 .LEHE8-.LEHB8
 2811 0041 8C16     		.uleb128 .L202-.LFB5923
 2812 0043 00       		.uleb128 0
 2813 0044 8016     		.uleb128 .LEHB9-.LFB5923
 2814 0046 08       		.uleb128 .LEHE9-.LEHB9
 2815 0047 C816     		.uleb128 .L204-.LFB5923
 2816 0049 00       		.uleb128 0
 2817 004a 8816     		.uleb128 .LEHB10-.LFB5923
 2818 004c 04       		.uleb128 .LEHE10-.LEHB10
 2819 004d 8C16     		.uleb128 .L202-.LFB5923
 2820 004f 00       		.uleb128 0
 2821 0050 C416     		.uleb128 .LEHB11-.LFB5923
 2822 0052 04       		.uleb128 .LEHE11-.LEHB11
 2823 0053 00       		.uleb128 0
 2824 0054 00       		.uleb128 0
 2825 0055 D816     		.uleb128 .LEHB12-.LFB5923
 2826 0057 04       		.uleb128 .LEHE12-.LEHB12
 2827 0058 8C16     		.uleb128 .L202-.LFB5923
 2828 005a 00       		.uleb128 0
 2829 005b E016     		.uleb128 .LEHB13-.LFB5923
 2830 005d 1C       		.uleb128 .LEHE13-.LEHB13
 2831 005e C816     		.uleb128 .L204-.LFB5923
 2832 0060 00       		.uleb128 0
 2833 0061 8C17     		.uleb128 .LEHB14-.LFB5923
 2834 0063 04       		.uleb128 .LEHE14-.LEHB14
 2835 0064 8C16     		.uleb128 .L202-.LFB5923
 2836 0066 00       		.uleb128 0
 2837 0067 9817     		.uleb128 .LEHB15-.LFB5923
 2838 0069 04       		.uleb128 .LEHE15-.LEHB15
 2839 006a C816     		.uleb128 .L204-.LFB5923
 2840 006c 00       		.uleb128 0
 2841 006d 9C17     		.uleb128 .LEHB16-.LFB5923
 2842 006f 04       		.uleb128 .LEHE16-.LEHB16
 2843 0070 00       		.uleb128 0
 2844 0071 00       		.uleb128 0
 2845 0072 A017     		.uleb128 .LEHB17-.LFB5923
 2846 0074 14       		.uleb128 .LEHE17-.LEHB17
 2847 0075 C816     		.uleb128 .L204-.LFB5923
 2848 0077 00       		.uleb128 0
 2849 0078 B417     		.uleb128 .LEHB18-.LFB5923
 2850 007a 0C       		.uleb128 .LEHE18-.LEHB18
 2851 007b 8C16     		.uleb128 .L202-.LFB5923
 2852 007d 00       		.uleb128 0
 2853 007e F817     		.uleb128 .LEHB19-.LFB5923
 2854 0080 04       		.uleb128 .LEHE19-.LEHB19
 2855 0081 C017     		.uleb128 .L206-.LFB5923
 2856 0083 00       		.uleb128 0
 2857 0084 FC17     		.uleb128 .LEHB20-.LFB5923
 2858 0086 08       		.uleb128 .LEHE20-.LEHB20
 2859 0087 C816     		.uleb128 .L204-.LFB5923
 2860 0089 00       		.uleb128 0
 2861 008a 8418     		.uleb128 .LEHB21-.LFB5923
 2862 008c 04       		.uleb128 .LEHE21-.LEHB21
 2863 008d C017     		.uleb128 .L206-.LFB5923
 2864 008f 00       		.uleb128 0
 2865 0090 8818     		.uleb128 .LEHB22-.LFB5923
 2866 0092 04       		.uleb128 .LEHE22-.LEHB22
 2867 0093 8C16     		.uleb128 .L202-.LFB5923
 2868 0095 00       		.uleb128 0
 2869 0096 9018     		.uleb128 .LEHB23-.LFB5923
 2870 0098 0C       		.uleb128 .LEHE23-.LEHB23
 2871 0099 C816     		.uleb128 .L204-.LFB5923
 2872 009b 00       		.uleb128 0
 2873 009c 9C18     		.uleb128 .LEHB24-.LFB5923
 2874 009e 04       		.uleb128 .LEHE24-.LEHB24
 2875 009f 8C16     		.uleb128 .L202-.LFB5923
 2876 00a1 00       		.uleb128 0
 2877 00a2 A418     		.uleb128 .LEHB25-.LFB5923
 2878 00a4 08       		.uleb128 .LEHE25-.LEHB25
 2879 00a5 C017     		.uleb128 .L206-.LFB5923
 2880 00a7 00       		.uleb128 0
 2881 00a8 B418     		.uleb128 .LEHB26-.LFB5923
 2882 00aa 08       		.uleb128 .LEHE26-.LEHB26
 2883 00ab 8C16     		.uleb128 .L202-.LFB5923
 2884 00ad 00       		.uleb128 0
 2885              	.LLSDACSE5923:
 2886              		.section	.text._ZN6tflite3ops5micro7pooling7MaxEvalEP13TfLiteContextP10TfLiteNode
 2887              		.fnend
 2889              		.section	.text._ZN6tflite3ops5micro7pooling11AverageEvalEP13TfLiteContextP10TfLiteNode,"ax",%progb
 2890              		.align	2
 2891              		.global	_ZN6tflite3ops5micro7pooling11AverageEvalEP13TfLiteContextP10TfLiteNode
 2892              		.syntax unified
 2893              		.arm
 2894              		.fpu neon
 2896              	_ZN6tflite3ops5micro7pooling11AverageEvalEP13TfLiteContextP10TfLiteNode:
 2897              		.fnstart
 2898              	.LFB5922:
 323:../src/tensorflow_lite/src/tensorflow/lite/micro/kernels/cmsis_nn/pooling.cpp ****   TFLITE_DCHECK(node->builtin_data != nullptr);
 2899              		.loc 1 323 0
 2900              		.cfi_startproc
 2901              		.cfi_personality 0,__gxx_personality_v0
 2902              		.cfi_lsda 0,.LLSDA5922
 2903              		@ args = 0, pretend = 0, frame = 256
 2904              		@ frame_needed = 0, uses_anonymous_args = 0
 2905              	.LVL256:
 2906 0000 F04F2DE9 		push	{r4, r5, r6, r7, r8, r9, r10, fp, lr}
 2907              		.save {r4, r5, r6, r7, r8, r9, r10, fp, lr}
 2908              		.cfi_def_cfa_offset 36
 2909              		.cfi_offset 4, -36
 2910              		.cfi_offset 5, -32
 2911              		.cfi_offset 6, -28
 2912              		.cfi_offset 7, -24
 2913              		.cfi_offset 8, -20
 2914              		.cfi_offset 9, -16
 2915              		.cfi_offset 10, -12
 2916              		.cfi_offset 11, -8
 2917              		.cfi_offset 14, -4
 324:../src/tensorflow_lite/src/tensorflow/lite/micro/kernels/cmsis_nn/pooling.cpp ****   auto* params = reinterpret_cast<TfLitePoolParams*>(node->builtin_data);
 2918              		.loc 1 324 0
 2919 0004 146091E5 		ldr	r6, [r1, #20]
 323:../src/tensorflow_lite/src/tensorflow/lite/micro/kernels/cmsis_nn/pooling.cpp ****   TFLITE_DCHECK(node->builtin_data != nullptr);
 2920              		.loc 1 323 0
 2921 0008 028B2DED 		vpush.64	{d8}
 2922              		.vsave {d8}
 2923              		.cfi_def_cfa_offset 44
 2924              		.cfi_offset 80, -44
 2925              		.cfi_offset 81, -40
 2926              		.pad #276
 2927 000c 45DF4DE2 		sub	sp, sp, #276
 2928              		.cfi_def_cfa_offset 320
 324:../src/tensorflow_lite/src/tensorflow/lite/micro/kernels/cmsis_nn/pooling.cpp ****   auto* params = reinterpret_cast<TfLitePoolParams*>(node->builtin_data);
 2929              		.loc 1 324 0
 2930 0010 000056E3 		cmp	r6, #0
 2931 0014 EA02000A 		beq	.L358
 327:../src/tensorflow_lite/src/tensorflow/lite/micro/kernels/cmsis_nn/pooling.cpp ****   const OpData& data = *(static_cast<const OpData*>(node->user_data));
 2932              		.loc 1 327 0
 2933 0018 107091E5 		ldr	r7, [r1, #16]
 2934 001c 0140A0E1 		mov	r4, r1
 2935              	.LVL257:
 2936 0020 000057E3 		cmp	r7, #0
 2937 0024 E602000A 		beq	.L358
 2938              	.LBB1238:
 2939              	.LBB1239:
 2940              	.LBB1240:
  34:C:/Renesas/e2studio_2021_01_workspace_RZA2M_ANPR/ANPR_RZA2M_RDK/src/tensorflow_lite/src/tensorflow/lite/micro/kernels\kernel_util.h ****   TFLITE_DCHECK(node != nullptr);
 2941              		.loc 4 34 0
 2942 0028 000050E3 		cmp	r0, #0
 2943 002c 0080A0E1 		mov	r8, r0
 2944              	.LVL258:
 2945 0030 E302000A 		beq	.L358
  36:C:/Renesas/e2studio_2021_01_workspace_RZA2M_ANPR/ANPR_RZA2M_RDK/src/tensorflow_lite/src/tensorflow/lite/micro/kernels\kernel_util.h **** }
 2946              		.loc 4 36 0
 2947 0034 002091E5 		ldr	r2, [r1]
 2948 0038 543090E5 		ldr	r3, [r0, #84]
 2949 003c 041092E5 		ldr	r1, [r2, #4]
 2950              	.LVL259:
 2951              	.LEHB27:
 2952 0040 33FF2FE1 		blx	r3
 2953              	.LVL260:
 2954              	.LBE1240:
 2955              	.LBE1239:
 2956              	.LBE1238:
 2957              	.LBB1243:
 2958              	.LBB1244:
  50:C:/Renesas/e2studio_2021_01_workspace_RZA2M_ANPR/ANPR_RZA2M_RDK/src/tensorflow_lite/src/tensorflow/lite/micro/kernels\kernel_util.h **** }
 2959              		.loc 4 50 0
 2960 0044 042094E5 		ldr	r2, [r4, #4]
 2961              	.LBE1244:
 2962              	.LBE1243:
 2963              	.LBB1246:
 2964              	.LBB1242:
 2965              	.LBB1241:
  36:C:/Renesas/e2studio_2021_01_workspace_RZA2M_ANPR/ANPR_RZA2M_RDK/src/tensorflow_lite/src/tensorflow/lite/micro/kernels\kernel_util.h **** }
 2966              		.loc 4 36 0
 2967 0048 0050A0E1 		mov	r5, r0
 2968              	.LVL261:
 2969              	.LBE1241:
 2970              	.LBE1242:
 2971              	.LBE1246:
 2972              	.LBB1247:
 2973              	.LBB1245:
  50:C:/Renesas/e2studio_2021_01_workspace_RZA2M_ANPR/ANPR_RZA2M_RDK/src/tensorflow_lite/src/tensorflow/lite/micro/kernels\kernel_util.h **** }
 2974              		.loc 4 50 0
 2975 004c 543098E5 		ldr	r3, [r8, #84]
 2976 0050 0800A0E1 		mov	r0, r8
 2977 0054 041092E5 		ldr	r1, [r2, #4]
 2978 0058 33FF2FE1 		blx	r3
 2979              	.LVL262:
 2980 005c 0040A0E1 		mov	r4, r0
 2981              	.LVL263:
 2982              	.LBE1245:
 2983              	.LBE1247:
 336:../src/tensorflow_lite/src/tensorflow/lite/micro/kernels/cmsis_nn/pooling.cpp ****     case kTfLiteFloat32:
 2984              		.loc 1 336 0
 2985 0060 0800D5E5 		ldrb	r0, [r5, #8]	@ zero_extendqisi2
 2986 0064 030050E3 		cmp	r0, #3
 2987 0068 1F01000A 		beq	.L360
 2988 006c 090050E3 		cmp	r0, #9
 2989 0070 1D01000A 		beq	.L360
 2990 0074 010050E3 		cmp	r0, #1
 2991 0078 0A00000A 		beq	.L550
 345:../src/tensorflow_lite/src/tensorflow/lite/micro/kernels/cmsis_nn/pooling.cpp ****                          TfLiteTypeGetName(input->type));
 2992              		.loc 1 345 0
 2993 007c 144098E5 		ldr	r4, [r8, #20]
 2994 0080 FEFFFFEB 		bl	TfLiteTypeGetName
 2995              	.LVL264:
 2996 0084 001000E3 		movw	r1, #:lower16:.LC7
 2997 0088 0020A0E1 		mov	r2, r0
 2998 008c 001040E3 		movt	r1, #:upper16:.LC7
 2999 0090 0800A0E1 		mov	r0, r8
 3000 0094 34FF2FE1 		blx	r4
 3001              	.LVL265:
 347:../src/tensorflow_lite/src/tensorflow/lite/micro/kernels/cmsis_nn/pooling.cpp ****   }
 3002              		.loc 1 347 0
 3003 0098 0100A0E3 		mov	r0, #1
 350:../src/tensorflow_lite/src/tensorflow/lite/micro/kernels/cmsis_nn/pooling.cpp **** 
 3004              		.loc 1 350 0
 3005 009c 45DF8DE2 		add	sp, sp, #276
 3006              		.cfi_remember_state
 3007              		.cfi_def_cfa_offset 44
 3008              		@ sp needed
 3009 00a0 028BBDEC 		vldm	sp!, {d8}
 3010              		.cfi_restore 80
 3011              		.cfi_restore 81
 3012              		.cfi_def_cfa_offset 36
 3013 00a4 F08FBDE8 		pop	{r4, r5, r6, r7, r8, r9, r10, fp, pc}
 3014              	.LVL266:
 3015              	.L550:
 3016              		.cfi_restore_state
 3017              	.LBB1248:
 3018              	.LBB1249:
  83:../src/tensorflow_lite/src/tensorflow/lite/micro/kernels/cmsis_nn/pooling.cpp ****                            &activation_max);
 3019              		.loc 1 83 0
 3020 00a8 1430D6E5 		ldrb	r3, [r6, #20]	@ zero_extendqisi2
 3021 00ac 041097E8 		ldm	r7, {r2, ip}
 3022              	.LVL267:
 3023              	.LBB1250:
 3024              	.LBB1251:
 256:C:/Renesas/e2studio_2021_01_workspace_RZA2M_ANPR/ANPR_RZA2M_RDK/src/tensorflow_lite/src/tensorflow/lite/kernels\kernel_util.h ****     *activation_min = 0;
 3025              		.loc 3 256 0
 3026 00b0 010053E3 		cmp	r3, #1
 3027 00b4 8A02000A 		beq	.L465
 259:C:/Renesas/e2studio_2021_01_workspace_RZA2M_ANPR/ANPR_RZA2M_RDK/src/tensorflow_lite/src/tensorflow/lite/kernels\kernel_util.h ****     *activation_min = 0;
 3028              		.loc 3 259 0
 3029 00b8 030053E3 		cmp	r3, #3
 3030 00bc 7801000A 		beq	.L466
 264:C:/Renesas/e2studio_2021_01_workspace_RZA2M_ANPR/ANPR_RZA2M_RDK/src/tensorflow_lite/src/tensorflow/lite/kernels\kernel_util.h ****   } else {
 3031              		.loc 3 264 0
 3032 00c0 A78ADFED 		vldr.32	s17, .L577
 3033 00c4 020053E3 		cmp	r3, #2
 3034 00c8 A68A9FED 		vldr.32	s16, .L577+4
 3035 00cc 007AB7EE 		vmov.f32	s14, #1.0e+0
 3036 00d0 007AFFEE 		vmov.f32	s15, #-1.0e+0
 3037 00d4 478AF00E 		vmoveq.f32	s17, s14
 3038 00d8 678AB00E 		vmoveq.f32	s16, s15
 3039              	.L362:
 3040              	.LVL268:
 3041              	.LBE1251:
 3042              	.LBE1250:
  91:../src/tensorflow_lite/src/tensorflow/lite/micro/kernels/cmsis_nn/pooling.cpp ****   op_params.padding_values.width = data.padding.width;
 3043              		.loc 1 91 0
 3044 00dc 7C30BFE6 		sxth	r3, ip
  95:../src/tensorflow_lite/src/tensorflow/lite/micro/kernels/cmsis_nn/pooling.cpp ****                              tflite::micro::GetTensorData<float>(input),
 3045              		.loc 1 95 0
 3046 00e0 0510A0E1 		mov	r1, r5
 3047 00e4 E0008DE2 		add	r0, sp, #224
  91:../src/tensorflow_lite/src/tensorflow/lite/micro/kernels/cmsis_nn/pooling.cpp ****   op_params.padding_values.width = data.padding.width;
 3048              		.loc 1 91 0
 3049 00e8 74308DE5 		str	r3, [sp, #116]
  92:../src/tensorflow_lite/src/tensorflow/lite/micro/kernels/cmsis_nn/pooling.cpp ****   op_params.float_activation_min = activation_min;
 3050              		.loc 1 92 0
 3051 00ec 7230BFE6 		sxth	r3, r2
 3052 00f0 78308DE5 		str	r3, [sp, #120]
  87:../src/tensorflow_lite/src/tensorflow/lite/micro/kernels/cmsis_nn/pooling.cpp ****   op_params.stride_width = params->stride_width;
 3053              		.loc 1 87 0
 3054 00f4 083096E5 		ldr	r3, [r6, #8]
 3055 00f8 7C308DE5 		str	r3, [sp, #124]
 3056              	.LVL269:
  88:../src/tensorflow_lite/src/tensorflow/lite/micro/kernels/cmsis_nn/pooling.cpp ****   op_params.filter_height = params->filter_height;
 3057              		.loc 1 88 0
 3058 00fc 043096E5 		ldr	r3, [r6, #4]
 3059              	.LVL270:
 3060 0100 80308DE5 		str	r3, [sp, #128]
 3061              	.LVL271:
  89:../src/tensorflow_lite/src/tensorflow/lite/micro/kernels/cmsis_nn/pooling.cpp ****   op_params.filter_width = params->filter_width;
 3062              		.loc 1 89 0
 3063 0104 103096E5 		ldr	r3, [r6, #16]
 3064              	.LVL272:
 3065 0108 70308DE5 		str	r3, [sp, #112]
 3066              	.LVL273:
  90:../src/tensorflow_lite/src/tensorflow/lite/micro/kernels/cmsis_nn/pooling.cpp ****   op_params.padding_values.height = data.padding.height;
 3067              		.loc 1 90 0
 3068 010c 0C3096E5 		ldr	r3, [r6, #12]
 3069              	.LVL274:
 3070 0110 68308DE5 		str	r3, [sp, #104]
 3071              	.LVL275:
  95:../src/tensorflow_lite/src/tensorflow/lite/micro/kernels/cmsis_nn/pooling.cpp ****                              tflite::micro::GetTensorData<float>(input),
 3072              		.loc 1 95 0
 3073 0114 FEFFFFEB 		bl	_ZN6tflite5micro14GetTensorShapeEPK16TfLiteEvalTensor
 3074              	.LVL276:
 3075              	.LEHE27:
  97:../src/tensorflow_lite/src/tensorflow/lite/micro/kernels/cmsis_nn/pooling.cpp ****                              tflite::micro::GetTensorData<float>(output));
 3076              		.loc 1 97 0
 3077 0118 0410A0E1 		mov	r1, r4
 3078 011c F8008DE2 		add	r0, sp, #248
 3079              	.LBB1254:
 3080              	.LBB1255:
 3081              		.loc 4 63 0
 3082 0120 009095E5 		ldr	r9, [r5]
 3083              	.LVL277:
 3084              	.LEHB28:
 3085              	.LBE1255:
 3086              	.LBE1254:
  97:../src/tensorflow_lite/src/tensorflow/lite/micro/kernels/cmsis_nn/pooling.cpp ****                              tflite::micro::GetTensorData<float>(output));
 3087              		.loc 1 97 0
 3088 0124 FEFFFFEB 		bl	_ZN6tflite5micro14GetTensorShapeEPK16TfLiteEvalTensor
 3089              	.LVL278:
 3090              	.LEHE28:
 3091              	.LBB1256:
 3092              	.LBB1257:
  30:C:/Renesas/e2studio_2021_01_workspace_RZA2M_ANPR/ANPR_RZA2M_RDK/src/tensorflow_lite/src/tensorflow/lite/kernels/internal/reference\pooling.h ****   TFLITE_DCHECK_EQ(output_shape.DimensionsCount(), 4);
 3093              		.loc 5 30 0
 3094 0128 E0309DE5 		ldr	r3, [sp, #224]
 3095              	.LBE1257:
 3096              	.LBE1256:
 3097              	.LBB1362:
 3098              	.LBB1363:
  56:C:/Renesas/e2studio_2021_01_workspace_RZA2M_ANPR/ANPR_RZA2M_RDK/src/tensorflow_lite/src/tensorflow/lite/micro/kernels\kernel_util.h **** }
 3099              		.loc 4 56 0
 3100 012c 000054E3 		cmp	r4, #0
 3101 0130 00209415 		ldrne	r2, [r4]
 3102 0134 0420A001 		moveq	r2, r4
 3103              	.LVL279:
 3104              	.LBE1363:
 3105              	.LBE1362:
 3106              	.LBB1364:
 3107              	.LBB1356:
  30:C:/Renesas/e2studio_2021_01_workspace_RZA2M_ANPR/ANPR_RZA2M_RDK/src/tensorflow_lite/src/tensorflow/lite/kernels/internal/reference\pooling.h ****   TFLITE_DCHECK_EQ(output_shape.DimensionsCount(), 4);
 3108              		.loc 5 30 0
 3109 0138 040053E3 		cmp	r3, #4
 3110 013c 8802001A 		bne	.L551
 3111              	.LVL280:
  31:C:/Renesas/e2studio_2021_01_workspace_RZA2M_ANPR/ANPR_RZA2M_RDK/src/tensorflow_lite/src/tensorflow/lite/kernels/internal/reference\pooling.h ****   const int batches = MatchingDim(input_shape, 0, output_shape, 0);
 3112              		.loc 5 31 0
 3113 0140 F8309DE5 		ldr	r3, [sp, #248]
 3114 0144 040053E3 		cmp	r3, #4
 3115 0148 8402001A 		bne	.L552
 3116              	.LVL281:
 3117              	.LBB1258:
 3118              	.LBB1259:
 3119              	.LBB1260:
 3120              	.LBB1261:
 216:C:/Renesas/e2studio_2021_01_workspace_RZA2M_ANPR/ANPR_RZA2M_RDK/src/tensorflow_lite/src/tensorflow/lite/kernels/internal\types.h ****   }
 3121              		.loc 6 216 0
 3122 014c E4309DE5 		ldr	r3, [sp, #228]
 3123              	.LBE1261:
 3124              	.LBE1260:
 3125              	.LBB1263:
 3126              	.LBB1264:
 3127 0150 FC109DE5 		ldr	r1, [sp, #252]
 3128              	.LBE1264:
 3129              	.LBE1263:
 3130              	.LBB1266:
 3131              	.LBB1262:
 3132 0154 34308DE5 		str	r3, [sp, #52]
 3133              	.LVL282:
 3134              	.LBE1262:
 3135              	.LBE1266:
 3136              		.loc 6 472 0
 3137 0158 010053E1 		cmp	r3, r1
 3138              	.LBB1267:
 3139              	.LBB1265:
 216:C:/Renesas/e2studio_2021_01_workspace_RZA2M_ANPR/ANPR_RZA2M_RDK/src/tensorflow_lite/src/tensorflow/lite/kernels/internal\types.h ****   }
 3140              		.loc 6 216 0
 3141 015c 20108DE5 		str	r1, [sp, #32]
 3142              	.LVL283:
 3143              	.LBE1265:
 3144              	.LBE1267:
 3145              		.loc 6 472 0
 3146 0160 9502001A 		bne	.L553
 3147              	.LVL284:
 3148              	.LBE1259:
 3149              	.LBE1258:
 3150              	.LBB1269:
 3151              	.LBB1270:
 3152              	.LBB1271:
 3153              	.LBB1272:
 216:C:/Renesas/e2studio_2021_01_workspace_RZA2M_ANPR/ANPR_RZA2M_RDK/src/tensorflow_lite/src/tensorflow/lite/kernels/internal\types.h ****   }
 3154              		.loc 6 216 0
 3155 0164 F0B09DE5 		ldr	fp, [sp, #240]
 3156              	.LVL285:
 3157              	.LBE1272:
 3158              	.LBE1271:
 3159              	.LBB1273:
 3160              	.LBB1274:
 3161 0168 08819DE5 		ldr	r8, [sp, #264]
 3162              	.LVL286:
 3163              	.LBE1274:
 3164              	.LBE1273:
 3165              		.loc 6 472 0
 3166 016c 08005BE1 		cmp	fp, r8
 3167 0170 9202001A 		bne	.L554
 3168              	.LVL287:
 3169              	.LBE1270:
 3170              	.LBE1269:
 3171              	.LBB1276:
  40:C:/Renesas/e2studio_2021_01_workspace_RZA2M_ANPR/ANPR_RZA2M_RDK/src/tensorflow_lite/src/tensorflow/lite/kernels/internal/reference\pooling.h ****     for (int out_y = 0; out_y < output_height; ++out_y) {
 3172              		.loc 5 40 0
 3173 0174 000053E3 		cmp	r3, #0
 3174              	.LBE1276:
 3175              	.LBB1339:
 3176              	.LBB1340:
 216:C:/Renesas/e2studio_2021_01_workspace_RZA2M_ANPR/ANPR_RZA2M_RDK/src/tensorflow_lite/src/tensorflow/lite/kernels/internal\types.h ****   }
 3177              		.loc 6 216 0
 3178 0178 E8309DE5 		ldr	r3, [sp, #232]
 3179              	.LBE1340:
 3180              	.LBE1339:
 3181              	.LBB1342:
 3182              	.LBB1343:
 3183 017c ECA09DE5 		ldr	r10, [sp, #236]
 3184              	.LBE1343:
 3185              	.LBE1342:
 3186              	.LBB1344:
 3187              	.LBB1341:
 3188 0180 18308DE5 		str	r3, [sp, #24]
 3189              	.LVL288:
 3190              	.LBE1341:
 3191              	.LBE1344:
 3192              	.LBB1345:
 3193              	.LBB1346:
 3194 0184 00319DE5 		ldr	r3, [sp, #256]
 3195 0188 2C308DE5 		str	r3, [sp, #44]
 3196              	.LVL289:
 3197              	.LBE1346:
 3198              	.LBE1345:
 3199              	.LBB1347:
 3200              	.LBB1348:
 3201 018c 04319DE5 		ldr	r3, [sp, #260]
 3202 0190 30308DE5 		str	r3, [sp, #48]
 3203              	.LVL290:
 3204              	.LBE1348:
 3205              	.LBE1347:
 3206              	.LBB1349:
  40:C:/Renesas/e2studio_2021_01_workspace_RZA2M_ANPR/ANPR_RZA2M_RDK/src/tensorflow_lite/src/tensorflow/lite/kernels/internal/reference\pooling.h ****     for (int out_y = 0; out_y < output_height; ++out_y) {
 3207              		.loc 5 40 0
 3208 0194 330100DA 		ble	.L453
 3209 0198 2C009DE5 		ldr	r0, [sp, #44]
 3210 019c 0310A0E1 		mov	r1, r3
 3211 01a0 60208DE5 		str	r2, [sp, #96]
 3212 01a4 910B02E0 		mul	r2, r1, fp
 3213              	.LVL291:
 3214 01a8 0BC1A0E1 		lsl	ip, fp, #2
 3215              	.LBB1277:
 3216              	.LBB1278:
 3217              	.LBB1279:
 3218              	.LBB1280:
 3219              	.LBB1281:
 3220              	.LBB1282:
 3221              	.LBB1283:
  66:C:/Renesas/e2studio_2021_01_workspace_RZA2M_ANPR/ANPR_RZA2M_RDK/src/tensorflow_lite/src/tensorflow/lite/kernels/internal/reference\pooling.h ****             }
 3222              		.loc 5 66 0
 3223 01ac 006AB7EE 		vmov.f32	s12, #1.0e+0
 3224 01b0 930003E0 		mul	r3, r3, r0
 3225              	.LBE1283:
 3226              	.LBE1282:
 3227              	.LBE1281:
 3228              	.LBE1280:
 3229              	.LBE1279:
 3230              	.LBE1278:
 3231              	.LBE1277:
  40:C:/Renesas/e2studio_2021_01_workspace_RZA2M_ANPR/ANPR_RZA2M_RDK/src/tensorflow_lite/src/tensorflow/lite/kernels/internal/reference\pooling.h ****     for (int out_y = 0; out_y < output_height; ++out_y) {
 3232              		.loc 5 40 0
 3233 01b4 0000A0E3 		mov	r0, #0
 3234 01b8 64008DE5 		str	r0, [sp, #100]
 3235 01bc 84C08DE5 		str	ip, [sp, #132]
 3236 01c0 14008DE5 		str	r0, [sp, #20]
 3237 01c4 0331A0E1 		lsl	r3, r3, #2
 3238 01c8 9B0303E0 		mul	r3, fp, r3
 3239 01cc 8C308DE5 		str	r3, [sp, #140]
 3240 01d0 0231A0E1 		lsl	r3, r2, #2
 3241 01d4 0B20A0E1 		mov	r2, fp
 3242 01d8 88308DE5 		str	r3, [sp, #136]
 3243 01dc 0A30A0E1 		mov	r3, r10
 3244 01e0 09B0A0E1 		mov	fp, r9
 3245 01e4 08A0A0E1 		mov	r10, r8
 3246 01e8 0290A0E1 		mov	r9, r2
 3247              	.LVL292:
 3248 01ec 0380A0E1 		mov	r8, r3
 3249              	.LVL293:
 3250              	.L372:
 3251              	.LBB1334:
  41:C:/Renesas/e2studio_2021_01_workspace_RZA2M_ANPR/ANPR_RZA2M_RDK/src/tensorflow_lite/src/tensorflow/lite/kernels/internal/reference\pooling.h ****       for (int out_x = 0; out_x < output_width; ++out_x) {
 3252              		.loc 5 41 0
 3253 01f0 2C309DE5 		ldr	r3, [sp, #44]
 3254 01f4 000053E3 		cmp	r3, #0
 3255 01f8 AC0000DA 		ble	.L374
 3256 01fc 74309DE5 		ldr	r3, [sp, #116]
 3257 0200 002063E2 		rsb	r2, r3, #0
 3258 0204 28208DE5 		str	r2, [sp, #40]
 3259 0208 18209DE5 		ldr	r2, [sp, #24]
 3260 020c 023083E0 		add	r3, r3, r2
 3261 0210 5C308DE5 		str	r3, [sp, #92]
 3262 0214 60309DE5 		ldr	r3, [sp, #96]
 3263 0218 58308DE5 		str	r3, [sp, #88]
 3264 021c 0030A0E3 		mov	r3, #0
 3265 0220 48308DE5 		str	r3, [sp, #72]
 3266              	.LVL294:
 3267              	.L375:
 3268              	.LBB1329:
  42:C:/Renesas/e2studio_2021_01_workspace_RZA2M_ANPR/ANPR_RZA2M_RDK/src/tensorflow_lite/src/tensorflow/lite/kernels/internal/reference\pooling.h ****         for (int channel = 0; channel < depth; ++channel) {
 3269              		.loc 5 42 0
 3270 0224 30309DE5 		ldr	r3, [sp, #48]
 3271 0228 000053E3 		cmp	r3, #0
 3272 022c 8E0000DA 		ble	.L377
 3273 0230 28109DE5 		ldr	r1, [sp, #40]
 3274 0234 64C09DE5 		ldr	ip, [sp, #100]
 3275 0238 70009DE5 		ldr	r0, [sp, #112]
 3276 023c 5C209DE5 		ldr	r2, [sp, #92]
 3277 0240 0C3081E0 		add	r3, r1, ip
 3278 0244 18C09DE5 		ldr	ip, [sp, #24]
 3279 0248 000052E1 		cmp	r2, r0
 3280 024c 0200A0B1 		movlt	r0, r2
 3281 0250 000051E3 		cmp	r1, #0
 3282 0254 0C2042B0 		sublt	r2, r2, ip
 3283 0258 0020A0A3 		movge	r2, #0
 3284 025c 011080E0 		add	r1, r0, r1
 3285 0260 023083E0 		add	r3, r3, r2
 3286 0264 38208DE5 		str	r2, [sp, #56]
 3287 0268 980303E0 		mul	r3, r8, r3
 3288 026c 78209DE5 		ldr	r2, [sp, #120]
 3289 0270 1C108DE5 		str	r1, [sp, #28]
 3290 0274 3C008DE5 		str	r0, [sp, #60]
 3291 0278 081082E0 		add	r1, r2, r8
 3292 027c 6C308DE5 		str	r3, [sp, #108]
 3293 0280 003062E2 		rsb	r3, r2, #0
 3294 0284 50308DE5 		str	r3, [sp, #80]
 3295 0288 58309DE5 		ldr	r3, [sp, #88]
 3296 028c 54108DE5 		str	r1, [sp, #84]
 3297 0290 4C308DE5 		str	r3, [sp, #76]
 3298 0294 0030A0E3 		mov	r3, #0
 3299 0298 44308DE5 		str	r3, [sp, #68]
 3300              	.LVL295:
 3301              	.L378:
 3302              	.LBB1324:
  43:C:/Renesas/e2studio_2021_01_workspace_RZA2M_ANPR/ANPR_RZA2M_RDK/src/tensorflow_lite/src/tensorflow/lite/kernels/internal/reference\pooling.h ****           const int in_x_origin =
 3303              		.loc 5 43 0
 3304 029c 000059E3 		cmp	r9, #0
 3305 02a0 600000DA 		ble	.L396
 3306 02a4 54309DE5 		ldr	r3, [sp, #84]
 3307              	.LBB1317:
 3308              	.LBB1295:
 3309              	.LBB1292:
 3310              	.LBB1288:
  62:C:/Renesas/e2studio_2021_01_workspace_RZA2M_ANPR/ANPR_RZA2M_RDK/src/tensorflow_lite/src/tensorflow/lite/kernels/internal/reference\pooling.h ****               const int in_y = in_y_origin + filter_y;
 3311              		.loc 5 62 0
 3312 02a8 0000A0E3 		mov	r0, #0
 3313 02ac 68109DE5 		ldr	r1, [sp, #104]
 3314 02b0 50209DE5 		ldr	r2, [sp, #80]
 3315 02b4 010053E1 		cmp	r3, r1
 3316 02b8 0370A0B1 		movlt	r7, r3
 3317 02bc 0170A0A1 		movge	r7, r1
 3318 02c0 000052E3 		cmp	r2, #0
 3319 02c4 01C042E2 		sub	ip, r2, #1
 3320 02c8 086043B0 		sublt	r6, r3, r8
 3321 02cc 0060A0A3 		movge	r6, #0
 3322 02d0 4C309DE5 		ldr	r3, [sp, #76]
 3323 02d4 025086E0 		add	r5, r6, r2
 3324 02d8 07C08CE0 		add	ip, ip, r7
 3325 02dc 24308DE5 		str	r3, [sp, #36]
 3326 02e0 6C309DE5 		ldr	r3, [sp, #108]
 3327 02e4 033085E0 		add	r3, r5, r3
 3328 02e8 40308DE5 		str	r3, [sp, #64]
 3329              	.LVL296:
 3330              	.L397:
 3331              	.LBE1288:
 3332              	.LBE1292:
  58:C:/Renesas/e2studio_2021_01_workspace_RZA2M_ANPR/ANPR_RZA2M_RDK/src/tensorflow_lite/src/tensorflow/lite/kernels/internal/reference\pooling.h ****                ++filter_y) {
 3333              		.loc 5 58 0
 3334 02ec 38309DE5 		ldr	r3, [sp, #56]
 3335 02f0 3C209DE5 		ldr	r2, [sp, #60]
 3336              	.LBE1295:
  57:C:/Renesas/e2studio_2021_01_workspace_RZA2M_ANPR/ANPR_RZA2M_RDK/src/tensorflow_lite/src/tensorflow/lite/kernels/internal/reference\pooling.h ****           for (int filter_y = filter_y_start; filter_y < filter_y_end;
 3337              		.loc 5 57 0
 3338 02f4 1C7ADFED 		vldr.32	s15, .L577+8
 3339              	.LBB1296:
  58:C:/Renesas/e2studio_2021_01_workspace_RZA2M_ANPR/ANPR_RZA2M_RDK/src/tensorflow_lite/src/tensorflow/lite/kernels/internal/reference\pooling.h ****                ++filter_y) {
 3340              		.loc 5 58 0
 3341 02f8 020053E1 		cmp	r3, r2
 3342 02fc EB0000AA 		bge	.L469
 3343 0300 28209DE5 		ldr	r2, [sp, #40]
 3344 0304 40409DE5 		ldr	r4, [sp, #64]
 3345 0308 677AB0EE 		vmov.f32	s14, s15
 3346 030c 03E082E0 		add	lr, r2, r3
 3347              	.LVL297:
 3348              	.L389:
 3349              	.LBB1293:
  60:C:/Renesas/e2studio_2021_01_workspace_RZA2M_ANPR/ANPR_RZA2M_RDK/src/tensorflow_lite/src/tensorflow/lite/kernels/internal/reference\pooling.h ****                  ++filter_x) {
 3350              		.loc 5 60 0
 3351 0310 070056E1 		cmp	r6, r7
 3352 0314 220000AA 		bge	.L380
 3353              	.LVL298:
 3354              	.LBB1289:
 3355              	.LBB1284:
 3356              	.LBB1285:
 406:C:/Renesas/e2studio_2021_01_workspace_RZA2M_ANPR/ANPR_RZA2M_RDK/src/tensorflow_lite/src/tensorflow/lite/kernels/internal\types.h ****   TFLITE_DCHECK(i1 >= 0 && i1 < dims_data[1]);
 3357              		.loc 6 406 0
 3358 0318 20309DE5 		ldr	r3, [sp, #32]
 3359 031c 14209DE5 		ldr	r2, [sp, #20]
 3360 0320 020053E1 		cmp	r3, r2
 3361 0324 F40100DA 		ble	.L381
 407:C:/Renesas/e2studio_2021_01_workspace_RZA2M_ANPR/ANPR_RZA2M_RDK/src/tensorflow_lite/src/tensorflow/lite/kernels/internal\types.h ****   TFLITE_DCHECK(i2 >= 0 && i2 < dims_data[2]);
 3362              		.loc 6 407 0
 3363 0328 00005EE3 		cmp	lr, #0
 3364 032c F10100BA 		blt	.L382
 3365 0330 18309DE5 		ldr	r3, [sp, #24]
 3366 0334 0E0053E1 		cmp	r3, lr
 3367 0338 EE0100DA 		ble	.L382
 408:C:/Renesas/e2studio_2021_01_workspace_RZA2M_ANPR/ANPR_RZA2M_RDK/src/tensorflow_lite/src/tensorflow/lite/kernels/internal\types.h ****   TFLITE_DCHECK(i3 >= 0 && i3 < dims_data[3]);
 3368              		.loc 6 408 0
 3369 033c 000055E3 		cmp	r5, #0
 3370 0340 EB0100BA 		blt	.L383
 3371 0344 050058E1 		cmp	r8, r5
 3372 0348 E90100DA 		ble	.L383
 409:C:/Renesas/e2studio_2021_01_workspace_RZA2M_ANPR/ANPR_RZA2M_RDK/src/tensorflow_lite/src/tensorflow/lite/kernels/internal\types.h ****   return ((i0 * dims_data[1] + i1) * dims_data[2] + i2) * dims_data[3] + i3;
 3373              		.loc 6 409 0
 3374 034c 00005AE1 		cmp	r10, r0
 3375 0350 E60100DA 		ble	.L555
 3376 0354 0520A0E1 		mov	r2, r5
 3377 0358 0410A0E1 		mov	r1, r4
 3378 035c 0930A0E1 		mov	r3, r9
 3379 0360 080000EA 		b	.L387
 3380              	.L578:
 3381              		.align	2
 3382              	.L577:
 3383 0364 FFFF7F7F 		.word	2139095039
 3384 0368 FFFF7FFF 		.word	-8388609
 3385 036c 00000000 		.word	0
 3386              	.LVL299:
 3387              	.L388:
 408:C:/Renesas/e2studio_2021_01_workspace_RZA2M_ANPR/ANPR_RZA2M_RDK/src/tensorflow_lite/src/tensorflow/lite/kernels/internal\types.h ****   TFLITE_DCHECK(i3 >= 0 && i3 < dims_data[3]);
 3388              		.loc 6 408 0
 3389 0370 012092E2 		adds	r2, r2, #1
 3390 0374 DE01004A 		bmi	.L383
 3391 0378 020058E1 		cmp	r8, r2
 3392 037c 011081E2 		add	r1, r1, #1
 3393 0380 DB0100DA 		ble	.L383
 3394 0384 0A30A0E1 		mov	r3, r10
 3395              	.L387:
 3396              	.LVL300:
 3397              	.LBE1285:
 3398              	.LBE1284:
  65:C:/Renesas/e2studio_2021_01_workspace_RZA2M_ANPR/ANPR_RZA2M_RDK/src/tensorflow_lite/src/tensorflow/lite/kernels/internal/reference\pooling.h ****               filter_count++;
 3399              		.loc 5 65 0
 3400 0388 930123E0 		mla	r3, r3, r1, r0
  66:C:/Renesas/e2studio_2021_01_workspace_RZA2M_ANPR/ANPR_RZA2M_RDK/src/tensorflow_lite/src/tensorflow/lite/kernels/internal/reference\pooling.h ****             }
 3401              		.loc 5 66 0
 3402 038c 867A77EE 		vadd.f32	s15, s15, s12
 3403              	.LVL301:
 3404              	.LBE1289:
  60:C:/Renesas/e2studio_2021_01_workspace_RZA2M_ANPR/ANPR_RZA2M_RDK/src/tensorflow_lite/src/tensorflow/lite/kernels/internal/reference\pooling.h ****                  ++filter_x) {
 3405              		.loc 5 60 0
 3406 0390 0C0052E1 		cmp	r2, ip
 3407              	.LBB1290:
  65:C:/Renesas/e2studio_2021_01_workspace_RZA2M_ANPR/ANPR_RZA2M_RDK/src/tensorflow_lite/src/tensorflow/lite/kernels/internal/reference\pooling.h ****               filter_count++;
 3408              		.loc 5 65 0
 3409 0394 03318BE0 		add	r3, fp, r3, lsl #2
  64:C:/Renesas/e2studio_2021_01_workspace_RZA2M_ANPR/ANPR_RZA2M_RDK/src/tensorflow_lite/src/tensorflow/lite/kernels/internal/reference\pooling.h ****                   input_data[Offset(input_shape, batch, in_y, in_x, channel)];
 3410              		.loc 5 64 0
 3411 0398 006AD3ED 		vldr.32	s13, [r3]
 3412 039c 267A37EE 		vadd.f32	s14, s14, s13
 3413              	.LVL302:
 3414              	.LBE1290:
  60:C:/Renesas/e2studio_2021_01_workspace_RZA2M_ANPR/ANPR_RZA2M_RDK/src/tensorflow_lite/src/tensorflow/lite/kernels/internal/reference\pooling.h ****                  ++filter_x) {
 3415              		.loc 5 60 0
 3416 03a0 F2FFFF1A 		bne	.L388
 3417              	.LVL303:
 3418              	.L380:
 3419              	.LBE1293:
  58:C:/Renesas/e2studio_2021_01_workspace_RZA2M_ANPR/ANPR_RZA2M_RDK/src/tensorflow_lite/src/tensorflow/lite/kernels/internal/reference\pooling.h ****                ++filter_y) {
 3420              		.loc 5 58 0
 3421 03a4 1C309DE5 		ldr	r3, [sp, #28]
 3422 03a8 01E08EE2 		add	lr, lr, #1
 3423 03ac 084084E0 		add	r4, r4, r8
 3424 03b0 0E0053E1 		cmp	r3, lr
 3425 03b4 D5FFFF1A 		bne	.L389
 3426              	.LVL304:
 3427              	.L379:
 3428              	.LBE1296:
 3429              	.LBB1297:
 3430              	.LBB1298:
 406:C:/Renesas/e2studio_2021_01_workspace_RZA2M_ANPR/ANPR_RZA2M_RDK/src/tensorflow_lite/src/tensorflow/lite/kernels/internal\types.h ****   TFLITE_DCHECK(i1 >= 0 && i1 < dims_data[1]);
 3431              		.loc 6 406 0
 3432 03b8 34309DE5 		ldr	r3, [sp, #52]
 3433 03bc 14209DE5 		ldr	r2, [sp, #20]
 3434              	.LBE1298:
 3435              	.LBE1297:
  69:C:/Renesas/e2studio_2021_01_workspace_RZA2M_ANPR/ANPR_RZA2M_RDK/src/tensorflow_lite/src/tensorflow/lite/kernels/internal/reference\pooling.h ****           output_data[Offset(output_shape, batch, out_y, out_x, channel)] =
 3436              		.loc 5 69 0
 3437 03c0 276AC7EE 		vdiv.f32	s13, s14, s15
 3438              	.LVL305:
 3439              	.LBB1302:
 3440              	.LBB1299:
 406:C:/Renesas/e2studio_2021_01_workspace_RZA2M_ANPR/ANPR_RZA2M_RDK/src/tensorflow_lite/src/tensorflow/lite/kernels/internal\types.h ****   TFLITE_DCHECK(i1 >= 0 && i1 < dims_data[1]);
 3441              		.loc 6 406 0
 3442 03c4 020053E1 		cmp	r3, r2
 3443 03c8 E30100DA 		ble	.L556
 3444              	.LVL306:
 407:C:/Renesas/e2studio_2021_01_workspace_RZA2M_ANPR/ANPR_RZA2M_RDK/src/tensorflow_lite/src/tensorflow/lite/kernels/internal\types.h ****   TFLITE_DCHECK(i2 >= 0 && i2 < dims_data[2]);
 3445              		.loc 6 407 0
 3446 03cc 2C309DE5 		ldr	r3, [sp, #44]
 3447 03d0 48209DE5 		ldr	r2, [sp, #72]
 3448 03d4 020053E1 		cmp	r3, r2
 3449 03d8 EB0100DA 		ble	.L557
 408:C:/Renesas/e2studio_2021_01_workspace_RZA2M_ANPR/ANPR_RZA2M_RDK/src/tensorflow_lite/src/tensorflow/lite/kernels/internal\types.h ****   TFLITE_DCHECK(i3 >= 0 && i3 < dims_data[3]);
 3450              		.loc 6 408 0
 3451 03dc 30309DE5 		ldr	r3, [sp, #48]
 3452 03e0 44209DE5 		ldr	r2, [sp, #68]
 3453 03e4 020053E1 		cmp	r3, r2
 3454 03e8 E60100DA 		ble	.L558
 409:C:/Renesas/e2studio_2021_01_workspace_RZA2M_ANPR/ANPR_RZA2M_RDK/src/tensorflow_lite/src/tensorflow/lite/kernels/internal\types.h ****   return ((i0 * dims_data[1] + i1) * dims_data[2] + i2) * dims_data[3] + i3;
 3455              		.loc 6 409 0
 3456 03ec 000059E1 		cmp	r9, r0
 3457 03f0 E301000A 		beq	.L559
 3458              	.LVL307:
 3459              	.LBE1299:
 3460              	.LBE1302:
 3461              	.LBB1303:
 3462              	.LBB1304:
 3463              	.LBB1305:
 226:c:\program files (x86)\gnu tools arm embedded\6 2017-q2-update\arm-none-eabi\include\c++\6.3.1\bits\stl_algobase.h ****       return __a;
 3464              		.loc 7 226 0
 3465 03f4 E68AB4EE 		vcmpe.f32	s16, s13
 3466              	.LBE1305:
 3467              	.LBE1304:
 3468              	.LBE1303:
 3469              	.LBE1317:
  43:C:/Renesas/e2studio_2021_01_workspace_RZA2M_ANPR/ANPR_RZA2M_RDK/src/tensorflow_lite/src/tensorflow/lite/kernels/internal/reference\pooling.h ****           const int in_x_origin =
 3470              		.loc 5 43 0
 3471 03f8 010080E2 		add	r0, r0, #1
 3472              	.LVL308:
 3473              	.LBB1318:
 3474              	.LBB1312:
 3475              	.LBB1307:
 3476              	.LBB1306:
 3477              		.loc 7 226 0
 3478 03fc 10FAF1EE 		vmrs	APSR_nzcv, FPSCR
 3479 0400 667AF0DE 		vmovle.f32	s15, s13
 3480 0404 487AF0CE 		vmovgt.f32	s15, s16
 3481              	.LVL309:
 3482              	.LBE1306:
 3483              	.LBE1307:
 3484              	.LBB1308:
 3485              	.LBB1309:
 201:c:\program files (x86)\gnu tools arm embedded\6 2017-q2-update\arm-none-eabi\include\c++\6.3.1\bits\stl_algobase.h ****       return __a;
 3486              		.loc 7 201 0
 3487 0408 678AF4EE 		vcmp.f32	s17, s15
 3488 040c 10FAF1EE 		vmrs	APSR_nzcv, FPSCR
 3489              	.LBE1309:
 3490              	.LBE1308:
 3491              	.LBE1312:
  70:C:/Renesas/e2studio_2021_01_workspace_RZA2M_ANPR/ANPR_RZA2M_RDK/src/tensorflow_lite/src/tensorflow/lite/kernels/internal/reference\pooling.h ****               ActivationFunctionWithMinMax(average, params.float_activation_min,
 3492              		.loc 5 70 0
 3493 0410 24309DE5 		ldr	r3, [sp, #36]
 3494              	.LBB1313:
 3495              	.LBB1311:
 3496              	.LBB1310:
 201:c:\program files (x86)\gnu tools arm embedded\6 2017-q2-update\arm-none-eabi\include\c++\6.3.1\bits\stl_algobase.h ****       return __a;
 3497              		.loc 7 201 0
 3498 0414 687AF04E 		vmovmi.f32	s15, s17
 3499              	.LVL310:
 3500              	.LBE1310:
 3501              	.LBE1311:
 3502              	.LBE1313:
 3503              	.LBE1318:
  43:C:/Renesas/e2studio_2021_01_workspace_RZA2M_ANPR/ANPR_RZA2M_RDK/src/tensorflow_lite/src/tensorflow/lite/kernels/internal/reference\pooling.h ****           const int in_x_origin =
 3504              		.loc 5 43 0
 3505 0418 090050E1 		cmp	r0, r9
 3506              	.LBB1319:
  70:C:/Renesas/e2studio_2021_01_workspace_RZA2M_ANPR/ANPR_RZA2M_RDK/src/tensorflow_lite/src/tensorflow/lite/kernels/internal/reference\pooling.h ****               ActivationFunctionWithMinMax(average, params.float_activation_min,
 3507              		.loc 5 70 0
 3508 041c 017AE3EC 		vstmia.32	r3!, {s15}
 3509 0420 24308DE5 		str	r3, [sp, #36]
 3510              	.LBE1319:
  43:C:/Renesas/e2studio_2021_01_workspace_RZA2M_ANPR/ANPR_RZA2M_RDK/src/tensorflow_lite/src/tensorflow/lite/kernels/internal/reference\pooling.h ****           const int in_x_origin =
 3511              		.loc 5 43 0
 3512 0424 B0FFFF1A 		bne	.L397
 3513              	.LVL311:
 3514              	.L396:
 3515 0428 4C209DE5 		ldr	r2, [sp, #76]
 3516 042c 84109DE5 		ldr	r1, [sp, #132]
 3517              	.LBE1324:
  42:C:/Renesas/e2studio_2021_01_workspace_RZA2M_ANPR/ANPR_RZA2M_RDK/src/tensorflow_lite/src/tensorflow/lite/kernels/internal/reference\pooling.h ****         for (int channel = 0; channel < depth; ++channel) {
 3518              		.loc 5 42 0
 3519 0430 44309DE5 		ldr	r3, [sp, #68]
 3520 0434 012082E0 		add	r2, r2, r1
 3521 0438 4C208DE5 		str	r2, [sp, #76]
 3522 043c 013083E2 		add	r3, r3, #1
 3523 0440 30209DE5 		ldr	r2, [sp, #48]
 3524 0444 44308DE5 		str	r3, [sp, #68]
 3525              	.LVL312:
 3526 0448 020053E1 		cmp	r3, r2
 3527 044c 54209DE5 		ldr	r2, [sp, #84]
 3528 0450 80309DE5 		ldr	r3, [sp, #128]
 3529              	.LVL313:
 3530 0454 032042E0 		sub	r2, r2, r3
 3531 0458 54208DE5 		str	r2, [sp, #84]
 3532 045c 50209DE5 		ldr	r2, [sp, #80]
 3533 0460 033082E0 		add	r3, r2, r3
 3534 0464 50308DE5 		str	r3, [sp, #80]
 3535 0468 8BFFFF1A 		bne	.L378
 3536              	.LVL314:
 3537              	.L377:
 3538 046c 58209DE5 		ldr	r2, [sp, #88]
 3539 0470 88109DE5 		ldr	r1, [sp, #136]
 3540              	.LBE1329:
  41:C:/Renesas/e2studio_2021_01_workspace_RZA2M_ANPR/ANPR_RZA2M_RDK/src/tensorflow_lite/src/tensorflow/lite/kernels/internal/reference\pooling.h ****       for (int out_x = 0; out_x < output_width; ++out_x) {
 3541              		.loc 5 41 0
 3542 0474 48309DE5 		ldr	r3, [sp, #72]
 3543 0478 012082E0 		add	r2, r2, r1
 3544 047c 58208DE5 		str	r2, [sp, #88]
 3545 0480 013083E2 		add	r3, r3, #1
 3546 0484 2C209DE5 		ldr	r2, [sp, #44]
 3547 0488 48308DE5 		str	r3, [sp, #72]
 3548              	.LVL315:
 3549 048c 020053E1 		cmp	r3, r2
 3550 0490 28209DE5 		ldr	r2, [sp, #40]
 3551 0494 7C309DE5 		ldr	r3, [sp, #124]
 3552              	.LVL316:
 3553 0498 032082E0 		add	r2, r2, r3
 3554 049c 28208DE5 		str	r2, [sp, #40]
 3555 04a0 5C209DE5 		ldr	r2, [sp, #92]
 3556 04a4 033042E0 		sub	r3, r2, r3
 3557 04a8 5C308DE5 		str	r3, [sp, #92]
 3558 04ac 5CFFFF1A 		bne	.L375
 3559              	.LVL317:
 3560              	.L374:
 3561 04b0 60209DE5 		ldr	r2, [sp, #96]
 3562 04b4 8C109DE5 		ldr	r1, [sp, #140]
 3563              	.LBE1334:
  40:C:/Renesas/e2studio_2021_01_workspace_RZA2M_ANPR/ANPR_RZA2M_RDK/src/tensorflow_lite/src/tensorflow/lite/kernels/internal/reference\pooling.h ****     for (int out_y = 0; out_y < output_height; ++out_y) {
 3564              		.loc 5 40 0
 3565 04b8 14309DE5 		ldr	r3, [sp, #20]
 3566 04bc 012082E0 		add	r2, r2, r1
 3567 04c0 60208DE5 		str	r2, [sp, #96]
 3568 04c4 013083E2 		add	r3, r3, #1
 3569 04c8 34209DE5 		ldr	r2, [sp, #52]
 3570 04cc 14308DE5 		str	r3, [sp, #20]
 3571              	.LVL318:
 3572 04d0 020053E1 		cmp	r3, r2
 3573 04d4 64309DE5 		ldr	r3, [sp, #100]
 3574              	.LVL319:
 3575 04d8 18209DE5 		ldr	r2, [sp, #24]
 3576 04dc 023083E0 		add	r3, r3, r2
 3577 04e0 64308DE5 		str	r3, [sp, #100]
 3578 04e4 41FFFF1A 		bne	.L372
 3579 04e8 5E0000EA 		b	.L453
 3580              	.LVL320:
 3581              	.L360:
 3582              	.LBE1349:
 3583              	.LBE1356:
 3584              	.LBE1364:
 3585              	.LBE1249:
 3586              	.LBE1248:
 3587              	.LBB1377:
 3588              	.LBB1378:
 105:../src/tensorflow_lite/src/tensorflow/lite/micro/kernels/cmsis_nn/pooling.cpp **** 
 3589              		.loc 1 105 0
 3590 04ec 090050E3 		cmp	r0, #9
 3591 04f0 03005013 		cmpne	r0, #3
 3592 04f4 B201001A 		bne	.L358
 3593              	.LBB1379:
 107:../src/tensorflow_lite/src/tensorflow/lite/micro/kernels/cmsis_nn/pooling.cpp ****     PoolParams op_params;
 3594              		.loc 1 107 0
 3595 04f8 030050E3 		cmp	r0, #3
 3596              	.LBB1380:
 118:../src/tensorflow_lite/src/tensorflow/lite/micro/kernels/cmsis_nn/pooling.cpp ****                                tflite::micro::GetTensorData<uint8_t>(input),
 3597              		.loc 1 118 0
 3598 04fc 0510A0E1 		mov	r1, r5
 3599              	.LBE1380:
 107:../src/tensorflow_lite/src/tensorflow/lite/micro/kernels/cmsis_nn/pooling.cpp ****     PoolParams op_params;
 3600              		.loc 1 107 0
 3601 0500 6C00000A 		beq	.L560
 3602              	.LVL321:
 3603              	.LBB1471:
 123:../src/tensorflow_lite/src/tensorflow/lite/micro/kernels/cmsis_nn/pooling.cpp ****     TFLITE_DCHECK_EQ(input_shape.DimensionsCount(), 4);
 3604              		.loc 1 123 0
 3605 0504 C8008DE2 		add	r0, sp, #200
 3606              	.LEHB29:
 3607 0508 FEFFFFEB 		bl	_ZN6tflite5micro14GetTensorShapeEPK16TfLiteEvalTensor
 3608              	.LVL322:
 3609              	.LEHE29:
 124:../src/tensorflow_lite/src/tensorflow/lite/micro/kernels/cmsis_nn/pooling.cpp **** 
 3610              		.loc 1 124 0
 3611 050c C8309DE5 		ldr	r3, [sp, #200]
 3612 0510 040053E3 		cmp	r3, #4
 3613 0514 A601001A 		bne	.L561
 126:../src/tensorflow_lite/src/tensorflow/lite/micro/kernels/cmsis_nn/pooling.cpp ****     TFLITE_DCHECK_EQ(output_shape.DimensionsCount(), 4);
 3614              		.loc 1 126 0
 3615 0518 0410A0E1 		mov	r1, r4
 3616 051c E0008DE2 		add	r0, sp, #224
 3617              	.LEHB30:
 3618 0520 FEFFFFEB 		bl	_ZN6tflite5micro14GetTensorShapeEPK16TfLiteEvalTensor
 3619              	.LVL323:
 3620              	.LEHE30:
 127:../src/tensorflow_lite/src/tensorflow/lite/micro/kernels/cmsis_nn/pooling.cpp **** 
 3621              		.loc 1 127 0
 3622 0524 E0309DE5 		ldr	r3, [sp, #224]
 3623 0528 040053E3 		cmp	r3, #4
 3624 052c 9F01001A 		bne	.L562
 3625              	.LVL324:
 3626              	.LBB1472:
 3627              	.LBB1473:
 3628              	.LBB1474:
 3629              	.LBB1475:
 215:C:/Renesas/e2studio_2021_01_workspace_RZA2M_ANPR/ANPR_RZA2M_RDK/src/tensorflow_lite/src/tensorflow/lite/kernels/internal\types.h ****     return size_ > kMaxSmallSize ? dims_pointer_[i] : dims_[i];
 3630              		.loc 6 215 0
 3631 0530 C8309DE5 		ldr	r3, [sp, #200]
 3632 0534 030053E3 		cmp	r3, #3
 3633 0538 9E0100DA 		ble	.L563
 216:C:/Renesas/e2studio_2021_01_workspace_RZA2M_ANPR/ANPR_RZA2M_RDK/src/tensorflow_lite/src/tensorflow/lite/kernels/internal\types.h ****   }
 3634              		.loc 6 216 0
 3635 053c 050053E3 		cmp	r3, #5
 3636 0540 4C0000CA 		bgt	.L564
 3637              	.LVL325:
 3638              	.LBE1475:
 3639              	.LBE1474:
 3640              	.LBB1479:
 3641              	.LBB1480:
 3642 0544 F0309DE5 		ldr	r3, [sp, #240]
 3643              	.LVL326:
 3644              	.LBE1480:
 3645              	.LBE1479:
 3646              		.loc 6 472 0
 3647 0548 D8209DE5 		ldr	r2, [sp, #216]
 3648 054c 020053E1 		cmp	r3, r2
 3649 0550 8A01001A 		bne	.L447
 3650              	.LVL327:
 3651              	.LBE1473:
 3652              	.LBE1472:
 3653              	.LBB1487:
 3654              	.LBB1488:
 216:C:/Renesas/e2studio_2021_01_workspace_RZA2M_ANPR/ANPR_RZA2M_RDK/src/tensorflow_lite/src/tensorflow/lite/kernels/internal\types.h ****   }
 3655              		.loc 6 216 0
 3656 0554 D4009DE5 		ldr	r0, [sp, #212]
 3657              	.LBE1488:
 3658              	.LBE1487:
 132:../src/tensorflow_lite/src/tensorflow/lite/micro/kernels/cmsis_nn/pooling.cpp ****     input_dims.h = input_shape.Dims(1);
 3659              		.loc 1 132 0
 3660 0558 0110A0E3 		mov	r1, #1
 133:../src/tensorflow_lite/src/tensorflow/lite/micro/kernels/cmsis_nn/pooling.cpp ****     input_dims.w = input_shape.Dims(2);
 3661              		.loc 1 133 0
 3662 055c D0209DE5 		ldr	r2, [sp, #208]
 132:../src/tensorflow_lite/src/tensorflow/lite/micro/kernels/cmsis_nn/pooling.cpp ****     input_dims.h = input_shape.Dims(1);
 3663              		.loc 1 132 0
 3664 0560 98108DE5 		str	r1, [sp, #152]
 133:../src/tensorflow_lite/src/tensorflow/lite/micro/kernels/cmsis_nn/pooling.cpp ****     input_dims.w = input_shape.Dims(2);
 3665              		.loc 1 133 0
 3666 0564 9C208DE5 		str	r2, [sp, #156]
 3667              	.LVL328:
 3668              	.L464:
 139:../src/tensorflow_lite/src/tensorflow/lite/micro/kernels/cmsis_nn/pooling.cpp ****     output_dims.w = output_shape.Dims(2);
 3669              		.loc 1 139 0
 3670 0568 E8C09DE5 		ldr	ip, [sp, #232]
 138:../src/tensorflow_lite/src/tensorflow/lite/micro/kernels/cmsis_nn/pooling.cpp ****     output_dims.h = output_shape.Dims(1);
 3671              		.loc 1 138 0
 3672 056c 0120A0E3 		mov	r2, #1
 135:../src/tensorflow_lite/src/tensorflow/lite/micro/kernels/cmsis_nn/pooling.cpp **** 
 3673              		.loc 1 135 0
 3674 0570 A4308DE5 		str	r3, [sp, #164]
 141:../src/tensorflow_lite/src/tensorflow/lite/micro/kernels/cmsis_nn/pooling.cpp **** 
 3675              		.loc 1 141 0
 3676 0574 B4308DE5 		str	r3, [sp, #180]
 140:../src/tensorflow_lite/src/tensorflow/lite/micro/kernels/cmsis_nn/pooling.cpp ****     output_dims.c = depth;
 3677              		.loc 1 140 0
 3678 0578 EC309DE5 		ldr	r3, [sp, #236]
 139:../src/tensorflow_lite/src/tensorflow/lite/micro/kernels/cmsis_nn/pooling.cpp ****     output_dims.w = output_shape.Dims(2);
 3679              		.loc 1 139 0
 3680 057c ACC08DE5 		str	ip, [sp, #172]
 145:../src/tensorflow_lite/src/tensorflow/lite/micro/kernels/cmsis_nn/pooling.cpp ****     pool_params.padding.h = data.padding.height;
 3681              		.loc 1 145 0
 3682 0580 005096E9 		ldmib	r6, {ip, lr}
 140:../src/tensorflow_lite/src/tensorflow/lite/micro/kernels/cmsis_nn/pooling.cpp ****     output_dims.c = depth;
 3683              		.loc 1 140 0
 3684 0584 B0308DE5 		str	r3, [sp, #176]
 146:../src/tensorflow_lite/src/tensorflow/lite/micro/kernels/cmsis_nn/pooling.cpp ****     pool_params.padding.w = data.padding.width;
 3685              		.loc 1 146 0
 3686 0588 043097E5 		ldr	r3, [r7, #4]
 160:../src/tensorflow_lite/src/tensorflow/lite/micro/kernels/cmsis_nn/pooling.cpp ****       ctx.buf = context->GetScratchBuffer(context, data.buffer_idx);
 3687              		.loc 1 160 0
 3688 058c 101097E5 		ldr	r1, [r7, #16]
 145:../src/tensorflow_lite/src/tensorflow/lite/micro/kernels/cmsis_nn/pooling.cpp ****     pool_params.padding.h = data.padding.height;
 3689              		.loc 1 145 0
 3690 0590 F8C08DE5 		str	ip, [sp, #248]
 146:../src/tensorflow_lite/src/tensorflow/lite/micro/kernels/cmsis_nn/pooling.cpp ****     pool_params.padding.w = data.padding.width;
 3691              		.loc 1 146 0
 3692 0594 04318DE5 		str	r3, [sp, #260]
 147:../src/tensorflow_lite/src/tensorflow/lite/micro/kernels/cmsis_nn/pooling.cpp ****     pool_params.activation.min = data.activation_min;
 3693              		.loc 1 147 0
 3694 0598 00C097E5 		ldr	ip, [r7]
 148:../src/tensorflow_lite/src/tensorflow/lite/micro/kernels/cmsis_nn/pooling.cpp ****     pool_params.activation.max = data.activation_max;
 3695              		.loc 1 148 0
 3696 059c 143097E5 		ldr	r3, [r7, #20]
 134:../src/tensorflow_lite/src/tensorflow/lite/micro/kernels/cmsis_nn/pooling.cpp ****     input_dims.c = depth;
 3697              		.loc 1 134 0
 3698 05a0 A0008DE5 		str	r0, [sp, #160]
 158:../src/tensorflow_lite/src/tensorflow/lite/micro/kernels/cmsis_nn/pooling.cpp ****     ctx.size = 0;
 3699              		.loc 1 158 0
 3700 05a4 0000A0E3 		mov	r0, #0
 144:../src/tensorflow_lite/src/tensorflow/lite/micro/kernels/cmsis_nn/pooling.cpp ****     pool_params.stride.w = params->stride_width;
 3701              		.loc 1 144 0
 3702 05a8 FCE08DE5 		str	lr, [sp, #252]
 160:../src/tensorflow_lite/src/tensorflow/lite/micro/kernels/cmsis_nn/pooling.cpp ****       ctx.buf = context->GetScratchBuffer(context, data.buffer_idx);
 3703              		.loc 1 160 0
 3704 05ac 000051E1 		cmp	r1, r0
 149:../src/tensorflow_lite/src/tensorflow/lite/micro/kernels/cmsis_nn/pooling.cpp **** 
 3705              		.loc 1 149 0
 3706 05b0 18E097E5 		ldr	lr, [r7, #24]
 147:../src/tensorflow_lite/src/tensorflow/lite/micro/kernels/cmsis_nn/pooling.cpp ****     pool_params.activation.min = data.activation_min;
 3707              		.loc 1 147 0
 3708 05b4 00C18DE5 		str	ip, [sp, #256]
 148:../src/tensorflow_lite/src/tensorflow/lite/micro/kernels/cmsis_nn/pooling.cpp ****     pool_params.activation.max = data.activation_max;
 3709              		.loc 1 148 0
 3710 05b8 08318DE5 		str	r3, [sp, #264]
 153:../src/tensorflow_lite/src/tensorflow/lite/micro/kernels/cmsis_nn/pooling.cpp ****     filter_dims.w = params->filter_width;
 3711              		.loc 1 153 0
 3712 05bc 10C096E5 		ldr	ip, [r6, #16]
 154:../src/tensorflow_lite/src/tensorflow/lite/micro/kernels/cmsis_nn/pooling.cpp ****     filter_dims.c = 1;
 3713              		.loc 1 154 0
 3714 05c0 0C3096E5 		ldr	r3, [r6, #12]
 138:../src/tensorflow_lite/src/tensorflow/lite/micro/kernels/cmsis_nn/pooling.cpp ****     output_dims.h = output_shape.Dims(1);
 3715              		.loc 1 138 0
 3716 05c4 A8208DE5 		str	r2, [sp, #168]
 149:../src/tensorflow_lite/src/tensorflow/lite/micro/kernels/cmsis_nn/pooling.cpp **** 
 3717              		.loc 1 149 0
 3718 05c8 0CE18DE5 		str	lr, [sp, #268]
 153:../src/tensorflow_lite/src/tensorflow/lite/micro/kernels/cmsis_nn/pooling.cpp ****     filter_dims.w = params->filter_width;
 3719              		.loc 1 153 0
 3720 05cc BCC08DE5 		str	ip, [sp, #188]
 154:../src/tensorflow_lite/src/tensorflow/lite/micro/kernels/cmsis_nn/pooling.cpp ****     filter_dims.c = 1;
 3721              		.loc 1 154 0
 3722 05d0 C0308DE5 		str	r3, [sp, #192]
 152:../src/tensorflow_lite/src/tensorflow/lite/micro/kernels/cmsis_nn/pooling.cpp ****     filter_dims.h = params->filter_height;
 3723              		.loc 1 152 0
 3724 05d4 B8208DE5 		str	r2, [sp, #184]
 155:../src/tensorflow_lite/src/tensorflow/lite/micro/kernels/cmsis_nn/pooling.cpp **** 
 3725              		.loc 1 155 0
 3726 05d8 C4208DE5 		str	r2, [sp, #196]
 158:../src/tensorflow_lite/src/tensorflow/lite/micro/kernels/cmsis_nn/pooling.cpp ****     ctx.size = 0;
 3727              		.loc 1 158 0
 3728 05dc 90008DE5 		str	r0, [sp, #144]
 159:../src/tensorflow_lite/src/tensorflow/lite/micro/kernels/cmsis_nn/pooling.cpp ****     if (data.buffer_idx > -1) {
 3729              		.loc 1 159 0
 3730 05e0 94008DE5 		str	r0, [sp, #148]
 160:../src/tensorflow_lite/src/tensorflow/lite/micro/kernels/cmsis_nn/pooling.cpp ****       ctx.buf = context->GetScratchBuffer(context, data.buffer_idx);
 3731              		.loc 1 160 0
 3732 05e4 030000BA 		blt	.L449
 161:../src/tensorflow_lite/src/tensorflow/lite/micro/kernels/cmsis_nn/pooling.cpp ****     }
 3733              		.loc 1 161 0
 3734 05e8 443098E5 		ldr	r3, [r8, #68]
 3735 05ec 0800A0E1 		mov	r0, r8
 3736              	.LEHB31:
 3737 05f0 33FF2FE1 		blx	r3
 3738              	.LVL329:
 3739 05f4 90008DE5 		str	r0, [sp, #144]
 3740              	.L449:
 3741              	.LVL330:
 3742              	.LBB1490:
 3743              	.LBB1491:
  56:C:/Renesas/e2studio_2021_01_workspace_RZA2M_ANPR/ANPR_RZA2M_RDK/src/tensorflow_lite/src/tensorflow/lite/micro/kernels\kernel_util.h **** }
 3744              		.loc 4 56 0
 3745 05f8 000054E3 		cmp	r4, #0
 3746              	.LBE1491:
 3747              	.LBE1490:
 164:../src/tensorflow_lite/src/tensorflow/lite/micro/kernels/cmsis_nn/pooling.cpp ****         arm_avgpool_s8(&ctx, &pool_params, &input_dims,
 3748              		.loc 1 164 0
 3749 05fc A8008DE2 		add	r0, sp, #168
 3750              	.LBB1493:
 3751              	.LBB1492:
  56:C:/Renesas/e2studio_2021_01_workspace_RZA2M_ANPR/ANPR_RZA2M_RDK/src/tensorflow_lite/src/tensorflow/lite/micro/kernels\kernel_util.h **** }
 3752              		.loc 4 56 0
 3753 0600 00209415 		ldrne	r2, [r4]
 3754 0604 0420A001 		moveq	r2, r4
 3755              	.LBE1492:
 3756              	.LBE1493:
 164:../src/tensorflow_lite/src/tensorflow/lite/micro/kernels/cmsis_nn/pooling.cpp ****         arm_avgpool_s8(&ctx, &pool_params, &input_dims,
 3757              		.loc 1 164 0
 3758 0608 B8108DE2 		add	r1, sp, #184
 3759              	.LBB1494:
 3760              	.LBB1495:
 3761              		.loc 4 63 0
 3762 060c 003095E5 		ldr	r3, [r5]
 3763              	.LVL331:
 3764              	.LBE1495:
 3765              	.LBE1494:
 164:../src/tensorflow_lite/src/tensorflow/lite/micro/kernels/cmsis_nn/pooling.cpp ****         arm_avgpool_s8(&ctx, &pool_params, &input_dims,
 3766              		.loc 1 164 0
 3767 0610 00108DE5 		str	r1, [sp]
 3768 0614 F8108DE2 		add	r1, sp, #248
 3769 0618 05008DE9 		stmib	sp, {r0, r2}
 3770 061c 98208DE2 		add	r2, sp, #152
 3771 0620 90008DE2 		add	r0, sp, #144
 3772 0624 FEFFFFEB 		bl	arm_avgpool_s8
 3773              	.LVL332:
 3774              	.LEHE31:
 169:../src/tensorflow_lite/src/tensorflow/lite/micro/kernels/cmsis_nn/pooling.cpp ****   }
 3775              		.loc 1 169 0
 3776 0628 000050E3 		cmp	r0, #0
 3777 062c 6B01001A 		bne	.L565
 3778              	.LVL333:
 3779              	.LBB1496:
 3780              	.LBB1497:
 203:C:/Renesas/e2studio_2021_01_workspace_RZA2M_ANPR/ANPR_RZA2M_RDK/src/tensorflow_lite/src/tensorflow/lite/kernels/internal\types.h **** #ifdef TF_LITE_STATIC_MEMORY
 3781              		.loc 6 203 0
 3782 0630 E0309DE5 		ldr	r3, [sp, #224]
 3783 0634 050053E3 		cmp	r3, #5
 3784 0638 030000DA 		ble	.L452
 207:C:/Renesas/e2studio_2021_01_workspace_RZA2M_ANPR/ANPR_RZA2M_RDK/src/tensorflow_lite/src/tensorflow/lite/kernels/internal\types.h **** #endif  // TF_LITE_STATIC_MEMORY
 3785              		.loc 6 207 0
 3786 063c E4009DE5 		ldr	r0, [sp, #228]
 3787 0640 000050E3 		cmp	r0, #0
 3788 0644 0000000A 		beq	.L452
 3789 0648 FEFFFFEB 		bl	_ZdaPv
 3790              	.LVL334:
 3791              	.L452:
 3792              	.LBE1497:
 3793              	.LBE1496:
 3794              	.LBB1498:
 3795              	.LBB1499:
 203:C:/Renesas/e2studio_2021_01_workspace_RZA2M_ANPR/ANPR_RZA2M_RDK/src/tensorflow_lite/src/tensorflow/lite/kernels/internal\types.h **** #ifdef TF_LITE_STATIC_MEMORY
 3796              		.loc 6 203 0
 3797 064c C8309DE5 		ldr	r3, [sp, #200]
 3798 0650 050053E3 		cmp	r3, #5
 3799 0654 030000DA 		ble	.L453
 207:C:/Renesas/e2studio_2021_01_workspace_RZA2M_ANPR/ANPR_RZA2M_RDK/src/tensorflow_lite/src/tensorflow/lite/kernels/internal\types.h **** #endif  // TF_LITE_STATIC_MEMORY
 3800              		.loc 6 207 0
 3801 0658 CC009DE5 		ldr	r0, [sp, #204]
 3802 065c 000050E3 		cmp	r0, #0
 3803 0660 0000000A 		beq	.L453
 3804              	.LVL335:
 3805              	.L537:
 3806 0664 FEFFFFEB 		bl	_ZdaPv
 3807              	.LVL336:
 3808              	.L453:
 3809              	.LBE1499:
 3810              	.LBE1498:
 3811              	.LBE1471:
 3812              	.LBE1379:
 3813              	.LBE1378:
 3814              	.LBE1377:
 349:../src/tensorflow_lite/src/tensorflow/lite/micro/kernels/cmsis_nn/pooling.cpp **** }
 3815              		.loc 1 349 0
 3816 0668 0000A0E3 		mov	r0, #0
 350:../src/tensorflow_lite/src/tensorflow/lite/micro/kernels/cmsis_nn/pooling.cpp **** 
 3817              		.loc 1 350 0
 3818 066c 45DF8DE2 		add	sp, sp, #276
 3819              		.cfi_remember_state
 3820              		.cfi_def_cfa_offset 44
 3821              		@ sp needed
 3822 0670 028BBDEC 		vldm	sp!, {d8}
 3823              		.cfi_restore 80
 3824              		.cfi_restore 81
 3825              		.cfi_def_cfa_offset 36
 3826 0674 F08FBDE8 		pop	{r4, r5, r6, r7, r8, r9, r10, fp, pc}
 3827              	.LVL337:
 3828              	.L564:
 3829              		.cfi_restore_state
 3830              	.LBB1534:
 3831              	.LBB1528:
 3832              	.LBB1522:
 3833              	.LBB1512:
 3834              	.LBB1500:
 3835              	.LBB1484:
 3836              	.LBB1481:
 3837              	.LBB1476:
 216:C:/Renesas/e2studio_2021_01_workspace_RZA2M_ANPR/ANPR_RZA2M_RDK/src/tensorflow_lite/src/tensorflow/lite/kernels/internal\types.h ****   }
 3838              		.loc 6 216 0
 3839 0678 CC209DE5 		ldr	r2, [sp, #204]
 3840              	.LBE1476:
 3841              	.LBE1481:
 3842              		.loc 6 472 0
 3843 067c F0109DE5 		ldr	r1, [sp, #240]
 3844              	.LBB1482:
 3845              	.LBB1477:
 216:C:/Renesas/e2studio_2021_01_workspace_RZA2M_ANPR/ANPR_RZA2M_RDK/src/tensorflow_lite/src/tensorflow/lite/kernels/internal\types.h ****   }
 3846              		.loc 6 216 0
 3847 0680 0C3092E5 		ldr	r3, [r2, #12]
 3848              	.LVL338:
 3849              	.LBE1477:
 3850              	.LBE1482:
 3851              		.loc 6 472 0
 3852 0684 010053E1 		cmp	r3, r1
 3853 0688 3C01001A 		bne	.L447
 3854              	.LVL339:
 3855              	.LBE1484:
 3856              	.LBE1500:
 3857              	.LBB1501:
 3858              	.LBB1502:
 216:C:/Renesas/e2studio_2021_01_workspace_RZA2M_ANPR/ANPR_RZA2M_RDK/src/tensorflow_lite/src/tensorflow/lite/kernels/internal\types.h ****   }
 3859              		.loc 6 216 0
 3860 068c 041092E5 		ldr	r1, [r2, #4]
 3861              	.LBE1502:
 3862              	.LBE1501:
 132:../src/tensorflow_lite/src/tensorflow/lite/micro/kernels/cmsis_nn/pooling.cpp ****     input_dims.h = input_shape.Dims(1);
 3863              		.loc 1 132 0
 3864 0690 01C0A0E3 		mov	ip, #1
 3865              	.LBB1503:
 3866              	.LBB1489:
 216:C:/Renesas/e2studio_2021_01_workspace_RZA2M_ANPR/ANPR_RZA2M_RDK/src/tensorflow_lite/src/tensorflow/lite/kernels/internal\types.h ****   }
 3867              		.loc 6 216 0
 3868 0694 080092E5 		ldr	r0, [r2, #8]
 3869              	.LBE1489:
 3870              	.LBE1503:
 132:../src/tensorflow_lite/src/tensorflow/lite/micro/kernels/cmsis_nn/pooling.cpp ****     input_dims.h = input_shape.Dims(1);
 3871              		.loc 1 132 0
 3872 0698 98C08DE5 		str	ip, [sp, #152]
 133:../src/tensorflow_lite/src/tensorflow/lite/micro/kernels/cmsis_nn/pooling.cpp ****     input_dims.w = input_shape.Dims(2);
 3873              		.loc 1 133 0
 3874 069c 9C108DE5 		str	r1, [sp, #156]
 3875              	.LVL340:
 3876 06a0 B0FFFFEA 		b	.L464
 3877              	.LVL341:
 3878              	.L466:
 3879              	.LBE1512:
 3880              	.LBE1522:
 3881              	.LBE1528:
 3882              	.LBE1534:
 3883              	.LBB1535:
 3884              	.LBB1372:
 3885              	.LBB1365:
 3886              	.LBB1252:
 260:C:/Renesas/e2studio_2021_01_workspace_RZA2M_ANPR/ANPR_RZA2M_RDK/src/tensorflow_lite/src/tensorflow/lite/kernels\kernel_util.h ****     *activation_max = 6;
 3887              		.loc 3 260 0
 3888 06a4 D08A1FED 		vldr.32	s16, .L577+8
 261:C:/Renesas/e2studio_2021_01_workspace_RZA2M_ANPR/ANPR_RZA2M_RDK/src/tensorflow_lite/src/tensorflow/lite/kernels\kernel_util.h ****   } else if (activation == kTfLiteActReluN1To1) {
 3889              		.loc 3 261 0
 3890 06a8 088AF1EE 		vmov.f32	s17, #6.0e+0
 3891 06ac 8AFEFFEA 		b	.L362
 3892              	.LVL342:
 3893              	.L469:
 3894              	.LBE1252:
 3895              	.LBE1365:
 3896              	.LBB1366:
 3897              	.LBB1357:
 3898              	.LBB1350:
 3899              	.LBB1335:
 3900              	.LBB1330:
 3901              	.LBB1325:
 3902              	.LBB1320:
  56:C:/Renesas/e2studio_2021_01_workspace_RZA2M_ANPR/ANPR_RZA2M_RDK/src/tensorflow_lite/src/tensorflow/lite/kernels/internal/reference\pooling.h ****           float filter_count = 0;
 3903              		.loc 5 56 0
 3904 06b0 677AB0EE 		vmov.f32	s14, s15
 3905 06b4 3FFFFFEA 		b	.L379
 3906              	.LVL343:
 3907              	.L560:
 3908              	.LBE1320:
 3909              	.LBE1325:
 3910              	.LBE1330:
 3911              	.LBE1335:
 3912              	.LBE1350:
 3913              	.LBE1357:
 3914              	.LBE1366:
 3915              	.LBE1372:
 3916              	.LBE1535:
 3917              	.LBB1536:
 3918              	.LBB1529:
 3919              	.LBB1523:
 3920              	.LBB1513:
 109:../src/tensorflow_lite/src/tensorflow/lite/micro/kernels/cmsis_nn/pooling.cpp ****     op_params.stride_width = params->stride_width;
 3921              		.loc 1 109 0
 3922 06b8 083096E5 		ldr	r3, [r6, #8]
 118:../src/tensorflow_lite/src/tensorflow/lite/micro/kernels/cmsis_nn/pooling.cpp ****                                tflite::micro::GetTensorData<uint8_t>(input),
 3923              		.loc 1 118 0
 3924 06bc E0008DE2 		add	r0, sp, #224
 109:../src/tensorflow_lite/src/tensorflow/lite/micro/kernels/cmsis_nn/pooling.cpp ****     op_params.stride_width = params->stride_width;
 3925              		.loc 1 109 0
 3926 06c0 78308DE5 		str	r3, [sp, #120]
 3927              	.LVL344:
 110:../src/tensorflow_lite/src/tensorflow/lite/micro/kernels/cmsis_nn/pooling.cpp ****     op_params.filter_height = params->filter_height;
 3928              		.loc 1 110 0
 3929 06c4 043096E5 		ldr	r3, [r6, #4]
 3930              	.LVL345:
 3931 06c8 7C308DE5 		str	r3, [sp, #124]
 3932              	.LVL346:
 111:../src/tensorflow_lite/src/tensorflow/lite/micro/kernels/cmsis_nn/pooling.cpp ****     op_params.filter_width = params->filter_width;
 3933              		.loc 1 111 0
 3934 06cc 103096E5 		ldr	r3, [r6, #16]
 3935              	.LVL347:
 3936 06d0 80308DE5 		str	r3, [sp, #128]
 3937              	.LVL348:
 112:../src/tensorflow_lite/src/tensorflow/lite/micro/kernels/cmsis_nn/pooling.cpp ****     op_params.padding_values.height = data.padding.height;
 3938              		.loc 1 112 0
 3939 06d4 0C3096E5 		ldr	r3, [r6, #12]
 3940              	.LVL349:
 3941 06d8 84308DE5 		str	r3, [sp, #132]
 3942              	.LVL350:
 113:../src/tensorflow_lite/src/tensorflow/lite/micro/kernels/cmsis_nn/pooling.cpp ****     op_params.padding_values.width = data.padding.width;
 3943              		.loc 1 113 0
 3944 06dc F430D7E1 		ldrsh	r3, [r7, #4]
 3945              	.LVL351:
 3946 06e0 88308DE5 		str	r3, [sp, #136]
 3947              	.LVL352:
 114:../src/tensorflow_lite/src/tensorflow/lite/micro/kernels/cmsis_nn/pooling.cpp ****     op_params.quantized_activation_min = data.activation_min;
 3948              		.loc 1 114 0
 3949 06e4 F030D7E1 		ldrsh	r3, [r7]
 3950 06e8 8C308DE5 		str	r3, [sp, #140]
 3951              	.LVL353:
 115:../src/tensorflow_lite/src/tensorflow/lite/micro/kernels/cmsis_nn/pooling.cpp ****     op_params.quantized_activation_max = data.activation_max;
 3952              		.loc 1 115 0
 3953 06ec 143097E5 		ldr	r3, [r7, #20]
 3954 06f0 3C308DE5 		str	r3, [sp, #60]
 3955              	.LVL354:
 116:../src/tensorflow_lite/src/tensorflow/lite/micro/kernels/cmsis_nn/pooling.cpp **** 
 3956              		.loc 1 116 0
 3957 06f4 183097E5 		ldr	r3, [r7, #24]
 3958              	.LVL355:
 3959 06f8 60308DE5 		str	r3, [sp, #96]
 3960              	.LEHB32:
 118:../src/tensorflow_lite/src/tensorflow/lite/micro/kernels/cmsis_nn/pooling.cpp ****                                tflite::micro::GetTensorData<uint8_t>(input),
 3961              		.loc 1 118 0
 3962 06fc FEFFFFEB 		bl	_ZN6tflite5micro14GetTensorShapeEPK16TfLiteEvalTensor
 3963              	.LVL356:
 3964              	.LEHE32:
 3965              	.LBB1381:
 3966              	.LBB1382:
 3967              		.loc 4 63 0
 3968 0700 003095E5 		ldr	r3, [r5]
 3969              	.LBE1382:
 3970              	.LBE1381:
 120:../src/tensorflow_lite/src/tensorflow/lite/micro/kernels/cmsis_nn/pooling.cpp ****                                tflite::micro::GetTensorData<uint8_t>(output));
 3971              		.loc 1 120 0
 3972 0704 0410A0E1 		mov	r1, r4
 3973 0708 F8008DE2 		add	r0, sp, #248
 3974              	.LBB1384:
 3975              	.LBB1383:
 3976              		.loc 4 63 0
 3977 070c 4C308DE5 		str	r3, [sp, #76]
 3978              	.LVL357:
 3979              	.LEHB33:
 3980              	.LBE1383:
 3981              	.LBE1384:
 120:../src/tensorflow_lite/src/tensorflow/lite/micro/kernels/cmsis_nn/pooling.cpp ****                                tflite::micro::GetTensorData<uint8_t>(output));
 3982              		.loc 1 120 0
 3983 0710 FEFFFFEB 		bl	_ZN6tflite5micro14GetTensorShapeEPK16TfLiteEvalTensor
 3984              	.LVL358:
 3985              	.LEHE33:
 3986              	.LBB1385:
 3987              	.LBB1386:
  56:C:/Renesas/e2studio_2021_01_workspace_RZA2M_ANPR/ANPR_RZA2M_RDK/src/tensorflow_lite/src/tensorflow/lite/micro/kernels\kernel_util.h **** }
 3988              		.loc 4 56 0
 3989 0714 000054E3 		cmp	r4, #0
 3990              	.LBE1386:
 3991              	.LBE1385:
 3992              	.LBB1388:
 3993              	.LBB1389:
  85:C:/Renesas/e2studio_2021_01_workspace_RZA2M_ANPR/ANPR_RZA2M_RDK/src/tensorflow_lite/src/tensorflow/lite/kernels/internal/reference\pooling.h ****   TFLITE_DCHECK_EQ(input_shape.DimensionsCount(), 4);
 3994              		.loc 5 85 0
 3995 0718 60209DE5 		ldr	r2, [sp, #96]
 3996              	.LBE1389:
 3997              	.LBE1388:
 3998              	.LBB1458:
 3999              	.LBB1387:
  56:C:/Renesas/e2studio_2021_01_workspace_RZA2M_ANPR/ANPR_RZA2M_RDK/src/tensorflow_lite/src/tensorflow/lite/micro/kernels\kernel_util.h **** }
 4000              		.loc 4 56 0
 4001 071c 00309415 		ldrne	r3, [r4]
 4002 0720 50408D05 		streq	r4, [sp, #80]
 4003              	.LVL359:
 4004 0724 50308D15 		strne	r3, [sp, #80]
 4005              	.LVL360:
 4006              	.LBE1387:
 4007              	.LBE1458:
 4008              	.LBB1459:
 4009              	.LBB1454:
  85:C:/Renesas/e2studio_2021_01_workspace_RZA2M_ANPR/ANPR_RZA2M_RDK/src/tensorflow_lite/src/tensorflow/lite/kernels/internal/reference\pooling.h ****   TFLITE_DCHECK_EQ(input_shape.DimensionsCount(), 4);
 4010              		.loc 5 85 0
 4011 0728 3C309DE5 		ldr	r3, [sp, #60]
 4012 072c 020053E1 		cmp	r3, r2
 4013 0730 280100CA 		bgt	.L566
 4014              	.LVL361:
  86:C:/Renesas/e2studio_2021_01_workspace_RZA2M_ANPR/ANPR_RZA2M_RDK/src/tensorflow_lite/src/tensorflow/lite/kernels/internal/reference\pooling.h ****   TFLITE_DCHECK_EQ(output_shape.DimensionsCount(), 4);
 4015              		.loc 5 86 0
 4016 0734 E0309DE5 		ldr	r3, [sp, #224]
 4017 0738 040053E3 		cmp	r3, #4
 4018 073c 2401001A 		bne	.L567
 4019              	.LVL362:
  87:C:/Renesas/e2studio_2021_01_workspace_RZA2M_ANPR/ANPR_RZA2M_RDK/src/tensorflow_lite/src/tensorflow/lite/kernels/internal/reference\pooling.h ****   const int batches = MatchingDim(input_shape, 0, output_shape, 0);
 4020              		.loc 5 87 0
 4021 0740 F8309DE5 		ldr	r3, [sp, #248]
 4022 0744 040053E3 		cmp	r3, #4
 4023 0748 2001001A 		bne	.L568
 4024              	.LVL363:
 4025              	.LBB1390:
 4026              	.LBB1391:
 4027              	.LBB1392:
 4028              	.LBB1393:
 216:C:/Renesas/e2studio_2021_01_workspace_RZA2M_ANPR/ANPR_RZA2M_RDK/src/tensorflow_lite/src/tensorflow/lite/kernels/internal\types.h ****   }
 4029              		.loc 6 216 0
 4030 074c E4309DE5 		ldr	r3, [sp, #228]
 4031 0750 0320A0E1 		mov	r2, r3
 4032 0754 64308DE5 		str	r3, [sp, #100]
 4033              	.LVL364:
 4034              	.LBE1393:
 4035              	.LBE1392:
 4036              		.loc 6 472 0
 4037 0758 FC309DE5 		ldr	r3, [sp, #252]
 4038 075c 030052E1 		cmp	r2, r3
 4039 0760 1901001A 		bne	.L569
 4040              	.LVL365:
 4041              	.LBE1391:
 4042              	.LBE1390:
 4043              	.LBB1395:
 4044              	.LBB1396:
 4045              	.LBB1397:
 4046              	.LBB1398:
 216:C:/Renesas/e2studio_2021_01_workspace_RZA2M_ANPR/ANPR_RZA2M_RDK/src/tensorflow_lite/src/tensorflow/lite/kernels/internal\types.h ****   }
 4047              		.loc 6 216 0
 4048 0764 F0309DE5 		ldr	r3, [sp, #240]
 4049 0768 0320A0E1 		mov	r2, r3
 4050 076c 58308DE5 		str	r3, [sp, #88]
 4051              	.LVL366:
 4052              	.LBE1398:
 4053              	.LBE1397:
 4054              		.loc 6 472 0
 4055 0770 08319DE5 		ldr	r3, [sp, #264]
 4056 0774 030052E1 		cmp	r2, r3
 4057 0778 1201001A 		bne	.L570
 4058              	.LVL367:
 4059              	.LBE1396:
 4060              	.LBE1395:
 4061              	.LBB1400:
  96:C:/Renesas/e2studio_2021_01_workspace_RZA2M_ANPR/ANPR_RZA2M_RDK/src/tensorflow_lite/src/tensorflow/lite/kernels/internal/reference\pooling.h ****     for (int out_y = 0; out_y < output_height; ++out_y) {
 4062              		.loc 5 96 0
 4063 077c 64309DE5 		ldr	r3, [sp, #100]
 4064 0780 000053E3 		cmp	r3, #0
 4065              	.LBE1400:
 4066              	.LBB1441:
 4067              	.LBB1442:
 216:C:/Renesas/e2studio_2021_01_workspace_RZA2M_ANPR/ANPR_RZA2M_RDK/src/tensorflow_lite/src/tensorflow/lite/kernels/internal\types.h ****   }
 4068              		.loc 6 216 0
 4069 0784 E8309DE5 		ldr	r3, [sp, #232]
 4070 0788 68308DE5 		str	r3, [sp, #104]
 4071              	.LVL368:
 4072              	.LBE1442:
 4073              	.LBE1441:
 4074              	.LBB1443:
 4075              	.LBB1444:
 4076 078c EC309DE5 		ldr	r3, [sp, #236]
 4077 0790 6C308DE5 		str	r3, [sp, #108]
 4078              	.LVL369:
 4079              	.LBE1444:
 4080              	.LBE1443:
 4081              	.LBB1445:
 4082              	.LBB1446:
 4083 0794 00319DE5 		ldr	r3, [sp, #256]
 4084 0798 70308DE5 		str	r3, [sp, #112]
 4085              	.LVL370:
 4086              	.LBE1446:
 4087              	.LBE1445:
 4088              	.LBB1447:
 4089              	.LBB1448:
 4090 079c 04319DE5 		ldr	r3, [sp, #260]
 4091 07a0 74308DE5 		str	r3, [sp, #116]
 4092              	.LVL371:
 4093              	.LBE1448:
 4094              	.LBE1447:
 4095              	.LBB1449:
  96:C:/Renesas/e2studio_2021_01_workspace_RZA2M_ANPR/ANPR_RZA2M_RDK/src/tensorflow_lite/src/tensorflow/lite/kernels/internal/reference\pooling.h ****     for (int out_y = 0; out_y < output_height; ++out_y) {
 4096              		.loc 5 96 0
 4097 07a4 AFFFFFDA 		ble	.L453
 4098 07a8 0070A0E3 		mov	r7, #0
 4099              	.LVL372:
 4100              	.L412:
 4101              	.LBB1401:
  97:C:/Renesas/e2studio_2021_01_workspace_RZA2M_ANPR/ANPR_RZA2M_RDK/src/tensorflow_lite/src/tensorflow/lite/kernels/internal/reference\pooling.h ****       for (int out_x = 0; out_x < output_width; ++out_x) {
 4102              		.loc 5 97 0
 4103 07ac 70309DE5 		ldr	r3, [sp, #112]
 4104 07b0 000053E3 		cmp	r3, #0
 4105 07b4 B80000DA 		ble	.L414
 4106 07b8 88309DE5 		ldr	r3, [sp, #136]
 4107 07bc 002063E2 		rsb	r2, r3, #0
 4108 07c0 30208DE5 		str	r2, [sp, #48]
 4109 07c4 68209DE5 		ldr	r2, [sp, #104]
 4110 07c8 023083E0 		add	r3, r3, r2
 4111 07cc 40308DE5 		str	r3, [sp, #64]
 4112 07d0 0030A0E3 		mov	r3, #0
 4113 07d4 38308DE5 		str	r3, [sp, #56]
 4114              	.LVL373:
 4115              	.L415:
 4116              	.LBB1402:
  98:C:/Renesas/e2studio_2021_01_workspace_RZA2M_ANPR/ANPR_RZA2M_RDK/src/tensorflow_lite/src/tensorflow/lite/kernels/internal/reference\pooling.h ****         for (int channel = 0; channel < depth; ++channel) {
 4117              		.loc 5 98 0
 4118 07d8 74309DE5 		ldr	r3, [sp, #116]
 4119 07dc 000053E3 		cmp	r3, #0
 4120 07e0 A00000DA 		ble	.L417
 4121 07e4 8C109DE5 		ldr	r1, [sp, #140]
 4122 07e8 07A0A0E1 		mov	r10, r7
 4123 07ec 6C009DE5 		ldr	r0, [sp, #108]
 4124 07f0 80209DE5 		ldr	r2, [sp, #128]
 4125 07f4 40309DE5 		ldr	r3, [sp, #64]
 4126 07f8 000081E0 		add	r0, r1, r0
 4127 07fc 44008DE5 		str	r0, [sp, #68]
 4128 0800 30009DE5 		ldr	r0, [sp, #48]
 4129 0804 020053E1 		cmp	r3, r2
 4130 0808 0320A0B1 		movlt	r2, r3
 4131 080c 5C208DE5 		str	r2, [sp, #92]
 4132 0810 002082E0 		add	r2, r2, r0
 4133 0814 000050E3 		cmp	r0, #0
 4134 0818 28208DE5 		str	r2, [sp, #40]
 4135 081c 68209DE5 		ldr	r2, [sp, #104]
 4136 0820 023043B0 		sublt	r3, r3, r2
 4137 0824 0030A0A3 		movge	r3, #0
 4138 0828 54308DE5 		str	r3, [sp, #84]
 4139 082c 003061E2 		rsb	r3, r1, #0
 4140 0830 48308DE5 		str	r3, [sp, #72]
 4141 0834 0030A0E3 		mov	r3, #0
 4142 0838 34308DE5 		str	r3, [sp, #52]
 4143              	.LVL374:
 4144              	.L418:
 4145              	.LBB1403:
  99:C:/Renesas/e2studio_2021_01_workspace_RZA2M_ANPR/ANPR_RZA2M_RDK/src/tensorflow_lite/src/tensorflow/lite/kernels/internal/reference\pooling.h ****           const int in_x_origin =
 4146              		.loc 5 99 0
 4147 083c 58309DE5 		ldr	r3, [sp, #88]
 4148 0840 000053E3 		cmp	r3, #0
 4149 0844 790000DA 		ble	.L436
 4150 0848 44109DE5 		ldr	r1, [sp, #68]
 4151              	.LBB1404:
 4152              	.LBB1405:
 4153              	.LBB1406:
 4154              	.LBB1407:
 118:C:/Renesas/e2studio_2021_01_workspace_RZA2M_ANPR/ANPR_RZA2M_RDK/src/tensorflow_lite/src/tensorflow/lite/kernels/internal/reference\pooling.h ****               const int in_y = in_y_origin + filter_y;
 4155              		.loc 5 118 0
 4156 084c 0080A0E3 		mov	r8, #0
 4157 0850 84209DE5 		ldr	r2, [sp, #132]
 4158 0854 0130A0E1 		mov	r3, r1
 4159 0858 020051E1 		cmp	r1, r2
 4160 085c 0230A0A1 		movge	r3, r2
 4161 0860 48209DE5 		ldr	r2, [sp, #72]
 4162 0864 0300A0E1 		mov	r0, r3
 4163 0868 18308DE5 		str	r3, [sp, #24]
 4164 086c 0130A0E1 		mov	r3, r1
 4165 0870 6C109DE5 		ldr	r1, [sp, #108]
 4166 0874 080052E1 		cmp	r2, r8
 4167 0878 025080E0 		add	r5, r0, r2
 4168 087c 019043B0 		sublt	r9, r3, r1
 4169 0880 0090A0A3 		movge	r9, #0
 4170 0884 013089E2 		add	r3, r9, #1
 4171 0888 02B089E0 		add	fp, r9, r2
 4172 088c 1C908DE5 		str	r9, [sp, #28]
 4173 0890 0890A0E1 		mov	r9, r8
 4174 0894 023083E0 		add	r3, r3, r2
 4175 0898 2C308DE5 		str	r3, [sp, #44]
 4176              	.LVL375:
 4177              	.L437:
 4178              	.LBE1407:
 4179              	.LBE1406:
 114:C:/Renesas/e2studio_2021_01_workspace_RZA2M_ANPR/ANPR_RZA2M_RDK/src/tensorflow_lite/src/tensorflow/lite/kernels/internal/reference\pooling.h ****                ++filter_y) {
 4180              		.loc 5 114 0
 4181 089c 54309DE5 		ldr	r3, [sp, #84]
 4182 08a0 5C209DE5 		ldr	r2, [sp, #92]
 4183 08a4 020053E1 		cmp	r3, r2
 4184 08a8 A30000AA 		bge	.L474
 4185 08ac 30209DE5 		ldr	r2, [sp, #48]
 4186              	.LBB1421:
 4187              	.LBB1416:
 4188              	.LBB1408:
 4189              	.LBB1409:
 410:C:/Renesas/e2studio_2021_01_workspace_RZA2M_ANPR/ANPR_RZA2M_RDK/src/tensorflow_lite/src/tensorflow/lite/kernels/internal\types.h **** }
 4190              		.loc 6 410 0
 4191 08b0 0000A0E3 		mov	r0, #0
 407:C:/Renesas/e2studio_2021_01_workspace_RZA2M_ANPR/ANPR_RZA2M_RDK/src/tensorflow_lite/src/tensorflow/lite/kernels/internal\types.h ****   TFLITE_DCHECK(i2 >= 0 && i2 < dims_data[2]);
 4192              		.loc 6 407 0
 4193 08b4 E8809DE5 		ldr	r8, [sp, #232]
 410:C:/Renesas/e2studio_2021_01_workspace_RZA2M_ANPR/ANPR_RZA2M_RDK/src/tensorflow_lite/src/tensorflow/lite/kernels/internal\types.h **** }
 4194              		.loc 6 410 0
 4195 08b8 0010A0E1 		mov	r1, r0
 408:C:/Renesas/e2studio_2021_01_workspace_RZA2M_ANPR/ANPR_RZA2M_RDK/src/tensorflow_lite/src/tensorflow/lite/kernels/internal\types.h ****   TFLITE_DCHECK(i3 >= 0 && i3 < dims_data[3]);
 4196              		.loc 6 408 0
 4197 08bc EC409DE5 		ldr	r4, [sp, #236]
 4198 08c0 F0E09DE5 		ldr	lr, [sp, #240]
 4199 08c4 036082E0 		add	r6, r2, r3
 4200 08c8 E0C09DE5 		ldr	ip, [sp, #224]
 4201 08cc 9A2827E0 		mla	r7, r10, r8, r2
 406:C:/Renesas/e2studio_2021_01_workspace_RZA2M_ANPR/ANPR_RZA2M_RDK/src/tensorflow_lite/src/tensorflow/lite/kernels/internal\types.h ****   TFLITE_DCHECK(i1 >= 0 && i1 < dims_data[1]);
 4202              		.loc 6 406 0
 4203 08d0 E4209DE5 		ldr	r2, [sp, #228]
 4204 08d4 20C08DE5 		str	ip, [sp, #32]
 4205 08d8 24208DE5 		str	r2, [sp, #36]
 4206 08dc 9E0402E0 		mul	r2, lr, r4
 4207 08e0 037087E0 		add	r7, r7, r3
 4208 08e4 4C309DE5 		ldr	r3, [sp, #76]
 4209 08e8 94B727E0 		mla	r7, r4, r7, fp
 4210 08ec 14208DE5 		str	r2, [sp, #20]
 4211 08f0 9E9727E0 		mla	r7, lr, r7, r9
 4212 08f4 077083E0 		add	r7, r3, r7
 4213              	.LVL376:
 4214              	.L430:
 4215              	.LBE1409:
 4216              	.LBE1408:
 4217              	.LBE1416:
 116:C:/Renesas/e2studio_2021_01_workspace_RZA2M_ANPR/ANPR_RZA2M_RDK/src/tensorflow_lite/src/tensorflow/lite/kernels/internal/reference\pooling.h ****                  ++filter_x) {
 4218              		.loc 5 116 0
 4219 08f8 1C309DE5 		ldr	r3, [sp, #28]
 4220 08fc 18209DE5 		ldr	r2, [sp, #24]
 4221 0900 020053E1 		cmp	r3, r2
 4222 0904 1D0000AA 		bge	.L420
 4223              	.LVL377:
 4224              	.LBB1417:
 4225              	.LBB1413:
 4226              	.LBB1410:
 404:C:/Renesas/e2studio_2021_01_workspace_RZA2M_ANPR/ANPR_RZA2M_RDK/src/tensorflow_lite/src/tensorflow/lite/kernels/internal\types.h ****   const int* dims_data = reinterpret_cast<const int*>(shape.DimsDataUpTo5D());
 4227              		.loc 6 404 0
 4228 0908 20309DE5 		ldr	r3, [sp, #32]
 4229 090c 040053E3 		cmp	r3, #4
 4230 0910 9000001A 		bne	.L421
 406:C:/Renesas/e2studio_2021_01_workspace_RZA2M_ANPR/ANPR_RZA2M_RDK/src/tensorflow_lite/src/tensorflow/lite/kernels/internal\types.h ****   TFLITE_DCHECK(i1 >= 0 && i1 < dims_data[1]);
 4231              		.loc 6 406 0
 4232 0914 24309DE5 		ldr	r3, [sp, #36]
 4233 0918 03005AE1 		cmp	r10, r3
 4234 091c 8C0000AA 		bge	.L422
 407:C:/Renesas/e2studio_2021_01_workspace_RZA2M_ANPR/ANPR_RZA2M_RDK/src/tensorflow_lite/src/tensorflow/lite/kernels/internal\types.h ****   TFLITE_DCHECK(i2 >= 0 && i2 < dims_data[2]);
 4235              		.loc 6 407 0
 4236 0920 000056E3 		cmp	r6, #0
 4237 0924 890000BA 		blt	.L423
 4238 0928 080056E1 		cmp	r6, r8
 4239 092c 870000AA 		bge	.L423
 408:C:/Renesas/e2studio_2021_01_workspace_RZA2M_ANPR/ANPR_RZA2M_RDK/src/tensorflow_lite/src/tensorflow/lite/kernels/internal\types.h ****   TFLITE_DCHECK(i3 >= 0 && i3 < dims_data[3]);
 4240              		.loc 6 408 0
 4241 0930 00005BE3 		cmp	fp, #0
 4242 0934 830000BA 		blt	.L424
 4243 0938 04005BE1 		cmp	fp, r4
 4244 093c 810000AA 		bge	.L424
 4245 0940 09005EE1 		cmp	lr, r9
 4246 0944 8C0000DA 		ble	.L571
 4247 0948 2C309DE5 		ldr	r3, [sp, #44]
 4248 094c 0720A0E1 		mov	r2, r7
 4249 0950 050000EA 		b	.L427
 4250              	.LVL378:
 4251              	.L429:
 4252 0954 000053E3 		cmp	r3, #0
 4253 0958 7A0000BA 		blt	.L424
 4254 095c 040053E1 		cmp	r3, r4
 4255 0960 0E2082E0 		add	r2, r2, lr
 4256 0964 013083E2 		add	r3, r3, #1
 4257 0968 760000AA 		bge	.L424
 4258              	.LVL379:
 4259              	.L427:
 4260              	.LBE1410:
 4261              	.LBE1413:
 121:C:/Renesas/e2studio_2021_01_workspace_RZA2M_ANPR/ANPR_RZA2M_RDK/src/tensorflow_lite/src/tensorflow/lite/kernels/internal/reference\pooling.h ****               filter_count++;
 4262              		.loc 5 121 0
 4263 096c 00C0D2E5 		ldrb	ip, [r2]	@ zero_extendqisi2
 4264              	.LVL380:
 4265              	.LBE1417:
 116:C:/Renesas/e2studio_2021_01_workspace_RZA2M_ANPR/ANPR_RZA2M_RDK/src/tensorflow_lite/src/tensorflow/lite/kernels/internal/reference\pooling.h ****                  ++filter_x) {
 4266              		.loc 5 116 0
 4267 0970 050053E1 		cmp	r3, r5
 4268              	.LBB1418:
 122:C:/Renesas/e2studio_2021_01_workspace_RZA2M_ANPR/ANPR_RZA2M_RDK/src/tensorflow_lite/src/tensorflow/lite/kernels/internal/reference\pooling.h ****             }
 4269              		.loc 5 122 0
 4270 0974 011081E2 		add	r1, r1, #1
 121:C:/Renesas/e2studio_2021_01_workspace_RZA2M_ANPR/ANPR_RZA2M_RDK/src/tensorflow_lite/src/tensorflow/lite/kernels/internal/reference\pooling.h ****               filter_count++;
 4271              		.loc 5 121 0
 4272 0978 0C0080E0 		add	r0, r0, ip
 4273              	.LVL381:
 4274              	.LBE1418:
 116:C:/Renesas/e2studio_2021_01_workspace_RZA2M_ANPR/ANPR_RZA2M_RDK/src/tensorflow_lite/src/tensorflow/lite/kernels/internal/reference\pooling.h ****                  ++filter_x) {
 4275              		.loc 5 116 0
 4276 097c F4FFFF1A 		bne	.L429
 4277              	.LVL382:
 4278              	.L420:
 4279 0980 14309DE5 		ldr	r3, [sp, #20]
 4280 0984 016086E2 		add	r6, r6, #1
 4281 0988 037087E0 		add	r7, r7, r3
 4282              	.LBE1421:
 114:C:/Renesas/e2studio_2021_01_workspace_RZA2M_ANPR/ANPR_RZA2M_RDK/src/tensorflow_lite/src/tensorflow/lite/kernels/internal/reference\pooling.h ****                ++filter_y) {
 4283              		.loc 5 114 0
 4284 098c 28309DE5 		ldr	r3, [sp, #40]
 4285 0990 060053E1 		cmp	r3, r6
 4286 0994 D7FFFF1A 		bne	.L430
 4287 0998 C10080E0 		add	r0, r0, r1, asr #1
 4288              	.L419:
 4289              	.LBE1405:
 125:C:/Renesas/e2studio_2021_01_workspace_RZA2M_ANPR/ANPR_RZA2M_RDK/src/tensorflow_lite/src/tensorflow/lite/kernels/internal/reference\pooling.h ****           acc = std::max(acc, params.quantized_activation_min);
 4290              		.loc 5 125 0
 4291 099c FEFFFFEB 		bl	__aeabi_idiv
 4292              	.LVL383:
 4293              	.LBB1424:
 4294              	.LBB1425:
 224:c:\program files (x86)\gnu tools arm embedded\6 2017-q2-update\arm-none-eabi\include\c++\6.3.1\bits\stl_algobase.h **** 	return __b;
 4295              		.loc 7 224 0
 4296 09a0 3C309DE5 		ldr	r3, [sp, #60]
 4297 09a4 000053E1 		cmp	r3, r0
 4298 09a8 0320A0C1 		movgt	r2, r3
 4299 09ac 030000CA 		bgt	.L431
 4300              	.LVL384:
 4301 09b0 60309DE5 		ldr	r3, [sp, #96]
 4302 09b4 000053E1 		cmp	r3, r0
 4303 09b8 0320A0B1 		movlt	r2, r3
 4304 09bc 0020A0A1 		movge	r2, r0
 4305              	.LVL385:
 4306              	.L431:
 4307              	.LBE1425:
 4308              	.LBE1424:
 4309              	.LBB1426:
 4310              	.LBB1427:
 404:C:/Renesas/e2studio_2021_01_workspace_RZA2M_ANPR/ANPR_RZA2M_RDK/src/tensorflow_lite/src/tensorflow/lite/kernels/internal\types.h ****   const int* dims_data = reinterpret_cast<const int*>(shape.DimsDataUpTo5D());
 4311              		.loc 6 404 0
 4312 09c0 F8309DE5 		ldr	r3, [sp, #248]
 4313 09c4 040053E3 		cmp	r3, #4
 4314 09c8 6A00001A 		bne	.L572
 406:C:/Renesas/e2studio_2021_01_workspace_RZA2M_ANPR/ANPR_RZA2M_RDK/src/tensorflow_lite/src/tensorflow/lite/kernels/internal\types.h ****   TFLITE_DCHECK(i1 >= 0 && i1 < dims_data[1]);
 4315              		.loc 6 406 0
 4316 09cc FC309DE5 		ldr	r3, [sp, #252]
 4317 09d0 03005AE1 		cmp	r10, r3
 4318 09d4 660000AA 		bge	.L573
 407:C:/Renesas/e2studio_2021_01_workspace_RZA2M_ANPR/ANPR_RZA2M_RDK/src/tensorflow_lite/src/tensorflow/lite/kernels/internal\types.h ****   TFLITE_DCHECK(i2 >= 0 && i2 < dims_data[2]);
 4319              		.loc 6 407 0
 4320 09d8 00319DE5 		ldr	r3, [sp, #256]
 4321 09dc 38109DE5 		ldr	r1, [sp, #56]
 4322 09e0 030051E1 		cmp	r1, r3
 4323 09e4 610000AA 		bge	.L574
 408:C:/Renesas/e2studio_2021_01_workspace_RZA2M_ANPR/ANPR_RZA2M_RDK/src/tensorflow_lite/src/tensorflow/lite/kernels/internal\types.h ****   TFLITE_DCHECK(i3 >= 0 && i3 < dims_data[3]);
 4324              		.loc 6 408 0
 4325 09e8 04019DE5 		ldr	r0, [sp, #260]
 4326 09ec 34109DE5 		ldr	r1, [sp, #52]
 4327 09f0 000051E1 		cmp	r1, r0
 4328 09f4 5C0000AA 		bge	.L575
 409:C:/Renesas/e2studio_2021_01_workspace_RZA2M_ANPR/ANPR_RZA2M_RDK/src/tensorflow_lite/src/tensorflow/lite/kernels/internal\types.h ****   return ((i0 * dims_data[1] + i1) * dims_data[2] + i2) * dims_data[3] + i3;
 4329              		.loc 6 409 0
 4330 09f8 08119DE5 		ldr	r1, [sp, #264]
 4331 09fc 010059E1 		cmp	r9, r1
 4332 0a00 580000AA 		bge	.L576
 4333              	.LVL386:
 410:C:/Renesas/e2studio_2021_01_workspace_RZA2M_ANPR/ANPR_RZA2M_RDK/src/tensorflow_lite/src/tensorflow/lite/kernels/internal\types.h **** }
 4334              		.loc 6 410 0
 4335 0a04 38C09DE5 		ldr	ip, [sp, #56]
 4336 0a08 93CA23E0 		mla	r3, r3, r10, ip
 4337 0a0c 34C09DE5 		ldr	ip, [sp, #52]
 4338 0a10 90C323E0 		mla	r3, r0, r3, ip
 4339              	.LBE1427:
 4340              	.LBE1426:
 128:C:/Renesas/e2studio_2021_01_workspace_RZA2M_ANPR/ANPR_RZA2M_RDK/src/tensorflow_lite/src/tensorflow/lite/kernels/internal/reference\pooling.h ****               static_cast<uint8_t>(acc);
 4341              		.loc 5 128 0
 4342 0a14 50009DE5 		ldr	r0, [sp, #80]
 4343 0a18 910323E0 		mla	r3, r1, r3, r0
 129:C:/Renesas/e2studio_2021_01_workspace_RZA2M_ANPR/ANPR_RZA2M_RDK/src/tensorflow_lite/src/tensorflow/lite/kernels/internal/reference\pooling.h ****         }
 4344              		.loc 5 129 0
 4345 0a1c 0920C3E7 		strb	r2, [r3, r9]
 4346              	.LVL387:
 4347              	.LBE1404:
  99:C:/Renesas/e2studio_2021_01_workspace_RZA2M_ANPR/ANPR_RZA2M_RDK/src/tensorflow_lite/src/tensorflow/lite/kernels/internal/reference\pooling.h ****           const int in_x_origin =
 4348              		.loc 5 99 0
 4349 0a20 019089E2 		add	r9, r9, #1
 4350              	.LVL388:
 4351 0a24 58309DE5 		ldr	r3, [sp, #88]
 4352 0a28 030059E1 		cmp	r9, r3
 4353 0a2c 9AFFFF1A 		bne	.L437
 4354              	.LVL389:
 4355              	.L436:
 4356 0a30 44109DE5 		ldr	r1, [sp, #68]
 4357 0a34 7C209DE5 		ldr	r2, [sp, #124]
 4358              	.LBE1403:
  98:C:/Renesas/e2studio_2021_01_workspace_RZA2M_ANPR/ANPR_RZA2M_RDK/src/tensorflow_lite/src/tensorflow/lite/kernels/internal/reference\pooling.h ****         for (int channel = 0; channel < depth; ++channel) {
 4359              		.loc 5 98 0
 4360 0a38 34309DE5 		ldr	r3, [sp, #52]
 4361 0a3c 021041E0 		sub	r1, r1, r2
 4362 0a40 44108DE5 		str	r1, [sp, #68]
 4363 0a44 013083E2 		add	r3, r3, #1
 4364 0a48 74109DE5 		ldr	r1, [sp, #116]
 4365 0a4c 34308DE5 		str	r3, [sp, #52]
 4366              	.LVL390:
 4367 0a50 010053E1 		cmp	r3, r1
 4368 0a54 48309DE5 		ldr	r3, [sp, #72]
 4369              	.LVL391:
 4370 0a58 023083E0 		add	r3, r3, r2
 4371 0a5c 48308DE5 		str	r3, [sp, #72]
 4372 0a60 75FFFF1A 		bne	.L418
 4373 0a64 0A70A0E1 		mov	r7, r10
 4374              	.LVL392:
 4375              	.L417:
 4376 0a68 30109DE5 		ldr	r1, [sp, #48]
 4377 0a6c 78209DE5 		ldr	r2, [sp, #120]
 4378              	.LBE1402:
  97:C:/Renesas/e2studio_2021_01_workspace_RZA2M_ANPR/ANPR_RZA2M_RDK/src/tensorflow_lite/src/tensorflow/lite/kernels/internal/reference\pooling.h ****       for (int out_x = 0; out_x < output_width; ++out_x) {
 4379              		.loc 5 97 0
 4380 0a70 38309DE5 		ldr	r3, [sp, #56]
 4381 0a74 021081E0 		add	r1, r1, r2
 4382 0a78 30108DE5 		str	r1, [sp, #48]
 4383 0a7c 013083E2 		add	r3, r3, #1
 4384 0a80 70109DE5 		ldr	r1, [sp, #112]
 4385 0a84 38308DE5 		str	r3, [sp, #56]
 4386              	.LVL393:
 4387 0a88 010053E1 		cmp	r3, r1
 4388 0a8c 40309DE5 		ldr	r3, [sp, #64]
 4389              	.LVL394:
 4390 0a90 023043E0 		sub	r3, r3, r2
 4391 0a94 40308DE5 		str	r3, [sp, #64]
 4392 0a98 4EFFFF1A 		bne	.L415
 4393              	.LVL395:
 4394              	.L414:
 4395              	.LBE1401:
  96:C:/Renesas/e2studio_2021_01_workspace_RZA2M_ANPR/ANPR_RZA2M_RDK/src/tensorflow_lite/src/tensorflow/lite/kernels/internal/reference\pooling.h ****     for (int out_y = 0; out_y < output_height; ++out_y) {
 4396              		.loc 5 96 0
 4397 0a9c 64309DE5 		ldr	r3, [sp, #100]
 4398 0aa0 017087E2 		add	r7, r7, #1
 4399              	.LVL396:
 4400 0aa4 030057E1 		cmp	r7, r3
 4401 0aa8 3FFFFF1A 		bne	.L412
 4402              	.LVL397:
 4403              	.LBE1449:
 4404              	.LBE1454:
 4405              	.LBE1459:
 4406              	.LBB1460:
 4407              	.LBB1461:
 203:C:/Renesas/e2studio_2021_01_workspace_RZA2M_ANPR/ANPR_RZA2M_RDK/src/tensorflow_lite/src/tensorflow/lite/kernels/internal\types.h **** #ifdef TF_LITE_STATIC_MEMORY
 4408              		.loc 6 203 0
 4409 0aac F8309DE5 		ldr	r3, [sp, #248]
 4410 0ab0 050053E3 		cmp	r3, #5
 4411 0ab4 030000DA 		ble	.L536
 207:C:/Renesas/e2studio_2021_01_workspace_RZA2M_ANPR/ANPR_RZA2M_RDK/src/tensorflow_lite/src/tensorflow/lite/kernels/internal\types.h **** #endif  // TF_LITE_STATIC_MEMORY
 4412              		.loc 6 207 0
 4413 0ab8 FC009DE5 		ldr	r0, [sp, #252]
 4414 0abc 000050E3 		cmp	r0, #0
 4415 0ac0 0000000A 		beq	.L536
 4416 0ac4 FEFFFFEB 		bl	_ZdaPv
 4417              	.LVL398:
 4418              	.L536:
 4419 0ac8 E0309DE5 		ldr	r3, [sp, #224]
 4420              	.LVL399:
 4421              	.LBE1461:
 4422              	.LBE1460:
 4423              	.LBB1462:
 4424              	.LBB1463:
 203:C:/Renesas/e2studio_2021_01_workspace_RZA2M_ANPR/ANPR_RZA2M_RDK/src/tensorflow_lite/src/tensorflow/lite/kernels/internal\types.h **** #ifdef TF_LITE_STATIC_MEMORY
 4425              		.loc 6 203 0
 4426 0acc 050053E3 		cmp	r3, #5
 4427 0ad0 E4FEFFDA 		ble	.L453
 207:C:/Renesas/e2studio_2021_01_workspace_RZA2M_ANPR/ANPR_RZA2M_RDK/src/tensorflow_lite/src/tensorflow/lite/kernels/internal\types.h **** #endif  // TF_LITE_STATIC_MEMORY
 4428              		.loc 6 207 0
 4429 0ad4 E4009DE5 		ldr	r0, [sp, #228]
 4430 0ad8 000050E3 		cmp	r0, #0
 4431 0adc E0FEFF1A 		bne	.L537
 4432 0ae0 E0FEFFEA 		b	.L453
 4433              	.LVL400:
 4434              	.L465:
 4435              	.LBE1463:
 4436              	.LBE1462:
 4437              	.LBE1513:
 4438              	.LBE1523:
 4439              	.LBE1529:
 4440              	.LBE1536:
 4441              	.LBB1537:
 4442              	.LBB1373:
 4443              	.LBB1367:
 4444              	.LBB1253:
 258:C:/Renesas/e2studio_2021_01_workspace_RZA2M_ANPR/ANPR_RZA2M_RDK/src/tensorflow_lite/src/tensorflow/lite/kernels\kernel_util.h ****   } else if (activation == kTfLiteActRelu6) {
 4445              		.loc 3 258 0
 4446 0ae4 468ADFED 		vldr.32	s17, .L579
 257:C:/Renesas/e2studio_2021_01_workspace_RZA2M_ANPR/ANPR_RZA2M_RDK/src/tensorflow_lite/src/tensorflow/lite/kernels\kernel_util.h ****     *activation_max = std::numeric_limits<T>::max();
 4447              		.loc 3 257 0
 4448 0ae8 468A9FED 		vldr.32	s16, .L579+4
 4449 0aec 7AFDFFEA 		b	.L362
 4450              	.LVL401:
 4451              	.L555:
 4452              	.LEHB34:
 4453              	.LBE1253:
 4454              	.LBE1367:
 4455              	.LBB1368:
 4456              	.LBB1358:
 4457              	.LBB1351:
 4458              	.LBB1336:
 4459              	.LBB1331:
 4460              	.LBB1326:
 4461              	.LBB1321:
 4462              	.LBB1314:
 4463              	.LBB1294:
 4464              	.LBB1291:
 4465              	.LBB1287:
 4466              	.LBB1286:
 409:C:/Renesas/e2studio_2021_01_workspace_RZA2M_ANPR/ANPR_RZA2M_RDK/src/tensorflow_lite/src/tensorflow/lite/kernels/internal\types.h ****   return ((i0 * dims_data[1] + i1) * dims_data[2] + i2) * dims_data[3] + i3;
 4467              		.loc 6 409 0
 4468 0af0 FEFFFFEB 		bl	abort
 4469              	.LVL402:
 4470              	.L383:
 408:C:/Renesas/e2studio_2021_01_workspace_RZA2M_ANPR/ANPR_RZA2M_RDK/src/tensorflow_lite/src/tensorflow/lite/kernels/internal\types.h ****   TFLITE_DCHECK(i3 >= 0 && i3 < dims_data[3]);
 4471              		.loc 6 408 0
 4472 0af4 FEFFFFEB 		bl	abort
 4473              	.LVL403:
 4474              	.L382:
 407:C:/Renesas/e2studio_2021_01_workspace_RZA2M_ANPR/ANPR_RZA2M_RDK/src/tensorflow_lite/src/tensorflow/lite/kernels/internal\types.h ****   TFLITE_DCHECK(i2 >= 0 && i2 < dims_data[2]);
 4475              		.loc 6 407 0
 4476 0af8 FEFFFFEB 		bl	abort
 4477              	.LVL404:
 4478              	.L381:
 406:C:/Renesas/e2studio_2021_01_workspace_RZA2M_ANPR/ANPR_RZA2M_RDK/src/tensorflow_lite/src/tensorflow/lite/kernels/internal\types.h ****   TFLITE_DCHECK(i1 >= 0 && i1 < dims_data[1]);
 4479              		.loc 6 406 0
 4480 0afc FEFFFFEB 		bl	abort
 4481              	.LVL405:
 4482              	.LEHE34:
 4483              	.L479:
 4484              	.L546:
 4485              	.LBE1286:
 4486              	.LBE1287:
 4487              	.LBE1291:
 4488              	.LBE1294:
 4489              	.LBE1314:
 4490              	.LBE1321:
 4491              	.LBE1326:
 4492              	.LBE1331:
 4493              	.LBE1336:
 4494              	.LBE1351:
 4495              	.LBE1358:
 4496              	.LBE1368:
 4497              	.LBE1373:
 4498              	.LBE1537:
 4499              	.LBB1538:
 4500              	.LBB1530:
 4501              	.LBB1524:
 4502              	.LBB1514:
 4503              	.LBB1464:
 4504              	.LBB1465:
 203:C:/Renesas/e2studio_2021_01_workspace_RZA2M_ANPR/ANPR_RZA2M_RDK/src/tensorflow_lite/src/tensorflow/lite/kernels/internal\types.h **** #ifdef TF_LITE_STATIC_MEMORY
 4505              		.loc 6 203 0
 4506 0b00 F8309DE5 		ldr	r3, [sp, #248]
 4507 0b04 050053E3 		cmp	r3, #5
 4508 0b08 030000DA 		ble	.L456
 207:C:/Renesas/e2studio_2021_01_workspace_RZA2M_ANPR/ANPR_RZA2M_RDK/src/tensorflow_lite/src/tensorflow/lite/kernels/internal\types.h **** #endif  // TF_LITE_STATIC_MEMORY
 4509              		.loc 6 207 0
 4510 0b0c FC009DE5 		ldr	r0, [sp, #252]
 4511 0b10 000050E3 		cmp	r0, #0
 4512 0b14 0000000A 		beq	.L456
 4513 0b18 FEFFFFEB 		bl	_ZdaPv
 4514              	.LVL406:
 4515              	.L456:
 4516              	.LBE1465:
 4517              	.LBE1464:
 4518              	.LBB1466:
 4519              	.LBB1467:
 203:C:/Renesas/e2studio_2021_01_workspace_RZA2M_ANPR/ANPR_RZA2M_RDK/src/tensorflow_lite/src/tensorflow/lite/kernels/internal\types.h **** #ifdef TF_LITE_STATIC_MEMORY
 4520              		.loc 6 203 0
 4521 0b1c E0309DE5 		ldr	r3, [sp, #224]
 4522 0b20 050053E3 		cmp	r3, #5
 4523 0b24 030000DA 		ble	.L461
 207:C:/Renesas/e2studio_2021_01_workspace_RZA2M_ANPR/ANPR_RZA2M_RDK/src/tensorflow_lite/src/tensorflow/lite/kernels/internal\types.h **** #endif  // TF_LITE_STATIC_MEMORY
 4524              		.loc 6 207 0
 4525 0b28 E4009DE5 		ldr	r0, [sp, #228]
 4526 0b2c 000050E3 		cmp	r0, #0
 4527 0b30 0000000A 		beq	.L461
 4528              	.LVL407:
 4529              	.L538:
 4530              	.LBE1467:
 4531              	.LBE1466:
 4532              	.LBE1514:
 4533              	.LBB1515:
 4534              	.LBB1504:
 4535              	.LBB1505:
 4536 0b34 FEFFFFEB 		bl	_ZdaPv
 4537              	.LVL408:
 4538              	.L461:
 4539              	.LEHB35:
 4540 0b38 FEFFFFEB 		bl	__cxa_end_cleanup
 4541              	.LVL409:
 4542              	.LEHE35:
 4543              	.L474:
 4544              	.LBE1505:
 4545              	.LBE1504:
 4546              	.LBE1515:
 4547              	.LBB1516:
 4548              	.LBB1468:
 4549              	.LBB1455:
 4550              	.LBB1450:
 4551              	.LBB1439:
 4552              	.LBB1437:
 4553              	.LBB1435:
 4554              	.LBB1433:
 4555              	.LBB1429:
 114:C:/Renesas/e2studio_2021_01_workspace_RZA2M_ANPR/ANPR_RZA2M_RDK/src/tensorflow_lite/src/tensorflow/lite/kernels/internal/reference\pooling.h ****                ++filter_y) {
 4556              		.loc 5 114 0
 4557 0b3c 0000A0E3 		mov	r0, #0
 4558              	.LBE1429:
 113:C:/Renesas/e2studio_2021_01_workspace_RZA2M_ANPR/ANPR_RZA2M_RDK/src/tensorflow_lite/src/tensorflow/lite/kernels/internal/reference\pooling.h ****           for (int filter_y = filter_y_start; filter_y < filter_y_end;
 4559              		.loc 5 113 0
 4560 0b40 0010A0E1 		mov	r1, r0
 4561 0b44 94FFFFEA 		b	.L419
 4562              	.LVL410:
 4563              	.L424:
 4564              	.LEHB36:
 4565              	.LBB1430:
 4566              	.LBB1422:
 4567              	.LBB1419:
 4568              	.LBB1414:
 4569              	.LBB1411:
 408:C:/Renesas/e2studio_2021_01_workspace_RZA2M_ANPR/ANPR_RZA2M_RDK/src/tensorflow_lite/src/tensorflow/lite/kernels/internal\types.h ****   TFLITE_DCHECK(i3 >= 0 && i3 < dims_data[3]);
 4570              		.loc 6 408 0
 4571 0b48 FEFFFFEB 		bl	abort
 4572              	.LVL411:
 4573              	.L481:
 4574 0b4c EBFFFFEA 		b	.L546
 4575              	.LVL412:
 4576              	.L423:
 407:C:/Renesas/e2studio_2021_01_workspace_RZA2M_ANPR/ANPR_RZA2M_RDK/src/tensorflow_lite/src/tensorflow/lite/kernels/internal\types.h ****   TFLITE_DCHECK(i2 >= 0 && i2 < dims_data[2]);
 4577              		.loc 6 407 0
 4578 0b50 FEFFFFEB 		bl	abort
 4579              	.LVL413:
 4580              	.L422:
 406:C:/Renesas/e2studio_2021_01_workspace_RZA2M_ANPR/ANPR_RZA2M_RDK/src/tensorflow_lite/src/tensorflow/lite/kernels/internal\types.h ****   TFLITE_DCHECK(i1 >= 0 && i1 < dims_data[1]);
 4581              		.loc 6 406 0
 4582 0b54 FEFFFFEB 		bl	abort
 4583              	.LVL414:
 4584              	.L421:
 404:C:/Renesas/e2studio_2021_01_workspace_RZA2M_ANPR/ANPR_RZA2M_RDK/src/tensorflow_lite/src/tensorflow/lite/kernels/internal\types.h ****   const int* dims_data = reinterpret_cast<const int*>(shape.DimsDataUpTo5D());
 4585              		.loc 6 404 0
 4586 0b58 FEFFFFEB 		bl	abort
 4587              	.LVL415:
 4588              	.LEHE36:
 4589              	.L556:
 4590              	.LEHB37:
 4591              	.LBE1411:
 4592              	.LBE1414:
 4593              	.LBE1419:
 4594              	.LBE1422:
 4595              	.LBE1430:
 4596              	.LBE1433:
 4597              	.LBE1435:
 4598              	.LBE1437:
 4599              	.LBE1439:
 4600              	.LBE1450:
 4601              	.LBE1455:
 4602              	.LBE1468:
 4603              	.LBE1516:
 4604              	.LBE1524:
 4605              	.LBE1530:
 4606              	.LBE1538:
 4607              	.LBB1539:
 4608              	.LBB1374:
 4609              	.LBB1369:
 4610              	.LBB1359:
 4611              	.LBB1352:
 4612              	.LBB1337:
 4613              	.LBB1332:
 4614              	.LBB1327:
 4615              	.LBB1322:
 4616              	.LBB1315:
 4617              	.LBB1300:
 406:C:/Renesas/e2studio_2021_01_workspace_RZA2M_ANPR/ANPR_RZA2M_RDK/src/tensorflow_lite/src/tensorflow/lite/kernels/internal\types.h ****   TFLITE_DCHECK(i1 >= 0 && i1 < dims_data[1]);
 4618              		.loc 6 406 0
 4619 0b5c FEFFFFEB 		bl	abort
 4620              	.LVL416:
 4621              	.L552:
 4622              	.LBE1300:
 4623              	.LBE1315:
 4624              	.LBE1322:
 4625              	.LBE1327:
 4626              	.LBE1332:
 4627              	.LBE1337:
 4628              	.LBE1352:
  31:C:/Renesas/e2studio_2021_01_workspace_RZA2M_ANPR/ANPR_RZA2M_RDK/src/tensorflow_lite/src/tensorflow/lite/kernels/internal/reference\pooling.h ****   const int batches = MatchingDim(input_shape, 0, output_shape, 0);
 4629              		.loc 5 31 0
 4630 0b60 FEFFFFEB 		bl	abort
 4631              	.LVL417:
 4632              	.L551:
  30:C:/Renesas/e2studio_2021_01_workspace_RZA2M_ANPR/ANPR_RZA2M_RDK/src/tensorflow_lite/src/tensorflow/lite/kernels/internal/reference\pooling.h ****   TFLITE_DCHECK_EQ(output_shape.DimensionsCount(), 4);
 4633              		.loc 5 30 0
 4634 0b64 FEFFFFEB 		bl	abort
 4635              	.LVL418:
 4636              	.LEHE37:
 4637              	.L576:
 4638              	.LEHB38:
 4639              	.LBE1359:
 4640              	.LBE1369:
 4641              	.LBE1374:
 4642              	.LBE1539:
 4643              	.LBB1540:
 4644              	.LBB1531:
 4645              	.LBB1525:
 4646              	.LBB1517:
 4647              	.LBB1469:
 4648              	.LBB1456:
 4649              	.LBB1451:
 4650              	.LBB1440:
 4651              	.LBB1438:
 4652              	.LBB1436:
 4653              	.LBB1434:
 4654              	.LBB1431:
 4655              	.LBB1428:
 409:C:/Renesas/e2studio_2021_01_workspace_RZA2M_ANPR/ANPR_RZA2M_RDK/src/tensorflow_lite/src/tensorflow/lite/kernels/internal\types.h ****   return ((i0 * dims_data[1] + i1) * dims_data[2] + i2) * dims_data[3] + i3;
 4656              		.loc 6 409 0
 4657 0b68 FEFFFFEB 		bl	abort
 4658              	.LVL419:
 4659              	.L575:
 408:C:/Renesas/e2studio_2021_01_workspace_RZA2M_ANPR/ANPR_RZA2M_RDK/src/tensorflow_lite/src/tensorflow/lite/kernels/internal\types.h ****   TFLITE_DCHECK(i3 >= 0 && i3 < dims_data[3]);
 4660              		.loc 6 408 0
 4661 0b6c FEFFFFEB 		bl	abort
 4662              	.LVL420:
 4663              	.L574:
 407:C:/Renesas/e2studio_2021_01_workspace_RZA2M_ANPR/ANPR_RZA2M_RDK/src/tensorflow_lite/src/tensorflow/lite/kernels/internal\types.h ****   TFLITE_DCHECK(i2 >= 0 && i2 < dims_data[2]);
 4664              		.loc 6 407 0
 4665 0b70 FEFFFFEB 		bl	abort
 4666              	.LVL421:
 4667              	.L573:
 406:C:/Renesas/e2studio_2021_01_workspace_RZA2M_ANPR/ANPR_RZA2M_RDK/src/tensorflow_lite/src/tensorflow/lite/kernels/internal\types.h ****   TFLITE_DCHECK(i1 >= 0 && i1 < dims_data[1]);
 4668              		.loc 6 406 0
 4669 0b74 FEFFFFEB 		bl	abort
 4670              	.LVL422:
 4671              	.L572:
 404:C:/Renesas/e2studio_2021_01_workspace_RZA2M_ANPR/ANPR_RZA2M_RDK/src/tensorflow_lite/src/tensorflow/lite/kernels/internal\types.h ****   const int* dims_data = reinterpret_cast<const int*>(shape.DimsDataUpTo5D());
 4672              		.loc 6 404 0
 4673 0b78 FEFFFFEB 		bl	abort
 4674              	.LVL423:
 4675              	.L571:
 4676              	.LBE1428:
 4677              	.LBE1431:
 4678              	.LBB1432:
 4679              	.LBB1423:
 4680              	.LBB1420:
 4681              	.LBB1415:
 4682              	.LBB1412:
 409:C:/Renesas/e2studio_2021_01_workspace_RZA2M_ANPR/ANPR_RZA2M_RDK/src/tensorflow_lite/src/tensorflow/lite/kernels/internal\types.h ****   return ((i0 * dims_data[1] + i1) * dims_data[2] + i2) * dims_data[3] + i3;
 4683              		.loc 6 409 0
 4684 0b7c FEFFFFEB 		bl	abort
 4685              	.LVL424:
 4686              	.LEHE38:
 4687              	.L447:
 4688              	.LEHB39:
 4689              	.LBE1412:
 4690              	.LBE1415:
 4691              	.LBE1420:
 4692              	.LBE1423:
 4693              	.LBE1432:
 4694              	.LBE1434:
 4695              	.LBE1436:
 4696              	.LBE1438:
 4697              	.LBE1440:
 4698              	.LBE1451:
 4699              	.LBE1456:
 4700              	.LBE1469:
 4701              	.LBE1517:
 4702              	.LBB1518:
 4703              	.LBB1507:
 4704              	.LBB1485:
 4705              		.loc 6 472 0
 4706 0b80 FEFFFFEB 		bl	abort
 4707              	.LVL425:
 4708              	.LEHE39:
 4709              	.L559:
 4710              	.LEHB40:
 4711              	.LBE1485:
 4712              	.LBE1507:
 4713              	.LBE1518:
 4714              	.LBE1525:
 4715              	.LBE1531:
 4716              	.LBE1540:
 4717              	.LBB1541:
 4718              	.LBB1375:
 4719              	.LBB1370:
 4720              	.LBB1360:
 4721              	.LBB1353:
 4722              	.LBB1338:
 4723              	.LBB1333:
 4724              	.LBB1328:
 4725              	.LBB1323:
 4726              	.LBB1316:
 4727              	.LBB1301:
 409:C:/Renesas/e2studio_2021_01_workspace_RZA2M_ANPR/ANPR_RZA2M_RDK/src/tensorflow_lite/src/tensorflow/lite/kernels/internal\types.h ****   return ((i0 * dims_data[1] + i1) * dims_data[2] + i2) * dims_data[3] + i3;
 4728              		.loc 6 409 0
 4729 0b84 FEFFFFEB 		bl	abort
 4730              	.LVL426:
 4731              	.L558:
 408:C:/Renesas/e2studio_2021_01_workspace_RZA2M_ANPR/ANPR_RZA2M_RDK/src/tensorflow_lite/src/tensorflow/lite/kernels/internal\types.h ****   TFLITE_DCHECK(i3 >= 0 && i3 < dims_data[3]);
 4732              		.loc 6 408 0
 4733 0b88 FEFFFFEB 		bl	abort
 4734              	.LVL427:
 4735              	.L557:
 407:C:/Renesas/e2studio_2021_01_workspace_RZA2M_ANPR/ANPR_RZA2M_RDK/src/tensorflow_lite/src/tensorflow/lite/kernels/internal\types.h ****   TFLITE_DCHECK(i2 >= 0 && i2 < dims_data[2]);
 4736              		.loc 6 407 0
 4737 0b8c FEFFFFEB 		bl	abort
 4738              	.LVL428:
 4739              	.LEHE40:
 4740              	.L478:
 4741 0b90 E1FFFFEA 		b	.L456
 4742              	.LVL429:
 4743              	.L482:
 4744              	.L460:
 4745              	.LBE1301:
 4746              	.LBE1316:
 4747              	.LBE1323:
 4748              	.LBE1328:
 4749              	.LBE1333:
 4750              	.LBE1338:
 4751              	.LBE1353:
 4752              	.LBE1360:
 4753              	.LBE1370:
 4754              	.LBE1375:
 4755              	.LBE1541:
 4756              	.LBB1542:
 4757              	.LBB1532:
 4758              	.LBB1526:
 4759              	.LBB1519:
 4760              	.LBB1508:
 4761              	.LBB1506:
 203:C:/Renesas/e2studio_2021_01_workspace_RZA2M_ANPR/ANPR_RZA2M_RDK/src/tensorflow_lite/src/tensorflow/lite/kernels/internal\types.h **** #ifdef TF_LITE_STATIC_MEMORY
 4762              		.loc 6 203 0
 4763 0b94 C8309DE5 		ldr	r3, [sp, #200]
 4764 0b98 050053E3 		cmp	r3, #5
 4765 0b9c E5FFFFDA 		ble	.L461
 207:C:/Renesas/e2studio_2021_01_workspace_RZA2M_ANPR/ANPR_RZA2M_RDK/src/tensorflow_lite/src/tensorflow/lite/kernels/internal\types.h **** #endif  // TF_LITE_STATIC_MEMORY
 4766              		.loc 6 207 0
 4767 0ba0 CC009DE5 		ldr	r0, [sp, #204]
 4768 0ba4 000050E3 		cmp	r0, #0
 4769 0ba8 E1FFFF1A 		bne	.L538
 4770 0bac E1FFFFEA 		b	.L461
 4771              	.LVL430:
 4772              	.L562:
 4773              	.LEHB41:
 4774              	.LBE1506:
 4775              	.LBE1508:
 127:../src/tensorflow_lite/src/tensorflow/lite/micro/kernels/cmsis_nn/pooling.cpp **** 
 4776              		.loc 1 127 0
 4777 0bb0 FEFFFFEB 		bl	abort
 4778              	.LVL431:
 4779              	.LEHE41:
 4780              	.L561:
 4781              	.LEHB42:
 124:../src/tensorflow_lite/src/tensorflow/lite/micro/kernels/cmsis_nn/pooling.cpp **** 
 4782              		.loc 1 124 0
 4783 0bb4 FEFFFFEB 		bl	abort
 4784              	.LVL432:
 4785              	.LEHE42:
 4786              	.L563:
 4787              	.LEHB43:
 4788              	.LBB1509:
 4789              	.LBB1486:
 4790              	.LBB1483:
 4791              	.LBB1478:
 215:C:/Renesas/e2studio_2021_01_workspace_RZA2M_ANPR/ANPR_RZA2M_RDK/src/tensorflow_lite/src/tensorflow/lite/kernels/internal\types.h ****     return size_ > kMaxSmallSize ? dims_pointer_[i] : dims_[i];
 4792              		.loc 6 215 0
 4793 0bb8 FEFFFFEB 		bl	abort
 4794              	.LVL433:
 4795              	.LEHE43:
 4796              	.L553:
 4797              	.LEHB44:
 4798              	.LBE1478:
 4799              	.LBE1483:
 4800              	.LBE1486:
 4801              	.LBE1509:
 4802              	.LBE1519:
 4803              	.LBE1526:
 4804              	.LBE1532:
 4805              	.LBE1542:
 4806              	.LBB1543:
 4807              	.LBB1376:
 4808              	.LBB1371:
 4809              	.LBB1361:
 4810              	.LBB1354:
 4811              	.LBB1268:
 4812              		.loc 6 472 0
 4813 0bbc FEFFFFEB 		bl	abort
 4814              	.LVL434:
 4815              	.L554:
 4816              	.LBE1268:
 4817              	.LBE1354:
 4818              	.LBB1355:
 4819              	.LBB1275:
 4820 0bc0 FEFFFFEB 		bl	abort
 4821              	.LVL435:
 4822              	.LEHE44:
 4823              	.L358:
 4824              	.LEHB45:
 4825              	.LBE1275:
 4826              	.LBE1355:
 4827              	.LBE1361:
 4828              	.LBE1371:
 4829              	.LBE1376:
 4830              	.LBE1543:
 324:../src/tensorflow_lite/src/tensorflow/lite/micro/kernels/cmsis_nn/pooling.cpp ****   auto* params = reinterpret_cast<TfLitePoolParams*>(node->builtin_data);
 4831              		.loc 1 324 0 discriminator 1
 4832 0bc4 FEFFFFEB 		bl	abort
 4833              	.LVL436:
 4834              	.LEHE45:
 4835              	.L570:
 4836              	.LEHB46:
 4837              	.LBB1544:
 4838              	.LBB1533:
 4839              	.LBB1527:
 4840              	.LBB1520:
 4841              	.LBB1470:
 4842              	.LBB1457:
 4843              	.LBB1452:
 4844              	.LBB1399:
 4845              		.loc 6 472 0
 4846 0bc8 FEFFFFEB 		bl	abort
 4847              	.LVL437:
 4848              	.L569:
 4849              	.LBE1399:
 4850              	.LBE1452:
 4851              	.LBB1453:
 4852              	.LBB1394:
 4853 0bcc FEFFFFEB 		bl	abort
 4854              	.LVL438:
 4855              	.L568:
 4856              	.LBE1394:
 4857              	.LBE1453:
  87:C:/Renesas/e2studio_2021_01_workspace_RZA2M_ANPR/ANPR_RZA2M_RDK/src/tensorflow_lite/src/tensorflow/lite/kernels/internal/reference\pooling.h ****   const int batches = MatchingDim(input_shape, 0, output_shape, 0);
 4858              		.loc 5 87 0
 4859 0bd0 FEFFFFEB 		bl	abort
 4860              	.LVL439:
 4861              	.L567:
  86:C:/Renesas/e2studio_2021_01_workspace_RZA2M_ANPR/ANPR_RZA2M_RDK/src/tensorflow_lite/src/tensorflow/lite/kernels/internal/reference\pooling.h ****   TFLITE_DCHECK_EQ(output_shape.DimensionsCount(), 4);
 4862              		.loc 5 86 0
 4863 0bd4 FEFFFFEB 		bl	abort
 4864              	.LVL440:
 4865              	.L566:
  84:C:/Renesas/e2studio_2021_01_workspace_RZA2M_ANPR/ANPR_RZA2M_RDK/src/tensorflow_lite/src/tensorflow/lite/kernels/internal/reference\pooling.h ****                    params.quantized_activation_max);
 4866              		.loc 5 84 0
 4867 0bd8 FEFFFFEB 		bl	abort
 4868              	.LVL441:
 4869              	.LEHE46:
 4870              	.L480:
 4871 0bdc CEFFFFEA 		b	.L456
 4872              	.LVL442:
 4873              	.L565:
 4874              	.LEHB47:
 4875              	.LBE1457:
 4876              	.LBE1470:
 4877              	.LBE1520:
 4878              	.LBB1521:
 164:../src/tensorflow_lite/src/tensorflow/lite/micro/kernels/cmsis_nn/pooling.cpp ****         arm_avgpool_s8(&ctx, &pool_params, &input_dims,
 4879              		.loc 1 164 0
 4880 0be0 FEFFFFEB 		bl	abort
 4881              	.LVL443:
 4882              	.LEHE47:
 4883              	.L483:
 4884              	.LBB1510:
 4885              	.LBB1511:
 203:C:/Renesas/e2studio_2021_01_workspace_RZA2M_ANPR/ANPR_RZA2M_RDK/src/tensorflow_lite/src/tensorflow/lite/kernels/internal\types.h **** #ifdef TF_LITE_STATIC_MEMORY
 4886              		.loc 6 203 0
 4887 0be4 E0309DE5 		ldr	r3, [sp, #224]
 4888 0be8 050053E3 		cmp	r3, #5
 4889 0bec E8FFFFDA 		ble	.L460
 207:C:/Renesas/e2studio_2021_01_workspace_RZA2M_ANPR/ANPR_RZA2M_RDK/src/tensorflow_lite/src/tensorflow/lite/kernels/internal\types.h **** #endif  // TF_LITE_STATIC_MEMORY
 4890              		.loc 6 207 0
 4891 0bf0 E4009DE5 		ldr	r0, [sp, #228]
 4892 0bf4 000050E3 		cmp	r0, #0
 4893 0bf8 E5FFFF0A 		beq	.L460
 4894 0bfc FEFFFFEB 		bl	_ZdaPv
 4895              	.LVL444:
 4896 0c00 E3FFFFEA 		b	.L460
 4897              	.L580:
 4898              		.align	2
 4899              	.L579:
 4900 0c04 FFFF7F7F 		.word	2139095039
 4901 0c08 00000000 		.word	0
 4902              	.LBE1511:
 4903              	.LBE1510:
 4904              	.LBE1521:
 4905              	.LBE1527:
 4906              	.LBE1533:
 4907              	.LBE1544:
 4908              		.cfi_endproc
 4909              	.LFE5922:
 4910              		.personality	__gxx_personality_v0
 4911              		.handlerdata
 4912              	.LLSDA5922:
 4913 000c FF       		.byte	0xff
 4914 000d FF       		.byte	0xff
 4915 000e 01       		.byte	0x1
 4916 000f 79       		.uleb128 .LLSDACSE5922-.LLSDACSB5922
 4917              	.LLSDACSB5922:
 4918 0010 40       		.uleb128 .LEHB27-.LFB5922
 4919 0011 D801     		.uleb128 .LEHE27-.LEHB27
 4920 0013 00       		.uleb128 0
 4921 0014 00       		.uleb128 0
 4922 0015 A402     		.uleb128 .LEHB28-.LFB5922
 4923 0017 04       		.uleb128 .LEHE28-.LEHB28
 4924 0018 9017     		.uleb128 .L478-.LFB5922
 4925 001a 00       		.uleb128 0
 4926 001b 880A     		.uleb128 .LEHB29-.LFB5922
 4927 001d 04       		.uleb128 .LEHE29-.LEHB29
 4928 001e 00       		.uleb128 0
 4929 001f 00       		.uleb128 0
 4930 0020 A00A     		.uleb128 .LEHB30-.LFB5922
 4931 0022 04       		.uleb128 .LEHE30-.LEHB30
 4932 0023 9417     		.uleb128 .L482-.LFB5922
 4933 0025 00       		.uleb128 0
 4934 0026 F00B     		.uleb128 .LEHB31-.LFB5922
 4935 0028 38       		.uleb128 .LEHE31-.LEHB31
 4936 0029 E417     		.uleb128 .L483-.LFB5922
 4937 002b 00       		.uleb128 0
 4938 002c FC0D     		.uleb128 .LEHB32-.LFB5922
 4939 002e 04       		.uleb128 .LEHE32-.LEHB32
 4940 002f 00       		.uleb128 0
 4941 0030 00       		.uleb128 0
 4942 0031 900E     		.uleb128 .LEHB33-.LFB5922
 4943 0033 04       		.uleb128 .LEHE33-.LEHB33
 4944 0034 DC17     		.uleb128 .L480-.LFB5922
 4945 0036 00       		.uleb128 0
 4946 0037 F015     		.uleb128 .LEHB34-.LFB5922
 4947 0039 10       		.uleb128 .LEHE34-.LEHB34
 4948 003a 8016     		.uleb128 .L479-.LFB5922
 4949 003c 00       		.uleb128 0
 4950 003d B816     		.uleb128 .LEHB35-.LFB5922
 4951 003f 04       		.uleb128 .LEHE35-.LEHB35
 4952 0040 00       		.uleb128 0
 4953 0041 00       		.uleb128 0
 4954 0042 C816     		.uleb128 .LEHB36-.LFB5922
 4955 0044 14       		.uleb128 .LEHE36-.LEHB36
 4956 0045 CC16     		.uleb128 .L481-.LFB5922
 4957 0047 00       		.uleb128 0
 4958 0048 DC16     		.uleb128 .LEHB37-.LFB5922
 4959 004a 0C       		.uleb128 .LEHE37-.LEHB37
 4960 004b 8016     		.uleb128 .L479-.LFB5922
 4961 004d 00       		.uleb128 0
 4962 004e E816     		.uleb128 .LEHB38-.LFB5922
 4963 0050 18       		.uleb128 .LEHE38-.LEHB38
 4964 0051 CC16     		.uleb128 .L481-.LFB5922
 4965 0053 00       		.uleb128 0
 4966 0054 8017     		.uleb128 .LEHB39-.LFB5922
 4967 0056 04       		.uleb128 .LEHE39-.LEHB39
 4968 0057 E417     		.uleb128 .L483-.LFB5922
 4969 0059 00       		.uleb128 0
 4970 005a 8417     		.uleb128 .LEHB40-.LFB5922
 4971 005c 0C       		.uleb128 .LEHE40-.LEHB40
 4972 005d 8016     		.uleb128 .L479-.LFB5922
 4973 005f 00       		.uleb128 0
 4974 0060 B017     		.uleb128 .LEHB41-.LFB5922
 4975 0062 04       		.uleb128 .LEHE41-.LEHB41
 4976 0063 E417     		.uleb128 .L483-.LFB5922
 4977 0065 00       		.uleb128 0
 4978 0066 B417     		.uleb128 .LEHB42-.LFB5922
 4979 0068 04       		.uleb128 .LEHE42-.LEHB42
 4980 0069 9417     		.uleb128 .L482-.LFB5922
 4981 006b 00       		.uleb128 0
 4982 006c B817     		.uleb128 .LEHB43-.LFB5922
 4983 006e 04       		.uleb128 .LEHE43-.LEHB43
 4984 006f E417     		.uleb128 .L483-.LFB5922
 4985 0071 00       		.uleb128 0
 4986 0072 BC17     		.uleb128 .LEHB44-.LFB5922
 4987 0074 08       		.uleb128 .LEHE44-.LEHB44
 4988 0075 8016     		.uleb128 .L479-.LFB5922
 4989 0077 00       		.uleb128 0
 4990 0078 C417     		.uleb128 .LEHB45-.LFB5922
 4991 007a 04       		.uleb128 .LEHE45-.LEHB45
 4992 007b 00       		.uleb128 0
 4993 007c 00       		.uleb128 0
 4994 007d C817     		.uleb128 .LEHB46-.LFB5922
 4995 007f 14       		.uleb128 .LEHE46-.LEHB46
 4996 0080 CC16     		.uleb128 .L481-.LFB5922
 4997 0082 00       		.uleb128 0
 4998 0083 E017     		.uleb128 .LEHB47-.LFB5922
 4999 0085 04       		.uleb128 .LEHE47-.LEHB47
 5000 0086 E417     		.uleb128 .L483-.LFB5922
 5001 0088 00       		.uleb128 0
 5002              	.LLSDACSE5922:
 5003              		.section	.text._ZN6tflite3ops5micro7pooling11AverageEvalEP13TfLiteContextP10TfLiteNode
 5004              		.fnend
 5006              		.section	.text._ZN6tflite3ops5micro7pooling14AveragePrepareEP13TfLiteContextP10TfLiteNode,"ax",%pr
 5007              		.align	2
 5008              		.global	_ZN6tflite3ops5micro7pooling14AveragePrepareEP13TfLiteContextP10TfLiteNode
 5009              		.syntax unified
 5010              		.arm
 5011              		.fpu neon
 5013              	_ZN6tflite3ops5micro7pooling14AveragePrepareEP13TfLiteContextP10TfLiteNode:
 5014              		.fnstart
 5015              	.LFB5921:
 288:../src/tensorflow_lite/src/tensorflow/lite/micro/kernels/cmsis_nn/pooling.cpp ****   TFLITE_DCHECK(node->user_data != nullptr);
 5016              		.loc 1 288 0
 5017              		.cfi_startproc
 5018              		.cfi_personality 0,__gxx_personality_v0
 5019              		.cfi_lsda 0,.LLSDA5921
 5020              		@ args = 0, pretend = 0, frame = 64
 5021              		@ frame_needed = 0, uses_anonymous_args = 0
 5022              	.LVL445:
 5023 0000 F04F2DE9 		push	{r4, r5, r6, r7, r8, r9, r10, fp, lr}
 5024              		.save {r4, r5, r6, r7, r8, r9, r10, fp, lr}
 5025              		.cfi_def_cfa_offset 36
 5026              		.cfi_offset 4, -36
 5027              		.cfi_offset 5, -32
 5028              		.cfi_offset 6, -28
 5029              		.cfi_offset 7, -24
 5030              		.cfi_offset 8, -20
 5031              		.cfi_offset 9, -16
 5032              		.cfi_offset 10, -12
 5033              		.cfi_offset 11, -8
 5034              		.cfi_offset 14, -4
 5035              		.pad #76
 5036 0004 4CD04DE2 		sub	sp, sp, #76
 5037              		.cfi_def_cfa_offset 112
 289:../src/tensorflow_lite/src/tensorflow/lite/micro/kernels/cmsis_nn/pooling.cpp ****   TFLITE_DCHECK(node->builtin_data != nullptr);
 5038              		.loc 1 289 0
 5039 0008 106091E5 		ldr	r6, [r1, #16]
 5040 000c 000056E3 		cmp	r6, #0
 5041 0010 D400000A 		beq	.L583
 290:../src/tensorflow_lite/src/tensorflow/lite/micro/kernels/cmsis_nn/pooling.cpp **** 
 5042              		.loc 1 290 0
 5043 0014 147091E5 		ldr	r7, [r1, #20]
 5044 0018 0140A0E1 		mov	r4, r1
 5045 001c 000057E3 		cmp	r7, #0
 5046 0020 D000000A 		beq	.L583
 5047 0024 00A0A0E1 		mov	r10, r0
 5048              	.LVL446:
 295:../src/tensorflow_lite/src/tensorflow/lite/micro/kernels/cmsis_nn/pooling.cpp ****   TfLiteTensor* output = GetOutput(context, node, kOutputTensor);
 5049              		.loc 1 295 0
 5050 0028 0020A0E3 		mov	r2, #0
 5051              	.LEHB48:
 5052 002c FEFFFFEB 		bl	_ZN6tflite8GetInputEPK13TfLiteContextPK10TfLiteNodei
 5053              	.LVL447:
 296:../src/tensorflow_lite/src/tensorflow/lite/micro/kernels/cmsis_nn/pooling.cpp **** 
 5054              		.loc 1 296 0
 5055 0030 0410A0E1 		mov	r1, r4
 295:../src/tensorflow_lite/src/tensorflow/lite/micro/kernels/cmsis_nn/pooling.cpp ****   TfLiteTensor* output = GetOutput(context, node, kOutputTensor);
 5056              		.loc 1 295 0
 5057 0034 0080A0E1 		mov	r8, r0
 5058              	.LVL448:
 296:../src/tensorflow_lite/src/tensorflow/lite/micro/kernels/cmsis_nn/pooling.cpp **** 
 5059              		.loc 1 296 0
 5060 0038 0020A0E3 		mov	r2, #0
 5061 003c 0A00A0E1 		mov	r0, r10
 5062              	.LVL449:
 5063 0040 FEFFFFEB 		bl	_ZN6tflite9GetOutputEP13TfLiteContextPK10TfLiteNodei
 5064              	.LVL450:
 5065              	.LBB1621:
 5066              	.LBB1622:
 5067              	.LBB1623:
  58:../src/tensorflow_lite/src/tensorflow/lite/micro/kernels/cmsis_nn/pooling.cpp ****       /*dilation_rate_height=*/1,
 5068              		.loc 1 58 0
 5069 0044 045097E5 		ldr	r5, [r7, #4]
 5070 0048 082098E5 		ldr	r2, [r8, #8]
  61:../src/tensorflow_lite/src/tensorflow/lite/micro/kernels/cmsis_nn/pooling.cpp **** 
 5071              		.loc 1 61 0
 5072 004c 0C1097E5 		ldr	r1, [r7, #12]
 5073              	.LBB1624:
 5074              	.LBB1625:
 5075              	.LBB1626:
 5076              	.LBB1627:
  50:C:/Renesas/e2studio_2021_01_workspace_RZA2M_ANPR/ANPR_RZA2M_RDK/src/tensorflow_lite/src/tensorflow/lite/kernels\padding.h **** 
 5077              		.loc 2 50 0
 5078 0050 000055E3 		cmp	r5, #0
 5079              	.LBE1627:
 5080              	.LBE1626:
 5081              	.LBE1625:
 5082              	.LBE1624:
 5083              	.LBE1623:
 5084              	.LBE1622:
 5085              	.LBE1621:
 296:../src/tensorflow_lite/src/tensorflow/lite/micro/kernels/cmsis_nn/pooling.cpp **** 
 5086              		.loc 1 296 0
 5087 0054 0C008DE5 		str	r0, [sp, #12]
 5088              	.LVL451:
 5089              	.LBB1692:
 5090              	.LBB1688:
 5091              	.LBB1684:
 5092              	.LBB1661:
 5093              	.LBB1662:
 149:C:/Renesas/e2studio_2021_01_workspace_RZA2M_ANPR/ANPR_RZA2M_RDK/src/tensorflow_lite/src/tensorflow/lite/kernels\kernel_util.h **** }
 5094              		.loc 3 149 0
 5095 0058 083092E5 		ldr	r3, [r2, #8]
 5096              	.LVL452:
 5097              	.LBE1662:
 5098              	.LBE1661:
  61:../src/tensorflow_lite/src/tensorflow/lite/micro/kernels/cmsis_nn/pooling.cpp **** 
 5099              		.loc 1 61 0
 5100 005c 08108DE5 		str	r1, [sp, #8]
  58:../src/tensorflow_lite/src/tensorflow/lite/micro/kernels/cmsis_nn/pooling.cpp ****       /*dilation_rate_height=*/1,
 5101              		.loc 1 58 0
 5102 0060 084097E5 		ldr	r4, [r7, #8]
 5103              	.LVL453:
  60:../src/tensorflow_lite/src/tensorflow/lite/micro/kernels/cmsis_nn/pooling.cpp ****       params->filter_width, params->padding, &out_height, &out_width);
 5104              		.loc 1 60 0
 5105 0064 10B097E5 		ldr	fp, [r7, #16]
 5106              	.LBB1663:
 5107              	.LBB1664:
 149:C:/Renesas/e2studio_2021_01_workspace_RZA2M_ANPR/ANPR_RZA2M_RDK/src/tensorflow_lite/src/tensorflow/lite/kernels\kernel_util.h **** }
 5108              		.loc 3 149 0
 5109 0068 0C2092E5 		ldr	r2, [r2, #12]
 5110              	.LVL454:
 5111              	.LBE1664:
 5112              	.LBE1663:
  61:../src/tensorflow_lite/src/tensorflow/lite/micro/kernels/cmsis_nn/pooling.cpp **** 
 5113              		.loc 1 61 0
 5114 006c 0010D7E5 		ldrb	r1, [r7]	@ zero_extendqisi2
 5115              	.LVL455:
 5116              	.LBB1665:
 5117              	.LBB1656:
 5118              	.LBB1630:
 5119              	.LBB1628:
  50:C:/Renesas/e2studio_2021_01_workspace_RZA2M_ANPR/ANPR_RZA2M_RDK/src/tensorflow_lite/src/tensorflow/lite/kernels\padding.h **** 
 5120              		.loc 2 50 0
 5121 0070 1900000A 		beq	.L584
  52:C:/Renesas/e2studio_2021_01_workspace_RZA2M_ANPR/ANPR_RZA2M_RDK/src/tensorflow_lite/src/tensorflow/lite/kernels\padding.h ****     case kTfLitePaddingSame:
 5122              		.loc 2 52 0
 5123 0074 010051E3 		cmp	r1, #1
 5124 0078 8D00000A 		beq	.L585
 5125 007c 020051E3 		cmp	r1, #2
 5126 0080 1500001A 		bne	.L584
 5127 0084 14308DE5 		str	r3, [sp, #20]
 5128              		.loc 2 56 0
 5129 0088 050082E0 		add	r0, r2, r5
 5130              	.LVL456:
 5131 008c 08309DE5 		ldr	r3, [sp, #8]
 5132              	.LVL457:
 5133 0090 0510A0E1 		mov	r1, r5
 5134              	.LVL458:
 5135 0094 10208DE5 		str	r2, [sp, #16]
 5136 0098 030040E0 		sub	r0, r0, r3
 5137 009c FEFFFFEB 		bl	__aeabi_idiv
 5138              	.LVL459:
 5139              	.LBE1628:
 5140              	.LBE1630:
 5141              	.LBB1631:
 5142              	.LBB1632:
  50:C:/Renesas/e2studio_2021_01_workspace_RZA2M_ANPR/ANPR_RZA2M_RDK/src/tensorflow_lite/src/tensorflow/lite/kernels\padding.h **** 
 5143              		.loc 2 50 0
 5144 00a0 000054E3 		cmp	r4, #0
 5145 00a4 019040E2 		sub	r9, r0, #1
 5146 00a8 10209DE5 		ldr	r2, [sp, #16]
 5147 00ac 14309DE5 		ldr	r3, [sp, #20]
 5148 00b0 9A00000A 		beq	.L642
 5149              	.LVL460:
 5150              	.L591:
 5151              		.loc 2 56 0
 5152 00b4 040083E0 		add	r0, r3, r4
 5153 00b8 0410A0E1 		mov	r1, r4
 5154 00bc 0B0040E0 		sub	r0, r0, fp
 5155 00c0 14208DE5 		str	r2, [sp, #20]
 5156 00c4 10308DE5 		str	r3, [sp, #16]
 5157 00c8 FEFFFFEB 		bl	__aeabi_idiv
 5158              	.LVL461:
 5159 00cc 10309DE5 		ldr	r3, [sp, #16]
 5160 00d0 010040E2 		sub	r0, r0, #1
 5161 00d4 14209DE5 		ldr	r2, [sp, #20]
 5162 00d8 070000EA 		b	.L589
 5163              	.LVL462:
 5164              	.L584:
  50:C:/Renesas/e2studio_2021_01_workspace_RZA2M_ANPR/ANPR_RZA2M_RDK/src/tensorflow_lite/src/tensorflow/lite/kernels\padding.h **** 
 5165              		.loc 2 50 0
 5166 00dc 000054E3 		cmp	r4, #0
 5167 00e0 0300000A 		beq	.L639
  52:C:/Renesas/e2studio_2021_01_workspace_RZA2M_ANPR/ANPR_RZA2M_RDK/src/tensorflow_lite/src/tensorflow/lite/kernels\padding.h ****     case kTfLitePaddingSame:
 5168              		.loc 2 52 0
 5169 00e4 010051E3 		cmp	r1, #1
 5170 00e8 9000000A 		beq	.L618
 5171 00ec 020051E3 		cmp	r1, #2
 5172 00f0 8C00000A 		beq	.L645
 5173              	.L639:
 5174 00f4 0090E0E3 		mvn	r9, #0
 5175 00f8 0900A0E1 		mov	r0, r9
 5176              	.LVL463:
 5177              	.L589:
 5178              	.LBE1632:
 5179              	.LBE1631:
 5180              	.LBB1635:
 5181              	.LBB1636:
  37:C:/Renesas/e2studio_2021_01_workspace_RZA2M_ANPR/ANPR_RZA2M_RDK/src/tensorflow_lite/src/tensorflow/lite/kernels\padding.h ****   total_padding = total_padding > 0 ? total_padding : 0;
 5182              		.loc 2 37 0
 5183 00fc 90B424E0 		mla	r4, r0, r4, fp
 5184              	.LVL464:
 5185              	.LBE1636:
 5186              	.LBE1635:
 5187              	.LBB1640:
 5188              	.LBB1641:
 5189 0100 08009DE5 		ldr	r0, [sp, #8]
 5190              	.LBE1641:
 5191              	.LBE1640:
 5192              	.LBE1656:
 5193              	.LBE1665:
 5194              	.LBB1666:
  63:../src/tensorflow_lite/src/tensorflow/lite/micro/kernels/cmsis_nn/pooling.cpp ****     CalculateActivationRange(params->activation, &data->activation_min_f32,
 5195              		.loc 1 63 0
 5196 0104 0010D8E5 		ldrb	r1, [r8]	@ zero_extendqisi2
 5197              	.LBE1666:
 5198              	.LBB1675:
 5199              	.LBB1657:
 5200              	.LBB1646:
 5201              	.LBB1642:
  37:C:/Renesas/e2studio_2021_01_workspace_RZA2M_ANPR/ANPR_RZA2M_RDK/src/tensorflow_lite/src/tensorflow/lite/kernels\padding.h ****   total_padding = total_padding > 0 ? total_padding : 0;
 5202              		.loc 2 37 0
 5203 0108 990525E0 		mla	r5, r9, r5, r0
 5204              	.LVL465:
 5205              	.LBE1642:
 5206              	.LBE1646:
 5207              	.LBB1647:
 5208              	.LBB1637:
 5209 010c 033044E0 		sub	r3, r4, r3
 5210              	.LVL466:
  38:C:/Renesas/e2studio_2021_01_workspace_RZA2M_ANPR/ANPR_RZA2M_RDK/src/tensorflow_lite/src/tensorflow/lite/kernels\padding.h ****   *offset = total_padding % 2;
 5211              		.loc 2 38 0
 5212 0110 C33FC3E1 		bic	r3, r3, r3, asr #31
 5213              	.LVL467:
 5214              	.LBE1637:
 5215              	.LBE1647:
 5216              	.LBE1657:
 5217              	.LBE1675:
 5218              	.LBB1676:
  63:../src/tensorflow_lite/src/tensorflow/lite/micro/kernels/cmsis_nn/pooling.cpp ****     CalculateActivationRange(params->activation, &data->activation_min_f32,
 5219              		.loc 1 63 0
 5220 0114 010051E3 		cmp	r1, #1
 5221              	.LBE1676:
 5222              	.LBB1677:
 5223              	.LBB1658:
 5224              	.LBB1648:
 5225              	.LBB1643:
  37:C:/Renesas/e2studio_2021_01_workspace_RZA2M_ANPR/ANPR_RZA2M_RDK/src/tensorflow_lite/src/tensorflow/lite/kernels\padding.h ****   total_padding = total_padding > 0 ? total_padding : 0;
 5226              		.loc 2 37 0
 5227 0118 022045E0 		sub	r2, r5, r2
 5228              	.LVL468:
  38:C:/Renesas/e2studio_2021_01_workspace_RZA2M_ANPR/ANPR_RZA2M_RDK/src/tensorflow_lite/src/tensorflow/lite/kernels\padding.h ****   *offset = total_padding % 2;
 5229              		.loc 2 38 0
 5230 011c C22FC2E1 		bic	r2, r2, r2, asr #31
 5231              	.LVL469:
 5232              	.LBE1643:
 5233              	.LBE1648:
 5234              	.LBB1649:
 5235              	.LBB1638:
  40:C:/Renesas/e2studio_2021_01_workspace_RZA2M_ANPR/ANPR_RZA2M_RDK/src/tensorflow_lite/src/tensorflow/lite/kernels\padding.h **** }
 5236              		.loc 2 40 0
 5237 0120 C310A0E1 		asr	r1, r3, #1
 5238              	.LBE1638:
 5239              	.LBE1649:
 5240              	.LBB1650:
 5241              	.LBB1644:
 5242 0124 C200A0E1 		asr	r0, r2, #1
 5243              	.LBE1644:
 5244              	.LBE1650:
 5245              	.LBB1651:
 5246              	.LBB1639:
  39:C:/Renesas/e2studio_2021_01_workspace_RZA2M_ANPR/ANPR_RZA2M_RDK/src/tensorflow_lite/src/tensorflow/lite/kernels\padding.h ****   return total_padding / 2;
 5247              		.loc 2 39 0
 5248 0128 013003E2 		and	r3, r3, #1
 5249              	.LBE1639:
 5250              	.LBE1651:
 5251              	.LBB1652:
 5252              	.LBB1645:
 5253 012c 012002E2 		and	r2, r2, #1
 5254              	.LBE1645:
 5255              	.LBE1652:
 5256              	.LBE1658:
 5257              	.LBE1677:
  61:../src/tensorflow_lite/src/tensorflow/lite/micro/kernels/cmsis_nn/pooling.cpp **** 
 5258              		.loc 1 61 0
 5259 0130 0F0086E8 		stm	r6, {r0, r1, r2, r3}
 5260              	.LBB1678:
  63:../src/tensorflow_lite/src/tensorflow/lite/micro/kernels/cmsis_nn/pooling.cpp ****     CalculateActivationRange(params->activation, &data->activation_min_f32,
 5261              		.loc 1 63 0
 5262 0134 1200001A 		bne	.L592
  64:../src/tensorflow_lite/src/tensorflow/lite/micro/kernels/cmsis_nn/pooling.cpp ****                              &data->activation_max_f32);
 5263              		.loc 1 64 0
 5264 0138 1430D7E5 		ldrb	r3, [r7, #20]	@ zero_extendqisi2
 5265              	.LVL470:
 5266              	.LBB1667:
 5267              	.LBB1668:
 256:C:/Renesas/e2studio_2021_01_workspace_RZA2M_ANPR/ANPR_RZA2M_RDK/src/tensorflow_lite/src/tensorflow/lite/kernels\kernel_util.h ****     *activation_min = 0;
 5268              		.loc 3 256 0
 5269 013c 010053E3 		cmp	r3, #1
 5270 0140 7000000A 		beq	.L646
 259:C:/Renesas/e2studio_2021_01_workspace_RZA2M_ANPR/ANPR_RZA2M_RDK/src/tensorflow_lite/src/tensorflow/lite/kernels\kernel_util.h ****     *activation_min = 0;
 5271              		.loc 3 259 0
 5272 0144 030053E3 		cmp	r3, #3
 5273 0148 7A00000A 		beq	.L647
 262:C:/Renesas/e2studio_2021_01_workspace_RZA2M_ANPR/ANPR_RZA2M_RDK/src/tensorflow_lite/src/tensorflow/lite/kernels\kernel_util.h ****     *activation_min = -1;
 5274              		.loc 3 262 0
 5275 014c 020053E3 		cmp	r3, #2
 263:C:/Renesas/e2studio_2021_01_workspace_RZA2M_ANPR/ANPR_RZA2M_RDK/src/tensorflow_lite/src/tensorflow/lite/kernels\kernel_util.h ****     *activation_max = 1;
 5276              		.loc 3 263 0
 5277 0150 0020A003 		moveq	r2, #0
 5278              		.loc 3 267 0
 5279 0154 FF3F0F13 		movwne	r3, #65535
 5280              	.LVL471:
 263:C:/Renesas/e2studio_2021_01_workspace_RZA2M_ANPR/ANPR_RZA2M_RDK/src/tensorflow_lite/src/tensorflow/lite/kernels\kernel_util.h ****     *activation_max = 1;
 5281              		.loc 3 263 0
 5282 0158 802F4B03 		movteq	r2, 49024
 264:C:/Renesas/e2studio_2021_01_workspace_RZA2M_ANPR/ANPR_RZA2M_RDK/src/tensorflow_lite/src/tensorflow/lite/kernels\kernel_util.h ****   } else {
 5283              		.loc 3 264 0
 5284 015c FE35A003 		moveq	r3, #1065353216
 266:C:/Renesas/e2studio_2021_01_workspace_RZA2M_ANPR/ANPR_RZA2M_RDK/src/tensorflow_lite/src/tensorflow/lite/kernels\kernel_util.h ****     *activation_max = std::numeric_limits<T>::max();
 5285              		.loc 3 266 0
 5286 0160 0225E013 		mvnne	r2, #8388608
 5287              		.loc 3 267 0
 5288 0164 7F3F4713 		movtne	r3, 32639
 266:C:/Renesas/e2studio_2021_01_workspace_RZA2M_ANPR/ANPR_RZA2M_RDK/src/tensorflow_lite/src/tensorflow/lite/kernels\kernel_util.h ****     *activation_max = std::numeric_limits<T>::max();
 5289              		.loc 3 266 0
 5290 0168 1C2086E5 		str	r2, [r6, #28]	@ float
 5291              		.loc 3 267 0
 5292 016c 203086E5 		str	r3, [r6, #32]	@ float
 5293              	.L594:
 5294              	.LBE1668:
 5295              	.LBE1667:
 5296              	.LBE1678:
 5297              	.LBE1684:
 5298              	.LBE1688:
 5299              	.LBE1692:
 320:../src/tensorflow_lite/src/tensorflow/lite/micro/kernels/cmsis_nn/pooling.cpp **** }
 5300              		.loc 1 320 0
 5301 0170 0000A0E3 		mov	r0, #0
 5302              	.LBB1693:
 5303              	.LBB1689:
 5304              	.LBB1685:
  74:../src/tensorflow_lite/src/tensorflow/lite/micro/kernels/cmsis_nn/pooling.cpp **** 
 5305              		.loc 1 74 0
 5306 0174 0030E0E3 		mvn	r3, #0
 5307 0178 103086E5 		str	r3, [r6, #16]
 5308              	.LVL472:
 5309              	.L623:
 5310              	.LBE1685:
 5311              	.LBE1689:
 5312              	.LBE1693:
 321:../src/tensorflow_lite/src/tensorflow/lite/micro/kernels/cmsis_nn/pooling.cpp **** 
 5313              		.loc 1 321 0
 5314 017c 4CD08DE2 		add	sp, sp, #76
 5315              		.cfi_remember_state
 5316              		.cfi_def_cfa_offset 36
 5317              		@ sp needed
 5318 0180 F08FBDE8 		pop	{r4, r5, r6, r7, r8, r9, r10, fp, pc}
 5319              	.LVL473:
 5320              	.L592:
 5321              		.cfi_restore_state
 5322              	.LBB1694:
 5323              	.LBB1690:
 5324              	.LBB1686:
 5325              	.LBB1679:
 5326              	.LBB1671:
 5327              	.LBB1672:
  67:../src/tensorflow_lite/src/tensorflow/lite/micro/kernels/cmsis_nn/pooling.cpp ****         context, params->activation, output, &data->activation_min,
 5328              		.loc 1 67 0
 5329 0184 183086E2 		add	r3, r6, #24
 5330 0188 1410D7E5 		ldrb	r1, [r7, #20]	@ zero_extendqisi2
 5331 018c 0C209DE5 		ldr	r2, [sp, #12]
 5332 0190 0A00A0E1 		mov	r0, r10
 5333 0194 00308DE5 		str	r3, [sp]
 5334 0198 143086E2 		add	r3, r6, #20
 5335 019c FEFFFFEB 		bl	_ZN6tflite33CalculateActivationRangeQuantizedEP13TfLiteContext21TfLiteFusedActivationP12TfLiteT
 5336              	.LVL474:
 5337 01a0 000050E3 		cmp	r0, #0
 5338              	.LVL475:
 5339 01a4 F4FFFF1A 		bne	.L623
 5340              	.LBE1672:
  70:../src/tensorflow_lite/src/tensorflow/lite/micro/kernels/cmsis_nn/pooling.cpp ****   }
 5341              		.loc 1 70 0
 5342 01a8 142096E5 		ldr	r2, [r6, #20]
 5343 01ac 183096E5 		ldr	r3, [r6, #24]
 5344 01b0 030052E1 		cmp	r2, r3
 5345 01b4 6B0000CA 		bgt	.L583
 5346 01b8 0030D8E5 		ldrb	r3, [r8]	@ zero_extendqisi2
 5347              	.LBE1671:
 5348              	.LBE1679:
  74:../src/tensorflow_lite/src/tensorflow/lite/micro/kernels/cmsis_nn/pooling.cpp **** 
 5349              		.loc 1 74 0
 5350 01bc 0020E0E3 		mvn	r2, #0
 5351 01c0 102086E5 		str	r2, [r6, #16]
 5352              	.LVL476:
 5353              	.LBE1686:
 5354              	.LBE1690:
 5355              	.LBE1694:
 5356              	.LBB1695:
 300:../src/tensorflow_lite/src/tensorflow/lite/micro/kernels/cmsis_nn/pooling.cpp ****     RuntimeShape input_shape = GetTensorShape(input);
 5357              		.loc 1 300 0
 5358 01c4 090053E3 		cmp	r3, #9
 5359 01c8 EBFFFF1A 		bne	.L623
 5360              	.LVL477:
 5361              	.LBB1696:
 5362              	.LBB1697:
 5363              	.LBB1698:
 5364              		.file 8 "C:/Renesas/e2studio_2021_01_workspace_RZA2M_ANPR/ANPR_RZA2M_RDK/src/tensorflow_lite/src/t
   1:C:/Renesas/e2studio_2021_01_workspace_RZA2M_ANPR/ANPR_RZA2M_RDK/src/tensorflow_lite/src/tensorflow/lite/kernels/internal\tensor_ctypes.h **** /* Copyright 2017 The TensorFlow Authors. All Rights Reserved.
   2:C:/Renesas/e2studio_2021_01_workspace_RZA2M_ANPR/ANPR_RZA2M_RDK/src/tensorflow_lite/src/tensorflow/lite/kernels/internal\tensor_ctypes.h **** 
   3:C:/Renesas/e2studio_2021_01_workspace_RZA2M_ANPR/ANPR_RZA2M_RDK/src/tensorflow_lite/src/tensorflow/lite/kernels/internal\tensor_ctypes.h **** Licensed under the Apache License, Version 2.0 (the "License");
   4:C:/Renesas/e2studio_2021_01_workspace_RZA2M_ANPR/ANPR_RZA2M_RDK/src/tensorflow_lite/src/tensorflow/lite/kernels/internal\tensor_ctypes.h **** you may not use this file except in compliance with the License.
   5:C:/Renesas/e2studio_2021_01_workspace_RZA2M_ANPR/ANPR_RZA2M_RDK/src/tensorflow_lite/src/tensorflow/lite/kernels/internal\tensor_ctypes.h **** You may obtain a copy of the License at
   6:C:/Renesas/e2studio_2021_01_workspace_RZA2M_ANPR/ANPR_RZA2M_RDK/src/tensorflow_lite/src/tensorflow/lite/kernels/internal\tensor_ctypes.h **** 
   7:C:/Renesas/e2studio_2021_01_workspace_RZA2M_ANPR/ANPR_RZA2M_RDK/src/tensorflow_lite/src/tensorflow/lite/kernels/internal\tensor_ctypes.h ****     http://www.apache.org/licenses/LICENSE-2.0
   8:C:/Renesas/e2studio_2021_01_workspace_RZA2M_ANPR/ANPR_RZA2M_RDK/src/tensorflow_lite/src/tensorflow/lite/kernels/internal\tensor_ctypes.h **** 
   9:C:/Renesas/e2studio_2021_01_workspace_RZA2M_ANPR/ANPR_RZA2M_RDK/src/tensorflow_lite/src/tensorflow/lite/kernels/internal\tensor_ctypes.h **** Unless required by applicable law or agreed to in writing, software
  10:C:/Renesas/e2studio_2021_01_workspace_RZA2M_ANPR/ANPR_RZA2M_RDK/src/tensorflow_lite/src/tensorflow/lite/kernels/internal\tensor_ctypes.h **** distributed under the License is distributed on an "AS IS" BASIS,
  11:C:/Renesas/e2studio_2021_01_workspace_RZA2M_ANPR/ANPR_RZA2M_RDK/src/tensorflow_lite/src/tensorflow/lite/kernels/internal\tensor_ctypes.h **** WITHOUT WARRANTIES OR CONDITIONS OF ANY KIND, either express or implied.
  12:C:/Renesas/e2studio_2021_01_workspace_RZA2M_ANPR/ANPR_RZA2M_RDK/src/tensorflow_lite/src/tensorflow/lite/kernels/internal\tensor_ctypes.h **** See the License for the specific language governing permissions and
  13:C:/Renesas/e2studio_2021_01_workspace_RZA2M_ANPR/ANPR_RZA2M_RDK/src/tensorflow_lite/src/tensorflow/lite/kernels/internal\tensor_ctypes.h **** limitations under the License.
  14:C:/Renesas/e2studio_2021_01_workspace_RZA2M_ANPR/ANPR_RZA2M_RDK/src/tensorflow_lite/src/tensorflow/lite/kernels/internal\tensor_ctypes.h **** ==============================================================================*/
  15:C:/Renesas/e2studio_2021_01_workspace_RZA2M_ANPR/ANPR_RZA2M_RDK/src/tensorflow_lite/src/tensorflow/lite/kernels/internal\tensor_ctypes.h **** #ifndef TENSORFLOW_LITE_KERNELS_INTERNAL_TENSOR_CTYPES_H_
  16:C:/Renesas/e2studio_2021_01_workspace_RZA2M_ANPR/ANPR_RZA2M_RDK/src/tensorflow_lite/src/tensorflow/lite/kernels/internal\tensor_ctypes.h **** #define TENSORFLOW_LITE_KERNELS_INTERNAL_TENSOR_CTYPES_H_
  17:C:/Renesas/e2studio_2021_01_workspace_RZA2M_ANPR/ANPR_RZA2M_RDK/src/tensorflow_lite/src/tensorflow/lite/kernels/internal\tensor_ctypes.h **** 
  18:C:/Renesas/e2studio_2021_01_workspace_RZA2M_ANPR/ANPR_RZA2M_RDK/src/tensorflow_lite/src/tensorflow/lite/kernels/internal\tensor_ctypes.h **** #include "tensorflow/lite/c/common.h"
  19:C:/Renesas/e2studio_2021_01_workspace_RZA2M_ANPR/ANPR_RZA2M_RDK/src/tensorflow_lite/src/tensorflow/lite/kernels/internal\tensor_ctypes.h **** #include "tensorflow/lite/kernels/internal/types.h"
  20:C:/Renesas/e2studio_2021_01_workspace_RZA2M_ANPR/ANPR_RZA2M_RDK/src/tensorflow_lite/src/tensorflow/lite/kernels/internal\tensor_ctypes.h **** 
  21:C:/Renesas/e2studio_2021_01_workspace_RZA2M_ANPR/ANPR_RZA2M_RDK/src/tensorflow_lite/src/tensorflow/lite/kernels/internal\tensor_ctypes.h **** namespace tflite {
  22:C:/Renesas/e2studio_2021_01_workspace_RZA2M_ANPR/ANPR_RZA2M_RDK/src/tensorflow_lite/src/tensorflow/lite/kernels/internal\tensor_ctypes.h **** 
  23:C:/Renesas/e2studio_2021_01_workspace_RZA2M_ANPR/ANPR_RZA2M_RDK/src/tensorflow_lite/src/tensorflow/lite/kernels/internal\tensor_ctypes.h **** template <typename T>
  24:C:/Renesas/e2studio_2021_01_workspace_RZA2M_ANPR/ANPR_RZA2M_RDK/src/tensorflow_lite/src/tensorflow/lite/kernels/internal\tensor_ctypes.h **** inline T* GetTensorData(TfLiteTensor* tensor) {
  25:C:/Renesas/e2studio_2021_01_workspace_RZA2M_ANPR/ANPR_RZA2M_RDK/src/tensorflow_lite/src/tensorflow/lite/kernels/internal\tensor_ctypes.h ****   return tensor != nullptr ? reinterpret_cast<T*>(tensor->data.raw) : nullptr;
  26:C:/Renesas/e2studio_2021_01_workspace_RZA2M_ANPR/ANPR_RZA2M_RDK/src/tensorflow_lite/src/tensorflow/lite/kernels/internal\tensor_ctypes.h **** }
  27:C:/Renesas/e2studio_2021_01_workspace_RZA2M_ANPR/ANPR_RZA2M_RDK/src/tensorflow_lite/src/tensorflow/lite/kernels/internal\tensor_ctypes.h **** 
  28:C:/Renesas/e2studio_2021_01_workspace_RZA2M_ANPR/ANPR_RZA2M_RDK/src/tensorflow_lite/src/tensorflow/lite/kernels/internal\tensor_ctypes.h **** template <typename T>
  29:C:/Renesas/e2studio_2021_01_workspace_RZA2M_ANPR/ANPR_RZA2M_RDK/src/tensorflow_lite/src/tensorflow/lite/kernels/internal\tensor_ctypes.h **** inline const T* GetTensorData(const TfLiteTensor* tensor) {
  30:C:/Renesas/e2studio_2021_01_workspace_RZA2M_ANPR/ANPR_RZA2M_RDK/src/tensorflow_lite/src/tensorflow/lite/kernels/internal\tensor_ctypes.h ****   return tensor != nullptr ? reinterpret_cast<const T*>(tensor->data.raw)
  31:C:/Renesas/e2studio_2021_01_workspace_RZA2M_ANPR/ANPR_RZA2M_RDK/src/tensorflow_lite/src/tensorflow/lite/kernels/internal\tensor_ctypes.h ****                            : nullptr;
  32:C:/Renesas/e2studio_2021_01_workspace_RZA2M_ANPR/ANPR_RZA2M_RDK/src/tensorflow_lite/src/tensorflow/lite/kernels/internal\tensor_ctypes.h **** }
  33:C:/Renesas/e2studio_2021_01_workspace_RZA2M_ANPR/ANPR_RZA2M_RDK/src/tensorflow_lite/src/tensorflow/lite/kernels/internal\tensor_ctypes.h **** 
  34:C:/Renesas/e2studio_2021_01_workspace_RZA2M_ANPR/ANPR_RZA2M_RDK/src/tensorflow_lite/src/tensorflow/lite/kernels/internal\tensor_ctypes.h **** inline RuntimeShape GetTensorShape(const TfLiteTensor* tensor) {
  35:C:/Renesas/e2studio_2021_01_workspace_RZA2M_ANPR/ANPR_RZA2M_RDK/src/tensorflow_lite/src/tensorflow/lite/kernels/internal\tensor_ctypes.h ****   if (tensor == nullptr) {
  36:C:/Renesas/e2studio_2021_01_workspace_RZA2M_ANPR/ANPR_RZA2M_RDK/src/tensorflow_lite/src/tensorflow/lite/kernels/internal\tensor_ctypes.h ****     return RuntimeShape();
  37:C:/Renesas/e2studio_2021_01_workspace_RZA2M_ANPR/ANPR_RZA2M_RDK/src/tensorflow_lite/src/tensorflow/lite/kernels/internal\tensor_ctypes.h ****   }
  38:C:/Renesas/e2studio_2021_01_workspace_RZA2M_ANPR/ANPR_RZA2M_RDK/src/tensorflow_lite/src/tensorflow/lite/kernels/internal\tensor_ctypes.h **** 
  39:C:/Renesas/e2studio_2021_01_workspace_RZA2M_ANPR/ANPR_RZA2M_RDK/src/tensorflow_lite/src/tensorflow/lite/kernels/internal\tensor_ctypes.h ****   TfLiteIntArray* dims = tensor->dims;
  40:C:/Renesas/e2studio_2021_01_workspace_RZA2M_ANPR/ANPR_RZA2M_RDK/src/tensorflow_lite/src/tensorflow/lite/kernels/internal\tensor_ctypes.h ****   const int dims_size = dims->size;
 5365              		.loc 8 40 0
 5366 01cc 085098E5 		ldr	r5, [r8, #8]
 5367 01d0 042095E4 		ldr	r2, [r5], #4
 5368              	.LVL478:
 5369              	.LBB1699:
 5370              	.LBB1700:
 5371              	.LBB1701:
 5372              	.LBB1702:
 5373              	.LBB1703:
 246:C:/Renesas/e2studio_2021_01_workspace_RZA2M_ANPR/ANPR_RZA2M_RDK/src/tensorflow_lite/src/tensorflow/lite/kernels/internal\types.h **** #ifdef TF_LITE_STATIC_MEMORY
 5374              		.loc 6 246 0
 5375 01d4 050052E3 		cmp	r2, #5
 245:C:/Renesas/e2studio_2021_01_workspace_RZA2M_ANPR/ANPR_RZA2M_RDK/src/tensorflow_lite/src/tensorflow/lite/kernels/internal\types.h ****     if (dimensions_count > kMaxSmallSize) {
 5376              		.loc 6 245 0
 5377 01d8 18208DE5 		str	r2, [sp, #24]
 246:C:/Renesas/e2studio_2021_01_workspace_RZA2M_ANPR/ANPR_RZA2M_RDK/src/tensorflow_lite/src/tensorflow/lite/kernels/internal\types.h **** #ifdef TF_LITE_STATIC_MEMORY
 5378              		.loc 6 246 0
 5379 01dc 310000DA 		ble	.L598
 250:C:/Renesas/e2studio_2021_01_workspace_RZA2M_ANPR/ANPR_RZA2M_RDK/src/tensorflow_lite/src/tensorflow/lite/kernels/internal\types.h **** #endif  // TF_LITE_STATIC_MEMORY
 5380              		.loc 6 250 0
 5381 01e0 2E0272E3 		cmn	r2, #-536870910
 5382 01e4 720000CA 		bgt	.L605
 5383 01e8 0241A0E1 		lsl	r4, r2, #2
 5384 01ec 0400A0E1 		mov	r0, r4
 5385 01f0 FEFFFFEB 		bl	_Znaj
 5386              	.LVL479:
 5387 01f4 1C008DE5 		str	r0, [sp, #28]
 5388              	.LVL480:
 5389              	.L600:
 5390              	.LBE1703:
 5391              	.LBE1702:
 258:C:/Renesas/e2studio_2021_01_workspace_RZA2M_ANPR/ANPR_RZA2M_RDK/src/tensorflow_lite/src/tensorflow/lite/kernels/internal\types.h ****   }
 5392              		.loc 6 258 0
 5393 01f8 0420A0E1 		mov	r2, r4
 5394 01fc 0510A0E1 		mov	r1, r5
 5395 0200 FEFFFFEB 		bl	memcpy
 5396              	.LVL481:
 5397              	.LBE1701:
 5398              	.LBE1700:
 5399              	.LBE1699:
 5400              	.LBE1698:
 5401              	.LBE1697:
 302:../src/tensorflow_lite/src/tensorflow/lite/micro/kernels/cmsis_nn/pooling.cpp **** 
 5402              		.loc 1 302 0
 5403 0204 18309DE5 		ldr	r3, [sp, #24]
 5404 0208 040053E3 		cmp	r3, #4
 5405 020c 6700001A 		bne	.L648
 5406              	.LVL482:
 5407              	.LBB1710:
 5408              	.LBB1711:
  35:C:/Renesas/e2studio_2021_01_workspace_RZA2M_ANPR/ANPR_RZA2M_RDK/src/tensorflow_lite/src/tensorflow/lite/kernels/internal\tensor_ctypes.h ****     return RuntimeShape();
 5409              		.loc 8 35 0
 5410 0210 0C309DE5 		ldr	r3, [sp, #12]
 5411 0214 000053E3 		cmp	r3, #0
 5412              	.LBB1712:
 5413              	.LBB1713:
 156:C:/Renesas/e2studio_2021_01_workspace_RZA2M_ANPR/ANPR_RZA2M_RDK/src/tensorflow_lite/src/tensorflow/lite/kernels/internal\types.h **** 
 5414              		.loc 6 156 0
 5415 0218 30308D05 		streq	r3, [sp, #48]
 5416              	.LVL483:
 5417 021c 03B0A001 		moveq	fp, r3
 5418              	.LBE1713:
 5419              	.LBE1712:
  35:C:/Renesas/e2studio_2021_01_workspace_RZA2M_ANPR/ANPR_RZA2M_RDK/src/tensorflow_lite/src/tensorflow/lite/kernels/internal\tensor_ctypes.h ****     return RuntimeShape();
 5420              		.loc 8 35 0
 5421 0220 5100000A 		beq	.L603
  39:C:/Renesas/e2studio_2021_01_workspace_RZA2M_ANPR/ANPR_RZA2M_RDK/src/tensorflow_lite/src/tensorflow/lite/kernels/internal\tensor_ctypes.h ****   const int dims_size = dims->size;
 5422              		.loc 8 39 0
 5423 0224 085093E5 		ldr	r5, [r3, #8]
 5424              	.LVL484:
 5425              		.loc 8 40 0
 5426 0228 002095E5 		ldr	r2, [r5]
 5427              	.LVL485:
 5428              	.LBB1714:
 5429              	.LBB1715:
 5430              	.LBB1716:
 5431              	.LBB1717:
 5432              	.LBB1718:
 246:C:/Renesas/e2studio_2021_01_workspace_RZA2M_ANPR/ANPR_RZA2M_RDK/src/tensorflow_lite/src/tensorflow/lite/kernels/internal\types.h **** #ifdef TF_LITE_STATIC_MEMORY
 5433              		.loc 6 246 0
 5434 022c 050052E3 		cmp	r2, #5
 245:C:/Renesas/e2studio_2021_01_workspace_RZA2M_ANPR/ANPR_RZA2M_RDK/src/tensorflow_lite/src/tensorflow/lite/kernels/internal\types.h ****     if (dimensions_count > kMaxSmallSize) {
 5435              		.loc 6 245 0
 5436 0230 30208DE5 		str	r2, [sp, #48]
 246:C:/Renesas/e2studio_2021_01_workspace_RZA2M_ANPR/ANPR_RZA2M_RDK/src/tensorflow_lite/src/tensorflow/lite/kernels/internal\types.h **** #ifdef TF_LITE_STATIC_MEMORY
 5437              		.loc 6 246 0
 5438 0234 480000DA 		ble	.L604
 250:C:/Renesas/e2studio_2021_01_workspace_RZA2M_ANPR/ANPR_RZA2M_RDK/src/tensorflow_lite/src/tensorflow/lite/kernels/internal\types.h **** #endif  // TF_LITE_STATIC_MEMORY
 5439              		.loc 6 250 0
 5440 0238 2E0272E3 		cmn	r2, #-536870910
 5441 023c 5C0000CA 		bgt	.L605
 5442 0240 0241A0E1 		lsl	r4, r2, #2
 5443 0244 0400A0E1 		mov	r0, r4
 5444 0248 FEFFFFEB 		bl	_Znaj
 5445              	.LVL486:
 5446              	.LEHE48:
 5447 024c 34008DE5 		str	r0, [sp, #52]
 5448              	.LVL487:
 5449              	.L606:
 5450              	.LBE1718:
 5451              	.LBE1717:
 258:C:/Renesas/e2studio_2021_01_workspace_RZA2M_ANPR/ANPR_RZA2M_RDK/src/tensorflow_lite/src/tensorflow/lite/kernels/internal\types.h ****   }
 5452              		.loc 6 258 0
 5453 0250 0420A0E1 		mov	r2, r4
 5454 0254 041085E2 		add	r1, r5, #4
 5455 0258 FEFFFFEB 		bl	memcpy
 5456              	.LVL488:
 5457 025c 30B09DE5 		ldr	fp, [sp, #48]
 5458              	.LBE1716:
 5459              	.LBE1715:
 5460              	.LBE1714:
 5461              	.LBE1711:
 5462              	.LBE1710:
 305:../src/tensorflow_lite/src/tensorflow/lite/micro/kernels/cmsis_nn/pooling.cpp **** 
 5463              		.loc 1 305 0
 5464 0260 04005BE3 		cmp	fp, #4
 5465 0264 4000001A 		bne	.L603
 5466              	.LVL489:
 5467              	.LBB1731:
 5468              	.LBB1732:
 5469              	.LBB1733:
 5470              	.LBB1734:
 216:C:/Renesas/e2studio_2021_01_workspace_RZA2M_ANPR/ANPR_RZA2M_RDK/src/tensorflow_lite/src/tensorflow/lite/kernels/internal\types.h ****   }
 5471              		.loc 6 216 0
 5472 0268 28109DE5 		ldr	r1, [sp, #40]
 5473              	.LVL490:
 5474              	.LBE1734:
 5475              	.LBE1733:
 5476              		.loc 6 472 0
 5477 026c 40309DE5 		ldr	r3, [sp, #64]
 5478 0270 030051E1 		cmp	r1, r3
 5479 0274 4B00001A 		bne	.L649
 5480              	.LVL491:
 5481              	.LBE1732:
 5482              	.LBE1731:
 311:../src/tensorflow_lite/src/tensorflow/lite/micro/kernels/cmsis_nn/pooling.cpp **** 
 5483              		.loc 1 311 0
 5484 0278 3C009DE5 		ldr	r0, [sp, #60]
 5485              	.LEHB49:
 5486 027c FEFFFFEB 		bl	arm_avgpool_s8_get_buffer_size
 5487              	.LVL492:
 5488              	.LBB1736:
 313:../src/tensorflow_lite/src/tensorflow/lite/micro/kernels/cmsis_nn/pooling.cpp ****       TF_LITE_ENSURE_STATUS(context->RequestScratchBufferInArena(
 5489              		.loc 1 313 0
 5490 0280 001050E2 		subs	r1, r0, #0
 5491 0284 310000DA 		ble	.L608
 5492              	.LBB1737:
 314:../src/tensorflow_lite/src/tensorflow/lite/micro/kernels/cmsis_nn/pooling.cpp ****           context, buffer_size, &data->buffer_idx));
 5493              		.loc 1 314 0
 5494 0288 102086E2 		add	r2, r6, #16
 5495 028c 40309AE5 		ldr	r3, [r10, #64]
 5496 0290 0A00A0E1 		mov	r0, r10
 5497              	.LVL493:
 5498 0294 33FF2FE1 		blx	r3
 5499              	.LVL494:
 5500              	.LEHE49:
 5501 0298 000050E3 		cmp	r0, #0
 5502              	.LVL495:
 5503 029c B6FFFF1A 		bne	.L623
 5504              	.L609:
 5505              	.LBE1737:
 5506              	.LBE1736:
 5507              	.LBE1696:
 5508              	.LBE1695:
 320:../src/tensorflow_lite/src/tensorflow/lite/micro/kernels/cmsis_nn/pooling.cpp **** }
 5509              		.loc 1 320 0
 5510 02a0 0000A0E3 		mov	r0, #0
 5511              	.LBB1750:
 5512              	.LBB1747:
 5513 02a4 B4FFFFEA 		b	.L623
 5514              	.LVL496:
 5515              	.L598:
 5516 02a8 0241A0E1 		lsl	r4, r2, #2
 5517              	.LBB1738:
 5518              	.LBB1709:
 5519              	.LBB1708:
 5520              	.LBB1707:
 5521              	.LBB1706:
 5522              	.LBB1704:
 5523              	.LBB1705:
 229:C:/Renesas/e2studio_2021_01_workspace_RZA2M_ANPR/ANPR_RZA2M_RDK/src/tensorflow_lite/src/tensorflow/lite/kernels/internal\types.h ****   }
 5524              		.loc 6 229 0
 5525 02ac 1C008DE2 		add	r0, sp, #28
 5526 02b0 D0FFFFEA 		b	.L600
 5527              	.LVL497:
 5528              	.L585:
 5529              	.LBE1705:
 5530              	.LBE1704:
 5531              	.LBE1706:
 5532              	.LBE1707:
 5533              	.LBE1708:
 5534              	.LBE1709:
 5535              	.LBE1738:
 5536              	.LBE1747:
 5537              	.LBE1750:
 5538              	.LBB1751:
 5539              	.LBB1691:
 5540              	.LBB1687:
 5541              	.LBB1680:
 5542              	.LBB1659:
 5543              	.LBB1653:
 5544              	.LBB1629:
  54:C:/Renesas/e2studio_2021_01_workspace_RZA2M_ANPR/ANPR_RZA2M_RDK/src/tensorflow_lite/src/tensorflow/lite/kernels\padding.h ****     case kTfLitePaddingValid:
 5545              		.loc 2 54 0
 5546 02b4 050082E0 		add	r0, r2, r5
 5547              	.LVL498:
 5548 02b8 0510A0E1 		mov	r1, r5
 5549              	.LVL499:
 5550 02bc 010040E2 		sub	r0, r0, #1
 5551 02c0 14308DE5 		str	r3, [sp, #20]
 5552 02c4 10208DE5 		str	r2, [sp, #16]
 5553 02c8 FEFFFFEB 		bl	__aeabi_idiv
 5554              	.LVL500:
 5555              	.LBE1629:
 5556              	.LBE1653:
 5557              	.LBB1654:
 5558              	.LBB1633:
  50:C:/Renesas/e2studio_2021_01_workspace_RZA2M_ANPR/ANPR_RZA2M_RDK/src/tensorflow_lite/src/tensorflow/lite/kernels\padding.h **** 
 5559              		.loc 2 50 0
 5560 02cc 000054E3 		cmp	r4, #0
 5561 02d0 019040E2 		sub	r9, r0, #1
 5562 02d4 10209DE5 		ldr	r2, [sp, #16]
 5563 02d8 14309DE5 		ldr	r3, [sp, #20]
 5564 02dc 0F00000A 		beq	.L642
 5565              	.LVL501:
 5566              	.L588:
  54:C:/Renesas/e2studio_2021_01_workspace_RZA2M_ANPR/ANPR_RZA2M_RDK/src/tensorflow_lite/src/tensorflow/lite/kernels\padding.h ****     case kTfLitePaddingValid:
 5567              		.loc 2 54 0
 5568 02e0 040083E0 		add	r0, r3, r4
 5569 02e4 0410A0E1 		mov	r1, r4
 5570 02e8 010040E2 		sub	r0, r0, #1
 5571 02ec 14208DE5 		str	r2, [sp, #20]
 5572 02f0 10308DE5 		str	r3, [sp, #16]
 5573 02f4 FEFFFFEB 		bl	__aeabi_idiv
 5574              	.LVL502:
 5575 02f8 10309DE5 		ldr	r3, [sp, #16]
 5576 02fc 010040E2 		sub	r0, r0, #1
 5577 0300 14209DE5 		ldr	r2, [sp, #20]
 5578 0304 7CFFFFEA 		b	.L589
 5579              	.LVL503:
 5580              	.L646:
 5581              	.LBE1633:
 5582              	.LBE1654:
 5583              	.LBE1659:
 5584              	.LBE1680:
 5585              	.LBB1681:
 5586              	.LBB1673:
 5587              	.LBB1669:
 258:C:/Renesas/e2studio_2021_01_workspace_RZA2M_ANPR/ANPR_RZA2M_RDK/src/tensorflow_lite/src/tensorflow/lite/kernels\kernel_util.h ****   } else if (activation == kTfLiteActRelu6) {
 5588              		.loc 3 258 0
 5589 0308 FF3F0FE3 		movw	r3, #65535
 5590              	.LVL504:
 257:C:/Renesas/e2studio_2021_01_workspace_RZA2M_ANPR/ANPR_RZA2M_RDK/src/tensorflow_lite/src/tensorflow/lite/kernels\kernel_util.h ****     *activation_max = std::numeric_limits<T>::max();
 5591              		.loc 3 257 0
 5592 030c 0020A0E3 		mov	r2, #0
 258:C:/Renesas/e2studio_2021_01_workspace_RZA2M_ANPR/ANPR_RZA2M_RDK/src/tensorflow_lite/src/tensorflow/lite/kernels\kernel_util.h ****   } else if (activation == kTfLiteActRelu6) {
 5593              		.loc 3 258 0
 5594 0310 7F3F47E3 		movt	r3, 32639
 257:C:/Renesas/e2studio_2021_01_workspace_RZA2M_ANPR/ANPR_RZA2M_RDK/src/tensorflow_lite/src/tensorflow/lite/kernels\kernel_util.h ****     *activation_max = std::numeric_limits<T>::max();
 5595              		.loc 3 257 0
 5596 0314 1C2086E5 		str	r2, [r6, #28]	@ float
 258:C:/Renesas/e2studio_2021_01_workspace_RZA2M_ANPR/ANPR_RZA2M_RDK/src/tensorflow_lite/src/tensorflow/lite/kernels\kernel_util.h ****   } else if (activation == kTfLiteActRelu6) {
 5597              		.loc 3 258 0
 5598 0318 203086E5 		str	r3, [r6, #32]	@ float
 5599 031c 93FFFFEA 		b	.L594
 5600              	.LVL505:
 5601              	.L642:
 5602              	.LBE1669:
 5603              	.LBE1673:
 5604              	.LBE1681:
 5605              	.LBB1682:
 5606              	.LBB1660:
 5607              	.LBB1655:
 5608              	.LBB1634:
  50:C:/Renesas/e2studio_2021_01_workspace_RZA2M_ANPR/ANPR_RZA2M_RDK/src/tensorflow_lite/src/tensorflow/lite/kernels\padding.h **** 
 5609              		.loc 2 50 0
 5610 0320 0000E0E3 		mvn	r0, #0
 5611              	.LVL506:
 5612 0324 74FFFFEA 		b	.L589
 5613              	.LVL507:
 5614              	.L645:
  52:C:/Renesas/e2studio_2021_01_workspace_RZA2M_ANPR/ANPR_RZA2M_RDK/src/tensorflow_lite/src/tensorflow/lite/kernels\padding.h ****     case kTfLitePaddingSame:
 5615              		.loc 2 52 0
 5616 0328 0090E0E3 		mvn	r9, #0
 5617 032c 60FFFFEA 		b	.L591
 5618              	.L618:
 5619 0330 0090E0E3 		mvn	r9, #0
 5620 0334 E9FFFFEA 		b	.L588
 5621              	.LVL508:
 5622              	.L647:
 5623              	.LBE1634:
 5624              	.LBE1655:
 5625              	.LBE1660:
 5626              	.LBE1682:
 5627              	.LBB1683:
 5628              	.LBB1674:
 5629              	.LBB1670:
 261:C:/Renesas/e2studio_2021_01_workspace_RZA2M_ANPR/ANPR_RZA2M_RDK/src/tensorflow_lite/src/tensorflow/lite/kernels\kernel_util.h ****   } else if (activation == kTfLiteActReluN1To1) {
 5630              		.loc 3 261 0
 5631 0338 0030A0E3 		mov	r3, #0
 5632              	.LVL509:
 260:C:/Renesas/e2studio_2021_01_workspace_RZA2M_ANPR/ANPR_RZA2M_RDK/src/tensorflow_lite/src/tensorflow/lite/kernels\kernel_util.h ****     *activation_max = 6;
 5633              		.loc 3 260 0
 5634 033c 0020A0E3 		mov	r2, #0
 261:C:/Renesas/e2studio_2021_01_workspace_RZA2M_ANPR/ANPR_RZA2M_RDK/src/tensorflow_lite/src/tensorflow/lite/kernels\kernel_util.h ****   } else if (activation == kTfLiteActReluN1To1) {
 5635              		.loc 3 261 0
 5636 0340 C03044E3 		movt	r3, 16576
 260:C:/Renesas/e2studio_2021_01_workspace_RZA2M_ANPR/ANPR_RZA2M_RDK/src/tensorflow_lite/src/tensorflow/lite/kernels\kernel_util.h ****     *activation_max = 6;
 5637              		.loc 3 260 0
 5638 0344 1C2086E5 		str	r2, [r6, #28]	@ float
 261:C:/Renesas/e2studio_2021_01_workspace_RZA2M_ANPR/ANPR_RZA2M_RDK/src/tensorflow_lite/src/tensorflow/lite/kernels\kernel_util.h ****   } else if (activation == kTfLiteActReluN1To1) {
 5639              		.loc 3 261 0
 5640 0348 203086E5 		str	r3, [r6, #32]	@ float
 5641 034c 87FFFFEA 		b	.L594
 5642              	.LVL510:
 5643              	.L608:
 5644              	.LBE1670:
 5645              	.LBE1674:
 5646              	.LBE1683:
 5647              	.LBE1687:
 5648              	.LBE1691:
 5649              	.LBE1751:
 5650              	.LBB1752:
 5651              	.LBB1748:
 5652              	.LBB1739:
 317:../src/tensorflow_lite/src/tensorflow/lite/micro/kernels/cmsis_nn/pooling.cpp ****     }
 5653              		.loc 1 317 0
 5654 0350 0030E0E3 		mvn	r3, #0
 5655 0354 103086E5 		str	r3, [r6, #16]
 5656 0358 D0FFFFEA 		b	.L609
 5657              	.LVL511:
 5658              	.L604:
 5659 035c 0241A0E1 		lsl	r4, r2, #2
 5660              	.LBE1739:
 5661              	.LBB1740:
 5662              	.LBB1729:
 5663              	.LBB1727:
 5664              	.LBB1725:
 5665              	.LBB1723:
 5666              	.LBB1720:
 5667              	.LBB1721:
 229:C:/Renesas/e2studio_2021_01_workspace_RZA2M_ANPR/ANPR_RZA2M_RDK/src/tensorflow_lite/src/tensorflow/lite/kernels/internal\types.h ****   }
 5668              		.loc 6 229 0
 5669 0360 34008DE2 		add	r0, sp, #52
 5670 0364 B9FFFFEA 		b	.L606
 5671              	.LVL512:
 5672              	.L583:
 5673              	.LEHB50:
 5674              	.LBE1721:
 5675              	.LBE1720:
 5676              	.LBE1723:
 5677              	.LBE1725:
 5678              	.LBE1727:
 5679              	.LBE1729:
 5680              	.LBE1740:
 5681              	.LBE1748:
 5682              	.LBE1752:
 289:../src/tensorflow_lite/src/tensorflow/lite/micro/kernels/cmsis_nn/pooling.cpp ****   TFLITE_DCHECK(node->builtin_data != nullptr);
 5683              		.loc 1 289 0 discriminator 1
 5684 0368 FEFFFFEB 		bl	abort
 5685              	.LVL513:
 5686              	.LEHE50:
 5687              	.L603:
 5688              	.LEHB51:
 5689              	.LBB1753:
 5690              	.LBB1749:
 305:../src/tensorflow_lite/src/tensorflow/lite/micro/kernels/cmsis_nn/pooling.cpp **** 
 5691              		.loc 1 305 0 discriminator 1
 5692 036c FEFFFFEB 		bl	abort
 5693              	.LVL514:
 5694              	.LEHE51:
 5695              	.L622:
 5696              	.LBB1741:
 5697              	.LBB1742:
 203:C:/Renesas/e2studio_2021_01_workspace_RZA2M_ANPR/ANPR_RZA2M_RDK/src/tensorflow_lite/src/tensorflow/lite/kernels/internal\types.h **** #ifdef TF_LITE_STATIC_MEMORY
 5698              		.loc 6 203 0
 5699 0370 05005BE3 		cmp	fp, #5
 5700 0374 030000DA 		ble	.L612
 207:C:/Renesas/e2studio_2021_01_workspace_RZA2M_ANPR/ANPR_RZA2M_RDK/src/tensorflow_lite/src/tensorflow/lite/kernels/internal\types.h **** #endif  // TF_LITE_STATIC_MEMORY
 5701              		.loc 6 207 0
 5702 0378 34009DE5 		ldr	r0, [sp, #52]
 5703 037c 000050E3 		cmp	r0, #0
 5704 0380 0000000A 		beq	.L612
 5705 0384 FEFFFFEB 		bl	_ZdaPv
 5706              	.LVL515:
 5707              	.L612:
 5708              	.LBE1742:
 5709              	.LBE1741:
 5710              	.LBB1743:
 5711              	.LBB1744:
 203:C:/Renesas/e2studio_2021_01_workspace_RZA2M_ANPR/ANPR_RZA2M_RDK/src/tensorflow_lite/src/tensorflow/lite/kernels/internal\types.h **** #ifdef TF_LITE_STATIC_MEMORY
 5712              		.loc 6 203 0
 5713 0388 18309DE5 		ldr	r3, [sp, #24]
 5714 038c 050053E3 		cmp	r3, #5
 5715 0390 030000DA 		ble	.L613
 207:C:/Renesas/e2studio_2021_01_workspace_RZA2M_ANPR/ANPR_RZA2M_RDK/src/tensorflow_lite/src/tensorflow/lite/kernels/internal\types.h **** #endif  // TF_LITE_STATIC_MEMORY
 5716              		.loc 6 207 0
 5717 0394 1C009DE5 		ldr	r0, [sp, #28]
 5718 0398 000050E3 		cmp	r0, #0
 5719 039c 0000000A 		beq	.L613
 5720 03a0 FEFFFFEB 		bl	_ZdaPv
 5721              	.LVL516:
 5722              	.L613:
 5723              	.LEHB52:
 5724 03a4 FEFFFFEB 		bl	__cxa_end_cleanup
 5725              	.LVL517:
 5726              	.LEHE52:
 5727              	.L649:
 5728              	.LEHB53:
 5729              	.LBE1744:
 5730              	.LBE1743:
 5731              	.LBB1745:
 5732              	.LBB1735:
 5733              		.loc 6 472 0
 5734 03a8 FEFFFFEB 		bl	abort
 5735              	.LVL518:
 5736              	.L621:
 5737 03ac F5FFFFEA 		b	.L612
 5738              	.LVL519:
 5739              	.L648:
 5740              	.LBE1735:
 5741              	.LBE1745:
 302:../src/tensorflow_lite/src/tensorflow/lite/micro/kernels/cmsis_nn/pooling.cpp **** 
 5742              		.loc 1 302 0 discriminator 1
 5743 03b0 FEFFFFEB 		bl	abort
 5744              	.LVL520:
 5745              	.LEHE53:
 5746              	.L605:
 5747              	.LEHB54:
 5748              	.LBB1746:
 5749              	.LBB1730:
 5750              	.LBB1728:
 5751              	.LBB1726:
 5752              	.LBB1724:
 5753              	.LBB1722:
 5754              	.LBB1719:
 250:C:/Renesas/e2studio_2021_01_workspace_RZA2M_ANPR/ANPR_RZA2M_RDK/src/tensorflow_lite/src/tensorflow/lite/kernels/internal\types.h **** #endif  // TF_LITE_STATIC_MEMORY
 5755              		.loc 6 250 0
 5756 03b4 FEFFFFEB 		bl	__cxa_throw_bad_array_new_length
 5757              	.LVL521:
 5758              	.LEHE54:
 5759              	.LBE1719:
 5760              	.LBE1722:
 5761              	.LBE1724:
 5762              	.LBE1726:
 5763              	.LBE1728:
 5764              	.LBE1730:
 5765              	.LBE1746:
 5766              	.LBE1749:
 5767              	.LBE1753:
 5768              		.cfi_endproc
 5769              	.LFE5921:
 5770              		.personality	__gxx_personality_v0
 5771              		.handlerdata
 5772              	.LLSDA5921:
 5773 0008 FF       		.byte	0xff
 5774 0009 FF       		.byte	0xff
 5775 000a 01       		.byte	0x1
 5776 000b 26       		.uleb128 .LLSDACSE5921-.LLSDACSB5921
 5777              	.LLSDACSB5921:
 5778 000c 2C       		.uleb128 .LEHB48-.LFB5921
 5779 000d A004     		.uleb128 .LEHE48-.LEHB48
 5780 000f 00       		.uleb128 0
 5781 0010 00       		.uleb128 0
 5782 0011 FC04     		.uleb128 .LEHB49-.LFB5921
 5783 0013 1C       		.uleb128 .LEHE49-.LEHB49
 5784 0014 AC07     		.uleb128 .L621-.LFB5921
 5785 0016 00       		.uleb128 0
 5786 0017 E806     		.uleb128 .LEHB50-.LFB5921
 5787 0019 04       		.uleb128 .LEHE50-.LEHB50
 5788 001a 00       		.uleb128 0
 5789 001b 00       		.uleb128 0
 5790 001c EC06     		.uleb128 .LEHB51-.LFB5921
 5791 001e 04       		.uleb128 .LEHE51-.LEHB51
 5792 001f F006     		.uleb128 .L622-.LFB5921
 5793 0021 00       		.uleb128 0
 5794 0022 A407     		.uleb128 .LEHB52-.LFB5921
 5795 0024 04       		.uleb128 .LEHE52-.LEHB52
 5796 0025 00       		.uleb128 0
 5797 0026 00       		.uleb128 0
 5798 0027 A807     		.uleb128 .LEHB53-.LFB5921
 5799 0029 0C       		.uleb128 .LEHE53-.LEHB53
 5800 002a AC07     		.uleb128 .L621-.LFB5921
 5801 002c 00       		.uleb128 0
 5802 002d B407     		.uleb128 .LEHB54-.LFB5921
 5803 002f 04       		.uleb128 .LEHE54-.LEHB54
 5804 0030 00       		.uleb128 0
 5805 0031 00       		.uleb128 0
 5806              	.LLSDACSE5921:
 5807              		.section	.text._ZN6tflite3ops5micro7pooling14AveragePrepareEP13TfLiteContextP10TfLiteNode
 5808              		.fnend
 5810              		.section	.text._ZN6tflite3ops5micro24Register_AVERAGE_POOL_2DEv,"ax",%progbits
 5811              		.align	2
 5812              		.global	_ZN6tflite3ops5micro24Register_AVERAGE_POOL_2DEv
 5813              		.syntax unified
 5814              		.arm
 5815              		.fpu neon
 5817              	_ZN6tflite3ops5micro24Register_AVERAGE_POOL_2DEv:
 5818              		.fnstart
 5819              	.LFB5924:
 381:../src/tensorflow_lite/src/tensorflow/lite/micro/kernels/cmsis_nn/pooling.cpp **** 
 382:../src/tensorflow_lite/src/tensorflow/lite/micro/kernels/cmsis_nn/pooling.cpp **** }  // namespace pooling
 383:../src/tensorflow_lite/src/tensorflow/lite/micro/kernels/cmsis_nn/pooling.cpp **** 
 384:../src/tensorflow_lite/src/tensorflow/lite/micro/kernels/cmsis_nn/pooling.cpp **** TfLiteRegistration Register_AVERAGE_POOL_2D() {
 5820              		.loc 1 384 0
 5821              		.cfi_startproc
 5822              		@ args = 0, pretend = 0, frame = 0
 5823              		@ frame_needed = 0, uses_anonymous_args = 0
 5824              	.LVL522:
 385:../src/tensorflow_lite/src/tensorflow/lite/micro/kernels/cmsis_nn/pooling.cpp ****   return {/*init=*/pooling::Init,
 386:../src/tensorflow_lite/src/tensorflow/lite/micro/kernels/cmsis_nn/pooling.cpp ****           /*free=*/nullptr,
 387:../src/tensorflow_lite/src/tensorflow/lite/micro/kernels/cmsis_nn/pooling.cpp ****           /*prepare=*/pooling::AveragePrepare,
 388:../src/tensorflow_lite/src/tensorflow/lite/micro/kernels/cmsis_nn/pooling.cpp ****           /*invoke=*/pooling::AverageEval,
 389:../src/tensorflow_lite/src/tensorflow/lite/micro/kernels/cmsis_nn/pooling.cpp ****           /*profiling_string=*/nullptr,
 390:../src/tensorflow_lite/src/tensorflow/lite/micro/kernels/cmsis_nn/pooling.cpp ****           /*builtin_code=*/0,
 391:../src/tensorflow_lite/src/tensorflow/lite/micro/kernels/cmsis_nn/pooling.cpp ****           /*custom_name=*/nullptr,
 392:../src/tensorflow_lite/src/tensorflow/lite/micro/kernels/cmsis_nn/pooling.cpp ****           /*version=*/0};
 5825              		.loc 1 392 0
 5826 0000 00C000E3 		movw	ip, #:lower16:.LANCHOR0
 384:../src/tensorflow_lite/src/tensorflow/lite/micro/kernels/cmsis_nn/pooling.cpp ****   return {/*init=*/pooling::Init,
 5827              		.loc 1 384 0
 5828 0004 10402DE9 		push	{r4, lr}
 5829              		.cfi_def_cfa_offset 8
 5830              		.cfi_offset 4, -8
 5831              		.cfi_offset 14, -4
 5832              		.loc 1 392 0
 5833 0008 00C040E3 		movt	ip, #:upper16:.LANCHOR0
 384:../src/tensorflow_lite/src/tensorflow/lite/micro/kernels/cmsis_nn/pooling.cpp ****   return {/*init=*/pooling::Init,
 5834              		.loc 1 384 0
 5835 000c 0040A0E1 		mov	r4, r0
 5836              		.loc 1 392 0
 5837 0010 00E0A0E1 		mov	lr, r0
 5838 0014 0F00BCE8 		ldmia	ip!, {r0, r1, r2, r3}
 5839              	.LVL523:
 5840 0018 0F00AEE8 		stmia	lr!, {r0, r1, r2, r3}
 5841 001c 0F009CE8 		ldm	ip, {r0, r1, r2, r3}
 5842 0020 0F008EE8 		stm	lr, {r0, r1, r2, r3}
 393:../src/tensorflow_lite/src/tensorflow/lite/micro/kernels/cmsis_nn/pooling.cpp **** }
 5843              		.loc 1 393 0
 5844 0024 0400A0E1 		mov	r0, r4
 5845 0028 1080BDE8 		pop	{r4, pc}
 5846              		.cfi_endproc
 5847              	.LFE5924:
 5848              		.cantunwind
 5849              		.fnend
 5851              		.section	.text._ZN6tflite3ops5micro20Register_MAX_POOL_2DEv,"ax",%progbits
 5852              		.align	2
 5853              		.global	_ZN6tflite3ops5micro20Register_MAX_POOL_2DEv
 5854              		.syntax unified
 5855              		.arm
 5856              		.fpu neon
 5858              	_ZN6tflite3ops5micro20Register_MAX_POOL_2DEv:
 5859              		.fnstart
 5860              	.LFB5925:
 394:../src/tensorflow_lite/src/tensorflow/lite/micro/kernels/cmsis_nn/pooling.cpp **** 
 395:../src/tensorflow_lite/src/tensorflow/lite/micro/kernels/cmsis_nn/pooling.cpp **** TfLiteRegistration Register_MAX_POOL_2D() {
 5861              		.loc 1 395 0
 5862              		.cfi_startproc
 5863              		@ args = 0, pretend = 0, frame = 0
 5864              		@ frame_needed = 0, uses_anonymous_args = 0
 5865              	.LVL524:
 5866 0000 10402DE9 		push	{r4, lr}
 5867              		.cfi_def_cfa_offset 8
 5868              		.cfi_offset 4, -8
 5869              		.cfi_offset 14, -4
 396:../src/tensorflow_lite/src/tensorflow/lite/micro/kernels/cmsis_nn/pooling.cpp ****   return {/*init=*/pooling::Init,
 397:../src/tensorflow_lite/src/tensorflow/lite/micro/kernels/cmsis_nn/pooling.cpp ****           /*free=*/nullptr,
 398:../src/tensorflow_lite/src/tensorflow/lite/micro/kernels/cmsis_nn/pooling.cpp ****           /*prepare=*/pooling::MaxPrepare,
 399:../src/tensorflow_lite/src/tensorflow/lite/micro/kernels/cmsis_nn/pooling.cpp ****           /*invoke=*/pooling::MaxEval,
 400:../src/tensorflow_lite/src/tensorflow/lite/micro/kernels/cmsis_nn/pooling.cpp ****           /*profiling_string=*/nullptr,
 401:../src/tensorflow_lite/src/tensorflow/lite/micro/kernels/cmsis_nn/pooling.cpp ****           /*builtin_code=*/0,
 402:../src/tensorflow_lite/src/tensorflow/lite/micro/kernels/cmsis_nn/pooling.cpp ****           /*custom_name=*/nullptr,
 403:../src/tensorflow_lite/src/tensorflow/lite/micro/kernels/cmsis_nn/pooling.cpp ****           /*version=*/0};
 5870              		.loc 1 403 0
 5871 0004 00C0A0E1 		mov	ip, r0
 5872 0008 18E09FE5 		ldr	lr, .L654
 395:../src/tensorflow_lite/src/tensorflow/lite/micro/kernels/cmsis_nn/pooling.cpp ****   return {/*init=*/pooling::Init,
 5873              		.loc 1 395 0
 5874 000c 0040A0E1 		mov	r4, r0
 5875              		.loc 1 403 0
 5876 0010 0F00BEE8 		ldmia	lr!, {r0, r1, r2, r3}
 5877              	.LVL525:
 5878 0014 0F00ACE8 		stmia	ip!, {r0, r1, r2, r3}
 5879 0018 0F009EE8 		ldm	lr, {r0, r1, r2, r3}
 5880 001c 0F008CE8 		stm	ip, {r0, r1, r2, r3}
 404:../src/tensorflow_lite/src/tensorflow/lite/micro/kernels/cmsis_nn/pooling.cpp **** }
 5881              		.loc 1 404 0
 5882 0020 0400A0E1 		mov	r0, r4
 5883 0024 1080BDE8 		pop	{r4, pc}
 5884              	.L655:
 5885              		.align	2
 5886              	.L654:
 5887 0028 20000000 		.word	.LANCHOR0+32
 5888              		.cfi_endproc
 5889              	.LFE5925:
 5890              		.cantunwind
 5891              		.fnend
 5893              		.section	.rodata
 5894              		.align	2
 5895              		.set	.LANCHOR0,. + 0
 5896              	.LC0:
 5897 0000 00000000 		.word	_ZN6tflite3ops5micro7pooling4InitEP13TfLiteContextPKcj
 5898 0004 00000000 		.word	0
 5899 0008 00000000 		.word	_ZN6tflite3ops5micro7pooling14AveragePrepareEP13TfLiteContextP10TfLiteNode
 5900 000c 00000000 		.word	_ZN6tflite3ops5micro7pooling11AverageEvalEP13TfLiteContextP10TfLiteNode
 5901 0010 00000000 		.word	0
 5902 0014 00000000 		.word	0
 5903 0018 00000000 		.word	0
 5904 001c 00000000 		.word	0
 5905              	.LC1:
 5906 0020 00000000 		.word	_ZN6tflite3ops5micro7pooling4InitEP13TfLiteContextPKcj
 5907 0024 00000000 		.word	0
 5908 0028 00000000 		.word	_ZN6tflite3ops5micro7pooling10MaxPrepareEP13TfLiteContextP10TfLiteNode
 5909 002c 00000000 		.word	_ZN6tflite3ops5micro7pooling7MaxEvalEP13TfLiteContextP10TfLiteNode
 5910 0030 00000000 		.word	0
 5911 0034 00000000 		.word	0
 5912 0038 00000000 		.word	0
 5913 003c 00000000 		.word	0
 5914              		.section	.rodata._ZN6tflite3ops5micro7pooling10MaxPrepareEP13TfLiteContextP10TfLiteNode.str1.4,"aM
 5915              		.align	2
 5916              	.LC2:
 5917 0000 2E2E2F73 		.ascii	"../src/tensorflow_lite/src/tensorflow/lite/micro/ke"
 5917      72632F74 
 5917      656E736F 
 5917      72666C6F 
 5917      775F6C69 
 5918 0033 726E656C 		.ascii	"rnels/cmsis_nn/pooling.cpp\000"
 5918      732F636D 
 5918      7369735F 
 5918      6E6E2F70 
 5918      6F6F6C69 
 5919 004e 0000     		.space	2
 5920              	.LC3:
 5921 0050 25733A25 		.ascii	"%s:%d %s was not true.\000"
 5921      64202573 
 5921      20776173 
 5921      206E6F74 
 5921      20747275 
 5922 0067 00       		.space	1
 5923              	.LC4:
 5924 0068 696E7075 		.ascii	"input != nullptr\000"
 5924      7420213D 
 5924      206E756C 
 5924      6C707472 
 5924      00
 5925 0079 000000   		.space	3
 5926              	.LC5:
 5927 007c 6F757470 		.ascii	"output != nullptr\000"
 5927      75742021 
 5927      3D206E75 
 5927      6C6C7074 
 5927      7200
 5928              		.section	.rodata._ZN6tflite3ops5micro7pooling11AverageEvalEP13TfLiteContextP10TfLiteNode.str1.4,"a
 5929              		.align	2
 5930              	.LC7:
 5931 0000 496E7075 		.ascii	"Input type %s is not currently supported\000"
 5931      74207479 
 5931      70652025 
 5931      73206973 
 5931      206E6F74 
 5932              		.section	.rodata._ZN6tflite3ops5micro7pooling7MaxEvalEP13TfLiteContextP10TfLiteNode.str1.4,"aMS",%
 5933              		.align	2
 5934              	.LC6:
 5935 0000 54797065 		.ascii	"Type %s not currently supported.\000"
 5935      20257320 
 5935      6E6F7420 
 5935      63757272 
 5935      656E746C 
 5936              		.text
 5937              	.Letext0:
 5938              		.file 9 "c:\\program files (x86)\\gnu tools arm embedded\\6 2017-q2-update\\arm-none-eabi\\include
 5939              		.file 10 "c:\\program files (x86)\\gnu tools arm embedded\\6 2017-q2-update\\arm-none-eabi\\includ
 5940              		.file 11 "c:\\program files (x86)\\gnu tools arm embedded\\6 2017-q2-update\\arm-none-eabi\\includ
 5941              		.file 12 "c:\\program files (x86)\\gnu tools arm embedded\\6 2017-q2-update\\arm-none-eabi\\includ
 5942              		.file 13 "c:\\program files (x86)\\gnu tools arm embedded\\6 2017-q2-update\\arm-none-eabi\\includ
 5943              		.file 14 "c:\\program files (x86)\\gnu tools arm embedded\\6 2017-q2-update\\arm-none-eabi\\includ
 5944              		.file 15 "c:\\program files (x86)\\gnu tools arm embedded\\6 2017-q2-update\\arm-none-eabi\\includ
 5945              		.file 16 "c:\\program files (x86)\\gnu tools arm embedded\\6 2017-q2-update\\arm-none-eabi\\includ
 5946              		.file 17 "c:\\program files (x86)\\gnu tools arm embedded\\6 2017-q2-update\\arm-none-eabi\\includ
 5947              		.file 18 "c:\\program files (x86)\\gnu tools arm embedded\\6 2017-q2-update\\arm-none-eabi\\includ
 5948              		.file 19 "c:\\program files (x86)\\gnu tools arm embedded\\6 2017-q2-update\\arm-none-eabi\\includ
 5949              		.file 20 "c:\\program files (x86)\\gnu tools arm embedded\\6 2017-q2-update\\arm-none-eabi\\includ
 5950              		.file 21 "c:\\program files (x86)\\gnu tools arm embedded\\6 2017-q2-update\\arm-none-eabi\\includ
 5951              		.file 22 "c:\\program files (x86)\\gnu tools arm embedded\\6 2017-q2-update\\arm-none-eabi\\includ
 5952              		.file 23 "c:\\program files (x86)\\gnu tools arm embedded\\6 2017-q2-update\\arm-none-eabi\\includ
 5953              		.file 24 "c:\\program files (x86)\\gnu tools arm embedded\\6 2017-q2-update\\arm-none-eabi\\includ
 5954              		.file 25 "c:\\program files (x86)\\gnu tools arm embedded\\6 2017-q2-update\\arm-none-eabi\\includ
 5955              		.file 26 "c:\\program files (x86)\\gnu tools arm embedded\\6 2017-q2-update\\arm-none-eabi\\includ
 5956              		.file 27 "c:\\program files (x86)\\gnu tools arm embedded\\6 2017-q2-update\\arm-none-eabi\\includ
 5957              		.file 28 "c:\\program files (x86)\\gnu tools arm embedded\\6 2017-q2-update\\arm-none-eabi\\includ
 5958              		.file 29 "c:\\program files (x86)\\gnu tools arm embedded\\6 2017-q2-update\\arm-none-eabi\\includ
 5959              		.file 30 "c:\\program files (x86)\\gnu tools arm embedded\\6 2017-q2-update\\arm-none-eabi\\includ
 5960              		.file 31 "c:\\program files (x86)\\gnu tools arm embedded\\6 2017-q2-update\\arm-none-eabi\\includ
 5961              		.file 32 "c:\\program files (x86)\\gnu tools arm embedded\\6 2017-q2-update\\arm-none-eabi\\includ
 5962              		.file 33 "c:\\program files (x86)\\gnu tools arm embedded\\6 2017-q2-update\\arm-none-eabi\\includ
 5963              		.file 34 "c:\\program files (x86)\\gnu tools arm embedded\\6 2017-q2-update\\arm-none-eabi\\includ
 5964              		.file 35 "c:\\program files (x86)\\gnu tools arm embedded\\6 2017-q2-update\\arm-none-eabi\\includ
 5965              		.file 36 "c:\\program files (x86)\\gnu tools arm embedded\\6 2017-q2-update\\lib\\gcc\\arm-none-ea
 5966              		.file 37 "c:\\program files (x86)\\gnu tools arm embedded\\6 2017-q2-update\\arm-none-eabi\\includ
 5967              		.file 38 "c:\\program files (x86)\\gnu tools arm embedded\\6 2017-q2-update\\arm-none-eabi\\includ
 5968              		.file 39 "c:\\program files (x86)\\gnu tools arm embedded\\6 2017-q2-update\\arm-none-eabi\\includ
 5969              		.file 40 "c:\\program files (x86)\\gnu tools arm embedded\\6 2017-q2-update\\arm-none-eabi\\includ
 5970              		.file 41 "c:\\program files (x86)\\gnu tools arm embedded\\6 2017-q2-update\\lib\\gcc\\arm-none-ea
 5971              		.file 42 "<built-in>"
 5972              		.file 43 "c:\\program files (x86)\\gnu tools arm embedded\\6 2017-q2-update\\arm-none-eabi\\includ
 5973              		.file 44 "c:\\program files (x86)\\gnu tools arm embedded\\6 2017-q2-update\\arm-none-eabi\\includ
 5974              		.file 45 "c:\\program files (x86)\\gnu tools arm embedded\\6 2017-q2-update\\arm-none-eabi\\includ
 5975              		.file 46 "c:\\program files (x86)\\gnu tools arm embedded\\6 2017-q2-update\\arm-none-eabi\\includ
 5976              		.file 47 "c:\\program files (x86)\\gnu tools arm embedded\\6 2017-q2-update\\arm-none-eabi\\includ
 5977              		.file 48 "c:\\program files (x86)\\gnu tools arm embedded\\6 2017-q2-update\\arm-none-eabi\\includ
 5978              		.file 49 "c:\\program files (x86)\\gnu tools arm embedded\\6 2017-q2-update\\arm-none-eabi\\includ
 5979              		.file 50 "c:\\program files (x86)\\gnu tools arm embedded\\6 2017-q2-update\\arm-none-eabi\\includ
 5980              		.file 51 "c:\\program files (x86)\\gnu tools arm embedded\\6 2017-q2-update\\arm-none-eabi\\includ
 5981              		.file 52 "C:/Renesas/e2studio_2021_01_workspace_RZA2M_ANPR/ANPR_RZA2M_RDK/src/tensorflow_lite/src/
 5982              		.file 53 "c:\\program files (x86)\\gnu tools arm embedded\\6 2017-q2-update\\arm-none-eabi\\includ
 5983              		.file 54 "C:/Renesas/e2studio_2021_01_workspace_RZA2M_ANPR/ANPR_RZA2M_RDK/src/tensorflow_lite/src/
 5984              		.file 55 "C:/Renesas/e2studio_2021_01_workspace_RZA2M_ANPR/ANPR_RZA2M_RDK/src/tensorflow_lite/src/
 5985              		.file 56 "c:\\program files (x86)\\gnu tools arm embedded\\6 2017-q2-update\\arm-none-eabi\\includ
 5986              		.file 57 "C:/Renesas/e2studio_2021_01_workspace_RZA2M_ANPR/ANPR_RZA2M_RDK/src/tensorflow_lite/src/
 5987              		.file 58 "C:/Renesas/e2studio_2021_01_workspace_RZA2M_ANPR/ANPR_RZA2M_RDK/src/tensorflow_lite/src/
 5988              		.file 59 "c:\\program files (x86)\\gnu tools arm embedded\\6 2017-q2-update\\arm-none-eabi\\includ
 5989              		.file 60 "C:/Renesas/e2studio_2021_01_workspace_RZA2M_ANPR/ANPR_RZA2M_RDK/src/tensorflow_lite/src/
 5990              		.file 61 "C:/Renesas/e2studio_2021_01_workspace_RZA2M_ANPR/ANPR_RZA2M_RDK/src/tensorflow_lite/src/
 5991              		.file 62 "C:/Renesas/e2studio_2021_01_workspace_RZA2M_ANPR/ANPR_RZA2M_RDK/src/tensorflow_lite/src/
 5992              		.file 63 "C:/Renesas/e2studio_2021_01_workspace_RZA2M_ANPR/ANPR_RZA2M_RDK/src/tensorflow_lite/src/
DEFINED SYMBOLS
                            *ABS*:00000000 pooling.cpp
C:\Users\a5050395\AppData\Local\Temp\cc6ZqvNP.s:17     .text._ZN6tflite3ops5micro7pooling4InitEP13TfLiteContextPKcj:00000000 $a
C:\Users\a5050395\AppData\Local\Temp\cc6ZqvNP.s:23     .text._ZN6tflite3ops5micro7pooling4InitEP13TfLiteContextPKcj:00000000 _ZN6tflite3ops5micro7pooling4InitEP13TfLiteContextPKcj
.ARM.exidx.text._ZN6tflite3ops5micro7pooling4InitEP13TfLiteContextPKcj:00000000 $d
C:\Users\a5050395\AppData\Local\Temp\cc6ZqvNP.s:57     .text._ZN6tflite3ops5micro7pooling10MaxPrepareEP13TfLiteContextP10TfLiteNode:00000000 $a
C:\Users\a5050395\AppData\Local\Temp\cc6ZqvNP.s:63     .text._ZN6tflite3ops5micro7pooling10MaxPrepareEP13TfLiteContextP10TfLiteNode:00000000 _ZN6tflite3ops5micro7pooling10MaxPrepareEP13TfLiteContextP10TfLiteNode
C:\Users\a5050395\AppData\Local\Temp\cc6ZqvNP.s:5923   .rodata._ZN6tflite3ops5micro7pooling10MaxPrepareEP13TfLiteContextP10TfLiteNode.str1.4:00000068 .LC4
C:\Users\a5050395\AppData\Local\Temp\cc6ZqvNP.s:5916   .rodata._ZN6tflite3ops5micro7pooling10MaxPrepareEP13TfLiteContextP10TfLiteNode.str1.4:00000000 .LC2
C:\Users\a5050395\AppData\Local\Temp\cc6ZqvNP.s:5920   .rodata._ZN6tflite3ops5micro7pooling10MaxPrepareEP13TfLiteContextP10TfLiteNode.str1.4:00000050 .LC3
C:\Users\a5050395\AppData\Local\Temp\cc6ZqvNP.s:5926   .rodata._ZN6tflite3ops5micro7pooling10MaxPrepareEP13TfLiteContextP10TfLiteNode.str1.4:0000007c .LC5
.ARM.exidx.text._ZN6tflite3ops5micro7pooling10MaxPrepareEP13TfLiteContextP10TfLiteNode:00000000 $d
C:\Users\a5050395\AppData\Local\Temp\cc6ZqvNP.s:583    .text._ZN6tflite3ops5micro7pooling7MaxEvalEP13TfLiteContextP10TfLiteNode:00000000 $a
C:\Users\a5050395\AppData\Local\Temp\cc6ZqvNP.s:589    .text._ZN6tflite3ops5micro7pooling7MaxEvalEP13TfLiteContextP10TfLiteNode:00000000 _ZN6tflite3ops5micro7pooling7MaxEvalEP13TfLiteContextP10TfLiteNode
C:\Users\a5050395\AppData\Local\Temp\cc6ZqvNP.s:5934   .rodata._ZN6tflite3ops5micro7pooling7MaxEvalEP13TfLiteContextP10TfLiteNode.str1.4:00000000 .LC6
C:\Users\a5050395\AppData\Local\Temp\cc6ZqvNP.s:1524   .text._ZN6tflite3ops5micro7pooling7MaxEvalEP13TfLiteContextP10TfLiteNode:0000066c $d
C:\Users\a5050395\AppData\Local\Temp\cc6ZqvNP.s:1530   .text._ZN6tflite3ops5micro7pooling7MaxEvalEP13TfLiteContextP10TfLiteNode:00000670 $a
.ARM.extab.text._ZN6tflite3ops5micro7pooling7MaxEvalEP13TfLiteContextP10TfLiteNode:00000000 $d
.ARM.exidx.text._ZN6tflite3ops5micro7pooling7MaxEvalEP13TfLiteContextP10TfLiteNode:00000000 $d
C:\Users\a5050395\AppData\Local\Temp\cc6ZqvNP.s:2890   .text._ZN6tflite3ops5micro7pooling11AverageEvalEP13TfLiteContextP10TfLiteNode:00000000 $a
C:\Users\a5050395\AppData\Local\Temp\cc6ZqvNP.s:2896   .text._ZN6tflite3ops5micro7pooling11AverageEvalEP13TfLiteContextP10TfLiteNode:00000000 _ZN6tflite3ops5micro7pooling11AverageEvalEP13TfLiteContextP10TfLiteNode
C:\Users\a5050395\AppData\Local\Temp\cc6ZqvNP.s:5930   .rodata._ZN6tflite3ops5micro7pooling11AverageEvalEP13TfLiteContextP10TfLiteNode.str1.4:00000000 .LC7
C:\Users\a5050395\AppData\Local\Temp\cc6ZqvNP.s:3383   .text._ZN6tflite3ops5micro7pooling11AverageEvalEP13TfLiteContextP10TfLiteNode:00000364 $d
C:\Users\a5050395\AppData\Local\Temp\cc6ZqvNP.s:3389   .text._ZN6tflite3ops5micro7pooling11AverageEvalEP13TfLiteContextP10TfLiteNode:00000370 $a
C:\Users\a5050395\AppData\Local\Temp\cc6ZqvNP.s:4900   .text._ZN6tflite3ops5micro7pooling11AverageEvalEP13TfLiteContextP10TfLiteNode:00000c04 $d
.ARM.extab.text._ZN6tflite3ops5micro7pooling11AverageEvalEP13TfLiteContextP10TfLiteNode:00000000 $d
.ARM.exidx.text._ZN6tflite3ops5micro7pooling11AverageEvalEP13TfLiteContextP10TfLiteNode:00000000 $d
C:\Users\a5050395\AppData\Local\Temp\cc6ZqvNP.s:5007   .text._ZN6tflite3ops5micro7pooling14AveragePrepareEP13TfLiteContextP10TfLiteNode:00000000 $a
C:\Users\a5050395\AppData\Local\Temp\cc6ZqvNP.s:5013   .text._ZN6tflite3ops5micro7pooling14AveragePrepareEP13TfLiteContextP10TfLiteNode:00000000 _ZN6tflite3ops5micro7pooling14AveragePrepareEP13TfLiteContextP10TfLiteNode
.ARM.extab.text._ZN6tflite3ops5micro7pooling14AveragePrepareEP13TfLiteContextP10TfLiteNode:00000000 $d
.ARM.exidx.text._ZN6tflite3ops5micro7pooling14AveragePrepareEP13TfLiteContextP10TfLiteNode:00000000 $d
C:\Users\a5050395\AppData\Local\Temp\cc6ZqvNP.s:5811   .text._ZN6tflite3ops5micro24Register_AVERAGE_POOL_2DEv:00000000 $a
C:\Users\a5050395\AppData\Local\Temp\cc6ZqvNP.s:5817   .text._ZN6tflite3ops5micro24Register_AVERAGE_POOL_2DEv:00000000 _ZN6tflite3ops5micro24Register_AVERAGE_POOL_2DEv
C:\Users\a5050395\AppData\Local\Temp\cc6ZqvNP.s:5895   .rodata:00000000 .LANCHOR0
.ARM.exidx.text._ZN6tflite3ops5micro24Register_AVERAGE_POOL_2DEv:00000000 $d
C:\Users\a5050395\AppData\Local\Temp\cc6ZqvNP.s:5852   .text._ZN6tflite3ops5micro20Register_MAX_POOL_2DEv:00000000 $a
C:\Users\a5050395\AppData\Local\Temp\cc6ZqvNP.s:5858   .text._ZN6tflite3ops5micro20Register_MAX_POOL_2DEv:00000000 _ZN6tflite3ops5micro20Register_MAX_POOL_2DEv
C:\Users\a5050395\AppData\Local\Temp\cc6ZqvNP.s:5887   .text._ZN6tflite3ops5micro20Register_MAX_POOL_2DEv:00000028 $d
.ARM.exidx.text._ZN6tflite3ops5micro20Register_MAX_POOL_2DEv:00000000 $d
C:\Users\a5050395\AppData\Local\Temp\cc6ZqvNP.s:5894   .rodata:00000000 $d
C:\Users\a5050395\AppData\Local\Temp\cc6ZqvNP.s:5915   .rodata._ZN6tflite3ops5micro7pooling10MaxPrepareEP13TfLiteContextP10TfLiteNode.str1.4:00000000 $d
C:\Users\a5050395\AppData\Local\Temp\cc6ZqvNP.s:5929   .rodata._ZN6tflite3ops5micro7pooling11AverageEvalEP13TfLiteContextP10TfLiteNode.str1.4:00000000 $d
C:\Users\a5050395\AppData\Local\Temp\cc6ZqvNP.s:5933   .rodata._ZN6tflite3ops5micro7pooling7MaxEvalEP13TfLiteContextP10TfLiteNode.str1.4:00000000 $d
                     .debug_frame:00000010 $d
                           .group:00000000 wm4.0.3e1481985cce1e923928453d8be0a65b
                           .group:00000000 wm4.cconfig.h.31.1472b8c7bd4952a63a52f3f4f718f872
                           .group:00000000 wm4.cpu_defines.h.31.54d44f9d3e7c42875c5a7fd49795eb93
                           .group:00000000 wm4.cconfig.h.515.5e729db314ae74226e291b4ae081e353
                           .group:00000000 wm4.atomic_lockfree_defines.h.31.d5c6334fb1e95c9462b052951f1411df
                           .group:00000000 wm4.exception_defines.h.31.ca6841b9be3287386aafc5c717935b2e
                           .group:00000000 wm4.concept_check.h.31.f19605d278e56917c68a56d378be308c
                           .group:00000000 wm4.type_traits.30.2c7323a483bcd7601e8b71d2546ae284
                           .group:00000000 wm4.move.h.152.41d7b9e6779674d169b7813982cfa003
                           .group:00000000 wm4.cpp_type_traits.h.33.9f2bfd8c4471a9a299f6da3ec24c745c
                           .group:00000000 wm4.numeric_traits.h.30.aa01a98564b7e55086aad9e53c7e5c53
                           .group:00000000 wm4.assertions.h.30.51d443923f0d242550e04246a7819b39
                           .group:00000000 wm4.stl_iterator.h.1250.45f349a262f1b0d836d8edbc4b7b98ff
                           .group:00000000 wm4.debug.h.30.5c1f223b12199e851d4d42805b788ccf
                           .group:00000000 wm4.stl_algobase.h.491.aa250b69c90aafa2a0a62b8c58cd5f30
                           .group:00000000 wm4._newlib_version.h.4.3572908597b70d672d181fc7fc501c19
                           .group:00000000 wm4.newlib.h.21.59901f4bf241ab46c63694665baa7297
                           .group:00000000 wm4.features.h.22.37852b648068a281464730a5a4cc748e
                           .group:00000000 wm4.config.h.219.65a553ab5bef5482f0d7880b0d33015e
                           .group:00000000 wm4._ansi.h.23.1ee1144430bedaab1a14c7b57a6c8384
                           .group:00000000 wm4.stddef.h.39.fa2e86d241f4df50b9327c72832885e1
                           .group:00000000 wm4._default_types.h.6.959254cf5f09734ea7516c89e8bb21bd
                           .group:00000000 wm4.lock.h.2.1461d1fff82dffe8bfddc23307f6484f
                           .group:00000000 wm4._types.h.125.5cf8a495f1f7ef36777ad868a1e32068
                           .group:00000000 wm4.stddef.h.161.7e98c9c86da0ed2d27af2ef92af7d013
                           .group:00000000 wm4._types.h.183.c226d164ceca1f2ecb9ae9360c54a098
                           .group:00000000 wm4.reent.h.17.23b059516345f8f5abfa01ddc379570f
                           .group:00000000 wm4.wchar.h.8.acdef4366e64def8c588421024712d23
                           .group:00000000 wm4.stddef.h.161.9f48187563b2a85291a91832aa425498
                           .group:00000000 wm4.cdefs.h.47.9bc8274c84fddbf05edd550eb0bf48cd
                           .group:00000000 wm4.stdarg.h.34.3a23a216c0c293b3d2ea2e89281481e6
                           .group:00000000 wm4.wchar.h.41.bce54f0deafe8a72ebb0005417e8a086
                           .group:00000000 wm4.cwchar.48.c4e882638bf84f6da89479dda6fe8e17
                           .group:00000000 wm4.stdint.h.4.659be5aa44c4ab4eb7c7cc2b24d8ceee
                           .group:00000000 wm4._intsup.h.10.cce27fed8484c08a33f522034c30d2b5
                           .group:00000000 wm4._stdint.h.10.c24fa3af3bc1706662bb5593a907e841
                           .group:00000000 wm4.stdint.h.23.4c107c5a20920bfc6e94fb2672bbd9ee
                           .group:00000000 wm4.allocator.h.52.0ceafb36dc1b82dbfa6b05003082e3f5
                           .group:00000000 wm4.stddef.h.161.38688f2eb958a8ed58fdb61ffe554c94
                           .group:00000000 wm4.locale.h.16.524572cf3c2ed9856516685acdc598fe
                           .group:00000000 wm4.clocale.45.c36d2d5b631a875aa5273176b54fdf0f
                           .group:00000000 wm4.ctype.h.2.da310d2ad165ccf8b86542f76fdb938d
                           .group:00000000 wm4.cctype.45.0da5714876b0be7f2d816b53d9670403
                           .group:00000000 wm4.gthr.h.27.ceb1c66b926f052afcba57e8784df0d4
                           .group:00000000 wm4.gthrdefault.h.27.edc94d4398c0534988962be77dc3c2e1
                           .group:00000000 wm4.atomic_word.h.30.9e0ac69fd462d5e650933e05133b4afa
                           .group:00000000 wm4.alloc_traits.h.31.c41c7c4789404962122a4e991dfa3abf
                           .group:00000000 wm4.cstdlib.44.52c5efdfb0f3c176bd11e611a0b94959
                           .group:00000000 wm4.stdlib.h.13.4ed386f5c1a80d71e72172885d946ef2
                           .group:00000000 wm4.stdlib.h.56.b4ddaf162082f284ba35b4444af99a9a
                           .group:00000000 wm4.cstdlib.76.ae666499c8f9b0ace1b4b23fe143da2c
                           .group:00000000 wm4.stdio.h.27.3fc80220048df77954e38daec3bb9670
                           .group:00000000 wm4.types.h.40.e8c16e7ec36ba55f133d0616070e25fc
                           .group:00000000 wm4.types.h.114.fb65732f4f5f288a036a25898de2c91f
                           .group:00000000 wm4.stdio.h.2.4aa87247282eca6c8f36f9de33d8df1a
                           .group:00000000 wm4.stdio.h.81.c3e9cb15e5af2807c4650345134c1a8a
                           .group:00000000 wm4.cstdio.45.ba8d321feb18bfc8923454067605c368
                           .group:00000000 wm4.errno.h.2.ba016d646105af6cad23be83630b6a3f
                           .group:00000000 wm4.errno.h.9.1ecd7b1049497a0ab61da0f6cbd4b0c6
                           .group:00000000 wm4.functional_hash.h.31.bccc014fee6fc3f930045d809df6f486
                           .group:00000000 wm4.functional.549.0bc5b448cf999863d3841495cd6fe920
                           .group:00000000 wm4.limits.38.55aefcf041805b6211ca3649dd2ab1b5
                           .group:00000000 wm4.assert.h.11.a5d97ca77559a42890313c4941c01fd9
                           .group:00000000 wm4.math.h.13.e7cbdea54f4da98ab8f7fad4d23502b2
                           .group:00000000 wm4.cmath.46.d6e5b776115d39075860ed881d18f087
                           .group:00000000 wm4.detect_platform.h.19.a1891273c0cad215067ddb8219400136
                           .group:00000000 wm4.fixedpoint.h.567.8a6371d9452be19811601bace78b0abc
                           .group:00000000 wm4.cmath.44.b3bcbb5fe53ec6617dec8aa8eb7b03cc
                           .group:00000000 wm4.cppmath.h.27.51580d700716589df4b364298e2ef577
                           .group:00000000 wm4.neon_check.h.16.79a4dcb572cbeac06c4924f1f20cb68d
                           .group:00000000 wm4.string.h.8.c4b8571ce60dff2817f43fec8b86aecd
                           .group:00000000 wm4.cstring.45.6ab09de7fb97b576e744347688ddc8d7
                           .group:00000000 wm4.op_macros.h.42.7b718cb416a067e7bb07e7699647769b
                           .group:00000000 wm4.compatibility.h.23.702d6356326ea59aded8ef5c6c4626d5
                           .group:00000000 wm4.cmsis_gcc.h.26.46d66de85d0f338d1a08c5c2dee519c6
                           .group:00000000 wm4.float.h.29.86c3142490a28bd085b605be3afde6ca
                           .group:00000000 wm4.limits.h.2.a76e572559edc4d4305b1cf624158ea8
                           .group:00000000 wm4.limits.h.60.d6dc41bd25b93fde4707e6decaa3afd7
                           .group:00000000 wm4.arm_math_types.h.86.d234ffd9523de96a34ed4dd0f785756f
                           .group:00000000 wm4.assert.h.11.7043852a511d37ae606afa012e67e471
                           .group:00000000 wm4.cstddef.40.7f59894b65c26f8fc669473914a0ef3e
                           .group:00000000 wm4.wctype.h.2.898a9b94aa35d125e245195b099726a8
                           .group:00000000 wm4.wctype.h.21.aec4d35c940c33b3f9c6f879c49edcd8
                           .group:00000000 wm4.cwctype.54.6582aca101688c1c3785d03bc15e2af6
                           .group:00000000 wm4.locale_facets.h.56.0d4bb655ce5e76ea564363ed7c5a34fc
                           .group:00000000 wm4.atomic_base.h.31.692a6b53cef50ad728d4af54dfbd4448
                           .group:00000000 wm4.base.h.81.f7b1ec2a44bbbae0afe7a7a890202b81
                           .group:00000000 wm4.stdbool.h.29.01580e438512fc255c0619569742ffd3
                           .group:00000000 wm4.c_api_types.h.20.9b09175981ed746180e205cc0b4b2bfd
                           .group:00000000 wm4.common.h.77.124de099ec0ac4f95ebf1618a5f42cf6

UNDEFINED SYMBOLS
abort
__aeabi_unwind_cpp_pr0
__aeabi_idiv
_ZN6tflite8GetInputEPK13TfLiteContextPK10TfLiteNodei
_ZN6tflite9GetOutputEP13TfLiteContextPK10TfLiteNodei
_ZN6tflite33CalculateActivationRangeQuantizedEP13TfLiteContext21TfLiteFusedActivationP12TfLiteTensorPlS5_
__gxx_personality_v0
TfLiteTypeGetName
_ZN6tflite5micro14GetTensorShapeEPK16TfLiteEvalTensor
arm_max_pool_s8
_ZdaPv
__cxa_end_cleanup
arm_avgpool_s8
_Znaj
memcpy
arm_avgpool_s8_get_buffer_size
__cxa_throw_bad_array_new_length
