   1              		.cpu cortex-a9
   2              		.eabi_attribute 28, 1
   3              		.eabi_attribute 20, 1
   4              		.eabi_attribute 21, 1
   5              		.eabi_attribute 23, 3
   6              		.eabi_attribute 24, 1
   7              		.eabi_attribute 25, 1
   8              		.eabi_attribute 26, 1
   9              		.eabi_attribute 30, 2
  10              		.eabi_attribute 34, 0
  11              		.eabi_attribute 18, 4
  12              		.file	"pooling.cpp"
  13              		.text
  14              	.Ltext0:
  15              		.cfi_sections	.debug_frame
  16              		.section	.text._ZN6tflite3ops5micro7pooling4InitEP13TfLiteContextPKcj,"ax",%progbits
  17              		.align	2
  18              		.global	_ZN6tflite3ops5micro7pooling4InitEP13TfLiteContextPKcj
  19              		.syntax unified
  20              		.arm
  21              		.fpu neon
  23              	_ZN6tflite3ops5micro7pooling4InitEP13TfLiteContextPKcj:
  24              		.fnstart
  25              	.LFB5919:
  26              		.file 1 "../src/tensorflow_lite/src/tensorflow/lite/micro/kernels/cmsis_nn/pooling.cpp"
   1:../src/tensorflow_lite/src/tensorflow/lite/micro/kernels/cmsis_nn/pooling.cpp **** /* Copyright 2020 The TensorFlow Authors. All Rights Reserved.
   2:../src/tensorflow_lite/src/tensorflow/lite/micro/kernels/cmsis_nn/pooling.cpp **** 
   3:../src/tensorflow_lite/src/tensorflow/lite/micro/kernels/cmsis_nn/pooling.cpp **** Licensed under the Apache License, Version 2.0 (the "License");
   4:../src/tensorflow_lite/src/tensorflow/lite/micro/kernels/cmsis_nn/pooling.cpp **** you may not use this file except in compliance with the License.
   5:../src/tensorflow_lite/src/tensorflow/lite/micro/kernels/cmsis_nn/pooling.cpp **** You may obtain a copy of the License at
   6:../src/tensorflow_lite/src/tensorflow/lite/micro/kernels/cmsis_nn/pooling.cpp **** 
   7:../src/tensorflow_lite/src/tensorflow/lite/micro/kernels/cmsis_nn/pooling.cpp ****     http://www.apache.org/licenses/LICENSE-2.0
   8:../src/tensorflow_lite/src/tensorflow/lite/micro/kernels/cmsis_nn/pooling.cpp **** 
   9:../src/tensorflow_lite/src/tensorflow/lite/micro/kernels/cmsis_nn/pooling.cpp **** Unless required by applicable law or agreed to in writing, software
  10:../src/tensorflow_lite/src/tensorflow/lite/micro/kernels/cmsis_nn/pooling.cpp **** distributed under the License is distributed on an "AS IS" BASIS,
  11:../src/tensorflow_lite/src/tensorflow/lite/micro/kernels/cmsis_nn/pooling.cpp **** WITHOUT WARRANTIES OR CONDITIONS OF ANY KIND, either express or implied.
  12:../src/tensorflow_lite/src/tensorflow/lite/micro/kernels/cmsis_nn/pooling.cpp **** See the License for the specific language governing permissions and
  13:../src/tensorflow_lite/src/tensorflow/lite/micro/kernels/cmsis_nn/pooling.cpp **** limitations under the License.
  14:../src/tensorflow_lite/src/tensorflow/lite/micro/kernels/cmsis_nn/pooling.cpp **** ==============================================================================*/
  15:../src/tensorflow_lite/src/tensorflow/lite/micro/kernels/cmsis_nn/pooling.cpp **** #include "tensorflow/lite/kernels/internal/reference/pooling.h"
  16:../src/tensorflow_lite/src/tensorflow/lite/micro/kernels/cmsis_nn/pooling.cpp **** 
  17:../src/tensorflow_lite/src/tensorflow/lite/micro/kernels/cmsis_nn/pooling.cpp **** #include "tensorflow/lite/micro/tools/make/downloads/cmsis/CMSIS/NN/Include/arm_nnfunctions.h"
  18:../src/tensorflow_lite/src/tensorflow/lite/micro/kernels/cmsis_nn/pooling.cpp **** #include "third_party/flatbuffers/include/flatbuffers/base.h"
  19:../src/tensorflow_lite/src/tensorflow/lite/micro/kernels/cmsis_nn/pooling.cpp **** #include "tensorflow/lite/c/builtin_op_data.h"
  20:../src/tensorflow_lite/src/tensorflow/lite/micro/kernels/cmsis_nn/pooling.cpp **** #include "tensorflow/lite/kernels/internal/reference/integer_ops/pooling.h"
  21:../src/tensorflow_lite/src/tensorflow/lite/micro/kernels/cmsis_nn/pooling.cpp **** #include "tensorflow/lite/kernels/internal/tensor_ctypes.h"
  22:../src/tensorflow_lite/src/tensorflow/lite/micro/kernels/cmsis_nn/pooling.cpp **** #include "tensorflow/lite/kernels/kernel_util.h"
  23:../src/tensorflow_lite/src/tensorflow/lite/micro/kernels/cmsis_nn/pooling.cpp **** #include "tensorflow/lite/kernels/padding.h"
  24:../src/tensorflow_lite/src/tensorflow/lite/micro/kernels/cmsis_nn/pooling.cpp **** #include "tensorflow/lite/micro/kernels/kernel_util.h"
  25:../src/tensorflow_lite/src/tensorflow/lite/micro/kernels/cmsis_nn/pooling.cpp **** 
  26:../src/tensorflow_lite/src/tensorflow/lite/micro/kernels/cmsis_nn/pooling.cpp **** namespace tflite {
  27:../src/tensorflow_lite/src/tensorflow/lite/micro/kernels/cmsis_nn/pooling.cpp **** namespace ops {
  28:../src/tensorflow_lite/src/tensorflow/lite/micro/kernels/cmsis_nn/pooling.cpp **** namespace micro {
  29:../src/tensorflow_lite/src/tensorflow/lite/micro/kernels/cmsis_nn/pooling.cpp **** namespace pooling {
  30:../src/tensorflow_lite/src/tensorflow/lite/micro/kernels/cmsis_nn/pooling.cpp **** 
  31:../src/tensorflow_lite/src/tensorflow/lite/micro/kernels/cmsis_nn/pooling.cpp **** namespace {
  32:../src/tensorflow_lite/src/tensorflow/lite/micro/kernels/cmsis_nn/pooling.cpp **** 
  33:../src/tensorflow_lite/src/tensorflow/lite/micro/kernels/cmsis_nn/pooling.cpp **** constexpr int kInputTensor = 0;
  34:../src/tensorflow_lite/src/tensorflow/lite/micro/kernels/cmsis_nn/pooling.cpp **** constexpr int kOutputTensor = 0;
  35:../src/tensorflow_lite/src/tensorflow/lite/micro/kernels/cmsis_nn/pooling.cpp **** 
  36:../src/tensorflow_lite/src/tensorflow/lite/micro/kernels/cmsis_nn/pooling.cpp **** struct OpData {
  37:../src/tensorflow_lite/src/tensorflow/lite/micro/kernels/cmsis_nn/pooling.cpp ****   TfLitePaddingValues padding;
  38:../src/tensorflow_lite/src/tensorflow/lite/micro/kernels/cmsis_nn/pooling.cpp ****   // Index to buffer for optimizations if applicable.
  39:../src/tensorflow_lite/src/tensorflow/lite/micro/kernels/cmsis_nn/pooling.cpp ****   int buffer_idx;
  40:../src/tensorflow_lite/src/tensorflow/lite/micro/kernels/cmsis_nn/pooling.cpp **** 
  41:../src/tensorflow_lite/src/tensorflow/lite/micro/kernels/cmsis_nn/pooling.cpp ****   int32_t activation_min;
  42:../src/tensorflow_lite/src/tensorflow/lite/micro/kernels/cmsis_nn/pooling.cpp ****   int32_t activation_max;
  43:../src/tensorflow_lite/src/tensorflow/lite/micro/kernels/cmsis_nn/pooling.cpp ****   float activation_min_f32;
  44:../src/tensorflow_lite/src/tensorflow/lite/micro/kernels/cmsis_nn/pooling.cpp ****   float activation_max_f32;
  45:../src/tensorflow_lite/src/tensorflow/lite/micro/kernels/cmsis_nn/pooling.cpp **** };
  46:../src/tensorflow_lite/src/tensorflow/lite/micro/kernels/cmsis_nn/pooling.cpp **** 
  47:../src/tensorflow_lite/src/tensorflow/lite/micro/kernels/cmsis_nn/pooling.cpp **** TfLiteStatus CalculateOpData(TfLiteContext* context,
  48:../src/tensorflow_lite/src/tensorflow/lite/micro/kernels/cmsis_nn/pooling.cpp ****                              const TfLitePoolParams* params,
  49:../src/tensorflow_lite/src/tensorflow/lite/micro/kernels/cmsis_nn/pooling.cpp ****                              const TfLiteTensor* input, TfLiteTensor* output,
  50:../src/tensorflow_lite/src/tensorflow/lite/micro/kernels/cmsis_nn/pooling.cpp ****                              OpData* data) {
  51:../src/tensorflow_lite/src/tensorflow/lite/micro/kernels/cmsis_nn/pooling.cpp ****   // input: batch, height, width, channel
  52:../src/tensorflow_lite/src/tensorflow/lite/micro/kernels/cmsis_nn/pooling.cpp ****   int height = SizeOfDimension(input, 1);
  53:../src/tensorflow_lite/src/tensorflow/lite/micro/kernels/cmsis_nn/pooling.cpp ****   int width = SizeOfDimension(input, 2);
  54:../src/tensorflow_lite/src/tensorflow/lite/micro/kernels/cmsis_nn/pooling.cpp **** 
  55:../src/tensorflow_lite/src/tensorflow/lite/micro/kernels/cmsis_nn/pooling.cpp ****   int out_height, out_width;
  56:../src/tensorflow_lite/src/tensorflow/lite/micro/kernels/cmsis_nn/pooling.cpp **** 
  57:../src/tensorflow_lite/src/tensorflow/lite/micro/kernels/cmsis_nn/pooling.cpp ****   data->padding = ComputePaddingHeightWidth(
  58:../src/tensorflow_lite/src/tensorflow/lite/micro/kernels/cmsis_nn/pooling.cpp ****       params->stride_height, params->stride_width,
  59:../src/tensorflow_lite/src/tensorflow/lite/micro/kernels/cmsis_nn/pooling.cpp ****       /*dilation_rate_height=*/1,
  60:../src/tensorflow_lite/src/tensorflow/lite/micro/kernels/cmsis_nn/pooling.cpp ****       /*dilation_rate_width=*/1, height, width, params->filter_height,
  61:../src/tensorflow_lite/src/tensorflow/lite/micro/kernels/cmsis_nn/pooling.cpp ****       params->filter_width, params->padding, &out_height, &out_width);
  62:../src/tensorflow_lite/src/tensorflow/lite/micro/kernels/cmsis_nn/pooling.cpp **** 
  63:../src/tensorflow_lite/src/tensorflow/lite/micro/kernels/cmsis_nn/pooling.cpp ****   if (input->type == kTfLiteFloat32) {
  64:../src/tensorflow_lite/src/tensorflow/lite/micro/kernels/cmsis_nn/pooling.cpp ****     CalculateActivationRange(params->activation, &data->activation_min_f32,
  65:../src/tensorflow_lite/src/tensorflow/lite/micro/kernels/cmsis_nn/pooling.cpp ****                              &data->activation_max_f32);
  66:../src/tensorflow_lite/src/tensorflow/lite/micro/kernels/cmsis_nn/pooling.cpp ****   } else {
  67:../src/tensorflow_lite/src/tensorflow/lite/micro/kernels/cmsis_nn/pooling.cpp ****     TF_LITE_ENSURE_STATUS(CalculateActivationRangeQuantized(
  68:../src/tensorflow_lite/src/tensorflow/lite/micro/kernels/cmsis_nn/pooling.cpp ****         context, params->activation, output, &data->activation_min,
  69:../src/tensorflow_lite/src/tensorflow/lite/micro/kernels/cmsis_nn/pooling.cpp ****         &data->activation_max));
  70:../src/tensorflow_lite/src/tensorflow/lite/micro/kernels/cmsis_nn/pooling.cpp ****     TFLITE_DCHECK_LE(data->activation_min, data->activation_max);
  71:../src/tensorflow_lite/src/tensorflow/lite/micro/kernels/cmsis_nn/pooling.cpp ****   }
  72:../src/tensorflow_lite/src/tensorflow/lite/micro/kernels/cmsis_nn/pooling.cpp **** 
  73:../src/tensorflow_lite/src/tensorflow/lite/micro/kernels/cmsis_nn/pooling.cpp ****   // Set buffer index to a reset value
  74:../src/tensorflow_lite/src/tensorflow/lite/micro/kernels/cmsis_nn/pooling.cpp ****   data->buffer_idx = -1;
  75:../src/tensorflow_lite/src/tensorflow/lite/micro/kernels/cmsis_nn/pooling.cpp **** 
  76:../src/tensorflow_lite/src/tensorflow/lite/micro/kernels/cmsis_nn/pooling.cpp ****   return kTfLiteOk;
  77:../src/tensorflow_lite/src/tensorflow/lite/micro/kernels/cmsis_nn/pooling.cpp **** }
  78:../src/tensorflow_lite/src/tensorflow/lite/micro/kernels/cmsis_nn/pooling.cpp **** 
  79:../src/tensorflow_lite/src/tensorflow/lite/micro/kernels/cmsis_nn/pooling.cpp **** void AverageEvalFloat(const TfLiteContext* context, const TfLiteNode* node,
  80:../src/tensorflow_lite/src/tensorflow/lite/micro/kernels/cmsis_nn/pooling.cpp ****                       const TfLitePoolParams* params, const OpData& data,
  81:../src/tensorflow_lite/src/tensorflow/lite/micro/kernels/cmsis_nn/pooling.cpp ****                       const TfLiteEvalTensor* input, TfLiteEvalTensor* output) {
  82:../src/tensorflow_lite/src/tensorflow/lite/micro/kernels/cmsis_nn/pooling.cpp ****   float activation_min, activation_max;
  83:../src/tensorflow_lite/src/tensorflow/lite/micro/kernels/cmsis_nn/pooling.cpp ****   CalculateActivationRange(params->activation, &activation_min,
  84:../src/tensorflow_lite/src/tensorflow/lite/micro/kernels/cmsis_nn/pooling.cpp ****                            &activation_max);
  85:../src/tensorflow_lite/src/tensorflow/lite/micro/kernels/cmsis_nn/pooling.cpp **** 
  86:../src/tensorflow_lite/src/tensorflow/lite/micro/kernels/cmsis_nn/pooling.cpp ****   PoolParams op_params;
  87:../src/tensorflow_lite/src/tensorflow/lite/micro/kernels/cmsis_nn/pooling.cpp ****   op_params.stride_height = params->stride_height;
  88:../src/tensorflow_lite/src/tensorflow/lite/micro/kernels/cmsis_nn/pooling.cpp ****   op_params.stride_width = params->stride_width;
  89:../src/tensorflow_lite/src/tensorflow/lite/micro/kernels/cmsis_nn/pooling.cpp ****   op_params.filter_height = params->filter_height;
  90:../src/tensorflow_lite/src/tensorflow/lite/micro/kernels/cmsis_nn/pooling.cpp ****   op_params.filter_width = params->filter_width;
  91:../src/tensorflow_lite/src/tensorflow/lite/micro/kernels/cmsis_nn/pooling.cpp ****   op_params.padding_values.height = data.padding.height;
  92:../src/tensorflow_lite/src/tensorflow/lite/micro/kernels/cmsis_nn/pooling.cpp ****   op_params.padding_values.width = data.padding.width;
  93:../src/tensorflow_lite/src/tensorflow/lite/micro/kernels/cmsis_nn/pooling.cpp ****   op_params.float_activation_min = activation_min;
  94:../src/tensorflow_lite/src/tensorflow/lite/micro/kernels/cmsis_nn/pooling.cpp ****   op_params.float_activation_max = activation_max;
  95:../src/tensorflow_lite/src/tensorflow/lite/micro/kernels/cmsis_nn/pooling.cpp ****   reference_ops::AveragePool(op_params, tflite::micro::GetTensorShape(input),
  96:../src/tensorflow_lite/src/tensorflow/lite/micro/kernels/cmsis_nn/pooling.cpp ****                              tflite::micro::GetTensorData<float>(input),
  97:../src/tensorflow_lite/src/tensorflow/lite/micro/kernels/cmsis_nn/pooling.cpp ****                              tflite::micro::GetTensorShape(output),
  98:../src/tensorflow_lite/src/tensorflow/lite/micro/kernels/cmsis_nn/pooling.cpp ****                              tflite::micro::GetTensorData<float>(output));
  99:../src/tensorflow_lite/src/tensorflow/lite/micro/kernels/cmsis_nn/pooling.cpp **** }
 100:../src/tensorflow_lite/src/tensorflow/lite/micro/kernels/cmsis_nn/pooling.cpp **** 
 101:../src/tensorflow_lite/src/tensorflow/lite/micro/kernels/cmsis_nn/pooling.cpp **** void AverageEvalQuantized(TfLiteContext* context, const TfLiteNode* node,
 102:../src/tensorflow_lite/src/tensorflow/lite/micro/kernels/cmsis_nn/pooling.cpp ****                           const TfLitePoolParams* params, const OpData& data,
 103:../src/tensorflow_lite/src/tensorflow/lite/micro/kernels/cmsis_nn/pooling.cpp ****                           const TfLiteEvalTensor* input,
 104:../src/tensorflow_lite/src/tensorflow/lite/micro/kernels/cmsis_nn/pooling.cpp ****                           TfLiteEvalTensor* output) {
 105:../src/tensorflow_lite/src/tensorflow/lite/micro/kernels/cmsis_nn/pooling.cpp ****   TFLITE_DCHECK(input->type == kTfLiteUInt8 || input->type == kTfLiteInt8);
 106:../src/tensorflow_lite/src/tensorflow/lite/micro/kernels/cmsis_nn/pooling.cpp **** 
 107:../src/tensorflow_lite/src/tensorflow/lite/micro/kernels/cmsis_nn/pooling.cpp ****   if (input->type == kTfLiteUInt8) {
 108:../src/tensorflow_lite/src/tensorflow/lite/micro/kernels/cmsis_nn/pooling.cpp ****     PoolParams op_params;
 109:../src/tensorflow_lite/src/tensorflow/lite/micro/kernels/cmsis_nn/pooling.cpp ****     op_params.stride_height = params->stride_height;
 110:../src/tensorflow_lite/src/tensorflow/lite/micro/kernels/cmsis_nn/pooling.cpp ****     op_params.stride_width = params->stride_width;
 111:../src/tensorflow_lite/src/tensorflow/lite/micro/kernels/cmsis_nn/pooling.cpp ****     op_params.filter_height = params->filter_height;
 112:../src/tensorflow_lite/src/tensorflow/lite/micro/kernels/cmsis_nn/pooling.cpp ****     op_params.filter_width = params->filter_width;
 113:../src/tensorflow_lite/src/tensorflow/lite/micro/kernels/cmsis_nn/pooling.cpp ****     op_params.padding_values.height = data.padding.height;
 114:../src/tensorflow_lite/src/tensorflow/lite/micro/kernels/cmsis_nn/pooling.cpp ****     op_params.padding_values.width = data.padding.width;
 115:../src/tensorflow_lite/src/tensorflow/lite/micro/kernels/cmsis_nn/pooling.cpp ****     op_params.quantized_activation_min = data.activation_min;
 116:../src/tensorflow_lite/src/tensorflow/lite/micro/kernels/cmsis_nn/pooling.cpp ****     op_params.quantized_activation_max = data.activation_max;
 117:../src/tensorflow_lite/src/tensorflow/lite/micro/kernels/cmsis_nn/pooling.cpp **** 
 118:../src/tensorflow_lite/src/tensorflow/lite/micro/kernels/cmsis_nn/pooling.cpp ****     reference_ops::AveragePool(op_params, tflite::micro::GetTensorShape(input),
 119:../src/tensorflow_lite/src/tensorflow/lite/micro/kernels/cmsis_nn/pooling.cpp ****                                tflite::micro::GetTensorData<uint8_t>(input),
 120:../src/tensorflow_lite/src/tensorflow/lite/micro/kernels/cmsis_nn/pooling.cpp ****                                tflite::micro::GetTensorShape(output),
 121:../src/tensorflow_lite/src/tensorflow/lite/micro/kernels/cmsis_nn/pooling.cpp ****                                tflite::micro::GetTensorData<uint8_t>(output));
 122:../src/tensorflow_lite/src/tensorflow/lite/micro/kernels/cmsis_nn/pooling.cpp ****   } else {
 123:../src/tensorflow_lite/src/tensorflow/lite/micro/kernels/cmsis_nn/pooling.cpp ****     RuntimeShape input_shape = tflite::micro::GetTensorShape(input);
 124:../src/tensorflow_lite/src/tensorflow/lite/micro/kernels/cmsis_nn/pooling.cpp ****     TFLITE_DCHECK_EQ(input_shape.DimensionsCount(), 4);
 125:../src/tensorflow_lite/src/tensorflow/lite/micro/kernels/cmsis_nn/pooling.cpp **** 
 126:../src/tensorflow_lite/src/tensorflow/lite/micro/kernels/cmsis_nn/pooling.cpp ****     RuntimeShape output_shape = tflite::micro::GetTensorShape(output);
 127:../src/tensorflow_lite/src/tensorflow/lite/micro/kernels/cmsis_nn/pooling.cpp ****     TFLITE_DCHECK_EQ(output_shape.DimensionsCount(), 4);
 128:../src/tensorflow_lite/src/tensorflow/lite/micro/kernels/cmsis_nn/pooling.cpp **** 
 129:../src/tensorflow_lite/src/tensorflow/lite/micro/kernels/cmsis_nn/pooling.cpp ****     const int depth = MatchingDim(input_shape, 3, output_shape, 3);
 130:../src/tensorflow_lite/src/tensorflow/lite/micro/kernels/cmsis_nn/pooling.cpp **** 
 131:../src/tensorflow_lite/src/tensorflow/lite/micro/kernels/cmsis_nn/pooling.cpp ****     cmsis_nn_dims input_dims;
 132:../src/tensorflow_lite/src/tensorflow/lite/micro/kernels/cmsis_nn/pooling.cpp ****     input_dims.n = 1;
 133:../src/tensorflow_lite/src/tensorflow/lite/micro/kernels/cmsis_nn/pooling.cpp ****     input_dims.h = input_shape.Dims(1);
 134:../src/tensorflow_lite/src/tensorflow/lite/micro/kernels/cmsis_nn/pooling.cpp ****     input_dims.w = input_shape.Dims(2);
 135:../src/tensorflow_lite/src/tensorflow/lite/micro/kernels/cmsis_nn/pooling.cpp ****     input_dims.c = depth;
 136:../src/tensorflow_lite/src/tensorflow/lite/micro/kernels/cmsis_nn/pooling.cpp **** 
 137:../src/tensorflow_lite/src/tensorflow/lite/micro/kernels/cmsis_nn/pooling.cpp ****     cmsis_nn_dims output_dims;
 138:../src/tensorflow_lite/src/tensorflow/lite/micro/kernels/cmsis_nn/pooling.cpp ****     output_dims.n = 1;
 139:../src/tensorflow_lite/src/tensorflow/lite/micro/kernels/cmsis_nn/pooling.cpp ****     output_dims.h = output_shape.Dims(1);
 140:../src/tensorflow_lite/src/tensorflow/lite/micro/kernels/cmsis_nn/pooling.cpp ****     output_dims.w = output_shape.Dims(2);
 141:../src/tensorflow_lite/src/tensorflow/lite/micro/kernels/cmsis_nn/pooling.cpp ****     output_dims.c = depth;
 142:../src/tensorflow_lite/src/tensorflow/lite/micro/kernels/cmsis_nn/pooling.cpp **** 
 143:../src/tensorflow_lite/src/tensorflow/lite/micro/kernels/cmsis_nn/pooling.cpp ****     cmsis_nn_pool_params pool_params;
 144:../src/tensorflow_lite/src/tensorflow/lite/micro/kernels/cmsis_nn/pooling.cpp ****     pool_params.stride.h = params->stride_height;
 145:../src/tensorflow_lite/src/tensorflow/lite/micro/kernels/cmsis_nn/pooling.cpp ****     pool_params.stride.w = params->stride_width;
 146:../src/tensorflow_lite/src/tensorflow/lite/micro/kernels/cmsis_nn/pooling.cpp ****     pool_params.padding.h = data.padding.height;
 147:../src/tensorflow_lite/src/tensorflow/lite/micro/kernels/cmsis_nn/pooling.cpp ****     pool_params.padding.w = data.padding.width;
 148:../src/tensorflow_lite/src/tensorflow/lite/micro/kernels/cmsis_nn/pooling.cpp ****     pool_params.activation.min = data.activation_min;
 149:../src/tensorflow_lite/src/tensorflow/lite/micro/kernels/cmsis_nn/pooling.cpp ****     pool_params.activation.max = data.activation_max;
 150:../src/tensorflow_lite/src/tensorflow/lite/micro/kernels/cmsis_nn/pooling.cpp **** 
 151:../src/tensorflow_lite/src/tensorflow/lite/micro/kernels/cmsis_nn/pooling.cpp ****     cmsis_nn_dims filter_dims;
 152:../src/tensorflow_lite/src/tensorflow/lite/micro/kernels/cmsis_nn/pooling.cpp ****     filter_dims.n = 1;
 153:../src/tensorflow_lite/src/tensorflow/lite/micro/kernels/cmsis_nn/pooling.cpp ****     filter_dims.h = params->filter_height;
 154:../src/tensorflow_lite/src/tensorflow/lite/micro/kernels/cmsis_nn/pooling.cpp ****     filter_dims.w = params->filter_width;
 155:../src/tensorflow_lite/src/tensorflow/lite/micro/kernels/cmsis_nn/pooling.cpp ****     filter_dims.c = 1;
 156:../src/tensorflow_lite/src/tensorflow/lite/micro/kernels/cmsis_nn/pooling.cpp **** 
 157:../src/tensorflow_lite/src/tensorflow/lite/micro/kernels/cmsis_nn/pooling.cpp ****     cmsis_nn_context ctx;
 158:../src/tensorflow_lite/src/tensorflow/lite/micro/kernels/cmsis_nn/pooling.cpp ****     ctx.buf = nullptr;
 159:../src/tensorflow_lite/src/tensorflow/lite/micro/kernels/cmsis_nn/pooling.cpp ****     ctx.size = 0;
 160:../src/tensorflow_lite/src/tensorflow/lite/micro/kernels/cmsis_nn/pooling.cpp ****     if (data.buffer_idx > -1) {
 161:../src/tensorflow_lite/src/tensorflow/lite/micro/kernels/cmsis_nn/pooling.cpp ****       ctx.buf = context->GetScratchBuffer(context, data.buffer_idx);
 162:../src/tensorflow_lite/src/tensorflow/lite/micro/kernels/cmsis_nn/pooling.cpp ****     }
 163:../src/tensorflow_lite/src/tensorflow/lite/micro/kernels/cmsis_nn/pooling.cpp **** 
 164:../src/tensorflow_lite/src/tensorflow/lite/micro/kernels/cmsis_nn/pooling.cpp ****     TFLITE_DCHECK_EQ(
 165:../src/tensorflow_lite/src/tensorflow/lite/micro/kernels/cmsis_nn/pooling.cpp ****         arm_avgpool_s8(&ctx, &pool_params, &input_dims,
 166:../src/tensorflow_lite/src/tensorflow/lite/micro/kernels/cmsis_nn/pooling.cpp ****                        tflite::micro::GetTensorData<int8_t>(input),
 167:../src/tensorflow_lite/src/tensorflow/lite/micro/kernels/cmsis_nn/pooling.cpp ****                        &filter_dims, &output_dims,
 168:../src/tensorflow_lite/src/tensorflow/lite/micro/kernels/cmsis_nn/pooling.cpp ****                        tflite::micro::GetTensorData<int8_t>(output)),
 169:../src/tensorflow_lite/src/tensorflow/lite/micro/kernels/cmsis_nn/pooling.cpp ****         ARM_MATH_SUCCESS);
 170:../src/tensorflow_lite/src/tensorflow/lite/micro/kernels/cmsis_nn/pooling.cpp ****   }
 171:../src/tensorflow_lite/src/tensorflow/lite/micro/kernels/cmsis_nn/pooling.cpp **** }
 172:../src/tensorflow_lite/src/tensorflow/lite/micro/kernels/cmsis_nn/pooling.cpp **** 
 173:../src/tensorflow_lite/src/tensorflow/lite/micro/kernels/cmsis_nn/pooling.cpp **** void MaxEvalFloat(TfLiteContext* context, TfLiteNode* node,
 174:../src/tensorflow_lite/src/tensorflow/lite/micro/kernels/cmsis_nn/pooling.cpp ****                   TfLitePoolParams* params, const OpData& data,
 175:../src/tensorflow_lite/src/tensorflow/lite/micro/kernels/cmsis_nn/pooling.cpp ****                   const TfLiteEvalTensor* input, TfLiteEvalTensor* output) {
 176:../src/tensorflow_lite/src/tensorflow/lite/micro/kernels/cmsis_nn/pooling.cpp ****   float activation_min, activation_max;
 177:../src/tensorflow_lite/src/tensorflow/lite/micro/kernels/cmsis_nn/pooling.cpp ****   CalculateActivationRange(params->activation, &activation_min,
 178:../src/tensorflow_lite/src/tensorflow/lite/micro/kernels/cmsis_nn/pooling.cpp ****                            &activation_max);
 179:../src/tensorflow_lite/src/tensorflow/lite/micro/kernels/cmsis_nn/pooling.cpp ****   tflite::PoolParams op_params;
 180:../src/tensorflow_lite/src/tensorflow/lite/micro/kernels/cmsis_nn/pooling.cpp ****   op_params.stride_height = params->stride_height;
 181:../src/tensorflow_lite/src/tensorflow/lite/micro/kernels/cmsis_nn/pooling.cpp ****   op_params.stride_width = params->stride_width;
 182:../src/tensorflow_lite/src/tensorflow/lite/micro/kernels/cmsis_nn/pooling.cpp ****   op_params.filter_height = params->filter_height;
 183:../src/tensorflow_lite/src/tensorflow/lite/micro/kernels/cmsis_nn/pooling.cpp ****   op_params.filter_width = params->filter_width;
 184:../src/tensorflow_lite/src/tensorflow/lite/micro/kernels/cmsis_nn/pooling.cpp ****   op_params.padding_values.height = data.padding.height;
 185:../src/tensorflow_lite/src/tensorflow/lite/micro/kernels/cmsis_nn/pooling.cpp ****   op_params.padding_values.width = data.padding.width;
 186:../src/tensorflow_lite/src/tensorflow/lite/micro/kernels/cmsis_nn/pooling.cpp ****   op_params.float_activation_min = data.activation_min_f32;
 187:../src/tensorflow_lite/src/tensorflow/lite/micro/kernels/cmsis_nn/pooling.cpp ****   op_params.float_activation_max = data.activation_max_f32;
 188:../src/tensorflow_lite/src/tensorflow/lite/micro/kernels/cmsis_nn/pooling.cpp ****   reference_ops::MaxPool(op_params, tflite::micro::GetTensorShape(input),
 189:../src/tensorflow_lite/src/tensorflow/lite/micro/kernels/cmsis_nn/pooling.cpp ****                          tflite::micro::GetTensorData<float>(input),
 190:../src/tensorflow_lite/src/tensorflow/lite/micro/kernels/cmsis_nn/pooling.cpp ****                          tflite::micro::GetTensorShape(output),
 191:../src/tensorflow_lite/src/tensorflow/lite/micro/kernels/cmsis_nn/pooling.cpp ****                          tflite::micro::GetTensorData<float>(output));
 192:../src/tensorflow_lite/src/tensorflow/lite/micro/kernels/cmsis_nn/pooling.cpp **** }
 193:../src/tensorflow_lite/src/tensorflow/lite/micro/kernels/cmsis_nn/pooling.cpp **** 
 194:../src/tensorflow_lite/src/tensorflow/lite/micro/kernels/cmsis_nn/pooling.cpp **** void MaxEvalQuantizedUInt8(TfLiteContext* context, TfLiteNode* node,
 195:../src/tensorflow_lite/src/tensorflow/lite/micro/kernels/cmsis_nn/pooling.cpp ****                            TfLitePoolParams* params, const OpData& data,
 196:../src/tensorflow_lite/src/tensorflow/lite/micro/kernels/cmsis_nn/pooling.cpp ****                            const TfLiteEvalTensor* input,
 197:../src/tensorflow_lite/src/tensorflow/lite/micro/kernels/cmsis_nn/pooling.cpp ****                            TfLiteEvalTensor* output) {
 198:../src/tensorflow_lite/src/tensorflow/lite/micro/kernels/cmsis_nn/pooling.cpp ****   tflite::PoolParams op_params;
 199:../src/tensorflow_lite/src/tensorflow/lite/micro/kernels/cmsis_nn/pooling.cpp ****   op_params.stride_height = params->stride_height;
 200:../src/tensorflow_lite/src/tensorflow/lite/micro/kernels/cmsis_nn/pooling.cpp ****   op_params.stride_width = params->stride_width;
 201:../src/tensorflow_lite/src/tensorflow/lite/micro/kernels/cmsis_nn/pooling.cpp ****   op_params.filter_height = params->filter_height;
 202:../src/tensorflow_lite/src/tensorflow/lite/micro/kernels/cmsis_nn/pooling.cpp ****   op_params.filter_width = params->filter_width;
 203:../src/tensorflow_lite/src/tensorflow/lite/micro/kernels/cmsis_nn/pooling.cpp ****   op_params.padding_values.height = data.padding.height;
 204:../src/tensorflow_lite/src/tensorflow/lite/micro/kernels/cmsis_nn/pooling.cpp ****   op_params.padding_values.width = data.padding.width;
 205:../src/tensorflow_lite/src/tensorflow/lite/micro/kernels/cmsis_nn/pooling.cpp ****   op_params.quantized_activation_min = data.activation_min;
 206:../src/tensorflow_lite/src/tensorflow/lite/micro/kernels/cmsis_nn/pooling.cpp ****   op_params.quantized_activation_max = data.activation_max;
 207:../src/tensorflow_lite/src/tensorflow/lite/micro/kernels/cmsis_nn/pooling.cpp ****   reference_ops::MaxPool(op_params, tflite::micro::GetTensorShape(input),
 208:../src/tensorflow_lite/src/tensorflow/lite/micro/kernels/cmsis_nn/pooling.cpp ****                          tflite::micro::GetTensorData<uint8_t>(input),
 209:../src/tensorflow_lite/src/tensorflow/lite/micro/kernels/cmsis_nn/pooling.cpp ****                          tflite::micro::GetTensorShape(output),
 210:../src/tensorflow_lite/src/tensorflow/lite/micro/kernels/cmsis_nn/pooling.cpp ****                          tflite::micro::GetTensorData<uint8_t>(output));
 211:../src/tensorflow_lite/src/tensorflow/lite/micro/kernels/cmsis_nn/pooling.cpp **** }
 212:../src/tensorflow_lite/src/tensorflow/lite/micro/kernels/cmsis_nn/pooling.cpp **** 
 213:../src/tensorflow_lite/src/tensorflow/lite/micro/kernels/cmsis_nn/pooling.cpp **** TfLiteStatus MaxEvalInt8(TfLiteContext* context, const TfLiteNode* node,
 214:../src/tensorflow_lite/src/tensorflow/lite/micro/kernels/cmsis_nn/pooling.cpp ****                          const TfLitePoolParams* params, const OpData& data,
 215:../src/tensorflow_lite/src/tensorflow/lite/micro/kernels/cmsis_nn/pooling.cpp ****                          const TfLiteEvalTensor* input,
 216:../src/tensorflow_lite/src/tensorflow/lite/micro/kernels/cmsis_nn/pooling.cpp ****                          TfLiteEvalTensor* output) {
 217:../src/tensorflow_lite/src/tensorflow/lite/micro/kernels/cmsis_nn/pooling.cpp ****   RuntimeShape input_shape = tflite::micro::GetTensorShape(input);
 218:../src/tensorflow_lite/src/tensorflow/lite/micro/kernels/cmsis_nn/pooling.cpp ****   RuntimeShape output_shape = tflite::micro::GetTensorShape(output);
 219:../src/tensorflow_lite/src/tensorflow/lite/micro/kernels/cmsis_nn/pooling.cpp ****   const int depth = MatchingDim(input_shape, 3, output_shape, 3);
 220:../src/tensorflow_lite/src/tensorflow/lite/micro/kernels/cmsis_nn/pooling.cpp **** 
 221:../src/tensorflow_lite/src/tensorflow/lite/micro/kernels/cmsis_nn/pooling.cpp ****   cmsis_nn_dims input_dims;
 222:../src/tensorflow_lite/src/tensorflow/lite/micro/kernels/cmsis_nn/pooling.cpp ****   input_dims.n = 1;
 223:../src/tensorflow_lite/src/tensorflow/lite/micro/kernels/cmsis_nn/pooling.cpp ****   input_dims.h = input_shape.Dims(1);
 224:../src/tensorflow_lite/src/tensorflow/lite/micro/kernels/cmsis_nn/pooling.cpp ****   input_dims.w = input_shape.Dims(2);
 225:../src/tensorflow_lite/src/tensorflow/lite/micro/kernels/cmsis_nn/pooling.cpp ****   input_dims.c = depth;
 226:../src/tensorflow_lite/src/tensorflow/lite/micro/kernels/cmsis_nn/pooling.cpp **** 
 227:../src/tensorflow_lite/src/tensorflow/lite/micro/kernels/cmsis_nn/pooling.cpp ****   cmsis_nn_dims output_dims;
 228:../src/tensorflow_lite/src/tensorflow/lite/micro/kernels/cmsis_nn/pooling.cpp ****   output_dims.n = 1;
 229:../src/tensorflow_lite/src/tensorflow/lite/micro/kernels/cmsis_nn/pooling.cpp ****   output_dims.h = output_shape.Dims(1);
 230:../src/tensorflow_lite/src/tensorflow/lite/micro/kernels/cmsis_nn/pooling.cpp ****   output_dims.w = output_shape.Dims(2);
 231:../src/tensorflow_lite/src/tensorflow/lite/micro/kernels/cmsis_nn/pooling.cpp ****   output_dims.c = depth;
 232:../src/tensorflow_lite/src/tensorflow/lite/micro/kernels/cmsis_nn/pooling.cpp **** 
 233:../src/tensorflow_lite/src/tensorflow/lite/micro/kernels/cmsis_nn/pooling.cpp ****   cmsis_nn_pool_params pool_params;
 234:../src/tensorflow_lite/src/tensorflow/lite/micro/kernels/cmsis_nn/pooling.cpp ****   pool_params.stride.h = params->stride_height;
 235:../src/tensorflow_lite/src/tensorflow/lite/micro/kernels/cmsis_nn/pooling.cpp ****   pool_params.stride.w = params->stride_width;
 236:../src/tensorflow_lite/src/tensorflow/lite/micro/kernels/cmsis_nn/pooling.cpp ****   pool_params.padding.h = data.padding.height;
 237:../src/tensorflow_lite/src/tensorflow/lite/micro/kernels/cmsis_nn/pooling.cpp ****   pool_params.padding.w = data.padding.width;
 238:../src/tensorflow_lite/src/tensorflow/lite/micro/kernels/cmsis_nn/pooling.cpp ****   pool_params.activation.min = data.activation_min;
 239:../src/tensorflow_lite/src/tensorflow/lite/micro/kernels/cmsis_nn/pooling.cpp ****   pool_params.activation.max = data.activation_max;
 240:../src/tensorflow_lite/src/tensorflow/lite/micro/kernels/cmsis_nn/pooling.cpp **** 
 241:../src/tensorflow_lite/src/tensorflow/lite/micro/kernels/cmsis_nn/pooling.cpp ****   cmsis_nn_dims filter_dims;
 242:../src/tensorflow_lite/src/tensorflow/lite/micro/kernels/cmsis_nn/pooling.cpp ****   filter_dims.n = 1;
 243:../src/tensorflow_lite/src/tensorflow/lite/micro/kernels/cmsis_nn/pooling.cpp ****   filter_dims.h = params->filter_height;
 244:../src/tensorflow_lite/src/tensorflow/lite/micro/kernels/cmsis_nn/pooling.cpp ****   filter_dims.w = params->filter_width;
 245:../src/tensorflow_lite/src/tensorflow/lite/micro/kernels/cmsis_nn/pooling.cpp ****   filter_dims.c = 1;
 246:../src/tensorflow_lite/src/tensorflow/lite/micro/kernels/cmsis_nn/pooling.cpp **** 
 247:../src/tensorflow_lite/src/tensorflow/lite/micro/kernels/cmsis_nn/pooling.cpp ****   cmsis_nn_context ctx;
 248:../src/tensorflow_lite/src/tensorflow/lite/micro/kernels/cmsis_nn/pooling.cpp ****   ctx.buf = nullptr;
 249:../src/tensorflow_lite/src/tensorflow/lite/micro/kernels/cmsis_nn/pooling.cpp ****   ctx.size = 0;
 250:../src/tensorflow_lite/src/tensorflow/lite/micro/kernels/cmsis_nn/pooling.cpp ****   if (data.buffer_idx > -1) {
 251:../src/tensorflow_lite/src/tensorflow/lite/micro/kernels/cmsis_nn/pooling.cpp ****     ctx.buf = context->GetScratchBuffer(context, data.buffer_idx);
 252:../src/tensorflow_lite/src/tensorflow/lite/micro/kernels/cmsis_nn/pooling.cpp ****   }
 253:../src/tensorflow_lite/src/tensorflow/lite/micro/kernels/cmsis_nn/pooling.cpp **** 
 254:../src/tensorflow_lite/src/tensorflow/lite/micro/kernels/cmsis_nn/pooling.cpp ****   TFLITE_DCHECK_EQ(
 255:../src/tensorflow_lite/src/tensorflow/lite/micro/kernels/cmsis_nn/pooling.cpp ****       arm_max_pool_s8(&ctx, &pool_params, &input_dims,
 256:../src/tensorflow_lite/src/tensorflow/lite/micro/kernels/cmsis_nn/pooling.cpp ****                       tflite::micro::GetTensorData<int8_t>(input), &filter_dims,
 257:../src/tensorflow_lite/src/tensorflow/lite/micro/kernels/cmsis_nn/pooling.cpp ****                       &output_dims,
 258:../src/tensorflow_lite/src/tensorflow/lite/micro/kernels/cmsis_nn/pooling.cpp ****                       tflite::micro::GetTensorData<int8_t>(output)),
 259:../src/tensorflow_lite/src/tensorflow/lite/micro/kernels/cmsis_nn/pooling.cpp ****       ARM_MATH_SUCCESS);
 260:../src/tensorflow_lite/src/tensorflow/lite/micro/kernels/cmsis_nn/pooling.cpp **** 
 261:../src/tensorflow_lite/src/tensorflow/lite/micro/kernels/cmsis_nn/pooling.cpp ****   return kTfLiteOk;
 262:../src/tensorflow_lite/src/tensorflow/lite/micro/kernels/cmsis_nn/pooling.cpp **** }
 263:../src/tensorflow_lite/src/tensorflow/lite/micro/kernels/cmsis_nn/pooling.cpp **** 
 264:../src/tensorflow_lite/src/tensorflow/lite/micro/kernels/cmsis_nn/pooling.cpp **** }  // namespace
 265:../src/tensorflow_lite/src/tensorflow/lite/micro/kernels/cmsis_nn/pooling.cpp **** 
 266:../src/tensorflow_lite/src/tensorflow/lite/micro/kernels/cmsis_nn/pooling.cpp **** void* Init(TfLiteContext* context, const char* buffer, size_t length) {
  27              		.loc 1 266 0
  28              		.cfi_startproc
  29              		@ args = 0, pretend = 0, frame = 0
  30              		@ frame_needed = 0, uses_anonymous_args = 0
  31              	.LVL0:
 267:../src/tensorflow_lite/src/tensorflow/lite/micro/kernels/cmsis_nn/pooling.cpp ****   TFLITE_DCHECK(context->AllocatePersistentBuffer != nullptr);
  32              		.loc 1 267 0
  33 0000 383090E5 		ldr	r3, [r0, #56]
  34 0004 000053E3 		cmp	r3, #0
  35 0008 0100000A 		beq	.L7
 268:../src/tensorflow_lite/src/tensorflow/lite/micro/kernels/cmsis_nn/pooling.cpp ****   return context->AllocatePersistentBuffer(context, sizeof(OpData));
  36              		.loc 1 268 0
  37 000c 2410A0E3 		mov	r1, #36
  38              	.LVL1:
  39 0010 13FF2FE1 		bx	r3
  40              	.LVL2:
  41              	.L7:
 266:../src/tensorflow_lite/src/tensorflow/lite/micro/kernels/cmsis_nn/pooling.cpp ****   TFLITE_DCHECK(context->AllocatePersistentBuffer != nullptr);
  42              		.loc 1 266 0 discriminator 1
  43 0014 10402DE9 		push	{r4, lr}
  44              		.save {r4, lr}
  45              		.cfi_def_cfa_offset 8
  46              		.cfi_offset 4, -8
  47              		.cfi_offset 14, -4
 267:../src/tensorflow_lite/src/tensorflow/lite/micro/kernels/cmsis_nn/pooling.cpp ****   TFLITE_DCHECK(context->AllocatePersistentBuffer != nullptr);
  48              		.loc 1 267 0 discriminator 1
  49 0018 FEFFFFEB 		bl	abort
  50              	.LVL3:
  51              		.cfi_endproc
  52              	.LFE5919:
  53              		.fnend
  55              		.global	__aeabi_idiv
  56              		.section	.text._ZN6tflite3ops5micro7pooling10MaxPrepareEP13TfLiteContextP10TfLiteNode,"ax",%progbi
  57              		.align	2
  58              		.global	_ZN6tflite3ops5micro7pooling10MaxPrepareEP13TfLiteContextP10TfLiteNode
  59              		.syntax unified
  60              		.arm
  61              		.fpu neon
  63              	_ZN6tflite3ops5micro7pooling10MaxPrepareEP13TfLiteContextP10TfLiteNode:
  64              		.fnstart
  65              	.LFB5920:
 269:../src/tensorflow_lite/src/tensorflow/lite/micro/kernels/cmsis_nn/pooling.cpp **** }
 270:../src/tensorflow_lite/src/tensorflow/lite/micro/kernels/cmsis_nn/pooling.cpp **** 
 271:../src/tensorflow_lite/src/tensorflow/lite/micro/kernels/cmsis_nn/pooling.cpp **** TfLiteStatus MaxPrepare(TfLiteContext* context, TfLiteNode* node) {
  66              		.loc 1 271 0
  67              		.cfi_startproc
  68              		@ args = 0, pretend = 0, frame = 16
  69              		@ frame_needed = 0, uses_anonymous_args = 0
  70              	.LVL4:
  71 0000 F04F2DE9 		push	{r4, r5, r6, r7, r8, r9, r10, fp, lr}
  72              		.save {r4, r5, r6, r7, r8, r9, r10, fp, lr}
  73              		.cfi_def_cfa_offset 36
  74              		.cfi_offset 4, -36
  75              		.cfi_offset 5, -32
  76              		.cfi_offset 6, -28
  77              		.cfi_offset 7, -24
  78              		.cfi_offset 8, -20
  79              		.cfi_offset 9, -16
  80              		.cfi_offset 10, -12
  81              		.cfi_offset 11, -8
  82              		.cfi_offset 14, -4
  83              		.pad #28
  84 0004 1CD04DE2 		sub	sp, sp, #28
  85              		.cfi_def_cfa_offset 64
 272:../src/tensorflow_lite/src/tensorflow/lite/micro/kernels/cmsis_nn/pooling.cpp ****   TFLITE_DCHECK(node->user_data != nullptr);
  86              		.loc 1 272 0
  87 0008 106091E5 		ldr	r6, [r1, #16]
  88 000c 000056E3 		cmp	r6, #0
  89 0010 6B00000A 		beq	.L10
 273:../src/tensorflow_lite/src/tensorflow/lite/micro/kernels/cmsis_nn/pooling.cpp ****   TFLITE_DCHECK(node->builtin_data != nullptr);
  90              		.loc 1 273 0
  91 0014 147091E5 		ldr	r7, [r1, #20]
  92 0018 0140A0E1 		mov	r4, r1
  93 001c 000057E3 		cmp	r7, #0
  94 0020 6700000A 		beq	.L10
  95              	.LVL5:
 274:../src/tensorflow_lite/src/tensorflow/lite/micro/kernels/cmsis_nn/pooling.cpp **** 
 275:../src/tensorflow_lite/src/tensorflow/lite/micro/kernels/cmsis_nn/pooling.cpp ****   OpData* data = static_cast<OpData*>(node->user_data);
 276:../src/tensorflow_lite/src/tensorflow/lite/micro/kernels/cmsis_nn/pooling.cpp ****   auto* params = reinterpret_cast<TfLitePoolParams*>(node->builtin_data);
 277:../src/tensorflow_lite/src/tensorflow/lite/micro/kernels/cmsis_nn/pooling.cpp **** 
 278:../src/tensorflow_lite/src/tensorflow/lite/micro/kernels/cmsis_nn/pooling.cpp ****   const TfLiteTensor* input = GetInput(context, node, kInputTensor);
  96              		.loc 1 278 0
  97 0024 0020A0E3 		mov	r2, #0
  98 0028 0080A0E1 		mov	r8, r0
  99 002c FEFFFFEB 		bl	_ZN6tflite8GetInputEPK13TfLiteContextPK10TfLiteNodei
 100              	.LVL6:
 279:../src/tensorflow_lite/src/tensorflow/lite/micro/kernels/cmsis_nn/pooling.cpp ****   TF_LITE_ENSURE(context, input != nullptr);
 101              		.loc 1 279 0
 102 0030 009050E2 		subs	r9, r0, #0
 103 0034 8200000A 		beq	.L41
 280:../src/tensorflow_lite/src/tensorflow/lite/micro/kernels/cmsis_nn/pooling.cpp ****   TfLiteTensor* output = GetOutput(context, node, kOutputTensor);
 104              		.loc 1 280 0
 105 0038 0410A0E1 		mov	r1, r4
 106 003c 0020A0E3 		mov	r2, #0
 107 0040 0800A0E1 		mov	r0, r8
 108              	.LVL7:
 109 0044 FEFFFFEB 		bl	_ZN6tflite9GetOutputEP13TfLiteContextPK10TfLiteNodei
 110              	.LVL8:
 281:../src/tensorflow_lite/src/tensorflow/lite/micro/kernels/cmsis_nn/pooling.cpp ****   TF_LITE_ENSURE(context, output != nullptr);
 111              		.loc 1 281 0
 112 0048 003050E2 		subs	r3, r0, #0
 113 004c 0C308DE5 		str	r3, [sp, #12]
 114 0050 8900000A 		beq	.L42
 115              	.LVL9:
 116              	.LBB400:
 117              	.LBB401:
 118              	.LBB402:
  58:../src/tensorflow_lite/src/tensorflow/lite/micro/kernels/cmsis_nn/pooling.cpp ****       /*dilation_rate_height=*/1,
 119              		.loc 1 58 0
 120 0054 045097E5 		ldr	r5, [r7, #4]
 121 0058 083099E5 		ldr	r3, [r9, #8]
 122              	.LVL10:
  61:../src/tensorflow_lite/src/tensorflow/lite/micro/kernels/cmsis_nn/pooling.cpp **** 
 123              		.loc 1 61 0
 124 005c 0C1097E5 		ldr	r1, [r7, #12]
 125              	.LBB403:
 126              	.LBB404:
 127              	.LBB405:
 128              	.LBB406:
 129              		.file 2 "C:/Renesas/e2studio_2021_01_workspace_RZA2M_ANPR/ANPR_RZA2M_RDK/src/tensorflow_lite/src/t
   1:C:/Renesas/e2studio_2021_01_workspace_RZA2M_ANPR/ANPR_RZA2M_RDK/src/tensorflow_lite/src/tensorflow/lite/kernels\padding.h **** /* Copyright 2017 The TensorFlow Authors. All Rights Reserved.
   2:C:/Renesas/e2studio_2021_01_workspace_RZA2M_ANPR/ANPR_RZA2M_RDK/src/tensorflow_lite/src/tensorflow/lite/kernels\padding.h **** 
   3:C:/Renesas/e2studio_2021_01_workspace_RZA2M_ANPR/ANPR_RZA2M_RDK/src/tensorflow_lite/src/tensorflow/lite/kernels\padding.h **** Licensed under the Apache License, Version 2.0 (the "License");
   4:C:/Renesas/e2studio_2021_01_workspace_RZA2M_ANPR/ANPR_RZA2M_RDK/src/tensorflow_lite/src/tensorflow/lite/kernels\padding.h **** you may not use this file except in compliance with the License.
   5:C:/Renesas/e2studio_2021_01_workspace_RZA2M_ANPR/ANPR_RZA2M_RDK/src/tensorflow_lite/src/tensorflow/lite/kernels\padding.h **** You may obtain a copy of the License at
   6:C:/Renesas/e2studio_2021_01_workspace_RZA2M_ANPR/ANPR_RZA2M_RDK/src/tensorflow_lite/src/tensorflow/lite/kernels\padding.h **** 
   7:C:/Renesas/e2studio_2021_01_workspace_RZA2M_ANPR/ANPR_RZA2M_RDK/src/tensorflow_lite/src/tensorflow/lite/kernels\padding.h ****     http://www.apache.org/licenses/LICENSE-2.0
   8:C:/Renesas/e2studio_2021_01_workspace_RZA2M_ANPR/ANPR_RZA2M_RDK/src/tensorflow_lite/src/tensorflow/lite/kernels\padding.h **** 
   9:C:/Renesas/e2studio_2021_01_workspace_RZA2M_ANPR/ANPR_RZA2M_RDK/src/tensorflow_lite/src/tensorflow/lite/kernels\padding.h **** Unless required by applicable law or agreed to in writing, software
  10:C:/Renesas/e2studio_2021_01_workspace_RZA2M_ANPR/ANPR_RZA2M_RDK/src/tensorflow_lite/src/tensorflow/lite/kernels\padding.h **** distributed under the License is distributed on an "AS IS" BASIS,
  11:C:/Renesas/e2studio_2021_01_workspace_RZA2M_ANPR/ANPR_RZA2M_RDK/src/tensorflow_lite/src/tensorflow/lite/kernels\padding.h **** WITHOUT WARRANTIES OR CONDITIONS OF ANY KIND, either express or implied.
  12:C:/Renesas/e2studio_2021_01_workspace_RZA2M_ANPR/ANPR_RZA2M_RDK/src/tensorflow_lite/src/tensorflow/lite/kernels\padding.h **** See the License for the specific language governing permissions and
  13:C:/Renesas/e2studio_2021_01_workspace_RZA2M_ANPR/ANPR_RZA2M_RDK/src/tensorflow_lite/src/tensorflow/lite/kernels\padding.h **** limitations under the License.
  14:C:/Renesas/e2studio_2021_01_workspace_RZA2M_ANPR/ANPR_RZA2M_RDK/src/tensorflow_lite/src/tensorflow/lite/kernels\padding.h **** ==============================================================================*/
  15:C:/Renesas/e2studio_2021_01_workspace_RZA2M_ANPR/ANPR_RZA2M_RDK/src/tensorflow_lite/src/tensorflow/lite/kernels\padding.h **** #ifndef TENSORFLOW_LITE_KERNELS_PADDING_H_
  16:C:/Renesas/e2studio_2021_01_workspace_RZA2M_ANPR/ANPR_RZA2M_RDK/src/tensorflow_lite/src/tensorflow/lite/kernels\padding.h **** #define TENSORFLOW_LITE_KERNELS_PADDING_H_
  17:C:/Renesas/e2studio_2021_01_workspace_RZA2M_ANPR/ANPR_RZA2M_RDK/src/tensorflow_lite/src/tensorflow/lite/kernels\padding.h **** 
  18:C:/Renesas/e2studio_2021_01_workspace_RZA2M_ANPR/ANPR_RZA2M_RDK/src/tensorflow_lite/src/tensorflow/lite/kernels\padding.h **** #include "tensorflow/lite/c/builtin_op_data.h"
  19:C:/Renesas/e2studio_2021_01_workspace_RZA2M_ANPR/ANPR_RZA2M_RDK/src/tensorflow_lite/src/tensorflow/lite/kernels\padding.h **** #include "tensorflow/lite/kernels/internal/types.h"
  20:C:/Renesas/e2studio_2021_01_workspace_RZA2M_ANPR/ANPR_RZA2M_RDK/src/tensorflow_lite/src/tensorflow/lite/kernels\padding.h **** 
  21:C:/Renesas/e2studio_2021_01_workspace_RZA2M_ANPR/ANPR_RZA2M_RDK/src/tensorflow_lite/src/tensorflow/lite/kernels\padding.h **** namespace tflite {
  22:C:/Renesas/e2studio_2021_01_workspace_RZA2M_ANPR/ANPR_RZA2M_RDK/src/tensorflow_lite/src/tensorflow/lite/kernels\padding.h **** 
  23:C:/Renesas/e2studio_2021_01_workspace_RZA2M_ANPR/ANPR_RZA2M_RDK/src/tensorflow_lite/src/tensorflow/lite/kernels\padding.h **** inline int ComputePadding(int stride, int dilation_rate, int in_size,
  24:C:/Renesas/e2studio_2021_01_workspace_RZA2M_ANPR/ANPR_RZA2M_RDK/src/tensorflow_lite/src/tensorflow/lite/kernels\padding.h ****                           int filter_size, int out_size) {
  25:C:/Renesas/e2studio_2021_01_workspace_RZA2M_ANPR/ANPR_RZA2M_RDK/src/tensorflow_lite/src/tensorflow/lite/kernels\padding.h ****   int effective_filter_size = (filter_size - 1) * dilation_rate + 1;
  26:C:/Renesas/e2studio_2021_01_workspace_RZA2M_ANPR/ANPR_RZA2M_RDK/src/tensorflow_lite/src/tensorflow/lite/kernels\padding.h ****   int padding = ((out_size - 1) * stride + effective_filter_size - in_size) / 2;
  27:C:/Renesas/e2studio_2021_01_workspace_RZA2M_ANPR/ANPR_RZA2M_RDK/src/tensorflow_lite/src/tensorflow/lite/kernels\padding.h ****   return padding > 0 ? padding : 0;
  28:C:/Renesas/e2studio_2021_01_workspace_RZA2M_ANPR/ANPR_RZA2M_RDK/src/tensorflow_lite/src/tensorflow/lite/kernels\padding.h **** }
  29:C:/Renesas/e2studio_2021_01_workspace_RZA2M_ANPR/ANPR_RZA2M_RDK/src/tensorflow_lite/src/tensorflow/lite/kernels\padding.h **** 
  30:C:/Renesas/e2studio_2021_01_workspace_RZA2M_ANPR/ANPR_RZA2M_RDK/src/tensorflow_lite/src/tensorflow/lite/kernels\padding.h **** // It's not guaranteed that padding is symmetric. It's important to keep
  31:C:/Renesas/e2studio_2021_01_workspace_RZA2M_ANPR/ANPR_RZA2M_RDK/src/tensorflow_lite/src/tensorflow/lite/kernels\padding.h **** // offset for algorithms need all paddings.
  32:C:/Renesas/e2studio_2021_01_workspace_RZA2M_ANPR/ANPR_RZA2M_RDK/src/tensorflow_lite/src/tensorflow/lite/kernels\padding.h **** inline int ComputePaddingWithOffset(int stride, int dilation_rate, int in_size,
  33:C:/Renesas/e2studio_2021_01_workspace_RZA2M_ANPR/ANPR_RZA2M_RDK/src/tensorflow_lite/src/tensorflow/lite/kernels\padding.h ****                                     int filter_size, int out_size,
  34:C:/Renesas/e2studio_2021_01_workspace_RZA2M_ANPR/ANPR_RZA2M_RDK/src/tensorflow_lite/src/tensorflow/lite/kernels\padding.h ****                                     int* offset) {
  35:C:/Renesas/e2studio_2021_01_workspace_RZA2M_ANPR/ANPR_RZA2M_RDK/src/tensorflow_lite/src/tensorflow/lite/kernels\padding.h ****   int effective_filter_size = (filter_size - 1) * dilation_rate + 1;
  36:C:/Renesas/e2studio_2021_01_workspace_RZA2M_ANPR/ANPR_RZA2M_RDK/src/tensorflow_lite/src/tensorflow/lite/kernels\padding.h ****   int total_padding =
  37:C:/Renesas/e2studio_2021_01_workspace_RZA2M_ANPR/ANPR_RZA2M_RDK/src/tensorflow_lite/src/tensorflow/lite/kernels\padding.h ****       ((out_size - 1) * stride + effective_filter_size - in_size);
  38:C:/Renesas/e2studio_2021_01_workspace_RZA2M_ANPR/ANPR_RZA2M_RDK/src/tensorflow_lite/src/tensorflow/lite/kernels\padding.h ****   total_padding = total_padding > 0 ? total_padding : 0;
  39:C:/Renesas/e2studio_2021_01_workspace_RZA2M_ANPR/ANPR_RZA2M_RDK/src/tensorflow_lite/src/tensorflow/lite/kernels\padding.h ****   *offset = total_padding % 2;
  40:C:/Renesas/e2studio_2021_01_workspace_RZA2M_ANPR/ANPR_RZA2M_RDK/src/tensorflow_lite/src/tensorflow/lite/kernels\padding.h ****   return total_padding / 2;
  41:C:/Renesas/e2studio_2021_01_workspace_RZA2M_ANPR/ANPR_RZA2M_RDK/src/tensorflow_lite/src/tensorflow/lite/kernels\padding.h **** }
  42:C:/Renesas/e2studio_2021_01_workspace_RZA2M_ANPR/ANPR_RZA2M_RDK/src/tensorflow_lite/src/tensorflow/lite/kernels\padding.h **** 
  43:C:/Renesas/e2studio_2021_01_workspace_RZA2M_ANPR/ANPR_RZA2M_RDK/src/tensorflow_lite/src/tensorflow/lite/kernels\padding.h **** // Matching GetWindowedOutputSize in TensorFlow.
  44:C:/Renesas/e2studio_2021_01_workspace_RZA2M_ANPR/ANPR_RZA2M_RDK/src/tensorflow_lite/src/tensorflow/lite/kernels\padding.h **** inline int ComputeOutSize(TfLitePadding padding, int image_size,
  45:C:/Renesas/e2studio_2021_01_workspace_RZA2M_ANPR/ANPR_RZA2M_RDK/src/tensorflow_lite/src/tensorflow/lite/kernels\padding.h ****                           int filter_size, int stride, int dilation_rate = 1) {
  46:C:/Renesas/e2studio_2021_01_workspace_RZA2M_ANPR/ANPR_RZA2M_RDK/src/tensorflow_lite/src/tensorflow/lite/kernels\padding.h ****   int effective_filter_size = (filter_size - 1) * dilation_rate + 1;
  47:C:/Renesas/e2studio_2021_01_workspace_RZA2M_ANPR/ANPR_RZA2M_RDK/src/tensorflow_lite/src/tensorflow/lite/kernels\padding.h **** 
  48:C:/Renesas/e2studio_2021_01_workspace_RZA2M_ANPR/ANPR_RZA2M_RDK/src/tensorflow_lite/src/tensorflow/lite/kernels\padding.h ****   // TODO(b/186448822): This uses 0 since the function has no other way to
  49:C:/Renesas/e2studio_2021_01_workspace_RZA2M_ANPR/ANPR_RZA2M_RDK/src/tensorflow_lite/src/tensorflow/lite/kernels\padding.h ****   // report error case
  50:C:/Renesas/e2studio_2021_01_workspace_RZA2M_ANPR/ANPR_RZA2M_RDK/src/tensorflow_lite/src/tensorflow/lite/kernels\padding.h ****   if (stride == 0) return 0;
 130              		.loc 2 50 0
 131 0060 000055E3 		cmp	r5, #0
 132              	.LBE406:
 133              	.LBE405:
 134              	.LBE404:
 135              	.LBE403:
  58:../src/tensorflow_lite/src/tensorflow/lite/micro/kernels/cmsis_nn/pooling.cpp ****       /*dilation_rate_height=*/1,
 136              		.loc 1 58 0
 137 0064 084097E5 		ldr	r4, [r7, #8]
 138              	.LVL11:
 139              	.LBB445:
 140              	.LBB446:
 141              		.file 3 "C:/Renesas/e2studio_2021_01_workspace_RZA2M_ANPR/ANPR_RZA2M_RDK/src/tensorflow_lite/src/t
   1:C:/Renesas/e2studio_2021_01_workspace_RZA2M_ANPR/ANPR_RZA2M_RDK/src/tensorflow_lite/src/tensorflow/lite/kernels\kernel_util.h **** /* Copyright 2017 The TensorFlow Authors. All Rights Reserved.
   2:C:/Renesas/e2studio_2021_01_workspace_RZA2M_ANPR/ANPR_RZA2M_RDK/src/tensorflow_lite/src/tensorflow/lite/kernels\kernel_util.h **** 
   3:C:/Renesas/e2studio_2021_01_workspace_RZA2M_ANPR/ANPR_RZA2M_RDK/src/tensorflow_lite/src/tensorflow/lite/kernels\kernel_util.h **** Licensed under the Apache License, Version 2.0 (the "License");
   4:C:/Renesas/e2studio_2021_01_workspace_RZA2M_ANPR/ANPR_RZA2M_RDK/src/tensorflow_lite/src/tensorflow/lite/kernels\kernel_util.h **** you may not use this file except in compliance with the License.
   5:C:/Renesas/e2studio_2021_01_workspace_RZA2M_ANPR/ANPR_RZA2M_RDK/src/tensorflow_lite/src/tensorflow/lite/kernels\kernel_util.h **** You may obtain a copy of the License at
   6:C:/Renesas/e2studio_2021_01_workspace_RZA2M_ANPR/ANPR_RZA2M_RDK/src/tensorflow_lite/src/tensorflow/lite/kernels\kernel_util.h **** 
   7:C:/Renesas/e2studio_2021_01_workspace_RZA2M_ANPR/ANPR_RZA2M_RDK/src/tensorflow_lite/src/tensorflow/lite/kernels\kernel_util.h ****     http://www.apache.org/licenses/LICENSE-2.0
   8:C:/Renesas/e2studio_2021_01_workspace_RZA2M_ANPR/ANPR_RZA2M_RDK/src/tensorflow_lite/src/tensorflow/lite/kernels\kernel_util.h **** 
   9:C:/Renesas/e2studio_2021_01_workspace_RZA2M_ANPR/ANPR_RZA2M_RDK/src/tensorflow_lite/src/tensorflow/lite/kernels\kernel_util.h **** Unless required by applicable law or agreed to in writing, software
  10:C:/Renesas/e2studio_2021_01_workspace_RZA2M_ANPR/ANPR_RZA2M_RDK/src/tensorflow_lite/src/tensorflow/lite/kernels\kernel_util.h **** distributed under the License is distributed on an "AS IS" BASIS,
  11:C:/Renesas/e2studio_2021_01_workspace_RZA2M_ANPR/ANPR_RZA2M_RDK/src/tensorflow_lite/src/tensorflow/lite/kernels\kernel_util.h **** WITHOUT WARRANTIES OR CONDITIONS OF ANY KIND, either express or implied.
  12:C:/Renesas/e2studio_2021_01_workspace_RZA2M_ANPR/ANPR_RZA2M_RDK/src/tensorflow_lite/src/tensorflow/lite/kernels\kernel_util.h **** See the License for the specific language governing permissions and
  13:C:/Renesas/e2studio_2021_01_workspace_RZA2M_ANPR/ANPR_RZA2M_RDK/src/tensorflow_lite/src/tensorflow/lite/kernels\kernel_util.h **** limitations under the License.
  14:C:/Renesas/e2studio_2021_01_workspace_RZA2M_ANPR/ANPR_RZA2M_RDK/src/tensorflow_lite/src/tensorflow/lite/kernels\kernel_util.h **** ==============================================================================*/
  15:C:/Renesas/e2studio_2021_01_workspace_RZA2M_ANPR/ANPR_RZA2M_RDK/src/tensorflow_lite/src/tensorflow/lite/kernels\kernel_util.h **** #ifndef TENSORFLOW_LITE_KERNELS_KERNEL_UTIL_H_
  16:C:/Renesas/e2studio_2021_01_workspace_RZA2M_ANPR/ANPR_RZA2M_RDK/src/tensorflow_lite/src/tensorflow/lite/kernels\kernel_util.h **** #define TENSORFLOW_LITE_KERNELS_KERNEL_UTIL_H_
  17:C:/Renesas/e2studio_2021_01_workspace_RZA2M_ANPR/ANPR_RZA2M_RDK/src/tensorflow_lite/src/tensorflow/lite/kernels\kernel_util.h **** 
  18:C:/Renesas/e2studio_2021_01_workspace_RZA2M_ANPR/ANPR_RZA2M_RDK/src/tensorflow_lite/src/tensorflow/lite/kernels\kernel_util.h **** #include <stdint.h>
  19:C:/Renesas/e2studio_2021_01_workspace_RZA2M_ANPR/ANPR_RZA2M_RDK/src/tensorflow_lite/src/tensorflow/lite/kernels\kernel_util.h **** 
  20:C:/Renesas/e2studio_2021_01_workspace_RZA2M_ANPR/ANPR_RZA2M_RDK/src/tensorflow_lite/src/tensorflow/lite/kernels\kernel_util.h **** #include <limits>
  21:C:/Renesas/e2studio_2021_01_workspace_RZA2M_ANPR/ANPR_RZA2M_RDK/src/tensorflow_lite/src/tensorflow/lite/kernels\kernel_util.h **** 
  22:C:/Renesas/e2studio_2021_01_workspace_RZA2M_ANPR/ANPR_RZA2M_RDK/src/tensorflow_lite/src/tensorflow/lite/kernels\kernel_util.h **** #include "tensorflow/lite/c/builtin_op_data.h"
  23:C:/Renesas/e2studio_2021_01_workspace_RZA2M_ANPR/ANPR_RZA2M_RDK/src/tensorflow_lite/src/tensorflow/lite/kernels\kernel_util.h **** #include "tensorflow/lite/c/common.h"
  24:C:/Renesas/e2studio_2021_01_workspace_RZA2M_ANPR/ANPR_RZA2M_RDK/src/tensorflow_lite/src/tensorflow/lite/kernels\kernel_util.h **** 
  25:C:/Renesas/e2studio_2021_01_workspace_RZA2M_ANPR/ANPR_RZA2M_RDK/src/tensorflow_lite/src/tensorflow/lite/kernels\kernel_util.h **** namespace tflite {
  26:C:/Renesas/e2studio_2021_01_workspace_RZA2M_ANPR/ANPR_RZA2M_RDK/src/tensorflow_lite/src/tensorflow/lite/kernels\kernel_util.h **** 
  27:C:/Renesas/e2studio_2021_01_workspace_RZA2M_ANPR/ANPR_RZA2M_RDK/src/tensorflow_lite/src/tensorflow/lite/kernels\kernel_util.h **** // A fair number of functions in this header have historically been inline.
  28:C:/Renesas/e2studio_2021_01_workspace_RZA2M_ANPR/ANPR_RZA2M_RDK/src/tensorflow_lite/src/tensorflow/lite/kernels\kernel_util.h **** // It is ok to change functions to not be inline if the latency with
  29:C:/Renesas/e2studio_2021_01_workspace_RZA2M_ANPR/ANPR_RZA2M_RDK/src/tensorflow_lite/src/tensorflow/lite/kernels\kernel_util.h **** // benchmark_model for MobileNet + MobileBERT is unaffected. If such a change is
  30:C:/Renesas/e2studio_2021_01_workspace_RZA2M_ANPR/ANPR_RZA2M_RDK/src/tensorflow_lite/src/tensorflow/lite/kernels\kernel_util.h **** // made, move the newly non-inlined function declarations to the top of this
  31:C:/Renesas/e2studio_2021_01_workspace_RZA2M_ANPR/ANPR_RZA2M_RDK/src/tensorflow_lite/src/tensorflow/lite/kernels\kernel_util.h **** // header file.
  32:C:/Renesas/e2studio_2021_01_workspace_RZA2M_ANPR/ANPR_RZA2M_RDK/src/tensorflow_lite/src/tensorflow/lite/kernels\kernel_util.h **** 
  33:C:/Renesas/e2studio_2021_01_workspace_RZA2M_ANPR/ANPR_RZA2M_RDK/src/tensorflow_lite/src/tensorflow/lite/kernels\kernel_util.h **** // Note: You must check if result is not null:
  34:C:/Renesas/e2studio_2021_01_workspace_RZA2M_ANPR/ANPR_RZA2M_RDK/src/tensorflow_lite/src/tensorflow/lite/kernels\kernel_util.h **** //
  35:C:/Renesas/e2studio_2021_01_workspace_RZA2M_ANPR/ANPR_RZA2M_RDK/src/tensorflow_lite/src/tensorflow/lite/kernels\kernel_util.h **** //   TfLiteTensor* my_tensor = GetInput(context, node, kMyTensorIdx);
  36:C:/Renesas/e2studio_2021_01_workspace_RZA2M_ANPR/ANPR_RZA2M_RDK/src/tensorflow_lite/src/tensorflow/lite/kernels\kernel_util.h **** //   TF_LITE_ENSURE(context, my_tensor != nullptr);
  37:C:/Renesas/e2studio_2021_01_workspace_RZA2M_ANPR/ANPR_RZA2M_RDK/src/tensorflow_lite/src/tensorflow/lite/kernels\kernel_util.h **** //
  38:C:/Renesas/e2studio_2021_01_workspace_RZA2M_ANPR/ANPR_RZA2M_RDK/src/tensorflow_lite/src/tensorflow/lite/kernels\kernel_util.h **** // This is because the index might point to the optional tensor constant
  39:C:/Renesas/e2studio_2021_01_workspace_RZA2M_ANPR/ANPR_RZA2M_RDK/src/tensorflow_lite/src/tensorflow/lite/kernels\kernel_util.h **** // (kTfLiteOptionalTensor) in which case there is no tensor to return.
  40:C:/Renesas/e2studio_2021_01_workspace_RZA2M_ANPR/ANPR_RZA2M_RDK/src/tensorflow_lite/src/tensorflow/lite/kernels\kernel_util.h **** const TfLiteTensor* GetInput(const TfLiteContext* context,
  41:C:/Renesas/e2studio_2021_01_workspace_RZA2M_ANPR/ANPR_RZA2M_RDK/src/tensorflow_lite/src/tensorflow/lite/kernels\kernel_util.h ****                              const TfLiteNode* node, int index);
  42:C:/Renesas/e2studio_2021_01_workspace_RZA2M_ANPR/ANPR_RZA2M_RDK/src/tensorflow_lite/src/tensorflow/lite/kernels\kernel_util.h **** 
  43:C:/Renesas/e2studio_2021_01_workspace_RZA2M_ANPR/ANPR_RZA2M_RDK/src/tensorflow_lite/src/tensorflow/lite/kernels\kernel_util.h **** // Same as `GetInput` but returns boolean and uses output argument for tensor.
  44:C:/Renesas/e2studio_2021_01_workspace_RZA2M_ANPR/ANPR_RZA2M_RDK/src/tensorflow_lite/src/tensorflow/lite/kernels\kernel_util.h **** //
  45:C:/Renesas/e2studio_2021_01_workspace_RZA2M_ANPR/ANPR_RZA2M_RDK/src/tensorflow_lite/src/tensorflow/lite/kernels\kernel_util.h **** //   TfLiteTensor* my_tensor;
  46:C:/Renesas/e2studio_2021_01_workspace_RZA2M_ANPR/ANPR_RZA2M_RDK/src/tensorflow_lite/src/tensorflow/lite/kernels\kernel_util.h **** //   TF_LITE_ENSURE_OK(context,
  47:C:/Renesas/e2studio_2021_01_workspace_RZA2M_ANPR/ANPR_RZA2M_RDK/src/tensorflow_lite/src/tensorflow/lite/kernels\kernel_util.h **** //                     GetInputSafe(context, node, kMyTensorIdx, &my_tensor));
  48:C:/Renesas/e2studio_2021_01_workspace_RZA2M_ANPR/ANPR_RZA2M_RDK/src/tensorflow_lite/src/tensorflow/lite/kernels\kernel_util.h **** //   // can use my_tensor directly from here onwards, it is not nullptr
  49:C:/Renesas/e2studio_2021_01_workspace_RZA2M_ANPR/ANPR_RZA2M_RDK/src/tensorflow_lite/src/tensorflow/lite/kernels\kernel_util.h **** //
  50:C:/Renesas/e2studio_2021_01_workspace_RZA2M_ANPR/ANPR_RZA2M_RDK/src/tensorflow_lite/src/tensorflow/lite/kernels\kernel_util.h **** // Should be used in cases where the binary size is too large.
  51:C:/Renesas/e2studio_2021_01_workspace_RZA2M_ANPR/ANPR_RZA2M_RDK/src/tensorflow_lite/src/tensorflow/lite/kernels\kernel_util.h **** TfLiteStatus GetInputSafe(const TfLiteContext* context, const TfLiteNode* node,
  52:C:/Renesas/e2studio_2021_01_workspace_RZA2M_ANPR/ANPR_RZA2M_RDK/src/tensorflow_lite/src/tensorflow/lite/kernels\kernel_util.h ****                           int index, const TfLiteTensor** tensor);
  53:C:/Renesas/e2studio_2021_01_workspace_RZA2M_ANPR/ANPR_RZA2M_RDK/src/tensorflow_lite/src/tensorflow/lite/kernels\kernel_util.h **** 
  54:C:/Renesas/e2studio_2021_01_workspace_RZA2M_ANPR/ANPR_RZA2M_RDK/src/tensorflow_lite/src/tensorflow/lite/kernels\kernel_util.h **** // Note: You must check if result is not null:
  55:C:/Renesas/e2studio_2021_01_workspace_RZA2M_ANPR/ANPR_RZA2M_RDK/src/tensorflow_lite/src/tensorflow/lite/kernels\kernel_util.h **** //
  56:C:/Renesas/e2studio_2021_01_workspace_RZA2M_ANPR/ANPR_RZA2M_RDK/src/tensorflow_lite/src/tensorflow/lite/kernels\kernel_util.h **** //   TfLiteTensor* my_tensor = GetVariableInput(context, node, kMyTensorIdx);
  57:C:/Renesas/e2studio_2021_01_workspace_RZA2M_ANPR/ANPR_RZA2M_RDK/src/tensorflow_lite/src/tensorflow/lite/kernels\kernel_util.h **** //   TF_LITE_ENSURE(context, my_tensor != nullptr);
  58:C:/Renesas/e2studio_2021_01_workspace_RZA2M_ANPR/ANPR_RZA2M_RDK/src/tensorflow_lite/src/tensorflow/lite/kernels\kernel_util.h **** //
  59:C:/Renesas/e2studio_2021_01_workspace_RZA2M_ANPR/ANPR_RZA2M_RDK/src/tensorflow_lite/src/tensorflow/lite/kernels\kernel_util.h **** // This is because the index might point to the optional tensor constant
  60:C:/Renesas/e2studio_2021_01_workspace_RZA2M_ANPR/ANPR_RZA2M_RDK/src/tensorflow_lite/src/tensorflow/lite/kernels\kernel_util.h **** // (kTfLiteOptionalTensor) in which case there is no tensor to return.
  61:C:/Renesas/e2studio_2021_01_workspace_RZA2M_ANPR/ANPR_RZA2M_RDK/src/tensorflow_lite/src/tensorflow/lite/kernels\kernel_util.h **** TfLiteTensor* GetVariableInput(TfLiteContext* context, const TfLiteNode* node,
  62:C:/Renesas/e2studio_2021_01_workspace_RZA2M_ANPR/ANPR_RZA2M_RDK/src/tensorflow_lite/src/tensorflow/lite/kernels\kernel_util.h ****                                int index);
  63:C:/Renesas/e2studio_2021_01_workspace_RZA2M_ANPR/ANPR_RZA2M_RDK/src/tensorflow_lite/src/tensorflow/lite/kernels\kernel_util.h **** 
  64:C:/Renesas/e2studio_2021_01_workspace_RZA2M_ANPR/ANPR_RZA2M_RDK/src/tensorflow_lite/src/tensorflow/lite/kernels\kernel_util.h **** // Note: You must check if result is not null:
  65:C:/Renesas/e2studio_2021_01_workspace_RZA2M_ANPR/ANPR_RZA2M_RDK/src/tensorflow_lite/src/tensorflow/lite/kernels\kernel_util.h **** //
  66:C:/Renesas/e2studio_2021_01_workspace_RZA2M_ANPR/ANPR_RZA2M_RDK/src/tensorflow_lite/src/tensorflow/lite/kernels\kernel_util.h **** //   TfLiteTensor* my_tensor = GetOutput(context, node, kMyTensorIdx);
  67:C:/Renesas/e2studio_2021_01_workspace_RZA2M_ANPR/ANPR_RZA2M_RDK/src/tensorflow_lite/src/tensorflow/lite/kernels\kernel_util.h **** //   TF_LITE_ENSURE(context, my_tensor != nullptr);
  68:C:/Renesas/e2studio_2021_01_workspace_RZA2M_ANPR/ANPR_RZA2M_RDK/src/tensorflow_lite/src/tensorflow/lite/kernels\kernel_util.h **** //
  69:C:/Renesas/e2studio_2021_01_workspace_RZA2M_ANPR/ANPR_RZA2M_RDK/src/tensorflow_lite/src/tensorflow/lite/kernels\kernel_util.h **** // This is because the index might point to the optional tensor constant
  70:C:/Renesas/e2studio_2021_01_workspace_RZA2M_ANPR/ANPR_RZA2M_RDK/src/tensorflow_lite/src/tensorflow/lite/kernels\kernel_util.h **** // (kTfLiteOptionalTensor) in which case there is no tensor to return.
  71:C:/Renesas/e2studio_2021_01_workspace_RZA2M_ANPR/ANPR_RZA2M_RDK/src/tensorflow_lite/src/tensorflow/lite/kernels\kernel_util.h **** TfLiteTensor* GetOutput(TfLiteContext* context, const TfLiteNode* node,
  72:C:/Renesas/e2studio_2021_01_workspace_RZA2M_ANPR/ANPR_RZA2M_RDK/src/tensorflow_lite/src/tensorflow/lite/kernels\kernel_util.h ****                         int index);
  73:C:/Renesas/e2studio_2021_01_workspace_RZA2M_ANPR/ANPR_RZA2M_RDK/src/tensorflow_lite/src/tensorflow/lite/kernels\kernel_util.h **** 
  74:C:/Renesas/e2studio_2021_01_workspace_RZA2M_ANPR/ANPR_RZA2M_RDK/src/tensorflow_lite/src/tensorflow/lite/kernels\kernel_util.h **** // Same as `GetOutput` but returns boolean and uses output argument for tensor.
  75:C:/Renesas/e2studio_2021_01_workspace_RZA2M_ANPR/ANPR_RZA2M_RDK/src/tensorflow_lite/src/tensorflow/lite/kernels\kernel_util.h **** //
  76:C:/Renesas/e2studio_2021_01_workspace_RZA2M_ANPR/ANPR_RZA2M_RDK/src/tensorflow_lite/src/tensorflow/lite/kernels\kernel_util.h **** //   TfLiteTensor* my_tensor;
  77:C:/Renesas/e2studio_2021_01_workspace_RZA2M_ANPR/ANPR_RZA2M_RDK/src/tensorflow_lite/src/tensorflow/lite/kernels\kernel_util.h **** //   TF_LITE_ENSURE_OK(context,
  78:C:/Renesas/e2studio_2021_01_workspace_RZA2M_ANPR/ANPR_RZA2M_RDK/src/tensorflow_lite/src/tensorflow/lite/kernels\kernel_util.h **** //                     GetOutputSafe(context, node, kMyTensorIdx, &my_tensor));
  79:C:/Renesas/e2studio_2021_01_workspace_RZA2M_ANPR/ANPR_RZA2M_RDK/src/tensorflow_lite/src/tensorflow/lite/kernels\kernel_util.h **** //   // can use my_tensor directly from here onwards, it is not nullptr
  80:C:/Renesas/e2studio_2021_01_workspace_RZA2M_ANPR/ANPR_RZA2M_RDK/src/tensorflow_lite/src/tensorflow/lite/kernels\kernel_util.h **** //
  81:C:/Renesas/e2studio_2021_01_workspace_RZA2M_ANPR/ANPR_RZA2M_RDK/src/tensorflow_lite/src/tensorflow/lite/kernels\kernel_util.h **** // Should be used in cases where the binary size is too large.
  82:C:/Renesas/e2studio_2021_01_workspace_RZA2M_ANPR/ANPR_RZA2M_RDK/src/tensorflow_lite/src/tensorflow/lite/kernels\kernel_util.h **** TfLiteStatus GetOutputSafe(const TfLiteContext* context, const TfLiteNode* node,
  83:C:/Renesas/e2studio_2021_01_workspace_RZA2M_ANPR/ANPR_RZA2M_RDK/src/tensorflow_lite/src/tensorflow/lite/kernels\kernel_util.h ****                            int index, TfLiteTensor** tensor);
  84:C:/Renesas/e2studio_2021_01_workspace_RZA2M_ANPR/ANPR_RZA2M_RDK/src/tensorflow_lite/src/tensorflow/lite/kernels\kernel_util.h **** 
  85:C:/Renesas/e2studio_2021_01_workspace_RZA2M_ANPR/ANPR_RZA2M_RDK/src/tensorflow_lite/src/tensorflow/lite/kernels\kernel_util.h **** // Note: You must check if result is not null:
  86:C:/Renesas/e2studio_2021_01_workspace_RZA2M_ANPR/ANPR_RZA2M_RDK/src/tensorflow_lite/src/tensorflow/lite/kernels\kernel_util.h **** //
  87:C:/Renesas/e2studio_2021_01_workspace_RZA2M_ANPR/ANPR_RZA2M_RDK/src/tensorflow_lite/src/tensorflow/lite/kernels\kernel_util.h **** //   TfLiteTensor* my_tensor = GetOptionalInputTensor(context, node, kIdx);
  88:C:/Renesas/e2studio_2021_01_workspace_RZA2M_ANPR/ANPR_RZA2M_RDK/src/tensorflow_lite/src/tensorflow/lite/kernels\kernel_util.h **** //   TF_LITE_ENSURE(context, my_tensor != nullptr);
  89:C:/Renesas/e2studio_2021_01_workspace_RZA2M_ANPR/ANPR_RZA2M_RDK/src/tensorflow_lite/src/tensorflow/lite/kernels\kernel_util.h **** //
  90:C:/Renesas/e2studio_2021_01_workspace_RZA2M_ANPR/ANPR_RZA2M_RDK/src/tensorflow_lite/src/tensorflow/lite/kernels\kernel_util.h **** // This is because the index might point to the optional tensor constant
  91:C:/Renesas/e2studio_2021_01_workspace_RZA2M_ANPR/ANPR_RZA2M_RDK/src/tensorflow_lite/src/tensorflow/lite/kernels\kernel_util.h **** // (kTfLiteOptionalTensor) in which case there is no tensor to return.
  92:C:/Renesas/e2studio_2021_01_workspace_RZA2M_ANPR/ANPR_RZA2M_RDK/src/tensorflow_lite/src/tensorflow/lite/kernels\kernel_util.h **** //
  93:C:/Renesas/e2studio_2021_01_workspace_RZA2M_ANPR/ANPR_RZA2M_RDK/src/tensorflow_lite/src/tensorflow/lite/kernels\kernel_util.h **** // Deprecated. GetInput has the same functionality.
  94:C:/Renesas/e2studio_2021_01_workspace_RZA2M_ANPR/ANPR_RZA2M_RDK/src/tensorflow_lite/src/tensorflow/lite/kernels\kernel_util.h **** const TfLiteTensor* GetOptionalInputTensor(const TfLiteContext* context,
  95:C:/Renesas/e2studio_2021_01_workspace_RZA2M_ANPR/ANPR_RZA2M_RDK/src/tensorflow_lite/src/tensorflow/lite/kernels\kernel_util.h ****                                            const TfLiteNode* node, int index);
  96:C:/Renesas/e2studio_2021_01_workspace_RZA2M_ANPR/ANPR_RZA2M_RDK/src/tensorflow_lite/src/tensorflow/lite/kernels\kernel_util.h **** 
  97:C:/Renesas/e2studio_2021_01_workspace_RZA2M_ANPR/ANPR_RZA2M_RDK/src/tensorflow_lite/src/tensorflow/lite/kernels\kernel_util.h **** #ifndef TF_LITE_STATIC_MEMORY
  98:C:/Renesas/e2studio_2021_01_workspace_RZA2M_ANPR/ANPR_RZA2M_RDK/src/tensorflow_lite/src/tensorflow/lite/kernels\kernel_util.h **** // Note: You must check if result is not null:
  99:C:/Renesas/e2studio_2021_01_workspace_RZA2M_ANPR/ANPR_RZA2M_RDK/src/tensorflow_lite/src/tensorflow/lite/kernels\kernel_util.h **** //
 100:C:/Renesas/e2studio_2021_01_workspace_RZA2M_ANPR/ANPR_RZA2M_RDK/src/tensorflow_lite/src/tensorflow/lite/kernels\kernel_util.h **** //   TfLiteTensor* my_tensor = GetTemporary(context, node, kMyTensorIdx);
 101:C:/Renesas/e2studio_2021_01_workspace_RZA2M_ANPR/ANPR_RZA2M_RDK/src/tensorflow_lite/src/tensorflow/lite/kernels\kernel_util.h **** //   TF_LITE_ENSURE(context, my_tensor != nullptr);
 102:C:/Renesas/e2studio_2021_01_workspace_RZA2M_ANPR/ANPR_RZA2M_RDK/src/tensorflow_lite/src/tensorflow/lite/kernels\kernel_util.h **** //
 103:C:/Renesas/e2studio_2021_01_workspace_RZA2M_ANPR/ANPR_RZA2M_RDK/src/tensorflow_lite/src/tensorflow/lite/kernels\kernel_util.h **** // This is because the index might point to the optional tensor constant
 104:C:/Renesas/e2studio_2021_01_workspace_RZA2M_ANPR/ANPR_RZA2M_RDK/src/tensorflow_lite/src/tensorflow/lite/kernels\kernel_util.h **** // (kTfLiteOptionalTensor) in which case there is no tensor to return.
 105:C:/Renesas/e2studio_2021_01_workspace_RZA2M_ANPR/ANPR_RZA2M_RDK/src/tensorflow_lite/src/tensorflow/lite/kernels\kernel_util.h **** TfLiteTensor* GetTemporary(TfLiteContext* context, const TfLiteNode* node,
 106:C:/Renesas/e2studio_2021_01_workspace_RZA2M_ANPR/ANPR_RZA2M_RDK/src/tensorflow_lite/src/tensorflow/lite/kernels\kernel_util.h ****                            int index);
 107:C:/Renesas/e2studio_2021_01_workspace_RZA2M_ANPR/ANPR_RZA2M_RDK/src/tensorflow_lite/src/tensorflow/lite/kernels\kernel_util.h **** 
 108:C:/Renesas/e2studio_2021_01_workspace_RZA2M_ANPR/ANPR_RZA2M_RDK/src/tensorflow_lite/src/tensorflow/lite/kernels\kernel_util.h **** // Same as `GetTemporary` but returns boolean and uses output argument for
 109:C:/Renesas/e2studio_2021_01_workspace_RZA2M_ANPR/ANPR_RZA2M_RDK/src/tensorflow_lite/src/tensorflow/lite/kernels\kernel_util.h **** // tensor.
 110:C:/Renesas/e2studio_2021_01_workspace_RZA2M_ANPR/ANPR_RZA2M_RDK/src/tensorflow_lite/src/tensorflow/lite/kernels\kernel_util.h **** //
 111:C:/Renesas/e2studio_2021_01_workspace_RZA2M_ANPR/ANPR_RZA2M_RDK/src/tensorflow_lite/src/tensorflow/lite/kernels\kernel_util.h **** //   TfLiteTensor* my_tensor;
 112:C:/Renesas/e2studio_2021_01_workspace_RZA2M_ANPR/ANPR_RZA2M_RDK/src/tensorflow_lite/src/tensorflow/lite/kernels\kernel_util.h **** //   TF_LITE_ENSURE_OK(context,
 113:C:/Renesas/e2studio_2021_01_workspace_RZA2M_ANPR/ANPR_RZA2M_RDK/src/tensorflow_lite/src/tensorflow/lite/kernels\kernel_util.h **** //                     GetTemporarySafe(context, node, kMyTensorIdx,
 114:C:/Renesas/e2studio_2021_01_workspace_RZA2M_ANPR/ANPR_RZA2M_RDK/src/tensorflow_lite/src/tensorflow/lite/kernels\kernel_util.h **** //                     &my_tensor));
 115:C:/Renesas/e2studio_2021_01_workspace_RZA2M_ANPR/ANPR_RZA2M_RDK/src/tensorflow_lite/src/tensorflow/lite/kernels\kernel_util.h **** //   // can use my_tensor directly from here onwards, it is not nullptr
 116:C:/Renesas/e2studio_2021_01_workspace_RZA2M_ANPR/ANPR_RZA2M_RDK/src/tensorflow_lite/src/tensorflow/lite/kernels\kernel_util.h **** //
 117:C:/Renesas/e2studio_2021_01_workspace_RZA2M_ANPR/ANPR_RZA2M_RDK/src/tensorflow_lite/src/tensorflow/lite/kernels\kernel_util.h **** // Should be used in cases where the binary size is too large.
 118:C:/Renesas/e2studio_2021_01_workspace_RZA2M_ANPR/ANPR_RZA2M_RDK/src/tensorflow_lite/src/tensorflow/lite/kernels\kernel_util.h **** TfLiteStatus GetTemporarySafe(const TfLiteContext* context,
 119:C:/Renesas/e2studio_2021_01_workspace_RZA2M_ANPR/ANPR_RZA2M_RDK/src/tensorflow_lite/src/tensorflow/lite/kernels\kernel_util.h ****                               const TfLiteNode* node, int index,
 120:C:/Renesas/e2studio_2021_01_workspace_RZA2M_ANPR/ANPR_RZA2M_RDK/src/tensorflow_lite/src/tensorflow/lite/kernels\kernel_util.h ****                               TfLiteTensor** tensor);
 121:C:/Renesas/e2studio_2021_01_workspace_RZA2M_ANPR/ANPR_RZA2M_RDK/src/tensorflow_lite/src/tensorflow/lite/kernels\kernel_util.h **** 
 122:C:/Renesas/e2studio_2021_01_workspace_RZA2M_ANPR/ANPR_RZA2M_RDK/src/tensorflow_lite/src/tensorflow/lite/kernels\kernel_util.h **** // Note: You must check if result is not null:
 123:C:/Renesas/e2studio_2021_01_workspace_RZA2M_ANPR/ANPR_RZA2M_RDK/src/tensorflow_lite/src/tensorflow/lite/kernels\kernel_util.h **** //
 124:C:/Renesas/e2studio_2021_01_workspace_RZA2M_ANPR/ANPR_RZA2M_RDK/src/tensorflow_lite/src/tensorflow/lite/kernels\kernel_util.h **** //   TfLiteTensor* my_tensor = GetIntermediates(context, node, kMyTensorIdx);
 125:C:/Renesas/e2studio_2021_01_workspace_RZA2M_ANPR/ANPR_RZA2M_RDK/src/tensorflow_lite/src/tensorflow/lite/kernels\kernel_util.h **** //   TF_LITE_ENSURE(context, my_tensor != nullptr);
 126:C:/Renesas/e2studio_2021_01_workspace_RZA2M_ANPR/ANPR_RZA2M_RDK/src/tensorflow_lite/src/tensorflow/lite/kernels\kernel_util.h **** //
 127:C:/Renesas/e2studio_2021_01_workspace_RZA2M_ANPR/ANPR_RZA2M_RDK/src/tensorflow_lite/src/tensorflow/lite/kernels\kernel_util.h **** // This is because the index might point to the optional tensor constant
 128:C:/Renesas/e2studio_2021_01_workspace_RZA2M_ANPR/ANPR_RZA2M_RDK/src/tensorflow_lite/src/tensorflow/lite/kernels\kernel_util.h **** // (kTfLiteOptionalTensor) in which case there is no tensor to return.
 129:C:/Renesas/e2studio_2021_01_workspace_RZA2M_ANPR/ANPR_RZA2M_RDK/src/tensorflow_lite/src/tensorflow/lite/kernels\kernel_util.h **** const TfLiteTensor* GetIntermediates(TfLiteContext* context,
 130:C:/Renesas/e2studio_2021_01_workspace_RZA2M_ANPR/ANPR_RZA2M_RDK/src/tensorflow_lite/src/tensorflow/lite/kernels\kernel_util.h ****                                      const TfLiteNode* node, int index);
 131:C:/Renesas/e2studio_2021_01_workspace_RZA2M_ANPR/ANPR_RZA2M_RDK/src/tensorflow_lite/src/tensorflow/lite/kernels\kernel_util.h **** 
 132:C:/Renesas/e2studio_2021_01_workspace_RZA2M_ANPR/ANPR_RZA2M_RDK/src/tensorflow_lite/src/tensorflow/lite/kernels\kernel_util.h **** // Same as `GetIntermediates` but returns boolean and uses output argument for
 133:C:/Renesas/e2studio_2021_01_workspace_RZA2M_ANPR/ANPR_RZA2M_RDK/src/tensorflow_lite/src/tensorflow/lite/kernels\kernel_util.h **** // tensor.
 134:C:/Renesas/e2studio_2021_01_workspace_RZA2M_ANPR/ANPR_RZA2M_RDK/src/tensorflow_lite/src/tensorflow/lite/kernels\kernel_util.h **** //
 135:C:/Renesas/e2studio_2021_01_workspace_RZA2M_ANPR/ANPR_RZA2M_RDK/src/tensorflow_lite/src/tensorflow/lite/kernels\kernel_util.h **** //   TfLiteTensor* my_tensor;
 136:C:/Renesas/e2studio_2021_01_workspace_RZA2M_ANPR/ANPR_RZA2M_RDK/src/tensorflow_lite/src/tensorflow/lite/kernels\kernel_util.h **** //   TF_LITE_ENSURE_OK(context,
 137:C:/Renesas/e2studio_2021_01_workspace_RZA2M_ANPR/ANPR_RZA2M_RDK/src/tensorflow_lite/src/tensorflow/lite/kernels\kernel_util.h **** //                     GetIntermediatesSafe(context, node, kMyTensorIdx,
 138:C:/Renesas/e2studio_2021_01_workspace_RZA2M_ANPR/ANPR_RZA2M_RDK/src/tensorflow_lite/src/tensorflow/lite/kernels\kernel_util.h **** //                     &my_tensor));
 139:C:/Renesas/e2studio_2021_01_workspace_RZA2M_ANPR/ANPR_RZA2M_RDK/src/tensorflow_lite/src/tensorflow/lite/kernels\kernel_util.h **** //   // can use my_tensor directly from here onwards, it is not nullptr
 140:C:/Renesas/e2studio_2021_01_workspace_RZA2M_ANPR/ANPR_RZA2M_RDK/src/tensorflow_lite/src/tensorflow/lite/kernels\kernel_util.h **** //
 141:C:/Renesas/e2studio_2021_01_workspace_RZA2M_ANPR/ANPR_RZA2M_RDK/src/tensorflow_lite/src/tensorflow/lite/kernels\kernel_util.h **** // Should be used in cases where the binary size is too large.
 142:C:/Renesas/e2studio_2021_01_workspace_RZA2M_ANPR/ANPR_RZA2M_RDK/src/tensorflow_lite/src/tensorflow/lite/kernels\kernel_util.h **** TfLiteStatus GetIntermediatesSafe(const TfLiteContext* context,
 143:C:/Renesas/e2studio_2021_01_workspace_RZA2M_ANPR/ANPR_RZA2M_RDK/src/tensorflow_lite/src/tensorflow/lite/kernels\kernel_util.h ****                                   const TfLiteNode* node, int index,
 144:C:/Renesas/e2studio_2021_01_workspace_RZA2M_ANPR/ANPR_RZA2M_RDK/src/tensorflow_lite/src/tensorflow/lite/kernels\kernel_util.h ****                                   TfLiteTensor** tensor);
 145:C:/Renesas/e2studio_2021_01_workspace_RZA2M_ANPR/ANPR_RZA2M_RDK/src/tensorflow_lite/src/tensorflow/lite/kernels\kernel_util.h **** #endif  // TF_LITE_STATIC_MEMORY
 146:C:/Renesas/e2studio_2021_01_workspace_RZA2M_ANPR/ANPR_RZA2M_RDK/src/tensorflow_lite/src/tensorflow/lite/kernels\kernel_util.h **** 
 147:C:/Renesas/e2studio_2021_01_workspace_RZA2M_ANPR/ANPR_RZA2M_RDK/src/tensorflow_lite/src/tensorflow/lite/kernels\kernel_util.h **** inline int NumDimensions(const TfLiteTensor* t) { return t->dims->size; }
 148:C:/Renesas/e2studio_2021_01_workspace_RZA2M_ANPR/ANPR_RZA2M_RDK/src/tensorflow_lite/src/tensorflow/lite/kernels\kernel_util.h **** inline int SizeOfDimension(const TfLiteTensor* t, int dim) {
 149:C:/Renesas/e2studio_2021_01_workspace_RZA2M_ANPR/ANPR_RZA2M_RDK/src/tensorflow_lite/src/tensorflow/lite/kernels\kernel_util.h ****   return t->dims->data[dim];
 142              		.loc 3 149 0
 143 0068 08B093E5 		ldr	fp, [r3, #8]
 144              	.LVL12:
 145              	.LBE446:
 146              	.LBE445:
  61:../src/tensorflow_lite/src/tensorflow/lite/micro/kernels/cmsis_nn/pooling.cpp **** 
 147              		.loc 1 61 0
 148 006c 08108DE5 		str	r1, [sp, #8]
  60:../src/tensorflow_lite/src/tensorflow/lite/micro/kernels/cmsis_nn/pooling.cpp ****       params->filter_width, params->padding, &out_height, &out_width);
 149              		.loc 1 60 0
 150 0070 102097E5 		ldr	r2, [r7, #16]
 151              	.LBB447:
 152              	.LBB448:
 153              		.loc 3 149 0
 154 0074 0C3093E5 		ldr	r3, [r3, #12]
 155              	.LVL13:
 156              	.LBE448:
 157              	.LBE447:
  61:../src/tensorflow_lite/src/tensorflow/lite/micro/kernels/cmsis_nn/pooling.cpp **** 
 158              		.loc 1 61 0
 159 0078 0010D7E5 		ldrb	r1, [r7]	@ zero_extendqisi2
 160              	.LVL14:
 161              	.LBB449:
 162              	.LBB439:
 163              	.LBB409:
 164              	.LBB407:
 165              		.loc 2 50 0
 166 007c 1900000A 		beq	.L14
  51:C:/Renesas/e2studio_2021_01_workspace_RZA2M_ANPR/ANPR_RZA2M_RDK/src/tensorflow_lite/src/tensorflow/lite/kernels\padding.h **** 
  52:C:/Renesas/e2studio_2021_01_workspace_RZA2M_ANPR/ANPR_RZA2M_RDK/src/tensorflow_lite/src/tensorflow/lite/kernels\padding.h ****   switch (padding) {
 167              		.loc 2 52 0
 168 0080 010051E3 		cmp	r1, #1
 169 0084 5100000A 		beq	.L15
 170 0088 020051E3 		cmp	r1, #2
 171 008c 1500001A 		bne	.L14
  53:C:/Renesas/e2studio_2021_01_workspace_RZA2M_ANPR/ANPR_RZA2M_RDK/src/tensorflow_lite/src/tensorflow/lite/kernels\padding.h ****     case kTfLitePaddingSame:
  54:C:/Renesas/e2studio_2021_01_workspace_RZA2M_ANPR/ANPR_RZA2M_RDK/src/tensorflow_lite/src/tensorflow/lite/kernels\padding.h ****       return (image_size + stride - 1) / stride;
  55:C:/Renesas/e2studio_2021_01_workspace_RZA2M_ANPR/ANPR_RZA2M_RDK/src/tensorflow_lite/src/tensorflow/lite/kernels\padding.h ****     case kTfLitePaddingValid:
  56:C:/Renesas/e2studio_2021_01_workspace_RZA2M_ANPR/ANPR_RZA2M_RDK/src/tensorflow_lite/src/tensorflow/lite/kernels\padding.h ****       return (image_size + stride - effective_filter_size) / stride;
 172              		.loc 2 56 0
 173 0090 050083E0 		add	r0, r3, r5
 174              	.LVL15:
 175 0094 10308DE5 		str	r3, [sp, #16]
 176 0098 08309DE5 		ldr	r3, [sp, #8]
 177              	.LVL16:
 178 009c 0510A0E1 		mov	r1, r5
 179              	.LVL17:
 180 00a0 14208DE5 		str	r2, [sp, #20]
 181 00a4 030040E0 		sub	r0, r0, r3
 182 00a8 FEFFFFEB 		bl	__aeabi_idiv
 183              	.LVL18:
 184              	.LBE407:
 185              	.LBE409:
 186              	.LBB410:
 187              	.LBB411:
  50:C:/Renesas/e2studio_2021_01_workspace_RZA2M_ANPR/ANPR_RZA2M_RDK/src/tensorflow_lite/src/tensorflow/lite/kernels\padding.h **** 
 188              		.loc 2 50 0
 189 00ac 000054E3 		cmp	r4, #0
 190 00b0 01A040E2 		sub	r10, r0, #1
 191 00b4 10309DE5 		ldr	r3, [sp, #16]
 192 00b8 14209DE5 		ldr	r2, [sp, #20]
 193 00bc 5E00000A 		beq	.L39
 194              	.LVL19:
 195              	.L21:
 196              		.loc 2 56 0
 197 00c0 04008BE0 		add	r0, fp, r4
 198 00c4 0410A0E1 		mov	r1, r4
 199 00c8 020040E0 		sub	r0, r0, r2
 200 00cc 14308DE5 		str	r3, [sp, #20]
 201 00d0 10208DE5 		str	r2, [sp, #16]
 202 00d4 FEFFFFEB 		bl	__aeabi_idiv
 203              	.LVL20:
 204 00d8 10209DE5 		ldr	r2, [sp, #16]
 205 00dc 010040E2 		sub	r0, r0, #1
 206 00e0 14309DE5 		ldr	r3, [sp, #20]
 207 00e4 070000EA 		b	.L19
 208              	.LVL21:
 209              	.L14:
  50:C:/Renesas/e2studio_2021_01_workspace_RZA2M_ANPR/ANPR_RZA2M_RDK/src/tensorflow_lite/src/tensorflow/lite/kernels\padding.h **** 
 210              		.loc 2 50 0
 211 00e8 000054E3 		cmp	r4, #0
 212 00ec 0300000A 		beq	.L37
  52:C:/Renesas/e2studio_2021_01_workspace_RZA2M_ANPR/ANPR_RZA2M_RDK/src/tensorflow_lite/src/tensorflow/lite/kernels\padding.h ****     case kTfLitePaddingSame:
 213              		.loc 2 52 0
 214 00f0 010051E3 		cmp	r1, #1
 215 00f4 6D00000A 		beq	.L29
 216 00f8 020051E3 		cmp	r1, #2
 217 00fc 3100000A 		beq	.L43
 218              	.L37:
 219 0100 00A0E0E3 		mvn	r10, #0
 220 0104 0A00A0E1 		mov	r0, r10
 221              	.LVL22:
 222              	.L19:
 223              	.LBE411:
 224              	.LBE410:
 225              	.LBB416:
 226              	.LBB417:
  37:C:/Renesas/e2studio_2021_01_workspace_RZA2M_ANPR/ANPR_RZA2M_RDK/src/tensorflow_lite/src/tensorflow/lite/kernels\padding.h ****   total_padding = total_padding > 0 ? total_padding : 0;
 227              		.loc 2 37 0
 228 0108 08109DE5 		ldr	r1, [sp, #8]
 229              	.LBE417:
 230              	.LBE416:
 231              	.LBB422:
 232              	.LBB423:
 233 010c 902424E0 		mla	r4, r0, r4, r2
 234              	.LVL23:
 235              	.LBE423:
 236              	.LBE422:
 237              	.LBE439:
 238              	.LBE449:
 239              	.LBB450:
  63:../src/tensorflow_lite/src/tensorflow/lite/micro/kernels/cmsis_nn/pooling.cpp ****     CalculateActivationRange(params->activation, &data->activation_min_f32,
 240              		.loc 1 63 0
 241 0110 0020D9E5 		ldrb	r2, [r9]	@ zero_extendqisi2
 242              	.LVL24:
 243              	.LBE450:
 244              	.LBB459:
 245              	.LBB440:
 246              	.LBB427:
 247              	.LBB418:
  37:C:/Renesas/e2studio_2021_01_workspace_RZA2M_ANPR/ANPR_RZA2M_RDK/src/tensorflow_lite/src/tensorflow/lite/kernels\padding.h ****   total_padding = total_padding > 0 ? total_padding : 0;
 248              		.loc 2 37 0
 249 0114 9A1525E0 		mla	r5, r10, r5, r1
 250              	.LVL25:
 251              	.LBE418:
 252              	.LBE427:
 253              	.LBB428:
 254              	.LBB424:
 255 0118 0BB044E0 		sub	fp, r4, fp
 256              	.LVL26:
  38:C:/Renesas/e2studio_2021_01_workspace_RZA2M_ANPR/ANPR_RZA2M_RDK/src/tensorflow_lite/src/tensorflow/lite/kernels\padding.h ****   *offset = total_padding % 2;
 257              		.loc 2 38 0
 258 011c CBBFCBE1 		bic	fp, fp, fp, asr #31
 259              	.LVL27:
 260              	.LBE424:
 261              	.LBE428:
 262              	.LBE440:
 263              	.LBE459:
 264              	.LBB460:
  63:../src/tensorflow_lite/src/tensorflow/lite/micro/kernels/cmsis_nn/pooling.cpp ****     CalculateActivationRange(params->activation, &data->activation_min_f32,
 265              		.loc 1 63 0
 266 0120 010052E3 		cmp	r2, #1
 267              	.LBE460:
 268              	.LBB461:
 269              	.LBB441:
 270              	.LBB429:
 271              	.LBB419:
  37:C:/Renesas/e2studio_2021_01_workspace_RZA2M_ANPR/ANPR_RZA2M_RDK/src/tensorflow_lite/src/tensorflow/lite/kernels\padding.h ****   total_padding = total_padding > 0 ? total_padding : 0;
 272              		.loc 2 37 0
 273 0124 033045E0 		sub	r3, r5, r3
 274              	.LVL28:
  38:C:/Renesas/e2studio_2021_01_workspace_RZA2M_ANPR/ANPR_RZA2M_RDK/src/tensorflow_lite/src/tensorflow/lite/kernels\padding.h ****   *offset = total_padding % 2;
 275              		.loc 2 38 0
 276 0128 C33FC3E1 		bic	r3, r3, r3, asr #31
 277              	.LVL29:
 278              	.LBE419:
 279              	.LBE429:
 280              	.LBB430:
 281              	.LBB425:
  40:C:/Renesas/e2studio_2021_01_workspace_RZA2M_ANPR/ANPR_RZA2M_RDK/src/tensorflow_lite/src/tensorflow/lite/kernels\padding.h **** }
 282              		.loc 2 40 0
 283 012c CB20A0E1 		asr	r2, fp, #1
 284              	.LBE425:
 285              	.LBE430:
 286              	.LBB431:
 287              	.LBB420:
 288 0130 C310A0E1 		asr	r1, r3, #1
 289              	.LBE420:
 290              	.LBE431:
 291              	.LBB432:
 292              	.LBB426:
  39:C:/Renesas/e2studio_2021_01_workspace_RZA2M_ANPR/ANPR_RZA2M_RDK/src/tensorflow_lite/src/tensorflow/lite/kernels\padding.h ****   return total_padding / 2;
 293              		.loc 2 39 0
 294 0134 01B00BE2 		and	fp, fp, #1
 295              	.LBE426:
 296              	.LBE432:
 297              	.LBB433:
 298              	.LBB421:
 299 0138 013003E2 		and	r3, r3, #1
 300              	.LBE421:
 301              	.LBE433:
 302              	.LBE441:
 303              	.LBE461:
  61:../src/tensorflow_lite/src/tensorflow/lite/micro/kernels/cmsis_nn/pooling.cpp **** 
 304              		.loc 1 61 0
 305 013c 0E0886E8 		stm	r6, {r1, r2, r3, fp}
 306              	.LBB462:
  63:../src/tensorflow_lite/src/tensorflow/lite/micro/kernels/cmsis_nn/pooling.cpp ****     CalculateActivationRange(params->activation, &data->activation_min_f32,
 307              		.loc 1 63 0
 308 0140 1200001A 		bne	.L22
  64:../src/tensorflow_lite/src/tensorflow/lite/micro/kernels/cmsis_nn/pooling.cpp ****                              &data->activation_max_f32);
 309              		.loc 1 64 0
 310 0144 1430D7E5 		ldrb	r3, [r7, #20]	@ zero_extendqisi2
 311              	.LVL30:
 312              	.LBB451:
 313              	.LBB452:
 150:C:/Renesas/e2studio_2021_01_workspace_RZA2M_ANPR/ANPR_RZA2M_RDK/src/tensorflow_lite/src/tensorflow/lite/kernels\kernel_util.h **** }
 151:C:/Renesas/e2studio_2021_01_workspace_RZA2M_ANPR/ANPR_RZA2M_RDK/src/tensorflow_lite/src/tensorflow/lite/kernels\kernel_util.h **** 
 152:C:/Renesas/e2studio_2021_01_workspace_RZA2M_ANPR/ANPR_RZA2M_RDK/src/tensorflow_lite/src/tensorflow/lite/kernels\kernel_util.h **** inline int NumInputs(const TfLiteNode* node) { return node->inputs->size; }
 153:C:/Renesas/e2studio_2021_01_workspace_RZA2M_ANPR/ANPR_RZA2M_RDK/src/tensorflow_lite/src/tensorflow/lite/kernels\kernel_util.h **** inline int NumOutputs(const TfLiteNode* node) { return node->outputs->size; }
 154:C:/Renesas/e2studio_2021_01_workspace_RZA2M_ANPR/ANPR_RZA2M_RDK/src/tensorflow_lite/src/tensorflow/lite/kernels\kernel_util.h **** 
 155:C:/Renesas/e2studio_2021_01_workspace_RZA2M_ANPR/ANPR_RZA2M_RDK/src/tensorflow_lite/src/tensorflow/lite/kernels\kernel_util.h **** #ifndef TF_LITE_STATIC_MEMORY
 156:C:/Renesas/e2studio_2021_01_workspace_RZA2M_ANPR/ANPR_RZA2M_RDK/src/tensorflow_lite/src/tensorflow/lite/kernels\kernel_util.h **** inline int NumIntermediates(const TfLiteNode* node) {
 157:C:/Renesas/e2studio_2021_01_workspace_RZA2M_ANPR/ANPR_RZA2M_RDK/src/tensorflow_lite/src/tensorflow/lite/kernels\kernel_util.h ****   return node->intermediates->size;
 158:C:/Renesas/e2studio_2021_01_workspace_RZA2M_ANPR/ANPR_RZA2M_RDK/src/tensorflow_lite/src/tensorflow/lite/kernels\kernel_util.h **** }
 159:C:/Renesas/e2studio_2021_01_workspace_RZA2M_ANPR/ANPR_RZA2M_RDK/src/tensorflow_lite/src/tensorflow/lite/kernels\kernel_util.h **** #endif  // TF_LITE_STATIC_MEMORY
 160:C:/Renesas/e2studio_2021_01_workspace_RZA2M_ANPR/ANPR_RZA2M_RDK/src/tensorflow_lite/src/tensorflow/lite/kernels\kernel_util.h **** 
 161:C:/Renesas/e2studio_2021_01_workspace_RZA2M_ANPR/ANPR_RZA2M_RDK/src/tensorflow_lite/src/tensorflow/lite/kernels\kernel_util.h **** inline int64_t NumElements(const TfLiteIntArray* dims) {
 162:C:/Renesas/e2studio_2021_01_workspace_RZA2M_ANPR/ANPR_RZA2M_RDK/src/tensorflow_lite/src/tensorflow/lite/kernels\kernel_util.h ****   int64_t count = 1;
 163:C:/Renesas/e2studio_2021_01_workspace_RZA2M_ANPR/ANPR_RZA2M_RDK/src/tensorflow_lite/src/tensorflow/lite/kernels\kernel_util.h ****   for (int i = 0; i < dims->size; ++i) {
 164:C:/Renesas/e2studio_2021_01_workspace_RZA2M_ANPR/ANPR_RZA2M_RDK/src/tensorflow_lite/src/tensorflow/lite/kernels\kernel_util.h ****     count *= dims->data[i];
 165:C:/Renesas/e2studio_2021_01_workspace_RZA2M_ANPR/ANPR_RZA2M_RDK/src/tensorflow_lite/src/tensorflow/lite/kernels\kernel_util.h ****   }
 166:C:/Renesas/e2studio_2021_01_workspace_RZA2M_ANPR/ANPR_RZA2M_RDK/src/tensorflow_lite/src/tensorflow/lite/kernels\kernel_util.h ****   return count;
 167:C:/Renesas/e2studio_2021_01_workspace_RZA2M_ANPR/ANPR_RZA2M_RDK/src/tensorflow_lite/src/tensorflow/lite/kernels\kernel_util.h **** }
 168:C:/Renesas/e2studio_2021_01_workspace_RZA2M_ANPR/ANPR_RZA2M_RDK/src/tensorflow_lite/src/tensorflow/lite/kernels\kernel_util.h **** 
 169:C:/Renesas/e2studio_2021_01_workspace_RZA2M_ANPR/ANPR_RZA2M_RDK/src/tensorflow_lite/src/tensorflow/lite/kernels\kernel_util.h **** inline int64_t NumElements(const TfLiteTensor* t) {
 170:C:/Renesas/e2studio_2021_01_workspace_RZA2M_ANPR/ANPR_RZA2M_RDK/src/tensorflow_lite/src/tensorflow/lite/kernels\kernel_util.h ****   return NumElements(t->dims);
 171:C:/Renesas/e2studio_2021_01_workspace_RZA2M_ANPR/ANPR_RZA2M_RDK/src/tensorflow_lite/src/tensorflow/lite/kernels\kernel_util.h **** }
 172:C:/Renesas/e2studio_2021_01_workspace_RZA2M_ANPR/ANPR_RZA2M_RDK/src/tensorflow_lite/src/tensorflow/lite/kernels\kernel_util.h **** 
 173:C:/Renesas/e2studio_2021_01_workspace_RZA2M_ANPR/ANPR_RZA2M_RDK/src/tensorflow_lite/src/tensorflow/lite/kernels\kernel_util.h **** // Determines whether tensor is constant.
 174:C:/Renesas/e2studio_2021_01_workspace_RZA2M_ANPR/ANPR_RZA2M_RDK/src/tensorflow_lite/src/tensorflow/lite/kernels\kernel_util.h **** // TODO(b/138199592): Introduce new query which checks for constant OR
 175:C:/Renesas/e2studio_2021_01_workspace_RZA2M_ANPR/ANPR_RZA2M_RDK/src/tensorflow_lite/src/tensorflow/lite/kernels\kernel_util.h **** // persistent-read-only, which would be useful for most tensor kernels that
 176:C:/Renesas/e2studio_2021_01_workspace_RZA2M_ANPR/ANPR_RZA2M_RDK/src/tensorflow_lite/src/tensorflow/lite/kernels\kernel_util.h **** // are potentially dynamic based on the input tensor value availability at the
 177:C:/Renesas/e2studio_2021_01_workspace_RZA2M_ANPR/ANPR_RZA2M_RDK/src/tensorflow_lite/src/tensorflow/lite/kernels\kernel_util.h **** // time of prepare.
 178:C:/Renesas/e2studio_2021_01_workspace_RZA2M_ANPR/ANPR_RZA2M_RDK/src/tensorflow_lite/src/tensorflow/lite/kernels\kernel_util.h **** inline bool IsConstantTensor(const TfLiteTensor* tensor) {
 179:C:/Renesas/e2studio_2021_01_workspace_RZA2M_ANPR/ANPR_RZA2M_RDK/src/tensorflow_lite/src/tensorflow/lite/kernels\kernel_util.h ****   return tensor->allocation_type == kTfLiteMmapRo;
 180:C:/Renesas/e2studio_2021_01_workspace_RZA2M_ANPR/ANPR_RZA2M_RDK/src/tensorflow_lite/src/tensorflow/lite/kernels\kernel_util.h **** }
 181:C:/Renesas/e2studio_2021_01_workspace_RZA2M_ANPR/ANPR_RZA2M_RDK/src/tensorflow_lite/src/tensorflow/lite/kernels\kernel_util.h **** 
 182:C:/Renesas/e2studio_2021_01_workspace_RZA2M_ANPR/ANPR_RZA2M_RDK/src/tensorflow_lite/src/tensorflow/lite/kernels\kernel_util.h **** // Determines whether tensor is dynamic. Note that a tensor can be non-const and
 183:C:/Renesas/e2studio_2021_01_workspace_RZA2M_ANPR/ANPR_RZA2M_RDK/src/tensorflow_lite/src/tensorflow/lite/kernels\kernel_util.h **** // not dynamic. This function specifically checks for a dynamic tensor.
 184:C:/Renesas/e2studio_2021_01_workspace_RZA2M_ANPR/ANPR_RZA2M_RDK/src/tensorflow_lite/src/tensorflow/lite/kernels\kernel_util.h **** inline bool IsDynamicTensor(const TfLiteTensor* tensor) {
 185:C:/Renesas/e2studio_2021_01_workspace_RZA2M_ANPR/ANPR_RZA2M_RDK/src/tensorflow_lite/src/tensorflow/lite/kernels\kernel_util.h ****   return tensor->allocation_type == kTfLiteDynamic;
 186:C:/Renesas/e2studio_2021_01_workspace_RZA2M_ANPR/ANPR_RZA2M_RDK/src/tensorflow_lite/src/tensorflow/lite/kernels\kernel_util.h **** }
 187:C:/Renesas/e2studio_2021_01_workspace_RZA2M_ANPR/ANPR_RZA2M_RDK/src/tensorflow_lite/src/tensorflow/lite/kernels\kernel_util.h **** 
 188:C:/Renesas/e2studio_2021_01_workspace_RZA2M_ANPR/ANPR_RZA2M_RDK/src/tensorflow_lite/src/tensorflow/lite/kernels\kernel_util.h **** // Sets tensor to dynamic.
 189:C:/Renesas/e2studio_2021_01_workspace_RZA2M_ANPR/ANPR_RZA2M_RDK/src/tensorflow_lite/src/tensorflow/lite/kernels\kernel_util.h **** inline void SetTensorToDynamic(TfLiteTensor* tensor) {
 190:C:/Renesas/e2studio_2021_01_workspace_RZA2M_ANPR/ANPR_RZA2M_RDK/src/tensorflow_lite/src/tensorflow/lite/kernels\kernel_util.h ****   if (tensor->allocation_type != kTfLiteDynamic) {
 191:C:/Renesas/e2studio_2021_01_workspace_RZA2M_ANPR/ANPR_RZA2M_RDK/src/tensorflow_lite/src/tensorflow/lite/kernels\kernel_util.h ****     tensor->allocation_type = kTfLiteDynamic;
 192:C:/Renesas/e2studio_2021_01_workspace_RZA2M_ANPR/ANPR_RZA2M_RDK/src/tensorflow_lite/src/tensorflow/lite/kernels\kernel_util.h ****     tensor->data.raw = nullptr;
 193:C:/Renesas/e2studio_2021_01_workspace_RZA2M_ANPR/ANPR_RZA2M_RDK/src/tensorflow_lite/src/tensorflow/lite/kernels\kernel_util.h ****   }
 194:C:/Renesas/e2studio_2021_01_workspace_RZA2M_ANPR/ANPR_RZA2M_RDK/src/tensorflow_lite/src/tensorflow/lite/kernels\kernel_util.h **** }
 195:C:/Renesas/e2studio_2021_01_workspace_RZA2M_ANPR/ANPR_RZA2M_RDK/src/tensorflow_lite/src/tensorflow/lite/kernels\kernel_util.h **** 
 196:C:/Renesas/e2studio_2021_01_workspace_RZA2M_ANPR/ANPR_RZA2M_RDK/src/tensorflow_lite/src/tensorflow/lite/kernels\kernel_util.h **** // Sets tensor to persistent and read-only.
 197:C:/Renesas/e2studio_2021_01_workspace_RZA2M_ANPR/ANPR_RZA2M_RDK/src/tensorflow_lite/src/tensorflow/lite/kernels\kernel_util.h **** inline void SetTensorToPersistentRo(TfLiteTensor* tensor) {
 198:C:/Renesas/e2studio_2021_01_workspace_RZA2M_ANPR/ANPR_RZA2M_RDK/src/tensorflow_lite/src/tensorflow/lite/kernels\kernel_util.h ****   if (tensor->allocation_type != kTfLitePersistentRo) {
 199:C:/Renesas/e2studio_2021_01_workspace_RZA2M_ANPR/ANPR_RZA2M_RDK/src/tensorflow_lite/src/tensorflow/lite/kernels\kernel_util.h ****     tensor->allocation_type = kTfLitePersistentRo;
 200:C:/Renesas/e2studio_2021_01_workspace_RZA2M_ANPR/ANPR_RZA2M_RDK/src/tensorflow_lite/src/tensorflow/lite/kernels\kernel_util.h ****     tensor->data.raw = nullptr;
 201:C:/Renesas/e2studio_2021_01_workspace_RZA2M_ANPR/ANPR_RZA2M_RDK/src/tensorflow_lite/src/tensorflow/lite/kernels\kernel_util.h ****   }
 202:C:/Renesas/e2studio_2021_01_workspace_RZA2M_ANPR/ANPR_RZA2M_RDK/src/tensorflow_lite/src/tensorflow/lite/kernels\kernel_util.h **** }
 203:C:/Renesas/e2studio_2021_01_workspace_RZA2M_ANPR/ANPR_RZA2M_RDK/src/tensorflow_lite/src/tensorflow/lite/kernels\kernel_util.h **** 
 204:C:/Renesas/e2studio_2021_01_workspace_RZA2M_ANPR/ANPR_RZA2M_RDK/src/tensorflow_lite/src/tensorflow/lite/kernels\kernel_util.h **** // Determines whether it is a hybrid op - one that has float inputs and
 205:C:/Renesas/e2studio_2021_01_workspace_RZA2M_ANPR/ANPR_RZA2M_RDK/src/tensorflow_lite/src/tensorflow/lite/kernels\kernel_util.h **** // quantized weights.
 206:C:/Renesas/e2studio_2021_01_workspace_RZA2M_ANPR/ANPR_RZA2M_RDK/src/tensorflow_lite/src/tensorflow/lite/kernels\kernel_util.h **** inline bool IsHybridOp(const TfLiteTensor* input, const TfLiteTensor* weight) {
 207:C:/Renesas/e2studio_2021_01_workspace_RZA2M_ANPR/ANPR_RZA2M_RDK/src/tensorflow_lite/src/tensorflow/lite/kernels\kernel_util.h ****   return ((weight->type == kTfLiteUInt8 || weight->type == kTfLiteInt8) &&
 208:C:/Renesas/e2studio_2021_01_workspace_RZA2M_ANPR/ANPR_RZA2M_RDK/src/tensorflow_lite/src/tensorflow/lite/kernels\kernel_util.h ****           input->type == kTfLiteFloat32);
 209:C:/Renesas/e2studio_2021_01_workspace_RZA2M_ANPR/ANPR_RZA2M_RDK/src/tensorflow_lite/src/tensorflow/lite/kernels\kernel_util.h **** }
 210:C:/Renesas/e2studio_2021_01_workspace_RZA2M_ANPR/ANPR_RZA2M_RDK/src/tensorflow_lite/src/tensorflow/lite/kernels\kernel_util.h **** 
 211:C:/Renesas/e2studio_2021_01_workspace_RZA2M_ANPR/ANPR_RZA2M_RDK/src/tensorflow_lite/src/tensorflow/lite/kernels\kernel_util.h **** // Check dimensionality match and populate OpData for Conv and DepthwiseConv.
 212:C:/Renesas/e2studio_2021_01_workspace_RZA2M_ANPR/ANPR_RZA2M_RDK/src/tensorflow_lite/src/tensorflow/lite/kernels\kernel_util.h **** TfLiteStatus PopulateConvolutionQuantizationParams(
 213:C:/Renesas/e2studio_2021_01_workspace_RZA2M_ANPR/ANPR_RZA2M_RDK/src/tensorflow_lite/src/tensorflow/lite/kernels\kernel_util.h ****     TfLiteContext* context, const TfLiteTensor* input,
 214:C:/Renesas/e2studio_2021_01_workspace_RZA2M_ANPR/ANPR_RZA2M_RDK/src/tensorflow_lite/src/tensorflow/lite/kernels\kernel_util.h ****     const TfLiteTensor* filter, const TfLiteTensor* bias, TfLiteTensor* output,
 215:C:/Renesas/e2studio_2021_01_workspace_RZA2M_ANPR/ANPR_RZA2M_RDK/src/tensorflow_lite/src/tensorflow/lite/kernels\kernel_util.h ****     const TfLiteFusedActivation& activation, int32_t* multiplier, int* shift,
 216:C:/Renesas/e2studio_2021_01_workspace_RZA2M_ANPR/ANPR_RZA2M_RDK/src/tensorflow_lite/src/tensorflow/lite/kernels\kernel_util.h ****     int32_t* output_activation_min, int32_t* output_activation_max,
 217:C:/Renesas/e2studio_2021_01_workspace_RZA2M_ANPR/ANPR_RZA2M_RDK/src/tensorflow_lite/src/tensorflow/lite/kernels\kernel_util.h ****     int32_t* per_channel_multiplier, int32_t* per_channel_shift);
 218:C:/Renesas/e2studio_2021_01_workspace_RZA2M_ANPR/ANPR_RZA2M_RDK/src/tensorflow_lite/src/tensorflow/lite/kernels\kernel_util.h **** 
 219:C:/Renesas/e2studio_2021_01_workspace_RZA2M_ANPR/ANPR_RZA2M_RDK/src/tensorflow_lite/src/tensorflow/lite/kernels\kernel_util.h **** TfLiteStatus PopulateConvolutionQuantizationParams(
 220:C:/Renesas/e2studio_2021_01_workspace_RZA2M_ANPR/ANPR_RZA2M_RDK/src/tensorflow_lite/src/tensorflow/lite/kernels\kernel_util.h ****     TfLiteContext* context, const TfLiteTensor* input,
 221:C:/Renesas/e2studio_2021_01_workspace_RZA2M_ANPR/ANPR_RZA2M_RDK/src/tensorflow_lite/src/tensorflow/lite/kernels\kernel_util.h ****     const TfLiteTensor* filter, const TfLiteTensor* bias, TfLiteTensor* output,
 222:C:/Renesas/e2studio_2021_01_workspace_RZA2M_ANPR/ANPR_RZA2M_RDK/src/tensorflow_lite/src/tensorflow/lite/kernels\kernel_util.h ****     const TfLiteFusedActivation& activation, int32_t* multiplier, int* shift,
 223:C:/Renesas/e2studio_2021_01_workspace_RZA2M_ANPR/ANPR_RZA2M_RDK/src/tensorflow_lite/src/tensorflow/lite/kernels\kernel_util.h ****     int32_t* output_activation_min, int32_t* output_activation_max,
 224:C:/Renesas/e2studio_2021_01_workspace_RZA2M_ANPR/ANPR_RZA2M_RDK/src/tensorflow_lite/src/tensorflow/lite/kernels\kernel_util.h ****     int32_t* per_channel_multiplier, int32_t* per_channel_shift,
 225:C:/Renesas/e2studio_2021_01_workspace_RZA2M_ANPR/ANPR_RZA2M_RDK/src/tensorflow_lite/src/tensorflow/lite/kernels\kernel_util.h ****     int num_channels);
 226:C:/Renesas/e2studio_2021_01_workspace_RZA2M_ANPR/ANPR_RZA2M_RDK/src/tensorflow_lite/src/tensorflow/lite/kernels\kernel_util.h **** 
 227:C:/Renesas/e2studio_2021_01_workspace_RZA2M_ANPR/ANPR_RZA2M_RDK/src/tensorflow_lite/src/tensorflow/lite/kernels\kernel_util.h **** // Calculates the multiplication factor for a quantized convolution (or
 228:C:/Renesas/e2studio_2021_01_workspace_RZA2M_ANPR/ANPR_RZA2M_RDK/src/tensorflow_lite/src/tensorflow/lite/kernels\kernel_util.h **** // quantized depthwise convolution) involving the given tensors. Returns an
 229:C:/Renesas/e2studio_2021_01_workspace_RZA2M_ANPR/ANPR_RZA2M_RDK/src/tensorflow_lite/src/tensorflow/lite/kernels\kernel_util.h **** // error if the scales of the tensors are not compatible.
 230:C:/Renesas/e2studio_2021_01_workspace_RZA2M_ANPR/ANPR_RZA2M_RDK/src/tensorflow_lite/src/tensorflow/lite/kernels\kernel_util.h **** TfLiteStatus GetQuantizedConvolutionMultipler(TfLiteContext* context,
 231:C:/Renesas/e2studio_2021_01_workspace_RZA2M_ANPR/ANPR_RZA2M_RDK/src/tensorflow_lite/src/tensorflow/lite/kernels\kernel_util.h ****                                               const TfLiteTensor* input,
 232:C:/Renesas/e2studio_2021_01_workspace_RZA2M_ANPR/ANPR_RZA2M_RDK/src/tensorflow_lite/src/tensorflow/lite/kernels\kernel_util.h ****                                               const TfLiteTensor* filter,
 233:C:/Renesas/e2studio_2021_01_workspace_RZA2M_ANPR/ANPR_RZA2M_RDK/src/tensorflow_lite/src/tensorflow/lite/kernels\kernel_util.h ****                                               const TfLiteTensor* bias,
 234:C:/Renesas/e2studio_2021_01_workspace_RZA2M_ANPR/ANPR_RZA2M_RDK/src/tensorflow_lite/src/tensorflow/lite/kernels\kernel_util.h ****                                               TfLiteTensor* output,
 235:C:/Renesas/e2studio_2021_01_workspace_RZA2M_ANPR/ANPR_RZA2M_RDK/src/tensorflow_lite/src/tensorflow/lite/kernels\kernel_util.h ****                                               double* multiplier);
 236:C:/Renesas/e2studio_2021_01_workspace_RZA2M_ANPR/ANPR_RZA2M_RDK/src/tensorflow_lite/src/tensorflow/lite/kernels\kernel_util.h **** 
 237:C:/Renesas/e2studio_2021_01_workspace_RZA2M_ANPR/ANPR_RZA2M_RDK/src/tensorflow_lite/src/tensorflow/lite/kernels\kernel_util.h **** TfLiteStatus GetQuantizedConvolutionMultipler(TfLiteContext* context,
 238:C:/Renesas/e2studio_2021_01_workspace_RZA2M_ANPR/ANPR_RZA2M_RDK/src/tensorflow_lite/src/tensorflow/lite/kernels\kernel_util.h ****                                               const TfLiteTensor* input,
 239:C:/Renesas/e2studio_2021_01_workspace_RZA2M_ANPR/ANPR_RZA2M_RDK/src/tensorflow_lite/src/tensorflow/lite/kernels\kernel_util.h ****                                               const TfLiteTensor* filter,
 240:C:/Renesas/e2studio_2021_01_workspace_RZA2M_ANPR/ANPR_RZA2M_RDK/src/tensorflow_lite/src/tensorflow/lite/kernels\kernel_util.h ****                                               TfLiteTensor* output,
 241:C:/Renesas/e2studio_2021_01_workspace_RZA2M_ANPR/ANPR_RZA2M_RDK/src/tensorflow_lite/src/tensorflow/lite/kernels\kernel_util.h ****                                               double* multiplier);
 242:C:/Renesas/e2studio_2021_01_workspace_RZA2M_ANPR/ANPR_RZA2M_RDK/src/tensorflow_lite/src/tensorflow/lite/kernels\kernel_util.h **** 
 243:C:/Renesas/e2studio_2021_01_workspace_RZA2M_ANPR/ANPR_RZA2M_RDK/src/tensorflow_lite/src/tensorflow/lite/kernels\kernel_util.h **** // Calculates the useful quantized range of an activation layer given its
 244:C:/Renesas/e2studio_2021_01_workspace_RZA2M_ANPR/ANPR_RZA2M_RDK/src/tensorflow_lite/src/tensorflow/lite/kernels\kernel_util.h **** // activation tensor.
 245:C:/Renesas/e2studio_2021_01_workspace_RZA2M_ANPR/ANPR_RZA2M_RDK/src/tensorflow_lite/src/tensorflow/lite/kernels\kernel_util.h **** TfLiteStatus CalculateActivationRangeQuantized(TfLiteContext* context,
 246:C:/Renesas/e2studio_2021_01_workspace_RZA2M_ANPR/ANPR_RZA2M_RDK/src/tensorflow_lite/src/tensorflow/lite/kernels\kernel_util.h ****                                                TfLiteFusedActivation activation,
 247:C:/Renesas/e2studio_2021_01_workspace_RZA2M_ANPR/ANPR_RZA2M_RDK/src/tensorflow_lite/src/tensorflow/lite/kernels\kernel_util.h ****                                                TfLiteTensor* output,
 248:C:/Renesas/e2studio_2021_01_workspace_RZA2M_ANPR/ANPR_RZA2M_RDK/src/tensorflow_lite/src/tensorflow/lite/kernels\kernel_util.h ****                                                int32_t* act_min,
 249:C:/Renesas/e2studio_2021_01_workspace_RZA2M_ANPR/ANPR_RZA2M_RDK/src/tensorflow_lite/src/tensorflow/lite/kernels\kernel_util.h ****                                                int32_t* act_max);
 250:C:/Renesas/e2studio_2021_01_workspace_RZA2M_ANPR/ANPR_RZA2M_RDK/src/tensorflow_lite/src/tensorflow/lite/kernels\kernel_util.h **** 
 251:C:/Renesas/e2studio_2021_01_workspace_RZA2M_ANPR/ANPR_RZA2M_RDK/src/tensorflow_lite/src/tensorflow/lite/kernels\kernel_util.h **** // Calculates the useful range of an activation layer given its activation
 252:C:/Renesas/e2studio_2021_01_workspace_RZA2M_ANPR/ANPR_RZA2M_RDK/src/tensorflow_lite/src/tensorflow/lite/kernels\kernel_util.h **** // tensor.a
 253:C:/Renesas/e2studio_2021_01_workspace_RZA2M_ANPR/ANPR_RZA2M_RDK/src/tensorflow_lite/src/tensorflow/lite/kernels\kernel_util.h **** template <typename T>
 254:C:/Renesas/e2studio_2021_01_workspace_RZA2M_ANPR/ANPR_RZA2M_RDK/src/tensorflow_lite/src/tensorflow/lite/kernels\kernel_util.h **** void CalculateActivationRange(TfLiteFusedActivation activation,
 255:C:/Renesas/e2studio_2021_01_workspace_RZA2M_ANPR/ANPR_RZA2M_RDK/src/tensorflow_lite/src/tensorflow/lite/kernels\kernel_util.h ****                               T* activation_min, T* activation_max) {
 256:C:/Renesas/e2studio_2021_01_workspace_RZA2M_ANPR/ANPR_RZA2M_RDK/src/tensorflow_lite/src/tensorflow/lite/kernels\kernel_util.h ****   if (activation == kTfLiteActRelu) {
 314              		.loc 3 256 0
 315 0148 010053E3 		cmp	r3, #1
 316 014c 3400000A 		beq	.L44
 257:C:/Renesas/e2studio_2021_01_workspace_RZA2M_ANPR/ANPR_RZA2M_RDK/src/tensorflow_lite/src/tensorflow/lite/kernels\kernel_util.h ****     *activation_min = 0;
 258:C:/Renesas/e2studio_2021_01_workspace_RZA2M_ANPR/ANPR_RZA2M_RDK/src/tensorflow_lite/src/tensorflow/lite/kernels\kernel_util.h ****     *activation_max = std::numeric_limits<T>::max();
 259:C:/Renesas/e2studio_2021_01_workspace_RZA2M_ANPR/ANPR_RZA2M_RDK/src/tensorflow_lite/src/tensorflow/lite/kernels\kernel_util.h ****   } else if (activation == kTfLiteActRelu6) {
 317              		.loc 3 259 0
 318 0150 030053E3 		cmp	r3, #3
 319 0154 5700000A 		beq	.L45
 260:C:/Renesas/e2studio_2021_01_workspace_RZA2M_ANPR/ANPR_RZA2M_RDK/src/tensorflow_lite/src/tensorflow/lite/kernels\kernel_util.h ****     *activation_min = 0;
 261:C:/Renesas/e2studio_2021_01_workspace_RZA2M_ANPR/ANPR_RZA2M_RDK/src/tensorflow_lite/src/tensorflow/lite/kernels\kernel_util.h ****     *activation_max = 6;
 262:C:/Renesas/e2studio_2021_01_workspace_RZA2M_ANPR/ANPR_RZA2M_RDK/src/tensorflow_lite/src/tensorflow/lite/kernels\kernel_util.h ****   } else if (activation == kTfLiteActReluN1To1) {
 320              		.loc 3 262 0
 321 0158 020053E3 		cmp	r3, #2
 263:C:/Renesas/e2studio_2021_01_workspace_RZA2M_ANPR/ANPR_RZA2M_RDK/src/tensorflow_lite/src/tensorflow/lite/kernels\kernel_util.h ****     *activation_min = -1;
 322              		.loc 3 263 0
 323 015c 0020A003 		moveq	r2, #0
 264:C:/Renesas/e2studio_2021_01_workspace_RZA2M_ANPR/ANPR_RZA2M_RDK/src/tensorflow_lite/src/tensorflow/lite/kernels\kernel_util.h ****     *activation_max = 1;
 265:C:/Renesas/e2studio_2021_01_workspace_RZA2M_ANPR/ANPR_RZA2M_RDK/src/tensorflow_lite/src/tensorflow/lite/kernels\kernel_util.h ****   } else {
 266:C:/Renesas/e2studio_2021_01_workspace_RZA2M_ANPR/ANPR_RZA2M_RDK/src/tensorflow_lite/src/tensorflow/lite/kernels\kernel_util.h ****     *activation_min = std::numeric_limits<T>::lowest();
 267:C:/Renesas/e2studio_2021_01_workspace_RZA2M_ANPR/ANPR_RZA2M_RDK/src/tensorflow_lite/src/tensorflow/lite/kernels\kernel_util.h ****     *activation_max = std::numeric_limits<T>::max();
 324              		.loc 3 267 0
 325 0160 FF3F0F13 		movwne	r3, #65535
 326              	.LVL31:
 263:C:/Renesas/e2studio_2021_01_workspace_RZA2M_ANPR/ANPR_RZA2M_RDK/src/tensorflow_lite/src/tensorflow/lite/kernels\kernel_util.h ****     *activation_min = -1;
 327              		.loc 3 263 0
 328 0164 802F4B03 		movteq	r2, 49024
 264:C:/Renesas/e2studio_2021_01_workspace_RZA2M_ANPR/ANPR_RZA2M_RDK/src/tensorflow_lite/src/tensorflow/lite/kernels\kernel_util.h ****     *activation_max = 1;
 329              		.loc 3 264 0
 330 0168 FE35A003 		moveq	r3, #1065353216
 266:C:/Renesas/e2studio_2021_01_workspace_RZA2M_ANPR/ANPR_RZA2M_RDK/src/tensorflow_lite/src/tensorflow/lite/kernels\kernel_util.h ****     *activation_max = std::numeric_limits<T>::max();
 331              		.loc 3 266 0
 332 016c 0225E013 		mvnne	r2, #8388608
 333              		.loc 3 267 0
 334 0170 7F3F4713 		movtne	r3, 32639
 266:C:/Renesas/e2studio_2021_01_workspace_RZA2M_ANPR/ANPR_RZA2M_RDK/src/tensorflow_lite/src/tensorflow/lite/kernels\kernel_util.h ****     *activation_max = std::numeric_limits<T>::max();
 335              		.loc 3 266 0
 336 0174 1C2086E5 		str	r2, [r6, #28]	@ float
 337              		.loc 3 267 0
 338 0178 203086E5 		str	r3, [r6, #32]	@ float
 339              	.LVL32:
 340              	.L24:
 341              	.LBE452:
 342              	.LBE451:
 343              	.LBE462:
 344              	.LBE402:
 345              	.LBE401:
 346              	.LBE400:
 282:../src/tensorflow_lite/src/tensorflow/lite/micro/kernels/cmsis_nn/pooling.cpp **** 
 283:../src/tensorflow_lite/src/tensorflow/lite/micro/kernels/cmsis_nn/pooling.cpp ****   TF_LITE_ENSURE_STATUS(CalculateOpData(context, params, input, output, data));
 284:../src/tensorflow_lite/src/tensorflow/lite/micro/kernels/cmsis_nn/pooling.cpp **** 
 285:../src/tensorflow_lite/src/tensorflow/lite/micro/kernels/cmsis_nn/pooling.cpp ****   return kTfLiteOk;
 347              		.loc 1 285 0
 348 017c 0000A0E3 		mov	r0, #0
 349              	.LBB477:
 350              	.LBB473:
 351              	.LBB469:
  74:../src/tensorflow_lite/src/tensorflow/lite/micro/kernels/cmsis_nn/pooling.cpp **** 
 352              		.loc 1 74 0
 353 0180 0030E0E3 		mvn	r3, #0
 354 0184 103086E5 		str	r3, [r6, #16]
 355              	.LVL33:
 356              	.L12:
 357              	.LBE469:
 358              	.LBE473:
 359              	.LBE477:
 286:../src/tensorflow_lite/src/tensorflow/lite/micro/kernels/cmsis_nn/pooling.cpp **** }
 360              		.loc 1 286 0
 361 0188 1CD08DE2 		add	sp, sp, #28
 362              		.cfi_remember_state
 363              		.cfi_def_cfa_offset 36
 364              		@ sp needed
 365 018c F08FBDE8 		pop	{r4, r5, r6, r7, r8, r9, r10, fp, pc}
 366              	.LVL34:
 367              	.L22:
 368              		.cfi_restore_state
 369              	.LBB478:
 370              	.LBB474:
 371              	.LBB470:
 372              	.LBB463:
 373              	.LBB455:
 374              	.LBB456:
  67:../src/tensorflow_lite/src/tensorflow/lite/micro/kernels/cmsis_nn/pooling.cpp ****         context, params->activation, output, &data->activation_min,
 375              		.loc 1 67 0
 376 0190 183086E2 		add	r3, r6, #24
 377 0194 1410D7E5 		ldrb	r1, [r7, #20]	@ zero_extendqisi2
 378 0198 0C209DE5 		ldr	r2, [sp, #12]
 379 019c 0800A0E1 		mov	r0, r8
 380 01a0 00308DE5 		str	r3, [sp]
 381 01a4 143086E2 		add	r3, r6, #20
 382 01a8 FEFFFFEB 		bl	_ZN6tflite33CalculateActivationRangeQuantizedEP13TfLiteContext21TfLiteFusedActivationP12TfLiteT
 383              	.LVL35:
 384 01ac 000050E3 		cmp	r0, #0
 385              	.LVL36:
 386 01b0 F4FFFF1A 		bne	.L12
 387              	.LBE456:
  70:../src/tensorflow_lite/src/tensorflow/lite/micro/kernels/cmsis_nn/pooling.cpp ****   }
 388              		.loc 1 70 0
 389 01b4 142096E5 		ldr	r2, [r6, #20]
 390 01b8 183096E5 		ldr	r3, [r6, #24]
 391 01bc 030052E1 		cmp	r2, r3
 392 01c0 EDFFFFDA 		ble	.L24
 393              	.LVL37:
 394              	.L10:
 395              	.LBE455:
 396              	.LBE463:
 397              	.LBE470:
 398              	.LBE474:
 399              	.LBE478:
 272:../src/tensorflow_lite/src/tensorflow/lite/micro/kernels/cmsis_nn/pooling.cpp ****   TFLITE_DCHECK(node->builtin_data != nullptr);
 400              		.loc 1 272 0 discriminator 1
 401 01c4 FEFFFFEB 		bl	abort
 402              	.LVL38:
 403              	.L43:
 404              	.LBB479:
 405              	.LBB475:
 406              	.LBB471:
 407              	.LBB464:
 408              	.LBB442:
 409              	.LBB434:
 410              	.LBB412:
  52:C:/Renesas/e2studio_2021_01_workspace_RZA2M_ANPR/ANPR_RZA2M_RDK/src/tensorflow_lite/src/tensorflow/lite/kernels\padding.h ****     case kTfLitePaddingSame:
 411              		.loc 2 52 0
 412 01c8 00A0E0E3 		mvn	r10, #0
 413 01cc BBFFFFEA 		b	.L21
 414              	.LVL39:
 415              	.L15:
 416              	.LBE412:
 417              	.LBE434:
 418              	.LBB435:
 419              	.LBB408:
  54:C:/Renesas/e2studio_2021_01_workspace_RZA2M_ANPR/ANPR_RZA2M_RDK/src/tensorflow_lite/src/tensorflow/lite/kernels\padding.h ****     case kTfLitePaddingValid:
 420              		.loc 2 54 0
 421 01d0 050083E0 		add	r0, r3, r5
 422              	.LVL40:
 423 01d4 0510A0E1 		mov	r1, r5
 424              	.LVL41:
 425 01d8 010040E2 		sub	r0, r0, #1
 426 01dc 14208DE5 		str	r2, [sp, #20]
 427 01e0 10308DE5 		str	r3, [sp, #16]
 428 01e4 FEFFFFEB 		bl	__aeabi_idiv
 429              	.LVL42:
 430              	.LBE408:
 431              	.LBE435:
 432              	.LBB436:
 433              	.LBB413:
  50:C:/Renesas/e2studio_2021_01_workspace_RZA2M_ANPR/ANPR_RZA2M_RDK/src/tensorflow_lite/src/tensorflow/lite/kernels\padding.h **** 
 434              		.loc 2 50 0
 435 01e8 000054E3 		cmp	r4, #0
 436 01ec 01A040E2 		sub	r10, r0, #1
 437 01f0 10309DE5 		ldr	r3, [sp, #16]
 438 01f4 14209DE5 		ldr	r2, [sp, #20]
 439 01f8 0F00000A 		beq	.L39
 440              	.LVL43:
 441              	.L18:
  54:C:/Renesas/e2studio_2021_01_workspace_RZA2M_ANPR/ANPR_RZA2M_RDK/src/tensorflow_lite/src/tensorflow/lite/kernels\padding.h ****     case kTfLitePaddingValid:
 442              		.loc 2 54 0
 443 01fc 04008BE0 		add	r0, fp, r4
 444 0200 0410A0E1 		mov	r1, r4
 445 0204 010040E2 		sub	r0, r0, #1
 446 0208 14208DE5 		str	r2, [sp, #20]
 447 020c 10308DE5 		str	r3, [sp, #16]
 448 0210 FEFFFFEB 		bl	__aeabi_idiv
 449              	.LVL44:
 450 0214 10309DE5 		ldr	r3, [sp, #16]
 451 0218 010040E2 		sub	r0, r0, #1
 452 021c 14209DE5 		ldr	r2, [sp, #20]
 453 0220 B8FFFFEA 		b	.L19
 454              	.LVL45:
 455              	.L44:
 456              	.LBE413:
 457              	.LBE436:
 458              	.LBE442:
 459              	.LBE464:
 460              	.LBB465:
 461              	.LBB457:
 462              	.LBB453:
 258:C:/Renesas/e2studio_2021_01_workspace_RZA2M_ANPR/ANPR_RZA2M_RDK/src/tensorflow_lite/src/tensorflow/lite/kernels\kernel_util.h ****   } else if (activation == kTfLiteActRelu6) {
 463              		.loc 3 258 0
 464 0224 FF3F0FE3 		movw	r3, #65535
 465              	.LVL46:
 257:C:/Renesas/e2studio_2021_01_workspace_RZA2M_ANPR/ANPR_RZA2M_RDK/src/tensorflow_lite/src/tensorflow/lite/kernels\kernel_util.h ****     *activation_max = std::numeric_limits<T>::max();
 466              		.loc 3 257 0
 467 0228 0020A0E3 		mov	r2, #0
 258:C:/Renesas/e2studio_2021_01_workspace_RZA2M_ANPR/ANPR_RZA2M_RDK/src/tensorflow_lite/src/tensorflow/lite/kernels\kernel_util.h ****   } else if (activation == kTfLiteActRelu6) {
 468              		.loc 3 258 0
 469 022c 7F3F47E3 		movt	r3, 32639
 257:C:/Renesas/e2studio_2021_01_workspace_RZA2M_ANPR/ANPR_RZA2M_RDK/src/tensorflow_lite/src/tensorflow/lite/kernels\kernel_util.h ****     *activation_max = std::numeric_limits<T>::max();
 470              		.loc 3 257 0
 471 0230 1C2086E5 		str	r2, [r6, #28]	@ float
 258:C:/Renesas/e2studio_2021_01_workspace_RZA2M_ANPR/ANPR_RZA2M_RDK/src/tensorflow_lite/src/tensorflow/lite/kernels\kernel_util.h ****   } else if (activation == kTfLiteActRelu6) {
 472              		.loc 3 258 0
 473 0234 203086E5 		str	r3, [r6, #32]	@ float
 474 0238 CFFFFFEA 		b	.L24
 475              	.LVL47:
 476              	.L39:
 477              	.LBE453:
 478              	.LBE457:
 479              	.LBE465:
 480              	.LBB466:
 481              	.LBB443:
 482              	.LBB437:
 483              	.LBB414:
  50:C:/Renesas/e2studio_2021_01_workspace_RZA2M_ANPR/ANPR_RZA2M_RDK/src/tensorflow_lite/src/tensorflow/lite/kernels\padding.h **** 
 484              		.loc 2 50 0
 485 023c 0000E0E3 		mvn	r0, #0
 486              	.LVL48:
 487 0240 B0FFFFEA 		b	.L19
 488              	.LVL49:
 489              	.L41:
 490              	.LBE414:
 491              	.LBE437:
 492              	.LBE443:
 493              	.LBE466:
 494              	.LBE471:
 495              	.LBE475:
 496              	.LBE479:
 279:../src/tensorflow_lite/src/tensorflow/lite/micro/kernels/cmsis_nn/pooling.cpp ****   TfLiteTensor* output = GetOutput(context, node, kOutputTensor);
 497              		.loc 1 279 0 discriminator 1
 498 0244 003000E3 		movw	r3, #:lower16:.LC4
 499 0248 002000E3 		movw	r2, #:lower16:.LC2
 500 024c 003040E3 		movt	r3, #:upper16:.LC4
 501 0250 001000E3 		movw	r1, #:lower16:.LC3
 502 0254 00308DE5 		str	r3, [sp]
 503 0258 0800A0E1 		mov	r0, r8
 504              	.LVL50:
 505 025c 002040E3 		movt	r2, #:upper16:.LC2
 506 0260 001040E3 		movt	r1, #:upper16:.LC3
 507 0264 144098E5 		ldr	r4, [r8, #20]
 508              	.LVL51:
 509 0268 173100E3 		movw	r3, #279
 510 026c 34FF2FE1 		blx	r4
 511              	.LVL52:
 512 0270 0100A0E3 		mov	r0, #1
 513              		.loc 1 286 0 discriminator 1
 514 0274 1CD08DE2 		add	sp, sp, #28
 515              		.cfi_remember_state
 516              		.cfi_def_cfa_offset 36
 517              		@ sp needed
 518 0278 F08FBDE8 		pop	{r4, r5, r6, r7, r8, r9, r10, fp, pc}
 519              	.LVL53:
 520              	.L42:
 521              		.cfi_restore_state
 281:../src/tensorflow_lite/src/tensorflow/lite/micro/kernels/cmsis_nn/pooling.cpp **** 
 522              		.loc 1 281 0 discriminator 1
 523 027c 003000E3 		movw	r3, #:lower16:.LC5
 524 0280 002000E3 		movw	r2, #:lower16:.LC2
 525 0284 003040E3 		movt	r3, #:upper16:.LC5
 526 0288 001000E3 		movw	r1, #:lower16:.LC3
 527 028c 00308DE5 		str	r3, [sp]
 528 0290 0800A0E1 		mov	r0, r8
 529              	.LVL54:
 530 0294 002040E3 		movt	r2, #:upper16:.LC2
 531 0298 001040E3 		movt	r1, #:upper16:.LC3
 532 029c 144098E5 		ldr	r4, [r8, #20]
 533              	.LVL55:
 534 02a0 193100E3 		movw	r3, #281
 535 02a4 34FF2FE1 		blx	r4
 536              	.LVL56:
 537 02a8 0100A0E3 		mov	r0, #1
 538 02ac B5FFFFEA 		b	.L12
 539              	.LVL57:
 540              	.L29:
 541              	.LBB480:
 542              	.LBB476:
 543              	.LBB472:
 544              	.LBB467:
 545              	.LBB444:
 546              	.LBB438:
 547              	.LBB415:
  52:C:/Renesas/e2studio_2021_01_workspace_RZA2M_ANPR/ANPR_RZA2M_RDK/src/tensorflow_lite/src/tensorflow/lite/kernels\padding.h ****     case kTfLitePaddingSame:
 548              		.loc 2 52 0
 549 02b0 00A0E0E3 		mvn	r10, #0
 550 02b4 D0FFFFEA 		b	.L18
 551              	.LVL58:
 552              	.L45:
 553              	.LBE415:
 554              	.LBE438:
 555              	.LBE444:
 556              	.LBE467:
 557              	.LBB468:
 558              	.LBB458:
 559              	.LBB454:
 261:C:/Renesas/e2studio_2021_01_workspace_RZA2M_ANPR/ANPR_RZA2M_RDK/src/tensorflow_lite/src/tensorflow/lite/kernels\kernel_util.h ****   } else if (activation == kTfLiteActReluN1To1) {
 560              		.loc 3 261 0
 561 02b8 0030A0E3 		mov	r3, #0
 562              	.LVL59:
 260:C:/Renesas/e2studio_2021_01_workspace_RZA2M_ANPR/ANPR_RZA2M_RDK/src/tensorflow_lite/src/tensorflow/lite/kernels\kernel_util.h ****     *activation_max = 6;
 563              		.loc 3 260 0
 564 02bc 0020A0E3 		mov	r2, #0
 261:C:/Renesas/e2studio_2021_01_workspace_RZA2M_ANPR/ANPR_RZA2M_RDK/src/tensorflow_lite/src/tensorflow/lite/kernels\kernel_util.h ****   } else if (activation == kTfLiteActReluN1To1) {
 565              		.loc 3 261 0
 566 02c0 C03044E3 		movt	r3, 16576
 260:C:/Renesas/e2studio_2021_01_workspace_RZA2M_ANPR/ANPR_RZA2M_RDK/src/tensorflow_lite/src/tensorflow/lite/kernels\kernel_util.h ****     *activation_max = 6;
 567              		.loc 3 260 0
 568 02c4 1C2086E5 		str	r2, [r6, #28]	@ float
 261:C:/Renesas/e2studio_2021_01_workspace_RZA2M_ANPR/ANPR_RZA2M_RDK/src/tensorflow_lite/src/tensorflow/lite/kernels\kernel_util.h ****   } else if (activation == kTfLiteActReluN1To1) {
 569              		.loc 3 261 0
 570 02c8 203086E5 		str	r3, [r6, #32]	@ float
 571 02cc AAFFFFEA 		b	.L24
 572              	.LBE454:
 573              	.LBE458:
 574              	.LBE468:
 575              	.LBE472:
 576              	.LBE476:
 577              	.LBE480:
 578              		.cfi_endproc
 579              	.LFE5920:
 580              		.fnend
 582              		.section	.text._ZN6tflite3ops5micro7pooling7MaxEvalEP13TfLiteContextP10TfLiteNode,"ax",%progbits
 583              		.align	2
 584              		.global	_ZN6tflite3ops5micro7pooling7MaxEvalEP13TfLiteContextP10TfLiteNode
 585              		.syntax unified
 586              		.arm
 587              		.fpu neon
 589              	_ZN6tflite3ops5micro7pooling7MaxEvalEP13TfLiteContextP10TfLiteNode:
 590              		.fnstart
 591              	.LFB5923:
 287:../src/tensorflow_lite/src/tensorflow/lite/micro/kernels/cmsis_nn/pooling.cpp **** 
 288:../src/tensorflow_lite/src/tensorflow/lite/micro/kernels/cmsis_nn/pooling.cpp **** TfLiteStatus AveragePrepare(TfLiteContext* context, TfLiteNode* node) {
 289:../src/tensorflow_lite/src/tensorflow/lite/micro/kernels/cmsis_nn/pooling.cpp ****   TFLITE_DCHECK(node->user_data != nullptr);
 290:../src/tensorflow_lite/src/tensorflow/lite/micro/kernels/cmsis_nn/pooling.cpp ****   TFLITE_DCHECK(node->builtin_data != nullptr);
 291:../src/tensorflow_lite/src/tensorflow/lite/micro/kernels/cmsis_nn/pooling.cpp **** 
 292:../src/tensorflow_lite/src/tensorflow/lite/micro/kernels/cmsis_nn/pooling.cpp ****   OpData* data = static_cast<OpData*>(node->user_data);
 293:../src/tensorflow_lite/src/tensorflow/lite/micro/kernels/cmsis_nn/pooling.cpp ****   auto* params = reinterpret_cast<TfLitePoolParams*>(node->builtin_data);
 294:../src/tensorflow_lite/src/tensorflow/lite/micro/kernels/cmsis_nn/pooling.cpp **** 
 295:../src/tensorflow_lite/src/tensorflow/lite/micro/kernels/cmsis_nn/pooling.cpp ****   const TfLiteTensor* input = GetInput(context, node, kInputTensor);
 296:../src/tensorflow_lite/src/tensorflow/lite/micro/kernels/cmsis_nn/pooling.cpp ****   TfLiteTensor* output = GetOutput(context, node, kOutputTensor);
 297:../src/tensorflow_lite/src/tensorflow/lite/micro/kernels/cmsis_nn/pooling.cpp **** 
 298:../src/tensorflow_lite/src/tensorflow/lite/micro/kernels/cmsis_nn/pooling.cpp ****   TF_LITE_ENSURE_STATUS(CalculateOpData(context, params, input, output, data));
 299:../src/tensorflow_lite/src/tensorflow/lite/micro/kernels/cmsis_nn/pooling.cpp **** 
 300:../src/tensorflow_lite/src/tensorflow/lite/micro/kernels/cmsis_nn/pooling.cpp ****   if (input->type == kTfLiteInt8) {
 301:../src/tensorflow_lite/src/tensorflow/lite/micro/kernels/cmsis_nn/pooling.cpp ****     RuntimeShape input_shape = GetTensorShape(input);
 302:../src/tensorflow_lite/src/tensorflow/lite/micro/kernels/cmsis_nn/pooling.cpp ****     TFLITE_DCHECK_EQ(input_shape.DimensionsCount(), 4);
 303:../src/tensorflow_lite/src/tensorflow/lite/micro/kernels/cmsis_nn/pooling.cpp **** 
 304:../src/tensorflow_lite/src/tensorflow/lite/micro/kernels/cmsis_nn/pooling.cpp ****     RuntimeShape output_shape = GetTensorShape(output);
 305:../src/tensorflow_lite/src/tensorflow/lite/micro/kernels/cmsis_nn/pooling.cpp ****     TFLITE_DCHECK_EQ(output_shape.DimensionsCount(), 4);
 306:../src/tensorflow_lite/src/tensorflow/lite/micro/kernels/cmsis_nn/pooling.cpp **** 
 307:../src/tensorflow_lite/src/tensorflow/lite/micro/kernels/cmsis_nn/pooling.cpp ****     const int depth = MatchingDim(input_shape, 3, output_shape, 3);
 308:../src/tensorflow_lite/src/tensorflow/lite/micro/kernels/cmsis_nn/pooling.cpp ****     const int output_width = output_shape.Dims(2);
 309:../src/tensorflow_lite/src/tensorflow/lite/micro/kernels/cmsis_nn/pooling.cpp **** 
 310:../src/tensorflow_lite/src/tensorflow/lite/micro/kernels/cmsis_nn/pooling.cpp ****     const int32_t buffer_size =
 311:../src/tensorflow_lite/src/tensorflow/lite/micro/kernels/cmsis_nn/pooling.cpp ****         arm_avgpool_s8_get_buffer_size(output_width, depth);
 312:../src/tensorflow_lite/src/tensorflow/lite/micro/kernels/cmsis_nn/pooling.cpp **** 
 313:../src/tensorflow_lite/src/tensorflow/lite/micro/kernels/cmsis_nn/pooling.cpp ****     if (buffer_size > 0) {
 314:../src/tensorflow_lite/src/tensorflow/lite/micro/kernels/cmsis_nn/pooling.cpp ****       TF_LITE_ENSURE_STATUS(context->RequestScratchBufferInArena(
 315:../src/tensorflow_lite/src/tensorflow/lite/micro/kernels/cmsis_nn/pooling.cpp ****           context, buffer_size, &data->buffer_idx));
 316:../src/tensorflow_lite/src/tensorflow/lite/micro/kernels/cmsis_nn/pooling.cpp ****     } else {
 317:../src/tensorflow_lite/src/tensorflow/lite/micro/kernels/cmsis_nn/pooling.cpp ****       data->buffer_idx = -1;
 318:../src/tensorflow_lite/src/tensorflow/lite/micro/kernels/cmsis_nn/pooling.cpp ****     }
 319:../src/tensorflow_lite/src/tensorflow/lite/micro/kernels/cmsis_nn/pooling.cpp ****   }
 320:../src/tensorflow_lite/src/tensorflow/lite/micro/kernels/cmsis_nn/pooling.cpp ****   return kTfLiteOk;
 321:../src/tensorflow_lite/src/tensorflow/lite/micro/kernels/cmsis_nn/pooling.cpp **** }
 322:../src/tensorflow_lite/src/tensorflow/lite/micro/kernels/cmsis_nn/pooling.cpp **** 
 323:../src/tensorflow_lite/src/tensorflow/lite/micro/kernels/cmsis_nn/pooling.cpp **** TfLiteStatus AverageEval(TfLiteContext* context, TfLiteNode* node) {
 324:../src/tensorflow_lite/src/tensorflow/lite/micro/kernels/cmsis_nn/pooling.cpp ****   TFLITE_DCHECK(node->builtin_data != nullptr);
 325:../src/tensorflow_lite/src/tensorflow/lite/micro/kernels/cmsis_nn/pooling.cpp ****   auto* params = reinterpret_cast<TfLitePoolParams*>(node->builtin_data);
 326:../src/tensorflow_lite/src/tensorflow/lite/micro/kernels/cmsis_nn/pooling.cpp **** 
 327:../src/tensorflow_lite/src/tensorflow/lite/micro/kernels/cmsis_nn/pooling.cpp ****   TFLITE_DCHECK(node->user_data != nullptr);
 328:../src/tensorflow_lite/src/tensorflow/lite/micro/kernels/cmsis_nn/pooling.cpp ****   const OpData& data = *(static_cast<const OpData*>(node->user_data));
 329:../src/tensorflow_lite/src/tensorflow/lite/micro/kernels/cmsis_nn/pooling.cpp **** 
 330:../src/tensorflow_lite/src/tensorflow/lite/micro/kernels/cmsis_nn/pooling.cpp ****   const TfLiteEvalTensor* input =
 331:../src/tensorflow_lite/src/tensorflow/lite/micro/kernels/cmsis_nn/pooling.cpp ****       tflite::micro::GetEvalInput(context, node, kInputTensor);
 332:../src/tensorflow_lite/src/tensorflow/lite/micro/kernels/cmsis_nn/pooling.cpp ****   TfLiteEvalTensor* output =
 333:../src/tensorflow_lite/src/tensorflow/lite/micro/kernels/cmsis_nn/pooling.cpp ****       tflite::micro::GetEvalOutput(context, node, kOutputTensor);
 334:../src/tensorflow_lite/src/tensorflow/lite/micro/kernels/cmsis_nn/pooling.cpp **** 
 335:../src/tensorflow_lite/src/tensorflow/lite/micro/kernels/cmsis_nn/pooling.cpp ****   // Inputs and outputs share the same type, guaranteed by the converter.
 336:../src/tensorflow_lite/src/tensorflow/lite/micro/kernels/cmsis_nn/pooling.cpp ****   switch (input->type) {
 337:../src/tensorflow_lite/src/tensorflow/lite/micro/kernels/cmsis_nn/pooling.cpp ****     case kTfLiteFloat32:
 338:../src/tensorflow_lite/src/tensorflow/lite/micro/kernels/cmsis_nn/pooling.cpp ****       AverageEvalFloat(context, node, params, data, input, output);
 339:../src/tensorflow_lite/src/tensorflow/lite/micro/kernels/cmsis_nn/pooling.cpp ****       break;
 340:../src/tensorflow_lite/src/tensorflow/lite/micro/kernels/cmsis_nn/pooling.cpp ****     case kTfLiteUInt8:
 341:../src/tensorflow_lite/src/tensorflow/lite/micro/kernels/cmsis_nn/pooling.cpp ****     case kTfLiteInt8:
 342:../src/tensorflow_lite/src/tensorflow/lite/micro/kernels/cmsis_nn/pooling.cpp ****       AverageEvalQuantized(context, node, params, data, input, output);
 343:../src/tensorflow_lite/src/tensorflow/lite/micro/kernels/cmsis_nn/pooling.cpp ****       break;
 344:../src/tensorflow_lite/src/tensorflow/lite/micro/kernels/cmsis_nn/pooling.cpp ****     default:
 345:../src/tensorflow_lite/src/tensorflow/lite/micro/kernels/cmsis_nn/pooling.cpp ****       TF_LITE_KERNEL_LOG(context, "Input type %s is not currently supported",
 346:../src/tensorflow_lite/src/tensorflow/lite/micro/kernels/cmsis_nn/pooling.cpp ****                          TfLiteTypeGetName(input->type));
 347:../src/tensorflow_lite/src/tensorflow/lite/micro/kernels/cmsis_nn/pooling.cpp ****       return kTfLiteError;
 348:../src/tensorflow_lite/src/tensorflow/lite/micro/kernels/cmsis_nn/pooling.cpp ****   }
 349:../src/tensorflow_lite/src/tensorflow/lite/micro/kernels/cmsis_nn/pooling.cpp ****   return kTfLiteOk;
 350:../src/tensorflow_lite/src/tensorflow/lite/micro/kernels/cmsis_nn/pooling.cpp **** }
 351:../src/tensorflow_lite/src/tensorflow/lite/micro/kernels/cmsis_nn/pooling.cpp **** 
 352:../src/tensorflow_lite/src/tensorflow/lite/micro/kernels/cmsis_nn/pooling.cpp **** TfLiteStatus MaxEval(TfLiteContext* context, TfLiteNode* node) {
 592              		.loc 1 352 0
 593              		.cfi_startproc
 594              		.cfi_personality 0,__gxx_personality_v0
 595              		.cfi_lsda 0,.LLSDA5923
 596              		@ args = 0, pretend = 0, frame = 256
 597              		@ frame_needed = 0, uses_anonymous_args = 0
 598              	.LVL60:
 599 0000 F04F2DE9 		push	{r4, r5, r6, r7, r8, r9, r10, fp, lr}
 600              		.save {r4, r5, r6, r7, r8, r9, r10, fp, lr}
 601              		.cfi_def_cfa_offset 36
 602              		.cfi_offset 4, -36
 603              		.cfi_offset 5, -32
 604              		.cfi_offset 6, -28
 605              		.cfi_offset 7, -24
 606              		.cfi_offset 8, -20
 607              		.cfi_offset 9, -16
 608              		.cfi_offset 10, -12
 609              		.cfi_offset 11, -8
 610              		.cfi_offset 14, -4
 353:../src/tensorflow_lite/src/tensorflow/lite/micro/kernels/cmsis_nn/pooling.cpp ****   TFLITE_DCHECK(node->builtin_data != nullptr);
 611              		.loc 1 353 0
 612 0004 144091E5 		ldr	r4, [r1, #20]
 352:../src/tensorflow_lite/src/tensorflow/lite/micro/kernels/cmsis_nn/pooling.cpp ****   TFLITE_DCHECK(node->builtin_data != nullptr);
 613              		.loc 1 352 0
 614 0008 028B2DED 		vpush.64	{d8}
 615              		.vsave {d8}
 616              		.cfi_def_cfa_offset 44
 617              		.cfi_offset 80, -44
 618              		.cfi_offset 81, -40
 619              		.pad #276
 620 000c 45DF4DE2 		sub	sp, sp, #276
 621              		.cfi_def_cfa_offset 320
 622              		.loc 1 353 0
 623 0010 000054E3 		cmp	r4, #0
 624 0014 E002000A 		beq	.L48
 354:../src/tensorflow_lite/src/tensorflow/lite/micro/kernels/cmsis_nn/pooling.cpp ****   auto* params = reinterpret_cast<TfLitePoolParams*>(node->builtin_data);
 355:../src/tensorflow_lite/src/tensorflow/lite/micro/kernels/cmsis_nn/pooling.cpp **** 
 356:../src/tensorflow_lite/src/tensorflow/lite/micro/kernels/cmsis_nn/pooling.cpp ****   TFLITE_DCHECK(node->user_data != nullptr);
 625              		.loc 1 356 0
 626 0018 107091E5 		ldr	r7, [r1, #16]
 627 001c 0150A0E1 		mov	r5, r1
 628              	.LVL61:
 629 0020 000057E3 		cmp	r7, #0
 630 0024 DC02000A 		beq	.L48
 631              	.LBB671:
 632              	.LBB672:
 633              	.LBB673:
 634              		.file 4 "C:/Renesas/e2studio_2021_01_workspace_RZA2M_ANPR/ANPR_RZA2M_RDK/src/tensorflow_lite/src/t
   1:C:/Renesas/e2studio_2021_01_workspace_RZA2M_ANPR/ANPR_RZA2M_RDK/src/tensorflow_lite/src/tensorflow/lite/micro/kernels\kernel_util.h **** /* Copyright 2020 The TensorFlow Authors. All Rights Reserved.
   2:C:/Renesas/e2studio_2021_01_workspace_RZA2M_ANPR/ANPR_RZA2M_RDK/src/tensorflow_lite/src/tensorflow/lite/micro/kernels\kernel_util.h **** 
   3:C:/Renesas/e2studio_2021_01_workspace_RZA2M_ANPR/ANPR_RZA2M_RDK/src/tensorflow_lite/src/tensorflow/lite/micro/kernels\kernel_util.h **** Licensed under the Apache License, Version 2.0 (the "License");
   4:C:/Renesas/e2studio_2021_01_workspace_RZA2M_ANPR/ANPR_RZA2M_RDK/src/tensorflow_lite/src/tensorflow/lite/micro/kernels\kernel_util.h **** you may not use this file except in compliance with the License.
   5:C:/Renesas/e2studio_2021_01_workspace_RZA2M_ANPR/ANPR_RZA2M_RDK/src/tensorflow_lite/src/tensorflow/lite/micro/kernels\kernel_util.h **** You may obtain a copy of the License at
   6:C:/Renesas/e2studio_2021_01_workspace_RZA2M_ANPR/ANPR_RZA2M_RDK/src/tensorflow_lite/src/tensorflow/lite/micro/kernels\kernel_util.h **** 
   7:C:/Renesas/e2studio_2021_01_workspace_RZA2M_ANPR/ANPR_RZA2M_RDK/src/tensorflow_lite/src/tensorflow/lite/micro/kernels\kernel_util.h ****     http://www.apache.org/licenses/LICENSE-2.0
   8:C:/Renesas/e2studio_2021_01_workspace_RZA2M_ANPR/ANPR_RZA2M_RDK/src/tensorflow_lite/src/tensorflow/lite/micro/kernels\kernel_util.h **** 
   9:C:/Renesas/e2studio_2021_01_workspace_RZA2M_ANPR/ANPR_RZA2M_RDK/src/tensorflow_lite/src/tensorflow/lite/micro/kernels\kernel_util.h **** Unless required by applicable law or agreed to in writing, software
  10:C:/Renesas/e2studio_2021_01_workspace_RZA2M_ANPR/ANPR_RZA2M_RDK/src/tensorflow_lite/src/tensorflow/lite/micro/kernels\kernel_util.h **** distributed under the License is distributed on an "AS IS" BASIS,
  11:C:/Renesas/e2studio_2021_01_workspace_RZA2M_ANPR/ANPR_RZA2M_RDK/src/tensorflow_lite/src/tensorflow/lite/micro/kernels\kernel_util.h **** WITHOUT WARRANTIES OR CONDITIONS OF ANY KIND, either express or implied.
  12:C:/Renesas/e2studio_2021_01_workspace_RZA2M_ANPR/ANPR_RZA2M_RDK/src/tensorflow_lite/src/tensorflow/lite/micro/kernels\kernel_util.h **** See the License for the specific language governing permissions and
  13:C:/Renesas/e2studio_2021_01_workspace_RZA2M_ANPR/ANPR_RZA2M_RDK/src/tensorflow_lite/src/tensorflow/lite/micro/kernels\kernel_util.h **** limitations under the License.
  14:C:/Renesas/e2studio_2021_01_workspace_RZA2M_ANPR/ANPR_RZA2M_RDK/src/tensorflow_lite/src/tensorflow/lite/micro/kernels\kernel_util.h **** ==============================================================================*/
  15:C:/Renesas/e2studio_2021_01_workspace_RZA2M_ANPR/ANPR_RZA2M_RDK/src/tensorflow_lite/src/tensorflow/lite/micro/kernels\kernel_util.h **** 
  16:C:/Renesas/e2studio_2021_01_workspace_RZA2M_ANPR/ANPR_RZA2M_RDK/src/tensorflow_lite/src/tensorflow/lite/micro/kernels\kernel_util.h **** #ifndef TENSORFLOW_LITE_MICRO_KERNELS_KERNEL_UTIL_H_
  17:C:/Renesas/e2studio_2021_01_workspace_RZA2M_ANPR/ANPR_RZA2M_RDK/src/tensorflow_lite/src/tensorflow/lite/micro/kernels\kernel_util.h **** #define TENSORFLOW_LITE_MICRO_KERNELS_KERNEL_UTIL_H_
  18:C:/Renesas/e2studio_2021_01_workspace_RZA2M_ANPR/ANPR_RZA2M_RDK/src/tensorflow_lite/src/tensorflow/lite/micro/kernels\kernel_util.h **** 
  19:C:/Renesas/e2studio_2021_01_workspace_RZA2M_ANPR/ANPR_RZA2M_RDK/src/tensorflow_lite/src/tensorflow/lite/micro/kernels\kernel_util.h **** #include <cstdint>
  20:C:/Renesas/e2studio_2021_01_workspace_RZA2M_ANPR/ANPR_RZA2M_RDK/src/tensorflow_lite/src/tensorflow/lite/micro/kernels\kernel_util.h **** 
  21:C:/Renesas/e2studio_2021_01_workspace_RZA2M_ANPR/ANPR_RZA2M_RDK/src/tensorflow_lite/src/tensorflow/lite/micro/kernels\kernel_util.h **** #include "tensorflow/lite/c/builtin_op_data.h"
  22:C:/Renesas/e2studio_2021_01_workspace_RZA2M_ANPR/ANPR_RZA2M_RDK/src/tensorflow_lite/src/tensorflow/lite/micro/kernels\kernel_util.h **** #include "tensorflow/lite/c/common.h"
  23:C:/Renesas/e2studio_2021_01_workspace_RZA2M_ANPR/ANPR_RZA2M_RDK/src/tensorflow_lite/src/tensorflow/lite/micro/kernels\kernel_util.h **** #include "tensorflow/lite/kernels/internal/compatibility.h"
  24:C:/Renesas/e2studio_2021_01_workspace_RZA2M_ANPR/ANPR_RZA2M_RDK/src/tensorflow_lite/src/tensorflow/lite/micro/kernels\kernel_util.h **** #include "tensorflow/lite/kernels/internal/types.h"
  25:C:/Renesas/e2studio_2021_01_workspace_RZA2M_ANPR/ANPR_RZA2M_RDK/src/tensorflow_lite/src/tensorflow/lite/micro/kernels\kernel_util.h **** 
  26:C:/Renesas/e2studio_2021_01_workspace_RZA2M_ANPR/ANPR_RZA2M_RDK/src/tensorflow_lite/src/tensorflow/lite/micro/kernels\kernel_util.h **** namespace tflite {
  27:C:/Renesas/e2studio_2021_01_workspace_RZA2M_ANPR/ANPR_RZA2M_RDK/src/tensorflow_lite/src/tensorflow/lite/micro/kernels\kernel_util.h **** namespace micro {
  28:C:/Renesas/e2studio_2021_01_workspace_RZA2M_ANPR/ANPR_RZA2M_RDK/src/tensorflow_lite/src/tensorflow/lite/micro/kernels\kernel_util.h **** 
  29:C:/Renesas/e2studio_2021_01_workspace_RZA2M_ANPR/ANPR_RZA2M_RDK/src/tensorflow_lite/src/tensorflow/lite/micro/kernels\kernel_util.h **** // Returns a mutable tensor for a given input index. is_variable must be checked
  30:C:/Renesas/e2studio_2021_01_workspace_RZA2M_ANPR/ANPR_RZA2M_RDK/src/tensorflow_lite/src/tensorflow/lite/micro/kernels\kernel_util.h **** // during prepare when the full TfLiteTensor is available.
  31:C:/Renesas/e2studio_2021_01_workspace_RZA2M_ANPR/ANPR_RZA2M_RDK/src/tensorflow_lite/src/tensorflow/lite/micro/kernels\kernel_util.h **** inline TfLiteEvalTensor* GetMutableEvalInput(const TfLiteContext* context,
  32:C:/Renesas/e2studio_2021_01_workspace_RZA2M_ANPR/ANPR_RZA2M_RDK/src/tensorflow_lite/src/tensorflow/lite/micro/kernels\kernel_util.h ****                                              const TfLiteNode* node,
  33:C:/Renesas/e2studio_2021_01_workspace_RZA2M_ANPR/ANPR_RZA2M_RDK/src/tensorflow_lite/src/tensorflow/lite/micro/kernels\kernel_util.h ****                                              int index) {
  34:C:/Renesas/e2studio_2021_01_workspace_RZA2M_ANPR/ANPR_RZA2M_RDK/src/tensorflow_lite/src/tensorflow/lite/micro/kernels\kernel_util.h ****   TFLITE_DCHECK(context != nullptr);
 635              		.loc 4 34 0
 636 0028 000050E3 		cmp	r0, #0
 637 002c 0080A0E1 		mov	r8, r0
 638              	.LVL62:
 639 0030 D902000A 		beq	.L48
  35:C:/Renesas/e2studio_2021_01_workspace_RZA2M_ANPR/ANPR_RZA2M_RDK/src/tensorflow_lite/src/tensorflow/lite/micro/kernels\kernel_util.h ****   TFLITE_DCHECK(node != nullptr);
  36:C:/Renesas/e2studio_2021_01_workspace_RZA2M_ANPR/ANPR_RZA2M_RDK/src/tensorflow_lite/src/tensorflow/lite/micro/kernels\kernel_util.h ****   return context->GetEvalTensor(context, node->inputs->data[index]);
 640              		.loc 4 36 0
 641 0034 002091E5 		ldr	r2, [r1]
 642 0038 543090E5 		ldr	r3, [r0, #84]
 643 003c 041092E5 		ldr	r1, [r2, #4]
 644              	.LVL63:
 645              	.LEHB0:
 646 0040 33FF2FE1 		blx	r3
 647              	.LVL64:
 648              	.LBE673:
 649              	.LBE672:
 650              	.LBE671:
 651              	.LBB676:
 652              	.LBB677:
  37:C:/Renesas/e2studio_2021_01_workspace_RZA2M_ANPR/ANPR_RZA2M_RDK/src/tensorflow_lite/src/tensorflow/lite/micro/kernels\kernel_util.h **** }
  38:C:/Renesas/e2studio_2021_01_workspace_RZA2M_ANPR/ANPR_RZA2M_RDK/src/tensorflow_lite/src/tensorflow/lite/micro/kernels\kernel_util.h **** 
  39:C:/Renesas/e2studio_2021_01_workspace_RZA2M_ANPR/ANPR_RZA2M_RDK/src/tensorflow_lite/src/tensorflow/lite/micro/kernels\kernel_util.h **** // Returns the TfLiteEvalTensor struct for a given input index in a node.
  40:C:/Renesas/e2studio_2021_01_workspace_RZA2M_ANPR/ANPR_RZA2M_RDK/src/tensorflow_lite/src/tensorflow/lite/micro/kernels\kernel_util.h **** inline const TfLiteEvalTensor* GetEvalInput(const TfLiteContext* context,
  41:C:/Renesas/e2studio_2021_01_workspace_RZA2M_ANPR/ANPR_RZA2M_RDK/src/tensorflow_lite/src/tensorflow/lite/micro/kernels\kernel_util.h ****                                             const TfLiteNode* node, int index) {
  42:C:/Renesas/e2studio_2021_01_workspace_RZA2M_ANPR/ANPR_RZA2M_RDK/src/tensorflow_lite/src/tensorflow/lite/micro/kernels\kernel_util.h ****   return GetMutableEvalInput(context, node, index);
  43:C:/Renesas/e2studio_2021_01_workspace_RZA2M_ANPR/ANPR_RZA2M_RDK/src/tensorflow_lite/src/tensorflow/lite/micro/kernels\kernel_util.h **** }
  44:C:/Renesas/e2studio_2021_01_workspace_RZA2M_ANPR/ANPR_RZA2M_RDK/src/tensorflow_lite/src/tensorflow/lite/micro/kernels\kernel_util.h **** 
  45:C:/Renesas/e2studio_2021_01_workspace_RZA2M_ANPR/ANPR_RZA2M_RDK/src/tensorflow_lite/src/tensorflow/lite/micro/kernels\kernel_util.h **** // Returns the TfLiteEvalTensor struct for a given output index in a node.
  46:C:/Renesas/e2studio_2021_01_workspace_RZA2M_ANPR/ANPR_RZA2M_RDK/src/tensorflow_lite/src/tensorflow/lite/micro/kernels\kernel_util.h **** inline TfLiteEvalTensor* GetEvalOutput(const TfLiteContext* context,
  47:C:/Renesas/e2studio_2021_01_workspace_RZA2M_ANPR/ANPR_RZA2M_RDK/src/tensorflow_lite/src/tensorflow/lite/micro/kernels\kernel_util.h ****                                        const TfLiteNode* node, int index) {
  48:C:/Renesas/e2studio_2021_01_workspace_RZA2M_ANPR/ANPR_RZA2M_RDK/src/tensorflow_lite/src/tensorflow/lite/micro/kernels\kernel_util.h ****   TFLITE_DCHECK(context != nullptr);
  49:C:/Renesas/e2studio_2021_01_workspace_RZA2M_ANPR/ANPR_RZA2M_RDK/src/tensorflow_lite/src/tensorflow/lite/micro/kernels\kernel_util.h ****   TFLITE_DCHECK(node != nullptr);
  50:C:/Renesas/e2studio_2021_01_workspace_RZA2M_ANPR/ANPR_RZA2M_RDK/src/tensorflow_lite/src/tensorflow/lite/micro/kernels\kernel_util.h ****   return context->GetEvalTensor(context, node->outputs->data[index]);
 653              		.loc 4 50 0
 654 0044 042095E5 		ldr	r2, [r5, #4]
 655              	.LBE677:
 656              	.LBE676:
 657              	.LBB679:
 658              	.LBB675:
 659              	.LBB674:
  36:C:/Renesas/e2studio_2021_01_workspace_RZA2M_ANPR/ANPR_RZA2M_RDK/src/tensorflow_lite/src/tensorflow/lite/micro/kernels\kernel_util.h **** }
 660              		.loc 4 36 0
 661 0048 0060A0E1 		mov	r6, r0
 662              	.LVL65:
 663              	.LBE674:
 664              	.LBE675:
 665              	.LBE679:
 666              	.LBB680:
 667              	.LBB678:
 668              		.loc 4 50 0
 669 004c 543098E5 		ldr	r3, [r8, #84]
 670 0050 0800A0E1 		mov	r0, r8
 671 0054 041092E5 		ldr	r1, [r2, #4]
 672 0058 33FF2FE1 		blx	r3
 673              	.LVL66:
 674 005c 0050A0E1 		mov	r5, r0
 675              	.LVL67:
 676              	.LBE678:
 677              	.LBE680:
 357:../src/tensorflow_lite/src/tensorflow/lite/micro/kernels/cmsis_nn/pooling.cpp ****   const OpData& data = *(static_cast<const OpData*>(node->user_data));
 358:../src/tensorflow_lite/src/tensorflow/lite/micro/kernels/cmsis_nn/pooling.cpp **** 
 359:../src/tensorflow_lite/src/tensorflow/lite/micro/kernels/cmsis_nn/pooling.cpp ****   const TfLiteEvalTensor* input =
 360:../src/tensorflow_lite/src/tensorflow/lite/micro/kernels/cmsis_nn/pooling.cpp ****       tflite::micro::GetEvalInput(context, node, kInputTensor);
 361:../src/tensorflow_lite/src/tensorflow/lite/micro/kernels/cmsis_nn/pooling.cpp ****   TfLiteEvalTensor* output =
 362:../src/tensorflow_lite/src/tensorflow/lite/micro/kernels/cmsis_nn/pooling.cpp ****       tflite::micro::GetEvalOutput(context, node, kOutputTensor);
 363:../src/tensorflow_lite/src/tensorflow/lite/micro/kernels/cmsis_nn/pooling.cpp **** 
 364:../src/tensorflow_lite/src/tensorflow/lite/micro/kernels/cmsis_nn/pooling.cpp ****   switch (input->type) {
 678              		.loc 1 364 0
 679 0060 0800D6E5 		ldrb	r0, [r6, #8]	@ zero_extendqisi2
 680 0064 030050E3 		cmp	r0, #3
 681 0068 8001000A 		beq	.L50
 682 006c 090050E3 		cmp	r0, #9
 683 0070 1701000A 		beq	.L51
 684 0074 010050E3 		cmp	r0, #1
 685 0078 0A00000A 		beq	.L326
 365:../src/tensorflow_lite/src/tensorflow/lite/micro/kernels/cmsis_nn/pooling.cpp ****     case kTfLiteFloat32:
 366:../src/tensorflow_lite/src/tensorflow/lite/micro/kernels/cmsis_nn/pooling.cpp ****       MaxEvalFloat(context, node, params, data, input, output);
 367:../src/tensorflow_lite/src/tensorflow/lite/micro/kernels/cmsis_nn/pooling.cpp ****       break;
 368:../src/tensorflow_lite/src/tensorflow/lite/micro/kernels/cmsis_nn/pooling.cpp ****     case kTfLiteUInt8:
 369:../src/tensorflow_lite/src/tensorflow/lite/micro/kernels/cmsis_nn/pooling.cpp ****       MaxEvalQuantizedUInt8(context, node, params, data, input, output);
 370:../src/tensorflow_lite/src/tensorflow/lite/micro/kernels/cmsis_nn/pooling.cpp ****       break;
 371:../src/tensorflow_lite/src/tensorflow/lite/micro/kernels/cmsis_nn/pooling.cpp ****     case kTfLiteInt8:
 372:../src/tensorflow_lite/src/tensorflow/lite/micro/kernels/cmsis_nn/pooling.cpp ****       MaxEvalInt8(context, node, params, data, input, output);
 373:../src/tensorflow_lite/src/tensorflow/lite/micro/kernels/cmsis_nn/pooling.cpp ****       break;
 374:../src/tensorflow_lite/src/tensorflow/lite/micro/kernels/cmsis_nn/pooling.cpp ****     default:
 375:../src/tensorflow_lite/src/tensorflow/lite/micro/kernels/cmsis_nn/pooling.cpp ****       TF_LITE_KERNEL_LOG(context, "Type %s not currently supported.",
 686              		.loc 1 375 0
 687 007c 144098E5 		ldr	r4, [r8, #20]
 688              	.LVL68:
 689 0080 FEFFFFEB 		bl	TfLiteTypeGetName
 690              	.LVL69:
 691 0084 001000E3 		movw	r1, #:lower16:.LC6
 692 0088 0020A0E1 		mov	r2, r0
 693 008c 001040E3 		movt	r1, #:upper16:.LC6
 694 0090 0800A0E1 		mov	r0, r8
 695 0094 34FF2FE1 		blx	r4
 696              	.LVL70:
 376:../src/tensorflow_lite/src/tensorflow/lite/micro/kernels/cmsis_nn/pooling.cpp ****                          TfLiteTypeGetName(input->type));
 377:../src/tensorflow_lite/src/tensorflow/lite/micro/kernels/cmsis_nn/pooling.cpp ****       return kTfLiteError;
 697              		.loc 1 377 0
 698 0098 0100A0E3 		mov	r0, #1
 378:../src/tensorflow_lite/src/tensorflow/lite/micro/kernels/cmsis_nn/pooling.cpp ****   }
 379:../src/tensorflow_lite/src/tensorflow/lite/micro/kernels/cmsis_nn/pooling.cpp ****   return kTfLiteOk;
 380:../src/tensorflow_lite/src/tensorflow/lite/micro/kernels/cmsis_nn/pooling.cpp **** }
 699              		.loc 1 380 0
 700 009c 45DF8DE2 		add	sp, sp, #276
 701              		.cfi_remember_state
 702              		.cfi_def_cfa_offset 44
 703              		@ sp needed
 704 00a0 028BBDEC 		vldm	sp!, {d8}
 705              		.cfi_restore 80
 706              		.cfi_restore 81
 707              		.cfi_def_cfa_offset 36
 708 00a4 F08FBDE8 		pop	{r4, r5, r6, r7, r8, r9, r10, fp, pc}
 709              	.LVL71:
 710              	.L326:
 711              		.cfi_restore_state
 712              	.LBB681:
 713              	.LBB682:
 180:../src/tensorflow_lite/src/tensorflow/lite/micro/kernels/cmsis_nn/pooling.cpp ****   op_params.stride_width = params->stride_width;
 714              		.loc 1 180 0
 715 00a8 083094E5 		ldr	r3, [r4, #8]
 188:../src/tensorflow_lite/src/tensorflow/lite/micro/kernels/cmsis_nn/pooling.cpp ****                          tflite::micro::GetTensorData<float>(input),
 716              		.loc 1 188 0
 717 00ac 0610A0E1 		mov	r1, r6
 718 00b0 E0008DE2 		add	r0, sp, #224
 186:../src/tensorflow_lite/src/tensorflow/lite/micro/kernels/cmsis_nn/pooling.cpp ****   op_params.float_activation_max = data.activation_max_f32;
 719              		.loc 1 186 0
 720 00b4 078A97ED 		vldr.32	s16, [r7, #28]
 187:../src/tensorflow_lite/src/tensorflow/lite/micro/kernels/cmsis_nn/pooling.cpp ****   reference_ops::MaxPool(op_params, tflite::micro::GetTensorShape(input),
 721              		.loc 1 187 0
 722 00b8 088AD7ED 		vldr.32	s17, [r7, #32]
 180:../src/tensorflow_lite/src/tensorflow/lite/micro/kernels/cmsis_nn/pooling.cpp ****   op_params.stride_width = params->stride_width;
 723              		.loc 1 180 0
 724 00bc 7C308DE5 		str	r3, [sp, #124]
 725              	.LVL72:
 181:../src/tensorflow_lite/src/tensorflow/lite/micro/kernels/cmsis_nn/pooling.cpp ****   op_params.filter_height = params->filter_height;
 726              		.loc 1 181 0
 727 00c0 043094E5 		ldr	r3, [r4, #4]
 728              	.LVL73:
 729 00c4 80308DE5 		str	r3, [sp, #128]
 730              	.LVL74:
 182:../src/tensorflow_lite/src/tensorflow/lite/micro/kernels/cmsis_nn/pooling.cpp ****   op_params.filter_width = params->filter_width;
 731              		.loc 1 182 0
 732 00c8 103094E5 		ldr	r3, [r4, #16]
 733              	.LVL75:
 734 00cc 70308DE5 		str	r3, [sp, #112]
 735              	.LVL76:
 183:../src/tensorflow_lite/src/tensorflow/lite/micro/kernels/cmsis_nn/pooling.cpp ****   op_params.padding_values.height = data.padding.height;
 736              		.loc 1 183 0
 737 00d0 0C3094E5 		ldr	r3, [r4, #12]
 738              	.LVL77:
 739 00d4 68308DE5 		str	r3, [sp, #104]
 740              	.LVL78:
 184:../src/tensorflow_lite/src/tensorflow/lite/micro/kernels/cmsis_nn/pooling.cpp ****   op_params.padding_values.width = data.padding.width;
 741              		.loc 1 184 0
 742 00d8 F430D7E1 		ldrsh	r3, [r7, #4]
 743              	.LVL79:
 744 00dc 74308DE5 		str	r3, [sp, #116]
 745              	.LVL80:
 185:../src/tensorflow_lite/src/tensorflow/lite/micro/kernels/cmsis_nn/pooling.cpp ****   op_params.float_activation_min = data.activation_min_f32;
 746              		.loc 1 185 0
 747 00e0 F030D7E1 		ldrsh	r3, [r7]
 748 00e4 78308DE5 		str	r3, [sp, #120]
 749              	.LVL81:
 188:../src/tensorflow_lite/src/tensorflow/lite/micro/kernels/cmsis_nn/pooling.cpp ****                          tflite::micro::GetTensorData<float>(input),
 750              		.loc 1 188 0
 751 00e8 FEFFFFEB 		bl	_ZN6tflite5micro14GetTensorShapeEPK16TfLiteEvalTensor
 752              	.LVL82:
 753              	.LEHE0:
 190:../src/tensorflow_lite/src/tensorflow/lite/micro/kernels/cmsis_nn/pooling.cpp ****                          tflite::micro::GetTensorData<float>(output));
 754              		.loc 1 190 0
 755 00ec 0510A0E1 		mov	r1, r5
 756 00f0 F8008DE2 		add	r0, sp, #248
 757              	.LBB683:
 758              	.LBB684:
  51:C:/Renesas/e2studio_2021_01_workspace_RZA2M_ANPR/ANPR_RZA2M_RDK/src/tensorflow_lite/src/tensorflow/lite/micro/kernels\kernel_util.h **** }
  52:C:/Renesas/e2studio_2021_01_workspace_RZA2M_ANPR/ANPR_RZA2M_RDK/src/tensorflow_lite/src/tensorflow/lite/micro/kernels\kernel_util.h **** 
  53:C:/Renesas/e2studio_2021_01_workspace_RZA2M_ANPR/ANPR_RZA2M_RDK/src/tensorflow_lite/src/tensorflow/lite/micro/kernels\kernel_util.h **** // Returns data for a TfLiteEvalTensor struct.
  54:C:/Renesas/e2studio_2021_01_workspace_RZA2M_ANPR/ANPR_RZA2M_RDK/src/tensorflow_lite/src/tensorflow/lite/micro/kernels\kernel_util.h **** template <typename T>
  55:C:/Renesas/e2studio_2021_01_workspace_RZA2M_ANPR/ANPR_RZA2M_RDK/src/tensorflow_lite/src/tensorflow/lite/micro/kernels\kernel_util.h **** T* GetTensorData(TfLiteEvalTensor* tensor) {
  56:C:/Renesas/e2studio_2021_01_workspace_RZA2M_ANPR/ANPR_RZA2M_RDK/src/tensorflow_lite/src/tensorflow/lite/micro/kernels\kernel_util.h ****   return tensor != nullptr ? reinterpret_cast<T*>(tensor->data.raw) : nullptr;
  57:C:/Renesas/e2studio_2021_01_workspace_RZA2M_ANPR/ANPR_RZA2M_RDK/src/tensorflow_lite/src/tensorflow/lite/micro/kernels\kernel_util.h **** }
  58:C:/Renesas/e2studio_2021_01_workspace_RZA2M_ANPR/ANPR_RZA2M_RDK/src/tensorflow_lite/src/tensorflow/lite/micro/kernels\kernel_util.h **** 
  59:C:/Renesas/e2studio_2021_01_workspace_RZA2M_ANPR/ANPR_RZA2M_RDK/src/tensorflow_lite/src/tensorflow/lite/micro/kernels\kernel_util.h **** // Returns const data for a TfLiteEvalTensor struct.
  60:C:/Renesas/e2studio_2021_01_workspace_RZA2M_ANPR/ANPR_RZA2M_RDK/src/tensorflow_lite/src/tensorflow/lite/micro/kernels\kernel_util.h **** template <typename T>
  61:C:/Renesas/e2studio_2021_01_workspace_RZA2M_ANPR/ANPR_RZA2M_RDK/src/tensorflow_lite/src/tensorflow/lite/micro/kernels\kernel_util.h **** const T* GetTensorData(const TfLiteEvalTensor* tensor) {
  62:C:/Renesas/e2studio_2021_01_workspace_RZA2M_ANPR/ANPR_RZA2M_RDK/src/tensorflow_lite/src/tensorflow/lite/micro/kernels\kernel_util.h ****   TFLITE_DCHECK(tensor != nullptr);
  63:C:/Renesas/e2studio_2021_01_workspace_RZA2M_ANPR/ANPR_RZA2M_RDK/src/tensorflow_lite/src/tensorflow/lite/micro/kernels\kernel_util.h ****   return reinterpret_cast<const T*>(tensor->data.raw);
 759              		.loc 4 63 0
 760 00f4 009096E5 		ldr	r9, [r6]
 761              	.LVL83:
 762              	.LEHB1:
 763              	.LBE684:
 764              	.LBE683:
 190:../src/tensorflow_lite/src/tensorflow/lite/micro/kernels/cmsis_nn/pooling.cpp ****                          tflite::micro::GetTensorData<float>(output));
 765              		.loc 1 190 0
 766 00f8 FEFFFFEB 		bl	_ZN6tflite5micro14GetTensorShapeEPK16TfLiteEvalTensor
 767              	.LVL84:
 768              	.LEHE1:
 769              	.LBB685:
 770              	.LBB686:
 771              		.file 5 "C:/Renesas/e2studio_2021_01_workspace_RZA2M_ANPR/ANPR_RZA2M_RDK/src/tensorflow_lite/src/t
   1:C:/Renesas/e2studio_2021_01_workspace_RZA2M_ANPR/ANPR_RZA2M_RDK/src/tensorflow_lite/src/tensorflow/lite/kernels/internal/reference\pooling.h **** /* Copyright 2019 The TensorFlow Authors. All Rights Reserved.
   2:C:/Renesas/e2studio_2021_01_workspace_RZA2M_ANPR/ANPR_RZA2M_RDK/src/tensorflow_lite/src/tensorflow/lite/kernels/internal/reference\pooling.h **** 
   3:C:/Renesas/e2studio_2021_01_workspace_RZA2M_ANPR/ANPR_RZA2M_RDK/src/tensorflow_lite/src/tensorflow/lite/kernels/internal/reference\pooling.h **** Licensed under the Apache License, Version 2.0 (the "License");
   4:C:/Renesas/e2studio_2021_01_workspace_RZA2M_ANPR/ANPR_RZA2M_RDK/src/tensorflow_lite/src/tensorflow/lite/kernels/internal/reference\pooling.h **** you may not use this file except in compliance with the License.
   5:C:/Renesas/e2studio_2021_01_workspace_RZA2M_ANPR/ANPR_RZA2M_RDK/src/tensorflow_lite/src/tensorflow/lite/kernels/internal/reference\pooling.h **** You may obtain a copy of the License at
   6:C:/Renesas/e2studio_2021_01_workspace_RZA2M_ANPR/ANPR_RZA2M_RDK/src/tensorflow_lite/src/tensorflow/lite/kernels/internal/reference\pooling.h **** 
   7:C:/Renesas/e2studio_2021_01_workspace_RZA2M_ANPR/ANPR_RZA2M_RDK/src/tensorflow_lite/src/tensorflow/lite/kernels/internal/reference\pooling.h ****     http://www.apache.org/licenses/LICENSE-2.0
   8:C:/Renesas/e2studio_2021_01_workspace_RZA2M_ANPR/ANPR_RZA2M_RDK/src/tensorflow_lite/src/tensorflow/lite/kernels/internal/reference\pooling.h **** 
   9:C:/Renesas/e2studio_2021_01_workspace_RZA2M_ANPR/ANPR_RZA2M_RDK/src/tensorflow_lite/src/tensorflow/lite/kernels/internal/reference\pooling.h **** Unless required by applicable law or agreed to in writing, software
  10:C:/Renesas/e2studio_2021_01_workspace_RZA2M_ANPR/ANPR_RZA2M_RDK/src/tensorflow_lite/src/tensorflow/lite/kernels/internal/reference\pooling.h **** distributed under the License is distributed on an "AS IS" BASIS,
  11:C:/Renesas/e2studio_2021_01_workspace_RZA2M_ANPR/ANPR_RZA2M_RDK/src/tensorflow_lite/src/tensorflow/lite/kernels/internal/reference\pooling.h **** WITHOUT WARRANTIES OR CONDITIONS OF ANY KIND, either express or implied.
  12:C:/Renesas/e2studio_2021_01_workspace_RZA2M_ANPR/ANPR_RZA2M_RDK/src/tensorflow_lite/src/tensorflow/lite/kernels/internal/reference\pooling.h **** See the License for the specific language governing permissions and
  13:C:/Renesas/e2studio_2021_01_workspace_RZA2M_ANPR/ANPR_RZA2M_RDK/src/tensorflow_lite/src/tensorflow/lite/kernels/internal/reference\pooling.h **** limitations under the License.
  14:C:/Renesas/e2studio_2021_01_workspace_RZA2M_ANPR/ANPR_RZA2M_RDK/src/tensorflow_lite/src/tensorflow/lite/kernels/internal/reference\pooling.h **** ==============================================================================*/
  15:C:/Renesas/e2studio_2021_01_workspace_RZA2M_ANPR/ANPR_RZA2M_RDK/src/tensorflow_lite/src/tensorflow/lite/kernels/internal/reference\pooling.h **** #ifndef TENSORFLOW_LITE_KERNELS_INTERNAL_REFERENCE_POOLING_H_
  16:C:/Renesas/e2studio_2021_01_workspace_RZA2M_ANPR/ANPR_RZA2M_RDK/src/tensorflow_lite/src/tensorflow/lite/kernels/internal/reference\pooling.h **** #define TENSORFLOW_LITE_KERNELS_INTERNAL_REFERENCE_POOLING_H_
  17:C:/Renesas/e2studio_2021_01_workspace_RZA2M_ANPR/ANPR_RZA2M_RDK/src/tensorflow_lite/src/tensorflow/lite/kernels/internal/reference\pooling.h **** 
  18:C:/Renesas/e2studio_2021_01_workspace_RZA2M_ANPR/ANPR_RZA2M_RDK/src/tensorflow_lite/src/tensorflow/lite/kernels/internal/reference\pooling.h **** #include "tensorflow/lite/kernels/internal/common.h"
  19:C:/Renesas/e2studio_2021_01_workspace_RZA2M_ANPR/ANPR_RZA2M_RDK/src/tensorflow_lite/src/tensorflow/lite/kernels/internal/reference\pooling.h **** #include "tensorflow/lite/kernels/internal/cppmath.h"
  20:C:/Renesas/e2studio_2021_01_workspace_RZA2M_ANPR/ANPR_RZA2M_RDK/src/tensorflow_lite/src/tensorflow/lite/kernels/internal/reference\pooling.h **** #include "tensorflow/lite/kernels/internal/quantization_util.h"
  21:C:/Renesas/e2studio_2021_01_workspace_RZA2M_ANPR/ANPR_RZA2M_RDK/src/tensorflow_lite/src/tensorflow/lite/kernels/internal/reference\pooling.h **** #include "tensorflow/lite/kernels/internal/types.h"
  22:C:/Renesas/e2studio_2021_01_workspace_RZA2M_ANPR/ANPR_RZA2M_RDK/src/tensorflow_lite/src/tensorflow/lite/kernels/internal/reference\pooling.h **** 
  23:C:/Renesas/e2studio_2021_01_workspace_RZA2M_ANPR/ANPR_RZA2M_RDK/src/tensorflow_lite/src/tensorflow/lite/kernels/internal/reference\pooling.h **** namespace tflite {
  24:C:/Renesas/e2studio_2021_01_workspace_RZA2M_ANPR/ANPR_RZA2M_RDK/src/tensorflow_lite/src/tensorflow/lite/kernels/internal/reference\pooling.h **** namespace reference_ops {
  25:C:/Renesas/e2studio_2021_01_workspace_RZA2M_ANPR/ANPR_RZA2M_RDK/src/tensorflow_lite/src/tensorflow/lite/kernels/internal/reference\pooling.h **** 
  26:C:/Renesas/e2studio_2021_01_workspace_RZA2M_ANPR/ANPR_RZA2M_RDK/src/tensorflow_lite/src/tensorflow/lite/kernels/internal/reference\pooling.h **** inline void AveragePool(const PoolParams& params,
  27:C:/Renesas/e2studio_2021_01_workspace_RZA2M_ANPR/ANPR_RZA2M_RDK/src/tensorflow_lite/src/tensorflow/lite/kernels/internal/reference\pooling.h ****                         const RuntimeShape& input_shape,
  28:C:/Renesas/e2studio_2021_01_workspace_RZA2M_ANPR/ANPR_RZA2M_RDK/src/tensorflow_lite/src/tensorflow/lite/kernels/internal/reference\pooling.h ****                         const float* input_data,
  29:C:/Renesas/e2studio_2021_01_workspace_RZA2M_ANPR/ANPR_RZA2M_RDK/src/tensorflow_lite/src/tensorflow/lite/kernels/internal/reference\pooling.h ****                         const RuntimeShape& output_shape, float* output_data) {
  30:C:/Renesas/e2studio_2021_01_workspace_RZA2M_ANPR/ANPR_RZA2M_RDK/src/tensorflow_lite/src/tensorflow/lite/kernels/internal/reference\pooling.h ****   TFLITE_DCHECK_EQ(input_shape.DimensionsCount(), 4);
  31:C:/Renesas/e2studio_2021_01_workspace_RZA2M_ANPR/ANPR_RZA2M_RDK/src/tensorflow_lite/src/tensorflow/lite/kernels/internal/reference\pooling.h ****   TFLITE_DCHECK_EQ(output_shape.DimensionsCount(), 4);
  32:C:/Renesas/e2studio_2021_01_workspace_RZA2M_ANPR/ANPR_RZA2M_RDK/src/tensorflow_lite/src/tensorflow/lite/kernels/internal/reference\pooling.h ****   const int batches = MatchingDim(input_shape, 0, output_shape, 0);
  33:C:/Renesas/e2studio_2021_01_workspace_RZA2M_ANPR/ANPR_RZA2M_RDK/src/tensorflow_lite/src/tensorflow/lite/kernels/internal/reference\pooling.h ****   const int depth = MatchingDim(input_shape, 3, output_shape, 3);
  34:C:/Renesas/e2studio_2021_01_workspace_RZA2M_ANPR/ANPR_RZA2M_RDK/src/tensorflow_lite/src/tensorflow/lite/kernels/internal/reference\pooling.h ****   const int input_height = input_shape.Dims(1);
  35:C:/Renesas/e2studio_2021_01_workspace_RZA2M_ANPR/ANPR_RZA2M_RDK/src/tensorflow_lite/src/tensorflow/lite/kernels/internal/reference\pooling.h ****   const int input_width = input_shape.Dims(2);
  36:C:/Renesas/e2studio_2021_01_workspace_RZA2M_ANPR/ANPR_RZA2M_RDK/src/tensorflow_lite/src/tensorflow/lite/kernels/internal/reference\pooling.h ****   const int output_height = output_shape.Dims(1);
  37:C:/Renesas/e2studio_2021_01_workspace_RZA2M_ANPR/ANPR_RZA2M_RDK/src/tensorflow_lite/src/tensorflow/lite/kernels/internal/reference\pooling.h ****   const int output_width = output_shape.Dims(2);
  38:C:/Renesas/e2studio_2021_01_workspace_RZA2M_ANPR/ANPR_RZA2M_RDK/src/tensorflow_lite/src/tensorflow/lite/kernels/internal/reference\pooling.h ****   const int stride_height = params.stride_height;
  39:C:/Renesas/e2studio_2021_01_workspace_RZA2M_ANPR/ANPR_RZA2M_RDK/src/tensorflow_lite/src/tensorflow/lite/kernels/internal/reference\pooling.h ****   const int stride_width = params.stride_width;
  40:C:/Renesas/e2studio_2021_01_workspace_RZA2M_ANPR/ANPR_RZA2M_RDK/src/tensorflow_lite/src/tensorflow/lite/kernels/internal/reference\pooling.h ****   for (int batch = 0; batch < batches; ++batch) {
  41:C:/Renesas/e2studio_2021_01_workspace_RZA2M_ANPR/ANPR_RZA2M_RDK/src/tensorflow_lite/src/tensorflow/lite/kernels/internal/reference\pooling.h ****     for (int out_y = 0; out_y < output_height; ++out_y) {
  42:C:/Renesas/e2studio_2021_01_workspace_RZA2M_ANPR/ANPR_RZA2M_RDK/src/tensorflow_lite/src/tensorflow/lite/kernels/internal/reference\pooling.h ****       for (int out_x = 0; out_x < output_width; ++out_x) {
  43:C:/Renesas/e2studio_2021_01_workspace_RZA2M_ANPR/ANPR_RZA2M_RDK/src/tensorflow_lite/src/tensorflow/lite/kernels/internal/reference\pooling.h ****         for (int channel = 0; channel < depth; ++channel) {
  44:C:/Renesas/e2studio_2021_01_workspace_RZA2M_ANPR/ANPR_RZA2M_RDK/src/tensorflow_lite/src/tensorflow/lite/kernels/internal/reference\pooling.h ****           const int in_x_origin =
  45:C:/Renesas/e2studio_2021_01_workspace_RZA2M_ANPR/ANPR_RZA2M_RDK/src/tensorflow_lite/src/tensorflow/lite/kernels/internal/reference\pooling.h ****               (out_x * stride_width) - params.padding_values.width;
  46:C:/Renesas/e2studio_2021_01_workspace_RZA2M_ANPR/ANPR_RZA2M_RDK/src/tensorflow_lite/src/tensorflow/lite/kernels/internal/reference\pooling.h ****           const int in_y_origin =
  47:C:/Renesas/e2studio_2021_01_workspace_RZA2M_ANPR/ANPR_RZA2M_RDK/src/tensorflow_lite/src/tensorflow/lite/kernels/internal/reference\pooling.h ****               (out_y * stride_height) - params.padding_values.height;
  48:C:/Renesas/e2studio_2021_01_workspace_RZA2M_ANPR/ANPR_RZA2M_RDK/src/tensorflow_lite/src/tensorflow/lite/kernels/internal/reference\pooling.h ****           // Compute the boundaries of the filter region clamped so as to
  49:C:/Renesas/e2studio_2021_01_workspace_RZA2M_ANPR/ANPR_RZA2M_RDK/src/tensorflow_lite/src/tensorflow/lite/kernels/internal/reference\pooling.h ****           // ensure that the filter window fits in the input array.
  50:C:/Renesas/e2studio_2021_01_workspace_RZA2M_ANPR/ANPR_RZA2M_RDK/src/tensorflow_lite/src/tensorflow/lite/kernels/internal/reference\pooling.h ****           const int filter_x_start = std::max(0, -in_x_origin);
  51:C:/Renesas/e2studio_2021_01_workspace_RZA2M_ANPR/ANPR_RZA2M_RDK/src/tensorflow_lite/src/tensorflow/lite/kernels/internal/reference\pooling.h ****           const int filter_x_end =
  52:C:/Renesas/e2studio_2021_01_workspace_RZA2M_ANPR/ANPR_RZA2M_RDK/src/tensorflow_lite/src/tensorflow/lite/kernels/internal/reference\pooling.h ****               std::min(params.filter_width, input_width - in_x_origin);
  53:C:/Renesas/e2studio_2021_01_workspace_RZA2M_ANPR/ANPR_RZA2M_RDK/src/tensorflow_lite/src/tensorflow/lite/kernels/internal/reference\pooling.h ****           const int filter_y_start = std::max(0, -in_y_origin);
  54:C:/Renesas/e2studio_2021_01_workspace_RZA2M_ANPR/ANPR_RZA2M_RDK/src/tensorflow_lite/src/tensorflow/lite/kernels/internal/reference\pooling.h ****           const int filter_y_end =
  55:C:/Renesas/e2studio_2021_01_workspace_RZA2M_ANPR/ANPR_RZA2M_RDK/src/tensorflow_lite/src/tensorflow/lite/kernels/internal/reference\pooling.h ****               std::min(params.filter_height, input_height - in_y_origin);
  56:C:/Renesas/e2studio_2021_01_workspace_RZA2M_ANPR/ANPR_RZA2M_RDK/src/tensorflow_lite/src/tensorflow/lite/kernels/internal/reference\pooling.h ****           float total = 0.f;
  57:C:/Renesas/e2studio_2021_01_workspace_RZA2M_ANPR/ANPR_RZA2M_RDK/src/tensorflow_lite/src/tensorflow/lite/kernels/internal/reference\pooling.h ****           float filter_count = 0;
  58:C:/Renesas/e2studio_2021_01_workspace_RZA2M_ANPR/ANPR_RZA2M_RDK/src/tensorflow_lite/src/tensorflow/lite/kernels/internal/reference\pooling.h ****           for (int filter_y = filter_y_start; filter_y < filter_y_end;
  59:C:/Renesas/e2studio_2021_01_workspace_RZA2M_ANPR/ANPR_RZA2M_RDK/src/tensorflow_lite/src/tensorflow/lite/kernels/internal/reference\pooling.h ****                ++filter_y) {
  60:C:/Renesas/e2studio_2021_01_workspace_RZA2M_ANPR/ANPR_RZA2M_RDK/src/tensorflow_lite/src/tensorflow/lite/kernels/internal/reference\pooling.h ****             for (int filter_x = filter_x_start; filter_x < filter_x_end;
  61:C:/Renesas/e2studio_2021_01_workspace_RZA2M_ANPR/ANPR_RZA2M_RDK/src/tensorflow_lite/src/tensorflow/lite/kernels/internal/reference\pooling.h ****                  ++filter_x) {
  62:C:/Renesas/e2studio_2021_01_workspace_RZA2M_ANPR/ANPR_RZA2M_RDK/src/tensorflow_lite/src/tensorflow/lite/kernels/internal/reference\pooling.h ****               const int in_x = in_x_origin + filter_x;
  63:C:/Renesas/e2studio_2021_01_workspace_RZA2M_ANPR/ANPR_RZA2M_RDK/src/tensorflow_lite/src/tensorflow/lite/kernels/internal/reference\pooling.h ****               const int in_y = in_y_origin + filter_y;
  64:C:/Renesas/e2studio_2021_01_workspace_RZA2M_ANPR/ANPR_RZA2M_RDK/src/tensorflow_lite/src/tensorflow/lite/kernels/internal/reference\pooling.h ****               total +=
  65:C:/Renesas/e2studio_2021_01_workspace_RZA2M_ANPR/ANPR_RZA2M_RDK/src/tensorflow_lite/src/tensorflow/lite/kernels/internal/reference\pooling.h ****                   input_data[Offset(input_shape, batch, in_y, in_x, channel)];
  66:C:/Renesas/e2studio_2021_01_workspace_RZA2M_ANPR/ANPR_RZA2M_RDK/src/tensorflow_lite/src/tensorflow/lite/kernels/internal/reference\pooling.h ****               filter_count++;
  67:C:/Renesas/e2studio_2021_01_workspace_RZA2M_ANPR/ANPR_RZA2M_RDK/src/tensorflow_lite/src/tensorflow/lite/kernels/internal/reference\pooling.h ****             }
  68:C:/Renesas/e2studio_2021_01_workspace_RZA2M_ANPR/ANPR_RZA2M_RDK/src/tensorflow_lite/src/tensorflow/lite/kernels/internal/reference\pooling.h ****           }
  69:C:/Renesas/e2studio_2021_01_workspace_RZA2M_ANPR/ANPR_RZA2M_RDK/src/tensorflow_lite/src/tensorflow/lite/kernels/internal/reference\pooling.h ****           const float average = total / filter_count;
  70:C:/Renesas/e2studio_2021_01_workspace_RZA2M_ANPR/ANPR_RZA2M_RDK/src/tensorflow_lite/src/tensorflow/lite/kernels/internal/reference\pooling.h ****           output_data[Offset(output_shape, batch, out_y, out_x, channel)] =
  71:C:/Renesas/e2studio_2021_01_workspace_RZA2M_ANPR/ANPR_RZA2M_RDK/src/tensorflow_lite/src/tensorflow/lite/kernels/internal/reference\pooling.h ****               ActivationFunctionWithMinMax(average, params.float_activation_min,
  72:C:/Renesas/e2studio_2021_01_workspace_RZA2M_ANPR/ANPR_RZA2M_RDK/src/tensorflow_lite/src/tensorflow/lite/kernels/internal/reference\pooling.h ****                                            params.float_activation_max);
  73:C:/Renesas/e2studio_2021_01_workspace_RZA2M_ANPR/ANPR_RZA2M_RDK/src/tensorflow_lite/src/tensorflow/lite/kernels/internal/reference\pooling.h ****         }
  74:C:/Renesas/e2studio_2021_01_workspace_RZA2M_ANPR/ANPR_RZA2M_RDK/src/tensorflow_lite/src/tensorflow/lite/kernels/internal/reference\pooling.h ****       }
  75:C:/Renesas/e2studio_2021_01_workspace_RZA2M_ANPR/ANPR_RZA2M_RDK/src/tensorflow_lite/src/tensorflow/lite/kernels/internal/reference\pooling.h ****     }
  76:C:/Renesas/e2studio_2021_01_workspace_RZA2M_ANPR/ANPR_RZA2M_RDK/src/tensorflow_lite/src/tensorflow/lite/kernels/internal/reference\pooling.h ****   }
  77:C:/Renesas/e2studio_2021_01_workspace_RZA2M_ANPR/ANPR_RZA2M_RDK/src/tensorflow_lite/src/tensorflow/lite/kernels/internal/reference\pooling.h **** }
  78:C:/Renesas/e2studio_2021_01_workspace_RZA2M_ANPR/ANPR_RZA2M_RDK/src/tensorflow_lite/src/tensorflow/lite/kernels/internal/reference\pooling.h **** 
  79:C:/Renesas/e2studio_2021_01_workspace_RZA2M_ANPR/ANPR_RZA2M_RDK/src/tensorflow_lite/src/tensorflow/lite/kernels/internal/reference\pooling.h **** inline void AveragePool(const PoolParams& params,
  80:C:/Renesas/e2studio_2021_01_workspace_RZA2M_ANPR/ANPR_RZA2M_RDK/src/tensorflow_lite/src/tensorflow/lite/kernels/internal/reference\pooling.h ****                         const RuntimeShape& input_shape,
  81:C:/Renesas/e2studio_2021_01_workspace_RZA2M_ANPR/ANPR_RZA2M_RDK/src/tensorflow_lite/src/tensorflow/lite/kernels/internal/reference\pooling.h ****                         const uint8_t* input_data,
  82:C:/Renesas/e2studio_2021_01_workspace_RZA2M_ANPR/ANPR_RZA2M_RDK/src/tensorflow_lite/src/tensorflow/lite/kernels/internal/reference\pooling.h ****                         const RuntimeShape& output_shape,
  83:C:/Renesas/e2studio_2021_01_workspace_RZA2M_ANPR/ANPR_RZA2M_RDK/src/tensorflow_lite/src/tensorflow/lite/kernels/internal/reference\pooling.h ****                         uint8_t* output_data) {
  84:C:/Renesas/e2studio_2021_01_workspace_RZA2M_ANPR/ANPR_RZA2M_RDK/src/tensorflow_lite/src/tensorflow/lite/kernels/internal/reference\pooling.h ****   TFLITE_DCHECK_LE(params.quantized_activation_min,
  85:C:/Renesas/e2studio_2021_01_workspace_RZA2M_ANPR/ANPR_RZA2M_RDK/src/tensorflow_lite/src/tensorflow/lite/kernels/internal/reference\pooling.h ****                    params.quantized_activation_max);
  86:C:/Renesas/e2studio_2021_01_workspace_RZA2M_ANPR/ANPR_RZA2M_RDK/src/tensorflow_lite/src/tensorflow/lite/kernels/internal/reference\pooling.h ****   TFLITE_DCHECK_EQ(input_shape.DimensionsCount(), 4);
  87:C:/Renesas/e2studio_2021_01_workspace_RZA2M_ANPR/ANPR_RZA2M_RDK/src/tensorflow_lite/src/tensorflow/lite/kernels/internal/reference\pooling.h ****   TFLITE_DCHECK_EQ(output_shape.DimensionsCount(), 4);
  88:C:/Renesas/e2studio_2021_01_workspace_RZA2M_ANPR/ANPR_RZA2M_RDK/src/tensorflow_lite/src/tensorflow/lite/kernels/internal/reference\pooling.h ****   const int batches = MatchingDim(input_shape, 0, output_shape, 0);
  89:C:/Renesas/e2studio_2021_01_workspace_RZA2M_ANPR/ANPR_RZA2M_RDK/src/tensorflow_lite/src/tensorflow/lite/kernels/internal/reference\pooling.h ****   const int depth = MatchingDim(input_shape, 3, output_shape, 3);
  90:C:/Renesas/e2studio_2021_01_workspace_RZA2M_ANPR/ANPR_RZA2M_RDK/src/tensorflow_lite/src/tensorflow/lite/kernels/internal/reference\pooling.h ****   const int input_height = input_shape.Dims(1);
  91:C:/Renesas/e2studio_2021_01_workspace_RZA2M_ANPR/ANPR_RZA2M_RDK/src/tensorflow_lite/src/tensorflow/lite/kernels/internal/reference\pooling.h ****   const int input_width = input_shape.Dims(2);
  92:C:/Renesas/e2studio_2021_01_workspace_RZA2M_ANPR/ANPR_RZA2M_RDK/src/tensorflow_lite/src/tensorflow/lite/kernels/internal/reference\pooling.h ****   const int output_height = output_shape.Dims(1);
  93:C:/Renesas/e2studio_2021_01_workspace_RZA2M_ANPR/ANPR_RZA2M_RDK/src/tensorflow_lite/src/tensorflow/lite/kernels/internal/reference\pooling.h ****   const int output_width = output_shape.Dims(2);
  94:C:/Renesas/e2studio_2021_01_workspace_RZA2M_ANPR/ANPR_RZA2M_RDK/src/tensorflow_lite/src/tensorflow/lite/kernels/internal/reference\pooling.h ****   const int stride_height = params.stride_height;
  95:C:/Renesas/e2studio_2021_01_workspace_RZA2M_ANPR/ANPR_RZA2M_RDK/src/tensorflow_lite/src/tensorflow/lite/kernels/internal/reference\pooling.h ****   const int stride_width = params.stride_width;
  96:C:/Renesas/e2studio_2021_01_workspace_RZA2M_ANPR/ANPR_RZA2M_RDK/src/tensorflow_lite/src/tensorflow/lite/kernels/internal/reference\pooling.h ****   for (int batch = 0; batch < batches; ++batch) {
  97:C:/Renesas/e2studio_2021_01_workspace_RZA2M_ANPR/ANPR_RZA2M_RDK/src/tensorflow_lite/src/tensorflow/lite/kernels/internal/reference\pooling.h ****     for (int out_y = 0; out_y < output_height; ++out_y) {
  98:C:/Renesas/e2studio_2021_01_workspace_RZA2M_ANPR/ANPR_RZA2M_RDK/src/tensorflow_lite/src/tensorflow/lite/kernels/internal/reference\pooling.h ****       for (int out_x = 0; out_x < output_width; ++out_x) {
  99:C:/Renesas/e2studio_2021_01_workspace_RZA2M_ANPR/ANPR_RZA2M_RDK/src/tensorflow_lite/src/tensorflow/lite/kernels/internal/reference\pooling.h ****         for (int channel = 0; channel < depth; ++channel) {
 100:C:/Renesas/e2studio_2021_01_workspace_RZA2M_ANPR/ANPR_RZA2M_RDK/src/tensorflow_lite/src/tensorflow/lite/kernels/internal/reference\pooling.h ****           const int in_x_origin =
 101:C:/Renesas/e2studio_2021_01_workspace_RZA2M_ANPR/ANPR_RZA2M_RDK/src/tensorflow_lite/src/tensorflow/lite/kernels/internal/reference\pooling.h ****               (out_x * stride_width) - params.padding_values.width;
 102:C:/Renesas/e2studio_2021_01_workspace_RZA2M_ANPR/ANPR_RZA2M_RDK/src/tensorflow_lite/src/tensorflow/lite/kernels/internal/reference\pooling.h ****           const int in_y_origin =
 103:C:/Renesas/e2studio_2021_01_workspace_RZA2M_ANPR/ANPR_RZA2M_RDK/src/tensorflow_lite/src/tensorflow/lite/kernels/internal/reference\pooling.h ****               (out_y * stride_height) - params.padding_values.height;
 104:C:/Renesas/e2studio_2021_01_workspace_RZA2M_ANPR/ANPR_RZA2M_RDK/src/tensorflow_lite/src/tensorflow/lite/kernels/internal/reference\pooling.h ****           // Compute the boundaries of the filter region clamped so as to
 105:C:/Renesas/e2studio_2021_01_workspace_RZA2M_ANPR/ANPR_RZA2M_RDK/src/tensorflow_lite/src/tensorflow/lite/kernels/internal/reference\pooling.h ****           // ensure that the filter window fits in the input array.
 106:C:/Renesas/e2studio_2021_01_workspace_RZA2M_ANPR/ANPR_RZA2M_RDK/src/tensorflow_lite/src/tensorflow/lite/kernels/internal/reference\pooling.h ****           const int filter_x_start = std::max(0, -in_x_origin);
 107:C:/Renesas/e2studio_2021_01_workspace_RZA2M_ANPR/ANPR_RZA2M_RDK/src/tensorflow_lite/src/tensorflow/lite/kernels/internal/reference\pooling.h ****           const int filter_x_end =
 108:C:/Renesas/e2studio_2021_01_workspace_RZA2M_ANPR/ANPR_RZA2M_RDK/src/tensorflow_lite/src/tensorflow/lite/kernels/internal/reference\pooling.h ****               std::min(params.filter_width, input_width - in_x_origin);
 109:C:/Renesas/e2studio_2021_01_workspace_RZA2M_ANPR/ANPR_RZA2M_RDK/src/tensorflow_lite/src/tensorflow/lite/kernels/internal/reference\pooling.h ****           const int filter_y_start = std::max(0, -in_y_origin);
 110:C:/Renesas/e2studio_2021_01_workspace_RZA2M_ANPR/ANPR_RZA2M_RDK/src/tensorflow_lite/src/tensorflow/lite/kernels/internal/reference\pooling.h ****           const int filter_y_end =
 111:C:/Renesas/e2studio_2021_01_workspace_RZA2M_ANPR/ANPR_RZA2M_RDK/src/tensorflow_lite/src/tensorflow/lite/kernels/internal/reference\pooling.h ****               std::min(params.filter_height, input_height - in_y_origin);
 112:C:/Renesas/e2studio_2021_01_workspace_RZA2M_ANPR/ANPR_RZA2M_RDK/src/tensorflow_lite/src/tensorflow/lite/kernels/internal/reference\pooling.h ****           int32_t acc = 0;
 113:C:/Renesas/e2studio_2021_01_workspace_RZA2M_ANPR/ANPR_RZA2M_RDK/src/tensorflow_lite/src/tensorflow/lite/kernels/internal/reference\pooling.h ****           int filter_count = 0;
 114:C:/Renesas/e2studio_2021_01_workspace_RZA2M_ANPR/ANPR_RZA2M_RDK/src/tensorflow_lite/src/tensorflow/lite/kernels/internal/reference\pooling.h ****           for (int filter_y = filter_y_start; filter_y < filter_y_end;
 115:C:/Renesas/e2studio_2021_01_workspace_RZA2M_ANPR/ANPR_RZA2M_RDK/src/tensorflow_lite/src/tensorflow/lite/kernels/internal/reference\pooling.h ****                ++filter_y) {
 116:C:/Renesas/e2studio_2021_01_workspace_RZA2M_ANPR/ANPR_RZA2M_RDK/src/tensorflow_lite/src/tensorflow/lite/kernels/internal/reference\pooling.h ****             for (int filter_x = filter_x_start; filter_x < filter_x_end;
 117:C:/Renesas/e2studio_2021_01_workspace_RZA2M_ANPR/ANPR_RZA2M_RDK/src/tensorflow_lite/src/tensorflow/lite/kernels/internal/reference\pooling.h ****                  ++filter_x) {
 118:C:/Renesas/e2studio_2021_01_workspace_RZA2M_ANPR/ANPR_RZA2M_RDK/src/tensorflow_lite/src/tensorflow/lite/kernels/internal/reference\pooling.h ****               const int in_x = in_x_origin + filter_x;
 119:C:/Renesas/e2studio_2021_01_workspace_RZA2M_ANPR/ANPR_RZA2M_RDK/src/tensorflow_lite/src/tensorflow/lite/kernels/internal/reference\pooling.h ****               const int in_y = in_y_origin + filter_y;
 120:C:/Renesas/e2studio_2021_01_workspace_RZA2M_ANPR/ANPR_RZA2M_RDK/src/tensorflow_lite/src/tensorflow/lite/kernels/internal/reference\pooling.h ****               acc +=
 121:C:/Renesas/e2studio_2021_01_workspace_RZA2M_ANPR/ANPR_RZA2M_RDK/src/tensorflow_lite/src/tensorflow/lite/kernels/internal/reference\pooling.h ****                   input_data[Offset(input_shape, batch, in_y, in_x, channel)];
 122:C:/Renesas/e2studio_2021_01_workspace_RZA2M_ANPR/ANPR_RZA2M_RDK/src/tensorflow_lite/src/tensorflow/lite/kernels/internal/reference\pooling.h ****               filter_count++;
 123:C:/Renesas/e2studio_2021_01_workspace_RZA2M_ANPR/ANPR_RZA2M_RDK/src/tensorflow_lite/src/tensorflow/lite/kernels/internal/reference\pooling.h ****             }
 124:C:/Renesas/e2studio_2021_01_workspace_RZA2M_ANPR/ANPR_RZA2M_RDK/src/tensorflow_lite/src/tensorflow/lite/kernels/internal/reference\pooling.h ****           }
 125:C:/Renesas/e2studio_2021_01_workspace_RZA2M_ANPR/ANPR_RZA2M_RDK/src/tensorflow_lite/src/tensorflow/lite/kernels/internal/reference\pooling.h ****           acc = (acc + filter_count / 2) / filter_count;
 126:C:/Renesas/e2studio_2021_01_workspace_RZA2M_ANPR/ANPR_RZA2M_RDK/src/tensorflow_lite/src/tensorflow/lite/kernels/internal/reference\pooling.h ****           acc = std::max(acc, params.quantized_activation_min);
 127:C:/Renesas/e2studio_2021_01_workspace_RZA2M_ANPR/ANPR_RZA2M_RDK/src/tensorflow_lite/src/tensorflow/lite/kernels/internal/reference\pooling.h ****           acc = std::min(acc, params.quantized_activation_max);
 128:C:/Renesas/e2studio_2021_01_workspace_RZA2M_ANPR/ANPR_RZA2M_RDK/src/tensorflow_lite/src/tensorflow/lite/kernels/internal/reference\pooling.h ****           output_data[Offset(output_shape, batch, out_y, out_x, channel)] =
 129:C:/Renesas/e2studio_2021_01_workspace_RZA2M_ANPR/ANPR_RZA2M_RDK/src/tensorflow_lite/src/tensorflow/lite/kernels/internal/reference\pooling.h ****               static_cast<uint8_t>(acc);
 130:C:/Renesas/e2studio_2021_01_workspace_RZA2M_ANPR/ANPR_RZA2M_RDK/src/tensorflow_lite/src/tensorflow/lite/kernels/internal/reference\pooling.h ****         }
 131:C:/Renesas/e2studio_2021_01_workspace_RZA2M_ANPR/ANPR_RZA2M_RDK/src/tensorflow_lite/src/tensorflow/lite/kernels/internal/reference\pooling.h ****       }
 132:C:/Renesas/e2studio_2021_01_workspace_RZA2M_ANPR/ANPR_RZA2M_RDK/src/tensorflow_lite/src/tensorflow/lite/kernels/internal/reference\pooling.h ****     }
 133:C:/Renesas/e2studio_2021_01_workspace_RZA2M_ANPR/ANPR_RZA2M_RDK/src/tensorflow_lite/src/tensorflow/lite/kernels/internal/reference\pooling.h ****   }
 134:C:/Renesas/e2studio_2021_01_workspace_RZA2M_ANPR/ANPR_RZA2M_RDK/src/tensorflow_lite/src/tensorflow/lite/kernels/internal/reference\pooling.h **** }
 135:C:/Renesas/e2studio_2021_01_workspace_RZA2M_ANPR/ANPR_RZA2M_RDK/src/tensorflow_lite/src/tensorflow/lite/kernels/internal/reference\pooling.h **** 
 136:C:/Renesas/e2studio_2021_01_workspace_RZA2M_ANPR/ANPR_RZA2M_RDK/src/tensorflow_lite/src/tensorflow/lite/kernels/internal/reference\pooling.h **** inline void L2Pool(const PoolParams& params, const RuntimeShape& input_shape,
 137:C:/Renesas/e2studio_2021_01_workspace_RZA2M_ANPR/ANPR_RZA2M_RDK/src/tensorflow_lite/src/tensorflow/lite/kernels/internal/reference\pooling.h ****                    const float* input_data, const RuntimeShape& output_shape,
 138:C:/Renesas/e2studio_2021_01_workspace_RZA2M_ANPR/ANPR_RZA2M_RDK/src/tensorflow_lite/src/tensorflow/lite/kernels/internal/reference\pooling.h ****                    float* output_data) {
 139:C:/Renesas/e2studio_2021_01_workspace_RZA2M_ANPR/ANPR_RZA2M_RDK/src/tensorflow_lite/src/tensorflow/lite/kernels/internal/reference\pooling.h ****   TFLITE_DCHECK_EQ(input_shape.DimensionsCount(), 4);
 140:C:/Renesas/e2studio_2021_01_workspace_RZA2M_ANPR/ANPR_RZA2M_RDK/src/tensorflow_lite/src/tensorflow/lite/kernels/internal/reference\pooling.h ****   TFLITE_DCHECK_EQ(output_shape.DimensionsCount(), 4);
 141:C:/Renesas/e2studio_2021_01_workspace_RZA2M_ANPR/ANPR_RZA2M_RDK/src/tensorflow_lite/src/tensorflow/lite/kernels/internal/reference\pooling.h ****   const int batches = MatchingDim(input_shape, 0, output_shape, 0);
 142:C:/Renesas/e2studio_2021_01_workspace_RZA2M_ANPR/ANPR_RZA2M_RDK/src/tensorflow_lite/src/tensorflow/lite/kernels/internal/reference\pooling.h ****   const int depth = MatchingDim(input_shape, 3, output_shape, 3);
 143:C:/Renesas/e2studio_2021_01_workspace_RZA2M_ANPR/ANPR_RZA2M_RDK/src/tensorflow_lite/src/tensorflow/lite/kernels/internal/reference\pooling.h ****   const int input_height = input_shape.Dims(1);
 144:C:/Renesas/e2studio_2021_01_workspace_RZA2M_ANPR/ANPR_RZA2M_RDK/src/tensorflow_lite/src/tensorflow/lite/kernels/internal/reference\pooling.h ****   const int input_width = input_shape.Dims(2);
 145:C:/Renesas/e2studio_2021_01_workspace_RZA2M_ANPR/ANPR_RZA2M_RDK/src/tensorflow_lite/src/tensorflow/lite/kernels/internal/reference\pooling.h ****   const int output_height = output_shape.Dims(1);
 146:C:/Renesas/e2studio_2021_01_workspace_RZA2M_ANPR/ANPR_RZA2M_RDK/src/tensorflow_lite/src/tensorflow/lite/kernels/internal/reference\pooling.h ****   const int output_width = output_shape.Dims(2);
 147:C:/Renesas/e2studio_2021_01_workspace_RZA2M_ANPR/ANPR_RZA2M_RDK/src/tensorflow_lite/src/tensorflow/lite/kernels/internal/reference\pooling.h ****   const int stride_height = params.stride_height;
 148:C:/Renesas/e2studio_2021_01_workspace_RZA2M_ANPR/ANPR_RZA2M_RDK/src/tensorflow_lite/src/tensorflow/lite/kernels/internal/reference\pooling.h ****   const int stride_width = params.stride_width;
 149:C:/Renesas/e2studio_2021_01_workspace_RZA2M_ANPR/ANPR_RZA2M_RDK/src/tensorflow_lite/src/tensorflow/lite/kernels/internal/reference\pooling.h ****   for (int batch = 0; batch < batches; ++batch) {
 150:C:/Renesas/e2studio_2021_01_workspace_RZA2M_ANPR/ANPR_RZA2M_RDK/src/tensorflow_lite/src/tensorflow/lite/kernels/internal/reference\pooling.h ****     for (int out_y = 0; out_y < output_height; ++out_y) {
 151:C:/Renesas/e2studio_2021_01_workspace_RZA2M_ANPR/ANPR_RZA2M_RDK/src/tensorflow_lite/src/tensorflow/lite/kernels/internal/reference\pooling.h ****       for (int out_x = 0; out_x < output_width; ++out_x) {
 152:C:/Renesas/e2studio_2021_01_workspace_RZA2M_ANPR/ANPR_RZA2M_RDK/src/tensorflow_lite/src/tensorflow/lite/kernels/internal/reference\pooling.h ****         for (int channel = 0; channel < depth; ++channel) {
 153:C:/Renesas/e2studio_2021_01_workspace_RZA2M_ANPR/ANPR_RZA2M_RDK/src/tensorflow_lite/src/tensorflow/lite/kernels/internal/reference\pooling.h ****           const int in_x_origin =
 154:C:/Renesas/e2studio_2021_01_workspace_RZA2M_ANPR/ANPR_RZA2M_RDK/src/tensorflow_lite/src/tensorflow/lite/kernels/internal/reference\pooling.h ****               (out_x * stride_width) - params.padding_values.width;
 155:C:/Renesas/e2studio_2021_01_workspace_RZA2M_ANPR/ANPR_RZA2M_RDK/src/tensorflow_lite/src/tensorflow/lite/kernels/internal/reference\pooling.h ****           const int in_y_origin =
 156:C:/Renesas/e2studio_2021_01_workspace_RZA2M_ANPR/ANPR_RZA2M_RDK/src/tensorflow_lite/src/tensorflow/lite/kernels/internal/reference\pooling.h ****               (out_y * stride_height) - params.padding_values.height;
 157:C:/Renesas/e2studio_2021_01_workspace_RZA2M_ANPR/ANPR_RZA2M_RDK/src/tensorflow_lite/src/tensorflow/lite/kernels/internal/reference\pooling.h ****           // Compute the boundaries of the filter region clamped so as to
 158:C:/Renesas/e2studio_2021_01_workspace_RZA2M_ANPR/ANPR_RZA2M_RDK/src/tensorflow_lite/src/tensorflow/lite/kernels/internal/reference\pooling.h ****           // ensure that the filter window fits in the input array.
 159:C:/Renesas/e2studio_2021_01_workspace_RZA2M_ANPR/ANPR_RZA2M_RDK/src/tensorflow_lite/src/tensorflow/lite/kernels/internal/reference\pooling.h ****           const int filter_x_start = std::max(0, -in_x_origin);
 160:C:/Renesas/e2studio_2021_01_workspace_RZA2M_ANPR/ANPR_RZA2M_RDK/src/tensorflow_lite/src/tensorflow/lite/kernels/internal/reference\pooling.h ****           const int filter_x_end =
 161:C:/Renesas/e2studio_2021_01_workspace_RZA2M_ANPR/ANPR_RZA2M_RDK/src/tensorflow_lite/src/tensorflow/lite/kernels/internal/reference\pooling.h ****               std::min(params.filter_width, input_width - in_x_origin);
 162:C:/Renesas/e2studio_2021_01_workspace_RZA2M_ANPR/ANPR_RZA2M_RDK/src/tensorflow_lite/src/tensorflow/lite/kernels/internal/reference\pooling.h ****           const int filter_y_start = std::max(0, -in_y_origin);
 163:C:/Renesas/e2studio_2021_01_workspace_RZA2M_ANPR/ANPR_RZA2M_RDK/src/tensorflow_lite/src/tensorflow/lite/kernels/internal/reference\pooling.h ****           const int filter_y_end =
 164:C:/Renesas/e2studio_2021_01_workspace_RZA2M_ANPR/ANPR_RZA2M_RDK/src/tensorflow_lite/src/tensorflow/lite/kernels/internal/reference\pooling.h ****               std::min(params.filter_height, input_height - in_y_origin);
 165:C:/Renesas/e2studio_2021_01_workspace_RZA2M_ANPR/ANPR_RZA2M_RDK/src/tensorflow_lite/src/tensorflow/lite/kernels/internal/reference\pooling.h ****           float sum_squares = 0.f;
 166:C:/Renesas/e2studio_2021_01_workspace_RZA2M_ANPR/ANPR_RZA2M_RDK/src/tensorflow_lite/src/tensorflow/lite/kernels/internal/reference\pooling.h ****           int filter_count = 0;
 167:C:/Renesas/e2studio_2021_01_workspace_RZA2M_ANPR/ANPR_RZA2M_RDK/src/tensorflow_lite/src/tensorflow/lite/kernels/internal/reference\pooling.h ****           for (int filter_y = filter_y_start; filter_y < filter_y_end;
 168:C:/Renesas/e2studio_2021_01_workspace_RZA2M_ANPR/ANPR_RZA2M_RDK/src/tensorflow_lite/src/tensorflow/lite/kernels/internal/reference\pooling.h ****                ++filter_y) {
 169:C:/Renesas/e2studio_2021_01_workspace_RZA2M_ANPR/ANPR_RZA2M_RDK/src/tensorflow_lite/src/tensorflow/lite/kernels/internal/reference\pooling.h ****             for (int filter_x = filter_x_start; filter_x < filter_x_end;
 170:C:/Renesas/e2studio_2021_01_workspace_RZA2M_ANPR/ANPR_RZA2M_RDK/src/tensorflow_lite/src/tensorflow/lite/kernels/internal/reference\pooling.h ****                  ++filter_x) {
 171:C:/Renesas/e2studio_2021_01_workspace_RZA2M_ANPR/ANPR_RZA2M_RDK/src/tensorflow_lite/src/tensorflow/lite/kernels/internal/reference\pooling.h ****               const int in_x = in_x_origin + filter_x;
 172:C:/Renesas/e2studio_2021_01_workspace_RZA2M_ANPR/ANPR_RZA2M_RDK/src/tensorflow_lite/src/tensorflow/lite/kernels/internal/reference\pooling.h ****               const int in_y = in_y_origin + filter_y;
 173:C:/Renesas/e2studio_2021_01_workspace_RZA2M_ANPR/ANPR_RZA2M_RDK/src/tensorflow_lite/src/tensorflow/lite/kernels/internal/reference\pooling.h ****               const float val =
 174:C:/Renesas/e2studio_2021_01_workspace_RZA2M_ANPR/ANPR_RZA2M_RDK/src/tensorflow_lite/src/tensorflow/lite/kernels/internal/reference\pooling.h ****                   input_data[Offset(input_shape, batch, in_y, in_x, channel)];
 175:C:/Renesas/e2studio_2021_01_workspace_RZA2M_ANPR/ANPR_RZA2M_RDK/src/tensorflow_lite/src/tensorflow/lite/kernels/internal/reference\pooling.h ****               sum_squares += val * val;
 176:C:/Renesas/e2studio_2021_01_workspace_RZA2M_ANPR/ANPR_RZA2M_RDK/src/tensorflow_lite/src/tensorflow/lite/kernels/internal/reference\pooling.h ****               filter_count++;
 177:C:/Renesas/e2studio_2021_01_workspace_RZA2M_ANPR/ANPR_RZA2M_RDK/src/tensorflow_lite/src/tensorflow/lite/kernels/internal/reference\pooling.h ****             }
 178:C:/Renesas/e2studio_2021_01_workspace_RZA2M_ANPR/ANPR_RZA2M_RDK/src/tensorflow_lite/src/tensorflow/lite/kernels/internal/reference\pooling.h ****           }
 179:C:/Renesas/e2studio_2021_01_workspace_RZA2M_ANPR/ANPR_RZA2M_RDK/src/tensorflow_lite/src/tensorflow/lite/kernels/internal/reference\pooling.h ****           const float l2pool_result = std::sqrt(sum_squares / filter_count);
 180:C:/Renesas/e2studio_2021_01_workspace_RZA2M_ANPR/ANPR_RZA2M_RDK/src/tensorflow_lite/src/tensorflow/lite/kernels/internal/reference\pooling.h ****           output_data[Offset(output_shape, batch, out_y, out_x, channel)] =
 181:C:/Renesas/e2studio_2021_01_workspace_RZA2M_ANPR/ANPR_RZA2M_RDK/src/tensorflow_lite/src/tensorflow/lite/kernels/internal/reference\pooling.h ****               ActivationFunctionWithMinMax(l2pool_result,
 182:C:/Renesas/e2studio_2021_01_workspace_RZA2M_ANPR/ANPR_RZA2M_RDK/src/tensorflow_lite/src/tensorflow/lite/kernels/internal/reference\pooling.h ****                                            params.float_activation_min,
 183:C:/Renesas/e2studio_2021_01_workspace_RZA2M_ANPR/ANPR_RZA2M_RDK/src/tensorflow_lite/src/tensorflow/lite/kernels/internal/reference\pooling.h ****                                            params.float_activation_max);
 184:C:/Renesas/e2studio_2021_01_workspace_RZA2M_ANPR/ANPR_RZA2M_RDK/src/tensorflow_lite/src/tensorflow/lite/kernels/internal/reference\pooling.h ****         }
 185:C:/Renesas/e2studio_2021_01_workspace_RZA2M_ANPR/ANPR_RZA2M_RDK/src/tensorflow_lite/src/tensorflow/lite/kernels/internal/reference\pooling.h ****       }
 186:C:/Renesas/e2studio_2021_01_workspace_RZA2M_ANPR/ANPR_RZA2M_RDK/src/tensorflow_lite/src/tensorflow/lite/kernels/internal/reference\pooling.h ****     }
 187:C:/Renesas/e2studio_2021_01_workspace_RZA2M_ANPR/ANPR_RZA2M_RDK/src/tensorflow_lite/src/tensorflow/lite/kernels/internal/reference\pooling.h ****   }
 188:C:/Renesas/e2studio_2021_01_workspace_RZA2M_ANPR/ANPR_RZA2M_RDK/src/tensorflow_lite/src/tensorflow/lite/kernels/internal/reference\pooling.h **** }
 189:C:/Renesas/e2studio_2021_01_workspace_RZA2M_ANPR/ANPR_RZA2M_RDK/src/tensorflow_lite/src/tensorflow/lite/kernels/internal/reference\pooling.h **** 
 190:C:/Renesas/e2studio_2021_01_workspace_RZA2M_ANPR/ANPR_RZA2M_RDK/src/tensorflow_lite/src/tensorflow/lite/kernels/internal/reference\pooling.h **** inline void MaxPool(const PoolParams& params, const RuntimeShape& input_shape,
 191:C:/Renesas/e2studio_2021_01_workspace_RZA2M_ANPR/ANPR_RZA2M_RDK/src/tensorflow_lite/src/tensorflow/lite/kernels/internal/reference\pooling.h ****                     const float* input_data, const RuntimeShape& output_shape,
 192:C:/Renesas/e2studio_2021_01_workspace_RZA2M_ANPR/ANPR_RZA2M_RDK/src/tensorflow_lite/src/tensorflow/lite/kernels/internal/reference\pooling.h ****                     float* output_data) {
 193:C:/Renesas/e2studio_2021_01_workspace_RZA2M_ANPR/ANPR_RZA2M_RDK/src/tensorflow_lite/src/tensorflow/lite/kernels/internal/reference\pooling.h ****   TFLITE_DCHECK_EQ(input_shape.DimensionsCount(), 4);
 772              		.loc 5 193 0
 773 00fc E0309DE5 		ldr	r3, [sp, #224]
 774              	.LBE686:
 775              	.LBE685:
 776              	.LBB805:
 777              	.LBB806:
  56:C:/Renesas/e2studio_2021_01_workspace_RZA2M_ANPR/ANPR_RZA2M_RDK/src/tensorflow_lite/src/tensorflow/lite/micro/kernels\kernel_util.h **** }
 778              		.loc 4 56 0
 779 0100 000055E3 		cmp	r5, #0
 780 0104 00109515 		ldrne	r1, [r5]
 781 0108 0510A001 		moveq	r1, r5
 782              	.LVL85:
 783              	.LBE806:
 784              	.LBE805:
 785              	.LBB807:
 786              	.LBB796:
 787              		.loc 5 193 0
 788 010c 040053E3 		cmp	r3, #4
 789 0110 A902001A 		bne	.L327
 790              	.LVL86:
 194:C:/Renesas/e2studio_2021_01_workspace_RZA2M_ANPR/ANPR_RZA2M_RDK/src/tensorflow_lite/src/tensorflow/lite/kernels/internal/reference\pooling.h ****   TFLITE_DCHECK_EQ(output_shape.DimensionsCount(), 4);
 791              		.loc 5 194 0
 792 0114 F8309DE5 		ldr	r3, [sp, #248]
 793 0118 040053E3 		cmp	r3, #4
 794 011c B902001A 		bne	.L328
 795              	.LVL87:
 796              	.LBB687:
 797              	.LBB688:
 798              	.LBB689:
 799              	.LBB690:
 800              		.file 6 "C:/Renesas/e2studio_2021_01_workspace_RZA2M_ANPR/ANPR_RZA2M_RDK/src/tensorflow_lite/src/t
   1:C:/Renesas/e2studio_2021_01_workspace_RZA2M_ANPR/ANPR_RZA2M_RDK/src/tensorflow_lite/src/tensorflow/lite/kernels/internal\types.h **** /* Copyright 2018 The TensorFlow Authors. All Rights Reserved.
   2:C:/Renesas/e2studio_2021_01_workspace_RZA2M_ANPR/ANPR_RZA2M_RDK/src/tensorflow_lite/src/tensorflow/lite/kernels/internal\types.h **** 
   3:C:/Renesas/e2studio_2021_01_workspace_RZA2M_ANPR/ANPR_RZA2M_RDK/src/tensorflow_lite/src/tensorflow/lite/kernels/internal\types.h **** Licensed under the Apache License, Version 2.0 (the "License");
   4:C:/Renesas/e2studio_2021_01_workspace_RZA2M_ANPR/ANPR_RZA2M_RDK/src/tensorflow_lite/src/tensorflow/lite/kernels/internal\types.h **** you may not use this file except in compliance with the License.
   5:C:/Renesas/e2studio_2021_01_workspace_RZA2M_ANPR/ANPR_RZA2M_RDK/src/tensorflow_lite/src/tensorflow/lite/kernels/internal\types.h **** You may obtain a copy of the License at
   6:C:/Renesas/e2studio_2021_01_workspace_RZA2M_ANPR/ANPR_RZA2M_RDK/src/tensorflow_lite/src/tensorflow/lite/kernels/internal\types.h **** 
   7:C:/Renesas/e2studio_2021_01_workspace_RZA2M_ANPR/ANPR_RZA2M_RDK/src/tensorflow_lite/src/tensorflow/lite/kernels/internal\types.h ****     http://www.apache.org/licenses/LICENSE-2.0
   8:C:/Renesas/e2studio_2021_01_workspace_RZA2M_ANPR/ANPR_RZA2M_RDK/src/tensorflow_lite/src/tensorflow/lite/kernels/internal\types.h **** 
   9:C:/Renesas/e2studio_2021_01_workspace_RZA2M_ANPR/ANPR_RZA2M_RDK/src/tensorflow_lite/src/tensorflow/lite/kernels/internal\types.h **** Unless required by applicable law or agreed to in writing, software
  10:C:/Renesas/e2studio_2021_01_workspace_RZA2M_ANPR/ANPR_RZA2M_RDK/src/tensorflow_lite/src/tensorflow/lite/kernels/internal\types.h **** distributed under the License is distributed on an "AS IS" BASIS,
  11:C:/Renesas/e2studio_2021_01_workspace_RZA2M_ANPR/ANPR_RZA2M_RDK/src/tensorflow_lite/src/tensorflow/lite/kernels/internal\types.h **** WITHOUT WARRANTIES OR CONDITIONS OF ANY KIND, either express or implied.
  12:C:/Renesas/e2studio_2021_01_workspace_RZA2M_ANPR/ANPR_RZA2M_RDK/src/tensorflow_lite/src/tensorflow/lite/kernels/internal\types.h **** See the License for the specific language governing permissions and
  13:C:/Renesas/e2studio_2021_01_workspace_RZA2M_ANPR/ANPR_RZA2M_RDK/src/tensorflow_lite/src/tensorflow/lite/kernels/internal\types.h **** limitations under the License.
  14:C:/Renesas/e2studio_2021_01_workspace_RZA2M_ANPR/ANPR_RZA2M_RDK/src/tensorflow_lite/src/tensorflow/lite/kernels/internal\types.h **** ==============================================================================*/
  15:C:/Renesas/e2studio_2021_01_workspace_RZA2M_ANPR/ANPR_RZA2M_RDK/src/tensorflow_lite/src/tensorflow/lite/kernels/internal\types.h **** #ifndef TENSORFLOW_LITE_KERNELS_INTERNAL_TYPES_H_
  16:C:/Renesas/e2studio_2021_01_workspace_RZA2M_ANPR/ANPR_RZA2M_RDK/src/tensorflow_lite/src/tensorflow/lite/kernels/internal\types.h **** #define TENSORFLOW_LITE_KERNELS_INTERNAL_TYPES_H_
  17:C:/Renesas/e2studio_2021_01_workspace_RZA2M_ANPR/ANPR_RZA2M_RDK/src/tensorflow_lite/src/tensorflow/lite/kernels/internal\types.h **** 
  18:C:/Renesas/e2studio_2021_01_workspace_RZA2M_ANPR/ANPR_RZA2M_RDK/src/tensorflow_lite/src/tensorflow/lite/kernels/internal\types.h **** #include <algorithm>
  19:C:/Renesas/e2studio_2021_01_workspace_RZA2M_ANPR/ANPR_RZA2M_RDK/src/tensorflow_lite/src/tensorflow/lite/kernels/internal\types.h **** #include <cstdint>
  20:C:/Renesas/e2studio_2021_01_workspace_RZA2M_ANPR/ANPR_RZA2M_RDK/src/tensorflow_lite/src/tensorflow/lite/kernels/internal\types.h **** #include <cstring>
  21:C:/Renesas/e2studio_2021_01_workspace_RZA2M_ANPR/ANPR_RZA2M_RDK/src/tensorflow_lite/src/tensorflow/lite/kernels/internal\types.h **** #include <initializer_list>
  22:C:/Renesas/e2studio_2021_01_workspace_RZA2M_ANPR/ANPR_RZA2M_RDK/src/tensorflow_lite/src/tensorflow/lite/kernels/internal\types.h **** 
  23:C:/Renesas/e2studio_2021_01_workspace_RZA2M_ANPR/ANPR_RZA2M_RDK/src/tensorflow_lite/src/tensorflow/lite/kernels/internal\types.h **** #include "tensorflow/lite/kernels/internal/compatibility.h"
  24:C:/Renesas/e2studio_2021_01_workspace_RZA2M_ANPR/ANPR_RZA2M_RDK/src/tensorflow_lite/src/tensorflow/lite/kernels/internal\types.h **** 
  25:C:/Renesas/e2studio_2021_01_workspace_RZA2M_ANPR/ANPR_RZA2M_RDK/src/tensorflow_lite/src/tensorflow/lite/kernels/internal\types.h **** namespace tflite {
  26:C:/Renesas/e2studio_2021_01_workspace_RZA2M_ANPR/ANPR_RZA2M_RDK/src/tensorflow_lite/src/tensorflow/lite/kernels/internal\types.h **** 
  27:C:/Renesas/e2studio_2021_01_workspace_RZA2M_ANPR/ANPR_RZA2M_RDK/src/tensorflow_lite/src/tensorflow/lite/kernels/internal\types.h **** enum class FusedActivationFunctionType : uint8_t {
  28:C:/Renesas/e2studio_2021_01_workspace_RZA2M_ANPR/ANPR_RZA2M_RDK/src/tensorflow_lite/src/tensorflow/lite/kernels/internal\types.h ****   kNone,
  29:C:/Renesas/e2studio_2021_01_workspace_RZA2M_ANPR/ANPR_RZA2M_RDK/src/tensorflow_lite/src/tensorflow/lite/kernels/internal\types.h ****   kRelu6,
  30:C:/Renesas/e2studio_2021_01_workspace_RZA2M_ANPR/ANPR_RZA2M_RDK/src/tensorflow_lite/src/tensorflow/lite/kernels/internal\types.h ****   kRelu1,
  31:C:/Renesas/e2studio_2021_01_workspace_RZA2M_ANPR/ANPR_RZA2M_RDK/src/tensorflow_lite/src/tensorflow/lite/kernels/internal\types.h ****   kRelu
  32:C:/Renesas/e2studio_2021_01_workspace_RZA2M_ANPR/ANPR_RZA2M_RDK/src/tensorflow_lite/src/tensorflow/lite/kernels/internal\types.h **** };
  33:C:/Renesas/e2studio_2021_01_workspace_RZA2M_ANPR/ANPR_RZA2M_RDK/src/tensorflow_lite/src/tensorflow/lite/kernels/internal\types.h **** enum class PaddingType : uint8_t { kNone, kSame, kValid };
  34:C:/Renesas/e2studio_2021_01_workspace_RZA2M_ANPR/ANPR_RZA2M_RDK/src/tensorflow_lite/src/tensorflow/lite/kernels/internal\types.h **** 
  35:C:/Renesas/e2studio_2021_01_workspace_RZA2M_ANPR/ANPR_RZA2M_RDK/src/tensorflow_lite/src/tensorflow/lite/kernels/internal\types.h **** struct PaddingValues {
  36:C:/Renesas/e2studio_2021_01_workspace_RZA2M_ANPR/ANPR_RZA2M_RDK/src/tensorflow_lite/src/tensorflow/lite/kernels/internal\types.h ****   int16_t width;
  37:C:/Renesas/e2studio_2021_01_workspace_RZA2M_ANPR/ANPR_RZA2M_RDK/src/tensorflow_lite/src/tensorflow/lite/kernels/internal\types.h ****   int16_t height;
  38:C:/Renesas/e2studio_2021_01_workspace_RZA2M_ANPR/ANPR_RZA2M_RDK/src/tensorflow_lite/src/tensorflow/lite/kernels/internal\types.h ****   // offset is used for calculating "remaining" padding, for example, `width`
  39:C:/Renesas/e2studio_2021_01_workspace_RZA2M_ANPR/ANPR_RZA2M_RDK/src/tensorflow_lite/src/tensorflow/lite/kernels/internal\types.h ****   // is 1 and `width_offset` is 1, so padding_left is 1 while padding_right is
  40:C:/Renesas/e2studio_2021_01_workspace_RZA2M_ANPR/ANPR_RZA2M_RDK/src/tensorflow_lite/src/tensorflow/lite/kernels/internal\types.h ****   // 1 + 1 = 2.
  41:C:/Renesas/e2studio_2021_01_workspace_RZA2M_ANPR/ANPR_RZA2M_RDK/src/tensorflow_lite/src/tensorflow/lite/kernels/internal\types.h ****   int16_t width_offset;
  42:C:/Renesas/e2studio_2021_01_workspace_RZA2M_ANPR/ANPR_RZA2M_RDK/src/tensorflow_lite/src/tensorflow/lite/kernels/internal\types.h ****   // Same as width_offset except it's over the height dimension.
  43:C:/Renesas/e2studio_2021_01_workspace_RZA2M_ANPR/ANPR_RZA2M_RDK/src/tensorflow_lite/src/tensorflow/lite/kernels/internal\types.h ****   int16_t height_offset;
  44:C:/Renesas/e2studio_2021_01_workspace_RZA2M_ANPR/ANPR_RZA2M_RDK/src/tensorflow_lite/src/tensorflow/lite/kernels/internal\types.h **** };
  45:C:/Renesas/e2studio_2021_01_workspace_RZA2M_ANPR/ANPR_RZA2M_RDK/src/tensorflow_lite/src/tensorflow/lite/kernels/internal\types.h **** 
  46:C:/Renesas/e2studio_2021_01_workspace_RZA2M_ANPR/ANPR_RZA2M_RDK/src/tensorflow_lite/src/tensorflow/lite/kernels/internal\types.h **** struct Padding3DValues {
  47:C:/Renesas/e2studio_2021_01_workspace_RZA2M_ANPR/ANPR_RZA2M_RDK/src/tensorflow_lite/src/tensorflow/lite/kernels/internal\types.h ****   int16_t width;
  48:C:/Renesas/e2studio_2021_01_workspace_RZA2M_ANPR/ANPR_RZA2M_RDK/src/tensorflow_lite/src/tensorflow/lite/kernels/internal\types.h ****   int16_t height;
  49:C:/Renesas/e2studio_2021_01_workspace_RZA2M_ANPR/ANPR_RZA2M_RDK/src/tensorflow_lite/src/tensorflow/lite/kernels/internal\types.h ****   int16_t depth;
  50:C:/Renesas/e2studio_2021_01_workspace_RZA2M_ANPR/ANPR_RZA2M_RDK/src/tensorflow_lite/src/tensorflow/lite/kernels/internal\types.h ****   // offset is used for calculating "remaining" padding, for example, `width`
  51:C:/Renesas/e2studio_2021_01_workspace_RZA2M_ANPR/ANPR_RZA2M_RDK/src/tensorflow_lite/src/tensorflow/lite/kernels/internal\types.h ****   // is 1 and `width_offset` is 1, so padding_left is 1 while padding_right is
  52:C:/Renesas/e2studio_2021_01_workspace_RZA2M_ANPR/ANPR_RZA2M_RDK/src/tensorflow_lite/src/tensorflow/lite/kernels/internal\types.h ****   // 1 + 1 = 2.
  53:C:/Renesas/e2studio_2021_01_workspace_RZA2M_ANPR/ANPR_RZA2M_RDK/src/tensorflow_lite/src/tensorflow/lite/kernels/internal\types.h ****   int16_t width_offset;
  54:C:/Renesas/e2studio_2021_01_workspace_RZA2M_ANPR/ANPR_RZA2M_RDK/src/tensorflow_lite/src/tensorflow/lite/kernels/internal\types.h ****   // Same as width_offset except it's over the height dimension.
  55:C:/Renesas/e2studio_2021_01_workspace_RZA2M_ANPR/ANPR_RZA2M_RDK/src/tensorflow_lite/src/tensorflow/lite/kernels/internal\types.h ****   int16_t height_offset;
  56:C:/Renesas/e2studio_2021_01_workspace_RZA2M_ANPR/ANPR_RZA2M_RDK/src/tensorflow_lite/src/tensorflow/lite/kernels/internal\types.h ****   // Same as width_offset except it's over the depth dimension.
  57:C:/Renesas/e2studio_2021_01_workspace_RZA2M_ANPR/ANPR_RZA2M_RDK/src/tensorflow_lite/src/tensorflow/lite/kernels/internal\types.h ****   int16_t depth_offset;
  58:C:/Renesas/e2studio_2021_01_workspace_RZA2M_ANPR/ANPR_RZA2M_RDK/src/tensorflow_lite/src/tensorflow/lite/kernels/internal\types.h **** };
  59:C:/Renesas/e2studio_2021_01_workspace_RZA2M_ANPR/ANPR_RZA2M_RDK/src/tensorflow_lite/src/tensorflow/lite/kernels/internal\types.h **** 
  60:C:/Renesas/e2studio_2021_01_workspace_RZA2M_ANPR/ANPR_RZA2M_RDK/src/tensorflow_lite/src/tensorflow/lite/kernels/internal\types.h **** // This enumeration allows for non-default formats for the weights array
  61:C:/Renesas/e2studio_2021_01_workspace_RZA2M_ANPR/ANPR_RZA2M_RDK/src/tensorflow_lite/src/tensorflow/lite/kernels/internal\types.h **** // of a fully-connected operator, allowing the use of special optimized
  62:C:/Renesas/e2studio_2021_01_workspace_RZA2M_ANPR/ANPR_RZA2M_RDK/src/tensorflow_lite/src/tensorflow/lite/kernels/internal\types.h **** // runtime paths.
  63:C:/Renesas/e2studio_2021_01_workspace_RZA2M_ANPR/ANPR_RZA2M_RDK/src/tensorflow_lite/src/tensorflow/lite/kernels/internal\types.h **** enum class FullyConnectedWeightsFormat : uint8_t {
  64:C:/Renesas/e2studio_2021_01_workspace_RZA2M_ANPR/ANPR_RZA2M_RDK/src/tensorflow_lite/src/tensorflow/lite/kernels/internal\types.h ****   // Default format (flat 2D layout, the inner contiguous dimension
  65:C:/Renesas/e2studio_2021_01_workspace_RZA2M_ANPR/ANPR_RZA2M_RDK/src/tensorflow_lite/src/tensorflow/lite/kernels/internal\types.h ****   // is input_depth, the outer non-contiguous dimension is output_depth)
  66:C:/Renesas/e2studio_2021_01_workspace_RZA2M_ANPR/ANPR_RZA2M_RDK/src/tensorflow_lite/src/tensorflow/lite/kernels/internal\types.h ****   kDefault,
  67:C:/Renesas/e2studio_2021_01_workspace_RZA2M_ANPR/ANPR_RZA2M_RDK/src/tensorflow_lite/src/tensorflow/lite/kernels/internal\types.h ****   // Summary: optimized layout for fast CPU runtime implementation,
  68:C:/Renesas/e2studio_2021_01_workspace_RZA2M_ANPR/ANPR_RZA2M_RDK/src/tensorflow_lite/src/tensorflow/lite/kernels/internal\types.h ****   // aimed specifically at ARM CPUs at the moment, and specialized for
  69:C:/Renesas/e2studio_2021_01_workspace_RZA2M_ANPR/ANPR_RZA2M_RDK/src/tensorflow_lite/src/tensorflow/lite/kernels/internal\types.h ****   // 8-bit quantized layers.
  70:C:/Renesas/e2studio_2021_01_workspace_RZA2M_ANPR/ANPR_RZA2M_RDK/src/tensorflow_lite/src/tensorflow/lite/kernels/internal\types.h ****   //
  71:C:/Renesas/e2studio_2021_01_workspace_RZA2M_ANPR/ANPR_RZA2M_RDK/src/tensorflow_lite/src/tensorflow/lite/kernels/internal\types.h ****   // The use case we're concerned with here is: 8-bit quantization,
  72:C:/Renesas/e2studio_2021_01_workspace_RZA2M_ANPR/ANPR_RZA2M_RDK/src/tensorflow_lite/src/tensorflow/lite/kernels/internal\types.h ****   // large weights matrix that doesn't fit in cache (e.g. 4096x2048 in
  73:C:/Renesas/e2studio_2021_01_workspace_RZA2M_ANPR/ANPR_RZA2M_RDK/src/tensorflow_lite/src/tensorflow/lite/kernels/internal\types.h ****   // a key application that drove this), very small batch size (e.g. 1 -- 4).
  74:C:/Renesas/e2studio_2021_01_workspace_RZA2M_ANPR/ANPR_RZA2M_RDK/src/tensorflow_lite/src/tensorflow/lite/kernels/internal\types.h ****   //
  75:C:/Renesas/e2studio_2021_01_workspace_RZA2M_ANPR/ANPR_RZA2M_RDK/src/tensorflow_lite/src/tensorflow/lite/kernels/internal\types.h ****   // Even with 8-bit quantization of weights, the performance of memory
  76:C:/Renesas/e2studio_2021_01_workspace_RZA2M_ANPR/ANPR_RZA2M_RDK/src/tensorflow_lite/src/tensorflow/lite/kernels/internal\types.h ****   // accesses to the weights can become the dominant issue when
  77:C:/Renesas/e2studio_2021_01_workspace_RZA2M_ANPR/ANPR_RZA2M_RDK/src/tensorflow_lite/src/tensorflow/lite/kernels/internal\types.h ****   // the batch size is small, so each weight value is used in only a few
  78:C:/Renesas/e2studio_2021_01_workspace_RZA2M_ANPR/ANPR_RZA2M_RDK/src/tensorflow_lite/src/tensorflow/lite/kernels/internal\types.h ****   // arithmetic ops, i.e. the fully-connected node has a low arithmetic
  79:C:/Renesas/e2studio_2021_01_workspace_RZA2M_ANPR/ANPR_RZA2M_RDK/src/tensorflow_lite/src/tensorflow/lite/kernels/internal\types.h ****   // intensity. The specific issues that arise are of three kinds:
  80:C:/Renesas/e2studio_2021_01_workspace_RZA2M_ANPR/ANPR_RZA2M_RDK/src/tensorflow_lite/src/tensorflow/lite/kernels/internal\types.h ****   // (1) One may, ideally, max out DRAM bandwidth, i.e. be truly memory
  81:C:/Renesas/e2studio_2021_01_workspace_RZA2M_ANPR/ANPR_RZA2M_RDK/src/tensorflow_lite/src/tensorflow/lite/kernels/internal\types.h ****   //     bound. That's the "good" issue to run into.
  82:C:/Renesas/e2studio_2021_01_workspace_RZA2M_ANPR/ANPR_RZA2M_RDK/src/tensorflow_lite/src/tensorflow/lite/kernels/internal\types.h ****   // (2) One may run into sub-optimal pre-fetching: the data hasn't been
  83:C:/Renesas/e2studio_2021_01_workspace_RZA2M_ANPR/ANPR_RZA2M_RDK/src/tensorflow_lite/src/tensorflow/lite/kernels/internal\types.h ****   //     prefetched into the cache by the time we need it.
  84:C:/Renesas/e2studio_2021_01_workspace_RZA2M_ANPR/ANPR_RZA2M_RDK/src/tensorflow_lite/src/tensorflow/lite/kernels/internal\types.h ****   // (3) One may run into cache aliasing: multiple values that are
  85:C:/Renesas/e2studio_2021_01_workspace_RZA2M_ANPR/ANPR_RZA2M_RDK/src/tensorflow_lite/src/tensorflow/lite/kernels/internal\types.h ****   //     pre-fetched, alias each other in the L1 cache (which typically
  86:C:/Renesas/e2studio_2021_01_workspace_RZA2M_ANPR/ANPR_RZA2M_RDK/src/tensorflow_lite/src/tensorflow/lite/kernels/internal\types.h ****   //     has only 4-way set associativity in ARM CPUs) and thus evict
  87:C:/Renesas/e2studio_2021_01_workspace_RZA2M_ANPR/ANPR_RZA2M_RDK/src/tensorflow_lite/src/tensorflow/lite/kernels/internal\types.h ****   //     each other before we get to using them.
  88:C:/Renesas/e2studio_2021_01_workspace_RZA2M_ANPR/ANPR_RZA2M_RDK/src/tensorflow_lite/src/tensorflow/lite/kernels/internal\types.h ****   //
  89:C:/Renesas/e2studio_2021_01_workspace_RZA2M_ANPR/ANPR_RZA2M_RDK/src/tensorflow_lite/src/tensorflow/lite/kernels/internal\types.h ****   // The point of this shuffling is to avoid issues (2) and (3) so that
  90:C:/Renesas/e2studio_2021_01_workspace_RZA2M_ANPR/ANPR_RZA2M_RDK/src/tensorflow_lite/src/tensorflow/lite/kernels/internal\types.h ****   // we get as fast as possible given only the hard constraint (1).
  91:C:/Renesas/e2studio_2021_01_workspace_RZA2M_ANPR/ANPR_RZA2M_RDK/src/tensorflow_lite/src/tensorflow/lite/kernels/internal\types.h ****   // This is achieved by turning the difficulty into a solution: the
  92:C:/Renesas/e2studio_2021_01_workspace_RZA2M_ANPR/ANPR_RZA2M_RDK/src/tensorflow_lite/src/tensorflow/lite/kernels/internal\types.h ****   // difficulty, that each value loaded from memory is used only in
  93:C:/Renesas/e2studio_2021_01_workspace_RZA2M_ANPR/ANPR_RZA2M_RDK/src/tensorflow_lite/src/tensorflow/lite/kernels/internal\types.h ****   // one kernel iteration, making this operation memory-intensive, hints at
  94:C:/Renesas/e2studio_2021_01_workspace_RZA2M_ANPR/ANPR_RZA2M_RDK/src/tensorflow_lite/src/tensorflow/lite/kernels/internal\types.h ****   // the solution, of shuffling the weights so that they are stored in the
  95:C:/Renesas/e2studio_2021_01_workspace_RZA2M_ANPR/ANPR_RZA2M_RDK/src/tensorflow_lite/src/tensorflow/lite/kernels/internal\types.h ****   // exact order as the kernel needs to load them, so that the memory
  96:C:/Renesas/e2studio_2021_01_workspace_RZA2M_ANPR/ANPR_RZA2M_RDK/src/tensorflow_lite/src/tensorflow/lite/kernels/internal\types.h ****   // accesses made by the kernel are trivial. This solves (2) because the
  97:C:/Renesas/e2studio_2021_01_workspace_RZA2M_ANPR/ANPR_RZA2M_RDK/src/tensorflow_lite/src/tensorflow/lite/kernels/internal\types.h ****   // trivial memory access pattern allows the CPU's automatic prefetching
  98:C:/Renesas/e2studio_2021_01_workspace_RZA2M_ANPR/ANPR_RZA2M_RDK/src/tensorflow_lite/src/tensorflow/lite/kernels/internal\types.h ****   // to perform very well (no need even for preload instructions), and this
  99:C:/Renesas/e2studio_2021_01_workspace_RZA2M_ANPR/ANPR_RZA2M_RDK/src/tensorflow_lite/src/tensorflow/lite/kernels/internal\types.h ****   // solves (3) because the values being loaded concurrently are now
 100:C:/Renesas/e2studio_2021_01_workspace_RZA2M_ANPR/ANPR_RZA2M_RDK/src/tensorflow_lite/src/tensorflow/lite/kernels/internal\types.h ****   // contiguous in the address space, thus don't alias each other in the cache.
 101:C:/Renesas/e2studio_2021_01_workspace_RZA2M_ANPR/ANPR_RZA2M_RDK/src/tensorflow_lite/src/tensorflow/lite/kernels/internal\types.h ****   //
 102:C:/Renesas/e2studio_2021_01_workspace_RZA2M_ANPR/ANPR_RZA2M_RDK/src/tensorflow_lite/src/tensorflow/lite/kernels/internal\types.h ****   // On ARM, we typically want our kernel to process a 4x16 block of weights
 103:C:/Renesas/e2studio_2021_01_workspace_RZA2M_ANPR/ANPR_RZA2M_RDK/src/tensorflow_lite/src/tensorflow/lite/kernels/internal\types.h ****   // at a time, because:
 104:C:/Renesas/e2studio_2021_01_workspace_RZA2M_ANPR/ANPR_RZA2M_RDK/src/tensorflow_lite/src/tensorflow/lite/kernels/internal\types.h ****   //   - 16 is the number of bytes in a NEON register.
 105:C:/Renesas/e2studio_2021_01_workspace_RZA2M_ANPR/ANPR_RZA2M_RDK/src/tensorflow_lite/src/tensorflow/lite/kernels/internal\types.h ****   //   - 4 is how many rows we need to handle concurrently in the kernel in
 106:C:/Renesas/e2studio_2021_01_workspace_RZA2M_ANPR/ANPR_RZA2M_RDK/src/tensorflow_lite/src/tensorflow/lite/kernels/internal\types.h ****   //     order to have sufficient mutual independence of instructions to
 107:C:/Renesas/e2studio_2021_01_workspace_RZA2M_ANPR/ANPR_RZA2M_RDK/src/tensorflow_lite/src/tensorflow/lite/kernels/internal\types.h ****   //     maximize arithmetic throughput.
 108:C:/Renesas/e2studio_2021_01_workspace_RZA2M_ANPR/ANPR_RZA2M_RDK/src/tensorflow_lite/src/tensorflow/lite/kernels/internal\types.h ****   //
 109:C:/Renesas/e2studio_2021_01_workspace_RZA2M_ANPR/ANPR_RZA2M_RDK/src/tensorflow_lite/src/tensorflow/lite/kernels/internal\types.h ****   // Finally, the 'Int8' part in the name refers to the fact that this
 110:C:/Renesas/e2studio_2021_01_workspace_RZA2M_ANPR/ANPR_RZA2M_RDK/src/tensorflow_lite/src/tensorflow/lite/kernels/internal\types.h ****   // weights format has each weights value encoded as a signed int8_t value,
 111:C:/Renesas/e2studio_2021_01_workspace_RZA2M_ANPR/ANPR_RZA2M_RDK/src/tensorflow_lite/src/tensorflow/lite/kernels/internal\types.h ****   // even if the data type of the weights buffer is uint8_t.  This is intended
 112:C:/Renesas/e2studio_2021_01_workspace_RZA2M_ANPR/ANPR_RZA2M_RDK/src/tensorflow_lite/src/tensorflow/lite/kernels/internal\types.h ****   // to save runtime kernels the effort to have to XOR the top bit of these
 113:C:/Renesas/e2studio_2021_01_workspace_RZA2M_ANPR/ANPR_RZA2M_RDK/src/tensorflow_lite/src/tensorflow/lite/kernels/internal\types.h ****   // bytes before using them in signed arithmetic, see this file for more
 114:C:/Renesas/e2studio_2021_01_workspace_RZA2M_ANPR/ANPR_RZA2M_RDK/src/tensorflow_lite/src/tensorflow/lite/kernels/internal\types.h ****   // explanations on the 'signed int8_t trick' in matrix multiplication kernels:
 115:C:/Renesas/e2studio_2021_01_workspace_RZA2M_ANPR/ANPR_RZA2M_RDK/src/tensorflow_lite/src/tensorflow/lite/kernels/internal\types.h ****   //
 116:C:/Renesas/e2studio_2021_01_workspace_RZA2M_ANPR/ANPR_RZA2M_RDK/src/tensorflow_lite/src/tensorflow/lite/kernels/internal\types.h ****   //   tensorflow/lite/toco/graph_transformations/ensure_uint8_weights_safe_for_fast_int8_kernels.c
 117:C:/Renesas/e2studio_2021_01_workspace_RZA2M_ANPR/ANPR_RZA2M_RDK/src/tensorflow_lite/src/tensorflow/lite/kernels/internal\types.h ****   //
 118:C:/Renesas/e2studio_2021_01_workspace_RZA2M_ANPR/ANPR_RZA2M_RDK/src/tensorflow_lite/src/tensorflow/lite/kernels/internal\types.h ****   kShuffled4x16Int8,
 119:C:/Renesas/e2studio_2021_01_workspace_RZA2M_ANPR/ANPR_RZA2M_RDK/src/tensorflow_lite/src/tensorflow/lite/kernels/internal\types.h **** };
 120:C:/Renesas/e2studio_2021_01_workspace_RZA2M_ANPR/ANPR_RZA2M_RDK/src/tensorflow_lite/src/tensorflow/lite/kernels/internal\types.h **** 
 121:C:/Renesas/e2studio_2021_01_workspace_RZA2M_ANPR/ANPR_RZA2M_RDK/src/tensorflow_lite/src/tensorflow/lite/kernels/internal\types.h **** // Quantization parameters, determining the mapping of quantized values
 122:C:/Renesas/e2studio_2021_01_workspace_RZA2M_ANPR/ANPR_RZA2M_RDK/src/tensorflow_lite/src/tensorflow/lite/kernels/internal\types.h **** // to real values (i.e. determining how quantized values are mathematically
 123:C:/Renesas/e2studio_2021_01_workspace_RZA2M_ANPR/ANPR_RZA2M_RDK/src/tensorflow_lite/src/tensorflow/lite/kernels/internal\types.h **** // interpreted).
 124:C:/Renesas/e2studio_2021_01_workspace_RZA2M_ANPR/ANPR_RZA2M_RDK/src/tensorflow_lite/src/tensorflow/lite/kernels/internal\types.h **** //
 125:C:/Renesas/e2studio_2021_01_workspace_RZA2M_ANPR/ANPR_RZA2M_RDK/src/tensorflow_lite/src/tensorflow/lite/kernels/internal\types.h **** // The correspondence is as follows:
 126:C:/Renesas/e2studio_2021_01_workspace_RZA2M_ANPR/ANPR_RZA2M_RDK/src/tensorflow_lite/src/tensorflow/lite/kernels/internal\types.h **** //
 127:C:/Renesas/e2studio_2021_01_workspace_RZA2M_ANPR/ANPR_RZA2M_RDK/src/tensorflow_lite/src/tensorflow/lite/kernels/internal\types.h **** //   real_value = scale * (quantized_value - zero_point);
 128:C:/Renesas/e2studio_2021_01_workspace_RZA2M_ANPR/ANPR_RZA2M_RDK/src/tensorflow_lite/src/tensorflow/lite/kernels/internal\types.h **** //
 129:C:/Renesas/e2studio_2021_01_workspace_RZA2M_ANPR/ANPR_RZA2M_RDK/src/tensorflow_lite/src/tensorflow/lite/kernels/internal\types.h **** // In other words, zero_point designates which quantized value corresponds to
 130:C:/Renesas/e2studio_2021_01_workspace_RZA2M_ANPR/ANPR_RZA2M_RDK/src/tensorflow_lite/src/tensorflow/lite/kernels/internal\types.h **** // the real 0 value, and scale designates the difference between the real values
 131:C:/Renesas/e2studio_2021_01_workspace_RZA2M_ANPR/ANPR_RZA2M_RDK/src/tensorflow_lite/src/tensorflow/lite/kernels/internal\types.h **** // corresponding to consecutive quantized values differing by 1.
 132:C:/Renesas/e2studio_2021_01_workspace_RZA2M_ANPR/ANPR_RZA2M_RDK/src/tensorflow_lite/src/tensorflow/lite/kernels/internal\types.h **** struct QuantizationParams {
 133:C:/Renesas/e2studio_2021_01_workspace_RZA2M_ANPR/ANPR_RZA2M_RDK/src/tensorflow_lite/src/tensorflow/lite/kernels/internal\types.h ****   int32_t zero_point = 0;
 134:C:/Renesas/e2studio_2021_01_workspace_RZA2M_ANPR/ANPR_RZA2M_RDK/src/tensorflow_lite/src/tensorflow/lite/kernels/internal\types.h ****   double scale = 0.0;
 135:C:/Renesas/e2studio_2021_01_workspace_RZA2M_ANPR/ANPR_RZA2M_RDK/src/tensorflow_lite/src/tensorflow/lite/kernels/internal\types.h **** };
 136:C:/Renesas/e2studio_2021_01_workspace_RZA2M_ANPR/ANPR_RZA2M_RDK/src/tensorflow_lite/src/tensorflow/lite/kernels/internal\types.h **** 
 137:C:/Renesas/e2studio_2021_01_workspace_RZA2M_ANPR/ANPR_RZA2M_RDK/src/tensorflow_lite/src/tensorflow/lite/kernels/internal\types.h **** inline bool operator==(const QuantizationParams& qp1,
 138:C:/Renesas/e2studio_2021_01_workspace_RZA2M_ANPR/ANPR_RZA2M_RDK/src/tensorflow_lite/src/tensorflow/lite/kernels/internal\types.h ****                        const QuantizationParams& qp2) {
 139:C:/Renesas/e2studio_2021_01_workspace_RZA2M_ANPR/ANPR_RZA2M_RDK/src/tensorflow_lite/src/tensorflow/lite/kernels/internal\types.h ****   return qp1.zero_point == qp2.zero_point && qp1.scale == qp2.scale;
 140:C:/Renesas/e2studio_2021_01_workspace_RZA2M_ANPR/ANPR_RZA2M_RDK/src/tensorflow_lite/src/tensorflow/lite/kernels/internal\types.h **** }
 141:C:/Renesas/e2studio_2021_01_workspace_RZA2M_ANPR/ANPR_RZA2M_RDK/src/tensorflow_lite/src/tensorflow/lite/kernels/internal\types.h **** 
 142:C:/Renesas/e2studio_2021_01_workspace_RZA2M_ANPR/ANPR_RZA2M_RDK/src/tensorflow_lite/src/tensorflow/lite/kernels/internal\types.h **** template <int N>
 143:C:/Renesas/e2studio_2021_01_workspace_RZA2M_ANPR/ANPR_RZA2M_RDK/src/tensorflow_lite/src/tensorflow/lite/kernels/internal\types.h **** struct Dims {
 144:C:/Renesas/e2studio_2021_01_workspace_RZA2M_ANPR/ANPR_RZA2M_RDK/src/tensorflow_lite/src/tensorflow/lite/kernels/internal\types.h ****   int sizes[N];
 145:C:/Renesas/e2studio_2021_01_workspace_RZA2M_ANPR/ANPR_RZA2M_RDK/src/tensorflow_lite/src/tensorflow/lite/kernels/internal\types.h ****   int strides[N];
 146:C:/Renesas/e2studio_2021_01_workspace_RZA2M_ANPR/ANPR_RZA2M_RDK/src/tensorflow_lite/src/tensorflow/lite/kernels/internal\types.h **** };
 147:C:/Renesas/e2studio_2021_01_workspace_RZA2M_ANPR/ANPR_RZA2M_RDK/src/tensorflow_lite/src/tensorflow/lite/kernels/internal\types.h **** 
 148:C:/Renesas/e2studio_2021_01_workspace_RZA2M_ANPR/ANPR_RZA2M_RDK/src/tensorflow_lite/src/tensorflow/lite/kernels/internal\types.h **** class RuntimeShape {
 149:C:/Renesas/e2studio_2021_01_workspace_RZA2M_ANPR/ANPR_RZA2M_RDK/src/tensorflow_lite/src/tensorflow/lite/kernels/internal\types.h ****  public:
 150:C:/Renesas/e2studio_2021_01_workspace_RZA2M_ANPR/ANPR_RZA2M_RDK/src/tensorflow_lite/src/tensorflow/lite/kernels/internal\types.h ****   // Shapes with dimensions up to 5 are stored directly in the structure, while
 151:C:/Renesas/e2studio_2021_01_workspace_RZA2M_ANPR/ANPR_RZA2M_RDK/src/tensorflow_lite/src/tensorflow/lite/kernels/internal\types.h ****   // larger shapes are separately allocated.
 152:C:/Renesas/e2studio_2021_01_workspace_RZA2M_ANPR/ANPR_RZA2M_RDK/src/tensorflow_lite/src/tensorflow/lite/kernels/internal\types.h ****   static constexpr int kMaxSmallSize = 5;
 153:C:/Renesas/e2studio_2021_01_workspace_RZA2M_ANPR/ANPR_RZA2M_RDK/src/tensorflow_lite/src/tensorflow/lite/kernels/internal\types.h **** 
 154:C:/Renesas/e2studio_2021_01_workspace_RZA2M_ANPR/ANPR_RZA2M_RDK/src/tensorflow_lite/src/tensorflow/lite/kernels/internal\types.h ****   RuntimeShape& operator=(RuntimeShape const&) = delete;
 155:C:/Renesas/e2studio_2021_01_workspace_RZA2M_ANPR/ANPR_RZA2M_RDK/src/tensorflow_lite/src/tensorflow/lite/kernels/internal\types.h **** 
 156:C:/Renesas/e2studio_2021_01_workspace_RZA2M_ANPR/ANPR_RZA2M_RDK/src/tensorflow_lite/src/tensorflow/lite/kernels/internal\types.h ****   RuntimeShape() : size_(0) {}
 157:C:/Renesas/e2studio_2021_01_workspace_RZA2M_ANPR/ANPR_RZA2M_RDK/src/tensorflow_lite/src/tensorflow/lite/kernels/internal\types.h **** 
 158:C:/Renesas/e2studio_2021_01_workspace_RZA2M_ANPR/ANPR_RZA2M_RDK/src/tensorflow_lite/src/tensorflow/lite/kernels/internal\types.h ****   explicit RuntimeShape(int dimensions_count) : size_(dimensions_count) {
 159:C:/Renesas/e2studio_2021_01_workspace_RZA2M_ANPR/ANPR_RZA2M_RDK/src/tensorflow_lite/src/tensorflow/lite/kernels/internal\types.h ****     if (dimensions_count > kMaxSmallSize) {
 160:C:/Renesas/e2studio_2021_01_workspace_RZA2M_ANPR/ANPR_RZA2M_RDK/src/tensorflow_lite/src/tensorflow/lite/kernels/internal\types.h **** #ifdef TF_LITE_STATIC_MEMORY
 161:C:/Renesas/e2studio_2021_01_workspace_RZA2M_ANPR/ANPR_RZA2M_RDK/src/tensorflow_lite/src/tensorflow/lite/kernels/internal\types.h ****       TFLITE_CHECK(false && "No shape resizing supported on this platform");
 162:C:/Renesas/e2studio_2021_01_workspace_RZA2M_ANPR/ANPR_RZA2M_RDK/src/tensorflow_lite/src/tensorflow/lite/kernels/internal\types.h **** #else  // TF_LITE_STATIC_MEMORY
 163:C:/Renesas/e2studio_2021_01_workspace_RZA2M_ANPR/ANPR_RZA2M_RDK/src/tensorflow_lite/src/tensorflow/lite/kernels/internal\types.h ****       dims_pointer_ = new int32_t[dimensions_count];
 164:C:/Renesas/e2studio_2021_01_workspace_RZA2M_ANPR/ANPR_RZA2M_RDK/src/tensorflow_lite/src/tensorflow/lite/kernels/internal\types.h **** #endif  // TF_LITE_STATIC_MEMORY
 165:C:/Renesas/e2studio_2021_01_workspace_RZA2M_ANPR/ANPR_RZA2M_RDK/src/tensorflow_lite/src/tensorflow/lite/kernels/internal\types.h ****     }
 166:C:/Renesas/e2studio_2021_01_workspace_RZA2M_ANPR/ANPR_RZA2M_RDK/src/tensorflow_lite/src/tensorflow/lite/kernels/internal\types.h ****   }
 167:C:/Renesas/e2studio_2021_01_workspace_RZA2M_ANPR/ANPR_RZA2M_RDK/src/tensorflow_lite/src/tensorflow/lite/kernels/internal\types.h **** 
 168:C:/Renesas/e2studio_2021_01_workspace_RZA2M_ANPR/ANPR_RZA2M_RDK/src/tensorflow_lite/src/tensorflow/lite/kernels/internal\types.h ****   RuntimeShape(int shape_size, int32_t value) : size_(0) {
 169:C:/Renesas/e2studio_2021_01_workspace_RZA2M_ANPR/ANPR_RZA2M_RDK/src/tensorflow_lite/src/tensorflow/lite/kernels/internal\types.h ****     Resize(shape_size);
 170:C:/Renesas/e2studio_2021_01_workspace_RZA2M_ANPR/ANPR_RZA2M_RDK/src/tensorflow_lite/src/tensorflow/lite/kernels/internal\types.h ****     for (int i = 0; i < shape_size; ++i) {
 171:C:/Renesas/e2studio_2021_01_workspace_RZA2M_ANPR/ANPR_RZA2M_RDK/src/tensorflow_lite/src/tensorflow/lite/kernels/internal\types.h ****       SetDim(i, value);
 172:C:/Renesas/e2studio_2021_01_workspace_RZA2M_ANPR/ANPR_RZA2M_RDK/src/tensorflow_lite/src/tensorflow/lite/kernels/internal\types.h ****     }
 173:C:/Renesas/e2studio_2021_01_workspace_RZA2M_ANPR/ANPR_RZA2M_RDK/src/tensorflow_lite/src/tensorflow/lite/kernels/internal\types.h ****   }
 174:C:/Renesas/e2studio_2021_01_workspace_RZA2M_ANPR/ANPR_RZA2M_RDK/src/tensorflow_lite/src/tensorflow/lite/kernels/internal\types.h **** 
 175:C:/Renesas/e2studio_2021_01_workspace_RZA2M_ANPR/ANPR_RZA2M_RDK/src/tensorflow_lite/src/tensorflow/lite/kernels/internal\types.h ****   RuntimeShape(int dimensions_count, const int32_t* dims_data) : size_(0) {
 176:C:/Renesas/e2studio_2021_01_workspace_RZA2M_ANPR/ANPR_RZA2M_RDK/src/tensorflow_lite/src/tensorflow/lite/kernels/internal\types.h ****     ReplaceWith(dimensions_count, dims_data);
 177:C:/Renesas/e2studio_2021_01_workspace_RZA2M_ANPR/ANPR_RZA2M_RDK/src/tensorflow_lite/src/tensorflow/lite/kernels/internal\types.h ****   }
 178:C:/Renesas/e2studio_2021_01_workspace_RZA2M_ANPR/ANPR_RZA2M_RDK/src/tensorflow_lite/src/tensorflow/lite/kernels/internal\types.h **** 
 179:C:/Renesas/e2studio_2021_01_workspace_RZA2M_ANPR/ANPR_RZA2M_RDK/src/tensorflow_lite/src/tensorflow/lite/kernels/internal\types.h ****   RuntimeShape(const std::initializer_list<int> init_list) : size_(0) {
 180:C:/Renesas/e2studio_2021_01_workspace_RZA2M_ANPR/ANPR_RZA2M_RDK/src/tensorflow_lite/src/tensorflow/lite/kernels/internal\types.h ****     BuildFrom(init_list);
 181:C:/Renesas/e2studio_2021_01_workspace_RZA2M_ANPR/ANPR_RZA2M_RDK/src/tensorflow_lite/src/tensorflow/lite/kernels/internal\types.h ****   }
 182:C:/Renesas/e2studio_2021_01_workspace_RZA2M_ANPR/ANPR_RZA2M_RDK/src/tensorflow_lite/src/tensorflow/lite/kernels/internal\types.h **** 
 183:C:/Renesas/e2studio_2021_01_workspace_RZA2M_ANPR/ANPR_RZA2M_RDK/src/tensorflow_lite/src/tensorflow/lite/kernels/internal\types.h ****   // Avoid using this constructor.  We should be able to delete it when C++17
 184:C:/Renesas/e2studio_2021_01_workspace_RZA2M_ANPR/ANPR_RZA2M_RDK/src/tensorflow_lite/src/tensorflow/lite/kernels/internal\types.h ****   // rolls out.
 185:C:/Renesas/e2studio_2021_01_workspace_RZA2M_ANPR/ANPR_RZA2M_RDK/src/tensorflow_lite/src/tensorflow/lite/kernels/internal\types.h ****   RuntimeShape(RuntimeShape const& other) : size_(other.DimensionsCount()) {
 186:C:/Renesas/e2studio_2021_01_workspace_RZA2M_ANPR/ANPR_RZA2M_RDK/src/tensorflow_lite/src/tensorflow/lite/kernels/internal\types.h ****     if (size_ > kMaxSmallSize) {
 187:C:/Renesas/e2studio_2021_01_workspace_RZA2M_ANPR/ANPR_RZA2M_RDK/src/tensorflow_lite/src/tensorflow/lite/kernels/internal\types.h **** #ifdef TF_LITE_STATIC_MEMORY
 188:C:/Renesas/e2studio_2021_01_workspace_RZA2M_ANPR/ANPR_RZA2M_RDK/src/tensorflow_lite/src/tensorflow/lite/kernels/internal\types.h ****       TFLITE_CHECK(false && "No shape resizing supported on this platform");
 189:C:/Renesas/e2studio_2021_01_workspace_RZA2M_ANPR/ANPR_RZA2M_RDK/src/tensorflow_lite/src/tensorflow/lite/kernels/internal\types.h **** #else
 190:C:/Renesas/e2studio_2021_01_workspace_RZA2M_ANPR/ANPR_RZA2M_RDK/src/tensorflow_lite/src/tensorflow/lite/kernels/internal\types.h ****       dims_pointer_ = new int32_t[size_];
 191:C:/Renesas/e2studio_2021_01_workspace_RZA2M_ANPR/ANPR_RZA2M_RDK/src/tensorflow_lite/src/tensorflow/lite/kernels/internal\types.h **** #endif
 192:C:/Renesas/e2studio_2021_01_workspace_RZA2M_ANPR/ANPR_RZA2M_RDK/src/tensorflow_lite/src/tensorflow/lite/kernels/internal\types.h ****     }
 193:C:/Renesas/e2studio_2021_01_workspace_RZA2M_ANPR/ANPR_RZA2M_RDK/src/tensorflow_lite/src/tensorflow/lite/kernels/internal\types.h ****     std::memcpy(DimsData(), other.DimsData(), sizeof(int32_t) * size_);
 194:C:/Renesas/e2studio_2021_01_workspace_RZA2M_ANPR/ANPR_RZA2M_RDK/src/tensorflow_lite/src/tensorflow/lite/kernels/internal\types.h ****   }
 195:C:/Renesas/e2studio_2021_01_workspace_RZA2M_ANPR/ANPR_RZA2M_RDK/src/tensorflow_lite/src/tensorflow/lite/kernels/internal\types.h **** 
 196:C:/Renesas/e2studio_2021_01_workspace_RZA2M_ANPR/ANPR_RZA2M_RDK/src/tensorflow_lite/src/tensorflow/lite/kernels/internal\types.h ****   bool operator==(const RuntimeShape& comp) const {
 197:C:/Renesas/e2studio_2021_01_workspace_RZA2M_ANPR/ANPR_RZA2M_RDK/src/tensorflow_lite/src/tensorflow/lite/kernels/internal\types.h ****     return this->size_ == comp.size_ &&
 198:C:/Renesas/e2studio_2021_01_workspace_RZA2M_ANPR/ANPR_RZA2M_RDK/src/tensorflow_lite/src/tensorflow/lite/kernels/internal\types.h ****            std::memcmp(DimsData(), comp.DimsData(), size_ * sizeof(int32_t)) ==
 199:C:/Renesas/e2studio_2021_01_workspace_RZA2M_ANPR/ANPR_RZA2M_RDK/src/tensorflow_lite/src/tensorflow/lite/kernels/internal\types.h ****                0;
 200:C:/Renesas/e2studio_2021_01_workspace_RZA2M_ANPR/ANPR_RZA2M_RDK/src/tensorflow_lite/src/tensorflow/lite/kernels/internal\types.h ****   }
 201:C:/Renesas/e2studio_2021_01_workspace_RZA2M_ANPR/ANPR_RZA2M_RDK/src/tensorflow_lite/src/tensorflow/lite/kernels/internal\types.h **** 
 202:C:/Renesas/e2studio_2021_01_workspace_RZA2M_ANPR/ANPR_RZA2M_RDK/src/tensorflow_lite/src/tensorflow/lite/kernels/internal\types.h ****   ~RuntimeShape() {
 203:C:/Renesas/e2studio_2021_01_workspace_RZA2M_ANPR/ANPR_RZA2M_RDK/src/tensorflow_lite/src/tensorflow/lite/kernels/internal\types.h ****     if (size_ > kMaxSmallSize) {
 204:C:/Renesas/e2studio_2021_01_workspace_RZA2M_ANPR/ANPR_RZA2M_RDK/src/tensorflow_lite/src/tensorflow/lite/kernels/internal\types.h **** #ifdef TF_LITE_STATIC_MEMORY
 205:C:/Renesas/e2studio_2021_01_workspace_RZA2M_ANPR/ANPR_RZA2M_RDK/src/tensorflow_lite/src/tensorflow/lite/kernels/internal\types.h ****       TFLITE_CHECK(false && "No shape resizing supported on this platform");
 206:C:/Renesas/e2studio_2021_01_workspace_RZA2M_ANPR/ANPR_RZA2M_RDK/src/tensorflow_lite/src/tensorflow/lite/kernels/internal\types.h **** #else  // TF_LITE_STATIC_MEMORY
 207:C:/Renesas/e2studio_2021_01_workspace_RZA2M_ANPR/ANPR_RZA2M_RDK/src/tensorflow_lite/src/tensorflow/lite/kernels/internal\types.h ****       delete[] dims_pointer_;
 208:C:/Renesas/e2studio_2021_01_workspace_RZA2M_ANPR/ANPR_RZA2M_RDK/src/tensorflow_lite/src/tensorflow/lite/kernels/internal\types.h **** #endif  // TF_LITE_STATIC_MEMORY
 209:C:/Renesas/e2studio_2021_01_workspace_RZA2M_ANPR/ANPR_RZA2M_RDK/src/tensorflow_lite/src/tensorflow/lite/kernels/internal\types.h ****     }
 210:C:/Renesas/e2studio_2021_01_workspace_RZA2M_ANPR/ANPR_RZA2M_RDK/src/tensorflow_lite/src/tensorflow/lite/kernels/internal\types.h ****   }
 211:C:/Renesas/e2studio_2021_01_workspace_RZA2M_ANPR/ANPR_RZA2M_RDK/src/tensorflow_lite/src/tensorflow/lite/kernels/internal\types.h **** 
 212:C:/Renesas/e2studio_2021_01_workspace_RZA2M_ANPR/ANPR_RZA2M_RDK/src/tensorflow_lite/src/tensorflow/lite/kernels/internal\types.h ****   inline int32_t DimensionsCount() const { return size_; }
 213:C:/Renesas/e2studio_2021_01_workspace_RZA2M_ANPR/ANPR_RZA2M_RDK/src/tensorflow_lite/src/tensorflow/lite/kernels/internal\types.h ****   inline int32_t Dims(int i) const {
 214:C:/Renesas/e2studio_2021_01_workspace_RZA2M_ANPR/ANPR_RZA2M_RDK/src/tensorflow_lite/src/tensorflow/lite/kernels/internal\types.h ****     TFLITE_DCHECK_GE(i, 0);
 215:C:/Renesas/e2studio_2021_01_workspace_RZA2M_ANPR/ANPR_RZA2M_RDK/src/tensorflow_lite/src/tensorflow/lite/kernels/internal\types.h ****     TFLITE_DCHECK_LT(i, size_);
 216:C:/Renesas/e2studio_2021_01_workspace_RZA2M_ANPR/ANPR_RZA2M_RDK/src/tensorflow_lite/src/tensorflow/lite/kernels/internal\types.h ****     return size_ > kMaxSmallSize ? dims_pointer_[i] : dims_[i];
 801              		.loc 6 216 0
 802 0120 E4309DE5 		ldr	r3, [sp, #228]
 803              	.LBE690:
 804              	.LBE689:
 805              	.LBB692:
 806              	.LBB693:
 807 0124 FC209DE5 		ldr	r2, [sp, #252]
 808              	.LBE693:
 809              	.LBE692:
 810              	.LBB695:
 811              	.LBB691:
 812 0128 38308DE5 		str	r3, [sp, #56]
 813              	.LVL88:
 814              	.LBE691:
 815              	.LBE695:
 217:C:/Renesas/e2studio_2021_01_workspace_RZA2M_ANPR/ANPR_RZA2M_RDK/src/tensorflow_lite/src/tensorflow/lite/kernels/internal\types.h ****   }
 218:C:/Renesas/e2studio_2021_01_workspace_RZA2M_ANPR/ANPR_RZA2M_RDK/src/tensorflow_lite/src/tensorflow/lite/kernels/internal\types.h ****   inline void SetDim(int i, int32_t val) {
 219:C:/Renesas/e2studio_2021_01_workspace_RZA2M_ANPR/ANPR_RZA2M_RDK/src/tensorflow_lite/src/tensorflow/lite/kernels/internal\types.h ****     TFLITE_DCHECK_GE(i, 0);
 220:C:/Renesas/e2studio_2021_01_workspace_RZA2M_ANPR/ANPR_RZA2M_RDK/src/tensorflow_lite/src/tensorflow/lite/kernels/internal\types.h ****     TFLITE_DCHECK_LT(i, size_);
 221:C:/Renesas/e2studio_2021_01_workspace_RZA2M_ANPR/ANPR_RZA2M_RDK/src/tensorflow_lite/src/tensorflow/lite/kernels/internal\types.h ****     if (size_ > kMaxSmallSize) {
 222:C:/Renesas/e2studio_2021_01_workspace_RZA2M_ANPR/ANPR_RZA2M_RDK/src/tensorflow_lite/src/tensorflow/lite/kernels/internal\types.h ****       dims_pointer_[i] = val;
 223:C:/Renesas/e2studio_2021_01_workspace_RZA2M_ANPR/ANPR_RZA2M_RDK/src/tensorflow_lite/src/tensorflow/lite/kernels/internal\types.h ****     } else {
 224:C:/Renesas/e2studio_2021_01_workspace_RZA2M_ANPR/ANPR_RZA2M_RDK/src/tensorflow_lite/src/tensorflow/lite/kernels/internal\types.h ****       dims_[i] = val;
 225:C:/Renesas/e2studio_2021_01_workspace_RZA2M_ANPR/ANPR_RZA2M_RDK/src/tensorflow_lite/src/tensorflow/lite/kernels/internal\types.h ****     }
 226:C:/Renesas/e2studio_2021_01_workspace_RZA2M_ANPR/ANPR_RZA2M_RDK/src/tensorflow_lite/src/tensorflow/lite/kernels/internal\types.h ****   }
 227:C:/Renesas/e2studio_2021_01_workspace_RZA2M_ANPR/ANPR_RZA2M_RDK/src/tensorflow_lite/src/tensorflow/lite/kernels/internal\types.h **** 
 228:C:/Renesas/e2studio_2021_01_workspace_RZA2M_ANPR/ANPR_RZA2M_RDK/src/tensorflow_lite/src/tensorflow/lite/kernels/internal\types.h ****   inline int32_t* DimsData() {
 229:C:/Renesas/e2studio_2021_01_workspace_RZA2M_ANPR/ANPR_RZA2M_RDK/src/tensorflow_lite/src/tensorflow/lite/kernels/internal\types.h ****     return size_ > kMaxSmallSize ? dims_pointer_ : dims_;
 230:C:/Renesas/e2studio_2021_01_workspace_RZA2M_ANPR/ANPR_RZA2M_RDK/src/tensorflow_lite/src/tensorflow/lite/kernels/internal\types.h ****   }
 231:C:/Renesas/e2studio_2021_01_workspace_RZA2M_ANPR/ANPR_RZA2M_RDK/src/tensorflow_lite/src/tensorflow/lite/kernels/internal\types.h ****   inline const int32_t* DimsData() const {
 232:C:/Renesas/e2studio_2021_01_workspace_RZA2M_ANPR/ANPR_RZA2M_RDK/src/tensorflow_lite/src/tensorflow/lite/kernels/internal\types.h ****     return size_ > kMaxSmallSize ? dims_pointer_ : dims_;
 233:C:/Renesas/e2studio_2021_01_workspace_RZA2M_ANPR/ANPR_RZA2M_RDK/src/tensorflow_lite/src/tensorflow/lite/kernels/internal\types.h ****   }
 234:C:/Renesas/e2studio_2021_01_workspace_RZA2M_ANPR/ANPR_RZA2M_RDK/src/tensorflow_lite/src/tensorflow/lite/kernels/internal\types.h ****   // The caller must ensure that the shape is no bigger than 5-D.
 235:C:/Renesas/e2studio_2021_01_workspace_RZA2M_ANPR/ANPR_RZA2M_RDK/src/tensorflow_lite/src/tensorflow/lite/kernels/internal\types.h ****   inline const int32_t* DimsDataUpTo5D() const { return dims_; }
 236:C:/Renesas/e2studio_2021_01_workspace_RZA2M_ANPR/ANPR_RZA2M_RDK/src/tensorflow_lite/src/tensorflow/lite/kernels/internal\types.h **** 
 237:C:/Renesas/e2studio_2021_01_workspace_RZA2M_ANPR/ANPR_RZA2M_RDK/src/tensorflow_lite/src/tensorflow/lite/kernels/internal\types.h ****   inline void Resize(int dimensions_count) {
 238:C:/Renesas/e2studio_2021_01_workspace_RZA2M_ANPR/ANPR_RZA2M_RDK/src/tensorflow_lite/src/tensorflow/lite/kernels/internal\types.h ****     if (size_ > kMaxSmallSize) {
 239:C:/Renesas/e2studio_2021_01_workspace_RZA2M_ANPR/ANPR_RZA2M_RDK/src/tensorflow_lite/src/tensorflow/lite/kernels/internal\types.h **** #ifdef TF_LITE_STATIC_MEMORY
 240:C:/Renesas/e2studio_2021_01_workspace_RZA2M_ANPR/ANPR_RZA2M_RDK/src/tensorflow_lite/src/tensorflow/lite/kernels/internal\types.h ****       TFLITE_CHECK(false && "No shape resizing supported on this platform");
 241:C:/Renesas/e2studio_2021_01_workspace_RZA2M_ANPR/ANPR_RZA2M_RDK/src/tensorflow_lite/src/tensorflow/lite/kernels/internal\types.h **** #else  // TF_LITE_STATIC_MEMORY
 242:C:/Renesas/e2studio_2021_01_workspace_RZA2M_ANPR/ANPR_RZA2M_RDK/src/tensorflow_lite/src/tensorflow/lite/kernels/internal\types.h ****       delete[] dims_pointer_;
 243:C:/Renesas/e2studio_2021_01_workspace_RZA2M_ANPR/ANPR_RZA2M_RDK/src/tensorflow_lite/src/tensorflow/lite/kernels/internal\types.h **** #endif  // TF_LITE_STATIC_MEMORY
 244:C:/Renesas/e2studio_2021_01_workspace_RZA2M_ANPR/ANPR_RZA2M_RDK/src/tensorflow_lite/src/tensorflow/lite/kernels/internal\types.h ****     }
 245:C:/Renesas/e2studio_2021_01_workspace_RZA2M_ANPR/ANPR_RZA2M_RDK/src/tensorflow_lite/src/tensorflow/lite/kernels/internal\types.h ****     size_ = dimensions_count;
 246:C:/Renesas/e2studio_2021_01_workspace_RZA2M_ANPR/ANPR_RZA2M_RDK/src/tensorflow_lite/src/tensorflow/lite/kernels/internal\types.h ****     if (dimensions_count > kMaxSmallSize) {
 247:C:/Renesas/e2studio_2021_01_workspace_RZA2M_ANPR/ANPR_RZA2M_RDK/src/tensorflow_lite/src/tensorflow/lite/kernels/internal\types.h **** #ifdef TF_LITE_STATIC_MEMORY
 248:C:/Renesas/e2studio_2021_01_workspace_RZA2M_ANPR/ANPR_RZA2M_RDK/src/tensorflow_lite/src/tensorflow/lite/kernels/internal\types.h ****       TFLITE_CHECK(false && "No shape resizing supported on this platform");
 249:C:/Renesas/e2studio_2021_01_workspace_RZA2M_ANPR/ANPR_RZA2M_RDK/src/tensorflow_lite/src/tensorflow/lite/kernels/internal\types.h **** #else  // TF_LITE_STATIC_MEMORY
 250:C:/Renesas/e2studio_2021_01_workspace_RZA2M_ANPR/ANPR_RZA2M_RDK/src/tensorflow_lite/src/tensorflow/lite/kernels/internal\types.h ****       dims_pointer_ = new int32_t[dimensions_count];
 251:C:/Renesas/e2studio_2021_01_workspace_RZA2M_ANPR/ANPR_RZA2M_RDK/src/tensorflow_lite/src/tensorflow/lite/kernels/internal\types.h **** #endif  // TF_LITE_STATIC_MEMORY
 252:C:/Renesas/e2studio_2021_01_workspace_RZA2M_ANPR/ANPR_RZA2M_RDK/src/tensorflow_lite/src/tensorflow/lite/kernels/internal\types.h ****     }
 253:C:/Renesas/e2studio_2021_01_workspace_RZA2M_ANPR/ANPR_RZA2M_RDK/src/tensorflow_lite/src/tensorflow/lite/kernels/internal\types.h ****   }
 254:C:/Renesas/e2studio_2021_01_workspace_RZA2M_ANPR/ANPR_RZA2M_RDK/src/tensorflow_lite/src/tensorflow/lite/kernels/internal\types.h **** 
 255:C:/Renesas/e2studio_2021_01_workspace_RZA2M_ANPR/ANPR_RZA2M_RDK/src/tensorflow_lite/src/tensorflow/lite/kernels/internal\types.h ****   inline void ReplaceWith(int dimensions_count, const int32_t* dims_data) {
 256:C:/Renesas/e2studio_2021_01_workspace_RZA2M_ANPR/ANPR_RZA2M_RDK/src/tensorflow_lite/src/tensorflow/lite/kernels/internal\types.h ****     Resize(dimensions_count);
 257:C:/Renesas/e2studio_2021_01_workspace_RZA2M_ANPR/ANPR_RZA2M_RDK/src/tensorflow_lite/src/tensorflow/lite/kernels/internal\types.h ****     int32_t* dst_dims = DimsData();
 258:C:/Renesas/e2studio_2021_01_workspace_RZA2M_ANPR/ANPR_RZA2M_RDK/src/tensorflow_lite/src/tensorflow/lite/kernels/internal\types.h ****     std::memcpy(dst_dims, dims_data, dimensions_count * sizeof(int32_t));
 259:C:/Renesas/e2studio_2021_01_workspace_RZA2M_ANPR/ANPR_RZA2M_RDK/src/tensorflow_lite/src/tensorflow/lite/kernels/internal\types.h ****   }
 260:C:/Renesas/e2studio_2021_01_workspace_RZA2M_ANPR/ANPR_RZA2M_RDK/src/tensorflow_lite/src/tensorflow/lite/kernels/internal\types.h **** 
 261:C:/Renesas/e2studio_2021_01_workspace_RZA2M_ANPR/ANPR_RZA2M_RDK/src/tensorflow_lite/src/tensorflow/lite/kernels/internal\types.h ****   template <typename T>
 262:C:/Renesas/e2studio_2021_01_workspace_RZA2M_ANPR/ANPR_RZA2M_RDK/src/tensorflow_lite/src/tensorflow/lite/kernels/internal\types.h ****   inline void BuildFrom(const T& src_iterable) {
 263:C:/Renesas/e2studio_2021_01_workspace_RZA2M_ANPR/ANPR_RZA2M_RDK/src/tensorflow_lite/src/tensorflow/lite/kernels/internal\types.h ****     const int dimensions_count =
 264:C:/Renesas/e2studio_2021_01_workspace_RZA2M_ANPR/ANPR_RZA2M_RDK/src/tensorflow_lite/src/tensorflow/lite/kernels/internal\types.h ****         std::distance(src_iterable.begin(), src_iterable.end());
 265:C:/Renesas/e2studio_2021_01_workspace_RZA2M_ANPR/ANPR_RZA2M_RDK/src/tensorflow_lite/src/tensorflow/lite/kernels/internal\types.h ****     Resize(dimensions_count);
 266:C:/Renesas/e2studio_2021_01_workspace_RZA2M_ANPR/ANPR_RZA2M_RDK/src/tensorflow_lite/src/tensorflow/lite/kernels/internal\types.h ****     int32_t* data = DimsData();
 267:C:/Renesas/e2studio_2021_01_workspace_RZA2M_ANPR/ANPR_RZA2M_RDK/src/tensorflow_lite/src/tensorflow/lite/kernels/internal\types.h ****     for (auto it : src_iterable) {
 268:C:/Renesas/e2studio_2021_01_workspace_RZA2M_ANPR/ANPR_RZA2M_RDK/src/tensorflow_lite/src/tensorflow/lite/kernels/internal\types.h ****       *data = it;
 269:C:/Renesas/e2studio_2021_01_workspace_RZA2M_ANPR/ANPR_RZA2M_RDK/src/tensorflow_lite/src/tensorflow/lite/kernels/internal\types.h ****       ++data;
 270:C:/Renesas/e2studio_2021_01_workspace_RZA2M_ANPR/ANPR_RZA2M_RDK/src/tensorflow_lite/src/tensorflow/lite/kernels/internal\types.h ****     }
 271:C:/Renesas/e2studio_2021_01_workspace_RZA2M_ANPR/ANPR_RZA2M_RDK/src/tensorflow_lite/src/tensorflow/lite/kernels/internal\types.h ****   }
 272:C:/Renesas/e2studio_2021_01_workspace_RZA2M_ANPR/ANPR_RZA2M_RDK/src/tensorflow_lite/src/tensorflow/lite/kernels/internal\types.h **** 
 273:C:/Renesas/e2studio_2021_01_workspace_RZA2M_ANPR/ANPR_RZA2M_RDK/src/tensorflow_lite/src/tensorflow/lite/kernels/internal\types.h ****   // This will probably be factored out. Old code made substantial use of 4-D
 274:C:/Renesas/e2studio_2021_01_workspace_RZA2M_ANPR/ANPR_RZA2M_RDK/src/tensorflow_lite/src/tensorflow/lite/kernels/internal\types.h ****   // shapes, and so this function is used to extend smaller shapes. Note that
 275:C:/Renesas/e2studio_2021_01_workspace_RZA2M_ANPR/ANPR_RZA2M_RDK/src/tensorflow_lite/src/tensorflow/lite/kernels/internal\types.h ****   // (a) as Dims<4>-dependent code is eliminated, the reliance on this should be
 276:C:/Renesas/e2studio_2021_01_workspace_RZA2M_ANPR/ANPR_RZA2M_RDK/src/tensorflow_lite/src/tensorflow/lite/kernels/internal\types.h ****   // reduced, and (b) some kernels are stricly 4-D, but then the shapes of their
 277:C:/Renesas/e2studio_2021_01_workspace_RZA2M_ANPR/ANPR_RZA2M_RDK/src/tensorflow_lite/src/tensorflow/lite/kernels/internal\types.h ****   // inputs should already be 4-D, so this function should not be needed.
 278:C:/Renesas/e2studio_2021_01_workspace_RZA2M_ANPR/ANPR_RZA2M_RDK/src/tensorflow_lite/src/tensorflow/lite/kernels/internal\types.h ****   inline static RuntimeShape ExtendedShape(int new_shape_size,
 279:C:/Renesas/e2studio_2021_01_workspace_RZA2M_ANPR/ANPR_RZA2M_RDK/src/tensorflow_lite/src/tensorflow/lite/kernels/internal\types.h ****                                            const RuntimeShape& shape) {
 280:C:/Renesas/e2studio_2021_01_workspace_RZA2M_ANPR/ANPR_RZA2M_RDK/src/tensorflow_lite/src/tensorflow/lite/kernels/internal\types.h ****     return RuntimeShape(new_shape_size, shape, 1);
 281:C:/Renesas/e2studio_2021_01_workspace_RZA2M_ANPR/ANPR_RZA2M_RDK/src/tensorflow_lite/src/tensorflow/lite/kernels/internal\types.h ****   }
 282:C:/Renesas/e2studio_2021_01_workspace_RZA2M_ANPR/ANPR_RZA2M_RDK/src/tensorflow_lite/src/tensorflow/lite/kernels/internal\types.h **** 
 283:C:/Renesas/e2studio_2021_01_workspace_RZA2M_ANPR/ANPR_RZA2M_RDK/src/tensorflow_lite/src/tensorflow/lite/kernels/internal\types.h ****   inline void BuildFrom(const std::initializer_list<int> init_list) {
 284:C:/Renesas/e2studio_2021_01_workspace_RZA2M_ANPR/ANPR_RZA2M_RDK/src/tensorflow_lite/src/tensorflow/lite/kernels/internal\types.h ****     BuildFrom<const std::initializer_list<int>>(init_list);
 285:C:/Renesas/e2studio_2021_01_workspace_RZA2M_ANPR/ANPR_RZA2M_RDK/src/tensorflow_lite/src/tensorflow/lite/kernels/internal\types.h ****   }
 286:C:/Renesas/e2studio_2021_01_workspace_RZA2M_ANPR/ANPR_RZA2M_RDK/src/tensorflow_lite/src/tensorflow/lite/kernels/internal\types.h **** 
 287:C:/Renesas/e2studio_2021_01_workspace_RZA2M_ANPR/ANPR_RZA2M_RDK/src/tensorflow_lite/src/tensorflow/lite/kernels/internal\types.h ****   // Returns the total count of elements, that is the size when flattened into a
 288:C:/Renesas/e2studio_2021_01_workspace_RZA2M_ANPR/ANPR_RZA2M_RDK/src/tensorflow_lite/src/tensorflow/lite/kernels/internal\types.h ****   // vector.
 289:C:/Renesas/e2studio_2021_01_workspace_RZA2M_ANPR/ANPR_RZA2M_RDK/src/tensorflow_lite/src/tensorflow/lite/kernels/internal\types.h ****   inline int FlatSize() const {
 290:C:/Renesas/e2studio_2021_01_workspace_RZA2M_ANPR/ANPR_RZA2M_RDK/src/tensorflow_lite/src/tensorflow/lite/kernels/internal\types.h ****     int buffer_size = 1;
 291:C:/Renesas/e2studio_2021_01_workspace_RZA2M_ANPR/ANPR_RZA2M_RDK/src/tensorflow_lite/src/tensorflow/lite/kernels/internal\types.h ****     const int* dims_data = reinterpret_cast<const int*>(DimsData());
 292:C:/Renesas/e2studio_2021_01_workspace_RZA2M_ANPR/ANPR_RZA2M_RDK/src/tensorflow_lite/src/tensorflow/lite/kernels/internal\types.h ****     for (int i = 0; i < size_; i++) {
 293:C:/Renesas/e2studio_2021_01_workspace_RZA2M_ANPR/ANPR_RZA2M_RDK/src/tensorflow_lite/src/tensorflow/lite/kernels/internal\types.h ****       buffer_size *= dims_data[i];
 294:C:/Renesas/e2studio_2021_01_workspace_RZA2M_ANPR/ANPR_RZA2M_RDK/src/tensorflow_lite/src/tensorflow/lite/kernels/internal\types.h ****     }
 295:C:/Renesas/e2studio_2021_01_workspace_RZA2M_ANPR/ANPR_RZA2M_RDK/src/tensorflow_lite/src/tensorflow/lite/kernels/internal\types.h ****     return buffer_size;
 296:C:/Renesas/e2studio_2021_01_workspace_RZA2M_ANPR/ANPR_RZA2M_RDK/src/tensorflow_lite/src/tensorflow/lite/kernels/internal\types.h ****   }
 297:C:/Renesas/e2studio_2021_01_workspace_RZA2M_ANPR/ANPR_RZA2M_RDK/src/tensorflow_lite/src/tensorflow/lite/kernels/internal\types.h **** 
 298:C:/Renesas/e2studio_2021_01_workspace_RZA2M_ANPR/ANPR_RZA2M_RDK/src/tensorflow_lite/src/tensorflow/lite/kernels/internal\types.h ****   bool operator!=(const RuntimeShape& comp) const { return !((*this) == comp); }
 299:C:/Renesas/e2studio_2021_01_workspace_RZA2M_ANPR/ANPR_RZA2M_RDK/src/tensorflow_lite/src/tensorflow/lite/kernels/internal\types.h **** 
 300:C:/Renesas/e2studio_2021_01_workspace_RZA2M_ANPR/ANPR_RZA2M_RDK/src/tensorflow_lite/src/tensorflow/lite/kernels/internal\types.h ****  private:
 301:C:/Renesas/e2studio_2021_01_workspace_RZA2M_ANPR/ANPR_RZA2M_RDK/src/tensorflow_lite/src/tensorflow/lite/kernels/internal\types.h ****   // For use only by ExtendedShape(), written to guarantee (return-value) copy
 302:C:/Renesas/e2studio_2021_01_workspace_RZA2M_ANPR/ANPR_RZA2M_RDK/src/tensorflow_lite/src/tensorflow/lite/kernels/internal\types.h ****   // elision in C++17.
 303:C:/Renesas/e2studio_2021_01_workspace_RZA2M_ANPR/ANPR_RZA2M_RDK/src/tensorflow_lite/src/tensorflow/lite/kernels/internal\types.h ****   // This creates a shape padded to the desired size with the specified value.
 304:C:/Renesas/e2studio_2021_01_workspace_RZA2M_ANPR/ANPR_RZA2M_RDK/src/tensorflow_lite/src/tensorflow/lite/kernels/internal\types.h ****   RuntimeShape(int new_shape_size, const RuntimeShape& shape, int pad_value)
 305:C:/Renesas/e2studio_2021_01_workspace_RZA2M_ANPR/ANPR_RZA2M_RDK/src/tensorflow_lite/src/tensorflow/lite/kernels/internal\types.h ****       : size_(0) {
 306:C:/Renesas/e2studio_2021_01_workspace_RZA2M_ANPR/ANPR_RZA2M_RDK/src/tensorflow_lite/src/tensorflow/lite/kernels/internal\types.h ****     // If the following check fails, it is likely because a 4D-only kernel is
 307:C:/Renesas/e2studio_2021_01_workspace_RZA2M_ANPR/ANPR_RZA2M_RDK/src/tensorflow_lite/src/tensorflow/lite/kernels/internal\types.h ****     // being used with an array of larger dimension count.
 308:C:/Renesas/e2studio_2021_01_workspace_RZA2M_ANPR/ANPR_RZA2M_RDK/src/tensorflow_lite/src/tensorflow/lite/kernels/internal\types.h ****     TFLITE_CHECK_GE(new_shape_size, shape.DimensionsCount());
