   1              		.cpu cortex-a9
   2              		.eabi_attribute 28, 1
   3              		.eabi_attribute 20, 1
   4              		.eabi_attribute 21, 1
   5              		.eabi_attribute 23, 3
   6              		.eabi_attribute 24, 1
   7              		.eabi_attribute 25, 1
   8              		.eabi_attribute 26, 1
   9              		.eabi_attribute 30, 1
  10              		.eabi_attribute 34, 0
  11              		.eabi_attribute 18, 4
  12              		.file	"cpuBoardLed.c"
  13              		.text
  14              	.Ltext0:
  15              		.cfi_sections	.debug_frame
  16              		.section	.text.initCpuBoardLed,"ax",%progbits
  17              		.align	2
  18              		.global	initCpuBoardLed
  19              		.syntax unified
  20              		.arm
  21              		.fpu neon
  23              	initCpuBoardLed:
  24              	.LFB4:
  25              		.file 1 "../src/renesas/application/subBoard/src/cpuBoardLed.c"
   1:../src/renesas/application/subBoard/src/cpuBoardLed.c **** /*
   2:../src/renesas/application/subBoard/src/cpuBoardLed.c ****  * cpuBoardLed.c
   3:../src/renesas/application/subBoard/src/cpuBoardLed.c ****  *
   4:../src/renesas/application/subBoard/src/cpuBoardLed.c ****  *  Created on: 29.01.2020
   5:../src/renesas/application/subBoard/src/cpuBoardLed.c ****  *      Author: a5050305
   6:../src/renesas/application/subBoard/src/cpuBoardLed.c ****  */
   7:../src/renesas/application/subBoard/src/cpuBoardLed.c **** 
   8:../src/renesas/application/subBoard/src/cpuBoardLed.c **** /******************************************************************************
   9:../src/renesas/application/subBoard/src/cpuBoardLed.c **** Includes   <System Includes> , "Project Includes"
  10:../src/renesas/application/subBoard/src/cpuBoardLed.c ****  ******************************************************************************/
  11:../src/renesas/application/subBoard/src/cpuBoardLed.c **** 
  12:../src/renesas/application/subBoard/src/cpuBoardLed.c **** #include <stdio.h>
  13:../src/renesas/application/subBoard/src/cpuBoardLed.c **** #include <fcntl.h>
  14:../src/renesas/application/subBoard/src/cpuBoardLed.c **** #include <string.h>
  15:../src/renesas/application/subBoard/src/cpuBoardLed.c **** #include <unistd.h>
  16:../src/renesas/application/subBoard/src/cpuBoardLed.c **** 
  17:../src/renesas/application/subBoard/src/cpuBoardLed.c **** #include "r_typedefs.h"
  18:../src/renesas/application/subBoard/src/cpuBoardLed.c **** #include "iodefine.h"
  19:../src/renesas/application/subBoard/src/cpuBoardLed.c **** 
  20:../src/renesas/application/subBoard/src/cpuBoardLed.c **** #include "compiler_settings.h"
  21:../src/renesas/application/subBoard/src/cpuBoardLed.c **** 
  22:../src/renesas/application/subBoard/src/cpuBoardLed.c **** #include "r_gpio_drv_api.h"
  23:../src/renesas/application/subBoard/src/cpuBoardLed.c **** 
  24:../src/renesas/application/subBoard/src/cpuBoardLed.c **** #include "cpuBoardLed.h"
  25:../src/renesas/application/subBoard/src/cpuBoardLed.c **** 
  26:../src/renesas/application/subBoard/src/cpuBoardLed.c **** 
  27:../src/renesas/application/subBoard/src/cpuBoardLed.c **** /******************************************************************************
  28:../src/renesas/application/subBoard/src/cpuBoardLed.c **** Imported global variables and functions (from other files)
  29:../src/renesas/application/subBoard/src/cpuBoardLed.c ****  ******************************************************************************/
  30:../src/renesas/application/subBoard/src/cpuBoardLed.c **** 
  31:../src/renesas/application/subBoard/src/cpuBoardLed.c **** /******************************************************************************
  32:../src/renesas/application/subBoard/src/cpuBoardLed.c **** Exported global variables and functions (to be accessed by other files)
  33:../src/renesas/application/subBoard/src/cpuBoardLed.c ****  ******************************************************************************/
  34:../src/renesas/application/subBoard/src/cpuBoardLed.c **** 
  35:../src/renesas/application/subBoard/src/cpuBoardLed.c **** /******************************************************************************
  36:../src/renesas/application/subBoard/src/cpuBoardLed.c **** local global variables
  37:../src/renesas/application/subBoard/src/cpuBoardLed.c ****  ******************************************************************************/
  38:../src/renesas/application/subBoard/src/cpuBoardLed.c **** 
  39:../src/renesas/application/subBoard/src/cpuBoardLed.c **** 
  40:../src/renesas/application/subBoard/src/cpuBoardLed.c **** /**************************************************************************************************
  41:../src/renesas/application/subBoard/src/cpuBoardLed.c ****  Private global variables and functions
  42:../src/renesas/application/subBoard/src/cpuBoardLed.c ****  **************************************************************************************************
  43:../src/renesas/application/subBoard/src/cpuBoardLed.c **** //static uint32_t s_main_led_flg;      /* LED lighting/turning off */
  44:../src/renesas/application/subBoard/src/cpuBoardLed.c **** static int_t s_my_gpio_handle;
  45:../src/renesas/application/subBoard/src/cpuBoardLed.c **** 
  46:../src/renesas/application/subBoard/src/cpuBoardLed.c **** static st_r_drv_gpio_pin_rw_t s_p60_on =
  47:../src/renesas/application/subBoard/src/cpuBoardLed.c **** {
  48:../src/renesas/application/subBoard/src/cpuBoardLed.c ****     GPIO_PORT_6_PIN_0,
  49:../src/renesas/application/subBoard/src/cpuBoardLed.c ****     GPIO_LEVEL_HIGH,
  50:../src/renesas/application/subBoard/src/cpuBoardLed.c ****     GPIO_SUCCESS
  51:../src/renesas/application/subBoard/src/cpuBoardLed.c **** };
  52:../src/renesas/application/subBoard/src/cpuBoardLed.c **** 
  53:../src/renesas/application/subBoard/src/cpuBoardLed.c **** static st_r_drv_gpio_pin_rw_t s_p60_off =
  54:../src/renesas/application/subBoard/src/cpuBoardLed.c **** {
  55:../src/renesas/application/subBoard/src/cpuBoardLed.c ****     GPIO_PORT_6_PIN_0,
  56:../src/renesas/application/subBoard/src/cpuBoardLed.c ****     GPIO_LEVEL_LOW,
  57:../src/renesas/application/subBoard/src/cpuBoardLed.c ****     GPIO_SUCCESS
  58:../src/renesas/application/subBoard/src/cpuBoardLed.c **** };
  59:../src/renesas/application/subBoard/src/cpuBoardLed.c **** 
  60:../src/renesas/application/subBoard/src/cpuBoardLed.c **** 
  61:../src/renesas/application/subBoard/src/cpuBoardLed.c **** static st_r_drv_gpio_pin_rw_t s_pC1_on =
  62:../src/renesas/application/subBoard/src/cpuBoardLed.c **** {
  63:../src/renesas/application/subBoard/src/cpuBoardLed.c **** 	GPIO_PORT_C_PIN_1,
  64:../src/renesas/application/subBoard/src/cpuBoardLed.c ****     GPIO_LEVEL_HIGH,
  65:../src/renesas/application/subBoard/src/cpuBoardLed.c ****     GPIO_SUCCESS
  66:../src/renesas/application/subBoard/src/cpuBoardLed.c **** };
  67:../src/renesas/application/subBoard/src/cpuBoardLed.c **** 
  68:../src/renesas/application/subBoard/src/cpuBoardLed.c **** static st_r_drv_gpio_pin_rw_t s_pC1_off =
  69:../src/renesas/application/subBoard/src/cpuBoardLed.c **** {
  70:../src/renesas/application/subBoard/src/cpuBoardLed.c **** 	GPIO_PORT_C_PIN_1,
  71:../src/renesas/application/subBoard/src/cpuBoardLed.c ****     GPIO_LEVEL_LOW,
  72:../src/renesas/application/subBoard/src/cpuBoardLed.c ****     GPIO_SUCCESS
  73:../src/renesas/application/subBoard/src/cpuBoardLed.c **** };
  74:../src/renesas/application/subBoard/src/cpuBoardLed.c **** 
  75:../src/renesas/application/subBoard/src/cpuBoardLed.c **** static const r_gpio_port_pin_t s_led_pin_list[] =
  76:../src/renesas/application/subBoard/src/cpuBoardLed.c **** {
  77:../src/renesas/application/subBoard/src/cpuBoardLed.c ****     GPIO_PORT_6_PIN_0,
  78:../src/renesas/application/subBoard/src/cpuBoardLed.c **** 	GPIO_PORT_C_PIN_1,
  79:../src/renesas/application/subBoard/src/cpuBoardLed.c **** };
  80:../src/renesas/application/subBoard/src/cpuBoardLed.c **** 
  81:../src/renesas/application/subBoard/src/cpuBoardLed.c **** static st_r_drv_gpio_pin_list_t pin_led ;
  82:../src/renesas/application/subBoard/src/cpuBoardLed.c **** 
  83:../src/renesas/application/subBoard/src/cpuBoardLed.c **** 
  84:../src/renesas/application/subBoard/src/cpuBoardLed.c **** /**************************************************************************************************
  85:../src/renesas/application/subBoard/src/cpuBoardLed.c ****  * global functions
  86:../src/renesas/application/subBoard/src/cpuBoardLed.c ****  **************************************************************************************************
  87:../src/renesas/application/subBoard/src/cpuBoardLed.c **** 
  88:../src/renesas/application/subBoard/src/cpuBoardLed.c **** /**************************************************************************************************
  89:../src/renesas/application/subBoard/src/cpuBoardLed.c ****  * Function Name: initCpuLed
  90:../src/renesas/application/subBoard/src/cpuBoardLed.c ****  * Description  : initialize the gpio driver andport pins PC_1, P6_0
  91:../src/renesas/application/subBoard/src/cpuBoardLed.c ****  * Arguments    : none
  92:../src/renesas/application/subBoard/src/cpuBoardLed.c ****  * Return Value : 0
  93:../src/renesas/application/subBoard/src/cpuBoardLed.c ****  **************************************************************************************************
  94:../src/renesas/application/subBoard/src/cpuBoardLed.c **** 
  95:../src/renesas/application/subBoard/src/cpuBoardLed.c ****  void initCpuBoardLed(void) {
  26              		.loc 1 95 0
  27              		.cfi_startproc
  28              		@ args = 0, pretend = 0, frame = 0
  29              		@ frame_needed = 0, uses_anonymous_args = 0
  30 0000 10402DE9 		push	{r4, lr}
  31              		.cfi_def_cfa_offset 8
  32              		.cfi_offset 4, -8
  33              		.cfi_offset 14, -4
  96:../src/renesas/application/subBoard/src/cpuBoardLed.c ****           int_t err;
  97:../src/renesas/application/subBoard/src/cpuBoardLed.c **** 
  98:../src/renesas/application/subBoard/src/cpuBoardLed.c ****          /* For information only
  99:../src/renesas/application/subBoard/src/cpuBoardLed.c ****           * Use stdio calls to open drivers once  the kernel is initialised
 100:../src/renesas/application/subBoard/src/cpuBoardLed.c ****           *
 101:../src/renesas/application/subBoard/src/cpuBoardLed.c ****           * i.e.
 102:../src/renesas/application/subBoard/src/cpuBoardLed.c ****           * int_t ostm3_handle;
 103:../src/renesas/application/subBoard/src/cpuBoardLed.c ****           * ostm3_handle = open (DEVICE_INDENTIFIER "ostm2", O_RDWR);
 104:../src/renesas/application/subBoard/src/cpuBoardLed.c ****           * close (ostm3_handle);
 105:../src/renesas/application/subBoard/src/cpuBoardLed.c ****           */
 106:../src/renesas/application/subBoard/src/cpuBoardLed.c **** 
 107:../src/renesas/application/subBoard/src/cpuBoardLed.c ****           s_my_gpio_handle = open(DEVICE_INDENTIFIER "gpio", O_RDWR);
  34              		.loc 1 107 0
  35 0004 0210A0E3 		mov	r1, #2
  36 0008 000000E3 		movw	r0, #:lower16:.LC0
  37 000c 000040E3 		movt	r0, #:upper16:.LC0
  38 0010 FEFFFFEB 		bl	open
  39              	.LVL0:
  40 0014 003000E3 		movw	r3, #:lower16:.LANCHOR0
  41 0018 003040E3 		movt	r3, #:upper16:.LANCHOR0
  42 001c 000083E5 		str	r0, [r3]
 108:../src/renesas/application/subBoard/src/cpuBoardLed.c **** 
 109:../src/renesas/application/subBoard/src/cpuBoardLed.c ****           /* On error */
 110:../src/renesas/application/subBoard/src/cpuBoardLed.c ****           if (s_my_gpio_handle < 0) {
  43              		.loc 1 110 0
  44 0020 000050E3 		cmp	r0, #0
  45 0024 010000AA 		bge	.L2
  46              	.L3:
  47              	.LBB6:
  48              	.LBB7:
  49              		.file 2 "C:/Renesas/e2studio_2021_01_workspace_RZA2M_ANPR/ANPR_RZA2M_EBK/generate/compiler/inc/r_c
   1:C:/Renesas/e2studio_2021_01_workspace_RZA2M_ANPR/ANPR_RZA2M_EBK/generate/compiler/inc\r_compiler_abstraction_api.h **** /**************************************************************************************************
   2:C:/Renesas/e2studio_2021_01_workspace_RZA2M_ANPR/ANPR_RZA2M_EBK/generate/compiler/inc\r_compiler_abstraction_api.h ****  * DISCLAIMER
   3:C:/Renesas/e2studio_2021_01_workspace_RZA2M_ANPR/ANPR_RZA2M_EBK/generate/compiler/inc\r_compiler_abstraction_api.h ****  * This software is supplied by Renesas Electronics Corporation and is only intended for use with R
   4:C:/Renesas/e2studio_2021_01_workspace_RZA2M_ANPR/ANPR_RZA2M_EBK/generate/compiler/inc\r_compiler_abstraction_api.h ****  * other uses are authorized. This software is owned by Renesas Electronics Corporation and is prot
   5:C:/Renesas/e2studio_2021_01_workspace_RZA2M_ANPR/ANPR_RZA2M_EBK/generate/compiler/inc\r_compiler_abstraction_api.h ****  * applicable laws, including copyright laws.
   6:C:/Renesas/e2studio_2021_01_workspace_RZA2M_ANPR/ANPR_RZA2M_EBK/generate/compiler/inc\r_compiler_abstraction_api.h ****  * THIS SOFTWARE IS PROVIDED "AS IS" AND RENESAS MAKES NO WARRANTIES REGARDING
   7:C:/Renesas/e2studio_2021_01_workspace_RZA2M_ANPR/ANPR_RZA2M_EBK/generate/compiler/inc\r_compiler_abstraction_api.h ****  * THIS SOFTWARE, WHETHER EXPRESS, IMPLIED OR STATUTORY, INCLUDING BUT NOT LIMITED TO WARRANTIES OF
   8:C:/Renesas/e2studio_2021_01_workspace_RZA2M_ANPR/ANPR_RZA2M_EBK/generate/compiler/inc\r_compiler_abstraction_api.h ****  * FITNESS FOR A PARTICULAR PURPOSE AND NON-INFRINGEMENT. ALL SUCH WARRANTIES ARE EXPRESSLY DISCLAI
   9:C:/Renesas/e2studio_2021_01_workspace_RZA2M_ANPR/ANPR_RZA2M_EBK/generate/compiler/inc\r_compiler_abstraction_api.h ****  * EXTENT PERMITTED NOT PROHIBITED BY LAW, NEITHER RENESAS ELECTRONICS CORPORATION NOR ANY OF ITS A
  10:C:/Renesas/e2studio_2021_01_workspace_RZA2M_ANPR/ANPR_RZA2M_EBK/generate/compiler/inc\r_compiler_abstraction_api.h ****  * SHALL BE LIABLE FOR ANY DIRECT, INDIRECT, SPECIAL, INCIDENTAL OR CONSEQUENTIAL DAMAGES FOR ANY R
  11:C:/Renesas/e2studio_2021_01_workspace_RZA2M_ANPR/ANPR_RZA2M_EBK/generate/compiler/inc\r_compiler_abstraction_api.h ****  * SOFTWARE, EVEN IF RENESAS OR ITS AFFILIATES HAVE BEEN ADVISED OF THE POSSIBILITY OF SUCH DAMAGES
  12:C:/Renesas/e2studio_2021_01_workspace_RZA2M_ANPR/ANPR_RZA2M_EBK/generate/compiler/inc\r_compiler_abstraction_api.h ****  * Renesas reserves the right, without notice, to make changes to this software and to discontinue 
  13:C:/Renesas/e2studio_2021_01_workspace_RZA2M_ANPR/ANPR_RZA2M_EBK/generate/compiler/inc\r_compiler_abstraction_api.h ****  * this software. By using this software, you agree to the additional terms and conditions found by
  14:C:/Renesas/e2studio_2021_01_workspace_RZA2M_ANPR/ANPR_RZA2M_EBK/generate/compiler/inc\r_compiler_abstraction_api.h ****  * following link:
  15:C:/Renesas/e2studio_2021_01_workspace_RZA2M_ANPR/ANPR_RZA2M_EBK/generate/compiler/inc\r_compiler_abstraction_api.h ****  * http://www.renesas.com/disclaimer
  16:C:/Renesas/e2studio_2021_01_workspace_RZA2M_ANPR/ANPR_RZA2M_EBK/generate/compiler/inc\r_compiler_abstraction_api.h ****  *
  17:C:/Renesas/e2studio_2021_01_workspace_RZA2M_ANPR/ANPR_RZA2M_EBK/generate/compiler/inc\r_compiler_abstraction_api.h ****  * Copyright (C) 2020 Renesas Electronics Corporation. All rights reserved.
  18:C:/Renesas/e2studio_2021_01_workspace_RZA2M_ANPR/ANPR_RZA2M_EBK/generate/compiler/inc\r_compiler_abstraction_api.h ****  **************************************************************************************************
  19:C:/Renesas/e2studio_2021_01_workspace_RZA2M_ANPR/ANPR_RZA2M_EBK/generate/compiler/inc\r_compiler_abstraction_api.h **** /**************************************************************************************************
  20:C:/Renesas/e2studio_2021_01_workspace_RZA2M_ANPR/ANPR_RZA2M_EBK/generate/compiler/inc\r_compiler_abstraction_api.h ****  * File Name    : r_compiler_abstraction_api.h
  21:C:/Renesas/e2studio_2021_01_workspace_RZA2M_ANPR/ANPR_RZA2M_EBK/generate/compiler/inc\r_compiler_abstraction_api.h ****  * Description  : Provides a common API for frequently used compiler specific operations
  22:C:/Renesas/e2studio_2021_01_workspace_RZA2M_ANPR/ANPR_RZA2M_EBK/generate/compiler/inc\r_compiler_abstraction_api.h ****  **************************************************************************************************
  23:C:/Renesas/e2studio_2021_01_workspace_RZA2M_ANPR/ANPR_RZA2M_EBK/generate/compiler/inc\r_compiler_abstraction_api.h **** #include  "r_typedefs.h"
  24:C:/Renesas/e2studio_2021_01_workspace_RZA2M_ANPR/ANPR_RZA2M_EBK/generate/compiler/inc\r_compiler_abstraction_api.h **** 
  25:C:/Renesas/e2studio_2021_01_workspace_RZA2M_ANPR/ANPR_RZA2M_EBK/generate/compiler/inc\r_compiler_abstraction_api.h **** #ifndef SRC_PRV_RENESAS_COMPILER_INC_R_COMPILER_ABSTRACTION_API_H_
  26:C:/Renesas/e2studio_2021_01_workspace_RZA2M_ANPR/ANPR_RZA2M_EBK/generate/compiler/inc\r_compiler_abstraction_api.h **** #define SRC_PRV_RENESAS_COMPILER_INC_R_COMPILER_ABSTRACTION_API_H_
  27:C:/Renesas/e2studio_2021_01_workspace_RZA2M_ANPR/ANPR_RZA2M_EBK/generate/compiler/inc\r_compiler_abstraction_api.h **** 
  28:C:/Renesas/e2studio_2021_01_workspace_RZA2M_ANPR/ANPR_RZA2M_EBK/generate/compiler/inc\r_compiler_abstraction_api.h **** /* Macro is used to declare linkage to a function as weak so that it can be overridden by a normall
  29:C:/Renesas/e2studio_2021_01_workspace_RZA2M_ANPR/ANPR_RZA2M_EBK/generate/compiler/inc\r_compiler_abstraction_api.h ****  * Update this when using a different compiler. */
  30:C:/Renesas/e2studio_2021_01_workspace_RZA2M_ANPR/ANPR_RZA2M_EBK/generate/compiler/inc\r_compiler_abstraction_api.h **** #define R_COMPILER_WEAK __attribute__((weak))
  31:C:/Renesas/e2studio_2021_01_workspace_RZA2M_ANPR/ANPR_RZA2M_EBK/generate/compiler/inc\r_compiler_abstraction_api.h **** 
  32:C:/Renesas/e2studio_2021_01_workspace_RZA2M_ANPR/ANPR_RZA2M_EBK/generate/compiler/inc\r_compiler_abstraction_api.h **** #define R_COMPILER_INLINE static inline
  33:C:/Renesas/e2studio_2021_01_workspace_RZA2M_ANPR/ANPR_RZA2M_EBK/generate/compiler/inc\r_compiler_abstraction_api.h **** 
  34:C:/Renesas/e2studio_2021_01_workspace_RZA2M_ANPR/ANPR_RZA2M_EBK/generate/compiler/inc\r_compiler_abstraction_api.h **** extern void __enable_irq (void);
  35:C:/Renesas/e2studio_2021_01_workspace_RZA2M_ANPR/ANPR_RZA2M_EBK/generate/compiler/inc\r_compiler_abstraction_api.h **** extern uint32_t __disable_irq (void);
  36:C:/Renesas/e2studio_2021_01_workspace_RZA2M_ANPR/ANPR_RZA2M_EBK/generate/compiler/inc\r_compiler_abstraction_api.h **** extern void __enable_fiq (void);
  37:C:/Renesas/e2studio_2021_01_workspace_RZA2M_ANPR/ANPR_RZA2M_EBK/generate/compiler/inc\r_compiler_abstraction_api.h **** extern void __disable_fiq (void);
  38:C:/Renesas/e2studio_2021_01_workspace_RZA2M_ANPR/ANPR_RZA2M_EBK/generate/compiler/inc\r_compiler_abstraction_api.h **** 
  39:C:/Renesas/e2studio_2021_01_workspace_RZA2M_ANPR/ANPR_RZA2M_EBK/generate/compiler/inc\r_compiler_abstraction_api.h **** /**************************************************************************************************
  40:C:/Renesas/e2studio_2021_01_workspace_RZA2M_ANPR/ANPR_RZA2M_EBK/generate/compiler/inc\r_compiler_abstraction_api.h ****  * Function Name: R_COMPILER_Nop
  41:C:/Renesas/e2studio_2021_01_workspace_RZA2M_ANPR/ANPR_RZA2M_EBK/generate/compiler/inc\r_compiler_abstraction_api.h ****  * Description  : Abstracting a compiler No Operation opcode into a C function. Update this when us
  42:C:/Renesas/e2studio_2021_01_workspace_RZA2M_ANPR/ANPR_RZA2M_EBK/generate/compiler/inc\r_compiler_abstraction_api.h ****  *                compiler.
  43:C:/Renesas/e2studio_2021_01_workspace_RZA2M_ANPR/ANPR_RZA2M_EBK/generate/compiler/inc\r_compiler_abstraction_api.h ****  * Return Value : None.
  44:C:/Renesas/e2studio_2021_01_workspace_RZA2M_ANPR/ANPR_RZA2M_EBK/generate/compiler/inc\r_compiler_abstraction_api.h ****  **************************************************************************************************
  45:C:/Renesas/e2studio_2021_01_workspace_RZA2M_ANPR/ANPR_RZA2M_EBK/generate/compiler/inc\r_compiler_abstraction_api.h **** R_COMPILER_INLINE void R_COMPILER_Nop (void)
  46:C:/Renesas/e2studio_2021_01_workspace_RZA2M_ANPR/ANPR_RZA2M_EBK/generate/compiler/inc\r_compiler_abstraction_api.h ****     {
  47:C:/Renesas/e2studio_2021_01_workspace_RZA2M_ANPR/ANPR_RZA2M_EBK/generate/compiler/inc\r_compiler_abstraction_api.h ****         __asm volatile ("nop");
  50              		.loc 2 47 0 discriminator 1
  51              		.syntax divided
  52              	@ 47 "C:/Renesas/e2studio_2021_01_workspace_RZA2M_ANPR/ANPR_RZA2M_EBK/generate/compiler/inc/r_compi
  53 0028 00F020E3 		nop
  54              	@ 0 "" 2
  55              		.arm
  56              		.syntax unified
  57 002c FDFFFFEA 		b	.L3
  58              	.L2:
  59              	.LBE7:
  60              	.LBE6:
 111:../src/renesas/application/subBoard/src/cpuBoardLed.c ****              /* stop execute */
 112:../src/renesas/application/subBoard/src/cpuBoardLed.c ****              while (1) {
 113:../src/renesas/application/subBoard/src/cpuBoardLed.c ****                  R_COMPILER_Nop();
 114:../src/renesas/application/subBoard/src/cpuBoardLed.c ****              }
 115:../src/renesas/application/subBoard/src/cpuBoardLed.c ****            }
 116:../src/renesas/application/subBoard/src/cpuBoardLed.c **** 
 117:../src/renesas/application/subBoard/src/cpuBoardLed.c ****            pin_led.p_pin_list = s_led_pin_list;
  61              		.loc 1 117 0
  62 0030 002000E3 		movw	r2, #:lower16:.LANCHOR1
  63 0034 002040E3 		movt	r2, #:upper16:.LANCHOR1
  64 0038 003000E3 		movw	r3, #:lower16:.LANCHOR2
  65 003c 003040E3 		movt	r3, #:upper16:.LANCHOR2
  66 0040 003082E5 		str	r3, [r2]
 118:../src/renesas/application/subBoard/src/cpuBoardLed.c ****            pin_led.count = (sizeof(s_led_pin_list)) / (sizeof(s_led_pin_list[0]));
  67              		.loc 1 118 0
  68 0044 0210A0E3 		mov	r1, #2
  69 0048 041082E5 		str	r1, [r2, #4]
 119:../src/renesas/application/subBoard/src/cpuBoardLed.c ****            err = direct_control(s_my_gpio_handle, CTL_GPIO_INIT_BY_PIN_LIST, &pin_led);
  70              		.loc 1 119 0
  71 004c FEFFFFEB 		bl	direct_control
  72              	.LVL1:
 120:../src/renesas/application/subBoard/src/cpuBoardLed.c **** 
 121:../src/renesas/application/subBoard/src/cpuBoardLed.c ****            /* On error */
 122:../src/renesas/application/subBoard/src/cpuBoardLed.c ****             if (err < 0)
  73              		.loc 1 122 0
  74 0050 000050E3 		cmp	r0, #0
  75 0054 1080BDA8 		popge	{r4, pc}
  76              	.L5:
  77              	.LBB8:
  78              	.LBB9:
  79              		.loc 2 47 0 discriminator 1
  80              		.syntax divided
  81              	@ 47 "C:/Renesas/e2studio_2021_01_workspace_RZA2M_ANPR/ANPR_RZA2M_EBK/generate/compiler/inc/r_compi
  82 0058 00F020E3 		nop
  83              	@ 0 "" 2
  84              		.arm
  85              		.syntax unified
  86 005c FDFFFFEA 		b	.L5
  87              	.LBE9:
  88              	.LBE8:
  89              		.cfi_endproc
  90              	.LFE4:
  92              		.section	.text.cpuBoardLedGreen,"ax",%progbits
  93              		.align	2
  94              		.global	cpuBoardLedGreen
  95              		.syntax unified
  96              		.arm
  97              		.fpu neon
  99              	cpuBoardLedGreen:
 100              	.LFB5:
 123:../src/renesas/application/subBoard/src/cpuBoardLed.c ****             {
 124:../src/renesas/application/subBoard/src/cpuBoardLed.c ****                 /* stop execute */
 125:../src/renesas/application/subBoard/src/cpuBoardLed.c ****                 while (1)
 126:../src/renesas/application/subBoard/src/cpuBoardLed.c ****                 {
 127:../src/renesas/application/subBoard/src/cpuBoardLed.c ****                     R_COMPILER_Nop();
 128:../src/renesas/application/subBoard/src/cpuBoardLed.c ****                 }
 129:../src/renesas/application/subBoard/src/cpuBoardLed.c ****             }
 130:../src/renesas/application/subBoard/src/cpuBoardLed.c ****         }
 131:../src/renesas/application/subBoard/src/cpuBoardLed.c **** 
 132:../src/renesas/application/subBoard/src/cpuBoardLed.c **** 
 133:../src/renesas/application/subBoard/src/cpuBoardLed.c **** 
 134:../src/renesas/application/subBoard/src/cpuBoardLed.c **** /**************************************************************************************************
 135:../src/renesas/application/subBoard/src/cpuBoardLed.c ****  * Function Name: cpuBoardLedGreen
 136:../src/renesas/application/subBoard/src/cpuBoardLed.c ****  * Description  : switch the green LED on/off (if the red LED is on the green LED looks like yellow
 137:../src/renesas/application/subBoard/src/cpuBoardLed.c ****  * Arguments    : drive (0-off, 1-on)
 138:../src/renesas/application/subBoard/src/cpuBoardLed.c ****  * Return Value : -
 139:../src/renesas/application/subBoard/src/cpuBoardLed.c ****  **************************************************************************************************
 140:../src/renesas/application/subBoard/src/cpuBoardLed.c **** void cpuBoardLedGreen ( int_t drive ) {
 101              		.loc 1 140 0
 102              		.cfi_startproc
 103              		@ args = 0, pretend = 0, frame = 0
 104              		@ frame_needed = 0, uses_anonymous_args = 0
 105              	.LVL2:
 106 0000 10402DE9 		push	{r4, lr}
 107              		.cfi_def_cfa_offset 8
 108              		.cfi_offset 4, -8
 109              		.cfi_offset 14, -4
 141:../src/renesas/application/subBoard/src/cpuBoardLed.c **** 	if ( drive ) {
 110              		.loc 1 141 0
 111 0004 000050E3 		cmp	r0, #0
 112 0008 0700001A 		bne	.L11
 142:../src/renesas/application/subBoard/src/cpuBoardLed.c **** 		direct_control(s_my_gpio_handle, CTL_GPIO_PIN_WRITE, &s_pC1_on);
 143:../src/renesas/application/subBoard/src/cpuBoardLed.c **** 	} else {
 144:../src/renesas/application/subBoard/src/cpuBoardLed.c **** 		direct_control(s_my_gpio_handle, CTL_GPIO_PIN_WRITE, &s_pC1_off);
 113              		.loc 1 144 0
 114 000c 003000E3 		movw	r3, #:lower16:.LANCHOR0
 115 0010 003040E3 		movt	r3, #:upper16:.LANCHOR0
 116 0014 002000E3 		movw	r2, #:lower16:.LANCHOR4
 117 0018 002040E3 		movt	r2, #:upper16:.LANCHOR4
 118 001c 0810A0E3 		mov	r1, #8
 119 0020 000093E5 		ldr	r0, [r3]
 120              	.LVL3:
 121 0024 FEFFFFEB 		bl	direct_control
 122              	.LVL4:
 123 0028 1080BDE8 		pop	{r4, pc}
 124              	.LVL5:
 125              	.L11:
 142:../src/renesas/application/subBoard/src/cpuBoardLed.c **** 		direct_control(s_my_gpio_handle, CTL_GPIO_PIN_WRITE, &s_pC1_on);
 126              		.loc 1 142 0
 127 002c 003000E3 		movw	r3, #:lower16:.LANCHOR0
 128 0030 003040E3 		movt	r3, #:upper16:.LANCHOR0
 129 0034 002000E3 		movw	r2, #:lower16:.LANCHOR3
 130 0038 002040E3 		movt	r2, #:upper16:.LANCHOR3
 131 003c 0810A0E3 		mov	r1, #8
 132 0040 000093E5 		ldr	r0, [r3]
 133              	.LVL6:
 134 0044 FEFFFFEB 		bl	direct_control
 135              	.LVL7:
 136 0048 1080BDE8 		pop	{r4, pc}
 137              		.cfi_endproc
 138              	.LFE5:
 140              		.section	.text.cpuBoardLedRed,"ax",%progbits
 141              		.align	2
 142              		.global	cpuBoardLedRed
 143              		.syntax unified
 144              		.arm
 145              		.fpu neon
 147              	cpuBoardLedRed:
 148              	.LFB6:
 145:../src/renesas/application/subBoard/src/cpuBoardLed.c **** 	}
 146:../src/renesas/application/subBoard/src/cpuBoardLed.c **** }
 147:../src/renesas/application/subBoard/src/cpuBoardLed.c **** 
 148:../src/renesas/application/subBoard/src/cpuBoardLed.c **** 
 149:../src/renesas/application/subBoard/src/cpuBoardLed.c **** /**************************************************************************************************
 150:../src/renesas/application/subBoard/src/cpuBoardLed.c ****  * Function Name: cpuBoardLedRed
 151:../src/renesas/application/subBoard/src/cpuBoardLed.c ****  * Description  : switch the red LED on/off
 152:../src/renesas/application/subBoard/src/cpuBoardLed.c ****  * Arguments    : drive (0-off, 1-on)
 153:../src/renesas/application/subBoard/src/cpuBoardLed.c ****  * Return Value : -
 154:../src/renesas/application/subBoard/src/cpuBoardLed.c ****  **************************************************************************************************
 155:../src/renesas/application/subBoard/src/cpuBoardLed.c **** void cpuBoardLedRed ( int_t drive ) {
 149              		.loc 1 155 0
 150              		.cfi_startproc
 151              		@ args = 0, pretend = 0, frame = 0
 152              		@ frame_needed = 0, uses_anonymous_args = 0
 153              	.LVL8:
 154 0000 10402DE9 		push	{r4, lr}
 155              		.cfi_def_cfa_offset 8
 156              		.cfi_offset 4, -8
 157              		.cfi_offset 14, -4
 156:../src/renesas/application/subBoard/src/cpuBoardLed.c **** 	if ( drive ) {
 158              		.loc 1 156 0
 159 0004 000050E3 		cmp	r0, #0
 160 0008 0700001A 		bne	.L16
 157:../src/renesas/application/subBoard/src/cpuBoardLed.c **** 		direct_control(s_my_gpio_handle, CTL_GPIO_PIN_WRITE, &s_p60_on);
 158:../src/renesas/application/subBoard/src/cpuBoardLed.c **** 	} else {
 159:../src/renesas/application/subBoard/src/cpuBoardLed.c **** 		direct_control(s_my_gpio_handle, CTL_GPIO_PIN_WRITE, &s_p60_off);
 161              		.loc 1 159 0
 162 000c 003000E3 		movw	r3, #:lower16:.LANCHOR0
 163 0010 003040E3 		movt	r3, #:upper16:.LANCHOR0
 164 0014 002000E3 		movw	r2, #:lower16:.LANCHOR6
 165 0018 002040E3 		movt	r2, #:upper16:.LANCHOR6
 166 001c 0810A0E3 		mov	r1, #8
 167 0020 000093E5 		ldr	r0, [r3]
 168              	.LVL9:
 169 0024 FEFFFFEB 		bl	direct_control
 170              	.LVL10:
 171 0028 1080BDE8 		pop	{r4, pc}
 172              	.LVL11:
 173              	.L16:
 157:../src/renesas/application/subBoard/src/cpuBoardLed.c **** 		direct_control(s_my_gpio_handle, CTL_GPIO_PIN_WRITE, &s_p60_on);
 174              		.loc 1 157 0
 175 002c 003000E3 		movw	r3, #:lower16:.LANCHOR0
 176 0030 003040E3 		movt	r3, #:upper16:.LANCHOR0
 177 0034 002000E3 		movw	r2, #:lower16:.LANCHOR5
 178 0038 002040E3 		movt	r2, #:upper16:.LANCHOR5
 179 003c 0810A0E3 		mov	r1, #8
 180 0040 000093E5 		ldr	r0, [r3]
 181              	.LVL12:
 182 0044 FEFFFFEB 		bl	direct_control
 183              	.LVL13:
 184 0048 1080BDE8 		pop	{r4, pc}
 185              		.cfi_endproc
 186              	.LFE6:
 188              		.section	.bss.pin_led,"aw",%nobits
 189              		.align	2
 190              		.set	.LANCHOR1,. + 0
 193              	pin_led:
 194 0000 00000000 		.space	12
 194      00000000 
 194      00000000 
 195              		.section	.bss.s_my_gpio_handle,"aw",%nobits
 196              		.align	2
 197              		.set	.LANCHOR0,. + 0
 200              	s_my_gpio_handle:
 201 0000 00000000 		.space	4
 202              		.section	.data.s_p60_off,"aw",%progbits
 203              		.align	2
 204              		.set	.LANCHOR6,. + 0
 207              	s_p60_off:
 208 0000 0006     		.short	1536
 209 0002 01       		.byte	1
 210 0003 00       		.byte	0
 211              		.section	.data.s_p60_on,"aw",%progbits
 212              		.align	2
 213              		.set	.LANCHOR5,. + 0
 216              	s_p60_on:
 217 0000 0006     		.short	1536
 218 0002 02       		.byte	2
 219 0003 00       		.byte	0
 220              		.section	.data.s_pC1_off,"aw",%progbits
 221              		.align	2
 222              		.set	.LANCHOR4,. + 0
 225              	s_pC1_off:
 226 0000 010C     		.short	3073
 227 0002 01       		.byte	1
 228 0003 00       		.byte	0
 229              		.section	.data.s_pC1_on,"aw",%progbits
 230              		.align	2
 231              		.set	.LANCHOR3,. + 0
 234              	s_pC1_on:
 235 0000 010C     		.short	3073
 236 0002 02       		.byte	2
 237 0003 00       		.byte	0
 238              		.section	.rodata.initCpuBoardLed.str1.4,"aMS",%progbits,1
 239              		.align	2
 240              	.LC0:
 241 0000 5C5C2E5C 		.ascii	"\\\\.\\gpio\000"
 241      6770696F 
 241      00
 242              		.section	.rodata.s_led_pin_list,"a",%progbits
 243              		.align	2
 244              		.set	.LANCHOR2,. + 0
 247              	s_led_pin_list:
 248 0000 0006     		.short	1536
 249 0002 010C     		.short	3073
 250              		.text
 251              	.Letext0:
 252              		.file 3 "c:\\program files (x86)\\gnu tools arm embedded\\6 2017-q2-update\\arm-none-eabi\\include
 253              		.file 4 "c:\\program files (x86)\\gnu tools arm embedded\\6 2017-q2-update\\arm-none-eabi\\include
 254              		.file 5 "c:\\program files (x86)\\gnu tools arm embedded\\6 2017-q2-update\\arm-none-eabi\\include
 255              		.file 6 "c:\\program files (x86)\\gnu tools arm embedded\\6 2017-q2-update\\lib\\gcc\\arm-none-eab
 256              		.file 7 "c:\\program files (x86)\\gnu tools arm embedded\\6 2017-q2-update\\arm-none-eabi\\include
 257              		.file 8 "c:\\program files (x86)\\gnu tools arm embedded\\6 2017-q2-update\\arm-none-eabi\\include
 258              		.file 9 "c:\\program files (x86)\\gnu tools arm embedded\\6 2017-q2-update\\arm-none-eabi\\include
 259              		.file 10 "c:\\program files (x86)\\gnu tools arm embedded\\6 2017-q2-update\\arm-none-eabi\\includ
 260              		.file 11 "c:\\program files (x86)\\gnu tools arm embedded\\6 2017-q2-update\\arm-none-eabi\\includ
 261              		.file 12 "C:/Renesas/e2studio_2021_01_workspace_RZA2M_ANPR/ANPR_RZA2M_EBK/generate/system/inc/r_ty
 262              		.file 13 "C:/Renesas/e2studio_2021_01_workspace_RZA2M_ANPR/ANPR_RZA2M_EBK/generate/system/inc/driv
 263              		.file 14 "C:/Renesas/e2studio_2021_01_workspace_RZA2M_ANPR/ANPR_RZA2M_EBK/generate/os_abstraction/
 264              		.file 15 "c:\\program files (x86)\\gnu tools arm embedded\\6 2017-q2-update\\arm-none-eabi\\includ
 265              		.file 16 "C:/Renesas/e2studio_2021_01_workspace_RZA2M_ANPR/ANPR_RZA2M_EBK/generate/drivers/r_gpio/
 266              		.file 17 "C:/Renesas/e2studio_2021_01_workspace_RZA2M_ANPR/ANPR_RZA2M_EBK/generate/drivers/r_gpio/
 267              		.file 18 "C:/Renesas/e2studio_2021_01_workspace_RZA2M_ANPR/ANPR_RZA2M_EBK/generate/system/inc/r_de
 268              		.file 19 "c:\\program files (x86)\\gnu tools arm embedded\\6 2017-q2-update\\arm-none-eabi\\includ