   1              		.cpu cortex-a9
   2              		.eabi_attribute 28, 1
   3              		.eabi_attribute 20, 1
   4              		.eabi_attribute 21, 1
   5              		.eabi_attribute 23, 3
   6              		.eabi_attribute 24, 1
   7              		.eabi_attribute 25, 1
   8              		.eabi_attribute 26, 1
   9              		.eabi_attribute 30, 1
  10              		.eabi_attribute 34, 0
  11              		.eabi_attribute 18, 4
  12              		.file	"r_bcd_camera.c"
  13              		.text
  14              	.Ltext0:
  15              		.cfi_sections	.debug_frame
  16              		.section	.text.swap_point,"ax",%progbits
  17              		.align	2
  18              		.syntax unified
  19              		.arm
  20              		.fpu neon
  22              	swap_point:
  23              	.LFB6:
  24              		.file 1 "../src/renesas/application/r_bcd_camera.c"
   1:../src/renesas/application/r_bcd_camera.c **** /**************************************************************************************************
   2:../src/renesas/application/r_bcd_camera.c ****  * DISCLAIMER
   3:../src/renesas/application/r_bcd_camera.c ****  * This software is supplied by Renesas Electronics Corporation and is only intended for use with R
   4:../src/renesas/application/r_bcd_camera.c ****  * other uses are authorized. This software is owned by Renesas Electronics Corporation and is prot
   5:../src/renesas/application/r_bcd_camera.c ****  * applicable laws, including copyright laws.
   6:../src/renesas/application/r_bcd_camera.c ****  * THIS SOFTWARE IS PROVIDED "AS IS" AND RENESAS MAKES NO WARRANTIES REGARDING
   7:../src/renesas/application/r_bcd_camera.c ****  * THIS SOFTWARE, WHETHER EXPRESS, IMPLIED OR STATUTORY, INCLUDING BUT NOT LIMITED TO WARRANTIES OF
   8:../src/renesas/application/r_bcd_camera.c ****  * FITNESS FOR A PARTICULAR PURPOSE AND NON-INFRINGEMENT. ALL SUCH WARRANTIES ARE EXPRESSLY DISCLAI
   9:../src/renesas/application/r_bcd_camera.c ****  * EXTENT PERMITTED NOT PROHIBITED BY LAW, NEITHER RENESAS ELECTRONICS CORPORATION NOR ANY OF ITS A
  10:../src/renesas/application/r_bcd_camera.c ****  * SHALL BE LIABLE FOR ANY DIRECT, INDIRECT, SPECIAL, INCIDENTAL OR CONSEQUENTIAL DAMAGES FOR ANY R
  11:../src/renesas/application/r_bcd_camera.c ****  * THIS SOFTWARE, EVEN IF RENESAS OR ITS AFFILIATES HAVE BEEN ADVISED OF THE POSSIBILITY OF SUCH DA
  12:../src/renesas/application/r_bcd_camera.c ****  * Renesas reserves the right, without notice, to make changes to this software and to discontinue 
  13:../src/renesas/application/r_bcd_camera.c ****  * this software. By using this software, you agree to the additional terms and conditions found by
  14:../src/renesas/application/r_bcd_camera.c ****  * following link:
  15:../src/renesas/application/r_bcd_camera.c ****  * http://www.renesas.com/disclaimer
  16:../src/renesas/application/r_bcd_camera.c ****  *
  17:../src/renesas/application/r_bcd_camera.c ****  * Copyright (C) 2020 Renesas Electronics Corporation. All rights reserved.
  18:../src/renesas/application/r_bcd_camera.c ****  **************************************************************************************************
  19:../src/renesas/application/r_bcd_camera.c **** 
  20:../src/renesas/application/r_bcd_camera.c **** /******************************************************************************
  21:../src/renesas/application/r_bcd_camera.c **** Includes   <System Includes> , "Project Includes"
  22:../src/renesas/application/r_bcd_camera.c **** ******************************************************************************/
  23:../src/renesas/application/r_bcd_camera.c **** #include "r_typedefs.h"
  24:../src/renesas/application/r_bcd_camera.c **** #include "mipi_camera.h"
  25:../src/renesas/application/r_bcd_camera.c **** 
  26:../src/renesas/application/r_bcd_camera.c **** #include "r_rvapi_mipi.h"
  27:../src/renesas/application/r_bcd_camera.c **** #include "r_bcd_camera.h"
  28:../src/renesas/application/r_bcd_camera.c **** #include "r_intc_drv_api.h"
  29:../src/renesas/application/r_bcd_camera.c **** 
  30:../src/renesas/application/r_bcd_camera.c **** #include "r_bcd_ae.h"
  31:../src/renesas/application/r_bcd_camera.c **** 
  32:../src/renesas/application/r_bcd_camera.c **** uint8_t R_BCD_CameraBayerMode = 0 ;
  33:../src/renesas/application/r_bcd_camera.c **** 
  34:../src/renesas/application/r_bcd_camera.c **** /******************************************************************************
  35:../src/renesas/application/r_bcd_camera.c **** Typedef definitions
  36:../src/renesas/application/r_bcd_camera.c **** ******************************************************************************/
  37:../src/renesas/application/r_bcd_camera.c **** 
  38:../src/renesas/application/r_bcd_camera.c **** /******************************************************************************
  39:../src/renesas/application/r_bcd_camera.c **** Macro definitions
  40:../src/renesas/application/r_bcd_camera.c **** ******************************************************************************/
  41:../src/renesas/application/r_bcd_camera.c **** #define MB_REG_NUM_MAX (3)
  42:../src/renesas/application/r_bcd_camera.c **** #define BUFF_SIZE       (R_BCD_CAMERA_HEIGHT * R_BCD_CAMERA_WIDTH)
  43:../src/renesas/application/r_bcd_camera.c **** #define MIPI_CAMERA_SUBADD (0x20)
  44:../src/renesas/application/r_bcd_camera.c **** #define GAIN_MAX    (49)
  45:../src/renesas/application/r_bcd_camera.c **** 
  46:../src/renesas/application/r_bcd_camera.c **** // Syncronization on Field (#define  SYNFIELD) on Line (//#define  SYNFIELD)
  47:../src/renesas/application/r_bcd_camera.c **** #define  SYNFIELD
  48:../src/renesas/application/r_bcd_camera.c **** 
  49:../src/renesas/application/r_bcd_camera.c **** /******************************************************************************
  50:../src/renesas/application/r_bcd_camera.c **** Imported global variables and functions (from other files)
  51:../src/renesas/application/r_bcd_camera.c **** ******************************************************************************/
  52:../src/renesas/application/r_bcd_camera.c **** 
  53:../src/renesas/application/r_bcd_camera.c **** /******************************************************************************
  54:../src/renesas/application/r_bcd_camera.c **** Exported global variables and functions (to be accessed by other files)
  55:../src/renesas/application/r_bcd_camera.c **** ******************************************************************************/
  56:../src/renesas/application/r_bcd_camera.c **** 
  57:../src/renesas/application/r_bcd_camera.c **** /******************************************************************************
  58:../src/renesas/application/r_bcd_camera.c **** Private global variables and functions
  59:../src/renesas/application/r_bcd_camera.c **** ******************************************************************************/
  60:../src/renesas/application/r_bcd_camera.c **** /* Static function */
  61:../src/renesas/application/r_bcd_camera.c **** static void mipi_int_isr(e_mipi_interrupt_type_t int_type);
  62:../src/renesas/application/r_bcd_camera.c **** static void swap_point (volatile uint32_t * point, uint32_t max_point);
  63:../src/renesas/application/r_bcd_camera.c **** 
  64:../src/renesas/application/r_bcd_camera.c **** /* Static variable */
  65:../src/renesas/application/r_bcd_camera.c **** static volatile int32_t vdc_captured = R_BCD_CAMERA_NOT_CAPTURED;
  66:../src/renesas/application/r_bcd_camera.c **** static uint8_t frame_buffer[R_BCD_CAMERA_FRAME_BUF_NUM][BUFF_SIZE] __attribute__ ((section("Capture
  67:../src/renesas/application/r_bcd_camera.c **** static volatile uint32_t mb_manage_table[MB_REG_NUM_MAX];   /* Current buffer point for input captu
  68:../src/renesas/application/r_bcd_camera.c **** static volatile uint32_t buff_write_point;   /* Current buffer point for input capture data */
  69:../src/renesas/application/r_bcd_camera.c **** 
  70:../src/renesas/application/r_bcd_camera.c **** static const uint8_t gaintbl[GAIN_MAX][3] = 
  71:../src/renesas/application/r_bcd_camera.c **** {
  72:../src/renesas/application/r_bcd_camera.c ****     { 0x03,0xE8,0x00 }, //   0dB  
  73:../src/renesas/application/r_bcd_camera.c ****     { 0x04,0x23,0x00 }, //   0.5dB
  74:../src/renesas/application/r_bcd_camera.c ****     { 0x04,0x62,0x00 }, //   1dB  
  75:../src/renesas/application/r_bcd_camera.c ****     { 0x04,0xA5,0x00 }, //   1.5dB
  76:../src/renesas/application/r_bcd_camera.c ****     { 0x04,0xEB,0x00 }, //   2dB  
  77:../src/renesas/application/r_bcd_camera.c ****     { 0x05,0x36,0x00 }, //   2.5dB
  78:../src/renesas/application/r_bcd_camera.c ****     { 0x05,0x85,0x00 }, //   3dB  
  79:../src/renesas/application/r_bcd_camera.c ****     { 0x05,0xD8,0x00 }, //   3.5dB
  80:../src/renesas/application/r_bcd_camera.c ****     { 0x06,0x31,0x00 }, //   4dB  
  81:../src/renesas/application/r_bcd_camera.c ****     { 0x06,0x8F,0x00 }, //   4.5dB
  82:../src/renesas/application/r_bcd_camera.c ****     { 0x06,0xF2,0x00 }, //   5dB  
  83:../src/renesas/application/r_bcd_camera.c ****     { 0x07,0x5C,0x00 }, //   5.5dB
  84:../src/renesas/application/r_bcd_camera.c ****     { 0x07,0xCB,0x00 }, //   6dB  
  85:../src/renesas/application/r_bcd_camera.c ****     { 0x08,0x41,0x00 }, //   6.5dB
  86:../src/renesas/application/r_bcd_camera.c ****     { 0x08,0xBF,0x00 }, //   7dB  
  87:../src/renesas/application/r_bcd_camera.c ****     { 0x09,0x43,0x00 }, //   7.5dB
  88:../src/renesas/application/r_bcd_camera.c ****     { 0x09,0xD0,0x00 }, //   8dB  
  89:../src/renesas/application/r_bcd_camera.c ****     { 0x0A,0x65,0x00 }, //   8.5dB
  90:../src/renesas/application/r_bcd_camera.c ****     { 0x0B,0x02,0x00 }, //   9dB  
  91:../src/renesas/application/r_bcd_camera.c ****     { 0x0B,0xA9,0x00 }, //   9.5dB
  92:../src/renesas/application/r_bcd_camera.c ****     { 0x0C,0x5A,0x00 }, //  10dB  
  93:../src/renesas/application/r_bcd_camera.c ****     { 0x0C,0x5A,0x0E }, //  10.5dB(Including analog gain 0.5dB)
  94:../src/renesas/application/r_bcd_camera.c ****     { 0x0C,0x5A,0x1C }, //  11dB  (Including analog gain 1dB)
  95:../src/renesas/application/r_bcd_camera.c ****     { 0x0C,0x5A,0x28 }, //  11.5dB(Including analog gain 1.5dB)
  96:../src/renesas/application/r_bcd_camera.c ****     { 0x0C,0x5A,0x35 }, //  12dB  (Including analog gain 2dB)
  97:../src/renesas/application/r_bcd_camera.c ****     { 0x0C,0x5A,0x40 }, //  12.5dB(Including analog gain 2.5dB)
  98:../src/renesas/application/r_bcd_camera.c ****     { 0x0C,0x5A,0x4B }, //  13dB  (Including analog gain 3dB)
  99:../src/renesas/application/r_bcd_camera.c ****     { 0x0C,0x5A,0x55 }, //  13.5dB(Including analog gain 3.5dB)
 100:../src/renesas/application/r_bcd_camera.c ****     { 0x0C,0x5A,0x5F }, //  14dB  (Including analog gain 4dB)
 101:../src/renesas/application/r_bcd_camera.c ****     { 0x0C,0x5A,0x67 }, //  14.5dB(Including analog gain 4.5dB)
 102:../src/renesas/application/r_bcd_camera.c ****     { 0x0C,0x5A,0x70 }, //  15dB  (Including analog gain 5dB)
 103:../src/renesas/application/r_bcd_camera.c ****     { 0x0C,0x5A,0x78 }, //  15.5dB(Including analog gain 5.5dB)
 104:../src/renesas/application/r_bcd_camera.c ****     { 0x0C,0x5A,0x80 }, //  16dB  (Including analog gain 6dB)
 105:../src/renesas/application/r_bcd_camera.c ****     { 0x0C,0x5A,0x87 }, //  16.5dB(Including analog gain 6.5dB)
 106:../src/renesas/application/r_bcd_camera.c ****     { 0x0C,0x5A,0x8E }, //  17dB  (Including analog gain 7dB)
 107:../src/renesas/application/r_bcd_camera.c ****     { 0x0C,0x5A,0x94 }, //  17.5dB(Including analog gain 7.5dB)
 108:../src/renesas/application/r_bcd_camera.c ****     { 0x0C,0x5A,0x9A }, //  18dB  (Including analog gain 8dB)
 109:../src/renesas/application/r_bcd_camera.c ****     { 0x0C,0x5A,0xA0 }, //  18.5dB(Including analog gain 8.5dB)
 110:../src/renesas/application/r_bcd_camera.c ****     { 0x0C,0x5A,0xA5 }, //  19dB  (Including analog gain 9dB)
 111:../src/renesas/application/r_bcd_camera.c ****     { 0x0C,0x5A,0xAA }, //  19.5dB(Including analog gain 9.5dB)
 112:../src/renesas/application/r_bcd_camera.c ****     { 0x0C,0x5A,0xAF }, //  20dB  (Including analog gain 10dB)
 113:../src/renesas/application/r_bcd_camera.c ****     { 0x0C,0x5A,0xB4 }, //  20.5dB(Including analog gain 10.5dB)
 114:../src/renesas/application/r_bcd_camera.c ****     { 0x0C,0x5A,0xB8 }, //  21dB  (Including analog gain 11dB)
 115:../src/renesas/application/r_bcd_camera.c ****     { 0x0C,0x5A,0xBC }, //  21.5dB(Including analog gain 11.5dB)
 116:../src/renesas/application/r_bcd_camera.c ****     { 0x0C,0x5A,0xC0 }, //  22dB  (Including analog gain 12dB)
 117:../src/renesas/application/r_bcd_camera.c ****     { 0x0C,0x5A,0xC3 }, //  22.5dB(Including analog gain 12.5dB)
 118:../src/renesas/application/r_bcd_camera.c ****     { 0x0C,0x5A,0xC6 }, //  23dB  (Including analog gain 13dB)
 119:../src/renesas/application/r_bcd_camera.c ****     { 0x0C,0x5A,0xCA }, //  23.5dB(Including analog gain 13.5dB)
 120:../src/renesas/application/r_bcd_camera.c ****     { 0x0C,0x5A,0xCD }  //  24dB  (Including analog gain 14dB)
 121:../src/renesas/application/r_bcd_camera.c **** };
 122:../src/renesas/application/r_bcd_camera.c **** 
 123:../src/renesas/application/r_bcd_camera.c **** /******************************************************************************
 124:../src/renesas/application/r_bcd_camera.c **** * Function Name: R_BCD_CameraGetFrameAddress
 125:../src/renesas/application/r_bcd_camera.c **** * Description  : Returns the address of the frame buffer with the number specified by the argument
 126:../src/renesas/application/r_bcd_camera.c **** * Arguments    : index
 127:../src/renesas/application/r_bcd_camera.c **** *              :   index of the frame buffer
 128:../src/renesas/application/r_bcd_camera.c **** * Return Value : address of the frame buffer
 129:../src/renesas/application/r_bcd_camera.c **** ******************************************************************************/
 130:../src/renesas/application/r_bcd_camera.c **** uint8_t *R_BCD_CameraGetFrameAddress(int32_t index)
 131:../src/renesas/application/r_bcd_camera.c **** {
 132:../src/renesas/application/r_bcd_camera.c ****     return &frame_buffer[index][0];
 133:../src/renesas/application/r_bcd_camera.c **** }   /* End of function R_BCD_CameraGetFrameAddress() */
 134:../src/renesas/application/r_bcd_camera.c **** 
 135:../src/renesas/application/r_bcd_camera.c **** /******************************************************************************
 136:../src/renesas/application/r_bcd_camera.c **** * Function Name: R_BCD_CameraInit
 137:../src/renesas/application/r_bcd_camera.c **** * Description  : Initialization of camera capture processing(MIPI/VIN)
 138:../src/renesas/application/r_bcd_camera.c **** * Arguments    : -
 139:../src/renesas/application/r_bcd_camera.c **** * Return Value : 0  success
 140:../src/renesas/application/r_bcd_camera.c **** *                -1 fail
 141:../src/renesas/application/r_bcd_camera.c **** ******************************************************************************/
 142:../src/renesas/application/r_bcd_camera.c **** int32_t R_BCD_CameraInit(void)
 143:../src/renesas/application/r_bcd_camera.c **** {
 144:../src/renesas/application/r_bcd_camera.c ****     int32_t retval = 0;
 145:../src/renesas/application/r_bcd_camera.c ****     e_mipi_error_t result;
 146:../src/renesas/application/r_bcd_camera.c ****     st_mipi_param_t mipi_data;    /* Config data for MIPI */
 147:../src/renesas/application/r_bcd_camera.c ****     st_vin_setup_t vin_setup;     /* Config data for VIN */
 148:../src/renesas/application/r_bcd_camera.c ****     
 149:../src/renesas/application/r_bcd_camera.c ****     /* Initialize MIPI config data */
 150:../src/renesas/application/r_bcd_camera.c ****     mipi_data.mipi_lanenum    = CAM_MIPI_LANE_NUM;
 151:../src/renesas/application/r_bcd_camera.c ****     mipi_data.mipi_vc         = CAM_MIPI_SEL_VC;
 152:../src/renesas/application/r_bcd_camera.c ****     mipi_data.mipi_interlace  = MIPI_PROGRESSIVE;
 153:../src/renesas/application/r_bcd_camera.c ****     mipi_data.mipi_laneswap   = CAM_MIPI_LANE_SWAP;
 154:../src/renesas/application/r_bcd_camera.c ****     mipi_data.mipi_frametop   = 0;
 155:../src/renesas/application/r_bcd_camera.c ****     mipi_data.mipi_outputrate = CAM_MIPI_TRANSFER_RATE;
 156:../src/renesas/application/r_bcd_camera.c ****     mipi_data.mipi_phy_timing.mipi_ths_prepare  = CAM_MIPI_THS_PREPARE;
 157:../src/renesas/application/r_bcd_camera.c ****     mipi_data.mipi_phy_timing.mipi_ths_settle   = CAM_MIPI_THS_SETTLE;
 158:../src/renesas/application/r_bcd_camera.c ****     mipi_data.mipi_phy_timing.mipi_tclk_prepare = CAM_MIPI_TCLK_PREPARE;
 159:../src/renesas/application/r_bcd_camera.c ****     mipi_data.mipi_phy_timing.mipi_tclk_settle  = CAM_MIPI_TCLK_SETTLE;
 160:../src/renesas/application/r_bcd_camera.c ****     mipi_data.mipi_phy_timing.mipi_tclk_miss    = CAM_MIPI_TCLK_MISS;
 161:../src/renesas/application/r_bcd_camera.c ****     mipi_data.mipi_phy_timing.mipi_t_init_slave = CAM_MIPI_T_INIT_SLAVE;
 162:../src/renesas/application/r_bcd_camera.c ****     
 163:../src/renesas/application/r_bcd_camera.c ****     /* Initialize VIN config data */
 164:../src/renesas/application/r_bcd_camera.c ****     vin_setup.vin_preclip.vin_preclip_starty = CAM_VIN_PRECLIP_START_Y;
 165:../src/renesas/application/r_bcd_camera.c ****     vin_setup.vin_preclip.vin_preclip_endy   = ((CAM_VIN_PRECLIP_START_Y + CAM_VIN_PRECLIP_WIDTH_Y)
 166:../src/renesas/application/r_bcd_camera.c ****     vin_setup.vin_preclip.vin_preclip_startx = CAM_VIN_PRECLIP_START_X;
 167:../src/renesas/application/r_bcd_camera.c ****     vin_setup.vin_preclip.vin_preclip_endx   = ((CAM_VIN_PRECLIP_START_X + CAM_VIN_PRECLIP_WIDTH_X)
 168:../src/renesas/application/r_bcd_camera.c ****     vin_setup.vin_inputformat  = CAM_VIN_INPUT_FORMAT;
 169:../src/renesas/application/r_bcd_camera.c ****     vin_setup.vin_outputformat = CAM_VIN_OUTPUT_FORMAT;
 170:../src/renesas/application/r_bcd_camera.c ****     vin_setup.vin_outputendian = CAM_VIN_OUTPUT_ENDIAN;
 171:../src/renesas/application/r_bcd_camera.c ****     vin_setup.vin_interlace    = VIN_PROGRESSIVE;
 172:../src/renesas/application/r_bcd_camera.c ****     vin_setup.vin_stride       = CAM_VIN_OUTPUT_IS;
 173:../src/renesas/application/r_bcd_camera.c ****     vin_setup.vin_ycoffset     = (CAM_VIN_OUTPUT_IS * CAM_VIN_PRECLIP_WIDTH_Y);
 174:../src/renesas/application/r_bcd_camera.c ****     vin_setup.vin_input_align  = CAM_VIN_INPUT_YCAL;
 175:../src/renesas/application/r_bcd_camera.c ****     vin_setup.vin_output_swap  = CAM_VIN_OUTPUT_BPSM;
 176:../src/renesas/application/r_bcd_camera.c ****     
 177:../src/renesas/application/r_bcd_camera.c ****     /* Internal static RAM initialize */
 178:../src/renesas/application/r_bcd_camera.c ****     buff_write_point = 0;
 179:../src/renesas/application/r_bcd_camera.c **** 
 180:../src/renesas/application/r_bcd_camera.c ****     /* MIPI I/F power on */
 181:../src/renesas/application/r_bcd_camera.c ****     Init_Camera();
 182:../src/renesas/application/r_bcd_camera.c **** 
 183:../src/renesas/application/r_bcd_camera.c ****     /* get the bayer mode of camera module */
 184:../src/renesas/application/r_bcd_camera.c ****     R_BCD_CameraBayerMode = getBayerMode() ;
 185:../src/renesas/application/r_bcd_camera.c **** 
 186:../src/renesas/application/r_bcd_camera.c ****     /* Initialize MIPI driver */
 187:../src/renesas/application/r_bcd_camera.c ****     R_RVAPI_InitializeMIPI();
 188:../src/renesas/application/r_bcd_camera.c **** 
 189:../src/renesas/application/r_bcd_camera.c ****     /* Initial setting of MIPI / VIN */
 190:../src/renesas/application/r_bcd_camera.c ****     result = R_RVAPI_OpenMIPI(&mipi_data);
 191:../src/renesas/application/r_bcd_camera.c ****     retval = (result == MIPI_OK) ? 0 : (-1);
 192:../src/renesas/application/r_bcd_camera.c **** 
 193:../src/renesas/application/r_bcd_camera.c ****     if (retval == 0)
 194:../src/renesas/application/r_bcd_camera.c ****     {
 195:../src/renesas/application/r_bcd_camera.c ****         result = R_RVAPI_SetupMIPI(&vin_setup);
 196:../src/renesas/application/r_bcd_camera.c ****         retval = (result == MIPI_OK) ? 0 : (-1);
 197:../src/renesas/application/r_bcd_camera.c ****     }
 198:../src/renesas/application/r_bcd_camera.c **** 
 199:../src/renesas/application/r_bcd_camera.c ****     /* Setting of interrupt callback */
 200:../src/renesas/application/r_bcd_camera.c ****     #ifdef SYNFIELD
 201:../src/renesas/application/r_bcd_camera.c ****     {
 202:../src/renesas/application/r_bcd_camera.c ****         st_mipi_int_t config;
 203:../src/renesas/application/r_bcd_camera.c ****         config.type           = VIN_INT_FIELD;
 204:../src/renesas/application/r_bcd_camera.c **** 
 205:../src/renesas/application/r_bcd_camera.c ****         /* Setting NULL */
 206:../src/renesas/application/r_bcd_camera.c ****         config.p_mipiCallback = NULL;
 207:../src/renesas/application/r_bcd_camera.c ****         config.p_vinCallback  = mipi_int_isr;
 208:../src/renesas/application/r_bcd_camera.c ****         config.line_num       = 0;
 209:../src/renesas/application/r_bcd_camera.c ****         R_RVAPI_InterruptEnableMIPI( &config );
 210:../src/renesas/application/r_bcd_camera.c ****     }
 211:../src/renesas/application/r_bcd_camera.c ****     #else
 212:../src/renesas/application/r_bcd_camera.c ****     {
 213:../src/renesas/application/r_bcd_camera.c ****         st_mipi_int_t config;
 214:../src/renesas/application/r_bcd_camera.c ****         config.type           = VIN_INT_SCANLINE;
 215:../src/renesas/application/r_bcd_camera.c **** 
 216:../src/renesas/application/r_bcd_camera.c ****         /* Cast to an appropriate type */
 217:../src/renesas/application/r_bcd_camera.c ****         config.p_mipiCallback = NULL;
 218:../src/renesas/application/r_bcd_camera.c ****         config.p_vinCallback  = MipiInt_isr;
 219:../src/renesas/application/r_bcd_camera.c ****         config.line_num       = R_BCD_CAMERA_HEIGHT - 1;
 220:../src/renesas/application/r_bcd_camera.c ****         R_RVAPI_InterruptEnableMIPI( &config );
 221:../src/renesas/application/r_bcd_camera.c ****     }
 222:../src/renesas/application/r_bcd_camera.c **** 	#endif
 223:../src/renesas/application/r_bcd_camera.c ****     return retval;
 224:../src/renesas/application/r_bcd_camera.c **** }   /* End of function R_BCD_CameraInit() */
 225:../src/renesas/application/r_bcd_camera.c **** 
 226:../src/renesas/application/r_bcd_camera.c **** /******************************************************************************
 227:../src/renesas/application/r_bcd_camera.c **** * Function Name: R_BCD_CameraCaptureStart
 228:../src/renesas/application/r_bcd_camera.c **** * Description  : Start camera capture processing(MIPI/VIN)
 229:../src/renesas/application/r_bcd_camera.c **** * Arguments    : -
 230:../src/renesas/application/r_bcd_camera.c **** * Return Value : 0  success
 231:../src/renesas/application/r_bcd_camera.c **** *                -1 fail
 232:../src/renesas/application/r_bcd_camera.c **** ******************************************************************************/
 233:../src/renesas/application/r_bcd_camera.c **** int32_t R_BCD_CameraCaptureStart(void) 
 234:../src/renesas/application/r_bcd_camera.c **** {
 235:../src/renesas/application/r_bcd_camera.c ****     int32_t retval = 0;
 236:../src/renesas/application/r_bcd_camera.c ****     e_mipi_error_t result;
 237:../src/renesas/application/r_bcd_camera.c ****     uint8_t count;
 238:../src/renesas/application/r_bcd_camera.c **** 
 239:../src/renesas/application/r_bcd_camera.c ****     /* Set all MB register before start capture */
 240:../src/renesas/application/r_bcd_camera.c ****     for (count = 0; count < MB_REG_NUM_MAX; count++)
 241:../src/renesas/application/r_bcd_camera.c ****     {
 242:../src/renesas/application/r_bcd_camera.c ****         R_RVAPI_SetBufferMIPI(count, &frame_buffer[buff_write_point][0]);
 243:../src/renesas/application/r_bcd_camera.c ****         mb_manage_table[count] = buff_write_point;
 244:../src/renesas/application/r_bcd_camera.c ****         swap_point(&buff_write_point, R_BCD_CAMERA_FRAME_BUF_NUM);
 245:../src/renesas/application/r_bcd_camera.c ****     }
 246:../src/renesas/application/r_bcd_camera.c ****     result = R_RVAPI_CaptureStartMIPI();
 247:../src/renesas/application/r_bcd_camera.c ****     retval = (result == MIPI_OK) ? 0 : (-1);
 248:../src/renesas/application/r_bcd_camera.c **** 
 249:../src/renesas/application/r_bcd_camera.c ****     /* Camera clock start */
 250:../src/renesas/application/r_bcd_camera.c ****     Start_Camera();
 251:../src/renesas/application/r_bcd_camera.c **** 
 252:../src/renesas/application/r_bcd_camera.c ****     return retval;
 253:../src/renesas/application/r_bcd_camera.c **** }   /* End of function R_BCD_CameraCaptureStart() */
 254:../src/renesas/application/r_bcd_camera.c **** 
 255:../src/renesas/application/r_bcd_camera.c **** /******************************************************************************
 256:../src/renesas/application/r_bcd_camera.c **** * Function Name: R_BCD_CameraGetCaptureStatus
 257:../src/renesas/application/r_bcd_camera.c **** * Description  : This function returns the number of the frame buffer in
 258:../src/renesas/application/r_bcd_camera.c **** *              : which the capture data is stored.
 259:../src/renesas/application/r_bcd_camera.c **** * Arguments    : -
 260:../src/renesas/application/r_bcd_camera.c **** * Return Value : -1 (R_BCD_CAMERA_NOT_CAPTURED)
 261:../src/renesas/application/r_bcd_camera.c **** *              :   No data has been captured.
 262:../src/renesas/application/r_bcd_camera.c **** *              : 0
 263:../src/renesas/application/r_bcd_camera.c **** *              :   There is captured data in the 1st frame buffer.
 264:../src/renesas/application/r_bcd_camera.c **** *              : 1
 265:../src/renesas/application/r_bcd_camera.c **** *              :   There is captured data in the 2nd frame buffer.
 266:../src/renesas/application/r_bcd_camera.c **** *              : 2
 267:../src/renesas/application/r_bcd_camera.c **** *              :   There is captured data in the 3rd frame buffer.
 268:../src/renesas/application/r_bcd_camera.c **** ******************************************************************************/
 269:../src/renesas/application/r_bcd_camera.c **** int32_t R_BCD_CameraGetCaptureStatus(void)
 270:../src/renesas/application/r_bcd_camera.c **** {
 271:../src/renesas/application/r_bcd_camera.c ****     return vdc_captured;
 272:../src/renesas/application/r_bcd_camera.c **** }   /* End of function R_BCD_CameraGetCaptureStatus() */
 273:../src/renesas/application/r_bcd_camera.c **** 
 274:../src/renesas/application/r_bcd_camera.c **** /******************************************************************************
 275:../src/renesas/application/r_bcd_camera.c **** * Function Name: R_BCD_CameraClearCaptureStatus
 276:../src/renesas/application/r_bcd_camera.c **** * Description  : This function clears the variable indicating the frame buffer
 277:../src/renesas/application/r_bcd_camera.c **** *              : where the capture data is stored.
 278:../src/renesas/application/r_bcd_camera.c **** * Arguments    : -
 279:../src/renesas/application/r_bcd_camera.c **** * Return Value : -
 280:../src/renesas/application/r_bcd_camera.c **** ******************************************************************************/
 281:../src/renesas/application/r_bcd_camera.c **** void R_BCD_CameraClearCaptureStatus(void)
 282:../src/renesas/application/r_bcd_camera.c **** {
 283:../src/renesas/application/r_bcd_camera.c ****     vdc_captured = R_BCD_CAMERA_NOT_CAPTURED;
 284:../src/renesas/application/r_bcd_camera.c **** 
 285:../src/renesas/application/r_bcd_camera.c ****     return;
 286:../src/renesas/application/r_bcd_camera.c **** }   /* End of function R_BCD_CameraClearCaptureStatus() */
 287:../src/renesas/application/r_bcd_camera.c **** 
 288:../src/renesas/application/r_bcd_camera.c **** /******************************************************************************
 289:../src/renesas/application/r_bcd_camera.c **** * Function Name: mipi_int_isr
 290:../src/renesas/application/r_bcd_camera.c **** * Description  : Function to handle interrupt of MIPI
 291:../src/renesas/application/r_bcd_camera.c **** *              : Find the frame buffer where the capture data is stored
 292:../src/renesas/application/r_bcd_camera.c **** *              : (Frame buffer is triple buffer)
 293:../src/renesas/application/r_bcd_camera.c **** * Arguments    : int_type
 294:../src/renesas/application/r_bcd_camera.c **** *              :   interrupt type (unused)
 295:../src/renesas/application/r_bcd_camera.c **** * Return Value : -
 296:../src/renesas/application/r_bcd_camera.c **** ******************************************************************************/
 297:../src/renesas/application/r_bcd_camera.c **** static void mipi_int_isr(e_mipi_interrupt_type_t int_type)
 298:../src/renesas/application/r_bcd_camera.c **** {
 299:../src/renesas/application/r_bcd_camera.c **** 	#ifdef SYNFIELD
 300:../src/renesas/application/r_bcd_camera.c ****       if ((int_type & VIN_INT_FIELD) == VIN_INT_FIELD)
 301:../src/renesas/application/r_bcd_camera.c ****     #else
 302:../src/renesas/application/r_bcd_camera.c ****       if ((int_type & VIN_INT_SCANLINE) == VIN_INT_SCANLINE)
 303:../src/renesas/application/r_bcd_camera.c **** 	#endif
 304:../src/renesas/application/r_bcd_camera.c ****     {
 305:../src/renesas/application/r_bcd_camera.c ****         st_vin_info_type_t info;
 306:../src/renesas/application/r_bcd_camera.c **** 
 307:../src/renesas/application/r_bcd_camera.c ****         /* Capture complete */
 308:../src/renesas/application/r_bcd_camera.c ****         R_MIPI_GetInfo(&info);
 309:../src/renesas/application/r_bcd_camera.c ****         vdc_captured = (int32_t)mb_manage_table[info.vin_nowcapturebase]; /* less than R_BCD_CAMERA
 310:../src/renesas/application/r_bcd_camera.c ****         /* This value is less than R_BCD_CAMERA_FRAME_BUF_NUM */
 311:../src/renesas/application/r_bcd_camera.c ****         R_RVAPI_SetBufferMIPI(info.vin_nowcapturebase, &frame_buffer[buff_write_point][0]);
 312:../src/renesas/application/r_bcd_camera.c ****         mb_manage_table[info.vin_nowcapturebase] = buff_write_point;
 313:../src/renesas/application/r_bcd_camera.c ****         swap_point(&buff_write_point, R_BCD_CAMERA_FRAME_BUF_NUM);         /* swap buffer point for
 314:../src/renesas/application/r_bcd_camera.c ****     }
 315:../src/renesas/application/r_bcd_camera.c ****     return;
 316:../src/renesas/application/r_bcd_camera.c **** }   /* End of function mipi_int_isr() */
 317:../src/renesas/application/r_bcd_camera.c **** 
 318:../src/renesas/application/r_bcd_camera.c **** 
 319:../src/renesas/application/r_bcd_camera.c **** 
 320:../src/renesas/application/r_bcd_camera.c **** 
 321:../src/renesas/application/r_bcd_camera.c **** 
 322:../src/renesas/application/r_bcd_camera.c **** /**********************************************************************
 323:../src/renesas/application/r_bcd_camera.c **** * Function Name: swap_point
 324:../src/renesas/application/r_bcd_camera.c **** * Description  : Swap Pointer Function
 325:../src/renesas/application/r_bcd_camera.c **** * Arguments    : point        : Address of pointer value
 326:../src/renesas/application/r_bcd_camera.c ****                  max_point    : Max of pointer value
 327:../src/renesas/application/r_bcd_camera.c **** * Return Value : none
 328:../src/renesas/application/r_bcd_camera.c **** **********************************************************************/
 329:../src/renesas/application/r_bcd_camera.c **** static void swap_point (volatile uint32_t * point, uint32_t max_point)
 330:../src/renesas/application/r_bcd_camera.c **** {
  25              		.loc 1 330 0
  26              		.cfi_startproc
  27              		@ args = 0, pretend = 0, frame = 0
  28              		@ frame_needed = 0, uses_anonymous_args = 0
  29              		@ link register save eliminated.
  30              	.LVL0:
 331:../src/renesas/application/r_bcd_camera.c ****     /* This implicit casting is valid because either values are pointer */
 332:../src/renesas/application/r_bcd_camera.c ****     if (point != NULL )
  31              		.loc 1 332 0
  32 0000 000050E3 		cmp	r0, #0
  33 0004 1EFF2F01 		bxeq	lr
 333:../src/renesas/application/r_bcd_camera.c ****     {
 334:../src/renesas/application/r_bcd_camera.c ****         *point = (*point) + 1;
  34              		.loc 1 334 0
  35 0008 003090E5 		ldr	r3, [r0]
  36 000c 013083E2 		add	r3, r3, #1
  37 0010 003080E5 		str	r3, [r0]
 335:../src/renesas/application/r_bcd_camera.c ****         if ((*point) >= max_point)
  38              		.loc 1 335 0
  39 0014 003090E5 		ldr	r3, [r0]
  40 0018 010053E1 		cmp	r3, r1
 336:../src/renesas/application/r_bcd_camera.c ****         {
 337:../src/renesas/application/r_bcd_camera.c ****             *point = 0;
  41              		.loc 1 337 0
  42 001c 0030A023 		movcs	r3, #0
  43 0020 00308025 		strcs	r3, [r0]
  44 0024 1EFF2FE1 		bx	lr
  45              		.cfi_endproc
  46              	.LFE6:
  48              		.section	.text.mipi_int_isr,"ax",%progbits
  49              		.align	2
  50              		.syntax unified
  51              		.arm
  52              		.fpu neon
  54              	mipi_int_isr:
  55              	.LFB5:
 298:../src/renesas/application/r_bcd_camera.c **** 	#ifdef SYNFIELD
  56              		.loc 1 298 0
  57              		.cfi_startproc
  58              		@ args = 0, pretend = 0, frame = 8
  59              		@ frame_needed = 0, uses_anonymous_args = 0
  60              	.LVL1:
 300:../src/renesas/application/r_bcd_camera.c ****     #else
  61              		.loc 1 300 0
  62 0000 020510E3 		tst	r0, #8388608
  63 0004 1EFF2F01 		bxeq	lr
 298:../src/renesas/application/r_bcd_camera.c **** 	#ifdef SYNFIELD
  64              		.loc 1 298 0
  65 0008 30402DE9 		push	{r4, r5, lr}
  66              		.cfi_def_cfa_offset 12
  67              		.cfi_offset 4, -12
  68              		.cfi_offset 5, -8
  69              		.cfi_offset 14, -4
  70 000c 0CD04DE2 		sub	sp, sp, #12
  71              		.cfi_def_cfa_offset 24
  72              	.LBB2:
 308:../src/renesas/application/r_bcd_camera.c ****         vdc_captured = (int32_t)mb_manage_table[info.vin_nowcapturebase]; /* less than R_BCD_CAMERA
  73              		.loc 1 308 0
  74 0010 04008DE2 		add	r0, sp, #4
  75              	.LVL2:
  76 0014 FEFFFFEB 		bl	R_MIPI_GetInfo
  77              	.LVL3:
 309:../src/renesas/application/r_bcd_camera.c ****         /* This value is less than R_BCD_CAMERA_FRAME_BUF_NUM */
  78              		.loc 1 309 0
  79 0018 0700DDE5 		ldrb	r0, [sp, #7]	@ zero_extendqisi2
  80 001c 005000E3 		movw	r5, #:lower16:.LANCHOR0
  81 0020 005040E3 		movt	r5, #:upper16:.LANCHOR0
  82 0024 002195E7 		ldr	r2, [r5, r0, lsl #2]
  83 0028 003000E3 		movw	r3, #:lower16:.LANCHOR1
  84 002c 003040E3 		movt	r3, #:upper16:.LANCHOR1
  85 0030 002083E5 		str	r2, [r3]
 311:../src/renesas/application/r_bcd_camera.c ****         mb_manage_table[info.vin_nowcapturebase] = buff_write_point;
  86              		.loc 1 311 0
  87 0034 004000E3 		movw	r4, #:lower16:.LANCHOR2
  88 0038 004040E3 		movt	r4, #:upper16:.LANCHOR2
  89 003c 002094E5 		ldr	r2, [r4]
  90 0040 003000E3 		movw	r3, #:lower16:.LANCHOR3
  91 0044 003040E3 		movt	r3, #:upper16:.LANCHOR3
  92 0048 4B1AA0E3 		mov	r1, #307200
  93 004c 913221E0 		mla	r1, r1, r2, r3
  94 0050 FEFFFFEB 		bl	R_RVAPI_SetBufferMIPI
  95              	.LVL4:
 312:../src/renesas/application/r_bcd_camera.c ****         swap_point(&buff_write_point, R_BCD_CAMERA_FRAME_BUF_NUM);         /* swap buffer point for
  96              		.loc 1 312 0
  97 0054 0730DDE5 		ldrb	r3, [sp, #7]	@ zero_extendqisi2
  98 0058 002094E5 		ldr	r2, [r4]
  99 005c 032185E7 		str	r2, [r5, r3, lsl #2]
 313:../src/renesas/application/r_bcd_camera.c ****     }
 100              		.loc 1 313 0
 101 0060 0110A0E3 		mov	r1, #1
 102 0064 0400A0E1 		mov	r0, r4
 103 0068 FEFFFFEB 		bl	swap_point
 104              	.LVL5:
 105              	.LBE2:
 316:../src/renesas/application/r_bcd_camera.c **** 
 106              		.loc 1 316 0
 107 006c 0CD08DE2 		add	sp, sp, #12
 108              		.cfi_def_cfa_offset 12
 109              		@ sp needed
 110 0070 3080BDE8 		pop	{r4, r5, pc}
 111              		.cfi_endproc
 112              	.LFE5:
 114              		.section	.text.R_BCD_CameraGetFrameAddress,"ax",%progbits
 115              		.align	2
 116              		.global	R_BCD_CameraGetFrameAddress
 117              		.syntax unified
 118              		.arm
 119              		.fpu neon
 121              	R_BCD_CameraGetFrameAddress:
 122              	.LFB0:
 131:../src/renesas/application/r_bcd_camera.c ****     return &frame_buffer[index][0];
 123              		.loc 1 131 0
 124              		.cfi_startproc
 125              		@ args = 0, pretend = 0, frame = 0
 126              		@ frame_needed = 0, uses_anonymous_args = 0
 127              		@ link register save eliminated.
 128              	.LVL6:
 132:../src/renesas/application/r_bcd_camera.c **** }   /* End of function R_BCD_CameraGetFrameAddress() */
 129              		.loc 1 132 0
 130 0000 003000E3 		movw	r3, #:lower16:.LANCHOR3
 131 0004 003040E3 		movt	r3, #:upper16:.LANCHOR3
 133:../src/renesas/application/r_bcd_camera.c **** 
 132              		.loc 1 133 0
 133 0008 4B2AA0E3 		mov	r2, #307200
 134 000c 923020E0 		mla	r0, r2, r0, r3
 135              	.LVL7:
 136 0010 1EFF2FE1 		bx	lr
 137              		.cfi_endproc
 138              	.LFE0:
 140              		.section	.text.R_BCD_CameraInit,"ax",%progbits
 141              		.align	2
 142              		.global	R_BCD_CameraInit
 143              		.syntax unified
 144              		.arm
 145              		.fpu neon
 147              	R_BCD_CameraInit:
 148              	.LFB1:
 143:../src/renesas/application/r_bcd_camera.c ****     int32_t retval = 0;
 149              		.loc 1 143 0
 150              		.cfi_startproc
 151              		@ args = 0, pretend = 0, frame = 80
 152              		@ frame_needed = 0, uses_anonymous_args = 0
 153 0000 10402DE9 		push	{r4, lr}
 154              		.cfi_def_cfa_offset 8
 155              		.cfi_offset 4, -8
 156              		.cfi_offset 14, -4
 157 0004 50D04DE2 		sub	sp, sp, #80
 158              		.cfi_def_cfa_offset 88
 159              	.LVL8:
 150:../src/renesas/application/r_bcd_camera.c ****     mipi_data.mipi_vc         = CAM_MIPI_SEL_VC;
 160              		.loc 1 150 0
 161 0008 0230A0E3 		mov	r3, #2
 162 000c 3C30CDE5 		strb	r3, [sp, #60]
 151:../src/renesas/application/r_bcd_camera.c ****     mipi_data.mipi_interlace  = MIPI_PROGRESSIVE;
 163              		.loc 1 151 0
 164 0010 0030A0E3 		mov	r3, #0
 165 0014 3D30CDE5 		strb	r3, [sp, #61]
 152:../src/renesas/application/r_bcd_camera.c ****     mipi_data.mipi_laneswap   = CAM_MIPI_LANE_SWAP;
 166              		.loc 1 152 0
 167 0018 3E30CDE5 		strb	r3, [sp, #62]
 153:../src/renesas/application/r_bcd_camera.c ****     mipi_data.mipi_frametop   = 0;
 168              		.loc 1 153 0
 169 001c 3F30CDE5 		strb	r3, [sp, #63]
 154:../src/renesas/application/r_bcd_camera.c ****     mipi_data.mipi_outputrate = CAM_MIPI_TRANSFER_RATE;
 170              		.loc 1 154 0
 171 0020 B034CDE1 		strh	r3, [sp, #64]	@ movhi
 155:../src/renesas/application/r_bcd_camera.c ****     mipi_data.mipi_phy_timing.mipi_ths_prepare  = CAM_MIPI_THS_PREPARE;
 172              		.loc 1 155 0
 173 0024 5020A0E3 		mov	r2, #80
 174 0028 B224CDE1 		strh	r2, [sp, #66]	@ movhi
 156:../src/renesas/application/r_bcd_camera.c ****     mipi_data.mipi_phy_timing.mipi_ths_settle   = CAM_MIPI_THS_SETTLE;
 175              		.loc 1 156 0
 176 002c 0920A0E3 		mov	r2, #9
 177 0030 B424CDE1 		strh	r2, [sp, #68]	@ movhi
 157:../src/renesas/application/r_bcd_camera.c ****     mipi_data.mipi_phy_timing.mipi_tclk_prepare = CAM_MIPI_TCLK_PREPARE;
 178              		.loc 1 157 0
 179 0034 1420A0E3 		mov	r2, #20
 180 0038 B624CDE1 		strh	r2, [sp, #70]	@ movhi
 158:../src/renesas/application/r_bcd_camera.c ****     mipi_data.mipi_phy_timing.mipi_tclk_settle  = CAM_MIPI_TCLK_SETTLE;
 181              		.loc 1 158 0
 182 003c 0A10A0E3 		mov	r1, #10
 183 0040 B814CDE1 		strh	r1, [sp, #72]	@ movhi
 159:../src/renesas/application/r_bcd_camera.c ****     mipi_data.mipi_phy_timing.mipi_tclk_miss    = CAM_MIPI_TCLK_MISS;
 184              		.loc 1 159 0
 185 0044 BA24CDE1 		strh	r2, [sp, #74]	@ movhi
 160:../src/renesas/application/r_bcd_camera.c ****     mipi_data.mipi_phy_timing.mipi_t_init_slave = CAM_MIPI_T_INIT_SLAVE;
 186              		.loc 1 160 0
 187 0048 0320A0E3 		mov	r2, #3
 188 004c BC24CDE1 		strh	r2, [sp, #76]	@ movhi
 161:../src/renesas/application/r_bcd_camera.c ****     
 189              		.loc 1 161 0
 190 0050 F31303E3 		movw	r1, #13299
 191 0054 BE14CDE1 		strh	r1, [sp, #78]	@ movhi
 164:../src/renesas/application/r_bcd_camera.c ****     vin_setup.vin_preclip.vin_preclip_endy   = ((CAM_VIN_PRECLIP_START_Y + CAM_VIN_PRECLIP_WIDTH_Y)
 192              		.loc 1 164 0
 193 0058 B431CDE1 		strh	r3, [sp, #20]	@ movhi
 165:../src/renesas/application/r_bcd_camera.c ****     vin_setup.vin_preclip.vin_preclip_startx = CAM_VIN_PRECLIP_START_X;
 194              		.loc 1 165 0
 195 005c DF1100E3 		movw	r1, #479
 196 0060 B611CDE1 		strh	r1, [sp, #22]	@ movhi
 166:../src/renesas/application/r_bcd_camera.c ****     vin_setup.vin_preclip.vin_preclip_endx   = ((CAM_VIN_PRECLIP_START_X + CAM_VIN_PRECLIP_WIDTH_X)
 197              		.loc 1 166 0
 198 0064 B831CDE1 		strh	r3, [sp, #24]	@ movhi
 167:../src/renesas/application/r_bcd_camera.c ****     vin_setup.vin_inputformat  = CAM_VIN_INPUT_FORMAT;
 199              		.loc 1 167 0
 200 0068 7F1200E3 		movw	r1, #639
 201 006c BA11CDE1 		strh	r1, [sp, #26]	@ movhi
 168:../src/renesas/application/r_bcd_camera.c ****     vin_setup.vin_outputformat = CAM_VIN_OUTPUT_FORMAT;
 202              		.loc 1 168 0
 203 0070 0410A0E3 		mov	r1, #4
 204 0074 2810CDE5 		strb	r1, [sp, #40]
 169:../src/renesas/application/r_bcd_camera.c ****     vin_setup.vin_outputendian = CAM_VIN_OUTPUT_ENDIAN;
 205              		.loc 1 169 0
 206 0078 2010A0E3 		mov	r1, #32
 207 007c 2910CDE5 		strb	r1, [sp, #41]
 170:../src/renesas/application/r_bcd_camera.c ****     vin_setup.vin_interlace    = VIN_PROGRESSIVE;
 208              		.loc 1 170 0
 209 0080 2A30CDE5 		strb	r3, [sp, #42]
 171:../src/renesas/application/r_bcd_camera.c ****     vin_setup.vin_stride       = CAM_VIN_OUTPUT_IS;
 210              		.loc 1 171 0
 211 0084 2C20CDE5 		strb	r2, [sp, #44]
 172:../src/renesas/application/r_bcd_camera.c ****     vin_setup.vin_ycoffset     = (CAM_VIN_OUTPUT_IS * CAM_VIN_PRECLIP_WIDTH_Y);
 212              		.loc 1 172 0
 213 0088 0A2DA0E3 		mov	r2, #640
 214 008c B023CDE1 		strh	r2, [sp, #48]	@ movhi
 173:../src/renesas/application/r_bcd_camera.c ****     vin_setup.vin_input_align  = CAM_VIN_INPUT_YCAL;
 215              		.loc 1 173 0
 216 0090 4B2AA0E3 		mov	r2, #307200
 217 0094 34208DE5 		str	r2, [sp, #52]
 174:../src/renesas/application/r_bcd_camera.c ****     vin_setup.vin_output_swap  = CAM_VIN_OUTPUT_BPSM;
 218              		.loc 1 174 0
 219 0098 3830CDE5 		strb	r3, [sp, #56]
 175:../src/renesas/application/r_bcd_camera.c ****     
 220              		.loc 1 175 0
 221 009c 3930CDE5 		strb	r3, [sp, #57]
 178:../src/renesas/application/r_bcd_camera.c **** 
 222              		.loc 1 178 0
 223 00a0 002000E3 		movw	r2, #:lower16:.LANCHOR2
 224 00a4 002040E3 		movt	r2, #:upper16:.LANCHOR2
 225 00a8 003082E5 		str	r3, [r2]
 181:../src/renesas/application/r_bcd_camera.c **** 
 226              		.loc 1 181 0
 227 00ac FEFFFFEB 		bl	Init_Camera
 228              	.LVL9:
 184:../src/renesas/application/r_bcd_camera.c **** 
 229              		.loc 1 184 0
 230 00b0 FEFFFFEB 		bl	getBayerMode
 231              	.LVL10:
 232 00b4 003000E3 		movw	r3, #:lower16:.LANCHOR4
 233 00b8 003040E3 		movt	r3, #:upper16:.LANCHOR4
 234 00bc 0000C3E5 		strb	r0, [r3]
 187:../src/renesas/application/r_bcd_camera.c **** 
 235              		.loc 1 187 0
 236 00c0 FEFFFFEB 		bl	R_RVAPI_InitializeMIPI
 237              	.LVL11:
 190:../src/renesas/application/r_bcd_camera.c ****     retval = (result == MIPI_OK) ? 0 : (-1);
 238              		.loc 1 190 0
 239 00c4 3C008DE2 		add	r0, sp, #60
 240 00c8 FEFFFFEB 		bl	R_RVAPI_OpenMIPI
 241              	.LVL12:
 191:../src/renesas/application/r_bcd_camera.c **** 
 242              		.loc 1 191 0
 243 00cc 000050E3 		cmp	r0, #0
 244 00d0 0F00001A 		bne	.L13
 245 00d4 0040A0E3 		mov	r4, #0
 246              	.L11:
 247              	.LVL13:
 193:../src/renesas/application/r_bcd_camera.c ****     {
 248              		.loc 1 193 0 discriminator 4
 249 00d8 000054E3 		cmp	r4, #0
 250 00dc 0E00000A 		beq	.L16
 251              	.LVL14:
 252              	.L12:
 253              	.LBB3:
 203:../src/renesas/application/r_bcd_camera.c **** 
 254              		.loc 1 203 0
 255 00e0 0235A0E3 		mov	r3, #8388608
 256 00e4 04308DE5 		str	r3, [sp, #4]
 206:../src/renesas/application/r_bcd_camera.c ****         config.p_vinCallback  = mipi_int_isr;
 257              		.loc 1 206 0
 258 00e8 0020A0E3 		mov	r2, #0
 259 00ec 08208DE5 		str	r2, [sp, #8]
 207:../src/renesas/application/r_bcd_camera.c ****         config.line_num       = 0;
 260              		.loc 1 207 0
 261 00f0 003000E3 		movw	r3, #:lower16:mipi_int_isr
 262 00f4 003040E3 		movt	r3, #:upper16:mipi_int_isr
 263 00f8 0C308DE5 		str	r3, [sp, #12]
 208:../src/renesas/application/r_bcd_camera.c ****         R_RVAPI_InterruptEnableMIPI( &config );
 264              		.loc 1 208 0
 265 00fc 10208DE5 		str	r2, [sp, #16]
 209:../src/renesas/application/r_bcd_camera.c ****     }
 266              		.loc 1 209 0
 267 0100 04008DE2 		add	r0, sp, #4
 268              	.LVL15:
 269 0104 FEFFFFEB 		bl	R_RVAPI_InterruptEnableMIPI
 270              	.LVL16:
 271              	.LBE3:
 224:../src/renesas/application/r_bcd_camera.c **** 
 272              		.loc 1 224 0
 273 0108 0400A0E1 		mov	r0, r4
 274 010c 50D08DE2 		add	sp, sp, #80
 275              		.cfi_remember_state
 276              		.cfi_def_cfa_offset 8
 277              		@ sp needed
 278 0110 1080BDE8 		pop	{r4, pc}
 279              	.LVL17:
 280              	.L13:
 281              		.cfi_restore_state
 191:../src/renesas/application/r_bcd_camera.c **** 
 282              		.loc 1 191 0
 283 0114 0040E0E3 		mvn	r4, #0
 284 0118 EEFFFFEA 		b	.L11
 285              	.LVL18:
 286              	.L16:
 195:../src/renesas/application/r_bcd_camera.c ****         retval = (result == MIPI_OK) ? 0 : (-1);
 287              		.loc 1 195 0
 288 011c 14008DE2 		add	r0, sp, #20
 289              	.LVL19:
 290 0120 FEFFFFEB 		bl	R_RVAPI_SetupMIPI
 291              	.LVL20:
 196:../src/renesas/application/r_bcd_camera.c ****     }
 292              		.loc 1 196 0
 293 0124 000050E3 		cmp	r0, #0
 294 0128 0040E013 		mvnne	r4, #0
 295              	.LVL21:
 296 012c EBFFFFEA 		b	.L12
 297              		.cfi_endproc
 298              	.LFE1:
 300              		.section	.text.R_BCD_CameraCaptureStart,"ax",%progbits
 301              		.align	2
 302              		.global	R_BCD_CameraCaptureStart
 303              		.syntax unified
 304              		.arm
 305              		.fpu neon
 307              	R_BCD_CameraCaptureStart:
 308              	.LFB2:
 234:../src/renesas/application/r_bcd_camera.c ****     int32_t retval = 0;
 309              		.loc 1 234 0
 310              		.cfi_startproc
 311              		@ args = 0, pretend = 0, frame = 0
 312              		@ frame_needed = 0, uses_anonymous_args = 0
 313 0000 70402DE9 		push	{r4, r5, r6, lr}
 314              		.cfi_def_cfa_offset 16
 315              		.cfi_offset 4, -16
 316              		.cfi_offset 5, -12
 317              		.cfi_offset 6, -8
 318              		.cfi_offset 14, -4
 319              	.LVL22:
 240:../src/renesas/application/r_bcd_camera.c ****     {
 320              		.loc 1 240 0
 321 0004 0040A0E3 		mov	r4, #0
 322 0008 110000EA 		b	.L18
 323              	.LVL23:
 324              	.L19:
 242:../src/renesas/application/r_bcd_camera.c ****         mb_manage_table[count] = buff_write_point;
 325              		.loc 1 242 0 discriminator 3
 326 000c 005000E3 		movw	r5, #:lower16:.LANCHOR2
 327 0010 005040E3 		movt	r5, #:upper16:.LANCHOR2
 328 0014 002095E5 		ldr	r2, [r5]
 329 0018 003000E3 		movw	r3, #:lower16:.LANCHOR3
 330 001c 003040E3 		movt	r3, #:upper16:.LANCHOR3
 331 0020 4B1AA0E3 		mov	r1, #307200
 332 0024 913221E0 		mla	r1, r1, r2, r3
 333 0028 0400A0E1 		mov	r0, r4
 334 002c FEFFFFEB 		bl	R_RVAPI_SetBufferMIPI
 335              	.LVL24:
 243:../src/renesas/application/r_bcd_camera.c ****         swap_point(&buff_write_point, R_BCD_CAMERA_FRAME_BUF_NUM);
 336              		.loc 1 243 0 discriminator 3
 337 0030 002095E5 		ldr	r2, [r5]
 338 0034 003000E3 		movw	r3, #:lower16:.LANCHOR0
 339 0038 003040E3 		movt	r3, #:upper16:.LANCHOR0
 340 003c 042183E7 		str	r2, [r3, r4, lsl #2]
 244:../src/renesas/application/r_bcd_camera.c ****     }
 341              		.loc 1 244 0 discriminator 3
 342 0040 0110A0E3 		mov	r1, #1
 343 0044 0500A0E1 		mov	r0, r5
 344 0048 FEFFFFEB 		bl	swap_point
 345              	.LVL25:
 240:../src/renesas/application/r_bcd_camera.c ****     {
 346              		.loc 1 240 0 discriminator 3
 347 004c 014084E2 		add	r4, r4, #1
 348              	.LVL26:
 349 0050 7440EFE6 		uxtb	r4, r4
 350              	.LVL27:
 351              	.L18:
 240:../src/renesas/application/r_bcd_camera.c ****     {
 352              		.loc 1 240 0 is_stmt 0 discriminator 1
 353 0054 020054E3 		cmp	r4, #2
 354 0058 EBFFFF9A 		bls	.L19
 246:../src/renesas/application/r_bcd_camera.c ****     retval = (result == MIPI_OK) ? 0 : (-1);
 355              		.loc 1 246 0 is_stmt 1
 356 005c FEFFFFEB 		bl	R_RVAPI_CaptureStartMIPI
 357              	.LVL28:
 247:../src/renesas/application/r_bcd_camera.c **** 
 358              		.loc 1 247 0
 359 0060 000050E3 		cmp	r0, #0
 360 0064 0300001A 		bne	.L21
 361 0068 0040A0E3 		mov	r4, #0
 362              	.LVL29:
 363              	.L20:
 250:../src/renesas/application/r_bcd_camera.c **** 
 364              		.loc 1 250 0 discriminator 4
 365 006c FEFFFFEB 		bl	Start_Camera
 366              	.LVL30:
 253:../src/renesas/application/r_bcd_camera.c **** 
 367              		.loc 1 253 0 discriminator 4
 368 0070 0400A0E1 		mov	r0, r4
 369 0074 7080BDE8 		pop	{r4, r5, r6, pc}
 370              	.LVL31:
 371              	.L21:
 247:../src/renesas/application/r_bcd_camera.c **** 
 372              		.loc 1 247 0
 373 0078 0040E0E3 		mvn	r4, #0
 374              	.LVL32:
 375 007c FAFFFFEA 		b	.L20
 376              		.cfi_endproc
 377              	.LFE2:
 379              		.section	.text.R_BCD_CameraGetCaptureStatus,"ax",%progbits
 380              		.align	2
 381              		.global	R_BCD_CameraGetCaptureStatus
 382              		.syntax unified
 383              		.arm
 384              		.fpu neon
 386              	R_BCD_CameraGetCaptureStatus:
 387              	.LFB3:
 270:../src/renesas/application/r_bcd_camera.c ****     return vdc_captured;
 388              		.loc 1 270 0
 389              		.cfi_startproc
 390              		@ args = 0, pretend = 0, frame = 0
 391              		@ frame_needed = 0, uses_anonymous_args = 0
 392              		@ link register save eliminated.
 271:../src/renesas/application/r_bcd_camera.c **** }   /* End of function R_BCD_CameraGetCaptureStatus() */
 393              		.loc 1 271 0
 394 0000 003000E3 		movw	r3, #:lower16:.LANCHOR1
 395 0004 003040E3 		movt	r3, #:upper16:.LANCHOR1
 396 0008 000093E5 		ldr	r0, [r3]
 272:../src/renesas/application/r_bcd_camera.c **** 
 397              		.loc 1 272 0
 398 000c 1EFF2FE1 		bx	lr
 399              		.cfi_endproc
 400              	.LFE3:
 402              		.section	.text.R_BCD_CameraClearCaptureStatus,"ax",%progbits
 403              		.align	2
 404              		.global	R_BCD_CameraClearCaptureStatus
 405              		.syntax unified
 406              		.arm
 407              		.fpu neon
 409              	R_BCD_CameraClearCaptureStatus:
 410              	.LFB4:
 282:../src/renesas/application/r_bcd_camera.c ****     vdc_captured = R_BCD_CAMERA_NOT_CAPTURED;
 411              		.loc 1 282 0
 412              		.cfi_startproc
 413              		@ args = 0, pretend = 0, frame = 0
 414              		@ frame_needed = 0, uses_anonymous_args = 0
 415              		@ link register save eliminated.
 283:../src/renesas/application/r_bcd_camera.c **** 
 416              		.loc 1 283 0
 417 0000 003000E3 		movw	r3, #:lower16:.LANCHOR1
 418 0004 003040E3 		movt	r3, #:upper16:.LANCHOR1
 419 0008 0020E0E3 		mvn	r2, #0
 420 000c 002083E5 		str	r2, [r3]
 421 0010 1EFF2FE1 		bx	lr
 422              		.cfi_endproc
 423              	.LFE4:
 425              		.section	.text.R_BCD_SetCameraGain,"ax",%progbits
 426              		.align	2
 427              		.global	R_BCD_SetCameraGain
 428              		.syntax unified
 429              		.arm
 430              		.fpu neon
 432              	R_BCD_SetCameraGain:
 433              	.LFB7:
 338:../src/renesas/application/r_bcd_camera.c ****         }
 339:../src/renesas/application/r_bcd_camera.c ****     }
 340:../src/renesas/application/r_bcd_camera.c **** }   /* End of function swap_point() */
 341:../src/renesas/application/r_bcd_camera.c **** 
 342:../src/renesas/application/r_bcd_camera.c **** /**********************************************************************
 343:../src/renesas/application/r_bcd_camera.c **** * Function Name: R_BCD_SetCameraGain
 344:../src/renesas/application/r_bcd_camera.c **** * Description  : Set gain value to mipi camera
 345:../src/renesas/application/r_bcd_camera.c **** * Arguments    : gain        : gain 0(-12dB) to 30(+18dB)
 346:../src/renesas/application/r_bcd_camera.c **** * Return Value : none
 347:../src/renesas/application/r_bcd_camera.c **** **********************************************************************/
 348:../src/renesas/application/r_bcd_camera.c **** void R_BCD_SetCameraGain (uint8_t gain) 
 349:../src/renesas/application/r_bcd_camera.c **** {
 434              		.loc 1 349 0
 435              		.cfi_startproc
 436              		@ args = 0, pretend = 0, frame = 0
 437              		@ frame_needed = 0, uses_anonymous_args = 0
 438              	.LVL33:
 439 0000 10402DE9 		push	{r4, lr}
 440              		.cfi_def_cfa_offset 8
 441              		.cfi_offset 4, -8
 442              		.cfi_offset 14, -4
 350:../src/renesas/application/r_bcd_camera.c ****     RIIC_MipiWrite(MIPI_CAMERA_SUBADD, 0x01, 0x5A, gaintbl[gain][0]);
 443              		.loc 1 350 0
 444 0004 003000E3 		movw	r3, #:lower16:.LANCHOR5
 445 0008 003040E3 		movt	r3, #:upper16:.LANCHOR5
 446 000c 800080E0 		add	r0, r0, r0, lsl #1
 447              	.LVL34:
 448 0010 004083E0 		add	r4, r3, r0
 449 0014 0030D3E7 		ldrb	r3, [r3, r0]	@ zero_extendqisi2
 450 0018 5A20A0E3 		mov	r2, #90
 451 001c 0110A0E3 		mov	r1, #1
 452 0020 2000A0E3 		mov	r0, #32
 453 0024 FEFFFFEB 		bl	RIIC_MipiWrite
 454              	.LVL35:
 351:../src/renesas/application/r_bcd_camera.c ****     RIIC_MipiWrite(MIPI_CAMERA_SUBADD, 0x01, 0x5B, gaintbl[gain][1]);
 455              		.loc 1 351 0
 456 0028 0130D4E5 		ldrb	r3, [r4, #1]	@ zero_extendqisi2
 457 002c 5B20A0E3 		mov	r2, #91
 458 0030 0110A0E3 		mov	r1, #1
 459 0034 2000A0E3 		mov	r0, #32
 460 0038 FEFFFFEB 		bl	RIIC_MipiWrite
 461              	.LVL36:
 352:../src/renesas/application/r_bcd_camera.c ****     RIIC_MipiWrite(MIPI_CAMERA_SUBADD, 0x01, 0x57, gaintbl[gain][2]);
 462              		.loc 1 352 0
 463 003c 0230D4E5 		ldrb	r3, [r4, #2]	@ zero_extendqisi2
 464 0040 5720A0E3 		mov	r2, #87
 465 0044 0110A0E3 		mov	r1, #1
 466 0048 2000A0E3 		mov	r0, #32
 467 004c FEFFFFEB 		bl	RIIC_MipiWrite
 468              	.LVL37:
 469 0050 1080BDE8 		pop	{r4, pc}
 470              		.cfi_endproc
 471              	.LFE7:
 473              		.global	R_BCD_CameraBayerMode
 474              		.section	.bss.R_BCD_CameraBayerMode,"aw",%nobits
 475              		.set	.LANCHOR4,. + 0
 478              	R_BCD_CameraBayerMode:
 479 0000 00       		.space	1
 480              		.section	.bss.buff_write_point,"aw",%nobits
 481              		.align	2
 482              		.set	.LANCHOR2,. + 0
 485              	buff_write_point:
 486 0000 00000000 		.space	4
 487              		.section	.bss.mb_manage_table,"aw",%nobits
 488              		.align	2
 489              		.set	.LANCHOR0,. + 0
 492              	mb_manage_table:
 493 0000 00000000 		.space	12
 493      00000000 
 493      00000000 
 494              		.section	.data.vdc_captured,"aw",%progbits
 495              		.align	2
 496              		.set	.LANCHOR1,. + 0
 499              	vdc_captured:
 500 0000 FFFFFFFF 		.word	-1
 501              		.section	.rodata.gaintbl,"a",%progbits
 502              		.align	2
 503              		.set	.LANCHOR5,. + 0
 506              	gaintbl:
 507 0000 03       		.byte	3
 508 0001 E8       		.byte	-24
 509 0002 00       		.byte	0
 510 0003 04       		.byte	4
 511 0004 23       		.byte	35
 512 0005 00       		.byte	0
 513 0006 04       		.byte	4
 514 0007 62       		.byte	98
 515 0008 00       		.byte	0
 516 0009 04       		.byte	4
 517 000a A5       		.byte	-91
 518 000b 00       		.byte	0
 519 000c 04       		.byte	4
 520 000d EB       		.byte	-21
 521 000e 00       		.byte	0
 522 000f 05       		.byte	5
 523 0010 36       		.byte	54
 524 0011 00       		.byte	0
 525 0012 05       		.byte	5
 526 0013 85       		.byte	-123
 527 0014 00       		.byte	0
 528 0015 05       		.byte	5
 529 0016 D8       		.byte	-40
 530 0017 00       		.byte	0
 531 0018 06       		.byte	6
 532 0019 31       		.byte	49
 533 001a 00       		.byte	0
 534 001b 06       		.byte	6
 535 001c 8F       		.byte	-113
 536 001d 00       		.byte	0
 537 001e 06       		.byte	6
 538 001f F2       		.byte	-14
 539 0020 00       		.byte	0
 540 0021 07       		.byte	7
 541 0022 5C       		.byte	92
 542 0023 00       		.byte	0
 543 0024 07       		.byte	7
 544 0025 CB       		.byte	-53
 545 0026 00       		.byte	0
 546 0027 08       		.byte	8
 547 0028 41       		.byte	65
 548 0029 00       		.byte	0
 549 002a 08       		.byte	8
 550 002b BF       		.byte	-65
 551 002c 00       		.byte	0
 552 002d 09       		.byte	9
 553 002e 43       		.byte	67
 554 002f 00       		.byte	0
 555 0030 09       		.byte	9
 556 0031 D0       		.byte	-48
 557 0032 00       		.byte	0
 558 0033 0A       		.byte	10
 559 0034 65       		.byte	101
 560 0035 00       		.byte	0
 561 0036 0B       		.byte	11
 562 0037 02       		.byte	2
 563 0038 00       		.byte	0
 564 0039 0B       		.byte	11
 565 003a A9       		.byte	-87
 566 003b 00       		.byte	0
 567 003c 0C       		.byte	12
 568 003d 5A       		.byte	90
 569 003e 00       		.byte	0
 570 003f 0C       		.byte	12
 571 0040 5A       		.byte	90
 572 0041 0E       		.byte	14
 573 0042 0C       		.byte	12
 574 0043 5A       		.byte	90
 575 0044 1C       		.byte	28
 576 0045 0C       		.byte	12
 577 0046 5A       		.byte	90
 578 0047 28       		.byte	40
 579 0048 0C       		.byte	12
 580 0049 5A       		.byte	90
 581 004a 35       		.byte	53
 582 004b 0C       		.byte	12
 583 004c 5A       		.byte	90
 584 004d 40       		.byte	64
 585 004e 0C       		.byte	12
 586 004f 5A       		.byte	90
 587 0050 4B       		.byte	75
 588 0051 0C       		.byte	12
 589 0052 5A       		.byte	90
 590 0053 55       		.byte	85
 591 0054 0C       		.byte	12
 592 0055 5A       		.byte	90
 593 0056 5F       		.byte	95
 594 0057 0C       		.byte	12
 595 0058 5A       		.byte	90
 596 0059 67       		.byte	103
 597 005a 0C       		.byte	12
 598 005b 5A       		.byte	90
 599 005c 70       		.byte	112
 600 005d 0C       		.byte	12
 601 005e 5A       		.byte	90
 602 005f 78       		.byte	120
 603 0060 0C       		.byte	12
 604 0061 5A       		.byte	90
 605 0062 80       		.byte	-128
 606 0063 0C       		.byte	12
 607 0064 5A       		.byte	90
 608 0065 87       		.byte	-121
 609 0066 0C       		.byte	12
 610 0067 5A       		.byte	90
 611 0068 8E       		.byte	-114
 612 0069 0C       		.byte	12
 613 006a 5A       		.byte	90
 614 006b 94       		.byte	-108
 615 006c 0C       		.byte	12
 616 006d 5A       		.byte	90
 617 006e 9A       		.byte	-102
 618 006f 0C       		.byte	12
 619 0070 5A       		.byte	90
 620 0071 A0       		.byte	-96
 621 0072 0C       		.byte	12
 622 0073 5A       		.byte	90
 623 0074 A5       		.byte	-91
 624 0075 0C       		.byte	12
 625 0076 5A       		.byte	90
 626 0077 AA       		.byte	-86
 627 0078 0C       		.byte	12
 628 0079 5A       		.byte	90
 629 007a AF       		.byte	-81
 630 007b 0C       		.byte	12
 631 007c 5A       		.byte	90
 632 007d B4       		.byte	-76
 633 007e 0C       		.byte	12
 634 007f 5A       		.byte	90
 635 0080 B8       		.byte	-72
 636 0081 0C       		.byte	12
 637 0082 5A       		.byte	90
 638 0083 BC       		.byte	-68
 639 0084 0C       		.byte	12
 640 0085 5A       		.byte	90
 641 0086 C0       		.byte	-64
 642 0087 0C       		.byte	12
 643 0088 5A       		.byte	90
 644 0089 C3       		.byte	-61
 645 008a 0C       		.byte	12
 646 008b 5A       		.byte	90
 647 008c C6       		.byte	-58
 648 008d 0C       		.byte	12
 649 008e 5A       		.byte	90
 650 008f CA       		.byte	-54
 651 0090 0C       		.byte	12
 652 0091 5A       		.byte	90
 653 0092 CD       		.byte	-51
 654              		.section	Capture_RAM,"aw",%progbits
 655              		.align	2
 656              		.set	.LANCHOR3,. + 0
 659              	frame_buffer:
 660 0000 00000000 		.space	307200
 660      00000000 
 660      00000000 
 660      00000000 
 660      00000000 
 661              		.text
 662              	.Letext0:
 663              		.file 2 "c:\\program files (x86)\\gnu tools arm embedded\\6 2017-q2-update\\arm-none-eabi\\include
 664              		.file 3 "c:\\program files (x86)\\gnu tools arm embedded\\6 2017-q2-update\\arm-none-eabi\\include
 665              		.file 4 "c:\\program files (x86)\\gnu tools arm embedded\\6 2017-q2-update\\arm-none-eabi\\include
 666              		.file 5 "c:\\program files (x86)\\gnu tools arm embedded\\6 2017-q2-update\\arm-none-eabi\\include
 667              		.file 6 "c:\\program files (x86)\\gnu tools arm embedded\\6 2017-q2-update\\lib\\gcc\\arm-none-eab
 668              		.file 7 "c:\\program files (x86)\\gnu tools arm embedded\\6 2017-q2-update\\arm-none-eabi\\include
 669              		.file 8 "c:\\program files (x86)\\gnu tools arm embedded\\6 2017-q2-update\\arm-none-eabi\\include
 670              		.file 9 "C:/Renesas/e2studio_2021_01_workspace_RZA2M_ANPR/ANPR_RZA2M_GR_MANGO/generate/sc_drivers/
 671              		.file 10 "C:/Renesas/e2studio_2021_01_workspace_RZA2M_ANPR/ANPR_RZA2M_GR_MANGO/src/renesas/applica
 672              		.file 11 "C:/Renesas/e2studio_2021_01_workspace_RZA2M_ANPR/ANPR_RZA2M_GR_MANGO/generate/drivers/r_
 673              		.file 12 "C:/Renesas/e2studio_2021_01_workspace_RZA2M_ANPR/ANPR_RZA2M_GR_MANGO/src/renesas/applica
 674              		.file 13 "C:/Renesas/e2studio_2021_01_workspace_RZA2M_ANPR/ANPR_RZA2M_GR_MANGO/src/renesas/applica
 675              		.file 14 "C:/Renesas/e2studio_2021_01_workspace_RZA2M_ANPR/ANPR_RZA2M_GR_MANGO/generate/sc_drivers