   1              		.cpu cortex-a9
   2              		.eabi_attribute 28, 1
   3              		.eabi_attribute 20, 1
   4              		.eabi_attribute 21, 1
   5              		.eabi_attribute 23, 3
   6              		.eabi_attribute 24, 1
   7              		.eabi_attribute 25, 1
   8              		.eabi_attribute 26, 1
   9              		.eabi_attribute 30, 2
  10              		.eabi_attribute 34, 0
  11              		.eabi_attribute 18, 4
  12              		.file	"arm_relu6_s8.c"
  13              		.text
  14              	.Ltext0:
  15              		.cfi_sections	.debug_frame
  16              		.section	.text.arm_relu6_s8,"ax",%progbits
  17              		.align	2
  18              		.global	arm_relu6_s8
  19              		.syntax unified
  20              		.arm
  21              		.fpu neon
  23              	arm_relu6_s8:
  24              	.LFB122:
  25              		.file 1 "../src/tensorflow_lite/third_party/cmsis/CMSIS/NN/Source/ActivationFunctions/arm_relu6_s8
   1:../src/tensorflow_lite/third_party/cmsis/CMSIS/NN/Source/ActivationFunctions/arm_relu6_s8.c **** /*
   2:../src/tensorflow_lite/third_party/cmsis/CMSIS/NN/Source/ActivationFunctions/arm_relu6_s8.c ****  * Copyright (C) 2010-2019 Arm Limited or its affiliates. All rights reserved.
   3:../src/tensorflow_lite/third_party/cmsis/CMSIS/NN/Source/ActivationFunctions/arm_relu6_s8.c ****  *
   4:../src/tensorflow_lite/third_party/cmsis/CMSIS/NN/Source/ActivationFunctions/arm_relu6_s8.c ****  * SPDX-License-Identifier: Apache-2.0
   5:../src/tensorflow_lite/third_party/cmsis/CMSIS/NN/Source/ActivationFunctions/arm_relu6_s8.c ****  *
   6:../src/tensorflow_lite/third_party/cmsis/CMSIS/NN/Source/ActivationFunctions/arm_relu6_s8.c ****  * Licensed under the Apache License, Version 2.0 (the License); you may
   7:../src/tensorflow_lite/third_party/cmsis/CMSIS/NN/Source/ActivationFunctions/arm_relu6_s8.c ****  * not use this file except in compliance with the License.
   8:../src/tensorflow_lite/third_party/cmsis/CMSIS/NN/Source/ActivationFunctions/arm_relu6_s8.c ****  * You may obtain a copy of the License at
   9:../src/tensorflow_lite/third_party/cmsis/CMSIS/NN/Source/ActivationFunctions/arm_relu6_s8.c ****  *
  10:../src/tensorflow_lite/third_party/cmsis/CMSIS/NN/Source/ActivationFunctions/arm_relu6_s8.c ****  * www.apache.org/licenses/LICENSE-2.0
  11:../src/tensorflow_lite/third_party/cmsis/CMSIS/NN/Source/ActivationFunctions/arm_relu6_s8.c ****  *
  12:../src/tensorflow_lite/third_party/cmsis/CMSIS/NN/Source/ActivationFunctions/arm_relu6_s8.c ****  * Unless required by applicable law or agreed to in writing, software
  13:../src/tensorflow_lite/third_party/cmsis/CMSIS/NN/Source/ActivationFunctions/arm_relu6_s8.c ****  * distributed under the License is distributed on an AS IS BASIS, WITHOUT
  14:../src/tensorflow_lite/third_party/cmsis/CMSIS/NN/Source/ActivationFunctions/arm_relu6_s8.c ****  * WARRANTIES OR CONDITIONS OF ANY KIND, either express or implied.
  15:../src/tensorflow_lite/third_party/cmsis/CMSIS/NN/Source/ActivationFunctions/arm_relu6_s8.c ****  * See the License for the specific language governing permissions and
  16:../src/tensorflow_lite/third_party/cmsis/CMSIS/NN/Source/ActivationFunctions/arm_relu6_s8.c ****  * limitations under the License.
  17:../src/tensorflow_lite/third_party/cmsis/CMSIS/NN/Source/ActivationFunctions/arm_relu6_s8.c ****  */
  18:../src/tensorflow_lite/third_party/cmsis/CMSIS/NN/Source/ActivationFunctions/arm_relu6_s8.c **** 
  19:../src/tensorflow_lite/third_party/cmsis/CMSIS/NN/Source/ActivationFunctions/arm_relu6_s8.c **** /* ----------------------------------------------------------------------
  20:../src/tensorflow_lite/third_party/cmsis/CMSIS/NN/Source/ActivationFunctions/arm_relu6_s8.c ****  * Project:      CMSIS NN Library
  21:../src/tensorflow_lite/third_party/cmsis/CMSIS/NN/Source/ActivationFunctions/arm_relu6_s8.c ****  * Title:        arm_relu6_s8.c
  22:../src/tensorflow_lite/third_party/cmsis/CMSIS/NN/Source/ActivationFunctions/arm_relu6_s8.c ****  * Description:  Basic s8 version of ReLU6
  23:../src/tensorflow_lite/third_party/cmsis/CMSIS/NN/Source/ActivationFunctions/arm_relu6_s8.c ****  *
  24:../src/tensorflow_lite/third_party/cmsis/CMSIS/NN/Source/ActivationFunctions/arm_relu6_s8.c ****  * $Date:        09. October 2020
  25:../src/tensorflow_lite/third_party/cmsis/CMSIS/NN/Source/ActivationFunctions/arm_relu6_s8.c ****  * $Revision:    V.1.0.1
  26:../src/tensorflow_lite/third_party/cmsis/CMSIS/NN/Source/ActivationFunctions/arm_relu6_s8.c ****  *
  27:../src/tensorflow_lite/third_party/cmsis/CMSIS/NN/Source/ActivationFunctions/arm_relu6_s8.c ****  * Target Processor:  Cortex-M cores
  28:../src/tensorflow_lite/third_party/cmsis/CMSIS/NN/Source/ActivationFunctions/arm_relu6_s8.c ****  *
  29:../src/tensorflow_lite/third_party/cmsis/CMSIS/NN/Source/ActivationFunctions/arm_relu6_s8.c ****  * -------------------------------------------------------------------- */
  30:../src/tensorflow_lite/third_party/cmsis/CMSIS/NN/Source/ActivationFunctions/arm_relu6_s8.c **** 
  31:../src/tensorflow_lite/third_party/cmsis/CMSIS/NN/Source/ActivationFunctions/arm_relu6_s8.c **** #include "arm_nnfunctions.h"
  32:../src/tensorflow_lite/third_party/cmsis/CMSIS/NN/Source/ActivationFunctions/arm_relu6_s8.c **** #include "arm_nnsupportfunctions.h"
  33:../src/tensorflow_lite/third_party/cmsis/CMSIS/NN/Source/ActivationFunctions/arm_relu6_s8.c **** 
  34:../src/tensorflow_lite/third_party/cmsis/CMSIS/NN/Source/ActivationFunctions/arm_relu6_s8.c **** /**
  35:../src/tensorflow_lite/third_party/cmsis/CMSIS/NN/Source/ActivationFunctions/arm_relu6_s8.c ****  *  @ingroup groupNN
  36:../src/tensorflow_lite/third_party/cmsis/CMSIS/NN/Source/ActivationFunctions/arm_relu6_s8.c ****  */
  37:../src/tensorflow_lite/third_party/cmsis/CMSIS/NN/Source/ActivationFunctions/arm_relu6_s8.c **** 
  38:../src/tensorflow_lite/third_party/cmsis/CMSIS/NN/Source/ActivationFunctions/arm_relu6_s8.c **** /**
  39:../src/tensorflow_lite/third_party/cmsis/CMSIS/NN/Source/ActivationFunctions/arm_relu6_s8.c ****  * @addtogroup Acti
  40:../src/tensorflow_lite/third_party/cmsis/CMSIS/NN/Source/ActivationFunctions/arm_relu6_s8.c ****  * @{
  41:../src/tensorflow_lite/third_party/cmsis/CMSIS/NN/Source/ActivationFunctions/arm_relu6_s8.c ****  */
  42:../src/tensorflow_lite/third_party/cmsis/CMSIS/NN/Source/ActivationFunctions/arm_relu6_s8.c **** 
  43:../src/tensorflow_lite/third_party/cmsis/CMSIS/NN/Source/ActivationFunctions/arm_relu6_s8.c **** /*
  44:../src/tensorflow_lite/third_party/cmsis/CMSIS/NN/Source/ActivationFunctions/arm_relu6_s8.c ****  *  Basic ReLU6 function
  45:../src/tensorflow_lite/third_party/cmsis/CMSIS/NN/Source/ActivationFunctions/arm_relu6_s8.c ****  *
  46:../src/tensorflow_lite/third_party/cmsis/CMSIS/NN/Source/ActivationFunctions/arm_relu6_s8.c ****  * Refer to header file for details.
  47:../src/tensorflow_lite/third_party/cmsis/CMSIS/NN/Source/ActivationFunctions/arm_relu6_s8.c ****  *
  48:../src/tensorflow_lite/third_party/cmsis/CMSIS/NN/Source/ActivationFunctions/arm_relu6_s8.c ****  */
  49:../src/tensorflow_lite/third_party/cmsis/CMSIS/NN/Source/ActivationFunctions/arm_relu6_s8.c **** 
  50:../src/tensorflow_lite/third_party/cmsis/CMSIS/NN/Source/ActivationFunctions/arm_relu6_s8.c **** void arm_relu6_s8(q7_t *data, uint16_t size)
  51:../src/tensorflow_lite/third_party/cmsis/CMSIS/NN/Source/ActivationFunctions/arm_relu6_s8.c **** {
  26              		.loc 1 51 0
  27              		.cfi_startproc
  28              		@ args = 0, pretend = 0, frame = 0
  29              		@ frame_needed = 0, uses_anonymous_args = 0
  30              	.LVL0:
  52:../src/tensorflow_lite/third_party/cmsis/CMSIS/NN/Source/ActivationFunctions/arm_relu6_s8.c ****     int32_t i;
  53:../src/tensorflow_lite/third_party/cmsis/CMSIS/NN/Source/ActivationFunctions/arm_relu6_s8.c **** 
  54:../src/tensorflow_lite/third_party/cmsis/CMSIS/NN/Source/ActivationFunctions/arm_relu6_s8.c ****     for (i = 0; i < size; i++)
  31              		.loc 1 54 0
  32 0000 000051E3 		cmp	r1, #0
  33              	.LVL1:
  34 0004 1EFF2F01 		bxeq	lr
  35 0008 073000E2 		and	r3, r0, #7
  36 000c 003063E2 		rsb	r3, r3, #0
  37 0010 0F3003E2 		and	r3, r3, #15
  38 0014 010053E1 		cmp	r3, r1
  39 0018 0130A021 		movcs	r3, r1
  40 001c 100051E3 		cmp	r1, #16
  41 0020 0130A091 		movls	r3, r1
  42 0024 000053E3 		cmp	r3, #0
  43 0028 5901000A 		beq	.L15
  44              	.LBB2:
  55:../src/tensorflow_lite/third_party/cmsis/CMSIS/NN/Source/ActivationFunctions/arm_relu6_s8.c ****     {
  56:../src/tensorflow_lite/third_party/cmsis/CMSIS/NN/Source/ActivationFunctions/arm_relu6_s8.c ****         int32_t ip = data[i];
  45              		.loc 1 56 0
  46 002c D020D0E1 		ldrsb	r2, [r0]
  47              	.LVL2:
  57:../src/tensorflow_lite/third_party/cmsis/CMSIS/NN/Source/ActivationFunctions/arm_relu6_s8.c **** 
  58:../src/tensorflow_lite/third_party/cmsis/CMSIS/NN/Source/ActivationFunctions/arm_relu6_s8.c ****         ip = MAX(ip, 0);
  48              		.loc 1 58 0
  49 0030 C22FC2E1 		bic	r2, r2, r2, asr #31
  50              	.LVL3:
  59:../src/tensorflow_lite/third_party/cmsis/CMSIS/NN/Source/ActivationFunctions/arm_relu6_s8.c ****         data[i] = MIN(ip, 6);
  51              		.loc 1 59 0
  52 0034 060052E3 		cmp	r2, #6
  53 0038 0620A0A3 		movge	r2, #6
  54              	.LVL4:
  55 003c 010053E3 		cmp	r3, #1
  56 0040 0020C0E5 		strb	r2, [r0]
  57              	.LVL5:
  58 0044 4E01000A 		beq	.L29
  56:../src/tensorflow_lite/third_party/cmsis/CMSIS/NN/Source/ActivationFunctions/arm_relu6_s8.c **** 
  59              		.loc 1 56 0
  60 0048 D120D0E1 		ldrsb	r2, [r0, #1]
  61              	.LVL6:
  58:../src/tensorflow_lite/third_party/cmsis/CMSIS/NN/Source/ActivationFunctions/arm_relu6_s8.c ****         data[i] = MIN(ip, 6);
  62              		.loc 1 58 0
  63 004c C22FC2E1 		bic	r2, r2, r2, asr #31
  64              	.LVL7:
  65              		.loc 1 59 0
  66 0050 060052E3 		cmp	r2, #6
  67 0054 0620A0A3 		movge	r2, #6
  68              	.LVL8:
  69 0058 020053E3 		cmp	r3, #2
  70 005c 0120C0E5 		strb	r2, [r0, #1]
  71              	.LVL9:
  72 0060 4701000A 		beq	.L29
  56:../src/tensorflow_lite/third_party/cmsis/CMSIS/NN/Source/ActivationFunctions/arm_relu6_s8.c **** 
  73              		.loc 1 56 0
  74 0064 D220D0E1 		ldrsb	r2, [r0, #2]
  75              	.LVL10:
  58:../src/tensorflow_lite/third_party/cmsis/CMSIS/NN/Source/ActivationFunctions/arm_relu6_s8.c ****         data[i] = MIN(ip, 6);
  76              		.loc 1 58 0
  77 0068 C22FC2E1 		bic	r2, r2, r2, asr #31
  78              	.LVL11:
  79              		.loc 1 59 0
  80 006c 060052E3 		cmp	r2, #6
  81 0070 0620A0A3 		movge	r2, #6
  82              	.LVL12:
  83 0074 030053E3 		cmp	r3, #3
  84 0078 0220C0E5 		strb	r2, [r0, #2]
  85              	.LVL13:
  86 007c 4001000A 		beq	.L29
  56:../src/tensorflow_lite/third_party/cmsis/CMSIS/NN/Source/ActivationFunctions/arm_relu6_s8.c **** 
  87              		.loc 1 56 0
  88 0080 D320D0E1 		ldrsb	r2, [r0, #3]
  89              	.LVL14:
  58:../src/tensorflow_lite/third_party/cmsis/CMSIS/NN/Source/ActivationFunctions/arm_relu6_s8.c ****         data[i] = MIN(ip, 6);
  90              		.loc 1 58 0
  91 0084 C22FC2E1 		bic	r2, r2, r2, asr #31
  92              	.LVL15:
  93              		.loc 1 59 0
  94 0088 060052E3 		cmp	r2, #6
  95 008c 0620A0A3 		movge	r2, #6
  96              	.LVL16:
  97 0090 040053E3 		cmp	r3, #4
  98 0094 0320C0E5 		strb	r2, [r0, #3]
  99              	.LVL17:
 100 0098 3901000A 		beq	.L29
  56:../src/tensorflow_lite/third_party/cmsis/CMSIS/NN/Source/ActivationFunctions/arm_relu6_s8.c **** 
 101              		.loc 1 56 0
 102 009c D420D0E1 		ldrsb	r2, [r0, #4]
 103              	.LVL18:
  58:../src/tensorflow_lite/third_party/cmsis/CMSIS/NN/Source/ActivationFunctions/arm_relu6_s8.c ****         data[i] = MIN(ip, 6);
 104              		.loc 1 58 0
 105 00a0 C22FC2E1 		bic	r2, r2, r2, asr #31
 106              	.LVL19:
 107              		.loc 1 59 0
 108 00a4 060052E3 		cmp	r2, #6
 109 00a8 0620A0A3 		movge	r2, #6
 110              	.LVL20:
 111 00ac 050053E3 		cmp	r3, #5
 112 00b0 0420C0E5 		strb	r2, [r0, #4]
 113              	.LVL21:
 114 00b4 3201000A 		beq	.L29
  56:../src/tensorflow_lite/third_party/cmsis/CMSIS/NN/Source/ActivationFunctions/arm_relu6_s8.c **** 
 115              		.loc 1 56 0
 116 00b8 D520D0E1 		ldrsb	r2, [r0, #5]
 117              	.LVL22:
  58:../src/tensorflow_lite/third_party/cmsis/CMSIS/NN/Source/ActivationFunctions/arm_relu6_s8.c ****         data[i] = MIN(ip, 6);
 118              		.loc 1 58 0
 119 00bc C22FC2E1 		bic	r2, r2, r2, asr #31
 120              	.LVL23:
 121              		.loc 1 59 0
 122 00c0 060052E3 		cmp	r2, #6
 123 00c4 0620A0A3 		movge	r2, #6
 124              	.LVL24:
 125 00c8 060053E3 		cmp	r3, #6
 126 00cc 0520C0E5 		strb	r2, [r0, #5]
 127              	.LVL25:
 128 00d0 2B01000A 		beq	.L29
  56:../src/tensorflow_lite/third_party/cmsis/CMSIS/NN/Source/ActivationFunctions/arm_relu6_s8.c **** 
 129              		.loc 1 56 0
 130 00d4 D620D0E1 		ldrsb	r2, [r0, #6]
 131              	.LVL26:
  58:../src/tensorflow_lite/third_party/cmsis/CMSIS/NN/Source/ActivationFunctions/arm_relu6_s8.c ****         data[i] = MIN(ip, 6);
 132              		.loc 1 58 0
 133 00d8 C22FC2E1 		bic	r2, r2, r2, asr #31
 134              	.LVL27:
 135              		.loc 1 59 0
 136 00dc 060052E3 		cmp	r2, #6
 137 00e0 0620A0A3 		movge	r2, #6
 138              	.LVL28:
 139 00e4 070053E3 		cmp	r3, #7
 140 00e8 0620C0E5 		strb	r2, [r0, #6]
 141              	.LVL29:
 142 00ec 2401000A 		beq	.L29
  56:../src/tensorflow_lite/third_party/cmsis/CMSIS/NN/Source/ActivationFunctions/arm_relu6_s8.c **** 
 143              		.loc 1 56 0
 144 00f0 D720D0E1 		ldrsb	r2, [r0, #7]
 145              	.LVL30:
  58:../src/tensorflow_lite/third_party/cmsis/CMSIS/NN/Source/ActivationFunctions/arm_relu6_s8.c ****         data[i] = MIN(ip, 6);
 146              		.loc 1 58 0
 147 00f4 C22FC2E1 		bic	r2, r2, r2, asr #31
 148              	.LVL31:
 149              		.loc 1 59 0
 150 00f8 060052E3 		cmp	r2, #6
 151 00fc 0620A0A3 		movge	r2, #6
 152              	.LVL32:
 153 0100 080053E3 		cmp	r3, #8
 154 0104 0720C0E5 		strb	r2, [r0, #7]
 155              	.LVL33:
 156 0108 2501000A 		beq	.L23
  56:../src/tensorflow_lite/third_party/cmsis/CMSIS/NN/Source/ActivationFunctions/arm_relu6_s8.c **** 
 157              		.loc 1 56 0
 158 010c D820D0E1 		ldrsb	r2, [r0, #8]
 159              	.LVL34:
  58:../src/tensorflow_lite/third_party/cmsis/CMSIS/NN/Source/ActivationFunctions/arm_relu6_s8.c ****         data[i] = MIN(ip, 6);
 160              		.loc 1 58 0
 161 0110 C22FC2E1 		bic	r2, r2, r2, asr #31
 162              	.LVL35:
 163              		.loc 1 59 0
 164 0114 060052E3 		cmp	r2, #6
 165 0118 0620A0A3 		movge	r2, #6
 166              	.LVL36:
 167 011c 090053E3 		cmp	r3, #9
 168 0120 0820C0E5 		strb	r2, [r0, #8]
 169              	.LVL37:
 170 0124 1601000A 		beq	.L29
  56:../src/tensorflow_lite/third_party/cmsis/CMSIS/NN/Source/ActivationFunctions/arm_relu6_s8.c **** 
 171              		.loc 1 56 0
 172 0128 D920D0E1 		ldrsb	r2, [r0, #9]
 173              	.LVL38:
  58:../src/tensorflow_lite/third_party/cmsis/CMSIS/NN/Source/ActivationFunctions/arm_relu6_s8.c ****         data[i] = MIN(ip, 6);
 174              		.loc 1 58 0
 175 012c C22FC2E1 		bic	r2, r2, r2, asr #31
 176              	.LVL39:
 177              		.loc 1 59 0
 178 0130 060052E3 		cmp	r2, #6
 179 0134 0620A0A3 		movge	r2, #6
 180              	.LVL40:
 181 0138 0A0053E3 		cmp	r3, #10
 182 013c 0920C0E5 		strb	r2, [r0, #9]
 183              	.LVL41:
 184 0140 0F01000A 		beq	.L29
  56:../src/tensorflow_lite/third_party/cmsis/CMSIS/NN/Source/ActivationFunctions/arm_relu6_s8.c **** 
 185              		.loc 1 56 0
 186 0144 DA20D0E1 		ldrsb	r2, [r0, #10]
 187              	.LVL42:
  58:../src/tensorflow_lite/third_party/cmsis/CMSIS/NN/Source/ActivationFunctions/arm_relu6_s8.c ****         data[i] = MIN(ip, 6);
 188              		.loc 1 58 0
 189 0148 C22FC2E1 		bic	r2, r2, r2, asr #31
 190              	.LVL43:
 191              		.loc 1 59 0
 192 014c 060052E3 		cmp	r2, #6
 193 0150 0620A0A3 		movge	r2, #6
 194              	.LVL44:
 195 0154 0B0053E3 		cmp	r3, #11
 196 0158 0A20C0E5 		strb	r2, [r0, #10]
 197              	.LVL45:
 198 015c 0801000A 		beq	.L29
  56:../src/tensorflow_lite/third_party/cmsis/CMSIS/NN/Source/ActivationFunctions/arm_relu6_s8.c **** 
 199              		.loc 1 56 0
 200 0160 DB20D0E1 		ldrsb	r2, [r0, #11]
 201              	.LVL46:
  58:../src/tensorflow_lite/third_party/cmsis/CMSIS/NN/Source/ActivationFunctions/arm_relu6_s8.c ****         data[i] = MIN(ip, 6);
 202              		.loc 1 58 0
 203 0164 C22FC2E1 		bic	r2, r2, r2, asr #31
 204              	.LVL47:
 205              		.loc 1 59 0
 206 0168 060052E3 		cmp	r2, #6
 207 016c 0620A0A3 		movge	r2, #6
 208              	.LVL48:
 209 0170 0C0053E3 		cmp	r3, #12
 210 0174 0B20C0E5 		strb	r2, [r0, #11]
 211              	.LVL49:
 212 0178 0101000A 		beq	.L29
  56:../src/tensorflow_lite/third_party/cmsis/CMSIS/NN/Source/ActivationFunctions/arm_relu6_s8.c **** 
 213              		.loc 1 56 0
 214 017c DC20D0E1 		ldrsb	r2, [r0, #12]
 215              	.LVL50:
  58:../src/tensorflow_lite/third_party/cmsis/CMSIS/NN/Source/ActivationFunctions/arm_relu6_s8.c ****         data[i] = MIN(ip, 6);
 216              		.loc 1 58 0
 217 0180 C22FC2E1 		bic	r2, r2, r2, asr #31
 218              	.LVL51:
 219              		.loc 1 59 0
 220 0184 060052E3 		cmp	r2, #6
 221 0188 0620A0A3 		movge	r2, #6
 222              	.LVL52:
 223 018c 0D0053E3 		cmp	r3, #13
 224 0190 0C20C0E5 		strb	r2, [r0, #12]
 225              	.LVL53:
 226 0194 FA00000A 		beq	.L29
  56:../src/tensorflow_lite/third_party/cmsis/CMSIS/NN/Source/ActivationFunctions/arm_relu6_s8.c **** 
 227              		.loc 1 56 0
 228 0198 DD20D0E1 		ldrsb	r2, [r0, #13]
 229              	.LVL54:
  58:../src/tensorflow_lite/third_party/cmsis/CMSIS/NN/Source/ActivationFunctions/arm_relu6_s8.c ****         data[i] = MIN(ip, 6);
 230              		.loc 1 58 0
 231 019c C22FC2E1 		bic	r2, r2, r2, asr #31
 232              	.LVL55:
 233              		.loc 1 59 0
 234 01a0 060052E3 		cmp	r2, #6
 235 01a4 0620A0A3 		movge	r2, #6
 236              	.LVL56:
 237 01a8 0E0053E3 		cmp	r3, #14
 238 01ac 0D20C0E5 		strb	r2, [r0, #13]
 239              	.LVL57:
 240 01b0 F300000A 		beq	.L29
  56:../src/tensorflow_lite/third_party/cmsis/CMSIS/NN/Source/ActivationFunctions/arm_relu6_s8.c **** 
 241              		.loc 1 56 0
 242 01b4 DE20D0E1 		ldrsb	r2, [r0, #14]
 243              	.LVL58:
  58:../src/tensorflow_lite/third_party/cmsis/CMSIS/NN/Source/ActivationFunctions/arm_relu6_s8.c ****         data[i] = MIN(ip, 6);
 244              		.loc 1 58 0
 245 01b8 C22FC2E1 		bic	r2, r2, r2, asr #31
 246              	.LVL59:
 247              		.loc 1 59 0
 248 01bc 060052E3 		cmp	r2, #6
 249 01c0 0620A0A3 		movge	r2, #6
 250              	.LVL60:
 251 01c4 100053E3 		cmp	r3, #16
 252 01c8 0E20C0E5 		strb	r2, [r0, #14]
 253              	.LVL61:
 254 01cc F200001A 		bne	.L30
  56:../src/tensorflow_lite/third_party/cmsis/CMSIS/NN/Source/ActivationFunctions/arm_relu6_s8.c **** 
 255              		.loc 1 56 0
 256 01d0 DF20D0E1 		ldrsb	r2, [r0, #15]
 257              	.LVL62:
 258              	.LBE2:
  54:../src/tensorflow_lite/third_party/cmsis/CMSIS/NN/Source/ActivationFunctions/arm_relu6_s8.c ****     {
 259              		.loc 1 54 0
 260 01d4 03C0A0E1 		mov	ip, r3
 261              	.LBB3:
  58:../src/tensorflow_lite/third_party/cmsis/CMSIS/NN/Source/ActivationFunctions/arm_relu6_s8.c ****         data[i] = MIN(ip, 6);
 262              		.loc 1 58 0
 263 01d8 C22FC2E1 		bic	r2, r2, r2, asr #31
 264              	.LVL63:
 265              		.loc 1 59 0
 266 01dc 060052E3 		cmp	r2, #6
 267 01e0 0620A0A3 		movge	r2, #6
 268              	.LVL64:
 269 01e4 0F20C0E5 		strb	r2, [r0, #15]
 270              	.LVL65:
 271              	.L5:
 272 01e8 030051E1 		cmp	r1, r3
 273 01ec E700000A 		beq	.L40
 274              	.L4:
 275              	.LBE3:
  51:../src/tensorflow_lite/third_party/cmsis/CMSIS/NN/Source/ActivationFunctions/arm_relu6_s8.c ****     int32_t i;
 276              		.loc 1 51 0
 277 01f0 F0432DE9 		push	{r4, r5, r6, r7, r8, r9, lr}
 278              		.cfi_def_cfa_offset 28
 279              		.cfi_offset 4, -28
 280              		.cfi_offset 5, -24
 281              		.cfi_offset 6, -20
 282              		.cfi_offset 7, -16
 283              		.cfi_offset 8, -12
 284              		.cfi_offset 9, -8
 285              		.cfi_offset 14, -4
 286 01f4 034041E0 		sub	r4, r1, r3
 287 01f8 01E041E2 		sub	lr, r1, #1
 288 01fc 102044E2 		sub	r2, r4, #16
 289 0200 03E04EE0 		sub	lr, lr, r3
 290 0204 2222A0E1 		lsr	r2, r2, #4
 291 0208 0E005EE3 		cmp	lr, #14
 292 020c 015082E2 		add	r5, r2, #1
 293 0210 0562A0E1 		lsl	r6, r5, #4
 294 0214 6400009A 		bls	.L7
 295 0218 022042E2 		sub	r2, r2, #2
 296 021c 040072E3 		cmn	r2, #4
 297 0220 033080E0 		add	r3, r0, r3
 298 0224 E100008A 		bhi	.L31
 299 0228 20E083E2 		add	lr, r3, #32
 300 022c 0120C2E3 		bic	r2, r2, #1
 301              	.LBB4:
  58:../src/tensorflow_lite/third_party/cmsis/CMSIS/NN/Source/ActivationFunctions/arm_relu6_s8.c ****         data[i] = MIN(ip, 6);
 302              		.loc 1 58 0
 303 0230 5060C0F2 		vmov.i32	q11, #0  @ v4si
 304 0234 022082E2 		add	r2, r2, #2
 305              		.loc 1 59 0
 306 0238 5640C0F2 		vmov.i32	q10, #6  @ v4si
 307              	.LBE4:
  54:../src/tensorflow_lite/third_party/cmsis/CMSIS/NN/Source/ActivationFunctions/arm_relu6_s8.c ****     {
 308              		.loc 1 54 0
 309 023c 0E70A0E1 		mov	r7, lr
 310 0240 0080A0E3 		mov	r8, #0
 311              	.L9:
 312              	.LBB5:
  56:../src/tensorflow_lite/third_party/cmsis/CMSIS/NN/Source/ActivationFunctions/arm_relu6_s8.c **** 
 313              		.loc 1 56 0 discriminator 3
 314 0244 080B5EED 		vldr	d16, [lr, #-32]
 315 0248 061B5EED 		vldr	d17, [lr, #-24]
 316 024c 028088E2 		add	r8, r8, #2
 317 0250 70F0DEF5 		pld	[lr, #112]
 318 0254 020058E1 		cmp	r8, r2
 319 0258 302AC8F2 		vmovl.s8 q9, d16
 320 025c 0E30A0E1 		mov	r3, lr
 321 0260 310AC8F2 		vmovl.s8 q8, d17
 322 0264 0790A0E1 		mov	r9, r7
 323 0268 20E08EE2 		add	lr, lr, #32
 324 026c 207087E2 		add	r7, r7, #32
 325 0270 32AAD0F2 		vmovl.s16 q13, d18
 326 0274 308AD0F2 		vmovl.s16 q12, d16
 327 0278 332AD0F2 		vmovl.s16 q9, d19
 328 027c 310AD0F2 		vmovl.s16 q8, d17
  58:../src/tensorflow_lite/third_party/cmsis/CMSIS/NN/Source/ActivationFunctions/arm_relu6_s8.c ****         data[i] = MIN(ip, 6);
 329              		.loc 1 58 0 discriminator 3
 330 0280 E6A66AF2 		vmax.s32	q13, q13, q11
 331 0284 E62662F2 		vmax.s32	q9, q9, q11
 332 0288 E68668F2 		vmax.s32	q12, q12, q11
 333 028c E60660F2 		vmax.s32	q8, q8, q11
 334              		.loc 1 59 0 discriminator 3
 335 0290 F4A66AF2 		vmin.s32	q13, q13, q10
 336 0294 F42662F2 		vmin.s32	q9, q9, q10
 337 0298 F48668F2 		vmin.s32	q12, q12, q10
 338 029c F40660F2 		vmin.s32	q8, q8, q10
 339 02a0 2AC2F6F3 		vmovn.i32	d28, q13
 340 02a4 22D2F6F3 		vmovn.i32	d29, q9
 341 02a8 2822F6F3 		vmovn.i32	d18, q12
 342 02ac 2032F6F3 		vmovn.i32	d19, q8
 343 02b0 2C02F2F3 		vmovn.i16	d16, q14
 344 02b4 2212F2F3 		vmovn.i16	d17, q9
 345 02b8 100B47ED 		vstr	d16, [r7, #-64]
 346 02bc 0E1B47ED 		vstr	d17, [r7, #-56]
  56:../src/tensorflow_lite/third_party/cmsis/CMSIS/NN/Source/ActivationFunctions/arm_relu6_s8.c **** 
 347              		.loc 1 56 0 discriminator 3
 348 02c0 0C0B5EED 		vldr	d16, [lr, #-48]
 349 02c4 0A1B5EED 		vldr	d17, [lr, #-40]
 350 02c8 302AC8F2 		vmovl.s8 q9, d16
 351 02cc 310AC8F2 		vmovl.s8 q8, d17
 352 02d0 32AAD0F2 		vmovl.s16 q13, d18
 353 02d4 308AD0F2 		vmovl.s16 q12, d16
 354 02d8 332AD0F2 		vmovl.s16 q9, d19
 355 02dc 310AD0F2 		vmovl.s16 q8, d17
  58:../src/tensorflow_lite/third_party/cmsis/CMSIS/NN/Source/ActivationFunctions/arm_relu6_s8.c ****         data[i] = MIN(ip, 6);
 356              		.loc 1 58 0 discriminator 3
 357 02e0 E6A66AF2 		vmax.s32	q13, q13, q11
 358 02e4 E62662F2 		vmax.s32	q9, q9, q11
 359 02e8 E68668F2 		vmax.s32	q12, q12, q11
 360 02ec E60660F2 		vmax.s32	q8, q8, q11
 361              		.loc 1 59 0 discriminator 3
 362 02f0 F4A66AF2 		vmin.s32	q13, q13, q10
 363 02f4 F42662F2 		vmin.s32	q9, q9, q10
 364 02f8 F48668F2 		vmin.s32	q12, q12, q10
 365 02fc F40660F2 		vmin.s32	q8, q8, q10
 366 0300 2AC2F6F3 		vmovn.i32	d28, q13
 367 0304 22D2F6F3 		vmovn.i32	d29, q9
 368 0308 2822F6F3 		vmovn.i32	d18, q12
 369 030c 2032F6F3 		vmovn.i32	d19, q8
 370 0310 2C02F2F3 		vmovn.i16	d16, q14
 371 0314 2212F2F3 		vmovn.i16	d17, q9
 372 0318 0C0B47ED 		vstr	d16, [r7, #-48]
 373 031c 0A1B47ED 		vstr	d17, [r7, #-40]
 374 0320 C7FFFF1A 		bne	.L9
 375              		.loc 1 59 0 is_stmt 0
 376 0324 09E0A0E1 		mov	lr, r9
 377              	.L8:
  58:../src/tensorflow_lite/third_party/cmsis/CMSIS/NN/Source/ActivationFunctions/arm_relu6_s8.c ****         data[i] = MIN(ip, 6);
 378              		.loc 1 58 0 is_stmt 1
 379 0328 50A0C0F2 		vmov.i32	q13, #0  @ v4si
 380              		.loc 1 59 0
 381 032c 5680C0F2 		vmov.i32	q12, #6  @ v4si
 382              	.L13:
  56:../src/tensorflow_lite/third_party/cmsis/CMSIS/NN/Source/ActivationFunctions/arm_relu6_s8.c **** 
 383              		.loc 1 56 0
 384 0330 DF0A63F4 		vld1.64	{d16-d17}, [r3:64]
 385 0334 012082E2 		add	r2, r2, #1
 386 0338 020055E1 		cmp	r5, r2
 387 033c 103083E2 		add	r3, r3, #16
 388 0340 302AC8F2 		vmovl.s8 q9, d16
 389 0344 10E08EE2 		add	lr, lr, #16
 390 0348 310AC8F2 		vmovl.s8 q8, d17
 391 034c 326AD0F2 		vmovl.s16 q11, d18
 392 0350 304AD0F2 		vmovl.s16 q10, d16
 393 0354 332AD0F2 		vmovl.s16 q9, d19
 394 0358 310AD0F2 		vmovl.s16 q8, d17
  58:../src/tensorflow_lite/third_party/cmsis/CMSIS/NN/Source/ActivationFunctions/arm_relu6_s8.c ****         data[i] = MIN(ip, 6);
 395              		.loc 1 58 0
 396 035c EA6666F2 		vmax.s32	q11, q11, q13
 397 0360 EA2662F2 		vmax.s32	q9, q9, q13
 398 0364 EA4664F2 		vmax.s32	q10, q10, q13
 399 0368 EA0660F2 		vmax.s32	q8, q8, q13
 400              		.loc 1 59 0
 401 036c F86666F2 		vmin.s32	q11, q11, q12
 402 0370 F82662F2 		vmin.s32	q9, q9, q12
 403 0374 F84664F2 		vmin.s32	q10, q10, q12
 404 0378 F80660F2 		vmin.s32	q8, q8, q12
 405 037c 26C2F6F3 		vmovn.i32	d28, q11
 406 0380 22D2F6F3 		vmovn.i32	d29, q9
 407 0384 2422F6F3 		vmovn.i32	d18, q10
 408 0388 2032F6F3 		vmovn.i32	d19, q8
 409 038c 2C02F2F3 		vmovn.i16	d16, q14
 410 0390 2212F2F3 		vmovn.i16	d17, q9
 411 0394 040B4EED 		vstr	d16, [lr, #-16]
 412 0398 021B4EED 		vstr	d17, [lr, #-8]
 413 039c E3FFFF8A 		bhi	.L13
 414 03a0 060054E1 		cmp	r4, r6
 415 03a4 06C08CE0 		add	ip, ip, r6
 416 03a8 F083BD08 		popeq	{r4, r5, r6, r7, r8, r9, pc}
 417              	.L7:
 418              	.LVL66:
  56:../src/tensorflow_lite/third_party/cmsis/CMSIS/NN/Source/ActivationFunctions/arm_relu6_s8.c **** 
 419              		.loc 1 56 0
 420 03ac DC3090E1 		ldrsb	r3, [r0, ip]
 421              	.LVL67:
 422              	.LBE5:
  54:../src/tensorflow_lite/third_party/cmsis/CMSIS/NN/Source/ActivationFunctions/arm_relu6_s8.c ****     {
 423              		.loc 1 54 0
 424 03b0 01208CE2 		add	r2, ip, #1
 425              	.LVL68:
 426              	.LBB6:
  58:../src/tensorflow_lite/third_party/cmsis/CMSIS/NN/Source/ActivationFunctions/arm_relu6_s8.c ****         data[i] = MIN(ip, 6);
 427              		.loc 1 58 0
 428 03b4 C33FC3E1 		bic	r3, r3, r3, asr #31
 429              	.LVL69:
 430              		.loc 1 59 0
 431 03b8 060053E3 		cmp	r3, #6
 432 03bc 0630A0A3 		movge	r3, #6
 433              	.LVL70:
 434              	.LBE6:
  54:../src/tensorflow_lite/third_party/cmsis/CMSIS/NN/Source/ActivationFunctions/arm_relu6_s8.c ****     {
 435              		.loc 1 54 0
 436 03c0 010052E1 		cmp	r2, r1
 437              	.LBB7:
 438              		.loc 1 59 0
 439 03c4 0C30C0E7 		strb	r3, [r0, ip]
 440              	.LVL71:
 441              	.LBE7:
  54:../src/tensorflow_lite/third_party/cmsis/CMSIS/NN/Source/ActivationFunctions/arm_relu6_s8.c ****     {
 442              		.loc 1 54 0
 443 03c8 F083BDA8 		popge	{r4, r5, r6, r7, r8, r9, pc}
 444              	.LBB8:
  56:../src/tensorflow_lite/third_party/cmsis/CMSIS/NN/Source/ActivationFunctions/arm_relu6_s8.c **** 
 445              		.loc 1 56 0
 446 03cc D23090E1 		ldrsb	r3, [r0, r2]
 447              	.LVL72:
 448              	.LBE8:
  54:../src/tensorflow_lite/third_party/cmsis/CMSIS/NN/Source/ActivationFunctions/arm_relu6_s8.c ****     {
 449              		.loc 1 54 0
 450 03d0 02E08CE2 		add	lr, ip, #2
 451              	.LVL73:
 452              	.LBB9:
  58:../src/tensorflow_lite/third_party/cmsis/CMSIS/NN/Source/ActivationFunctions/arm_relu6_s8.c ****         data[i] = MIN(ip, 6);
 453              		.loc 1 58 0
 454 03d4 C33FC3E1 		bic	r3, r3, r3, asr #31
 455              	.LVL74:
 456              		.loc 1 59 0
 457 03d8 060053E3 		cmp	r3, #6
 458 03dc 0630A0A3 		movge	r3, #6
 459              	.LVL75:
 460              	.LBE9:
  54:../src/tensorflow_lite/third_party/cmsis/CMSIS/NN/Source/ActivationFunctions/arm_relu6_s8.c ****     {
 461              		.loc 1 54 0
 462 03e0 0E0051E1 		cmp	r1, lr
 463              	.LBB10:
 464              		.loc 1 59 0
 465 03e4 0230C0E7 		strb	r3, [r0, r2]
 466              	.LVL76:
 467              	.LBE10:
  54:../src/tensorflow_lite/third_party/cmsis/CMSIS/NN/Source/ActivationFunctions/arm_relu6_s8.c ****     {
 468              		.loc 1 54 0
 469 03e8 F083BDD8 		pople	{r4, r5, r6, r7, r8, r9, pc}
 470              	.LBB11:
  56:../src/tensorflow_lite/third_party/cmsis/CMSIS/NN/Source/ActivationFunctions/arm_relu6_s8.c **** 
 471              		.loc 1 56 0
 472 03ec DE3090E1 		ldrsb	r3, [r0, lr]
 473              	.LVL77:
 474              	.LBE11:
  54:../src/tensorflow_lite/third_party/cmsis/CMSIS/NN/Source/ActivationFunctions/arm_relu6_s8.c ****     {
 475              		.loc 1 54 0
 476 03f0 03208CE2 		add	r2, ip, #3
 477              	.LVL78:
 478              	.LBB12:
  58:../src/tensorflow_lite/third_party/cmsis/CMSIS/NN/Source/ActivationFunctions/arm_relu6_s8.c ****         data[i] = MIN(ip, 6);
 479              		.loc 1 58 0
 480 03f4 C33FC3E1 		bic	r3, r3, r3, asr #31
 481              	.LVL79:
 482              		.loc 1 59 0
 483 03f8 060053E3 		cmp	r3, #6
 484 03fc 0630A0A3 		movge	r3, #6
 485              	.LVL80:
 486              	.LBE12:
  54:../src/tensorflow_lite/third_party/cmsis/CMSIS/NN/Source/ActivationFunctions/arm_relu6_s8.c ****     {
 487              		.loc 1 54 0
 488 0400 020051E1 		cmp	r1, r2
 489              	.LBB13:
 490              		.loc 1 59 0
 491 0404 0E30C0E7 		strb	r3, [r0, lr]
 492              	.LVL81:
 493              	.LBE13:
  54:../src/tensorflow_lite/third_party/cmsis/CMSIS/NN/Source/ActivationFunctions/arm_relu6_s8.c ****     {
 494              		.loc 1 54 0
 495 0408 F083BDD8 		pople	{r4, r5, r6, r7, r8, r9, pc}
 496              	.LBB14:
  56:../src/tensorflow_lite/third_party/cmsis/CMSIS/NN/Source/ActivationFunctions/arm_relu6_s8.c **** 
 497              		.loc 1 56 0
 498 040c D23090E1 		ldrsb	r3, [r0, r2]
 499              	.LVL82:
 500              	.LBE14:
  54:../src/tensorflow_lite/third_party/cmsis/CMSIS/NN/Source/ActivationFunctions/arm_relu6_s8.c ****     {
 501              		.loc 1 54 0
 502 0410 04E08CE2 		add	lr, ip, #4
 503              	.LVL83:
 504              	.LBB15:
  58:../src/tensorflow_lite/third_party/cmsis/CMSIS/NN/Source/ActivationFunctions/arm_relu6_s8.c ****         data[i] = MIN(ip, 6);
 505              		.loc 1 58 0
 506 0414 C33FC3E1 		bic	r3, r3, r3, asr #31
 507              	.LVL84:
 508              		.loc 1 59 0
 509 0418 060053E3 		cmp	r3, #6
 510 041c 0630A0A3 		movge	r3, #6
 511              	.LVL85:
 512              	.LBE15:
  54:../src/tensorflow_lite/third_party/cmsis/CMSIS/NN/Source/ActivationFunctions/arm_relu6_s8.c ****     {
 513              		.loc 1 54 0
 514 0420 0E0051E1 		cmp	r1, lr
 515              	.LBB16:
 516              		.loc 1 59 0
 517 0424 0230C0E7 		strb	r3, [r0, r2]
 518              	.LVL86:
 519              	.LBE16:
  54:../src/tensorflow_lite/third_party/cmsis/CMSIS/NN/Source/ActivationFunctions/arm_relu6_s8.c ****     {
 520              		.loc 1 54 0
 521 0428 F083BDD8 		pople	{r4, r5, r6, r7, r8, r9, pc}
 522              	.LBB17:
  56:../src/tensorflow_lite/third_party/cmsis/CMSIS/NN/Source/ActivationFunctions/arm_relu6_s8.c **** 
 523              		.loc 1 56 0
 524 042c DE3090E1 		ldrsb	r3, [r0, lr]
 525              	.LVL87:
 526              	.LBE17:
  54:../src/tensorflow_lite/third_party/cmsis/CMSIS/NN/Source/ActivationFunctions/arm_relu6_s8.c ****     {
 527              		.loc 1 54 0
 528 0430 05208CE2 		add	r2, ip, #5
 529              	.LVL88:
 530              	.LBB18:
  58:../src/tensorflow_lite/third_party/cmsis/CMSIS/NN/Source/ActivationFunctions/arm_relu6_s8.c ****         data[i] = MIN(ip, 6);
 531              		.loc 1 58 0
 532 0434 C33FC3E1 		bic	r3, r3, r3, asr #31
 533              	.LVL89:
 534              		.loc 1 59 0
 535 0438 060053E3 		cmp	r3, #6
 536 043c 0630A0A3 		movge	r3, #6
 537              	.LVL90:
 538              	.LBE18:
  54:../src/tensorflow_lite/third_party/cmsis/CMSIS/NN/Source/ActivationFunctions/arm_relu6_s8.c ****     {
 539              		.loc 1 54 0
 540 0440 020051E1 		cmp	r1, r2
 541              	.LBB19:
 542              		.loc 1 59 0
 543 0444 0E30C0E7 		strb	r3, [r0, lr]
 544              	.LVL91:
 545              	.LBE19:
  54:../src/tensorflow_lite/third_party/cmsis/CMSIS/NN/Source/ActivationFunctions/arm_relu6_s8.c ****     {
 546              		.loc 1 54 0
 547 0448 F083BDD8 		pople	{r4, r5, r6, r7, r8, r9, pc}
 548              	.LBB20:
  56:../src/tensorflow_lite/third_party/cmsis/CMSIS/NN/Source/ActivationFunctions/arm_relu6_s8.c **** 
 549              		.loc 1 56 0
 550 044c D23090E1 		ldrsb	r3, [r0, r2]
 551              	.LVL92:
 552              	.LBE20:
  54:../src/tensorflow_lite/third_party/cmsis/CMSIS/NN/Source/ActivationFunctions/arm_relu6_s8.c ****     {
 553              		.loc 1 54 0
 554 0450 06E08CE2 		add	lr, ip, #6
 555              	.LVL93:
 556              	.LBB21:
  58:../src/tensorflow_lite/third_party/cmsis/CMSIS/NN/Source/ActivationFunctions/arm_relu6_s8.c ****         data[i] = MIN(ip, 6);
 557              		.loc 1 58 0
 558 0454 C33FC3E1 		bic	r3, r3, r3, asr #31
 559              	.LVL94:
 560              		.loc 1 59 0
 561 0458 060053E3 		cmp	r3, #6
 562 045c 0630A0A3 		movge	r3, #6
 563              	.LVL95:
 564              	.LBE21:
  54:../src/tensorflow_lite/third_party/cmsis/CMSIS/NN/Source/ActivationFunctions/arm_relu6_s8.c ****     {
 565              		.loc 1 54 0
 566 0460 0E0051E1 		cmp	r1, lr
 567              	.LBB22:
 568              		.loc 1 59 0
 569 0464 0230C0E7 		strb	r3, [r0, r2]
 570              	.LVL96:
 571              	.LBE22:
  54:../src/tensorflow_lite/third_party/cmsis/CMSIS/NN/Source/ActivationFunctions/arm_relu6_s8.c ****     {
 572              		.loc 1 54 0
 573 0468 F083BDD8 		pople	{r4, r5, r6, r7, r8, r9, pc}
 574              	.LBB23:
  56:../src/tensorflow_lite/third_party/cmsis/CMSIS/NN/Source/ActivationFunctions/arm_relu6_s8.c **** 
 575              		.loc 1 56 0
 576 046c DE3090E1 		ldrsb	r3, [r0, lr]
 577              	.LVL97:
 578              	.LBE23:
  54:../src/tensorflow_lite/third_party/cmsis/CMSIS/NN/Source/ActivationFunctions/arm_relu6_s8.c ****     {
 579              		.loc 1 54 0
 580 0470 07208CE2 		add	r2, ip, #7
 581              	.LVL98:
 582              	.LBB24:
  58:../src/tensorflow_lite/third_party/cmsis/CMSIS/NN/Source/ActivationFunctions/arm_relu6_s8.c ****         data[i] = MIN(ip, 6);
 583              		.loc 1 58 0
 584 0474 C33FC3E1 		bic	r3, r3, r3, asr #31
 585              	.LVL99:
 586              		.loc 1 59 0
 587 0478 060053E3 		cmp	r3, #6
 588 047c 0630A0A3 		movge	r3, #6
 589              	.LVL100:
 590              	.LBE24:
  54:../src/tensorflow_lite/third_party/cmsis/CMSIS/NN/Source/ActivationFunctions/arm_relu6_s8.c ****     {
 591              		.loc 1 54 0
 592 0480 020051E1 		cmp	r1, r2
 593              	.LBB25:
 594              		.loc 1 59 0
 595 0484 0E30C0E7 		strb	r3, [r0, lr]
 596              	.LVL101:
 597              	.LBE25:
  54:../src/tensorflow_lite/third_party/cmsis/CMSIS/NN/Source/ActivationFunctions/arm_relu6_s8.c ****     {
 598              		.loc 1 54 0
 599 0488 F083BDD8 		pople	{r4, r5, r6, r7, r8, r9, pc}
 600              	.LBB26:
  56:../src/tensorflow_lite/third_party/cmsis/CMSIS/NN/Source/ActivationFunctions/arm_relu6_s8.c **** 
 601              		.loc 1 56 0
 602 048c D23090E1 		ldrsb	r3, [r0, r2]
 603              	.LVL102:
 604              	.LBE26:
  54:../src/tensorflow_lite/third_party/cmsis/CMSIS/NN/Source/ActivationFunctions/arm_relu6_s8.c ****     {
 605              		.loc 1 54 0
 606 0490 08E08CE2 		add	lr, ip, #8
 607              	.LVL103:
 608              	.LBB27:
  58:../src/tensorflow_lite/third_party/cmsis/CMSIS/NN/Source/ActivationFunctions/arm_relu6_s8.c ****         data[i] = MIN(ip, 6);
 609              		.loc 1 58 0
 610 0494 C33FC3E1 		bic	r3, r3, r3, asr #31
 611              	.LVL104:
 612              		.loc 1 59 0
 613 0498 060053E3 		cmp	r3, #6
 614 049c 0630A0A3 		movge	r3, #6
 615              	.LVL105:
 616              	.LBE27:
  54:../src/tensorflow_lite/third_party/cmsis/CMSIS/NN/Source/ActivationFunctions/arm_relu6_s8.c ****     {
 617              		.loc 1 54 0
 618 04a0 0E0051E1 		cmp	r1, lr
 619              	.LBB28:
 620              		.loc 1 59 0
 621 04a4 0230C0E7 		strb	r3, [r0, r2]
 622              	.LVL106:
 623              	.LBE28:
  54:../src/tensorflow_lite/third_party/cmsis/CMSIS/NN/Source/ActivationFunctions/arm_relu6_s8.c ****     {
 624              		.loc 1 54 0
 625 04a8 F083BDD8 		pople	{r4, r5, r6, r7, r8, r9, pc}
 626              	.LBB29:
  56:../src/tensorflow_lite/third_party/cmsis/CMSIS/NN/Source/ActivationFunctions/arm_relu6_s8.c **** 
 627              		.loc 1 56 0
 628 04ac DE3090E1 		ldrsb	r3, [r0, lr]
 629              	.LVL107:
 630              	.LBE29:
  54:../src/tensorflow_lite/third_party/cmsis/CMSIS/NN/Source/ActivationFunctions/arm_relu6_s8.c ****     {
 631              		.loc 1 54 0
 632 04b0 09208CE2 		add	r2, ip, #9
 633              	.LVL108:
 634              	.LBB30:
  58:../src/tensorflow_lite/third_party/cmsis/CMSIS/NN/Source/ActivationFunctions/arm_relu6_s8.c ****         data[i] = MIN(ip, 6);
 635              		.loc 1 58 0
 636 04b4 C33FC3E1 		bic	r3, r3, r3, asr #31
 637              	.LVL109:
 638              		.loc 1 59 0
 639 04b8 060053E3 		cmp	r3, #6
 640 04bc 0630A0A3 		movge	r3, #6
 641              	.LVL110:
 642              	.LBE30:
  54:../src/tensorflow_lite/third_party/cmsis/CMSIS/NN/Source/ActivationFunctions/arm_relu6_s8.c ****     {
 643              		.loc 1 54 0
 644 04c0 020051E1 		cmp	r1, r2
 645              	.LBB31:
 646              		.loc 1 59 0
 647 04c4 0E30C0E7 		strb	r3, [r0, lr]
 648              	.LVL111:
 649              	.LBE31:
  54:../src/tensorflow_lite/third_party/cmsis/CMSIS/NN/Source/ActivationFunctions/arm_relu6_s8.c ****     {
 650              		.loc 1 54 0
 651 04c8 F083BDD8 		pople	{r4, r5, r6, r7, r8, r9, pc}
 652              	.LBB32:
  56:../src/tensorflow_lite/third_party/cmsis/CMSIS/NN/Source/ActivationFunctions/arm_relu6_s8.c **** 
 653              		.loc 1 56 0
 654 04cc D23090E1 		ldrsb	r3, [r0, r2]
 655              	.LVL112:
 656              	.LBE32:
  54:../src/tensorflow_lite/third_party/cmsis/CMSIS/NN/Source/ActivationFunctions/arm_relu6_s8.c ****     {
 657              		.loc 1 54 0
 658 04d0 0AE08CE2 		add	lr, ip, #10
 659              	.LVL113:
 660              	.LBB33:
  58:../src/tensorflow_lite/third_party/cmsis/CMSIS/NN/Source/ActivationFunctions/arm_relu6_s8.c ****         data[i] = MIN(ip, 6);
 661              		.loc 1 58 0
 662 04d4 C33FC3E1 		bic	r3, r3, r3, asr #31
 663              	.LVL114:
 664              		.loc 1 59 0
 665 04d8 060053E3 		cmp	r3, #6
 666 04dc 0630A0A3 		movge	r3, #6
 667              	.LVL115:
 668              	.LBE33:
  54:../src/tensorflow_lite/third_party/cmsis/CMSIS/NN/Source/ActivationFunctions/arm_relu6_s8.c ****     {
 669              		.loc 1 54 0
 670 04e0 0E0051E1 		cmp	r1, lr
 671              	.LBB34:
 672              		.loc 1 59 0
 673 04e4 0230C0E7 		strb	r3, [r0, r2]
 674              	.LVL116:
 675              	.LBE34:
  54:../src/tensorflow_lite/third_party/cmsis/CMSIS/NN/Source/ActivationFunctions/arm_relu6_s8.c ****     {
 676              		.loc 1 54 0
 677 04e8 F083BDD8 		pople	{r4, r5, r6, r7, r8, r9, pc}
 678              	.LBB35:
  56:../src/tensorflow_lite/third_party/cmsis/CMSIS/NN/Source/ActivationFunctions/arm_relu6_s8.c **** 
 679              		.loc 1 56 0
 680 04ec DE3090E1 		ldrsb	r3, [r0, lr]
 681              	.LVL117:
 682              	.LBE35:
  54:../src/tensorflow_lite/third_party/cmsis/CMSIS/NN/Source/ActivationFunctions/arm_relu6_s8.c ****     {
 683              		.loc 1 54 0
 684 04f0 0B208CE2 		add	r2, ip, #11
 685              	.LVL118:
 686              	.LBB36:
  58:../src/tensorflow_lite/third_party/cmsis/CMSIS/NN/Source/ActivationFunctions/arm_relu6_s8.c ****         data[i] = MIN(ip, 6);
 687              		.loc 1 58 0
 688 04f4 C33FC3E1 		bic	r3, r3, r3, asr #31
 689              	.LVL119:
 690              		.loc 1 59 0
 691 04f8 060053E3 		cmp	r3, #6
 692 04fc 0630A0A3 		movge	r3, #6
 693              	.LVL120:
 694              	.LBE36:
  54:../src/tensorflow_lite/third_party/cmsis/CMSIS/NN/Source/ActivationFunctions/arm_relu6_s8.c ****     {
 695              		.loc 1 54 0
 696 0500 020051E1 		cmp	r1, r2
 697              	.LBB37:
 698              		.loc 1 59 0
 699 0504 0E30C0E7 		strb	r3, [r0, lr]
 700              	.LVL121:
 701              	.LBE37:
  54:../src/tensorflow_lite/third_party/cmsis/CMSIS/NN/Source/ActivationFunctions/arm_relu6_s8.c ****     {
 702              		.loc 1 54 0
 703 0508 F083BDD8 		pople	{r4, r5, r6, r7, r8, r9, pc}
 704              	.LBB38:
  56:../src/tensorflow_lite/third_party/cmsis/CMSIS/NN/Source/ActivationFunctions/arm_relu6_s8.c **** 
 705              		.loc 1 56 0
 706 050c D23090E1 		ldrsb	r3, [r0, r2]
 707              	.LVL122:
 708              	.LBE38:
  54:../src/tensorflow_lite/third_party/cmsis/CMSIS/NN/Source/ActivationFunctions/arm_relu6_s8.c ****     {
 709              		.loc 1 54 0
 710 0510 0CE08CE2 		add	lr, ip, #12
 711              	.LVL123:
 712              	.LBB39:
  58:../src/tensorflow_lite/third_party/cmsis/CMSIS/NN/Source/ActivationFunctions/arm_relu6_s8.c ****         data[i] = MIN(ip, 6);
 713              		.loc 1 58 0
 714 0514 C33FC3E1 		bic	r3, r3, r3, asr #31
 715              	.LVL124:
 716              		.loc 1 59 0
 717 0518 060053E3 		cmp	r3, #6
 718 051c 0630A0A3 		movge	r3, #6
 719              	.LVL125:
 720              	.LBE39:
  54:../src/tensorflow_lite/third_party/cmsis/CMSIS/NN/Source/ActivationFunctions/arm_relu6_s8.c ****     {
 721              		.loc 1 54 0
 722 0520 0E0051E1 		cmp	r1, lr
 723              	.LBB40:
 724              		.loc 1 59 0
 725 0524 0230C0E7 		strb	r3, [r0, r2]
 726              	.LVL126:
 727              	.LBE40:
  54:../src/tensorflow_lite/third_party/cmsis/CMSIS/NN/Source/ActivationFunctions/arm_relu6_s8.c ****     {
 728              		.loc 1 54 0
 729 0528 F083BDD8 		pople	{r4, r5, r6, r7, r8, r9, pc}
 730              	.LBB41:
  56:../src/tensorflow_lite/third_party/cmsis/CMSIS/NN/Source/ActivationFunctions/arm_relu6_s8.c **** 
 731              		.loc 1 56 0
 732 052c DE3090E1 		ldrsb	r3, [r0, lr]
 733              	.LVL127:
 734              	.LBE41:
  54:../src/tensorflow_lite/third_party/cmsis/CMSIS/NN/Source/ActivationFunctions/arm_relu6_s8.c ****     {
 735              		.loc 1 54 0
 736 0530 0D208CE2 		add	r2, ip, #13
 737              	.LVL128:
 738              	.LBB42:
  58:../src/tensorflow_lite/third_party/cmsis/CMSIS/NN/Source/ActivationFunctions/arm_relu6_s8.c ****         data[i] = MIN(ip, 6);
 739              		.loc 1 58 0
 740 0534 C33FC3E1 		bic	r3, r3, r3, asr #31
 741              	.LVL129:
 742              		.loc 1 59 0
 743 0538 060053E3 		cmp	r3, #6
 744 053c 0630A0A3 		movge	r3, #6
 745              	.LVL130:
 746              	.LBE42:
  54:../src/tensorflow_lite/third_party/cmsis/CMSIS/NN/Source/ActivationFunctions/arm_relu6_s8.c ****     {
 747              		.loc 1 54 0
 748 0540 020051E1 		cmp	r1, r2
 749              	.LBB43:
 750              		.loc 1 59 0
 751 0544 0E30C0E7 		strb	r3, [r0, lr]
 752              	.LVL131:
 753              	.LBE43:
  54:../src/tensorflow_lite/third_party/cmsis/CMSIS/NN/Source/ActivationFunctions/arm_relu6_s8.c ****     {
 754              		.loc 1 54 0
 755 0548 F083BDD8 		pople	{r4, r5, r6, r7, r8, r9, pc}
 756              	.LBB44:
  56:../src/tensorflow_lite/third_party/cmsis/CMSIS/NN/Source/ActivationFunctions/arm_relu6_s8.c **** 
 757              		.loc 1 56 0
 758 054c D23090E1 		ldrsb	r3, [r0, r2]
 759              	.LVL132:
 760              	.LBE44:
  54:../src/tensorflow_lite/third_party/cmsis/CMSIS/NN/Source/ActivationFunctions/arm_relu6_s8.c ****     {
 761              		.loc 1 54 0
 762 0550 0EC08CE2 		add	ip, ip, #14
 763              	.LBB45:
  58:../src/tensorflow_lite/third_party/cmsis/CMSIS/NN/Source/ActivationFunctions/arm_relu6_s8.c ****         data[i] = MIN(ip, 6);
 764              		.loc 1 58 0
 765 0554 C33FC3E1 		bic	r3, r3, r3, asr #31
 766              	.LVL133:
 767              		.loc 1 59 0
 768 0558 060053E3 		cmp	r3, #6
 769 055c 0630A0A3 		movge	r3, #6
 770              	.LVL134:
 771              	.LBE45:
  54:../src/tensorflow_lite/third_party/cmsis/CMSIS/NN/Source/ActivationFunctions/arm_relu6_s8.c ****     {
 772              		.loc 1 54 0
 773 0560 0C0051E1 		cmp	r1, ip
 774              	.LBB46:
 775              		.loc 1 59 0
 776 0564 0230C0E7 		strb	r3, [r0, r2]
 777              	.LVL135:
 778              	.LBE46:
  54:../src/tensorflow_lite/third_party/cmsis/CMSIS/NN/Source/ActivationFunctions/arm_relu6_s8.c ****     {
 779              		.loc 1 54 0
 780 0568 0F0000DA 		ble	.L41
 781              	.LBB47:
  56:../src/tensorflow_lite/third_party/cmsis/CMSIS/NN/Source/ActivationFunctions/arm_relu6_s8.c **** 
 782              		.loc 1 56 0
 783 056c DC3090E1 		ldrsb	r3, [r0, ip]
 784              	.LVL136:
  58:../src/tensorflow_lite/third_party/cmsis/CMSIS/NN/Source/ActivationFunctions/arm_relu6_s8.c ****         data[i] = MIN(ip, 6);
 785              		.loc 1 58 0
 786 0570 C33FC3E1 		bic	r3, r3, r3, asr #31
 787              	.LVL137:
 788              		.loc 1 59 0
 789 0574 060053E3 		cmp	r3, #6
 790 0578 0630A0A3 		movge	r3, #6
 791              	.LVL138:
 792 057c 0C30C0E7 		strb	r3, [r0, ip]
 793              	.LVL139:
 794 0580 F083BDE8 		pop	{r4, r5, r6, r7, r8, r9, pc}
 795              	.LVL140:
 796              	.L29:
 797              		.cfi_def_cfa_offset 0
 798              		.cfi_restore 4
 799              		.cfi_restore 5
 800              		.cfi_restore 6
 801              		.cfi_restore 7
 802              		.cfi_restore 8
 803              		.cfi_restore 9
 804              		.cfi_restore 14
 805 0584 030051E1 		cmp	r1, r3
 806              	.LBE47:
  54:../src/tensorflow_lite/third_party/cmsis/CMSIS/NN/Source/ActivationFunctions/arm_relu6_s8.c ****     {
 807              		.loc 1 54 0
 808 0588 03C0A0E1 		mov	ip, r3
 809 058c 17FFFF1A 		bne	.L4
 810              	.L40:
 811 0590 1EFF2FE1 		bx	lr
 812              	.LVL141:
 813              	.L15:
 814 0594 03C0A0E1 		mov	ip, r3
 815 0598 14FFFFEA 		b	.L4
 816              	.LVL142:
 817              	.L30:
 818 059c 0FC0A0E3 		mov	ip, #15
 819 05a0 10FFFFEA 		b	.L5
 820              	.LVL143:
 821              	.L23:
 822 05a4 08C0A0E3 		mov	ip, #8
 823 05a8 0EFFFFEA 		b	.L5
 824              	.LVL144:
 825              	.L41:
 826              		.cfi_def_cfa_offset 28
 827              		.cfi_offset 4, -28
 828              		.cfi_offset 5, -24
 829              		.cfi_offset 6, -20
 830              		.cfi_offset 7, -16
 831              		.cfi_offset 8, -12
 832              		.cfi_offset 9, -8
 833              		.cfi_offset 14, -4
 834 05ac F083BDE8 		pop	{r4, r5, r6, r7, r8, r9, pc}
 835              	.LVL145:
 836              	.L31:
 837 05b0 03E0A0E1 		mov	lr, r3
 838 05b4 0020A0E3 		mov	r2, #0
 839 05b8 5AFFFFEA 		b	.L8
 840              		.cfi_endproc
 841              	.LFE122:
 843              		.text
 844              	.Letext0:
 845              		.file 2 "c:\\program files (x86)\\gnu tools arm embedded\\6 2017-q2-update\\arm-none-eabi\\include
 846              		.file 3 "c:\\program files (x86)\\gnu tools arm embedded\\6 2017-q2-update\\arm-none-eabi\\include
 847              		.file 4 "c:\\program files (x86)\\gnu tools arm embedded\\6 2017-q2-update\\arm-none-eabi\\include
 848              		.file 5 "c:\\program files (x86)\\gnu tools arm embedded\\6 2017-q2-update\\arm-none-eabi\\include
 849              		.file 6 "c:\\program files (x86)\\gnu tools arm embedded\\6 2017-q2-update\\lib\\gcc\\arm-none-eab
 850              		.file 7 "c:\\program files (x86)\\gnu tools arm embedded\\6 2017-q2-update\\arm-none-eabi\\include
 851              		.file 8 "c:\\program files (x86)\\gnu tools arm embedded\\6 2017-q2-update\\arm-none-eabi\\include
 852              		.file 9 "C:/Renesas/e2studio_2021_01_workspace_RZA2M_ANPR/ANPR_RZA2M_EBK/src/tensorflow_lite/third
 853              		.file 10 "C:/Renesas/e2studio_2021_01_workspace_RZA2M_ANPR/ANPR_RZA2M_EBK/src/tensorflow_lite/thir