   1              		.cpu cortex-a9
   2              		.eabi_attribute 28, 1
   3              		.eabi_attribute 20, 1
   4              		.eabi_attribute 21, 1
   5              		.eabi_attribute 23, 3
   6              		.eabi_attribute 24, 1
   7              		.eabi_attribute 25, 1
   8              		.eabi_attribute 26, 1
   9              		.eabi_attribute 30, 1
  10              		.eabi_attribute 34, 0
  11              		.eabi_attribute 18, 4
  12              		.file	"main.c"
  13              		.text
  14              	.Ltext0:
  15              		.cfi_sections	.debug_frame
  16              		.section	.text.os_main_task_t,"ax",%progbits
  17              		.align	2
  18              		.global	os_main_task_t
  19              		.syntax unified
  20              		.arm
  21              		.fpu neon
  23              	os_main_task_t:
  24              	.LFB1:
  25              		.file 1 "../src/user_prog/main.c"
   1:../src/user_prog/main.c **** /**************************************************************************************************
   2:../src/user_prog/main.c ****  * DISCLAIMER
   3:../src/user_prog/main.c ****  * This software is supplied by Renesas Electronics Corporation and is only intended for use with R
   4:../src/user_prog/main.c ****  * other uses are authorized. This software is owned by Renesas Electronics Corporation and is prot
   5:../src/user_prog/main.c ****  * applicable laws, including copyright laws.
   6:../src/user_prog/main.c ****  * THIS SOFTWARE IS PROVIDED "AS IS" AND RENESAS MAKES NO WARRANTIES REGARDING
   7:../src/user_prog/main.c ****  * THIS SOFTWARE, WHETHER EXPRESS, IMPLIED OR STATUTORY, INCLUDING BUT NOT LIMITED TO WARRANTIES OF
   8:../src/user_prog/main.c ****  * FITNESS FOR A PARTICULAR PURPOSE AND NON-INFRINGEMENT. ALL SUCH WARRANTIES ARE EXPRESSLY DISCLAI
   9:../src/user_prog/main.c ****  * EXTENT PERMITTED NOT PROHIBITED BY LAW, NEITHER RENESAS ELECTRONICS CORPORATION NOR ANY OF ITS A
  10:../src/user_prog/main.c ****  * SHALL BE LIABLE FOR ANY DIRECT, INDIRECT, SPECIAL, INCIDENTAL OR CONSEQUENTIAL DAMAGES FOR ANY R
  11:../src/user_prog/main.c ****  * THIS SOFTWARE, EVEN IF RENESAS OR ITS AFFILIATES HAVE BEEN ADVISED OF THE POSSIBILITY OF SUCH DA
  12:../src/user_prog/main.c ****  * Renesas reserves the right, without notice, to make changes to this software and to discontinue 
  13:../src/user_prog/main.c ****  * this software. By using this software, you agree to the additional terms and conditions found by
  14:../src/user_prog/main.c ****  * following link:
  15:../src/user_prog/main.c ****  * http://www.renesas.com/disclaimer
  16:../src/user_prog/main.c ****  *
  17:../src/user_prog/main.c ****  * Copyright (C) 2019 Renesas Electronics Corporation. All rights reserved.
  18:../src/user_prog/main.c ****  **************************************************************************************************
  19:../src/user_prog/main.c **** /*******************************************************************************
  20:../src/user_prog/main.c **** * File Name    : main.c
  21:../src/user_prog/main.c **** * Device(s)    : RZ/A2M
  22:../src/user_prog/main.c **** * Tool-Chain   : e2Studio Ver 7.4.0
  23:../src/user_prog/main.c **** *              : GCC ARM Embedded 5.4.1.20160919
  24:../src/user_prog/main.c **** * OS           : None
  25:../src/user_prog/main.c **** * H/W Platform : RZ/A2M Evaluation Board
  26:../src/user_prog/main.c **** * Description  : RZ/A2M Sample Program - Main
  27:../src/user_prog/main.c **** * Operation    :
  28:../src/user_prog/main.c **** * Limitations  :
  29:../src/user_prog/main.c **** *******************************************************************************/
  30:../src/user_prog/main.c **** 
  31:../src/user_prog/main.c **** 
  32:../src/user_prog/main.c **** /******************************************************************************
  33:../src/user_prog/main.c **** Includes   <System Includes> , "Project Includes"
  34:../src/user_prog/main.c **** ******************************************************************************/
  35:../src/user_prog/main.c **** #include "main.h"
  36:../src/user_prog/main.c **** #include "r_cpg_drv_api.h"
  37:../src/user_prog/main.c **** #include "r_os_abstraction_api.h"
  38:../src/user_prog/main.c **** 
  39:../src/user_prog/main.c **** /******************************************************************************
  40:../src/user_prog/main.c **** Imported global variables and functions (from other files)
  41:../src/user_prog/main.c **** ******************************************************************************/
  42:../src/user_prog/main.c **** extern void sample_main(void);
  43:../src/user_prog/main.c **** 
  44:../src/user_prog/main.c **** /******************************************************************************
  45:../src/user_prog/main.c **** Exported global variables and functions (to be accessed by other files)
  46:../src/user_prog/main.c **** ******************************************************************************/
  47:../src/user_prog/main.c **** int_t os_main_task_t(void);
  48:../src/user_prog/main.c **** 
  49:../src/user_prog/main.c **** /******************************************************************************
  50:../src/user_prog/main.c **** * Function Name: os_main_task_t
  51:../src/user_prog/main.c **** * Description  : FreeRTOS main task called by R_OS_KernelInit()
  52:../src/user_prog/main.c **** *              : FreeRTOS is now configured and R_OS_Abstraction calls
  53:../src/user_prog/main.c **** *              : can be used.
  54:../src/user_prog/main.c **** *              : From this point forward no longer use direct_xxx calls.
  55:../src/user_prog/main.c **** *              : For example
  56:../src/user_prog/main.c **** *              : in place of   direct_open("ostm2", O_RDWR);
  57:../src/user_prog/main.c **** *              : use           open(DEVICE_INDENTIFIER "ostm2", O_RDWR);
  58:../src/user_prog/main.c **** *              :
  59:../src/user_prog/main.c **** * Arguments    : none
  60:../src/user_prog/main.c **** * Return Value : 0
  61:../src/user_prog/main.c **** ******************************************************************************/
  62:../src/user_prog/main.c **** int_t os_main_task_t(void)
  63:../src/user_prog/main.c **** {
  26              		.loc 1 63 0
  27              		.cfi_startproc
  28              		@ Volatile: function does not return.
  29              		@ args = 0, pretend = 0, frame = 0
  30              		@ frame_needed = 0, uses_anonymous_args = 0
  31 0000 10402DE9 		push	{r4, lr}
  32              		.cfi_def_cfa_offset 8
  33              		.cfi_offset 4, -8
  34              		.cfi_offset 14, -4
  64:../src/user_prog/main.c ****     sample_main();
  35              		.loc 1 64 0
  36 0004 FEFFFFEB 		bl	sample_main
  37              	.LVL0:
  38              	.L2:
  39 0008 FEFFFFEA 		b	.L2
  40              		.cfi_endproc
  41              	.LFE1:
  43              		.section	.text.main,"ax",%progbits
  44              		.align	2
  45              		.global	main
  46              		.syntax unified
  47              		.arm
  48              		.fpu neon
  50              	main:
  51              	.LFB2:
  65:../src/user_prog/main.c **** 
  66:../src/user_prog/main.c ****     while(1)
  67:../src/user_prog/main.c ****     {
  68:../src/user_prog/main.c ****         /* Spin here forever..*/
  69:../src/user_prog/main.c ****         ;
  70:../src/user_prog/main.c ****     }
  71:../src/user_prog/main.c **** }
  72:../src/user_prog/main.c **** 
  73:../src/user_prog/main.c **** /******************************************************************************
  74:../src/user_prog/main.c **** * Function Name: main
  75:../src/user_prog/main.c **** * Description  : C Entry point
  76:../src/user_prog/main.c **** *              : opens and configures cpg driver
  77:../src/user_prog/main.c **** *              : starts the freertos kernel
  78:../src/user_prog/main.c **** * Arguments    : none
  79:../src/user_prog/main.c **** * Return Value : 0
  80:../src/user_prog/main.c **** ******************************************************************************/
  81:../src/user_prog/main.c **** int_t main(void)
  82:../src/user_prog/main.c **** {
  52              		.loc 1 82 0
  53              		.cfi_startproc
  54              		@ args = 0, pretend = 0, frame = 0
  55              		@ frame_needed = 0, uses_anonymous_args = 0
  56 0000 10402DE9 		push	{r4, lr}
  57              		.cfi_def_cfa_offset 8
  58              		.cfi_offset 4, -8
  59              		.cfi_offset 14, -4
  83:../src/user_prog/main.c ****     int_t cpg_handle;
  84:../src/user_prog/main.c ****     /* configure any drivers that are required before the Kernel initialises */
  85:../src/user_prog/main.c **** 
  86:../src/user_prog/main.c ****     /* Initialize the devlink layer */
  87:../src/user_prog/main.c ****     R_DEVLINK_Init();
  60              		.loc 1 87 0
  61 0004 FEFFFFEB 		bl	R_DEVLINK_Init
  62              	.LVL1:
  88:../src/user_prog/main.c **** 
  89:../src/user_prog/main.c ****     /* Initialize CPG */
  90:../src/user_prog/main.c ****     cpg_handle = direct_open("cpg", 0);
  63              		.loc 1 90 0
  64 0008 0010A0E3 		mov	r1, #0
  65 000c 000000E3 		movw	r0, #:lower16:.LC0
  66 0010 000040E3 		movt	r0, #:upper16:.LC0
  67 0014 FEFFFFEB 		bl	direct_open
  68              	.LVL2:
  91:../src/user_prog/main.c ****     if ( cpg_handle < 0 )
  69              		.loc 1 91 0
  70 0018 000050E3 		cmp	r0, #0
  71 001c 000000AA 		bge	.L5
  72              	.L6:
  73 0020 FEFFFFEA 		b	.L6
  74              	.L5:
  92:../src/user_prog/main.c ****     {
  93:../src/user_prog/main.c ****         /* stop execute */
  94:../src/user_prog/main.c ****         while(1)
  95:../src/user_prog/main.c ****         {
  96:../src/user_prog/main.c ****             /* Do Nothing */
  97:../src/user_prog/main.c ****             ;
  98:../src/user_prog/main.c ****         }
  99:../src/user_prog/main.c ****     }
 100:../src/user_prog/main.c **** 
 101:../src/user_prog/main.c ****     /* Can close handle if no need to change clock after here */
 102:../src/user_prog/main.c ****     direct_close(cpg_handle);
  75              		.loc 1 102 0
  76 0024 FEFFFFEB 		bl	direct_close
  77              	.LVL3:
 103:../src/user_prog/main.c **** 
 104:../src/user_prog/main.c ****     /* Start FreeRTOS */
 105:../src/user_prog/main.c ****     /* R_OS_InitKernel should never return */
 106:../src/user_prog/main.c ****     R_OS_KernelInit();
  78              		.loc 1 106 0
  79 0028 FEFFFFEB 		bl	R_OS_KernelInit
  80              	.LVL4:
 107:../src/user_prog/main.c **** 
 108:../src/user_prog/main.c **** }
  81              		.loc 1 108 0
  82 002c 0000A0E3 		mov	r0, #0
  83 0030 1080BDE8 		pop	{r4, pc}
  84              		.cfi_endproc
  85              	.LFE2:
  87              		.section	.rodata.main.str1.4,"aMS",%progbits,1
  88              		.align	2
  89              	.LC0:
  90 0000 63706700 		.ascii	"cpg\000"
  91              		.text
  92              	.Letext0:
  93              		.file 2 "c:\\program files (x86)\\gnu tools arm embedded\\6 2017-q2-update\\arm-none-eabi\\include
  94              		.file 3 "c:\\program files (x86)\\gnu tools arm embedded\\6 2017-q2-update\\arm-none-eabi\\include
  95              		.file 4 "c:\\program files (x86)\\gnu tools arm embedded\\6 2017-q2-update\\arm-none-eabi\\include
  96              		.file 5 "c:\\program files (x86)\\gnu tools arm embedded\\6 2017-q2-update\\arm-none-eabi\\include
  97              		.file 6 "c:\\program files (x86)\\gnu tools arm embedded\\6 2017-q2-update\\lib\\gcc\\arm-none-eab
  98              		.file 7 "c:\\program files (x86)\\gnu tools arm embedded\\6 2017-q2-update\\arm-none-eabi\\include
  99              		.file 8 "c:\\program files (x86)\\gnu tools arm embedded\\6 2017-q2-update\\arm-none-eabi\\include
 100              		.file 9 "C:/Renesas/e2studio_2021_01_workspace_RZA2M_ANPR/ANPR_RZA2M_GR_MANGO/generate/system/inc/
 101              		.file 10 "c:\\program files (x86)\\gnu tools arm embedded\\6 2017-q2-update\\arm-none-eabi\\includ
 102              		.file 11 "c:\\program files (x86)\\gnu tools arm embedded\\6 2017-q2-update\\arm-none-eabi\\includ
 103              		.file 12 "C:/Renesas/e2studio_2021_01_workspace_RZA2M_ANPR/ANPR_RZA2M_GR_MANGO/generate/system/inc
 104              		.file 13 "C:/Renesas/e2studio_2021_01_workspace_RZA2M_ANPR/ANPR_RZA2M_GR_MANGO/generate/drivers/r_
 105              		.file 14 "C:/Renesas/e2studio_2021_01_workspace_RZA2M_ANPR/ANPR_RZA2M_GR_MANGO/generate/os_abstrac
 106              		.file 15 "C:/Renesas/e2studio_2021_01_workspace_RZA2M_ANPR/ANPR_RZA2M_GR_MANGO/generate/system/inc
 107              		.file 16 "C:/Renesas/e2studio_2021_01_workspace_RZA2M_ANPR/ANPR_RZA2M_GR_MANGO/generate/os_abstrac