   1              		.cpu cortex-a9
   2              		.eabi_attribute 28, 1
   3              		.eabi_attribute 20, 1
   4              		.eabi_attribute 21, 1
   5              		.eabi_attribute 23, 3
   6              		.eabi_attribute 24, 1
   7              		.eabi_attribute 25, 1
   8              		.eabi_attribute 26, 1
   9              		.eabi_attribute 30, 2
  10              		.eabi_attribute 34, 0
  11              		.eabi_attribute 18, 4
  12              		.file	"draw.c"
  13              		.section	.text.DrawInit,"ax",%progbits
  14              		.align	2
  15              		.global	DrawInit
  16              		.syntax unified
  17              		.arm
  18              		.fpu neon
  20              	DrawInit:
  21              		@ args = 0, pretend = 0, frame = 0
  22              		@ frame_needed = 0, uses_anonymous_args = 0
  23 0000 010050E3 		cmp	r0, #1
  24 0004 70402DE9 		push	{r4, r5, r6, lr}
  25 0008 0000A003 		moveq	r0, #0
  26 000c 0400000A 		beq	.L2
  27 0010 020050E3 		cmp	r0, #2
  28 0014 0200000A 		beq	.L2
  29 0018 030050E3 		cmp	r0, #3
  30 001c 0000A013 		movne	r0, #0
  31 0020 0300A003 		moveq	r0, #3
  32              	.L2:
  33 0024 800160E0 		rsb	r0, r0, r0, lsl #3
  34 0028 006091E5 		ldr	r6, [r1]
  35 002c 002000E3 		movw	r2, #:lower16:.LANCHOR0
  36 0030 045091E5 		ldr	r5, [r1, #4]
  37 0034 0001A0E1 		lsl	r0, r0, #2
  38 0038 002040E3 		movt	r2, #:upper16:.LANCHOR0
  39 003c 0CE091E5 		ldr	lr, [r1, #12]
  40 0040 0040A0E3 		mov	r4, #0
  41 0044 003082E0 		add	r3, r2, r0
  42 0048 006082E7 		str	r6, [r2, r0]
  43 004c 10C091E5 		ldr	ip, [r1, #16]
  44 0050 140091E5 		ldr	r0, [r1, #20]
  45 0054 182091E5 		ldr	r2, [r1, #24]
  46 0058 045083E5 		str	r5, [r3, #4]
  47 005c 084083E5 		str	r4, [r3, #8]
  48 0060 0CE083E5 		str	lr, [r3, #12]
  49 0064 10C083E5 		str	ip, [r3, #16]
  50 0068 140083E5 		str	r0, [r3, #20]
  51 006c 182083E5 		str	r2, [r3, #24]
  52 0070 7080BDE8 		pop	{r4, r5, r6, pc}
  54              		.section	.text.DrawSwapBuffer,"ax",%progbits
  55              		.align	2
  56              		.global	DrawSwapBuffer
  57              		.syntax unified
  58              		.arm
  59              		.fpu neon
  61              	DrawSwapBuffer:
  62              		@ args = 0, pretend = 0, frame = 0
  63              		@ frame_needed = 0, uses_anonymous_args = 0
  64              		@ link register save eliminated.
  65 0000 010050E3 		cmp	r0, #1
  66 0004 0000A003 		moveq	r0, #0
  67 0008 0400000A 		beq	.L9
  68 000c 020050E3 		cmp	r0, #2
  69 0010 0200000A 		beq	.L9
  70 0014 030050E3 		cmp	r0, #3
  71 0018 0000A013 		movne	r0, #0
  72 001c 0300A003 		moveq	r0, #3
  73              	.L9:
  74 0020 800160E0 		rsb	r0, r0, r0, lsl #3
  75 0024 003000E3 		movw	r3, #:lower16:.LANCHOR0
  76 0028 003040E3 		movt	r3, #:upper16:.LANCHOR0
  77 002c 000183E0 		add	r0, r3, r0, lsl #2
  78 0030 083090E5 		ldr	r3, [r0, #8]
  79 0034 133F6FE1 		clz	r3, r3
  80 0038 A332A0E1 		lsr	r3, r3, #5
  81 003c 083080E5 		str	r3, [r0, #8]
  82 0040 1EFF2FE1 		bx	lr
  84              		.section	.text.DrawGetBackBuffer,"ax",%progbits
  85              		.align	2
  86              		.global	DrawGetBackBuffer
  87              		.syntax unified
  88              		.arm
  89              		.fpu neon
  91              	DrawGetBackBuffer:
  92              		@ args = 0, pretend = 0, frame = 0
  93              		@ frame_needed = 0, uses_anonymous_args = 0
  94              		@ link register save eliminated.
  95 0000 010050E3 		cmp	r0, #1
  96 0004 0000A003 		moveq	r0, #0
  97 0008 0400000A 		beq	.L14
  98 000c 020050E3 		cmp	r0, #2
  99 0010 0200000A 		beq	.L14
 100 0014 030050E3 		cmp	r0, #3
 101 0018 0000A013 		movne	r0, #0
 102 001c 0300A003 		moveq	r0, #3
 103              	.L14:
 104 0020 800160E0 		rsb	r0, r0, r0, lsl #3
 105 0024 003000E3 		movw	r3, #:lower16:.LANCHOR0
 106 0028 003040E3 		movt	r3, #:upper16:.LANCHOR0
 107 002c 0001A0E1 		lsl	r0, r0, #2
 108 0030 002083E0 		add	r2, r3, r0
 109 0034 003093E7 		ldr	r3, [r3, r0]
 110 0038 080092E5 		ldr	r0, [r2, #8]
 111 003c 041092E5 		ldr	r1, [r2, #4]
 112 0040 000050E3 		cmp	r0, #0
 113 0044 0100A011 		movne	r0, r1
 114 0048 0300A001 		moveq	r0, r3
 115 004c 1EFF2FE1 		bx	lr
 117              		.section	.text.DrawPoint,"ax",%progbits
 118              		.align	2
 119              		.global	DrawPoint
 120              		.syntax unified
 121              		.arm
 122              		.fpu neon
 124              	DrawPoint:
 125              		@ args = 0, pretend = 0, frame = 0
 126              		@ frame_needed = 0, uses_anonymous_args = 0
 127 0000 010050E3 		cmp	r0, #1
 128 0004 30402DE9 		push	{r4, r5, lr}
 129 0008 0000A003 		moveq	r0, #0
 130 000c 0400000A 		beq	.L20
 131 0010 020050E3 		cmp	r0, #2
 132 0014 0200000A 		beq	.L20
 133 0018 030050E3 		cmp	r0, #3
 134 001c 0000A013 		movne	r0, #0
 135 0020 0300A003 		moveq	r0, #3
 136              	.L20:
 137 0024 800160E0 		rsb	r0, r0, r0, lsl #3
 138 0028 00C000E3 		movw	ip, #:lower16:.LANCHOR0
 139 002c 00C040E3 		movt	ip, #:upper16:.LANCHOR0
 140 0030 0001A0E1 		lsl	r0, r0, #2
 141 0034 00E08CE0 		add	lr, ip, r0
 142 0038 00409CE7 		ldr	r4, [ip, r0]
 143 003c 14009EE5 		ldr	r0, [lr, #20]
 144 0040 08509EE5 		ldr	r5, [lr, #8]
 145 0044 04C09EE5 		ldr	ip, [lr, #4]
 146 0048 010050E1 		cmp	r0, r1
 147 004c 0000A083 		movhi	r0, #0
 148 0050 0100A093 		movls	r0, #1
 149 0054 000055E3 		cmp	r5, #0
 150 0058 04C0A001 		moveq	ip, r4
 151 005c A10F90E1 		orrs	r0, r0, r1, lsr #31
 152 0060 3080BD18 		popne	{r4, r5, pc}
 153 0064 18009EE5 		ldr	r0, [lr, #24]
 154 0068 020050E1 		cmp	r0, r2
 155 006c 0000A083 		movhi	r0, #0
 156 0070 0100A093 		movls	r0, #1
 157 0074 A20F90E1 		orrs	r0, r0, r2, lsr #31
 158 0078 3080BD18 		popne	{r4, r5, pc}
 159 007c 0CE09EE5 		ldr	lr, [lr, #12]
 160 0080 C100A0E1 		asr	r0, r1, #1
 161 0084 010011E3 		tst	r1, #1
 162 0088 0F300312 		andne	r3, r3, #15
 163 008c 9E0222E0 		mla	r2, lr, r2, r0
 164 0090 02108CE0 		add	r1, ip, r2
 165 0094 0220DCE7 		ldrb	r2, [ip, r2]	@ zero_extendqisi2
 166 0098 0F200202 		andeq	r2, r2, #15
 167 009c 0F20C213 		bicne	r2, r2, #15
 168 00a0 03328201 		orreq	r3, r2, r3, lsl #4
 169 00a4 02308311 		orrne	r3, r3, r2
 170 00a8 7330EF06 		uxtbeq	r3, r3
 171 00ac 0030C1E5 		strb	r3, [r1]
 172 00b0 3080BDE8 		pop	{r4, r5, pc}
 174              		.section	.text.DrawLine,"ax",%progbits
 175              		.align	2
 176              		.global	DrawLine
 177              		.syntax unified
 178              		.arm
 179              		.fpu neon
 181              	DrawLine:
 182              		@ args = 8, pretend = 0, frame = 16
 183              		@ frame_needed = 0, uses_anonymous_args = 0
 184 0000 F04F2DE9 		push	{r4, r5, r6, r7, r8, r9, r10, fp, lr}
 185 0004 14D04DE2 		sub	sp, sp, #20
 186 0008 38E09DE5 		ldr	lr, [sp, #56]
 187 000c 013053E0 		subs	r3, r3, r1
 188 0010 00306342 		rsbmi	r3, r3, #0
 189 0014 0060E043 		mvnmi	r6, #0
 190 0018 0160A053 		movpl	r6, #1
 191 001c 3C70DDE5 		ldrb	r7, [sp, #60]	@ zero_extendqisi2
 192 0020 02E04EE0 		sub	lr, lr, r2
 193 0024 00005EE3 		cmp	lr, #0
 194 0028 00C0E0B3 		mvnlt	ip, #0
 195 002c 01C0A0A3 		movge	ip, #1
 196 0030 00E06EB2 		rsblt	lr, lr, #0
 197 0034 010050E3 		cmp	r0, #1
 198 0038 00C08DE5 		str	ip, [sp]
 199 003c 0080A003 		moveq	r8, #0
 200 0040 0500000A 		beq	.L32
 201 0044 020050E3 		cmp	r0, #2
 202 0048 0080A001 		moveq	r8, r0
 203 004c 0200000A 		beq	.L32
 204 0050 030050E3 		cmp	r0, #3
 205 0054 0380A003 		moveq	r8, #3
 206 0058 0080A013 		movne	r8, #0
 207              	.L32:
 208 005c 888168E0 		rsb	r8, r8, r8, lsl #3
 209 0060 004000E3 		movw	r4, #:lower16:.LANCHOR0
 210 0064 004040E3 		movt	r4, #:upper16:.LANCHOR0
 211 0068 A15FA0E1 		lsr	r5, r1, #31
 212 006c 0881A0E1 		lsl	r8, r8, #2
 213 0070 08C084E0 		add	ip, r4, r8
 214 0074 08A094E7 		ldr	r10, [r4, r8]
 215 0078 000A9CE9 		ldmib	ip, {r9, fp}
 216 007c 14809CE5 		ldr	r8, [ip, #20]
 217 0080 00005BE3 		cmp	fp, #0
 218 0084 0A90A001 		moveq	r9, r10
 219 0088 010058E1 		cmp	r8, r1
 220 008c 0580A081 		movhi	r8, r5
 221 0090 01808593 		orrls	r8, r5, #1
 222 0094 000058E3 		cmp	r8, #0
 223 0098 1200001A 		bne	.L34
 224 009c 18809CE5 		ldr	r8, [ip, #24]
 225 00a0 020058E1 		cmp	r8, r2
 226 00a4 0080A083 		movhi	r8, #0
 227 00a8 0180A093 		movls	r8, #1
 228 00ac A28F98E1 		orrs	r8, r8, r2, lsr #31
 229 00b0 0C00001A 		bne	.L34
 230 00b4 0C809CE5 		ldr	r8, [ip, #12]
 231 00b8 C1C0A0E1 		asr	ip, r1, #1
 232 00bc 010011E3 		tst	r1, #1
 233 00c0 98C22CE0 		mla	ip, r8, r2, ip
 234 00c4 0C8089E0 		add	r8, r9, ip
 235 00c8 0CC0D9E7 		ldrb	ip, [r9, ip]	@ zero_extendqisi2
 236 00cc 0F900712 		andne	r9, r7, #15
 237 00d0 0FC00C02 		andeq	ip, ip, #15
 238 00d4 0FC0CC13 		bicne	ip, ip, #15
 239 00d8 07C28C01 		orreq	ip, ip, r7, lsl #4
 240 00dc 0CC08911 		orrne	ip, r9, ip
 241 00e0 7CC0EF06 		uxtbeq	ip, ip
 242 00e4 00C0C8E5 		strb	ip, [r8]
 243              	.L34:
 244 00e8 0E0053E1 		cmp	r3, lr
 245 00ec 360000DA 		ble	.L37
 246 00f0 0752A0E1 		lsl	r5, r7, #4
 247 00f4 020050E3 		cmp	r0, #2
 248 00f8 C3C0A0E1 		asr	ip, r3, #1
 249 00fc 7550AFE6 		sxtb	r5, r5
 250 0100 04508DE5 		str	r5, [sp, #4]
 251 0104 9B00000A 		beq	.L38
 252 0108 010050E3 		cmp	r0, #1
 253 010c F900000A 		beq	.L39
 254 0110 030050E3 		cmp	r0, #3
 255 0114 6B00000A 		beq	.L40
 256 0118 088094E5 		ldr	r8, [r4, #8]
 257 011c 0F9007E2 		and	r9, r7, #15
 258 0120 04B094E5 		ldr	fp, [r4, #4]
 259 0124 011086E0 		add	r1, r6, r1
 260 0128 007094E5 		ldr	r7, [r4]
 261 012c 0300A0E1 		mov	r0, r3
 262 0130 000058E3 		cmp	r8, #0
 263 0134 145094E5 		ldr	r5, [r4, #20]
 264 0138 18A094E5 		ldr	r10, [r4, #24]
 265 013c 0B70A011 		movne	r7, fp
 266 0140 0C4094E5 		ldr	r4, [r4, #12]
 267 0144 08908DE5 		str	r9, [sp, #8]
 268 0148 070000EA 		b	.L46
 269              	.L43:
 270 014c 04909DE5 		ldr	r9, [sp, #4]
 271 0150 0FB00BE2 		and	fp, fp, #15
 272 0154 0BB089E1 		orr	fp, r9, fp
 273 0158 7BB0EFE6 		uxtb	fp, fp
 274              	.L45:
 275 015c 08B0C7E7 		strb	fp, [r7, r8]
 276              	.L42:
 277 0160 010050E2 		subs	r0, r0, #1
 278 0164 061081E0 		add	r1, r1, r6
 279 0168 8000000A 		beq	.L29
 280              	.L46:
 281 016c 0EC08CE0 		add	ip, ip, lr
 282 0170 0C0053E1 		cmp	r3, ip
 283 0174 00809DB5 		ldrlt	r8, [sp]
 284 0178 03C04CB0 		sublt	ip, ip, r3
 285 017c 082082B0 		addlt	r2, r2, r8
 286 0180 010055E1 		cmp	r5, r1
 287 0184 0080A083 		movhi	r8, #0
 288 0188 0180A093 		movls	r8, #1
 289 018c A18F98E1 		orrs	r8, r8, r1, lsr #31
 290 0190 F2FFFF1A 		bne	.L42
 291 0194 02005AE1 		cmp	r10, r2
 292 0198 940208E0 		mul	r8, r4, r2
 293 019c 00B0A083 		movhi	fp, #0
 294 01a0 01B0A093 		movls	fp, #1
 295 01a4 A2BF9BE1 		orrs	fp, fp, r2, lsr #31
 296 01a8 C18088E0 		add	r8, r8, r1, asr #1
 297 01ac EBFFFF1A 		bne	.L42
 298 01b0 010011E3 		tst	r1, #1
 299 01b4 08B0D7E7 		ldrb	fp, [r7, r8]	@ zero_extendqisi2
 300 01b8 E3FFFF0A 		beq	.L43
 301 01bc 08909DE5 		ldr	r9, [sp, #8]
 302 01c0 0FB0CBE3 		bic	fp, fp, #15
 303 01c4 0BB089E1 		orr	fp, r9, fp
 304 01c8 E3FFFFEA 		b	.L45
 305              	.L37:
 306 01cc 00005EE3 		cmp	lr, #0
 307 01d0 CEC0A0E1 		asr	ip, lr, #1
 308 01d4 6500000A 		beq	.L29
 309 01d8 0782A0E1 		lsl	r8, r7, #4
 310 01dc 020050E3 		cmp	r0, #2
 311 01e0 7880AFE6 		sxtb	r8, r8
 312 01e4 04808DE5 		str	r8, [sp, #4]
 313 01e8 2201000A 		beq	.L65
 314 01ec 010050E3 		cmp	r0, #1
 315 01f0 ED00000A 		beq	.L66
 316 01f4 030050E3 		cmp	r0, #3
 317 01f8 8B00000A 		beq	.L67
 318 01fc 08A094E5 		ldr	r10, [r4, #8]
 319 0200 0F7007E2 		and	r7, r7, #15
 320 0204 00009DE5 		ldr	r0, [sp]
 321 0208 04B094E5 		ldr	fp, [r4, #4]
 322 020c 008094E5 		ldr	r8, [r4]
 323 0210 00005AE3 		cmp	r10, #0
 324 0214 0C708DE5 		str	r7, [sp, #12]
 325 0218 022080E0 		add	r2, r0, r2
 326 021c 147094E5 		ldr	r7, [r4, #20]
 327 0220 0B80A011 		movne	r8, fp
 328 0224 189094E5 		ldr	r9, [r4, #24]
 329 0228 0E00A0E1 		mov	r0, lr
 330 022c 0C4094E5 		ldr	r4, [r4, #12]
 331 0230 00B09DE5 		ldr	fp, [sp]
 332 0234 08608DE5 		str	r6, [sp, #8]
 333 0238 00408DE5 		str	r4, [sp]
 334 023c 070000EA 		b	.L73
 335              	.L70:
 336 0240 04409DE5 		ldr	r4, [sp, #4]
 337 0244 0FA00AE2 		and	r10, r10, #15
 338 0248 0AA084E1 		orr	r10, r4, r10
 339 024c 7AA0EFE6 		uxtb	r10, r10
 340              	.L72:
 341 0250 06A0C8E7 		strb	r10, [r8, r6]
 342              	.L69:
 343 0254 010050E2 		subs	r0, r0, #1
 344 0258 0B2082E0 		add	r2, r2, fp
 345 025c 4300000A 		beq	.L29
 346              	.L73:
 347 0260 03C08CE0 		add	ip, ip, r3
 348 0264 0C005EE1 		cmp	lr, ip
 349 0268 08509DB5 		ldrlt	r5, [sp, #8]
 350 026c 0EC04CB0 		sublt	ip, ip, lr
 351 0270 051081B0 		addlt	r1, r1, r5
 352 0274 A15FA0B1 		lsrlt	r5, r1, #31
 353 0278 070051E1 		cmp	r1, r7
 354 027c 0560A031 		movcc	r6, r5
 355 0280 01608523 		orrcs	r6, r5, #1
 356 0284 000056E3 		cmp	r6, #0
 357 0288 F1FFFF1A 		bne	.L69
 358 028c 00409DE5 		ldr	r4, [sp]
 359 0290 020059E1 		cmp	r9, r2
 360 0294 00A0A083 		movhi	r10, #0
 361 0298 01A0A093 		movls	r10, #1
 362 029c A2AF9AE1 		orrs	r10, r10, r2, lsr #31
 363 02a0 920406E0 		mul	r6, r2, r4
 364 02a4 C16086E0 		add	r6, r6, r1, asr #1
 365 02a8 E9FFFF1A 		bne	.L69
 366 02ac 010011E3 		tst	r1, #1
 367 02b0 06A0D8E7 		ldrb	r10, [r8, r6]	@ zero_extendqisi2
 368 02b4 E1FFFF0A 		beq	.L70
 369 02b8 0C409DE5 		ldr	r4, [sp, #12]
 370 02bc 0FA0CAE3 		bic	r10, r10, #15
 371 02c0 0AA084E1 		orr	r10, r4, r10
 372 02c4 E1FFFFEA 		b	.L72
 373              	.L40:
 374 02c8 5C8094E5 		ldr	r8, [r4, #92]
 375 02cc 0FB007E2 		and	fp, r7, #15
 376 02d0 589094E5 		ldr	r9, [r4, #88]
 377 02d4 011086E0 		add	r1, r6, r1
 378 02d8 547094E5 		ldr	r7, [r4, #84]
 379 02dc 0300A0E1 		mov	r0, r3
 380 02e0 685094E5 		ldr	r5, [r4, #104]
 381 02e4 000058E3 		cmp	r8, #0
 382 02e8 6CA094E5 		ldr	r10, [r4, #108]
 383 02ec 0970A011 		movne	r7, r9
 384 02f0 604094E5 		ldr	r4, [r4, #96]
 385 02f4 08B08DE5 		str	fp, [sp, #8]
 386              	.L52:
 387 02f8 0EC08CE0 		add	ip, ip, lr
 388 02fc 03005CE1 		cmp	ip, r3
 389 0300 00809DC5 		ldrgt	r8, [sp]
 390 0304 03C04CC0 		subgt	ip, ip, r3
 391 0308 082082C0 		addgt	r2, r2, r8
 392 030c 010055E1 		cmp	r5, r1
 393 0310 0080A083 		movhi	r8, #0
 394 0314 0180A093 		movls	r8, #1
 395 0318 A18F98E1 		orrs	r8, r8, r1, lsr #31
 396 031c 1000001A 		bne	.L49
 397 0320 02005AE1 		cmp	r10, r2
 398 0324 940208E0 		mul	r8, r4, r2
 399 0328 0090A083 		movhi	r9, #0
 400 032c 0190A093 		movls	r9, #1
 401 0330 A29F99E1 		orrs	r9, r9, r2, lsr #31
 402 0334 C18088E0 		add	r8, r8, r1, asr #1
 403 0338 0900001A 		bne	.L49
 404 033c 010011E3 		tst	r1, #1
 405 0340 0890D7E7 		ldrb	r9, [r7, r8]	@ zero_extendqisi2
 406 0344 04B09D05 		ldreq	fp, [sp, #4]
 407 0348 08B09D15 		ldrne	fp, [sp, #8]
 408 034c 0F900902 		andeq	r9, r9, #15
 409 0350 0F90C913 		bicne	r9, r9, #15
 410 0354 09908B01 		orreq	r9, fp, r9
 411 0358 7990EF06 		uxtbeq	r9, r9
 412 035c 09908B11 		orrne	r9, fp, r9
 413 0360 0890C7E7 		strb	r9, [r7, r8]
 414              	.L49:
 415 0364 010050E2 		subs	r0, r0, #1
 416 0368 061081E0 		add	r1, r1, r6
 417 036c E1FFFF1A 		bne	.L52
 418              	.L29:
 419 0370 14D08DE2 		add	sp, sp, #20
 420              		@ sp needed
 421 0374 F08FBDE8 		pop	{r4, r5, r6, r7, r8, r9, r10, fp, pc}
 422              	.L38:
 423 0378 408094E5 		ldr	r8, [r4, #64]
 424 037c 0F9007E2 		and	r9, r7, #15
 425 0380 3CB094E5 		ldr	fp, [r4, #60]
 426 0384 011086E0 		add	r1, r6, r1
 427 0388 387094E5 		ldr	r7, [r4, #56]
 428 038c 0300A0E1 		mov	r0, r3
 429 0390 000058E3 		cmp	r8, #0
 430 0394 4C5094E5 		ldr	r5, [r4, #76]
 431 0398 50A094E5 		ldr	r10, [r4, #80]
 432 039c 0B70A011 		movne	r7, fp
 433 03a0 444094E5 		ldr	r4, [r4, #68]
 434 03a4 08908DE5 		str	r9, [sp, #8]
 435 03a8 070000EA 		b	.L64
 436              	.L61:
 437 03ac 04909DE5 		ldr	r9, [sp, #4]
 438 03b0 0FB00BE2 		and	fp, fp, #15
 439 03b4 0BB089E1 		orr	fp, r9, fp
 440 03b8 7BB0EFE6 		uxtb	fp, fp
 441              	.L63:
 442 03bc 08B0C7E7 		strb	fp, [r7, r8]
 443              	.L60:
 444 03c0 010050E2 		subs	r0, r0, #1
 445 03c4 061081E0 		add	r1, r1, r6
 446 03c8 E8FFFF0A 		beq	.L29
 447              	.L64:
 448 03cc 0EC08CE0 		add	ip, ip, lr
 449 03d0 0C0053E1 		cmp	r3, ip
 450 03d4 00809DB5 		ldrlt	r8, [sp]
 451 03d8 03C04CB0 		sublt	ip, ip, r3
 452 03dc 082082B0 		addlt	r2, r2, r8
 453 03e0 010055E1 		cmp	r5, r1
 454 03e4 0080A083 		movhi	r8, #0
 455 03e8 0180A093 		movls	r8, #1
 456 03ec A18F98E1 		orrs	r8, r8, r1, lsr #31
 457 03f0 F2FFFF1A 		bne	.L60
 458 03f4 02005AE1 		cmp	r10, r2
 459 03f8 940208E0 		mul	r8, r4, r2
 460 03fc 00B0A083 		movhi	fp, #0
 461 0400 01B0A093 		movls	fp, #1
 462 0404 A2BF9BE1 		orrs	fp, fp, r2, lsr #31
 463 0408 C18088E0 		add	r8, r8, r1, asr #1
 464 040c EBFFFF1A 		bne	.L60
 465 0410 010011E3 		tst	r1, #1
 466 0414 08B0D7E7 		ldrb	fp, [r7, r8]	@ zero_extendqisi2
 467 0418 E3FFFF0A 		beq	.L61
 468 041c 08909DE5 		ldr	r9, [sp, #8]
 469 0420 0FB0CBE3 		bic	fp, fp, #15
 470 0424 0BB089E1 		orr	fp, r9, fp
 471 0428 E3FFFFEA 		b	.L63
 472              	.L67:
 473 042c 0F7007E2 		and	r7, r7, #15
 474 0430 5C8094E5 		ldr	r8, [r4, #92]
 475 0434 0C708DE5 		str	r7, [sp, #12]
 476 0438 547094E5 		ldr	r7, [r4, #84]
 477 043c 00009DE5 		ldr	r0, [sp]
 478 0440 000058E3 		cmp	r8, #0
 479 0444 589094E5 		ldr	r9, [r4, #88]
 480 0448 08708DE5 		str	r7, [sp, #8]
 481 044c 60A094E5 		ldr	r10, [r4, #96]
 482 0450 022080E0 		add	r2, r0, r2
 483 0454 687094E5 		ldr	r7, [r4, #104]
 484 0458 0E00A0E1 		mov	r0, lr
 485 045c 6CB094E5 		ldr	fp, [r4, #108]
 486 0460 08409DE5 		ldr	r4, [sp, #8]
 487 0464 00809DE5 		ldr	r8, [sp]
 488 0468 08608DE5 		str	r6, [sp, #8]
 489 046c 0490A001 		moveq	r9, r4
 490 0470 00A08DE5 		str	r10, [sp]
 491              	.L78:
 492 0474 03C08CE0 		add	ip, ip, r3
 493 0478 0C005EE1 		cmp	lr, ip
 494 047c 08409DB5 		ldrlt	r4, [sp, #8]
 495 0480 0EC04CB0 		sublt	ip, ip, lr
 496 0484 041081B0 		addlt	r1, r1, r4
 497 0488 A15FA0B1 		lsrlt	r5, r1, #31
 498 048c 070051E1 		cmp	r1, r7
 499 0490 0540A031 		movcc	r4, r5
 500 0494 01408523 		orrcs	r4, r5, #1
 501 0498 000054E3 		cmp	r4, #0
 502 049c 1100001A 		bne	.L75
 503 04a0 00409DE5 		ldr	r4, [sp]
 504 04a4 02005BE1 		cmp	fp, r2
 505 04a8 0060A083 		movhi	r6, #0
 506 04ac 0160A093 		movls	r6, #1
 507 04b0 A26F96E1 		orrs	r6, r6, r2, lsr #31
 508 04b4 920404E0 		mul	r4, r2, r4
 509 04b8 C14084E0 		add	r4, r4, r1, asr #1
 510 04bc 0900001A 		bne	.L75
 511 04c0 010011E3 		tst	r1, #1
 512 04c4 0460D9E7 		ldrb	r6, [r9, r4]	@ zero_extendqisi2
 513 04c8 04A09D05 		ldreq	r10, [sp, #4]
 514 04cc 0CA09D15 		ldrne	r10, [sp, #12]
 515 04d0 0F600602 		andeq	r6, r6, #15
 516 04d4 0F60C613 		bicne	r6, r6, #15
 517 04d8 06608A01 		orreq	r6, r10, r6
 518 04dc 7660EF06 		uxtbeq	r6, r6
 519 04e0 06608A11 		orrne	r6, r10, r6
 520 04e4 0460C9E7 		strb	r6, [r9, r4]
 521              	.L75:
 522 04e8 010050E2 		subs	r0, r0, #1
 523 04ec 082082E0 		add	r2, r2, r8
 524 04f0 DFFFFF1A 		bne	.L78
 525 04f4 9DFFFFEA 		b	.L29
 526              	.L39:
 527 04f8 088094E5 		ldr	r8, [r4, #8]
 528 04fc 0F9007E2 		and	r9, r7, #15
 529 0500 04B094E5 		ldr	fp, [r4, #4]
 530 0504 011086E0 		add	r1, r6, r1
 531 0508 007094E5 		ldr	r7, [r4]
 532 050c 0300A0E1 		mov	r0, r3
 533 0510 000058E3 		cmp	r8, #0
 534 0514 145094E5 		ldr	r5, [r4, #20]
 535 0518 18A094E5 		ldr	r10, [r4, #24]
 536 051c 0B70A011 		movne	r7, fp
 537 0520 0C4094E5 		ldr	r4, [r4, #12]
 538 0524 08908DE5 		str	r9, [sp, #8]
 539 0528 070000EA 		b	.L58
 540              	.L55:
 541 052c 04909DE5 		ldr	r9, [sp, #4]
 542 0530 0FB00BE2 		and	fp, fp, #15
 543 0534 0BB089E1 		orr	fp, r9, fp
 544 0538 7BB0EFE6 		uxtb	fp, fp
 545              	.L57:
 546 053c 08B0C7E7 		strb	fp, [r7, r8]
 547              	.L54:
 548 0540 010050E2 		subs	r0, r0, #1
 549 0544 061081E0 		add	r1, r1, r6
 550 0548 88FFFF0A 		beq	.L29
 551              	.L58:
 552 054c 0EC08CE0 		add	ip, ip, lr
 553 0550 0C0053E1 		cmp	r3, ip
 554 0554 00809DB5 		ldrlt	r8, [sp]
 555 0558 03C04CB0 		sublt	ip, ip, r3
 556 055c 082082B0 		addlt	r2, r2, r8
 557 0560 010055E1 		cmp	r5, r1
 558 0564 0080A083 		movhi	r8, #0
 559 0568 0180A093 		movls	r8, #1
 560 056c A18F98E1 		orrs	r8, r8, r1, lsr #31
 561 0570 F2FFFF1A 		bne	.L54
 562 0574 0A0052E1 		cmp	r2, r10
 563 0578 C180A0E1 		asr	r8, r1, #1
 564 057c 00B0A033 		movcc	fp, #0
 565 0580 01B0A023 		movcs	fp, #1
 566 0584 A2BF9BE1 		orrs	fp, fp, r2, lsr #31
 567 0588 928428E0 		mla	r8, r2, r4, r8
 568 058c EBFFFF1A 		bne	.L54
 569 0590 010011E3 		tst	r1, #1
 570 0594 08B0D7E7 		ldrb	fp, [r7, r8]	@ zero_extendqisi2
 571 0598 E3FFFF0A 		beq	.L55
 572 059c 08909DE5 		ldr	r9, [sp, #8]
 573 05a0 0FB0CBE3 		bic	fp, fp, #15
 574 05a4 09B08BE1 		orr	fp, fp, r9
 575 05a8 E3FFFFEA 		b	.L57
 576              	.L66:
 577 05ac 088094E5 		ldr	r8, [r4, #8]
 578 05b0 0F7007E2 		and	r7, r7, #15
 579 05b4 00009DE5 		ldr	r0, [sp]
 580 05b8 00B094E5 		ldr	fp, [r4]
 581 05bc 049094E5 		ldr	r9, [r4, #4]
 582 05c0 000058E3 		cmp	r8, #0
 583 05c4 0C708DE5 		str	r7, [sp, #12]
 584 05c8 022080E0 		add	r2, r0, r2
 585 05cc 147094E5 		ldr	r7, [r4, #20]
 586 05d0 0B90A001 		moveq	r9, fp
 587 05d4 18A094E5 		ldr	r10, [r4, #24]
 588 05d8 0E00A0E1 		mov	r0, lr
 589 05dc 0C4094E5 		ldr	r4, [r4, #12]
 590 05e0 00B09DE5 		ldr	fp, [sp]
 591 05e4 08608DE5 		str	r6, [sp, #8]
 592 05e8 00408DE5 		str	r4, [sp]
 593 05ec 070000EA 		b	.L84
 594              	.L81:
 595 05f0 04409DE5 		ldr	r4, [sp, #4]
 596 05f4 0F8008E2 		and	r8, r8, #15
 597 05f8 088084E1 		orr	r8, r4, r8
 598 05fc 7880EFE6 		uxtb	r8, r8
 599              	.L83:
 600 0600 0680C9E7 		strb	r8, [r9, r6]
 601              	.L80:
 602 0604 010050E2 		subs	r0, r0, #1
 603 0608 0B2082E0 		add	r2, r2, fp
 604 060c 57FFFF0A 		beq	.L29
 605              	.L84:
 606 0610 03C08CE0 		add	ip, ip, r3
 607 0614 0C005EE1 		cmp	lr, ip
 608 0618 08509DB5 		ldrlt	r5, [sp, #8]
 609 061c 0EC04CB0 		sublt	ip, ip, lr
 610 0620 051081B0 		addlt	r1, r1, r5
 611 0624 A15FA0B1 		lsrlt	r5, r1, #31
 612 0628 070051E1 		cmp	r1, r7
 613 062c 0560A031 		movcc	r6, r5
 614 0630 01608523 		orrcs	r6, r5, #1
 615 0634 000056E3 		cmp	r6, #0
 616 0638 F1FFFF1A 		bne	.L80
 617 063c 00409DE5 		ldr	r4, [sp]
 618 0640 02005AE1 		cmp	r10, r2
 619 0644 0080A083 		movhi	r8, #0
 620 0648 0180A093 		movls	r8, #1
 621 064c A28F98E1 		orrs	r8, r8, r2, lsr #31
 622 0650 920406E0 		mul	r6, r2, r4
 623 0654 C16086E0 		add	r6, r6, r1, asr #1
 624 0658 E9FFFF1A 		bne	.L80
 625 065c 010011E3 		tst	r1, #1
 626 0660 0680D9E7 		ldrb	r8, [r9, r6]	@ zero_extendqisi2
 627 0664 E1FFFF0A 		beq	.L81
 628 0668 0C409DE5 		ldr	r4, [sp, #12]
 629 066c 0F80C8E3 		bic	r8, r8, #15
 630 0670 088084E1 		orr	r8, r4, r8
 631 0674 E1FFFFEA 		b	.L83
 632              	.L65:
 633 0678 408094E5 		ldr	r8, [r4, #64]
 634 067c 0F7007E2 		and	r7, r7, #15
 635 0680 00009DE5 		ldr	r0, [sp]
 636 0684 38B094E5 		ldr	fp, [r4, #56]
 637 0688 3C9094E5 		ldr	r9, [r4, #60]
 638 068c 000058E3 		cmp	r8, #0
 639 0690 0C708DE5 		str	r7, [sp, #12]
 640 0694 022080E0 		add	r2, r0, r2
 641 0698 4C7094E5 		ldr	r7, [r4, #76]
 642 069c 0B90A001 		moveq	r9, fp
 643 06a0 50A094E5 		ldr	r10, [r4, #80]
 644 06a4 0E00A0E1 		mov	r0, lr
 645 06a8 444094E5 		ldr	r4, [r4, #68]
 646 06ac 00B09DE5 		ldr	fp, [sp]
 647 06b0 08608DE5 		str	r6, [sp, #8]
 648 06b4 00408DE5 		str	r4, [sp]
 649 06b8 070000EA 		b	.L90
 650              	.L87:
 651 06bc 04409DE5 		ldr	r4, [sp, #4]
 652 06c0 0F8008E2 		and	r8, r8, #15
 653 06c4 088084E1 		orr	r8, r4, r8
 654 06c8 7880EFE6 		uxtb	r8, r8
 655              	.L89:
 656 06cc 0680C9E7 		strb	r8, [r9, r6]
 657              	.L86:
 658 06d0 010050E2 		subs	r0, r0, #1
 659 06d4 0B2082E0 		add	r2, r2, fp
 660 06d8 24FFFF0A 		beq	.L29
 661              	.L90:
 662 06dc 03C08CE0 		add	ip, ip, r3
 663 06e0 0C005EE1 		cmp	lr, ip
 664 06e4 08509DB5 		ldrlt	r5, [sp, #8]
 665 06e8 0EC04CB0 		sublt	ip, ip, lr
 666 06ec 051081B0 		addlt	r1, r1, r5
 667 06f0 A15FA0B1 		lsrlt	r5, r1, #31
 668 06f4 070051E1 		cmp	r1, r7
 669 06f8 0560A031 		movcc	r6, r5
 670 06fc 01608523 		orrcs	r6, r5, #1
 671 0700 000056E3 		cmp	r6, #0
 672 0704 F1FFFF1A 		bne	.L86
 673 0708 00409DE5 		ldr	r4, [sp]
 674 070c 02005AE1 		cmp	r10, r2
 675 0710 0080A083 		movhi	r8, #0
 676 0714 0180A093 		movls	r8, #1
 677 0718 A28F98E1 		orrs	r8, r8, r2, lsr #31
 678 071c 920406E0 		mul	r6, r2, r4
 679 0720 C16086E0 		add	r6, r6, r1, asr #1
 680 0724 E9FFFF1A 		bne	.L86
 681 0728 010011E3 		tst	r1, #1
 682 072c 0680D9E7 		ldrb	r8, [r9, r6]	@ zero_extendqisi2
 683 0730 E1FFFF0A 		beq	.L87
 684 0734 0C409DE5 		ldr	r4, [sp, #12]
 685 0738 0F80C8E3 		bic	r8, r8, #15
 686 073c 088084E1 		orr	r8, r4, r8
 687 0740 E1FFFFEA 		b	.L89
 689              		.section	.text.DrawRect,"ax",%progbits
 690              		.align	2
 691              		.global	DrawRect
 692              		.syntax unified
 693              		.arm
 694              		.fpu neon
 696              	DrawRect:
 697              		@ args = 8, pretend = 0, frame = 0
 698              		@ frame_needed = 0, uses_anonymous_args = 0
 699 0000 F0432DE9 		push	{r4, r5, r6, r7, r8, r9, lr}
 700 0004 0CD04DE2 		sub	sp, sp, #12
 701 0008 28409DE5 		ldr	r4, [sp, #40]
 702 000c 0260A0E1 		mov	r6, r2
 703 0010 033081E0 		add	r3, r1, r3
 704 0014 0090A0E1 		mov	r9, r0
 705 0018 2C70DDE5 		ldrb	r7, [sp, #44]	@ zero_extendqisi2
 706 001c 015043E2 		sub	r5, r3, #1
 707 0020 044086E0 		add	r4, r6, r4
 708 0024 0530A0E1 		mov	r3, r5
 709 0028 014044E2 		sub	r4, r4, #1
 710 002c 0180A0E1 		mov	r8, r1
 711 0030 C0008DE8 		stm	sp, {r6, r7}
 712 0034 FEFFFFEB 		bl	DrawLine
 713 0038 0530A0E1 		mov	r3, r5
 714 003c 0510A0E1 		mov	r1, r5
 715 0040 0620A0E1 		mov	r2, r6
 716 0044 0900A0E1 		mov	r0, r9
 717 0048 04708DE5 		str	r7, [sp, #4]
 718 004c 00408DE5 		str	r4, [sp]
 719 0050 FEFFFFEB 		bl	DrawLine
 720 0054 0510A0E1 		mov	r1, r5
 721 0058 0420A0E1 		mov	r2, r4
 722 005c 0830A0E1 		mov	r3, r8
 723 0060 0900A0E1 		mov	r0, r9
 724 0064 00408DE5 		str	r4, [sp]
 725 0068 04708DE5 		str	r7, [sp, #4]
 726 006c FEFFFFEB 		bl	DrawLine
 727 0070 0420A0E1 		mov	r2, r4
 728 0074 2C708DE5 		str	r7, [sp, #44]
 729 0078 28608DE5 		str	r6, [sp, #40]
 730 007c 0900A0E1 		mov	r0, r9
 731 0080 0830A0E1 		mov	r3, r8
 732 0084 0810A0E1 		mov	r1, r8
 733 0088 0CD08DE2 		add	sp, sp, #12
 734              		@ sp needed
 735 008c F043BDE8 		pop	{r4, r5, r6, r7, r8, r9, lr}
 736 0090 FEFFFFEA 		b	DrawLine
 738              		.section	.text.DrawRectFill,"ax",%progbits
 739              		.align	2
 740              		.global	DrawRectFill
 741              		.syntax unified
 742              		.arm
 743              		.fpu neon
 745              	DrawRectFill:
 746              		@ args = 8, pretend = 0, frame = 88
 747              		@ frame_needed = 0, uses_anonymous_args = 0
 748 0000 F04F2DE9 		push	{r4, r5, r6, r7, r8, r9, r10, fp, lr}
 749 0004 5CD04DE2 		sub	sp, sp, #92
 750 0008 80E09DE5 		ldr	lr, [sp, #128]
 751 000c 84C0DDE5 		ldrb	ip, [sp, #132]	@ zero_extendqisi2
 752 0010 00005EE3 		cmp	lr, #0
 753 0014 9D0000DA 		ble	.L122
 754 0018 0C62A0E1 		lsl	r6, ip, #4
 755 001c 007000E3 		movw	r7, #:lower16:.LANCHOR0
 756 0020 007040E3 		movt	r7, #:upper16:.LANCHOR0
 757 0024 7660AFE6 		sxtb	r6, r6
 758 0028 089097E5 		ldr	r9, [r7, #8]
 759 002c 300097E8 		ldm	r7, {r4, r5}
 760 0030 0FC00CE2 		and	ip, ip, #15
 761 0034 04608DE5 		str	r6, [sp, #4]
 762 0038 A16FA0E1 		lsr	r6, r1, #31
 763 003c 000053E3 		cmp	r3, #0
 764 0040 08C08DE5 		str	ip, [sp, #8]
 765 0044 0C608DE5 		str	r6, [sp, #12]
 766 0048 C160A0E1 		asr	r6, r1, #1
 767 004c 0CC097E5 		ldr	ip, [r7, #12]
 768 0050 003063B2 		rsblt	r3, r3, #0
 769 0054 20608DE5 		str	r6, [sp, #32]
 770 0058 0060E0B3 		mvnlt	r6, #0
 771 005c 40A097E5 		ldr	r10, [r7, #64]
 772 0060 0160A0A3 		movge	r6, #1
 773 0064 000059E3 		cmp	r9, #0
 774 0068 28C08DE5 		str	ip, [sp, #40]
 775 006c 0490A001 		moveq	r9, r4
 776 0070 0590A011 		movne	r9, r5
 777 0074 384097E5 		ldr	r4, [r7, #56]
 778 0078 00005AE3 		cmp	r10, #0
 779 007c 5C5097E5 		ldr	r5, [r7, #92]
 780 0080 02E08EE0 		add	lr, lr, r2
 781 0084 54C097E5 		ldr	ip, [r7, #84]
 782 0088 C380A0E1 		asr	r8, r3, #1
 783 008c 3CB097E5 		ldr	fp, [r7, #60]
 784 0090 04B0A001 		moveq	fp, r4
 785 0094 000055E3 		cmp	r5, #0
 786 0098 10E08DE5 		str	lr, [sp, #16]
 787 009c 58E097E5 		ldr	lr, [r7, #88]
 788 00a0 0CE0A001 		moveq	lr, ip
 789 00a4 4CC097E5 		ldr	ip, [r7, #76]
 790 00a8 1C808DE5 		str	r8, [sp, #28]
 791 00ac 184097E5 		ldr	r4, [r7, #24]
 792 00b0 44C08DE5 		str	ip, [sp, #68]
 793 00b4 01C001E2 		and	ip, r1, #1
 794 00b8 24C08DE5 		str	ip, [sp, #36]
 795 00bc 50C097E5 		ldr	ip, [r7, #80]
 796 00c0 148097E5 		ldr	r8, [r7, #20]
 797 00c4 38B08DE5 		str	fp, [sp, #56]
 798 00c8 3CC08DE5 		str	ip, [sp, #60]
 799 00cc 44C097E5 		ldr	ip, [r7, #68]
 800 00d0 48E08DE5 		str	lr, [sp, #72]
 801 00d4 40C08DE5 		str	ip, [sp, #64]
 802 00d8 68C097E5 		ldr	ip, [r7, #104]
 803 00dc 54C08DE5 		str	ip, [sp, #84]
 804 00e0 6CC097E5 		ldr	ip, [r7, #108]
 805 00e4 4CC08DE5 		str	ip, [sp, #76]
 806 00e8 60C097E5 		ldr	ip, [r7, #96]
 807 00ec 18808DE5 		str	r8, [sp, #24]
 808 00f0 00108DE5 		str	r1, [sp]
 809 00f4 50C08DE5 		str	ip, [sp, #80]
 810 00f8 14408DE5 		str	r4, [sp, #20]
 811              	.L130:
 812 00fc 010050E3 		cmp	r0, #1
 813 0100 02C0A0E1 		mov	ip, r2
 814 0104 0040A003 		moveq	r4, #0
 815 0108 0500000A 		beq	.L124
 816 010c 020050E3 		cmp	r0, #2
 817 0110 0040A001 		moveq	r4, r0
 818 0114 0200000A 		beq	.L124
 819 0118 030050E3 		cmp	r0, #3
 820 011c 0340A003 		moveq	r4, #3
 821 0120 0040A013 		movne	r4, #0
 822              	.L124:
 823 0124 844164E0 		rsb	r4, r4, r4, lsl #3
 824 0128 0C109DE5 		ldr	r1, [sp, #12]
 825 012c 00809DE5 		ldr	r8, [sp]
 826 0130 04E187E0 		add	lr, r7, r4, lsl #2
 827 0134 04A197E7 		ldr	r10, [r7, r4, lsl #2]
 828 0138 20089EE9 		ldmib	lr, {r5, fp}
 829 013c 14409EE5 		ldr	r4, [lr, #20]
 830 0140 080054E1 		cmp	r4, r8
 831 0144 01108193 		orrls	r1, r1, #1
 832 0148 00005BE3 		cmp	fp, #0
 833 014c 0A50A001 		moveq	r5, r10
 834 0150 000051E3 		cmp	r1, #0
 835 0154 0140A0E1 		mov	r4, r1
 836 0158 1400001A 		bne	.L126
 837 015c 18409EE5 		ldr	r4, [lr, #24]
 838 0160 020054E1 		cmp	r4, r2
 839 0164 0040A083 		movhi	r4, #0
 840 0168 0140A093 		movls	r4, #1
 841 016c A21F94E1 		orrs	r1, r4, r2, lsr #31
 842 0170 0E00001A 		bne	.L126
 843 0174 24109DE5 		ldr	r1, [sp, #36]
 844 0178 0CE09EE5 		ldr	lr, [lr, #12]
 845 017c 000051E3 		cmp	r1, #0
 846 0180 20109DE5 		ldr	r1, [sp, #32]
 847 0184 9E122EE0 		mla	lr, lr, r2, r1
 848 0188 04109D05 		ldreq	r1, [sp, #4]
 849 018c 08109D15 		ldrne	r1, [sp, #8]
 850 0190 0E4085E0 		add	r4, r5, lr
 851 0194 0EE0D5E7 		ldrb	lr, [r5, lr]	@ zero_extendqisi2
 852 0198 0FE00E02 		andeq	lr, lr, #15
 853 019c 0FE0CE13 		bicne	lr, lr, #15
 854 01a0 0EE08101 		orreq	lr, r1, lr
 855 01a4 0EE08111 		orrne	lr, r1, lr
 856 01a8 7EE0EF06 		uxtbeq	lr, lr
 857 01ac 00E0C4E5 		strb	lr, [r4]
 858              	.L126:
 859 01b0 000053E3 		cmp	r3, #0
 860 01b4 3100000A 		beq	.L141
 861 01b8 00109DE5 		ldr	r1, [sp]
 862 01bc 020050E3 		cmp	r0, #2
 863 01c0 0350A0E1 		mov	r5, r3
 864 01c4 1CB09DE5 		ldr	fp, [sp, #28]
 865 01c8 06E081E0 		add	lr, r1, r6
 866 01cc 3100000A 		beq	.L132
 867 01d0 010050E3 		cmp	r0, #1
 868 01d4 8000000A 		beq	.L133
 869 01d8 030050E3 		cmp	r0, #3
 870 01dc 5300000A 		beq	.L134
 871 01e0 2C208DE5 		str	r2, [sp, #44]
 872 01e4 14109DE5 		ldr	r1, [sp, #20]
 873 01e8 18809DE5 		ldr	r8, [sp, #24]
 874 01ec 28209DE5 		ldr	r2, [sp, #40]
 875 01f0 30008DE5 		str	r0, [sp, #48]
 876 01f4 070000EA 		b	.L140
 877              	.L137:
 878 01f8 04009DE5 		ldr	r0, [sp, #4]
 879 01fc 0FA00AE2 		and	r10, r10, #15
 880 0200 0AA080E1 		orr	r10, r0, r10
 881 0204 7AA0EFE6 		uxtb	r10, r10
 882              	.L139:
 883 0208 04A0C9E7 		strb	r10, [r9, r4]
 884              	.L136:
 885 020c 015055E2 		subs	r5, r5, #1
 886 0210 06E08EE0 		add	lr, lr, r6
 887 0214 1500000A 		beq	.L172
 888              	.L140:
 889 0218 0B0053E1 		cmp	r3, fp
 890 021c 03B04BB0 		sublt	fp, fp, r3
 891 0220 01C08CB2 		addlt	ip, ip, #1
 892 0224 0E0058E1 		cmp	r8, lr
 893 0228 0040A083 		movhi	r4, #0
 894 022c 0140A093 		movls	r4, #1
 895 0230 AE4F94E1 		orrs	r4, r4, lr, lsr #31
 896 0234 F4FFFF1A 		bne	.L136
 897 0238 0C0051E1 		cmp	r1, ip
 898 023c 9C0204E0 		mul	r4, ip, r2
 899 0240 00A0A083 		movhi	r10, #0
 900 0244 01A0A093 		movls	r10, #1
 901 0248 ACAF9AE1 		orrs	r10, r10, ip, lsr #31
 902 024c CE4084E0 		add	r4, r4, lr, asr #1
 903 0250 EDFFFF1A 		bne	.L136
 904 0254 01001EE3 		tst	lr, #1
 905 0258 04A0D9E7 		ldrb	r10, [r9, r4]	@ zero_extendqisi2
 906 025c E5FFFF0A 		beq	.L137
 907 0260 08009DE5 		ldr	r0, [sp, #8]
 908 0264 0FA0CAE3 		bic	r10, r10, #15
 909 0268 0AA080E1 		orr	r10, r0, r10
 910 026c E5FFFFEA 		b	.L139
 911              	.L172:
 912 0270 2C209DE5 		ldr	r2, [sp, #44]
 913 0274 30009DE5 		ldr	r0, [sp, #48]
 914 0278 14108DE5 		str	r1, [sp, #20]
 915 027c 18808DE5 		str	r8, [sp, #24]
 916              	.L141:
 917 0280 10109DE5 		ldr	r1, [sp, #16]
 918 0284 012082E2 		add	r2, r2, #1
 919 0288 010052E1 		cmp	r2, r1
 920 028c 9AFFFF1A 		bne	.L130
 921              	.L122:
 922 0290 5CD08DE2 		add	sp, sp, #92
 923              		@ sp needed
 924 0294 F08FBDE8 		pop	{r4, r5, r6, r7, r8, r9, r10, fp, pc}
 925              	.L132:
 926 0298 2C208DE5 		str	r2, [sp, #44]
 927 029c 30008DE5 		str	r0, [sp, #48]
 928 02a0 34708DE5 		str	r7, [sp, #52]
 929 02a4 44A09DE5 		ldr	r10, [sp, #68]
 930 02a8 38209DE5 		ldr	r2, [sp, #56]
 931 02ac 3C009DE5 		ldr	r0, [sp, #60]
 932 02b0 40709DE5 		ldr	r7, [sp, #64]
 933 02b4 070000EA 		b	.L158
 934              	.L155:
 935 02b8 04809DE5 		ldr	r8, [sp, #4]
 936 02bc 0F4004E2 		and	r4, r4, #15
 937 02c0 044088E1 		orr	r4, r8, r4
 938 02c4 7440EFE6 		uxtb	r4, r4
 939              	.L157:
 940 02c8 0140C2E7 		strb	r4, [r2, r1]
 941              	.L154:
 942 02cc 015055E2 		subs	r5, r5, #1
 943 02d0 06E08EE0 		add	lr, lr, r6
 944 02d4 3800000A 		beq	.L171
 945              	.L158:
 946 02d8 0B0053E1 		cmp	r3, fp
 947 02dc 03B04BB0 		sublt	fp, fp, r3
 948 02e0 01C08CB2 		addlt	ip, ip, #1
 949 02e4 0E005AE1 		cmp	r10, lr
 950 02e8 0010A083 		movhi	r1, #0
 951 02ec 0110A093 		movls	r1, #1
 952 02f0 AE1F91E1 		orrs	r1, r1, lr, lsr #31
 953 02f4 F4FFFF1A 		bne	.L154
 954 02f8 0C0050E1 		cmp	r0, ip
 955 02fc 970C01E0 		mul	r1, r7, ip
 956 0300 0040A083 		movhi	r4, #0
 957 0304 0140A093 		movls	r4, #1
 958 0308 AC4F94E1 		orrs	r4, r4, ip, lsr #31
 959 030c CE1081E0 		add	r1, r1, lr, asr #1
 960 0310 EDFFFF1A 		bne	.L154
 961 0314 01001EE3 		tst	lr, #1
 962 0318 0140D2E7 		ldrb	r4, [r2, r1]	@ zero_extendqisi2
 963 031c E5FFFF0A 		beq	.L155
 964 0320 08809DE5 		ldr	r8, [sp, #8]
 965 0324 0F40C4E3 		bic	r4, r4, #15
 966 0328 044088E1 		orr	r4, r8, r4
 967 032c E5FFFFEA 		b	.L157
 968              	.L134:
 969 0330 2C208DE5 		str	r2, [sp, #44]
 970 0334 30008DE5 		str	r0, [sp, #48]
 971 0338 34708DE5 		str	r7, [sp, #52]
 972 033c 54A09DE5 		ldr	r10, [sp, #84]
 973 0340 48209DE5 		ldr	r2, [sp, #72]
 974 0344 4C009DE5 		ldr	r0, [sp, #76]
 975 0348 50709DE5 		ldr	r7, [sp, #80]
 976              	.L146:
 977 034c 03005BE1 		cmp	fp, r3
 978 0350 03B04BC0 		subgt	fp, fp, r3
 979 0354 01C08CC2 		addgt	ip, ip, #1
 980 0358 0E005AE1 		cmp	r10, lr
 981 035c 0010A083 		movhi	r1, #0
 982 0360 0110A093 		movls	r1, #1
 983 0364 AE1F91E1 		orrs	r1, r1, lr, lsr #31
 984 0368 1000001A 		bne	.L143
 985 036c 0C0050E1 		cmp	r0, ip
 986 0370 970C01E0 		mul	r1, r7, ip
 987 0374 0040A083 		movhi	r4, #0
 988 0378 0140A093 		movls	r4, #1
 989 037c AC4F94E1 		orrs	r4, r4, ip, lsr #31
 990 0380 CE1081E0 		add	r1, r1, lr, asr #1
 991 0384 0900001A 		bne	.L143
 992 0388 01001EE3 		tst	lr, #1
 993 038c 0140D2E7 		ldrb	r4, [r2, r1]	@ zero_extendqisi2
 994 0390 04809D05 		ldreq	r8, [sp, #4]
 995 0394 08809D15 		ldrne	r8, [sp, #8]
 996 0398 0F400402 		andeq	r4, r4, #15
 997 039c 0F40C413 		bicne	r4, r4, #15
 998 03a0 04408801 		orreq	r4, r8, r4
 999 03a4 7440EF06 		uxtbeq	r4, r4
 1000 03a8 04408811 		orrne	r4, r8, r4
 1001 03ac 0140C2E7 		strb	r4, [r2, r1]
 1002              	.L143:
 1003 03b0 015055E2 		subs	r5, r5, #1
 1004 03b4 06E08EE0 		add	lr, lr, r6
 1005 03b8 E3FFFF1A 		bne	.L146
 1006              	.L171:
 1007 03bc 2C209DE5 		ldr	r2, [sp, #44]
 1008 03c0 10109DE5 		ldr	r1, [sp, #16]
 1009 03c4 30009DE5 		ldr	r0, [sp, #48]
 1010 03c8 012082E2 		add	r2, r2, #1
 1011 03cc 34709DE5 		ldr	r7, [sp, #52]
 1012 03d0 010052E1 		cmp	r2, r1
 1013 03d4 48FFFF1A 		bne	.L130
 1014 03d8 ACFFFFEA 		b	.L122
 1015              	.L133:
 1016 03dc 2C208DE5 		str	r2, [sp, #44]
 1017 03e0 14109DE5 		ldr	r1, [sp, #20]
 1018 03e4 18809DE5 		ldr	r8, [sp, #24]
 1019 03e8 28209DE5 		ldr	r2, [sp, #40]
 1020 03ec 30008DE5 		str	r0, [sp, #48]
 1021 03f0 070000EA 		b	.L152
 1022              	.L149:
 1023 03f4 04009DE5 		ldr	r0, [sp, #4]
 1024 03f8 0FA00AE2 		and	r10, r10, #15
 1025 03fc 0AA080E1 		orr	r10, r0, r10
 1026 0400 7AA0EFE6 		uxtb	r10, r10
 1027              	.L151:
 1028 0404 04A0C9E7 		strb	r10, [r9, r4]
 1029              	.L148:
 1030 0408 015055E2 		subs	r5, r5, #1
 1031 040c 06E08EE0 		add	lr, lr, r6
 1032 0410 96FFFF0A 		beq	.L172
 1033              	.L152:
 1034 0414 0B0053E1 		cmp	r3, fp
 1035 0418 03B04BB0 		sublt	fp, fp, r3
 1036 041c 01C08CB2 		addlt	ip, ip, #1
 1037 0420 0E0058E1 		cmp	r8, lr
 1038 0424 0040A083 		movhi	r4, #0
 1039 0428 0140A093 		movls	r4, #1
 1040 042c AE4F94E1 		orrs	r4, r4, lr, lsr #31
 1041 0430 F4FFFF1A 		bne	.L148
 1042 0434 01005CE1 		cmp	ip, r1
 1043 0438 CE40A0E1 		asr	r4, lr, #1
 1044 043c 00A0A033 		movcc	r10, #0
 1045 0440 01A0A023 		movcs	r10, #1
 1046 0444 ACAF9AE1 		orrs	r10, r10, ip, lsr #31
 1047 0448 924C24E0 		mla	r4, r2, ip, r4
 1048 044c EDFFFF1A 		bne	.L148
 1049 0450 01001EE3 		tst	lr, #1
 1050 0454 04A0D9E7 		ldrb	r10, [r9, r4]	@ zero_extendqisi2
 1051 0458 E5FFFF0A 		beq	.L149
 1052 045c 08009DE5 		ldr	r0, [sp, #8]
 1053 0460 0FA0CAE3 		bic	r10, r10, #15
 1054 0464 0AA080E1 		orr	r10, r0, r10
 1055 0468 E5FFFFEA 		b	.L151
 1057              		.global	__aeabi_uidiv
 1058              		.section	.text.DrawFont1bpp,"ax",%progbits
 1059              		.align	2
 1060              		.global	DrawFont1bpp
 1061              		.syntax unified
 1062              		.arm
 1063              		.fpu neon
 1065              	DrawFont1bpp:
 1066              		@ args = 16, pretend = 0, frame = 48
 1067              		@ frame_needed = 0, uses_anonymous_args = 0
 1068 0000 F04F2DE9 		push	{r4, r5, r6, r7, r8, r9, r10, fp, lr}
 1069 0004 07E093E2 		adds	lr, r3, #7
 1070 0008 34D04DE2 		sub	sp, sp, #52
 1071 000c 0E408342 		addmi	r4, r3, #14
 1072 0010 0E40A051 		movpl	r4, lr
 1073 0014 01E0A0E1 		mov	lr, r1
 1074 0018 C411A0E1 		asr	r1, r4, #3
 1075 001c 58C09DE5 		ldr	ip, [sp, #88]
 1076 0020 28108DE5 		str	r1, [sp, #40]
 1077 0024 5C10DDE5 		ldrb	r1, [sp, #92]	@ zero_extendqisi2
 1078 0028 00005CE3 		cmp	ip, #0
 1079 002c 6050DDE5 		ldrb	r5, [sp, #96]	@ zero_extendqisi2
 1080 0030 1C108DE5 		str	r1, [sp, #28]
 1081 0034 9C00000A 		beq	.L176
 1082 0038 004073E2 		rsbs	r4, r3, #0
 1083 003c 071003E2 		and	r1, r3, #7
 1084 0040 074004E2 		and	r4, r4, #7
 1085 0044 0160A0E1 		mov	r6, r1
 1086 0048 00606452 		rsbpl	r6, r4, #0
 1087 004c 1C409DE5 		ldr	r4, [sp, #28]
 1088 0050 28709DE5 		ldr	r7, [sp, #40]
 1089 0054 0512A0E1 		lsl	r1, r5, #4
 1090 0058 24608DE5 		str	r6, [sp, #36]
 1091 005c 7110AFE6 		sxtb	r1, r1
 1092 0060 0442A0E1 		lsl	r4, r4, #4
 1093 0064 000057E3 		cmp	r7, #0
 1094 0068 14108DE5 		str	r1, [sp, #20]
 1095 006c 8711A0E1 		lsl	r1, r7, #3
 1096 0070 7440AFE6 		sxtb	r4, r4
 1097 0074 10408DE5 		str	r4, [sp, #16]
 1098 0078 8B00000A 		beq	.L176
 1099 007c 0040A0E1 		mov	r4, r0
 1100 0080 0300A0E1 		mov	r0, r3
 1101 0084 02308CE0 		add	r3, ip, r2
 1102 0088 20E08DE5 		str	lr, [sp, #32]
 1103 008c 2C308DE5 		str	r3, [sp, #44]
 1104 0090 0290A0E1 		mov	r9, r2
 1105 0094 FEFFFFEB 		bl	__aeabi_uidiv
 1106 0098 00E000E3 		movw	lr, #:lower16:.LANCHOR0
 1107 009c 010050E3 		cmp	r0, #1
 1108 00a0 06A0A011 		movne	r10, r6
 1109 00a4 08A0A003 		moveq	r10, #8
 1110 00a8 00E040E3 		movt	lr, #:upper16:.LANCHOR0
 1111 00ac 0F3005E2 		and	r3, r5, #15
 1112 00b0 0C008DE5 		str	r0, [sp, #12]
 1113 00b4 18308DE5 		str	r3, [sp, #24]
 1114              	.L193:
 1115 00b8 64309DE5 		ldr	r3, [sp, #100]
 1116 00bc A98FA0E1 		lsr	r8, r9, #31
 1117 00c0 28209DE5 		ldr	r2, [sp, #40]
 1118 00c4 0070A0E3 		mov	r7, #0
 1119 00c8 023083E0 		add	r3, r3, r2
 1120 00cc 08308DE5 		str	r3, [sp, #8]
 1121              	.L192:
 1122 00d0 0C309DE5 		ldr	r3, [sp, #12]
 1123 00d4 010053E3 		cmp	r3, #1
 1124 00d8 64309DE5 		ldr	r3, [sp, #100]
 1125 00dc 01C0D3E4 		ldrb	ip, [r3], #1	@ zero_extendqisi2
 1126 00e0 64308DE5 		str	r3, [sp, #100]
 1127 00e4 0200000A 		beq	.L179
 1128 00e8 24309DE5 		ldr	r3, [sp, #36]
 1129 00ec 000053E3 		cmp	r3, #0
 1130 00f0 6500000A 		beq	.L180
 1131              	.L179:
 1132 00f4 1C009DE5 		ldr	r0, [sp, #28]
 1133 00f8 0710A0E1 		mov	r1, r7
 1134 00fc 20309DE5 		ldr	r3, [sp, #32]
 1135 0100 8020A0E3 		mov	r2, #128
 1136 0104 00808DE5 		str	r8, [sp]
 1137 0108 0F0000E2 		and	r0, r0, #15
 1138 010c 073083E0 		add	r3, r3, r7
 1139 0110 04008DE5 		str	r0, [sp, #4]
 1140 0114 2F0000EA 		b	.L191
 1141              	.L214:
 1142 0118 010054E3 		cmp	r4, #1
 1143 011c 0050A003 		moveq	r5, #0
 1144 0120 0500000A 		beq	.L182
 1145 0124 020054E3 		cmp	r4, #2
 1146 0128 0450A001 		moveq	r5, r4
 1147 012c 0200000A 		beq	.L182
 1148 0130 030054E3 		cmp	r4, #3
 1149 0134 0050A013 		movne	r5, #0
 1150 0138 0350A003 		moveq	r5, #3
 1151              	.L182:
 1152 013c 855165E0 		rsb	r5, r5, r5, lsl #3
 1153 0140 05018EE0 		add	r0, lr, r5, lsl #2
 1154 0144 05B19EE7 		ldr	fp, [lr, r5, lsl #2]
 1155 0148 145090E5 		ldr	r5, [r0, #20]
 1156 014c 088090E5 		ldr	r8, [r0, #8]
 1157 0150 046090E5 		ldr	r6, [r0, #4]
 1158 0154 030055E1 		cmp	r5, r3
 1159 0158 0050A083 		movhi	r5, #0
 1160 015c 0150A093 		movls	r5, #1
 1161 0160 000058E3 		cmp	r8, #0
 1162 0164 0B60A001 		moveq	r6, fp
 1163 0168 A35F95E1 		orrs	r5, r5, r3, lsr #31
 1164 016c 1300001A 		bne	.L184
 1165 0170 185090E5 		ldr	r5, [r0, #24]
 1166 0174 00809DE5 		ldr	r8, [sp]
 1167 0178 090055E1 		cmp	r5, r9
 1168 017c 01808893 		orrls	r8, r8, #1
 1169 0180 000058E3 		cmp	r8, #0
 1170 0184 0D00001A 		bne	.L184
 1171 0188 0C5090E5 		ldr	r5, [r0, #12]
 1172 018c C300A0E1 		asr	r0, r3, #1
 1173 0190 010013E3 		tst	r3, #1
 1174 0194 950920E0 		mla	r0, r5, r9, r0
 1175 0198 005086E0 		add	r5, r6, r0
 1176 019c 0000D6E7 		ldrb	r0, [r6, r0]	@ zero_extendqisi2
 1177 01a0 10609D05 		ldreq	r6, [sp, #16]
 1178 01a4 04609D15 		ldrne	r6, [sp, #4]
 1179 01a8 0F000002 		andeq	r0, r0, #15
 1180 01ac 0F00C013 		bicne	r0, r0, #15
 1181 01b0 00008601 		orreq	r0, r6, r0
 1182 01b4 7000EF06 		uxtbeq	r0, r0
 1183 01b8 00008611 		orrne	r0, r6, r0
 1184              	.L190:
 1185 01bc 0000C5E5 		strb	r0, [r5]
 1186              	.L184:
 1187 01c0 011081E2 		add	r1, r1, #1
 1188 01c4 A220A0E1 		lsr	r2, r2, #1
 1189 01c8 070041E0 		sub	r0, r1, r7
 1190 01cc 00005AE1 		cmp	r10, r0
 1191 01d0 013083E2 		add	r3, r3, #1
 1192 01d4 2A00009A 		bls	.L213
 1193              	.L191:
 1194 01d8 02501CE0 		ands	r5, ip, r2
 1195 01dc CDFFFF1A 		bne	.L214
 1196 01e0 010054E3 		cmp	r4, #1
 1197 01e4 0500000A 		beq	.L187
 1198 01e8 020054E3 		cmp	r4, #2
 1199 01ec 0450A001 		moveq	r5, r4
 1200 01f0 0200000A 		beq	.L187
 1201 01f4 030054E3 		cmp	r4, #3
 1202 01f8 0050A013 		movne	r5, #0
 1203 01fc 0350A003 		moveq	r5, #3
 1204              	.L187:
 1205 0200 855165E0 		rsb	r5, r5, r5, lsl #3
 1206 0204 05018EE0 		add	r0, lr, r5, lsl #2
 1207 0208 05B19EE7 		ldr	fp, [lr, r5, lsl #2]
 1208 020c 145090E5 		ldr	r5, [r0, #20]
 1209 0210 088090E5 		ldr	r8, [r0, #8]
 1210 0214 046090E5 		ldr	r6, [r0, #4]
 1211 0218 030055E1 		cmp	r5, r3
 1212 021c 0050A083 		movhi	r5, #0
 1213 0220 0150A093 		movls	r5, #1
 1214 0224 000058E3 		cmp	r8, #0
 1215 0228 0B60A001 		moveq	r6, fp
 1216 022c A35F95E1 		orrs	r5, r5, r3, lsr #31
 1217 0230 E2FFFF1A 		bne	.L184
 1218 0234 185090E5 		ldr	r5, [r0, #24]
 1219 0238 00809DE5 		ldr	r8, [sp]
 1220 023c 090055E1 		cmp	r5, r9
 1221 0240 01808893 		orrls	r8, r8, #1
 1222 0244 000058E3 		cmp	r8, #0
 1223 0248 DCFFFF1A 		bne	.L184
 1224 024c 0C5090E5 		ldr	r5, [r0, #12]
 1225 0250 C300A0E1 		asr	r0, r3, #1
 1226 0254 010013E3 		tst	r3, #1
 1227 0258 950920E0 		mla	r0, r5, r9, r0
 1228 025c 005086E0 		add	r5, r6, r0
 1229 0260 0000D6E7 		ldrb	r0, [r6, r0]	@ zero_extendqisi2
 1230 0264 14609D05 		ldreq	r6, [sp, #20]
 1231 0268 18609D15 		ldrne	r6, [sp, #24]
 1232 026c 0F000002 		andeq	r0, r0, #15
 1233 0270 0F00C013 		bicne	r0, r0, #15
 1234 0274 00008601 		orreq	r0, r6, r0
 1235 0278 7000EF06 		uxtbeq	r0, r0
 1236 027c 00008611 		orrne	r0, r6, r0
 1237 0280 CDFFFFEA 		b	.L190
 1238              	.L213:
 1239 0284 00809DE5 		ldr	r8, [sp]
 1240 0288 0170A0E1 		mov	r7, r1
 1241              	.L180:
 1242 028c 64309DE5 		ldr	r3, [sp, #100]
 1243 0290 08209DE5 		ldr	r2, [sp, #8]
 1244 0294 020053E1 		cmp	r3, r2
 1245 0298 8CFFFF1A 		bne	.L192
 1246 029c 2C309DE5 		ldr	r3, [sp, #44]
 1247 02a0 019089E2 		add	r9, r9, #1
 1248 02a4 090053E1 		cmp	r3, r9
 1249 02a8 82FFFF1A 		bne	.L193
 1250              	.L176:
 1251 02ac 34D08DE2 		add	sp, sp, #52
 1252              		@ sp needed
 1253 02b0 F08FBDE8 		pop	{r4, r5, r6, r7, r8, r9, r10, fp, pc}
 1255              		.section	.bss.buffer_info,"aw",%nobits
 1256              		.align	2
 1257              		.set	.LANCHOR0,. + 0
 1260              	buffer_info:
 1261 0000 00000000 		.space	112
 1261      00000000 
 1261      00000000 
 1261      00000000 
 1261      00000000 
 1262              		.ident	"GCC: (GNU Tools for ARM Embedded Processors 6-2017-q2-update) 6.3.1 20170620 (release) [AR