   1              		.cpu cortex-a9
   2              		.eabi_attribute 28, 1
   3              		.eabi_attribute 20, 1
   4              		.eabi_attribute 21, 1
   5              		.eabi_attribute 23, 3
   6              		.eabi_attribute 24, 1
   7              		.eabi_attribute 25, 1
   8              		.eabi_attribute 26, 1
   9              		.eabi_attribute 30, 2
  10              		.eabi_attribute 34, 0
  11              		.eabi_attribute 18, 4
  12              		.file	"arm_convolve_HWC_q7_basic_nonsquare.c"
  13              		.section	.text.arm_convolve_HWC_q7_basic_nonsquare,"ax",%progbits
  14              		.align	2
  15              		.global	arm_convolve_HWC_q7_basic_nonsquare
  16              		.syntax unified
  17              		.arm
  18              		.fpu neon
  20              	arm_convolve_HWC_q7_basic_nonsquare:
  21              		@ args = 64, pretend = 0, frame = 104
  22              		@ frame_needed = 0, uses_anonymous_args = 0
  23 0000 F04F2DE9 		push	{r4, r5, r6, r7, r8, r9, r10, fp, lr}
  24 0004 7CD04DE2 		sub	sp, sp, #124
  25 0008 B4CDDDE1 		ldrh	ip, [sp, #212]
  26 000c B86BDDE1 		ldrh	r6, [sp, #184]
  27 0010 68C08DE5 		str	ip, [sp, #104]
  28 0014 00005CE3 		cmp	ip, #0
  29 0018 B4CADDE1 		ldrh	ip, [sp, #164]
  30 001c 2C608DE5 		str	r6, [sp, #44]
  31 0020 BC6BDDE1 		ldrh	r6, [sp, #188]
  32 0024 54C08DE5 		str	ip, [sp, #84]
  33 0028 B8CADDE1 		ldrh	ip, [sp, #168]
  34 002c 5C608DE5 		str	r6, [sp, #92]
  35 0030 B46CDDE1 		ldrh	r6, [sp, #196]
  36 0034 0CE0A0E1 		mov	lr, ip
  37 0038 30C08DE5 		str	ip, [sp, #48]
  38 003c BCCADDE1 		ldrh	ip, [sp, #172]
  39 0040 60608DE5 		str	r6, [sp, #96]
  40 0044 B86CDDE1 		ldrh	r6, [sp, #200]
  41 0048 0C40A0E1 		mov	r4, ip
  42 004c 58C08DE5 		str	ip, [sp, #88]
  43 0050 B0CBDDE1 		ldrh	ip, [sp, #176]
  44 0054 48608DE5 		str	r6, [sp, #72]
  45 0058 B06DDDE1 		ldrh	r6, [sp, #208]
  46 005c 0C50A0E1 		mov	r5, ip
  47 0060 40C08DE5 		str	ip, [sp, #64]
  48 0064 B4CBDDE1 		ldrh	ip, [sp, #180]
  49 0068 34608DE5 		str	r6, [sp, #52]
  50 006c 64C08DE5 		str	ip, [sp, #100]
  51 0070 DA00000A 		beq	.L31
  52 0074 8390A0E1 		lsl	r9, r3, #1
  53 0078 0280A0E1 		mov	r8, r2
  54 007c 01B0A0E1 		mov	fp, r1
  55 0080 D8A09DE5 		ldr	r10, [sp, #216]
  56 0084 990E02E0 		mul	r2, r9, lr
  57 0088 1C308DE5 		str	r3, [sp, #28]
  58 008c 20008DE5 		str	r0, [sp, #32]
  59 0090 00C06CE2 		rsb	ip, ip, #0
  60 0094 8E0361E1 		smulbb	r1, lr, r3
  61 0098 000065E2 		rsb	r0, r5, #0
  62 009c 0030A0E3 		mov	r3, #0
  63 00a0 7CC0FFE6 		uxth	ip, ip
  64 00a4 940202E0 		mul	r2, r4, r2
  65 00a8 7000FFE6 		uxth	r0, r0
  66 00ac 04E0A0E1 		mov	lr, r4	@ movhi
  67 00b0 44C08DE5 		str	ip, [sp, #68]
  68 00b4 810461E1 		smulbb	r1, r1, r4
  69 00b8 50308DE5 		str	r3, [sp, #80]
  70 00bc 6C008DE5 		str	r0, [sp, #108]
  71 00c0 82208AE0 		add	r2, r10, r2, lsl #1
  72 00c4 7110FFE6 		uxth	r1, r1
  73 00c8 3C208DE5 		str	r2, [sp, #60]
  74 00cc 0320A0E1 		mov	r2, r3
  75 00d0 4C108DE5 		str	r1, [sp, #76]
  76              	.L3:
  77 00d4 34309DE5 		ldr	r3, [sp, #52]
  78 00d8 000053E3 		cmp	r3, #0
  79 00dc 5B00000A 		beq	.L17
  80 00e0 5C309DE5 		ldr	r3, [sp, #92]
  81 00e4 58109DE5 		ldr	r1, [sp, #88]
  82 00e8 921321E0 		mla	r1, r2, r3, r1
  83 00ec F434DDE1 		ldrsh	r3, [sp, #68]
  84 00f0 0020A0E3 		mov	r2, #0
  85 00f4 38308DE5 		str	r3, [sp, #56]
  86 00f8 64309DE5 		ldr	r3, [sp, #100]
  87 00fc 28208DE5 		str	r2, [sp, #40]
  88 0100 033041E0 		sub	r3, r1, r3
  89 0104 18308DE5 		str	r3, [sp, #24]
  90 0108 6C309DE5 		ldr	r3, [sp, #108]
  91 010c 24308DE5 		str	r3, [sp, #36]
  92              	.L15:
  93 0110 38709DE5 		ldr	r7, [sp, #56]
  94 0114 18109DE5 		ldr	r1, [sp, #24]
  95 0118 010057E1 		cmp	r7, r1
  96 011c 3B0000AA 		bge	.L4
  97 0120 2C109DE5 		ldr	r1, [sp, #44]
  98 0124 0760A0E1 		mov	r6, r7
  99 0128 30009DE5 		ldr	r0, [sp, #48]
 100 012c 40309DE5 		ldr	r3, [sp, #64]
 101 0130 920122E0 		mla	r2, r2, r1, r0
 102 0134 F412DDE1 		ldrsh	r1, [sp, #36]
 103 0138 14108DE5 		str	r1, [sp, #20]
 104 013c 035042E0 		sub	r5, r2, r3
 105              	.L13:
 106 0140 14309DE5 		ldr	r3, [sp, #20]
 107 0144 050053E1 		cmp	r3, r5
 108 0148 2A0000AA 		bge	.L5
 109 014c 9B0602E0 		mul	r2, fp, r6
 110 0150 000057E3 		cmp	r7, #0
 111 0154 10208DE5 		str	r2, [sp, #16]
 112 0158 1C0000BA 		blt	.L6
 113 015c 03C0A0E1 		mov	ip, r3
 114 0160 0340A0E1 		mov	r4, r3
 115 0164 060000EA 		b	.L10
 116              	.L9:
 117 0168 FEFFFFEB 		bl	memset
 118              	.L8:
 119 016c 014084E2 		add	r4, r4, #1
 120 0170 09A08AE0 		add	r10, r10, r9
 121 0174 7440BFE6 		sxth	r4, r4
 122 0178 050054E1 		cmp	r4, r5
 123 017c 04C0A0E1 		mov	ip, r4
 124 0180 1C0000AA 		bge	.L5
 125              	.L10:
 126 0184 080056E1 		cmp	r6, r8
 127 0188 0920A0E1 		mov	r2, r9
 128 018c 0030A0B3 		movlt	r3, #0
 129 0190 0130A0A3 		movge	r3, #1
 130 0194 A43F93E1 		orrs	r3, r3, r4, lsr #31
 131 0198 0010A0E3 		mov	r1, #0
 132 019c 0A00A0E1 		mov	r0, r10
 133 01a0 F0FFFF1A 		bne	.L9
 134 01a4 0C005BE1 		cmp	fp, ip
 135 01a8 EEFFFFDA 		ble	.L9
 136 01ac 10309DE5 		ldr	r3, [sp, #16]
 137 01b0 20109DE5 		ldr	r1, [sp, #32]
 138 01b4 0C0083E0 		add	r0, r3, ip
 139 01b8 1C309DE5 		ldr	r3, [sp, #28]
 140 01bc 0320A0E1 		mov	r2, r3
 141 01c0 931020E0 		mla	r0, r3, r0, r1
 142 01c4 0A10A0E1 		mov	r1, r10
 143 01c8 FEFFFFEB 		bl	arm_q7_to_q15_no_shift
 144 01cc E6FFFFEA 		b	.L8
 145              	.L6:
 146 01d0 0340A0E1 		mov	r4, r3
 147              	.L12:
 148 01d4 014084E2 		add	r4, r4, #1
 149 01d8 0A00A0E1 		mov	r0, r10
 150 01dc 7440BFE6 		sxth	r4, r4
 151 01e0 0920A0E1 		mov	r2, r9
 152 01e4 0010A0E3 		mov	r1, #0
 153 01e8 FEFFFFEB 		bl	memset
 154 01ec 050054E1 		cmp	r4, r5
 155 01f0 09A08AE0 		add	r10, r10, r9
 156 01f4 F6FFFFBA 		blt	.L12
 157              	.L5:
 158 01f8 017087E2 		add	r7, r7, #1
 159 01fc 18309DE5 		ldr	r3, [sp, #24]
 160 0200 7770BFE6 		sxth	r7, r7
 161 0204 030057E1 		cmp	r7, r3
 162 0208 0760A0E1 		mov	r6, r7
 163 020c CBFFFFBA 		blt	.L13
 164              	.L4:
 165 0210 3C309DE5 		ldr	r3, [sp, #60]
 166 0214 03005AE1 		cmp	r10, r3
 167 0218 7300000A 		beq	.L46
 168              	.L14:
 169 021c 28309DE5 		ldr	r3, [sp, #40]
 170 0220 24209DE5 		ldr	r2, [sp, #36]
 171 0224 011083E2 		add	r1, r3, #1
 172 0228 2C309DE5 		ldr	r3, [sp, #44]
 173 022c 022083E0 		add	r2, r3, r2
 174 0230 7130BFE6 		sxth	r3, r1
 175 0234 7220FFE6 		uxth	r2, r2
 176 0238 28308DE5 		str	r3, [sp, #40]
 177 023c 24208DE5 		str	r2, [sp, #36]
 178 0240 34209DE5 		ldr	r2, [sp, #52]
 179 0244 020053E1 		cmp	r3, r2
 180 0248 0320A0E1 		mov	r2, r3
 181 024c AFFFFFBA 		blt	.L15
 182              	.L17:
 183 0250 50309DE5 		ldr	r3, [sp, #80]
 184 0254 44209DE5 		ldr	r2, [sp, #68]
 185 0258 011083E2 		add	r1, r3, #1
 186 025c 5C309DE5 		ldr	r3, [sp, #92]
 187 0260 022083E0 		add	r2, r3, r2
 188 0264 7130BFE6 		sxth	r3, r1
 189 0268 7220FFE6 		uxth	r2, r2
 190 026c 50308DE5 		str	r3, [sp, #80]
 191 0270 44208DE5 		str	r2, [sp, #68]
 192 0274 68209DE5 		ldr	r2, [sp, #104]
 193 0278 020053E1 		cmp	r3, r2
 194 027c 0320A0E1 		mov	r2, r3
 195 0280 93FFFFBA 		blt	.L3
 196 0284 D8309DE5 		ldr	r3, [sp, #216]
 197 0288 0A0053E1 		cmp	r3, r10
 198 028c 5300000A 		beq	.L31
 199 0290 54109DE5 		ldr	r1, [sp, #84]
 200 0294 000051E3 		cmp	r1, #0
 201 0298 5000000A 		beq	.L31
 202 029c 1C209DE5 		ldr	r2, [sp, #28]
 203 02a0 58309DE5 		ldr	r3, [sp, #88]
 204 02a4 48009DE5 		ldr	r0, [sp, #72]
 205 02a8 A0609DE5 		ldr	r6, [sp, #160]
 206 02ac 930203E0 		mul	r3, r3, r2
 207 02b0 4C209DE5 		ldr	r2, [sp, #76]
 208 02b4 039002E2 		and	r9, r2, #3
 209 02b8 0120A0E3 		mov	r2, #1
 210 02bc 1220A0E1 		lsl	r2, r2, r0
 211 02c0 30009DE5 		ldr	r0, [sp, #48]
 212 02c4 01B049E2 		sub	fp, r9, #1
 213 02c8 28908DE5 		str	r9, [sp, #40]
 214 02cc A220A0E1 		lsr	r2, r2, #1
 215 02d0 7BB0FFE6 		uxth	fp, fp
 216 02d4 900303E0 		mul	r3, r0, r3
 217 02d8 14208DE5 		str	r2, [sp, #20]
 218 02dc CC009DE5 		ldr	r0, [sp, #204]
 219 02e0 C0209DE5 		ldr	r2, [sp, #192]
 220 02e4 24B08DE5 		str	fp, [sp, #36]
 221 02e8 5331EFE7 		ubfx	r3, r3, #2, #16
 222 02ec 18308DE5 		str	r3, [sp, #24]
 223 02f0 013043E2 		sub	r3, r3, #1
 224 02f4 7330FFE6 		uxth	r3, r3
 225 02f8 01A042E2 		sub	r10, r2, #1
 226 02fc 012080E0 		add	r2, r0, r1
 227 0300 013083E2 		add	r3, r3, #1
 228 0304 20208DE5 		str	r2, [sp, #32]
 229 0308 0321A0E1 		lsl	r2, r3, #2
 230 030c 1C208DE5 		str	r2, [sp, #28]
 231 0310 D8209DE5 		ldr	r2, [sp, #216]
 232 0314 833182E0 		add	r3, r2, r3, lsl #3
 233 0318 10308DE5 		str	r3, [sp, #16]
 234              	.L24:
 235 031c 18309DE5 		ldr	r3, [sp, #24]
 236 0320 D140FAE1 		ldrsb	r4, [r10, #1]!
 237 0324 60209DE5 		ldr	r2, [sp, #96]
 238 0328 000053E3 		cmp	r3, #0
 239 032c 14309DE5 		ldr	r3, [sp, #20]
 240 0330 144283E0 		add	r4, r3, r4, lsl r2
 241 0334 4700000A 		beq	.L26
 242 0338 1C309DE5 		ldr	r3, [sp, #28]
 243 033c D8709DE5 		ldr	r7, [sp, #216]
 244 0340 038086E0 		add	r8, r6, r3
 245              	.L20:
 246 0344 0420A0E3 		mov	r2, #4
 247 0348 0610A0E1 		mov	r1, r6
 248 034c 74008DE2 		add	r0, sp, #116
 249 0350 026086E0 		add	r6, r6, r2
 250 0354 FEFFFFEB 		bl	memcpy
 251 0358 74309DE5 		ldr	r3, [sp, #116]
 252 035c 0420A0E3 		mov	r2, #4
 253 0360 0710A0E1 		mov	r1, r7
 254 0364 74008DE2 		add	r0, sp, #116
 255              		.syntax divided
 256              	@ 1983 "C:/Renesas/e2studio_2021_01_workspace_RZA2M_ANPR/ANPR_RZA2M_GR_MANGO/src/tensorflow_lite/th
 257 0368 73C08FE6 		sxtb16 ip, r3
 258              	@ 0 "" 2
 259              		.arm
 260              		.syntax unified
 261 036c 6334A0E1 		ror	r3, r3, #8
 262              		.syntax divided
 263              	@ 1983 "C:/Renesas/e2studio_2021_01_workspace_RZA2M_ANPR/ANPR_RZA2M_GR_MANGO/src/tensorflow_lite/th
 264 0370 73308FE6 		sxtb16 r3, r3
 265              	@ 0 "" 2
 266              	@ 578 "C:/Renesas/e2studio_2021_01_workspace_RZA2M_ANPR/ANPR_RZA2M_GR_MANGO/src/tensorflow_lite/thi
 267 0374 5C5883E6 		pkhtb r5, r3, ip, asr #16
 268              	@ 0 "" 2
 269              	@ 579 "C:/Renesas/e2studio_2021_01_workspace_RZA2M_ANPR/ANPR_RZA2M_GR_MANGO/src/tensorflow_lite/thi
 270 0378 13988CE6 		pkhbt r9, ip, r3, lsl #16
 271              	@ 0 "" 2
 272              		.arm
 273              		.syntax unified
 274 037c FEFFFFEB 		bl	memcpy
 275 0380 74309DE5 		ldr	r3, [sp, #116]
 276              		.syntax divided
 277              	@ 2038 "C:/Renesas/e2studio_2021_01_workspace_RZA2M_ANPR/ANPR_RZA2M_GR_MANGO/src/tensorflow_lite/th
 278 0384 194304E7 		smlad r4, r9, r3, r4
 279              	@ 0 "" 2
 280              		.arm
 281              		.syntax unified
 282 0388 0420A0E3 		mov	r2, #4
 283 038c 74008DE2 		add	r0, sp, #116
 284 0390 021087E0 		add	r1, r7, r2
 285 0394 087087E2 		add	r7, r7, #8
 286 0398 FEFFFFEB 		bl	memcpy
 287 039c 74309DE5 		ldr	r3, [sp, #116]
 288              		.syntax divided
 289              	@ 2038 "C:/Renesas/e2studio_2021_01_workspace_RZA2M_ANPR/ANPR_RZA2M_GR_MANGO/src/tensorflow_lite/th
 290 03a0 154304E7 		smlad r4, r5, r3, r4
 291              	@ 0 "" 2
 292              		.arm
 293              		.syntax unified
 294 03a4 080056E1 		cmp	r6, r8
 295 03a8 E5FFFF1A 		bne	.L20
 296 03ac 10309DE5 		ldr	r3, [sp, #16]
 297              	.L19:
 298 03b0 28209DE5 		ldr	r2, [sp, #40]
 299 03b4 000052E3 		cmp	r2, #0
 300 03b8 1B00001A 		bne	.L47
 301              	.L21:
 302 03bc 48309DE5 		ldr	r3, [sp, #72]
 303 03c0 20209DE5 		ldr	r2, [sp, #32]
 304 03c4 5443A0E1 		asr	r4, r4, r3
 305 03c8 CC309DE5 		ldr	r3, [sp, #204]
 306 03cc 1440A7E6 		ssat	r4, #8, r4
 307 03d0 0140C3E4 		strb	r4, [r3], #1
 308 03d4 020053E1 		cmp	r3, r2
 309 03d8 CC308DE5 		str	r3, [sp, #204]
 310 03dc CEFFFF1A 		bne	.L24
 311              	.L31:
 312 03e0 0000A0E3 		mov	r0, #0
 313 03e4 7CD08DE2 		add	sp, sp, #124
 314              		@ sp needed
 315 03e8 F08FBDE8 		pop	{r4, r5, r6, r7, r8, r9, r10, fp, pc}
 316              	.L46:
 317 03ec CC309DE5 		ldr	r3, [sp, #204]
 318 03f0 C0209DE5 		ldr	r2, [sp, #192]
 319 03f4 48109DE5 		ldr	r1, [sp, #72]
 320 03f8 60009DE5 		ldr	r0, [sp, #96]
 321 03fc 0C308DE5 		str	r3, [sp, #12]
 322 0400 08208DE5 		str	r2, [sp, #8]
 323 0404 04108DE5 		str	r1, [sp, #4]
 324 0408 00008DE5 		str	r0, [sp]
 325 040c 4C309DE5 		ldr	r3, [sp, #76]
 326 0410 54209DE5 		ldr	r2, [sp, #84]
 327 0414 D8109DE5 		ldr	r1, [sp, #216]
 328 0418 A0009DE5 		ldr	r0, [sp, #160]
 329 041c FEFFFFEB 		bl	arm_nn_mat_mult_kernel_q7_q15
 330 0420 D8A09DE5 		ldr	r10, [sp, #216]
 331 0424 CC008DE5 		str	r0, [sp, #204]
 332 0428 7BFFFFEA 		b	.L14
 333              	.L47:
 334 042c 24109DE5 		ldr	r1, [sp, #36]
 335 0430 012046E2 		sub	r2, r6, #1
 336 0434 011086E0 		add	r1, r6, r1
 337              	.L22:
 338 0438 D100F2E1 		ldrsb	r0, [r2, #1]!
 339 043c B2C0D3E0 		ldrh	ip, [r3], #2
 340 0440 020051E1 		cmp	r1, r2
 341 0444 8C4004E1 		smlabb	r4, ip, r0, r4
 342 0448 FAFFFF1A 		bne	.L22
 343 044c 01308BE2 		add	r3, fp, #1
 344 0450 036086E0 		add	r6, r6, r3
 345 0454 D8FFFFEA 		b	.L21
 346              	.L26:
 347 0458 D8309DE5 		ldr	r3, [sp, #216]
 348 045c D3FFFFEA 		b	.L19
 350              		.ident	"GCC: (GNU Tools for ARM Embedded Processors 6-2017-q2-update) 6.3.1 20170620 (release) [AR
DEFINED SYMBOLS
                            *ABS*:00000000 arm_convolve_HWC_q7_basic_nonsquare.c
C:\Users\a5050395\AppData\Local\Temp\cclxj7bL.s:14     .text.arm_convolve_HWC_q7_basic_nonsquare:00000000 $a
C:\Users\a5050395\AppData\Local\Temp\cclxj7bL.s:20     .text.arm_convolve_HWC_q7_basic_nonsquare:00000000 arm_convolve_HWC_q7_basic_nonsquare

UNDEFINED SYMBOLS
memset
arm_q7_to_q15_no_shift
memcpy
arm_nn_mat_mult_kernel_q7_q15
