   1              		.cpu cortex-a9
   2              		.eabi_attribute 28, 1
   3              		.eabi_attribute 20, 1
   4              		.eabi_attribute 21, 1
   5              		.eabi_attribute 23, 3
   6              		.eabi_attribute 24, 1
   7              		.eabi_attribute 25, 1
   8              		.eabi_attribute 26, 1
   9              		.eabi_attribute 30, 4
  10              		.eabi_attribute 34, 0
  11              		.eabi_attribute 18, 4
  12              		.file	"kernel_util.cpp"
  13              		.section	.text._ZZN6tflite12_GLOBAL__N_137CalculateActivationRangeQuantizedImplE21TfLiteFusedActiv
  14              		.align	2
  15              		.syntax unified
  16              		.arm
  17              		.fpu neon
  19              	_ZZN6tflite12_GLOBAL__N_137CalculateActivationRangeQuantizedImplE21TfLiteFusedActivationllP12TfLite
  20              		.fnstart
  21              	.LFB4042:
  22              		@ args = 0, pretend = 0, frame = 0
  23              		@ frame_needed = 0, uses_anonymous_args = 0
  24 0000 007AD0ED 		vldr.32	s15, [r0]
  25 0004 10402DE9 		push	{r4, lr}
  26 0008 0040A0E1 		mov	r4, r0
  27 000c 270A80EE 		vdiv.f32	s0, s0, s15
  28 0010 FEFFFFEB 		bl	roundf
  29 0014 C07AFDEE 		vcvt.s32.f32	s15, s0
  30 0018 043094E5 		ldr	r3, [r4, #4]
  31 001c 900A17EE 		vmov	r0, s15	@ int
  32 0020 030080E0 		add	r0, r0, r3
  33 0024 1080BDE8 		pop	{r4, pc}
  34              		.cantunwind
  35              		.fnend
  37              		.section	.text._ZN6tflite32GetQuantizedConvolutionMultiplerEP13TfLiteContextPK12TfLiteTensorS4_PS2
  38              		.align	2
  39              		.global	_ZN6tflite32GetQuantizedConvolutionMultiplerEP13TfLiteContextPK12TfLiteTensorS4_PS2_Pd
  40              		.syntax unified
  41              		.arm
  42              		.fpu neon
  44              	_ZN6tflite32GetQuantizedConvolutionMultiplerEP13TfLiteContextPK12TfLiteTensorS4_PS2_Pd:
  45              		.fnstart
  46              	.LFB4040:
  47              		@ args = 4, pretend = 0, frame = 0
  48              		@ frame_needed = 0, uses_anonymous_args = 0
  49 0000 037AD1ED 		vldr.32	s15, [r1, #12]
  50 0004 037A92ED 		vldr.32	s14, [r2, #12]
  51 0008 13402DE9 		push	{r0, r1, r4, lr}
  52              		.save {r4, lr}
  53              		.pad #8
  54 000c 877A67EE 		vmul.f32	s15, s15, s14
  55 0010 C07AF5EE 		vcmpe.f32	s15, #0
  56 0014 10FAF1EE 		vmrs	APSR_nzcv, FPSCR
  57 0018 090000AA 		bge	.L4
  58 001c 40309FE5 		ldr	r3, .L7
  59 0020 40209FE5 		ldr	r2, .L7+4
  60 0024 40109FE5 		ldr	r1, .L7+8
  61 0028 00308DE5 		str	r3, [sp]
  62 002c 8E30A0E3 		mov	r3, #142
  63 0030 144090E5 		ldr	r4, [r0, #20]
  64 0034 34FF2FE1 		blx	r4
  65 0038 0100A0E3 		mov	r0, #1
  66              	.L5:
  67 003c 08D08DE2 		add	sp, sp, #8
  68              		@ sp needed
  69 0040 1080BDE8 		pop	{r4, pc}
  70              	.L4:
  71 0044 E72AF7EE 		vcvt.f64.f32	d18, s15
  72 0048 0000A0E3 		mov	r0, #0
  73 004c 037AD3ED 		vldr.32	s15, [r3, #12]
  74 0050 10309DE5 		ldr	r3, [sp, #16]
  75 0054 E70AF7EE 		vcvt.f64.f32	d16, s15
  76 0058 A01BC2EE 		vdiv.f64	d17, d18, d16
  77 005c 001BC3ED 		vstr.64	d17, [r3]
  78 0060 F5FFFFEA 		b	.L5
  79              	.L8:
  80              		.align	2
  81              	.L7:
  82 0064 5A000000 		.word	.LC2
  83 0068 00000000 		.word	.LC0
  84 006c 43000000 		.word	.LC1
  85              		.fnend
  87              		.section	.text._ZN6tflite32GetQuantizedConvolutionMultiplerEP13TfLiteContextPK12TfLiteTensorS4_S4_
  88              		.align	2
  89              		.global	_ZN6tflite32GetQuantizedConvolutionMultiplerEP13TfLiteContextPK12TfLiteTensorS4_S4_PS2_Pd
  90              		.syntax unified
  91              		.arm
  92              		.fpu neon
  94              	_ZN6tflite32GetQuantizedConvolutionMultiplerEP13TfLiteContextPK12TfLiteTensorS4_S4_PS2_Pd:
  95              		.fnstart
  96              	.LFB4038:
  97              		@ args = 8, pretend = 0, frame = 0
  98              		@ frame_needed = 0, uses_anonymous_args = 0
  99 0000 037AD1ED 		vldr.32	s15, [r1, #12]
 100 0004 000053E3 		cmp	r3, #0
 101 0008 13402DE9 		push	{r0, r1, r4, lr}
 102              		.save {r4, lr}
 103              		.pad #8
 104 000c 00C0A0E1 		mov	ip, r0
 105 0010 10E09DE5 		ldr	lr, [sp, #16]
 106 0014 E70AF7EE 		vcvt.f64.f32	d16, s15
 107 0018 037AD2ED 		vldr.32	s15, [r2, #12]
 108 001c 14409DE5 		ldr	r4, [sp, #20]
 109 0020 E71AF7EE 		vcvt.f64.f32	d17, s15
 110 0024 A10B60EE 		vmul.f64	d16, d16, d17
 111 0028 0B00000A 		beq	.L10
 112 002c 037AD3ED 		vldr.32	s15, [r3, #12]
 113 0030 E71AF7EE 		vcvt.f64.f32	d17, s15
 114 0034 610BF4EE 		vcmp.f64	d16, d17
 115 0038 10FAF1EE 		vmrs	APSR_nzcv, FPSCR
 116 003c E12B70EE 		vsub.f64	d18, d16, d17
 117 0040 610BF0CE 		vmovgt.f64	d16, d17
 118 0044 151BDFED 		vldr.64	d17, .L21
 119 0048 E22BF0EE 		vabs.f64	d18, d18
 120 004c A10B60EE 		vmul.f64	d16, d16, d17
 121 0050 E20BF4EE 		vcmpe.f64	d16, d18
 122 0054 10FAF1EE 		vmrs	APSR_nzcv, FPSCR
 123 0058 050000BA 		blt	.L19
 124              	.L10:
 125 005c 10408DE5 		str	r4, [sp, #16]
 126 0060 0E30A0E1 		mov	r3, lr
 127 0064 0C00A0E1 		mov	r0, ip
 128 0068 08D08DE2 		add	sp, sp, #8
 129              		@ sp needed
 130 006c 1040BDE8 		pop	{r4, lr}
 131 0070 FEFFFFEA 		b	_ZN6tflite32GetQuantizedConvolutionMultiplerEP13TfLiteContextPK12TfLiteTensorS4_PS2_Pd
 132              	.L19:
 133 0074 2C309FE5 		ldr	r3, .L21+8
 134 0078 2C209FE5 		ldr	r2, .L21+12
 135 007c 2C109FE5 		ldr	r1, .L21+16
 136 0080 00308DE5 		str	r3, [sp]
 137 0084 8130A0E3 		mov	r3, #129
 138 0088 144090E5 		ldr	r4, [r0, #20]
 139 008c 34FF2FE1 		blx	r4
 140 0090 0100A0E3 		mov	r0, #1
 141 0094 08D08DE2 		add	sp, sp, #8
 142              		@ sp needed
 143 0098 1080BDE8 		pop	{r4, pc}
 144              	.L22:
 145 009c 00F020E3 		.align	3
 146              	.L21:
 147 00a0 8DEDB5A0 		.word	-1598689907
 148 00a4 F7C6B03E 		.word	1051772663
 149 00a8 00000000 		.word	.LC3
 150 00ac 00000000 		.word	.LC0
 151 00b0 43000000 		.word	.LC1
 152              		.fnend
 154              		.section	.text._ZN6tflite33CalculateActivationRangeQuantizedEP13TfLiteContext21TfLiteFusedActivati
 155              		.align	2
 156              		.global	_ZN6tflite33CalculateActivationRangeQuantizedEP13TfLiteContext21TfLiteFusedActivationP12Tf
 157              		.syntax unified
 158              		.arm
 159              		.fpu neon
 161              	_ZN6tflite33CalculateActivationRangeQuantizedEP13TfLiteContext21TfLiteFusedActivationP12TfLiteTenso
 162              		.fnstart
 163              	.LFB4045:
 164              		@ args = 4, pretend = 0, frame = 8
 165              		@ frame_needed = 0, uses_anonymous_args = 0
 166 0000 F0402DE9 		push	{r4, r5, r6, r7, lr}
 167              		.save {r4, r5, r6, r7, lr}
 168 0004 0370A0E1 		mov	r7, r3
 169 0008 0030D2E5 		ldrb	r3, [r2]	@ zero_extendqisi2
 170              		.pad #20
 171 000c 14D04DE2 		sub	sp, sp, #20
 172 0010 28609DE5 		ldr	r6, [sp, #40]
 173 0014 030053E3 		cmp	r3, #3
 174 0018 0F00000A 		beq	.L30
 175 001c 090053E3 		cmp	r3, #9
 176 0020 1D00000A 		beq	.L31
 177 0024 070053E3 		cmp	r3, #7
 178 0028 FF4F0703 		movweq	r4, #32767
 179 002c E4509F05 		ldreq	r5, .L36+4
 180 0030 0B00000A 		beq	.L24
 181 0034 E0309FE5 		ldr	r3, .L36+8
 182 0038 E0209FE5 		ldr	r2, .L36+12
 183 003c E0109FE5 		ldr	r1, .L36+16
 184 0040 00308DE5 		str	r3, [sp]
 185 0044 C130A0E3 		mov	r3, #193
 186 0048 144090E5 		ldr	r4, [r0, #20]
 187 004c 34FF2FE1 		blx	r4
 188 0050 0100A0E3 		mov	r0, #1
 189              	.L25:
 190 0054 14D08DE2 		add	sp, sp, #20
 191              		@ sp needed
 192 0058 F080BDE8 		pop	{r4, r5, r6, r7, pc}
 193              	.L30:
 194 005c FF40A0E3 		mov	r4, #255
 195 0060 0050A0E3 		mov	r5, #0
 196              	.L24:
 197 0064 103092E5 		ldr	r3, [r2, #16]
 198 0068 010051E3 		cmp	r1, #1
 199 006c 0C2092E5 		ldr	r2, [r2, #12]	@ float
 200 0070 0C308DE5 		str	r3, [sp, #12]
 201 0074 08208DE5 		str	r2, [sp, #8]	@ float
 202 0078 0A00001A 		bne	.L26
 203 007c 240A9FED 		vldr.32	s0, .L36
 204 0080 08008DE2 		add	r0, sp, #8
 205 0084 FEFFFFEB 		bl	_ZZN6tflite12_GLOBAL__N_137CalculateActivationRangeQuantizedImplE21TfLiteFusedActivationllP12Tf
 206 0088 000055E1 		cmp	r5, r0
 207 008c 005087A5 		strge	r5, [r7]
 208 0090 000087B5 		strlt	r0, [r7]
 209              	.L34:
 210 0094 004086E5 		str	r4, [r6]
 211 0098 100000EA 		b	.L27
 212              	.L31:
 213 009c 7F40A0E3 		mov	r4, #127
 214 00a0 7F50E0E3 		mvn	r5, #127
 215 00a4 EEFFFFEA 		b	.L24
 216              	.L26:
 217 00a8 030051E3 		cmp	r1, #3
 218 00ac 0D00001A 		bne	.L28
 219 00b0 170A9FED 		vldr.32	s0, .L36
 220 00b4 08008DE2 		add	r0, sp, #8
 221 00b8 FEFFFFEB 		bl	_ZZN6tflite12_GLOBAL__N_137CalculateActivationRangeQuantizedImplE21TfLiteFusedActivationllP12Tf
 222 00bc 000055E1 		cmp	r5, r0
 223 00c0 005087A5 		strge	r5, [r7]
 224 00c4 000087B5 		strlt	r0, [r7]
 225 00c8 080AB1EE 		vmov.f32	s0, #6.0e+0
 226              	.L35:
 227 00cc 08008DE2 		add	r0, sp, #8
 228 00d0 FEFFFFEB 		bl	_ZZN6tflite12_GLOBAL__N_137CalculateActivationRangeQuantizedImplE21TfLiteFusedActivationllP12Tf
 229 00d4 000054E1 		cmp	r4, r0
 230 00d8 004086D5 		strle	r4, [r6]
 231 00dc 000086C5 		strgt	r0, [r6]
 232              	.L27:
 233 00e0 0000A0E3 		mov	r0, #0
 234 00e4 DAFFFFEA 		b	.L25
 235              	.L28:
 236 00e8 020051E3 		cmp	r1, #2
 237 00ec 00508715 		strne	r5, [r7]
 238 00f0 E7FFFF1A 		bne	.L34
 239 00f4 000ABFEE 		vmov.f32	s0, #-1.0e+0
 240 00f8 08008DE2 		add	r0, sp, #8
 241 00fc FEFFFFEB 		bl	_ZZN6tflite12_GLOBAL__N_137CalculateActivationRangeQuantizedImplE21TfLiteFusedActivationllP12Tf
 242 0100 000055E1 		cmp	r5, r0
 243 0104 005087A5 		strge	r5, [r7]
 244 0108 000087B5 		strlt	r0, [r7]
 245 010c 000AB7EE 		vmov.f32	s0, #1.0e+0
 246 0110 EDFFFFEA 		b	.L35
 247              	.L37:
 248              		.align	2
 249              	.L36:
 250 0114 00000000 		.word	0
 251 0118 0080FFFF 		.word	-32768
 252 011c 00000000 		.word	.LC4
 253 0120 00000000 		.word	.LC0
 254 0124 43000000 		.word	.LC1
 255              		.fnend
 257              		.section	.text._ZN6tflite37PopulateConvolutionQuantizationParamsEP13TfLiteContextPK12TfLiteTensorS
 258              		.align	2
 259              		.global	_ZN6tflite37PopulateConvolutionQuantizationParamsEP13TfLiteContextPK12TfLiteTensorS4_S4_PS
 260              		.syntax unified
 261              		.arm
 262              		.fpu neon
 264              	_ZN6tflite37PopulateConvolutionQuantizationParamsEP13TfLiteContextPK12TfLiteTensorS4_S4_PS2_RK21TfL
 265              		.fnstart
 266              	.LFB4037:
 267              		@ args = 36, pretend = 0, frame = 24
 268              		@ frame_needed = 0, uses_anonymous_args = 0
 269 0000 F04F2DE9 		push	{r4, r5, r6, r7, r8, r9, r10, fp, lr}
 270              		.save {r4, r5, r6, r7, r8, r9, r10, fp, lr}
 271 0004 0050A0E1 		mov	r5, r0
 272 0008 3090D1E5 		ldrb	r9, [r1, #48]	@ zero_extendqisi2
 273 000c 028B2DED 		vpush.64	{d8}
 274              		.vsave {d8}
 275              		.pad #44
 276 0010 2CD04DE2 		sub	sp, sp, #44
 277 0014 010059E3 		cmp	r9, #1
 278 0018 58A09DE5 		ldr	r10, [sp, #88]
 279 001c 78809DE5 		ldr	r8, [sp, #120]
 280 0020 0C00000A 		beq	.L39
 281 0024 B8329FE5 		ldr	r3, .L59
 282 0028 0140A0E3 		mov	r4, #1
 283 002c 0C408DE5 		str	r4, [sp, #12]
 284 0030 08908DE5 		str	r9, [sp, #8]
 285 0034 04308DE5 		str	r3, [sp, #4]
 286 0038 A8329FE5 		ldr	r3, .L59+4
 287 003c 00308DE5 		str	r3, [sp]
 288 0040 3130A0E3 		mov	r3, #49
 289 0044 145090E5 		ldr	r5, [r0, #20]
 290              	.L57:
 291 0048 9C229FE5 		ldr	r2, .L59+8
 292 004c 9C129FE5 		ldr	r1, .L59+12
 293 0050 35FF2FE1 		blx	r5
 294 0054 1B0000EA 		b	.L40
 295              	.L39:
 296 0058 3040D2E5 		ldrb	r4, [r2, #48]	@ zero_extendqisi2
 297 005c 0270A0E1 		mov	r7, r2
 298 0060 010054E3 		cmp	r4, #1
 299 0064 0C00000A 		beq	.L41
 300 0068 74329FE5 		ldr	r3, .L59
 301 006c 0C908DE5 		str	r9, [sp, #12]
 302 0070 08408DE5 		str	r4, [sp, #8]
 303 0074 04308DE5 		str	r3, [sp, #4]
 304 0078 74329FE5 		ldr	r3, .L59+16
 305 007c 68229FE5 		ldr	r2, .L59+8
 306 0080 68129FE5 		ldr	r1, .L59+12
 307 0084 00308DE5 		str	r3, [sp]
 308 0088 3330A0E3 		mov	r3, #51
 309 008c 144090E5 		ldr	r4, [r0, #20]
 310 0090 34FF2FE1 		blx	r4
 311              	.L56:
 312 0094 0140A0E3 		mov	r4, #1
 313 0098 0A0000EA 		b	.L40
 314              	.L41:
 315 009c 0160A0E1 		mov	r6, r1
 316 00a0 341092E5 		ldr	r1, [r2, #52]
 317 00a4 000051E3 		cmp	r1, #0
 318 00a8 0A00001A 		bne	.L42
 319 00ac 44329FE5 		ldr	r3, .L59+20
 320 00b0 00308DE5 		str	r3, [sp]
 321 00b4 3D30A0E3 		mov	r3, #61
 322 00b8 145090E5 		ldr	r5, [r0, #20]
 323              	.L58:
 324 00bc 28229FE5 		ldr	r2, .L59+8
 325 00c0 34129FE5 		ldr	r1, .L59+24
 326 00c4 35FF2FE1 		blx	r5
 327              	.L40:
 328 00c8 0400A0E1 		mov	r0, r4
 329 00cc 2CD08DE2 		add	sp, sp, #44
 330              		@ sp needed
 331 00d0 028BBDEC 		vldm	sp!, {d8}
 332 00d4 F08FBDE8 		pop	{r4, r5, r6, r7, r8, r9, r10, fp, pc}
 333              	.L42:
 334 00d8 009091E5 		ldr	r9, [r1]
 335 00dc 000059E3 		cmp	r9, #0
 336 00e0 18329F05 		ldreq	r3, .L59+28
 337 00e4 00308D05 		streq	r3, [sp]
 338 00e8 3E30A003 		moveq	r3, #62
 339 00ec 14509005 		ldreq	r5, [r0, #20]
 340 00f0 F1FFFF0A 		beq	.L58
 341              	.L43:
 342 00f4 00B099E5 		ldr	fp, [r9]
 343 00f8 01005BE3 		cmp	fp, #1
 344 00fc 320000DA 		ble	.L44
 345 0100 0020D6E5 		ldrb	r2, [r6]	@ zero_extendqisi2
 346 0104 090052E3 		cmp	r2, #9
 347 0108 0900000A 		beq	.L45
 348 010c 0930A0E3 		mov	r3, #9
 349 0110 08208DE5 		str	r2, [sp, #8]
 350 0114 0C308DE5 		str	r3, [sp, #12]
 351 0118 E4319FE5 		ldr	r3, .L59+32
 352 011c 04308DE5 		str	r3, [sp, #4]
 353 0120 E0319FE5 		ldr	r3, .L59+36
 354 0124 00308DE5 		str	r3, [sp]
 355 0128 4230A0E3 		mov	r3, #66
 356 012c 145090E5 		ldr	r5, [r0, #20]
 357 0130 C4FFFFEA 		b	.L57
 358              	.L45:
 359 0134 00C0D7E5 		ldrb	ip, [r7]	@ zero_extendqisi2
 360 0138 09005CE3 		cmp	ip, #9
 361 013c 0800000A 		beq	.L46
 362 0140 BC319FE5 		ldr	r3, .L59+32
 363 0144 0C208DE5 		str	r2, [sp, #12]
 364 0148 08C08DE5 		str	ip, [sp, #8]
 365 014c 04308DE5 		str	r3, [sp, #4]
 366 0150 B4319FE5 		ldr	r3, .L59+40
 367 0154 00308DE5 		str	r3, [sp]
 368 0158 4330A0E3 		mov	r3, #67
 369 015c 145090E5 		ldr	r5, [r0, #20]
 370 0160 B8FFFFEA 		b	.L57
 371              	.L46:
 372 0164 0B0058E1 		cmp	r8, fp
 373 0168 0800000A 		beq	.L47
 374 016c 9C319FE5 		ldr	r3, .L59+44
 375 0170 0C808DE5 		str	r8, [sp, #12]
 376 0174 08B08DE5 		str	fp, [sp, #8]
 377 0178 04308DE5 		str	r3, [sp, #4]
 378 017c 90319FE5 		ldr	r3, .L59+48
 379 0180 00308DE5 		str	r3, [sp]
 380 0184 4430A0E3 		mov	r3, #68
 381 0188 145090E5 		ldr	r5, [r0, #20]
 382 018c ADFFFFEA 		b	.L57
 383              	.L47:
 384 0190 082097E5 		ldr	r2, [r7, #8]
 385 0194 081091E5 		ldr	r1, [r1, #8]
 386 0198 012182E0 		add	r2, r2, r1, lsl #2
 387 019c 042092E5 		ldr	r2, [r2, #4]
 388 01a0 020058E1 		cmp	r8, r2
 389 01a4 0800000A 		beq	.L44
 390 01a8 68319FE5 		ldr	r3, .L59+52
 391 01ac 0C208DE5 		str	r2, [sp, #12]
 392 01b0 08808DE5 		str	r8, [sp, #8]
 393 01b4 04308DE5 		str	r3, [sp, #4]
 394 01b8 50319FE5 		ldr	r3, .L59+44
 395 01bc 00308DE5 		str	r3, [sp]
 396 01c0 4730A0E3 		mov	r3, #71
 397 01c4 145090E5 		ldr	r5, [r0, #20]
 398 01c8 9EFFFFEA 		b	.L57
 399              	.L44:
 400 01cc 038AD6ED 		vldr.32	s17, [r6, #12]
 401 01d0 042089E2 		add	r2, r9, #4
 402 01d4 038A9AED 		vldr.32	s16, [r10, #12]
 403 01d8 0040A0E3 		mov	r4, #0
 404              	.L51:
 405 01dc 040058E1 		cmp	r8, r4
 406 01e0 170000DA 		ble	.L48
 407 01e4 01005BE3 		cmp	fp, #1
 408 01e8 20108DE2 		add	r1, sp, #32
 409 01ec 000A92CD 		vldrgt.32	s0, [r2]
 410 01f0 1C008DE2 		add	r0, sp, #28
 411 01f4 010A99DD 		vldrle.32	s0, [r9, #4]
 412 01f8 14308DE5 		str	r3, [sp, #20]
 413 01fc 10208DE5 		str	r2, [sp, #16]
 414 0200 C00AF7EE 		vcvt.f64.f32	d16, s0
 415 0204 E80AB7EE 		vcvt.f64.f32	d0, s17
 416 0208 800B60EE 		vmul.f64	d16, d16, d0
 417 020c C80AB7EE 		vcvt.f64.f32	d0, s16
 418 0210 800B80EE 		vdiv.f64	d0, d16, d0
 419 0214 FEFFFFEB 		bl	_ZN6tflite18QuantizeMultiplierEdPlPi
 420 0218 1C109DE5 		ldr	r1, [sp, #28]
 421 021c 70309DE5 		ldr	r3, [sp, #112]
 422 0220 10209DE5 		ldr	r2, [sp, #16]
 423 0224 041183E7 		str	r1, [r3, r4, lsl #2]
 424 0228 74309DE5 		ldr	r3, [sp, #116]
 425 022c 042082E2 		add	r2, r2, #4
 426 0230 20109DE5 		ldr	r1, [sp, #32]
 427 0234 041183E7 		str	r1, [r3, r4, lsl #2]
 428 0238 014084E2 		add	r4, r4, #1
 429 023c 14309DE5 		ldr	r3, [sp, #20]
 430 0240 E5FFFFEA 		b	.L51
 431              	.L48:
 432 0244 0020D6E5 		ldrb	r2, [r6]	@ zero_extendqisi2
 433 0248 030052E3 		cmp	r2, #3
 434 024c 1300001A 		bne	.L52
 435 0250 28208DE2 		add	r2, sp, #40
 436 0254 0000A0E3 		mov	r0, #0
 437 0258 0010A0E3 		mov	r1, #0
 438 025c F80062E1 		strd	r0, [r2, #-8]!
 439 0260 0610A0E1 		mov	r1, r6
 440 0264 04208DE5 		str	r2, [sp, #4]
 441 0268 0500A0E1 		mov	r0, r5
 442 026c 00A08DE5 		str	r10, [sp]
 443 0270 0720A0E1 		mov	r2, r7
 444 0274 FEFFFFEB 		bl	_ZN6tflite32GetQuantizedConvolutionMultiplerEP13TfLiteContextPK12TfLiteTensorS4_S4_PS2_Pd
 445 0278 000050E3 		cmp	r0, #0
 446 027c 84FFFF1A 		bne	.L56
 447 0280 1C108DE2 		add	r1, sp, #28
 448 0284 60009DE5 		ldr	r0, [sp, #96]
 449 0288 080B9DED 		vldr.64	d0, [sp, #32]
 450 028c FEFFFFEB 		bl	_ZN6tflite18QuantizeMultiplierEdPlPi
 451 0290 1C309DE5 		ldr	r3, [sp, #28]
 452 0294 64209DE5 		ldr	r2, [sp, #100]
 453 0298 003063E2 		rsb	r3, r3, #0
 454 029c 003082E5 		str	r3, [r2]
 455              	.L52:
 456 02a0 0040D6E5 		ldrb	r4, [r6]	@ zero_extendqisi2
 457 02a4 030054E3 		cmp	r4, #3
 458 02a8 09005413 		cmpne	r4, #9
 459 02ac 0140A003 		moveq	r4, #1
 460 02b0 0040A013 		movne	r4, #0
 461 02b4 83FFFF1A 		bne	.L40
 462 02b8 5C309DE5 		ldr	r3, [sp, #92]
 463 02bc 0A20A0E1 		mov	r2, r10
 464 02c0 0500A0E1 		mov	r0, r5
 465 02c4 0010D3E5 		ldrb	r1, [r3]	@ zero_extendqisi2
 466 02c8 6C309DE5 		ldr	r3, [sp, #108]
 467 02cc 00308DE5 		str	r3, [sp]
 468 02d0 68309DE5 		ldr	r3, [sp, #104]
 469 02d4 FEFFFFEB 		bl	_ZN6tflite33CalculateActivationRangeQuantizedEP13TfLiteContext21TfLiteFusedActivationP12TfLiteT
 470 02d8 004090E2 		adds	r4, r0, #0
 471 02dc 0140A013 		movne	r4, #1
 472 02e0 78FFFFEA 		b	.L40
 473              	.L60:
 474              		.align	2
 475              	.L59:
 476 02e4 1A000000 		.word	.LC6
 477 02e8 34000000 		.word	.LC7
 478 02ec 00000000 		.word	.LC0
 479 02f0 00000000 		.word	.LC5
 480 02f4 4D000000 		.word	.LC8
 481 02f8 67000000 		.word	.LC9
 482 02fc 43000000 		.word	.LC1
 483 0300 7B000000 		.word	.LC10
 484 0304 96000000 		.word	.LC11
 485 0308 A2000000 		.word	.LC12
 486 030c AE000000 		.word	.LC13
 487 0310 BB000000 		.word	.LC14
 488 0314 C8000000 		.word	.LC15
 489 0318 E9000000 		.word	.LC16
 490              		.fnend
 492              		.section	.text._ZN6tflite37PopulateConvolutionQuantizationParamsEP13TfLiteContextPK12TfLiteTensorS
 493              		.align	2
 494              		.global	_ZN6tflite37PopulateConvolutionQuantizationParamsEP13TfLiteContextPK12TfLiteTensorS4_S4_PS
 495              		.syntax unified
 496              		.arm
 497              		.fpu neon
 499              	_ZN6tflite37PopulateConvolutionQuantizationParamsEP13TfLiteContextPK12TfLiteTensorS4_S4_PS2_RK21TfL
 500              		.fnstart
 501              	.LFB4036:
 502              		@ args = 32, pretend = 0, frame = 0
 503              		@ frame_needed = 0, uses_anonymous_args = 0
 504 0000 34C092E5 		ldr	ip, [r2, #52]
 505 0004 04E02DE5 		str	lr, [sp, #-4]!
 506              		.save {lr}
 507              		.pad #44
 508 0008 2CD04DE2 		sub	sp, sp, #44
 509 000c 00C09CE5 		ldr	ip, [ip]
 510 0010 00C09CE5 		ldr	ip, [ip]
 511 0014 20C08DE5 		str	ip, [sp, #32]
 512 0018 4CC09DE5 		ldr	ip, [sp, #76]
 513 001c 1CC08DE5 		str	ip, [sp, #28]
 514 0020 48C09DE5 		ldr	ip, [sp, #72]
 515 0024 18C08DE5 		str	ip, [sp, #24]
 516 0028 44C09DE5 		ldr	ip, [sp, #68]
 517 002c 14C08DE5 		str	ip, [sp, #20]
 518 0030 40C09DE5 		ldr	ip, [sp, #64]
 519 0034 10C08DE5 		str	ip, [sp, #16]
 520 0038 3CC09DE5 		ldr	ip, [sp, #60]
 521 003c 0CC08DE5 		str	ip, [sp, #12]
 522 0040 38C09DE5 		ldr	ip, [sp, #56]
 523 0044 08C08DE5 		str	ip, [sp, #8]
 524 0048 34C09DE5 		ldr	ip, [sp, #52]
 525 004c 04C08DE5 		str	ip, [sp, #4]
 526 0050 30C09DE5 		ldr	ip, [sp, #48]
 527 0054 00C08DE5 		str	ip, [sp]
 528 0058 FEFFFFEB 		bl	_ZN6tflite37PopulateConvolutionQuantizationParamsEP13TfLiteContextPK12TfLiteTensorS4_S4_PS2_RK2
 529 005c 2CD08DE2 		add	sp, sp, #44
 530              		@ sp needed
 531 0060 04F09DE4 		ldr	pc, [sp], #4
 532              		.fnend
 534              		.section	.text._ZN6tflite14HaveSameShapesEPK12TfLiteTensorS2_,"ax",%progbits
 535              		.align	2
 536              		.global	_ZN6tflite14HaveSameShapesEPK12TfLiteTensorS2_
 537              		.syntax unified
 538              		.arm
 539              		.fpu neon
 541              	_ZN6tflite14HaveSameShapesEPK12TfLiteTensorS2_:
 542              		.fnstart
 543              	.LFB4046:
 544              		@ args = 0, pretend = 0, frame = 0
 545              		@ frame_needed = 0, uses_anonymous_args = 0
 546 0000 10402DE9 		push	{r4, lr}
 547              		.save {r4, lr}
 548 0004 081091E5 		ldr	r1, [r1, #8]
 549 0008 080090E5 		ldr	r0, [r0, #8]
 550 000c FEFFFFEB 		bl	TfLiteIntArrayEqual
 551 0010 000090E2 		adds	r0, r0, #0
 552 0014 0100A013 		movne	r0, #1
 553 0018 1080BDE8 		pop	{r4, pc}
 554              		.fnend
 556              		.section	.text._ZNSt10unique_ptrI14TfLiteIntArrayPFvPS0_EED2Ev,"axG",%progbits,_ZNSt10unique_ptrI1
 557              		.align	2
 558              		.weak	_ZNSt10unique_ptrI14TfLiteIntArrayPFvPS0_EED2Ev
 559              		.syntax unified
 560              		.arm
 561              		.fpu neon
 563              	_ZNSt10unique_ptrI14TfLiteIntArrayPFvPS0_EED2Ev:
 564              		.fnstart
 565              	.LFB4400:
 566              		@ args = 0, pretend = 0, frame = 0
 567              		@ frame_needed = 0, uses_anonymous_args = 0
 568 0000 10402DE9 		push	{r4, lr}
 569              		.save {r4, lr}
 570 0004 0040A0E1 		mov	r4, r0
 571 0008 040090E5 		ldr	r0, [r0, #4]
 572 000c 000050E3 		cmp	r0, #0
 573 0010 0100000A 		beq	.L66
 574 0014 003094E5 		ldr	r3, [r4]
 575 0018 33FF2FE1 		blx	r3
 576              	.L66:
 577 001c 0400A0E1 		mov	r0, r4
 578 0020 1080BDE8 		pop	{r4, pc}
 579              		.global	__gxx_personality_v0
 580              		.personality	__gxx_personality_v0
 581              		.handlerdata
 582              	.LLSDA4400:
 583 0008 FF       		.byte	0xff
 584 0009 FF       		.byte	0xff
 585 000a 01       		.byte	0x1
 586 000b 00       		.uleb128 .LLSDACSE4400-.LLSDACSB4400
 587              	.LLSDACSB4400:
 588              	.LLSDACSE4400:
 589              		.section	.text._ZNSt10unique_ptrI14TfLiteIntArrayPFvPS0_EED2Ev,"axG",%progbits,_ZNSt10unique_ptrI1
 590              		.fnend
 592              		.weak	_ZNSt10unique_ptrI14TfLiteIntArrayPFvPS0_EED1Ev
 593              		.set	_ZNSt10unique_ptrI14TfLiteIntArrayPFvPS0_EED1Ev,_ZNSt10unique_ptrI14TfLiteIntArrayPFvPS0_EED2
 594              		.section	.text._ZN6tflite26CalculateShapeForBroadcastEP13TfLiteContextPK12TfLiteTensorS4_PP14TfLit
 595              		.align	2
 596              		.global	_ZN6tflite26CalculateShapeForBroadcastEP13TfLiteContextPK12TfLiteTensorS4_PP14TfLiteIntArr
 597              		.syntax unified
 598              		.arm
 599              		.fpu neon
 601              	_ZN6tflite26CalculateShapeForBroadcastEP13TfLiteContextPK12TfLiteTensorS4_PP14TfLiteIntArray:
 602              		.fnstart
 603              	.LFB4047:
 604              		@ args = 0, pretend = 0, frame = 16
 605              		@ frame_needed = 0, uses_anonymous_args = 0
 606 0000 F04F2DE9 		push	{r4, r5, r6, r7, r8, r9, r10, fp, lr}
 607              		.save {r4, r5, r6, r7, r8, r9, r10, fp, lr}
 608 0004 0070A0E1 		mov	r7, r0
 609 0008 080091E5 		ldr	r0, [r1, #8]
 610 000c 0180A0E1 		mov	r8, r1
 611              		.pad #28
 612 0010 1CD04DE2 		sub	sp, sp, #28
 613 0014 0290A0E1 		mov	r9, r2
 614 0018 0360A0E1 		mov	r6, r3
 615 001c 00C0A0E3 		mov	ip, #0
 616 0020 0010A0E1 		mov	r1, r0
 617 0024 0140A0E3 		mov	r4, #1
 618 0028 04A091E4 		ldr	r10, [r1], #4
 619 002c 0050A0E3 		mov	r5, #0
 620              	.L73:
 621 0030 0C005AE1 		cmp	r10, ip
 622 0034 070000DA 		ble	.L72
 623 0038 04E091E4 		ldr	lr, [r1], #4
 624 003c 01C08CE2 		add	ip, ip, #1
 625 0040 CE3FA0E1 		asr	r3, lr, #31
 626 0044 940303E0 		mul	r3, r4, r3
 627 0048 9E3523E0 		mla	r3, lr, r5, r3
 628 004c 944E85E0 		umull	r4, r5, r4, lr
 629 0050 055083E0 		add	r5, r3, r5
 630 0054 F5FFFFEA 		b	.L73
 631              	.L72:
 632 0058 053094E1 		orrs	r3, r4, r5
 633 005c 0500001A 		bne	.L74
 634 0060 0040A0E3 		mov	r4, #0
 635              	.LEHB0:
 636 0064 FEFFFFEB 		bl	TfLiteIntArrayCopy
 637 0068 000086E5 		str	r0, [r6]
 638              	.L89:
 639 006c 0400A0E1 		mov	r0, r4
 640 0070 1CD08DE2 		add	sp, sp, #28
 641              		@ sp needed
 642 0074 F08FBDE8 		pop	{r4, r5, r6, r7, r8, r9, r10, fp, pc}
 643              	.L74:
 644 0078 083099E5 		ldr	r3, [r9, #8]
 645 007c 004093E5 		ldr	r4, [r3]
 646 0080 0A0054E1 		cmp	r4, r10
 647 0084 0450A0A1 		movge	r5, r4
 648 0088 0A50A0B1 		movlt	r5, r10
 649 008c 0500A0E1 		mov	r0, r5
 650 0090 FEFFFFEB 		bl	TfLiteIntArrayCreate
 651              	.LEHE0:
 652 0094 DC309FE5 		ldr	r3, .L93
 653 0098 05B180E0 		add	fp, r0, r5, lsl #2
 654 009c 01C044E2 		sub	ip, r4, #1
 655 00a0 14008DE5 		str	r0, [sp, #20]
 656 00a4 04204AE0 		sub	r2, r10, r4
 657 00a8 10308DE5 		str	r3, [sp, #16]
 658 00ac 0030A0E3 		mov	r3, #0
 659 00b0 0C208DE5 		str	r2, [sp, #12]
 660              	.L81:
 661 00b4 050053E1 		cmp	r3, r5
 662 00b8 230000AA 		bge	.L76
 663 00bc 0A0053E1 		cmp	r3, r10
 664 00c0 082098B5 		ldrlt	r2, [r8, #8]
 665 00c4 0110A0A3 		movge	r1, #1
 666 00c8 0C109DB5 		ldrlt	r1, [sp, #12]
 667 00cc 0C1081B0 		addlt	r1, r1, ip
 668 00d0 012182B0 		addlt	r2, r2, r1, lsl #2
 669 00d4 041092B5 		ldrlt	r1, [r2, #4]
 670 00d8 040053E1 		cmp	r3, r4
 671 00dc 082099B5 		ldrlt	r2, [r9, #8]
 672 00e0 0120A0A3 		movge	r2, #1
 673 00e4 0C2182B0 		addlt	r2, r2, ip, lsl #2
 674 00e8 01C04CE2 		sub	ip, ip, #1
 675 00ec 042092B5 		ldrlt	r2, [r2, #4]
 676 00f0 020051E1 		cmp	r1, r2
 677 00f4 01005213 		cmpne	r2, #1
 678 00f8 01E0A013 		movne	lr, #1
 679 00fc 00E0A003 		moveq	lr, #0
 680 0100 010051E3 		cmp	r1, #1
 681 0104 00E0A003 		moveq	lr, #0
 682 0108 01E00E12 		andne	lr, lr, #1
 683 010c 00005EE3 		cmp	lr, #0
 684 0110 0800000A 		beq	.L79
 685 0114 60309FE5 		ldr	r3, .L93+4
 686 0118 0700A0E1 		mov	r0, r7
 687 011c 144097E5 		ldr	r4, [r7, #20]
 688 0120 58209FE5 		ldr	r2, .L93+8
 689 0124 00308DE5 		str	r3, [sp]
 690 0128 E030A0E3 		mov	r3, #224
 691 012c 50109FE5 		ldr	r1, .L93+12
 692              	.LEHB1:
 693 0130 34FF2FE1 		blx	r4
 694              	.LEHE1:
 695 0134 0A0000EA 		b	.L92
 696              	.L79:
 697 0138 020051E1 		cmp	r1, r2
 698 013c 04100BA4 		strge	r1, [fp], #-4
 699 0140 04200BB4 		strlt	r2, [fp], #-4
 700 0144 013083E2 		add	r3, r3, #1
 701 0148 D9FFFFEA 		b	.L81
 702              	.L76:
 703 014c 0040A0E3 		mov	r4, #0
 704 0150 000086E5 		str	r0, [r6]
 705 0154 14408DE5 		str	r4, [sp, #20]
 706              	.L80:
 707 0158 10008DE2 		add	r0, sp, #16
 708 015c FEFFFFEB 		bl	_ZNSt10unique_ptrI14TfLiteIntArrayPFvPS0_EED1Ev
 709 0160 C1FFFFEA 		b	.L89
 710              	.L92:
 711 0164 0140A0E3 		mov	r4, #1
 712 0168 FAFFFFEA 		b	.L80
 713              	.L86:
 714 016c 10008DE2 		add	r0, sp, #16
 715 0170 FEFFFFEB 		bl	_ZNSt10unique_ptrI14TfLiteIntArrayPFvPS0_EED1Ev
 716              	.LEHB2:
 717 0174 FEFFFFEB 		bl	__cxa_end_cleanup
 718              	.LEHE2:
 719              	.L94:
 720              		.align	2
 721              	.L93:
 722 0178 00000000 		.word	TfLiteIntArrayFree
 723 017c 00000000 		.word	.LC17
 724 0180 00000000 		.word	.LC0
 725 0184 43000000 		.word	.LC1
 726              		.personality	__gxx_personality_v0
 727              		.handlerdata
 728              	.LLSDA4047:
 729 0008 FF       		.byte	0xff
 730 0009 FF       		.byte	0xff
 731 000a 01       		.byte	0x1
 732 000b 0F       		.uleb128 .LLSDACSE4047-.LLSDACSB4047
 733              	.LLSDACSB4047:
 734 000c 64       		.uleb128 .LEHB0-.LFB4047
 735 000d 30       		.uleb128 .LEHE0-.LEHB0
 736 000e 00       		.uleb128 0
 737 000f 00       		.uleb128 0
 738 0010 B002     		.uleb128 .LEHB1-.LFB4047
 739 0012 04       		.uleb128 .LEHE1-.LEHB1
 740 0013 EC02     		.uleb128 .L86-.LFB4047
 741 0015 00       		.uleb128 0
 742 0016 F402     		.uleb128 .LEHB2-.LFB4047
 743 0018 04       		.uleb128 .LEHE2-.LEHB2
 744 0019 00       		.uleb128 0
 745 001a 00       		.uleb128 0
 746              	.LLSDACSE4047:
 747              		.section	.text._ZN6tflite26CalculateShapeForBroadcastEP13TfLiteContextPK12TfLiteTensorS4_PP14TfLit
 748              		.fnend
 750              		.section	.text._ZN6tflite26CalculateShapeForBroadcastEP13TfLiteContextPK12TfLiteTensorS4_S4_PP14Tf
 751              		.align	2
 752              		.global	_ZN6tflite26CalculateShapeForBroadcastEP13TfLiteContextPK12TfLiteTensorS4_S4_PP14TfLiteInt
 753              		.syntax unified
 754              		.arm
 755              		.fpu neon
 757              	_ZN6tflite26CalculateShapeForBroadcastEP13TfLiteContextPK12TfLiteTensorS4_S4_PP14TfLiteIntArray:
 758              		.fnstart
 759              	.LFB4049:
 760              		@ args = 4, pretend = 0, frame = 32
 761              		@ frame_needed = 0, uses_anonymous_args = 0
 762 0000 F04F2DE9 		push	{r4, r5, r6, r7, r8, r9, r10, fp, lr}
 763              		.save {r4, r5, r6, r7, r8, r9, r10, fp, lr}
 764 0004 02B0A0E1 		mov	fp, r2
 765 0008 082091E5 		ldr	r2, [r1, #8]
 766              		.pad #44
 767 000c 2CD04DE2 		sub	sp, sp, #44
 768 0010 0050A0E1 		mov	r5, r0
 769 0014 01A0A0E1 		mov	r10, r1
 770 0018 1C308DE5 		str	r3, [sp, #28]
 771 001c 009092E5 		ldr	r9, [r2]
 772 0020 08209BE5 		ldr	r2, [fp, #8]
 773 0024 008092E5 		ldr	r8, [r2]
 774 0028 082093E5 		ldr	r2, [r3, #8]
 775 002c 004092E5 		ldr	r4, [r2]
 776 0030 040058E1 		cmp	r8, r4
 777 0034 016044E2 		sub	r6, r4, #1
 778 0038 0820A0A1 		movge	r2, r8
 779 003c 0420A0B1 		movlt	r2, r4
 780 0040 090052E1 		cmp	r2, r9
 781 0044 0230A0A1 		movge	r3, r2
 782 0048 0930A0B1 		movlt	r3, r9
 783 004c 0300A0E1 		mov	r0, r3
 784 0050 0C308DE5 		str	r3, [sp, #12]
 785              	.LEHB3:
 786 0054 FEFFFFEB 		bl	TfLiteIntArrayCreate
 787              	.LEHE3:
 788 0058 0C309DE5 		ldr	r3, [sp, #12]
 789 005c 00E0A0E3 		mov	lr, #0
 790 0060 44219FE5 		ldr	r2, .L118
 791 0064 24008DE5 		str	r0, [sp, #36]
 792 0068 033180E0 		add	r3, r0, r3, lsl #2
 793 006c 20208DE5 		str	r2, [sp, #32]
 794 0070 10308DE5 		str	r3, [sp, #16]
 795 0074 043049E0 		sub	r3, r9, r4
 796 0078 14308DE5 		str	r3, [sp, #20]
 797 007c 043048E0 		sub	r3, r8, r4
 798 0080 18308DE5 		str	r3, [sp, #24]
 799 0084 1C309DE5 		ldr	r3, [sp, #28]
 800              	.L104:
 801 0088 0C209DE5 		ldr	r2, [sp, #12]
 802 008c 02005EE1 		cmp	lr, r2
 803 0090 3D0000AA 		bge	.L96
 804 0094 09005EE1 		cmp	lr, r9
 805 0098 08209AB5 		ldrlt	r2, [r10, #8]
 806 009c 0110A0A3 		movge	r1, #1
 807 00a0 14109DB5 		ldrlt	r1, [sp, #20]
 808 00a4 061081B0 		addlt	r1, r1, r6
 809 00a8 012182B0 		addlt	r2, r2, r1, lsl #2
 810 00ac 041092B5 		ldrlt	r1, [r2, #4]
 811 00b0 08005EE1 		cmp	lr, r8
 812 00b4 18C09DB5 		ldrlt	ip, [sp, #24]
 813 00b8 0120A0A3 		movge	r2, #1
 814 00bc 08209BB5 		ldrlt	r2, [fp, #8]
 815 00c0 06C08CB0 		addlt	ip, ip, r6
 816 00c4 0C2182B0 		addlt	r2, r2, ip, lsl #2
 817 00c8 042092B5 		ldrlt	r2, [r2, #4]
 818 00cc 04005EE1 		cmp	lr, r4
 819 00d0 08C093B5 		ldrlt	ip, [r3, #8]
 820 00d4 0170A0A3 		movge	r7, #1
 821 00d8 06C18CB0 		addlt	ip, ip, r6, lsl #2
 822 00dc 04709CB5 		ldrlt	r7, [ip, #4]
 823 00e0 020051E1 		cmp	r1, r2
 824 00e4 02C0A0B1 		movlt	ip, r2
 825 00e8 01C0A0A1 		movge	ip, r1
 826 00ec 07005CE1 		cmp	ip, r7
 827 00f0 07C0A0B1 		movlt	ip, r7
 828 00f4 0C0051E1 		cmp	r1, ip
 829 00f8 01005113 		cmpne	r1, #1
 830 00fc 0800000A 		beq	.L100
 831 0100 A8309FE5 		ldr	r3, .L118+4
 832 0104 144095E5 		ldr	r4, [r5, #20]
 833 0108 00308DE5 		str	r3, [sp]
 834 010c F730A0E3 		mov	r3, #247
 835              	.L115:
 836 0110 9C209FE5 		ldr	r2, .L118+8
 837 0114 0500A0E1 		mov	r0, r5
 838 0118 98109FE5 		ldr	r1, .L118+12
 839              	.LEHB4:
 840 011c 34FF2FE1 		blx	r4
 841              	.LEHE4:
 842 0120 130000EA 		b	.L117
 843              	.L100:
 844 0124 0C0052E1 		cmp	r2, ip
 845 0128 01005213 		cmpne	r2, #1
 846 012c 88309F15 		ldrne	r3, .L118+16
 847 0130 14409515 		ldrne	r4, [r5, #20]
 848 0134 00308D15 		strne	r3, [sp]
 849 0138 F830A013 		movne	r3, #248
 850 013c F3FFFF1A 		bne	.L115
 851              	.L102:
 852 0140 0C0057E1 		cmp	r7, ip
 853 0144 01005713 		cmpne	r7, #1
 854 0148 016046E2 		sub	r6, r6, #1
 855 014c 6C309F15 		ldrne	r3, .L118+20
 856 0150 14409515 		ldrne	r4, [r5, #20]
 857 0154 00308D15 		strne	r3, [sp]
 858 0158 F930A013 		movne	r3, #249
 859 015c EBFFFF1A 		bne	.L115
 860              	.L103:
 861 0160 10209DE5 		ldr	r2, [sp, #16]
 862 0164 01E08EE2 		add	lr, lr, #1
 863 0168 04C002E4 		str	ip, [r2], #-4
 864 016c 10208DE5 		str	r2, [sp, #16]
 865 0170 C4FFFFEA 		b	.L104
 866              	.L117:
 867 0174 0140A0E3 		mov	r4, #1
 868              	.L105:
 869 0178 20008DE2 		add	r0, sp, #32
 870 017c FEFFFFEB 		bl	_ZNSt10unique_ptrI14TfLiteIntArrayPFvPS0_EED1Ev
 871 0180 0400A0E1 		mov	r0, r4
 872 0184 2CD08DE2 		add	sp, sp, #44
 873              		@ sp needed
 874 0188 F08FBDE8 		pop	{r4, r5, r6, r7, r8, r9, r10, fp, pc}
 875              	.L96:
 876 018c 50309DE5 		ldr	r3, [sp, #80]
 877 0190 0040A0E3 		mov	r4, #0
 878 0194 24408DE5 		str	r4, [sp, #36]
 879 0198 000083E5 		str	r0, [r3]
 880 019c F5FFFFEA 		b	.L105
 881              	.L110:
 882 01a0 20008DE2 		add	r0, sp, #32
 883 01a4 FEFFFFEB 		bl	_ZNSt10unique_ptrI14TfLiteIntArrayPFvPS0_EED1Ev
 884              	.LEHB5:
 885 01a8 FEFFFFEB 		bl	__cxa_end_cleanup
 886              	.LEHE5:
 887              	.L119:
 888              		.align	2
 889              	.L118:
 890 01ac 00000000 		.word	TfLiteIntArrayFree
 891 01b0 00000000 		.word	.LC18
 892 01b4 00000000 		.word	.LC0
 893 01b8 43000000 		.word	.LC1
 894 01bc 1B000000 		.word	.LC19
 895 01c0 36000000 		.word	.LC20
 896              		.personality	__gxx_personality_v0
 897              		.handlerdata
 898              	.LLSDA4049:
 899 0008 FF       		.byte	0xff
 900 0009 FF       		.byte	0xff
 901 000a 01       		.byte	0x1
 902 000b 0F       		.uleb128 .LLSDACSE4049-.LLSDACSB4049
 903              	.LLSDACSB4049:
 904 000c 54       		.uleb128 .LEHB3-.LFB4049
 905 000d 04       		.uleb128 .LEHE3-.LEHB3
 906 000e 00       		.uleb128 0
 907 000f 00       		.uleb128 0
 908 0010 9C02     		.uleb128 .LEHB4-.LFB4049
 909 0012 04       		.uleb128 .LEHE4-.LEHB4
 910 0013 A003     		.uleb128 .L110-.LFB4049
 911 0015 00       		.uleb128 0
 912 0016 A803     		.uleb128 .LEHB5-.LFB4049
 913 0018 04       		.uleb128 .LEHE5-.LEHB5
 914 0019 00       		.uleb128 0
 915 001a 00       		.uleb128 0
 916              	.LLSDACSE4049:
 917              		.section	.text._ZN6tflite26CalculateShapeForBroadcastEP13TfLiteContextPK12TfLiteTensorS4_S4_PP14Tf
 918              		.fnend
 920              		.weak	_ZN11flatbuffers25flatbuffer_version_stringE
 921              		.section	.data._ZN11flatbuffers25flatbuffer_version_stringE,"aw",%progbits
 922              		.align	2
 925              	_ZN11flatbuffers25flatbuffer_version_stringE:
 926 0000 00000000 		.word	.LC21
 927              		.section	.rodata._ZN6tflite26CalculateShapeForBroadcastEP13TfLiteContextPK12TfLiteTensorS4_PP14TfL
 928              	.LC17:
 929 0000 6431203D 		.ascii	"d1 == d2 || d1 == 1 || d2 == 1\000"
 929      3D206432 
 929      207C7C20 
 929      6431203D 
 929      3D203120 
 930              		.section	.rodata._ZN6tflite26CalculateShapeForBroadcastEP13TfLiteContextPK12TfLiteTensorS4_S4_PP14
 931              	.LC18:
 932 0000 6431203D 		.ascii	"d1 == 1 || d1 == max_value\000"
 932      3D203120 
 932      7C7C2064 
 932      31203D3D 
 932      206D6178 
 933              	.LC19:
 934 001b 6432203D 		.ascii	"d2 == 1 || d2 == max_value\000"
 934      3D203120 
 934      7C7C2064 
 934      32203D3D 
 934      206D6178 
 935              	.LC20:
 936 0036 6433203D 		.ascii	"d3 == 1 || d3 == max_value\000"
 936      3D203120 
 936      7C7C2064 
 936      33203D3D 
 936      206D6178 
 937              		.section	.rodata._ZN6tflite32GetQuantizedConvolutionMultiplerEP13TfLiteContextPK12TfLiteTensorS4_P
 938              	.LC0:
 939 0000 2E2E2F73 		.ascii	"../src/tensorflow_lite/src/tensorflow/lite/kernels/"
 939      72632F74 
 939      656E736F 
 939      72666C6F 
 939      775F6C69 
 940 0033 6B65726E 		.ascii	"kernel_util.cpp\000"
 940      656C5F75 
 940      74696C2E 
 940      63707000 
 941              	.LC1:
 942 0043 25733A25 		.ascii	"%s:%d %s was not true.\000"
 942      64202573 
 942      20776173 
 942      206E6F74 
 942      20747275 
 943              	.LC2:
 944 005a 696E7075 		.ascii	"input_product_scale >= 0\000"
 944      745F7072 
 944      6F647563 
 944      745F7363 
 944      616C6520 
 945              		.section	.rodata._ZN6tflite32GetQuantizedConvolutionMultiplerEP13TfLiteContextPK12TfLiteTensorS4_S
 946              	.LC3:
 947 0000 7374643A 		.ascii	"std::abs(input_product_scale - bias_scale) <= 1e-6 "
 947      3A616273 
 947      28696E70 
 947      75745F70 
 947      726F6475 
 948 0033 2A207374 		.ascii	"* std::min(input_product_scale, bias_scale)\000"
 948      643A3A6D 
 948      696E2869 
 948      6E707574 
 948      5F70726F 
 949              		.section	.rodata._ZN6tflite33CalculateActivationRangeQuantizedEP13TfLiteContext21TfLiteFusedActiva
 950              	.LC4:
 951 0000 66616C73 		.ascii	"false\000"
 951      6500
 952              		.section	.rodata._ZN6tflite37PopulateConvolutionQuantizationParamsEP13TfLiteContextPK12TfLiteTenso
 953              	.LC5:
 954 0000 25733A25 		.ascii	"%s:%d %s != %s (%d != %d)\000"
 954      64202573 
 954      20213D20 
 954      25732028 
 954      25642021 
 955              	.LC6:
 956 001a 6B54664C 		.ascii	"kTfLiteAffineQuantization\000"
 956      69746541 
 956      6666696E 
 956      65517561 
 956      6E74697A 
 957              	.LC7:
 958 0034 696E7075 		.ascii	"input->quantization.type\000"
 958      742D3E71 
 958      75616E74 
 958      697A6174 
 958      696F6E2E 
 959              	.LC8:
 960 004d 66696C74 		.ascii	"filter->quantization.type\000"
 960      65722D3E 
 960      7175616E 
 960      74697A61 
 960      74696F6E 
 961              	.LC9:
 962 0067 61666669 		.ascii	"affine_quantization\000"
 962      6E655F71 
 962      75616E74 
 962      697A6174 
 962      696F6E00 
 963              	.LC10:
 964 007b 61666669 		.ascii	"affine_quantization->scale\000"
 964      6E655F71 
 964      75616E74 
 964      697A6174 
 964      696F6E2D 
 965              	.LC11:
 966 0096 6B54664C 		.ascii	"kTfLiteInt8\000"
 966      69746549 
 966      6E743800 
 967              	.LC12:
 968 00a2 696E7075 		.ascii	"input->type\000"
 968      742D3E74 
 968      79706500 
 969              	.LC13:
 970 00ae 66696C74 		.ascii	"filter->type\000"
 970      65722D3E 
 970      74797065 
 970      00
 971              	.LC14:
 972 00bb 6E756D5F 		.ascii	"num_channels\000"
 972      6368616E 
 972      6E656C73 
 972      00
 973              	.LC15:
 974 00c8 61666669 		.ascii	"affine_quantization->scale->size\000"
 974      6E655F71 
 974      75616E74 
 974      697A6174 
 974      696F6E2D 
 975              	.LC16:
 976 00e9 66696C74 		.ascii	"filter->dims->data[affine_quantization->quantized_d"
 976      65722D3E 
 976      64696D73 
 976      2D3E6461 
 976      74615B61 
 977 011c 696D656E 		.ascii	"imension]\000"
 977      73696F6E 
 977      5D00
 978              		.section	.rodata.str1.1,"aMS",%progbits,1
 979              	.LC21:
 980 0000 466C6174 		.ascii	"FlatBuffers 1.11.0\000"
 980      42756666 
 980      65727320 
 980      312E3131 
 980      2E3000
 981              		.ident	"GCC: (GNU Tools for ARM Embedded Processors 6-2017-q2-update) 6.3.1 20170620 (release) [AR