   1              		.cpu cortex-a9
   2              		.eabi_attribute 28, 1
   3              		.eabi_attribute 20, 1
   4              		.eabi_attribute 21, 1
   5              		.eabi_attribute 23, 3
   6              		.eabi_attribute 24, 1
   7              		.eabi_attribute 25, 1
   8              		.eabi_attribute 26, 1
   9              		.eabi_attribute 30, 2
  10              		.eabi_attribute 34, 0
  11              		.eabi_attribute 18, 4
  12              		.file	"micro_profiler.cpp"
  13              		.text
  14              	.Ltext0:
  15              		.cfi_sections	.debug_frame
  16              		.section	.text._ZN6tflite13MicroProfilerD2Ev,"axG",%progbits,_ZN6tflite13MicroProfilerD5Ev,comdat
  17              		.align	2
  18              		.weak	_ZN6tflite13MicroProfilerD2Ev
  19              		.syntax unified
  20              		.arm
  21              		.fpu neon
  23              	_ZN6tflite13MicroProfilerD2Ev:
  24              		.fnstart
  25              	.LFB26:
  26              		.file 1 "C:/Renesas/e2studio_2021_01_workspace_RZA2M_ANPR/ANPR_RZA2M_RDK/src/tensorflow_lite/src/t
   1:C:/Renesas/e2studio_2021_01_workspace_RZA2M_ANPR/ANPR_RZA2M_RDK/src/tensorflow_lite/src/tensorflow/lite/micro\micro_profiler.h **** /* Copyright 2021 The TensorFlow Authors. All Rights Reserved.
   2:C:/Renesas/e2studio_2021_01_workspace_RZA2M_ANPR/ANPR_RZA2M_RDK/src/tensorflow_lite/src/tensorflow/lite/micro\micro_profiler.h **** 
   3:C:/Renesas/e2studio_2021_01_workspace_RZA2M_ANPR/ANPR_RZA2M_RDK/src/tensorflow_lite/src/tensorflow/lite/micro\micro_profiler.h **** Licensed under the Apache License, Version 2.0 (the "License");
   4:C:/Renesas/e2studio_2021_01_workspace_RZA2M_ANPR/ANPR_RZA2M_RDK/src/tensorflow_lite/src/tensorflow/lite/micro\micro_profiler.h **** you may not use this file except in compliance with the License.
   5:C:/Renesas/e2studio_2021_01_workspace_RZA2M_ANPR/ANPR_RZA2M_RDK/src/tensorflow_lite/src/tensorflow/lite/micro\micro_profiler.h **** You may obtain a copy of the License at
   6:C:/Renesas/e2studio_2021_01_workspace_RZA2M_ANPR/ANPR_RZA2M_RDK/src/tensorflow_lite/src/tensorflow/lite/micro\micro_profiler.h **** 
   7:C:/Renesas/e2studio_2021_01_workspace_RZA2M_ANPR/ANPR_RZA2M_RDK/src/tensorflow_lite/src/tensorflow/lite/micro\micro_profiler.h ****     http://www.apache.org/licenses/LICENSE-2.0
   8:C:/Renesas/e2studio_2021_01_workspace_RZA2M_ANPR/ANPR_RZA2M_RDK/src/tensorflow_lite/src/tensorflow/lite/micro\micro_profiler.h **** 
   9:C:/Renesas/e2studio_2021_01_workspace_RZA2M_ANPR/ANPR_RZA2M_RDK/src/tensorflow_lite/src/tensorflow/lite/micro\micro_profiler.h **** Unless required by applicable law or agreed to in writing, software
  10:C:/Renesas/e2studio_2021_01_workspace_RZA2M_ANPR/ANPR_RZA2M_RDK/src/tensorflow_lite/src/tensorflow/lite/micro\micro_profiler.h **** distributed under the License is distributed on an "AS IS" BASIS,
  11:C:/Renesas/e2studio_2021_01_workspace_RZA2M_ANPR/ANPR_RZA2M_RDK/src/tensorflow_lite/src/tensorflow/lite/micro\micro_profiler.h **** WITHOUT WARRANTIES OR CONDITIONS OF ANY KIND, either express or implied.
  12:C:/Renesas/e2studio_2021_01_workspace_RZA2M_ANPR/ANPR_RZA2M_RDK/src/tensorflow_lite/src/tensorflow/lite/micro\micro_profiler.h **** See the License for the specific language governing permissions and
  13:C:/Renesas/e2studio_2021_01_workspace_RZA2M_ANPR/ANPR_RZA2M_RDK/src/tensorflow_lite/src/tensorflow/lite/micro\micro_profiler.h **** limitations under the License.
  14:C:/Renesas/e2studio_2021_01_workspace_RZA2M_ANPR/ANPR_RZA2M_RDK/src/tensorflow_lite/src/tensorflow/lite/micro\micro_profiler.h **** ==============================================================================*/
  15:C:/Renesas/e2studio_2021_01_workspace_RZA2M_ANPR/ANPR_RZA2M_RDK/src/tensorflow_lite/src/tensorflow/lite/micro\micro_profiler.h **** 
  16:C:/Renesas/e2studio_2021_01_workspace_RZA2M_ANPR/ANPR_RZA2M_RDK/src/tensorflow_lite/src/tensorflow/lite/micro\micro_profiler.h **** #ifndef TENSORFLOW_LITE_MICRO_MICRO_PROFILER_H_
  17:C:/Renesas/e2studio_2021_01_workspace_RZA2M_ANPR/ANPR_RZA2M_RDK/src/tensorflow_lite/src/tensorflow/lite/micro\micro_profiler.h **** #define TENSORFLOW_LITE_MICRO_MICRO_PROFILER_H_
  18:C:/Renesas/e2studio_2021_01_workspace_RZA2M_ANPR/ANPR_RZA2M_RDK/src/tensorflow_lite/src/tensorflow/lite/micro\micro_profiler.h **** 
  19:C:/Renesas/e2studio_2021_01_workspace_RZA2M_ANPR/ANPR_RZA2M_RDK/src/tensorflow_lite/src/tensorflow/lite/micro\micro_profiler.h **** #include <cstdint>
  20:C:/Renesas/e2studio_2021_01_workspace_RZA2M_ANPR/ANPR_RZA2M_RDK/src/tensorflow_lite/src/tensorflow/lite/micro\micro_profiler.h **** 
  21:C:/Renesas/e2studio_2021_01_workspace_RZA2M_ANPR/ANPR_RZA2M_RDK/src/tensorflow_lite/src/tensorflow/lite/micro\micro_profiler.h **** #include "tensorflow/lite/micro/compatibility.h"
  22:C:/Renesas/e2studio_2021_01_workspace_RZA2M_ANPR/ANPR_RZA2M_RDK/src/tensorflow_lite/src/tensorflow/lite/micro\micro_profiler.h **** 
  23:C:/Renesas/e2studio_2021_01_workspace_RZA2M_ANPR/ANPR_RZA2M_RDK/src/tensorflow_lite/src/tensorflow/lite/micro\micro_profiler.h **** namespace tflite {
  24:C:/Renesas/e2studio_2021_01_workspace_RZA2M_ANPR/ANPR_RZA2M_RDK/src/tensorflow_lite/src/tensorflow/lite/micro\micro_profiler.h **** 
  25:C:/Renesas/e2studio_2021_01_workspace_RZA2M_ANPR/ANPR_RZA2M_RDK/src/tensorflow_lite/src/tensorflow/lite/micro\micro_profiler.h **** // MicroProfiler creates a common way to gain fine-grained insight into runtime
  26:C:/Renesas/e2studio_2021_01_workspace_RZA2M_ANPR/ANPR_RZA2M_RDK/src/tensorflow_lite/src/tensorflow/lite/micro\micro_profiler.h **** // performance. Bottleck operators can be identified along with slow code
  27:C:/Renesas/e2studio_2021_01_workspace_RZA2M_ANPR/ANPR_RZA2M_RDK/src/tensorflow_lite/src/tensorflow/lite/micro\micro_profiler.h **** // sections. This can be used in conjunction with running the relevant micro
  28:C:/Renesas/e2studio_2021_01_workspace_RZA2M_ANPR/ANPR_RZA2M_RDK/src/tensorflow_lite/src/tensorflow/lite/micro\micro_profiler.h **** // benchmark to evaluate end-to-end performance.
  29:C:/Renesas/e2studio_2021_01_workspace_RZA2M_ANPR/ANPR_RZA2M_RDK/src/tensorflow_lite/src/tensorflow/lite/micro\micro_profiler.h **** class MicroProfiler {
  30:C:/Renesas/e2studio_2021_01_workspace_RZA2M_ANPR/ANPR_RZA2M_RDK/src/tensorflow_lite/src/tensorflow/lite/micro\micro_profiler.h ****  public:
  31:C:/Renesas/e2studio_2021_01_workspace_RZA2M_ANPR/ANPR_RZA2M_RDK/src/tensorflow_lite/src/tensorflow/lite/micro\micro_profiler.h ****   MicroProfiler() = default;
  32:C:/Renesas/e2studio_2021_01_workspace_RZA2M_ANPR/ANPR_RZA2M_RDK/src/tensorflow_lite/src/tensorflow/lite/micro\micro_profiler.h ****   virtual ~MicroProfiler() = default;
  27              		.loc 1 32 0
  28              		.cfi_startproc
  29              		@ args = 0, pretend = 0, frame = 0
  30              		@ frame_needed = 0, uses_anonymous_args = 0
  31              		@ link register save eliminated.
  32              	.LVL0:
  33              		.loc 1 32 0
  34 0000 1EFF2FE1 		bx	lr
  35              		.cfi_endproc
  36              	.LFE26:
  37              		.cantunwind
  38              		.fnend
  40              		.weak	_ZN6tflite13MicroProfilerD1Ev
  41              		.set	_ZN6tflite13MicroProfilerD1Ev,_ZN6tflite13MicroProfilerD2Ev
  42              		.section	.text._ZN6tflite13MicroProfiler10BeginEventEPKc,"ax",%progbits
  43              		.align	2
  44              		.global	_ZN6tflite13MicroProfiler10BeginEventEPKc
  45              		.syntax unified
  46              		.arm
  47              		.fpu neon
  49              	_ZN6tflite13MicroProfiler10BeginEventEPKc:
  50              		.fnstart
  51              	.LFB21:
  52              		.file 2 "../src/tensorflow_lite/src/tensorflow/lite/micro/micro_profiler.cpp"
   1:../src/tensorflow_lite/src/tensorflow/lite/micro/micro_profiler.cpp **** /* Copyright 2020 The TensorFlow Authors. All Rights Reserved.
   2:../src/tensorflow_lite/src/tensorflow/lite/micro/micro_profiler.cpp **** 
   3:../src/tensorflow_lite/src/tensorflow/lite/micro/micro_profiler.cpp **** Licensed under the Apache License, Version 2.0 (the "License");
   4:../src/tensorflow_lite/src/tensorflow/lite/micro/micro_profiler.cpp **** you may not use this file except in compliance with the License.
   5:../src/tensorflow_lite/src/tensorflow/lite/micro/micro_profiler.cpp **** You may obtain a copy of the License at
   6:../src/tensorflow_lite/src/tensorflow/lite/micro/micro_profiler.cpp **** 
   7:../src/tensorflow_lite/src/tensorflow/lite/micro/micro_profiler.cpp ****     http://www.apache.org/licenses/LICENSE-2.0
   8:../src/tensorflow_lite/src/tensorflow/lite/micro/micro_profiler.cpp **** 
   9:../src/tensorflow_lite/src/tensorflow/lite/micro/micro_profiler.cpp **** Unless required by applicable law or agreed to in writing, software
  10:../src/tensorflow_lite/src/tensorflow/lite/micro/micro_profiler.cpp **** distributed under the License is distributed on an "AS IS" BASIS,
  11:../src/tensorflow_lite/src/tensorflow/lite/micro/micro_profiler.cpp **** WITHOUT WARRANTIES OR CONDITIONS OF ANY KIND, either express or implied.
  12:../src/tensorflow_lite/src/tensorflow/lite/micro/micro_profiler.cpp **** See the License for the specific language governing permissions and
  13:../src/tensorflow_lite/src/tensorflow/lite/micro/micro_profiler.cpp **** limitations under the License.
  14:../src/tensorflow_lite/src/tensorflow/lite/micro/micro_profiler.cpp **** ==============================================================================*/
  15:../src/tensorflow_lite/src/tensorflow/lite/micro/micro_profiler.cpp **** #include "tensorflow/lite/micro/micro_profiler.h"
  16:../src/tensorflow_lite/src/tensorflow/lite/micro/micro_profiler.cpp **** 
  17:../src/tensorflow_lite/src/tensorflow/lite/micro/micro_profiler.cpp **** #include <cstdint>
  18:../src/tensorflow_lite/src/tensorflow/lite/micro/micro_profiler.cpp **** 
  19:../src/tensorflow_lite/src/tensorflow/lite/micro/micro_profiler.cpp **** #include "tensorflow/lite/kernels/internal/compatibility.h"
  20:../src/tensorflow_lite/src/tensorflow/lite/micro/micro_profiler.cpp **** #include "tensorflow/lite/micro/micro_error_reporter.h"
  21:../src/tensorflow_lite/src/tensorflow/lite/micro/micro_profiler.cpp **** #include "tensorflow/lite/micro/micro_time.h"
  22:../src/tensorflow_lite/src/tensorflow/lite/micro/micro_profiler.cpp **** 
  23:../src/tensorflow_lite/src/tensorflow/lite/micro/micro_profiler.cpp **** namespace tflite {
  24:../src/tensorflow_lite/src/tensorflow/lite/micro/micro_profiler.cpp **** 
  25:../src/tensorflow_lite/src/tensorflow/lite/micro/micro_profiler.cpp **** uint32_t MicroProfiler::BeginEvent(const char* tag) {
  53              		.loc 2 25 0
  54              		.cfi_startproc
  55              		@ args = 0, pretend = 0, frame = 0
  56              		@ frame_needed = 0, uses_anonymous_args = 0
  57              	.LVL1:
  26:../src/tensorflow_lite/src/tensorflow/lite/micro/micro_profiler.cpp ****   if (num_events_ == kMaxEvents) {
  58              		.loc 2 26 0
  59 0000 5C3290E5 		ldr	r3, [r0, #604]
  25:../src/tensorflow_lite/src/tensorflow/lite/micro/micro_profiler.cpp ****   if (num_events_ == kMaxEvents) {
  60              		.loc 2 25 0
  61 0004 70402DE9 		push	{r4, r5, r6, lr}
  62              		.save {r4, r5, r6, lr}
  63              		.cfi_def_cfa_offset 16
  64              		.cfi_offset 4, -16
  65              		.cfi_offset 5, -12
  66              		.cfi_offset 6, -8
  67              		.cfi_offset 14, -4
  25:../src/tensorflow_lite/src/tensorflow/lite/micro/micro_profiler.cpp ****   if (num_events_ == kMaxEvents) {
  68              		.loc 2 25 0
  69 0008 0040A0E1 		mov	r4, r0
  70              		.loc 2 26 0
  71 000c 320053E3 		cmp	r3, #50
  27:../src/tensorflow_lite/src/tensorflow/lite/micro/micro_profiler.cpp ****     num_events_ = 0;
  72              		.loc 2 27 0
  73 0010 0020A003 		moveq	r2, #0
  74 0014 0230A001 		moveq	r3, r2
  75 0018 5C228005 		streq	r2, [r0, #604]
  76 001c 035180E0 		add	r5, r0, r3, lsl #2
  28:../src/tensorflow_lite/src/tensorflow/lite/micro/micro_profiler.cpp ****   }
  29:../src/tensorflow_lite/src/tensorflow/lite/micro/micro_profiler.cpp **** 
  30:../src/tensorflow_lite/src/tensorflow/lite/micro/micro_profiler.cpp ****   tags_[num_events_] = tag;
  77              		.loc 2 30 0
  78 0020 041085E5 		str	r1, [r5, #4]
  31:../src/tensorflow_lite/src/tensorflow/lite/micro/micro_profiler.cpp ****   start_ticks_[num_events_] = GetCurrentTimeTicks();
  79              		.loc 2 31 0
  80 0024 FEFFFFEB 		bl	_ZN6tflite19GetCurrentTimeTicksEv
  81              	.LVL2:
  82 0028 CC0085E5 		str	r0, [r5, #204]
  32:../src/tensorflow_lite/src/tensorflow/lite/micro/micro_profiler.cpp ****   end_ticks_[num_events_] = start_ticks_[num_events_] - 1;
  83              		.loc 2 32 0
  84 002c 5C3294E5 		ldr	r3, [r4, #604]
  33:../src/tensorflow_lite/src/tensorflow/lite/micro/micro_profiler.cpp ****   return num_events_++;
  85              		.loc 2 33 0
  86 0030 011083E2 		add	r1, r3, #1
  34:../src/tensorflow_lite/src/tensorflow/lite/micro/micro_profiler.cpp **** }
  87              		.loc 2 34 0
  88 0034 0300A0E1 		mov	r0, r3
  89 0038 033184E0 		add	r3, r4, r3, lsl #2
  32:../src/tensorflow_lite/src/tensorflow/lite/micro/micro_profiler.cpp ****   end_ticks_[num_events_] = start_ticks_[num_events_] - 1;
  90              		.loc 2 32 0
  91 003c CC2093E5 		ldr	r2, [r3, #204]
  92 0040 012042E2 		sub	r2, r2, #1
  93 0044 942183E5 		str	r2, [r3, #404]
  33:../src/tensorflow_lite/src/tensorflow/lite/micro/micro_profiler.cpp ****   return num_events_++;
  94              		.loc 2 33 0
  95 0048 5C1284E5 		str	r1, [r4, #604]
  96              		.loc 2 34 0
  97 004c 7080BDE8 		pop	{r4, r5, r6, pc}
  98              		.cfi_endproc
  99              	.LFE21:
 100              		.fnend
 102              		.section	.text._ZN6tflite13MicroProfiler8EndEventEm,"ax",%progbits
 103              		.align	2
 104              		.global	_ZN6tflite13MicroProfiler8EndEventEm
 105              		.syntax unified
 106              		.arm
 107              		.fpu neon
 109              	_ZN6tflite13MicroProfiler8EndEventEm:
 110              		.fnstart
 111              	.LFB22:
  35:../src/tensorflow_lite/src/tensorflow/lite/micro/micro_profiler.cpp **** 
  36:../src/tensorflow_lite/src/tensorflow/lite/micro/micro_profiler.cpp **** void MicroProfiler::EndEvent(uint32_t event_handle) {
 112              		.loc 2 36 0
 113              		.cfi_startproc
 114              		@ args = 0, pretend = 0, frame = 0
 115              		@ frame_needed = 0, uses_anonymous_args = 0
 116              	.LVL3:
  37:../src/tensorflow_lite/src/tensorflow/lite/micro/micro_profiler.cpp ****   TFLITE_DCHECK(event_handle < kMaxEvents);
 117              		.loc 2 37 0
 118 0000 310051E3 		cmp	r1, #49
  36:../src/tensorflow_lite/src/tensorflow/lite/micro/micro_profiler.cpp ****   TFLITE_DCHECK(event_handle < kMaxEvents);
 119              		.loc 2 36 0
 120 0004 70402DE9 		push	{r4, r5, r6, lr}
 121              		.save {r4, r5, r6, lr}
 122              		.cfi_def_cfa_offset 16
 123              		.cfi_offset 4, -16
 124              		.cfi_offset 5, -12
 125              		.cfi_offset 6, -8
 126              		.cfi_offset 14, -4
 127              		.loc 2 37 0
 128 0008 0500008A 		bhi	.L9
 129 000c 0150A0E1 		mov	r5, r1
 130 0010 0040A0E1 		mov	r4, r0
  38:../src/tensorflow_lite/src/tensorflow/lite/micro/micro_profiler.cpp ****   end_ticks_[event_handle] = GetCurrentTimeTicks();
 131              		.loc 2 38 0
 132 0014 054184E0 		add	r4, r4, r5, lsl #2
 133 0018 FEFFFFEB 		bl	_ZN6tflite19GetCurrentTimeTicksEv
 134              	.LVL4:
 135 001c 940184E5 		str	r0, [r4, #404]
 136 0020 7080BDE8 		pop	{r4, r5, r6, pc}
 137              	.LVL5:
 138              	.L9:
  37:../src/tensorflow_lite/src/tensorflow/lite/micro/micro_profiler.cpp ****   TFLITE_DCHECK(event_handle < kMaxEvents);
 139              		.loc 2 37 0 discriminator 1
 140 0024 FEFFFFEB 		bl	abort
 141              	.LVL6:
 142              		.cfi_endproc
 143              	.LFE22:
 144              		.fnend
 146              		.section	.text._ZN6tflite13MicroProfilerD0Ev,"axG",%progbits,_ZN6tflite13MicroProfilerD5Ev,comdat
 147              		.align	2
 148              		.weak	_ZN6tflite13MicroProfilerD0Ev
 149              		.syntax unified
 150              		.arm
 151              		.fpu neon
 153              	_ZN6tflite13MicroProfilerD0Ev:
 154              		.fnstart
 155              	.LFB28:
 156              		.loc 1 32 0
 157              		.cfi_startproc
 158              		@ args = 0, pretend = 0, frame = 0
 159              		@ frame_needed = 0, uses_anonymous_args = 0
 160              	.LVL7:
 161 0000 10402DE9 		push	{r4, lr}
 162              		.cfi_def_cfa_offset 8
 163              		.cfi_offset 4, -8
 164              		.cfi_offset 14, -4
 165              		.loc 1 32 0
 166 0004 0040A0E1 		mov	r4, r0
 167 0008 FEFFFFEB 		bl	_ZdlPv
 168              	.LVL8:
 169 000c 0400A0E1 		mov	r0, r4
 170 0010 1080BDE8 		pop	{r4, pc}
 171              		.cfi_endproc
 172              	.LFE28:
 173              		.cantunwind
 174              		.fnend
 176              		.section	.text._ZNK6tflite13MicroProfiler13GetTotalTicksEv,"ax",%progbits
 177              		.align	2
 178              		.global	_ZNK6tflite13MicroProfiler13GetTotalTicksEv
 179              		.syntax unified
 180              		.arm
 181              		.fpu neon
 183              	_ZNK6tflite13MicroProfiler13GetTotalTicksEv:
 184              		.fnstart
 185              	.LFB23:
  39:../src/tensorflow_lite/src/tensorflow/lite/micro/micro_profiler.cpp **** }
  40:../src/tensorflow_lite/src/tensorflow/lite/micro/micro_profiler.cpp **** 
  41:../src/tensorflow_lite/src/tensorflow/lite/micro/micro_profiler.cpp **** int32_t MicroProfiler::GetTotalTicks() const {
 186              		.loc 2 41 0
 187              		.cfi_startproc
 188              		@ args = 0, pretend = 0, frame = 0
 189              		@ frame_needed = 0, uses_anonymous_args = 0
 190              	.LVL9:
 191              	.LBB9:
  42:../src/tensorflow_lite/src/tensorflow/lite/micro/micro_profiler.cpp ****   int32_t ticks = 0;
  43:../src/tensorflow_lite/src/tensorflow/lite/micro/micro_profiler.cpp ****   for (int i = 0; i < num_events_; ++i) {
 192              		.loc 2 43 0
 193 0000 5C2290E5 		ldr	r2, [r0, #604]
 194 0004 000052E3 		cmp	r2, #0
 195 0008 9C0000DA 		ble	.L21
 196 000c CC1080E2 		add	r1, r0, #204
 197 0010 0030A0E1 		mov	r3, r0
 198 0014 650F80E2 		add	r0, r0, #404
 199              	.LVL10:
 200 0018 060052E3 		cmp	r2, #6
 201 001c 001081E1 		orr	r1, r1, r0
 202 0020 0000A093 		movls	r0, #0
 203 0024 5110E3E7 		ubfx	r1, r1, #0, #4
 204 0028 0100A083 		movhi	r0, #1
 205 002c 000051E3 		cmp	r1, #0
 206              	.LBE9:
  41:../src/tensorflow_lite/src/tensorflow/lite/micro/micro_profiler.cpp ****   int32_t ticks = 0;
 207              		.loc 2 41 0
 208 0030 10402DE9 		push	{r4, lr}
 209              		.cfi_def_cfa_offset 8
 210              		.cfi_offset 4, -8
 211              		.cfi_offset 14, -4
 212 0034 0000A013 		movne	r0, #0
 213 0038 000050E3 		cmp	r0, #0
 214 003c 8300000A 		beq	.L14
 215 0040 041042E2 		sub	r1, r2, #4
 216              	.LBB10:
  44:../src/tensorflow_lite/src/tensorflow/lite/micro/micro_profiler.cpp ****     ticks += end_ticks_[i] - start_ticks_[i];
 217              		.loc 2 44 0
 218 0044 650BD3ED 		vldr	d16, [r3, #404]
 219 0048 671BD3ED 		vldr	d17, [r3, #412]
 220 004c 2111A0E1 		lsr	r1, r1, #2
 221 0050 332BD3ED 		vldr	d18, [r3, #204]
 222 0054 353BD3ED 		vldr	d19, [r3, #212]
 223 0058 011081E2 		add	r1, r1, #1
 224 005c 010051E3 		cmp	r1, #1
 225 0060 01C1A0E1 		lsl	ip, r1, #2
 226              	.LVL11:
 227 0064 E20860F3 		vsub.i32	q8, q8, q9
 228 0068 5D00000A 		beq	.L15
 229 006c 692BD3ED 		vldr	d18, [r3, #420]
 230 0070 6B3BD3ED 		vldr	d19, [r3, #428]
 231 0074 020051E3 		cmp	r1, #2
 232 0078 374BD3ED 		vldr	d20, [r3, #220]
 233 007c 395BD3ED 		vldr	d21, [r3, #228]
 234 0080 E42862F3 		vsub.i32	q9, q9, q10
 235 0084 E00862F2 		vadd.i32	q8, q9, q8
 236 0088 5500000A 		beq	.L15
 237 008c 6D2BD3ED 		vldr	d18, [r3, #436]
 238 0090 6F3BD3ED 		vldr	d19, [r3, #444]
 239 0094 030051E3 		cmp	r1, #3
 240 0098 3B4BD3ED 		vldr	d20, [r3, #236]
 241 009c 3D5BD3ED 		vldr	d21, [r3, #244]
 242 00a0 E42862F3 		vsub.i32	q9, q9, q10
 243 00a4 E20860F2 		vadd.i32	q8, q8, q9
 244 00a8 4D00000A 		beq	.L15
 245 00ac 712BD3ED 		vldr	d18, [r3, #452]
 246 00b0 733BD3ED 		vldr	d19, [r3, #460]
 247 00b4 040051E3 		cmp	r1, #4
 248 00b8 3F4BD3ED 		vldr	d20, [r3, #252]
 249 00bc 415BD3ED 		vldr	d21, [r3, #260]
 250 00c0 E42862F3 		vsub.i32	q9, q9, q10
 251 00c4 E20860F2 		vadd.i32	q8, q8, q9
 252 00c8 4500000A 		beq	.L15
 253 00cc 752BD3ED 		vldr	d18, [r3, #468]
 254 00d0 773BD3ED 		vldr	d19, [r3, #476]
 255 00d4 050051E3 		cmp	r1, #5
 256 00d8 434BD3ED 		vldr	d20, [r3, #268]
 257 00dc 455BD3ED 		vldr	d21, [r3, #276]
 258 00e0 E42862F3 		vsub.i32	q9, q9, q10
 259 00e4 E20860F2 		vadd.i32	q8, q8, q9
 260 00e8 3D00000A 		beq	.L15
 261 00ec 792BD3ED 		vldr	d18, [r3, #484]
 262 00f0 7B3BD3ED 		vldr	d19, [r3, #492]
 263 00f4 060051E3 		cmp	r1, #6
 264 00f8 474BD3ED 		vldr	d20, [r3, #284]
 265 00fc 495BD3ED 		vldr	d21, [r3, #292]
 266 0100 E42862F3 		vsub.i32	q9, q9, q10
 267 0104 E20860F2 		vadd.i32	q8, q8, q9
 268 0108 3500000A 		beq	.L15
 269 010c 7D2BD3ED 		vldr	d18, [r3, #500]
 270 0110 7F3BD3ED 		vldr	d19, [r3, #508]
 271 0114 070051E3 		cmp	r1, #7
 272 0118 4B4BD3ED 		vldr	d20, [r3, #300]
 273 011c 4D5BD3ED 		vldr	d21, [r3, #308]
 274 0120 E42862F3 		vsub.i32	q9, q9, q10
 275 0124 E20860F2 		vadd.i32	q8, q8, q9
 276 0128 2D00000A 		beq	.L15
 277 012c 812BD3ED 		vldr	d18, [r3, #516]
 278 0130 833BD3ED 		vldr	d19, [r3, #524]
 279 0134 080051E3 		cmp	r1, #8
 280 0138 4F4BD3ED 		vldr	d20, [r3, #316]
 281 013c 515BD3ED 		vldr	d21, [r3, #324]
 282 0140 E42862F3 		vsub.i32	q9, q9, q10
 283 0144 E20860F2 		vadd.i32	q8, q8, q9
 284 0148 2500000A 		beq	.L15
 285 014c 852BD3ED 		vldr	d18, [r3, #532]
 286 0150 873BD3ED 		vldr	d19, [r3, #540]
 287 0154 090051E3 		cmp	r1, #9
 288 0158 534BD3ED 		vldr	d20, [r3, #332]
 289 015c 555BD3ED 		vldr	d21, [r3, #340]
 290 0160 E42862F3 		vsub.i32	q9, q9, q10
 291 0164 E20860F2 		vadd.i32	q8, q8, q9
 292 0168 1D00000A 		beq	.L15
 293 016c 892BD3ED 		vldr	d18, [r3, #548]
 294 0170 8B3BD3ED 		vldr	d19, [r3, #556]
 295 0174 0A0051E3 		cmp	r1, #10
 296 0178 574BD3ED 		vldr	d20, [r3, #348]
 297 017c 595BD3ED 		vldr	d21, [r3, #356]
 298 0180 E42862F3 		vsub.i32	q9, q9, q10
 299 0184 E20860F2 		vadd.i32	q8, q8, q9
 300 0188 1500000A 		beq	.L15
 301 018c 8D2BD3ED 		vldr	d18, [r3, #564]
 302 0190 8F3BD3ED 		vldr	d19, [r3, #572]
 303 0194 0B0051E3 		cmp	r1, #11
 304 0198 5B4BD3ED 		vldr	d20, [r3, #364]
 305 019c 5D5BD3ED 		vldr	d21, [r3, #372]
 306 01a0 E42862F3 		vsub.i32	q9, q9, q10
 307 01a4 E20860F2 		vadd.i32	q8, q8, q9
 308 01a8 0D00000A 		beq	.L15
 309 01ac 912BD3ED 		vldr	d18, [r3, #580]
 310 01b0 933BD3ED 		vldr	d19, [r3, #588]
 311 01b4 0C0051E3 		cmp	r1, #12
 312 01b8 5F4BD3ED 		vldr	d20, [r3, #380]
 313 01bc 615BD3ED 		vldr	d21, [r3, #388]
 314 01c0 E42862F3 		vsub.i32	q9, q9, q10
 315 01c4 E20860F2 		vadd.i32	q8, q8, q9
 316 01c8 0500000A 		beq	.L15
 317              		.loc 2 44 0 is_stmt 0 discriminator 2
 318 01cc 952BD3ED 		vldr	d18, [r3, #596]
 319 01d0 973BD3ED 		vldr	d19, [r3, #604]
 320 01d4 634BD3ED 		vldr	d20, [r3, #396]
 321 01d8 655BD3ED 		vldr	d21, [r3, #404]
 322 01dc E42862F3 		vsub.i32	q9, q9, q10
 323 01e0 E20860F2 		vadd.i32	q8, q8, q9
 324              	.L15:
 325 01e4 A10860F2 		vadd.i32	d16, d16, d17
 326 01e8 0C0052E1 		cmp	r2, ip
 327 01ec B00B60F2 		vpadd.i32	d16, d16, d16
 328 01f0 900B10EE 		vmov.32	r0, d16[0]
 329 01f4 1080BD08 		popeq	{r4, pc}
 330              	.LVL12:
 331 01f8 0CE183E0 		add	lr, r3, ip, lsl #2
  43:../src/tensorflow_lite/src/tensorflow/lite/micro/micro_profiler.cpp ****     ticks += end_ticks_[i] - start_ticks_[i];
 332              		.loc 2 43 0 is_stmt 1
 333 01fc 01108CE2 		add	r1, ip, #1
 334 0200 020051E1 		cmp	r1, r2
 335              		.loc 2 44 0
 336 0204 94419EE5 		ldr	r4, [lr, #404]
 337 0208 CCE09EE5 		ldr	lr, [lr, #204]
 338 020c 0EE044E0 		sub	lr, r4, lr
 339 0210 0E0080E0 		add	r0, r0, lr
 340              	.LVL13:
  43:../src/tensorflow_lite/src/tensorflow/lite/micro/micro_profiler.cpp ****     ticks += end_ticks_[i] - start_ticks_[i];
 341              		.loc 2 43 0
 342 0214 1080BDA8 		popge	{r4, pc}
 343 0218 011183E0 		add	r1, r3, r1, lsl #2
 344              	.LVL14:
 345 021c 02C08CE2 		add	ip, ip, #2
 346              	.LVL15:
 347 0220 0C0052E1 		cmp	r2, ip
 348              		.loc 2 44 0
 349 0224 942191E5 		ldr	r2, [r1, #404]
 350              	.LVL16:
 351 0228 CC1091E5 		ldr	r1, [r1, #204]
 352 022c 012042E0 		sub	r2, r2, r1
 353 0230 020080E0 		add	r0, r0, r2
 354              	.LVL17:
  43:../src/tensorflow_lite/src/tensorflow/lite/micro/micro_profiler.cpp ****     ticks += end_ticks_[i] - start_ticks_[i];
 355              		.loc 2 43 0
 356 0234 100000DA 		ble	.L62
 357 0238 0C3183E0 		add	r3, r3, ip, lsl #2
 358              	.LVL18:
 359              		.loc 2 44 0
 360 023c 942193E5 		ldr	r2, [r3, #404]
 361 0240 CC3093E5 		ldr	r3, [r3, #204]
 362 0244 033042E0 		sub	r3, r2, r3
 363 0248 030080E0 		add	r0, r0, r3
 364              	.LVL19:
 365 024c 1080BDE8 		pop	{r4, pc}
 366              	.LVL20:
 367              	.L14:
 368 0250 322082E2 		add	r2, r2, #50
 369 0254 C81083E2 		add	r1, r3, #200
 370 0258 02E183E0 		add	lr, r3, r2, lsl #2
 371 025c 193E83E2 		add	r3, r3, #400
 372              	.LVL21:
 373              	.L20:
 374 0260 04C0B1E5 		ldr	ip, [r1, #4]!
 375 0264 0420B3E5 		ldr	r2, [r3, #4]!
  43:../src/tensorflow_lite/src/tensorflow/lite/micro/micro_profiler.cpp ****     ticks += end_ticks_[i] - start_ticks_[i];
 376              		.loc 2 43 0
 377 0268 0E0051E1 		cmp	r1, lr
 378              		.loc 2 44 0
 379 026c 0C2042E0 		sub	r2, r2, ip
 380 0270 020080E0 		add	r0, r0, r2
 381              	.LVL22:
  43:../src/tensorflow_lite/src/tensorflow/lite/micro/micro_profiler.cpp ****     ticks += end_ticks_[i] - start_ticks_[i];
 382              		.loc 2 43 0
 383 0274 F9FFFF1A 		bne	.L20
 384 0278 1080BDE8 		pop	{r4, pc}
 385              	.LVL23:
 386              	.L62:
 387 027c 1080BDE8 		pop	{r4, pc}
 388              	.LVL24:
 389              	.L21:
 390              		.cfi_def_cfa_offset 0
 391              		.cfi_restore 4
 392              		.cfi_restore 14
 393              	.LBE10:
  42:../src/tensorflow_lite/src/tensorflow/lite/micro/micro_profiler.cpp ****   for (int i = 0; i < num_events_; ++i) {
 394              		.loc 2 42 0
 395 0280 0000A0E3 		mov	r0, #0
 396              	.LVL25:
  45:../src/tensorflow_lite/src/tensorflow/lite/micro/micro_profiler.cpp ****   }
  46:../src/tensorflow_lite/src/tensorflow/lite/micro/micro_profiler.cpp ****   return ticks;
 397              		.loc 2 46 0
 398 0284 1EFF2FE1 		bx	lr
 399              		.cfi_endproc
 400              	.LFE23:
 401              		.cantunwind
 402              		.fnend
 404              		.section	.text._ZNK6tflite13MicroProfiler3LogEv,"ax",%progbits
 405              		.align	2
 406              		.global	_ZNK6tflite13MicroProfiler3LogEv
 407              		.syntax unified
 408              		.arm
 409              		.fpu neon
 411              	_ZNK6tflite13MicroProfiler3LogEv:
 412              		.fnstart
 413              	.LFB24:
  47:../src/tensorflow_lite/src/tensorflow/lite/micro/micro_profiler.cpp **** }
  48:../src/tensorflow_lite/src/tensorflow/lite/micro/micro_profiler.cpp **** 
  49:../src/tensorflow_lite/src/tensorflow/lite/micro/micro_profiler.cpp **** void MicroProfiler::Log() const {
 414              		.loc 2 49 0
 415              		.cfi_startproc
 416              		@ args = 0, pretend = 0, frame = 8
 417              		@ frame_needed = 0, uses_anonymous_args = 0
 418              	.LVL26:
 419              	.LBB11:
  50:../src/tensorflow_lite/src/tensorflow/lite/micro/micro_profiler.cpp **** #if !defined(TF_LITE_STRIP_ERROR_STRINGS)
  51:../src/tensorflow_lite/src/tensorflow/lite/micro/micro_profiler.cpp ****   for (int i = 0; i < num_events_; ++i) {
 420              		.loc 2 51 0
 421 0000 5C3290E5 		ldr	r3, [r0, #604]
 422 0004 000053E3 		cmp	r3, #0
 423 0008 1EFF2FD1 		bxle	lr
 424              	.LBE11:
  49:../src/tensorflow_lite/src/tensorflow/lite/micro/micro_profiler.cpp **** #if !defined(TF_LITE_STRIP_ERROR_STRINGS)
 425              		.loc 2 49 0
 426 000c F0412DE9 		push	{r4, r5, r6, r7, r8, lr}
 427              		.save {r4, r5, r6, r7, r8, lr}
 428              		.cfi_def_cfa_offset 24
 429              		.cfi_offset 4, -24
 430              		.cfi_offset 5, -20
 431              		.cfi_offset 6, -16
 432              		.cfi_offset 7, -12
 433              		.cfi_offset 8, -8
 434              		.cfi_offset 14, -4
 435              	.LBB24:
 436              	.LBB12:
  52:../src/tensorflow_lite/src/tensorflow/lite/micro/micro_profiler.cpp ****     int32_t ticks = end_ticks_[i] - start_ticks_[i];
  53:../src/tensorflow_lite/src/tensorflow/lite/micro/micro_profiler.cpp ****     MicroPrintf("%s took %d ticks (%d ms).", tags_[i], ticks, TicksToMs(ticks));
 437              		.loc 2 53 0
 438 0010 008000E3 		movw	r8, #:lower16:.LC0
 439              	.LBE12:
 440              	.LBE24:
  49:../src/tensorflow_lite/src/tensorflow/lite/micro/micro_profiler.cpp **** #if !defined(TF_LITE_STRIP_ERROR_STRINGS)
 441              		.loc 2 49 0
 442 0014 028B2DED 		vpush.64	{d8}
 443              		.vsave {d8}
 444              		.cfi_def_cfa_offset 32
 445              		.cfi_offset 80, -32
 446              		.cfi_offset 81, -28
 447 0018 0070A0E1 		mov	r7, r0
 448              		.pad #8
 449 001c 08D04DE2 		sub	sp, sp, #8
 450              		.cfi_def_cfa_offset 40
 451              	.LBB25:
 452              	.LBB21:
 453              		.loc 2 53 0
 454 0020 008040E3 		movt	r8, #:upper16:.LC0
 455              	.LBB13:
 456              	.LBB14:
 457              		.file 3 "C:/Renesas/e2studio_2021_01_workspace_RZA2M_ANPR/ANPR_RZA2M_RDK/src/tensorflow_lite/src/t
   1:C:/Renesas/e2studio_2021_01_workspace_RZA2M_ANPR/ANPR_RZA2M_RDK/src/tensorflow_lite/src/tensorflow/lite/micro\micro_time.h **** /* Copyright 2020 The TensorFlow Authors. All Rights Reserved.
   2:C:/Renesas/e2studio_2021_01_workspace_RZA2M_ANPR/ANPR_RZA2M_RDK/src/tensorflow_lite/src/tensorflow/lite/micro\micro_time.h **** 
   3:C:/Renesas/e2studio_2021_01_workspace_RZA2M_ANPR/ANPR_RZA2M_RDK/src/tensorflow_lite/src/tensorflow/lite/micro\micro_time.h **** Licensed under the Apache License, Version 2.0 (the "License");
   4:C:/Renesas/e2studio_2021_01_workspace_RZA2M_ANPR/ANPR_RZA2M_RDK/src/tensorflow_lite/src/tensorflow/lite/micro\micro_time.h **** you may not use this file except in compliance with the License.
   5:C:/Renesas/e2studio_2021_01_workspace_RZA2M_ANPR/ANPR_RZA2M_RDK/src/tensorflow_lite/src/tensorflow/lite/micro\micro_time.h **** You may obtain a copy of the License at
   6:C:/Renesas/e2studio_2021_01_workspace_RZA2M_ANPR/ANPR_RZA2M_RDK/src/tensorflow_lite/src/tensorflow/lite/micro\micro_time.h **** 
   7:C:/Renesas/e2studio_2021_01_workspace_RZA2M_ANPR/ANPR_RZA2M_RDK/src/tensorflow_lite/src/tensorflow/lite/micro\micro_time.h ****     http://www.apache.org/licenses/LICENSE-2.0
   8:C:/Renesas/e2studio_2021_01_workspace_RZA2M_ANPR/ANPR_RZA2M_RDK/src/tensorflow_lite/src/tensorflow/lite/micro\micro_time.h **** 
   9:C:/Renesas/e2studio_2021_01_workspace_RZA2M_ANPR/ANPR_RZA2M_RDK/src/tensorflow_lite/src/tensorflow/lite/micro\micro_time.h **** Unless required by applicable law or agreed to in writing, software
  10:C:/Renesas/e2studio_2021_01_workspace_RZA2M_ANPR/ANPR_RZA2M_RDK/src/tensorflow_lite/src/tensorflow/lite/micro\micro_time.h **** distributed under the License is distributed on an "AS IS" BASIS,
  11:C:/Renesas/e2studio_2021_01_workspace_RZA2M_ANPR/ANPR_RZA2M_RDK/src/tensorflow_lite/src/tensorflow/lite/micro\micro_time.h **** WITHOUT WARRANTIES OR CONDITIONS OF ANY KIND, either express or implied.
  12:C:/Renesas/e2studio_2021_01_workspace_RZA2M_ANPR/ANPR_RZA2M_RDK/src/tensorflow_lite/src/tensorflow/lite/micro\micro_time.h **** See the License for the specific language governing permissions and
  13:C:/Renesas/e2studio_2021_01_workspace_RZA2M_ANPR/ANPR_RZA2M_RDK/src/tensorflow_lite/src/tensorflow/lite/micro\micro_time.h **** limitations under the License.
  14:C:/Renesas/e2studio_2021_01_workspace_RZA2M_ANPR/ANPR_RZA2M_RDK/src/tensorflow_lite/src/tensorflow/lite/micro\micro_time.h **** ==============================================================================*/
  15:C:/Renesas/e2studio_2021_01_workspace_RZA2M_ANPR/ANPR_RZA2M_RDK/src/tensorflow_lite/src/tensorflow/lite/micro\micro_time.h **** #ifndef TENSORFLOW_LITE_MICRO_MICRO_TIME_H_
  16:C:/Renesas/e2studio_2021_01_workspace_RZA2M_ANPR/ANPR_RZA2M_RDK/src/tensorflow_lite/src/tensorflow/lite/micro\micro_time.h **** #define TENSORFLOW_LITE_MICRO_MICRO_TIME_H_
  17:C:/Renesas/e2studio_2021_01_workspace_RZA2M_ANPR/ANPR_RZA2M_RDK/src/tensorflow_lite/src/tensorflow/lite/micro\micro_time.h **** 
  18:C:/Renesas/e2studio_2021_01_workspace_RZA2M_ANPR/ANPR_RZA2M_RDK/src/tensorflow_lite/src/tensorflow/lite/micro\micro_time.h **** #include <cstdint>
  19:C:/Renesas/e2studio_2021_01_workspace_RZA2M_ANPR/ANPR_RZA2M_RDK/src/tensorflow_lite/src/tensorflow/lite/micro\micro_time.h **** 
  20:C:/Renesas/e2studio_2021_01_workspace_RZA2M_ANPR/ANPR_RZA2M_RDK/src/tensorflow_lite/src/tensorflow/lite/micro\micro_time.h **** namespace tflite {
  21:C:/Renesas/e2studio_2021_01_workspace_RZA2M_ANPR/ANPR_RZA2M_RDK/src/tensorflow_lite/src/tensorflow/lite/micro\micro_time.h **** 
  22:C:/Renesas/e2studio_2021_01_workspace_RZA2M_ANPR/ANPR_RZA2M_RDK/src/tensorflow_lite/src/tensorflow/lite/micro\micro_time.h **** // These functions should be implemented by each target platform, and provide an
  23:C:/Renesas/e2studio_2021_01_workspace_RZA2M_ANPR/ANPR_RZA2M_RDK/src/tensorflow_lite/src/tensorflow/lite/micro\micro_time.h **** // accurate tick count along with how many ticks there are per second.
  24:C:/Renesas/e2studio_2021_01_workspace_RZA2M_ANPR/ANPR_RZA2M_RDK/src/tensorflow_lite/src/tensorflow/lite/micro\micro_time.h **** int32_t ticks_per_second();
  25:C:/Renesas/e2studio_2021_01_workspace_RZA2M_ANPR/ANPR_RZA2M_RDK/src/tensorflow_lite/src/tensorflow/lite/micro\micro_time.h **** 
  26:C:/Renesas/e2studio_2021_01_workspace_RZA2M_ANPR/ANPR_RZA2M_RDK/src/tensorflow_lite/src/tensorflow/lite/micro\micro_time.h **** // Return time in ticks.  The meaning of a tick varies per platform.
  27:C:/Renesas/e2studio_2021_01_workspace_RZA2M_ANPR/ANPR_RZA2M_RDK/src/tensorflow_lite/src/tensorflow/lite/micro\micro_time.h **** int32_t GetCurrentTimeTicks();
  28:C:/Renesas/e2studio_2021_01_workspace_RZA2M_ANPR/ANPR_RZA2M_RDK/src/tensorflow_lite/src/tensorflow/lite/micro\micro_time.h **** 
  29:C:/Renesas/e2studio_2021_01_workspace_RZA2M_ANPR/ANPR_RZA2M_RDK/src/tensorflow_lite/src/tensorflow/lite/micro\micro_time.h **** inline int32_t TicksToMs(int32_t ticks) {
  30:C:/Renesas/e2studio_2021_01_workspace_RZA2M_ANPR/ANPR_RZA2M_RDK/src/tensorflow_lite/src/tensorflow/lite/micro\micro_time.h ****   return static_cast<int32_t>(1000.0f * static_cast<float>(ticks) /
 458              		.loc 3 30 0
 459 0024 1A8A9FED 		vldr.32	s16, .L71
 460 0028 0040A0E1 		mov	r4, r0
 461              	.LBE14:
 462              	.LBE13:
 463              	.LBE21:
  51:../src/tensorflow_lite/src/tensorflow/lite/micro/micro_profiler.cpp ****     int32_t ticks = end_ticks_[i] - start_ticks_[i];
 464              		.loc 2 51 0
 465 002c 0050A0E3 		mov	r5, #0
 466              	.LVL27:
 467              	.L66:
 468              	.LBB22:
  52:../src/tensorflow_lite/src/tensorflow/lite/micro/micro_profiler.cpp ****     int32_t ticks = end_ticks_[i] - start_ticks_[i];
 469              		.loc 2 52 0 discriminator 2
 470 0030 CC3094E5 		ldr	r3, [r4, #204]
 471              	.LBE22:
  51:../src/tensorflow_lite/src/tensorflow/lite/micro/micro_profiler.cpp ****     int32_t ticks = end_ticks_[i] - start_ticks_[i];
 472              		.loc 2 51 0 discriminator 2
 473 0034 015085E2 		add	r5, r5, #1
 474              	.LVL28:
 475              	.LBB23:
  52:../src/tensorflow_lite/src/tensorflow/lite/micro/micro_profiler.cpp ****     int32_t ticks = end_ticks_[i] - start_ticks_[i];
 476              		.loc 2 52 0 discriminator 2
 477 0038 942194E5 		ldr	r2, [r4, #404]
 478              		.loc 2 53 0 discriminator 2
 479 003c 0460B4E5 		ldr	r6, [r4, #4]!
  52:../src/tensorflow_lite/src/tensorflow/lite/micro/micro_profiler.cpp ****     int32_t ticks = end_ticks_[i] - start_ticks_[i];
 480              		.loc 2 52 0 discriminator 2
 481 0040 032042E0 		sub	r2, r2, r3
 482 0044 04208DE5 		str	r2, [sp, #4]
 483              	.LVL29:
 484              	.LBB18:
 485              	.LBB15:
  31:C:/Renesas/e2studio_2021_01_workspace_RZA2M_ANPR/ANPR_RZA2M_RDK/src/tensorflow_lite/src/tensorflow/lite/micro\micro_time.h ****                               static_cast<float>(ticks_per_second()));
 486              		.loc 3 31 0 discriminator 2
 487 0048 FEFFFFEB 		bl	_ZN6tflite16ticks_per_secondEv
 488              	.LVL30:
  30:C:/Renesas/e2studio_2021_01_workspace_RZA2M_ANPR/ANPR_RZA2M_RDK/src/tensorflow_lite/src/tensorflow/lite/micro\micro_time.h ****                               static_cast<float>(ticks_per_second()));
 489              		.loc 3 30 0 discriminator 2
 490 004c 04209DE5 		ldr	r2, [sp, #4]
 491              	.LBE15:
 492              	.LBE18:
 493              		.loc 2 53 0 discriminator 2
 494 0050 0610A0E1 		mov	r1, r6
 495              	.LBB19:
 496              	.LBB16:
 497              		.loc 3 31 0 discriminator 2
 498 0054 100A07EE 		vmov	s14, r0	@ int
 499              	.LBE16:
 500              	.LBE19:
 501              		.loc 2 53 0 discriminator 2
 502 0058 0800A0E1 		mov	r0, r8
 503              	.LBB20:
 504              	.LBB17:
 505              		.loc 3 31 0 discriminator 2
 506 005c C76AF8EE 		vcvt.f32.s32	s13, s14
  30:C:/Renesas/e2studio_2021_01_workspace_RZA2M_ANPR/ANPR_RZA2M_RDK/src/tensorflow_lite/src/tensorflow/lite/micro\micro_time.h ****                               static_cast<float>(ticks_per_second()));
 507              		.loc 3 30 0 discriminator 2
 508 0060 902A07EE 		vmov	s15, r2	@ int
 509 0064 E77AF8EE 		vcvt.f32.s32	s15, s15
 510 0068 887A67EE 		vmul.f32	s15, s15, s16
 511 006c A67A87EE 		vdiv.f32	s14, s15, s13
 512              	.LBE17:
 513              	.LBE20:
 514              		.loc 2 53 0 discriminator 2
 515 0070 C77AFDEE 		vcvt.s32.f32	s15, s14
 516 0074 903A17EE 		vmov	r3, s15	@ int
 517 0078 FEFFFFEB 		bl	_Z11MicroPrintfPKcz
 518              	.LVL31:
 519              	.LBE23:
  51:../src/tensorflow_lite/src/tensorflow/lite/micro/micro_profiler.cpp ****     int32_t ticks = end_ticks_[i] - start_ticks_[i];
 520              		.loc 2 51 0 discriminator 2
 521 007c 5C3297E5 		ldr	r3, [r7, #604]
 522 0080 050053E1 		cmp	r3, r5
 523 0084 E9FFFFCA 		bgt	.L66
 524              	.LBE25:
  54:../src/tensorflow_lite/src/tensorflow/lite/micro/micro_profiler.cpp ****   }
  55:../src/tensorflow_lite/src/tensorflow/lite/micro/micro_profiler.cpp **** #endif
  56:../src/tensorflow_lite/src/tensorflow/lite/micro/micro_profiler.cpp **** }
 525              		.loc 2 56 0
 526 0088 08D08DE2 		add	sp, sp, #8
 527              		.cfi_def_cfa_offset 32
 528              		@ sp needed
 529 008c 028BBDEC 		vldm	sp!, {d8}
 530              		.cfi_restore 80
 531              		.cfi_restore 81
 532              		.cfi_def_cfa_offset 24
 533 0090 F081BDE8 		pop	{r4, r5, r6, r7, r8, pc}
 534              	.LVL32:
 535              	.L72:
 536              		.align	2
 537              	.L71:
 538 0094 00007A44 		.word	1148846080
 539              		.cfi_endproc
 540              	.LFE24:
 541              		.fnend
 543              		.global	_ZTSN6tflite13MicroProfilerE
 544              		.global	_ZTIN6tflite13MicroProfilerE
 545              		.global	_ZTVN6tflite13MicroProfilerE
 546              		.section	.rodata._ZNK6tflite13MicroProfiler3LogEv.str1.4,"aMS",%progbits,1
 547              		.align	2
 548              	.LC0:
 549 0000 25732074 		.ascii	"%s took %d ticks (%d ms).\000"
 549      6F6F6B20 
 549      25642074 
 549      69636B73 
 549      20282564 
 550              		.section	.rodata._ZTIN6tflite13MicroProfilerE,"a",%progbits
 551              		.align	2
 554              	_ZTIN6tflite13MicroProfilerE:
 555 0000 08000000 		.word	_ZTVN10__cxxabiv117__class_type_infoE+8
 556 0004 00000000 		.word	_ZTSN6tflite13MicroProfilerE
 557              		.section	.rodata._ZTSN6tflite13MicroProfilerE,"a",%progbits
 558              		.align	3
 561              	_ZTSN6tflite13MicroProfilerE:
 562 0000 4E367466 		.ascii	"N6tflite13MicroProfilerE\000"
 562      6C697465 
 562      31334D69 
 562      63726F50 
 562      726F6669 
 563              		.section	.rodata._ZTVN6tflite13MicroProfilerE,"a",%progbits
 564              		.align	3
 567              	_ZTVN6tflite13MicroProfilerE:
 568 0000 00000000 		.word	0
 569 0004 00000000 		.word	_ZTIN6tflite13MicroProfilerE
 570 0008 00000000 		.word	_ZN6tflite13MicroProfilerD1Ev
 571 000c 00000000 		.word	_ZN6tflite13MicroProfilerD0Ev
 572 0010 00000000 		.word	_ZN6tflite13MicroProfiler10BeginEventEPKc
 573 0014 00000000 		.word	_ZN6tflite13MicroProfiler8EndEventEm
 574              		.text
 575              	.Letext0:
 576              		.file 4 "c:\\program files (x86)\\gnu tools arm embedded\\6 2017-q2-update\\arm-none-eabi\\include
 577              		.file 5 "c:\\program files (x86)\\gnu tools arm embedded\\6 2017-q2-update\\arm-none-eabi\\include
 578              		.file 6 "c:\\program files (x86)\\gnu tools arm embedded\\6 2017-q2-update\\arm-none-eabi\\include
 579              		.file 7 "c:\\program files (x86)\\gnu tools arm embedded\\6 2017-q2-update\\arm-none-eabi\\include
 580              		.file 8 "c:\\program files (x86)\\gnu tools arm embedded\\6 2017-q2-update\\arm-none-eabi\\include
 581              		.file 9 "c:\\program files (x86)\\gnu tools arm embedded\\6 2017-q2-update\\arm-none-eabi\\include
 582              		.file 10 "c:\\program files (x86)\\gnu tools arm embedded\\6 2017-q2-update\\arm-none-eabi\\includ
 583              		.file 11 "c:\\program files (x86)\\gnu tools arm embedded\\6 2017-q2-update\\arm-none-eabi\\includ
 584              		.file 12 "c:\\program files (x86)\\gnu tools arm embedded\\6 2017-q2-update\\lib\\gcc\\arm-none-ea
 585              		.file 13 "c:\\program files (x86)\\gnu tools arm embedded\\6 2017-q2-update\\lib\\gcc\\arm-none-ea
 586              		.file 14 "c:\\program files (x86)\\gnu tools arm embedded\\6 2017-q2-update\\arm-none-eabi\\includ
 587              		.file 15 "c:\\program files (x86)\\gnu tools arm embedded\\6 2017-q2-update\\arm-none-eabi\\includ
 588              		.file 16 "c:\\program files (x86)\\gnu tools arm embedded\\6 2017-q2-update\\arm-none-eabi\\includ
 589              		.file 17 "<built-in>"
 590              		.file 18 "c:\\program files (x86)\\gnu tools arm embedded\\6 2017-q2-update\\arm-none-eabi\\includ
 591              		.file 19 "c:\\program files (x86)\\gnu tools arm embedded\\6 2017-q2-update\\arm-none-eabi\\includ
 592              		.file 20 "C:/Renesas/e2studio_2021_01_workspace_RZA2M_ANPR/ANPR_RZA2M_RDK/src/tensorflow_lite/src/