   1              		.cpu cortex-a9
   2              		.eabi_attribute 28, 1
   3              		.eabi_attribute 20, 1
   4              		.eabi_attribute 21, 1
   5              		.eabi_attribute 23, 3
   6              		.eabi_attribute 24, 1
   7              		.eabi_attribute 25, 1
   8              		.eabi_attribute 26, 1
   9              		.eabi_attribute 30, 2
  10              		.eabi_attribute 34, 0
  11              		.eabi_attribute 18, 4
  12              		.file	"recording_simple_memory_allocator.cpp"
  13              		.text
  14              	.Ltext0:
  15              		.cfi_sections	.debug_frame
  16              		.section	.text._ZN6tflite30RecordingSimpleMemoryAllocatorD2Ev,"ax",%progbits
  17              		.align	2
  18              		.global	_ZN6tflite30RecordingSimpleMemoryAllocatorD2Ev
  19              		.syntax unified
  20              		.arm
  21              		.fpu neon
  23              	_ZN6tflite30RecordingSimpleMemoryAllocatorD2Ev:
  24              		.fnstart
  25              	.LFB64:
  26              		.file 1 "../src/tensorflow_lite/src/tensorflow/lite/micro/recording_simple_memory_allocator.cpp"
   1:../src/tensorflow_lite/src/tensorflow/lite/micro/recording_simple_memory_allocator.cpp **** /* Copyright 2020 The TensorFlow Authors. All Rights Reserved.
   2:../src/tensorflow_lite/src/tensorflow/lite/micro/recording_simple_memory_allocator.cpp **** 
   3:../src/tensorflow_lite/src/tensorflow/lite/micro/recording_simple_memory_allocator.cpp **** Licensed under the Apache License, Version 2.0 (the "License");
   4:../src/tensorflow_lite/src/tensorflow/lite/micro/recording_simple_memory_allocator.cpp **** you may not use this file except in compliance with the License.
   5:../src/tensorflow_lite/src/tensorflow/lite/micro/recording_simple_memory_allocator.cpp **** You may obtain a copy of the License at
   6:../src/tensorflow_lite/src/tensorflow/lite/micro/recording_simple_memory_allocator.cpp **** 
   7:../src/tensorflow_lite/src/tensorflow/lite/micro/recording_simple_memory_allocator.cpp ****     http://www.apache.org/licenses/LICENSE-2.0
   8:../src/tensorflow_lite/src/tensorflow/lite/micro/recording_simple_memory_allocator.cpp **** 
   9:../src/tensorflow_lite/src/tensorflow/lite/micro/recording_simple_memory_allocator.cpp **** Unless required by applicable law or agreed to in writing, software
  10:../src/tensorflow_lite/src/tensorflow/lite/micro/recording_simple_memory_allocator.cpp **** distributed under the License is distributed on an "AS IS" BASIS,
  11:../src/tensorflow_lite/src/tensorflow/lite/micro/recording_simple_memory_allocator.cpp **** WITHOUT WARRANTIES OR CONDITIONS OF ANY KIND, either express or implied.
  12:../src/tensorflow_lite/src/tensorflow/lite/micro/recording_simple_memory_allocator.cpp **** See the License for the specific language governing permissions and
  13:../src/tensorflow_lite/src/tensorflow/lite/micro/recording_simple_memory_allocator.cpp **** limitations under the License.
  14:../src/tensorflow_lite/src/tensorflow/lite/micro/recording_simple_memory_allocator.cpp **** ==============================================================================*/
  15:../src/tensorflow_lite/src/tensorflow/lite/micro/recording_simple_memory_allocator.cpp **** 
  16:../src/tensorflow_lite/src/tensorflow/lite/micro/recording_simple_memory_allocator.cpp **** #include "tensorflow/lite/micro/recording_simple_memory_allocator.h"
  17:../src/tensorflow_lite/src/tensorflow/lite/micro/recording_simple_memory_allocator.cpp **** 
  18:../src/tensorflow_lite/src/tensorflow/lite/micro/recording_simple_memory_allocator.cpp **** #include <new>
  19:../src/tensorflow_lite/src/tensorflow/lite/micro/recording_simple_memory_allocator.cpp **** 
  20:../src/tensorflow_lite/src/tensorflow/lite/micro/recording_simple_memory_allocator.cpp **** #include "tensorflow/lite/kernels/internal/compatibility.h"
  21:../src/tensorflow_lite/src/tensorflow/lite/micro/recording_simple_memory_allocator.cpp **** 
  22:../src/tensorflow_lite/src/tensorflow/lite/micro/recording_simple_memory_allocator.cpp **** namespace tflite {
  23:../src/tensorflow_lite/src/tensorflow/lite/micro/recording_simple_memory_allocator.cpp **** 
  24:../src/tensorflow_lite/src/tensorflow/lite/micro/recording_simple_memory_allocator.cpp **** RecordingSimpleMemoryAllocator::RecordingSimpleMemoryAllocator(
  25:../src/tensorflow_lite/src/tensorflow/lite/micro/recording_simple_memory_allocator.cpp ****     ErrorReporter* error_reporter, uint8_t* buffer_head, size_t buffer_size)
  26:../src/tensorflow_lite/src/tensorflow/lite/micro/recording_simple_memory_allocator.cpp ****     : SimpleMemoryAllocator(error_reporter, buffer_head, buffer_size),
  27:../src/tensorflow_lite/src/tensorflow/lite/micro/recording_simple_memory_allocator.cpp ****       requested_head_bytes_(0),
  28:../src/tensorflow_lite/src/tensorflow/lite/micro/recording_simple_memory_allocator.cpp ****       requested_tail_bytes_(0),
  29:../src/tensorflow_lite/src/tensorflow/lite/micro/recording_simple_memory_allocator.cpp ****       used_bytes_(0),
  30:../src/tensorflow_lite/src/tensorflow/lite/micro/recording_simple_memory_allocator.cpp ****       alloc_count_(0) {}
  31:../src/tensorflow_lite/src/tensorflow/lite/micro/recording_simple_memory_allocator.cpp **** 
  32:../src/tensorflow_lite/src/tensorflow/lite/micro/recording_simple_memory_allocator.cpp **** RecordingSimpleMemoryAllocator::~RecordingSimpleMemoryAllocator() {}
  27              		.loc 1 32 0
  28              		.cfi_startproc
  29              		@ args = 0, pretend = 0, frame = 0
  30              		@ frame_needed = 0, uses_anonymous_args = 0
  31              	.LVL0:
  32              	.LBB26:
  33 0000 14309FE5 		ldr	r3, .L3
  34              	.LBE26:
  35 0004 10402DE9 		push	{r4, lr}
  36              		.cfi_def_cfa_offset 8
  37              		.cfi_offset 4, -8
  38              		.cfi_offset 14, -4
  39              		.loc 1 32 0
  40 0008 0040A0E1 		mov	r4, r0
  41              	.LBB27:
  42 000c 003080E5 		str	r3, [r0]
  43 0010 FEFFFFEB 		bl	_ZN6tflite21SimpleMemoryAllocatorD2Ev
  44              	.LVL1:
  45              	.LBE27:
  46 0014 0400A0E1 		mov	r0, r4
  47 0018 1080BDE8 		pop	{r4, pc}
  48              	.L4:
  49              		.align	2
  50              	.L3:
  51 001c 08000000 		.word	.LANCHOR0+8
  52              		.cfi_endproc
  53              	.LFE64:
  54              		.cantunwind
  55              		.fnend
  57              		.global	_ZN6tflite30RecordingSimpleMemoryAllocatorD1Ev
  58              		.set	_ZN6tflite30RecordingSimpleMemoryAllocatorD1Ev,_ZN6tflite30RecordingSimpleMemoryAllocatorD2Ev
  59              		.section	.text._ZN6tflite30RecordingSimpleMemoryAllocatorD0Ev,"ax",%progbits
  60              		.align	2
  61              		.global	_ZN6tflite30RecordingSimpleMemoryAllocatorD0Ev
  62              		.syntax unified
  63              		.arm
  64              		.fpu neon
  66              	_ZN6tflite30RecordingSimpleMemoryAllocatorD0Ev:
  67              		.fnstart
  68              	.LFB66:
  69              		.loc 1 32 0
  70              		.cfi_startproc
  71              		@ args = 0, pretend = 0, frame = 0
  72              		@ frame_needed = 0, uses_anonymous_args = 0
  73              	.LVL2:
  74              	.LBB28:
  75              	.LBB29:
  76 0000 1C309FE5 		ldr	r3, .L7
  77              	.LBE29:
  78              	.LBE28:
  79 0004 10402DE9 		push	{r4, lr}
  80              		.cfi_def_cfa_offset 8
  81              		.cfi_offset 4, -8
  82              		.cfi_offset 14, -4
  83              		.loc 1 32 0
  84 0008 0040A0E1 		mov	r4, r0
  85              	.LVL3:
  86              	.LBB31:
  87              	.LBB30:
  88 000c 003080E5 		str	r3, [r0]
  89 0010 FEFFFFEB 		bl	_ZN6tflite21SimpleMemoryAllocatorD2Ev
  90              	.LVL4:
  91              	.LBE30:
  92              	.LBE31:
  93 0014 0400A0E1 		mov	r0, r4
  94 0018 FEFFFFEB 		bl	_ZdlPv
  95              	.LVL5:
  96 001c 0400A0E1 		mov	r0, r4
  97 0020 1080BDE8 		pop	{r4, pc}
  98              	.L8:
  99              		.align	2
 100              	.L7:
 101 0024 08000000 		.word	.LANCHOR0+8
 102              		.cfi_endproc
 103              	.LFE66:
 104              		.cantunwind
 105              		.fnend
 107              		.section	.text._ZN6tflite30RecordingSimpleMemoryAllocator17SetHeadBufferSizeEjj,"ax",%progbits
 108              		.align	2
 109              		.global	_ZN6tflite30RecordingSimpleMemoryAllocator17SetHeadBufferSizeEjj
 110              		.syntax unified
 111              		.arm
 112              		.fpu neon
 114              	_ZN6tflite30RecordingSimpleMemoryAllocator17SetHeadBufferSizeEjj:
 115              		.fnstart
 116              	.LFB77:
  33:../src/tensorflow_lite/src/tensorflow/lite/micro/recording_simple_memory_allocator.cpp **** 
  34:../src/tensorflow_lite/src/tensorflow/lite/micro/recording_simple_memory_allocator.cpp **** RecordingSimpleMemoryAllocator* RecordingSimpleMemoryAllocator::Create(
  35:../src/tensorflow_lite/src/tensorflow/lite/micro/recording_simple_memory_allocator.cpp ****     ErrorReporter* error_reporter, uint8_t* buffer_head, size_t buffer_size) {
  36:../src/tensorflow_lite/src/tensorflow/lite/micro/recording_simple_memory_allocator.cpp ****   TFLITE_DCHECK(error_reporter != nullptr);
  37:../src/tensorflow_lite/src/tensorflow/lite/micro/recording_simple_memory_allocator.cpp ****   TFLITE_DCHECK(buffer_head != nullptr);
  38:../src/tensorflow_lite/src/tensorflow/lite/micro/recording_simple_memory_allocator.cpp ****   RecordingSimpleMemoryAllocator tmp =
  39:../src/tensorflow_lite/src/tensorflow/lite/micro/recording_simple_memory_allocator.cpp ****       RecordingSimpleMemoryAllocator(error_reporter, buffer_head, buffer_size);
  40:../src/tensorflow_lite/src/tensorflow/lite/micro/recording_simple_memory_allocator.cpp **** 
  41:../src/tensorflow_lite/src/tensorflow/lite/micro/recording_simple_memory_allocator.cpp ****   uint8_t* allocator_buffer =
  42:../src/tensorflow_lite/src/tensorflow/lite/micro/recording_simple_memory_allocator.cpp ****       tmp.AllocateFromTail(sizeof(RecordingSimpleMemoryAllocator),
  43:../src/tensorflow_lite/src/tensorflow/lite/micro/recording_simple_memory_allocator.cpp ****                            alignof(RecordingSimpleMemoryAllocator));
  44:../src/tensorflow_lite/src/tensorflow/lite/micro/recording_simple_memory_allocator.cpp ****   // Use the default copy constructor to populate internal states.
  45:../src/tensorflow_lite/src/tensorflow/lite/micro/recording_simple_memory_allocator.cpp ****   return new (allocator_buffer) RecordingSimpleMemoryAllocator(tmp);
  46:../src/tensorflow_lite/src/tensorflow/lite/micro/recording_simple_memory_allocator.cpp **** }
  47:../src/tensorflow_lite/src/tensorflow/lite/micro/recording_simple_memory_allocator.cpp **** 
  48:../src/tensorflow_lite/src/tensorflow/lite/micro/recording_simple_memory_allocator.cpp **** size_t RecordingSimpleMemoryAllocator::GetRequestedBytes() const {
  49:../src/tensorflow_lite/src/tensorflow/lite/micro/recording_simple_memory_allocator.cpp ****   return requested_head_bytes_ + requested_tail_bytes_;
  50:../src/tensorflow_lite/src/tensorflow/lite/micro/recording_simple_memory_allocator.cpp **** }
  51:../src/tensorflow_lite/src/tensorflow/lite/micro/recording_simple_memory_allocator.cpp **** 
  52:../src/tensorflow_lite/src/tensorflow/lite/micro/recording_simple_memory_allocator.cpp **** size_t RecordingSimpleMemoryAllocator::GetUsedBytes() const {
  53:../src/tensorflow_lite/src/tensorflow/lite/micro/recording_simple_memory_allocator.cpp ****   return used_bytes_;
  54:../src/tensorflow_lite/src/tensorflow/lite/micro/recording_simple_memory_allocator.cpp **** }
  55:../src/tensorflow_lite/src/tensorflow/lite/micro/recording_simple_memory_allocator.cpp **** 
  56:../src/tensorflow_lite/src/tensorflow/lite/micro/recording_simple_memory_allocator.cpp **** size_t RecordingSimpleMemoryAllocator::GetAllocatedCount() const {
  57:../src/tensorflow_lite/src/tensorflow/lite/micro/recording_simple_memory_allocator.cpp ****   return alloc_count_;
  58:../src/tensorflow_lite/src/tensorflow/lite/micro/recording_simple_memory_allocator.cpp **** }
  59:../src/tensorflow_lite/src/tensorflow/lite/micro/recording_simple_memory_allocator.cpp **** 
  60:../src/tensorflow_lite/src/tensorflow/lite/micro/recording_simple_memory_allocator.cpp **** TfLiteStatus RecordingSimpleMemoryAllocator::SetHeadBufferSize(
  61:../src/tensorflow_lite/src/tensorflow/lite/micro/recording_simple_memory_allocator.cpp ****     size_t size, size_t alignment) {
 117              		.loc 1 61 0
 118              		.cfi_startproc
 119              		@ args = 0, pretend = 0, frame = 0
 120              		@ frame_needed = 0, uses_anonymous_args = 0
 121              	.LVL6:
 122 0000 F0412DE9 		push	{r4, r5, r6, r7, r8, lr}
 123              		.save {r4, r5, r6, r7, r8, lr}
 124              		.cfi_def_cfa_offset 24
 125              		.cfi_offset 4, -24
 126              		.cfi_offset 5, -20
 127              		.cfi_offset 6, -16
 128              		.cfi_offset 7, -12
 129              		.cfi_offset 8, -8
 130              		.cfi_offset 14, -4
 131              		.loc 1 61 0
 132 0004 0270A0E1 		mov	r7, r2
 133 0008 0150A0E1 		mov	r5, r1
 134 000c 0040A0E1 		mov	r4, r0
  62:../src/tensorflow_lite/src/tensorflow/lite/micro/recording_simple_memory_allocator.cpp ****   const uint8_t* previous_head = head();
 135              		.loc 1 62 0
 136 0010 FEFFFFEB 		bl	_ZNK6tflite21SimpleMemoryAllocator4headEv
 137              	.LVL7:
  63:../src/tensorflow_lite/src/tensorflow/lite/micro/recording_simple_memory_allocator.cpp ****   TfLiteStatus status =
  64:../src/tensorflow_lite/src/tensorflow/lite/micro/recording_simple_memory_allocator.cpp ****       SimpleMemoryAllocator::SetHeadBufferSize(size, alignment);
 138              		.loc 1 64 0
 139 0014 0720A0E1 		mov	r2, r7
  62:../src/tensorflow_lite/src/tensorflow/lite/micro/recording_simple_memory_allocator.cpp ****   const uint8_t* previous_head = head();
 140              		.loc 1 62 0
 141 0018 0060A0E1 		mov	r6, r0
 142              	.LVL8:
 143              		.loc 1 64 0
 144 001c 0510A0E1 		mov	r1, r5
 145 0020 0400A0E1 		mov	r0, r4
 146              	.LVL9:
 147 0024 FEFFFFEB 		bl	_ZN6tflite21SimpleMemoryAllocator17SetHeadBufferSizeEjj
 148              	.LVL10:
  65:../src/tensorflow_lite/src/tensorflow/lite/micro/recording_simple_memory_allocator.cpp ****   if (status == kTfLiteOk) {
 149              		.loc 1 65 0
 150 0028 007050E2 		subs	r7, r0, #0
 151              	.LVL11:
 152 002c 0600001A 		bne	.L10
  66:../src/tensorflow_lite/src/tensorflow/lite/micro/recording_simple_memory_allocator.cpp ****     used_bytes_ += head() - previous_head;
 153              		.loc 1 66 0
 154 0030 0400A0E1 		mov	r0, r4
 155              	.LVL12:
 156 0034 FEFFFFEB 		bl	_ZNK6tflite21SimpleMemoryAllocator4headEv
 157              	.LVL13:
 158 0038 243094E5 		ldr	r3, [r4, #36]
 159 003c 060040E0 		sub	r0, r0, r6
  67:../src/tensorflow_lite/src/tensorflow/lite/micro/recording_simple_memory_allocator.cpp ****     requested_head_bytes_ = size;
 160              		.loc 1 67 0
 161 0040 1C5084E5 		str	r5, [r4, #28]
  66:../src/tensorflow_lite/src/tensorflow/lite/micro/recording_simple_memory_allocator.cpp ****     used_bytes_ += head() - previous_head;
 162              		.loc 1 66 0
 163 0044 000083E0 		add	r0, r3, r0
 164 0048 240084E5 		str	r0, [r4, #36]
 165              	.L10:
  68:../src/tensorflow_lite/src/tensorflow/lite/micro/recording_simple_memory_allocator.cpp ****   }
  69:../src/tensorflow_lite/src/tensorflow/lite/micro/recording_simple_memory_allocator.cpp ****   return status;
  70:../src/tensorflow_lite/src/tensorflow/lite/micro/recording_simple_memory_allocator.cpp **** }
 166              		.loc 1 70 0
 167 004c 0700A0E1 		mov	r0, r7
 168 0050 F081BDE8 		pop	{r4, r5, r6, r7, r8, pc}
 169              		.cfi_endproc
 170              	.LFE77:
 171              		.fnend
 173              		.section	.text._ZN6tflite30RecordingSimpleMemoryAllocator16AllocateFromTailEjj,"ax",%progbits
 174              		.align	2
 175              		.global	_ZN6tflite30RecordingSimpleMemoryAllocator16AllocateFromTailEjj
 176              		.syntax unified
 177              		.arm
 178              		.fpu neon
 180              	_ZN6tflite30RecordingSimpleMemoryAllocator16AllocateFromTailEjj:
 181              		.fnstart
 182              	.LFB78:
  71:../src/tensorflow_lite/src/tensorflow/lite/micro/recording_simple_memory_allocator.cpp **** 
  72:../src/tensorflow_lite/src/tensorflow/lite/micro/recording_simple_memory_allocator.cpp **** uint8_t* RecordingSimpleMemoryAllocator::AllocateFromTail(size_t size,
  73:../src/tensorflow_lite/src/tensorflow/lite/micro/recording_simple_memory_allocator.cpp ****                                                           size_t alignment) {
 183              		.loc 1 73 0
 184              		.cfi_startproc
 185              		@ args = 0, pretend = 0, frame = 0
 186              		@ frame_needed = 0, uses_anonymous_args = 0
 187              	.LVL14:
 188 0000 F0412DE9 		push	{r4, r5, r6, r7, r8, lr}
 189              		.save {r4, r5, r6, r7, r8, lr}
 190              		.cfi_def_cfa_offset 24
 191              		.cfi_offset 4, -24
 192              		.cfi_offset 5, -20
 193              		.cfi_offset 6, -16
 194              		.cfi_offset 7, -12
 195              		.cfi_offset 8, -8
 196              		.cfi_offset 14, -4
 197              		.loc 1 73 0
 198 0004 0270A0E1 		mov	r7, r2
 199 0008 0160A0E1 		mov	r6, r1
 200 000c 0040A0E1 		mov	r4, r0
  74:../src/tensorflow_lite/src/tensorflow/lite/micro/recording_simple_memory_allocator.cpp ****   const uint8_t* previous_tail = tail();
 201              		.loc 1 74 0
 202 0010 FEFFFFEB 		bl	_ZNK6tflite21SimpleMemoryAllocator4tailEv
 203              	.LVL15:
  75:../src/tensorflow_lite/src/tensorflow/lite/micro/recording_simple_memory_allocator.cpp ****   uint8_t* result = SimpleMemoryAllocator::AllocateFromTail(size, alignment);
 204              		.loc 1 75 0
 205 0014 0720A0E1 		mov	r2, r7
  74:../src/tensorflow_lite/src/tensorflow/lite/micro/recording_simple_memory_allocator.cpp ****   const uint8_t* previous_tail = tail();
 206              		.loc 1 74 0
 207 0018 0050A0E1 		mov	r5, r0
 208              	.LVL16:
 209              		.loc 1 75 0
 210 001c 0610A0E1 		mov	r1, r6
 211 0020 0400A0E1 		mov	r0, r4
 212              	.LVL17:
 213 0024 FEFFFFEB 		bl	_ZN6tflite21SimpleMemoryAllocator16AllocateFromTailEjj
 214              	.LVL18:
  76:../src/tensorflow_lite/src/tensorflow/lite/micro/recording_simple_memory_allocator.cpp ****   if (result != nullptr) {
 215              		.loc 1 76 0
 216 0028 007050E2 		subs	r7, r0, #0
 217              	.LVL19:
 218 002c 0B00000A 		beq	.L13
  77:../src/tensorflow_lite/src/tensorflow/lite/micro/recording_simple_memory_allocator.cpp ****     used_bytes_ += previous_tail - tail();
 219              		.loc 1 77 0
 220 0030 0400A0E1 		mov	r0, r4
 221              	.LVL20:
 222 0034 FEFFFFEB 		bl	_ZNK6tflite21SimpleMemoryAllocator4tailEv
 223              	.LVL21:
 224 0038 242094E5 		ldr	r2, [r4, #36]
 225 003c 000045E0 		sub	r0, r5, r0
  78:../src/tensorflow_lite/src/tensorflow/lite/micro/recording_simple_memory_allocator.cpp ****     requested_tail_bytes_ += size;
 226              		.loc 1 78 0
 227 0040 201094E5 		ldr	r1, [r4, #32]
  79:../src/tensorflow_lite/src/tensorflow/lite/micro/recording_simple_memory_allocator.cpp ****     alloc_count_++;
 228              		.loc 1 79 0
 229 0044 283094E5 		ldr	r3, [r4, #40]
  77:../src/tensorflow_lite/src/tensorflow/lite/micro/recording_simple_memory_allocator.cpp ****     used_bytes_ += previous_tail - tail();
 230              		.loc 1 77 0
 231 0048 000082E0 		add	r0, r2, r0
  78:../src/tensorflow_lite/src/tensorflow/lite/micro/recording_simple_memory_allocator.cpp ****     requested_tail_bytes_ += size;
 232              		.loc 1 78 0
 233 004c 061081E0 		add	r1, r1, r6
  77:../src/tensorflow_lite/src/tensorflow/lite/micro/recording_simple_memory_allocator.cpp ****     used_bytes_ += previous_tail - tail();
 234              		.loc 1 77 0
 235 0050 240084E5 		str	r0, [r4, #36]
 236              		.loc 1 79 0
 237 0054 013083E2 		add	r3, r3, #1
  78:../src/tensorflow_lite/src/tensorflow/lite/micro/recording_simple_memory_allocator.cpp ****     requested_tail_bytes_ += size;
 238              		.loc 1 78 0
 239 0058 201084E5 		str	r1, [r4, #32]
 240              		.loc 1 79 0
 241 005c 283084E5 		str	r3, [r4, #40]
 242              	.L13:
  80:../src/tensorflow_lite/src/tensorflow/lite/micro/recording_simple_memory_allocator.cpp ****   }
  81:../src/tensorflow_lite/src/tensorflow/lite/micro/recording_simple_memory_allocator.cpp ****   return result;
  82:../src/tensorflow_lite/src/tensorflow/lite/micro/recording_simple_memory_allocator.cpp **** }
 243              		.loc 1 82 0
 244 0060 0700A0E1 		mov	r0, r7
 245 0064 F081BDE8 		pop	{r4, r5, r6, r7, r8, pc}
 246              		.cfi_endproc
 247              	.LFE78:
 248              		.fnend
 250              		.section	.text._ZN6tflite30RecordingSimpleMemoryAllocatorC2EPNS_13ErrorReporterEPhj,"ax",%progbits
 251              		.align	2
 252              		.global	_ZN6tflite30RecordingSimpleMemoryAllocatorC2EPNS_13ErrorReporterEPhj
 253              		.syntax unified
 254              		.arm
 255              		.fpu neon
 257              	_ZN6tflite30RecordingSimpleMemoryAllocatorC2EPNS_13ErrorReporterEPhj:
 258              		.fnstart
 259              	.LFB61:
  24:../src/tensorflow_lite/src/tensorflow/lite/micro/recording_simple_memory_allocator.cpp ****     ErrorReporter* error_reporter, uint8_t* buffer_head, size_t buffer_size)
 260              		.loc 1 24 0
 261              		.cfi_startproc
 262              		@ args = 0, pretend = 0, frame = 0
 263              		@ frame_needed = 0, uses_anonymous_args = 0
 264              	.LVL22:
 265 0000 10402DE9 		push	{r4, lr}
 266              		.save {r4, lr}
 267              		.cfi_def_cfa_offset 8
 268              		.cfi_offset 4, -8
 269              		.cfi_offset 14, -4
  24:../src/tensorflow_lite/src/tensorflow/lite/micro/recording_simple_memory_allocator.cpp ****     ErrorReporter* error_reporter, uint8_t* buffer_head, size_t buffer_size)
 270              		.loc 1 24 0
 271 0004 0040A0E1 		mov	r4, r0
 272              	.LBB32:
  30:../src/tensorflow_lite/src/tensorflow/lite/micro/recording_simple_memory_allocator.cpp **** 
 273              		.loc 1 30 0
 274 0008 FEFFFFEB 		bl	_ZN6tflite21SimpleMemoryAllocatorC2EPNS_13ErrorReporterEPhj
 275              	.LVL23:
 276 000c 0030A0E3 		mov	r3, #0
 277              	.LBE32:
 278 0010 0400A0E1 		mov	r0, r4
 279              	.LBB33:
 280 0014 14209FE5 		ldr	r2, .L21
 281 0018 1C3084E5 		str	r3, [r4, #28]
 282 001c 203084E5 		str	r3, [r4, #32]
 283 0020 002084E5 		str	r2, [r4]
 284 0024 243084E5 		str	r3, [r4, #36]
 285 0028 283084E5 		str	r3, [r4, #40]
 286              	.LBE33:
 287 002c 1080BDE8 		pop	{r4, pc}
 288              	.L22:
 289              		.align	2
 290              	.L21:
 291 0030 08000000 		.word	.LANCHOR0+8
 292              		.cfi_endproc
 293              	.LFE61:
 294              		.fnend
 296              		.global	_ZN6tflite30RecordingSimpleMemoryAllocatorC1EPNS_13ErrorReporterEPhj
 297              		.set	_ZN6tflite30RecordingSimpleMemoryAllocatorC1EPNS_13ErrorReporterEPhj,_ZN6tflite30RecordingSim
 298              		.section	.text._ZN6tflite30RecordingSimpleMemoryAllocator6CreateEPNS_13ErrorReporterEPhj,"ax",%pro
 299              		.align	2
 300              		.global	_ZN6tflite30RecordingSimpleMemoryAllocator6CreateEPNS_13ErrorReporterEPhj
 301              		.syntax unified
 302              		.arm
 303              		.fpu neon
 305              	_ZN6tflite30RecordingSimpleMemoryAllocator6CreateEPNS_13ErrorReporterEPhj:
 306              		.fnstart
 307              	.LFB67:
  35:../src/tensorflow_lite/src/tensorflow/lite/micro/recording_simple_memory_allocator.cpp ****   TFLITE_DCHECK(error_reporter != nullptr);
 308              		.loc 1 35 0
 309              		.cfi_startproc
 310              		.cfi_personality 0,__gxx_personality_v0
 311              		.cfi_lsda 0,.LLSDA67
 312              		@ args = 0, pretend = 0, frame = 48
 313              		@ frame_needed = 0, uses_anonymous_args = 0
 314              	.LVL24:
  36:../src/tensorflow_lite/src/tensorflow/lite/micro/recording_simple_memory_allocator.cpp ****   TFLITE_DCHECK(buffer_head != nullptr);
 315              		.loc 1 36 0
 316 0000 000050E3 		cmp	r0, #0
  35:../src/tensorflow_lite/src/tensorflow/lite/micro/recording_simple_memory_allocator.cpp ****   TFLITE_DCHECK(error_reporter != nullptr);
 317              		.loc 1 35 0
 318 0004 70402DE9 		push	{r4, r5, r6, lr}
 319              		.save {r4, r5, r6, lr}
 320              		.cfi_def_cfa_offset 16
 321              		.cfi_offset 4, -16
 322              		.cfi_offset 5, -12
 323              		.cfi_offset 6, -8
 324              		.cfi_offset 14, -4
 325              		.pad #48
 326 0008 30D04DE2 		sub	sp, sp, #48
 327              		.cfi_def_cfa_offset 64
  36:../src/tensorflow_lite/src/tensorflow/lite/micro/recording_simple_memory_allocator.cpp ****   TFLITE_DCHECK(buffer_head != nullptr);
 328              		.loc 1 36 0
 329 000c 3D00000A 		beq	.L25
  37:../src/tensorflow_lite/src/tensorflow/lite/micro/recording_simple_memory_allocator.cpp ****   RecordingSimpleMemoryAllocator tmp =
 330              		.loc 1 37 0
 331 0010 000051E3 		cmp	r1, #0
 332 0014 3B00000A 		beq	.L25
 333              	.LVL25:
 334              	.LBB49:
 335              	.LBB50:
 336              	.LBB51:
  30:../src/tensorflow_lite/src/tensorflow/lite/micro/recording_simple_memory_allocator.cpp **** 
 337              		.loc 1 30 0
 338 0018 FC509FE5 		ldr	r5, .L37
 339 001c 0230A0E1 		mov	r3, r2
 340 0020 0120A0E1 		mov	r2, r1
 341              	.LVL26:
 342 0024 0010A0E1 		mov	r1, r0
 343              	.LVL27:
 344 0028 04008DE2 		add	r0, sp, #4
 345              	.LVL28:
 346              	.LEHB0:
 347 002c FEFFFFEB 		bl	_ZN6tflite21SimpleMemoryAllocatorC2EPNS_13ErrorReporterEPhj
 348              	.LVL29:
 349              	.LEHE0:
 350 0030 0030A0E3 		mov	r3, #0
 351              	.LBE51:
 352              	.LBE50:
 353              	.LBE49:
 354              	.LBB54:
 355              	.LBB55:
  74:../src/tensorflow_lite/src/tensorflow/lite/micro/recording_simple_memory_allocator.cpp ****   uint8_t* result = SimpleMemoryAllocator::AllocateFromTail(size, alignment);
 356              		.loc 1 74 0
 357 0034 04008DE2 		add	r0, sp, #4
 358              	.LVL30:
 359              	.LBE55:
 360              	.LBE54:
 361              	.LBB58:
 362              	.LBB53:
 363              	.LBB52:
  30:../src/tensorflow_lite/src/tensorflow/lite/micro/recording_simple_memory_allocator.cpp **** 
 364              		.loc 1 30 0
 365 0038 04508DE5 		str	r5, [sp, #4]
 366 003c 20308DE5 		str	r3, [sp, #32]
 367 0040 24308DE5 		str	r3, [sp, #36]
 368 0044 28308DE5 		str	r3, [sp, #40]
 369 0048 2C308DE5 		str	r3, [sp, #44]
 370              	.LVL31:
 371              	.LEHB1:
 372              	.LBE52:
 373              	.LBE53:
 374              	.LBE58:
 375              	.LBB59:
 376              	.LBB56:
  74:../src/tensorflow_lite/src/tensorflow/lite/micro/recording_simple_memory_allocator.cpp ****   uint8_t* result = SimpleMemoryAllocator::AllocateFromTail(size, alignment);
 377              		.loc 1 74 0
 378 004c FEFFFFEB 		bl	_ZNK6tflite21SimpleMemoryAllocator4tailEv
 379              	.LVL32:
 380 0050 0060A0E1 		mov	r6, r0
 381              	.LVL33:
  75:../src/tensorflow_lite/src/tensorflow/lite/micro/recording_simple_memory_allocator.cpp ****   if (result != nullptr) {
 382              		.loc 1 75 0
 383 0054 0420A0E3 		mov	r2, #4
 384 0058 04008DE2 		add	r0, sp, #4
 385              	.LVL34:
 386 005c 2C10A0E3 		mov	r1, #44
 387 0060 FEFFFFEB 		bl	_ZN6tflite21SimpleMemoryAllocator16AllocateFromTailEjj
 388              	.LVL35:
  76:../src/tensorflow_lite/src/tensorflow/lite/micro/recording_simple_memory_allocator.cpp ****     used_bytes_ += previous_tail - tail();
 389              		.loc 1 76 0
 390 0064 004050E2 		subs	r4, r0, #0
 391 0068 2000000A 		beq	.L26
  77:../src/tensorflow_lite/src/tensorflow/lite/micro/recording_simple_memory_allocator.cpp ****     requested_tail_bytes_ += size;
 392              		.loc 1 77 0
 393 006c 04008DE2 		add	r0, sp, #4
 394              	.LVL36:
 395 0070 FEFFFFEB 		bl	_ZNK6tflite21SimpleMemoryAllocator4tailEv
 396              	.LVL37:
 397              	.LEHE1:
 398 0074 28109DE5 		ldr	r1, [sp, #40]
 399 0078 000046E0 		sub	r0, r6, r0
  79:../src/tensorflow_lite/src/tensorflow/lite/micro/recording_simple_memory_allocator.cpp ****   }
 400              		.loc 1 79 0
 401 007c 2C309DE5 		ldr	r3, [sp, #44]
  78:../src/tensorflow_lite/src/tensorflow/lite/micro/recording_simple_memory_allocator.cpp ****     alloc_count_++;
 402              		.loc 1 78 0
 403 0080 24209DE5 		ldr	r2, [sp, #36]
 404              	.LBE56:
 405              	.LBE59:
 406              	.LBB60:
 407              	.LBB61:
 408              	.LBB62:
 409              	.LBB63:
 410              		.file 2 "C:/Renesas/e2studio_2021_01_workspace_RZA2M_ANPR/ANPR_RZA2M_RDK/src/tensorflow_lite/src/t
   1:C:/Renesas/e2studio_2021_01_workspace_RZA2M_ANPR/ANPR_RZA2M_RDK/src/tensorflow_lite/src/tensorflow/lite/micro\simple_memory_allocator.h **** /* Copyright 2020 The TensorFlow Authors. All Rights Reserved.
   2:C:/Renesas/e2studio_2021_01_workspace_RZA2M_ANPR/ANPR_RZA2M_RDK/src/tensorflow_lite/src/tensorflow/lite/micro\simple_memory_allocator.h **** 
   3:C:/Renesas/e2studio_2021_01_workspace_RZA2M_ANPR/ANPR_RZA2M_RDK/src/tensorflow_lite/src/tensorflow/lite/micro\simple_memory_allocator.h **** Licensed under the Apache License, Version 2.0 (the "License");
   4:C:/Renesas/e2studio_2021_01_workspace_RZA2M_ANPR/ANPR_RZA2M_RDK/src/tensorflow_lite/src/tensorflow/lite/micro\simple_memory_allocator.h **** you may not use this file except in compliance with the License.
   5:C:/Renesas/e2studio_2021_01_workspace_RZA2M_ANPR/ANPR_RZA2M_RDK/src/tensorflow_lite/src/tensorflow/lite/micro\simple_memory_allocator.h **** You may obtain a copy of the License at
   6:C:/Renesas/e2studio_2021_01_workspace_RZA2M_ANPR/ANPR_RZA2M_RDK/src/tensorflow_lite/src/tensorflow/lite/micro\simple_memory_allocator.h **** 
   7:C:/Renesas/e2studio_2021_01_workspace_RZA2M_ANPR/ANPR_RZA2M_RDK/src/tensorflow_lite/src/tensorflow/lite/micro\simple_memory_allocator.h ****     http://www.apache.org/licenses/LICENSE-2.0
   8:C:/Renesas/e2studio_2021_01_workspace_RZA2M_ANPR/ANPR_RZA2M_RDK/src/tensorflow_lite/src/tensorflow/lite/micro\simple_memory_allocator.h **** 
   9:C:/Renesas/e2studio_2021_01_workspace_RZA2M_ANPR/ANPR_RZA2M_RDK/src/tensorflow_lite/src/tensorflow/lite/micro\simple_memory_allocator.h **** Unless required by applicable law or agreed to in writing, software
  10:C:/Renesas/e2studio_2021_01_workspace_RZA2M_ANPR/ANPR_RZA2M_RDK/src/tensorflow_lite/src/tensorflow/lite/micro\simple_memory_allocator.h **** distributed under the License is distributed on an "AS IS" BASIS,
  11:C:/Renesas/e2studio_2021_01_workspace_RZA2M_ANPR/ANPR_RZA2M_RDK/src/tensorflow_lite/src/tensorflow/lite/micro\simple_memory_allocator.h **** WITHOUT WARRANTIES OR CONDITIONS OF ANY KIND, either express or implied.
  12:C:/Renesas/e2studio_2021_01_workspace_RZA2M_ANPR/ANPR_RZA2M_RDK/src/tensorflow_lite/src/tensorflow/lite/micro\simple_memory_allocator.h **** See the License for the specific language governing permissions and
  13:C:/Renesas/e2studio_2021_01_workspace_RZA2M_ANPR/ANPR_RZA2M_RDK/src/tensorflow_lite/src/tensorflow/lite/micro\simple_memory_allocator.h **** limitations under the License.
  14:C:/Renesas/e2studio_2021_01_workspace_RZA2M_ANPR/ANPR_RZA2M_RDK/src/tensorflow_lite/src/tensorflow/lite/micro\simple_memory_allocator.h **** ==============================================================================*/
  15:C:/Renesas/e2studio_2021_01_workspace_RZA2M_ANPR/ANPR_RZA2M_RDK/src/tensorflow_lite/src/tensorflow/lite/micro\simple_memory_allocator.h **** 
  16:C:/Renesas/e2studio_2021_01_workspace_RZA2M_ANPR/ANPR_RZA2M_RDK/src/tensorflow_lite/src/tensorflow/lite/micro\simple_memory_allocator.h **** #ifndef TENSORFLOW_LITE_MICRO_SIMPLE_MEMORY_ALLOCATOR_H_
  17:C:/Renesas/e2studio_2021_01_workspace_RZA2M_ANPR/ANPR_RZA2M_RDK/src/tensorflow_lite/src/tensorflow/lite/micro\simple_memory_allocator.h **** #define TENSORFLOW_LITE_MICRO_SIMPLE_MEMORY_ALLOCATOR_H_
  18:C:/Renesas/e2studio_2021_01_workspace_RZA2M_ANPR/ANPR_RZA2M_RDK/src/tensorflow_lite/src/tensorflow/lite/micro\simple_memory_allocator.h **** 
  19:C:/Renesas/e2studio_2021_01_workspace_RZA2M_ANPR/ANPR_RZA2M_RDK/src/tensorflow_lite/src/tensorflow/lite/micro\simple_memory_allocator.h **** #include <cstddef>
  20:C:/Renesas/e2studio_2021_01_workspace_RZA2M_ANPR/ANPR_RZA2M_RDK/src/tensorflow_lite/src/tensorflow/lite/micro\simple_memory_allocator.h **** #include <cstdint>
  21:C:/Renesas/e2studio_2021_01_workspace_RZA2M_ANPR/ANPR_RZA2M_RDK/src/tensorflow_lite/src/tensorflow/lite/micro\simple_memory_allocator.h **** 
  22:C:/Renesas/e2studio_2021_01_workspace_RZA2M_ANPR/ANPR_RZA2M_RDK/src/tensorflow_lite/src/tensorflow/lite/micro\simple_memory_allocator.h **** #include "tensorflow/lite/c/common.h"
  23:C:/Renesas/e2studio_2021_01_workspace_RZA2M_ANPR/ANPR_RZA2M_RDK/src/tensorflow_lite/src/tensorflow/lite/micro\simple_memory_allocator.h **** #include "tensorflow/lite/core/api/error_reporter.h"
  24:C:/Renesas/e2studio_2021_01_workspace_RZA2M_ANPR/ANPR_RZA2M_RDK/src/tensorflow_lite/src/tensorflow/lite/micro\simple_memory_allocator.h **** #include "tensorflow/lite/micro/compatibility.h"
  25:C:/Renesas/e2studio_2021_01_workspace_RZA2M_ANPR/ANPR_RZA2M_RDK/src/tensorflow_lite/src/tensorflow/lite/micro\simple_memory_allocator.h **** 
  26:C:/Renesas/e2studio_2021_01_workspace_RZA2M_ANPR/ANPR_RZA2M_RDK/src/tensorflow_lite/src/tensorflow/lite/micro\simple_memory_allocator.h **** namespace tflite {
  27:C:/Renesas/e2studio_2021_01_workspace_RZA2M_ANPR/ANPR_RZA2M_RDK/src/tensorflow_lite/src/tensorflow/lite/micro\simple_memory_allocator.h **** 
  28:C:/Renesas/e2studio_2021_01_workspace_RZA2M_ANPR/ANPR_RZA2M_RDK/src/tensorflow_lite/src/tensorflow/lite/micro\simple_memory_allocator.h **** // TODO(petewarden): This allocator never frees up or reuses  any memory, even
  29:C:/Renesas/e2studio_2021_01_workspace_RZA2M_ANPR/ANPR_RZA2M_RDK/src/tensorflow_lite/src/tensorflow/lite/micro\simple_memory_allocator.h **** // though we have enough information about lifetimes of the tensors to do so.
  30:C:/Renesas/e2studio_2021_01_workspace_RZA2M_ANPR/ANPR_RZA2M_RDK/src/tensorflow_lite/src/tensorflow/lite/micro\simple_memory_allocator.h **** // This makes it pretty wasteful, so we should use a more intelligent method.
  31:C:/Renesas/e2studio_2021_01_workspace_RZA2M_ANPR/ANPR_RZA2M_RDK/src/tensorflow_lite/src/tensorflow/lite/micro\simple_memory_allocator.h **** class SimpleMemoryAllocator {
 411              		.loc 2 31 0
 412 0084 0CC09DE5 		ldr	ip, [sp, #12]
 413              	.LBE63:
 414              	.LBE62:
 415              	.LBE61:
 416              	.LBE60:
 417              	.LBB75:
 418              	.LBB57:
  77:../src/tensorflow_lite/src/tensorflow/lite/micro/recording_simple_memory_allocator.cpp ****     requested_tail_bytes_ += size;
 419              		.loc 1 77 0
 420 0088 000081E0 		add	r0, r1, r0
  79:../src/tensorflow_lite/src/tensorflow/lite/micro/recording_simple_memory_allocator.cpp ****   }
 421              		.loc 1 79 0
 422 008c 013083E2 		add	r3, r3, #1
  77:../src/tensorflow_lite/src/tensorflow/lite/micro/recording_simple_memory_allocator.cpp ****     requested_tail_bytes_ += size;
 423              		.loc 1 77 0
 424 0090 28008DE5 		str	r0, [sp, #40]
  78:../src/tensorflow_lite/src/tensorflow/lite/micro/recording_simple_memory_allocator.cpp ****     alloc_count_++;
 425              		.loc 1 78 0
 426 0094 2C2082E2 		add	r2, r2, #44
  79:../src/tensorflow_lite/src/tensorflow/lite/micro/recording_simple_memory_allocator.cpp ****   }
 427              		.loc 1 79 0
 428 0098 2C308DE5 		str	r3, [sp, #44]
 429              	.LVL38:
  78:../src/tensorflow_lite/src/tensorflow/lite/micro/recording_simple_memory_allocator.cpp ****     alloc_count_++;
 430              		.loc 1 78 0
 431 009c 24208DE5 		str	r2, [sp, #36]
 432              	.LBE57:
 433              	.LBE75:
 434              	.LBB76:
 435              	.LBB74:
 436              	.LBB69:
 437              	.LBB64:
 438              		.loc 2 31 0
 439 00a0 08C084E5 		str	ip, [r4, #8]
 440 00a4 10309DE5 		ldr	r3, [sp, #16]
 441              	.LBE64:
 442              	.LBE69:
 443              		.file 3 "C:/Renesas/e2studio_2021_01_workspace_RZA2M_ANPR/ANPR_RZA2M_RDK/src/tensorflow_lite/src/t
   1:C:/Renesas/e2studio_2021_01_workspace_RZA2M_ANPR/ANPR_RZA2M_RDK/src/tensorflow_lite/src/tensorflow/lite/micro\recording_simple_memory_allocator.h **** /* Copyright 2020 The TensorFlow Authors. All Rights Reserved.
   2:C:/Renesas/e2studio_2021_01_workspace_RZA2M_ANPR/ANPR_RZA2M_RDK/src/tensorflow_lite/src/tensorflow/lite/micro\recording_simple_memory_allocator.h **** 
   3:C:/Renesas/e2studio_2021_01_workspace_RZA2M_ANPR/ANPR_RZA2M_RDK/src/tensorflow_lite/src/tensorflow/lite/micro\recording_simple_memory_allocator.h **** Licensed under the Apache License, Version 2.0 (the "License");
   4:C:/Renesas/e2studio_2021_01_workspace_RZA2M_ANPR/ANPR_RZA2M_RDK/src/tensorflow_lite/src/tensorflow/lite/micro\recording_simple_memory_allocator.h **** you may not use this file except in compliance with the License.
   5:C:/Renesas/e2studio_2021_01_workspace_RZA2M_ANPR/ANPR_RZA2M_RDK/src/tensorflow_lite/src/tensorflow/lite/micro\recording_simple_memory_allocator.h **** You may obtain a copy of the License at
   6:C:/Renesas/e2studio_2021_01_workspace_RZA2M_ANPR/ANPR_RZA2M_RDK/src/tensorflow_lite/src/tensorflow/lite/micro\recording_simple_memory_allocator.h **** 
   7:C:/Renesas/e2studio_2021_01_workspace_RZA2M_ANPR/ANPR_RZA2M_RDK/src/tensorflow_lite/src/tensorflow/lite/micro\recording_simple_memory_allocator.h ****     http://www.apache.org/licenses/LICENSE-2.0
   8:C:/Renesas/e2studio_2021_01_workspace_RZA2M_ANPR/ANPR_RZA2M_RDK/src/tensorflow_lite/src/tensorflow/lite/micro\recording_simple_memory_allocator.h **** 
   9:C:/Renesas/e2studio_2021_01_workspace_RZA2M_ANPR/ANPR_RZA2M_RDK/src/tensorflow_lite/src/tensorflow/lite/micro\recording_simple_memory_allocator.h **** Unless required by applicable law or agreed to in writing, software
  10:C:/Renesas/e2studio_2021_01_workspace_RZA2M_ANPR/ANPR_RZA2M_RDK/src/tensorflow_lite/src/tensorflow/lite/micro\recording_simple_memory_allocator.h **** distributed under the License is distributed on an "AS IS" BASIS,
  11:C:/Renesas/e2studio_2021_01_workspace_RZA2M_ANPR/ANPR_RZA2M_RDK/src/tensorflow_lite/src/tensorflow/lite/micro\recording_simple_memory_allocator.h **** WITHOUT WARRANTIES OR CONDITIONS OF ANY KIND, either express or implied.
  12:C:/Renesas/e2studio_2021_01_workspace_RZA2M_ANPR/ANPR_RZA2M_RDK/src/tensorflow_lite/src/tensorflow/lite/micro\recording_simple_memory_allocator.h **** See the License for the specific language governing permissions and
  13:C:/Renesas/e2studio_2021_01_workspace_RZA2M_ANPR/ANPR_RZA2M_RDK/src/tensorflow_lite/src/tensorflow/lite/micro\recording_simple_memory_allocator.h **** limitations under the License.
  14:C:/Renesas/e2studio_2021_01_workspace_RZA2M_ANPR/ANPR_RZA2M_RDK/src/tensorflow_lite/src/tensorflow/lite/micro\recording_simple_memory_allocator.h **** ==============================================================================*/
  15:C:/Renesas/e2studio_2021_01_workspace_RZA2M_ANPR/ANPR_RZA2M_RDK/src/tensorflow_lite/src/tensorflow/lite/micro\recording_simple_memory_allocator.h **** 
  16:C:/Renesas/e2studio_2021_01_workspace_RZA2M_ANPR/ANPR_RZA2M_RDK/src/tensorflow_lite/src/tensorflow/lite/micro\recording_simple_memory_allocator.h **** #ifndef TENSORFLOW_LITE_MICRO_RECORDING_SIMPLE_MEMORY_ALLOCATOR_H_
  17:C:/Renesas/e2studio_2021_01_workspace_RZA2M_ANPR/ANPR_RZA2M_RDK/src/tensorflow_lite/src/tensorflow/lite/micro\recording_simple_memory_allocator.h **** #define TENSORFLOW_LITE_MICRO_RECORDING_SIMPLE_MEMORY_ALLOCATOR_H_
  18:C:/Renesas/e2studio_2021_01_workspace_RZA2M_ANPR/ANPR_RZA2M_RDK/src/tensorflow_lite/src/tensorflow/lite/micro\recording_simple_memory_allocator.h **** 
  19:C:/Renesas/e2studio_2021_01_workspace_RZA2M_ANPR/ANPR_RZA2M_RDK/src/tensorflow_lite/src/tensorflow/lite/micro\recording_simple_memory_allocator.h **** #include "tensorflow/lite/micro/compatibility.h"
  20:C:/Renesas/e2studio_2021_01_workspace_RZA2M_ANPR/ANPR_RZA2M_RDK/src/tensorflow_lite/src/tensorflow/lite/micro\recording_simple_memory_allocator.h **** #include "tensorflow/lite/micro/simple_memory_allocator.h"
  21:C:/Renesas/e2studio_2021_01_workspace_RZA2M_ANPR/ANPR_RZA2M_RDK/src/tensorflow_lite/src/tensorflow/lite/micro\recording_simple_memory_allocator.h **** 
  22:C:/Renesas/e2studio_2021_01_workspace_RZA2M_ANPR/ANPR_RZA2M_RDK/src/tensorflow_lite/src/tensorflow/lite/micro\recording_simple_memory_allocator.h **** namespace tflite {
  23:C:/Renesas/e2studio_2021_01_workspace_RZA2M_ANPR/ANPR_RZA2M_RDK/src/tensorflow_lite/src/tensorflow/lite/micro\recording_simple_memory_allocator.h **** 
  24:C:/Renesas/e2studio_2021_01_workspace_RZA2M_ANPR/ANPR_RZA2M_RDK/src/tensorflow_lite/src/tensorflow/lite/micro\recording_simple_memory_allocator.h **** // Utility class used to log allocations of a SimpleMemoryAllocator. Should only
  25:C:/Renesas/e2studio_2021_01_workspace_RZA2M_ANPR/ANPR_RZA2M_RDK/src/tensorflow_lite/src/tensorflow/lite/micro\recording_simple_memory_allocator.h **** // be used in debug/evaluation settings or unit tests to evaluate allocation
  26:C:/Renesas/e2studio_2021_01_workspace_RZA2M_ANPR/ANPR_RZA2M_RDK/src/tensorflow_lite/src/tensorflow/lite/micro\recording_simple_memory_allocator.h **** // usage.
  27:C:/Renesas/e2studio_2021_01_workspace_RZA2M_ANPR/ANPR_RZA2M_RDK/src/tensorflow_lite/src/tensorflow/lite/micro\recording_simple_memory_allocator.h **** class RecordingSimpleMemoryAllocator : public SimpleMemoryAllocator {
 444              		.loc 3 27 0
 445 00a8 28109DE5 		ldr	r1, [sp, #40]
 446 00ac 24209DE5 		ldr	r2, [sp, #36]
 447              	.LBB70:
 448              	.LBB65:
 449              		.loc 2 31 0
 450 00b0 0C3084E5 		str	r3, [r4, #12]
 451 00b4 14309DE5 		ldr	r3, [sp, #20]
 452              	.LBE65:
 453              	.LBE70:
 454              		.loc 3 27 0
 455 00b8 2C009DE5 		ldr	r0, [sp, #44]
 456 00bc 202084E5 		str	r2, [r4, #32]
 457              	.LBB71:
 458              	.LBB66:
 459              		.loc 2 31 0
 460 00c0 103084E5 		str	r3, [r4, #16]
 461 00c4 18309DE5 		ldr	r3, [sp, #24]
 462 00c8 08209DE5 		ldr	r2, [sp, #8]
 463              	.LBE66:
 464              	.LBE71:
 465              		.loc 3 27 0
 466 00cc 241084E5 		str	r1, [r4, #36]
 467              	.LBB72:
 468              	.LBB67:
 469              		.loc 2 31 0
 470 00d0 143084E5 		str	r3, [r4, #20]
 471 00d4 1C109DE5 		ldr	r1, [sp, #28]
 472              	.LBE67:
 473              	.LBE72:
 474              		.loc 3 27 0
 475 00d8 20309DE5 		ldr	r3, [sp, #32]
 476 00dc 280084E5 		str	r0, [r4, #40]
 477              	.LBB73:
 478              	.LBB68:
 479              		.loc 2 31 0
 480 00e0 181084E5 		str	r1, [r4, #24]
 481              	.LVL39:
 482 00e4 042084E5 		str	r2, [r4, #4]
 483              	.LBE68:
 484              	.LBE73:
 485              		.loc 3 27 0
 486 00e8 005084E5 		str	r5, [r4]
 487 00ec 1C3084E5 		str	r3, [r4, #28]
 488              	.LVL40:
 489              	.L26:
 490              	.LBE74:
 491              	.LBE76:
 492              	.LBB77:
 493              	.LBB78:
  32:../src/tensorflow_lite/src/tensorflow/lite/micro/recording_simple_memory_allocator.cpp **** 
 494              		.loc 1 32 0 discriminator 4
 495 00f0 04008DE2 		add	r0, sp, #4
 496              	.LVL41:
 497 00f4 04508DE5 		str	r5, [sp, #4]
 498 00f8 FEFFFFEB 		bl	_ZN6tflite21SimpleMemoryAllocatorD2Ev
 499              	.LVL42:
 500              	.LBE78:
 501              	.LBE77:
  46:../src/tensorflow_lite/src/tensorflow/lite/micro/recording_simple_memory_allocator.cpp **** 
 502              		.loc 1 46 0 discriminator 4
 503 00fc 0400A0E1 		mov	r0, r4
 504 0100 30D08DE2 		add	sp, sp, #48
 505              		.cfi_remember_state
 506              		.cfi_def_cfa_offset 16
 507              		@ sp needed
 508 0104 7080BDE8 		pop	{r4, r5, r6, pc}
 509              	.LVL43:
 510              	.L25:
 511              		.cfi_restore_state
 512              	.LEHB2:
  36:../src/tensorflow_lite/src/tensorflow/lite/micro/recording_simple_memory_allocator.cpp ****   TFLITE_DCHECK(buffer_head != nullptr);
 513              		.loc 1 36 0 discriminator 1
 514 0108 FEFFFFEB 		bl	abort
 515              	.LVL44:
 516              	.L28:
 517              	.LBB79:
 518              	.LBB80:
  32:../src/tensorflow_lite/src/tensorflow/lite/micro/recording_simple_memory_allocator.cpp **** 
 519              		.loc 1 32 0
 520 010c 04008DE2 		add	r0, sp, #4
 521              	.LVL45:
 522 0110 04508DE5 		str	r5, [sp, #4]
 523 0114 FEFFFFEB 		bl	_ZN6tflite21SimpleMemoryAllocatorD2Ev
 524              	.LVL46:
 525 0118 FEFFFFEB 		bl	__cxa_end_cleanup
 526              	.LVL47:
 527              	.LEHE2:
 528              	.L38:
 529              		.align	2
 530              	.L37:
 531 011c 08000000 		.word	.LANCHOR0+8
 532              	.LBE80:
 533              	.LBE79:
 534              		.cfi_endproc
 535              	.LFE67:
 536              		.global	__gxx_personality_v0
 537              		.personality	__gxx_personality_v0
 538              		.handlerdata
 539              	.LLSDA67:
 540 0008 FF       		.byte	0xff
 541 0009 FF       		.byte	0xff
 542 000a 01       		.byte	0x1
 543 000b 0E       		.uleb128 .LLSDACSE67-.LLSDACSB67
 544              	.LLSDACSB67:
 545 000c 2C       		.uleb128 .LEHB0-.LFB67
 546 000d 04       		.uleb128 .LEHE0-.LEHB0
 547 000e 00       		.uleb128 0
 548 000f 00       		.uleb128 0
 549 0010 4C       		.uleb128 .LEHB1-.LFB67
 550 0011 28       		.uleb128 .LEHE1-.LEHB1
 551 0012 8C02     		.uleb128 .L28-.LFB67
 552 0014 00       		.uleb128 0
 553 0015 8802     		.uleb128 .LEHB2-.LFB67
 554 0017 14       		.uleb128 .LEHE2-.LEHB2
 555 0018 00       		.uleb128 0
 556 0019 00       		.uleb128 0
 557              	.LLSDACSE67:
 558              		.section	.text._ZN6tflite30RecordingSimpleMemoryAllocator6CreateEPNS_13ErrorReporterEPhj
 559              		.fnend
 561              		.section	.text._ZNK6tflite30RecordingSimpleMemoryAllocator17GetRequestedBytesEv,"ax",%progbits
 562              		.align	2
 563              		.global	_ZNK6tflite30RecordingSimpleMemoryAllocator17GetRequestedBytesEv
 564              		.syntax unified
 565              		.arm
 566              		.fpu neon
 568              	_ZNK6tflite30RecordingSimpleMemoryAllocator17GetRequestedBytesEv:
 569              		.fnstart
 570              	.LFB74:
  48:../src/tensorflow_lite/src/tensorflow/lite/micro/recording_simple_memory_allocator.cpp ****   return requested_head_bytes_ + requested_tail_bytes_;
 571              		.loc 1 48 0
 572              		.cfi_startproc
 573              		@ args = 0, pretend = 0, frame = 0
 574              		@ frame_needed = 0, uses_anonymous_args = 0
 575              		@ link register save eliminated.
 576              	.LVL48:
  49:../src/tensorflow_lite/src/tensorflow/lite/micro/recording_simple_memory_allocator.cpp **** }
 577              		.loc 1 49 0
 578 0000 1C2090E5 		ldr	r2, [r0, #28]
 579 0004 200090E5 		ldr	r0, [r0, #32]
 580              	.LVL49:
  50:../src/tensorflow_lite/src/tensorflow/lite/micro/recording_simple_memory_allocator.cpp **** 
 581              		.loc 1 50 0
 582 0008 000082E0 		add	r0, r2, r0
 583 000c 1EFF2FE1 		bx	lr
 584              		.cfi_endproc
 585              	.LFE74:
 586              		.cantunwind
 587              		.fnend
 589              		.section	.text._ZNK6tflite30RecordingSimpleMemoryAllocator12GetUsedBytesEv,"ax",%progbits
 590              		.align	2
 591              		.global	_ZNK6tflite30RecordingSimpleMemoryAllocator12GetUsedBytesEv
 592              		.syntax unified
 593              		.arm
 594              		.fpu neon
 596              	_ZNK6tflite30RecordingSimpleMemoryAllocator12GetUsedBytesEv:
 597              		.fnstart
 598              	.LFB75:
  52:../src/tensorflow_lite/src/tensorflow/lite/micro/recording_simple_memory_allocator.cpp ****   return used_bytes_;
 599              		.loc 1 52 0
 600              		.cfi_startproc
 601              		@ args = 0, pretend = 0, frame = 0
 602              		@ frame_needed = 0, uses_anonymous_args = 0
 603              		@ link register save eliminated.
 604              	.LVL50:
  54:../src/tensorflow_lite/src/tensorflow/lite/micro/recording_simple_memory_allocator.cpp **** 
 605              		.loc 1 54 0
 606 0000 240090E5 		ldr	r0, [r0, #36]
 607              	.LVL51:
 608 0004 1EFF2FE1 		bx	lr
 609              		.cfi_endproc
 610              	.LFE75:
 611              		.cantunwind
 612              		.fnend
 614              		.section	.text._ZNK6tflite30RecordingSimpleMemoryAllocator17GetAllocatedCountEv,"ax",%progbits
 615              		.align	2
 616              		.global	_ZNK6tflite30RecordingSimpleMemoryAllocator17GetAllocatedCountEv
 617              		.syntax unified
 618              		.arm
 619              		.fpu neon
 621              	_ZNK6tflite30RecordingSimpleMemoryAllocator17GetAllocatedCountEv:
 622              		.fnstart
 623              	.LFB76:
  56:../src/tensorflow_lite/src/tensorflow/lite/micro/recording_simple_memory_allocator.cpp ****   return alloc_count_;
 624              		.loc 1 56 0
 625              		.cfi_startproc
 626              		@ args = 0, pretend = 0, frame = 0
 627              		@ frame_needed = 0, uses_anonymous_args = 0
 628              		@ link register save eliminated.
 629              	.LVL52:
  58:../src/tensorflow_lite/src/tensorflow/lite/micro/recording_simple_memory_allocator.cpp **** 
 630              		.loc 1 58 0
 631 0000 280090E5 		ldr	r0, [r0, #40]
 632              	.LVL53:
 633 0004 1EFF2FE1 		bx	lr
 634              		.cfi_endproc
 635              	.LFE76:
 636              		.cantunwind
 637              		.fnend
 639              		.global	_ZTSN6tflite30RecordingSimpleMemoryAllocatorE
 640              		.global	_ZTIN6tflite30RecordingSimpleMemoryAllocatorE
 641              		.global	_ZTVN6tflite30RecordingSimpleMemoryAllocatorE
 642              		.section	.rodata._ZTIN6tflite30RecordingSimpleMemoryAllocatorE,"a",%progbits
 643              		.align	2
 646              	_ZTIN6tflite30RecordingSimpleMemoryAllocatorE:
 647 0000 08000000 		.word	_ZTVN10__cxxabiv120__si_class_type_infoE+8
 648 0004 00000000 		.word	_ZTSN6tflite30RecordingSimpleMemoryAllocatorE
 649 0008 00000000 		.word	_ZTIN6tflite21SimpleMemoryAllocatorE
 650              		.section	.rodata._ZTSN6tflite30RecordingSimpleMemoryAllocatorE,"a",%progbits
 651              		.align	3
 654              	_ZTSN6tflite30RecordingSimpleMemoryAllocatorE:
 655 0000 4E367466 		.ascii	"N6tflite30RecordingSimpleMemoryAllocatorE\000"
 655      6C697465 
 655      33305265 
 655      636F7264 
 655      696E6753 
 656              		.section	.rodata._ZTVN6tflite30RecordingSimpleMemoryAllocatorE,"a",%progbits
 657              		.align	3
 658              		.set	.LANCHOR0,. + 0
 661              	_ZTVN6tflite30RecordingSimpleMemoryAllocatorE:
 662 0000 00000000 		.word	0
 663 0004 00000000 		.word	_ZTIN6tflite30RecordingSimpleMemoryAllocatorE
 664 0008 00000000 		.word	_ZN6tflite30RecordingSimpleMemoryAllocatorD1Ev
 665 000c 00000000 		.word	_ZN6tflite30RecordingSimpleMemoryAllocatorD0Ev
 666 0010 00000000 		.word	_ZN6tflite30RecordingSimpleMemoryAllocator17SetHeadBufferSizeEjj
 667 0014 00000000 		.word	_ZN6tflite30RecordingSimpleMemoryAllocator16AllocateFromTailEjj
 668 0018 00000000 		.word	_ZN6tflite21SimpleMemoryAllocator12AllocateTempEjj
 669 001c 00000000 		.word	_ZN6tflite21SimpleMemoryAllocator20ResetTempAllocationsEv
 670              		.text
 671              	.Letext0:
 672              		.file 4 "c:\\program files (x86)\\gnu tools arm embedded\\6 2017-q2-update\\arm-none-eabi\\include
 673              		.file 5 "c:\\program files (x86)\\gnu tools arm embedded\\6 2017-q2-update\\arm-none-eabi\\include
 674              		.file 6 "c:\\program files (x86)\\gnu tools arm embedded\\6 2017-q2-update\\arm-none-eabi\\include
 675              		.file 7 "c:\\program files (x86)\\gnu tools arm embedded\\6 2017-q2-update\\arm-none-eabi\\include
 676              		.file 8 "c:\\program files (x86)\\gnu tools arm embedded\\6 2017-q2-update\\arm-none-eabi\\include
 677              		.file 9 "c:\\program files (x86)\\gnu tools arm embedded\\6 2017-q2-update\\arm-none-eabi\\include
 678              		.file 10 "c:\\program files (x86)\\gnu tools arm embedded\\6 2017-q2-update\\arm-none-eabi\\includ
 679              		.file 11 "c:\\program files (x86)\\gnu tools arm embedded\\6 2017-q2-update\\arm-none-eabi\\includ
 680              		.file 12 "c:\\program files (x86)\\gnu tools arm embedded\\6 2017-q2-update\\arm-none-eabi\\includ
 681              		.file 13 "c:\\program files (x86)\\gnu tools arm embedded\\6 2017-q2-update\\lib\\gcc\\arm-none-ea
 682              		.file 14 "c:\\program files (x86)\\gnu tools arm embedded\\6 2017-q2-update\\arm-none-eabi\\includ
 683              		.file 15 "c:\\program files (x86)\\gnu tools arm embedded\\6 2017-q2-update\\arm-none-eabi\\includ
 684              		.file 16 "c:\\program files (x86)\\gnu tools arm embedded\\6 2017-q2-update\\arm-none-eabi\\includ
 685              		.file 17 "C:/Renesas/e2studio_2021_01_workspace_RZA2M_ANPR/ANPR_RZA2M_RDK/src/tensorflow_lite/src/
 686              		.file 18 "c:\\program files (x86)\\gnu tools arm embedded\\6 2017-q2-update\\lib\\gcc\\arm-none-ea
 687              		.file 19 "<built-in>"
 688              		.file 20 "c:\\program files (x86)\\gnu tools arm embedded\\6 2017-q2-update\\arm-none-eabi\\includ
 689              		.file 21 "c:\\program files (x86)\\gnu tools arm embedded\\6 2017-q2-update\\arm-none-eabi\\includ
 690              		.file 22 "c:\\program files (x86)\\gnu tools arm embedded\\6 2017-q2-update\\arm-none-eabi\\includ
 691              		.file 23 "c:\\program files (x86)\\gnu tools arm embedded\\6 2017-q2-update\\arm-none-eabi\\includ
 692              		.file 24 "c:\\program files (x86)\\gnu tools arm embedded\\6 2017-q2-update\\arm-none-eabi\\includ
 693              		.file 25 "C:/Renesas/e2studio_2021_01_workspace_RZA2M_ANPR/ANPR_RZA2M_RDK/src/tensorflow_lite/src/