   1              		.cpu cortex-a9
   2              		.eabi_attribute 28, 1
   3              		.eabi_attribute 20, 1
   4              		.eabi_attribute 21, 1
   5              		.eabi_attribute 23, 3
   6              		.eabi_attribute 24, 1
   7              		.eabi_attribute 25, 1
   8              		.eabi_attribute 26, 1
   9              		.eabi_attribute 30, 2
  10              		.eabi_attribute 34, 0
  11              		.eabi_attribute 18, 4
  12              		.file	"arm_elementwise_add_s8.c"
  13              		.section	.text.arm_elementwise_add_s8,"ax",%progbits
  14              		.align	2
  15              		.global	arm_elementwise_add_s8
  16              		.syntax unified
  17              		.arm
  18              		.fpu neon
  20              	arm_elementwise_add_s8:
  21              		@ args = 48, pretend = 0, frame = 184
  22              		@ frame_needed = 0, uses_anonymous_args = 0
  23 0000 F04F2DE9 		push	{r4, r5, r6, r7, r8, r9, r10, fp, lr}
  24 0004 BCD04DE2 		sub	sp, sp, #188
  25 0008 03A0A0E1 		mov	r10, r3
  26 000c 0C319DE5 		ldr	r3, [sp, #268]
  27 0010 02C0A0E1 		mov	ip, r2
  28 0014 01E0A0E1 		mov	lr, r1
  29 0018 A8208DE5 		str	r2, [sp, #168]
  30 001c 7220FFE6 		uxth	r2, r2
  31 0020 20108DE5 		str	r1, [sp, #32]
  32 0024 2311B0E1 		lsrs	r1, r3, #2
  33 0028 0C3882E1 		orr	r3, r2, ip, lsl #16
  34 002c E4209DE5 		ldr	r2, [sp, #228]
  35 0030 98308DE5 		str	r3, [sp, #152]
  36 0034 B43EDDE1 		ldrh	r3, [sp, #228]
  37 0038 A4008DE5 		str	r0, [sp, #164]
  38 003c F0709DE5 		ldr	r7, [sp, #240]
  39 0040 04819DE5 		ldr	r8, [sp, #260]
  40 0044 023883E1 		orr	r3, r3, r2, lsl #16
  41 0048 08919DE5 		ldr	r9, [sp, #264]
  42 004c 9C308DE5 		str	r3, [sp, #156]
  43 0050 4F01000A 		beq	.L2
  44 0054 E0309DE5 		ldr	r3, [sp, #224]
  45 0058 01B0A0E3 		mov	fp, #1
  46 005c 00219DE5 		ldr	r2, [sp, #256]
  47 0060 0111A0E1 		lsl	r1, r1, #2
  48 0064 ECC09DE5 		ldr	ip, [sp, #236]
  49 0068 003063E2 		rsb	r3, r3, #0
  50 006c AC108DE5 		str	r1, [sp, #172]
  51 0070 00308DE5 		str	r3, [sp]
  52 0074 1B33A0E1 		lsl	r3, fp, r3
  53 0078 002062E2 		rsb	r2, r2, #0
  54 007c 8C008DE5 		str	r0, [sp, #140]
  55 0080 013043E2 		sub	r3, r3, #1
  56 0084 0C208DE5 		str	r2, [sp, #12]
  57 0088 14308DE5 		str	r3, [sp, #20]
  58 008c C330A0E1 		asr	r3, r3, #1
  59 0090 1B22A0E1 		lsl	r2, fp, r2
  60 0094 00C06CE2 		rsb	ip, ip, #0
  61 0098 24308DE5 		str	r3, [sp, #36]
  62 009c 013083E2 		add	r3, r3, #1
  63 00a0 94308DE5 		str	r3, [sp, #148]
  64 00a4 01308EE0 		add	r3, lr, r1
  65 00a8 012042E2 		sub	r2, r2, #1
  66 00ac 1BBCA0E1 		lsl	fp, fp, ip
  67 00b0 A0308DE5 		str	r3, [sp, #160]
  68 00b4 F4309DE5 		ldr	r3, [sp, #244]
  69 00b8 01B04BE2 		sub	fp, fp, #1
  70 00bc 10208DE5 		str	r2, [sp, #16]
  71 00c0 C220A0E1 		asr	r2, r2, #1
  72 00c4 08C08DE5 		str	ip, [sp, #8]
  73 00c8 18208DE5 		str	r2, [sp, #24]
  74 00cc 046083E2 		add	r6, r3, #4
  75 00d0 CB20A0E1 		asr	r2, fp, #1
  76 00d4 1C208DE5 		str	r2, [sp, #28]
  77              	.L27:
  78 00d8 8C309DE5 		ldr	r3, [sp, #140]
  79 00dc 0420A0E3 		mov	r2, #4
  80 00e0 B4008DE2 		add	r0, sp, #180
  81 00e4 0310A0E1 		mov	r1, r3
  82 00e8 023083E0 		add	r3, r3, r2
  83 00ec 8C308DE5 		str	r3, [sp, #140]
  84 00f0 FEFFFFEB 		bl	memcpy
  85 00f4 20309DE5 		ldr	r3, [sp, #32]
  86 00f8 0420A0E3 		mov	r2, #4
  87 00fc B4C09DE5 		ldr	ip, [sp, #180]
  88 0100 B4008DE2 		add	r0, sp, #180
  89              		.syntax divided
  90              	@ 1983 "C:/Renesas/e2studio_2021_01_workspace_RZA2M_ANPR/ANPR_RZA2M_EBK/src/tensorflow_lite/third_p
  91 0104 7C508FE6 		sxtb16 r5, ip
  92              	@ 0 "" 2
  93              		.arm
  94              		.syntax unified
  95 0108 0310A0E1 		mov	r1, r3
  96 010c 023083E0 		add	r3, r3, r2
  97 0110 20308DE5 		str	r3, [sp, #32]
  98 0114 6CC4A0E1 		ror	ip, ip, #8
  99              		.syntax divided
 100              	@ 1983 "C:/Renesas/e2studio_2021_01_workspace_RZA2M_ANPR/ANPR_RZA2M_EBK/src/tensorflow_lite/third_p
 101 0118 7C408FE6 		sxtb16 r4, ip
 102              	@ 0 "" 2
 103              		.arm
 104              		.syntax unified
 105 011c FEFFFFEB 		bl	memcpy
 106 0120 B4209DE5 		ldr	r2, [sp, #180]
 107              		.syntax divided
 108              	@ 1983 "C:/Renesas/e2studio_2021_01_workspace_RZA2M_ANPR/ANPR_RZA2M_EBK/src/tensorflow_lite/third_p
 109 0124 72308FE6 		sxtb16 r3, r2
 110              	@ 0 "" 2
 111              		.arm
 112              		.syntax unified
 113 0128 6224A0E1 		ror	r2, r2, #8
 114              		.syntax divided
 115              	@ 1983 "C:/Renesas/e2studio_2021_01_workspace_RZA2M_ANPR/ANPR_RZA2M_EBK/src/tensorflow_lite/third_p
 116 012c 72108FE6 		sxtb16 r1, r2
 117              	@ 0 "" 2
 118              		.arm
 119              		.syntax unified
 120 0130 98209DE5 		ldr	r2, [sp, #152]
 121              		.syntax divided
 122              	@ 1743 "C:/Renesas/e2studio_2021_01_workspace_RZA2M_ANPR/ANPR_RZA2M_EBK/src/tensorflow_lite/third_p
 123 0134 12CF14E6 		sadd16 ip, r4, r2
 124              	@ 0 "" 2
 125              	@ 1743 "C:/Renesas/e2studio_2021_01_workspace_RZA2M_ANPR/ANPR_RZA2M_EBK/src/tensorflow_lite/third_p
 126 0138 122F15E6 		sadd16 r2, r5, r2
 127              	@ 0 "" 2
 128              		.arm
 129              		.syntax unified
 130 013c 9C009DE5 		ldr	r0, [sp, #156]
 131              		.syntax divided
 132              	@ 1743 "C:/Renesas/e2studio_2021_01_workspace_RZA2M_ANPR/ANPR_RZA2M_EBK/src/tensorflow_lite/third_p
 133 0140 101F11E6 		sadd16 r1, r1, r0
 134              	@ 0 "" 2
 135              		.arm
 136              		.syntax unified
 137 0144 88108DE5 		str	r1, [sp, #136]
 138              		.syntax divided
 139              	@ 1743 "C:/Renesas/e2studio_2021_01_workspace_RZA2M_ANPR/ANPR_RZA2M_EBK/src/tensorflow_lite/third_p
 140 0148 103F13E6 		sadd16 r3, r3, r0
 141              	@ 0 "" 2
 142              		.arm
 143              		.syntax unified
 144 014c 0101A0E3 		mov	r0, #1073741824
 145 0150 7210FFE6 		uxth	r1, r2
 146 0154 28008DE5 		str	r0, [sp, #40]
 147 0158 0000A0E3 		mov	r0, #0
 148 015c 2C008DE5 		str	r0, [sp, #44]
 149 0160 1117A0E1 		lsl	r1, r1, r7
 150 0164 D842CDE1 		ldrd	r4, [sp, #40]
 151 0168 2228A0E1 		lsr	r2, r2, #16
 152 016c 00E09DE5 		ldr	lr, [sp]
 153 0170 046086E2 		add	r6, r6, #4
 154 0174 9A41E5E0 		smlal	r4, r5, r10, r1
 155 0178 A40FA0E1 		lsr	r0, r4, #31
 156 017c 14409DE5 		ldr	r4, [sp, #20]
 157 0180 0510A0E1 		mov	r1, r5
 158 0184 850080E1 		orr	r0, r0, r5, lsl #1
 159 0188 50EEB0E1 		asrs	lr, r0, lr
 160 018c 040000E0 		and	r0, r0, r4
 161 0190 94109D45 		ldrmi	r1, [sp, #148]
 162 0194 24109D55 		ldrpl	r1, [sp, #36]
 163 0198 010050E1 		cmp	r0, r1
 164 019c 0101A0E3 		mov	r0, #1073741824
 165 01a0 30008DE5 		str	r0, [sp, #48]
 166 01a4 0000A0E3 		mov	r0, #0
 167 01a8 34008DE5 		str	r0, [sp, #52]
 168 01ac 7310FFE6 		uxth	r1, r3
 169 01b0 E8009DE5 		ldr	r0, [sp, #232]
 170 01b4 01E08EC2 		addgt	lr, lr, #1
 171 01b8 D043CDE1 		ldrd	r4, [sp, #48]
 172 01bc 1117A0E1 		lsl	r1, r1, r7
 173 01c0 2338A0E1 		lsr	r3, r3, #16
 174 01c4 1337A0E1 		lsl	r3, r3, r7
 175 01c8 9041E5E0 		smlal	r4, r5, r0, r1
 176 01cc A40FA0E1 		lsr	r0, r4, #31
 177 01d0 08409DE5 		ldr	r4, [sp, #8]
 178 01d4 850080E1 		orr	r0, r0, r5, lsl #1
 179 01d8 5014B0E1 		asrs	r1, r0, r4
 180 01dc 0B0000E0 		and	r0, r0, fp
 181 01e0 1C409D45 		ldrmi	r4, [sp, #28]
 182 01e4 1C509D55 		ldrpl	r5, [sp, #28]
 183 01e8 01508442 		addmi	r5, r4, #1
 184 01ec FC409DE5 		ldr	r4, [sp, #252]
 185 01f0 050050E1 		cmp	r0, r5
 186 01f4 0101A0E3 		mov	r0, #1073741824
 187 01f8 011081C2 		addgt	r1, r1, #1
 188 01fc 38008DE5 		str	r0, [sp, #56]
 189 0200 0EE081E0 		add	lr, r1, lr
 190 0204 0010A0E3 		mov	r1, #0
 191 0208 3C108DE5 		str	r1, [sp, #60]
 192 020c D803CDE1 		ldrd	r0, [sp, #56]
 193 0210 940EE1E0 		smlal	r0, r1, r4, lr
 194 0214 0CE09DE5 		ldr	lr, [sp, #12]
 195 0218 A00FA0E1 		lsr	r0, r0, #31
 196 021c 810080E1 		orr	r0, r0, r1, lsl #1
 197 0220 501EB0E1 		asrs	r1, r0, lr
 198 0224 10E09DE5 		ldr	lr, [sp, #16]
 199 0228 0E0000E0 		and	r0, r0, lr
 200 022c 18E09DE5 		ldr	lr, [sp, #24]
 201 0230 01E08E42 		addmi	lr, lr, #1
 202 0234 0E0050E1 		cmp	r0, lr
 203 0238 0101A0E3 		mov	r0, #1073741824
 204 023c 40008DE5 		str	r0, [sp, #64]
 205 0240 0000A0E3 		mov	r0, #0
 206 0244 44008DE5 		str	r0, [sp, #68]
 207 0248 1207A0E1 		lsl	r0, r2, r7
 208 024c F8209DE5 		ldr	r2, [sp, #248]
 209 0250 011081C2 		addgt	r1, r1, #1
 210 0254 D044CDE1 		ldrd	r4, [sp, #64]
 211 0258 012082E0 		add	r2, r2, r1
 212 025c 080052E1 		cmp	r2, r8
 213 0260 9A40E5E0 		smlal	r4, r5, r10, r0
 214 0264 0820A0B1 		movlt	r2, r8
 215 0268 090052E1 		cmp	r2, r9
 216 026c 0920A0A1 		movge	r2, r9
 217 0270 7220AFE6 		sxtb	r2, r2
 218 0274 A40FA0E1 		lsr	r0, r4, #31
 219 0278 90208DE5 		str	r2, [sp, #144]
 220 027c 00209DE5 		ldr	r2, [sp]
 221 0280 850080E1 		orr	r0, r0, r5, lsl #1
 222 0284 5012B0E1 		asrs	r1, r0, r2
 223 0288 14209DE5 		ldr	r2, [sp, #20]
 224 028c 020000E0 		and	r0, r0, r2
 225 0290 94209D45 		ldrmi	r2, [sp, #148]
 226 0294 24209D55 		ldrpl	r2, [sp, #36]
 227 0298 020050E1 		cmp	r0, r2
 228 029c 0121A0E3 		mov	r2, #1073741824
 229 02a0 48208DE5 		str	r2, [sp, #72]
 230 02a4 0020A0E3 		mov	r2, #0
 231 02a8 4C208DE5 		str	r2, [sp, #76]
 232 02ac 011081C2 		addgt	r1, r1, #1
 233 02b0 D844CDE1 		ldrd	r4, [sp, #72]
 234 02b4 E8209DE5 		ldr	r2, [sp, #232]
 235 02b8 08009DE5 		ldr	r0, [sp, #8]
 236 02bc 14E09DE5 		ldr	lr, [sp, #20]
 237 02c0 9243E5E0 		smlal	r4, r5, r2, r3
 238 02c4 A42FA0E1 		lsr	r2, r4, #31
 239 02c8 852082E1 		orr	r2, r2, r5, lsl #1
 240 02cc 5230B0E1 		asrs	r3, r2, r0
 241 02d0 1C009DE5 		ldr	r0, [sp, #28]
 242 02d4 0B2002E0 		and	r2, r2, fp
 243 02d8 01008042 		addmi	r0, r0, #1
 244 02dc 000052E1 		cmp	r2, r0
 245 02e0 0121A0E3 		mov	r2, #1073741824
 246 02e4 013083C2 		addgt	r3, r3, #1
 247 02e8 50208DE5 		str	r2, [sp, #80]
 248 02ec 011083E0 		add	r1, r3, r1
 249 02f0 0030A0E3 		mov	r3, #0
 250 02f4 54308DE5 		str	r3, [sp, #84]
 251 02f8 FC009DE5 		ldr	r0, [sp, #252]
 252 02fc D025CDE1 		ldrd	r2, [sp, #80]
 253 0300 9021E3E0 		smlal	r2, r3, r0, r1
 254 0304 0111A0E3 		mov	r1, #1073741824
 255 0308 58108DE5 		str	r1, [sp, #88]
 256 030c 0010A0E3 		mov	r1, #0
 257 0310 5C108DE5 		str	r1, [sp, #92]
 258 0314 F8109DE5 		ldr	r1, [sp, #248]
 259 0318 A20FA0E1 		lsr	r0, r2, #31
 260 031c 830080E1 		orr	r0, r0, r3, lsl #1
 261 0320 0C309DE5 		ldr	r3, [sp, #12]
 262 0324 5023B0E1 		asrs	r2, r0, r3
 263 0328 10309DE5 		ldr	r3, [sp, #16]
 264 032c 030000E0 		and	r0, r0, r3
 265 0330 18309DE5 		ldr	r3, [sp, #24]
 266 0334 01308342 		addmi	r3, r3, #1
 267 0338 030050E1 		cmp	r0, r3
 268 033c 7C30FFE6 		uxth	r3, ip
 269 0340 012082C2 		addgt	r2, r2, #1
 270 0344 2CC8A0E1 		lsr	ip, ip, #16
 271 0348 022081E0 		add	r2, r1, r2
 272 034c D805CDE1 		ldrd	r0, [sp, #88]
 273 0350 1337A0E1 		lsl	r3, r3, r7
 274 0354 020058E1 		cmp	r8, r2
 275 0358 0820A0A1 		movge	r2, r8
 276 035c 1CC7A0E1 		lsl	ip, ip, r7
 277 0360 020059E1 		cmp	r9, r2
 278 0364 9A03E1E0 		smlal	r0, r1, r10, r3
 279 0368 00309DE5 		ldr	r3, [sp]
 280 036c 0920A0B1 		movlt	r2, r9
 281 0370 7220AFE6 		sxtb	r2, r2
 282 0374 0228A0E1 		lsl	r2, r2, #16
 283 0378 A00FA0E1 		lsr	r0, r0, #31
 284 037c FF2802E2 		and	r2, r2, #16711680
 285 0380 810080E1 		orr	r0, r0, r1, lsl #1
 286 0384 5033B0E1 		asrs	r3, r0, r3
 287 0388 0E0000E0 		and	r0, r0, lr
 288 038c 08E09DE5 		ldr	lr, [sp, #8]
 289 0390 94109D45 		ldrmi	r1, [sp, #148]
 290 0394 24109D55 		ldrpl	r1, [sp, #36]
 291 0398 010050E1 		cmp	r0, r1
 292 039c 0101A0E3 		mov	r0, #1073741824
 293 03a0 60008DE5 		str	r0, [sp, #96]
 294 03a4 0000A0E3 		mov	r0, #0
 295 03a8 B818DDE1 		ldrh	r1, [sp, #136]
 296 03ac 013083C2 		addgt	r3, r3, #1
 297 03b0 64008DE5 		str	r0, [sp, #100]
 298 03b4 D046CDE1 		ldrd	r4, [sp, #96]
 299 03b8 E8009DE5 		ldr	r0, [sp, #232]
 300 03bc 1117A0E1 		lsl	r1, r1, r7
 301 03c0 9041E5E0 		smlal	r4, r5, r0, r1
 302 03c4 A40FA0E1 		lsr	r0, r4, #31
 303 03c8 850080E1 		orr	r0, r0, r5, lsl #1
 304 03cc 501EB0E1 		asrs	r1, r0, lr
 305 03d0 1CE09DE5 		ldr	lr, [sp, #28]
 306 03d4 0B0000E0 		and	r0, r0, fp
 307 03d8 01E08E42 		addmi	lr, lr, #1
 308 03dc 0E0050E1 		cmp	r0, lr
 309 03e0 0101A0E3 		mov	r0, #1073741824
 310 03e4 011081C2 		addgt	r1, r1, #1
 311 03e8 68008DE5 		str	r0, [sp, #104]
 312 03ec 033081E0 		add	r3, r1, r3
 313 03f0 0010A0E3 		mov	r1, #0
 314 03f4 6C108DE5 		str	r1, [sp, #108]
 315 03f8 D806CDE1 		ldrd	r0, [sp, #104]
 316 03fc FCE09DE5 		ldr	lr, [sp, #252]
 317 0400 9E03E1E0 		smlal	r0, r1, lr, r3
 318 0404 0C309DE5 		ldr	r3, [sp, #12]
 319 0408 A00FA0E1 		lsr	r0, r0, #31
 320 040c 810080E1 		orr	r0, r0, r1, lsl #1
 321 0410 18109DE5 		ldr	r1, [sp, #24]
 322 0414 10E09DE5 		ldr	lr, [sp, #16]
 323 0418 5033B0E1 		asrs	r3, r0, r3
 324 041c 9050DDE5 		ldrb	r5, [sp, #144]	@ zero_extendqisi2
 325 0420 0E0000E0 		and	r0, r0, lr
 326 0424 01108142 		addmi	r1, r1, #1
 327 0428 010050E1 		cmp	r0, r1
 328 042c 0111A0E3 		mov	r1, #1073741824
 329 0430 70108DE5 		str	r1, [sp, #112]
 330 0434 0010A0E3 		mov	r1, #0
 331 0438 74108DE5 		str	r1, [sp, #116]
 332 043c 013083C2 		addgt	r3, r3, #1
 333 0440 F8109DE5 		ldr	r1, [sp, #248]
 334 0444 14E09DE5 		ldr	lr, [sp, #20]
 335 0448 033081E0 		add	r3, r1, r3
 336 044c D007CDE1 		ldrd	r0, [sp, #112]
 337 0450 030058E1 		cmp	r8, r3
 338 0454 0830A0A1 		movge	r3, r8
 339 0458 030059E1 		cmp	r9, r3
 340 045c 9A0CE1E0 		smlal	r0, r1, r10, ip
 341 0460 00C09DE5 		ldr	ip, [sp]
 342 0464 0930A0B1 		movlt	r3, r9
 343 0468 7330AFE6 		sxtb	r3, r3
 344 046c A00FA0E1 		lsr	r0, r0, #31
 345 0470 810080E1 		orr	r0, r0, r1, lsl #1
 346 0474 50CCB0E1 		asrs	ip, r0, ip
 347 0478 0E0000E0 		and	r0, r0, lr
 348 047c E8E09DE5 		ldr	lr, [sp, #232]
 349 0480 94109D45 		ldrmi	r1, [sp, #148]
 350 0484 24109D55 		ldrpl	r1, [sp, #36]
 351 0488 010050E1 		cmp	r0, r1
 352 048c 88109DE5 		ldr	r1, [sp, #136]
 353 0490 01C08CC2 		addgt	ip, ip, #1
 354 0494 2148A0E1 		lsr	r4, r1, #16
 355 0498 0111A0E3 		mov	r1, #1073741824
 356 049c 78108DE5 		str	r1, [sp, #120]
 357 04a0 0010A0E3 		mov	r1, #0
 358 04a4 7C108DE5 		str	r1, [sp, #124]
 359 04a8 1447A0E1 		lsl	r4, r4, r7
 360 04ac D807CDE1 		ldrd	r0, [sp, #120]
 361 04b0 9E04E1E0 		smlal	r0, r1, lr, r4
 362 04b4 08E09DE5 		ldr	lr, [sp, #8]
 363 04b8 A00FA0E1 		lsr	r0, r0, #31
 364 04bc 810080E1 		orr	r0, r0, r1, lsl #1
 365 04c0 501EB0E1 		asrs	r1, r0, lr
 366 04c4 1CE09DE5 		ldr	lr, [sp, #28]
 367 04c8 0B0000E0 		and	r0, r0, fp
 368 04cc 01E08E42 		addmi	lr, lr, #1
 369 04d0 0E0050E1 		cmp	r0, lr
 370 04d4 0101A0E3 		mov	r0, #1073741824
 371 04d8 011081C2 		addgt	r1, r1, #1
 372 04dc 80008DE5 		str	r0, [sp, #128]
 373 04e0 0CC081E0 		add	ip, r1, ip
 374 04e4 0010A0E3 		mov	r1, #0
 375 04e8 84108DE5 		str	r1, [sp, #132]
 376 04ec D008CDE1 		ldrd	r0, [sp, #128]
 377 04f0 FCE09DE5 		ldr	lr, [sp, #252]
 378 04f4 9E0CE1E0 		smlal	r0, r1, lr, ip
 379 04f8 0CC09DE5 		ldr	ip, [sp, #12]
 380 04fc A00FA0E1 		lsr	r0, r0, #31
 381 0500 810080E1 		orr	r0, r0, r1, lsl #1
 382 0504 501CB0E1 		asrs	r1, r0, ip
 383 0508 10C09DE5 		ldr	ip, [sp, #16]
 384 050c 0C0000E0 		and	r0, r0, ip
 385 0510 18C09DE5 		ldr	ip, [sp, #24]
 386 0514 01C08C42 		addmi	ip, ip, #1
 387 0518 00005CE1 		cmp	ip, r0
 388 051c F8009DE5 		ldr	r0, [sp, #248]
 389 0520 011081B2 		addlt	r1, r1, #1
 390 0524 011080E0 		add	r1, r0, r1
 391 0528 0304A0E1 		lsl	r0, r3, #8
 392 052c 010058E1 		cmp	r8, r1
 393 0530 0810A0A1 		movge	r1, r8
 394 0534 7000FFE6 		uxth	r0, r0
 395 0538 010059E1 		cmp	r9, r1
 396 053c 053082E1 		orr	r3, r2, r5
 397 0540 0910A0B1 		movlt	r1, r9
 398 0544 003083E1 		orr	r3, r3, r0
 399 0548 A0209DE5 		ldr	r2, [sp, #160]
 400 054c 20009DE5 		ldr	r0, [sp, #32]
 401 0550 013C83E1 		orr	r3, r3, r1, lsl #24
 402 0554 4318A0E1 		asr	r1, r3, #16
 403 0558 083046E5 		strb	r3, [r6, #-8]
 404 055c 000052E1 		cmp	r2, r0
 405 0560 4304A0E1 		asr	r0, r3, #8
 406 0564 232CA0E1 		lsr	r2, r3, #24
 407 0568 061046E5 		strb	r1, [r6, #-6]
 408 056c 070046E5 		strb	r0, [r6, #-7]
 409 0570 052046E5 		strb	r2, [r6, #-5]
 410 0574 D7FEFF1A 		bne	.L27
 411 0578 F4209DE5 		ldr	r2, [sp, #244]
 412 057c AC309DE5 		ldr	r3, [sp, #172]
 413 0580 032082E0 		add	r2, r2, r3
 414 0584 F4208DE5 		str	r2, [sp, #244]
 415 0588 A4209DE5 		ldr	r2, [sp, #164]
 416 058c 033082E0 		add	r3, r2, r3
 417 0590 A4308DE5 		str	r3, [sp, #164]
 418              	.L2:
 419 0594 0C319DE5 		ldr	r3, [sp, #268]
 420 0598 033013E2 		ands	r3, r3, #3
 421 059c 40308DE5 		str	r3, [sp, #64]
 422 05a0 5501000A 		beq	.L60
 423 05a4 A4309DE5 		ldr	r3, [sp, #164]
 424 05a8 AABFA0E1 		lsr	fp, r10, #31
 425 05ac A8209DE5 		ldr	r2, [sp, #168]
 426 05b0 D010D3E1 		ldrsb	r1, [r3]
 427 05b4 E0309DE5 		ldr	r3, [sp, #224]
 428 05b8 021081E0 		add	r1, r1, r2
 429 05bc 0120A0E3 		mov	r2, #1
 430 05c0 003063E2 		rsb	r3, r3, #0
 431 05c4 1117A0E1 		lsl	r1, r1, r7
 432 05c8 03E0A0E1 		mov	lr, r3
 433 05cc 18308DE5 		str	r3, [sp, #24]
 434 05d0 20309DE5 		ldr	r3, [sp, #32]
 435 05d4 A10F5BE1 		cmp	fp, r1, lsr #31
 436 05d8 0741A013 		movne	r4, #-1073741823
 437 05dc 0050E013 		mvnne	r5, #0
 438 05e0 D0C0D3E1 		ldrsb	ip, [r3]
 439 05e4 0141A003 		moveq	r4, #1073741824
 440 05e8 EC309DE5 		ldr	r3, [sp, #236]
 441 05ec 0050A003 		moveq	r5, #0
 442 05f0 914AE5E0 		smlal	r4, r5, r1, r10
 443 05f4 003063E2 		rsb	r3, r3, #0
 444 05f8 0300A0E1 		mov	r0, r3
 445 05fc 1C308DE5 		str	r3, [sp, #28]
 446 0600 00319DE5 		ldr	r3, [sp, #256]
 447 0604 1200A0E1 		lsl	r0, r2, r0
 448 0608 010040E2 		sub	r0, r0, #1
 449 060c 003063E2 		rsb	r3, r3, #0
 450 0610 28008DE5 		str	r0, [sp, #40]
 451 0614 24308DE5 		str	r3, [sp, #36]
 452 0618 1233A0E1 		lsl	r3, r2, r3
 453 061c 122EA0E1 		lsl	r2, r2, lr
 454 0620 E8E09DE5 		ldr	lr, [sp, #232]
 455 0624 013043E2 		sub	r3, r3, #1
 456 0628 012042E2 		sub	r2, r2, #1
 457 062c 88308DE5 		str	r3, [sp, #136]
 458 0630 30208DE5 		str	r2, [sp, #48]
 459 0634 C260A0E1 		asr	r6, r2, #1
 460 0638 C330A0E1 		asr	r3, r3, #1
 461 063c C52FA0E1 		asr	r2, r5, #31
 462 0640 AEEFA0E1 		lsr	lr, lr, #31
 463 0644 08308DE5 		str	r3, [sp, #8]
 464 0648 0221C2E3 		bic	r2, r2, #-2147483648
 465 064c C030A0E1 		asr	r3, r0, #1
 466 0650 042092E0 		adds	r2, r2, r4
 467 0654 A22FA0E1 		lsr	r2, r2, #31
 468 0658 38E08DE5 		str	lr, [sp, #56]
 469 065c 0C308DE5 		str	r3, [sp, #12]
 470 0660 0030A0E3 		mov	r3, #0
 471 0664 0530A3E0 		adc	r3, r3, r5
 472 0668 E4E09DE5 		ldr	lr, [sp, #228]
 473 066c 832082E1 		orr	r2, r2, r3, lsl #1
 474 0670 01005AE1 		cmp	r10, r1
 475 0674 02015103 		cmpeq	r1, #-2147483648
 476 0678 0221E003 		mvneq	r2, #-2147483648
 477 067c C33FA0E1 		asr	r3, r3, #31
 478 0680 000052E3 		cmp	r2, #0
 479 0684 E8409DE5 		ldr	r4, [sp, #232]
 480 0688 0EC08CE0 		add	ip, ip, lr
 481 068c 01E086E2 		add	lr, r6, #1
 482 0690 0E30A0B1 		movlt	r3, lr
 483 0694 0630A0A1 		movge	r3, r6
 484 0698 50308DE5 		str	r3, [sp, #80]
 485 069c 1CC7A0E1 		lsl	ip, ip, r7
 486 06a0 38309DE5 		ldr	r3, [sp, #56]
 487 06a4 AC0F53E1 		cmp	r3, ip, lsr #31
 488 06a8 18309DE5 		ldr	r3, [sp, #24]
 489 06ac 0701A013 		movne	r0, #-1073741823
 490 06b0 0101A003 		moveq	r0, #1073741824
 491 06b4 5233A0E1 		asr	r3, r2, r3
 492 06b8 011083E2 		add	r1, r3, #1
 493 06bc 48108DE5 		str	r1, [sp, #72]
 494 06c0 0010E013 		mvnne	r1, #0
 495 06c4 0010A003 		moveq	r1, #0
 496 06c8 940CE1E0 		smlal	r0, r1, r4, ip
 497 06cc 0040A0E1 		mov	r4, r0
 498 06d0 08009DE5 		ldr	r0, [sp, #8]
 499 06d4 0150A0E1 		mov	r5, r1
 500 06d8 30109DE5 		ldr	r1, [sp, #48]
 501 06dc 010080E2 		add	r0, r0, #1
 502 06e0 012002E0 		and	r2, r2, r1
 503 06e4 10008DE5 		str	r0, [sp, #16]
 504 06e8 0C109DE5 		ldr	r1, [sp, #12]
 505 06ec C50FA0E1 		asr	r0, r5, #31
 506 06f0 58208DE5 		str	r2, [sp, #88]
 507 06f4 0201C0E3 		bic	r0, r0, #-2147483648
 508 06f8 E8209DE5 		ldr	r2, [sp, #232]
 509 06fc 004094E0 		adds	r4, r4, r0
 510 0700 011081E2 		add	r1, r1, #1
 511 0704 14108DE5 		str	r1, [sp, #20]
 512 0708 0400A0E1 		mov	r0, r4
 513 070c 0010A0E3 		mov	r1, #0
 514 0710 A00FA0E1 		lsr	r0, r0, #31
 515 0714 0150A5E0 		adc	r5, r5, r1
 516 0718 0510A0E1 		mov	r1, r5
 517 071c 0141A0E3 		mov	r4, #1073741824
 518 0720 0050A0E3 		mov	r5, #0
 519 0724 810080E1 		orr	r0, r0, r1, lsl #1
 520 0728 02015CE3 		cmp	ip, #-2147483648
 521 072c 0C005201 		cmpeq	r2, ip
 522 0730 F040CDE1 		strd	r4, [sp]
 523 0734 48209DE5 		ldr	r2, [sp, #72]
 524 0738 0201E003 		mvneq	r0, #-2147483648
 525 073c 50109DE5 		ldr	r1, [sp, #80]
 526 0740 58C09DE5 		ldr	ip, [sp, #88]
 527 0744 0C0051E1 		cmp	r1, ip
 528 0748 0CC09DE5 		ldr	ip, [sp, #12]
 529 074c 0320A0A1 		movge	r2, r3
 530 0750 1C309DE5 		ldr	r3, [sp, #28]
 531 0754 000050E3 		cmp	r0, #0
 532 0758 5013A0E1 		asr	r1, r0, r3
 533 075c 14309DE5 		ldr	r3, [sp, #20]
 534 0760 0C30A0A1 		movge	r3, ip
 535 0764 28C09DE5 		ldr	ip, [sp, #40]
 536 0768 0C0000E0 		and	r0, r0, ip
 537 076c 24C09DE5 		ldr	ip, [sp, #36]
 538 0770 000053E1 		cmp	r3, r0
 539 0774 0100A0A1 		movge	r0, r1
 540 0778 010081B2 		addlt	r0, r1, #1
 541 077c FC309DE5 		ldr	r3, [sp, #252]
 542 0780 022080E0 		add	r2, r0, r2
 543 0784 08009DE5 		ldr	r0, [sp, #8]
 544 0788 10109DE5 		ldr	r1, [sp, #16]
 545 078c 9342E5E0 		smlal	r4, r5, r3, r2
 546 0790 A42FA0E1 		lsr	r2, r4, #31
 547 0794 852082E1 		orr	r2, r2, r5, lsl #1
 548 0798 000052E3 		cmp	r2, #0
 549 079c 523CA0E1 		asr	r3, r2, ip
 550 07a0 0010A0A1 		movge	r1, r0
 551 07a4 88009DE5 		ldr	r0, [sp, #136]
 552 07a8 002002E0 		and	r2, r2, r0
 553 07ac 020051E1 		cmp	r1, r2
 554 07b0 013083B2 		addlt	r3, r3, #1
 555 07b4 F8209DE5 		ldr	r2, [sp, #248]
 556 07b8 023083E0 		add	r3, r3, r2
 557 07bc 40209DE5 		ldr	r2, [sp, #64]
 558 07c0 030058E1 		cmp	r8, r3
 559 07c4 0830A0A1 		movge	r3, r8
 560 07c8 030059E1 		cmp	r9, r3
 561 07cc 0930A0B1 		movlt	r3, r9
 562 07d0 010052E3 		cmp	r2, #1
 563 07d4 F4209DE5 		ldr	r2, [sp, #244]
 564 07d8 0030C2E5 		strb	r3, [r2]
 565 07dc C600000A 		beq	.L60
 566 07e0 A4309DE5 		ldr	r3, [sp, #164]
 567 07e4 D110D3E1 		ldrsb	r1, [r3, #1]
 568 07e8 20309DE5 		ldr	r3, [sp, #32]
 569 07ec D1C0D3E1 		ldrsb	ip, [r3, #1]
 570 07f0 A8309DE5 		ldr	r3, [sp, #168]
 571 07f4 031081E0 		add	r1, r1, r3
 572 07f8 E4309DE5 		ldr	r3, [sp, #228]
 573 07fc 1117A0E1 		lsl	r1, r1, r7
 574 0800 A10F5BE1 		cmp	fp, r1, lsr #31
 575 0804 03C08CE0 		add	ip, ip, r3
 576 0808 0030A0E3 		mov	r3, #0
 577 080c 1CC7A0E1 		lsl	ip, ip, r7
 578 0810 0741A013 		movne	r4, #-1073741823
 579 0814 0050E013 		mvnne	r5, #0
 580 0818 0141A003 		moveq	r4, #1073741824
 581 081c 0050A003 		moveq	r5, #0
 582 0820 9A41E5E0 		smlal	r4, r5, r10, r1
 583 0824 C52FA0E1 		asr	r2, r5, #31
 584 0828 0221C2E3 		bic	r2, r2, #-2147483648
 585 082c 042092E0 		adds	r2, r2, r4
 586 0830 E8409DE5 		ldr	r4, [sp, #232]
 587 0834 A22FA0E1 		lsr	r2, r2, #31
 588 0838 0530A3E0 		adc	r3, r3, r5
 589 083c 020151E3 		cmp	r1, #-2147483648
 590 0840 01005A01 		cmpeq	r10, r1
 591 0844 832082E1 		orr	r2, r2, r3, lsl #1
 592 0848 0221E003 		mvneq	r2, #-2147483648
 593 084c C33FA0E1 		asr	r3, r3, #31
 594 0850 000052E3 		cmp	r2, #0
 595 0854 0E30A0B1 		movlt	r3, lr
 596 0858 0630A0A1 		movge	r3, r6
 597 085c 50308DE5 		str	r3, [sp, #80]
 598 0860 38309DE5 		ldr	r3, [sp, #56]
 599 0864 AC0F53E1 		cmp	r3, ip, lsr #31
 600 0868 18309DE5 		ldr	r3, [sp, #24]
 601 086c 0701A013 		movne	r0, #-1073741823
 602 0870 0101A003 		moveq	r0, #1073741824
 603 0874 5233A0E1 		asr	r3, r2, r3
 604 0878 011083E2 		add	r1, r3, #1
 605 087c 48108DE5 		str	r1, [sp, #72]
 606 0880 0010E013 		mvnne	r1, #0
 607 0884 0010A003 		moveq	r1, #0
 608 0888 940CE1E0 		smlal	r0, r1, r4, ip
 609 088c 0150A0E1 		mov	r5, r1
 610 0890 30109DE5 		ldr	r1, [sp, #48]
 611 0894 0040A0E1 		mov	r4, r0
 612 0898 0101A0E3 		mov	r0, #1073741824
 613 089c 012002E0 		and	r2, r2, r1
 614 08a0 0010A0E3 		mov	r1, #0
 615 08a4 03008DE8 		stm	sp, {r0, r1}
 616 08a8 C50FA0E1 		asr	r0, r5, #31
 617 08ac 0010A0E3 		mov	r1, #0
 618 08b0 0201C0E3 		bic	r0, r0, #-2147483648
 619 08b4 004094E0 		adds	r4, r4, r0
 620 08b8 A40FA0E1 		lsr	r0, r4, #31
 621 08bc E8409DE5 		ldr	r4, [sp, #232]
 622 08c0 0150A5E0 		adc	r5, r5, r1
 623 08c4 48109DE5 		ldr	r1, [sp, #72]
 624 08c8 850080E1 		orr	r0, r0, r5, lsl #1
 625 08cc 02015CE3 		cmp	ip, #-2147483648
 626 08d0 0C005401 		cmpeq	r4, ip
 627 08d4 50C09DE5 		ldr	ip, [sp, #80]
 628 08d8 0201E003 		mvneq	r0, #-2147483648
 629 08dc 02005CE1 		cmp	ip, r2
 630 08e0 0CC09DE5 		ldr	ip, [sp, #12]
 631 08e4 0310A0A1 		movge	r1, r3
 632 08e8 1C309DE5 		ldr	r3, [sp, #28]
 633 08ec 000050E3 		cmp	r0, #0
 634 08f0 0120A0E1 		mov	r2, r1
 635 08f4 5013A0E1 		asr	r1, r0, r3
 636 08f8 14309DE5 		ldr	r3, [sp, #20]
 637 08fc 0C30A0A1 		movge	r3, ip
 638 0900 28C09DE5 		ldr	ip, [sp, #40]
 639 0904 0C0000E0 		and	r0, r0, ip
 640 0908 000053E1 		cmp	r3, r0
 641 090c 0100A0A1 		movge	r0, r1
 642 0910 010081B2 		addlt	r0, r1, #1
 643 0914 FC309DE5 		ldr	r3, [sp, #252]
 644 0918 022080E0 		add	r2, r0, r2
 645 091c D000CDE1 		ldrd	r0, [sp]
 646 0920 9302E1E0 		smlal	r0, r1, r3, r2
 647 0924 A02FA0E1 		lsr	r2, r0, #31
 648 0928 08009DE5 		ldr	r0, [sp, #8]
 649 092c 812082E1 		orr	r2, r2, r1, lsl #1
 650 0930 24109DE5 		ldr	r1, [sp, #36]
 651 0934 000052E3 		cmp	r2, #0
 652 0938 5231A0E1 		asr	r3, r2, r1
 653 093c 10109DE5 		ldr	r1, [sp, #16]
 654 0940 0010A0A1 		movge	r1, r0
 655 0944 88009DE5 		ldr	r0, [sp, #136]
 656 0948 002002E0 		and	r2, r2, r0
 657 094c 020051E1 		cmp	r1, r2
 658 0950 013083B2 		addlt	r3, r3, #1
 659 0954 F8209DE5 		ldr	r2, [sp, #248]
 660 0958 023083E0 		add	r3, r3, r2
 661 095c 40209DE5 		ldr	r2, [sp, #64]
 662 0960 030058E1 		cmp	r8, r3
 663 0964 0830A0A1 		movge	r3, r8
 664 0968 030059E1 		cmp	r9, r3
 665 096c 0930A0B1 		movlt	r3, r9
 666 0970 020052E3 		cmp	r2, #2
 667 0974 F4209DE5 		ldr	r2, [sp, #244]
 668 0978 0130C2E5 		strb	r3, [r2, #1]
 669 097c 5E00000A 		beq	.L60
 670 0980 A4309DE5 		ldr	r3, [sp, #164]
 671 0984 0101A0E3 		mov	r0, #1073741824
 672 0988 A8209DE5 		ldr	r2, [sp, #168]
 673 098c D210D3E1 		ldrsb	r1, [r3, #2]
 674 0990 20309DE5 		ldr	r3, [sp, #32]
 675 0994 021081E0 		add	r1, r1, r2
 676 0998 E4209DE5 		ldr	r2, [sp, #228]
 677 099c 1117A0E1 		lsl	r1, r1, r7
 678 09a0 D230D3E1 		ldrsb	r3, [r3, #2]
 679 09a4 A10F5BE1 		cmp	fp, r1, lsr #31
 680 09a8 023083E0 		add	r3, r3, r2
 681 09ac 0741A013 		movne	r4, #-1073741823
 682 09b0 0050E013 		mvnne	r5, #0
 683 09b4 0141A003 		moveq	r4, #1073741824
 684 09b8 0050A003 		moveq	r5, #0
 685 09bc 9A41E5E0 		smlal	r4, r5, r10, r1
 686 09c0 1377A0E1 		lsl	r7, r3, r7
 687 09c4 0030A0E3 		mov	r3, #0
 688 09c8 C52FA0E1 		asr	r2, r5, #31
 689 09cc 0221C2E3 		bic	r2, r2, #-2147483648
 690 09d0 042092E0 		adds	r2, r2, r4
 691 09d4 A22FA0E1 		lsr	r2, r2, #31
 692 09d8 0530A3E0 		adc	r3, r3, r5
 693 09dc 01005AE1 		cmp	r10, r1
 694 09e0 02015103 		cmpeq	r1, #-2147483648
 695 09e4 E8109DE5 		ldr	r1, [sp, #232]
 696 09e8 832082E1 		orr	r2, r2, r3, lsl #1
 697 09ec 38309DE5 		ldr	r3, [sp, #56]
 698 09f0 0221E003 		mvneq	r2, #-2147483648
 699 09f4 000052E3 		cmp	r2, #0
 700 09f8 06E0A0A1 		movge	lr, r6
 701 09fc A70F53E1 		cmp	r3, r7, lsr #31
 702 0a00 18309DE5 		ldr	r3, [sp, #24]
 703 0a04 0741A013 		movne	r4, #-1073741823
 704 0a08 0050E013 		mvnne	r5, #0
 705 0a0c 0141A003 		moveq	r4, #1073741824
 706 0a10 0050A003 		moveq	r5, #0
 707 0a14 9147E5E0 		smlal	r4, r5, r1, r7
 708 0a18 30109DE5 		ldr	r1, [sp, #48]
 709 0a1c 5233A0E1 		asr	r3, r2, r3
 710 0a20 021001E0 		and	r1, r1, r2
 711 0a24 0120A0E1 		mov	r2, r1
 712 0a28 0010A0E3 		mov	r1, #0
 713 0a2c 03008DE8 		stm	sp, {r0, r1}
 714 0a30 C50FA0E1 		asr	r0, r5, #31
 715 0a34 0010A0E3 		mov	r1, #0
 716 0a38 0201C0E3 		bic	r0, r0, #-2147483648
 717 0a3c 01C083E2 		add	ip, r3, #1
 718 0a40 040090E0 		adds	r0, r0, r4
 719 0a44 E8409DE5 		ldr	r4, [sp, #232]
 720 0a48 A00FA0E1 		lsr	r0, r0, #31
 721 0a4c 0510A1E0 		adc	r1, r1, r5
 722 0a50 070054E1 		cmp	r4, r7
 723 0a54 02015703 		cmpeq	r7, #-2147483648
 724 0a58 810080E1 		orr	r0, r0, r1, lsl #1
 725 0a5c 0201E003 		mvneq	r0, #-2147483648
 726 0a60 0C109DE5 		ldr	r1, [sp, #12]
 727 0a64 0E0052E1 		cmp	r2, lr
 728 0a68 0320A0D1 		movle	r2, r3
 729 0a6c 1C309DE5 		ldr	r3, [sp, #28]
 730 0a70 0C20A0C1 		movgt	r2, ip
 731 0a74 000050E3 		cmp	r0, #0
 732 0a78 50E3A0E1 		asr	lr, r0, r3
 733 0a7c 14309DE5 		ldr	r3, [sp, #20]
 734 0a80 0130A0A1 		movge	r3, r1
 735 0a84 28109DE5 		ldr	r1, [sp, #40]
 736 0a88 001001E0 		and	r1, r1, r0
 737 0a8c 030051E1 		cmp	r1, r3
 738 0a90 0E00A0D1 		movle	r0, lr
 739 0a94 01008EC2 		addgt	r0, lr, #1
 740 0a98 FC309DE5 		ldr	r3, [sp, #252]
 741 0a9c 022080E0 		add	r2, r0, r2
 742 0aa0 D000CDE1 		ldrd	r0, [sp]
 743 0aa4 9302E1E0 		smlal	r0, r1, r3, r2
 744 0aa8 A02FA0E1 		lsr	r2, r0, #31
 745 0aac 08009DE5 		ldr	r0, [sp, #8]
 746 0ab0 812082E1 		orr	r2, r2, r1, lsl #1
 747 0ab4 24109DE5 		ldr	r1, [sp, #36]
 748 0ab8 000052E3 		cmp	r2, #0
 749 0abc 5231A0E1 		asr	r3, r2, r1
 750 0ac0 10109DE5 		ldr	r1, [sp, #16]
 751 0ac4 0010A0A1 		movge	r1, r0
 752 0ac8 88009DE5 		ldr	r0, [sp, #136]
 753 0acc 020000E0 		and	r0, r0, r2
 754 0ad0 010050E1 		cmp	r0, r1
 755 0ad4 0320A0D1 		movle	r2, r3
 756 0ad8 012083C2 		addgt	r2, r3, #1
 757 0adc F8309DE5 		ldr	r3, [sp, #248]
 758 0ae0 032082E0 		add	r2, r2, r3
 759 0ae4 F4309DE5 		ldr	r3, [sp, #244]
 760 0ae8 020058E1 		cmp	r8, r2
 761 0aec 0280A0B1 		movlt	r8, r2
 762 0af0 080059E1 		cmp	r9, r8
 763 0af4 0980A0B1 		movlt	r8, r9
 764 0af8 0280C3E5 		strb	r8, [r3, #2]
 765              	.L60:
 766 0afc 0000A0E3 		mov	r0, #0
 767 0b00 BCD08DE2 		add	sp, sp, #188
 768              		@ sp needed
 769 0b04 F08FBDE8 		pop	{r4, r5, r6, r7, r8, r9, r10, fp, pc}
 771              		.ident	"GCC: (GNU Tools for ARM Embedded Processors 6-2017-q2-update) 6.3.1 20170620 (release) [AR
DEFINED SYMBOLS
                            *ABS*:00000000 arm_elementwise_add_s8.c
C:\Users\a5050395\AppData\Local\Temp\ccU6Gkas.s:14     .text.arm_elementwise_add_s8:00000000 $a
C:\Users\a5050395\AppData\Local\Temp\ccU6Gkas.s:20     .text.arm_elementwise_add_s8:00000000 arm_elementwise_add_s8

UNDEFINED SYMBOLS
memcpy
