   1              		.cpu cortex-a9
   2              		.eabi_attribute 28, 1
   3              		.eabi_attribute 20, 1
   4              		.eabi_attribute 21, 1
   5              		.eabi_attribute 23, 3
   6              		.eabi_attribute 24, 1
   7              		.eabi_attribute 25, 1
   8              		.eabi_attribute 26, 1
   9              		.eabi_attribute 30, 1
  10              		.eabi_attribute 34, 0
  11              		.eabi_attribute 18, 4
  12              		.file	"camera_mipi_pcam5c.c"
  13              		.text
  14              	.Ltext0:
  15              		.cfi_sections	.debug_frame
  16              		.section	.text.pcam5c_port_setting,"ax",%progbits
  17              		.align	2
  18              		.syntax unified
  19              		.arm
  20              		.fpu neon
  22              	pcam5c_port_setting:
  23              	.LFB1:
  24              		.file 1 "../src/renesas/application/common/camera/camera_mipi_pcam5c.c"
   1:../src/renesas/application/common/camera/camera_mipi_pcam5c.c **** /**************************************************************************************************
   2:../src/renesas/application/common/camera/camera_mipi_pcam5c.c ****  * DISCLAIMER
   3:../src/renesas/application/common/camera/camera_mipi_pcam5c.c ****  * This software is supplied by Renesas Electronics Corporation and is only intended for use with R
   4:../src/renesas/application/common/camera/camera_mipi_pcam5c.c ****  * other uses are authorized. This software is owned by Renesas Electronics Corporation and is prot
   5:../src/renesas/application/common/camera/camera_mipi_pcam5c.c ****  * applicable laws, including copyright laws.
   6:../src/renesas/application/common/camera/camera_mipi_pcam5c.c ****  * THIS SOFTWARE IS PROVIDED "AS IS" AND RENESAS MAKES NO WARRANTIES REGARDING
   7:../src/renesas/application/common/camera/camera_mipi_pcam5c.c ****  * THIS SOFTWARE, WHETHER EXPRESS, IMPLIED OR STATUTORY, INCLUDING BUT NOT LIMITED TO WARRANTIES OF
   8:../src/renesas/application/common/camera/camera_mipi_pcam5c.c ****  * FITNESS FOR A PARTICULAR PURPOSE AND NON-INFRINGEMENT. ALL SUCH WARRANTIES ARE EXPRESSLY DISCLAI
   9:../src/renesas/application/common/camera/camera_mipi_pcam5c.c ****  * EXTENT PERMITTED NOT PROHIBITED BY LAW, NEITHER RENESAS ELECTRONICS CORPORATION NOR ANY OF ITS A
  10:../src/renesas/application/common/camera/camera_mipi_pcam5c.c ****  * SHALL BE LIABLE FOR ANY DIRECT, INDIRECT, SPECIAL, INCIDENTAL OR CONSEQUENTIAL DAMAGES FOR ANY R
  11:../src/renesas/application/common/camera/camera_mipi_pcam5c.c ****  * THIS SOFTWARE, EVEN IF RENESAS OR ITS AFFILIATES HAVE BEEN ADVISED OF THE POSSIBILITY OF SUCH DA
  12:../src/renesas/application/common/camera/camera_mipi_pcam5c.c ****  * Renesas reserves the right, without notice, to make changes to this software and to discontinue 
  13:../src/renesas/application/common/camera/camera_mipi_pcam5c.c ****  * this software. By using this software, you agree to the additional terms and conditions found by
  14:../src/renesas/application/common/camera/camera_mipi_pcam5c.c ****  * following link:
  15:../src/renesas/application/common/camera/camera_mipi_pcam5c.c ****  * http://www.renesas.com/disclaimer
  16:../src/renesas/application/common/camera/camera_mipi_pcam5c.c ****  *
  17:../src/renesas/application/common/camera/camera_mipi_pcam5c.c ****  * Copyright (C) 2019 Renesas Electronics Corporation. All rights reserved.
  18:../src/renesas/application/common/camera/camera_mipi_pcam5c.c ****  **************************************************************************************************
  19:../src/renesas/application/common/camera/camera_mipi_pcam5c.c **** /**************************************************************************//**
  20:../src/renesas/application/common/camera/camera_mipi_pcam5c.c **** * @file         camera_mipi_pcam5c.c
  21:../src/renesas/application/common/camera/camera_mipi_pcam5c.c **** * @version      0.01
  22:../src/renesas/application/common/camera/camera_mipi_pcam5c.c **** * @brief        MIPI Camera Register Setting
  23:../src/renesas/application/common/camera/camera_mipi_pcam5c.c **** ******************************************************************************/
  24:../src/renesas/application/common/camera/camera_mipi_pcam5c.c **** 
  25:../src/renesas/application/common/camera/camera_mipi_pcam5c.c **** /******************************************************************************
  26:../src/renesas/application/common/camera/camera_mipi_pcam5c.c **** Includes   <System Includes> , "Project Includes"
  27:../src/renesas/application/common/camera/camera_mipi_pcam5c.c **** ******************************************************************************/
  28:../src/renesas/application/common/camera/camera_mipi_pcam5c.c **** #include    "mipi_camera.h"
  29:../src/renesas/application/common/camera/camera_mipi_pcam5c.c **** #if (CAM_MIPI == CAM_PCAM5C)
  30:../src/renesas/application/common/camera/camera_mipi_pcam5c.c **** #include    <stdio.h>
  31:../src/renesas/application/common/camera/camera_mipi_pcam5c.c **** #include    <iodefine.h>
  32:../src/renesas/application/common/camera/camera_mipi_pcam5c.c **** #include    "r_mipi_api.h"
  33:../src/renesas/application/common/camera/camera_mipi_pcam5c.c **** #include    "r_mmu_drv_api.h"
  34:../src/renesas/application/common/camera/camera_mipi_pcam5c.c **** #include    "r_riic_drv_api.h"
  35:../src/renesas/application/common/camera/camera_mipi_pcam5c.c **** #include    "camera_mipi_pcam5c_regdata.h"
  36:../src/renesas/application/common/camera/camera_mipi_pcam5c.c **** #include    "r_devlink_wrapper.h"
  37:../src/renesas/application/common/camera/camera_mipi_pcam5c.c **** #include    "r_riic_drv_sc_cfg.h"
  38:../src/renesas/application/common/camera/camera_mipi_pcam5c.c **** #include    "r_gpio_drv_api.h"
  39:../src/renesas/application/common/camera/camera_mipi_pcam5c.c **** 
  40:../src/renesas/application/common/camera/camera_mipi_pcam5c.c **** /******************************************************************************
  41:../src/renesas/application/common/camera/camera_mipi_pcam5c.c **** Macro definitions
  42:../src/renesas/application/common/camera/camera_mipi_pcam5c.c **** ******************************************************************************/
  43:../src/renesas/application/common/camera/camera_mipi_pcam5c.c **** #define MIPI_CAMERA_SUBADD    0x78
  44:../src/renesas/application/common/camera/camera_mipi_pcam5c.c **** 
  45:../src/renesas/application/common/camera/camera_mipi_pcam5c.c **** /******************************************************************************
  46:../src/renesas/application/common/camera/camera_mipi_pcam5c.c **** Typedef definitions
  47:../src/renesas/application/common/camera/camera_mipi_pcam5c.c **** ******************************************************************************/
  48:../src/renesas/application/common/camera/camera_mipi_pcam5c.c **** 
  49:../src/renesas/application/common/camera/camera_mipi_pcam5c.c **** /******************************************************************************
  50:../src/renesas/application/common/camera/camera_mipi_pcam5c.c **** Imported global variables and functions (from other files)
  51:../src/renesas/application/common/camera/camera_mipi_pcam5c.c **** ******************************************************************************/
  52:../src/renesas/application/common/camera/camera_mipi_pcam5c.c **** 
  53:../src/renesas/application/common/camera/camera_mipi_pcam5c.c **** /******************************************************************************
  54:../src/renesas/application/common/camera/camera_mipi_pcam5c.c **** Exported global variables (to be accessed by other files)
  55:../src/renesas/application/common/camera/camera_mipi_pcam5c.c **** ******************************************************************************/
  56:../src/renesas/application/common/camera/camera_mipi_pcam5c.c **** 
  57:../src/renesas/application/common/camera/camera_mipi_pcam5c.c **** /******************************************************************************
  58:../src/renesas/application/common/camera/camera_mipi_pcam5c.c **** Private global variables and functions
  59:../src/renesas/application/common/camera/camera_mipi_pcam5c.c **** ******************************************************************************/
  60:../src/renesas/application/common/camera/camera_mipi_pcam5c.c **** void RIIC_MipiWrite( uint8_t ic_adr, uint8_t reg_adr_upper, uint8_t reg_adr_lower, uint8_t reg_data
  61:../src/renesas/application/common/camera/camera_mipi_pcam5c.c **** static int_t RIIC_MipiRead( uint8_t ic_adr, uint8_t reg_adr_upper, uint8_t reg_adr_lower, uint8_t *
  62:../src/renesas/application/common/camera/camera_mipi_pcam5c.c **** void gain_setting(uint32_t gain_output);
  63:../src/renesas/application/common/camera/camera_mipi_pcam5c.c **** 
  64:../src/renesas/application/common/camera/camera_mipi_pcam5c.c **** int_t hi2c2 = ( -1);
  65:../src/renesas/application/common/camera/camera_mipi_pcam5c.c **** 
  66:../src/renesas/application/common/camera/camera_mipi_pcam5c.c **** 
  67:../src/renesas/application/common/camera/camera_mipi_pcam5c.c **** /**************************************************************************//**
  68:../src/renesas/application/common/camera/camera_mipi_pcam5c.c ****  * @fn          pcam5c_port_setting
  69:../src/renesas/application/common/camera/camera_mipi_pcam5c.c ****  * @brief       pcam5c_port_setting(reset and power down)
  70:../src/renesas/application/common/camera/camera_mipi_pcam5c.c ****  * @param[in]   None
  71:../src/renesas/application/common/camera/camera_mipi_pcam5c.c ****  * @retval      None
  72:../src/renesas/application/common/camera/camera_mipi_pcam5c.c **** ******************************************************************************/
  73:../src/renesas/application/common/camera/camera_mipi_pcam5c.c **** static void pcam5c_port_setting(void)
  74:../src/renesas/application/common/camera/camera_mipi_pcam5c.c **** {
  25              		.loc 1 74 0
  26              		.cfi_startproc
  27              		@ args = 0, pretend = 0, frame = 16
  28              		@ frame_needed = 0, uses_anonymous_args = 0
  29 0000 10402DE9 		push	{r4, lr}
  30              		.cfi_def_cfa_offset 8
  31              		.cfi_offset 4, -8
  32              		.cfi_offset 14, -4
  33 0004 10D04DE2 		sub	sp, sp, #16
  34              		.cfi_def_cfa_offset 24
  75:../src/renesas/application/common/camera/camera_mipi_pcam5c.c **** 
  76:../src/renesas/application/common/camera/camera_mipi_pcam5c.c ****     int_t err;
  77:../src/renesas/application/common/camera/camera_mipi_pcam5c.c ****     int_t gpio_handle;
  78:../src/renesas/application/common/camera/camera_mipi_pcam5c.c **** 
  79:../src/renesas/application/common/camera/camera_mipi_pcam5c.c ****     gpio_handle = direct_open("gpio", 0);
  35              		.loc 1 79 0
  36 0008 0010A0E3 		mov	r1, #0
  37 000c 000000E3 		movw	r0, #:lower16:.LC7
  38 0010 000040E3 		movt	r0, #:upper16:.LC7
  39 0014 FEFFFFEB 		bl	direct_open
  40              	.LVL0:
  80:../src/renesas/application/common/camera/camera_mipi_pcam5c.c ****     if ( gpio_handle < 0 )
  41              		.loc 1 80 0
  42 0018 004050E2 		subs	r4, r0, #0
  43 001c 000000AA 		bge	.L2
  44              	.L3:
  45 0020 FEFFFFEA 		b	.L3
  46              	.L2:
  47              	.LBB2:
  81:../src/renesas/application/common/camera/camera_mipi_pcam5c.c ****     {
  82:../src/renesas/application/common/camera/camera_mipi_pcam5c.c ****         /* stop execute */
  83:../src/renesas/application/common/camera/camera_mipi_pcam5c.c ****         while(1);
  84:../src/renesas/application/common/camera/camera_mipi_pcam5c.c ****     }
  85:../src/renesas/application/common/camera/camera_mipi_pcam5c.c **** 
  86:../src/renesas/application/common/camera/camera_mipi_pcam5c.c ****     {
  87:../src/renesas/application/common/camera/camera_mipi_pcam5c.c ****     	st_r_drv_gpio_sc_config_t pin_pcam5c;
  88:../src/renesas/application/common/camera/camera_mipi_pcam5c.c **** 
  89:../src/renesas/application/common/camera/camera_mipi_pcam5c.c ****         /* === PD_2 : Pcam5C Reset Pin === */
  90:../src/renesas/application/common/camera/camera_mipi_pcam5c.c ****         /* ---- Port initialize ---- */
  91:../src/renesas/application/common/camera/camera_mipi_pcam5c.c ****         pin_pcam5c.pin                    = GPIO_PORT_D_PIN_2;
  48              		.loc 1 91 0
  49 0024 023D00E3 		movw	r3, #3330
  50 0028 B830CDE1 		strh	r3, [sp, #8]	@ movhi
  92:../src/renesas/application/common/camera/camera_mipi_pcam5c.c ****         pin_pcam5c.configuration.function = GPIO_FUNC_OUT_HIGH;
  51              		.loc 1 92 0
  52 002c 0330A0E3 		mov	r3, #3
  53 0030 0A30CDE5 		strb	r3, [sp, #10]
  93:../src/renesas/application/common/camera/camera_mipi_pcam5c.c ****         pin_pcam5c.configuration.current  = GPIO_CURRENT_RESERVED;
  54              		.loc 1 93 0
  55 0034 0530A0E3 		mov	r3, #5
  56 0038 0C30CDE5 		strb	r3, [sp, #12]
  94:../src/renesas/application/common/camera/camera_mipi_pcam5c.c ****         pin_pcam5c.configuration.tint     = GPIO_TINT_DISABLE;
  57              		.loc 1 94 0
  58 003c 0130A0E3 		mov	r3, #1
  59 0040 0B30CDE5 		strb	r3, [sp, #11]
  95:../src/renesas/application/common/camera/camera_mipi_pcam5c.c **** 
  96:../src/renesas/application/common/camera/camera_mipi_pcam5c.c ****         err = direct_control(gpio_handle, CTL_GPIO_SET_CONFIGURATION, &pin_pcam5c);
  60              		.loc 1 96 0
  61 0044 08208DE2 		add	r2, sp, #8
  62 0048 0010A0E3 		mov	r1, #0
  63 004c 0400A0E1 		mov	r0, r4
  64              	.LVL1:
  65 0050 FEFFFFEB 		bl	direct_control
  66              	.LVL2:
  97:../src/renesas/application/common/camera/camera_mipi_pcam5c.c ****         if ( err < 0 )
  67              		.loc 1 97 0
  68 0054 000050E3 		cmp	r0, #0
  69 0058 000000AA 		bge	.L4
  70              	.L5:
  71 005c FEFFFFEA 		b	.L5
  72              	.L4:
  73              	.LBE2:
  74              	.LBB3:
  98:../src/renesas/application/common/camera/camera_mipi_pcam5c.c ****         {
  99:../src/renesas/application/common/camera/camera_mipi_pcam5c.c ****             /* stop execute */
 100:../src/renesas/application/common/camera/camera_mipi_pcam5c.c ****             while(1);
 101:../src/renesas/application/common/camera/camera_mipi_pcam5c.c ****         }
 102:../src/renesas/application/common/camera/camera_mipi_pcam5c.c ****     }
 103:../src/renesas/application/common/camera/camera_mipi_pcam5c.c **** 
 104:../src/renesas/application/common/camera/camera_mipi_pcam5c.c ****     {
 105:../src/renesas/application/common/camera/camera_mipi_pcam5c.c ****         volatile uint32_t count;
 106:../src/renesas/application/common/camera/camera_mipi_pcam5c.c ****         st_r_drv_gpio_pin_rw_t pcam5c_pwup_high = { GPIO_PORT_D_PIN_2, GPIO_LEVEL_HIGH, GPIO_SUCCES
  75              		.loc 1 106 0
  76 0060 003000E3 		movw	r3, #:lower16:.LANCHOR0
  77 0064 003040E3 		movt	r3, #:upper16:.LANCHOR0
  78 0068 002093E5 		ldr	r2, [r3]
  79 006c 04208DE5 		str	r2, [sp, #4]
 107:../src/renesas/application/common/camera/camera_mipi_pcam5c.c ****         st_r_drv_gpio_pin_rw_t pcam5c_pwup_low  = { GPIO_PORT_D_PIN_2, GPIO_LEVEL_LOW, GPIO_SUCCESS
  80              		.loc 1 107 0
  81 0070 043093E5 		ldr	r3, [r3, #4]
  82 0074 10208DE2 		add	r2, sp, #16
  83 0078 083022E5 		str	r3, [r2, #-8]!
 108:../src/renesas/application/common/camera/camera_mipi_pcam5c.c **** 
 109:../src/renesas/application/common/camera/camera_mipi_pcam5c.c ****         /* Power Up Sequence
 110:../src/renesas/application/common/camera/camera_mipi_pcam5c.c ****          *            _______   ______________
 111:../src/renesas/application/common/camera/camera_mipi_pcam5c.c ****          * Power pwup        |__|
 112:../src/renesas/application/common/camera/camera_mipi_pcam5c.c ****          */
 113:../src/renesas/application/common/camera/camera_mipi_pcam5c.c **** 
 114:../src/renesas/application/common/camera/camera_mipi_pcam5c.c ****         direct_control(gpio_handle, CTL_GPIO_PIN_WRITE, &pcam5c_pwup_low);
  84              		.loc 1 114 0
  85 007c 0810A0E3 		mov	r1, #8
  86 0080 0400A0E1 		mov	r0, r4
  87              	.LVL3:
  88 0084 FEFFFFEB 		bl	direct_control
  89              	.LVL4:
 115:../src/renesas/application/common/camera/camera_mipi_pcam5c.c ****         R_OS_TaskSleep(200);
  90              		.loc 1 115 0
  91 0088 C800A0E3 		mov	r0, #200
  92 008c FEFFFFEB 		bl	R_OS_TaskSleep
  93              	.LVL5:
 116:../src/renesas/application/common/camera/camera_mipi_pcam5c.c **** 
 117:../src/renesas/application/common/camera/camera_mipi_pcam5c.c ****         direct_control(gpio_handle, CTL_GPIO_PIN_WRITE, &pcam5c_pwup_high);
  94              		.loc 1 117 0
  95 0090 04208DE2 		add	r2, sp, #4
  96 0094 0810A0E3 		mov	r1, #8
  97 0098 0400A0E1 		mov	r0, r4
  98 009c FEFFFFEB 		bl	direct_control
  99              	.LVL6:
 118:../src/renesas/application/common/camera/camera_mipi_pcam5c.c **** 
 119:../src/renesas/application/common/camera/camera_mipi_pcam5c.c ****         R_OS_TaskSleep(100);
 100              		.loc 1 119 0
 101 00a0 6400A0E3 		mov	r0, #100
 102 00a4 FEFFFFEB 		bl	R_OS_TaskSleep
 103              	.LVL7:
 104              	.LBE3:
 120:../src/renesas/application/common/camera/camera_mipi_pcam5c.c ****     }
 121:../src/renesas/application/common/camera/camera_mipi_pcam5c.c ****     direct_close(gpio_handle);
 105              		.loc 1 121 0
 106 00a8 0400A0E1 		mov	r0, r4
 107 00ac FEFFFFEB 		bl	direct_close
 108              	.LVL8:
 122:../src/renesas/application/common/camera/camera_mipi_pcam5c.c **** }
 109              		.loc 1 122 0
 110 00b0 10D08DE2 		add	sp, sp, #16
 111              		.cfi_def_cfa_offset 8
 112              		@ sp needed
 113 00b4 1080BDE8 		pop	{r4, pc}
 114              		.cfi_endproc
 115              	.LFE1:
 117              		.section	.text.RIIC_MipiWrite,"ax",%progbits
 118              		.align	2
 119              		.global	RIIC_MipiWrite
 120              		.syntax unified
 121              		.arm
 122              		.fpu neon
 124              	RIIC_MipiWrite:
 125              	.LFB5:
 123:../src/renesas/application/common/camera/camera_mipi_pcam5c.c **** 
 124:../src/renesas/application/common/camera/camera_mipi_pcam5c.c **** /**************************************************************************//**
 125:../src/renesas/application/common/camera/camera_mipi_pcam5c.c ****  * @fn          Init_Camera
 126:../src/renesas/application/common/camera/camera_mipi_pcam5c.c ****  * @brief       Init_Camera
 127:../src/renesas/application/common/camera/camera_mipi_pcam5c.c ****  * @param[in]   None
 128:../src/renesas/application/common/camera/camera_mipi_pcam5c.c ****  * @retval      None
 129:../src/renesas/application/common/camera/camera_mipi_pcam5c.c **** ******************************************************************************/
 130:../src/renesas/application/common/camera/camera_mipi_pcam5c.c **** void Init_Camera(void)
 131:../src/renesas/application/common/camera/camera_mipi_pcam5c.c **** {
 132:../src/renesas/application/common/camera/camera_mipi_pcam5c.c ****     int_t    ret;
 133:../src/renesas/application/common/camera/camera_mipi_pcam5c.c ****     uint32_t count;
 134:../src/renesas/application/common/camera/camera_mipi_pcam5c.c ****     uint8_t  read_data;
 135:../src/renesas/application/common/camera/camera_mipi_pcam5c.c **** 
 136:../src/renesas/application/common/camera/camera_mipi_pcam5c.c ****     st_mipi_reg_t system_input_clock = {0x31, 0x03, 0x11};
 137:../src/renesas/application/common/camera/camera_mipi_pcam5c.c ****     st_mipi_reg_t software_reset     = {0x30, 0x08, 0x82};
 138:../src/renesas/application/common/camera/camera_mipi_pcam5c.c ****     st_mipi_reg_t power_down         = {0x30, 0x08, 0x42};
 139:../src/renesas/application/common/camera/camera_mipi_pcam5c.c ****     st_mipi_reg_t choose_system_input_clock = {0x31, 0x03, 0x03};
 140:../src/renesas/application/common/camera/camera_mipi_pcam5c.c **** 
 141:../src/renesas/application/common/camera/camera_mipi_pcam5c.c ****     /* Pcam5C Power Up Sequence */
 142:../src/renesas/application/common/camera/camera_mipi_pcam5c.c ****     pcam5c_port_setting();
 143:../src/renesas/application/common/camera/camera_mipi_pcam5c.c **** 
 144:../src/renesas/application/common/camera/camera_mipi_pcam5c.c ****     /* open RIIC */
 145:../src/renesas/application/common/camera/camera_mipi_pcam5c.c ****     ret = open(DEVICE_INDENTIFIER "riic1", O_RDWR);
 146:../src/renesas/application/common/camera/camera_mipi_pcam5c.c **** 
 147:../src/renesas/application/common/camera/camera_mipi_pcam5c.c ****     if (ret >= 0)
 148:../src/renesas/application/common/camera/camera_mipi_pcam5c.c ****     {
 149:../src/renesas/application/common/camera/camera_mipi_pcam5c.c ****         hi2c2 = ret;
 150:../src/renesas/application/common/camera/camera_mipi_pcam5c.c ****     }
 151:../src/renesas/application/common/camera/camera_mipi_pcam5c.c **** 
 152:../src/renesas/application/common/camera/camera_mipi_pcam5c.c ****     R_OS_TaskSleep(100);
 153:../src/renesas/application/common/camera/camera_mipi_pcam5c.c **** 
 154:../src/renesas/application/common/camera/camera_mipi_pcam5c.c ****     /* system input clock */
 155:../src/renesas/application/common/camera/camera_mipi_pcam5c.c ****     RIIC_MipiWrite(MIPI_CAMERA_SUBADD,
 156:../src/renesas/application/common/camera/camera_mipi_pcam5c.c ****     		system_input_clock.reg_add_upper,
 157:../src/renesas/application/common/camera/camera_mipi_pcam5c.c **** 			system_input_clock.reg_add_lower,
 158:../src/renesas/application/common/camera/camera_mipi_pcam5c.c **** 			system_input_clock.value);
 159:../src/renesas/application/common/camera/camera_mipi_pcam5c.c **** 
 160:../src/renesas/application/common/camera/camera_mipi_pcam5c.c ****     R_OS_TaskSleep(100);
 161:../src/renesas/application/common/camera/camera_mipi_pcam5c.c **** 
 162:../src/renesas/application/common/camera/camera_mipi_pcam5c.c ****     /* software_reset */
 163:../src/renesas/application/common/camera/camera_mipi_pcam5c.c ****     RIIC_MipiWrite(MIPI_CAMERA_SUBADD,
 164:../src/renesas/application/common/camera/camera_mipi_pcam5c.c ****     		software_reset.reg_add_upper,
 165:../src/renesas/application/common/camera/camera_mipi_pcam5c.c **** 			software_reset.reg_add_lower,
 166:../src/renesas/application/common/camera/camera_mipi_pcam5c.c **** 			software_reset.value);
 167:../src/renesas/application/common/camera/camera_mipi_pcam5c.c **** 
 168:../src/renesas/application/common/camera/camera_mipi_pcam5c.c ****     R_OS_TaskSleep(20);
 169:../src/renesas/application/common/camera/camera_mipi_pcam5c.c **** 
 170:../src/renesas/application/common/camera/camera_mipi_pcam5c.c ****     /* power_down */
 171:../src/renesas/application/common/camera/camera_mipi_pcam5c.c ****     RIIC_MipiWrite(MIPI_CAMERA_SUBADD,
 172:../src/renesas/application/common/camera/camera_mipi_pcam5c.c ****     		power_down.reg_add_upper,
 173:../src/renesas/application/common/camera/camera_mipi_pcam5c.c **** 			power_down.reg_add_lower,
 174:../src/renesas/application/common/camera/camera_mipi_pcam5c.c **** 			power_down.value);
 175:../src/renesas/application/common/camera/camera_mipi_pcam5c.c **** 
 176:../src/renesas/application/common/camera/camera_mipi_pcam5c.c ****     /* choose_system_input_clock */
 177:../src/renesas/application/common/camera/camera_mipi_pcam5c.c ****     RIIC_MipiWrite(MIPI_CAMERA_SUBADD,
 178:../src/renesas/application/common/camera/camera_mipi_pcam5c.c ****     		choose_system_input_clock.reg_add_upper,
 179:../src/renesas/application/common/camera/camera_mipi_pcam5c.c **** 			choose_system_input_clock.reg_add_lower,
 180:../src/renesas/application/common/camera/camera_mipi_pcam5c.c **** 			choose_system_input_clock.value);
 181:../src/renesas/application/common/camera/camera_mipi_pcam5c.c **** 
 182:../src/renesas/application/common/camera/camera_mipi_pcam5c.c ****     /* MIPI Camera Init */
 183:../src/renesas/application/common/camera/camera_mipi_pcam5c.c ****     count = 0;
 184:../src/renesas/application/common/camera/camera_mipi_pcam5c.c ****     while(1)
 185:../src/renesas/application/common/camera/camera_mipi_pcam5c.c ****     {
 186:../src/renesas/application/common/camera/camera_mipi_pcam5c.c ****     	if(g_mipi_reg_init_table[count].reg_add_upper == 0xFF &&
 187:../src/renesas/application/common/camera/camera_mipi_pcam5c.c ****     	   g_mipi_reg_init_table[count].reg_add_lower == 0xFF &&
 188:../src/renesas/application/common/camera/camera_mipi_pcam5c.c **** 		   g_mipi_reg_init_table[count].value == 0xFF )
 189:../src/renesas/application/common/camera/camera_mipi_pcam5c.c ****     	{
 190:../src/renesas/application/common/camera/camera_mipi_pcam5c.c ****     		break;
 191:../src/renesas/application/common/camera/camera_mipi_pcam5c.c ****     	}
 192:../src/renesas/application/common/camera/camera_mipi_pcam5c.c ****         RIIC_MipiWrite(MIPI_CAMERA_SUBADD,
 193:../src/renesas/application/common/camera/camera_mipi_pcam5c.c ****                        g_mipi_reg_init_table[count].reg_add_upper,
 194:../src/renesas/application/common/camera/camera_mipi_pcam5c.c ****                        g_mipi_reg_init_table[count].reg_add_lower,
 195:../src/renesas/application/common/camera/camera_mipi_pcam5c.c ****                        g_mipi_reg_init_table[count].value);
 196:../src/renesas/application/common/camera/camera_mipi_pcam5c.c ****         count ++;
 197:../src/renesas/application/common/camera/camera_mipi_pcam5c.c ****     }
 198:../src/renesas/application/common/camera/camera_mipi_pcam5c.c **** 
 199:../src/renesas/application/common/camera/camera_mipi_pcam5c.c **** #if 0
 200:../src/renesas/application/common/camera/camera_mipi_pcam5c.c ****     count = 0;
 201:../src/renesas/application/common/camera/camera_mipi_pcam5c.c ****     /* MIPI Camera Init */
 202:../src/renesas/application/common/camera/camera_mipi_pcam5c.c ****     while(1)
 203:../src/renesas/application/common/camera/camera_mipi_pcam5c.c ****     {
 204:../src/renesas/application/common/camera/camera_mipi_pcam5c.c ****     	if(g_mipi_reg_init_table[count].reg_add_upper == 0xFF && g_mipi_reg_init_table[count].reg_add_
 205:../src/renesas/application/common/camera/camera_mipi_pcam5c.c ****     	{
 206:../src/renesas/application/common/camera/camera_mipi_pcam5c.c ****     		break;
 207:../src/renesas/application/common/camera/camera_mipi_pcam5c.c ****     	}
 208:../src/renesas/application/common/camera/camera_mipi_pcam5c.c ****     	RIIC_MipiRead(MIPI_CAMERA_SUBADD,
 209:../src/renesas/application/common/camera/camera_mipi_pcam5c.c ****                        g_mipi_reg_init_table[count].reg_add_upper,
 210:../src/renesas/application/common/camera/camera_mipi_pcam5c.c ****                        g_mipi_reg_init_table[count].reg_add_lower,
 211:../src/renesas/application/common/camera/camera_mipi_pcam5c.c **** 					   &read_data,
 212:../src/renesas/application/common/camera/camera_mipi_pcam5c.c **** 					   1);
 213:../src/renesas/application/common/camera/camera_mipi_pcam5c.c ****     	printf("0x%02x%02x = 0x%02x.\r\n", g_mipi_reg_init_table[count].reg_add_upper, g_mipi_reg_init
 214:../src/renesas/application/common/camera/camera_mipi_pcam5c.c ****         count ++;
 215:../src/renesas/application/common/camera/camera_mipi_pcam5c.c ****     }
 216:../src/renesas/application/common/camera/camera_mipi_pcam5c.c **** #endif
 217:../src/renesas/application/common/camera/camera_mipi_pcam5c.c **** }
 218:../src/renesas/application/common/camera/camera_mipi_pcam5c.c **** 
 219:../src/renesas/application/common/camera/camera_mipi_pcam5c.c **** /**************************************************************************//**
 220:../src/renesas/application/common/camera/camera_mipi_pcam5c.c ****  * @fn          Start_Camera
 221:../src/renesas/application/common/camera/camera_mipi_pcam5c.c ****  * @brief       Start_Camera
 222:../src/renesas/application/common/camera/camera_mipi_pcam5c.c ****  * @param[in]   None
 223:../src/renesas/application/common/camera/camera_mipi_pcam5c.c ****  * @retval      None
 224:../src/renesas/application/common/camera/camera_mipi_pcam5c.c **** ******************************************************************************/
 225:../src/renesas/application/common/camera/camera_mipi_pcam5c.c **** void Start_Camera( void )
 226:../src/renesas/application/common/camera/camera_mipi_pcam5c.c **** {
 227:../src/renesas/application/common/camera/camera_mipi_pcam5c.c ****     st_mipi_reg_t power_down_on = {0x30,0x08,0x02};
 228:../src/renesas/application/common/camera/camera_mipi_pcam5c.c **** 
 229:../src/renesas/application/common/camera/camera_mipi_pcam5c.c ****     /* Gain setting */
 230:../src/renesas/application/common/camera/camera_mipi_pcam5c.c ****     gain_setting(0x28);
 231:../src/renesas/application/common/camera/camera_mipi_pcam5c.c **** 
 232:../src/renesas/application/common/camera/camera_mipi_pcam5c.c ****     /* power down on */
 233:../src/renesas/application/common/camera/camera_mipi_pcam5c.c ****     RIIC_MipiWrite(MIPI_CAMERA_SUBADD,
 234:../src/renesas/application/common/camera/camera_mipi_pcam5c.c ****             power_down_on.reg_add_upper,
 235:../src/renesas/application/common/camera/camera_mipi_pcam5c.c ****             power_down_on.reg_add_lower,
 236:../src/renesas/application/common/camera/camera_mipi_pcam5c.c ****             power_down_on.value);
 237:../src/renesas/application/common/camera/camera_mipi_pcam5c.c **** 
 238:../src/renesas/application/common/camera/camera_mipi_pcam5c.c **** }   /* End of function Start_MIPI() */
 239:../src/renesas/application/common/camera/camera_mipi_pcam5c.c **** 
 240:../src/renesas/application/common/camera/camera_mipi_pcam5c.c **** /**************************************************************************//**
 241:../src/renesas/application/common/camera/camera_mipi_pcam5c.c ****  * @fn          gain_setting
 242:../src/renesas/application/common/camera/camera_mipi_pcam5c.c ****  * @brief       gain_setting
 243:../src/renesas/application/common/camera/camera_mipi_pcam5c.c ****  * @param[in]   gain_output: 0~1023
 244:../src/renesas/application/common/camera/camera_mipi_pcam5c.c ****  * @retval      None
 245:../src/renesas/application/common/camera/camera_mipi_pcam5c.c **** ******************************************************************************/
 246:../src/renesas/application/common/camera/camera_mipi_pcam5c.c **** void gain_setting(uint32_t gain_output)
 247:../src/renesas/application/common/camera/camera_mipi_pcam5c.c **** {
 248:../src/renesas/application/common/camera/camera_mipi_pcam5c.c ****     uint8_t gain_upper;
 249:../src/renesas/application/common/camera/camera_mipi_pcam5c.c ****     uint8_t gain_lower;
 250:../src/renesas/application/common/camera/camera_mipi_pcam5c.c **** 
 251:../src/renesas/application/common/camera/camera_mipi_pcam5c.c ****     gain_upper = ((gain_output >> 8) & 0x03);
 252:../src/renesas/application/common/camera/camera_mipi_pcam5c.c ****     gain_lower = (gain_output & 0xFF);
 253:../src/renesas/application/common/camera/camera_mipi_pcam5c.c **** 
 254:../src/renesas/application/common/camera/camera_mipi_pcam5c.c ****     /* AEC gain setting upper */
 255:../src/renesas/application/common/camera/camera_mipi_pcam5c.c ****     RIIC_MipiWrite(MIPI_CAMERA_SUBADD,
 256:../src/renesas/application/common/camera/camera_mipi_pcam5c.c ****                0x35,
 257:../src/renesas/application/common/camera/camera_mipi_pcam5c.c ****                0x0A,
 258:../src/renesas/application/common/camera/camera_mipi_pcam5c.c ****                gain_upper);
 259:../src/renesas/application/common/camera/camera_mipi_pcam5c.c **** 
 260:../src/renesas/application/common/camera/camera_mipi_pcam5c.c ****     /* AEC gain setting lower */
 261:../src/renesas/application/common/camera/camera_mipi_pcam5c.c ****     RIIC_MipiWrite(MIPI_CAMERA_SUBADD,
 262:../src/renesas/application/common/camera/camera_mipi_pcam5c.c ****                0x35,
 263:../src/renesas/application/common/camera/camera_mipi_pcam5c.c ****                0x0B,
 264:../src/renesas/application/common/camera/camera_mipi_pcam5c.c ****                gain_lower);
 265:../src/renesas/application/common/camera/camera_mipi_pcam5c.c **** }
 266:../src/renesas/application/common/camera/camera_mipi_pcam5c.c **** 
 267:../src/renesas/application/common/camera/camera_mipi_pcam5c.c **** /******************************************************************************
 268:../src/renesas/application/common/camera/camera_mipi_pcam5c.c **** * @fn         RIIC_MipiWrite
 269:../src/renesas/application/common/camera/camera_mipi_pcam5c.c **** * @brief      RIIC_MipiWrite
 270:../src/renesas/application/common/camera/camera_mipi_pcam5c.c **** * @param[in]  ic_adr         : device address.
 271:../src/renesas/application/common/camera/camera_mipi_pcam5c.c **** * @param[in]  reg_adr_upper  : upper register address to write .
 272:../src/renesas/application/common/camera/camera_mipi_pcam5c.c **** * @param[in]  reg_adr_lower  : lower register address to write .
 273:../src/renesas/application/common/camera/camera_mipi_pcam5c.c **** * @param[in]  reg_data       : write data .
 274:../src/renesas/application/common/camera/camera_mipi_pcam5c.c **** * @retval  : none
 275:../src/renesas/application/common/camera/camera_mipi_pcam5c.c **** ******************************************************************************/
 276:../src/renesas/application/common/camera/camera_mipi_pcam5c.c **** void RIIC_MipiWrite( uint8_t ic_adr, uint8_t reg_adr_upper, uint8_t reg_adr_lower, uint8_t reg_data
 277:../src/renesas/application/common/camera/camera_mipi_pcam5c.c **** {
 126              		.loc 1 277 0
 127              		.cfi_startproc
 128              		@ args = 0, pretend = 0, frame = 24
 129              		@ frame_needed = 0, uses_anonymous_args = 0
 130              	.LVL9:
 131 0000 04E02DE5 		str	lr, [sp, #-4]!
 132              		.cfi_def_cfa_offset 4
 133              		.cfi_offset 14, -4
 134 0004 1CD04DE2 		sub	sp, sp, #28
 135              		.cfi_def_cfa_offset 32
 136 0008 0730CDE5 		strb	r3, [sp, #7]
 278:../src/renesas/application/common/camera/camera_mipi_pcam5c.c ****     int_t ret;
 279:../src/renesas/application/common/camera/camera_mipi_pcam5c.c ****     st_r_drv_riic_transfer_t i2c_write;
 280:../src/renesas/application/common/camera/camera_mipi_pcam5c.c **** 
 281:../src/renesas/application/common/camera/camera_mipi_pcam5c.c ****     i2c_write.device_address = ic_adr;
 137              		.loc 1 281 0
 138 000c B800CDE1 		strh	r0, [sp, #8]	@ movhi
 282:../src/renesas/application/common/camera/camera_mipi_pcam5c.c ****     i2c_write.sub_address_type = RIIC_SUB_ADDR_WIDTH_16_BITS;
 139              		.loc 1 282 0
 140 0010 0230A0E3 		mov	r3, #2
 141              	.LVL10:
 142 0014 0A30CDE5 		strb	r3, [sp, #10]
 283:../src/renesas/application/common/camera/camera_mipi_pcam5c.c ****     i2c_write.sub_address = (reg_adr_upper << 8) | reg_adr_lower;
 143              		.loc 1 283 0
 144 0018 012482E1 		orr	r2, r2, r1, lsl #8
 145              	.LVL11:
 146 001c 0C208DE5 		str	r2, [sp, #12]
 284:../src/renesas/application/common/camera/camera_mipi_pcam5c.c ****     i2c_write.number_of_bytes = 1;
 147              		.loc 1 284 0
 148 0020 0130A0E3 		mov	r3, #1
 149 0024 10308DE5 		str	r3, [sp, #16]
 285:../src/renesas/application/common/camera/camera_mipi_pcam5c.c ****     i2c_write.p_data_buffer = &reg_data;
 150              		.loc 1 285 0
 151 0028 07308DE2 		add	r3, sp, #7
 152              	.LVL12:
 153 002c 14308DE5 		str	r3, [sp, #20]
 286:../src/renesas/application/common/camera/camera_mipi_pcam5c.c **** 
 287:../src/renesas/application/common/camera/camera_mipi_pcam5c.c ****     ret = control(hi2c2, CTL_RIIC_WRITE, &i2c_write);
 154              		.loc 1 287 0
 155 0030 003000E3 		movw	r3, #:lower16:.LANCHOR1
 156              	.LVL13:
 157 0034 003040E3 		movt	r3, #:upper16:.LANCHOR1
 158 0038 08208DE2 		add	r2, sp, #8
 159 003c 0410A0E3 		mov	r1, #4
 160              	.LVL14:
 161 0040 000093E5 		ldr	r0, [r3]
 162              	.LVL15:
 163 0044 FEFFFFEB 		bl	control
 164              	.LVL16:
 288:../src/renesas/application/common/camera/camera_mipi_pcam5c.c **** 
 289:../src/renesas/application/common/camera/camera_mipi_pcam5c.c **** }   /* End of function RIIC_MipiWrite() */
 165              		.loc 1 289 0
 166 0048 1CD08DE2 		add	sp, sp, #28
 167              		.cfi_def_cfa_offset 4
 168              		@ sp needed
 169 004c 04F09DE4 		ldr	pc, [sp], #4
 170              		.cfi_endproc
 171              	.LFE5:
 173              		.section	.text.Init_Camera,"ax",%progbits
 174              		.align	2
 175              		.global	Init_Camera
 176              		.syntax unified
 177              		.arm
 178              		.fpu neon
 180              	Init_Camera:
 181              	.LFB2:
 131:../src/renesas/application/common/camera/camera_mipi_pcam5c.c ****     int_t    ret;
 182              		.loc 1 131 0
 183              		.cfi_startproc
 184              		@ args = 0, pretend = 0, frame = 0
 185              		@ frame_needed = 0, uses_anonymous_args = 0
 186 0000 10402DE9 		push	{r4, lr}
 187              		.cfi_def_cfa_offset 8
 188              		.cfi_offset 4, -8
 189              		.cfi_offset 14, -4
 142:../src/renesas/application/common/camera/camera_mipi_pcam5c.c **** 
 190              		.loc 1 142 0
 191 0004 FEFFFFEB 		bl	pcam5c_port_setting
 192              	.LVL17:
 145:../src/renesas/application/common/camera/camera_mipi_pcam5c.c **** 
 193              		.loc 1 145 0
 194 0008 0210A0E3 		mov	r1, #2
 195 000c 000000E3 		movw	r0, #:lower16:.LC8
 196 0010 000040E3 		movt	r0, #:upper16:.LC8
 197 0014 FEFFFFEB 		bl	open
 198              	.LVL18:
 147:../src/renesas/application/common/camera/camera_mipi_pcam5c.c ****     {
 199              		.loc 1 147 0
 200 0018 000050E3 		cmp	r0, #0
 149:../src/renesas/application/common/camera/camera_mipi_pcam5c.c ****     }
 201              		.loc 1 149 0
 202 001c 003000A3 		movwge	r3, #:lower16:.LANCHOR1
 203 0020 003040A3 		movtge	r3, #:upper16:.LANCHOR1
 204 0024 000083A5 		strge	r0, [r3]
 205              	.L10:
 152:../src/renesas/application/common/camera/camera_mipi_pcam5c.c **** 
 206              		.loc 1 152 0
 207 0028 6400A0E3 		mov	r0, #100
 208              	.LVL19:
 209 002c FEFFFFEB 		bl	R_OS_TaskSleep
 210              	.LVL20:
 155:../src/renesas/application/common/camera/camera_mipi_pcam5c.c ****     		system_input_clock.reg_add_upper,
 211              		.loc 1 155 0
 212 0030 1130A0E3 		mov	r3, #17
 213 0034 0320A0E3 		mov	r2, #3
 214 0038 3110A0E3 		mov	r1, #49
 215 003c 7800A0E3 		mov	r0, #120
 216 0040 FEFFFFEB 		bl	RIIC_MipiWrite
 217              	.LVL21:
 160:../src/renesas/application/common/camera/camera_mipi_pcam5c.c **** 
 218              		.loc 1 160 0
 219 0044 6400A0E3 		mov	r0, #100
 220 0048 FEFFFFEB 		bl	R_OS_TaskSleep
 221              	.LVL22:
 163:../src/renesas/application/common/camera/camera_mipi_pcam5c.c ****     		software_reset.reg_add_upper,
 222              		.loc 1 163 0
 223 004c 8230A0E3 		mov	r3, #130
 224 0050 0820A0E3 		mov	r2, #8
 225 0054 3010A0E3 		mov	r1, #48
 226 0058 7800A0E3 		mov	r0, #120
 227 005c FEFFFFEB 		bl	RIIC_MipiWrite
 228              	.LVL23:
 168:../src/renesas/application/common/camera/camera_mipi_pcam5c.c **** 
 229              		.loc 1 168 0
 230 0060 1400A0E3 		mov	r0, #20
 231 0064 FEFFFFEB 		bl	R_OS_TaskSleep
 232              	.LVL24:
 171:../src/renesas/application/common/camera/camera_mipi_pcam5c.c ****     		power_down.reg_add_upper,
 233              		.loc 1 171 0
 234 0068 4230A0E3 		mov	r3, #66
 235 006c 0820A0E3 		mov	r2, #8
 236 0070 3010A0E3 		mov	r1, #48
 237 0074 7800A0E3 		mov	r0, #120
 238 0078 FEFFFFEB 		bl	RIIC_MipiWrite
 239              	.LVL25:
 177:../src/renesas/application/common/camera/camera_mipi_pcam5c.c ****     		choose_system_input_clock.reg_add_upper,
 240              		.loc 1 177 0
 241 007c 0330A0E3 		mov	r3, #3
 242 0080 0320A0E1 		mov	r2, r3
 243 0084 3110A0E3 		mov	r1, #49
 244 0088 7800A0E3 		mov	r0, #120
 245 008c FEFFFFEB 		bl	RIIC_MipiWrite
 246              	.LVL26:
 183:../src/renesas/application/common/camera/camera_mipi_pcam5c.c ****     while(1)
 247              		.loc 1 183 0
 248 0090 0040A0E3 		mov	r4, #0
 249 0094 080000EA 		b	.L13
 250              	.LVL27:
 251              	.L11:
 192:../src/renesas/application/common/camera/camera_mipi_pcam5c.c ****                        g_mipi_reg_init_table[count].reg_add_upper,
 252              		.loc 1 192 0
 253 0098 003000E3 		movw	r3, #:lower16:g_mipi_reg_init_table
 254 009c 003040E3 		movt	r3, #:upper16:g_mipi_reg_init_table
 255 00a0 842084E0 		add	r2, r4, r4, lsl #1
 256 00a4 022083E0 		add	r2, r3, r2
 257 00a8 0230D2E5 		ldrb	r3, [r2, #2]	@ zero_extendqisi2
 258 00ac 0120D2E5 		ldrb	r2, [r2, #1]	@ zero_extendqisi2
 259 00b0 7800A0E3 		mov	r0, #120
 260 00b4 FEFFFFEB 		bl	RIIC_MipiWrite
 261              	.LVL28:
 196:../src/renesas/application/common/camera/camera_mipi_pcam5c.c ****     }
 262              		.loc 1 196 0
 263 00b8 014084E2 		add	r4, r4, #1
 264              	.LVL29:
 265              	.L13:
 186:../src/renesas/application/common/camera/camera_mipi_pcam5c.c ****     	   g_mipi_reg_init_table[count].reg_add_lower == 0xFF &&
 266              		.loc 1 186 0
 267 00bc 003000E3 		movw	r3, #:lower16:g_mipi_reg_init_table
 268 00c0 003040E3 		movt	r3, #:upper16:g_mipi_reg_init_table
 269 00c4 842084E0 		add	r2, r4, r4, lsl #1
 270 00c8 0210D3E7 		ldrb	r1, [r3, r2]	@ zero_extendqisi2
 271 00cc FF0051E3 		cmp	r1, #255
 272 00d0 F0FFFF1A 		bne	.L11
 187:../src/renesas/application/common/camera/camera_mipi_pcam5c.c **** 		   g_mipi_reg_init_table[count].value == 0xFF )
 273              		.loc 1 187 0 discriminator 1
 274 00d4 003000E3 		movw	r3, #:lower16:g_mipi_reg_init_table
 275 00d8 003040E3 		movt	r3, #:upper16:g_mipi_reg_init_table
 276 00dc 023083E0 		add	r3, r3, r2
 277 00e0 0130D3E5 		ldrb	r3, [r3, #1]	@ zero_extendqisi2
 186:../src/renesas/application/common/camera/camera_mipi_pcam5c.c ****     	   g_mipi_reg_init_table[count].reg_add_lower == 0xFF &&
 278              		.loc 1 186 0 discriminator 1
 279 00e4 FF0053E3 		cmp	r3, #255
 280 00e8 EAFFFF1A 		bne	.L11
 188:../src/renesas/application/common/camera/camera_mipi_pcam5c.c ****     	{
 281              		.loc 1 188 0
 282 00ec 003000E3 		movw	r3, #:lower16:g_mipi_reg_init_table
 283 00f0 003040E3 		movt	r3, #:upper16:g_mipi_reg_init_table
 284 00f4 023083E0 		add	r3, r3, r2
 285 00f8 0230D3E5 		ldrb	r3, [r3, #2]	@ zero_extendqisi2
 187:../src/renesas/application/common/camera/camera_mipi_pcam5c.c **** 		   g_mipi_reg_init_table[count].value == 0xFF )
 286              		.loc 1 187 0
 287 00fc FF0053E3 		cmp	r3, #255
 288 0100 E4FFFF1A 		bne	.L11
 289 0104 1080BDE8 		pop	{r4, pc}
 290              		.cfi_endproc
 291              	.LFE2:
 293              		.section	.text.gain_setting,"ax",%progbits
 294              		.align	2
 295              		.global	gain_setting
 296              		.syntax unified
 297              		.arm
 298              		.fpu neon
 300              	gain_setting:
 301              	.LFB4:
 247:../src/renesas/application/common/camera/camera_mipi_pcam5c.c ****     uint8_t gain_upper;
 302              		.loc 1 247 0
 303              		.cfi_startproc
 304              		@ args = 0, pretend = 0, frame = 0
 305              		@ frame_needed = 0, uses_anonymous_args = 0
 306              	.LVL30:
 307 0000 10402DE9 		push	{r4, lr}
 308              		.cfi_def_cfa_offset 8
 309              		.cfi_offset 4, -8
 310              		.cfi_offset 14, -4
 311              	.LVL31:
 252:../src/renesas/application/common/camera/camera_mipi_pcam5c.c **** 
 312              		.loc 1 252 0
 313 0004 7040EFE6 		uxtb	r4, r0
 314              	.LVL32:
 255:../src/renesas/application/common/camera/camera_mipi_pcam5c.c ****                0x35,
 315              		.loc 1 255 0
 316 0008 5034E1E7 		ubfx	r3, r0, #8, #2
 317 000c 0A20A0E3 		mov	r2, #10
 318 0010 3510A0E3 		mov	r1, #53
 319 0014 7800A0E3 		mov	r0, #120
 320              	.LVL33:
 321 0018 FEFFFFEB 		bl	RIIC_MipiWrite
 322              	.LVL34:
 261:../src/renesas/application/common/camera/camera_mipi_pcam5c.c ****                0x35,
 323              		.loc 1 261 0
 324 001c 0430A0E1 		mov	r3, r4
 325 0020 0B20A0E3 		mov	r2, #11
 326 0024 3510A0E3 		mov	r1, #53
 327 0028 7800A0E3 		mov	r0, #120
 328 002c FEFFFFEB 		bl	RIIC_MipiWrite
 329              	.LVL35:
 330 0030 1080BDE8 		pop	{r4, pc}
 331              		.cfi_endproc
 332              	.LFE4:
 334              		.section	.text.Start_Camera,"ax",%progbits
 335              		.align	2
 336              		.global	Start_Camera
 337              		.syntax unified
 338              		.arm
 339              		.fpu neon
 341              	Start_Camera:
 342              	.LFB3:
 226:../src/renesas/application/common/camera/camera_mipi_pcam5c.c ****     st_mipi_reg_t power_down_on = {0x30,0x08,0x02};
 343              		.loc 1 226 0
 344              		.cfi_startproc
 345              		@ args = 0, pretend = 0, frame = 0
 346              		@ frame_needed = 0, uses_anonymous_args = 0
 347 0000 10402DE9 		push	{r4, lr}
 348              		.cfi_def_cfa_offset 8
 349              		.cfi_offset 4, -8
 350              		.cfi_offset 14, -4
 230:../src/renesas/application/common/camera/camera_mipi_pcam5c.c **** 
 351              		.loc 1 230 0
 352 0004 2800A0E3 		mov	r0, #40
 353 0008 FEFFFFEB 		bl	gain_setting
 354              	.LVL36:
 233:../src/renesas/application/common/camera/camera_mipi_pcam5c.c ****             power_down_on.reg_add_upper,
 355              		.loc 1 233 0
 356 000c 0230A0E3 		mov	r3, #2
 357 0010 0820A0E3 		mov	r2, #8
 358 0014 3010A0E3 		mov	r1, #48
 359 0018 7800A0E3 		mov	r0, #120
 360 001c FEFFFFEB 		bl	RIIC_MipiWrite
 361              	.LVL37:
 362 0020 1080BDE8 		pop	{r4, pc}
 363              		.cfi_endproc
 364              	.LFE3:
 366              		.section	.text.R_BCD_gain_setting,"ax",%progbits
 367              		.align	2
 368              		.global	R_BCD_gain_setting
 369              		.syntax unified
 370              		.arm
 371              		.fpu neon
 373              	R_BCD_gain_setting:
 374              	.LFB7:
 290:../src/renesas/application/common/camera/camera_mipi_pcam5c.c **** 
 291:../src/renesas/application/common/camera/camera_mipi_pcam5c.c **** 
 292:../src/renesas/application/common/camera/camera_mipi_pcam5c.c **** /**************************************************************************//**
 293:../src/renesas/application/common/camera/camera_mipi_pcam5c.c **** * @fn         RIIC_MipiRead
 294:../src/renesas/application/common/camera/camera_mipi_pcam5c.c **** * @brief      RIIC_MipiRead
 295:../src/renesas/application/common/camera/camera_mipi_pcam5c.c **** * @param[in]  ic_adr          : device address.
 296:../src/renesas/application/common/camera/camera_mipi_pcam5c.c **** * @param[in]  reg_adr_upper   : upper register address to write .
 297:../src/renesas/application/common/camera/camera_mipi_pcam5c.c **** * @param[in]  reg_adr_lower   : lower register address to write .
 298:../src/renesas/application/common/camera/camera_mipi_pcam5c.c **** * @param[out] uint8_t *puData : pointer to receive buffer
 299:../src/renesas/application/common/camera/camera_mipi_pcam5c.c **** * @param[in]  uint32_t unSize : size of data
 300:../src/renesas/application/common/camera/camera_mipi_pcam5c.c **** * @retval     0 : Operation successfull.
 301:../src/renesas/application/common/camera/camera_mipi_pcam5c.c **** *             -1 : Error occured.
 302:../src/renesas/application/common/camera/camera_mipi_pcam5c.c **** ******************************************************************************/
 303:../src/renesas/application/common/camera/camera_mipi_pcam5c.c **** static int_t RIIC_MipiRead( uint8_t ic_adr, uint8_t reg_adr_upper, uint8_t reg_adr_lower, uint8_t *
 304:../src/renesas/application/common/camera/camera_mipi_pcam5c.c **** {
 305:../src/renesas/application/common/camera/camera_mipi_pcam5c.c ****     int_t nRet;
 306:../src/renesas/application/common/camera/camera_mipi_pcam5c.c ****     st_r_drv_riic_transfer_t i2c_read;
 307:../src/renesas/application/common/camera/camera_mipi_pcam5c.c **** 
 308:../src/renesas/application/common/camera/camera_mipi_pcam5c.c ****     i2c_read.device_address = ic_adr;
 309:../src/renesas/application/common/camera/camera_mipi_pcam5c.c ****     i2c_read.sub_address_type = RIIC_SUB_ADDR_WIDTH_16_BITS;
 310:../src/renesas/application/common/camera/camera_mipi_pcam5c.c ****     i2c_read.sub_address = (reg_adr_upper << 8) | reg_adr_lower;
 311:../src/renesas/application/common/camera/camera_mipi_pcam5c.c ****     i2c_read.number_of_bytes = unSize;
 312:../src/renesas/application/common/camera/camera_mipi_pcam5c.c ****     i2c_read.p_data_buffer = puData;
 313:../src/renesas/application/common/camera/camera_mipi_pcam5c.c **** 
 314:../src/renesas/application/common/camera/camera_mipi_pcam5c.c ****     nRet = control(hi2c2, CTL_RIIC_READ, &i2c_read);
 315:../src/renesas/application/common/camera/camera_mipi_pcam5c.c **** 
 316:../src/renesas/application/common/camera/camera_mipi_pcam5c.c ****     return (uint8_t)nRet;
 317:../src/renesas/application/common/camera/camera_mipi_pcam5c.c **** }
 318:../src/renesas/application/common/camera/camera_mipi_pcam5c.c **** 
 319:../src/renesas/application/common/camera/camera_mipi_pcam5c.c **** 
 320:../src/renesas/application/common/camera/camera_mipi_pcam5c.c **** /**************************************************************************//**
 321:../src/renesas/application/common/camera/camera_mipi_pcam5c.c ****  * @fn          R_BCD_gain_setting
 322:../src/renesas/application/common/camera/camera_mipi_pcam5c.c ****  * @brief       gain_setting
 323:../src/renesas/application/common/camera/camera_mipi_pcam5c.c ****  * @param[in]   gain_output: 0~64 camera limit
 324:../src/renesas/application/common/camera/camera_mipi_pcam5c.c ****  * @retval      None
 325:../src/renesas/application/common/camera/camera_mipi_pcam5c.c **** ******************************************************************************/
 326:../src/renesas/application/common/camera/camera_mipi_pcam5c.c **** void R_BCD_gain_setting(uint32_t gain_output)
 327:../src/renesas/application/common/camera/camera_mipi_pcam5c.c **** {
 375              		.loc 1 327 0
 376              		.cfi_startproc
 377              		@ args = 0, pretend = 0, frame = 0
 378              		@ frame_needed = 0, uses_anonymous_args = 0
 379              	.LVL38:
 380 0000 10402DE9 		push	{r4, lr}
 381              		.cfi_def_cfa_offset 8
 382              		.cfi_offset 4, -8
 383              		.cfi_offset 14, -4
 384              	.LVL39:
 328:../src/renesas/application/common/camera/camera_mipi_pcam5c.c ****     uint8_t gain_upper;
 329:../src/renesas/application/common/camera/camera_mipi_pcam5c.c ****     uint8_t gain_lower;
 330:../src/renesas/application/common/camera/camera_mipi_pcam5c.c **** 
 331:../src/renesas/application/common/camera/camera_mipi_pcam5c.c ****     gain_upper = ((gain_output >> 8) & 0x03);
 332:../src/renesas/application/common/camera/camera_mipi_pcam5c.c ****     gain_lower = (gain_output & 0xFF);
 385              		.loc 1 332 0
 386 0004 7040EFE6 		uxtb	r4, r0
 387              	.LVL40:
 333:../src/renesas/application/common/camera/camera_mipi_pcam5c.c **** 
 334:../src/renesas/application/common/camera/camera_mipi_pcam5c.c ****     //RIIC_MipiWrite(MIPI_CAMERA_SUBADD, 0x32, 0x12, 0x00);        // group hold start
 335:../src/renesas/application/common/camera/camera_mipi_pcam5c.c ****     RIIC_MipiWrite(MIPI_CAMERA_SUBADD, 0x35, 0x0A, gain_upper);  // agc upper
 388              		.loc 1 335 0
 389 0008 5034E1E7 		ubfx	r3, r0, #8, #2
 390 000c 0A20A0E3 		mov	r2, #10
 391 0010 3510A0E3 		mov	r1, #53
 392 0014 7800A0E3 		mov	r0, #120
 393              	.LVL41:
 394 0018 FEFFFFEB 		bl	RIIC_MipiWrite
 395              	.LVL42:
 336:../src/renesas/application/common/camera/camera_mipi_pcam5c.c ****     RIIC_MipiWrite(MIPI_CAMERA_SUBADD, 0x35, 0x0B, gain_lower);  // agc lower
 396              		.loc 1 336 0
 397 001c 0430A0E1 		mov	r3, r4
 398 0020 0B20A0E3 		mov	r2, #11
 399 0024 3510A0E3 		mov	r1, #53
 400 0028 7800A0E3 		mov	r0, #120
 401 002c FEFFFFEB 		bl	RIIC_MipiWrite
 402              	.LVL43:
 403 0030 1080BDE8 		pop	{r4, pc}
 404              		.cfi_endproc
 405              	.LFE7:
 407              		.section	.text.R_BCD_gain_table_setting,"ax",%progbits
 408              		.align	2
 409              		.global	R_BCD_gain_table_setting
 410              		.syntax unified
 411              		.arm
 412              		.fpu neon
 414              	R_BCD_gain_table_setting:
 415              	.LFB8:
 337:../src/renesas/application/common/camera/camera_mipi_pcam5c.c ****     //RIIC_MipiWrite(MIPI_CAMERA_SUBADD, 0x32, 0x12, 0x10);        // group hold end
 338:../src/renesas/application/common/camera/camera_mipi_pcam5c.c **** }
 339:../src/renesas/application/common/camera/camera_mipi_pcam5c.c **** 
 340:../src/renesas/application/common/camera/camera_mipi_pcam5c.c **** /**************************************************************************//**
 341:../src/renesas/application/common/camera/camera_mipi_pcam5c.c ****  * @fn          R_BCD_gain_table_setting
 342:../src/renesas/application/common/camera/camera_mipi_pcam5c.c ****  * @brief       R_BCD_gain_table_setting
 343:../src/renesas/application/common/camera/camera_mipi_pcam5c.c ****  * @param[in]   gain_output: 0~16 camera limit
 344:../src/renesas/application/common/camera/camera_mipi_pcam5c.c ****  * @retval      None
 345:../src/renesas/application/common/camera/camera_mipi_pcam5c.c **** ******************************************************************************/
 346:../src/renesas/application/common/camera/camera_mipi_pcam5c.c **** void R_BCD_gain_table_setting(uint32_t gain_index)
 347:../src/renesas/application/common/camera/camera_mipi_pcam5c.c **** {
 416              		.loc 1 347 0
 417              		.cfi_startproc
 418              		@ args = 0, pretend = 0, frame = 0
 419              		@ frame_needed = 0, uses_anonymous_args = 0
 420              	.LVL44:
 421 0000 10402DE9 		push	{r4, lr}
 422              		.cfi_def_cfa_offset 8
 423              		.cfi_offset 4, -8
 424              		.cfi_offset 14, -4
 348:../src/renesas/application/common/camera/camera_mipi_pcam5c.c ****     if ( gain_index >16u ) { gain_index =16u ;}
 425              		.loc 1 348 0
 426 0004 100050E3 		cmp	r0, #16
 427 0008 1000A083 		movhi	r0, #16
 428              	.LVL45:
 429              	.L22:
 349:../src/renesas/application/common/camera/camera_mipi_pcam5c.c ****     R_BCD_gain_setting(gain_table[gain_index]) ;
 430              		.loc 1 349 0
 431 000c 003000E3 		movw	r3, #:lower16:gain_table
 432 0010 003040E3 		movt	r3, #:upper16:gain_table
 433 0014 8000A0E1 		lsl	r0, r0, #1
 434              	.LVL46:
 435 0018 B00093E1 		ldrh	r0, [r3, r0]
 436 001c FEFFFFEB 		bl	R_BCD_gain_setting
 437              	.LVL47:
 438 0020 1080BDE8 		pop	{r4, pc}
 439              		.cfi_endproc
 440              	.LFE8:
 442              		.section	.text.R_BCD_shutter_setting,"ax",%progbits
 443              		.align	2
 444              		.global	R_BCD_shutter_setting
 445              		.syntax unified
 446              		.arm
 447              		.fpu neon
 449              	R_BCD_shutter_setting:
 450              	.LFB9:
 350:../src/renesas/application/common/camera/camera_mipi_pcam5c.c **** }
 351:../src/renesas/application/common/camera/camera_mipi_pcam5c.c **** 
 352:../src/renesas/application/common/camera/camera_mipi_pcam5c.c **** /**************************************************************************//**
 353:../src/renesas/application/common/camera/camera_mipi_pcam5c.c ****  * @fn          R_BCD_shutter_setting
 354:../src/renesas/application/common/camera/camera_mipi_pcam5c.c ****  * @brief       shutter_setting
 355:../src/renesas/application/common/camera/camera_mipi_pcam5c.c ****  * @param[in]   shutter_output: 0~5000
 356:../src/renesas/application/common/camera/camera_mipi_pcam5c.c ****  * @retval      None
 357:../src/renesas/application/common/camera/camera_mipi_pcam5c.c **** ******************************************************************************/
 358:../src/renesas/application/common/camera/camera_mipi_pcam5c.c **** void R_BCD_shutter_setting(uint32_t shutter_output)
 359:../src/renesas/application/common/camera/camera_mipi_pcam5c.c **** {
 451              		.loc 1 359 0
 452              		.cfi_startproc
 453              		@ args = 0, pretend = 0, frame = 0
 454              		@ frame_needed = 0, uses_anonymous_args = 0
 455              	.LVL48:
 456 0000 10402DE9 		push	{r4, lr}
 457              		.cfi_def_cfa_offset 8
 458              		.cfi_offset 4, -8
 459              		.cfi_offset 14, -4
 460 0004 0040A0E1 		mov	r4, r0
 360:../src/renesas/application/common/camera/camera_mipi_pcam5c.c **** 	//uint32_t shutterOver = 0 ;
 361:../src/renesas/application/common/camera/camera_mipi_pcam5c.c **** 	//if ( shutter_output > 0x03D8u ) { // contents of  0x380E,F register
 362:../src/renesas/application/common/camera/camera_mipi_pcam5c.c **** 	//	shutterOver = shutter_output - 0x03D8u ;
 363:../src/renesas/application/common/camera/camera_mipi_pcam5c.c **** 	//}
 364:../src/renesas/application/common/camera/camera_mipi_pcam5c.c **** 
 365:../src/renesas/application/common/camera/camera_mipi_pcam5c.c ****     //RIIC_MipiWrite(MIPI_CAMERA_SUBADD, 0x32, 0x12, 0x00); // group hold start
 366:../src/renesas/application/common/camera/camera_mipi_pcam5c.c **** 
 367:../src/renesas/application/common/camera/camera_mipi_pcam5c.c ****     //RIIC_MipiWrite(MIPI_CAMERA_SUBADD, 0x35, 0x0c, (uint8_t)((shutterOver >> 8)  & 0xff)) ;  //
 368:../src/renesas/application/common/camera/camera_mipi_pcam5c.c ****     //RIIC_MipiWrite(MIPI_CAMERA_SUBADD, 0x35, 0x0d, (uint8_t)(shutterOver & 0xff))         ;  //
 369:../src/renesas/application/common/camera/camera_mipi_pcam5c.c ****     RIIC_MipiWrite(MIPI_CAMERA_SUBADD, 0x35, 0x00, (uint8_t)(shutter_output >> 12) & 0x0F);  // AEC
 461              		.loc 1 369 0
 462 0008 5036E3E7 		ubfx	r3, r0, #12, #4
 463 000c 0020A0E3 		mov	r2, #0
 464 0010 3510A0E3 		mov	r1, #53
 465 0014 7800A0E3 		mov	r0, #120
 466              	.LVL49:
 467 0018 FEFFFFEB 		bl	RIIC_MipiWrite
 468              	.LVL50:
 370:../src/renesas/application/common/camera/camera_mipi_pcam5c.c ****     RIIC_MipiWrite(MIPI_CAMERA_SUBADD, 0x35, 0x01, (uint8_t)(shutter_output >> 4)  & 0xff);  // AEC
 469              		.loc 1 370 0
 470 001c 5432E7E7 		ubfx	r3, r4, #4, #8
 471 0020 0120A0E3 		mov	r2, #1
 472 0024 3510A0E3 		mov	r1, #53
 473 0028 7800A0E3 		mov	r0, #120
 474 002c FEFFFFEB 		bl	RIIC_MipiWrite
 475              	.LVL51:
 371:../src/renesas/application/common/camera/camera_mipi_pcam5c.c ****     RIIC_MipiWrite(MIPI_CAMERA_SUBADD, 0x35, 0x02, (uint8_t)(shutter_output << 4)  & 0xF0);  // AEC
 476              		.loc 1 371 0
 477 0030 7430EFE6 		uxtb	r3, r4
 478 0034 0332A0E1 		lsl	r3, r3, #4
 479 0038 F03003E2 		and	r3, r3, #240
 480 003c 0220A0E3 		mov	r2, #2
 481 0040 3510A0E3 		mov	r1, #53
 482 0044 7800A0E3 		mov	r0, #120
 483 0048 FEFFFFEB 		bl	RIIC_MipiWrite
 484              	.LVL52:
 485 004c 1080BDE8 		pop	{r4, pc}
 486              		.cfi_endproc
 487              	.LFE9:
 489              		.section	.text.getBayerMode,"ax",%progbits
 490              		.align	2
 491              		.global	getBayerMode
 492              		.syntax unified
 493              		.arm
 494              		.fpu neon
 496              	getBayerMode:
 497              	.LFB10:
 372:../src/renesas/application/common/camera/camera_mipi_pcam5c.c **** 
 373:../src/renesas/application/common/camera/camera_mipi_pcam5c.c ****     //RIIC_MipiWrite(MIPI_CAMERA_SUBADD, 0x32, 0x12, 0x10); // group hold end
 374:../src/renesas/application/common/camera/camera_mipi_pcam5c.c **** }
 375:../src/renesas/application/common/camera/camera_mipi_pcam5c.c **** 
 376:../src/renesas/application/common/camera/camera_mipi_pcam5c.c **** /**************************************************************************//**
 377:../src/renesas/application/common/camera/camera_mipi_pcam5c.c ****  * @fn          getBayerMode
 378:../src/renesas/application/common/camera/camera_mipi_pcam5c.c ****  * @brief       getBayerMode
 379:../src/renesas/application/common/camera/camera_mipi_pcam5c.c ****  * @param[in]   RGB type output
 380:../src/renesas/application/common/camera/camera_mipi_pcam5c.c ****  * @retval      None
 381:../src/renesas/application/common/camera/camera_mipi_pcam5c.c **** ******************************************************************************/
 382:../src/renesas/application/common/camera/camera_mipi_pcam5c.c **** uint8_t getBayerMode() {
 498              		.loc 1 382 0
 499              		.cfi_startproc
 500              		@ args = 0, pretend = 0, frame = 0
 501              		@ frame_needed = 0, uses_anonymous_args = 0
 502              		@ link register save eliminated.
 383:../src/renesas/application/common/camera/camera_mipi_pcam5c.c **** 	return 3u ; // BGGR
 384:../src/renesas/application/common/camera/camera_mipi_pcam5c.c **** 	;
 385:../src/renesas/application/common/camera/camera_mipi_pcam5c.c **** }
 503              		.loc 1 385 0
 504 0000 0300A0E3 		mov	r0, #3
 505 0004 1EFF2FE1 		bx	lr
 506              		.cfi_endproc
 507              	.LFE10:
 509              		.global	hi2c2
 510              		.section	.rodata
 511              		.align	2
 512              		.set	.LANCHOR0,. + 0
 513              	.LC4:
 514 0000 020D     		.short	3330
 515 0002 02       		.byte	2
 516 0003 00       		.byte	0
 517              	.LC5:
 518 0004 020D     		.short	3330
 519 0006 01       		.byte	1
 520 0007 00       		.byte	0
 521              		.section	.data.hi2c2,"aw",%progbits
 522              		.align	2
 523              		.set	.LANCHOR1,. + 0
 526              	hi2c2:
 527 0000 FFFFFFFF 		.word	-1
 528              		.section	.rodata.Init_Camera.str1.4,"aMS",%progbits,1
 529              		.align	2
 530              	.LC8:
 531 0000 5C5C2E5C 		.ascii	"\\\\.\\riic1\000"
 531      72696963 
 531      3100
 532              		.section	.rodata.pcam5c_port_setting.str1.4,"aMS",%progbits,1
 533              		.align	2
 534              	.LC7:
 535 0000 6770696F 		.ascii	"gpio\000"
 535      00
 536              		.text
 537              	.Letext0:
 538              		.file 2 "c:\\program files (x86)\\gnu tools arm embedded\\6 2017-q2-update\\arm-none-eabi\\include
 539              		.file 3 "c:\\program files (x86)\\gnu tools arm embedded\\6 2017-q2-update\\arm-none-eabi\\include
 540              		.file 4 "c:\\program files (x86)\\gnu tools arm embedded\\6 2017-q2-update\\arm-none-eabi\\include
 541              		.file 5 "c:\\program files (x86)\\gnu tools arm embedded\\6 2017-q2-update\\arm-none-eabi\\include
 542              		.file 6 "c:\\program files (x86)\\gnu tools arm embedded\\6 2017-q2-update\\lib\\gcc\\arm-none-eab
 543              		.file 7 "c:\\program files (x86)\\gnu tools arm embedded\\6 2017-q2-update\\arm-none-eabi\\include
 544              		.file 8 "c:\\program files (x86)\\gnu tools arm embedded\\6 2017-q2-update\\arm-none-eabi\\include
 545              		.file 9 "C:/Renesas/e2studio_2021_01_workspace_RZA2M_ANPR/ANPR_RZA2M_GR_MANGO/generate/system/inc/
 546              		.file 10 "C:/Renesas/e2studio_2021_01_workspace_RZA2M_ANPR/ANPR_RZA2M_GR_MANGO/generate/system/inc
 547              		.file 11 "C:/Renesas/e2studio_2021_01_workspace_RZA2M_ANPR/ANPR_RZA2M_GR_MANGO/generate/drivers/r_
 548              		.file 12 "c:\\program files (x86)\\gnu tools arm embedded\\6 2017-q2-update\\arm-none-eabi\\includ
 549              		.file 13 "c:\\program files (x86)\\gnu tools arm embedded\\6 2017-q2-update\\arm-none-eabi\\includ
 550              		.file 14 "C:/Renesas/e2studio_2021_01_workspace_RZA2M_ANPR/ANPR_RZA2M_GR_MANGO/generate/sc_drivers
 551              		.file 15 "C:/Renesas/e2studio_2021_01_workspace_RZA2M_ANPR/ANPR_RZA2M_GR_MANGO/generate/sc_drivers
 552              		.file 16 "../src/renesas/application/common/camera/camera_mipi_pcam5c_regdata.h"
 553              		.file 17 "C:/Renesas/e2studio_2021_01_workspace_RZA2M_ANPR/ANPR_RZA2M_GR_MANGO/generate/drivers/r_
 554              		.file 18 "C:/Renesas/e2studio_2021_01_workspace_RZA2M_ANPR/ANPR_RZA2M_GR_MANGO/generate/drivers/r_
 555              		.file 19 "C:/Renesas/e2studio_2021_01_workspace_RZA2M_ANPR/ANPR_RZA2M_GR_MANGO/generate/drivers/r_
 556              		.file 20 "C:/Renesas/e2studio_2021_01_workspace_RZA2M_ANPR/ANPR_RZA2M_GR_MANGO/generate/sc_drivers
 557              		.file 21 "C:/Renesas/e2studio_2021_01_workspace_RZA2M_ANPR/ANPR_RZA2M_GR_MANGO/generate/system/inc
 558              		.file 22 "c:\\program files (x86)\\gnu tools arm embedded\\6 2017-q2-update\\arm-none-eabi\\includ