   1              		.cpu cortex-a9
   2              		.eabi_attribute 28, 1
   3              		.eabi_attribute 20, 1
   4              		.eabi_attribute 21, 1
   5              		.eabi_attribute 23, 3
   6              		.eabi_attribute 24, 1
   7              		.eabi_attribute 25, 1
   8              		.eabi_attribute 26, 1
   9              		.eabi_attribute 30, 2
  10              		.eabi_attribute 34, 0
  11              		.eabi_attribute 18, 4
  12              		.file	"r_vdc_register.c"
  13              		.section	.text.SetLcdTcon_STH_HS,"ax",%progbits
  14              		.align	2
  15              		.syntax unified
  16              		.arm
  17              		.fpu neon
  19              	SetLcdTcon_STH_HS:
  20              		@ args = 0, pretend = 0, frame = 0
  21              		@ frame_needed = 0, uses_anonymous_args = 0
  22 0000 04E02DE5 		str	lr, [sp, #-4]!
  23 0004 B0E0D0E1 		ldrh	lr, [r0]
  24 0008 182091E5 		ldr	r2, [r1, #24]
  25 000c 1C3091E5 		ldr	r3, [r1, #28]
  26 0010 0E18A0E1 		lsl	r1, lr, #16
  27 0014 B2C0D0E1 		ldrh	ip, [r0, #2]
  28 0018 05E0D0E5 		ldrb	lr, [r0, #5]	@ zero_extendqisi2
  29 001c 001082E5 		str	r1, [r2]
  30 0020 001092E5 		ldr	r1, [r2]
  31 0024 00005EE3 		cmp	lr, #0
  32 0028 01108CE1 		orr	r1, ip, r1
  33 002c 001082E5 		str	r1, [r2]
  34 0030 002093E5 		ldr	r2, [r3]
  35 0034 112EC2E3 		bic	r2, r2, #272
  36 0038 002083E5 		str	r2, [r3]
  37 003c 00209315 		ldrne	r2, [r3]
  38 0040 012C8213 		orrne	r2, r2, #256
  39 0044 00208315 		strne	r2, [r3]
  40 0048 0620D0E5 		ldrb	r2, [r0, #6]	@ zero_extendqisi2
  41 004c 000052E3 		cmp	r2, #0
  42 0050 00209315 		ldrne	r2, [r3]
  43 0054 10208213 		orrne	r2, r2, #16
  44 0058 00208315 		strne	r2, [r3]
  45 005c 04F09DE4 		ldr	pc, [sp], #4
  47              		.section	.text.SetLcdTcon_STB_HE,"ax",%progbits
  48              		.align	2
  49              		.syntax unified
  50              		.arm
  51              		.fpu neon
  53              	SetLcdTcon_STB_HE:
  54              		@ args = 0, pretend = 0, frame = 0
  55              		@ frame_needed = 0, uses_anonymous_args = 0
  56 0000 04E02DE5 		str	lr, [sp, #-4]!
  57 0004 B0E0D0E1 		ldrh	lr, [r0]
  58 0008 202091E5 		ldr	r2, [r1, #32]
  59 000c 243091E5 		ldr	r3, [r1, #36]
  60 0010 0E18A0E1 		lsl	r1, lr, #16
  61 0014 B2C0D0E1 		ldrh	ip, [r0, #2]
  62 0018 05E0D0E5 		ldrb	lr, [r0, #5]	@ zero_extendqisi2
  63 001c 001082E5 		str	r1, [r2]
  64 0020 001092E5 		ldr	r1, [r2]
  65 0024 00005EE3 		cmp	lr, #0
  66 0028 01108CE1 		orr	r1, ip, r1
  67 002c 001082E5 		str	r1, [r2]
  68 0030 002093E5 		ldr	r2, [r3]
  69 0034 112EC2E3 		bic	r2, r2, #272
  70 0038 002083E5 		str	r2, [r3]
  71 003c 00209315 		ldrne	r2, [r3]
  72 0040 012C8213 		orrne	r2, r2, #256
  73 0044 00208315 		strne	r2, [r3]
  74 0048 0620D0E5 		ldrb	r2, [r0, #6]	@ zero_extendqisi2
  75 004c 000052E3 		cmp	r2, #0
  76 0050 00209315 		ldrne	r2, [r3]
  77 0054 10208213 		orrne	r2, r2, #16
  78 0058 00208315 		strne	r2, [r3]
  79 005c 04F09DE4 		ldr	pc, [sp], #4
  81              		.section	.text.SetLcdTcon_CPV_GCK,"ax",%progbits
  82              		.align	2
  83              		.syntax unified
  84              		.arm
  85              		.fpu neon
  87              	SetLcdTcon_CPV_GCK:
  88              		@ args = 0, pretend = 0, frame = 0
  89              		@ frame_needed = 0, uses_anonymous_args = 0
  90 0000 04E02DE5 		str	lr, [sp, #-4]!
  91 0004 B0E0D0E1 		ldrh	lr, [r0]
  92 0008 282091E5 		ldr	r2, [r1, #40]
  93 000c 2C3091E5 		ldr	r3, [r1, #44]
  94 0010 0E18A0E1 		lsl	r1, lr, #16
  95 0014 B2C0D0E1 		ldrh	ip, [r0, #2]
  96 0018 05E0D0E5 		ldrb	lr, [r0, #5]	@ zero_extendqisi2
  97 001c 001082E5 		str	r1, [r2]
  98 0020 001092E5 		ldr	r1, [r2]
  99 0024 00005EE3 		cmp	lr, #0
 100 0028 01108CE1 		orr	r1, ip, r1
 101 002c 001082E5 		str	r1, [r2]
 102 0030 002093E5 		ldr	r2, [r3]
 103 0034 112EC2E3 		bic	r2, r2, #272
 104 0038 002083E5 		str	r2, [r3]
 105 003c 00209315 		ldrne	r2, [r3]
 106 0040 012C8213 		orrne	r2, r2, #256
 107 0044 00208315 		strne	r2, [r3]
 108 0048 0620D0E5 		ldrb	r2, [r0, #6]	@ zero_extendqisi2
 109 004c 000052E3 		cmp	r2, #0
 110 0050 00209315 		ldrne	r2, [r3]
 111 0054 10208213 		orrne	r2, r2, #16
 112 0058 00208315 		strne	r2, [r3]
 113 005c 04F09DE4 		ldr	pc, [sp], #4
 115              		.section	.text.SetLcdTcon_POLA,"ax",%progbits
 116              		.align	2
 117              		.syntax unified
 118              		.arm
 119              		.fpu neon
 121              	SetLcdTcon_POLA:
 122              		@ args = 0, pretend = 0, frame = 0
 123              		@ frame_needed = 0, uses_anonymous_args = 0
 124 0000 B020D0E1 		ldrh	r2, [r0]
 125 0004 30C091E5 		ldr	ip, [r1, #48]
 126 0008 343091E5 		ldr	r3, [r1, #52]
 127 000c 10402DE9 		push	{r4, lr}
 128 0010 0218A0E1 		lsl	r1, r2, #16
 129 0014 B2E0D0E1 		ldrh	lr, [r0, #2]
 130 0018 0520D0E5 		ldrb	r2, [r0, #5]	@ zero_extendqisi2
 131 001c 0440D0E5 		ldrb	r4, [r0, #4]	@ zero_extendqisi2
 132 0020 00108CE5 		str	r1, [ip]
 133 0024 00109CE5 		ldr	r1, [ip]
 134 0028 000052E3 		cmp	r2, #0
 135 002c 01108EE1 		orr	r1, lr, r1
 136 0030 00108CE5 		str	r1, [ip]
 137 0034 002093E5 		ldr	r2, [r3]
 138 0038 312CC2E3 		bic	r2, r2, #12544
 139 003c 1020C2E3 		bic	r2, r2, #16
 140 0040 002083E5 		str	r2, [r3]
 141 0044 002093E5 		ldr	r2, [r3]
 142 0048 042682E1 		orr	r2, r2, r4, lsl #12
 143 004c 002083E5 		str	r2, [r3]
 144 0050 00209315 		ldrne	r2, [r3]
 145 0054 012C8213 		orrne	r2, r2, #256
 146 0058 00208315 		strne	r2, [r3]
 147 005c 0620D0E5 		ldrb	r2, [r0, #6]	@ zero_extendqisi2
 148 0060 000052E3 		cmp	r2, #0
 149 0064 00209315 		ldrne	r2, [r3]
 150 0068 10208213 		orrne	r2, r2, #16
 151 006c 00208315 		strne	r2, [r3]
 152 0070 1080BDE8 		pop	{r4, pc}
 154              		.section	.text.SetLcdTcon_POLB,"ax",%progbits
 155              		.align	2
 156              		.syntax unified
 157              		.arm
 158              		.fpu neon
 160              	SetLcdTcon_POLB:
 161              		@ args = 0, pretend = 0, frame = 0
 162              		@ frame_needed = 0, uses_anonymous_args = 0
 163 0000 B020D0E1 		ldrh	r2, [r0]
 164 0004 38C091E5 		ldr	ip, [r1, #56]
 165 0008 3C3091E5 		ldr	r3, [r1, #60]
 166 000c 10402DE9 		push	{r4, lr}
 167 0010 0218A0E1 		lsl	r1, r2, #16
 168 0014 B2E0D0E1 		ldrh	lr, [r0, #2]
 169 0018 0520D0E5 		ldrb	r2, [r0, #5]	@ zero_extendqisi2
 170 001c 0440D0E5 		ldrb	r4, [r0, #4]	@ zero_extendqisi2
 171 0020 00108CE5 		str	r1, [ip]
 172 0024 00109CE5 		ldr	r1, [ip]
 173 0028 000052E3 		cmp	r2, #0
 174 002c 01108EE1 		orr	r1, lr, r1
 175 0030 00108CE5 		str	r1, [ip]
 176 0034 002093E5 		ldr	r2, [r3]
 177 0038 312CC2E3 		bic	r2, r2, #12544
 178 003c 1020C2E3 		bic	r2, r2, #16
 179 0040 002083E5 		str	r2, [r3]
 180 0044 002093E5 		ldr	r2, [r3]
 181 0048 042682E1 		orr	r2, r2, r4, lsl #12
 182 004c 002083E5 		str	r2, [r3]
 183 0050 00209315 		ldrne	r2, [r3]
 184 0054 012C8213 		orrne	r2, r2, #256
 185 0058 00208315 		strne	r2, [r3]
 186 005c 0620D0E5 		ldrb	r2, [r0, #6]	@ zero_extendqisi2
 187 0060 000052E3 		cmp	r2, #0
 188 0064 00209315 		ldrne	r2, [r3]
 189 0068 10208213 		orrne	r2, r2, #16
 190 006c 00208315 		strne	r2, [r3]
 191 0070 1080BDE8 		pop	{r4, pc}
 193              		.section	.text.SetLcdTcon_DE,"ax",%progbits
 194              		.align	2
 195              		.syntax unified
 196              		.arm
 197              		.fpu neon
 199              	SetLcdTcon_DE:
 200              		@ args = 0, pretend = 0, frame = 0
 201              		@ frame_needed = 0, uses_anonymous_args = 0
 202              		@ link register save eliminated.
 203 0000 0630D0E5 		ldrb	r3, [r0, #6]	@ zero_extendqisi2
 204 0004 402091E5 		ldr	r2, [r1, #64]
 205 0008 003093E2 		adds	r3, r3, #0
 206 000c 0130A013 		movne	r3, #1
 207 0010 003082E5 		str	r3, [r2]
 208 0014 1EFF2FE1 		bx	lr
 210              		.section	.text.SetLcdTcon_STVA_VS,"ax",%progbits
 211              		.align	2
 212              		.syntax unified
 213              		.arm
 214              		.fpu neon
 216              	SetLcdTcon_STVA_VS:
 217              		@ args = 0, pretend = 0, frame = 0
 218              		@ frame_needed = 0, uses_anonymous_args = 0
 219 0000 B0C0D0E1 		ldrh	ip, [r0]
 220 0004 083091E5 		ldr	r3, [r1, #8]
 221 0008 B220D0E1 		ldrh	r2, [r0, #2]
 222 000c 04E02DE5 		str	lr, [sp, #-4]!
 223 0010 06E0D0E5 		ldrb	lr, [r0, #6]	@ zero_extendqisi2
 224 0014 0C08A0E1 		lsl	r0, ip, #16
 225 0018 000083E5 		str	r0, [r3]
 226 001c 000093E5 		ldr	r0, [r3]
 227 0020 00005EE3 		cmp	lr, #0
 228 0024 002082E1 		orr	r2, r2, r0
 229 0028 002083E5 		str	r2, [r3]
 230 002c 0C2091E5 		ldr	r2, [r1, #12]
 231 0030 003092E5 		ldr	r3, [r2]
 232 0034 1030C303 		biceq	r3, r3, #16
 233 0038 10308313 		orrne	r3, r3, #16
 234 003c 003082E5 		str	r3, [r2]
 235 0040 04F09DE4 		ldr	pc, [sp], #4
 237              		.section	.text.SetLcdTcon_STVB_VE,"ax",%progbits
 238              		.align	2
 239              		.syntax unified
 240              		.arm
 241              		.fpu neon
 243              	SetLcdTcon_STVB_VE:
 244              		@ args = 0, pretend = 0, frame = 0
 245              		@ frame_needed = 0, uses_anonymous_args = 0
 246 0000 B0C0D0E1 		ldrh	ip, [r0]
 247 0004 103091E5 		ldr	r3, [r1, #16]
 248 0008 B220D0E1 		ldrh	r2, [r0, #2]
 249 000c 04E02DE5 		str	lr, [sp, #-4]!
 250 0010 06E0D0E5 		ldrb	lr, [r0, #6]	@ zero_extendqisi2
 251 0014 0C08A0E1 		lsl	r0, ip, #16
 252 0018 000083E5 		str	r0, [r3]
 253 001c 000093E5 		ldr	r0, [r3]
 254 0020 00005EE3 		cmp	lr, #0
 255 0024 002082E1 		orr	r2, r2, r0
 256 0028 002083E5 		str	r2, [r3]
 257 002c 142091E5 		ldr	r2, [r1, #20]
 258 0030 003092E5 		ldr	r3, [r2]
 259 0034 1030C303 		biceq	r3, r3, #16
 260 0038 10308313 		orrne	r3, r3, #16
 261 003c 003082E5 		str	r3, [r2]
 262 0040 04F09DE4 		ldr	pc, [sp], #4
 264              		.section	.text.SetRwProcAbility_Read_3,"ax",%progbits
 265              		.align	2
 266              		.syntax unified
 267              		.arm
 268              		.fpu neon
 270              	SetRwProcAbility_Read_3:
 271              		@ args = 0, pretend = 0, frame = 0
 272              		@ frame_needed = 0, uses_anonymous_args = 0
 273              		@ link register save eliminated.
 274 0000 000050E3 		cmp	r0, #0
 275 0004 003000E3 		movw	r3, #:lower16:vdc_regaddr_img_synthesizer
 276 0008 0300A0E3 		mov	r0, #3
 277 000c 003040E3 		movt	r3, #:upper16:vdc_regaddr_img_synthesizer
 278 0010 0400000A 		beq	.L63
 279 0014 B42093E5 		ldr	r2, [r3, #180]
 280 0018 003092E5 		ldr	r3, [r2]
 281 001c 013083E3 		orr	r3, r3, #1
 282 0020 003082E5 		str	r3, [r2]
 283 0024 FEFFFFEA 		b	VDC_ShrdPrmSetRwProcEnable
 284              	.L63:
 285 0028 B41093E5 		ldr	r1, [r3, #180]
 286 002c D03093E5 		ldr	r3, [r3, #208]
 287 0030 002091E5 		ldr	r2, [r1]
 288 0034 0120C2E3 		bic	r2, r2, #1
 289 0038 002081E5 		str	r2, [r1]
 290 003c 002093E5 		ldr	r2, [r3]
 291 0040 0320C2E3 		bic	r2, r2, #3
 292 0044 002083E5 		str	r2, [r3]
 293 0048 002093E5 		ldr	r2, [r3]
 294 004c 012082E3 		orr	r2, r2, #1
 295 0050 002083E5 		str	r2, [r3]
 296 0054 FEFFFFEA 		b	VDC_ShrdPrmSetRwProcDisable
 298              		.section	.text.SetRwProcAbility_Read_2,"ax",%progbits
 299              		.align	2
 300              		.syntax unified
 301              		.arm
 302              		.fpu neon
 304              	SetRwProcAbility_Read_2:
 305              		@ args = 0, pretend = 0, frame = 0
 306              		@ frame_needed = 0, uses_anonymous_args = 0
 307              		@ link register save eliminated.
 308 0000 000050E3 		cmp	r0, #0
 309 0004 003000E3 		movw	r3, #:lower16:vdc_regaddr_img_synthesizer
 310 0008 0200A0E3 		mov	r0, #2
 311 000c 003040E3 		movt	r3, #:upper16:vdc_regaddr_img_synthesizer
 312 0010 0400000A 		beq	.L66
 313 0014 5C2093E5 		ldr	r2, [r3, #92]
 314 0018 003092E5 		ldr	r3, [r2]
 315 001c 013083E3 		orr	r3, r3, #1
 316 0020 003082E5 		str	r3, [r2]
 317 0024 FEFFFFEA 		b	VDC_ShrdPrmSetRwProcEnable
 318              	.L66:
 319 0028 5C1093E5 		ldr	r1, [r3, #92]
 320 002c 783093E5 		ldr	r3, [r3, #120]
 321 0030 002091E5 		ldr	r2, [r1]
 322 0034 0120C2E3 		bic	r2, r2, #1
 323 0038 002081E5 		str	r2, [r1]
 324 003c 002093E5 		ldr	r2, [r3]
 325 0040 0320C2E3 		bic	r2, r2, #3
 326 0044 002083E5 		str	r2, [r3]
 327 0048 002093E5 		ldr	r2, [r3]
 328 004c 012082E3 		orr	r2, r2, #1
 329 0050 002083E5 		str	r2, [r3]
 330 0054 FEFFFFEA 		b	VDC_ShrdPrmSetRwProcDisable
 332              		.section	.text.SetRwProcAbility_Read_0,"ax",%progbits
 333              		.align	2
 334              		.syntax unified
 335              		.arm
 336              		.fpu neon
 338              	SetRwProcAbility_Read_0:
 339              		@ args = 0, pretend = 0, frame = 0
 340              		@ frame_needed = 0, uses_anonymous_args = 0
 341              		@ link register save eliminated.
 342 0000 000050E3 		cmp	r0, #0
 343 0004 003000E3 		movw	r3, #:lower16:vdc_regaddr_img_synthesizer
 344 0008 0100A0E3 		mov	r0, #1
 345 000c 003040E3 		movt	r3, #:upper16:vdc_regaddr_img_synthesizer
 346 0010 0400000A 		beq	.L69
 347 0014 042093E5 		ldr	r2, [r3, #4]
 348 0018 003092E5 		ldr	r3, [r2]
 349 001c 003083E1 		orr	r3, r3, r0
 350 0020 003082E5 		str	r3, [r2]
 351 0024 FEFFFFEA 		b	VDC_ShrdPrmSetRwProcEnable
 352              	.L69:
 353 0028 041093E5 		ldr	r1, [r3, #4]
 354 002c 203093E5 		ldr	r3, [r3, #32]
 355 0030 002091E5 		ldr	r2, [r1]
 356 0034 0120C2E3 		bic	r2, r2, #1
 357 0038 002081E5 		str	r2, [r1]
 358 003c 002093E5 		ldr	r2, [r3]
 359 0040 0320C2E3 		bic	r2, r2, #3
 360 0044 002083E5 		str	r2, [r3]
 361 0048 002093E5 		ldr	r2, [r3]
 362 004c 002083E5 		str	r2, [r3]
 363 0050 FEFFFFEA 		b	VDC_ShrdPrmSetRwProcDisable
 365              		.section	.text.SetRwProcAbility_Write_0,"ax",%progbits
 366              		.align	2
 367              		.syntax unified
 368              		.arm
 369              		.fpu neon
 371              	SetRwProcAbility_Write_0:
 372              		@ args = 0, pretend = 0, frame = 8
 373              		@ frame_needed = 0, uses_anonymous_args = 0
 374 0000 000050E3 		cmp	r0, #0
 375 0004 04E02DE5 		str	lr, [sp, #-4]!
 376 0008 0CD04DE2 		sub	sp, sp, #12
 377 000c 1800000A 		beq	.L74
 378 0010 002000E3 		movw	r2, #:lower16:vdc_regaddr_scaler
 379 0014 0000A0E3 		mov	r0, #0
 380 0018 002040E3 		movt	r2, #:upper16:vdc_regaddr_scaler
 381 001c 80C092E5 		ldr	ip, [r2, #128]
 382 0020 B43092E5 		ldr	r3, [r2, #180]
 383 0024 6C1092E5 		ldr	r1, [r2, #108]
 384 0028 00209CE5 		ldr	r2, [ip]
 385 002c 012082E3 		orr	r2, r2, #1
 386 0030 00208CE5 		str	r2, [ip]
 387 0034 002093E5 		ldr	r2, [r3]
 388 0038 012882E3 		orr	r2, r2, #65536
 389 003c 002083E5 		str	r2, [r3]
 390 0040 002093E5 		ldr	r2, [r3]
 391 0044 04208DE5 		str	r2, [sp, #4]
 392 0048 002091E5 		ldr	r2, [r1]
 393 004c 012682E3 		orr	r2, r2, #1048576
 394 0050 002081E5 		str	r2, [r1]
 395 0054 002093E5 		ldr	r2, [r3]
 396 0058 0128C2E3 		bic	r2, r2, #65536
 397 005c 002083E5 		str	r2, [r3]
 398 0060 003093E5 		ldr	r3, [r3]
 399 0064 04308DE5 		str	r3, [sp, #4]
 400 0068 FEFFFFEB 		bl	VDC_ShrdPrmSetRwProcEnable
 401 006c 0CD08DE2 		add	sp, sp, #12
 402              		@ sp needed
 403 0070 04F09DE4 		ldr	pc, [sp], #4
 404              	.L74:
 405 0074 003000E3 		movw	r3, #:lower16:vdc_regaddr_scaler
 406 0078 003040E3 		movt	r3, #:upper16:vdc_regaddr_scaler
 407 007c 802093E5 		ldr	r2, [r3, #128]
 408 0080 003092E5 		ldr	r3, [r2]
 409 0084 0130C3E3 		bic	r3, r3, #1
 410 0088 003082E5 		str	r3, [r2]
 411 008c FEFFFFEB 		bl	VDC_ShrdPrmSetRwProcDisable
 412 0090 0CD08DE2 		add	sp, sp, #12
 413              		@ sp needed
 414 0094 04F09DE4 		ldr	pc, [sp], #4
 416              		.section	.text.SetScalerGraphics,"ax",%progbits
 417              		.align	2
 418              		.syntax unified
 419              		.arm
 420              		.fpu neon
 422              	SetScalerGraphics:
 423              		@ args = 4, pretend = 0, frame = 0
 424              		@ frame_needed = 0, uses_anonymous_args = 0
 425 0000 F84F2DE9 		push	{r3, r4, r5, r6, r7, r8, r9, r10, fp, lr}
 426 0004 28C0DDE5 		ldrb	ip, [sp, #40]	@ zero_extendqisi2
 427 0008 010053E3 		cmp	r3, #1
 428 000c 00005C03 		cmpeq	ip, #0
 429 0010 0B00001A 		bne	.L76
 430 0014 003000E3 		movw	r3, #:lower16:vdc_regaddr_scaler
 431 0018 003040E3 		movt	r3, #:upper16:vdc_regaddr_scaler
 432 001c 641093E5 		ldr	r1, [r3, #100]
 433 0020 002093E5 		ldr	r2, [r3]
 434 0024 003091E5 		ldr	r3, [r1]
 435 0028 103083E3 		orr	r3, r3, #16
 436 002c 003081E5 		str	r3, [r1]
 437 0030 003092E5 		ldr	r3, [r2]
 438 0034 023A83E3 		orr	r3, r3, #8192
 439 0038 103083E3 		orr	r3, r3, #16
 440 003c 003082E5 		str	r3, [r2]
 441 0040 F88FBDE8 		pop	{r3, r4, r5, r6, r7, r8, r9, r10, fp, pc}
 442              	.L76:
 443 0044 004000E3 		movw	r4, #:lower16:vdc_regaddr_scaler
 444 0048 0250A0E1 		mov	r5, r2
 445 004c 004040E3 		movt	r4, #:upper16:vdc_regaddr_scaler
 446 0050 B020D2E1 		ldrh	r2, [r2]
 447 0054 64E094E5 		ldr	lr, [r4, #100]
 448 0058 0160A0E1 		mov	r6, r1
 449 005c 0080A0E1 		mov	r8, r0
 450 0060 4C0094E5 		ldr	r0, [r4, #76]
 451 0064 0370A0E1 		mov	r7, r3
 452 0068 B430D5E1 		ldrh	r3, [r5, #4]
 453 006c 00109EE5 		ldr	r1, [lr]
 454 0070 0228A0E1 		lsl	r2, r2, #16
 455 0074 B2C0D5E1 		ldrh	ip, [r5, #2]
 456 0078 1010C1E3 		bic	r1, r1, #16
 457 007c 0338A0E1 		lsl	r3, r3, #16
 458 0080 00108EE5 		str	r1, [lr]
 459 0084 002080E5 		str	r2, [r0]
 460 0088 001090E5 		ldr	r1, [r0]
 461 008c 502094E5 		ldr	r2, [r4, #80]
 462 0090 01C08CE1 		orr	ip, ip, r1
 463 0094 B010D6E1 		ldrh	r1, [r6]
 464 0098 00C080E5 		str	ip, [r0]
 465 009c B600D5E1 		ldrh	r0, [r5, #6]
 466 00a0 003082E5 		str	r3, [r2]
 467 00a4 00C092E5 		ldr	ip, [r2]
 468 00a8 0118A0E1 		lsl	r1, r1, #16
 469 00ac 543094E5 		ldr	r3, [r4, #84]
 470 00b0 0C0080E1 		orr	r0, r0, ip
 471 00b4 000082E5 		str	r0, [r2]
 472 00b8 B220D6E1 		ldrh	r2, [r6, #2]
 473 00bc 001083E5 		str	r1, [r3]
 474 00c0 001093E5 		ldr	r1, [r3]
 475 00c4 012082E1 		orr	r2, r2, r1
 476 00c8 002083E5 		str	r2, [r3]
 477 00cc FEFFFFEB 		bl	VDC_ShrdPrmGetWritingMode
 478 00d0 00A0A0E1 		mov	r10, r0
 479 00d4 0800A0E1 		mov	r0, r8
 480 00d8 FEFFFFEB 		bl	VDC_ShrdPrmGetMeasureFolding
 481 00dc 030057E3 		cmp	r7, #3
 482 00e0 00005713 		cmpne	r7, #0
 483 00e4 00B0A0E1 		mov	fp, r0
 484 00e8 0190A003 		moveq	r9, #1
 485 00ec 0090A013 		movne	r9, #0
 486 00f0 9300000A 		beq	.L111
 487              	.L78:
 488 00f4 0800A0E1 		mov	r0, r8
 489 00f8 FEFFFFEB 		bl	VDC_ShrdPrmGetLineOfsAddrDir
 490 00fc B2C0D5E1 		ldrh	ip, [r5, #2]
 491 0100 B020D6E1 		ldrh	r2, [r6]
 492 0104 B610D5E1 		ldrh	r1, [r5, #6]
 493 0108 02005CE1 		cmp	ip, r2
 494 010c 5700008A 		bhi	.L112
 495 0110 483094E5 		ldr	r3, [r4, #72]
 496 0114 00C0A0E3 		mov	ip, #0
 497 0118 002093E5 		ldr	r2, [r3]
 498 011c 1020C2E3 		bic	r2, r2, #16
 499 0120 002083E5 		str	r2, [r3]
 500 0124 B220D6E1 		ldrh	r2, [r6, #2]
 501 0128 020051E1 		cmp	r1, r2
 502 012c 7400009A 		bls	.L83
 503              	.L115:
 504 0130 00E093E5 		ldr	lr, [r3]
 505 0134 010051E3 		cmp	r1, #1
 506 0138 012AA003 		moveq	r2, #4096
 507 013c 01E08EE3 		orr	lr, lr, #1
 508 0140 00E083E5 		str	lr, [r3]
 509 0144 1300000A 		beq	.L84
 510 0148 902A07EE 		vmov	s15, r2	@ int
 511 014c 00005BE3 		cmp	fp, #0
 512 0150 9E6A9FED 		vldr.32	s12, .L116
 513 0154 677AF8EE 		vcvt.f32.u32	s15, s15
 514 0158 101A07EE 		vmov	s14, r1	@ int
 515 015c 477AB8EE 		vcvt.f32.u32	s14, s14
 516 0160 865A67EE 		vmul.f32	s11, s15, s12
 517 0164 876AC5EE 		vdiv.f32	s13, s11, s14
 518 0168 0600000A 		beq	.L85
 519 016c 005AF7EE 		vmov.f32	s11, #1.0e+0
 520 0170 E57A77EE 		vsub.f32	s15, s15, s11
 521 0174 657A37EE 		vsub.f32	s14, s14, s11
 522 0178 867A67EE 		vmul.f32	s15, s15, s12
 523 017c 877A56EE 		vnmls.f32	s15, s13, s14
 524 0180 876A87EE 		vdiv.f32	s12, s15, s14
 525 0184 C66A76EE 		vsub.f32	s13, s13, s12
 526              	.L85:
 527 0188 007AF6EE 		vmov.f32	s15, #5.0e-1
 528 018c A76A76EE 		vadd.f32	s13, s13, s15
 529 0190 E67AFDEE 		vcvt.s32.f32	s15, s13
 530 0194 902A17EE 		vmov	r2, s15	@ int
 531              	.L84:
 532 0198 581094E5 		ldr	r1, [r4, #88]
 533 019c 000059E3 		cmp	r9, #0
 534 01a0 003091E5 		ldr	r3, [r1]
 535 01a4 2338A0E1 		lsr	r3, r3, #16
 536 01a8 0338A0E1 		lsl	r3, r3, #16
 537 01ac 003081E5 		str	r3, [r1]
 538 01b0 003091E5 		ldr	r3, [r1]
 539 01b4 022083E1 		orr	r2, r3, r2
 540 01b8 002081E5 		str	r2, [r1]
 541 01bc 5500000A 		beq	.L113
 542              	.L87:
 543 01c0 00005CE3 		cmp	ip, #0
 544 01c4 1400000A 		beq	.L88
 545 01c8 03005AE3 		cmp	r10, #3
 546 01cc 7C00000A 		beq	.L90
 547 01d0 04005AE3 		cmp	r10, #4
 548 01d4 6C00000A 		beq	.L91
 549 01d8 02005AE3 		cmp	r10, #2
 550 01dc 5C00000A 		beq	.L114
 551 01e0 010050E3 		cmp	r0, #1
 552 01e4 0C00001A 		bne	.L88
 553              	.L110:
 554 01e8 3C3094E5 		ldr	r3, [r4, #60]
 555 01ec 0F1AA0E3 		mov	r1, #61440
 556 01f0 5C0094E5 		ldr	r0, [r4, #92]
 557 01f4 00104FE3 		movt	r1, 61440
 558 01f8 002093E5 		ldr	r2, [r3]
 559 01fc 012002E0 		and	r2, r2, r1
 560 0200 002083E5 		str	r2, [r3]
 561 0204 002090E5 		ldr	r2, [r0]
 562 0208 012002E0 		and	r2, r2, r1
 563 020c 002080E5 		str	r2, [r0]
 564 0210 002093E5 		ldr	r2, [r3]
 565 0214 022B82E3 		orr	r2, r2, #2048
 566 0218 002083E5 		str	r2, [r3]
 567              	.L88:
 568 021c 002094E5 		ldr	r2, [r4]
 569 0220 010057E3 		cmp	r7, #1
 570 0224 003092E5 		ldr	r3, [r2]
 571 0228 213C83E3 		orr	r3, r3, #8448
 572 022c 113083E3 		orr	r3, r3, #17
 573 0230 003082E5 		str	r3, [r2]
 574 0234 F88FBD08 		popeq	{r3, r4, r5, r6, r7, r8, r9, r10, fp, pc}
 575 0238 5830A0E3 		mov	r3, #88
 576 023c 7C2094E5 		ldr	r2, [r4, #124]
 577 0240 930800E0 		mul	r0, r3, r8
 578 0244 003000E3 		movw	r3, #:lower16:vdc_regaddr_img_synthesizer
 579 0248 003040E3 		movt	r3, #:upper16:vdc_regaddr_img_synthesizer
 580 024c 001092E5 		ldr	r1, [r2]
 581 0250 00C083E0 		add	ip, r3, r0
 582 0254 002093E7 		ldr	r2, [r3, r0]
 583 0258 14309CE5 		ldr	r3, [ip, #20]
 584 025c 001083E5 		str	r1, [r3]
 585 0260 003092E5 		ldr	r3, [r2]
 586 0264 013083E3 		orr	r3, r3, #1
 587 0268 003082E5 		str	r3, [r2]
 588 026c F88FBDE8 		pop	{r3, r4, r5, r6, r7, r8, r9, r10, fp, pc}
 589              	.L112:
 590 0270 2C5094E5 		ldr	r5, [r4, #44]
 591 0274 01005CE3 		cmp	ip, #1
 592 0278 483094E5 		ldr	r3, [r4, #72]
 593 027c 012AA003 		moveq	r2, #4096
 594 0280 00E095E5 		ldr	lr, [r5]
 595 0284 10E0CEE3 		bic	lr, lr, #16
 596 0288 00E085E5 		str	lr, [r5]
 597 028c 00E093E5 		ldr	lr, [r3]
 598 0290 10E08EE3 		orr	lr, lr, #16
 599 0294 00E083E5 		str	lr, [r3]
 600 0298 1300000A 		beq	.L80
 601 029c 902A07EE 		vmov	s15, r2	@ int
 602 02a0 00005BE3 		cmp	fp, #0
 603 02a4 496A9FED 		vldr.32	s12, .L116
 604 02a8 677AF8EE 		vcvt.f32.u32	s15, s15
 605 02ac 10CA07EE 		vmov	s14, ip	@ int
 606 02b0 477AB8EE 		vcvt.f32.u32	s14, s14
 607 02b4 865A67EE 		vmul.f32	s11, s15, s12
 608 02b8 876AC5EE 		vdiv.f32	s13, s11, s14
 609 02bc 0600000A 		beq	.L81
 610 02c0 005AF7EE 		vmov.f32	s11, #1.0e+0
 611 02c4 E57A77EE 		vsub.f32	s15, s15, s11
 612 02c8 657A37EE 		vsub.f32	s14, s14, s11
 613 02cc 867A67EE 		vmul.f32	s15, s15, s12
 614 02d0 877A56EE 		vnmls.f32	s15, s13, s14
 615 02d4 876A87EE 		vdiv.f32	s12, s15, s14
 616 02d8 C66A76EE 		vsub.f32	s13, s13, s12
 617              	.L81:
 618 02dc 007AF6EE 		vmov.f32	s15, #5.0e-1
 619 02e0 A76A76EE 		vadd.f32	s13, s13, s15
 620 02e4 E67AFDEE 		vcvt.s32.f32	s15, s13
 621 02e8 902A17EE 		vmov	r2, s15	@ int
 622              	.L80:
 623 02ec 40E094E5 		ldr	lr, [r4, #64]
 624 02f0 01C0A0E3 		mov	ip, #1
 625 02f4 00208EE5 		str	r2, [lr]
 626 02f8 B220D6E1 		ldrh	r2, [r6, #2]
 627 02fc 020051E1 		cmp	r1, r2
 628 0300 8AFFFF8A 		bhi	.L115
 629              	.L83:
 630 0304 002093E5 		ldr	r2, [r3]
 631 0308 000059E3 		cmp	r9, #0
 632 030c 0120C2E3 		bic	r2, r2, #1
 633 0310 002083E5 		str	r2, [r3]
 634 0314 A9FFFF1A 		bne	.L87
 635              	.L113:
 636 0318 3C0094E5 		ldr	r0, [r4, #60]
 637 031c 0F2AA0E3 		mov	r2, #61440
 638 0320 5C1094E5 		ldr	r1, [r4, #92]
 639 0324 00204FE3 		movt	r2, 61440
 640 0328 003090E5 		ldr	r3, [r0]
 641 032c 023003E0 		and	r3, r3, r2
 642 0330 003080E5 		str	r3, [r0]
 643 0334 003091E5 		ldr	r3, [r1]
 644 0338 023003E0 		and	r3, r3, r2
 645 033c 003081E5 		str	r3, [r1]
 646 0340 B5FFFFEA 		b	.L88
 647              	.L111:
 648 0344 FEFFFFEB 		bl	VDC_ShrdPrmGetInterlace
 649 0348 009090E2 		adds	r9, r0, #0
 650 034c 0190A013 		movne	r9, #1
 651 0350 67FFFFEA 		b	.L78
 652              	.L114:
 653 0354 3C0094E5 		ldr	r0, [r4, #60]
 654 0358 0F1AA0E3 		mov	r1, #61440
 655 035c 5C3094E5 		ldr	r3, [r4, #92]
 656 0360 00104FE3 		movt	r1, 61440
 657 0364 002090E5 		ldr	r2, [r0]
 658 0368 012002E0 		and	r2, r2, r1
 659 036c 002080E5 		str	r2, [r0]
 660 0370 002093E5 		ldr	r2, [r3]
 661 0374 012002E0 		and	r2, r2, r1
 662 0378 002083E5 		str	r2, [r3]
 663 037c 002093E5 		ldr	r2, [r3]
 664 0380 022B82E3 		orr	r2, r2, #2048
 665 0384 002083E5 		str	r2, [r3]
 666 0388 A3FFFFEA 		b	.L88
 667              	.L91:
 668 038c 3C0094E5 		ldr	r0, [r4, #60]
 669 0390 0F1AA0E3 		mov	r1, #61440
 670 0394 5C3094E5 		ldr	r3, [r4, #92]
 671 0398 00104FE3 		movt	r1, 61440
 672 039c 002090E5 		ldr	r2, [r0]
 673 03a0 012002E0 		and	r2, r2, r1
 674 03a4 002080E5 		str	r2, [r0]
 675 03a8 002093E5 		ldr	r2, [r3]
 676 03ac 012002E0 		and	r2, r2, r1
 677 03b0 002083E5 		str	r2, [r3]
 678 03b4 002093E5 		ldr	r2, [r3]
 679 03b8 022382E3 		orr	r2, r2, #134217728
 680 03bc 002083E5 		str	r2, [r3]
 681 03c0 95FFFFEA 		b	.L88
 682              	.L90:
 683 03c4 000050E3 		cmp	r0, #0
 684 03c8 93FFFF1A 		bne	.L88
 685 03cc 85FFFFEA 		b	.L110
 686              	.L117:
 687              		.align	2
 688              	.L116:
 689 03d0 00008045 		.word	1166016512
 691              		.section	.text.VDC_Initialize,"ax",%progbits
 692              		.align	2
 693              		.global	VDC_Initialize
 694              		.syntax unified
 695              		.arm
 696              		.fpu neon
 698              	VDC_Initialize:
 699              		@ args = 0, pretend = 0, frame = 8
 700              		@ frame_needed = 0, uses_anonymous_args = 0
 701 0000 003000E3 		movw	r3, #:lower16:vdc_regaddr_system_ctrl
 702 0004 042090E5 		ldr	r2, [r0, #4]
 703 0008 003040E3 		movt	r3, #:upper16:vdc_regaddr_system_ctrl
 704 000c F0412DE9 		push	{r4, r5, r6, r7, r8, lr}
 705 0010 10C093E5 		ldr	ip, [r3, #16]
 706 0014 FF3E0FE3 		movw	r3, #65279
 707 0018 000052E3 		cmp	r2, #0
 708 001c 08D04DE2 		sub	sp, sp, #8
 709 0020 B010DCE1 		ldrh	r1, [ip]
 710 0024 013003E0 		and	r3, r3, r1
 711 0028 B030CCE1 		strh	r3, [ip]	@ movhi
 712 002c 4C00000A 		beq	.L119
 713 0030 003000E3 		movw	r3, #:lower16:vdc_regaddr_lvds
 714 0034 0040A0E3 		mov	r4, #0
 715 0038 003040E3 		movt	r3, #:upper16:vdc_regaddr_lvds
 716 003c 081093E5 		ldr	r1, [r3, #8]
 717 0040 0CE093E5 		ldr	lr, [r3, #12]
 718 0044 003091E5 		ldr	r3, [r1]
 719 0048 1030C3E3 		bic	r3, r3, #16
 720 004c 003081E5 		str	r3, [r1]
 721 0050 00309EE5 		ldr	r3, [lr]
 722 0054 013083E3 		orr	r3, r3, #1
 723 0058 00308EE5 		str	r3, [lr]
 724 005c 00408DE5 		str	r4, [sp]
 725 0060 00309DE5 		ldr	r3, [sp]
 726 0064 250053E3 		cmp	r3, #37
 727 0068 0500008A 		bhi	.L123
 728              	.L132:
 729 006c 00309DE5 		ldr	r3, [sp]
 730 0070 013083E2 		add	r3, r3, #1
 731 0074 00308DE5 		str	r3, [sp]
 732 0078 00309DE5 		ldr	r3, [sp]
 733 007c 250053E3 		cmp	r3, #37
 734 0080 F9FFFF9A 		bls	.L132
 735              	.L123:
 736 0084 003091E5 		ldr	r3, [r1]
 737 0088 0040A0E3 		mov	r4, #0
 738 008c 0050D2E5 		ldrb	r5, [r2]	@ zero_extendqisi2
 739 0090 B680D2E1 		ldrh	r8, [r2, #6]
 740 0094 0334C3E3 		bic	r3, r3, #50331648
 741 0098 B870D2E1 		ldrh	r7, [r2, #8]
 742 009c FF3CC3E3 		bic	r3, r3, #65280
 743 00a0 003081E5 		str	r3, [r1]
 744 00a4 006091E5 		ldr	r6, [r1]
 745 00a8 0430D2E5 		ldrb	r3, [r2, #4]	@ zero_extendqisi2
 746 00ac 056C86E1 		orr	r6, r6, r5, lsl #24
 747 00b0 006081E5 		str	r6, [r1]
 748 00b4 005091E5 		ldr	r5, [r1]
 749 00b8 035485E1 		orr	r5, r5, r3, lsl #8
 750 00bc 005081E5 		str	r5, [r1]
 751 00c0 00309EE5 		ldr	r3, [lr]
 752 00c4 3F38C3E3 		bic	r3, r3, #4128768
 753 00c8 733EC3E3 		bic	r3, r3, #1840
 754 00cc 00308EE5 		str	r3, [lr]
 755 00d0 00209EE5 		ldr	r2, [lr]
 756 00d4 082882E1 		orr	r2, r2, r8, lsl #16
 757 00d8 00208EE5 		str	r2, [lr]
 758 00dc 00309EE5 		ldr	r3, [lr]
 759 00e0 073483E1 		orr	r3, r3, r7, lsl #8
 760 00e4 00308EE5 		str	r3, [lr]
 761 00e8 00309EE5 		ldr	r3, [lr]
 762 00ec 103083E3 		orr	r3, r3, #16
 763 00f0 00308EE5 		str	r3, [lr]
 764 00f4 00408DE5 		str	r4, [sp]
 765 00f8 00309DE5 		ldr	r3, [sp]
 766 00fc 250053E3 		cmp	r3, #37
 767 0100 0500008A 		bhi	.L122
 768              	.L131:
 769 0104 00309DE5 		ldr	r3, [sp]
 770 0108 013083E2 		add	r3, r3, #1
 771 010c 00308DE5 		str	r3, [sp]
 772 0110 00309DE5 		ldr	r3, [sp]
 773 0114 250053E3 		cmp	r3, #37
 774 0118 F9FFFF9A 		bls	.L131
 775              	.L122:
 776 011c 00309EE5 		ldr	r3, [lr]
 777 0120 0040A0E3 		mov	r4, #0
 778 0124 572403E3 		movw	r2, #13399
 779 0128 0130C3E3 		bic	r3, r3, #1
 780 012c 00308EE5 		str	r3, [lr]
 781 0130 04408DE5 		str	r4, [sp, #4]
 782 0134 04309DE5 		ldr	r3, [sp, #4]
 783 0138 020053E1 		cmp	r3, r2
 784 013c 0500008A 		bhi	.L125
 785              	.L130:
 786 0140 04309DE5 		ldr	r3, [sp, #4]
 787 0144 013083E2 		add	r3, r3, #1
 788 0148 04308DE5 		str	r3, [sp, #4]
 789 014c 04309DE5 		ldr	r3, [sp, #4]
 790 0150 020053E1 		cmp	r3, r2
 791 0154 F9FFFF9A 		bls	.L130
 792              	.L125:
 793 0158 003091E5 		ldr	r3, [r1]
 794 015c 103083E3 		orr	r3, r3, #16
 795 0160 003081E5 		str	r3, [r1]
 796              	.L119:
 797 0164 002000E3 		movw	r2, #:lower16:vdc_regaddr_input_ctrl
 798 0168 0030D0E5 		ldrb	r3, [r0]	@ zero_extendqisi2
 799 016c 002040E3 		movt	r2, #:upper16:vdc_regaddr_input_ctrl
 800 0170 042092E5 		ldr	r2, [r2, #4]
 801 0174 000053E3 		cmp	r3, #0
 802 0178 8330A0E1 		lsl	r3, r3, #1
 803 017c 001092E5 		ldr	r1, [r2]
 804 0180 01168103 		orreq	r1, r1, #1048576
 805 0184 0116C113 		bicne	r1, r1, #1048576
 806 0188 001082E5 		str	r1, [r2]
 807 018c 001000E3 		movw	r1, #:lower16:.LANCHOR0
 808 0190 0120D0E5 		ldrb	r2, [r0, #1]	@ zero_extendqisi2
 809 0194 000000E3 		movw	r0, #:lower16:.LANCHOR1
 810 0198 001040E3 		movt	r1, #:upper16:.LANCHOR0
 811 019c 000040E3 		movt	r0, #:upper16:.LANCHOR1
 812 01a0 B30090E1 		ldrh	r0, [r0, r3]
 813 01a4 8220A0E1 		lsl	r2, r2, #1
 814 01a8 B23091E1 		ldrh	r3, [r1, r2]
 815 01ac 003083E1 		orr	r3, r3, r0
 816 01b0 012C83E3 		orr	r2, r3, #256
 817 01b4 B030CCE1 		strh	r3, [ip]	@ movhi
 818 01b8 B020CCE1 		strh	r2, [ip]	@ movhi
 819 01bc 08D08DE2 		add	sp, sp, #8
 820              		@ sp needed
 821 01c0 F081BDE8 		pop	{r4, r5, r6, r7, r8, pc}
 823              		.section	.text.VDC_Terminate,"ax",%progbits
 824              		.align	2
 825              		.global	VDC_Terminate
 826              		.syntax unified
 827              		.arm
 828              		.fpu neon
 830              	VDC_Terminate:
 831              		@ args = 0, pretend = 0, frame = 8
 832              		@ frame_needed = 0, uses_anonymous_args = 0
 833 0000 002000E3 		movw	r2, #:lower16:vdc_regaddr_system_ctrl
 834 0004 FF3E0FE3 		movw	r3, #65279
 835 0008 002040E3 		movt	r2, #:upper16:vdc_regaddr_system_ctrl
 836 000c 04E02DE5 		str	lr, [sp, #-4]!
 837 0010 102092E5 		ldr	r2, [r2, #16]
 838 0014 0CD04DE2 		sub	sp, sp, #12
 839 0018 0400A0E3 		mov	r0, #4
 840 001c B010D2E1 		ldrh	r1, [r2]
 841 0020 013003E0 		and	r3, r3, r1
 842 0024 B030C2E1 		strh	r3, [r2]	@ movhi
 843 0028 FEFFFFEB 		bl	VDC_ShrdPrmGetResource
 844 002c 000050E3 		cmp	r0, #0
 845 0030 0100001A 		bne	.L145
 846              	.L138:
 847 0034 0CD08DE2 		add	sp, sp, #12
 848              		@ sp needed
 849 0038 04F09DE4 		ldr	pc, [sp], #4
 850              	.L145:
 851 003c FEFFFFEB 		bl	VDC_ShrdPrmGetLvdsClkRef
 852 0040 000050E3 		cmp	r0, #0
 853 0044 FAFFFF1A 		bne	.L138
 854 0048 003000E3 		movw	r3, #:lower16:vdc_regaddr_lvds
 855 004c 003040E3 		movt	r3, #:upper16:vdc_regaddr_lvds
 856 0050 081093E5 		ldr	r1, [r3, #8]
 857 0054 0C2093E5 		ldr	r2, [r3, #12]
 858 0058 003091E5 		ldr	r3, [r1]
 859 005c 1030C3E3 		bic	r3, r3, #16
 860 0060 003081E5 		str	r3, [r1]
 861 0064 003092E5 		ldr	r3, [r2]
 862 0068 013083E3 		orr	r3, r3, #1
 863 006c 003082E5 		str	r3, [r2]
 864 0070 04008DE5 		str	r0, [sp, #4]
 865 0074 04309DE5 		ldr	r3, [sp, #4]
 866 0078 250053E3 		cmp	r3, #37
 867 007c ECFFFF8A 		bhi	.L138
 868              	.L142:
 869 0080 04309DE5 		ldr	r3, [sp, #4]
 870 0084 013083E2 		add	r3, r3, #1
 871 0088 04308DE5 		str	r3, [sp, #4]
 872 008c 04309DE5 		ldr	r3, [sp, #4]
 873 0090 250053E3 		cmp	r3, #37
 874 0094 F9FFFF9A 		bls	.L142
 875 0098 0CD08DE2 		add	sp, sp, #12
 876              		@ sp needed
 877 009c 04F09DE4 		ldr	pc, [sp], #4
 879              		.section	.text.VDC_VideoInput,"ax",%progbits
 880              		.align	2
 881              		.global	VDC_VideoInput
 882              		.syntax unified
 883              		.arm
 884              		.fpu neon
 886              	VDC_VideoInput:
 887              		@ args = 0, pretend = 0, frame = 0
 888              		@ frame_needed = 0, uses_anonymous_args = 0
 889 0000 002000E3 		movw	r2, #:lower16:vdc_regaddr_input_ctrl
 890 0004 70402DE9 		push	{r4, r5, r6, lr}
 891 0008 002040E3 		movt	r2, #:upper16:vdc_regaddr_input_ctrl
 892 000c B240D0E1 		ldrh	r4, [r0, #2]
 893 0010 04C092E5 		ldr	ip, [r2, #4]
 894 0014 0C3092E5 		ldr	r3, [r2, #12]
 895 0018 0448A0E1 		lsl	r4, r4, #16
 896 001c 081090E5 		ldr	r1, [r0, #8]
 897 0020 00509CE5 		ldr	r5, [ip]
 898 0024 B4E0D0E1 		ldrh	lr, [r0, #4]
 899 0028 000051E3 		cmp	r1, #0
 900 002c 015685E3 		orr	r5, r5, #1048576
 901 0030 00508CE5 		str	r5, [ip]
 902 0034 004083E5 		str	r4, [r3]
 903 0038 004093E5 		ldr	r4, [r3]
 904 003c 04E08EE1 		orr	lr, lr, r4
 905 0040 00E083E5 		str	lr, [r3]
 906 0044 0F00000A 		beq	.L147
 907 0048 B050D1E1 		ldrh	r5, [r1]
 908 004c 103092E5 		ldr	r3, [r2, #16]
 909 0050 B2E0D1E1 		ldrh	lr, [r1, #2]
 910 0054 B460D1E1 		ldrh	r6, [r1, #4]
 911 0058 055CA0E1 		lsl	r5, r5, #24
 912 005c B610D1E1 		ldrh	r1, [r1, #6]
 913 0060 005083E5 		str	r5, [r3]
 914 0064 004093E5 		ldr	r4, [r3]
 915 0068 0E4884E1 		orr	r4, r4, lr, lsl #16
 916 006c 004083E5 		str	r4, [r3]
 917 0070 00E093E5 		ldr	lr, [r3]
 918 0074 06E48EE1 		orr	lr, lr, r6, lsl #8
 919 0078 00E083E5 		str	lr, [r3]
 920 007c 00E093E5 		ldr	lr, [r3]
 921 0080 0E1081E1 		orr	r1, r1, lr
 922 0084 001083E5 		str	r1, [r3]
 923              	.L147:
 924 0088 18E092E5 		ldr	lr, [r2, #24]
 925 008c 0C3090E5 		ldr	r3, [r0, #12]
 926 0090 00109EE5 		ldr	r1, [lr]
 927 0094 000053E3 		cmp	r3, #0
 928 0098 011681E3 		orr	r1, r1, #1048576
 929 009c 00108EE5 		str	r1, [lr]
 930 00a0 4300000A 		beq	.L149
 931 00a4 00009CE5 		ldr	r0, [ip]
 932 00a8 0040D3E5 		ldrb	r4, [r3]	@ zero_extendqisi2
 933 00ac 081092E5 		ldr	r1, [r2, #8]
 934 00b0 710CC0E3 		bic	r0, r0, #28928
 935 00b4 0450D3E5 		ldrb	r5, [r3, #4]	@ zero_extendqisi2
 936 00b8 1100C0E3 		bic	r0, r0, #17
 937 00bc 060054E3 		cmp	r4, #6
 938 00c0 00008CE5 		str	r0, [ip]
 939 00c4 00009CE5 		ldr	r0, [ip]
 940 00c8 04068011 		orrne	r0, r0, r4, lsl #12
 941 00cc 00008CE5 		str	r0, [ip]
 942 00d0 0100D3E5 		ldrb	r0, [r3, #1]	@ zero_extendqisi2
 943 00d4 000050E3 		cmp	r0, #0
 944 00d8 00009C15 		ldrne	r0, [ip]
 945 00dc 010C8013 		orrne	r0, r0, #256
 946 00e0 00008C15 		strne	r0, [ip]
 947 00e4 0200D3E5 		ldrb	r0, [r3, #2]	@ zero_extendqisi2
 948 00e8 000050E3 		cmp	r0, #0
 949 00ec 00009C15 		ldrne	r0, [ip]
 950 00f0 10008013 		orrne	r0, r0, #16
 951 00f4 00008C15 		strne	r0, [ip]
 952 00f8 0300D3E5 		ldrb	r0, [r3, #3]	@ zero_extendqisi2
 953 00fc 000050E3 		cmp	r0, #0
 954 0100 00009C15 		ldrne	r0, [ip]
 955 0104 01008013 		orrne	r0, r0, #1
 956 0108 00008C15 		strne	r0, [ip]
 957 010c EC0E0FE3 		movw	r0, #65260
 958 0110 00C091E5 		ldr	ip, [r1]
 959 0114 EE0E4EE3 		movt	r0, 61166
 960 0118 000055E3 		cmp	r5, #0
 961 011c 0C0000E0 		and	r0, r0, ip
 962 0120 000081E5 		str	r0, [r1]
 963 0124 00009115 		ldrne	r0, [r1]
 964 0128 01028013 		orrne	r0, r0, #268435456
 965 012c 00008115 		strne	r0, [r1]
 966 0130 0500D3E5 		ldrb	r0, [r3, #5]	@ zero_extendqisi2
 967 0134 000050E3 		cmp	r0, #0
 968 0138 00009115 		ldrne	r0, [r1]
 969 013c 01048013 		orrne	r0, r0, #16777216
 970 0140 00008115 		strne	r0, [r1]
 971 0144 0600D3E5 		ldrb	r0, [r3, #6]	@ zero_extendqisi2
 972 0148 000050E3 		cmp	r0, #0
 973 014c 00009115 		ldrne	r0, [r1]
 974 0150 01068013 		orrne	r0, r0, #1048576
 975 0154 00008115 		strne	r0, [r1]
 976 0158 0700D3E5 		ldrb	r0, [r3, #7]	@ zero_extendqisi2
 977 015c 000050E3 		cmp	r0, #0
 978 0160 00009115 		ldrne	r0, [r1]
 979 0164 01088013 		orrne	r0, r0, #65536
 980 0168 00008115 		strne	r0, [r1]
 981 016c 0800D3E5 		ldrb	r0, [r3, #8]	@ zero_extendqisi2
 982 0170 000050E3 		cmp	r0, #0
 983 0174 00009115 		ldrne	r0, [r1]
 984 0178 010C8013 		orrne	r0, r0, #256
 985 017c 00008115 		strne	r0, [r1]
 986 0180 0900D3E5 		ldrb	r0, [r3, #9]	@ zero_extendqisi2
 987 0184 0A30D3E5 		ldrb	r3, [r3, #10]	@ zero_extendqisi2
 988 0188 000050E3 		cmp	r0, #0
 989 018c 00009115 		ldrne	r0, [r1]
 990 0190 10008013 		orrne	r0, r0, #16
 991 0194 00008115 		strne	r0, [r1]
 992 0198 020054E3 		cmp	r4, #2
 993 019c 000091E5 		ldr	r0, [r1]
 994 01a0 003083E1 		orr	r3, r3, r0
 995 01a4 003081E5 		str	r3, [r1]
 996 01a8 00309E95 		ldrls	r3, [lr]
 997 01ac 0136C393 		bicls	r3, r3, #1048576
 998 01b0 00308E95 		strls	r3, [lr]
 999              	.L149:
 1000 01b4 001092E5 		ldr	r1, [r2]
 1001 01b8 142092E5 		ldr	r2, [r2, #20]
 1002 01bc 003091E5 		ldr	r3, [r1]
 1003 01c0 113083E3 		orr	r3, r3, #17
 1004 01c4 003081E5 		str	r3, [r1]
 1005 01c8 003092E5 		ldr	r3, [r2]
 1006 01cc 013083E3 		orr	r3, r3, #1
 1007 01d0 003082E5 		str	r3, [r2]
 1008 01d4 7080BDE8 		pop	{r4, r5, r6, pc}
 1010              		.section	.text.VDC_SyncControl,"ax",%progbits
 1011              		.align	2
 1012              		.global	VDC_SyncControl
 1013              		.syntax unified
 1014              		.arm
 1015              		.fpu neon
 1017              	VDC_SyncControl:
 1018              		@ args = 0, pretend = 0, frame = 0
 1019              		@ frame_needed = 0, uses_anonymous_args = 0
 1020 0000 102090E5 		ldr	r2, [r0, #16]
 1021 0004 F0402DE9 		push	{r4, r5, r6, r7, lr}
 1022 0008 000052E3 		cmp	r2, #0
 1023 000c 4A00000A 		beq	.L195
 1024 0010 B0E0D2E1 		ldrh	lr, [r2]
 1025 0014 003000E3 		movw	r3, #:lower16:vdc_regaddr_scaler
 1026 0018 B2C0D2E1 		ldrh	ip, [r2, #2]
 1027 001c 003040E3 		movt	r3, #:upper16:vdc_regaddr_scaler
 1028 0020 060093E9 		ldmib	r3, {r1, r2}
 1029 0024 0EE8A0E1 		lsl	lr, lr, #16
 1030 0028 0CC8A0E1 		lsl	ip, ip, #16
 1031 002c 00E081E5 		str	lr, [r1]
 1032 0030 00C082E5 		str	ip, [r2]
 1033 0034 00C091E5 		ldr	ip, [r1]
 1034 0038 01C08CE3 		orr	ip, ip, #1
 1035 003c 00C081E5 		str	ip, [r1]
 1036 0040 001092E5 		ldr	r1, [r2]
 1037 0044 011081E3 		orr	r1, r1, #1
 1038 0048 001082E5 		str	r1, [r2]
 1039              	.L196:
 1040 004c 00C0D0E5 		ldrb	ip, [r0]	@ zero_extendqisi2
 1041 0050 102093E5 		ldr	r2, [r3, #16]
 1042 0054 B410D0E1 		ldrh	r1, [r0, #4]
 1043 0058 00005CE3 		cmp	ip, #0
 1044 005c 001082E5 		str	r1, [r2]
 1045 0060 3000000A 		beq	.L200
 1046 0064 0CE093E5 		ldr	lr, [r3, #12]
 1047 0068 B240D0E1 		ldrh	r4, [r0, #2]
 1048 006c 00C09EE5 		ldr	ip, [lr]
 1049 0070 01C08CE3 		orr	ip, ip, #1
 1050 0074 00C08EE5 		str	ip, [lr]
 1051 0078 001092E5 		ldr	r1, [r2]
 1052 007c 7F16C1E3 		bic	r1, r1, #133169152
 1053 0080 0F18C1E3 		bic	r1, r1, #983040
 1054 0084 001082E5 		str	r1, [r2]
 1055 0088 001092E5 		ldr	r1, [r2]
 1056 008c 041881E1 		orr	r1, r1, r4, lsl #16
 1057 0090 001082E5 		str	r1, [r2]
 1058              	.L198:
 1059 0094 141093E5 		ldr	r1, [r3, #20]
 1060 0098 FF2F07E3 		movw	r2, #32767
 1061 009c B860D0E1 		ldrh	r6, [r0, #8]
 1062 00a0 FF2C4FE3 		movt	r2, 64767
 1063 00a4 BC50D0E1 		ldrh	r5, [r0, #12]
 1064 00a8 004091E5 		ldr	r4, [r1]
 1065 00ac B6E0D0E1 		ldrh	lr, [r0, #6]
 1066 00b0 BAC0D0E1 		ldrh	ip, [r0, #10]
 1067 00b4 BE00D0E1 		ldrh	r0, [r0, #14]
 1068 00b8 FF40C4E3 		bic	r4, r4, #255
 1069 00bc 004081E5 		str	r4, [r1]
 1070 00c0 007091E5 		ldr	r7, [r1]
 1071 00c4 004093E5 		ldr	r4, [r3]
 1072 00c8 06C88CE1 		orr	ip, ip, r6, lsl #16
 1073 00cc 050880E1 		orr	r0, r0, r5, lsl #16
 1074 00d0 186093E5 		ldr	r6, [r3, #24]
 1075 00d4 1C5093E5 		ldr	r5, [r3, #28]
 1076 00d8 07308EE1 		orr	r3, lr, r7
 1077 00dc 003081E5 		str	r3, [r1]
 1078 00e0 00C086E5 		str	ip, [r6]
 1079 00e4 000085E5 		str	r0, [r5]
 1080 00e8 003094E5 		ldr	r3, [r4]
 1081 00ec 113E83E3 		orr	r3, r3, #272
 1082 00f0 003084E5 		str	r3, [r4]
 1083 00f4 DF3112E5 		ldr	r3, [r2, #-479]
 1084 00f8 0430C3E3 		bic	r3, r3, #4
 1085 00fc DF3102E5 		str	r3, [r2, #-479]
 1086 0100 DF3112E5 		ldr	r3, [r2, #-479]
 1087 0104 0330C3E3 		bic	r3, r3, #3
 1088 0108 DF3102E5 		str	r3, [r2, #-479]
 1089 010c DF3112E5 		ldr	r3, [r2, #-479]
 1090 0110 013083E3 		orr	r3, r3, #1
 1091 0114 DF3102E5 		str	r3, [r2, #-479]
 1092 0118 FF3112E5 		ldr	r3, [r2, #-511]
 1093 011c 113E83E3 		orr	r3, r3, #272
 1094 0120 FF3102E5 		str	r3, [r2, #-511]
 1095 0124 F080BDE8 		pop	{r4, r5, r6, r7, pc}
 1096              	.L200:
 1097 0128 0C1093E5 		ldr	r1, [r3, #12]
 1098 012c 002091E5 		ldr	r2, [r1]
 1099 0130 0120C2E3 		bic	r2, r2, #1
 1100 0134 002081E5 		str	r2, [r1]
 1101 0138 D5FFFFEA 		b	.L198
 1102              	.L195:
 1103 013c 003000E3 		movw	r3, #:lower16:vdc_regaddr_scaler
 1104 0140 003040E3 		movt	r3, #:upper16:vdc_regaddr_scaler
 1105 0144 04C093E5 		ldr	ip, [r3, #4]
 1106 0148 081093E5 		ldr	r1, [r3, #8]
 1107 014c 00209CE5 		ldr	r2, [ip]
 1108 0150 0120C2E3 		bic	r2, r2, #1
 1109 0154 00208CE5 		str	r2, [ip]
 1110 0158 002091E5 		ldr	r2, [r1]
 1111 015c 0120C2E3 		bic	r2, r2, #1
 1112 0160 002081E5 		str	r2, [r1]
 1113 0164 002091E5 		ldr	r2, [r1]
 1114 0168 0228E0E1 		mvn	r2, r2, lsl #16
 1115 016c 2228E0E1 		mvn	r2, r2, lsr #16
 1116 0170 002081E5 		str	r2, [r1]
 1117 0174 B4FFFFEA 		b	.L196
 1119              		.section	.text.VDC_DisplayOutput,"ax",%progbits
 1120              		.align	2
 1121              		.global	VDC_DisplayOutput
 1122              		.syntax unified
 1123              		.arm
 1124              		.fpu neon
 1126              	VDC_DisplayOutput:
 1127              		@ args = 0, pretend = 0, frame = 80
 1128              		@ frame_needed = 0, uses_anonymous_args = 0
 1129 0000 00C000E3 		movw	ip, #:lower16:.LANCHOR2
 1130 0004 F0472DE9 		push	{r4, r5, r6, r7, r8, r9, r10, lr}
 1131 0008 00C040E3 		movt	ip, #:upper16:.LANCHOR2
 1132 000c 0090A0E1 		mov	r9, r0
 1133 0010 50D04DE2 		sub	sp, sp, #80
 1134 0014 006000E3 		movw	r6, #:lower16:vdc_regaddr_output_ctrl
 1135 0018 0F00BCE8 		ldmia	ip!, {r0, r1, r2, r3}
 1136 001c 34E08DE2 		add	lr, sp, #52
 1137 0020 006040E3 		movt	r6, #:upper16:vdc_regaddr_output_ctrl
 1138 0024 0170A0E3 		mov	r7, #1
 1139 0028 B040D9E1 		ldrh	r4, [r9]
 1140 002c 00A000E3 		movw	r10, #:lower16:.LANCHOR3
 1141 0030 0C5096E5 		ldr	r5, [r6, #12]
 1142 0034 0680A0E1 		mov	r8, r6
 1143 0038 0F00AEE8 		stmia	lr!, {r0, r1, r2, r3}
 1144 003c 00A040E3 		movt	r10, #:upper16:.LANCHOR3
 1145 0040 043096E5 		ldr	r3, [r6, #4]
 1146 0044 0448A0E1 		lsl	r4, r4, #16
 1147 0048 07009CE8 		ldm	ip, {r0, r1, r2}
 1148 004c 0CC08CE2 		add	ip, ip, #12
 1149 0050 004083E5 		str	r4, [r3]
 1150 0054 0040A0E3 		mov	r4, #0
 1151 0058 0570CDE5 		strb	r7, [sp, #5]
 1152 005c 07008EE8 		stm	lr, {r0, r1, r2}
 1153 0060 08E08DE2 		add	lr, sp, #8
 1154 0064 001093E5 		ldr	r1, [r3]
 1155 0068 B220D9E1 		ldrh	r2, [r9, #2]
 1156 006c 0670CDE5 		strb	r7, [sp, #6]
 1157 0070 0440CDE5 		strb	r4, [sp, #4]
 1158 0074 012082E1 		orr	r2, r2, r1
 1159 0078 002083E5 		str	r2, [r3]
 1160 007c 0F009CE8 		ldm	ip, {r0, r1, r2, r3}
 1161 0080 0F008EE8 		stm	lr, {r0, r1, r2, r3}
 1162 0084 5C7096E5 		ldr	r7, [r6, #92]
 1163 0088 142096E5 		ldr	r2, [r6, #20]
 1164 008c 003097E5 		ldr	r3, [r7]
 1165 0090 1C1096E5 		ldr	r1, [r6, #28]
 1166 0094 1C208DE5 		str	r2, [sp, #28]
 1167 0098 7F30C3E3 		bic	r3, r3, #127
 1168 009c 242096E5 		ldr	r2, [r6, #36]
 1169 00a0 003087E5 		str	r3, [r7]
 1170 00a4 2C3096E5 		ldr	r3, [r6, #44]
 1171 00a8 24208DE5 		str	r2, [sp, #36]
 1172 00ac 342096E5 		ldr	r2, [r6, #52]
 1173 00b0 28308DE5 		str	r3, [sp, #40]
 1174 00b4 3C3096E5 		ldr	r3, [r6, #60]
 1175 00b8 18508DE5 		str	r5, [sp, #24]
 1176 00bc 045089E2 		add	r5, r9, #4
 1177 00c0 20108DE5 		str	r1, [sp, #32]
 1178 00c4 2C208DE5 		str	r2, [sp, #44]
 1179 00c8 30308DE5 		str	r3, [sp, #48]
 1180              	.L205:
 1181 00cc 003095E5 		ldr	r3, [r5]
 1182 00d0 0810A0E1 		mov	r1, r8
 1183 00d4 000053E2 		subs	r0, r3, #0
 1184 00d8 1400000A 		beq	.L203
 1185 00dc 04319AE7 		ldr	r3, [r10, r4, lsl #2]
 1186 00e0 33FF2FE1 		blx	r3
 1187 00e4 001095E5 		ldr	r1, [r5]
 1188 00e8 50208DE2 		add	r2, sp, #80
 1189 00ec D730D1E1 		ldrsb	r3, [r1, #7]
 1190 00f0 010073E3 		cmn	r3, #1
 1191 00f4 033182E0 		add	r3, r2, r3, lsl #2
 1192 00f8 0C00000A 		beq	.L203
 1193 00fc 382013E5 		ldr	r2, [r3, #-56]
 1194 0100 0800D1E5 		ldrb	r0, [r1, #8]	@ zero_extendqisi2
 1195 0104 001092E5 		ldr	r1, [r2]
 1196 0108 000050E3 		cmp	r0, #0
 1197 010c 0710C1E3 		bic	r1, r1, #7
 1198 0110 001082E5 		str	r1, [r2]
 1199 0114 001092E5 		ldr	r1, [r2]
 1200 0118 041081E1 		orr	r1, r1, r4
 1201 011c 001082E5 		str	r1, [r2]
 1202 0120 1C201315 		ldrne	r2, [r3, #-28]
 1203 0124 00309715 		ldrne	r3, [r7]
 1204 0128 02308311 		orrne	r3, r3, r2
 1205 012c 00308715 		strne	r3, [r7]
 1206              	.L203:
 1207 0130 014084E2 		add	r4, r4, #1
 1208 0134 045085E2 		add	r5, r5, #4
 1209 0138 080054E3 		cmp	r4, #8
 1210 013c E2FFFF1A 		bne	.L205
 1211 0140 483096E5 		ldr	r3, [r6, #72]
 1212 0144 EC2C0CE3 		movw	r2, #52460
 1213 0148 2500D9E5 		ldrb	r0, [r9, #37]	@ zero_extendqisi2
 1214 014c FF2E4EE3 		movt	r2, 61183
 1215 0150 50C08DE2 		add	ip, sp, #80
 1216 0154 001093E5 		ldr	r1, [r3]
 1217 0158 000050E3 		cmp	r0, #0
 1218 015c 012002E0 		and	r2, r2, r1
 1219 0160 581096E5 		ldr	r1, [r6, #88]
 1220 0164 002083E5 		str	r2, [r3]
 1221 0168 00209315 		ldrne	r2, [r3]
 1222 016c 01228213 		orrne	r2, r2, #268435456
 1223 0170 00208315 		strne	r2, [r3]
 1224 0174 2620D9E5 		ldrb	r2, [r9, #38]	@ zero_extendqisi2
 1225 0178 000052E3 		cmp	r2, #0
 1226 017c 00209315 		ldrne	r2, [r3]
 1227 0180 01248213 		orrne	r2, r2, #16777216
 1228 0184 00208315 		strne	r2, [r3]
 1229 0188 2720D9E5 		ldrb	r2, [r9, #39]	@ zero_extendqisi2
 1230 018c 000093E5 		ldr	r0, [r3]
 1231 0190 030052E3 		cmp	r2, #3
 1232 0194 020680E1 		orr	r0, r0, r2, lsl #12
 1233 0198 02218CE0 		add	r2, ip, r2, lsl #2
 1234 019c 000083E5 		str	r0, [r3]
 1235 01a0 000091E5 		ldr	r0, [r1]
 1236 01a4 48C012E5 		ldr	ip, [r2, #-72]
 1237 01a8 0308C0E3 		bic	r0, r0, #196608
 1238 01ac 000081E5 		str	r0, [r1]
 1239 01b0 002091E5 		ldr	r2, [r1]
 1240 01b4 0C2082E1 		orr	r2, r2, ip
 1241 01b8 002081E5 		str	r2, [r1]
 1242 01bc 002093E5 		ldr	r2, [r3]
 1243 01c0 00208315 		strne	r2, [r3]
 1244 01c4 4C00000A 		beq	.L242
 1245              	.L210:
 1246 01c8 2430D9E5 		ldrb	r3, [r9, #36]	@ zero_extendqisi2
 1247 01cc 0000A0E3 		mov	r0, #0
 1248 01d0 000053E3 		cmp	r3, #0
 1249 01d4 003097E5 		ldr	r3, [r7]
 1250 01d8 013CC303 		biceq	r3, r3, #256
 1251 01dc 013C8313 		orrne	r3, r3, #256
 1252 01e0 003087E5 		str	r3, [r7]
 1253 01e4 FEFFFFEB 		bl	VDC_ShrdPrmGetBgColor
 1254 01e8 FF2CA0E3 		mov	r2, #65280
 1255 01ec 003000E3 		movw	r3, #:lower16:vdc_regaddr_img_synthesizer
 1256 01f0 003040E3 		movt	r3, #:upper16:vdc_regaddr_img_synthesizer
 1257 01f4 FF2040E3 		movt	r2, 255
 1258 01f8 002402E0 		and	r2, r2, r0, lsl #8
 1259 01fc A4C093E5 		ldr	ip, [r3, #164]
 1260 0200 581093E5 		ldr	r1, [r3, #88]
 1261 0204 5008E7E7 		ubfx	r0, r0, #16, #8
 1262 0208 020080E1 		orr	r0, r0, r2
 1263 020c FC4093E5 		ldr	r4, [r3, #252]
 1264 0210 00008CE5 		str	r0, [ip]
 1265 0214 00E091E5 		ldr	lr, [r1]
 1266 0218 B02093E5 		ldr	r2, [r3, #176]
 1267 021c D4C0DDE1 		ldrsb	ip, [sp, #4]
 1268 0220 10E08EE3 		orr	lr, lr, #16
 1269 0224 00E081E5 		str	lr, [r1]
 1270 0228 000084E5 		str	r0, [r4]
 1271 022c 01007CE3 		cmn	ip, #1
 1272 0230 000092E5 		ldr	r0, [r2]
 1273 0234 100080E3 		orr	r0, r0, #16
 1274 0238 000082E5 		str	r0, [r2]
 1275 023c 0A00000A 		beq	.L213
 1276 0240 200093E5 		ldr	r0, [r3, #32]
 1277 0244 004093E5 		ldr	r4, [r3]
 1278 0248 00E090E5 		ldr	lr, [r0]
 1279 024c 03E0CEE3 		bic	lr, lr, #3
 1280 0250 00E080E5 		str	lr, [r0]
 1281 0254 00E090E5 		ldr	lr, [r0]
 1282 0258 0EC08CE1 		orr	ip, ip, lr
 1283 025c 00C080E5 		str	ip, [r0]
 1284 0260 000094E5 		ldr	r0, [r4]
 1285 0264 100080E3 		orr	r0, r0, #16
 1286 0268 000084E5 		str	r0, [r4]
 1287              	.L213:
 1288 026c D500DDE1 		ldrsb	r0, [sp, #5]
 1289 0270 010070E3 		cmn	r0, #1
 1290 0274 0900000A 		beq	.L214
 1291 0278 78C093E5 		ldr	ip, [r3, #120]
 1292 027c 00E09CE5 		ldr	lr, [ip]
 1293 0280 03E0CEE3 		bic	lr, lr, #3
 1294 0284 00E08CE5 		str	lr, [ip]
 1295 0288 00E09CE5 		ldr	lr, [ip]
 1296 028c 0E0080E1 		orr	r0, r0, lr
 1297 0290 00008CE5 		str	r0, [ip]
 1298 0294 000091E5 		ldr	r0, [r1]
 1299 0298 100080E3 		orr	r0, r0, #16
 1300 029c 000081E5 		str	r0, [r1]
 1301              	.L214:
 1302 02a0 D610DDE1 		ldrsb	r1, [sp, #6]
 1303 02a4 010071E3 		cmn	r1, #1
 1304 02a8 0900000A 		beq	.L215
 1305 02ac D03093E5 		ldr	r3, [r3, #208]
 1306 02b0 000093E5 		ldr	r0, [r3]
 1307 02b4 0300C0E3 		bic	r0, r0, #3
 1308 02b8 000083E5 		str	r0, [r3]
 1309 02bc 000093E5 		ldr	r0, [r3]
 1310 02c0 001081E1 		orr	r1, r1, r0
 1311 02c4 001083E5 		str	r1, [r3]
 1312 02c8 003092E5 		ldr	r3, [r2]
 1313 02cc 103083E3 		orr	r3, r3, #16
 1314 02d0 003082E5 		str	r3, [r2]
 1315              	.L215:
 1316 02d4 001096E5 		ldr	r1, [r6]
 1317 02d8 442096E5 		ldr	r2, [r6, #68]
 1318 02dc 003091E5 		ldr	r3, [r1]
 1319 02e0 013083E3 		orr	r3, r3, #1
 1320 02e4 003081E5 		str	r3, [r1]
 1321 02e8 003092E5 		ldr	r3, [r2]
 1322 02ec 013083E3 		orr	r3, r3, #1
 1323 02f0 003082E5 		str	r3, [r2]
 1324 02f4 50D08DE2 		add	sp, sp, #80
 1325              		@ sp needed
 1326 02f8 F087BDE8 		pop	{r4, r5, r6, r7, r8, r9, r10, pc}
 1327              	.L242:
 1328 02fc 2800D9E5 		ldrb	r0, [r9, #40]	@ zero_extendqisi2
 1329 0300 2910D9E5 		ldrb	r1, [r9, #41]	@ zero_extendqisi2
 1330 0304 002482E1 		orr	r2, r2, r0, lsl #8
 1331 0308 000051E3 		cmp	r1, #0
 1332 030c 002083E5 		str	r2, [r3]
 1333 0310 00209315 		ldrne	r2, [r3]
 1334 0314 10208213 		orrne	r2, r2, #16
 1335 0318 00208315 		strne	r2, [r3]
 1336 031c 2A20D9E5 		ldrb	r2, [r9, #42]	@ zero_extendqisi2
 1337 0320 001093E5 		ldr	r1, [r3]
 1338 0324 012082E1 		orr	r2, r2, r1
 1339 0328 002083E5 		str	r2, [r3]
 1340 032c A5FFFFEA 		b	.L210
 1342              		.section	.text.VDC_WriteDataControl,"ax",%progbits
 1343              		.align	2
 1344              		.global	VDC_WriteDataControl
 1345              		.syntax unified
 1346              		.arm
 1347              		.fpu neon
 1349              	VDC_WriteDataControl:
 1350              		@ args = 0, pretend = 0, frame = 0
 1351              		@ frame_needed = 0, uses_anonymous_args = 0
 1352 0000 F84F2DE9 		push	{r3, r4, r5, r6, r7, r8, r9, r10, fp, lr}
 1353 0004 005000E3 		movw	r5, #:lower16:vdc_regaddr_scaler
 1354 0008 B0E0D0E1 		ldrh	lr, [r0]
 1355 000c 005040E3 		movt	r5, #:upper16:vdc_regaddr_scaler
 1356 0010 0040A0E1 		mov	r4, r0
 1357 0014 302095E5 		ldr	r2, [r5, #48]
 1358 0018 B430D0E1 		ldrh	r3, [r0, #4]
 1359 001c 0EE8A0E1 		lsl	lr, lr, #16
 1360 0020 B2C0D0E1 		ldrh	ip, [r0, #2]
 1361 0024 B600D0E1 		ldrh	r0, [r0, #6]
 1362 0028 00E082E5 		str	lr, [r2]
 1363 002c 00E092E5 		ldr	lr, [r2]
 1364 0030 0338A0E1 		lsl	r3, r3, #16
 1365 0034 341095E5 		ldr	r1, [r5, #52]
 1366 0038 706095E5 		ldr	r6, [r5, #112]
 1367 003c 0EC08CE1 		orr	ip, ip, lr
 1368 0040 10E0D4E5 		ldrb	lr, [r4, #16]	@ zero_extendqisi2
 1369 0044 00C082E5 		str	ip, [r2]
 1370 0048 003081E5 		str	r3, [r1]
 1371 004c 003091E5 		ldr	r3, [r1]
 1372 0050 11C0D4E5 		ldrb	ip, [r4, #17]	@ zero_extendqisi2
 1373 0054 1220D4E5 		ldrb	r2, [r4, #18]	@ zero_extendqisi2
 1374 0058 030080E1 		orr	r0, r0, r3
 1375 005c 747095E5 		ldr	r7, [r5, #116]
 1376 0060 000081E5 		str	r0, [r1]
 1377 0064 003096E5 		ldr	r3, [r6]
 1378 0068 000052E3 		cmp	r2, #0
 1379 006c 180094E5 		ldr	r0, [r4, #24]
 1380 0070 0738C3E3 		bic	r3, r3, #458752
 1381 0074 0D30C3E3 		bic	r3, r3, #13
 1382 0078 003086E5 		str	r3, [r6]
 1383 007c 002096E5 		ldr	r2, [r6]
 1384 0080 0E2882E1 		orr	r2, r2, lr, lsl #16
 1385 0084 002086E5 		str	r2, [r6]
 1386 0088 003096E5 		ldr	r3, [r6]
 1387 008c 0C3183E1 		orr	r3, r3, ip, lsl #2
 1388 0090 003086E5 		str	r3, [r6]
 1389 0094 00309615 		ldrne	r3, [r6]
 1390 0098 01308313 		orrne	r3, r3, #1
 1391 009c 00308615 		strne	r3, [r6]
 1392 00a0 FEFFFFEB 		bl	R_VDC_CPUVAddrToSysPAddr
 1393 00a4 000087E5 		str	r0, [r7]
 1394 00a8 1C2094E5 		ldr	r2, [r4, #28]
 1395 00ac 783095E5 		ldr	r3, [r5, #120]
 1396 00b0 1400D4E5 		ldrb	r0, [r4, #20]	@ zero_extendqisi2
 1397 00b4 0228A0E1 		lsl	r2, r2, #16
 1398 00b8 002083E5 		str	r2, [r3]
 1399 00bc 002093E5 		ldr	r2, [r3]
 1400 00c0 201094E5 		ldr	r1, [r4, #32]
 1401 00c4 012082E1 		orr	r2, r2, r1
 1402 00c8 002083E5 		str	r2, [r3]
 1403 00cc 203094E5 		ldr	r3, [r4, #32]
 1404 00d0 000053E3 		cmp	r3, #0
 1405 00d4 24209415 		ldrne	r2, [r4, #36]
 1406 00d8 7C309515 		ldrne	r3, [r5, #124]
 1407 00dc 00208315 		strne	r2, [r3]
 1408 00e0 803095E5 		ldr	r3, [r5, #128]
 1409 00e4 1620D4E5 		ldrb	r2, [r4, #22]	@ zero_extendqisi2
 1410 00e8 001093E5 		ldr	r1, [r3]
 1411 00ec 000052E3 		cmp	r2, #0
 1412 00f0 031CC1E3 		bic	r1, r1, #768
 1413 00f4 001083E5 		str	r1, [r3]
 1414 00f8 002093E5 		ldr	r2, [r3]
 1415 00fc 002482E1 		orr	r2, r2, r0, lsl #8
 1416 0100 380095E5 		ldr	r0, [r5, #56]
 1417 0104 002083E5 		str	r2, [r3]
 1418 0108 842095E5 		ldr	r2, [r5, #132]
 1419 010c 001092E5 		ldr	r1, [r2]
 1420 0110 1010C103 		biceq	r1, r1, #16
 1421 0114 10108113 		orrne	r1, r1, #16
 1422 0118 001082E5 		str	r1, [r2]
 1423 011c 1110D4E5 		ldrb	r1, [r4, #17]	@ zero_extendqisi2
 1424 0120 010051E3 		cmp	r1, #1
 1425 0124 001092E5 		ldr	r1, [r2]
 1426 0128 01108103 		orreq	r1, r1, #1
 1427 012c 0110C113 		bicne	r1, r1, #1
 1428 0130 001082E5 		str	r1, [r2]
 1429 0134 141095E5 		ldr	r1, [r5, #20]
 1430 0138 202094E5 		ldr	r2, [r4, #32]
 1431 013c 000052E3 		cmp	r2, #0
 1432 0140 002091E5 		ldr	r2, [r1]
 1433 0144 012CC203 		biceq	r2, r2, #256
 1434 0148 012C8213 		orrne	r2, r2, #256
 1435 014c 002081E5 		str	r2, [r1]
 1436 0150 0820D4E5 		ldrb	r2, [r4, #8]	@ zero_extendqisi2
 1437 0154 000052E3 		cmp	r2, #0
 1438 0158 002090E5 		ldr	r2, [r0]
 1439 015c 0222C203 		biceq	r2, r2, #536870912
 1440 0160 02228213 		orrne	r2, r2, #536870912
 1441 0164 002080E5 		str	r2, [r0]
 1442 0168 BA20D4E1 		ldrh	r2, [r4, #10]
 1443 016c 448095E5 		ldr	r8, [r5, #68]
 1444 0170 BCC0D4E1 		ldrh	ip, [r4, #12]
 1445 0174 B2E0D4E1 		ldrh	lr, [r4, #2]
 1446 0178 0278A0E1 		lsl	r7, r2, #16
 1447 017c 2C1095E5 		ldr	r1, [r5, #44]
 1448 0180 1390D4E5 		ldrb	r9, [r4, #19]	@ zero_extendqisi2
 1449 0184 007088E5 		str	r7, [r8]
 1450 0188 0E0052E1 		cmp	r2, lr
 1451 018c 00B098E5 		ldr	fp, [r8]
 1452 0190 B670D4E1 		ldrh	r7, [r4, #6]
 1453 0194 48A095E5 		ldr	r10, [r5, #72]
 1454 0198 0CB08BE1 		orr	fp, fp, ip
 1455 019c 00B088E5 		str	fp, [r8]
 1456 01a0 008091E5 		ldr	r8, [r1]
 1457 01a4 108088E3 		orr	r8, r8, #16
 1458 01a8 008081E5 		str	r8, [r1]
 1459 01ac 00809AE5 		ldr	r8, [r10]
 1460 01b0 1080C8E3 		bic	r8, r8, #16
 1461 01b4 00808AE5 		str	r8, [r10]
 1462 01b8 C800002A 		bcs	.L254
 1463 01bc 010052E3 		cmp	r2, #1
 1464 01c0 0E80D4E5 		ldrb	r8, [r4, #14]	@ zero_extendqisi2
 1465 01c4 012AA093 		movls	r2, #4096
 1466 01c8 1300009A 		bls	.L255
 1467 01cc 90EA07EE 		vmov	s15, lr	@ int
 1468 01d0 000058E3 		cmp	r8, #0
 1469 01d4 677AB8EE 		vcvt.f32.u32	s14, s15
 1470 01d8 D46A9FED 		vldr.32	s12, .L290
 1471 01dc 902A07EE 		vmov	s15, r2	@ int
 1472 01e0 677AF8EE 		vcvt.f32.u32	s15, s15
 1473 01e4 065A67EE 		vmul.f32	s11, s14, s12
 1474 01e8 A76AC5EE 		vdiv.f32	s13, s11, s15
 1475 01ec 0600000A 		beq	.L256
 1476 01f0 005AF7EE 		vmov.f32	s11, #1.0e+0
 1477 01f4 657A37EE 		vsub.f32	s14, s14, s11
 1478 01f8 E57A77EE 		vsub.f32	s15, s15, s11
 1479 01fc 067A27EE 		vmul.f32	s14, s14, s12
 1480 0200 A77A16EE 		vnmls.f32	s14, s13, s15
 1481 0204 276A87EE 		vdiv.f32	s12, s14, s15
 1482 0208 C66A76EE 		vsub.f32	s13, s13, s12
 1483              	.L256:
 1484 020c 007AF6EE 		vmov.f32	s15, #5.0e-1
 1485 0210 A76A76EE 		vadd.f32	s13, s13, s15
 1486 0214 E67AFDEE 		vcvt.s32.f32	s15, s13
 1487 0218 902A17EE 		vmov	r2, s15	@ int
 1488              	.L255:
 1489 021c 40E095E5 		ldr	lr, [r5, #64]
 1490 0220 00208EE5 		str	r2, [lr]
 1491              	.L257:
 1492 0224 002091E5 		ldr	r2, [r1]
 1493 0228 07005CE1 		cmp	ip, r7
 1494 022c 0120C223 		biccs	r2, r2, #1
 1495 0230 00208125 		strcs	r2, [r1]
 1496 0234 2100002A 		bcs	.L262
 1497 0238 01005CE3 		cmp	ip, #1
 1498 023c 012082E3 		orr	r2, r2, #1
 1499 0240 002081E5 		str	r2, [r1]
 1500 0244 B300009A 		bls	.L272
 1501 0248 907A07EE 		vmov	s15, r7	@ int
 1502 024c 677AB8EE 		vcvt.f32.u32	s14, s15
 1503 0250 B66ADFED 		vldr.32	s13, .L290
 1504 0254 90CA07EE 		vmov	s15, ip	@ int
 1505 0258 006AB7EE 		vmov.f32	s12, #1.0e+0
 1506 025c 677AF8EE 		vcvt.f32.u32	s15, s15
 1507 0260 465A77EE 		vsub.f32	s11, s14, s12
 1508 0264 267A27EE 		vmul.f32	s14, s14, s13
 1509 0268 C66A37EE 		vsub.f32	s12, s15, s12
 1510 026c A65A65EE 		vmul.f32	s11, s11, s13
 1511 0270 276AC7EE 		vdiv.f32	s13, s14, s15
 1512 0274 657AF0EE 		vmov.f32	s15, s11
 1513 0278 867A56EE 		vnmls.f32	s15, s13, s12
 1514 027c 867A87EE 		vdiv.f32	s14, s15, s12
 1515 0280 C77A36EE 		vsub.f32	s14, s13, s14
 1516 0284 C77AFDEE 		vcvt.s32.f32	s15, s14
 1517 0288 E76AF8EE 		vcvt.f32.s32	s13, s15
 1518 028c E67AB4EE 		vcmpe.f32	s14, s13
 1519 0290 10FAF1EE 		vmrs	APSR_nzcv, FPSCR
 1520 0294 902A17CE 		vmovgt	r2, s15	@ int
 1521 0298 012082C2 		addgt	r2, r2, #1
 1522 029c 902A07CE 		vmovgt	s15, r2	@ int
 1523 02a0 901A17EE 		vmov	r1, s15	@ int
 1524              	.L259:
 1525 02a4 002090E5 		ldr	r2, [r0]
 1526 02a8 2228A0E1 		lsr	r2, r2, #16
 1527 02ac 0228A0E1 		lsl	r2, r2, #16
 1528 02b0 002080E5 		str	r2, [r0]
 1529 02b4 002090E5 		ldr	r2, [r0]
 1530 02b8 011082E1 		orr	r1, r2, r1
 1531 02bc 001080E5 		str	r1, [r0]
 1532              	.L262:
 1533 02c0 3C2095E5 		ldr	r2, [r5, #60]
 1534 02c4 0F0AA0E3 		mov	r0, #61440
 1535 02c8 5CC095E5 		ldr	ip, [r5, #92]
 1536 02cc 00004FE3 		movt	r0, 61440
 1537 02d0 000059E3 		cmp	r9, #0
 1538 02d4 001092E5 		ldr	r1, [r2]
 1539 02d8 001001E0 		and	r1, r1, r0
 1540 02dc 001082E5 		str	r1, [r2]
 1541 02e0 00109CE5 		ldr	r1, [ip]
 1542 02e4 001001E0 		and	r1, r1, r0
 1543 02e8 00108CE5 		str	r1, [ip]
 1544 02ec 7000000A 		beq	.L263
 1545 02f0 001092E5 		ldr	r1, [r2]
 1546 02f4 0F00D4E5 		ldrb	r0, [r4, #15]	@ zero_extendqisi2
 1547 02f8 021381E3 		orr	r1, r1, #134217728
 1548 02fc 001082E5 		str	r1, [r2]
 1549 0300 001096E5 		ldr	r1, [r6]
 1550 0304 7010C1E3 		bic	r1, r1, #112
 1551 0308 001086E5 		str	r1, [r6]
 1552 030c 002096E5 		ldr	r2, [r6]
 1553 0310 002282E1 		orr	r2, r2, r0, lsl #4
 1554 0314 002086E5 		str	r2, [r6]
 1555 0318 002093E5 		ldr	r2, [r3]
 1556 031c 012A82E3 		orr	r2, r2, #4096
 1557 0320 002083E5 		str	r2, [r3]
 1558              	.L270:
 1559 0324 1520D4E5 		ldrb	r2, [r4, #21]	@ zero_extendqisi2
 1560 0328 281094E5 		ldr	r1, [r4, #40]
 1561 032c 000052E3 		cmp	r2, #0
 1562 0330 002093E5 		ldr	r2, [r3]
 1563 0334 1020C203 		biceq	r2, r2, #16
 1564 0338 10208213 		orrne	r2, r2, #16
 1565 033c 000051E3 		cmp	r1, #0
 1566 0340 002083E5 		str	r2, [r3]
 1567 0344 7500000A 		beq	.L266
 1568 0348 002096E5 		ldr	r2, [r6]
 1569 034c 8C0095E5 		ldr	r0, [r5, #140]
 1570 0350 903095E5 		ldr	r3, [r5, #144]
 1571 0354 802082E3 		orr	r2, r2, #128
 1572 0358 002086E5 		str	r2, [r6]
 1573 035c 001080E5 		str	r1, [r0]
 1574 0360 1C2094E5 		ldr	r2, [r4, #28]
 1575 0364 0228A0E1 		lsl	r2, r2, #16
 1576 0368 002083E5 		str	r2, [r3]
 1577 036c 002093E5 		ldr	r2, [r3]
 1578 0370 201094E5 		ldr	r1, [r4, #32]
 1579 0374 012082E1 		orr	r2, r2, r1
 1580 0378 002083E5 		str	r2, [r3]
 1581 037c 203094E5 		ldr	r3, [r4, #32]
 1582 0380 000053E3 		cmp	r3, #0
 1583 0384 5F00001A 		bne	.L289
 1584              	.L267:
 1585 0388 001095E5 		ldr	r1, [r5]
 1586 038c 6C2095E5 		ldr	r2, [r5, #108]
 1587 0390 003091E5 		ldr	r3, [r1]
 1588 0394 013A83E3 		orr	r3, r3, #4096
 1589 0398 113083E3 		orr	r3, r3, #17
 1590 039c 003081E5 		str	r3, [r1]
 1591 03a0 003092E5 		ldr	r3, [r2]
 1592 03a4 013883E3 		orr	r3, r3, #65536
 1593 03a8 113083E3 		orr	r3, r3, #17
 1594 03ac 003082E5 		str	r3, [r2]
 1595 03b0 FEFFFFEB 		bl	VDC_ShrdPrmGetColorSpace
 1596 03b4 0040A0E1 		mov	r4, r0
 1597 03b8 FEFFFFEB 		bl	VDC_ShrdPrmGetColorSpaceFbWr
 1598 03bc 000054E3 		cmp	r4, #0
 1599 03c0 4A00001A 		bne	.L268
 1600 03c4 000090E2 		adds	r0, r0, #0
 1601 03c8 0100A013 		movne	r0, #1
 1602 03cc 8011A0E1 		lsl	r1, r0, #3
 1603 03d0 001081E0 		add	r1, r1, r0
 1604 03d4 8110A0E1 		lsl	r1, r1, #1
 1605              	.L269:
 1606 03d8 003000E3 		movw	r3, #:lower16:vdc_regaddr_color_matrix
 1607 03dc 00C000E3 		movw	ip, #:lower16:.LANCHOR4
 1608 03e0 003040E3 		movt	r3, #:upper16:vdc_regaddr_color_matrix
 1609 03e4 00C040E3 		movt	ip, #:upper16:.LANCHOR4
 1610 03e8 08E093E5 		ldr	lr, [r3, #8]
 1611 03ec 01208CE0 		add	r2, ip, r1
 1612 03f0 046093E5 		ldr	r6, [r3, #4]
 1613 03f4 B1509CE1 		ldrh	r5, [ip, r1]
 1614 03f8 0245A0E3 		mov	r4, #8388608
 1615 03fc B2C0D2E1 		ldrh	ip, [r2, #2]
 1616 0400 000086E5 		str	r0, [r6]
 1617 0404 00408EE5 		str	r4, [lr]
 1618 0408 00609EE5 		ldr	r6, [lr]
 1619 040c 0C1093E5 		ldr	r1, [r3, #12]
 1620 0410 0C08A0E1 		lsl	r0, ip, #16
 1621 0414 06C085E1 		orr	ip, r5, r6
 1622 0418 B450D2E1 		ldrh	r5, [r2, #4]
 1623 041c 00C08EE5 		str	ip, [lr]
 1624 0420 000081E5 		str	r0, [r1]
 1625 0424 00E091E5 		ldr	lr, [r1]
 1626 0428 10C093E5 		ldr	ip, [r3, #16]
 1627 042c B800D2E1 		ldrh	r0, [r2, #8]
 1628 0430 0E5085E1 		orr	r5, r5, lr
 1629 0434 B6E0D2E1 		ldrh	lr, [r2, #6]
 1630 0438 005081E5 		str	r5, [r1]
 1631 043c 00408CE5 		str	r4, [ip]
 1632 0440 00509CE5 		ldr	r5, [ip]
 1633 0444 0008A0E1 		lsl	r0, r0, #16
 1634 0448 141093E5 		ldr	r1, [r3, #20]
 1635 044c 05E08EE1 		orr	lr, lr, r5
 1636 0450 BA50D2E1 		ldrh	r5, [r2, #10]
 1637 0454 00E08CE5 		str	lr, [ip]
 1638 0458 000081E5 		str	r0, [r1]
 1639 045c 00E091E5 		ldr	lr, [r1]
 1640 0460 18C093E5 		ldr	ip, [r3, #24]
 1641 0464 BE00D2E1 		ldrh	r0, [r2, #14]
 1642 0468 0E5085E1 		orr	r5, r5, lr
 1643 046c BCE0D2E1 		ldrh	lr, [r2, #12]
 1644 0470 005081E5 		str	r5, [r1]
 1645 0474 00408CE5 		str	r4, [ip]
 1646 0478 00409CE5 		ldr	r4, [ip]
 1647 047c 0008A0E1 		lsl	r0, r0, #16
 1648 0480 1C1093E5 		ldr	r1, [r3, #28]
 1649 0484 04E08EE1 		orr	lr, lr, r4
 1650 0488 00E08CE5 		str	lr, [ip]
 1651 048c 000081E5 		str	r0, [r1]
 1652 0490 00C091E5 		ldr	ip, [r1]
 1653 0494 B021D2E1 		ldrh	r2, [r2, #16]
 1654 0498 000093E5 		ldr	r0, [r3]
 1655 049c 0C3082E1 		orr	r3, r2, ip
 1656 04a0 003081E5 		str	r3, [r1]
 1657 04a4 003090E5 		ldr	r3, [r0]
 1658 04a8 013083E3 		orr	r3, r3, #1
 1659 04ac 003080E5 		str	r3, [r0]
 1660 04b0 F88FBDE8 		pop	{r3, r4, r5, r6, r7, r8, r9, r10, fp, pc}
 1661              	.L263:
 1662 04b4 001096E5 		ldr	r1, [r6]
 1663 04b8 0F00D4E5 		ldrb	r0, [r4, #15]	@ zero_extendqisi2
 1664 04bc 7010C1E3 		bic	r1, r1, #112
 1665 04c0 001086E5 		str	r1, [r6]
 1666 04c4 002096E5 		ldr	r2, [r6]
 1667 04c8 002282E1 		orr	r2, r2, r0, lsl #4
 1668 04cc 002086E5 		str	r2, [r6]
 1669 04d0 002093E5 		ldr	r2, [r3]
 1670 04d4 012AC2E3 		bic	r2, r2, #4096
 1671 04d8 002083E5 		str	r2, [r3]
 1672 04dc 90FFFFEA 		b	.L270
 1673              	.L254:
 1674 04e0 402095E5 		ldr	r2, [r5, #64]
 1675 04e4 01EAA0E3 		mov	lr, #4096
 1676 04e8 00E082E5 		str	lr, [r2]
 1677 04ec 4CFFFFEA 		b	.L257
 1678              	.L268:
 1679 04f0 000050E3 		cmp	r0, #0
 1680 04f4 3610A013 		movne	r1, #54
 1681 04f8 2410A003 		moveq	r1, #36
 1682 04fc 0300A013 		movne	r0, #3
 1683 0500 0200A003 		moveq	r0, #2
 1684 0504 B3FFFFEA 		b	.L269
 1685              	.L289:
 1686 0508 242094E5 		ldr	r2, [r4, #36]
 1687 050c 943095E5 		ldr	r3, [r5, #148]
 1688 0510 002083E5 		str	r2, [r3]
 1689 0514 9BFFFFEA 		b	.L267
 1690              	.L272:
 1691 0518 011AA0E3 		mov	r1, #4096
 1692 051c 60FFFFEA 		b	.L259
 1693              	.L266:
 1694 0520 003096E5 		ldr	r3, [r6]
 1695 0524 8030C3E3 		bic	r3, r3, #128
 1696 0528 003086E5 		str	r3, [r6]
 1697 052c 95FFFFEA 		b	.L267
 1698              	.L291:
 1699              		.align	2
 1700              	.L290:
 1701 0530 00008045 		.word	1166016512
 1703              		.section	.text.VDC_ChangeWriteProcess,"ax",%progbits
 1704              		.align	2
 1705              		.global	VDC_ChangeWriteProcess
 1706              		.syntax unified
 1707              		.arm
 1708              		.fpu neon
 1710              	VDC_ChangeWriteProcess:
 1711              		@ args = 0, pretend = 0, frame = 0
 1712              		@ frame_needed = 0, uses_anonymous_args = 0
 1713 0000 B020D0E1 		ldrh	r2, [r0]
 1714 0004 F0412DE9 		push	{r4, r5, r6, r7, r8, lr}
 1715 0008 004000E3 		movw	r4, #:lower16:vdc_regaddr_scaler
 1716 000c 004040E3 		movt	r4, #:upper16:vdc_regaddr_scaler
 1717 0010 0050A0E1 		mov	r5, r0
 1718 0014 300094E5 		ldr	r0, [r4, #48]
 1719 0018 0228A0E1 		lsl	r2, r2, #16
 1720 001c B410D5E1 		ldrh	r1, [r5, #4]
 1721 0020 0860D5E5 		ldrb	r6, [r5, #8]	@ zero_extendqisi2
 1722 0024 B2C0D5E1 		ldrh	ip, [r5, #2]
 1723 0028 002080E5 		str	r2, [r0]
 1724 002c 00E090E5 		ldr	lr, [r0]
 1725 0030 0118A0E1 		lsl	r1, r1, #16
 1726 0034 343094E5 		ldr	r3, [r4, #52]
 1727 0038 000056E3 		cmp	r6, #0
 1728 003c B620D5E1 		ldrh	r2, [r5, #6]
 1729 0040 0EC08CE1 		orr	ip, ip, lr
 1730 0044 386094E5 		ldr	r6, [r4, #56]
 1731 0048 00C080E5 		str	ip, [r0]
 1732 004c 001083E5 		str	r1, [r3]
 1733 0050 001093E5 		ldr	r1, [r3]
 1734 0054 012082E1 		orr	r2, r2, r1
 1735 0058 BA10D5E1 		ldrh	r1, [r5, #10]
 1736 005c 002083E5 		str	r2, [r3]
 1737 0060 003096E5 		ldr	r3, [r6]
 1738 0064 BC20D5E1 		ldrh	r2, [r5, #12]
 1739 0068 0118A0E1 		lsl	r1, r1, #16
 1740 006c 0232C303 		biceq	r3, r3, #536870912
 1741 0070 02328313 		orrne	r3, r3, #536870912
 1742 0074 003086E5 		str	r3, [r6]
 1743 0078 443094E5 		ldr	r3, [r4, #68]
 1744 007c 001083E5 		str	r1, [r3]
 1745 0080 001093E5 		ldr	r1, [r3]
 1746 0084 012082E1 		orr	r2, r2, r1
 1747 0088 002083E5 		str	r2, [r3]
 1748 008c FEFFFFEB 		bl	VDC_ShrdPrmGetInterlace
 1749 0090 2C3094E5 		ldr	r3, [r4, #44]
 1750 0094 488094E5 		ldr	r8, [r4, #72]
 1751 0098 B220D5E1 		ldrh	r2, [r5, #2]
 1752 009c 00E093E5 		ldr	lr, [r3]
 1753 00a0 BA10D5E1 		ldrh	r1, [r5, #10]
 1754 00a4 B6C0D5E1 		ldrh	ip, [r5, #6]
 1755 00a8 10E08EE3 		orr	lr, lr, #16
 1756 00ac BC70D5E1 		ldrh	r7, [r5, #12]
 1757 00b0 00E083E5 		str	lr, [r3]
 1758 00b4 010052E1 		cmp	r2, r1
 1759 00b8 00E098E5 		ldr	lr, [r8]
 1760 00bc 10E0CEE3 		bic	lr, lr, #16
 1761 00c0 00E088E5 		str	lr, [r8]
 1762 00c4 6000009A 		bls	.L295
 1763 00c8 010051E3 		cmp	r1, #1
 1764 00cc 0EE0D5E5 		ldrb	lr, [r5, #14]	@ zero_extendqisi2
 1765 00d0 012AA093 		movls	r2, #4096
 1766 00d4 1300009A 		bls	.L296
 1767 00d8 902A07EE 		vmov	s15, r2	@ int
 1768 00dc 00005EE3 		cmp	lr, #0
 1769 00e0 5F6A9FED 		vldr.32	s12, .L315
 1770 00e4 677AF8EE 		vcvt.f32.u32	s15, s15
 1771 00e8 101A07EE 		vmov	s14, r1	@ int
 1772 00ec 477AB8EE 		vcvt.f32.u32	s14, s14
 1773 00f0 865A67EE 		vmul.f32	s11, s15, s12
 1774 00f4 876AC5EE 		vdiv.f32	s13, s11, s14
 1775 00f8 0600000A 		beq	.L297
 1776 00fc 005AF7EE 		vmov.f32	s11, #1.0e+0
 1777 0100 E57A77EE 		vsub.f32	s15, s15, s11
 1778 0104 657A37EE 		vsub.f32	s14, s14, s11
 1779 0108 867A67EE 		vmul.f32	s15, s15, s12
 1780 010c 877A56EE 		vnmls.f32	s15, s13, s14
 1781 0110 876A87EE 		vdiv.f32	s12, s15, s14
 1782 0114 C66A76EE 		vsub.f32	s13, s13, s12
 1783              	.L297:
 1784 0118 007AF6EE 		vmov.f32	s15, #5.0e-1
 1785 011c A76A76EE 		vadd.f32	s13, s13, s15
 1786 0120 E67AFDEE 		vcvt.s32.f32	s15, s13
 1787 0124 902A17EE 		vmov	r2, s15	@ int
 1788              	.L296:
 1789 0128 401094E5 		ldr	r1, [r4, #64]
 1790 012c 002081E5 		str	r2, [r1]
 1791              	.L298:
 1792 0130 002093E5 		ldr	r2, [r3]
 1793 0134 07005CE1 		cmp	ip, r7
 1794 0138 0120C293 		bicls	r2, r2, #1
 1795 013c 00208395 		strls	r2, [r3]
 1796 0140 2100009A 		bls	.L303
 1797 0144 010057E3 		cmp	r7, #1
 1798 0148 012082E3 		orr	r2, r2, #1
 1799 014c 002083E5 		str	r2, [r3]
 1800 0150 4100009A 		bls	.L306
 1801 0154 90CA07EE 		vmov	s15, ip	@ int
 1802 0158 416ADFED 		vldr.32	s13, .L315
 1803 015c 677AF8EE 		vcvt.f32.u32	s15, s15
 1804 0160 107A07EE 		vmov	s14, r7	@ int
 1805 0164 006AB7EE 		vmov.f32	s12, #1.0e+0
 1806 0168 477AB8EE 		vcvt.f32.u32	s14, s14
 1807 016c C65A77EE 		vsub.f32	s11, s15, s12
 1808 0170 A67A67EE 		vmul.f32	s15, s15, s13
 1809 0174 466A37EE 		vsub.f32	s12, s14, s12
 1810 0178 A65A65EE 		vmul.f32	s11, s11, s13
 1811 017c 876AC7EE 		vdiv.f32	s13, s15, s14
 1812 0180 657AF0EE 		vmov.f32	s15, s11
 1813 0184 867A56EE 		vnmls.f32	s15, s13, s12
 1814 0188 867A87EE 		vdiv.f32	s14, s15, s12
 1815 018c C77A36EE 		vsub.f32	s14, s13, s14
 1816 0190 C77AFDEE 		vcvt.s32.f32	s15, s14
 1817 0194 E76AF8EE 		vcvt.f32.s32	s13, s15
 1818 0198 E67AB4EE 		vcmpe.f32	s14, s13
 1819 019c 10FAF1EE 		vmrs	APSR_nzcv, FPSCR
 1820 01a0 903A17CE 		vmovgt	r3, s15	@ int
 1821 01a4 013083C2 		addgt	r3, r3, #1
 1822 01a8 903A07CE 		vmovgt	s15, r3	@ int
 1823 01ac 902A17EE 		vmov	r2, s15	@ int
 1824              	.L300:
 1825 01b0 003096E5 		ldr	r3, [r6]
 1826 01b4 2338A0E1 		lsr	r3, r3, #16
 1827 01b8 0338A0E1 		lsl	r3, r3, #16
 1828 01bc 003086E5 		str	r3, [r6]
 1829 01c0 003096E5 		ldr	r3, [r6]
 1830 01c4 022083E1 		orr	r2, r3, r2
 1831 01c8 002086E5 		str	r2, [r6]
 1832              	.L303:
 1833 01cc 3C3094E5 		ldr	r3, [r4, #60]
 1834 01d0 0F1AA0E3 		mov	r1, #61440
 1835 01d4 5CC094E5 		ldr	ip, [r4, #92]
 1836 01d8 00104FE3 		movt	r1, 61440
 1837 01dc 000050E3 		cmp	r0, #0
 1838 01e0 0FE0D5E5 		ldrb	lr, [r5, #15]	@ zero_extendqisi2
 1839 01e4 002093E5 		ldr	r2, [r3]
 1840 01e8 000094E5 		ldr	r0, [r4]
 1841 01ec 012002E0 		and	r2, r2, r1
 1842 01f0 002083E5 		str	r2, [r3]
 1843 01f4 00209CE5 		ldr	r2, [ip]
 1844 01f8 012002E0 		and	r2, r2, r1
 1845 01fc 00208CE5 		str	r2, [ip]
 1846 0200 00209315 		ldrne	r2, [r3]
 1847 0204 6CC094E5 		ldr	ip, [r4, #108]
 1848 0208 02238213 		orrne	r2, r2, #134217728
 1849 020c 00208315 		strne	r2, [r3]
 1850 0210 703094E5 		ldr	r3, [r4, #112]
 1851 0214 001093E5 		ldr	r1, [r3]
 1852 0218 7010C1E3 		bic	r1, r1, #112
 1853 021c 001083E5 		str	r1, [r3]
 1854 0220 002093E5 		ldr	r2, [r3]
 1855 0224 0E2282E1 		orr	r2, r2, lr, lsl #4
 1856 0228 002083E5 		str	r2, [r3]
 1857 022c 00309CE5 		ldr	r3, [ip]
 1858 0230 113083E3 		orr	r3, r3, #17
 1859 0234 00308CE5 		str	r3, [ip]
 1860 0238 003090E5 		ldr	r3, [r0]
 1861 023c 013A83E3 		orr	r3, r3, #4096
 1862 0240 113083E3 		orr	r3, r3, #17
 1863 0244 003080E5 		str	r3, [r0]
 1864 0248 F081BDE8 		pop	{r4, r5, r6, r7, r8, pc}
 1865              	.L295:
 1866 024c 402094E5 		ldr	r2, [r4, #64]
 1867 0250 011AA0E3 		mov	r1, #4096
 1868 0254 001082E5 		str	r1, [r2]
 1869 0258 B4FFFFEA 		b	.L298
 1870              	.L306:
 1871 025c 012AA0E3 		mov	r2, #4096
 1872 0260 D2FFFFEA 		b	.L300
 1873              	.L316:
 1874              		.align	2
 1875              	.L315:
 1876 0264 00008045 		.word	1166016512
 1878              		.global	__aeabi_uidiv
 1879              		.section	.text.VDC_ReadDataControl,"ax",%progbits
 1880              		.align	2
 1881              		.global	VDC_ReadDataControl
 1882              		.syntax unified
 1883              		.arm
 1884              		.fpu neon
 1886              	VDC_ReadDataControl:
 1887              		@ args = 0, pretend = 0, frame = 0
 1888              		@ frame_needed = 0, uses_anonymous_args = 0
 1889 0000 F04F2DE9 		push	{r4, r5, r6, r7, r8, r9, r10, fp, lr}
 1890 0004 0140A0E1 		mov	r4, r1
 1891 0008 0CD04DE2 		sub	sp, sp, #12
 1892 000c 0070A0E1 		mov	r7, r0
 1893 0010 FEFFFFEB 		bl	VDC_ShrdPrmGetFrBuffWidth_Rd
 1894 0014 0130D4E5 		ldrb	r3, [r4, #1]	@ zero_extendqisi2
 1895 0018 0080A0E1 		mov	r8, r0
 1896 001c 010053E3 		cmp	r3, #1
 1897 0020 F900000A 		beq	.L347
 1898 0024 B621D4E1 		ldrh	r2, [r4, #22]
 1899 0028 B010D0E1 		ldrh	r1, [r0]
 1900 002c 020051E1 		cmp	r1, r2
 1901 0030 0120A033 		movcc	r2, #1
 1902 0034 E600002A 		bcs	.L348
 1903 0038 000057E3 		cmp	r7, #0
 1904 003c EB00000A 		beq	.L320
 1905              	.L319:
 1906 0040 006000E3 		movw	r6, #:lower16:vdc_regaddr_img_synthesizer
 1907 0044 5820A0E3 		mov	r2, #88
 1908 0048 006040E3 		movt	r6, #:upper16:vdc_regaddr_img_synthesizer
 1909 004c 0000D4E5 		ldrb	r0, [r4]	@ zero_extendqisi2
 1910 0050 926722E0 		mla	r2, r2, r7, r6
 1911 0054 000050E3 		cmp	r0, #0
 1912 0058 FE1C0FE3 		movw	r1, #64766
 1913 005c 082092E5 		ldr	r2, [r2, #8]
 1914 0060 FE1F4FE3 		movt	r1, 65534
 1915 0064 000092E5 		ldr	r0, [r2]
 1916 0068 001001E0 		and	r1, r1, r0
 1917 006c 0300D4E5 		ldrb	r0, [r4, #3]	@ zero_extendqisi2
 1918 0070 001082E5 		str	r1, [r2]
 1919 0074 00109215 		ldrne	r1, [r2]
 1920 0078 01188113 		orrne	r1, r1, #65536
 1921 007c 00108215 		strne	r1, [r2]
 1922 0080 000050E3 		cmp	r0, #0
 1923 0084 001092E5 		ldr	r1, [r2]
 1924 0088 031481E1 		orr	r1, r1, r3, lsl #8
 1925 008c 001082E5 		str	r1, [r2]
 1926 0090 00109215 		ldrne	r1, [r2]
 1927 0094 01108113 		orrne	r1, r1, #1
 1928 0098 00108215 		strne	r1, [r2]
 1929 009c 020053E3 		cmp	r3, #2
 1930 00a0 E600000A 		beq	.L349
 1931              	.L324:
 1932 00a4 5850A0E3 		mov	r5, #88
 1933 00a8 040094E5 		ldr	r0, [r4, #4]
 1934 00ac 956725E0 		mla	r5, r5, r7, r6
 1935 00b0 0C9095E5 		ldr	r9, [r5, #12]
 1936 00b4 FEFFFFEB 		bl	R_VDC_CPUVAddrToSysPAddr
 1937 00b8 102095E5 		ldr	r2, [r5, #16]
 1938 00bc 0700C0E3 		bic	r0, r0, #7
 1939 00c0 000089E5 		str	r0, [r9]
 1940 00c4 3F1BA0E3 		mov	r1, #64512
 1941 00c8 001048E3 		movt	r1, 32768
 1942 00cc 180095E5 		ldr	r0, [r5, #24]
 1943 00d0 003092E5 		ldr	r3, [r2]
 1944 00d4 FFC700E3 		movw	ip, #2047
 1945 00d8 1C5095E5 		ldr	r5, [r5, #28]
 1946 00dc 013003E0 		and	r3, r3, r1
 1947 00e0 003082E5 		str	r3, [r2]
 1948 00e4 C0330EE3 		movw	r3, #58304
 1949 00e8 001092E5 		ldr	r1, [r2]
 1950 00ec 003840E3 		movt	r3, 2048
 1951 00f0 08E094E5 		ldr	lr, [r4, #8]
 1952 00f4 0E1881E1 		orr	r1, r1, lr, lsl #16
 1953 00f8 B0E0D8E1 		ldrh	lr, [r8]
 1954 00fc 001082E5 		str	r1, [r2]
 1955 0100 00C080E5 		str	ip, [r0]
 1956 0104 01E04EE2 		sub	lr, lr, #1
 1957 0108 00C090E5 		ldr	ip, [r0]
 1958 010c B220D8E1 		ldrh	r2, [r8, #2]
 1959 0110 1180D4E5 		ldrb	r8, [r4, #17]	@ zero_extendqisi2
 1960 0114 0EC88CE1 		orr	ip, ip, lr, lsl #16
 1961 0118 011042E2 		sub	r1, r2, #1
 1962 011c 00C080E5 		str	ip, [r0]
 1963 0120 002095E5 		ldr	r2, [r5]
 1964 0124 1300D4E5 		ldrb	r0, [r4, #19]	@ zero_extendqisi2
 1965 0128 01C0D4E5 		ldrb	ip, [r4, #1]	@ zero_extendqisi2
 1966 012c 023003E0 		and	r3, r3, r2
 1967 0130 003085E5 		str	r3, [r5]
 1968 0134 002095E5 		ldr	r2, [r5]
 1969 0138 01005CE3 		cmp	ip, #1
 1970 013c 082E82E1 		orr	r2, r2, r8, lsl #28
 1971 0140 002085E5 		str	r2, [r5]
 1972 0144 002095E5 		ldr	r2, [r5]
 1973 0148 012882E1 		orr	r2, r2, r1, lsl #16
 1974 014c 002085E5 		str	r2, [r5]
 1975 0150 003095E5 		ldr	r3, [r5]
 1976 0154 003583E1 		orr	r3, r3, r0, lsl #10
 1977 0158 003085E5 		str	r3, [r5]
 1978 015c D500009A 		bls	.L350
 1979              	.L326:
 1980 0160 5830A0E3 		mov	r3, #88
 1981 0164 000057E3 		cmp	r7, #0
 1982 0168 936723E0 		mla	r3, r3, r7, r6
 1983 016c B4A1D4E1 		ldrh	r10, [r4, #20]
 1984 0170 B8E1D4E1 		ldrh	lr, [r4, #24]
 1985 0174 B691D4E1 		ldrh	r9, [r4, #22]
 1986 0178 01B047E2 		sub	fp, r7, #1
 1987 017c BAC1D4E1 		ldrh	ip, [r4, #26]
 1988 0180 202093E5 		ldr	r2, [r3, #32]
 1989 0184 0AA8A0E1 		lsl	r10, r10, #16
 1990 0188 0EE8A0E1 		lsl	lr, lr, #16
 1991 018c 003092E5 		ldr	r3, [r2]
 1992 0190 0330C3E3 		bic	r3, r3, #3
 1993 0194 003082E5 		str	r3, [r2]
 1994 0198 003092E5 		ldr	r3, [r2]
 1995 019c 01308313 		orrne	r3, r3, #1
 1996 01a0 01005BE3 		cmp	fp, #1
 1997 01a4 003082E5 		str	r3, [r2]
 1998 01a8 5830A0E3 		mov	r3, #88
 1999 01ac 936723E0 		mla	r3, r3, r7, r6
 2000 01b0 240093E5 		ldr	r0, [r3, #36]
 2001 01b4 281093E5 		ldr	r1, [r3, #40]
 2002 01b8 00A080E5 		str	r10, [r0]
 2003 01bc 00A090E5 		ldr	r10, [r0]
 2004 01c0 0A9089E1 		orr	r9, r9, r10
 2005 01c4 009080E5 		str	r9, [r0]
 2006 01c8 00E081E5 		str	lr, [r1]
 2007 01cc 00E091E5 		ldr	lr, [r1]
 2008 01d0 0EC08CE1 		orr	ip, ip, lr
 2009 01d4 00C081E5 		str	ip, [r1]
 2010 01d8 9F00009A 		bls	.L351
 2011 01dc 382093E5 		ldr	r2, [r3, #56]
 2012 01e0 000057E3 		cmp	r7, #0
 2013 01e4 003092E5 		ldr	r3, [r2]
 2014 01e8 0130C3E3 		bic	r3, r3, #1
 2015 01ec 003082E5 		str	r3, [r2]
 2016 01f0 6E00001A 		bne	.L330
 2017 01f4 441096E5 		ldr	r1, [r6, #68]
 2018 01f8 080058E3 		cmp	r8, #8
 2019 01fc 482096E5 		ldr	r2, [r6, #72]
 2020 0200 0000A0E3 		mov	r0, #0
 2021 0204 003091E5 		ldr	r3, [r1]
 2022 0208 FF3483E3 		orr	r3, r3, #-16777216
 2023 020c 003081E5 		str	r3, [r1]
 2024 0210 003092E5 		ldr	r3, [r2]
 2025 0214 FF3483E3 		orr	r3, r3, #-16777216
 2026 0218 003082E5 		str	r3, [r2]
 2027 021c 003095E5 		ldr	r3, [r5]
 2028 0220 1220D405 		ldrbeq	r2, [r4, #18]	@ zero_extendqisi2
 2029 0224 0E3AC3E3 		bic	r3, r3, #57344
 2030 0228 003085E5 		str	r3, [r5]
 2031 022c 00309505 		ldreq	r3, [r5]
 2032 0230 00309515 		ldrne	r3, [r5]
 2033 0234 82368301 		orreq	r3, r3, r2, lsl #13
 2034 0238 00308505 		streq	r3, [r5]
 2035 023c 00309505 		ldreq	r3, [r5]
 2036 0240 013C8303 		orreq	r3, r3, #256
 2037 0244 003085E5 		str	r3, [r5]
 2038 0248 FEFFFFEB 		bl	VDC_ShrdPrmGetColorSpaceFbRd
 2039 024c 003000E3 		movw	r3, #:lower16:vdc_regaddr_scaler
 2040 0250 0040A0E1 		mov	r4, r0
 2041 0254 003040E3 		movt	r3, #:upper16:vdc_regaddr_scaler
 2042 0258 005096E5 		ldr	r5, [r6]
 2043 025c 68A093E5 		ldr	r10, [r3, #104]
 2044 0260 008093E5 		ldr	r8, [r3]
 2045 0264 4C9096E5 		ldr	r9, [r6, #76]
 2046 0268 FEFFFFEB 		bl	VDC_ShrdPrmGetBgColor
 2047 026c FF3CA0E3 		mov	r3, #65280
 2048 0270 00008AE5 		str	r0, [r10]
 2049 0274 FF3040E3 		movt	r3, 255
 2050 0278 00E098E5 		ldr	lr, [r8]
 2051 027c 003403E0 		and	r3, r3, r0, lsl #8
 2052 0280 000054E3 		cmp	r4, #0
 2053 0284 671100E3 		movw	r1, #359
 2054 0288 5008E7E7 		ubfx	r0, r0, #16, #8
 2055 028c 01C0A011 		movne	ip, r1
 2056 0290 030080E1 		orr	r0, r0, r3
 2057 0294 10108EE3 		orr	r1, lr, #16
 2058 0298 001088E5 		str	r1, [r8]
 2059 029c 003000E3 		movw	r3, #:lower16:vdc_regaddr_color_matrix
 2060 02a0 000089E5 		str	r0, [r9]
 2061 02a4 003040E3 		movt	r3, #:upper16:vdc_regaddr_color_matrix
 2062 02a8 000095E5 		ldr	r0, [r5]
 2063 02ac 0080A0E3 		mov	r8, #0
 2064 02b0 491700E3 		movw	r1, #1865
 2065 02b4 249093E5 		ldr	r9, [r3, #36]
 2066 02b8 A88740E3 		movt	r8, 1960
 2067 02bc 01A0A011 		movne	r10, r1
 2068 02c0 100080E3 		orr	r0, r0, #16
 2069 02c4 0810A011 		movne	r1, r8
 2070 02c8 288093E5 		ldr	r8, [r3, #40]
 2071 02cc 04E0A001 		moveq	lr, r4
 2072 02d0 000085E5 		str	r0, [r5]
 2073 02d4 0400A001 		moveq	r0, r4
 2074 02d8 0200A013 		movne	r0, #2
 2075 02dc 0410A001 		moveq	r1, r4
 2076 02e0 000089E5 		str	r0, [r9]
 2077 02e4 0205A0E3 		mov	r0, #8388608
 2078 02e8 000088E5 		str	r0, [r8]
 2079 02ec 04A0A001 		moveq	r10, r4
 2080 02f0 00B098E5 		ldr	fp, [r8]
 2081 02f4 01ECA013 		movne	lr, #256
 2082 02f8 2C9093E5 		ldr	r9, [r3, #44]
 2083 02fc 0020A0E3 		mov	r2, #0
 2084 0300 C62140E3 		movt	r2, 454
 2085 0304 0124A003 		moveq	r2, #16777216
 2086 0308 014C8BE3 		orr	r4, fp, #256
 2087 030c 0050A0E3 		mov	r5, #0
 2088 0310 004088E5 		str	r4, [r8]
 2089 0314 01CCA003 		moveq	ip, #256
 2090 0318 001089E5 		str	r1, [r9]
 2091 031c 001099E5 		ldr	r1, [r9]
 2092 0320 308093E5 		ldr	r8, [r3, #48]
 2093 0324 344093E5 		ldr	r4, [r3, #52]
 2094 0328 0A1081E1 		orr	r1, r1, r10
 2095 032c 001089E5 		str	r1, [r9]
 2096 0330 000088E5 		str	r0, [r8]
 2097 0334 009098E5 		ldr	r9, [r8]
 2098 0338 381093E5 		ldr	r1, [r3, #56]
 2099 033c 0E9089E1 		orr	r9, r9, lr
 2100 0340 009088E5 		str	r9, [r8]
 2101 0344 002084E5 		str	r2, [r4]
 2102 0348 008094E5 		ldr	r8, [r4]
 2103 034c 3C2093E5 		ldr	r2, [r3, #60]
 2104 0350 008084E5 		str	r8, [r4]
 2105 0354 000081E5 		str	r0, [r1]
 2106 0358 000091E5 		ldr	r0, [r1]
 2107 035c 0E0080E1 		orr	r0, r0, lr
 2108 0360 000081E5 		str	r0, [r1]
 2109 0364 005082E5 		str	r5, [r2]
 2110 0368 001092E5 		ldr	r1, [r2]
 2111 036c 0C1081E1 		orr	r1, r1, ip
 2112 0370 001082E5 		str	r1, [r2]
 2113 0374 202093E5 		ldr	r2, [r3, #32]
 2114 0378 003092E5 		ldr	r3, [r2]
 2115 037c 013083E3 		orr	r3, r3, #1
 2116 0380 003082E5 		str	r3, [r2]
 2117 0384 003000E3 		movw	r3, #:lower16:vdc_regaddr_img_qlty_imp
 2118 0388 003040E3 		movt	r3, #:upper16:vdc_regaddr_img_qlty_imp
 2119 038c 081093E5 		ldr	r1, [r3, #8]
 2120 0390 002091E5 		ldr	r2, [r1]
 2121 0394 1020C203 		biceq	r2, r2, #16
 2122 0398 10208213 		orrne	r2, r2, #16
 2123 039c 002081E5 		str	r2, [r1]
 2124 03a0 002093E5 		ldr	r2, [r3]
 2125 03a4 003092E5 		ldr	r3, [r2]
 2126 03a8 013083E3 		orr	r3, r3, #1
 2127 03ac 003082E5 		str	r3, [r2]
 2128              	.L330:
 2129 03b0 5830A0E3 		mov	r3, #88
 2130 03b4 930707E0 		mul	r7, r3, r7
 2131 03b8 072096E7 		ldr	r2, [r6, r7]
 2132 03bc 003092E5 		ldr	r3, [r2]
 2133 03c0 113E83E3 		orr	r3, r3, #272
 2134 03c4 013083E3 		orr	r3, r3, #1
 2135 03c8 003082E5 		str	r3, [r2]
 2136 03cc 0CD08DE2 		add	sp, sp, #12
 2137              		@ sp needed
 2138 03d0 F08FBDE8 		pop	{r4, r5, r6, r7, r8, r9, r10, fp, pc}
 2139              	.L348:
 2140 03d4 B220D0E1 		ldrh	r2, [r0, #2]
 2141 03d8 BA11D4E1 		ldrh	r1, [r4, #26]
 2142 03dc 010052E1 		cmp	r2, r1
 2143 03e0 0020A023 		movcs	r2, #0
 2144 03e4 0120A033 		movcc	r2, #1
 2145 03e8 000057E3 		cmp	r7, #0
 2146 03ec 13FFFF1A 		bne	.L319
 2147              	.L320:
 2148 03f0 00208DE5 		str	r2, [sp]
 2149 03f4 0810A0E1 		mov	r1, r8
 2150 03f8 142084E2 		add	r2, r4, #20
 2151 03fc 0000A0E3 		mov	r0, #0
 2152 0400 FEFFFFEB 		bl	SetScalerGraphics
 2153 0404 0130D4E5 		ldrb	r3, [r4, #1]	@ zero_extendqisi2
 2154 0408 0CFFFFEA 		b	.L319
 2155              	.L347:
 2156 040c 000057E3 		cmp	r7, #0
 2157 0410 0AFFFF1A 		bne	.L319
 2158 0414 B621D4E1 		ldrh	r2, [r4, #22]
 2159 0418 B010D0E1 		ldrh	r1, [r0]
 2160 041c 020051E1 		cmp	r1, r2
 2161 0420 0320A031 		movcc	r2, r3
 2162 0424 F1FFFF3A 		bcc	.L320
 2163 0428 B220D0E1 		ldrh	r2, [r0, #2]
 2164 042c BA11D4E1 		ldrh	r1, [r4, #26]
 2165 0430 010052E1 		cmp	r2, r1
 2166 0434 0020A023 		movcs	r2, #0
 2167 0438 0120A033 		movcc	r2, #1
 2168 043c EBFFFFEA 		b	.L320
 2169              	.L349:
 2170 0440 0230D4E5 		ldrb	r3, [r4, #2]	@ zero_extendqisi2
 2171 0444 000053E3 		cmp	r3, #0
 2172 0448 003092E5 		ldr	r3, [r2]
 2173 044c 1030C303 		biceq	r3, r3, #16
 2174 0450 10308313 		orrne	r3, r3, #16
 2175 0454 003082E5 		str	r3, [r2]
 2176 0458 11FFFFEA 		b	.L324
 2177              	.L351:
 2178 045c 00E092E5 		ldr	lr, [r2]
 2179 0460 FFCCA0E3 		mov	ip, #65280
 2180 0464 2C4093E5 		ldr	r4, [r3, #44]
 2181 0468 00CE4FE3 		movt	ip, 65024
 2182 046c 0DEACEE3 		bic	lr, lr, #53248
 2183 0470 00E082E5 		str	lr, [r2]
 2184 0474 002090E5 		ldr	r2, [r0]
 2185 0478 300093E5 		ldr	r0, [r3, #48]
 2186 047c 002084E5 		str	r2, [r4]
 2187 0480 342093E5 		ldr	r2, [r3, #52]
 2188 0484 001091E5 		ldr	r1, [r1]
 2189 0488 383093E5 		ldr	r3, [r3, #56]
 2190 048c 001080E5 		str	r1, [r0]
 2191 0490 001092E5 		ldr	r1, [r2]
 2192 0494 01C00CE0 		and	ip, ip, r1
 2193 0498 00C082E5 		str	ip, [r2]
 2194 049c 002093E5 		ldr	r2, [r3]
 2195 04a0 FF2882E3 		orr	r2, r2, #16711680
 2196 04a4 002083E5 		str	r2, [r3]
 2197 04a8 002093E5 		ldr	r2, [r3]
 2198 04ac 0120C2E3 		bic	r2, r2, #1
 2199 04b0 002083E5 		str	r2, [r3]
 2200 04b4 BDFFFFEA 		b	.L330
 2201              	.L350:
 2202 04b8 040094E5 		ldr	r0, [r4, #4]
 2203 04bc 003000E3 		movw	r3, #:lower16:.LANCHOR5
 2204 04c0 009095E5 		ldr	r9, [r5]
 2205 04c4 003040E3 		movt	r3, #:upper16:.LANCHOR5
 2206 04c8 081193E7 		ldr	r1, [r3, r8, lsl #2]
 2207 04cc 070000E2 		and	r0, r0, #7
 2208 04d0 8001A0E1 		lsl	r0, r0, #3
 2209 04d4 FEFFFFEB 		bl	__aeabi_uidiv
 2210 04d8 090080E1 		orr	r0, r0, r9
 2211 04dc 000085E5 		str	r0, [r5]
 2212 04e0 1EFFFFEA 		b	.L326
 2214              		.section	.text.VDC_ChangeReadProcess,"ax",%progbits
 2215              		.align	2
 2216              		.global	VDC_ChangeReadProcess
 2217              		.syntax unified
 2218              		.arm
 2219              		.fpu neon
 2221              	VDC_ChangeReadProcess:
 2222              		@ args = 0, pretend = 0, frame = 0
 2223              		@ frame_needed = 0, uses_anonymous_args = 0
 2224 0000 F0412DE9 		push	{r4, r5, r6, r7, r8, lr}
 2225 0004 0040A0E1 		mov	r4, r0
 2226 0008 08D04DE2 		sub	sp, sp, #8
 2227 000c 0160A0E1 		mov	r6, r1
 2228 0010 FEFFFFEB 		bl	VDC_ShrdPrmGetSelFbAddrSig
 2229 0014 0070A0E1 		mov	r7, r0
 2230 0018 0400A0E1 		mov	r0, r4
 2231 001c FEFFFFEB 		bl	VDC_ShrdPrmGetDisplayArea
 2232 0020 0050A0E1 		mov	r5, r0
 2233 0024 0400A0E1 		mov	r0, r4
 2234 0028 FEFFFFEB 		bl	VDC_ShrdPrmGetFrBuffWidth_Rd
 2235 002c 010057E3 		cmp	r7, #1
 2236 0030 6B00000A 		beq	.L384
 2237 0034 B230D5E1 		ldrh	r3, [r5, #2]
 2238 0038 B020D0E1 		ldrh	r2, [r0]
 2239 003c 030052E1 		cmp	r2, r3
 2240 0040 0130A033 		movcc	r3, #1
 2241 0044 5300002A 		bcs	.L385
 2242 0048 000054E3 		cmp	r4, #0
 2243 004c 5800000A 		beq	.L355
 2244              	.L357:
 2245 0050 000096E5 		ldr	r0, [r6]
 2246 0054 005000E3 		movw	r5, #:lower16:vdc_regaddr_img_synthesizer
 2247 0058 000050E3 		cmp	r0, #0
 2248 005c 5E00000A 		beq	.L383
 2249              	.L386:
 2250 0060 5830A0E3 		mov	r3, #88
 2251 0064 005040E3 		movt	r5, #:upper16:vdc_regaddr_img_synthesizer
 2252 0068 935423E0 		mla	r3, r3, r4, r5
 2253 006c 0C8093E5 		ldr	r8, [r3, #12]
 2254 0070 FEFFFFEB 		bl	R_VDC_CPUVAddrToSysPAddr
 2255 0074 010057E3 		cmp	r7, #1
 2256 0078 0700C0E3 		bic	r0, r0, #7
 2257 007c 000088E5 		str	r0, [r8]
 2258 0080 6F00009A 		bls	.L362
 2259              	.L358:
 2260 0084 042096E5 		ldr	r2, [r6, #4]
 2261 0088 000052E3 		cmp	r2, #0
 2262 008c 1500000A 		beq	.L359
 2263 0090 5830A0E3 		mov	r3, #88
 2264 0094 B0C0D2E1 		ldrh	ip, [r2]
 2265 0098 935423E0 		mla	r3, r3, r4, r5
 2266 009c B210D2E1 		ldrh	r1, [r2, #2]
 2267 00a0 01E04CE2 		sub	lr, ip, #1
 2268 00a4 FF0F0FE3 		movw	r0, #65535
 2269 00a8 011041E2 		sub	r1, r1, #1
 2270 00ac 182093E5 		ldr	r2, [r3, #24]
 2271 00b0 00084FE3 		movt	r0, 63488
 2272 00b4 1C3093E5 		ldr	r3, [r3, #28]
 2273 00b8 00C092E5 		ldr	ip, [r2]
 2274 00bc 00C00CE0 		and	ip, ip, r0
 2275 00c0 00C082E5 		str	ip, [r2]
 2276 00c4 00C092E5 		ldr	ip, [r2]
 2277 00c8 0EC88CE1 		orr	ip, ip, lr, lsl #16
 2278 00cc 00C082E5 		str	ip, [r2]
 2279 00d0 002093E5 		ldr	r2, [r3]
 2280 00d4 002002E0 		and	r2, r2, r0
 2281 00d8 002083E5 		str	r2, [r3]
 2282 00dc 002093E5 		ldr	r2, [r3]
 2283 00e0 012882E1 		orr	r2, r2, r1, lsl #16
 2284 00e4 002083E5 		str	r2, [r3]
 2285              	.L359:
 2286 00e8 0C3096E5 		ldr	r3, [r6, #12]
 2287 00ec 000053E3 		cmp	r3, #0
 2288 00f0 0B00000A 		beq	.L360
 2289 00f4 D030D3E1 		ldrsb	r3, [r3]
 2290 00f8 010073E3 		cmn	r3, #1
 2291 00fc 0800000A 		beq	.L360
 2292 0100 5820A0E3 		mov	r2, #88
 2293 0104 925422E0 		mla	r2, r2, r4, r5
 2294 0108 202092E5 		ldr	r2, [r2, #32]
 2295 010c 001092E5 		ldr	r1, [r2]
 2296 0110 0310C1E3 		bic	r1, r1, #3
 2297 0114 001082E5 		str	r1, [r2]
 2298 0118 001092E5 		ldr	r1, [r2]
 2299 011c 013083E1 		orr	r3, r3, r1
 2300 0120 003082E5 		str	r3, [r2]
 2301              	.L360:
 2302 0124 083096E5 		ldr	r3, [r6, #8]
 2303 0128 000053E3 		cmp	r3, #0
 2304 012c 1100000A 		beq	.L361
 2305 0130 5820A0E3 		mov	r2, #88
 2306 0134 B060D3E1 		ldrh	r6, [r3]
 2307 0138 925422E0 		mla	r2, r2, r4, r5
 2308 013c B400D3E1 		ldrh	r0, [r3, #4]
 2309 0140 B2E0D3E1 		ldrh	lr, [r3, #2]
 2310 0144 B610D3E1 		ldrh	r1, [r3, #6]
 2311 0148 0668A0E1 		lsl	r6, r6, #16
 2312 014c 24C092E5 		ldr	ip, [r2, #36]
 2313 0150 0008A0E1 		lsl	r0, r0, #16
 2314 0154 283092E5 		ldr	r3, [r2, #40]
 2315 0158 00608CE5 		str	r6, [ip]
 2316 015c 00209CE5 		ldr	r2, [ip]
 2317 0160 02208EE1 		orr	r2, lr, r2
 2318 0164 00208CE5 		str	r2, [ip]
 2319 0168 000083E5 		str	r0, [r3]
 2320 016c 002093E5 		ldr	r2, [r3]
 2321 0170 022081E1 		orr	r2, r1, r2
 2322 0174 002083E5 		str	r2, [r3]
 2323              	.L361:
 2324 0178 5830A0E3 		mov	r3, #88
 2325 017c 930404E0 		mul	r4, r3, r4
 2326 0180 042095E7 		ldr	r2, [r5, r4]
 2327 0184 003092E5 		ldr	r3, [r2]
 2328 0188 113083E3 		orr	r3, r3, #17
 2329 018c 003082E5 		str	r3, [r2]
 2330 0190 08D08DE2 		add	sp, sp, #8
 2331              		@ sp needed
 2332 0194 F081BDE8 		pop	{r4, r5, r6, r7, r8, pc}
 2333              	.L385:
 2334 0198 B230D0E1 		ldrh	r3, [r0, #2]
 2335 019c B620D5E1 		ldrh	r2, [r5, #6]
 2336 01a0 020053E1 		cmp	r3, r2
 2337 01a4 0030A023 		movcs	r3, #0
 2338 01a8 0130A033 		movcc	r3, #1
 2339 01ac 000054E3 		cmp	r4, #0
 2340 01b0 A6FFFF1A 		bne	.L357
 2341              	.L355:
 2342 01b4 00308DE5 		str	r3, [sp]
 2343 01b8 0520A0E1 		mov	r2, r5
 2344 01bc 0010A0E1 		mov	r1, r0
 2345 01c0 0730A0E1 		mov	r3, r7
 2346 01c4 0000A0E3 		mov	r0, #0
 2347 01c8 005000E3 		movw	r5, #:lower16:vdc_regaddr_img_synthesizer
 2348 01cc FEFFFFEB 		bl	SetScalerGraphics
 2349 01d0 000096E5 		ldr	r0, [r6]
 2350 01d4 000050E3 		cmp	r0, #0
 2351 01d8 A0FFFF1A 		bne	.L386
 2352              	.L383:
 2353 01dc 005040E3 		movt	r5, #:upper16:vdc_regaddr_img_synthesizer
 2354 01e0 A7FFFFEA 		b	.L358
 2355              	.L384:
 2356 01e4 000054E3 		cmp	r4, #0
 2357 01e8 0A00001A 		bne	.L354
 2358 01ec B230D5E1 		ldrh	r3, [r5, #2]
 2359 01f0 B020D0E1 		ldrh	r2, [r0]
 2360 01f4 030052E1 		cmp	r2, r3
 2361 01f8 0730A031 		movcc	r3, r7
 2362 01fc ECFFFF3A 		bcc	.L355
 2363 0200 B230D0E1 		ldrh	r3, [r0, #2]
 2364 0204 B620D5E1 		ldrh	r2, [r5, #6]
 2365 0208 020053E1 		cmp	r3, r2
 2366 020c 0030A023 		movcs	r3, #0
 2367 0210 0130A033 		movcc	r3, #1
 2368 0214 E6FFFFEA 		b	.L355
 2369              	.L354:
 2370 0218 000096E5 		ldr	r0, [r6]
 2371 021c 005000E3 		movw	r5, #:lower16:vdc_regaddr_img_synthesizer
 2372 0220 000050E3 		cmp	r0, #0
 2373 0224 ECFFFF0A 		beq	.L383
 2374 0228 5830A0E3 		mov	r3, #88
 2375 022c 005040E3 		movt	r5, #:upper16:vdc_regaddr_img_synthesizer
 2376 0230 935423E0 		mla	r3, r3, r4, r5
 2377 0234 0C7093E5 		ldr	r7, [r3, #12]
 2378 0238 FEFFFFEB 		bl	R_VDC_CPUVAddrToSysPAddr
 2379 023c 0700C0E3 		bic	r0, r0, #7
 2380 0240 000087E5 		str	r0, [r7]
 2381              	.L362:
 2382 0244 0400A0E1 		mov	r0, r4
 2383 0248 FEFFFFEB 		bl	VDC_ShrdPrmGetGraphicsFormat
 2384 024c 5810A0E3 		mov	r1, #88
 2385 0250 003096E5 		ldr	r3, [r6]
 2386 0254 915421E0 		mla	r1, r1, r4, r5
 2387 0258 002000E3 		movw	r2, #:lower16:.LANCHOR5
 2388 025c 002040E3 		movt	r2, #:upper16:.LANCHOR5
 2389 0260 073003E2 		and	r3, r3, #7
 2390 0264 1C7091E5 		ldr	r7, [r1, #28]
 2391 0268 001192E7 		ldr	r1, [r2, r0, lsl #2]
 2392 026c 8301A0E1 		lsl	r0, r3, #3
 2393 0270 003097E5 		ldr	r3, [r7]
 2394 0274 3F30C3E3 		bic	r3, r3, #63
 2395 0278 003087E5 		str	r3, [r7]
 2396 027c 008097E5 		ldr	r8, [r7]
 2397 0280 FEFFFFEB 		bl	__aeabi_uidiv
 2398 0284 080080E1 		orr	r0, r0, r8
 2399 0288 000087E5 		str	r0, [r7]
 2400 028c 7CFFFFEA 		b	.L358
 2402              		.section	.text.VDC_StartProcess,"ax",%progbits
 2403              		.align	2
 2404              		.global	VDC_StartProcess
 2405              		.syntax unified
 2406              		.arm
 2407              		.fpu neon
 2409              	VDC_StartProcess:
 2410              		@ args = 0, pretend = 0, frame = 0
 2411              		@ frame_needed = 0, uses_anonymous_args = 0
 2412 0000 003091E5 		ldr	r3, [r1]
 2413 0004 70402DE9 		push	{r4, r5, r6, lr}
 2414 0008 0050A0E1 		mov	r5, r0
 2415 000c 000053E3 		cmp	r3, #0
 2416 0010 3C00000A 		beq	.L388
 2417 0014 010070E3 		cmn	r0, #1
 2418 0018 6B00000A 		beq	.L425
 2419 001c 012040E2 		sub	r2, r0, #1
 2420 0020 7210EFE6 		uxtb	r1, r2
 2421 0024 020051E3 		cmp	r1, #2
 2422 0028 1200008A 		bhi	.L395
 2423 002c D030D3E1 		ldrsb	r3, [r3]
 2424 0030 010073E3 		cmn	r3, #1
 2425 0034 0F00000A 		beq	.L395
 2426 0038 5810A0E3 		mov	r1, #88
 2427 003c 000000E3 		movw	r0, #:lower16:vdc_regaddr_img_synthesizer
 2428 0040 910202E0 		mul	r2, r1, r2
 2429 0044 000040E3 		movt	r0, #:upper16:vdc_regaddr_img_synthesizer
 2430 0048 021080E0 		add	r1, r0, r2
 2431 004c 020090E7 		ldr	r0, [r0, r2]
 2432 0050 202091E5 		ldr	r2, [r1, #32]
 2433 0054 001092E5 		ldr	r1, [r2]
 2434 0058 0310C1E3 		bic	r1, r1, #3
 2435 005c 001082E5 		str	r1, [r2]
 2436 0060 001092E5 		ldr	r1, [r2]
 2437 0064 013083E1 		orr	r3, r3, r1
 2438 0068 003082E5 		str	r3, [r2]
 2439 006c 003090E5 		ldr	r3, [r0]
 2440 0070 103083E3 		orr	r3, r3, #16
 2441 0074 003080E5 		str	r3, [r0]
 2442              	.L395:
 2443 0078 003000E3 		movw	r3, #:lower16:.LANCHOR6
 2444 007c 0100A0E3 		mov	r0, #1
 2445 0080 003040E3 		movt	r3, #:upper16:.LANCHOR6
 2446 0084 053193E7 		ldr	r3, [r3, r5, lsl #2]
 2447 0088 33FF2FE1 		blx	r3
 2448              	.L397:
 2449 008c 015085E2 		add	r5, r5, #1
 2450 0090 040055E3 		cmp	r5, #4
 2451 0094 05F19F97 		ldrls	pc, [pc, r5, asl #2]
 2452 0098 190000EA 		b	.L387
 2453              	.L402:
 2454 009c B0000000 		.word	.L401
 2455 00a0 AC010000 		.word	.L403
 2456 00a4 90010000 		.word	.L404
 2457 00a8 74010000 		.word	.L405
 2458 00ac 58010000 		.word	.L406
 2459              	.L401:
 2460 00b0 003000E3 		movw	r3, #:lower16:vdc_regaddr_scaler
 2461 00b4 002000E3 		movw	r2, #:lower16:vdc_regaddr_img_synthesizer
 2462 00b8 003040E3 		movt	r3, #:upper16:vdc_regaddr_scaler
 2463 00bc 002040E3 		movt	r2, #:upper16:vdc_regaddr_img_synthesizer
 2464 00c0 6CC093E5 		ldr	ip, [r3, #108]
 2465 00c4 000092E5 		ldr	r0, [r2]
 2466 00c8 581092E5 		ldr	r1, [r2, #88]
 2467 00cc 00309CE5 		ldr	r3, [ip]
 2468 00d0 B02092E5 		ldr	r2, [r2, #176]
 2469 00d4 013683E3 		orr	r3, r3, #1048576
 2470 00d8 113083E3 		orr	r3, r3, #17
 2471 00dc 00308CE5 		str	r3, [ip]
 2472 00e0 003090E5 		ldr	r3, [r0]
 2473 00e4 113083E3 		orr	r3, r3, #17
 2474 00e8 003080E5 		str	r3, [r0]
 2475 00ec 003091E5 		ldr	r3, [r1]
 2476 00f0 113083E3 		orr	r3, r3, #17
 2477 00f4 003081E5 		str	r3, [r1]
 2478 00f8 003092E5 		ldr	r3, [r2]
 2479 00fc 113083E3 		orr	r3, r3, #17
 2480 0100 003082E5 		str	r3, [r2]
 2481              	.L387:
 2482 0104 7080BDE8 		pop	{r4, r5, r6, pc}
 2483              	.L388:
 2484 0108 010070E3 		cmn	r0, #1
 2485 010c D9FFFF1A 		bne	.L395
 2486              	.L393:
 2487 0110 0040A0E3 		mov	r4, #0
 2488 0114 006000E3 		movw	r6, #:lower16:.LANCHOR6
 2489 0118 7400AFE6 		sxtb	r0, r4
 2490 011c 006040E3 		movt	r6, #:upper16:.LANCHOR6
 2491 0120 FEFFFFEB 		bl	VDC_ShrdPrmGetRwProcReady
 2492 0124 000050E3 		cmp	r0, #0
 2493 0128 0600001A 		bne	.L426
 2494              	.L398:
 2495 012c 014084E2 		add	r4, r4, #1
 2496 0130 040054E3 		cmp	r4, #4
 2497 0134 D4FFFF0A 		beq	.L397
 2498 0138 7400AFE6 		sxtb	r0, r4
 2499 013c FEFFFFEB 		bl	VDC_ShrdPrmGetRwProcReady
 2500 0140 000050E3 		cmp	r0, #0
 2501 0144 F8FFFF0A 		beq	.L398
 2502              	.L426:
 2503 0148 043196E7 		ldr	r3, [r6, r4, lsl #2]
 2504 014c 0100A0E3 		mov	r0, #1
 2505 0150 33FF2FE1 		blx	r3
 2506 0154 F4FFFFEA 		b	.L398
 2507              	.L406:
 2508 0158 003000E3 		movw	r3, #:lower16:vdc_regaddr_img_synthesizer
 2509 015c 003040E3 		movt	r3, #:upper16:vdc_regaddr_img_synthesizer
 2510 0160 B02093E5 		ldr	r2, [r3, #176]
 2511 0164 003092E5 		ldr	r3, [r2]
 2512 0168 113083E3 		orr	r3, r3, #17
 2513 016c 003082E5 		str	r3, [r2]
 2514 0170 7080BDE8 		pop	{r4, r5, r6, pc}
 2515              	.L405:
 2516 0174 003000E3 		movw	r3, #:lower16:vdc_regaddr_img_synthesizer
 2517 0178 003040E3 		movt	r3, #:upper16:vdc_regaddr_img_synthesizer
 2518 017c 582093E5 		ldr	r2, [r3, #88]
 2519 0180 003092E5 		ldr	r3, [r2]
 2520 0184 113083E3 		orr	r3, r3, #17
 2521 0188 003082E5 		str	r3, [r2]
 2522 018c 7080BDE8 		pop	{r4, r5, r6, pc}
 2523              	.L404:
 2524 0190 003000E3 		movw	r3, #:lower16:vdc_regaddr_img_synthesizer
 2525 0194 003040E3 		movt	r3, #:upper16:vdc_regaddr_img_synthesizer
 2526 0198 002093E5 		ldr	r2, [r3]
 2527 019c 003092E5 		ldr	r3, [r2]
 2528 01a0 113083E3 		orr	r3, r3, #17
 2529 01a4 003082E5 		str	r3, [r2]
 2530 01a8 7080BDE8 		pop	{r4, r5, r6, pc}
 2531              	.L403:
 2532 01ac 003000E3 		movw	r3, #:lower16:vdc_regaddr_scaler
 2533 01b0 003040E3 		movt	r3, #:upper16:vdc_regaddr_scaler
 2534 01b4 6C2093E5 		ldr	r2, [r3, #108]
 2535 01b8 003092E5 		ldr	r3, [r2]
 2536 01bc 013683E3 		orr	r3, r3, #1048576
 2537 01c0 113083E3 		orr	r3, r3, #17
 2538 01c4 003082E5 		str	r3, [r2]
 2539 01c8 7080BDE8 		pop	{r4, r5, r6, pc}
 2540              	.L425:
 2541 01cc D020D3E1 		ldrsb	r2, [r3]
 2542 01d0 010072E3 		cmn	r2, #1
 2543 01d4 0C00000A 		beq	.L390
 2544 01d8 000000E3 		movw	r0, #:lower16:vdc_regaddr_img_synthesizer
 2545 01dc 000040E3 		movt	r0, #:upper16:vdc_regaddr_img_synthesizer
 2546 01e0 201090E5 		ldr	r1, [r0, #32]
 2547 01e4 00C090E5 		ldr	ip, [r0]
 2548 01e8 000091E5 		ldr	r0, [r1]
 2549 01ec 0300C0E3 		bic	r0, r0, #3
 2550 01f0 000081E5 		str	r0, [r1]
 2551 01f4 000091E5 		ldr	r0, [r1]
 2552 01f8 002082E1 		orr	r2, r2, r0
 2553 01fc 002081E5 		str	r2, [r1]
 2554 0200 00209CE5 		ldr	r2, [ip]
 2555 0204 102082E3 		orr	r2, r2, #16
 2556 0208 00208CE5 		str	r2, [ip]
 2557              	.L390:
 2558 020c D120D3E1 		ldrsb	r2, [r3, #1]
 2559 0210 010072E3 		cmn	r2, #1
 2560 0214 0C00000A 		beq	.L391
 2561 0218 000000E3 		movw	r0, #:lower16:vdc_regaddr_img_synthesizer
 2562 021c 000040E3 		movt	r0, #:upper16:vdc_regaddr_img_synthesizer
 2563 0220 781090E5 		ldr	r1, [r0, #120]
 2564 0224 58C090E5 		ldr	ip, [r0, #88]
 2565 0228 000091E5 		ldr	r0, [r1]
 2566 022c 0300C0E3 		bic	r0, r0, #3
 2567 0230 000081E5 		str	r0, [r1]
 2568 0234 000091E5 		ldr	r0, [r1]
 2569 0238 002082E1 		orr	r2, r2, r0
 2570 023c 002081E5 		str	r2, [r1]
 2571 0240 00209CE5 		ldr	r2, [ip]
 2572 0244 102082E3 		orr	r2, r2, #16
 2573 0248 00208CE5 		str	r2, [ip]
 2574              	.L391:
 2575 024c D230D3E1 		ldrsb	r3, [r3, #2]
 2576 0250 010073E3 		cmn	r3, #1
 2577 0254 ADFFFF0A 		beq	.L393
 2578 0258 001000E3 		movw	r1, #:lower16:vdc_regaddr_img_synthesizer
 2579 025c 001040E3 		movt	r1, #:upper16:vdc_regaddr_img_synthesizer
 2580 0260 D02091E5 		ldr	r2, [r1, #208]
 2581 0264 B00091E5 		ldr	r0, [r1, #176]
 2582 0268 001092E5 		ldr	r1, [r2]
 2583 026c 0310C1E3 		bic	r1, r1, #3
 2584 0270 001082E5 		str	r1, [r2]
 2585 0274 001092E5 		ldr	r1, [r2]
 2586 0278 013083E1 		orr	r3, r3, r1
 2587 027c 003082E5 		str	r3, [r2]
 2588 0280 003090E5 		ldr	r3, [r0]
 2589 0284 103083E3 		orr	r3, r3, #16
 2590 0288 003080E5 		str	r3, [r0]
 2591 028c 9FFFFFEA 		b	.L393
 2593              		.section	.text.VDC_StopProcess,"ax",%progbits
 2594              		.align	2
 2595              		.global	VDC_StopProcess
 2596              		.syntax unified
 2597              		.arm
 2598              		.fpu neon
 2600              	VDC_StopProcess:
 2601              		@ args = 0, pretend = 0, frame = 0
 2602              		@ frame_needed = 0, uses_anonymous_args = 0
 2603 0000 010070E3 		cmn	r0, #1
 2604 0004 70402DE9 		push	{r4, r5, r6, lr}
 2605 0008 2300001A 		bne	.L445
 2606 000c 005000E3 		movw	r5, #:lower16:.LANCHOR6
 2607 0010 0040A0E3 		mov	r4, #0
 2608 0014 005040E3 		movt	r5, #:upper16:.LANCHOR6
 2609              	.L436:
 2610 0018 7400AFE6 		sxtb	r0, r4
 2611 001c FEFFFFEB 		bl	VDC_ShrdPrmGetRwProcEnabled
 2612 0020 000050E3 		cmp	r0, #0
 2613 0024 1800001A 		bne	.L446
 2614              	.L435:
 2615 0028 014084E2 		add	r4, r4, #1
 2616 002c 040054E3 		cmp	r4, #4
 2617 0030 F8FFFF1A 		bne	.L436
 2618 0034 003000E3 		movw	r3, #:lower16:vdc_regaddr_scaler
 2619 0038 002000E3 		movw	r2, #:lower16:vdc_regaddr_img_synthesizer
 2620 003c 003040E3 		movt	r3, #:upper16:vdc_regaddr_scaler
 2621 0040 002040E3 		movt	r2, #:upper16:vdc_regaddr_img_synthesizer
 2622 0044 6CC093E5 		ldr	ip, [r3, #108]
 2623 0048 000092E5 		ldr	r0, [r2]
 2624 004c 581092E5 		ldr	r1, [r2, #88]
 2625 0050 00309CE5 		ldr	r3, [ip]
 2626 0054 B02092E5 		ldr	r2, [r2, #176]
 2627 0058 013683E3 		orr	r3, r3, #1048576
 2628 005c 113083E3 		orr	r3, r3, #17
 2629 0060 00308CE5 		str	r3, [ip]
 2630 0064 003090E5 		ldr	r3, [r0]
 2631 0068 113083E3 		orr	r3, r3, #17
 2632 006c 003080E5 		str	r3, [r0]
 2633 0070 003091E5 		ldr	r3, [r1]
 2634 0074 113083E3 		orr	r3, r3, #17
 2635 0078 003081E5 		str	r3, [r1]
 2636 007c 003092E5 		ldr	r3, [r2]
 2637 0080 113083E3 		orr	r3, r3, #17
 2638 0084 003082E5 		str	r3, [r2]
 2639              	.L427:
 2640 0088 7080BDE8 		pop	{r4, r5, r6, pc}
 2641              	.L446:
 2642 008c 043195E7 		ldr	r3, [r5, r4, lsl #2]
 2643 0090 0000A0E3 		mov	r0, #0
 2644 0094 33FF2FE1 		blx	r3
 2645 0098 E2FFFFEA 		b	.L435
 2646              	.L445:
 2647 009c 003000E3 		movw	r3, #:lower16:.LANCHOR6
 2648 00a0 0040A0E1 		mov	r4, r0
 2649 00a4 003040E3 		movt	r3, #:upper16:.LANCHOR6
 2650 00a8 0000A0E3 		mov	r0, #0
 2651 00ac 043193E7 		ldr	r3, [r3, r4, lsl #2]
 2652 00b0 33FF2FE1 		blx	r3
 2653 00b4 030054E3 		cmp	r4, #3
 2654 00b8 04F19F97 		ldrls	pc, [pc, r4, asl #2]
 2655 00bc F1FFFFEA 		b	.L427
 2656              	.L431:
 2657 00c0 08010000 		.word	.L430
 2658 00c4 EC000000 		.word	.L432
 2659 00c8 D0000000 		.word	.L433
 2660 00cc 28010000 		.word	.L434
 2661              	.L433:
 2662 00d0 003000E3 		movw	r3, #:lower16:vdc_regaddr_img_synthesizer
 2663 00d4 003040E3 		movt	r3, #:upper16:vdc_regaddr_img_synthesizer
 2664 00d8 582093E5 		ldr	r2, [r3, #88]
 2665 00dc 003092E5 		ldr	r3, [r2]
 2666 00e0 113083E3 		orr	r3, r3, #17
 2667 00e4 003082E5 		str	r3, [r2]
 2668 00e8 7080BDE8 		pop	{r4, r5, r6, pc}
 2669              	.L432:
 2670 00ec 003000E3 		movw	r3, #:lower16:vdc_regaddr_img_synthesizer
 2671 00f0 003040E3 		movt	r3, #:upper16:vdc_regaddr_img_synthesizer
 2672 00f4 002093E5 		ldr	r2, [r3]
 2673 00f8 003092E5 		ldr	r3, [r2]
 2674 00fc 113083E3 		orr	r3, r3, #17
 2675 0100 003082E5 		str	r3, [r2]
 2676 0104 7080BDE8 		pop	{r4, r5, r6, pc}
 2677              	.L430:
 2678 0108 003000E3 		movw	r3, #:lower16:vdc_regaddr_scaler
 2679 010c 003040E3 		movt	r3, #:upper16:vdc_regaddr_scaler
 2680 0110 6C2093E5 		ldr	r2, [r3, #108]
 2681 0114 003092E5 		ldr	r3, [r2]
 2682 0118 013683E3 		orr	r3, r3, #1048576
 2683 011c 113083E3 		orr	r3, r3, #17
 2684 0120 003082E5 		str	r3, [r2]
 2685 0124 7080BDE8 		pop	{r4, r5, r6, pc}
 2686              	.L434:
 2687 0128 003000E3 		movw	r3, #:lower16:vdc_regaddr_img_synthesizer
 2688 012c 003040E3 		movt	r3, #:upper16:vdc_regaddr_img_synthesizer
 2689 0130 B02093E5 		ldr	r2, [r3, #176]
 2690 0134 003092E5 		ldr	r3, [r2]
 2691 0138 113083E3 		orr	r3, r3, #17
 2692 013c 003082E5 		str	r3, [r2]
 2693 0140 7080BDE8 		pop	{r4, r5, r6, pc}
 2695              		.section	.text.VDC_VideoNoiseReduction,"ax",%progbits
 2696              		.align	2
 2697              		.global	VDC_VideoNoiseReduction
 2698              		.syntax unified
 2699              		.arm
 2700              		.fpu neon
 2702              	VDC_VideoNoiseReduction:
 2703              		@ args = 0, pretend = 0, frame = 0
 2704              		@ frame_needed = 0, uses_anonymous_args = 0
 2705 0000 000051E3 		cmp	r1, #0
 2706 0004 3500000A 		beq	.L459
 2707 0008 00C000E3 		movw	ip, #:lower16:vdc_regaddr_input_ctrl
 2708 000c F0412DE9 		push	{r4, r5, r6, r7, r8, lr}
 2709 0010 00C040E3 		movt	ip, #:upper16:vdc_regaddr_input_ctrl
 2710 0014 0060D1E5 		ldrb	r6, [r1]	@ zero_extendqisi2
 2711 0018 000050E3 		cmp	r0, #0
 2712 001c 18209CE5 		ldr	r2, [ip, #24]
 2713 0020 0840D1E5 		ldrb	r4, [r1, #8]	@ zero_extendqisi2
 2714 0024 0C80D1E5 		ldrb	r8, [r1, #12]	@ zero_extendqisi2
 2715 0028 00E092E5 		ldr	lr, [r2]
 2716 002c 1470D1E5 		ldrb	r7, [r1, #20]	@ zero_extendqisi2
 2717 0030 1C309CE5 		ldr	r3, [ip, #28]
 2718 0034 7FECCEE3 		bic	lr, lr, #32512
 2719 0038 33E0CEE3 		bic	lr, lr, #51
 2720 003c 00E082E5 		str	lr, [r2]
 2721 0040 005092E5 		ldr	r5, [r2]
 2722 0044 04E091E5 		ldr	lr, [r1, #4]
 2723 0048 0E5485E1 		orr	r5, r5, lr, lsl #8
 2724 004c 005082E5 		str	r5, [r2]
 2725 0050 00E092E5 		ldr	lr, [r2]
 2726 0054 06E28EE1 		orr	lr, lr, r6, lsl #4
 2727 0058 1860D1E5 		ldrb	r6, [r1, #24]	@ zero_extendqisi2
 2728 005c 00E082E5 		str	lr, [r2]
 2729 0060 00E092E5 		ldr	lr, [r2]
 2730 0064 0EE084E1 		orr	lr, r4, lr
 2731 0068 00E082E5 		str	lr, [r2]
 2732 006c 10E091E5 		ldr	lr, [r1, #16]
 2733 0070 0EECA0E1 		lsl	lr, lr, #24
 2734 0074 00E083E5 		str	lr, [r3]
 2735 0078 005093E5 		ldr	r5, [r3]
 2736 007c 20E0D1E5 		ldrb	lr, [r1, #32]	@ zero_extendqisi2
 2737 0080 085A85E1 		orr	r5, r5, r8, lsl #20
 2738 0084 005083E5 		str	r5, [r3]
 2739 0088 004093E5 		ldr	r4, [r3]
 2740 008c 074884E1 		orr	r4, r4, r7, lsl #16
 2741 0090 004083E5 		str	r4, [r3]
 2742 0094 004093E5 		ldr	r4, [r3]
 2743 0098 1C1091E5 		ldr	r1, [r1, #28]
 2744 009c 014484E1 		orr	r4, r4, r1, lsl #8
 2745 00a0 004083E5 		str	r4, [r3]
 2746 00a4 001093E5 		ldr	r1, [r3]
 2747 00a8 061281E1 		orr	r1, r1, r6, lsl #4
 2748 00ac 001083E5 		str	r1, [r3]
 2749 00b0 001093E5 		ldr	r1, [r3]
 2750 00b4 01108EE1 		orr	r1, lr, r1
 2751 00b8 001083E5 		str	r1, [r3]
 2752 00bc 003092E5 		ldr	r3, [r2]
 2753 00c0 0138C303 		biceq	r3, r3, #65536
 2754 00c4 01388313 		orrne	r3, r3, #65536
 2755 00c8 003082E5 		str	r3, [r2]
 2756 00cc 14209CE5 		ldr	r2, [ip, #20]
 2757 00d0 003092E5 		ldr	r3, [r2]
 2758 00d4 013083E3 		orr	r3, r3, #1
 2759 00d8 003082E5 		str	r3, [r2]
 2760 00dc F081BDE8 		pop	{r4, r5, r6, r7, r8, pc}
 2761              	.L459:
 2762 00e0 00C000E3 		movw	ip, #:lower16:vdc_regaddr_input_ctrl
 2763 00e4 000050E3 		cmp	r0, #0
 2764 00e8 00C040E3 		movt	ip, #:upper16:vdc_regaddr_input_ctrl
 2765 00ec 18209CE5 		ldr	r2, [ip, #24]
 2766 00f0 003092E5 		ldr	r3, [r2]
 2767 00f4 01388313 		orrne	r3, r3, #65536
 2768 00f8 00308215 		strne	r3, [r2]
 2769 00fc 0138C303 		biceq	r3, r3, #65536
 2770 0100 00308205 		streq	r3, [r2]
 2771              	.L456:
 2772 0104 14209CE5 		ldr	r2, [ip, #20]
 2773 0108 003092E5 		ldr	r3, [r2]
 2774 010c 013083E3 		orr	r3, r3, #1
 2775 0110 003082E5 		str	r3, [r2]
 2776 0114 1EFF2FE1 		bx	lr
 2778              		.section	.text.VDC_ImageColorMatrix,"ax",%progbits
 2779              		.align	2
 2780              		.global	VDC_ImageColorMatrix
 2781              		.syntax unified
 2782              		.arm
 2783              		.fpu neon
 2785              	VDC_ImageColorMatrix:
 2786              		@ args = 0, pretend = 0, frame = 0
 2787              		@ frame_needed = 0, uses_anonymous_args = 0
 2788 0000 70402DE9 		push	{r4, r5, r6, lr}
 2789 0004 002000E3 		movw	r2, #:lower16:vdc_regaddr_color_matrix
 2790 0008 0050D0E5 		ldrb	r5, [r0]	@ zero_extendqisi2
 2791 000c 002040E3 		movt	r2, #:upper16:vdc_regaddr_color_matrix
 2792 0010 B210D0E1 		ldrh	r1, [r0, #2]
 2793 0014 0160D0E5 		ldrb	r6, [r0, #1]	@ zero_extendqisi2
 2794 0018 853282E0 		add	r3, r2, r5, lsl #5
 2795 001c BAE0D0E1 		ldrh	lr, [r0, #10]
 2796 0020 084093E5 		ldr	r4, [r3, #8]
 2797 0024 0118A0E1 		lsl	r1, r1, #16
 2798 0028 04C093E5 		ldr	ip, [r3, #4]
 2799 002c 0EE8A0E1 		lsl	lr, lr, #16
 2800 0030 00608CE5 		str	r6, [ip]
 2801 0034 B860D0E1 		ldrh	r6, [r0, #8]
 2802 0038 001084E5 		str	r1, [r4]
 2803 003c 001094E5 		ldr	r1, [r4]
 2804 0040 0CC093E5 		ldr	ip, [r3, #12]
 2805 0044 016086E1 		orr	r6, r6, r1
 2806 0048 B410D0E1 		ldrh	r1, [r0, #4]
 2807 004c 006084E5 		str	r6, [r4]
 2808 0050 BC60D0E1 		ldrh	r6, [r0, #12]
 2809 0054 00E08CE5 		str	lr, [ip]
 2810 0058 00E09CE5 		ldr	lr, [ip]
 2811 005c 0118A0E1 		lsl	r1, r1, #16
 2812 0060 104093E5 		ldr	r4, [r3, #16]
 2813 0064 0E6086E1 		orr	r6, r6, lr
 2814 0068 B0E1D0E1 		ldrh	lr, [r0, #16]
 2815 006c 00608CE5 		str	r6, [ip]
 2816 0070 BE60D0E1 		ldrh	r6, [r0, #14]
 2817 0074 001084E5 		str	r1, [r4]
 2818 0078 001094E5 		ldr	r1, [r4]
 2819 007c 0EE8A0E1 		lsl	lr, lr, #16
 2820 0080 14C093E5 		ldr	ip, [r3, #20]
 2821 0084 016086E1 		orr	r6, r6, r1
 2822 0088 B610D0E1 		ldrh	r1, [r0, #6]
 2823 008c 006084E5 		str	r6, [r4]
 2824 0090 B241D0E1 		ldrh	r4, [r0, #18]
 2825 0094 00E08CE5 		str	lr, [ip]
 2826 0098 00609CE5 		ldr	r6, [ip]
 2827 009c 0118A0E1 		lsl	r1, r1, #16
 2828 00a0 18E093E5 		ldr	lr, [r3, #24]
 2829 00a4 064084E1 		orr	r4, r4, r6
 2830 00a8 00408CE5 		str	r4, [ip]
 2831 00ac 00108EE5 		str	r1, [lr]
 2832 00b0 00109EE5 		ldr	r1, [lr]
 2833 00b4 B6C1D0E1 		ldrh	ip, [r0, #22]
 2834 00b8 B441D0E1 		ldrh	r4, [r0, #20]
 2835 00bc 1C3093E5 		ldr	r3, [r3, #28]
 2836 00c0 014084E1 		orr	r4, r4, r1
 2837 00c4 B811D0E1 		ldrh	r1, [r0, #24]
 2838 00c8 0C08A0E1 		lsl	r0, ip, #16
 2839 00cc 00408EE5 		str	r4, [lr]
 2840 00d0 85C292E7 		ldr	ip, [r2, r5, lsl #5]
 2841 00d4 000083E5 		str	r0, [r3]
 2842 00d8 002093E5 		ldr	r2, [r3]
 2843 00dc 022081E1 		orr	r2, r1, r2
 2844 00e0 002083E5 		str	r2, [r3]
 2845 00e4 00309CE5 		ldr	r3, [ip]
 2846 00e8 013083E3 		orr	r3, r3, #1
 2847 00ec 00308CE5 		str	r3, [ip]
 2848 00f0 7080BDE8 		pop	{r4, r5, r6, pc}
 2850              		.section	.text.VDC_ImageEnhancement,"ax",%progbits
 2851              		.align	2
 2852              		.global	VDC_ImageEnhancement
 2853              		.syntax unified
 2854              		.arm
 2855              		.fpu neon
 2857              	VDC_ImageEnhancement:
 2858              		@ args = 4, pretend = 0, frame = 0
 2859              		@ frame_needed = 0, uses_anonymous_args = 0
 2860 0000 000051E3 		cmp	r1, #0
 2861 0004 F0432DE9 		push	{r4, r5, r6, r7, r8, r9, lr}
 2862 0008 00C000E3 		movw	ip, #:lower16:vdc_regaddr_img_qlty_imp
 2863 000c 1C609DE5 		ldr	r6, [sp, #28]
 2864 0010 8A00000A 		beq	.L486
 2865 0014 00C040E3 		movt	ip, #:upper16:vdc_regaddr_img_qlty_imp
 2866 0018 0070D1E5 		ldrb	r7, [r1]	@ zero_extendqisi2
 2867 001c 14509CE5 		ldr	r5, [ip, #20]
 2868 0020 18E09CE5 		ldr	lr, [ip, #24]
 2869 0024 000057E3 		cmp	r7, #0
 2870 0028 004095E5 		ldr	r4, [r5]
 2871 002c 3F40C4E3 		bic	r4, r4, #63
 2872 0030 004085E5 		str	r4, [r5]
 2873 0034 008095E5 		ldr	r8, [r5]
 2874 0038 0540D1E5 		ldrb	r4, [r1, #5]	@ zero_extendqisi2
 2875 003c 084084E1 		orr	r4, r4, r8
 2876 0040 004085E5 		str	r4, [r5]
 2877 0044 0140D1E5 		ldrb	r4, [r1, #1]	@ zero_extendqisi2
 2878 0048 044CA0E1 		lsl	r4, r4, #24
 2879 004c 00408EE5 		str	r4, [lr]
 2880 0050 00409EE5 		ldr	r4, [lr]
 2881 0054 0280D1E5 		ldrb	r8, [r1, #2]	@ zero_extendqisi2
 2882 0058 084884E1 		orr	r4, r4, r8, lsl #16
 2883 005c 00408EE5 		str	r4, [lr]
 2884 0060 00409EE5 		ldr	r4, [lr]
 2885 0064 0380D1E5 		ldrb	r8, [r1, #3]	@ zero_extendqisi2
 2886 0068 084484E1 		orr	r4, r4, r8, lsl #8
 2887 006c 00408EE5 		str	r4, [lr]
 2888 0070 00809EE5 		ldr	r8, [lr]
 2889 0074 0440D1E5 		ldrb	r4, [r1, #4]	@ zero_extendqisi2
 2890 0078 084084E1 		orr	r4, r4, r8
 2891 007c 00408EE5 		str	r4, [lr]
 2892 0080 0148A013 		movne	r4, #65536
 2893 0084 1CE09CE5 		ldr	lr, [ip, #28]
 2894 0088 00408E15 		strne	r4, [lr]
 2895 008c 00708E05 		streq	r7, [lr]
 2896 0090 00809EE5 		ldr	r8, [lr]
 2897 0094 0A70D1E5 		ldrb	r7, [r1, #10]	@ zero_extendqisi2
 2898 0098 20409CE5 		ldr	r4, [ip, #32]
 2899 009c 087087E1 		orr	r7, r7, r8
 2900 00a0 24809CE5 		ldr	r8, [ip, #36]
 2901 00a4 00708EE5 		str	r7, [lr]
 2902 00a8 0670D1E5 		ldrb	r7, [r1, #6]	@ zero_extendqisi2
 2903 00ac 28E09CE5 		ldr	lr, [ip, #40]
 2904 00b0 077CA0E1 		lsl	r7, r7, #24
 2905 00b4 007084E5 		str	r7, [r4]
 2906 00b8 0790D1E5 		ldrb	r9, [r1, #7]	@ zero_extendqisi2
 2907 00bc 007094E5 		ldr	r7, [r4]
 2908 00c0 097887E1 		orr	r7, r7, r9, lsl #16
 2909 00c4 007084E5 		str	r7, [r4]
 2910 00c8 007094E5 		ldr	r7, [r4]
 2911 00cc 0890D1E5 		ldrb	r9, [r1, #8]	@ zero_extendqisi2
 2912 00d0 097487E1 		orr	r7, r7, r9, lsl #8
 2913 00d4 007084E5 		str	r7, [r4]
 2914 00d8 009094E5 		ldr	r9, [r4]
 2915 00dc 0970D1E5 		ldrb	r7, [r1, #9]	@ zero_extendqisi2
 2916 00e0 097087E1 		orr	r7, r7, r9
 2917 00e4 007084E5 		str	r7, [r4]
 2918 00e8 0F40D1E5 		ldrb	r4, [r1, #15]	@ zero_extendqisi2
 2919 00ec 004088E5 		str	r4, [r8]
 2920 00f0 0B40D1E5 		ldrb	r4, [r1, #11]	@ zero_extendqisi2
 2921 00f4 044CA0E1 		lsl	r4, r4, #24
 2922 00f8 00408EE5 		str	r4, [lr]
 2923 00fc 00409EE5 		ldr	r4, [lr]
 2924 0100 0C70D1E5 		ldrb	r7, [r1, #12]	@ zero_extendqisi2
 2925 0104 074884E1 		orr	r4, r4, r7, lsl #16
 2926 0108 00408EE5 		str	r4, [lr]
 2927 010c 00409EE5 		ldr	r4, [lr]
 2928 0110 0D70D1E5 		ldrb	r7, [r1, #13]	@ zero_extendqisi2
 2929 0114 074484E1 		orr	r4, r4, r7, lsl #8
 2930 0118 00408EE5 		str	r4, [lr]
 2931 011c 0E10D1E5 		ldrb	r1, [r1, #14]	@ zero_extendqisi2
 2932 0120 00409EE5 		ldr	r4, [lr]
 2933 0124 041081E1 		orr	r1, r1, r4
 2934 0128 00108EE5 		str	r1, [lr]
 2935              	.L464:
 2936 012c 001095E5 		ldr	r1, [r5]
 2937 0130 000050E3 		cmp	r0, #0
 2938 0134 0118C103 		biceq	r1, r1, #65536
 2939 0138 01188113 		orrne	r1, r1, #65536
 2940 013c 000053E3 		cmp	r3, #0
 2941 0140 001085E5 		str	r1, [r5]
 2942 0144 2C109CE5 		ldr	r1, [ip, #44]
 2943 0148 2000000A 		beq	.L469
 2944 014c 0000D3E5 		ldrb	r0, [r3]	@ zero_extendqisi2
 2945 0150 01E0D3E5 		ldrb	lr, [r3, #1]	@ zero_extendqisi2
 2946 0154 000050E3 		cmp	r0, #0
 2947 0158 0104A013 		movne	r0, #16777216
 2948 015c 00005EE3 		cmp	lr, #0
 2949 0160 000081E5 		str	r0, [r1]
 2950 0164 01E4A013 		movne	lr, #16777216
 2951 0168 000091E5 		ldr	r0, [r1]
 2952 016c 0240D3E5 		ldrb	r4, [r3, #2]	@ zero_extendqisi2
 2953 0170 040880E1 		orr	r0, r0, r4, lsl #16
 2954 0174 000081E5 		str	r0, [r1]
 2955 0178 000091E5 		ldr	r0, [r1]
 2956 017c 0340D3E5 		ldrb	r4, [r3, #3]	@ zero_extendqisi2
 2957 0180 040480E1 		orr	r0, r0, r4, lsl #8
 2958 0184 000081E5 		str	r0, [r1]
 2959 0188 004091E5 		ldr	r4, [r1]
 2960 018c 0400D3E5 		ldrb	r0, [r3, #4]	@ zero_extendqisi2
 2961 0190 040080E1 		orr	r0, r0, r4
 2962 0194 000081E5 		str	r0, [r1]
 2963 0198 30009CE5 		ldr	r0, [ip, #48]
 2964 019c 00E080E5 		str	lr, [r0]
 2965 01a0 00E090E5 		ldr	lr, [r0]
 2966 01a4 0540D3E5 		ldrb	r4, [r3, #5]	@ zero_extendqisi2
 2967 01a8 04E88EE1 		orr	lr, lr, r4, lsl #16
 2968 01ac 00E080E5 		str	lr, [r0]
 2969 01b0 00E090E5 		ldr	lr, [r0]
 2970 01b4 0640D3E5 		ldrb	r4, [r3, #6]	@ zero_extendqisi2
 2971 01b8 04E48EE1 		orr	lr, lr, r4, lsl #8
 2972 01bc 00E080E5 		str	lr, [r0]
 2973 01c0 0730D3E5 		ldrb	r3, [r3, #7]	@ zero_extendqisi2
 2974 01c4 00E090E5 		ldr	lr, [r0]
 2975 01c8 0E3083E1 		orr	r3, r3, lr
 2976 01cc 003080E5 		str	r3, [r0]
 2977              	.L469:
 2978 01d0 003091E5 		ldr	r3, [r1]
 2979 01d4 000052E3 		cmp	r2, #0
 2980 01d8 0231C303 		biceq	r3, r3, #-2147483648
 2981 01dc 02318313 		orrne	r3, r3, #-2147483648
 2982 01e0 000056E3 		cmp	r6, #0
 2983 01e4 003081E5 		str	r3, [r1]
 2984 01e8 0F00000A 		beq	.L476
 2985 01ec B040D6E1 		ldrh	r4, [r6]
 2986 01f0 0C009CE5 		ldr	r0, [ip, #12]
 2987 01f4 B410D6E1 		ldrh	r1, [r6, #4]
 2988 01f8 B2E0D6E1 		ldrh	lr, [r6, #2]
 2989 01fc 0448A0E1 		lsl	r4, r4, #16
 2990 0200 B620D6E1 		ldrh	r2, [r6, #6]
 2991 0204 10309CE5 		ldr	r3, [ip, #16]
 2992 0208 004080E5 		str	r4, [r0]
 2993 020c 0118A0E1 		lsl	r1, r1, #16
 2994 0210 004090E5 		ldr	r4, [r0]
 2995 0214 04E08EE1 		orr	lr, lr, r4
 2996 0218 00E080E5 		str	lr, [r0]
 2997 021c 001083E5 		str	r1, [r3]
 2998 0220 001093E5 		ldr	r1, [r3]
 2999 0224 012082E1 		orr	r2, r2, r1
 3000 0228 002083E5 		str	r2, [r3]
 3001              	.L476:
 3002 022c 00209CE5 		ldr	r2, [ip]
 3003 0230 003092E5 		ldr	r3, [r2]
 3004 0234 013083E3 		orr	r3, r3, #1
 3005 0238 003082E5 		str	r3, [r2]
 3006 023c F083BDE8 		pop	{r4, r5, r6, r7, r8, r9, pc}
 3007              	.L486:
 3008 0240 00C040E3 		movt	ip, #:upper16:vdc_regaddr_img_qlty_imp
 3009 0244 14509CE5 		ldr	r5, [ip, #20]
 3010 0248 B7FFFFEA 		b	.L464
 3012              		.section	.text.VDC_ImageBlackStretch,"ax",%progbits
 3013              		.align	2
 3014              		.global	VDC_ImageBlackStretch
 3015              		.syntax unified
 3016              		.arm
 3017              		.fpu neon
 3019              	VDC_ImageBlackStretch:
 3020              		@ args = 0, pretend = 0, frame = 0
 3021              		@ frame_needed = 0, uses_anonymous_args = 0
 3022 0000 000051E3 		cmp	r1, #0
 3023 0004 1C00000A 		beq	.L499
 3024 0008 30402DE9 		push	{r4, r5, lr}
 3025 000c 002000E3 		movw	r2, #:lower16:vdc_regaddr_img_qlty_imp
 3026 0010 B040D1E1 		ldrh	r4, [r1]
 3027 0014 002040E3 		movt	r2, #:upper16:vdc_regaddr_img_qlty_imp
 3028 0018 000050E3 		cmp	r0, #0
 3029 001c 043092E5 		ldr	r3, [r2, #4]
 3030 0020 B2C0D1E1 		ldrh	ip, [r1, #2]
 3031 0024 044AA0E1 		lsl	r4, r4, #20
 3032 0028 B450D1E1 		ldrh	r5, [r1, #4]
 3033 002c B610D1E1 		ldrh	r1, [r1, #6]
 3034 0030 004083E5 		str	r4, [r3]
 3035 0034 00E093E5 		ldr	lr, [r3]
 3036 0038 002092E5 		ldr	r2, [r2]
 3037 003c 0CE88EE1 		orr	lr, lr, ip, lsl #16
 3038 0040 00E083E5 		str	lr, [r3]
 3039 0044 00C093E5 		ldr	ip, [r3]
 3040 0048 05C48CE1 		orr	ip, ip, r5, lsl #8
 3041 004c 00C083E5 		str	ip, [r3]
 3042 0050 00C093E5 		ldr	ip, [r3]
 3043 0054 0C1081E1 		orr	r1, r1, ip
 3044 0058 001083E5 		str	r1, [r3]
 3045 005c 001093E5 		ldr	r1, [r3]
 3046 0060 0114C103 		biceq	r1, r1, #16777216
 3047 0064 01148113 		orrne	r1, r1, #16777216
 3048 0068 001083E5 		str	r1, [r3]
 3049 006c 003092E5 		ldr	r3, [r2]
 3050 0070 013083E3 		orr	r3, r3, #1
 3051 0074 003082E5 		str	r3, [r2]
 3052 0078 3080BDE8 		pop	{r4, r5, pc}
 3053              	.L499:
 3054 007c 002000E3 		movw	r2, #:lower16:vdc_regaddr_img_qlty_imp
 3055 0080 000050E3 		cmp	r0, #0
 3056 0084 002040E3 		movt	r2, #:upper16:vdc_regaddr_img_qlty_imp
 3057 0088 043092E5 		ldr	r3, [r2, #4]
 3058 008c 001093E5 		ldr	r1, [r3]
 3059 0090 01148113 		orrne	r1, r1, #16777216
 3060 0094 00108315 		strne	r1, [r3]
 3061 0098 0114C103 		biceq	r1, r1, #16777216
 3062 009c 00108305 		streq	r1, [r3]
 3063              	.L496:
 3064 00a0 002092E5 		ldr	r2, [r2]
 3065 00a4 003092E5 		ldr	r3, [r2]
 3066 00a8 013083E3 		orr	r3, r3, #1
 3067 00ac 003082E5 		str	r3, [r2]
 3068 00b0 1EFF2FE1 		bx	lr
 3070              		.section	.text.VDC_AlphaBlending,"ax",%progbits
 3071              		.align	2
 3072              		.global	VDC_AlphaBlending
 3073              		.syntax unified
 3074              		.arm
 3075              		.fpu neon
 3077              	VDC_AlphaBlending:
 3078              		@ args = 0, pretend = 0, frame = 0
 3079              		@ frame_needed = 0, uses_anonymous_args = 0
 3080 0000 30402DE9 		push	{r4, r5, lr}
 3081 0004 003000E3 		movw	r3, #:lower16:vdc_regaddr_img_synthesizer
 3082 0008 00E091E5 		ldr	lr, [r1]
 3083 000c 00005EE3 		cmp	lr, #0
 3084 0010 00304003 		movteq	r3, #:upper16:vdc_regaddr_img_synthesizer
 3085 0014 1200000A 		beq	.L501
 3086 0018 5820A0E3 		mov	r2, #88
 3087 001c 003040E3 		movt	r3, #:upper16:vdc_regaddr_img_synthesizer
 3088 0020 923022E0 		mla	r2, r2, r0, r3
 3089 0024 44C092E5 		ldr	ip, [r2, #68]
 3090 0028 482092E5 		ldr	r2, [r2, #72]
 3091 002c 00409CE5 		ldr	r4, [ip]
 3092 0030 FF44C4E3 		bic	r4, r4, #-16777216
 3093 0034 00408CE5 		str	r4, [ip]
 3094 0038 00409CE5 		ldr	r4, [ip]
 3095 003c 0050DEE5 		ldrb	r5, [lr]	@ zero_extendqisi2
 3096 0040 054C84E1 		orr	r4, r4, r5, lsl #24
 3097 0044 00408CE5 		str	r4, [ip]
 3098 0048 00C092E5 		ldr	ip, [r2]
 3099 004c FFC4CCE3 		bic	ip, ip, #-16777216
 3100 0050 00C082E5 		str	ip, [r2]
 3101 0054 01E0DEE5 		ldrb	lr, [lr, #1]	@ zero_extendqisi2
 3102 0058 00C092E5 		ldr	ip, [r2]
 3103 005c 0ECC8CE1 		orr	ip, ip, lr, lsl #24
 3104 0060 00C082E5 		str	ip, [r2]
 3105              	.L501:
 3106 0064 042091E5 		ldr	r2, [r1, #4]
 3107 0068 000052E3 		cmp	r2, #0
 3108 006c 0800000A 		beq	.L502
 3109 0070 0020D2E5 		ldrb	r2, [r2]	@ zero_extendqisi2
 3110 0074 000052E3 		cmp	r2, #0
 3111 0078 5820A0E3 		mov	r2, #88
 3112 007c 923022E0 		mla	r2, r2, r0, r3
 3113 0080 201092E5 		ldr	r1, [r2, #32]
 3114 0084 002091E5 		ldr	r2, [r1]
 3115 0088 0129C203 		biceq	r2, r2, #16384
 3116 008c 01298213 		orrne	r2, r2, #16384
 3117 0090 002081E5 		str	r2, [r1]
 3118              	.L502:
 3119 0094 5820A0E3 		mov	r2, #88
 3120 0098 920000E0 		mul	r0, r2, r0
 3121 009c 002093E7 		ldr	r2, [r3, r0]
 3122 00a0 003092E5 		ldr	r3, [r2]
 3123 00a4 103083E3 		orr	r3, r3, #16
 3124 00a8 003082E5 		str	r3, [r2]
 3125 00ac 3080BDE8 		pop	{r4, r5, pc}
 3127              		.section	.text.VDC_AlphaBlendingRect,"ax",%progbits
 3128              		.align	2
 3129              		.global	VDC_AlphaBlendingRect
 3130              		.syntax unified
 3131              		.arm
 3132              		.fpu neon
 3134              	VDC_AlphaBlendingRect:
 3135              		@ args = 0, pretend = 0, frame = 0
 3136              		@ frame_needed = 0, uses_anonymous_args = 0
 3137 0000 003000E3 		movw	r3, #:lower16:vdc_regaddr_img_synthesizer
 3138 0004 000051E3 		cmp	r1, #0
 3139 0008 003040E3 		movt	r3, #:upper16:vdc_regaddr_img_synthesizer
 3140 000c 5810A0E3 		mov	r1, #88
 3141 0010 913021E0 		mla	r1, r1, r0, r3
 3142 0014 30402DE9 		push	{r4, r5, lr}
 3143 0018 20C091E5 		ldr	ip, [r1, #32]
 3144 001c 00109CE5 		ldr	r1, [ip]
 3145 0020 011AC103 		biceq	r1, r1, #4096
 3146 0024 011A8113 		orrne	r1, r1, #4096
 3147 0028 000052E3 		cmp	r2, #0
 3148 002c 00108CE5 		str	r1, [ip]
 3149 0030 4C00000A 		beq	.L515
 3150 0034 00E092E5 		ldr	lr, [r2]
 3151 0038 00005EE3 		cmp	lr, #0
 3152 003c 1F00000A 		beq	.L516
 3153 0040 5840A0E3 		mov	r4, #88
 3154 0044 B0C0DEE1 		ldrh	ip, [lr]
 3155 0048 943024E0 		mla	r4, r4, r0, r3
 3156 004c B410DEE1 		ldrh	r1, [lr, #4]
 3157 0050 245094E5 		ldr	r5, [r4, #36]
 3158 0054 284094E5 		ldr	r4, [r4, #40]
 3159 0058 005095E5 		ldr	r5, [r5]
 3160 005c 004094E5 		ldr	r4, [r4]
 3161 0060 25C88CE0 		add	ip, ip, r5, lsr #16
 3162 0064 B250DEE1 		ldrh	r5, [lr, #2]
 3163 0068 241881E0 		add	r1, r1, r4, lsr #16
 3164 006c B6E0DEE1 		ldrh	lr, [lr, #6]
 3165 0070 7F4ECCE3 		bic	r4, ip, #2032
 3166 0074 0F40C4E3 		bic	r4, r4, #15
 3167 0078 000054E3 		cmp	r4, #0
 3168 007c 7F4EC1E3 		bic	r4, r1, #2032
 3169 0080 00C0A013 		movne	ip, #0
 3170 0084 0F40C4E3 		bic	r4, r4, #15
 3171 0088 0CC8A001 		lsleq	ip, ip, #16
 3172 008c FFC74013 		movtne	ip, 2047
 3173 0090 000054E3 		cmp	r4, #0
 3174 0094 5840A0E3 		mov	r4, #88
 3175 0098 0010A013 		movne	r1, #0
 3176 009c 943024E0 		mla	r4, r4, r0, r3
 3177 00a0 0118A001 		lsleq	r1, r1, #16
 3178 00a4 FF174013 		movtne	r1, 2047
 3179 00a8 0CC085E1 		orr	ip, r5, ip
 3180 00ac 01108EE1 		orr	r1, lr, r1
 3181 00b0 2C5094E5 		ldr	r5, [r4, #44]
 3182 00b4 30E094E5 		ldr	lr, [r4, #48]
 3183 00b8 00C085E5 		str	ip, [r5]
 3184 00bc 00108EE5 		str	r1, [lr]
 3185              	.L516:
 3186 00c0 042092E5 		ldr	r2, [r2, #4]
 3187 00c4 000052E3 		cmp	r2, #0
 3188 00c8 2600000A 		beq	.L515
 3189 00cc 0410D2E5 		ldrb	r1, [r2, #4]	@ zero_extendqisi2
 3190 00d0 58E0A0E3 		mov	lr, #88
 3191 00d4 000051E3 		cmp	r1, #0
 3192 00d8 5810A0E3 		mov	r1, #88
 3193 00dc 913021E0 		mla	r1, r1, r0, r3
 3194 00e0 20C091E5 		ldr	ip, [r1, #32]
 3195 00e4 00109CE5 		ldr	r1, [ip]
 3196 00e8 0219C103 		biceq	r1, r1, #32768
 3197 00ec 02198113 		orrne	r1, r1, #32768
 3198 00f0 00108CE5 		str	r1, [ip]
 3199 00f4 F010D2E1 		ldrsh	r1, [r2]
 3200 00f8 000051E3 		cmp	r1, #0
 3201 00fc 01C0A0A1 		movge	ip, r1
 3202 0100 00C061B2 		rsblt	ip, r1, #0
 3203 0104 9E3021A0 		mlage	r1, lr, r0, r3
 3204 0108 0144A0B3 		movlt	r4, #16777216
 3205 010c 9E302EB0 		mlalt	lr, lr, r0, r3
 3206 0110 341091A5 		ldrge	r1, [r1, #52]
 3207 0114 00E0A0A3 		movge	lr, #0
 3208 0118 34109EB5 		ldrlt	r1, [lr, #52]
 3209 011c 00E081A5 		strge	lr, [r1]
 3210 0120 004081B5 		strlt	r4, [r1]
 3211 0124 5840A0E3 		mov	r4, #88
 3212 0128 00E091E5 		ldr	lr, [r1]
 3213 012c 943024E0 		mla	r4, r4, r0, r3
 3214 0130 0CE88EE1 		orr	lr, lr, ip, lsl #16
 3215 0134 38C094E5 		ldr	ip, [r4, #56]
 3216 0138 00E081E5 		str	lr, [r1]
 3217 013c 004091E5 		ldr	r4, [r1]
 3218 0140 02E0D2E5 		ldrb	lr, [r2, #2]	@ zero_extendqisi2
 3219 0144 04E08EE1 		orr	lr, lr, r4
 3220 0148 00E081E5 		str	lr, [r1]
 3221 014c 00109CE5 		ldr	r1, [ip]
 3222 0150 FF18C1E3 		bic	r1, r1, #16711680
 3223 0154 00108CE5 		str	r1, [ip]
 3224 0158 0310D2E5 		ldrb	r1, [r2, #3]	@ zero_extendqisi2
 3225 015c 00209CE5 		ldr	r2, [ip]
 3226 0160 012882E1 		orr	r2, r2, r1, lsl #16
 3227 0164 00208CE5 		str	r2, [ip]
 3228              	.L515:
 3229 0168 5820A0E3 		mov	r2, #88
 3230 016c 920000E0 		mul	r0, r2, r0
 3231 0170 002093E7 		ldr	r2, [r3, r0]
 3232 0174 003092E5 		ldr	r3, [r2]
 3233 0178 103083E3 		orr	r3, r3, #16
 3234 017c 003082E5 		str	r3, [r2]
 3235 0180 3080BDE8 		pop	{r4, r5, pc}
 3237              		.section	.text.VDC_Chromakey,"ax",%progbits
 3238              		.align	2
 3239              		.global	VDC_Chromakey
 3240              		.syntax unified
 3241              		.arm
 3242              		.fpu neon
 3244              	VDC_Chromakey:
 3245              		@ args = 0, pretend = 0, frame = 0
 3246              		@ frame_needed = 0, uses_anonymous_args = 0
 3247 0000 F0412DE9 		push	{r4, r5, r6, r7, r8, lr}
 3248 0004 005052E2 		subs	r5, r2, #0
 3249 0008 00300003 		movweq	r3, #:lower16:vdc_regaddr_img_synthesizer
 3250 000c 0160A0E1 		mov	r6, r1
 3251 0010 0040A0E1 		mov	r4, r0
 3252 0014 00304003 		movteq	r3, #:upper16:vdc_regaddr_img_synthesizer
 3253 0018 2100000A 		beq	.L534
 3254 001c FEFFFFEB 		bl	VDC_ShrdPrmGetGraphicsFormat
 3255 0020 053040E2 		sub	r3, r0, #5
 3256 0024 5810A0E3 		mov	r1, #88
 3257 0028 7330EFE6 		uxtb	r3, r3
 3258 002c 020053E3 		cmp	r3, #2
 3259 0030 003000E3 		movw	r3, #:lower16:vdc_regaddr_img_synthesizer
 3260 0034 003040E3 		movt	r3, #:upper16:vdc_regaddr_img_synthesizer
 3261 0038 2800008A 		bhi	.L535
 3262 003c 913421E0 		mla	r1, r1, r4, r3
 3263 0040 000095E5 		ldr	r0, [r5]
 3264 0044 FF2CA0E3 		mov	r2, #65280
 3265 0048 FF2040E3 		movt	r2, 255
 3266 004c 3CC091E5 		ldr	ip, [r1, #60]
 3267 0050 000CA0E1 		lsl	r0, r0, #24
 3268 0054 40E091E5 		ldr	lr, [r1, #64]
 3269 0058 00008CE5 		str	r0, [ip]
 3270 005c 04C095E5 		ldr	ip, [r5, #4]
 3271 0060 5C08E7E7 		ubfx	r0, ip, #16, #8
 3272 0064 FF140CE2 		and	r1, ip, #-16777216
 3273 0068 0C2402E0 		and	r2, r2, ip, lsl #8
 3274 006c 022080E1 		orr	r2, r0, r2
 3275 0070 022081E1 		orr	r2, r1, r2
 3276 0074 00208EE5 		str	r2, [lr]
 3277              	.L536:
 3278 0078 000054E3 		cmp	r4, #0
 3279 007c 5810A013 		movne	r1, #88
 3280 0080 40109305 		ldreq	r1, [r3, #64]
 3281 0084 91342110 		mlane	r1, r1, r4, r3
 3282 0088 0800D515 		ldrbne	r0, [r5, #8]	@ zero_extendqisi2
 3283 008c 00209105 		ldreq	r2, [r1]
 3284 0090 40109115 		ldrne	r1, [r1, #64]
 3285 0094 FF248203 		orreq	r2, r2, #-16777216
 3286 0098 00209115 		ldrne	r2, [r1]
 3287 009c 002C8211 		orrne	r2, r2, r0, lsl #24
 3288 00a0 002081E5 		str	r2, [r1]
 3289              	.L534:
 3290 00a4 5820A0E3 		mov	r2, #88
 3291 00a8 000056E3 		cmp	r6, #0
 3292 00ac 923422E0 		mla	r2, r2, r4, r3
 3293 00b0 381092E5 		ldr	r1, [r2, #56]
 3294 00b4 002091E5 		ldr	r2, [r1]
 3295 00b8 0120C203 		biceq	r2, r2, #1
 3296 00bc 01208213 		orrne	r2, r2, #1
 3297 00c0 002081E5 		str	r2, [r1]
 3298 00c4 5820A0E3 		mov	r2, #88
 3299 00c8 920404E0 		mul	r4, r2, r4
 3300 00cc 042093E7 		ldr	r2, [r3, r4]
 3301 00d0 003092E5 		ldr	r3, [r2]
 3302 00d4 103083E3 		orr	r3, r3, #16
 3303 00d8 003082E5 		str	r3, [r2]
 3304 00dc F081BDE8 		pop	{r4, r5, r6, r7, r8, pc}
 3305              	.L535:
 3306 00e0 913421E0 		mla	r1, r1, r4, r3
 3307 00e4 002095E5 		ldr	r2, [r5]
 3308 00e8 3C1091E5 		ldr	r1, [r1, #60]
 3309 00ec 0B0050E3 		cmp	r0, #11
 3310 00f0 00F19F97 		ldrls	pc, [pc, r0, asl #2]
 3311 00f4 D20000EA 		b	.L537
 3312              	.L539:
 3313 00f8 5C010000 		.word	.L538
 3314 00fc 0C020000 		.word	.L540
 3315 0100 5C020000 		.word	.L541
 3316 0104 04030000 		.word	.L542
 3317 0108 5C030000 		.word	.L543
 3318 010c 44040000 		.word	.L537
 3319 0110 44040000 		.word	.L537
 3320 0114 44040000 		.word	.L537
 3321 0118 44040000 		.word	.L537
 3322 011c 44040000 		.word	.L537
 3323 0120 9C030000 		.word	.L544
 3324 0124 28010000 		.word	.L545
 3325              	.L545:
 3326 0128 58C0A0E3 		mov	ip, #88
 3327 012c FF04C2E3 		bic	r0, r2, #-16777216
 3328 0130 9C342CE0 		mla	ip, ip, r4, r3
 3329 0134 FF00C0E3 		bic	r0, r0, #255
 3330 0138 220C80E1 		orr	r0, r0, r2, lsr #24
 3331 013c 40209CE5 		ldr	r2, [ip, #64]
 3332 0140 000081E5 		str	r0, [r1]
 3333 0144 041095E5 		ldr	r1, [r5, #4]
 3334              	.L552:
 3335 0148 FF04C1E3 		bic	r0, r1, #-16777216
 3336 014c FF00C0E3 		bic	r0, r0, #255
 3337 0150 210C80E1 		orr	r0, r0, r1, lsr #24
 3338              	.L553:
 3339 0154 000082E5 		str	r0, [r2]
 3340 0158 C6FFFFEA 		b	.L536
 3341              	.L538:
 3342 015c 0EC200E3 		movw	ip, #526
 3343 0160 D205E4E7 		ubfx	r0, r2, #11, #5
 3344 0164 1FE002E2 		and	lr, r2, #31
 3345 0168 9C0000E0 		mul	r0, ip, r0
 3346 016c D282E5E7 		ubfx	r8, r2, #5, #6
 3347 0170 067200E3 		movw	r7, #518
 3348 0174 9C0E02E0 		mul	r2, ip, lr
 3349 0178 58E0A0E3 		mov	lr, #88
 3350 017c 97080CE0 		mul	ip, r7, r8
 3351 0180 A002A0E1 		lsr	r0, r0, #5
 3352 0184 A222A0E1 		lsr	r2, r2, #5
 3353 0188 010080E2 		add	r0, r0, #1
 3354 018c A000A0E1 		lsr	r0, r0, #1
 3355 0190 012082E2 		add	r2, r2, #1
 3356 0194 2CC3A0E1 		lsr	ip, ip, #6
 3357 0198 A220A0E1 		lsr	r2, r2, #1
 3358 019c 01C08CE2 		add	ip, ip, #1
 3359 01a0 020480E1 		orr	r0, r0, r2, lsl #8
 3360 01a4 AC20A0E1 		lsr	r2, ip, #1
 3361 01a8 9E342EE0 		mla	lr, lr, r4, r3
 3362 01ac 020880E1 		orr	r0, r0, r2, lsl #16
 3363 01b0 40209EE5 		ldr	r2, [lr, #64]
 3364 01b4 000081E5 		str	r0, [r1]
 3365 01b8 041095E5 		ldr	r1, [r5, #4]
 3366              	.L546:
 3367 01bc 0EC200E3 		movw	ip, #526
 3368 01c0 D105E4E7 		ubfx	r0, r1, #11, #5
 3369 01c4 1F8001E2 		and	r8, r1, #31
 3370 01c8 9C0000E0 		mul	r0, ip, r0
 3371 01cc D172E5E7 		ubfx	r7, r1, #5, #6
 3372 01d0 06E200E3 		movw	lr, #518
 3373 01d4 9C0801E0 		mul	r1, ip, r8
 3374 01d8 9E070CE0 		mul	ip, lr, r7
 3375 01dc A002A0E1 		lsr	r0, r0, #5
 3376 01e0 A112A0E1 		lsr	r1, r1, #5
 3377 01e4 010080E2 		add	r0, r0, #1
 3378 01e8 A000A0E1 		lsr	r0, r0, #1
 3379 01ec 011081E2 		add	r1, r1, #1
 3380 01f0 2CC3A0E1 		lsr	ip, ip, #6
 3381 01f4 A110A0E1 		lsr	r1, r1, #1
 3382 01f8 01C08CE2 		add	ip, ip, #1
 3383 01fc 010480E1 		orr	r0, r0, r1, lsl #8
 3384 0200 AC10A0E1 		lsr	r1, ip, #1
 3385 0204 010880E1 		orr	r0, r0, r1, lsl #16
 3386 0208 D1FFFFEA 		b	.L553
 3387              	.L540:
 3388 020c FF0CA0E3 		mov	r0, #65280
 3389 0210 58C0A0E3 		mov	ip, #88
 3390 0214 FF0040E3 		movt	r0, 255
 3391 0218 52E8E7E7 		ubfx	lr, r2, #16, #8
 3392 021c 020400E0 		and	r0, r0, r2, lsl #8
 3393 0220 FF2402E2 		and	r2, r2, #-16777216
 3394 0224 9C342CE0 		mla	ip, ip, r4, r3
 3395 0228 00008EE1 		orr	r0, lr, r0
 3396 022c 000082E1 		orr	r0, r2, r0
 3397 0230 000081E5 		str	r0, [r1]
 3398 0234 40209CE5 		ldr	r2, [ip, #64]
 3399 0238 041095E5 		ldr	r1, [r5, #4]
 3400              	.L547:
 3401 023c FFCCA0E3 		mov	ip, #65280
 3402 0240 51E8E7E7 		ubfx	lr, r1, #16, #8
 3403 0244 FFC040E3 		movt	ip, 255
 3404 0248 FF0401E2 		and	r0, r1, #-16777216
 3405 024c 01140CE0 		and	r1, ip, r1, lsl #8
 3406 0250 01108EE1 		orr	r1, lr, r1
 3407 0254 010080E1 		orr	r0, r0, r1
 3408 0258 BDFFFFEA 		b	.L553
 3409              	.L541:
 3410 025c 0EC200E3 		movw	ip, #526
 3411 0260 5205E4E7 		ubfx	r0, r2, #10, #5
 3412 0264 1F7002E2 		and	r7, r2, #31
 3413 0268 9C0000E0 		mul	r0, ip, r0
 3414 026c D222E4E7 		ubfx	r2, r2, #5, #5
 3415 0270 58E0A0E3 		mov	lr, #88
 3416 0274 9C0707E0 		mul	r7, ip, r7
 3417 0278 9C0202E0 		mul	r2, ip, r2
 3418 027c A002A0E1 		lsr	r0, r0, #5
 3419 0280 A7C2A0E1 		lsr	ip, r7, #5
 3420 0284 010080E2 		add	r0, r0, #1
 3421 0288 A000A0E1 		lsr	r0, r0, #1
 3422 028c 01C08CE2 		add	ip, ip, #1
 3423 0290 A222A0E1 		lsr	r2, r2, #5
 3424 0294 ACC0A0E1 		lsr	ip, ip, #1
 3425 0298 012082E2 		add	r2, r2, #1
 3426 029c A220A0E1 		lsr	r2, r2, #1
 3427 02a0 0C0480E1 		orr	r0, r0, ip, lsl #8
 3428 02a4 9E342EE0 		mla	lr, lr, r4, r3
 3429 02a8 020880E1 		orr	r0, r0, r2, lsl #16
 3430 02ac 40209EE5 		ldr	r2, [lr, #64]
 3431 02b0 000081E5 		str	r0, [r1]
 3432 02b4 041095E5 		ldr	r1, [r5, #4]
 3433              	.L548:
 3434 02b8 0EC200E3 		movw	ip, #526
 3435 02bc 5105E4E7 		ubfx	r0, r1, #10, #5
 3436 02c0 1FE001E2 		and	lr, r1, #31
 3437 02c4 9C0000E0 		mul	r0, ip, r0
 3438 02c8 D112E4E7 		ubfx	r1, r1, #5, #5
 3439 02cc 9C0E0EE0 		mul	lr, ip, lr
 3440 02d0 9C0101E0 		mul	r1, ip, r1
 3441 02d4 A002A0E1 		lsr	r0, r0, #5
 3442 02d8 AEC2A0E1 		lsr	ip, lr, #5
 3443 02dc 010080E2 		add	r0, r0, #1
 3444 02e0 A000A0E1 		lsr	r0, r0, #1
 3445 02e4 01C08CE2 		add	ip, ip, #1
 3446 02e8 A112A0E1 		lsr	r1, r1, #5
 3447 02ec ACC0A0E1 		lsr	ip, ip, #1
 3448 02f0 011081E2 		add	r1, r1, #1
 3449 02f4 0C0480E1 		orr	r0, r0, ip, lsl #8
 3450 02f8 A110A0E1 		lsr	r1, r1, #1
 3451 02fc 010880E1 		orr	r0, r0, r1, lsl #16
 3452 0300 93FFFFEA 		b	.L553
 3453              	.L542:
 3454 0304 5204E3E7 		ubfx	r0, r2, #8, #4
 3455 0308 0FC002E2 		and	ip, r2, #15
 3456 030c 0CC28CE0 		add	ip, ip, ip, lsl #4
 3457 0310 000280E0 		add	r0, r0, r0, lsl #4
 3458 0314 5222E3E7 		ubfx	r2, r2, #4, #4
 3459 0318 58E0A0E3 		mov	lr, #88
 3460 031c 0C0480E1 		orr	r0, r0, ip, lsl #8
 3461 0320 022282E0 		add	r2, r2, r2, lsl #4
 3462 0324 9E342CE0 		mla	ip, lr, r4, r3
 3463 0328 020880E1 		orr	r0, r0, r2, lsl #16
 3464 032c 40209CE5 		ldr	r2, [ip, #64]
 3465 0330 000081E5 		str	r0, [r1]
 3466 0334 041095E5 		ldr	r1, [r5, #4]
 3467              	.L549:
 3468 0338 0F0001E2 		and	r0, r1, #15
 3469 033c 51C4E3E7 		ubfx	ip, r1, #8, #4
 3470 0340 00E280E0 		add	lr, r0, r0, lsl #4
 3471 0344 0CC28CE0 		add	ip, ip, ip, lsl #4
 3472 0348 5102E3E7 		ubfx	r0, r1, #4, #4
 3473 034c 0EC48CE1 		orr	ip, ip, lr, lsl #8
 3474 0350 000280E0 		add	r0, r0, r0, lsl #4
 3475 0354 00088CE1 		orr	r0, ip, r0, lsl #16
 3476 0358 7DFFFFEA 		b	.L553
 3477              	.L543:
 3478 035c FF0CA0E3 		mov	r0, #65280
 3479 0360 FF24C2E3 		bic	r2, r2, #-16777216
 3480 0364 FF0040E3 		movt	r0, 255
 3481 0368 58C0A0E3 		mov	ip, #88
 3482 036c 020400E0 		and	r0, r0, r2, lsl #8
 3483 0370 9C342CE0 		mla	ip, ip, r4, r3
 3484 0374 220880E1 		orr	r0, r0, r2, lsr #16
 3485 0378 40209CE5 		ldr	r2, [ip, #64]
 3486 037c 000081E5 		str	r0, [r1]
 3487 0380 041095E5 		ldr	r1, [r5, #4]
 3488              	.L550:
 3489 0384 FFCCA0E3 		mov	ip, #65280
 3490 0388 FF04C1E3 		bic	r0, r1, #-16777216
 3491 038c FFC040E3 		movt	ip, 255
 3492 0390 00C40CE0 		and	ip, ip, r0, lsl #8
 3493 0394 20088CE1 		orr	r0, ip, r0, lsr #16
 3494 0398 6DFFFFEA 		b	.L553
 3495              	.L544:
 3496 039c 0EC200E3 		movw	ip, #526
 3497 03a0 D200E4E7 		ubfx	r0, r2, #1, #5
 3498 03a4 9C0000E0 		mul	r0, ip, r0
 3499 03a8 5273E4E7 		ubfx	r7, r2, #6, #5
 3500 03ac D225E4E7 		ubfx	r2, r2, #11, #5
 3501 03b0 58E0A0E3 		mov	lr, #88
 3502 03b4 9C0707E0 		mul	r7, ip, r7
 3503 03b8 A002A0E1 		lsr	r0, r0, #5
 3504 03bc 9C0202E0 		mul	r2, ip, r2
 3505 03c0 010080E2 		add	r0, r0, #1
 3506 03c4 A7C2A0E1 		lsr	ip, r7, #5
 3507 03c8 A000A0E1 		lsr	r0, r0, #1
 3508 03cc 01C08CE2 		add	ip, ip, #1
 3509 03d0 A222A0E1 		lsr	r2, r2, #5
 3510 03d4 0004A0E1 		lsl	r0, r0, #8
 3511 03d8 ACC0A0E1 		lsr	ip, ip, #1
 3512 03dc 9E342EE0 		mla	lr, lr, r4, r3
 3513 03e0 0C0880E1 		orr	r0, r0, ip, lsl #16
 3514 03e4 012082E2 		add	r2, r2, #1
 3515 03e8 A20080E1 		orr	r0, r0, r2, lsr #1
 3516 03ec 40209EE5 		ldr	r2, [lr, #64]
 3517 03f0 000081E5 		str	r0, [r1]
 3518 03f4 041095E5 		ldr	r1, [r5, #4]
 3519              	.L551:
 3520 03f8 0EC200E3 		movw	ip, #526
 3521 03fc D100E4E7 		ubfx	r0, r1, #1, #5
 3522 0400 9C0000E0 		mul	r0, ip, r0
 3523 0404 51E3E4E7 		ubfx	lr, r1, #6, #5
 3524 0408 D115E4E7 		ubfx	r1, r1, #11, #5
 3525 040c 9C0E0EE0 		mul	lr, ip, lr
 3526 0410 A002A0E1 		lsr	r0, r0, #5
 3527 0414 9C0101E0 		mul	r1, ip, r1
 3528 0418 010080E2 		add	r0, r0, #1
 3529 041c AEC2A0E1 		lsr	ip, lr, #5
 3530 0420 A000A0E1 		lsr	r0, r0, #1
 3531 0424 01C08CE2 		add	ip, ip, #1
 3532 0428 A112A0E1 		lsr	r1, r1, #5
 3533 042c 0004A0E1 		lsl	r0, r0, #8
 3534 0430 ACC0A0E1 		lsr	ip, ip, #1
 3535 0434 0C0880E1 		orr	r0, r0, ip, lsl #16
 3536 0438 011081E2 		add	r1, r1, #1
 3537 043c A10080E1 		orr	r0, r0, r1, lsr #1
 3538 0440 43FFFFEA 		b	.L553
 3539              	.L537:
 3540 0444 5820A0E3 		mov	r2, #88
 3541 0448 00C0A0E3 		mov	ip, #0
 3542 044c 923422E0 		mla	r2, r2, r4, r3
 3543 0450 00C081E5 		str	ip, [r1]
 3544 0454 041095E5 		ldr	r1, [r5, #4]
 3545 0458 402092E5 		ldr	r2, [r2, #64]
 3546 045c 0B0050E3 		cmp	r0, #11
 3547 0460 00F19F97 		ldrls	pc, [pc, r0, asl #2]
 3548 0464 0B0000EA 		b	.L558
 3549              	.L554:
 3550 0468 BC010000 		.word	.L546
 3551 046c 3C020000 		.word	.L547
 3552 0470 B8020000 		.word	.L548
 3553 0474 38030000 		.word	.L549
 3554 0478 84030000 		.word	.L550
 3555 047c 98040000 		.word	.L558
 3556 0480 98040000 		.word	.L558
 3557 0484 98040000 		.word	.L558
 3558 0488 98040000 		.word	.L558
 3559 048c 98040000 		.word	.L558
 3560 0490 F8030000 		.word	.L551
 3561 0494 48010000 		.word	.L552
 3562              	.L558:
 3563 0498 0000A0E3 		mov	r0, #0
 3564 049c 2CFFFFEA 		b	.L553
 3566              		.section	.text.VDC_CLUT,"ax",%progbits
 3567              		.align	2
 3568              		.global	VDC_CLUT
 3569              		.syntax unified
 3570              		.arm
 3571              		.fpu neon
 3573              	VDC_CLUT:
 3574              		@ args = 0, pretend = 0, frame = 8
 3575              		@ frame_needed = 0, uses_anonymous_args = 0
 3576 0000 70402DE9 		push	{r4, r5, r6, lr}
 3577 0004 08D04DE2 		sub	sp, sp, #8
 3578 0008 0140A0E1 		mov	r4, r1
 3579 000c 0050A0E1 		mov	r5, r0
 3580 0010 FEFFFFEB 		bl	VDC_ShrdPrmGetGraphicsFormat
 3581 0014 070050E3 		cmp	r0, #7
 3582 0018 2000000A 		beq	.L574
 3583 001c 000094E5 		ldr	r0, [r4]
 3584 0020 003000E3 		movw	r3, #:lower16:vdc_regaddr_clut
 3585 0024 003040E3 		movt	r3, #:upper16:vdc_regaddr_clut
 3586 0028 042094E5 		ldr	r2, [r4, #4]
 3587 002c 051193E7 		ldr	r1, [r3, r5, lsl #2]
 3588 0030 000050E3 		cmp	r0, #0
 3589 0034 0030A013 		movne	r3, #0
 3590 0038 0100A011 		movne	r0, r1
 3591 003c 0500000A 		beq	.L571
 3592              	.L570:
 3593 0040 04C092E4 		ldr	ip, [r2], #4
 3594 0044 013083E2 		add	r3, r3, #1
 3595 0048 04C080E4 		str	ip, [r0], #4
 3596 004c 00C094E5 		ldr	ip, [r4]
 3597 0050 0C0053E1 		cmp	r3, ip
 3598 0054 F9FFFF3A 		bcc	.L570
 3599              	.L571:
 3600 0058 003000E3 		movw	r3, #:lower16:vdc_regaddr_img_synthesizer
 3601 005c 5820A0E3 		mov	r2, #88
 3602 0060 003040E3 		movt	r3, #:upper16:vdc_regaddr_img_synthesizer
 3603 0064 001091E5 		ldr	r1, [r1]
 3604 0068 923522E0 		mla	r2, r2, r5, r3
 3605 006c 04108DE5 		str	r1, [sp, #4]
 3606 0070 501092E5 		ldr	r1, [r2, #80]
 3607 0074 002091E5 		ldr	r2, [r1]
 3608 0078 012822E2 		eor	r2, r2, #65536
 3609 007c 002081E5 		str	r2, [r1]
 3610              	.L567:
 3611 0080 5800A0E3 		mov	r0, #88
 3612 0084 900500E0 		mul	r0, r0, r5
 3613 0088 002093E7 		ldr	r2, [r3, r0]
 3614 008c 003092E5 		ldr	r3, [r2]
 3615 0090 103083E3 		orr	r3, r3, #16
 3616 0094 003082E5 		str	r3, [r2]
 3617 0098 08D08DE2 		add	sp, sp, #8
 3618              		@ sp needed
 3619 009c 7080BDE8 		pop	{r4, r5, r6, pc}
 3620              	.L574:
 3621 00a0 003094E5 		ldr	r3, [r4]
 3622 00a4 010053E3 		cmp	r3, #1
 3623 00a8 1F00000A 		beq	.L575
 3624 00ac 046094E5 		ldr	r6, [r4, #4]
 3625 00b0 003000E3 		movw	r3, #:lower16:vdc_regaddr_img_synthesizer
 3626 00b4 003040E3 		movt	r3, #:upper16:vdc_regaddr_img_synthesizer
 3627 00b8 5800A0E3 		mov	r0, #88
 3628 00bc 903520E0 		mla	r0, r0, r5, r3
 3629 00c0 002096E5 		ldr	r2, [r6]
 3630 00c4 FF1CA0E3 		mov	r1, #65280
 3631 00c8 FF1040E3 		movt	r1, 255
 3632 00cc 000055E3 		cmp	r5, #0
 3633 00d0 52C8E7E7 		ubfx	ip, r2, #16, #8
 3634 00d4 44E090E5 		ldr	lr, [r0, #68]
 3635 00d8 024401E0 		and	r4, r1, r2, lsl #8
 3636 00dc FF2402E2 		and	r2, r2, #-16777216
 3637 00e0 04C08CE1 		orr	ip, ip, r4
 3638 00e4 484090E5 		ldr	r4, [r0, #72]
 3639 00e8 0C2082E1 		orr	r2, r2, ip
 3640 00ec 00208EE5 		str	r2, [lr]
 3641 00f0 04C096E5 		ldr	ip, [r6, #4]
 3642 00f4 5C08E7E7 		ubfx	r0, ip, #16, #8
 3643 00f8 FF240CE2 		and	r2, ip, #-16777216
 3644 00fc 0C1401E0 		and	r1, r1, ip, lsl #8
 3645 0100 011080E1 		orr	r1, r0, r1
 3646 0104 011082E1 		orr	r1, r2, r1
 3647 0108 001084E5 		str	r1, [r4]
 3648 010c DBFFFF1A 		bne	.L567
 3649 0110 00209EE5 		ldr	r2, [lr]
 3650 0114 FF2482E3 		orr	r2, r2, #-16777216
 3651 0118 00208EE5 		str	r2, [lr]
 3652 011c 002094E5 		ldr	r2, [r4]
 3653 0120 FF2482E3 		orr	r2, r2, #-16777216
 3654 0124 002084E5 		str	r2, [r4]
 3655 0128 D4FFFFEA 		b	.L567
 3656              	.L575:
 3657 012c 042094E5 		ldr	r2, [r4, #4]
 3658 0130 003000E3 		movw	r3, #:lower16:vdc_regaddr_img_synthesizer
 3659 0134 003040E3 		movt	r3, #:upper16:vdc_regaddr_img_synthesizer
 3660 0138 58C0A0E3 		mov	ip, #88
 3661 013c 9C352CE0 		mla	ip, ip, r5, r3
 3662 0140 002092E5 		ldr	r2, [r2]
 3663 0144 FF1CA0E3 		mov	r1, #65280
 3664 0148 FF1040E3 		movt	r1, 255
 3665 014c 000055E3 		cmp	r5, #0
 3666 0150 5208E7E7 		ubfx	r0, r2, #16, #8
 3667 0154 44C09CE5 		ldr	ip, [ip, #68]
 3668 0158 021401E0 		and	r1, r1, r2, lsl #8
 3669 015c FF2402E2 		and	r2, r2, #-16777216
 3670 0160 011080E1 		orr	r1, r0, r1
 3671 0164 012082E1 		orr	r2, r2, r1
 3672 0168 00208CE5 		str	r2, [ip]
 3673 016c 00209C05 		ldreq	r2, [ip]
 3674 0170 FF248203 		orreq	r2, r2, #-16777216
 3675 0174 00208C05 		streq	r2, [ip]
 3676 0178 C0FFFFEA 		b	.L567
 3678              		.section	.text.VDC_DisplayCalibration,"ax",%progbits
 3679              		.align	2
 3680              		.global	VDC_DisplayCalibration
 3681              		.syntax unified
 3682              		.arm
 3683              		.fpu neon
 3685              	VDC_DisplayCalibration:
 3686              		@ args = 0, pretend = 0, frame = 0
 3687              		@ frame_needed = 0, uses_anonymous_args = 0
 3688 0000 0030D0E5 		ldrb	r3, [r0]	@ zero_extendqisi2
 3689 0004 10402DE9 		push	{r4, lr}
 3690 0008 000053E3 		cmp	r3, #0
 3691 000c 003000E3 		movw	r3, #:lower16:vdc_regaddr_output_ctrl
 3692 0010 003040E3 		movt	r3, #:upper16:vdc_regaddr_output_ctrl
 3693 0014 5C1093E5 		ldr	r1, [r3, #92]
 3694 0018 002091E5 		ldr	r2, [r1]
 3695 001c 012AC203 		biceq	r2, r2, #4096
 3696 0020 012A8213 		orrne	r2, r2, #4096
 3697 0024 002081E5 		str	r2, [r1]
 3698 0028 042090E5 		ldr	r2, [r0, #4]
 3699 002c 000052E3 		cmp	r2, #0
 3700 0030 0A00000A 		beq	.L579
 3701 0034 B2C0D2E1 		ldrh	ip, [r2, #2]
 3702 0038 B040D2E1 		ldrh	r4, [r2]
 3703 003c 501093E5 		ldr	r1, [r3, #80]
 3704 0040 4CE093E5 		ldr	lr, [r3, #76]
 3705 0044 0CC8A0E1 		lsl	ip, ip, #16
 3706 0048 B420D2E1 		ldrh	r2, [r2, #4]
 3707 004c 00408EE5 		str	r4, [lr]
 3708 0050 00C081E5 		str	ip, [r1]
 3709 0054 00C091E5 		ldr	ip, [r1]
 3710 0058 0C2082E1 		orr	r2, r2, ip
 3711 005c 002081E5 		str	r2, [r1]
 3712              	.L579:
 3713 0060 081090E5 		ldr	r1, [r0, #8]
 3714 0064 000051E3 		cmp	r1, #0
 3715 0068 0B00000A 		beq	.L580
 3716 006c 00C0D1E5 		ldrb	ip, [r1]	@ zero_extendqisi2
 3717 0070 542093E5 		ldr	r2, [r3, #84]
 3718 0074 0CC8A0E1 		lsl	ip, ip, #16
 3719 0078 00C082E5 		str	ip, [r2]
 3720 007c 00C092E5 		ldr	ip, [r2]
 3721 0080 01E0D1E5 		ldrb	lr, [r1, #1]	@ zero_extendqisi2
 3722 0084 0EC48CE1 		orr	ip, ip, lr, lsl #8
 3723 0088 00C082E5 		str	ip, [r2]
 3724 008c 0210D1E5 		ldrb	r1, [r1, #2]	@ zero_extendqisi2
 3725 0090 00C092E5 		ldr	ip, [r2]
 3726 0094 0C1081E1 		orr	r1, r1, ip
 3727 0098 001082E5 		str	r1, [r2]
 3728              	.L580:
 3729 009c 0C1090E5 		ldr	r1, [r0, #12]
 3730 00a0 000051E3 		cmp	r1, #0
 3731 00a4 1D00000A 		beq	.L582
 3732 00a8 582093E5 		ldr	r2, [r3, #88]
 3733 00ac 00E0D1E5 		ldrb	lr, [r1]	@ zero_extendqisi2
 3734 00b0 00C092E5 		ldr	ip, [r2]
 3735 00b4 02005EE3 		cmp	lr, #2
 3736 00b8 03C6CCE3 		bic	ip, ip, #3145728
 3737 00bc 00C082E5 		str	ip, [r2]
 3738 00c0 000092E5 		ldr	r0, [r2]
 3739 00c4 0E0A80E1 		orr	r0, r0, lr, lsl #20
 3740 00c8 000082E5 		str	r0, [r2]
 3741 00cc 1300001A 		bne	.L582
 3742 00d0 000092E5 		ldr	r0, [r2]
 3743 00d4 330CC0E3 		bic	r0, r0, #13056
 3744 00d8 3300C0E3 		bic	r0, r0, #51
 3745 00dc 000082E5 		str	r0, [r2]
 3746 00e0 000092E5 		ldr	r0, [r2]
 3747 00e4 01C0D1E5 		ldrb	ip, [r1, #1]	@ zero_extendqisi2
 3748 00e8 0C0680E1 		orr	r0, r0, ip, lsl #12
 3749 00ec 000082E5 		str	r0, [r2]
 3750 00f0 000092E5 		ldr	r0, [r2]
 3751 00f4 02C0D1E5 		ldrb	ip, [r1, #2]	@ zero_extendqisi2
 3752 00f8 0C0480E1 		orr	r0, r0, ip, lsl #8
 3753 00fc 000082E5 		str	r0, [r2]
 3754 0100 000092E5 		ldr	r0, [r2]
 3755 0104 03C0D1E5 		ldrb	ip, [r1, #3]	@ zero_extendqisi2
 3756 0108 0C0280E1 		orr	r0, r0, ip, lsl #4
 3757 010c 000082E5 		str	r0, [r2]
 3758 0110 0410D1E5 		ldrb	r1, [r1, #4]	@ zero_extendqisi2
 3759 0114 000092E5 		ldr	r0, [r2]
 3760 0118 001081E1 		orr	r1, r1, r0
 3761 011c 001082E5 		str	r1, [r2]
 3762              	.L582:
 3763 0120 442093E5 		ldr	r2, [r3, #68]
 3764 0124 003092E5 		ldr	r3, [r2]
 3765 0128 013083E3 		orr	r3, r3, #1
 3766 012c 003082E5 		str	r3, [r2]
 3767 0130 1080BDE8 		pop	{r4, pc}
 3769              		.section	.text.VDC_GammaCorrection,"ax",%progbits
 3770              		.align	2
 3771              		.global	VDC_GammaCorrection
 3772              		.syntax unified
 3773              		.arm
 3774              		.fpu neon
 3776              	VDC_GammaCorrection:
 3777              		@ args = 0, pretend = 0, frame = 0
 3778              		@ frame_needed = 0, uses_anonymous_args = 0
 3779 0000 003000E3 		movw	r3, #:lower16:vdc_regaddr_gamma
 3780 0004 000090E2 		adds	r0, r0, #0
 3781 0008 003040E3 		movt	r3, #:upper16:vdc_regaddr_gamma
 3782 000c 0100A013 		movne	r0, #1
 3783 0010 002093E5 		ldr	r2, [r3]
 3784 0014 000051E3 		cmp	r1, #0
 3785 0018 000082E5 		str	r0, [r2]
 3786 001c 1EFF2F01 		bxeq	lr
 3787 0020 042091E5 		ldr	r2, [r1, #4]
 3788 0024 70402DE9 		push	{r4, r5, r6, lr}
 3789 0028 000052E3 		cmp	r2, #0
 3790 002c 7B00000A 		beq	.L596
 3791 0030 0040D2E5 		ldrb	r4, [r2]	@ zero_extendqisi2
 3792 0034 48E093E5 		ldr	lr, [r3, #72]
 3793 0038 4CC093E5 		ldr	ip, [r3, #76]
 3794 003c 500093E5 		ldr	r0, [r3, #80]
 3795 0040 0448A0E1 		lsl	r4, r4, #16
 3796 0044 00408EE5 		str	r4, [lr]
 3797 0048 00409EE5 		ldr	r4, [lr]
 3798 004c 0150D2E5 		ldrb	r5, [r2, #1]	@ zero_extendqisi2
 3799 0050 054484E1 		orr	r4, r4, r5, lsl #8
 3800 0054 00408EE5 		str	r4, [lr]
 3801 0058 00509EE5 		ldr	r5, [lr]
 3802 005c 0240D2E5 		ldrb	r4, [r2, #2]	@ zero_extendqisi2
 3803 0060 054084E1 		orr	r4, r4, r5
 3804 0064 00408EE5 		str	r4, [lr]
 3805 0068 03E0D2E5 		ldrb	lr, [r2, #3]	@ zero_extendqisi2
 3806 006c 0EECA0E1 		lsl	lr, lr, #24
 3807 0070 00E08CE5 		str	lr, [ip]
 3808 0074 00E09CE5 		ldr	lr, [ip]
 3809 0078 0440D2E5 		ldrb	r4, [r2, #4]	@ zero_extendqisi2
 3810 007c 04E88EE1 		orr	lr, lr, r4, lsl #16
 3811 0080 00E08CE5 		str	lr, [ip]
 3812 0084 00E09CE5 		ldr	lr, [ip]
 3813 0088 0540D2E5 		ldrb	r4, [r2, #5]	@ zero_extendqisi2
 3814 008c 04E48EE1 		orr	lr, lr, r4, lsl #8
 3815 0090 00E08CE5 		str	lr, [ip]
 3816 0094 00409CE5 		ldr	r4, [ip]
 3817 0098 06E0D2E5 		ldrb	lr, [r2, #6]	@ zero_extendqisi2
 3818 009c 04E08EE1 		orr	lr, lr, r4
 3819 00a0 00E08CE5 		str	lr, [ip]
 3820 00a4 07C0D2E5 		ldrb	ip, [r2, #7]	@ zero_extendqisi2
 3821 00a8 0CCCA0E1 		lsl	ip, ip, #24
 3822 00ac 00C080E5 		str	ip, [r0]
 3823 00b0 00C090E5 		ldr	ip, [r0]
 3824 00b4 08E0D2E5 		ldrb	lr, [r2, #8]	@ zero_extendqisi2
 3825 00b8 0EC88CE1 		orr	ip, ip, lr, lsl #16
 3826 00bc 00C080E5 		str	ip, [r0]
 3827 00c0 00C090E5 		ldr	ip, [r0]
 3828 00c4 09E0D2E5 		ldrb	lr, [r2, #9]	@ zero_extendqisi2
 3829 00c8 0EC48CE1 		orr	ip, ip, lr, lsl #8
 3830 00cc 00C080E5 		str	ip, [r0]
 3831 00d0 00E090E5 		ldr	lr, [r0]
 3832 00d4 0AC0D2E5 		ldrb	ip, [r2, #10]	@ zero_extendqisi2
 3833 00d8 0EC08CE1 		orr	ip, ip, lr
 3834 00dc 00C080E5 		str	ip, [r0]
 3835 00e0 0B40D2E5 		ldrb	r4, [r2, #11]	@ zero_extendqisi2
 3836 00e4 54C093E5 		ldr	ip, [r3, #84]
 3837 00e8 580093E5 		ldr	r0, [r3, #88]
 3838 00ec 5CE093E5 		ldr	lr, [r3, #92]
 3839 00f0 044CA0E1 		lsl	r4, r4, #24
 3840 00f4 00408CE5 		str	r4, [ip]
 3841 00f8 00409CE5 		ldr	r4, [ip]
 3842 00fc 0C50D2E5 		ldrb	r5, [r2, #12]	@ zero_extendqisi2
 3843 0100 054884E1 		orr	r4, r4, r5, lsl #16
 3844 0104 00408CE5 		str	r4, [ip]
 3845 0108 00409CE5 		ldr	r4, [ip]
 3846 010c 0D50D2E5 		ldrb	r5, [r2, #13]	@ zero_extendqisi2
 3847 0110 054484E1 		orr	r4, r4, r5, lsl #8
 3848 0114 00408CE5 		str	r4, [ip]
 3849 0118 00509CE5 		ldr	r5, [ip]
 3850 011c 0E40D2E5 		ldrb	r4, [r2, #14]	@ zero_extendqisi2
 3851 0120 054084E1 		orr	r4, r4, r5
 3852 0124 00408CE5 		str	r4, [ip]
 3853 0128 0FC0D2E5 		ldrb	ip, [r2, #15]	@ zero_extendqisi2
 3854 012c 0CCCA0E1 		lsl	ip, ip, #24
 3855 0130 00C080E5 		str	ip, [r0]
 3856 0134 00C090E5 		ldr	ip, [r0]
 3857 0138 1040D2E5 		ldrb	r4, [r2, #16]	@ zero_extendqisi2
 3858 013c 04C88CE1 		orr	ip, ip, r4, lsl #16
 3859 0140 00C080E5 		str	ip, [r0]
 3860 0144 00C090E5 		ldr	ip, [r0]
 3861 0148 1140D2E5 		ldrb	r4, [r2, #17]	@ zero_extendqisi2
 3862 014c 04C48CE1 		orr	ip, ip, r4, lsl #8
 3863 0150 00C080E5 		str	ip, [r0]
 3864 0154 004090E5 		ldr	r4, [r0]
 3865 0158 12C0D2E5 		ldrb	ip, [r2, #18]	@ zero_extendqisi2
 3866 015c 04C08CE1 		orr	ip, ip, r4
 3867 0160 00C080E5 		str	ip, [r0]
 3868 0164 1300D2E5 		ldrb	r0, [r2, #19]	@ zero_extendqisi2
 3869 0168 000CA0E1 		lsl	r0, r0, #24
 3870 016c 00008EE5 		str	r0, [lr]
 3871 0170 00009EE5 		ldr	r0, [lr]
 3872 0174 14C0D2E5 		ldrb	ip, [r2, #20]	@ zero_extendqisi2
 3873 0178 0C0880E1 		orr	r0, r0, ip, lsl #16
 3874 017c 00008EE5 		str	r0, [lr]
 3875 0180 15C0D2E5 		ldrb	ip, [r2, #21]	@ zero_extendqisi2
 3876 0184 00009EE5 		ldr	r0, [lr]
 3877 0188 0C0480E1 		orr	r0, r0, ip, lsl #8
 3878 018c 00008EE5 		str	r0, [lr]
 3879 0190 00509EE5 		ldr	r5, [lr]
 3880 0194 1640D2E5 		ldrb	r4, [r2, #22]	@ zero_extendqisi2
 3881 0198 60C093E5 		ldr	ip, [r3, #96]
 3882 019c 640093E5 		ldr	r0, [r3, #100]
 3883 01a0 054084E1 		orr	r4, r4, r5
 3884 01a4 00408EE5 		str	r4, [lr]
 3885 01a8 17E0D2E5 		ldrb	lr, [r2, #23]	@ zero_extendqisi2
 3886 01ac 0EECA0E1 		lsl	lr, lr, #24
 3887 01b0 00E08CE5 		str	lr, [ip]
 3888 01b4 00E09CE5 		ldr	lr, [ip]
 3889 01b8 1840D2E5 		ldrb	r4, [r2, #24]	@ zero_extendqisi2
 3890 01bc 04E88EE1 		orr	lr, lr, r4, lsl #16
 3891 01c0 00E08CE5 		str	lr, [ip]
 3892 01c4 00E09CE5 		ldr	lr, [ip]
 3893 01c8 1940D2E5 		ldrb	r4, [r2, #25]	@ zero_extendqisi2
 3894 01cc 04E48EE1 		orr	lr, lr, r4, lsl #8
 3895 01d0 00E08CE5 		str	lr, [ip]
 3896 01d4 00409CE5 		ldr	r4, [ip]
 3897 01d8 1AE0D2E5 		ldrb	lr, [r2, #26]	@ zero_extendqisi2
 3898 01dc 04E08EE1 		orr	lr, lr, r4
 3899 01e0 00E08CE5 		str	lr, [ip]
 3900 01e4 1BC0D2E5 		ldrb	ip, [r2, #27]	@ zero_extendqisi2
 3901 01e8 0CCCA0E1 		lsl	ip, ip, #24
 3902 01ec 00C080E5 		str	ip, [r0]
 3903 01f0 00C090E5 		ldr	ip, [r0]
 3904 01f4 1CE0D2E5 		ldrb	lr, [r2, #28]	@ zero_extendqisi2
 3905 01f8 0EC88CE1 		orr	ip, ip, lr, lsl #16
 3906 01fc 00C080E5 		str	ip, [r0]
 3907 0200 00C090E5 		ldr	ip, [r0]
 3908 0204 1DE0D2E5 		ldrb	lr, [r2, #29]	@ zero_extendqisi2
 3909 0208 0EC48CE1 		orr	ip, ip, lr, lsl #8
 3910 020c 00C080E5 		str	ip, [r0]
 3911 0210 1E20D2E5 		ldrb	r2, [r2, #30]	@ zero_extendqisi2
 3912 0214 00C090E5 		ldr	ip, [r0]
 3913 0218 0C2082E1 		orr	r2, r2, ip
 3914 021c 002080E5 		str	r2, [r0]
 3915              	.L596:
 3916 0220 002091E5 		ldr	r2, [r1]
 3917 0224 000052E3 		cmp	r2, #0
 3918 0228 7F00000A 		beq	.L595
 3919 022c B0E0D2E1 		ldrh	lr, [r2]
 3920 0230 08C093E5 		ldr	ip, [r3, #8]
 3921 0234 B400D2E1 		ldrh	r0, [r2, #4]
 3922 0238 B250D2E1 		ldrh	r5, [r2, #2]
 3923 023c 0EE8A0E1 		lsl	lr, lr, #16
 3924 0240 0C4093E5 		ldr	r4, [r3, #12]
 3925 0244 00E08CE5 		str	lr, [ip]
 3926 0248 0008A0E1 		lsl	r0, r0, #16
 3927 024c 00609CE5 		ldr	r6, [ip]
 3928 0250 B8E0D2E1 		ldrh	lr, [r2, #8]
 3929 0254 065085E1 		orr	r5, r5, r6
 3930 0258 00508CE5 		str	r5, [ip]
 3931 025c B650D2E1 		ldrh	r5, [r2, #6]
 3932 0260 0EE8A0E1 		lsl	lr, lr, #16
 3933 0264 000084E5 		str	r0, [r4]
 3934 0268 006094E5 		ldr	r6, [r4]
 3935 026c 10C093E5 		ldr	ip, [r3, #16]
 3936 0270 BC00D2E1 		ldrh	r0, [r2, #12]
 3937 0274 065085E1 		orr	r5, r5, r6
 3938 0278 005084E5 		str	r5, [r4]
 3939 027c BA50D2E1 		ldrh	r5, [r2, #10]
 3940 0280 00E08CE5 		str	lr, [ip]
 3941 0284 0008A0E1 		lsl	r0, r0, #16
 3942 0288 00609CE5 		ldr	r6, [ip]
 3943 028c 14E093E5 		ldr	lr, [r3, #20]
 3944 0290 B041D2E1 		ldrh	r4, [r2, #16]
 3945 0294 065085E1 		orr	r5, r5, r6
 3946 0298 00508CE5 		str	r5, [ip]
 3947 029c BE50D2E1 		ldrh	r5, [r2, #14]
 3948 02a0 00008EE5 		str	r0, [lr]
 3949 02a4 0448A0E1 		lsl	r4, r4, #16
 3950 02a8 00609EE5 		ldr	r6, [lr]
 3951 02ac 18C093E5 		ldr	ip, [r3, #24]
 3952 02b0 B401D2E1 		ldrh	r0, [r2, #20]
 3953 02b4 065085E1 		orr	r5, r5, r6
 3954 02b8 00508EE5 		str	r5, [lr]
 3955 02bc B2E1D2E1 		ldrh	lr, [r2, #18]
 3956 02c0 00408CE5 		str	r4, [ip]
 3957 02c4 0008A0E1 		lsl	r0, r0, #16
 3958 02c8 00509CE5 		ldr	r5, [ip]
 3959 02cc 1C4093E5 		ldr	r4, [r3, #28]
 3960 02d0 05E08EE1 		orr	lr, lr, r5
 3961 02d4 00E08CE5 		str	lr, [ip]
 3962 02d8 000084E5 		str	r0, [r4]
 3963 02dc B8E1D2E1 		ldrh	lr, [r2, #24]
 3964 02e0 006094E5 		ldr	r6, [r4]
 3965 02e4 B651D2E1 		ldrh	r5, [r2, #22]
 3966 02e8 20C093E5 		ldr	ip, [r3, #32]
 3967 02ec BC01D2E1 		ldrh	r0, [r2, #28]
 3968 02f0 0EE8A0E1 		lsl	lr, lr, #16
 3969 02f4 065085E1 		orr	r5, r5, r6
 3970 02f8 005084E5 		str	r5, [r4]
 3971 02fc BA51D2E1 		ldrh	r5, [r2, #26]
 3972 0300 00E08CE5 		str	lr, [ip]
 3973 0304 0008A0E1 		lsl	r0, r0, #16
 3974 0308 00609CE5 		ldr	r6, [ip]
 3975 030c 244093E5 		ldr	r4, [r3, #36]
 3976 0310 B0E2D2E1 		ldrh	lr, [r2, #32]
 3977 0314 065085E1 		orr	r5, r5, r6
 3978 0318 00508CE5 		str	r5, [ip]
 3979 031c BE51D2E1 		ldrh	r5, [r2, #30]
 3980 0320 000084E5 		str	r0, [r4]
 3981 0324 0EE8A0E1 		lsl	lr, lr, #16
 3982 0328 006094E5 		ldr	r6, [r4]
 3983 032c 28C093E5 		ldr	ip, [r3, #40]
 3984 0330 B402D2E1 		ldrh	r0, [r2, #36]
 3985 0334 065085E1 		orr	r5, r5, r6
 3986 0338 005084E5 		str	r5, [r4]
 3987 033c B252D2E1 		ldrh	r5, [r2, #34]
 3988 0340 00E08CE5 		str	lr, [ip]
 3989 0344 0008A0E1 		lsl	r0, r0, #16
 3990 0348 00609CE5 		ldr	r6, [ip]
 3991 034c 2C4093E5 		ldr	r4, [r3, #44]
 3992 0350 B8E2D2E1 		ldrh	lr, [r2, #40]
 3993 0354 065085E1 		orr	r5, r5, r6
 3994 0358 00508CE5 		str	r5, [ip]
 3995 035c B652D2E1 		ldrh	r5, [r2, #38]
 3996 0360 000084E5 		str	r0, [r4]
 3997 0364 0EE8A0E1 		lsl	lr, lr, #16
 3998 0368 00C094E5 		ldr	ip, [r4]
 3999 036c 300093E5 		ldr	r0, [r3, #48]
 4000 0370 0C5085E1 		orr	r5, r5, ip
 4001 0374 BAC2D2E1 		ldrh	ip, [r2, #42]
 4002 0378 005084E5 		str	r5, [r4]
 4003 037c 00E080E5 		str	lr, [r0]
 4004 0380 00E090E5 		ldr	lr, [r0]
 4005 0384 0EC08CE1 		orr	ip, ip, lr
 4006 0388 00C080E5 		str	ip, [r0]
 4007 038c BCC2D2E1 		ldrh	ip, [r2, #44]
 4008 0390 344093E5 		ldr	r4, [r3, #52]
 4009 0394 B003D2E1 		ldrh	r0, [r2, #48]
 4010 0398 BE52D2E1 		ldrh	r5, [r2, #46]
 4011 039c 0CC8A0E1 		lsl	ip, ip, #16
 4012 03a0 38E093E5 		ldr	lr, [r3, #56]
 4013 03a4 00C084E5 		str	ip, [r4]
 4014 03a8 0008A0E1 		lsl	r0, r0, #16
 4015 03ac 006094E5 		ldr	r6, [r4]
 4016 03b0 B4C3D2E1 		ldrh	ip, [r2, #52]
 4017 03b4 065085E1 		orr	r5, r5, r6
 4018 03b8 005084E5 		str	r5, [r4]
 4019 03bc B253D2E1 		ldrh	r5, [r2, #50]
 4020 03c0 0CC8A0E1 		lsl	ip, ip, #16
 4021 03c4 00008EE5 		str	r0, [lr]
 4022 03c8 00609EE5 		ldr	r6, [lr]
 4023 03cc 3C4093E5 		ldr	r4, [r3, #60]
 4024 03d0 B803D2E1 		ldrh	r0, [r2, #56]
 4025 03d4 065085E1 		orr	r5, r5, r6
 4026 03d8 00508EE5 		str	r5, [lr]
 4027 03dc B653D2E1 		ldrh	r5, [r2, #54]
 4028 03e0 00C084E5 		str	ip, [r4]
 4029 03e4 0008A0E1 		lsl	r0, r0, #16
 4030 03e8 006094E5 		ldr	r6, [r4]
 4031 03ec 40E093E5 		ldr	lr, [r3, #64]
 4032 03f0 BCC3D2E1 		ldrh	ip, [r2, #60]
 4033 03f4 065085E1 		orr	r5, r5, r6
 4034 03f8 005084E5 		str	r5, [r4]
 4035 03fc BA43D2E1 		ldrh	r4, [r2, #58]
 4036 0400 00008EE5 		str	r0, [lr]
 4037 0404 0CC8A0E1 		lsl	ip, ip, #16
 4038 0408 00509EE5 		ldr	r5, [lr]
 4039 040c 440093E5 		ldr	r0, [r3, #68]
 4040 0410 BE23D2E1 		ldrh	r2, [r2, #62]
 4041 0414 054084E1 		orr	r4, r4, r5
 4042 0418 00408EE5 		str	r4, [lr]
 4043 041c 00C080E5 		str	ip, [r0]
 4044 0420 00C090E5 		ldr	ip, [r0]
 4045 0424 0C2082E1 		orr	r2, r2, ip
 4046 0428 002080E5 		str	r2, [r0]
 4047              	.L595:
 4048 042c 04C093E5 		ldr	ip, [r3, #4]
 4049 0430 0C2091E5 		ldr	r2, [r1, #12]
 4050 0434 00009CE5 		ldr	r0, [ip]
 4051 0438 000052E3 		cmp	r2, #0
 4052 043c 010080E3 		orr	r0, r0, #1
 4053 0440 00008CE5 		str	r0, [ip]
 4054 0444 7B00000A 		beq	.L598
 4055 0448 0040D2E5 		ldrb	r4, [r2]	@ zero_extendqisi2
 4056 044c ACE093E5 		ldr	lr, [r3, #172]
 4057 0450 B0C093E5 		ldr	ip, [r3, #176]
 4058 0454 B40093E5 		ldr	r0, [r3, #180]
 4059 0458 0448A0E1 		lsl	r4, r4, #16
 4060 045c 00408EE5 		str	r4, [lr]
 4061 0460 00409EE5 		ldr	r4, [lr]
 4062 0464 0150D2E5 		ldrb	r5, [r2, #1]	@ zero_extendqisi2
 4063 0468 054484E1 		orr	r4, r4, r5, lsl #8
 4064 046c 00408EE5 		str	r4, [lr]
 4065 0470 00509EE5 		ldr	r5, [lr]
 4066 0474 0240D2E5 		ldrb	r4, [r2, #2]	@ zero_extendqisi2
 4067 0478 054084E1 		orr	r4, r4, r5
 4068 047c 00408EE5 		str	r4, [lr]
 4069 0480 03E0D2E5 		ldrb	lr, [r2, #3]	@ zero_extendqisi2
 4070 0484 0EECA0E1 		lsl	lr, lr, #24
 4071 0488 00E08CE5 		str	lr, [ip]
 4072 048c 00E09CE5 		ldr	lr, [ip]
 4073 0490 0440D2E5 		ldrb	r4, [r2, #4]	@ zero_extendqisi2
 4074 0494 04E88EE1 		orr	lr, lr, r4, lsl #16
 4075 0498 00E08CE5 		str	lr, [ip]
 4076 049c 00E09CE5 		ldr	lr, [ip]
 4077 04a0 0540D2E5 		ldrb	r4, [r2, #5]	@ zero_extendqisi2
 4078 04a4 04E48EE1 		orr	lr, lr, r4, lsl #8
 4079 04a8 00E08CE5 		str	lr, [ip]
 4080 04ac 00409CE5 		ldr	r4, [ip]
 4081 04b0 06E0D2E5 		ldrb	lr, [r2, #6]	@ zero_extendqisi2
 4082 04b4 04E08EE1 		orr	lr, lr, r4
 4083 04b8 00E08CE5 		str	lr, [ip]
 4084 04bc 07C0D2E5 		ldrb	ip, [r2, #7]	@ zero_extendqisi2
 4085 04c0 0CCCA0E1 		lsl	ip, ip, #24
 4086 04c4 00C080E5 		str	ip, [r0]
 4087 04c8 00C090E5 		ldr	ip, [r0]
 4088 04cc 08E0D2E5 		ldrb	lr, [r2, #8]	@ zero_extendqisi2
 4089 04d0 0EC88CE1 		orr	ip, ip, lr, lsl #16
 4090 04d4 00C080E5 		str	ip, [r0]
 4091 04d8 00C090E5 		ldr	ip, [r0]
 4092 04dc 09E0D2E5 		ldrb	lr, [r2, #9]	@ zero_extendqisi2
 4093 04e0 0EC48CE1 		orr	ip, ip, lr, lsl #8
 4094 04e4 00C080E5 		str	ip, [r0]
 4095 04e8 00E090E5 		ldr	lr, [r0]
 4096 04ec 0AC0D2E5 		ldrb	ip, [r2, #10]	@ zero_extendqisi2
 4097 04f0 0EC08CE1 		orr	ip, ip, lr
 4098 04f4 00C080E5 		str	ip, [r0]
 4099 04f8 0B40D2E5 		ldrb	r4, [r2, #11]	@ zero_extendqisi2
 4100 04fc B8C093E5 		ldr	ip, [r3, #184]
 4101 0500 BC0093E5 		ldr	r0, [r3, #188]
 4102 0504 C0E093E5 		ldr	lr, [r3, #192]
 4103 0508 044CA0E1 		lsl	r4, r4, #24
 4104 050c 00408CE5 		str	r4, [ip]
 4105 0510 00409CE5 		ldr	r4, [ip]
 4106 0514 0C50D2E5 		ldrb	r5, [r2, #12]	@ zero_extendqisi2
 4107 0518 054884E1 		orr	r4, r4, r5, lsl #16
 4108 051c 00408CE5 		str	r4, [ip]
 4109 0520 00409CE5 		ldr	r4, [ip]
 4110 0524 0D50D2E5 		ldrb	r5, [r2, #13]	@ zero_extendqisi2
 4111 0528 054484E1 		orr	r4, r4, r5, lsl #8
 4112 052c 00408CE5 		str	r4, [ip]
 4113 0530 00509CE5 		ldr	r5, [ip]
 4114 0534 0E40D2E5 		ldrb	r4, [r2, #14]	@ zero_extendqisi2
 4115 0538 054084E1 		orr	r4, r4, r5
 4116 053c 00408CE5 		str	r4, [ip]
 4117 0540 0FC0D2E5 		ldrb	ip, [r2, #15]	@ zero_extendqisi2
 4118 0544 0CCCA0E1 		lsl	ip, ip, #24
 4119 0548 00C080E5 		str	ip, [r0]
 4120 054c 00C090E5 		ldr	ip, [r0]
 4121 0550 1040D2E5 		ldrb	r4, [r2, #16]	@ zero_extendqisi2
 4122 0554 04C88CE1 		orr	ip, ip, r4, lsl #16
 4123 0558 00C080E5 		str	ip, [r0]
 4124 055c 00C090E5 		ldr	ip, [r0]
 4125 0560 1140D2E5 		ldrb	r4, [r2, #17]	@ zero_extendqisi2
 4126 0564 04C48CE1 		orr	ip, ip, r4, lsl #8
 4127 0568 00C080E5 		str	ip, [r0]
 4128 056c 004090E5 		ldr	r4, [r0]
 4129 0570 12C0D2E5 		ldrb	ip, [r2, #18]	@ zero_extendqisi2
 4130 0574 04C08CE1 		orr	ip, ip, r4
 4131 0578 00C080E5 		str	ip, [r0]
 4132 057c 1300D2E5 		ldrb	r0, [r2, #19]	@ zero_extendqisi2
 4133 0580 000CA0E1 		lsl	r0, r0, #24
 4134 0584 00008EE5 		str	r0, [lr]
 4135 0588 00009EE5 		ldr	r0, [lr]
 4136 058c 14C0D2E5 		ldrb	ip, [r2, #20]	@ zero_extendqisi2
 4137 0590 0C0880E1 		orr	r0, r0, ip, lsl #16
 4138 0594 00008EE5 		str	r0, [lr]
 4139 0598 15C0D2E5 		ldrb	ip, [r2, #21]	@ zero_extendqisi2
 4140 059c 00009EE5 		ldr	r0, [lr]
 4141 05a0 0C0480E1 		orr	r0, r0, ip, lsl #8
 4142 05a4 00008EE5 		str	r0, [lr]
 4143 05a8 00509EE5 		ldr	r5, [lr]
 4144 05ac 1640D2E5 		ldrb	r4, [r2, #22]	@ zero_extendqisi2
 4145 05b0 C4C093E5 		ldr	ip, [r3, #196]
 4146 05b4 C80093E5 		ldr	r0, [r3, #200]
 4147 05b8 054084E1 		orr	r4, r4, r5
 4148 05bc 00408EE5 		str	r4, [lr]
 4149 05c0 17E0D2E5 		ldrb	lr, [r2, #23]	@ zero_extendqisi2
 4150 05c4 0EECA0E1 		lsl	lr, lr, #24
 4151 05c8 00E08CE5 		str	lr, [ip]
 4152 05cc 00E09CE5 		ldr	lr, [ip]
 4153 05d0 1840D2E5 		ldrb	r4, [r2, #24]	@ zero_extendqisi2
 4154 05d4 04E88EE1 		orr	lr, lr, r4, lsl #16
 4155 05d8 00E08CE5 		str	lr, [ip]
 4156 05dc 00E09CE5 		ldr	lr, [ip]
 4157 05e0 1940D2E5 		ldrb	r4, [r2, #25]	@ zero_extendqisi2
 4158 05e4 04E48EE1 		orr	lr, lr, r4, lsl #8
 4159 05e8 00E08CE5 		str	lr, [ip]
 4160 05ec 00409CE5 		ldr	r4, [ip]
 4161 05f0 1AE0D2E5 		ldrb	lr, [r2, #26]	@ zero_extendqisi2
 4162 05f4 04E08EE1 		orr	lr, lr, r4
 4163 05f8 00E08CE5 		str	lr, [ip]
 4164 05fc 1BC0D2E5 		ldrb	ip, [r2, #27]	@ zero_extendqisi2
 4165 0600 0CCCA0E1 		lsl	ip, ip, #24
 4166 0604 00C080E5 		str	ip, [r0]
 4167 0608 00C090E5 		ldr	ip, [r0]
 4168 060c 1CE0D2E5 		ldrb	lr, [r2, #28]	@ zero_extendqisi2
 4169 0610 0EC88CE1 		orr	ip, ip, lr, lsl #16
 4170 0614 00C080E5 		str	ip, [r0]
 4171 0618 00C090E5 		ldr	ip, [r0]
 4172 061c 1DE0D2E5 		ldrb	lr, [r2, #29]	@ zero_extendqisi2
 4173 0620 0EC48CE1 		orr	ip, ip, lr, lsl #8
 4174 0624 00C080E5 		str	ip, [r0]
 4175 0628 1E20D2E5 		ldrb	r2, [r2, #30]	@ zero_extendqisi2
 4176 062c 00C090E5 		ldr	ip, [r0]
 4177 0630 0C2082E1 		orr	r2, r2, ip
 4178 0634 002080E5 		str	r2, [r0]
 4179              	.L598:
 4180 0638 082091E5 		ldr	r2, [r1, #8]
 4181 063c 000052E3 		cmp	r2, #0
 4182 0640 7F00000A 		beq	.L600
 4183 0644 B0E0D2E1 		ldrh	lr, [r2]
 4184 0648 6CC093E5 		ldr	ip, [r3, #108]
 4185 064c B400D2E1 		ldrh	r0, [r2, #4]
 4186 0650 B250D2E1 		ldrh	r5, [r2, #2]
 4187 0654 0EE8A0E1 		lsl	lr, lr, #16
 4188 0658 704093E5 		ldr	r4, [r3, #112]
 4189 065c 00E08CE5 		str	lr, [ip]
 4190 0660 0008A0E1 		lsl	r0, r0, #16
 4191 0664 00609CE5 		ldr	r6, [ip]
 4192 0668 B8E0D2E1 		ldrh	lr, [r2, #8]
 4193 066c 065085E1 		orr	r5, r5, r6
 4194 0670 00508CE5 		str	r5, [ip]
 4195 0674 B650D2E1 		ldrh	r5, [r2, #6]
 4196 0678 0EE8A0E1 		lsl	lr, lr, #16
 4197 067c 000084E5 		str	r0, [r4]
 4198 0680 006094E5 		ldr	r6, [r4]
 4199 0684 74C093E5 		ldr	ip, [r3, #116]
 4200 0688 BC00D2E1 		ldrh	r0, [r2, #12]
 4201 068c 065085E1 		orr	r5, r5, r6
 4202 0690 005084E5 		str	r5, [r4]
 4203 0694 BA50D2E1 		ldrh	r5, [r2, #10]
 4204 0698 00E08CE5 		str	lr, [ip]
 4205 069c 0008A0E1 		lsl	r0, r0, #16
 4206 06a0 00609CE5 		ldr	r6, [ip]
 4207 06a4 78E093E5 		ldr	lr, [r3, #120]
 4208 06a8 B041D2E1 		ldrh	r4, [r2, #16]
 4209 06ac 065085E1 		orr	r5, r5, r6
 4210 06b0 00508CE5 		str	r5, [ip]
 4211 06b4 BE50D2E1 		ldrh	r5, [r2, #14]
 4212 06b8 00008EE5 		str	r0, [lr]
 4213 06bc 0448A0E1 		lsl	r4, r4, #16
 4214 06c0 00609EE5 		ldr	r6, [lr]
 4215 06c4 7CC093E5 		ldr	ip, [r3, #124]
 4216 06c8 B401D2E1 		ldrh	r0, [r2, #20]
 4217 06cc 065085E1 		orr	r5, r5, r6
 4218 06d0 00508EE5 		str	r5, [lr]
 4219 06d4 B2E1D2E1 		ldrh	lr, [r2, #18]
 4220 06d8 00408CE5 		str	r4, [ip]
 4221 06dc 0008A0E1 		lsl	r0, r0, #16
 4222 06e0 00509CE5 		ldr	r5, [ip]
 4223 06e4 804093E5 		ldr	r4, [r3, #128]
 4224 06e8 05E08EE1 		orr	lr, lr, r5
 4225 06ec 00E08CE5 		str	lr, [ip]
 4226 06f0 000084E5 		str	r0, [r4]
 4227 06f4 B8E1D2E1 		ldrh	lr, [r2, #24]
 4228 06f8 006094E5 		ldr	r6, [r4]
 4229 06fc B651D2E1 		ldrh	r5, [r2, #22]
 4230 0700 84C093E5 		ldr	ip, [r3, #132]
 4231 0704 BC01D2E1 		ldrh	r0, [r2, #28]
 4232 0708 0EE8A0E1 		lsl	lr, lr, #16
 4233 070c 065085E1 		orr	r5, r5, r6
 4234 0710 005084E5 		str	r5, [r4]
 4235 0714 BA51D2E1 		ldrh	r5, [r2, #26]
 4236 0718 00E08CE5 		str	lr, [ip]
 4237 071c 0008A0E1 		lsl	r0, r0, #16
 4238 0720 00609CE5 		ldr	r6, [ip]
 4239 0724 884093E5 		ldr	r4, [r3, #136]
 4240 0728 B0E2D2E1 		ldrh	lr, [r2, #32]
 4241 072c 065085E1 		orr	r5, r5, r6
 4242 0730 00508CE5 		str	r5, [ip]
 4243 0734 BE51D2E1 		ldrh	r5, [r2, #30]
 4244 0738 000084E5 		str	r0, [r4]
 4245 073c 0EE8A0E1 		lsl	lr, lr, #16
 4246 0740 006094E5 		ldr	r6, [r4]
 4247 0744 8CC093E5 		ldr	ip, [r3, #140]
 4248 0748 B402D2E1 		ldrh	r0, [r2, #36]
 4249 074c 065085E1 		orr	r5, r5, r6
 4250 0750 005084E5 		str	r5, [r4]
 4251 0754 B252D2E1 		ldrh	r5, [r2, #34]
 4252 0758 00E08CE5 		str	lr, [ip]
 4253 075c 0008A0E1 		lsl	r0, r0, #16
 4254 0760 00609CE5 		ldr	r6, [ip]
 4255 0764 904093E5 		ldr	r4, [r3, #144]
 4256 0768 B8E2D2E1 		ldrh	lr, [r2, #40]
 4257 076c 065085E1 		orr	r5, r5, r6
 4258 0770 00508CE5 		str	r5, [ip]
 4259 0774 B652D2E1 		ldrh	r5, [r2, #38]
 4260 0778 000084E5 		str	r0, [r4]
 4261 077c 0EE8A0E1 		lsl	lr, lr, #16
 4262 0780 00C094E5 		ldr	ip, [r4]
 4263 0784 940093E5 		ldr	r0, [r3, #148]
 4264 0788 0C5085E1 		orr	r5, r5, ip
 4265 078c BAC2D2E1 		ldrh	ip, [r2, #42]
 4266 0790 005084E5 		str	r5, [r4]
 4267 0794 00E080E5 		str	lr, [r0]
 4268 0798 00E090E5 		ldr	lr, [r0]
 4269 079c 0EC08CE1 		orr	ip, ip, lr
 4270 07a0 00C080E5 		str	ip, [r0]
 4271 07a4 BCC2D2E1 		ldrh	ip, [r2, #44]
 4272 07a8 984093E5 		ldr	r4, [r3, #152]
 4273 07ac B003D2E1 		ldrh	r0, [r2, #48]
 4274 07b0 BE52D2E1 		ldrh	r5, [r2, #46]
 4275 07b4 0CC8A0E1 		lsl	ip, ip, #16
 4276 07b8 9CE093E5 		ldr	lr, [r3, #156]
 4277 07bc 00C084E5 		str	ip, [r4]
 4278 07c0 0008A0E1 		lsl	r0, r0, #16
 4279 07c4 006094E5 		ldr	r6, [r4]
 4280 07c8 B4C3D2E1 		ldrh	ip, [r2, #52]
 4281 07cc 065085E1 		orr	r5, r5, r6
 4282 07d0 005084E5 		str	r5, [r4]
 4283 07d4 B253D2E1 		ldrh	r5, [r2, #50]
 4284 07d8 0CC8A0E1 		lsl	ip, ip, #16
 4285 07dc 00008EE5 		str	r0, [lr]
 4286 07e0 00609EE5 		ldr	r6, [lr]
 4287 07e4 A04093E5 		ldr	r4, [r3, #160]
 4288 07e8 B803D2E1 		ldrh	r0, [r2, #56]
 4289 07ec 065085E1 		orr	r5, r5, r6
 4290 07f0 00508EE5 		str	r5, [lr]
 4291 07f4 B653D2E1 		ldrh	r5, [r2, #54]
 4292 07f8 00C084E5 		str	ip, [r4]
 4293 07fc 0008A0E1 		lsl	r0, r0, #16
 4294 0800 006094E5 		ldr	r6, [r4]
 4295 0804 A4E093E5 		ldr	lr, [r3, #164]
 4296 0808 BCC3D2E1 		ldrh	ip, [r2, #60]
 4297 080c 065085E1 		orr	r5, r5, r6
 4298 0810 005084E5 		str	r5, [r4]
 4299 0814 BA43D2E1 		ldrh	r4, [r2, #58]
 4300 0818 00008EE5 		str	r0, [lr]
 4301 081c 0CC8A0E1 		lsl	ip, ip, #16
 4302 0820 00509EE5 		ldr	r5, [lr]
 4303 0824 A80093E5 		ldr	r0, [r3, #168]
 4304 0828 BE23D2E1 		ldrh	r2, [r2, #62]
 4305 082c 054084E1 		orr	r4, r4, r5
 4306 0830 00408EE5 		str	r4, [lr]
 4307 0834 00C080E5 		str	ip, [r0]
 4308 0838 00C090E5 		ldr	ip, [r0]
 4309 083c 0C2082E1 		orr	r2, r2, ip
 4310 0840 002080E5 		str	r2, [r0]
 4311              	.L600:
 4312 0844 68C093E5 		ldr	ip, [r3, #104]
 4313 0848 142091E5 		ldr	r2, [r1, #20]
 4314 084c 00009CE5 		ldr	r0, [ip]
 4315 0850 000052E3 		cmp	r2, #0
 4316 0854 010080E3 		orr	r0, r0, #1
 4317 0858 00008CE5 		str	r0, [ip]
 4318 085c 7B00000A 		beq	.L602
 4319 0860 0040D2E5 		ldrb	r4, [r2]	@ zero_extendqisi2
 4320 0864 10E193E5 		ldr	lr, [r3, #272]
 4321 0868 14C193E5 		ldr	ip, [r3, #276]
 4322 086c 180193E5 		ldr	r0, [r3, #280]
 4323 0870 0448A0E1 		lsl	r4, r4, #16
 4324 0874 00408EE5 		str	r4, [lr]
 4325 0878 00409EE5 		ldr	r4, [lr]
 4326 087c 0150D2E5 		ldrb	r5, [r2, #1]	@ zero_extendqisi2
 4327 0880 054484E1 		orr	r4, r4, r5, lsl #8
 4328 0884 00408EE5 		str	r4, [lr]
 4329 0888 00509EE5 		ldr	r5, [lr]
 4330 088c 0240D2E5 		ldrb	r4, [r2, #2]	@ zero_extendqisi2
 4331 0890 054084E1 		orr	r4, r4, r5
 4332 0894 00408EE5 		str	r4, [lr]
 4333 0898 03E0D2E5 		ldrb	lr, [r2, #3]	@ zero_extendqisi2
 4334 089c 0EECA0E1 		lsl	lr, lr, #24
 4335 08a0 00E08CE5 		str	lr, [ip]
 4336 08a4 00E09CE5 		ldr	lr, [ip]
 4337 08a8 0440D2E5 		ldrb	r4, [r2, #4]	@ zero_extendqisi2
 4338 08ac 04E88EE1 		orr	lr, lr, r4, lsl #16
 4339 08b0 00E08CE5 		str	lr, [ip]
 4340 08b4 00E09CE5 		ldr	lr, [ip]
 4341 08b8 0540D2E5 		ldrb	r4, [r2, #5]	@ zero_extendqisi2
 4342 08bc 04E48EE1 		orr	lr, lr, r4, lsl #8
 4343 08c0 00E08CE5 		str	lr, [ip]
 4344 08c4 00409CE5 		ldr	r4, [ip]
 4345 08c8 06E0D2E5 		ldrb	lr, [r2, #6]	@ zero_extendqisi2
 4346 08cc 04E08EE1 		orr	lr, lr, r4
 4347 08d0 00E08CE5 		str	lr, [ip]
 4348 08d4 07C0D2E5 		ldrb	ip, [r2, #7]	@ zero_extendqisi2
 4349 08d8 0CCCA0E1 		lsl	ip, ip, #24
 4350 08dc 00C080E5 		str	ip, [r0]
 4351 08e0 00C090E5 		ldr	ip, [r0]
 4352 08e4 08E0D2E5 		ldrb	lr, [r2, #8]	@ zero_extendqisi2
 4353 08e8 0EC88CE1 		orr	ip, ip, lr, lsl #16
 4354 08ec 00C080E5 		str	ip, [r0]
 4355 08f0 00C090E5 		ldr	ip, [r0]
 4356 08f4 09E0D2E5 		ldrb	lr, [r2, #9]	@ zero_extendqisi2
 4357 08f8 0EC48CE1 		orr	ip, ip, lr, lsl #8
 4358 08fc 00C080E5 		str	ip, [r0]
 4359 0900 00E090E5 		ldr	lr, [r0]
 4360 0904 0AC0D2E5 		ldrb	ip, [r2, #10]	@ zero_extendqisi2
 4361 0908 0EC08CE1 		orr	ip, ip, lr
 4362 090c 00C080E5 		str	ip, [r0]
 4363 0910 0B40D2E5 		ldrb	r4, [r2, #11]	@ zero_extendqisi2
 4364 0914 1CC193E5 		ldr	ip, [r3, #284]
 4365 0918 200193E5 		ldr	r0, [r3, #288]
 4366 091c 24E193E5 		ldr	lr, [r3, #292]
 4367 0920 044CA0E1 		lsl	r4, r4, #24
 4368 0924 00408CE5 		str	r4, [ip]
 4369 0928 00409CE5 		ldr	r4, [ip]
 4370 092c 0C50D2E5 		ldrb	r5, [r2, #12]	@ zero_extendqisi2
 4371 0930 054884E1 		orr	r4, r4, r5, lsl #16
 4372 0934 00408CE5 		str	r4, [ip]
 4373 0938 00409CE5 		ldr	r4, [ip]
 4374 093c 0D50D2E5 		ldrb	r5, [r2, #13]	@ zero_extendqisi2
 4375 0940 054484E1 		orr	r4, r4, r5, lsl #8
 4376 0944 00408CE5 		str	r4, [ip]
 4377 0948 00509CE5 		ldr	r5, [ip]
 4378 094c 0E40D2E5 		ldrb	r4, [r2, #14]	@ zero_extendqisi2
 4379 0950 054084E1 		orr	r4, r4, r5
 4380 0954 00408CE5 		str	r4, [ip]
 4381 0958 0FC0D2E5 		ldrb	ip, [r2, #15]	@ zero_extendqisi2
 4382 095c 0CCCA0E1 		lsl	ip, ip, #24
 4383 0960 00C080E5 		str	ip, [r0]
 4384 0964 00C090E5 		ldr	ip, [r0]
 4385 0968 1040D2E5 		ldrb	r4, [r2, #16]	@ zero_extendqisi2
 4386 096c 04C88CE1 		orr	ip, ip, r4, lsl #16
 4387 0970 00C080E5 		str	ip, [r0]
 4388 0974 00C090E5 		ldr	ip, [r0]
 4389 0978 1140D2E5 		ldrb	r4, [r2, #17]	@ zero_extendqisi2
 4390 097c 04C48CE1 		orr	ip, ip, r4, lsl #8
 4391 0980 00C080E5 		str	ip, [r0]
 4392 0984 004090E5 		ldr	r4, [r0]
 4393 0988 12C0D2E5 		ldrb	ip, [r2, #18]	@ zero_extendqisi2
 4394 098c 04C08CE1 		orr	ip, ip, r4
 4395 0990 00C080E5 		str	ip, [r0]
 4396 0994 1300D2E5 		ldrb	r0, [r2, #19]	@ zero_extendqisi2
 4397 0998 000CA0E1 		lsl	r0, r0, #24
 4398 099c 00008EE5 		str	r0, [lr]
 4399 09a0 00009EE5 		ldr	r0, [lr]
 4400 09a4 14C0D2E5 		ldrb	ip, [r2, #20]	@ zero_extendqisi2
 4401 09a8 0C0880E1 		orr	r0, r0, ip, lsl #16
 4402 09ac 00008EE5 		str	r0, [lr]
 4403 09b0 15C0D2E5 		ldrb	ip, [r2, #21]	@ zero_extendqisi2
 4404 09b4 00009EE5 		ldr	r0, [lr]
 4405 09b8 0C0480E1 		orr	r0, r0, ip, lsl #8
 4406 09bc 00008EE5 		str	r0, [lr]
 4407 09c0 00509EE5 		ldr	r5, [lr]
 4408 09c4 1640D2E5 		ldrb	r4, [r2, #22]	@ zero_extendqisi2
 4409 09c8 28C193E5 		ldr	ip, [r3, #296]
 4410 09cc 2C0193E5 		ldr	r0, [r3, #300]
 4411 09d0 054084E1 		orr	r4, r4, r5
 4412 09d4 00408EE5 		str	r4, [lr]
 4413 09d8 17E0D2E5 		ldrb	lr, [r2, #23]	@ zero_extendqisi2
 4414 09dc 0EECA0E1 		lsl	lr, lr, #24
 4415 09e0 00E08CE5 		str	lr, [ip]
 4416 09e4 00E09CE5 		ldr	lr, [ip]
 4417 09e8 1840D2E5 		ldrb	r4, [r2, #24]	@ zero_extendqisi2
 4418 09ec 04E88EE1 		orr	lr, lr, r4, lsl #16
 4419 09f0 00E08CE5 		str	lr, [ip]
 4420 09f4 00E09CE5 		ldr	lr, [ip]
 4421 09f8 1940D2E5 		ldrb	r4, [r2, #25]	@ zero_extendqisi2
 4422 09fc 04E48EE1 		orr	lr, lr, r4, lsl #8
 4423 0a00 00E08CE5 		str	lr, [ip]
 4424 0a04 00409CE5 		ldr	r4, [ip]
 4425 0a08 1AE0D2E5 		ldrb	lr, [r2, #26]	@ zero_extendqisi2
 4426 0a0c 04E08EE1 		orr	lr, lr, r4
 4427 0a10 00E08CE5 		str	lr, [ip]
 4428 0a14 1BC0D2E5 		ldrb	ip, [r2, #27]	@ zero_extendqisi2
 4429 0a18 0CCCA0E1 		lsl	ip, ip, #24
 4430 0a1c 00C080E5 		str	ip, [r0]
 4431 0a20 00C090E5 		ldr	ip, [r0]
 4432 0a24 1CE0D2E5 		ldrb	lr, [r2, #28]	@ zero_extendqisi2
 4433 0a28 0EC88CE1 		orr	ip, ip, lr, lsl #16
 4434 0a2c 00C080E5 		str	ip, [r0]
 4435 0a30 00C090E5 		ldr	ip, [r0]
 4436 0a34 1DE0D2E5 		ldrb	lr, [r2, #29]	@ zero_extendqisi2
 4437 0a38 0EC48CE1 		orr	ip, ip, lr, lsl #8
 4438 0a3c 00C080E5 		str	ip, [r0]
 4439 0a40 1E20D2E5 		ldrb	r2, [r2, #30]	@ zero_extendqisi2
 4440 0a44 00C090E5 		ldr	ip, [r0]
 4441 0a48 0C2082E1 		orr	r2, r2, ip
 4442 0a4c 002080E5 		str	r2, [r0]
 4443              	.L602:
 4444 0a50 102091E5 		ldr	r2, [r1, #16]
 4445 0a54 000052E3 		cmp	r2, #0
 4446 0a58 7F00000A 		beq	.L604
 4447 0a5c B050D2E1 		ldrh	r5, [r2]
 4448 0a60 D00093E5 		ldr	r0, [r3, #208]
 4449 0a64 B410D2E1 		ldrh	r1, [r2, #4]
 4450 0a68 B2C0D2E1 		ldrh	ip, [r2, #2]
 4451 0a6c 0558A0E1 		lsl	r5, r5, #16
 4452 0a70 B8E0D2E1 		ldrh	lr, [r2, #8]
 4453 0a74 D44093E5 		ldr	r4, [r3, #212]
 4454 0a78 005080E5 		str	r5, [r0]
 4455 0a7c 0118A0E1 		lsl	r1, r1, #16
 4456 0a80 005090E5 		ldr	r5, [r0]
 4457 0a84 0EE8A0E1 		lsl	lr, lr, #16
 4458 0a88 05C08CE1 		orr	ip, ip, r5
 4459 0a8c B650D2E1 		ldrh	r5, [r2, #6]
 4460 0a90 00C080E5 		str	ip, [r0]
 4461 0a94 001084E5 		str	r1, [r4]
 4462 0a98 00C094E5 		ldr	ip, [r4]
 4463 0a9c D80093E5 		ldr	r0, [r3, #216]
 4464 0aa0 BC10D2E1 		ldrh	r1, [r2, #12]
 4465 0aa4 0C5085E1 		orr	r5, r5, ip
 4466 0aa8 BAC0D2E1 		ldrh	ip, [r2, #10]
 4467 0aac 005084E5 		str	r5, [r4]
 4468 0ab0 00E080E5 		str	lr, [r0]
 4469 0ab4 005090E5 		ldr	r5, [r0]
 4470 0ab8 0118A0E1 		lsl	r1, r1, #16
 4471 0abc DC4093E5 		ldr	r4, [r3, #220]
 4472 0ac0 B0E1D2E1 		ldrh	lr, [r2, #16]
 4473 0ac4 05C08CE1 		orr	ip, ip, r5
 4474 0ac8 BE50D2E1 		ldrh	r5, [r2, #14]
 4475 0acc 00C080E5 		str	ip, [r0]
 4476 0ad0 001084E5 		str	r1, [r4]
 4477 0ad4 00C094E5 		ldr	ip, [r4]
 4478 0ad8 0EE8A0E1 		lsl	lr, lr, #16
 4479 0adc E00093E5 		ldr	r0, [r3, #224]
 4480 0ae0 B411D2E1 		ldrh	r1, [r2, #20]
 4481 0ae4 0C5085E1 		orr	r5, r5, ip
 4482 0ae8 B2C1D2E1 		ldrh	ip, [r2, #18]
 4483 0aec 005084E5 		str	r5, [r4]
 4484 0af0 00E080E5 		str	lr, [r0]
 4485 0af4 004090E5 		ldr	r4, [r0]
 4486 0af8 0118A0E1 		lsl	r1, r1, #16
 4487 0afc E4E093E5 		ldr	lr, [r3, #228]
 4488 0b00 04C08CE1 		orr	ip, ip, r4
 4489 0b04 00C080E5 		str	ip, [r0]
 4490 0b08 00108EE5 		str	r1, [lr]
 4491 0b0c B8C1D2E1 		ldrh	ip, [r2, #24]
 4492 0b10 00509EE5 		ldr	r5, [lr]
 4493 0b14 B641D2E1 		ldrh	r4, [r2, #22]
 4494 0b18 E80093E5 		ldr	r0, [r3, #232]
 4495 0b1c BC11D2E1 		ldrh	r1, [r2, #28]
 4496 0b20 0CC8A0E1 		lsl	ip, ip, #16
 4497 0b24 054084E1 		orr	r4, r4, r5
 4498 0b28 BA51D2E1 		ldrh	r5, [r2, #26]
 4499 0b2c 00408EE5 		str	r4, [lr]
 4500 0b30 00C080E5 		str	ip, [r0]
 4501 0b34 004090E5 		ldr	r4, [r0]
 4502 0b38 0118A0E1 		lsl	r1, r1, #16
 4503 0b3c ECE093E5 		ldr	lr, [r3, #236]
 4504 0b40 B0C2D2E1 		ldrh	ip, [r2, #32]
 4505 0b44 045085E1 		orr	r5, r5, r4
 4506 0b48 BE41D2E1 		ldrh	r4, [r2, #30]
 4507 0b4c 005080E5 		str	r5, [r0]
 4508 0b50 00108EE5 		str	r1, [lr]
 4509 0b54 00509EE5 		ldr	r5, [lr]
 4510 0b58 0CC8A0E1 		lsl	ip, ip, #16
 4511 0b5c F00093E5 		ldr	r0, [r3, #240]
 4512 0b60 B412D2E1 		ldrh	r1, [r2, #36]
 4513 0b64 054084E1 		orr	r4, r4, r5
 4514 0b68 B252D2E1 		ldrh	r5, [r2, #34]
 4515 0b6c 00408EE5 		str	r4, [lr]
 4516 0b70 00C080E5 		str	ip, [r0]
 4517 0b74 004090E5 		ldr	r4, [r0]
 4518 0b78 0118A0E1 		lsl	r1, r1, #16
 4519 0b7c F4E093E5 		ldr	lr, [r3, #244]
 4520 0b80 B8C2D2E1 		ldrh	ip, [r2, #40]
 4521 0b84 045085E1 		orr	r5, r5, r4
 4522 0b88 B642D2E1 		ldrh	r4, [r2, #38]
 4523 0b8c 005080E5 		str	r5, [r0]
 4524 0b90 00108EE5 		str	r1, [lr]
 4525 0b94 00509EE5 		ldr	r5, [lr]
 4526 0b98 0CC8A0E1 		lsl	ip, ip, #16
 4527 0b9c F81093E5 		ldr	r1, [r3, #248]
 4528 0ba0 BA02D2E1 		ldrh	r0, [r2, #42]
 4529 0ba4 054084E1 		orr	r4, r4, r5
 4530 0ba8 00408EE5 		str	r4, [lr]
 4531 0bac 00C081E5 		str	ip, [r1]
 4532 0bb0 00C091E5 		ldr	ip, [r1]
 4533 0bb4 0C0080E1 		orr	r0, r0, ip
 4534 0bb8 000081E5 		str	r0, [r1]
 4535 0bbc BCE2D2E1 		ldrh	lr, [r2, #44]
 4536 0bc0 FC4093E5 		ldr	r4, [r3, #252]
 4537 0bc4 B013D2E1 		ldrh	r1, [r2, #48]
 4538 0bc8 BE52D2E1 		ldrh	r5, [r2, #46]
 4539 0bcc 0EE8A0E1 		lsl	lr, lr, #16
 4540 0bd0 B403D2E1 		ldrh	r0, [r2, #52]
 4541 0bd4 00C193E5 		ldr	ip, [r3, #256]
 4542 0bd8 00E084E5 		str	lr, [r4]
 4543 0bdc 0118A0E1 		lsl	r1, r1, #16
 4544 0be0 00E094E5 		ldr	lr, [r4]
 4545 0be4 0008A0E1 		lsl	r0, r0, #16
 4546 0be8 0E5085E1 		orr	r5, r5, lr
 4547 0bec B2E3D2E1 		ldrh	lr, [r2, #50]
 4548 0bf0 005084E5 		str	r5, [r4]
 4549 0bf4 00108CE5 		str	r1, [ip]
 4550 0bf8 00509CE5 		ldr	r5, [ip]
 4551 0bfc 044193E5 		ldr	r4, [r3, #260]
 4552 0c00 B813D2E1 		ldrh	r1, [r2, #56]
 4553 0c04 05E08EE1 		orr	lr, lr, r5
 4554 0c08 B653D2E1 		ldrh	r5, [r2, #54]
 4555 0c0c 00E08CE5 		str	lr, [ip]
 4556 0c10 000084E5 		str	r0, [r4]
 4557 0c14 00E094E5 		ldr	lr, [r4]
 4558 0c18 0118A0E1 		lsl	r1, r1, #16
 4559 0c1c 08C193E5 		ldr	ip, [r3, #264]
 4560 0c20 BC03D2E1 		ldrh	r0, [r2, #60]
 4561 0c24 0E5085E1 		orr	r5, r5, lr
 4562 0c28 BAE3D2E1 		ldrh	lr, [r2, #58]
 4563 0c2c 005084E5 		str	r5, [r4]
 4564 0c30 00108CE5 		str	r1, [ip]
 4565 0c34 00409CE5 		ldr	r4, [ip]
 4566 0c38 0008A0E1 		lsl	r0, r0, #16
 4567 0c3c 0C1193E5 		ldr	r1, [r3, #268]
 4568 0c40 BE23D2E1 		ldrh	r2, [r2, #62]
 4569 0c44 04E08EE1 		orr	lr, lr, r4
 4570 0c48 00E08CE5 		str	lr, [ip]
 4571 0c4c 000081E5 		str	r0, [r1]
 4572 0c50 000091E5 		ldr	r0, [r1]
 4573 0c54 002082E1 		orr	r2, r2, r0
 4574 0c58 002081E5 		str	r2, [r1]
 4575              	.L604:
 4576 0c5c CC2093E5 		ldr	r2, [r3, #204]
 4577 0c60 003092E5 		ldr	r3, [r2]
 4578 0c64 013083E3 		orr	r3, r3, #1
 4579 0c68 003082E5 		str	r3, [r2]
 4580 0c6c 7080BDE8 		pop	{r4, r5, r6, pc}
 4582              		.section	.rodata
 4583              		.align	2
 4584              		.set	.LANCHOR2,. + 0
 4585              	.LC0:
 4586 0000 40000000 		.word	64
 4587 0004 20000000 		.word	32
 4588 0008 10000000 		.word	16
 4589 000c 08000000 		.word	8
 4590 0010 04000000 		.word	4
 4591 0014 02000000 		.word	2
 4592 0018 01000000 		.word	1
 4593              	.LC2:
 4594 001c 00000000 		.word	0
 4595 0020 00000100 		.word	65536
 4596 0024 00000200 		.word	131072
 4597 0028 00000000 		.word	0
 4598              		.section	.rodata.bits_per_pixel.70117,"a",%progbits
 4599              		.align	3
 4600              		.set	.LANCHOR5,. + 0
 4603              	bits_per_pixel.70117:
 4604 0000 10000000 		.word	16
 4605 0004 20000000 		.word	32
 4606 0008 10000000 		.word	16
 4607 000c 10000000 		.word	16
 4608 0010 20000000 		.word	32
 4609 0014 08000000 		.word	8
 4610 0018 04000000 		.word	4
 4611 001c 01000000 		.word	1
 4612 0020 20000000 		.word	32
 4613 0024 20000000 		.word	32
 4614 0028 10000000 		.word	16
 4615 002c 20000000 		.word	32
 4616              		.section	.rodata.colormtx_gain_adj,"a",%progbits
 4617              		.align	3
 4618              		.set	.LANCHOR4,. + 0
 4621              	colormtx_gain_adj:
 4622 0000 0001     		.short	256
 4623 0002 0000     		.short	0
 4624 0004 0000     		.short	0
 4625 0006 0000     		.short	0
 4626 0008 0001     		.short	256
 4627 000a 0000     		.short	0
 4628 000c 0000     		.short	0
 4629 000e 0000     		.short	0
 4630 0010 0001     		.short	256
 4631 0012 9600     		.short	150
 4632 0014 1D00     		.short	29
 4633 0016 4D00     		.short	77
 4634 0018 AB07     		.short	1963
 4635 001a 8000     		.short	128
 4636 001c D507     		.short	2005
 4637 001e 9507     		.short	1941
 4638 0020 EB07     		.short	2027
 4639 0022 8000     		.short	128
 4640 0024 0001     		.short	256
 4641 0026 A807     		.short	1960
 4642 0028 4907     		.short	1865
 4643 002a 0001     		.short	256
 4644 002c C601     		.short	454
 4645 002e 0000     		.short	0
 4646 0030 0001     		.short	256
 4647 0032 0000     		.short	0
 4648 0034 6701     		.short	359
 4649 0036 0001     		.short	256
 4650 0038 0000     		.short	0
 4651 003a 0000     		.short	0
 4652 003c 0000     		.short	0
 4653 003e 0001     		.short	256
 4654 0040 0000     		.short	0
 4655 0042 0000     		.short	0
 4656 0044 0000     		.short	0
 4657 0046 0001     		.short	256
 4658              		.section	.rodata.panel_dcdr_tbl.69830,"a",%progbits
 4659              		.align	3
 4660              		.set	.LANCHOR0,. + 0
 4663              	panel_dcdr_tbl.69830:
 4664 0000 0100     		.short	1
 4665 0002 0200     		.short	2
 4666 0004 0300     		.short	3
 4667 0006 0400     		.short	4
 4668 0008 0500     		.short	5
 4669 000a 0600     		.short	6
 4670 000c 0700     		.short	7
 4671 000e 0800     		.short	8
 4672 0010 0900     		.short	9
 4673 0012 0C00     		.short	12
 4674 0014 1000     		.short	16
 4675 0016 1800     		.short	24
 4676 0018 2000     		.short	32
 4677              		.section	.rodata.panel_icksel_tbl.69831,"a",%progbits
 4678              		.align	3
 4679              		.set	.LANCHOR1,. + 0
 4682              	panel_icksel_tbl.69831:
 4683 0000 0000     		.short	0
 4684 0002 0010     		.short	4096
 4685 0004 0030     		.short	12288
 4686 0006 0004     		.short	1024
 4687 0008 0008     		.short	2048
 4688              		.section	.rodata.rw_proc_function_tbl,"a",%progbits
 4689              		.align	3
 4690              		.set	.LANCHOR6,. + 0
 4693              	rw_proc_function_tbl:
 4694 0000 00000000 		.word	SetRwProcAbility_Write_0
 4695 0004 00000000 		.word	SetRwProcAbility_Read_0
 4696 0008 00000000 		.word	SetRwProcAbility_Read_2
 4697 000c 00000000 		.word	SetRwProcAbility_Read_3
 4698              		.section	.rodata.tcon_function_tbl.69870,"a",%progbits
 4699              		.align	3
 4700              		.set	.LANCHOR3,. + 0
 4703              	tcon_function_tbl.69870:
 4704 0000 00000000 		.word	SetLcdTcon_STVA_VS
 4705 0004 00000000 		.word	SetLcdTcon_STVB_VE
 4706 0008 00000000 		.word	SetLcdTcon_STH_HS
 4707 000c 00000000 		.word	SetLcdTcon_STB_HE
 4708 0010 00000000 		.word	SetLcdTcon_CPV_GCK
 4709 0014 00000000 		.word	SetLcdTcon_POLA
 4710 0018 00000000 		.word	SetLcdTcon_POLB
 4711 001c 00000000 		.word	SetLcdTcon_DE
 4712              		.ident	"GCC: (GNU Tools for ARM Embedded Processors 6-2017-q2-update) 6.3.1 20170620 (release) [AR